
nano:     file format elf32-i386


Disassembly of section .init:

00001094 <__entry>:
    1094:	66 8c d0             	mov    %ss,%ax
    1097:	8e d8                	mov    %eax,%ds
    1099:	8e c0                	mov    %eax,%es
    109b:	8e e0                	mov    %eax,%fs
    109d:	b8 01 00 00 00       	mov    $0x1,%eax
    10a2:	0f a2                	cpuid  
    10a4:	0f ba e2 0b          	bt     $0xb,%edx
    10a8:	73 0c                	jae    10b6 <__entry+0x22>
    10aa:	8d 05 f4 6e 02 00    	lea    0x26ef4,%eax
    10b0:	c7 00 b7 ed 01 00    	movl   $0x1edb7,(%eax)
    10b6:	6a 00                	push   $0x0
    10b8:	89 e5                	mov    %esp,%ebp
    10ba:	57                   	push   %edi
    10bb:	e8 20 57 00 00       	call   67e0 <__main>

Disassembly of section .text:

000010c0 <insert_char>:
    10c0:	55                   	push   %ebp
    10c1:	89 e5                	mov    %esp,%ebp
    10c3:	57                   	push   %edi
    10c4:	56                   	push   %esi
    10c5:	53                   	push   %ebx
    10c6:	83 ec 3c             	sub    $0x3c,%esp
    10c9:	8d 75 e0             	lea    -0x20(%ebp),%esi
    10cc:	89 c3                	mov    %eax,%ebx
    10ce:	8d 7d db             	lea    -0x25(%ebp),%edi
    10d1:	89 74 24 04          	mov    %esi,0x4(%esp)
    10d5:	c7 04 24 d4 6f 02 00 	movl   $0x26fd4,(%esp)
    10dc:	e8 7f 53 00 00       	call   6460 <tag_get_pt>
    10e1:	8d 45 d4             	lea    -0x2c(%ebp),%eax
    10e4:	c7 44 24 0c 05 00 00 	movl   $0x5,0xc(%esp)
    10eb:	00 
    10ec:	89 44 24 08          	mov    %eax,0x8(%esp)
    10f0:	89 7c 24 04          	mov    %edi,0x4(%esp)
    10f4:	89 1c 24             	mov    %ebx,(%esp)
    10f7:	c7 45 d4 00 00 00 00 	movl   $0x0,-0x2c(%ebp)
    10fe:	e8 8d 6a 00 00       	call   7b90 <chr_encode>
    1103:	8b 45 d4             	mov    -0x2c(%ebp),%eax
    1106:	89 7c 24 0c          	mov    %edi,0xc(%esp)
    110a:	c7 44 24 08 00 00 00 	movl   $0x0,0x8(%esp)
    1111:	00 
    1112:	89 74 24 04          	mov    %esi,0x4(%esp)
    1116:	c6 44 05 db 00       	movb   $0x0,-0x25(%ebp,%eax,1)
    111b:	a1 04 70 02 00       	mov    0x27004,%eax
    1120:	89 04 24             	mov    %eax,(%esp)
    1123:	e8 38 4d 00 00       	call   5e60 <sheet_insert>
    1128:	a1 d0 6f 02 00       	mov    0x26fd0,%eax
    112d:	83 fb 0a             	cmp    $0xa,%ebx
    1130:	74 16                	je     1148 <insert_char+0x88>
    1132:	83 c8 02             	or     $0x2,%eax
    1135:	a3 d0 6f 02 00       	mov    %eax,0x26fd0
    113a:	83 c4 3c             	add    $0x3c,%esp
    113d:	5b                   	pop    %ebx
    113e:	5e                   	pop    %esi
    113f:	5f                   	pop    %edi
    1140:	5d                   	pop    %ebp
    1141:	c3                   	ret    
    1142:	8d b6 00 00 00 00    	lea    0x0(%esi),%esi
    1148:	83 c8 03             	or     $0x3,%eax
    114b:	a3 d0 6f 02 00       	mov    %eax,0x26fd0
    1150:	83 c4 3c             	add    $0x3c,%esp
    1153:	5b                   	pop    %ebx
    1154:	5e                   	pop    %esi
    1155:	5f                   	pop    %edi
    1156:	5d                   	pop    %ebp
    1157:	c3                   	ret    
    1158:	90                   	nop
    1159:	8d b4 26 00 00 00 00 	lea    0x0(%esi,%eiz,1),%esi

00001160 <pt_get_sof>:
    1160:	55                   	push   %ebp
    1161:	89 e5                	mov    %esp,%ebp
    1163:	83 ec 28             	sub    $0x28,%esp
    1166:	89 44 24 0c          	mov    %eax,0xc(%esp)
    116a:	8d 45 f0             	lea    -0x10(%ebp),%eax
    116d:	89 44 24 04          	mov    %eax,0x4(%esp)
    1171:	a1 04 70 02 00       	mov    0x27004,%eax
    1176:	c7 44 24 08 00 00 00 	movl   $0x0,0x8(%esp)
    117d:	00 
    117e:	89 04 24             	mov    %eax,(%esp)
    1181:	c7 45 f4 01 00 00 00 	movl   $0x1,-0xc(%ebp)
    1188:	c7 45 f0 01 00 00 00 	movl   $0x1,-0x10(%ebp)
    118f:	e8 3c 4f 00 00       	call   60d0 <sheet_get_cell_pt>
    1194:	c9                   	leave  
    1195:	c3                   	ret    
    1196:	8d 76 00             	lea    0x0(%esi),%esi
    1199:	8d bc 27 00 00 00 00 	lea    0x0(%edi,%eiz,1),%edi

000011a0 <caret_update>:
    11a0:	55                   	push   %ebp
    11a1:	89 e5                	mov    %esp,%ebp
    11a3:	53                   	push   %ebx
    11a4:	83 ec 24             	sub    $0x24,%esp
    11a7:	8d 5d e8             	lea    -0x18(%ebp),%ebx
    11aa:	89 5c 24 04          	mov    %ebx,0x4(%esp)
    11ae:	c7 04 24 d4 6f 02 00 	movl   $0x26fd4,(%esp)
    11b5:	e8 a6 52 00 00       	call   6460 <tag_get_pt>
    11ba:	8d 45 f0             	lea    -0x10(%ebp),%eax
    11bd:	89 44 24 04          	mov    %eax,0x4(%esp)
    11c1:	89 1c 24             	mov    %ebx,(%esp)
    11c4:	e8 07 51 00 00       	call   62d0 <spt_get_coord>
    11c9:	8b 55 f0             	mov    -0x10(%ebp),%edx
    11cc:	8b 0d c8 6f 02 00    	mov    0x26fc8,%ecx
    11d2:	a1 d0 6f 02 00       	mov    0x26fd0,%eax
    11d7:	39 ca                	cmp    %ecx,%edx
    11d9:	7d 0b                	jge    11e6 <caret_update+0x46>
    11db:	89 15 c8 6f 02 00    	mov    %edx,0x26fc8
    11e1:	83 c8 01             	or     $0x1,%eax
    11e4:	89 d1                	mov    %edx,%ecx
    11e6:	8b 1d c0 6f 02 00    	mov    0x26fc0,%ebx
    11ec:	01 d9                	add    %ebx,%ecx
    11ee:	39 ca                	cmp    %ecx,%edx
    11f0:	7c 0c                	jl     11fe <caret_update+0x5e>
    11f2:	29 da                	sub    %ebx,%edx
    11f4:	83 c8 01             	or     $0x1,%eax
    11f7:	42                   	inc    %edx
    11f8:	89 15 c8 6f 02 00    	mov    %edx,0x26fc8
    11fe:	8b 55 f4             	mov    -0xc(%ebp),%edx
    1201:	8b 0d cc 6f 02 00    	mov    0x26fcc,%ecx
    1207:	39 ca                	cmp    %ecx,%edx
    1209:	7d 0b                	jge    1216 <caret_update+0x76>
    120b:	89 15 cc 6f 02 00    	mov    %edx,0x26fcc
    1211:	83 c8 01             	or     $0x1,%eax
    1214:	89 d1                	mov    %edx,%ecx
    1216:	8b 1d c4 6f 02 00    	mov    0x26fc4,%ebx
    121c:	01 d9                	add    %ebx,%ecx
    121e:	39 ca                	cmp    %ecx,%edx
    1220:	7c 0c                	jl     122e <caret_update+0x8e>
    1222:	29 da                	sub    %ebx,%edx
    1224:	83 c8 01             	or     $0x1,%eax
    1227:	42                   	inc    %edx
    1228:	89 15 cc 6f 02 00    	mov    %edx,0x26fcc
    122e:	83 c8 0c             	or     $0xc,%eax
    1231:	a3 d0 6f 02 00       	mov    %eax,0x26fd0
    1236:	83 c4 24             	add    $0x24,%esp
    1239:	5b                   	pop    %ebx
    123a:	5d                   	pop    %ebp
    123b:	c3                   	ret    
    123c:	8d 74 26 00          	lea    0x0(%esi,%eiz,1),%esi

00001240 <pt_get_sol>:
    1240:	55                   	push   %ebp
    1241:	89 e5                	mov    %esp,%ebp
    1243:	56                   	push   %esi
    1244:	53                   	push   %ebx
    1245:	89 d6                	mov    %edx,%esi
    1247:	83 ec 20             	sub    $0x20,%esp
    124a:	8d 5d f0             	lea    -0x10(%ebp),%ebx
    124d:	89 5c 24 04          	mov    %ebx,0x4(%esp)
    1251:	89 04 24             	mov    %eax,(%esp)
    1254:	e8 77 50 00 00       	call   62d0 <spt_get_coord>
    1259:	a1 04 70 02 00       	mov    0x27004,%eax
    125e:	89 74 24 0c          	mov    %esi,0xc(%esp)
    1262:	89 5c 24 04          	mov    %ebx,0x4(%esp)
    1266:	c7 44 24 08 00 00 00 	movl   $0x0,0x8(%esp)
    126d:	00 
    126e:	89 04 24             	mov    %eax,(%esp)
    1271:	c7 45 f4 01 00 00 00 	movl   $0x1,-0xc(%ebp)
    1278:	e8 53 4e 00 00       	call   60d0 <sheet_get_cell_pt>
    127d:	83 c4 20             	add    $0x20,%esp
    1280:	5b                   	pop    %ebx
    1281:	5e                   	pop    %esi
    1282:	5d                   	pop    %ebp
    1283:	c3                   	ret    
    1284:	8d b6 00 00 00 00    	lea    0x0(%esi),%esi
    128a:	8d bf 00 00 00 00    	lea    0x0(%edi),%edi

00001290 <status_display>:
    1290:	55                   	push   %ebp
    1291:	89 e5                	mov    %esp,%ebp
    1293:	53                   	push   %ebx
    1294:	83 ec 14             	sub    $0x14,%esp
    1297:	89 c3                	mov    %eax,%ebx
    1299:	a1 a8 6f 02 00       	mov    0x26fa8,%eax
    129e:	48                   	dec    %eax
    129f:	c7 44 24 04 00 00 00 	movl   $0x0,0x4(%esp)
    12a6:	00 
    12a7:	89 44 24 08          	mov    %eax,0x8(%esp)
    12ab:	a1 a0 6f 02 00       	mov    0x26fa0,%eax
    12b0:	89 04 24             	mov    %eax,(%esp)
    12b3:	e8 68 0d 01 00       	call   12020 <console_set_pos>
    12b8:	a1 a0 6f 02 00       	mov    0x26fa0,%eax
    12bd:	89 04 24             	mov    %eax,(%esp)
    12c0:	c7 44 24 04 02 00 00 	movl   $0x2,0x4(%esp)
    12c7:	00 
    12c8:	e8 f3 09 01 00       	call   11cc0 <console_set_style>
    12cd:	8b 15 a4 6f 02 00    	mov    0x26fa4,%edx
    12d3:	b8 03 00 00 00       	mov    $0x3,%eax
    12d8:	89 5c 24 08          	mov    %ebx,0x8(%esp)
    12dc:	29 d0                	sub    %edx,%eax
    12de:	c7 04 24 92 3a 02 00 	movl   $0x23a92,(%esp)
    12e5:	89 44 24 04          	mov    %eax,0x4(%esp)
    12e9:	e8 e2 db 00 00       	call   eed0 <printf>
    12ee:	a1 a0 6f 02 00       	mov    0x26fa0,%eax
    12f3:	89 04 24             	mov    %eax,(%esp)
    12f6:	e8 95 08 01 00       	call   11b90 <console_flush>
    12fb:	a1 a0 6f 02 00       	mov    0x26fa0,%eax
    1300:	c7 44 24 04 00 00 00 	movl   $0x0,0x4(%esp)
    1307:	00 
    1308:	89 04 24             	mov    %eax,(%esp)
    130b:	e8 b0 09 01 00       	call   11cc0 <console_set_style>
    1310:	83 0d d0 6f 02 00 08 	orl    $0x8,0x26fd0
    1317:	83 c4 14             	add    $0x14,%esp
    131a:	5b                   	pop    %ebx
    131b:	5d                   	pop    %ebp
    131c:	c3                   	ret    
    131d:	8d 76 00             	lea    0x0(%esi),%esi

00001320 <pt_get_eol>:
    1320:	55                   	push   %ebp
    1321:	89 e5                	mov    %esp,%ebp
    1323:	56                   	push   %esi
    1324:	53                   	push   %ebx
    1325:	89 d6                	mov    %edx,%esi
    1327:	83 ec 20             	sub    $0x20,%esp
    132a:	8d 5d f0             	lea    -0x10(%ebp),%ebx
    132d:	89 5c 24 04          	mov    %ebx,0x4(%esp)
    1331:	89 04 24             	mov    %eax,(%esp)
    1334:	e8 97 4f 00 00       	call   62d0 <spt_get_coord>
    1339:	8d 45 ec             	lea    -0x14(%ebp),%eax
    133c:	89 44 24 08          	mov    %eax,0x8(%esp)
    1340:	8b 45 f0             	mov    -0x10(%ebp),%eax
    1343:	89 44 24 04          	mov    %eax,0x4(%esp)
    1347:	a1 04 70 02 00       	mov    0x27004,%eax
    134c:	89 04 24             	mov    %eax,(%esp)
    134f:	e8 2c 4e 00 00       	call   6180 <sheet_get_row_width>
    1354:	8b 45 ec             	mov    -0x14(%ebp),%eax
    1357:	48                   	dec    %eax
    1358:	89 74 24 0c          	mov    %esi,0xc(%esp)
    135c:	89 45 f4             	mov    %eax,-0xc(%ebp)
    135f:	a1 04 70 02 00       	mov    0x27004,%eax
    1364:	89 5c 24 04          	mov    %ebx,0x4(%esp)
    1368:	c7 44 24 08 01 00 00 	movl   $0x1,0x8(%esp)
    136f:	00 
    1370:	89 04 24             	mov    %eax,(%esp)
    1373:	e8 58 4d 00 00       	call   60d0 <sheet_get_cell_pt>
    1378:	83 c4 20             	add    $0x20,%esp
    137b:	5b                   	pop    %ebx
    137c:	5e                   	pop    %esi
    137d:	5d                   	pop    %ebp
    137e:	c3                   	ret    
    137f:	90                   	nop

00001380 <caret_move_relative>:
    1380:	55                   	push   %ebp
    1381:	89 e5                	mov    %esp,%ebp
    1383:	57                   	push   %edi
    1384:	56                   	push   %esi
    1385:	53                   	push   %ebx
    1386:	83 ec 6c             	sub    $0x6c,%esp
    1389:	8d 75 b0             	lea    -0x50(%ebp),%esi
    138c:	89 c3                	mov    %eax,%ebx
    138e:	8d 7d b8             	lea    -0x48(%ebp),%edi
    1391:	8a 45 08             	mov    0x8(%ebp),%al
    1394:	89 74 24 04          	mov    %esi,0x4(%esp)
    1398:	c7 04 24 d4 6f 02 00 	movl   $0x26fd4,(%esp)
    139f:	89 4d a4             	mov    %ecx,-0x5c(%ebp)
    13a2:	88 45 a3             	mov    %al,-0x5d(%ebp)
    13a5:	89 55 9c             	mov    %edx,-0x64(%ebp)
    13a8:	e8 b3 50 00 00       	call   6460 <tag_get_pt>
    13ad:	89 7c 24 04          	mov    %edi,0x4(%esp)
    13b1:	89 34 24             	mov    %esi,(%esp)
    13b4:	e8 17 4f 00 00       	call   62d0 <spt_get_coord>
    13b9:	8b 4d b8             	mov    -0x48(%ebp),%ecx
    13bc:	8b 45 bc             	mov    -0x44(%ebp),%eax
    13bf:	8b 55 9c             	mov    -0x64(%ebp),%edx
    13c2:	01 d9                	add    %ebx,%ecx
    13c4:	01 d0                	add    %edx,%eax
    13c6:	89 4d b8             	mov    %ecx,-0x48(%ebp)
    13c9:	89 45 bc             	mov    %eax,-0x44(%ebp)
    13cc:	85 db                	test   %ebx,%ebx
    13ce:	0f 88 b4 01 00 00    	js     1588 <caret_move_relative+0x208>
    13d4:	85 d2                	test   %edx,%edx
    13d6:	0f 88 74 01 00 00    	js     1550 <caret_move_relative+0x1d0>
    13dc:	85 db                	test   %ebx,%ebx
    13de:	7e 26                	jle    1406 <caret_move_relative+0x86>
    13e0:	8d 45 ac             	lea    -0x54(%ebp),%eax
    13e3:	89 55 9c             	mov    %edx,-0x64(%ebp)
    13e6:	89 44 24 04          	mov    %eax,0x4(%esp)
    13ea:	a1 04 70 02 00       	mov    0x27004,%eax
    13ef:	89 04 24             	mov    %eax,(%esp)
    13f2:	e8 89 4e 00 00       	call   6280 <sheet_get_num_rows>
    13f7:	8b 45 ac             	mov    -0x54(%ebp),%eax
    13fa:	39 45 b8             	cmp    %eax,-0x48(%ebp)
    13fd:	8b 55 9c             	mov    -0x64(%ebp),%edx
    1400:	0f 8f fa 00 00 00    	jg     1500 <caret_move_relative+0x180>
    1406:	8b 4d a4             	mov    -0x5c(%ebp),%ecx
    1409:	85 c9                	test   %ecx,%ecx
    140b:	0f 94 c0             	sete   %al
    140e:	85 d2                	test   %edx,%edx
    1410:	0f 94 c3             	sete   %bl
    1413:	20 c3                	and    %al,%bl
    1415:	74 08                	je     141f <caret_move_relative+0x9f>
    1417:	a1 f4 6f 02 00       	mov    0x26ff4,%eax
    141c:	89 45 bc             	mov    %eax,-0x44(%ebp)
    141f:	8b 45 a4             	mov    -0x5c(%ebp),%eax
    1422:	89 74 24 0c          	mov    %esi,0xc(%esp)
    1426:	89 44 24 08          	mov    %eax,0x8(%esp)
    142a:	a1 04 70 02 00       	mov    0x27004,%eax
    142f:	89 7c 24 04          	mov    %edi,0x4(%esp)
    1433:	89 04 24             	mov    %eax,(%esp)
    1436:	8d 75 c8             	lea    -0x38(%ebp),%esi
    1439:	e8 92 4c 00 00       	call   60d0 <sheet_get_cell_pt>
    143e:	8d 7d d0             	lea    -0x30(%ebp),%edi
    1441:	8b 55 b4             	mov    -0x4c(%ebp),%edx
    1444:	8b 45 b0             	mov    -0x50(%ebp),%eax
    1447:	89 74 24 04          	mov    %esi,0x4(%esp)
    144b:	c7 04 24 d4 6f 02 00 	movl   $0x26fd4,(%esp)
    1452:	89 55 c4             	mov    %edx,-0x3c(%ebp)
    1455:	89 45 c0             	mov    %eax,-0x40(%ebp)
    1458:	e8 03 50 00 00       	call   6460 <tag_get_pt>
    145d:	89 7c 24 04          	mov    %edi,0x4(%esp)
    1461:	c7 04 24 e4 6f 02 00 	movl   $0x26fe4,(%esp)
    1468:	e8 f3 4f 00 00       	call   6460 <tag_get_pt>
    146d:	89 7c 24 04          	mov    %edi,0x4(%esp)
    1471:	89 34 24             	mov    %esi,(%esp)
    1474:	8d 7d c0             	lea    -0x40(%ebp),%edi
    1477:	e8 e4 4e 00 00       	call   6360 <spt_equal>
    147c:	8b 15 04 70 02 00    	mov    0x27004,%edx
    1482:	89 14 24             	mov    %edx,(%esp)
    1485:	c7 44 24 04 d4 6f 02 	movl   $0x26fd4,0x4(%esp)
    148c:	00 
    148d:	88 45 9c             	mov    %al,-0x64(%ebp)
    1490:	e8 9b 4f 00 00       	call   6430 <sheet_remove_tag>
    1495:	8b 15 04 70 02 00    	mov    0x27004,%edx
    149b:	c7 44 24 08 d4 6f 02 	movl   $0x26fd4,0x8(%esp)
    14a2:	00 
    14a3:	89 7c 24 04          	mov    %edi,0x4(%esp)
    14a7:	89 14 24             	mov    %edx,(%esp)
    14aa:	e8 51 4f 00 00       	call   6400 <sheet_place_tag>
    14af:	80 7d a3 00          	cmpb   $0x0,-0x5d(%ebp)
    14b3:	74 53                	je     1508 <caret_move_relative+0x188>
    14b5:	8d 55 e0             	lea    -0x20(%ebp),%edx
    14b8:	89 3c 24             	mov    %edi,(%esp)
    14bb:	89 54 24 04          	mov    %edx,0x4(%esp)
    14bf:	e8 0c 4e 00 00       	call   62d0 <spt_get_coord>
    14c4:	8d 45 d8             	lea    -0x28(%ebp),%eax
    14c7:	89 44 24 04          	mov    %eax,0x4(%esp)
    14cb:	89 34 24             	mov    %esi,(%esp)
    14ce:	e8 fd 4d 00 00       	call   62d0 <spt_get_coord>
    14d3:	8b 45 e0             	mov    -0x20(%ebp),%eax
    14d6:	39 45 d8             	cmp    %eax,-0x28(%ebp)
    14d9:	0f 84 c9 00 00 00    	je     15a8 <caret_move_relative+0x228>
    14df:	83 0d d0 6f 02 00 01 	orl    $0x1,0x26fd0
    14e6:	84 db                	test   %bl,%bl
    14e8:	75 08                	jne    14f2 <caret_move_relative+0x172>
    14ea:	8b 45 e4             	mov    -0x1c(%ebp),%eax
    14ed:	a3 f4 6f 02 00       	mov    %eax,0x26ff4
    14f2:	e8 a9 fc ff ff       	call   11a0 <caret_update>
    14f7:	83 c4 6c             	add    $0x6c,%esp
    14fa:	5b                   	pop    %ebx
    14fb:	5e                   	pop    %esi
    14fc:	5f                   	pop    %edi
    14fd:	5d                   	pop    %ebp
    14fe:	c3                   	ret    
    14ff:	90                   	nop
    1500:	89 45 b8             	mov    %eax,-0x48(%ebp)
    1503:	e9 fe fe ff ff       	jmp    1406 <caret_move_relative+0x86>
    1508:	8b 15 04 70 02 00    	mov    0x27004,%edx
    150e:	c7 44 24 04 e4 6f 02 	movl   $0x26fe4,0x4(%esp)
    1515:	00 
    1516:	89 14 24             	mov    %edx,(%esp)
    1519:	e8 12 4f 00 00       	call   6430 <sheet_remove_tag>
    151e:	8b 15 04 70 02 00    	mov    0x27004,%edx
    1524:	89 14 24             	mov    %edx,(%esp)
    1527:	c7 44 24 08 e4 6f 02 	movl   $0x26fe4,0x8(%esp)
    152e:	00 
    152f:	89 7c 24 04          	mov    %edi,0x4(%esp)
    1533:	e8 c8 4e 00 00       	call   6400 <sheet_place_tag>
    1538:	8d 55 e0             	lea    -0x20(%ebp),%edx
    153b:	89 54 24 04          	mov    %edx,0x4(%esp)
    153f:	89 3c 24             	mov    %edi,(%esp)
    1542:	e8 89 4d 00 00       	call   62d0 <spt_get_coord>
    1547:	8a 45 9c             	mov    -0x64(%ebp),%al
    154a:	84 c0                	test   %al,%al
    154c:	75 98                	jne    14e6 <caret_move_relative+0x166>
    154e:	eb 8f                	jmp    14df <caret_move_relative+0x15f>
    1550:	85 c0                	test   %eax,%eax
    1552:	0f 8f 84 fe ff ff    	jg     13dc <caret_move_relative+0x5c>
    1558:	83 f9 01             	cmp    $0x1,%ecx
    155b:	7e 5b                	jle    15b8 <caret_move_relative+0x238>
    155d:	8d 41 ff             	lea    -0x1(%ecx),%eax
    1560:	8d 4d bc             	lea    -0x44(%ebp),%ecx
    1563:	89 45 b8             	mov    %eax,-0x48(%ebp)
    1566:	89 44 24 04          	mov    %eax,0x4(%esp)
    156a:	a1 04 70 02 00       	mov    0x27004,%eax
    156f:	89 4c 24 08          	mov    %ecx,0x8(%esp)
    1573:	89 04 24             	mov    %eax,(%esp)
    1576:	89 55 9c             	mov    %edx,-0x64(%ebp)
    1579:	e8 02 4c 00 00       	call   6180 <sheet_get_row_width>
    157e:	8b 55 9c             	mov    -0x64(%ebp),%edx
    1581:	e9 56 fe ff ff       	jmp    13dc <caret_move_relative+0x5c>
    1586:	66 90                	xchg   %ax,%ax
    1588:	85 c9                	test   %ecx,%ecx
    158a:	0f 8f 44 fe ff ff    	jg     13d4 <caret_move_relative+0x54>
    1590:	c7 45 b8 01 00 00 00 	movl   $0x1,-0x48(%ebp)
    1597:	b9 01 00 00 00       	mov    $0x1,%ecx
    159c:	e9 33 fe ff ff       	jmp    13d4 <caret_move_relative+0x54>
    15a1:	8d b4 26 00 00 00 00 	lea    0x0(%esi,%eiz,1),%esi
    15a8:	83 0d d0 6f 02 00 02 	orl    $0x2,0x26fd0
    15af:	e9 32 ff ff ff       	jmp    14e6 <caret_move_relative+0x166>
    15b4:	8d 74 26 00          	lea    0x0(%esi,%eiz,1),%esi
    15b8:	c7 45 bc 01 00 00 00 	movl   $0x1,-0x44(%ebp)
    15bf:	e9 18 fe ff ff       	jmp    13dc <caret_move_relative+0x5c>
    15c4:	8d b6 00 00 00 00    	lea    0x0(%esi),%esi
    15ca:	8d bf 00 00 00 00    	lea    0x0(%edi),%edi

000015d0 <pane_status_display>:
    15d0:	55                   	push   %ebp
    15d1:	89 e5                	mov    %esp,%ebp
    15d3:	53                   	push   %ebx
    15d4:	83 ec 34             	sub    $0x34,%esp
    15d7:	8d 5d e8             	lea    -0x18(%ebp),%ebx
    15da:	89 5c 24 04          	mov    %ebx,0x4(%esp)
    15de:	c7 04 24 d4 6f 02 00 	movl   $0x26fd4,(%esp)
    15e5:	e8 76 4e 00 00       	call   6460 <tag_get_pt>
    15ea:	8d 45 f0             	lea    -0x10(%ebp),%eax
    15ed:	89 44 24 04          	mov    %eax,0x4(%esp)
    15f1:	89 1c 24             	mov    %ebx,(%esp)
    15f4:	e8 d7 4c 00 00       	call   62d0 <spt_get_coord>
    15f9:	8d 45 e4             	lea    -0x1c(%ebp),%eax
    15fc:	89 44 24 04          	mov    %eax,0x4(%esp)
    1600:	a1 04 70 02 00       	mov    0x27004,%eax
    1605:	89 04 24             	mov    %eax,(%esp)
    1608:	e8 73 4c 00 00       	call   6280 <sheet_get_num_rows>
    160d:	a1 a8 6f 02 00       	mov    0x26fa8,%eax
    1612:	83 e8 03             	sub    $0x3,%eax
    1615:	c7 44 24 04 00 00 00 	movl   $0x0,0x4(%esp)
    161c:	00 
    161d:	89 44 24 08          	mov    %eax,0x8(%esp)
    1621:	a1 a0 6f 02 00       	mov    0x26fa0,%eax
    1626:	89 04 24             	mov    %eax,(%esp)
    1629:	e8 f2 09 01 00       	call   12020 <console_set_pos>
    162e:	a1 a0 6f 02 00       	mov    0x26fa0,%eax
    1633:	89 04 24             	mov    %eax,(%esp)
    1636:	c7 44 24 04 00 00 00 	movl   $0x0,0x4(%esp)
    163d:	00 
    163e:	e8 7d 06 01 00       	call   11cc0 <console_set_style>
    1643:	c7 04 24 83 44 02 00 	movl   $0x24483,(%esp)
    164a:	e8 81 d8 00 00       	call   eed0 <printf>
    164f:	8b 15 a4 6f 02 00    	mov    0x26fa4,%edx
    1655:	29 c2                	sub    %eax,%edx
    1657:	c7 44 24 08 57 52 02 	movl   $0x25257,0x8(%esp)
    165e:	00 
    165f:	89 54 24 04          	mov    %edx,0x4(%esp)
    1663:	c7 04 24 98 3a 02 00 	movl   $0x23a98,(%esp)
    166a:	e8 61 d8 00 00       	call   eed0 <printf>
    166f:	a1 a0 6f 02 00       	mov    0x26fa0,%eax
    1674:	89 04 24             	mov    %eax,(%esp)
    1677:	e8 14 05 01 00       	call   11b90 <console_flush>
    167c:	a1 a0 6f 02 00       	mov    0x26fa0,%eax
    1681:	89 04 24             	mov    %eax,(%esp)
    1684:	c7 44 24 04 02 00 00 	movl   $0x2,0x4(%esp)
    168b:	00 
    168c:	e8 2f 06 01 00       	call   11cc0 <console_set_style>
    1691:	c7 04 24 18 3d 02 00 	movl   $0x23d18,(%esp)
    1698:	e8 33 d8 00 00       	call   eed0 <printf>
    169d:	c7 04 24 54 3d 02 00 	movl   $0x23d54,(%esp)
    16a4:	e8 27 d8 00 00       	call   eed0 <printf>
    16a9:	a1 a0 6f 02 00       	mov    0x26fa0,%eax
    16ae:	89 04 24             	mov    %eax,(%esp)
    16b1:	e8 da 04 01 00       	call   11b90 <console_flush>
    16b6:	a1 a0 6f 02 00       	mov    0x26fa0,%eax
    16bb:	c7 44 24 04 00 00 00 	movl   $0x0,0x4(%esp)
    16c2:	00 
    16c3:	89 04 24             	mov    %eax,(%esp)
    16c6:	e8 f5 05 01 00       	call   11cc0 <console_set_style>
    16cb:	83 0d d0 6f 02 00 08 	orl    $0x8,0x26fd0
    16d2:	83 c4 34             	add    $0x34,%esp
    16d5:	5b                   	pop    %ebx
    16d6:	5d                   	pop    %ebp
    16d7:	c3                   	ret    
    16d8:	90                   	nop
    16d9:	8d b4 26 00 00 00 00 	lea    0x0(%esi,%eiz,1),%esi

000016e0 <search_spt_mark_free>:
    16e0:	55                   	push   %ebp
    16e1:	89 e5                	mov    %esp,%ebp
    16e3:	5d                   	pop    %ebp
    16e4:	e9 77 2f 01 00       	jmp    14660 <free>
    16e9:	8d b4 26 00 00 00 00 	lea    0x0(%esi,%eiz,1),%esi

000016f0 <pane_row_range_display>:
    16f0:	55                   	push   %ebp
    16f1:	89 e5                	mov    %esp,%ebp
    16f3:	57                   	push   %edi
    16f4:	56                   	push   %esi
    16f5:	53                   	push   %ebx
    16f6:	81 ec 8c 10 00 00    	sub    $0x108c,%esp
    16fc:	8d b5 c0 ef ff ff    	lea    -0x1040(%ebp),%esi
    1702:	89 95 8c ef ff ff    	mov    %edx,-0x1074(%ebp)
    1708:	89 c3                	mov    %eax,%ebx
    170a:	89 74 24 04          	mov    %esi,0x4(%esp)
    170e:	c7 04 24 e4 6f 02 00 	movl   $0x26fe4,(%esp)
    1715:	e8 46 4d 00 00       	call   6460 <tag_get_pt>
    171a:	8d 85 d8 ef ff ff    	lea    -0x1028(%ebp),%eax
    1720:	89 44 24 04          	mov    %eax,0x4(%esp)
    1724:	89 34 24             	mov    %esi,(%esp)
    1727:	e8 a4 4b 00 00       	call   62d0 <spt_get_coord>
    172c:	89 74 24 04          	mov    %esi,0x4(%esp)
    1730:	c7 04 24 d4 6f 02 00 	movl   $0x26fd4,(%esp)
    1737:	e8 24 4d 00 00       	call   6460 <tag_get_pt>
    173c:	8d 85 e0 ef ff ff    	lea    -0x1020(%ebp),%eax
    1742:	89 44 24 04          	mov    %eax,0x4(%esp)
    1746:	89 34 24             	mov    %esi,(%esp)
    1749:	e8 82 4b 00 00       	call   62d0 <spt_get_coord>
    174e:	8b 8d d8 ef ff ff    	mov    -0x1028(%ebp),%ecx
    1754:	8b 85 e0 ef ff ff    	mov    -0x1020(%ebp),%eax
    175a:	39 c1                	cmp    %eax,%ecx
    175c:	0f 84 08 04 00 00    	je     1b6a <pane_row_range_display+0x47a>
    1762:	89 ca                	mov    %ecx,%edx
    1764:	29 c2                	sub    %eax,%edx
    1766:	89 d0                	mov    %edx,%eax
    1768:	85 c0                	test   %eax,%eax
    176a:	7e 2a                	jle    1796 <pane_row_range_display+0xa6>
    176c:	8b b5 dc ef ff ff    	mov    -0x1024(%ebp),%esi
    1772:	8b 85 e0 ef ff ff    	mov    -0x1020(%ebp),%eax
    1778:	8b 95 e4 ef ff ff    	mov    -0x101c(%ebp),%edx
    177e:	89 85 d8 ef ff ff    	mov    %eax,-0x1028(%ebp)
    1784:	89 95 dc ef ff ff    	mov    %edx,-0x1024(%ebp)
    178a:	89 8d e0 ef ff ff    	mov    %ecx,-0x1020(%ebp)
    1790:	89 b5 e4 ef ff ff    	mov    %esi,-0x101c(%ebp)
    1796:	a1 a0 6f 02 00       	mov    0x26fa0,%eax
    179b:	c7 44 24 08 00 00 00 	movl   $0x0,0x8(%esp)
    17a2:	00 
    17a3:	c7 44 24 04 00 00 00 	movl   $0x0,0x4(%esp)
    17aa:	00 
    17ab:	89 04 24             	mov    %eax,(%esp)
    17ae:	e8 6d 08 01 00       	call   12020 <console_set_pos>
    17b3:	3b 9d 8c ef ff ff    	cmp    -0x1074(%ebp),%ebx
    17b9:	0f 8d e3 02 00 00    	jge    1aa2 <pane_row_range_display+0x3b2>
    17bf:	89 9d 90 ef ff ff    	mov    %ebx,-0x1070(%ebp)
    17c5:	8d 76 00             	lea    0x0(%esi),%esi
    17c8:	8b 15 c8 6f 02 00    	mov    0x26fc8,%edx
    17ce:	8b 85 90 ef ff ff    	mov    -0x1070(%ebp),%eax
    17d4:	01 d0                	add    %edx,%eax
    17d6:	8d 95 c8 ef ff ff    	lea    -0x1038(%ebp),%edx
    17dc:	89 85 c8 ef ff ff    	mov    %eax,-0x1038(%ebp)
    17e2:	a1 cc 6f 02 00       	mov    0x26fcc,%eax
    17e7:	89 85 cc ef ff ff    	mov    %eax,-0x1034(%ebp)
    17ed:	8d 85 a8 ef ff ff    	lea    -0x1058(%ebp),%eax
    17f3:	89 44 24 0c          	mov    %eax,0xc(%esp)
    17f7:	a1 04 70 02 00       	mov    0x27004,%eax
    17fc:	89 54 24 04          	mov    %edx,0x4(%esp)
    1800:	89 04 24             	mov    %eax,(%esp)
    1803:	c7 44 24 08 00 00 00 	movl   $0x0,0x8(%esp)
    180a:	00 
    180b:	e8 c0 48 00 00       	call   60d0 <sheet_get_cell_pt>
    1810:	8b 0d c8 6f 02 00    	mov    0x26fc8,%ecx
    1816:	8b 85 90 ef ff ff    	mov    -0x1070(%ebp),%eax
    181c:	8b 1d c4 6f 02 00    	mov    0x26fc4,%ebx
    1822:	01 c8                	add    %ecx,%eax
    1824:	8d 95 d0 ef ff ff    	lea    -0x1030(%ebp),%edx
    182a:	89 85 d0 ef ff ff    	mov    %eax,-0x1030(%ebp)
    1830:	a1 cc 6f 02 00       	mov    0x26fcc,%eax
    1835:	01 d8                	add    %ebx,%eax
    1837:	89 54 24 04          	mov    %edx,0x4(%esp)
    183b:	89 85 d4 ef ff ff    	mov    %eax,-0x102c(%ebp)
    1841:	8d 85 b0 ef ff ff    	lea    -0x1050(%ebp),%eax
    1847:	89 44 24 0c          	mov    %eax,0xc(%esp)
    184b:	a1 04 70 02 00       	mov    0x27004,%eax
    1850:	89 04 24             	mov    %eax,(%esp)
    1853:	c7 44 24 08 00 00 00 	movl   $0x0,0x8(%esp)
    185a:	00 
    185b:	e8 70 48 00 00       	call   60d0 <sheet_get_cell_pt>
    1860:	8d 85 b8 ef ff ff    	lea    -0x1048(%ebp),%eax
    1866:	89 44 24 14          	mov    %eax,0x14(%esp)
    186a:	8d 95 e8 ef ff ff    	lea    -0x1018(%ebp),%edx
    1870:	8d 85 b0 ef ff ff    	lea    -0x1050(%ebp),%eax
    1876:	89 54 24 0c          	mov    %edx,0xc(%esp)
    187a:	89 44 24 08          	mov    %eax,0x8(%esp)
    187e:	8d 95 a8 ef ff ff    	lea    -0x1058(%ebp),%edx
    1884:	a1 04 70 02 00       	mov    0x27004,%eax
    1889:	89 54 24 04          	mov    %edx,0x4(%esp)
    188d:	89 04 24             	mov    %eax,(%esp)
    1890:	c7 44 24 10 00 10 00 	movl   $0x1000,0x10(%esp)
    1897:	00 
    1898:	e8 a3 47 00 00       	call   6040 <sheet_copy_out>
    189d:	8b 95 d8 ef ff ff    	mov    -0x1028(%ebp),%edx
    18a3:	8b 85 c8 ef ff ff    	mov    -0x1038(%ebp),%eax
    18a9:	39 c2                	cmp    %eax,%edx
    18ab:	0f 84 43 02 00 00    	je     1af4 <pane_row_range_display+0x404>
    18b1:	29 c2                	sub    %eax,%edx
    18b3:	85 d2                	test   %edx,%edx
    18b5:	0f 8e 4f 02 00 00    	jle    1b0a <pane_row_range_display+0x41a>
    18bb:	8b 95 90 ef ff ff    	mov    -0x1070(%ebp),%edx
    18c1:	a1 a0 6f 02 00       	mov    0x26fa0,%eax
    18c6:	89 54 24 08          	mov    %edx,0x8(%esp)
    18ca:	89 04 24             	mov    %eax,(%esp)
    18cd:	c7 44 24 04 00 00 00 	movl   $0x0,0x4(%esp)
    18d4:	00 
    18d5:	e8 46 07 01 00       	call   12020 <console_set_pos>
    18da:	8d 85 e8 ef ff ff    	lea    -0x1018(%ebp),%eax
    18e0:	89 04 24             	mov    %eax,(%esp)
    18e3:	e8 98 63 00 00       	call   7c80 <str_size>
    18e8:	c7 85 a4 ef ff ff 00 	movl   $0x0,-0x105c(%ebp)
    18ef:	00 00 00 
    18f2:	89 85 94 ef ff ff    	mov    %eax,-0x106c(%ebp)
    18f8:	8b 1d cc 6f 02 00    	mov    0x26fcc,%ebx
    18fe:	31 c0                	xor    %eax,%eax
    1900:	eb 1d                	jmp    191f <pane_row_range_display+0x22f>
    1902:	8d b6 00 00 00 00    	lea    0x0(%esi),%esi
    1908:	89 44 24 04          	mov    %eax,0x4(%esp)
    190c:	c7 04 24 9c 3a 02 00 	movl   $0x23a9c,(%esp)
    1913:	e8 b8 d5 00 00       	call   eed0 <printf>
    1918:	43                   	inc    %ebx
    1919:	8b 85 a4 ef ff ff    	mov    -0x105c(%ebp),%eax
    191f:	39 85 94 ef ff ff    	cmp    %eax,-0x106c(%ebp)
    1925:	0f 86 fd 00 00 00    	jbe    1a28 <pane_row_range_display+0x338>
    192b:	8b 85 c8 ef ff ff    	mov    -0x1038(%ebp),%eax
    1931:	39 85 d8 ef ff ff    	cmp    %eax,-0x1028(%ebp)
    1937:	0f 84 9b 00 00 00    	je     19d8 <pane_row_range_display+0x2e8>
    193d:	39 85 e0 ef ff ff    	cmp    %eax,-0x1020(%ebp)
    1943:	74 53                	je     1998 <pane_row_range_display+0x2a8>
    1945:	8b 85 94 ef ff ff    	mov    -0x106c(%ebp),%eax
    194b:	8d 95 a4 ef ff ff    	lea    -0x105c(%ebp),%edx
    1951:	89 44 24 08          	mov    %eax,0x8(%esp)
    1955:	8d 85 e8 ef ff ff    	lea    -0x1018(%ebp),%eax
    195b:	89 54 24 04          	mov    %edx,0x4(%esp)
    195f:	89 04 24             	mov    %eax,(%esp)
    1962:	e8 d9 5e 00 00       	call   7840 <str_decode>
    1967:	83 f8 09             	cmp    $0x9,%eax
    196a:	75 9c                	jne    1908 <pane_row_range_display+0x218>
    196c:	8d 7b 07             	lea    0x7(%ebx),%edi
    196f:	83 e7 f8             	and    $0xfffffff8,%edi
    1972:	47                   	inc    %edi
    1973:	89 fe                	mov    %edi,%esi
    1975:	29 de                	sub    %ebx,%esi
    1977:	85 f6                	test   %esi,%esi
    1979:	7e 16                	jle    1991 <pane_row_range_display+0x2a1>
    197b:	31 db                	xor    %ebx,%ebx
    197d:	8d 76 00             	lea    0x0(%esi),%esi
    1980:	c7 04 24 20 00 00 00 	movl   $0x20,(%esp)
    1987:	43                   	inc    %ebx
    1988:	e8 83 d2 00 00       	call   ec10 <putchar>
    198d:	39 f3                	cmp    %esi,%ebx
    198f:	75 ef                	jne    1980 <pane_row_range_display+0x290>
    1991:	89 fb                	mov    %edi,%ebx
    1993:	eb 84                	jmp    1919 <pane_row_range_display+0x229>
    1995:	8d 76 00             	lea    0x0(%esi),%esi
    1998:	39 9d e4 ef ff ff    	cmp    %ebx,-0x101c(%ebp)
    199e:	75 a5                	jne    1945 <pane_row_range_display+0x255>
    19a0:	a1 a0 6f 02 00       	mov    0x26fa0,%eax
    19a5:	89 04 24             	mov    %eax,(%esp)
    19a8:	e8 e3 01 01 00       	call   11b90 <console_flush>
    19ad:	a1 a0 6f 02 00       	mov    0x26fa0,%eax
    19b2:	89 04 24             	mov    %eax,(%esp)
    19b5:	c7 44 24 04 00 00 00 	movl   $0x0,0x4(%esp)
    19bc:	00 
    19bd:	e8 fe 02 01 00       	call   11cc0 <console_set_style>
    19c2:	a1 a0 6f 02 00       	mov    0x26fa0,%eax
    19c7:	89 04 24             	mov    %eax,(%esp)
    19ca:	e8 c1 01 01 00       	call   11b90 <console_flush>
    19cf:	e9 71 ff ff ff       	jmp    1945 <pane_row_range_display+0x255>
    19d4:	8d 74 26 00          	lea    0x0(%esi,%eiz,1),%esi
    19d8:	39 9d dc ef ff ff    	cmp    %ebx,-0x1024(%ebp)
    19de:	0f 85 59 ff ff ff    	jne    193d <pane_row_range_display+0x24d>
    19e4:	a1 a0 6f 02 00       	mov    0x26fa0,%eax
    19e9:	89 04 24             	mov    %eax,(%esp)
    19ec:	e8 9f 01 01 00       	call   11b90 <console_flush>
    19f1:	a1 a0 6f 02 00       	mov    0x26fa0,%eax
    19f6:	89 04 24             	mov    %eax,(%esp)
    19f9:	c7 44 24 08 f7 f7 f7 	movl   $0xf7f7f7,0x8(%esp)
    1a00:	00 
    1a01:	c7 44 24 04 ff 66 00 	movl   $0x66ff,0x4(%esp)
    1a08:	00 
    1a09:	e8 e2 03 01 00       	call   11df0 <console_set_rgb_color>
    1a0e:	a1 a0 6f 02 00       	mov    0x26fa0,%eax
    1a13:	89 04 24             	mov    %eax,(%esp)
    1a16:	e8 75 01 01 00       	call   11b90 <console_flush>
    1a1b:	8b 85 c8 ef ff ff    	mov    -0x1038(%ebp),%eax
    1a21:	e9 17 ff ff ff       	jmp    193d <pane_row_range_display+0x24d>
    1a26:	66 90                	xchg   %ax,%ax
    1a28:	8b 95 c8 ef ff ff    	mov    -0x1038(%ebp),%edx
    1a2e:	39 95 e0 ef ff ff    	cmp    %edx,-0x1020(%ebp)
    1a34:	74 7e                	je     1ab4 <pane_row_range_display+0x3c4>
    1a36:	8b 35 a4 6f 02 00    	mov    0x26fa4,%esi
    1a3c:	8d 43 ff             	lea    -0x1(%ebx),%eax
    1a3f:	39 f0                	cmp    %esi,%eax
    1a41:	73 1e                	jae    1a61 <pane_row_range_display+0x371>
    1a43:	46                   	inc    %esi
    1a44:	29 de                	sub    %ebx,%esi
    1a46:	85 f6                	test   %esi,%esi
    1a48:	7e 17                	jle    1a61 <pane_row_range_display+0x371>
    1a4a:	31 db                	xor    %ebx,%ebx
    1a4c:	8d 74 26 00          	lea    0x0(%esi,%eiz,1),%esi
    1a50:	c7 04 24 20 00 00 00 	movl   $0x20,(%esp)
    1a57:	43                   	inc    %ebx
    1a58:	e8 b3 d1 00 00       	call   ec10 <putchar>
    1a5d:	39 de                	cmp    %ebx,%esi
    1a5f:	75 ef                	jne    1a50 <pane_row_range_display+0x360>
    1a61:	a1 a0 6f 02 00       	mov    0x26fa0,%eax
    1a66:	89 04 24             	mov    %eax,(%esp)
    1a69:	e8 22 01 01 00       	call   11b90 <console_flush>
    1a6e:	a1 a0 6f 02 00       	mov    0x26fa0,%eax
    1a73:	c7 44 24 04 00 00 00 	movl   $0x0,0x4(%esp)
    1a7a:	00 
    1a7b:	89 04 24             	mov    %eax,(%esp)
    1a7e:	e8 3d 02 01 00       	call   11cc0 <console_set_style>
    1a83:	8b 9d 90 ef ff ff    	mov    -0x1070(%ebp),%ebx
    1a89:	43                   	inc    %ebx
    1a8a:	8b 95 8c ef ff ff    	mov    -0x1074(%ebp),%edx
    1a90:	89 9d 90 ef ff ff    	mov    %ebx,-0x1070(%ebp)
    1a96:	39 95 90 ef ff ff    	cmp    %edx,-0x1070(%ebp)
    1a9c:	0f 85 26 fd ff ff    	jne    17c8 <pane_row_range_display+0xd8>
    1aa2:	83 0d d0 6f 02 00 08 	orl    $0x8,0x26fd0
    1aa9:	81 c4 8c 10 00 00    	add    $0x108c,%esp
    1aaf:	5b                   	pop    %ebx
    1ab0:	5e                   	pop    %esi
    1ab1:	5f                   	pop    %edi
    1ab2:	5d                   	pop    %ebp
    1ab3:	c3                   	ret    
    1ab4:	3b 9d e4 ef ff ff    	cmp    -0x101c(%ebp),%ebx
    1aba:	0f 85 76 ff ff ff    	jne    1a36 <pane_row_range_display+0x346>
    1ac0:	a1 a0 6f 02 00       	mov    0x26fa0,%eax
    1ac5:	89 04 24             	mov    %eax,(%esp)
    1ac8:	e8 c3 00 01 00       	call   11b90 <console_flush>
    1acd:	a1 a0 6f 02 00       	mov    0x26fa0,%eax
    1ad2:	89 04 24             	mov    %eax,(%esp)
    1ad5:	c7 44 24 04 00 00 00 	movl   $0x0,0x4(%esp)
    1adc:	00 
    1add:	e8 de 01 01 00       	call   11cc0 <console_set_style>
    1ae2:	a1 a0 6f 02 00       	mov    0x26fa0,%eax
    1ae7:	89 04 24             	mov    %eax,(%esp)
    1aea:	e8 a1 00 01 00       	call   11b90 <console_flush>
    1aef:	e9 42 ff ff ff       	jmp    1a36 <pane_row_range_display+0x346>
    1af4:	8b 95 dc ef ff ff    	mov    -0x1024(%ebp),%edx
    1afa:	8b bd cc ef ff ff    	mov    -0x1034(%ebp),%edi
    1b00:	29 fa                	sub    %edi,%edx
    1b02:	85 d2                	test   %edx,%edx
    1b04:	0f 8f b1 fd ff ff    	jg     18bb <pane_row_range_display+0x1cb>
    1b0a:	8b 95 e0 ef ff ff    	mov    -0x1020(%ebp),%edx
    1b10:	39 d0                	cmp    %edx,%eax
    1b12:	74 46                	je     1b5a <pane_row_range_display+0x46a>
    1b14:	29 d0                	sub    %edx,%eax
    1b16:	85 c0                	test   %eax,%eax
    1b18:	0f 89 9d fd ff ff    	jns    18bb <pane_row_range_display+0x1cb>
    1b1e:	a1 a0 6f 02 00       	mov    0x26fa0,%eax
    1b23:	89 04 24             	mov    %eax,(%esp)
    1b26:	e8 65 00 01 00       	call   11b90 <console_flush>
    1b2b:	a1 a0 6f 02 00       	mov    0x26fa0,%eax
    1b30:	89 04 24             	mov    %eax,(%esp)
    1b33:	c7 44 24 08 f7 f7 f7 	movl   $0xf7f7f7,0x8(%esp)
    1b3a:	00 
    1b3b:	c7 44 24 04 ff 66 00 	movl   $0x66ff,0x4(%esp)
    1b42:	00 
    1b43:	e8 a8 02 01 00       	call   11df0 <console_set_rgb_color>
    1b48:	a1 a0 6f 02 00       	mov    0x26fa0,%eax
    1b4d:	89 04 24             	mov    %eax,(%esp)
    1b50:	e8 3b 00 01 00       	call   11b90 <console_flush>
    1b55:	e9 61 fd ff ff       	jmp    18bb <pane_row_range_display+0x1cb>
    1b5a:	8b 85 cc ef ff ff    	mov    -0x1034(%ebp),%eax
    1b60:	8b b5 e4 ef ff ff    	mov    -0x101c(%ebp),%esi
    1b66:	29 f0                	sub    %esi,%eax
    1b68:	eb ac                	jmp    1b16 <pane_row_range_display+0x426>
    1b6a:	8b 85 dc ef ff ff    	mov    -0x1024(%ebp),%eax
    1b70:	8b b5 e4 ef ff ff    	mov    -0x101c(%ebp),%esi
    1b76:	29 f0                	sub    %esi,%eax
    1b78:	e9 eb fb ff ff       	jmp    1768 <pane_row_range_display+0x78>
    1b7d:	8d 76 00             	lea    0x0(%esi),%esi

00001b80 <pane_text_display>:
    1b80:	55                   	push   %ebp
    1b81:	89 e5                	mov    %esp,%ebp
    1b83:	56                   	push   %esi
    1b84:	53                   	push   %ebx
    1b85:	83 ec 20             	sub    $0x20,%esp
    1b88:	8d 45 f4             	lea    -0xc(%ebp),%eax
    1b8b:	89 44 24 04          	mov    %eax,0x4(%esp)
    1b8f:	a1 04 70 02 00       	mov    0x27004,%eax
    1b94:	89 04 24             	mov    %eax,(%esp)
    1b97:	e8 e4 46 00 00       	call   6280 <sheet_get_num_rows>
    1b9c:	8b 15 c8 6f 02 00    	mov    0x26fc8,%edx
    1ba2:	8b 45 f4             	mov    -0xc(%ebp),%eax
    1ba5:	29 d0                	sub    %edx,%eax
    1ba7:	8b 15 c0 6f 02 00    	mov    0x26fc0,%edx
    1bad:	8d 70 01             	lea    0x1(%eax),%esi
    1bb0:	39 d6                	cmp    %edx,%esi
    1bb2:	7e 02                	jle    1bb6 <pane_text_display+0x36>
    1bb4:	89 d6                	mov    %edx,%esi
    1bb6:	a1 a0 6f 02 00       	mov    0x26fa0,%eax
    1bbb:	c7 44 24 04 02 00 00 	movl   $0x2,0x4(%esp)
    1bc2:	00 
    1bc3:	89 04 24             	mov    %eax,(%esp)
    1bc6:	e8 f5 00 01 00       	call   11cc0 <console_set_style>
    1bcb:	c7 04 24 8c 3d 02 00 	movl   $0x23d8c,(%esp)
    1bd2:	e8 f9 d2 00 00       	call   eed0 <printf>
    1bd7:	a1 a0 6f 02 00       	mov    0x26fa0,%eax
    1bdc:	89 04 24             	mov    %eax,(%esp)
    1bdf:	c7 44 24 08 00 00 00 	movl   $0x0,0x8(%esp)
    1be6:	00 
    1be7:	c7 44 24 04 00 00 00 	movl   $0x0,0x4(%esp)
    1bee:	00 
    1bef:	e8 2c 04 01 00       	call   12020 <console_set_pos>
    1bf4:	31 c0                	xor    %eax,%eax
    1bf6:	89 f2                	mov    %esi,%edx
    1bf8:	e8 f3 fa ff ff       	call   16f0 <pane_row_range_display>
    1bfd:	3b 35 c0 6f 02 00    	cmp    0x26fc0,%esi
    1c03:	7d 56                	jge    1c5b <pane_text_display+0xdb>
    1c05:	8d 76 00             	lea    0x0(%esi),%esi
    1c08:	a1 a0 6f 02 00       	mov    0x26fa0,%eax
    1c0d:	89 74 24 08          	mov    %esi,0x8(%esp)
    1c11:	89 04 24             	mov    %eax,(%esp)
    1c14:	c7 44 24 04 00 00 00 	movl   $0x0,0x4(%esp)
    1c1b:	00 
    1c1c:	e8 ff 03 01 00       	call   12020 <console_set_pos>
    1c21:	a1 a4 6f 02 00       	mov    0x26fa4,%eax
    1c26:	31 db                	xor    %ebx,%ebx
    1c28:	85 c0                	test   %eax,%eax
    1c2a:	74 19                	je     1c45 <pane_text_display+0xc5>
    1c2c:	8d 74 26 00          	lea    0x0(%esi,%eiz,1),%esi
    1c30:	c7 04 24 20 00 00 00 	movl   $0x20,(%esp)
    1c37:	43                   	inc    %ebx
    1c38:	e8 d3 cf 00 00       	call   ec10 <putchar>
    1c3d:	39 1d a4 6f 02 00    	cmp    %ebx,0x26fa4
    1c43:	77 eb                	ja     1c30 <pane_text_display+0xb0>
    1c45:	a1 a0 6f 02 00       	mov    0x26fa0,%eax
    1c4a:	46                   	inc    %esi
    1c4b:	89 04 24             	mov    %eax,(%esp)
    1c4e:	e8 3d ff 00 00       	call   11b90 <console_flush>
    1c53:	39 35 c0 6f 02 00    	cmp    %esi,0x26fc0
    1c59:	7f ad                	jg     1c08 <pane_text_display+0x88>
    1c5b:	a1 d0 6f 02 00       	mov    0x26fd0,%eax
    1c60:	83 e0 fd             	and    $0xfffffffd,%eax
    1c63:	83 c8 0c             	or     $0xc,%eax
    1c66:	a3 d0 6f 02 00       	mov    %eax,0x26fd0
    1c6b:	83 c4 20             	add    $0x20,%esp
    1c6e:	5b                   	pop    %ebx
    1c6f:	5e                   	pop    %esi
    1c70:	5d                   	pop    %ebp
    1c71:	c3                   	ret    
    1c72:	8d b4 26 00 00 00 00 	lea    0x0(%esi,%eiz,1),%esi
    1c79:	8d bc 27 00 00 00 00 	lea    0x0(%edi,%eiz,1),%edi

00001c80 <selection_delete>:
    1c80:	55                   	push   %ebp
    1c81:	89 e5                	mov    %esp,%ebp
    1c83:	56                   	push   %esi
    1c84:	53                   	push   %ebx
    1c85:	83 ec 30             	sub    $0x30,%esp
    1c88:	8d 75 d8             	lea    -0x28(%ebp),%esi
    1c8b:	8d 5d e0             	lea    -0x20(%ebp),%ebx
    1c8e:	89 74 24 04          	mov    %esi,0x4(%esp)
    1c92:	c7 04 24 e4 6f 02 00 	movl   $0x26fe4,(%esp)
    1c99:	e8 c2 47 00 00       	call   6460 <tag_get_pt>
    1c9e:	89 5c 24 04          	mov    %ebx,0x4(%esp)
    1ca2:	c7 04 24 d4 6f 02 00 	movl   $0x26fd4,(%esp)
    1ca9:	e8 b2 47 00 00       	call   6460 <tag_get_pt>
    1cae:	8d 45 e8             	lea    -0x18(%ebp),%eax
    1cb1:	89 44 24 04          	mov    %eax,0x4(%esp)
    1cb5:	89 34 24             	mov    %esi,(%esp)
    1cb8:	e8 13 46 00 00       	call   62d0 <spt_get_coord>
    1cbd:	8d 45 f0             	lea    -0x10(%ebp),%eax
    1cc0:	89 44 24 04          	mov    %eax,0x4(%esp)
    1cc4:	89 1c 24             	mov    %ebx,(%esp)
    1cc7:	e8 04 46 00 00       	call   62d0 <spt_get_coord>
    1ccc:	8b 55 e8             	mov    -0x18(%ebp),%edx
    1ccf:	8b 45 f0             	mov    -0x10(%ebp),%eax
    1cd2:	39 c2                	cmp    %eax,%edx
    1cd4:	74 3a                	je     1d10 <selection_delete+0x90>
    1cd6:	29 c2                	sub    %eax,%edx
    1cd8:	83 fa 00             	cmp    $0x0,%edx
    1cdb:	74 2c                	je     1d09 <selection_delete+0x89>
    1cdd:	7c 41                	jl     1d20 <selection_delete+0xa0>
    1cdf:	a1 04 70 02 00       	mov    0x27004,%eax
    1ce4:	89 74 24 08          	mov    %esi,0x8(%esp)
    1ce8:	89 5c 24 04          	mov    %ebx,0x4(%esp)
    1cec:	89 04 24             	mov    %eax,(%esp)
    1cef:	e8 6c 42 00 00       	call   5f60 <sheet_delete>
    1cf4:	8b 45 f0             	mov    -0x10(%ebp),%eax
    1cf7:	39 45 e8             	cmp    %eax,-0x18(%ebp)
    1cfa:	a1 d0 6f 02 00       	mov    0x26fd0,%eax
    1cff:	74 41                	je     1d42 <selection_delete+0xc2>
    1d01:	83 c8 01             	or     $0x1,%eax
    1d04:	a3 d0 6f 02 00       	mov    %eax,0x26fd0
    1d09:	83 c4 30             	add    $0x30,%esp
    1d0c:	5b                   	pop    %ebx
    1d0d:	5e                   	pop    %esi
    1d0e:	5d                   	pop    %ebp
    1d0f:	c3                   	ret    
    1d10:	8b 55 ec             	mov    -0x14(%ebp),%edx
    1d13:	8b 4d f4             	mov    -0xc(%ebp),%ecx
    1d16:	29 ca                	sub    %ecx,%edx
    1d18:	eb be                	jmp    1cd8 <selection_delete+0x58>
    1d1a:	8d b6 00 00 00 00    	lea    0x0(%esi),%esi
    1d20:	a1 04 70 02 00       	mov    0x27004,%eax
    1d25:	89 5c 24 08          	mov    %ebx,0x8(%esp)
    1d29:	89 74 24 04          	mov    %esi,0x4(%esp)
    1d2d:	89 04 24             	mov    %eax,(%esp)
    1d30:	e8 2b 42 00 00       	call   5f60 <sheet_delete>
    1d35:	8b 45 f0             	mov    -0x10(%ebp),%eax
    1d38:	39 45 e8             	cmp    %eax,-0x18(%ebp)
    1d3b:	a1 d0 6f 02 00       	mov    0x26fd0,%eax
    1d40:	75 bf                	jne    1d01 <selection_delete+0x81>
    1d42:	83 c8 02             	or     $0x2,%eax
    1d45:	eb bd                	jmp    1d04 <selection_delete+0x84>
    1d47:	89 f6                	mov    %esi,%esi
    1d49:	8d bc 27 00 00 00 00 	lea    0x0(%edi,%eiz,1),%edi

00001d50 <delete_char_before>:
    1d50:	55                   	push   %ebp
    1d51:	89 e5                	mov    %esp,%ebp
    1d53:	57                   	push   %edi
    1d54:	56                   	push   %esi
    1d55:	53                   	push   %ebx
    1d56:	83 ec 3c             	sub    $0x3c,%esp
    1d59:	8d 5d d8             	lea    -0x28(%ebp),%ebx
    1d5c:	8d 7d e0             	lea    -0x20(%ebp),%edi
    1d5f:	89 5c 24 04          	mov    %ebx,0x4(%esp)
    1d63:	c7 04 24 d4 6f 02 00 	movl   $0x26fd4,(%esp)
    1d6a:	e8 f1 46 00 00       	call   6460 <tag_get_pt>
    1d6f:	89 7c 24 04          	mov    %edi,0x4(%esp)
    1d73:	89 1c 24             	mov    %ebx,(%esp)
    1d76:	e8 55 45 00 00       	call   62d0 <spt_get_coord>
    1d7b:	8b 75 e4             	mov    -0x1c(%ebp),%esi
    1d7e:	4e                   	dec    %esi
    1d7f:	a1 04 70 02 00       	mov    0x27004,%eax
    1d84:	89 75 e4             	mov    %esi,-0x1c(%ebp)
    1d87:	8d 75 d0             	lea    -0x30(%ebp),%esi
    1d8a:	89 7c 24 04          	mov    %edi,0x4(%esp)
    1d8e:	89 04 24             	mov    %eax,(%esp)
    1d91:	89 74 24 0c          	mov    %esi,0xc(%esp)
    1d95:	c7 44 24 08 00 00 00 	movl   $0x0,0x8(%esp)
    1d9c:	00 
    1d9d:	e8 2e 43 00 00       	call   60d0 <sheet_get_cell_pt>
    1da2:	a1 04 70 02 00       	mov    0x27004,%eax
    1da7:	89 5c 24 08          	mov    %ebx,0x8(%esp)
    1dab:	89 74 24 04          	mov    %esi,0x4(%esp)
    1daf:	89 04 24             	mov    %eax,(%esp)
    1db2:	e8 a9 41 00 00       	call   5f60 <sheet_delete>
    1db7:	a1 d0 6f 02 00       	mov    0x26fd0,%eax
    1dbc:	89 c2                	mov    %eax,%edx
    1dbe:	8b 7d e4             	mov    -0x1c(%ebp),%edi
    1dc1:	83 ca 02             	or     $0x2,%edx
    1dc4:	85 ff                	test   %edi,%edi
    1dc6:	89 15 d0 6f 02 00    	mov    %edx,0x26fd0
    1dcc:	7f 08                	jg     1dd6 <delete_char_before+0x86>
    1dce:	83 c8 03             	or     $0x3,%eax
    1dd1:	a3 d0 6f 02 00       	mov    %eax,0x26fd0
    1dd6:	83 c4 3c             	add    $0x3c,%esp
    1dd9:	5b                   	pop    %ebx
    1dda:	5e                   	pop    %esi
    1ddb:	5f                   	pop    %edi
    1ddc:	5d                   	pop    %ebp
    1ddd:	c3                   	ret    
    1dde:	66 90                	xchg   %ax,%ax

00001de0 <delete_char_after>:
    1de0:	55                   	push   %ebp
    1de1:	89 e5                	mov    %esp,%ebp
    1de3:	57                   	push   %edi
    1de4:	56                   	push   %esi
    1de5:	53                   	push   %ebx
    1de6:	83 ec 3c             	sub    $0x3c,%esp
    1de9:	8d 5d c8             	lea    -0x38(%ebp),%ebx
    1dec:	8d 7d d8             	lea    -0x28(%ebp),%edi
    1def:	8d 75 d0             	lea    -0x30(%ebp),%esi
    1df2:	89 5c 24 04          	mov    %ebx,0x4(%esp)
    1df6:	c7 04 24 d4 6f 02 00 	movl   $0x26fd4,(%esp)
    1dfd:	e8 5e 46 00 00       	call   6460 <tag_get_pt>
    1e02:	89 7c 24 04          	mov    %edi,0x4(%esp)
    1e06:	89 1c 24             	mov    %ebx,(%esp)
    1e09:	e8 c2 44 00 00       	call   62d0 <spt_get_coord>
    1e0e:	a1 04 70 02 00       	mov    0x27004,%eax
    1e13:	89 04 24             	mov    %eax,(%esp)
    1e16:	89 74 24 0c          	mov    %esi,0xc(%esp)
    1e1a:	c7 44 24 08 01 00 00 	movl   $0x1,0x8(%esp)
    1e21:	00 
    1e22:	89 7c 24 04          	mov    %edi,0x4(%esp)
    1e26:	e8 a5 42 00 00       	call   60d0 <sheet_get_cell_pt>
    1e2b:	8d 45 e0             	lea    -0x20(%ebp),%eax
    1e2e:	89 44 24 04          	mov    %eax,0x4(%esp)
    1e32:	89 34 24             	mov    %esi,(%esp)
    1e35:	e8 96 44 00 00       	call   62d0 <spt_get_coord>
    1e3a:	a1 04 70 02 00       	mov    0x27004,%eax
    1e3f:	89 74 24 08          	mov    %esi,0x8(%esp)
    1e43:	89 5c 24 04          	mov    %ebx,0x4(%esp)
    1e47:	89 04 24             	mov    %eax,(%esp)
    1e4a:	e8 11 41 00 00       	call   5f60 <sheet_delete>
    1e4f:	a1 d0 6f 02 00       	mov    0x26fd0,%eax
    1e54:	89 c2                	mov    %eax,%edx
    1e56:	83 ca 02             	or     $0x2,%edx
    1e59:	89 15 d0 6f 02 00    	mov    %edx,0x26fd0
    1e5f:	8b 55 d8             	mov    -0x28(%ebp),%edx
    1e62:	39 55 e0             	cmp    %edx,-0x20(%ebp)
    1e65:	74 08                	je     1e6f <delete_char_after+0x8f>
    1e67:	83 c8 03             	or     $0x3,%eax
    1e6a:	a3 d0 6f 02 00       	mov    %eax,0x26fd0
    1e6f:	83 c4 3c             	add    $0x3c,%esp
    1e72:	5b                   	pop    %ebx
    1e73:	5e                   	pop    %esi
    1e74:	5f                   	pop    %edi
    1e75:	5d                   	pop    %ebp
    1e76:	c3                   	ret    
    1e77:	89 f6                	mov    %esi,%esi
    1e79:	8d bc 27 00 00 00 00 	lea    0x0(%edi,%eiz,1),%edi

00001e80 <search_spt_reverse_producer>:
    1e80:	55                   	push   %ebp
    1e81:	89 e5                	mov    %esp,%ebp
    1e83:	53                   	push   %ebx
    1e84:	83 ec 14             	sub    $0x14,%esp
    1e87:	8b 45 08             	mov    0x8(%ebp),%eax
    1e8a:	8b 5d 0c             	mov    0xc(%ebp),%ebx
    1e8d:	85 c0                	test   %eax,%eax
    1e8f:	74 23                	je     1eb4 <search_spt_reverse_producer+0x34>
    1e91:	85 db                	test   %ebx,%ebx
    1e93:	74 3b                	je     1ed0 <search_spt_reverse_producer+0x50>
    1e95:	89 44 24 08          	mov    %eax,0x8(%esp)
    1e99:	8b 50 04             	mov    0x4(%eax),%edx
    1e9c:	8b 00                	mov    (%eax),%eax
    1e9e:	89 04 24             	mov    %eax,(%esp)
    1ea1:	89 54 24 04          	mov    %edx,0x4(%esp)
    1ea5:	e8 16 45 00 00       	call   63c0 <spt_prev_char>
    1eaa:	89 03                	mov    %eax,(%ebx)
    1eac:	83 c4 14             	add    $0x14,%esp
    1eaf:	31 c0                	xor    %eax,%eax
    1eb1:	5b                   	pop    %ebx
    1eb2:	5d                   	pop    %ebp
    1eb3:	c3                   	ret    
    1eb4:	c7 44 24 08 97 06 00 	movl   $0x697,0x8(%esp)
    1ebb:	00 
    1ebc:	c7 44 24 04 a0 3a 02 	movl   $0x23aa0,0x4(%esp)
    1ec3:	00 
    1ec4:	c7 04 24 a7 3a 02 00 	movl   $0x23aa7,(%esp)
    1ecb:	e8 60 ce 01 00       	call   1ed30 <assert_abort>
    1ed0:	c7 44 24 08 98 06 00 	movl   $0x698,0x8(%esp)
    1ed7:	00 
    1ed8:	c7 44 24 04 a0 3a 02 	movl   $0x23aa0,0x4(%esp)
    1edf:	00 
    1ee0:	c7 04 24 b4 3a 02 00 	movl   $0x23ab4,(%esp)
    1ee7:	e8 44 ce 01 00       	call   1ed30 <assert_abort>
    1eec:	8d 74 26 00          	lea    0x0(%esi,%eiz,1),%esi

00001ef0 <search_spt_producer>:
    1ef0:	55                   	push   %ebp
    1ef1:	89 e5                	mov    %esp,%ebp
    1ef3:	53                   	push   %ebx
    1ef4:	83 ec 14             	sub    $0x14,%esp
    1ef7:	8b 45 08             	mov    0x8(%ebp),%eax
    1efa:	8b 5d 0c             	mov    0xc(%ebp),%ebx
    1efd:	85 c0                	test   %eax,%eax
    1eff:	74 23                	je     1f24 <search_spt_producer+0x34>
    1f01:	85 db                	test   %ebx,%ebx
    1f03:	74 3b                	je     1f40 <search_spt_producer+0x50>
    1f05:	89 44 24 08          	mov    %eax,0x8(%esp)
    1f09:	8b 50 04             	mov    0x4(%eax),%edx
    1f0c:	8b 00                	mov    (%eax),%eax
    1f0e:	89 04 24             	mov    %eax,(%esp)
    1f11:	89 54 24 04          	mov    %edx,0x4(%esp)
    1f15:	e8 66 44 00 00       	call   6380 <spt_next_char>
    1f1a:	89 03                	mov    %eax,(%ebx)
    1f1c:	83 c4 14             	add    $0x14,%esp
    1f1f:	31 c0                	xor    %eax,%eax
    1f21:	5b                   	pop    %ebx
    1f22:	5d                   	pop    %ebp
    1f23:	c3                   	ret    
    1f24:	c7 44 24 08 8e 06 00 	movl   $0x68e,0x8(%esp)
    1f2b:	00 
    1f2c:	c7 44 24 04 a0 3a 02 	movl   $0x23aa0,0x4(%esp)
    1f33:	00 
    1f34:	c7 04 24 a7 3a 02 00 	movl   $0x23aa7,(%esp)
    1f3b:	e8 f0 cd 01 00       	call   1ed30 <assert_abort>
    1f40:	c7 44 24 08 8f 06 00 	movl   $0x68f,0x8(%esp)
    1f47:	00 
    1f48:	c7 44 24 04 a0 3a 02 	movl   $0x23aa0,0x4(%esp)
    1f4f:	00 
    1f50:	c7 04 24 b4 3a 02 00 	movl   $0x23ab4,(%esp)
    1f57:	e8 d4 cd 01 00       	call   1ed30 <assert_abort>
    1f5c:	8d 74 26 00          	lea    0x0(%esi,%eiz,1),%esi

00001f60 <search_spt_mark>:
    1f60:	55                   	push   %ebp
    1f61:	89 e5                	mov    %esp,%ebp
    1f63:	56                   	push   %esi
    1f64:	53                   	push   %ebx
    1f65:	83 ec 10             	sub    $0x10,%esp
    1f68:	8b 75 08             	mov    0x8(%ebp),%esi
    1f6b:	8b 5d 0c             	mov    0xc(%ebp),%ebx
    1f6e:	85 f6                	test   %esi,%esi
    1f70:	74 54                	je     1fc6 <search_spt_mark+0x66>
    1f72:	85 db                	test   %ebx,%ebx
    1f74:	74 34                	je     1faa <search_spt_mark+0x4a>
    1f76:	c7 44 24 04 08 00 00 	movl   $0x8,0x4(%esp)
    1f7d:	00 
    1f7e:	c7 04 24 01 00 00 00 	movl   $0x1,(%esp)
    1f85:	e8 66 25 01 00       	call   144f0 <calloc>
    1f8a:	89 03                	mov    %eax,(%ebx)
    1f8c:	85 c0                	test   %eax,%eax
    1f8e:	74 13                	je     1fa3 <search_spt_mark+0x43>
    1f90:	8b 16                	mov    (%esi),%edx
    1f92:	8b 4e 04             	mov    0x4(%esi),%ecx
    1f95:	89 48 04             	mov    %ecx,0x4(%eax)
    1f98:	89 10                	mov    %edx,(%eax)
    1f9a:	31 c0                	xor    %eax,%eax
    1f9c:	83 c4 10             	add    $0x10,%esp
    1f9f:	5b                   	pop    %ebx
    1fa0:	5e                   	pop    %esi
    1fa1:	5d                   	pop    %ebp
    1fa2:	c3                   	ret    
    1fa3:	b8 fe ff ff ff       	mov    $0xfffffffe,%eax
    1fa8:	eb f2                	jmp    1f9c <search_spt_mark+0x3c>
    1faa:	c7 44 24 08 a1 06 00 	movl   $0x6a1,0x8(%esp)
    1fb1:	00 
    1fb2:	c7 44 24 04 a0 3a 02 	movl   $0x23aa0,0x4(%esp)
    1fb9:	00 
    1fba:	c7 04 24 c0 3a 02 00 	movl   $0x23ac0,(%esp)
    1fc1:	e8 6a cd 01 00       	call   1ed30 <assert_abort>
    1fc6:	c7 44 24 08 a0 06 00 	movl   $0x6a0,0x8(%esp)
    1fcd:	00 
    1fce:	c7 44 24 04 a0 3a 02 	movl   $0x23aa0,0x4(%esp)
    1fd5:	00 
    1fd6:	c7 04 24 a7 3a 02 00 	movl   $0x23aa7,(%esp)
    1fdd:	e8 4e cd 01 00       	call   1ed30 <assert_abort>
    1fe2:	8d b4 26 00 00 00 00 	lea    0x0(%esi,%eiz,1),%esi
    1fe9:	8d bc 27 00 00 00 00 	lea    0x0(%edi,%eiz,1),%edi

00001ff0 <cursor_setvis>:
    1ff0:	88 c2                	mov    %al,%dl
    1ff2:	38 05 08 70 02 00    	cmp    %al,0x27008
    1ff8:	74 2a                	je     2024 <cursor_setvis+0x34>
    1ffa:	55                   	push   %ebp
    1ffb:	81 e2 ff 00 00 00    	and    $0xff,%edx
    2001:	89 e5                	mov    %esp,%ebp
    2003:	83 ec 28             	sub    $0x28,%esp
    2006:	89 54 24 04          	mov    %edx,0x4(%esp)
    200a:	8b 15 a0 6f 02 00    	mov    0x26fa0,%edx
    2010:	89 14 24             	mov    %edx,(%esp)
    2013:	89 45 f4             	mov    %eax,-0xc(%ebp)
    2016:	e8 55 fe 00 00       	call   11e70 <console_cursor_visibility>
    201b:	8b 45 f4             	mov    -0xc(%ebp),%eax
    201e:	a2 08 70 02 00       	mov    %al,0x27008
    2023:	c9                   	leave  
    2024:	c3                   	ret    
    2025:	8d 74 26 00          	lea    0x0(%esi,%eiz,1),%esi
    2029:	8d bc 27 00 00 00 00 	lea    0x0(%edi,%eiz,1),%edi

00002030 <caret_move.constprop.16>:
    2030:	55                   	push   %ebp
    2031:	89 e5                	mov    %esp,%ebp
    2033:	57                   	push   %edi
    2034:	56                   	push   %esi
    2035:	53                   	push   %ebx
    2036:	83 ec 4c             	sub    $0x4c,%esp
    2039:	8d 5d c8             	lea    -0x38(%ebp),%ebx
    203c:	8d 75 d0             	lea    -0x30(%ebp),%esi
    203f:	89 cf                	mov    %ecx,%edi
    2041:	89 5c 24 04          	mov    %ebx,0x4(%esp)
    2045:	c7 04 24 d4 6f 02 00 	movl   $0x26fd4,(%esp)
    204c:	89 55 c4             	mov    %edx,-0x3c(%ebp)
    204f:	89 45 c0             	mov    %eax,-0x40(%ebp)
    2052:	e8 09 44 00 00       	call   6460 <tag_get_pt>
    2057:	89 74 24 04          	mov    %esi,0x4(%esp)
    205b:	c7 04 24 e4 6f 02 00 	movl   $0x26fe4,(%esp)
    2062:	e8 f9 43 00 00       	call   6460 <tag_get_pt>
    2067:	89 74 24 04          	mov    %esi,0x4(%esp)
    206b:	89 1c 24             	mov    %ebx,(%esp)
    206e:	8d 75 c0             	lea    -0x40(%ebp),%esi
    2071:	e8 ea 42 00 00       	call   6360 <spt_equal>
    2076:	8b 15 04 70 02 00    	mov    0x27004,%edx
    207c:	89 14 24             	mov    %edx,(%esp)
    207f:	c7 44 24 04 d4 6f 02 	movl   $0x26fd4,0x4(%esp)
    2086:	00 
    2087:	88 45 bc             	mov    %al,-0x44(%ebp)
    208a:	e8 a1 43 00 00       	call   6430 <sheet_remove_tag>
    208f:	8b 15 04 70 02 00    	mov    0x27004,%edx
    2095:	c7 44 24 08 d4 6f 02 	movl   $0x26fd4,0x8(%esp)
    209c:	00 
    209d:	89 14 24             	mov    %edx,(%esp)
    20a0:	89 74 24 04          	mov    %esi,0x4(%esp)
    20a4:	e8 57 43 00 00       	call   6400 <sheet_place_tag>
    20a9:	89 fa                	mov    %edi,%edx
    20ab:	84 d2                	test   %dl,%dl
    20ad:	74 49                	je     20f8 <caret_move.constprop.16+0xc8>
    20af:	8d 45 e0             	lea    -0x20(%ebp),%eax
    20b2:	89 34 24             	mov    %esi,(%esp)
    20b5:	89 44 24 04          	mov    %eax,0x4(%esp)
    20b9:	e8 12 42 00 00       	call   62d0 <spt_get_coord>
    20be:	8d 45 d8             	lea    -0x28(%ebp),%eax
    20c1:	89 44 24 04          	mov    %eax,0x4(%esp)
    20c5:	89 1c 24             	mov    %ebx,(%esp)
    20c8:	e8 03 42 00 00       	call   62d0 <spt_get_coord>
    20cd:	8b 45 e0             	mov    -0x20(%ebp),%eax
    20d0:	39 45 d8             	cmp    %eax,-0x28(%ebp)
    20d3:	74 6b                	je     2140 <caret_move.constprop.16+0x110>
    20d5:	83 0d d0 6f 02 00 01 	orl    $0x1,0x26fd0
    20dc:	8b 45 e4             	mov    -0x1c(%ebp),%eax
    20df:	a3 f4 6f 02 00       	mov    %eax,0x26ff4
    20e4:	e8 b7 f0 ff ff       	call   11a0 <caret_update>
    20e9:	83 c4 4c             	add    $0x4c,%esp
    20ec:	5b                   	pop    %ebx
    20ed:	5e                   	pop    %esi
    20ee:	5f                   	pop    %edi
    20ef:	5d                   	pop    %ebp
    20f0:	c3                   	ret    
    20f1:	8d b4 26 00 00 00 00 	lea    0x0(%esi,%eiz,1),%esi
    20f8:	8b 15 04 70 02 00    	mov    0x27004,%edx
    20fe:	c7 44 24 04 e4 6f 02 	movl   $0x26fe4,0x4(%esp)
    2105:	00 
    2106:	89 14 24             	mov    %edx,(%esp)
    2109:	e8 22 43 00 00       	call   6430 <sheet_remove_tag>
    210e:	8b 15 04 70 02 00    	mov    0x27004,%edx
    2114:	89 14 24             	mov    %edx,(%esp)
    2117:	c7 44 24 08 e4 6f 02 	movl   $0x26fe4,0x8(%esp)
    211e:	00 
    211f:	89 74 24 04          	mov    %esi,0x4(%esp)
    2123:	e8 d8 42 00 00       	call   6400 <sheet_place_tag>
    2128:	8d 55 e0             	lea    -0x20(%ebp),%edx
    212b:	89 54 24 04          	mov    %edx,0x4(%esp)
    212f:	89 34 24             	mov    %esi,(%esp)
    2132:	e8 99 41 00 00       	call   62d0 <spt_get_coord>
    2137:	8a 45 bc             	mov    -0x44(%ebp),%al
    213a:	84 c0                	test   %al,%al
    213c:	75 9e                	jne    20dc <caret_move.constprop.16+0xac>
    213e:	eb 95                	jmp    20d5 <caret_move.constprop.16+0xa5>
    2140:	83 0d d0 6f 02 00 02 	orl    $0x2,0x26fd0
    2147:	eb 93                	jmp    20dc <caret_move.constprop.16+0xac>
    2149:	8d b4 26 00 00 00 00 	lea    0x0(%esi,%eiz,1),%esi

00002150 <file_insert>:
    2150:	55                   	push   %ebp
    2151:	89 e5                	mov    %esp,%ebp
    2153:	57                   	push   %edi
    2154:	56                   	push   %esi
    2155:	53                   	push   %ebx
    2156:	81 ec 8c 00 00 00    	sub    $0x8c,%esp
    215c:	c7 44 24 04 f7 4c 02 	movl   $0x24cf7,0x4(%esp)
    2163:	00 
    2164:	89 04 24             	mov    %eax,(%esp)
    2167:	e8 04 ae 00 00       	call   cf70 <fopen>
    216c:	89 45 84             	mov    %eax,-0x7c(%ebp)
    216f:	85 c0                	test   %eax,%eax
    2171:	0f 84 21 01 00 00    	je     2298 <file_insert+0x148>
    2177:	31 db                	xor    %ebx,%ebx
    2179:	8d 7d a8             	lea    -0x58(%ebp),%edi
    217c:	83 fb 03             	cmp    $0x3,%ebx
    217f:	0f 8e bc 00 00 00    	jle    2241 <file_insert+0xf1>
    2185:	8d 45 90             	lea    -0x70(%ebp),%eax
    2188:	89 5c 24 08          	mov    %ebx,0x8(%esp)
    218c:	89 44 24 04          	mov    %eax,0x4(%esp)
    2190:	89 3c 24             	mov    %edi,(%esp)
    2193:	c7 45 90 00 00 00 00 	movl   $0x0,-0x70(%ebp)
    219a:	e8 a1 56 00 00       	call   7840 <str_decode>
    219f:	89 c6                	mov    %eax,%esi
    21a1:	85 c0                	test   %eax,%eax
    21a3:	0f 84 d7 00 00 00    	je     2280 <file_insert+0x130>
    21a9:	8b 45 90             	mov    -0x70(%ebp),%eax
    21ac:	89 3c 24             	mov    %edi,(%esp)
    21af:	29 c3                	sub    %eax,%ebx
    21b1:	01 f8                	add    %edi,%eax
    21b3:	89 5c 24 08          	mov    %ebx,0x8(%esp)
    21b7:	89 44 24 04          	mov    %eax,0x4(%esp)
    21bb:	e8 b0 4c 00 00       	call   6e70 <memcpy>
    21c0:	8d 45 a0             	lea    -0x60(%ebp),%eax
    21c3:	89 44 24 04          	mov    %eax,0x4(%esp)
    21c7:	c7 04 24 d4 6f 02 00 	movl   $0x26fd4,(%esp)
    21ce:	e8 8d 42 00 00       	call   6460 <tag_get_pt>
    21d3:	8d 55 9b             	lea    -0x65(%ebp),%edx
    21d6:	8d 45 94             	lea    -0x6c(%ebp),%eax
    21d9:	89 54 24 04          	mov    %edx,0x4(%esp)
    21dd:	c7 44 24 0c 05 00 00 	movl   $0x5,0xc(%esp)
    21e4:	00 
    21e5:	89 44 24 08          	mov    %eax,0x8(%esp)
    21e9:	89 34 24             	mov    %esi,(%esp)
    21ec:	89 55 80             	mov    %edx,-0x80(%ebp)
    21ef:	c7 45 94 00 00 00 00 	movl   $0x0,-0x6c(%ebp)
    21f6:	e8 95 59 00 00       	call   7b90 <chr_encode>
    21fb:	8b 45 94             	mov    -0x6c(%ebp),%eax
    21fe:	c7 44 24 08 00 00 00 	movl   $0x0,0x8(%esp)
    2205:	00 
    2206:	c6 44 05 9b 00       	movb   $0x0,-0x65(%ebp,%eax,1)
    220b:	8d 45 a0             	lea    -0x60(%ebp),%eax
    220e:	8b 55 80             	mov    -0x80(%ebp),%edx
    2211:	89 44 24 04          	mov    %eax,0x4(%esp)
    2215:	a1 04 70 02 00       	mov    0x27004,%eax
    221a:	89 54 24 0c          	mov    %edx,0xc(%esp)
    221e:	89 04 24             	mov    %eax,(%esp)
    2221:	e8 3a 3c 00 00       	call   5e60 <sheet_insert>
    2226:	a1 d0 6f 02 00       	mov    0x26fd0,%eax
    222b:	83 fe 0a             	cmp    $0xa,%esi
    222e:	74 40                	je     2270 <file_insert+0x120>
    2230:	83 c8 02             	or     $0x2,%eax
    2233:	83 fb 03             	cmp    $0x3,%ebx
    2236:	a3 d0 6f 02 00       	mov    %eax,0x26fd0
    223b:	0f 8f 44 ff ff ff    	jg     2185 <file_insert+0x35>
    2241:	8b 45 84             	mov    -0x7c(%ebp),%eax
    2244:	c7 44 24 04 01 00 00 	movl   $0x1,0x4(%esp)
    224b:	00 
    224c:	89 44 24 0c          	mov    %eax,0xc(%esp)
    2250:	b8 40 00 00 00       	mov    $0x40,%eax
    2255:	29 d8                	sub    %ebx,%eax
    2257:	89 44 24 08          	mov    %eax,0x8(%esp)
    225b:	8d 04 1f             	lea    (%edi,%ebx,1),%eax
    225e:	89 04 24             	mov    %eax,(%esp)
    2261:	e8 aa b1 00 00       	call   d410 <fread>
    2266:	01 c3                	add    %eax,%ebx
    2268:	e9 18 ff ff ff       	jmp    2185 <file_insert+0x35>
    226d:	8d 76 00             	lea    0x0(%esi),%esi
    2270:	83 c8 03             	or     $0x3,%eax
    2273:	a3 d0 6f 02 00       	mov    %eax,0x26fd0
    2278:	e9 ff fe ff ff       	jmp    217c <file_insert+0x2c>
    227d:	8d 76 00             	lea    0x0(%esi),%esi
    2280:	8b 45 84             	mov    -0x7c(%ebp),%eax
    2283:	89 04 24             	mov    %eax,(%esp)
    2286:	e8 d5 af 00 00       	call   d260 <fclose>
    228b:	31 c0                	xor    %eax,%eax
    228d:	81 c4 8c 00 00 00    	add    $0x8c,%esp
    2293:	5b                   	pop    %ebx
    2294:	5e                   	pop    %esi
    2295:	5f                   	pop    %edi
    2296:	5d                   	pop    %ebp
    2297:	c3                   	ret    
    2298:	b8 f2 ff ff ff       	mov    $0xfffffff2,%eax
    229d:	eb ee                	jmp    228d <file_insert+0x13d>
    229f:	90                   	nop

000022a0 <selection_active>:
    22a0:	55                   	push   %ebp
    22a1:	89 e5                	mov    %esp,%ebp
    22a3:	56                   	push   %esi
    22a4:	53                   	push   %ebx
    22a5:	83 ec 30             	sub    $0x30,%esp
    22a8:	8d 75 d8             	lea    -0x28(%ebp),%esi
    22ab:	8d 5d e0             	lea    -0x20(%ebp),%ebx
    22ae:	89 74 24 04          	mov    %esi,0x4(%esp)
    22b2:	c7 04 24 d4 6f 02 00 	movl   $0x26fd4,(%esp)
    22b9:	e8 a2 41 00 00       	call   6460 <tag_get_pt>
    22be:	89 5c 24 04          	mov    %ebx,0x4(%esp)
    22c2:	c7 04 24 e4 6f 02 00 	movl   $0x26fe4,(%esp)
    22c9:	e8 92 41 00 00       	call   6460 <tag_get_pt>
    22ce:	8d 45 e8             	lea    -0x18(%ebp),%eax
    22d1:	89 44 24 04          	mov    %eax,0x4(%esp)
    22d5:	89 34 24             	mov    %esi,(%esp)
    22d8:	e8 f3 3f 00 00       	call   62d0 <spt_get_coord>
    22dd:	8d 45 f0             	lea    -0x10(%ebp),%eax
    22e0:	89 44 24 04          	mov    %eax,0x4(%esp)
    22e4:	89 1c 24             	mov    %ebx,(%esp)
    22e7:	e8 e4 3f 00 00       	call   62d0 <spt_get_coord>
    22ec:	8b 45 e8             	mov    -0x18(%ebp),%eax
    22ef:	8b 55 f0             	mov    -0x10(%ebp),%edx
    22f2:	39 d0                	cmp    %edx,%eax
    22f4:	74 12                	je     2308 <selection_active+0x68>
    22f6:	29 d0                	sub    %edx,%eax
    22f8:	85 c0                	test   %eax,%eax
    22fa:	0f 95 c0             	setne  %al
    22fd:	83 c4 30             	add    $0x30,%esp
    2300:	5b                   	pop    %ebx
    2301:	5e                   	pop    %esi
    2302:	5d                   	pop    %ebp
    2303:	c3                   	ret    
    2304:	8d 74 26 00          	lea    0x0(%esi,%eiz,1),%esi
    2308:	8b 45 ec             	mov    -0x14(%ebp),%eax
    230b:	8b 55 f4             	mov    -0xc(%ebp),%edx
    230e:	29 d0                	sub    %edx,%eax
    2310:	85 c0                	test   %eax,%eax
    2312:	0f 95 c0             	setne  %al
    2315:	83 c4 30             	add    $0x30,%esp
    2318:	5b                   	pop    %ebx
    2319:	5e                   	pop    %esi
    231a:	5d                   	pop    %ebp
    231b:	c3                   	ret    
    231c:	8d 74 26 00          	lea    0x0(%esi,%eiz,1),%esi

00002320 <prompt>:
    2320:	55                   	push   %ebp
    2321:	89 e5                	mov    %esp,%ebp
    2323:	57                   	push   %edi
    2324:	56                   	push   %esi
    2325:	53                   	push   %ebx
    2326:	81 ec 4c 02 00 00    	sub    $0x24c,%esp
    232c:	89 c3                	mov    %eax,%ebx
    232e:	89 d6                	mov    %edx,%esi
    2330:	89 44 24 08          	mov    %eax,0x8(%esp)
    2334:	8d 85 c8 fd ff ff    	lea    -0x238(%ebp),%eax
    233a:	89 54 24 0c          	mov    %edx,0xc(%esp)
    233e:	c7 44 24 04 cd 3a 02 	movl   $0x23acd,0x4(%esp)
    2345:	00 
    2346:	89 04 24             	mov    %eax,(%esp)
    2349:	e8 42 a6 00 00       	call   c990 <asprintf>
    234e:	a1 a8 6f 02 00       	mov    0x26fa8,%eax
    2353:	48                   	dec    %eax
    2354:	c7 44 24 04 00 00 00 	movl   $0x0,0x4(%esp)
    235b:	00 
    235c:	89 44 24 08          	mov    %eax,0x8(%esp)
    2360:	a1 a0 6f 02 00       	mov    0x26fa0,%eax
    2365:	89 04 24             	mov    %eax,(%esp)
    2368:	8b bd c8 fd ff ff    	mov    -0x238(%ebp),%edi
    236e:	e8 ad fc 00 00       	call   12020 <console_set_pos>
    2373:	a1 a0 6f 02 00       	mov    0x26fa0,%eax
    2378:	89 04 24             	mov    %eax,(%esp)
    237b:	c7 44 24 04 02 00 00 	movl   $0x2,0x4(%esp)
    2382:	00 
    2383:	e8 38 f9 00 00       	call   11cc0 <console_set_style>
    2388:	89 7c 24 08          	mov    %edi,0x8(%esp)
    238c:	b9 03 00 00 00       	mov    $0x3,%ecx
    2391:	8b 3d a4 6f 02 00    	mov    0x26fa4,%edi
    2397:	29 f9                	sub    %edi,%ecx
    2399:	c7 04 24 92 3a 02 00 	movl   $0x23a92,(%esp)
    23a0:	89 4c 24 04          	mov    %ecx,0x4(%esp)
    23a4:	e8 27 cb 00 00       	call   eed0 <printf>
    23a9:	a1 a0 6f 02 00       	mov    0x26fa0,%eax
    23ae:	89 04 24             	mov    %eax,(%esp)
    23b1:	e8 da f7 00 00       	call   11b90 <console_flush>
    23b6:	a1 a0 6f 02 00       	mov    0x26fa0,%eax
    23bb:	89 04 24             	mov    %eax,(%esp)
    23be:	c7 44 24 04 00 00 00 	movl   $0x0,0x4(%esp)
    23c5:	00 
    23c6:	e8 f5 f8 00 00       	call   11cc0 <console_set_style>
    23cb:	8b 85 c8 fd ff ff    	mov    -0x238(%ebp),%eax
    23d1:	89 04 24             	mov    %eax,(%esp)
    23d4:	8b 3d a8 6f 02 00    	mov    0x26fa8,%edi
    23da:	83 0d d0 6f 02 00 08 	orl    $0x8,0x26fd0
    23e1:	e8 7a 5a 00 00       	call   7e60 <str_length>
    23e6:	4f                   	dec    %edi
    23e7:	40                   	inc    %eax
    23e8:	89 7c 24 08          	mov    %edi,0x8(%esp)
    23ec:	89 44 24 04          	mov    %eax,0x4(%esp)
    23f0:	a1 a0 6f 02 00       	mov    0x26fa0,%eax
    23f5:	89 04 24             	mov    %eax,(%esp)
    23f8:	e8 23 fc 00 00       	call   12020 <console_set_pos>
    23fd:	8b 85 c8 fd ff ff    	mov    -0x238(%ebp),%eax
    2403:	89 04 24             	mov    %eax,(%esp)
    2406:	e8 55 22 01 00       	call   14660 <free>
    240b:	a1 a0 6f 02 00       	mov    0x26fa0,%eax
    2410:	89 04 24             	mov    %eax,(%esp)
    2413:	c7 44 24 04 02 00 00 	movl   $0x2,0x4(%esp)
    241a:	00 
    241b:	e8 a0 f8 00 00       	call   11cc0 <console_set_style>
    2420:	89 1c 24             	mov    %ebx,(%esp)
    2423:	8b 3d a4 6f 02 00    	mov    0x26fa4,%edi
    2429:	e8 32 5a 00 00       	call   7e60 <str_length>
    242e:	8d 4f fc             	lea    -0x4(%edi),%ecx
    2431:	29 c1                	sub    %eax,%ecx
    2433:	81 f9 80 00 00 00    	cmp    $0x80,%ecx
    2439:	0f 86 31 01 00 00    	jbe    2570 <prompt+0x250>
    243f:	b8 81 00 00 00       	mov    $0x81,%eax
    2444:	c7 85 c4 fd ff ff 80 	movl   $0x80,-0x23c(%ebp)
    244b:	00 00 00 
    244e:	89 74 24 08          	mov    %esi,0x8(%esp)
    2452:	8d b5 e4 fd ff ff    	lea    -0x21c(%ebp),%esi
    2458:	89 44 24 04          	mov    %eax,0x4(%esp)
    245c:	89 34 24             	mov    %esi,(%esp)
    245f:	e8 7c 6f 00 00       	call   93e0 <str_to_wstr>
    2464:	89 34 24             	mov    %esi,(%esp)
    2467:	e8 d4 5a 00 00       	call   7f40 <wstr_length>
    246c:	8d 9d cc fd ff ff    	lea    -0x234(%ebp),%ebx
    2472:	89 c7                	mov    %eax,%edi
    2474:	8d 74 26 00          	lea    0x0(%esi,%eiz,1),%esi
    2478:	a1 a0 6f 02 00       	mov    0x26fa0,%eax
    247d:	89 5c 24 04          	mov    %ebx,0x4(%esp)
    2481:	89 04 24             	mov    %eax,(%esp)
    2484:	e8 17 fc 00 00       	call   120a0 <console_get_kbd_event>
    2489:	8b 8d d4 fd ff ff    	mov    -0x22c(%ebp),%ecx
    248f:	85 c9                	test   %ecx,%ecx
    2491:	75 e5                	jne    2478 <prompt+0x158>
    2493:	8b 85 dc fd ff ff    	mov    -0x224(%ebp),%eax
    2499:	a8 30                	test   $0x30,%al
    249b:	75 04                	jne    24a1 <prompt+0x181>
    249d:	a8 0c                	test   $0xc,%al
    249f:	75 d7                	jne    2478 <prompt+0x158>
    24a1:	a8 3c                	test   $0x3c,%al
    24a3:	75 d3                	jne    2478 <prompt+0x158>
    24a5:	8b 85 d8 fd ff ff    	mov    -0x228(%ebp),%eax
    24ab:	83 f8 29             	cmp    $0x29,%eax
    24ae:	0f 84 7c 00 00 00    	je     2530 <prompt+0x210>
    24b4:	83 f8 3b             	cmp    $0x3b,%eax
    24b7:	74 67                	je     2520 <prompt+0x200>
    24b9:	83 f8 0e             	cmp    $0xe,%eax
    24bc:	74 3a                	je     24f8 <prompt+0x1d8>
    24be:	8b 85 e0 fd ff ff    	mov    -0x220(%ebp),%eax
    24c4:	83 f8 1f             	cmp    $0x1f,%eax
    24c7:	7e af                	jle    2478 <prompt+0x158>
    24c9:	39 bd c4 fd ff ff    	cmp    %edi,-0x23c(%ebp)
    24cf:	7e a7                	jle    2478 <prompt+0x158>
    24d1:	89 04 24             	mov    %eax,(%esp)
    24d4:	e8 37 c7 00 00       	call   ec10 <putchar>
    24d9:	a1 a0 6f 02 00       	mov    0x26fa0,%eax
    24de:	89 04 24             	mov    %eax,(%esp)
    24e1:	e8 aa f6 00 00       	call   11b90 <console_flush>
    24e6:	8b 85 e0 fd ff ff    	mov    -0x220(%ebp),%eax
    24ec:	89 84 bd e4 fd ff ff 	mov    %eax,-0x21c(%ebp,%edi,4)
    24f3:	47                   	inc    %edi
    24f4:	eb 82                	jmp    2478 <prompt+0x158>
    24f6:	66 90                	xchg   %ax,%ax
    24f8:	85 ff                	test   %edi,%edi
    24fa:	0f 8e 78 ff ff ff    	jle    2478 <prompt+0x158>
    2500:	c7 04 24 08 00 00 00 	movl   $0x8,(%esp)
    2507:	4f                   	dec    %edi
    2508:	e8 03 c7 00 00       	call   ec10 <putchar>
    250d:	a1 a0 6f 02 00       	mov    0x26fa0,%eax
    2512:	89 04 24             	mov    %eax,(%esp)
    2515:	e8 76 f6 00 00       	call   11b90 <console_flush>
    251a:	e9 59 ff ff ff       	jmp    2478 <prompt+0x158>
    251f:	90                   	nop
    2520:	81 c4 4c 02 00 00    	add    $0x24c,%esp
    2526:	31 c0                	xor    %eax,%eax
    2528:	5b                   	pop    %ebx
    2529:	5e                   	pop    %esi
    252a:	5f                   	pop    %edi
    252b:	5d                   	pop    %ebp
    252c:	c3                   	ret    
    252d:	8d 76 00             	lea    0x0(%esi),%esi
    2530:	89 34 24             	mov    %esi,(%esp)
    2533:	c7 84 bd e4 fd ff ff 	movl   $0x0,-0x21c(%ebp,%edi,4)
    253a:	00 00 00 00 
    253e:	e8 7d 6c 00 00       	call   91c0 <wstr_to_astr>
    2543:	c7 44 24 04 00 00 00 	movl   $0x0,0x4(%esp)
    254a:	00 
    254b:	89 85 c8 fd ff ff    	mov    %eax,-0x238(%ebp)
    2551:	a1 a0 6f 02 00       	mov    0x26fa0,%eax
    2556:	89 04 24             	mov    %eax,(%esp)
    2559:	e8 62 f7 00 00       	call   11cc0 <console_set_style>
    255e:	8b 85 c8 fd ff ff    	mov    -0x238(%ebp),%eax
    2564:	81 c4 4c 02 00 00    	add    $0x24c,%esp
    256a:	5b                   	pop    %ebx
    256b:	5e                   	pop    %esi
    256c:	5f                   	pop    %edi
    256d:	5d                   	pop    %ebp
    256e:	c3                   	ret    
    256f:	90                   	nop
    2570:	89 1c 24             	mov    %ebx,(%esp)
    2573:	8b 3d a4 6f 02 00    	mov    0x26fa4,%edi
    2579:	e8 e2 58 00 00       	call   7e60 <str_length>
    257e:	83 ef 04             	sub    $0x4,%edi
    2581:	89 bd c4 fd ff ff    	mov    %edi,-0x23c(%ebp)
    2587:	8b 9d c4 fd ff ff    	mov    -0x23c(%ebp),%ebx
    258d:	29 c3                	sub    %eax,%ebx
    258f:	89 9d c4 fd ff ff    	mov    %ebx,-0x23c(%ebp)
    2595:	8b 85 c4 fd ff ff    	mov    -0x23c(%ebp),%eax
    259b:	40                   	inc    %eax
    259c:	e9 ad fe ff ff       	jmp    244e <prompt+0x12e>
    25a1:	eb 0d                	jmp    25b0 <file_save>
    25a3:	90                   	nop
    25a4:	90                   	nop
    25a5:	90                   	nop
    25a6:	90                   	nop
    25a7:	90                   	nop
    25a8:	90                   	nop
    25a9:	90                   	nop
    25aa:	90                   	nop
    25ab:	90                   	nop
    25ac:	90                   	nop
    25ad:	90                   	nop
    25ae:	90                   	nop
    25af:	90                   	nop

000025b0 <file_save>:
    25b0:	55                   	push   %ebp
    25b1:	89 c2                	mov    %eax,%edx
    25b3:	89 e5                	mov    %esp,%ebp
    25b5:	57                   	push   %edi
    25b6:	56                   	push   %esi
    25b7:	53                   	push   %ebx
    25b8:	81 ec ac 00 00 00    	sub    $0xac,%esp
    25be:	89 95 70 ff ff ff    	mov    %edx,-0x90(%ebp)
    25c4:	a1 a8 6f 02 00       	mov    0x26fa8,%eax
    25c9:	bf 03 00 00 00       	mov    $0x3,%edi
    25ce:	48                   	dec    %eax
    25cf:	c7 44 24 04 00 00 00 	movl   $0x0,0x4(%esp)
    25d6:	00 
    25d7:	89 44 24 08          	mov    %eax,0x8(%esp)
    25db:	a1 a0 6f 02 00       	mov    0x26fa0,%eax
    25e0:	89 04 24             	mov    %eax,(%esp)
    25e3:	8d 5d a8             	lea    -0x58(%ebp),%ebx
    25e6:	e8 35 fa 00 00       	call   12020 <console_set_pos>
    25eb:	a1 a0 6f 02 00       	mov    0x26fa0,%eax
    25f0:	89 04 24             	mov    %eax,(%esp)
    25f3:	c7 44 24 04 02 00 00 	movl   $0x2,0x4(%esp)
    25fa:	00 
    25fb:	e8 c0 f6 00 00       	call   11cc0 <console_set_style>
    2600:	8b 35 a4 6f 02 00    	mov    0x26fa4,%esi
    2606:	89 f8                	mov    %edi,%eax
    2608:	c7 44 24 08 d4 3a 02 	movl   $0x23ad4,0x8(%esp)
    260f:	00 
    2610:	29 f0                	sub    %esi,%eax
    2612:	c7 04 24 92 3a 02 00 	movl   $0x23a92,(%esp)
    2619:	89 44 24 04          	mov    %eax,0x4(%esp)
    261d:	8d 75 90             	lea    -0x70(%ebp),%esi
    2620:	e8 ab c8 00 00       	call   eed0 <printf>
    2625:	a1 a0 6f 02 00       	mov    0x26fa0,%eax
    262a:	89 04 24             	mov    %eax,(%esp)
    262d:	e8 5e f5 00 00       	call   11b90 <console_flush>
    2632:	a1 a0 6f 02 00       	mov    0x26fa0,%eax
    2637:	89 04 24             	mov    %eax,(%esp)
    263a:	c7 44 24 04 00 00 00 	movl   $0x0,0x4(%esp)
    2641:	00 
    2642:	e8 79 f6 00 00       	call   11cc0 <console_set_style>
    2647:	8d 45 88             	lea    -0x78(%ebp),%eax
    264a:	89 44 24 0c          	mov    %eax,0xc(%esp)
    264e:	a1 04 70 02 00       	mov    0x27004,%eax
    2653:	89 04 24             	mov    %eax,(%esp)
    2656:	c7 44 24 08 00 00 00 	movl   $0x0,0x8(%esp)
    265d:	00 
    265e:	89 5c 24 04          	mov    %ebx,0x4(%esp)
    2662:	c7 45 ac 01 00 00 00 	movl   $0x1,-0x54(%ebp)
    2669:	83 0d d0 6f 02 00 08 	orl    $0x8,0x26fd0
    2670:	c7 45 a8 01 00 00 00 	movl   $0x1,-0x58(%ebp)
    2677:	e8 54 3a 00 00       	call   60d0 <sheet_get_cell_pt>
    267c:	8d 45 84             	lea    -0x7c(%ebp),%eax
    267f:	89 44 24 04          	mov    %eax,0x4(%esp)
    2683:	a1 04 70 02 00       	mov    0x27004,%eax
    2688:	89 04 24             	mov    %eax,(%esp)
    268b:	e8 f0 3b 00 00       	call   6280 <sheet_get_num_rows>
    2690:	8b 45 84             	mov    -0x7c(%ebp),%eax
    2693:	40                   	inc    %eax
    2694:	89 74 24 0c          	mov    %esi,0xc(%esp)
    2698:	89 45 a8             	mov    %eax,-0x58(%ebp)
    269b:	a1 04 70 02 00       	mov    0x27004,%eax
    26a0:	89 04 24             	mov    %eax,(%esp)
    26a3:	c7 44 24 08 01 00 00 	movl   $0x1,0x8(%esp)
    26aa:	00 
    26ab:	89 5c 24 04          	mov    %ebx,0x4(%esp)
    26af:	c7 45 ac 01 00 00 00 	movl   $0x1,-0x54(%ebp)
    26b6:	e8 15 3a 00 00       	call   60d0 <sheet_get_cell_pt>
    26bb:	8b 95 70 ff ff ff    	mov    -0x90(%ebp),%edx
    26c1:	c7 44 24 04 de 3a 02 	movl   $0x23ade,0x4(%esp)
    26c8:	00 
    26c9:	89 14 24             	mov    %edx,(%esp)
    26cc:	e8 9f a8 00 00       	call   cf70 <fopen>
    26d1:	89 85 74 ff ff ff    	mov    %eax,-0x8c(%ebp)
    26d7:	85 c0                	test   %eax,%eax
    26d9:	0f 84 ce 01 00 00    	je     28ad <file_save+0x2fd>
    26df:	8b 45 88             	mov    -0x78(%ebp),%eax
    26e2:	8b 55 8c             	mov    -0x74(%ebp),%edx
    26e5:	89 45 98             	mov    %eax,-0x68(%ebp)
    26e8:	89 55 9c             	mov    %edx,-0x64(%ebp)
    26eb:	8d 7d a0             	lea    -0x60(%ebp),%edi
    26ee:	eb 20                	jmp    2710 <file_save+0x160>
    26f0:	8b 45 a0             	mov    -0x60(%ebp),%eax
    26f3:	8b 55 a4             	mov    -0x5c(%ebp),%edx
    26f6:	89 74 24 04          	mov    %esi,0x4(%esp)
    26fa:	89 3c 24             	mov    %edi,(%esp)
    26fd:	89 45 98             	mov    %eax,-0x68(%ebp)
    2700:	89 55 9c             	mov    %edx,-0x64(%ebp)
    2703:	e8 58 3c 00 00       	call   6360 <spt_equal>
    2708:	84 c0                	test   %al,%al
    270a:	0f 85 f8 00 00 00    	jne    2808 <file_save+0x258>
    2710:	8d 45 98             	lea    -0x68(%ebp),%eax
    2713:	89 7c 24 14          	mov    %edi,0x14(%esp)
    2717:	89 44 24 04          	mov    %eax,0x4(%esp)
    271b:	a1 04 70 02 00       	mov    0x27004,%eax
    2720:	89 04 24             	mov    %eax,(%esp)
    2723:	c7 44 24 10 40 00 00 	movl   $0x40,0x10(%esp)
    272a:	00 
    272b:	89 5c 24 0c          	mov    %ebx,0xc(%esp)
    272f:	89 74 24 08          	mov    %esi,0x8(%esp)
    2733:	e8 08 39 00 00       	call   6040 <sheet_copy_out>
    2738:	89 1c 24             	mov    %ebx,(%esp)
    273b:	e8 40 55 00 00       	call   7c80 <str_size>
    2740:	c7 44 24 04 01 00 00 	movl   $0x1,0x4(%esp)
    2747:	00 
    2748:	89 c2                	mov    %eax,%edx
    274a:	8b 85 74 ff ff ff    	mov    -0x8c(%ebp),%eax
    2750:	89 54 24 08          	mov    %edx,0x8(%esp)
    2754:	89 44 24 0c          	mov    %eax,0xc(%esp)
    2758:	89 1c 24             	mov    %ebx,(%esp)
    275b:	89 95 70 ff ff ff    	mov    %edx,-0x90(%ebp)
    2761:	e8 da bd 00 00       	call   e540 <fwrite>
    2766:	8b 95 70 ff ff ff    	mov    -0x90(%ebp),%edx
    276c:	39 c2                	cmp    %eax,%edx
    276e:	74 80                	je     26f0 <file_save+0x140>
    2770:	a1 a8 6f 02 00       	mov    0x26fa8,%eax
    2775:	c7 44 24 04 00 00 00 	movl   $0x0,0x4(%esp)
    277c:	00 
    277d:	48                   	dec    %eax
    277e:	89 44 24 08          	mov    %eax,0x8(%esp)
    2782:	a1 a0 6f 02 00       	mov    0x26fa0,%eax
    2787:	89 04 24             	mov    %eax,(%esp)
    278a:	e8 91 f8 00 00       	call   12020 <console_set_pos>
    278f:	a1 a0 6f 02 00       	mov    0x26fa0,%eax
    2794:	89 04 24             	mov    %eax,(%esp)
    2797:	c7 44 24 04 02 00 00 	movl   $0x2,0x4(%esp)
    279e:	00 
    279f:	e8 1c f5 00 00       	call   11cc0 <console_set_style>
    27a4:	8b 0d a4 6f 02 00    	mov    0x26fa4,%ecx
    27aa:	b8 03 00 00 00       	mov    $0x3,%eax
    27af:	c7 44 24 08 f5 3a 02 	movl   $0x23af5,0x8(%esp)
    27b6:	00 
    27b7:	29 c8                	sub    %ecx,%eax
    27b9:	c7 04 24 92 3a 02 00 	movl   $0x23a92,(%esp)
    27c0:	89 44 24 04          	mov    %eax,0x4(%esp)
    27c4:	e8 07 c7 00 00       	call   eed0 <printf>
    27c9:	a1 a0 6f 02 00       	mov    0x26fa0,%eax
    27ce:	89 04 24             	mov    %eax,(%esp)
    27d1:	e8 ba f3 00 00       	call   11b90 <console_flush>
    27d6:	a1 a0 6f 02 00       	mov    0x26fa0,%eax
    27db:	89 04 24             	mov    %eax,(%esp)
    27de:	c7 44 24 04 00 00 00 	movl   $0x0,0x4(%esp)
    27e5:	00 
    27e6:	e8 d5 f4 00 00       	call   11cc0 <console_set_style>
    27eb:	b8 f7 fe ff ff       	mov    $0xfffffef7,%eax
    27f0:	83 0d d0 6f 02 00 08 	orl    $0x8,0x26fd0
    27f7:	81 c4 ac 00 00 00    	add    $0xac,%esp
    27fd:	5b                   	pop    %ebx
    27fe:	5e                   	pop    %esi
    27ff:	5f                   	pop    %edi
    2800:	5d                   	pop    %ebp
    2801:	c3                   	ret    
    2802:	8d b6 00 00 00 00    	lea    0x0(%esi),%esi
    2808:	8b 85 74 ff ff ff    	mov    -0x8c(%ebp),%eax
    280e:	89 04 24             	mov    %eax,(%esp)
    2811:	e8 4a aa 00 00       	call   d260 <fclose>
    2816:	85 c0                	test   %eax,%eax
    2818:	0f 85 52 ff ff ff    	jne    2770 <file_save+0x1c0>
    281e:	a1 a8 6f 02 00       	mov    0x26fa8,%eax
    2823:	c7 44 24 04 00 00 00 	movl   $0x0,0x4(%esp)
    282a:	00 
    282b:	48                   	dec    %eax
    282c:	89 44 24 08          	mov    %eax,0x8(%esp)
    2830:	a1 a0 6f 02 00       	mov    0x26fa0,%eax
    2835:	89 04 24             	mov    %eax,(%esp)
    2838:	e8 e3 f7 00 00       	call   12020 <console_set_pos>
    283d:	a1 a0 6f 02 00       	mov    0x26fa0,%eax
    2842:	89 04 24             	mov    %eax,(%esp)
    2845:	c7 44 24 04 02 00 00 	movl   $0x2,0x4(%esp)
    284c:	00 
    284d:	e8 6e f4 00 00       	call   11cc0 <console_set_style>
    2852:	8b 15 a4 6f 02 00    	mov    0x26fa4,%edx
    2858:	b8 03 00 00 00       	mov    $0x3,%eax
    285d:	c7 44 24 08 09 3b 02 	movl   $0x23b09,0x8(%esp)
    2864:	00 
    2865:	29 d0                	sub    %edx,%eax
    2867:	c7 04 24 92 3a 02 00 	movl   $0x23a92,(%esp)
    286e:	89 44 24 04          	mov    %eax,0x4(%esp)
    2872:	e8 59 c6 00 00       	call   eed0 <printf>
    2877:	a1 a0 6f 02 00       	mov    0x26fa0,%eax
    287c:	89 04 24             	mov    %eax,(%esp)
    287f:	e8 0c f3 00 00       	call   11b90 <console_flush>
    2884:	a1 a0 6f 02 00       	mov    0x26fa0,%eax
    2889:	89 04 24             	mov    %eax,(%esp)
    288c:	c7 44 24 04 00 00 00 	movl   $0x0,0x4(%esp)
    2893:	00 
    2894:	e8 27 f4 00 00       	call   11cc0 <console_set_style>
    2899:	31 c0                	xor    %eax,%eax
    289b:	83 0d d0 6f 02 00 08 	orl    $0x8,0x26fd0
    28a2:	81 c4 ac 00 00 00    	add    $0xac,%esp
    28a8:	5b                   	pop    %ebx
    28a9:	5e                   	pop    %esi
    28aa:	5f                   	pop    %edi
    28ab:	5d                   	pop    %ebp
    28ac:	c3                   	ret    
    28ad:	a1 a8 6f 02 00       	mov    0x26fa8,%eax
    28b2:	c7 44 24 04 00 00 00 	movl   $0x0,0x4(%esp)
    28b9:	00 
    28ba:	48                   	dec    %eax
    28bb:	89 44 24 08          	mov    %eax,0x8(%esp)
    28bf:	a1 a0 6f 02 00       	mov    0x26fa0,%eax
    28c4:	89 04 24             	mov    %eax,(%esp)
    28c7:	e8 54 f7 00 00       	call   12020 <console_set_pos>
    28cc:	a1 a0 6f 02 00       	mov    0x26fa0,%eax
    28d1:	89 04 24             	mov    %eax,(%esp)
    28d4:	c7 44 24 04 02 00 00 	movl   $0x2,0x4(%esp)
    28db:	00 
    28dc:	e8 df f3 00 00       	call   11cc0 <console_set_style>
    28e1:	8b 1d a4 6f 02 00    	mov    0x26fa4,%ebx
    28e7:	29 df                	sub    %ebx,%edi
    28e9:	c7 44 24 08 e1 3a 02 	movl   $0x23ae1,0x8(%esp)
    28f0:	00 
    28f1:	89 7c 24 04          	mov    %edi,0x4(%esp)
    28f5:	c7 04 24 92 3a 02 00 	movl   $0x23a92,(%esp)
    28fc:	e8 cf c5 00 00       	call   eed0 <printf>
    2901:	a1 a0 6f 02 00       	mov    0x26fa0,%eax
    2906:	89 04 24             	mov    %eax,(%esp)
    2909:	e8 82 f2 00 00       	call   11b90 <console_flush>
    290e:	a1 a0 6f 02 00       	mov    0x26fa0,%eax
    2913:	89 04 24             	mov    %eax,(%esp)
    2916:	c7 44 24 04 00 00 00 	movl   $0x0,0x4(%esp)
    291d:	00 
    291e:	e8 9d f3 00 00       	call   11cc0 <console_set_style>
    2923:	b8 f2 ff ff ff       	mov    $0xfffffff2,%eax
    2928:	83 0d d0 6f 02 00 08 	orl    $0x8,0x26fd0
    292f:	e9 c3 fe ff ff       	jmp    27f7 <file_save+0x247>
    2934:	8d b6 00 00 00 00    	lea    0x0(%esi),%esi
    293a:	8d bf 00 00 00 00    	lea    0x0(%edi),%edi

00002940 <selection_copy>:
    2940:	55                   	push   %ebp
    2941:	89 e5                	mov    %esp,%ebp
    2943:	57                   	push   %edi
    2944:	56                   	push   %esi
    2945:	53                   	push   %ebx
    2946:	83 ec 6c             	sub    $0x6c,%esp
    2949:	8d 5d b8             	lea    -0x48(%ebp),%ebx
    294c:	89 5c 24 04          	mov    %ebx,0x4(%esp)
    2950:	c7 04 24 e4 6f 02 00 	movl   $0x26fe4,(%esp)
    2957:	e8 04 3b 00 00       	call   6460 <tag_get_pt>
    295c:	8d 45 c0             	lea    -0x40(%ebp),%eax
    295f:	89 44 24 04          	mov    %eax,0x4(%esp)
    2963:	c7 04 24 d4 6f 02 00 	movl   $0x26fd4,(%esp)
    296a:	e8 f1 3a 00 00       	call   6460 <tag_get_pt>
    296f:	8d 45 c8             	lea    -0x38(%ebp),%eax
    2972:	89 44 24 04          	mov    %eax,0x4(%esp)
    2976:	89 1c 24             	mov    %ebx,(%esp)
    2979:	e8 52 39 00 00       	call   62d0 <spt_get_coord>
    297e:	8d 45 d0             	lea    -0x30(%ebp),%eax
    2981:	8d 55 c0             	lea    -0x40(%ebp),%edx
    2984:	89 44 24 04          	mov    %eax,0x4(%esp)
    2988:	89 14 24             	mov    %edx,(%esp)
    298b:	e8 40 39 00 00       	call   62d0 <spt_get_coord>
    2990:	8b 45 c8             	mov    -0x38(%ebp),%eax
    2993:	8b 55 d0             	mov    -0x30(%ebp),%edx
    2996:	39 d0                	cmp    %edx,%eax
    2998:	0f 84 5a 01 00 00    	je     2af8 <selection_copy+0x1b8>
    299e:	29 d0                	sub    %edx,%eax
    29a0:	85 c0                	test   %eax,%eax
    29a2:	7e 18                	jle    29bc <selection_copy+0x7c>
    29a4:	8b 5d b8             	mov    -0x48(%ebp),%ebx
    29a7:	8b 4d bc             	mov    -0x44(%ebp),%ecx
    29aa:	8b 45 c0             	mov    -0x40(%ebp),%eax
    29ad:	8b 55 c4             	mov    -0x3c(%ebp),%edx
    29b0:	89 45 b8             	mov    %eax,-0x48(%ebp)
    29b3:	89 55 bc             	mov    %edx,-0x44(%ebp)
    29b6:	89 5d c0             	mov    %ebx,-0x40(%ebp)
    29b9:	89 4d c4             	mov    %ecx,-0x3c(%ebp)
    29bc:	c7 04 24 01 00 00 00 	movl   $0x1,(%esp)
    29c3:	e8 88 1b 01 00       	call   14550 <malloc>
    29c8:	89 c7                	mov    %eax,%edi
    29ca:	85 c0                	test   %eax,%eax
    29cc:	0f 84 92 00 00 00    	je     2a64 <selection_copy+0x124>
    29d2:	8b 5d bc             	mov    -0x44(%ebp),%ebx
    29d5:	8b 4d b8             	mov    -0x48(%ebp),%ecx
    29d8:	89 5d dc             	mov    %ebx,-0x24(%ebp)
    29db:	89 4d d8             	mov    %ecx,-0x28(%ebp)
    29de:	31 db                	xor    %ebx,%ebx
    29e0:	be 01 00 00 00       	mov    $0x1,%esi
    29e5:	8d 76 00             	lea    0x0(%esi),%esi
    29e8:	8d 55 e0             	lea    -0x20(%ebp),%edx
    29eb:	8d 04 1f             	lea    (%edi,%ebx,1),%eax
    29ee:	89 54 24 14          	mov    %edx,0x14(%esp)
    29f2:	89 f2                	mov    %esi,%edx
    29f4:	29 da                	sub    %ebx,%edx
    29f6:	89 44 24 0c          	mov    %eax,0xc(%esp)
    29fa:	89 54 24 10          	mov    %edx,0x10(%esp)
    29fe:	8d 55 c0             	lea    -0x40(%ebp),%edx
    2a01:	89 54 24 08          	mov    %edx,0x8(%esp)
    2a05:	8d 55 d8             	lea    -0x28(%ebp),%edx
    2a08:	89 54 24 04          	mov    %edx,0x4(%esp)
    2a0c:	8b 15 04 70 02 00    	mov    0x27004,%edx
    2a12:	89 14 24             	mov    %edx,(%esp)
    2a15:	89 45 b4             	mov    %eax,-0x4c(%ebp)
    2a18:	e8 23 36 00 00       	call   6040 <sheet_copy_out>
    2a1d:	8b 45 b4             	mov    -0x4c(%ebp),%eax
    2a20:	89 04 24             	mov    %eax,(%esp)
    2a23:	e8 58 52 00 00       	call   7c80 <str_size>
    2a28:	8b 55 e4             	mov    -0x1c(%ebp),%edx
    2a2b:	01 c3                	add    %eax,%ebx
    2a2d:	8b 45 e0             	mov    -0x20(%ebp),%eax
    2a30:	89 45 d8             	mov    %eax,-0x28(%ebp)
    2a33:	89 55 dc             	mov    %edx,-0x24(%ebp)
    2a36:	8d 45 c0             	lea    -0x40(%ebp),%eax
    2a39:	8d 55 e0             	lea    -0x20(%ebp),%edx
    2a3c:	89 44 24 04          	mov    %eax,0x4(%esp)
    2a40:	89 14 24             	mov    %edx,(%esp)
    2a43:	e8 18 39 00 00       	call   6360 <spt_equal>
    2a48:	84 c0                	test   %al,%al
    2a4a:	0f 85 b8 00 00 00    	jne    2b08 <selection_copy+0x1c8>
    2a50:	01 f6                	add    %esi,%esi
    2a52:	89 3c 24             	mov    %edi,(%esp)
    2a55:	89 74 24 04          	mov    %esi,0x4(%esp)
    2a59:	e8 52 1e 01 00       	call   148b0 <realloc>
    2a5e:	89 c7                	mov    %eax,%edi
    2a60:	85 c0                	test   %eax,%eax
    2a62:	75 84                	jne    29e8 <selection_copy+0xa8>
    2a64:	31 ff                	xor    %edi,%edi
    2a66:	a1 a8 6f 02 00       	mov    0x26fa8,%eax
    2a6b:	c7 44 24 04 00 00 00 	movl   $0x0,0x4(%esp)
    2a72:	00 
    2a73:	48                   	dec    %eax
    2a74:	89 44 24 08          	mov    %eax,0x8(%esp)
    2a78:	a1 a0 6f 02 00       	mov    0x26fa0,%eax
    2a7d:	89 04 24             	mov    %eax,(%esp)
    2a80:	e8 9b f5 00 00       	call   12020 <console_set_pos>
    2a85:	a1 a0 6f 02 00       	mov    0x26fa0,%eax
    2a8a:	89 04 24             	mov    %eax,(%esp)
    2a8d:	c7 44 24 04 02 00 00 	movl   $0x2,0x4(%esp)
    2a94:	00 
    2a95:	e8 26 f2 00 00       	call   11cc0 <console_set_style>
    2a9a:	8b 15 a4 6f 02 00    	mov    0x26fa4,%edx
    2aa0:	b8 03 00 00 00       	mov    $0x3,%eax
    2aa5:	c7 44 24 08 15 3b 02 	movl   $0x23b15,0x8(%esp)
    2aac:	00 
    2aad:	29 d0                	sub    %edx,%eax
    2aaf:	c7 04 24 92 3a 02 00 	movl   $0x23a92,(%esp)
    2ab6:	89 44 24 04          	mov    %eax,0x4(%esp)
    2aba:	e8 11 c4 00 00       	call   eed0 <printf>
    2abf:	a1 a0 6f 02 00       	mov    0x26fa0,%eax
    2ac4:	89 04 24             	mov    %eax,(%esp)
    2ac7:	e8 c4 f0 00 00       	call   11b90 <console_flush>
    2acc:	a1 a0 6f 02 00       	mov    0x26fa0,%eax
    2ad1:	89 04 24             	mov    %eax,(%esp)
    2ad4:	c7 44 24 04 00 00 00 	movl   $0x0,0x4(%esp)
    2adb:	00 
    2adc:	e8 df f1 00 00       	call   11cc0 <console_set_style>
    2ae1:	89 3c 24             	mov    %edi,(%esp)
    2ae4:	83 0d d0 6f 02 00 08 	orl    $0x8,0x26fd0
    2aeb:	e8 70 1b 01 00       	call   14660 <free>
    2af0:	83 c4 6c             	add    $0x6c,%esp
    2af3:	5b                   	pop    %ebx
    2af4:	5e                   	pop    %esi
    2af5:	5f                   	pop    %edi
    2af6:	5d                   	pop    %ebp
    2af7:	c3                   	ret    
    2af8:	8b 45 cc             	mov    -0x34(%ebp),%eax
    2afb:	8b 4d d4             	mov    -0x2c(%ebp),%ecx
    2afe:	29 c8                	sub    %ecx,%eax
    2b00:	e9 9b fe ff ff       	jmp    29a0 <selection_copy+0x60>
    2b05:	8d 76 00             	lea    0x0(%esi),%esi
    2b08:	85 ff                	test   %edi,%edi
    2b0a:	0f 84 56 ff ff ff    	je     2a66 <selection_copy+0x126>
    2b10:	89 3c 24             	mov    %edi,(%esp)
    2b13:	e8 88 3d 00 00       	call   68a0 <clipboard_put_str>
    2b18:	85 c0                	test   %eax,%eax
    2b1a:	0f 85 46 ff ff ff    	jne    2a66 <selection_copy+0x126>
    2b20:	89 3c 24             	mov    %edi,(%esp)
    2b23:	e8 38 1b 01 00       	call   14660 <free>
    2b28:	83 c4 6c             	add    $0x6c,%esp
    2b2b:	5b                   	pop    %ebx
    2b2c:	5e                   	pop    %esi
    2b2d:	5f                   	pop    %edi
    2b2e:	5d                   	pop    %ebp
    2b2f:	c3                   	ret    

00002b30 <pt_is_punctuation>:
    2b30:	55                   	push   %ebp
    2b31:	89 e5                	mov    %esp,%ebp
    2b33:	57                   	push   %edi
    2b34:	56                   	push   %esi
    2b35:	53                   	push   %ebx
    2b36:	83 ec 6c             	sub    $0x6c,%esp
    2b39:	8d 5d d0             	lea    -0x30(%ebp),%ebx
    2b3c:	89 c6                	mov    %eax,%esi
    2b3e:	8d 7d c8             	lea    -0x38(%ebp),%edi
    2b41:	89 04 24             	mov    %eax,(%esp)
    2b44:	89 5c 24 04          	mov    %ebx,0x4(%esp)
    2b48:	e8 83 37 00 00       	call   62d0 <spt_get_coord>
    2b4d:	8b 4d d4             	mov    -0x2c(%ebp),%ecx
    2b50:	a1 04 70 02 00       	mov    0x27004,%eax
    2b55:	41                   	inc    %ecx
    2b56:	89 04 24             	mov    %eax,(%esp)
    2b59:	89 7c 24 0c          	mov    %edi,0xc(%esp)
    2b5d:	c7 44 24 08 01 00 00 	movl   $0x1,0x8(%esp)
    2b64:	00 
    2b65:	89 5c 24 04          	mov    %ebx,0x4(%esp)
    2b69:	89 4d d4             	mov    %ecx,-0x2c(%ebp)
    2b6c:	e8 5f 35 00 00       	call   60d0 <sheet_get_cell_pt>
    2b71:	c7 04 24 01 00 00 00 	movl   $0x1,(%esp)
    2b78:	e8 d3 19 01 00       	call   14550 <malloc>
    2b7d:	89 c2                	mov    %eax,%edx
    2b7f:	85 c0                	test   %eax,%eax
    2b81:	0f 84 a0 00 00 00    	je     2c27 <pt_is_punctuation+0xf7>
    2b87:	8b 5e 04             	mov    0x4(%esi),%ebx
    2b8a:	8b 0e                	mov    (%esi),%ecx
    2b8c:	89 5d dc             	mov    %ebx,-0x24(%ebp)
    2b8f:	31 db                	xor    %ebx,%ebx
    2b91:	89 4d d8             	mov    %ecx,-0x28(%ebp)
    2b94:	be 01 00 00 00       	mov    $0x1,%esi
    2b99:	89 5d ac             	mov    %ebx,-0x54(%ebp)
    2b9c:	8d 74 26 00          	lea    0x0(%esi,%eiz,1),%esi
    2ba0:	8d 4d e0             	lea    -0x20(%ebp),%ecx
    2ba3:	8b 5d ac             	mov    -0x54(%ebp),%ebx
    2ba6:	89 4c 24 14          	mov    %ecx,0x14(%esp)
    2baa:	89 f1                	mov    %esi,%ecx
    2bac:	29 d9                	sub    %ebx,%ecx
    2bae:	8b 45 ac             	mov    -0x54(%ebp),%eax
    2bb1:	01 d0                	add    %edx,%eax
    2bb3:	89 4c 24 10          	mov    %ecx,0x10(%esp)
    2bb7:	8d 5d d8             	lea    -0x28(%ebp),%ebx
    2bba:	8b 0d 04 70 02 00    	mov    0x27004,%ecx
    2bc0:	89 0c 24             	mov    %ecx,(%esp)
    2bc3:	89 44 24 0c          	mov    %eax,0xc(%esp)
    2bc7:	89 5c 24 04          	mov    %ebx,0x4(%esp)
    2bcb:	89 7c 24 08          	mov    %edi,0x8(%esp)
    2bcf:	89 55 b4             	mov    %edx,-0x4c(%ebp)
    2bd2:	89 45 b0             	mov    %eax,-0x50(%ebp)
    2bd5:	e8 66 34 00 00       	call   6040 <sheet_copy_out>
    2bda:	8b 45 b0             	mov    -0x50(%ebp),%eax
    2bdd:	89 04 24             	mov    %eax,(%esp)
    2be0:	e8 9b 50 00 00       	call   7c80 <str_size>
    2be5:	8b 5d e4             	mov    -0x1c(%ebp),%ebx
    2be8:	8b 55 ac             	mov    -0x54(%ebp),%edx
    2beb:	89 5d dc             	mov    %ebx,-0x24(%ebp)
    2bee:	8d 5d e0             	lea    -0x20(%ebp),%ebx
    2bf1:	01 c2                	add    %eax,%edx
    2bf3:	8b 4d e0             	mov    -0x20(%ebp),%ecx
    2bf6:	89 7c 24 04          	mov    %edi,0x4(%esp)
    2bfa:	89 1c 24             	mov    %ebx,(%esp)
    2bfd:	89 55 ac             	mov    %edx,-0x54(%ebp)
    2c00:	89 4d d8             	mov    %ecx,-0x28(%ebp)
    2c03:	e8 58 37 00 00       	call   6360 <spt_equal>
    2c08:	8b 55 b4             	mov    -0x4c(%ebp),%edx
    2c0b:	84 c0                	test   %al,%al
    2c0d:	75 29                	jne    2c38 <pt_is_punctuation+0x108>
    2c0f:	01 f6                	add    %esi,%esi
    2c11:	89 14 24             	mov    %edx,(%esp)
    2c14:	89 74 24 04          	mov    %esi,0x4(%esp)
    2c18:	e8 93 1c 01 00       	call   148b0 <realloc>
    2c1d:	89 c2                	mov    %eax,%edx
    2c1f:	85 c0                	test   %eax,%eax
    2c21:	0f 85 79 ff ff ff    	jne    2ba0 <pt_is_punctuation+0x70>
    2c27:	83 c4 6c             	add    $0x6c,%esp
    2c2a:	31 c0                	xor    %eax,%eax
    2c2c:	5b                   	pop    %ebx
    2c2d:	5e                   	pop    %esi
    2c2e:	5f                   	pop    %edi
    2c2f:	5d                   	pop    %ebp
    2c30:	c3                   	ret    
    2c31:	8d b4 26 00 00 00 00 	lea    0x0(%esi,%eiz,1),%esi
    2c38:	85 d2                	test   %edx,%edx
    2c3a:	74 eb                	je     2c27 <pt_is_punctuation+0xf7>
    2c3c:	89 14 24             	mov    %edx,(%esp)
    2c3f:	89 55 b4             	mov    %edx,-0x4c(%ebp)
    2c42:	c7 45 c4 00 00 00 00 	movl   $0x0,-0x3c(%ebp)
    2c49:	e8 32 50 00 00       	call   7c80 <str_size>
    2c4e:	8b 55 b4             	mov    -0x4c(%ebp),%edx
    2c51:	89 44 24 08          	mov    %eax,0x8(%esp)
    2c55:	8d 45 c4             	lea    -0x3c(%ebp),%eax
    2c58:	89 14 24             	mov    %edx,(%esp)
    2c5b:	89 44 24 04          	mov    %eax,0x4(%esp)
    2c5f:	e8 dc 4b 00 00       	call   7840 <str_decode>
    2c64:	83 f8 3f             	cmp    $0x3f,%eax
    2c67:	7f 0f                	jg     2c78 <pt_is_punctuation+0x148>
    2c69:	83 f8 3a             	cmp    $0x3a,%eax
    2c6c:	7c 22                	jl     2c90 <pt_is_punctuation+0x160>
    2c6e:	b0 01                	mov    $0x1,%al
    2c70:	83 c4 6c             	add    $0x6c,%esp
    2c73:	5b                   	pop    %ebx
    2c74:	5e                   	pop    %esi
    2c75:	5f                   	pop    %edi
    2c76:	5d                   	pop    %ebp
    2c77:	c3                   	ret    
    2c78:	83 f8 5f             	cmp    $0x5f,%eax
    2c7b:	74 f1                	je     2c6e <pt_is_punctuation+0x13e>
    2c7d:	83 f8 7c             	cmp    $0x7c,%eax
    2c80:	74 ec                	je     2c6e <pt_is_punctuation+0x13e>
    2c82:	83 f8 5c             	cmp    $0x5c,%eax
    2c85:	75 a0                	jne    2c27 <pt_is_punctuation+0xf7>
    2c87:	b0 01                	mov    $0x1,%al
    2c89:	eb e5                	jmp    2c70 <pt_is_punctuation+0x140>
    2c8b:	90                   	nop
    2c8c:	8d 74 26 00          	lea    0x0(%esi,%eiz,1),%esi
    2c90:	83 e8 2a             	sub    $0x2a,%eax
    2c93:	83 f8 05             	cmp    $0x5,%eax
    2c96:	77 8f                	ja     2c27 <pt_is_punctuation+0xf7>
    2c98:	b0 01                	mov    $0x1,%al
    2c9a:	eb d4                	jmp    2c70 <pt_is_punctuation+0x140>
    2c9c:	8d 74 26 00          	lea    0x0(%esi,%eiz,1),%esi

00002ca0 <pt_is_word_beginning>:
    2ca0:	55                   	push   %ebp
    2ca1:	89 e5                	mov    %esp,%ebp
    2ca3:	57                   	push   %edi
    2ca4:	56                   	push   %esi
    2ca5:	53                   	push   %ebx
    2ca6:	81 ec ac 00 00 00    	sub    $0xac,%esp
    2cac:	8d 5d d0             	lea    -0x30(%ebp),%ebx
    2caf:	89 c7                	mov    %eax,%edi
    2cb1:	8b 15 04 70 02 00    	mov    0x27004,%edx
    2cb7:	8d 45 98             	lea    -0x68(%ebp),%eax
    2cba:	89 14 24             	mov    %edx,(%esp)
    2cbd:	89 44 24 0c          	mov    %eax,0xc(%esp)
    2cc1:	c7 44 24 08 00 00 00 	movl   $0x0,0x8(%esp)
    2cc8:	00 
    2cc9:	89 5c 24 04          	mov    %ebx,0x4(%esp)
    2ccd:	89 85 70 ff ff ff    	mov    %eax,-0x90(%ebp)
    2cd3:	8d 75 94             	lea    -0x6c(%ebp),%esi
    2cd6:	c7 45 d4 01 00 00 00 	movl   $0x1,-0x2c(%ebp)
    2cdd:	c7 45 d0 01 00 00 00 	movl   $0x1,-0x30(%ebp)
    2ce4:	e8 e7 33 00 00       	call   60d0 <sheet_get_cell_pt>
    2ce9:	8b 15 04 70 02 00    	mov    0x27004,%edx
    2cef:	89 74 24 04          	mov    %esi,0x4(%esp)
    2cf3:	89 14 24             	mov    %edx,(%esp)
    2cf6:	e8 85 35 00 00       	call   6280 <sheet_get_num_rows>
    2cfb:	8b 55 94             	mov    -0x6c(%ebp),%edx
    2cfe:	42                   	inc    %edx
    2cff:	8b 0d 04 70 02 00    	mov    0x27004,%ecx
    2d05:	89 55 d0             	mov    %edx,-0x30(%ebp)
    2d08:	8d 55 a0             	lea    -0x60(%ebp),%edx
    2d0b:	89 54 24 0c          	mov    %edx,0xc(%esp)
    2d0f:	89 0c 24             	mov    %ecx,(%esp)
    2d12:	c7 44 24 08 01 00 00 	movl   $0x1,0x8(%esp)
    2d19:	00 
    2d1a:	89 5c 24 04          	mov    %ebx,0x4(%esp)
    2d1e:	89 95 6c ff ff ff    	mov    %edx,-0x94(%ebp)
    2d24:	c7 45 d4 01 00 00 00 	movl   $0x1,-0x2c(%ebp)
    2d2b:	e8 a0 33 00 00       	call   60d0 <sheet_get_cell_pt>
    2d30:	89 5c 24 04          	mov    %ebx,0x4(%esp)
    2d34:	89 3c 24             	mov    %edi,(%esp)
    2d37:	e8 94 35 00 00       	call   62d0 <spt_get_coord>
    2d3c:	8d 4d a8             	lea    -0x58(%ebp),%ecx
    2d3f:	89 4c 24 0c          	mov    %ecx,0xc(%esp)
    2d43:	8b 0d 04 70 02 00    	mov    0x27004,%ecx
    2d49:	89 0c 24             	mov    %ecx,(%esp)
    2d4c:	c7 44 24 08 00 00 00 	movl   $0x0,0x8(%esp)
    2d53:	00 
    2d54:	89 5c 24 04          	mov    %ebx,0x4(%esp)
    2d58:	c7 45 d4 01 00 00 00 	movl   $0x1,-0x2c(%ebp)
    2d5f:	e8 6c 33 00 00       	call   60d0 <sheet_get_cell_pt>
    2d64:	89 5c 24 04          	mov    %ebx,0x4(%esp)
    2d68:	89 3c 24             	mov    %edi,(%esp)
    2d6b:	e8 60 35 00 00       	call   62d0 <spt_get_coord>
    2d70:	8b 4d d0             	mov    -0x30(%ebp),%ecx
    2d73:	89 4c 24 04          	mov    %ecx,0x4(%esp)
    2d77:	8b 0d 04 70 02 00    	mov    0x27004,%ecx
    2d7d:	89 0c 24             	mov    %ecx,(%esp)
    2d80:	89 74 24 08          	mov    %esi,0x8(%esp)
    2d84:	e8 f7 33 00 00       	call   6180 <sheet_get_row_width>
    2d89:	8b 4d 94             	mov    -0x6c(%ebp),%ecx
    2d8c:	49                   	dec    %ecx
    2d8d:	c7 44 24 08 01 00 00 	movl   $0x1,0x8(%esp)
    2d94:	00 
    2d95:	89 4d d4             	mov    %ecx,-0x2c(%ebp)
    2d98:	8d 4d b0             	lea    -0x50(%ebp),%ecx
    2d9b:	89 4c 24 0c          	mov    %ecx,0xc(%esp)
    2d9f:	8b 0d 04 70 02 00    	mov    0x27004,%ecx
    2da5:	89 0c 24             	mov    %ecx,(%esp)
    2da8:	89 5c 24 04          	mov    %ebx,0x4(%esp)
    2dac:	e8 1f 33 00 00       	call   60d0 <sheet_get_cell_pt>
    2db1:	8d 4d c0             	lea    -0x40(%ebp),%ecx
    2db4:	8b 85 70 ff ff ff    	mov    -0x90(%ebp),%eax
    2dba:	89 4c 24 04          	mov    %ecx,0x4(%esp)
    2dbe:	89 04 24             	mov    %eax,(%esp)
    2dc1:	e8 0a 35 00 00       	call   62d0 <spt_get_coord>
    2dc6:	89 5c 24 04          	mov    %ebx,0x4(%esp)
    2dca:	89 3c 24             	mov    %edi,(%esp)
    2dcd:	e8 fe 34 00 00       	call   62d0 <spt_get_coord>
    2dd2:	8b 45 c0             	mov    -0x40(%ebp),%eax
    2dd5:	8b 4d d0             	mov    -0x30(%ebp),%ecx
    2dd8:	8b 95 6c ff ff ff    	mov    -0x94(%ebp),%edx
    2dde:	39 c8                	cmp    %ecx,%eax
    2de0:	0f 84 72 03 00 00    	je     3158 <pt_is_word_beginning+0x4b8>
    2de6:	29 c8                	sub    %ecx,%eax
    2de8:	85 c0                	test   %eax,%eax
    2dea:	75 14                	jne    2e00 <pt_is_word_beginning+0x160>
    2dec:	b0 01                	mov    $0x1,%al
    2dee:	81 c4 ac 00 00 00    	add    $0xac,%esp
    2df4:	5b                   	pop    %ebx
    2df5:	5e                   	pop    %esi
    2df6:	5f                   	pop    %edi
    2df7:	5d                   	pop    %ebp
    2df8:	c3                   	ret    
    2df9:	8d b4 26 00 00 00 00 	lea    0x0(%esi,%eiz,1),%esi
    2e00:	8d 45 c0             	lea    -0x40(%ebp),%eax
    2e03:	89 14 24             	mov    %edx,(%esp)
    2e06:	89 44 24 04          	mov    %eax,0x4(%esp)
    2e0a:	e8 c1 34 00 00       	call   62d0 <spt_get_coord>
    2e0f:	89 5c 24 04          	mov    %ebx,0x4(%esp)
    2e13:	89 3c 24             	mov    %edi,(%esp)
    2e16:	e8 b5 34 00 00       	call   62d0 <spt_get_coord>
    2e1b:	8b 45 c0             	mov    -0x40(%ebp),%eax
    2e1e:	8b 55 d0             	mov    -0x30(%ebp),%edx
    2e21:	39 d0                	cmp    %edx,%eax
    2e23:	0f 84 3f 03 00 00    	je     3168 <pt_is_word_beginning+0x4c8>
    2e29:	29 d0                	sub    %edx,%eax
    2e2b:	85 c0                	test   %eax,%eax
    2e2d:	74 bd                	je     2dec <pt_is_word_beginning+0x14c>
    2e2f:	8d 55 c0             	lea    -0x40(%ebp),%edx
    2e32:	8d 4d a8             	lea    -0x58(%ebp),%ecx
    2e35:	89 54 24 04          	mov    %edx,0x4(%esp)
    2e39:	89 0c 24             	mov    %ecx,(%esp)
    2e3c:	e8 8f 34 00 00       	call   62d0 <spt_get_coord>
    2e41:	89 5c 24 04          	mov    %ebx,0x4(%esp)
    2e45:	89 3c 24             	mov    %edi,(%esp)
    2e48:	e8 83 34 00 00       	call   62d0 <spt_get_coord>
    2e4d:	8b 45 c0             	mov    -0x40(%ebp),%eax
    2e50:	8b 55 d0             	mov    -0x30(%ebp),%edx
    2e53:	39 d0                	cmp    %edx,%eax
    2e55:	0f 84 1d 03 00 00    	je     3178 <pt_is_word_beginning+0x4d8>
    2e5b:	29 d0                	sub    %edx,%eax
    2e5d:	85 c0                	test   %eax,%eax
    2e5f:	74 8b                	je     2dec <pt_is_word_beginning+0x14c>
    2e61:	8d 45 c0             	lea    -0x40(%ebp),%eax
    2e64:	8d 55 b0             	lea    -0x50(%ebp),%edx
    2e67:	89 44 24 04          	mov    %eax,0x4(%esp)
    2e6b:	89 14 24             	mov    %edx,(%esp)
    2e6e:	e8 5d 34 00 00       	call   62d0 <spt_get_coord>
    2e73:	89 5c 24 04          	mov    %ebx,0x4(%esp)
    2e77:	89 3c 24             	mov    %edi,(%esp)
    2e7a:	e8 51 34 00 00       	call   62d0 <spt_get_coord>
    2e7f:	8b 45 c0             	mov    -0x40(%ebp),%eax
    2e82:	8b 55 d0             	mov    -0x30(%ebp),%edx
    2e85:	39 d0                	cmp    %edx,%eax
    2e87:	0f 84 fb 02 00 00    	je     3188 <pt_is_word_beginning+0x4e8>
    2e8d:	29 d0                	sub    %edx,%eax
    2e8f:	85 c0                	test   %eax,%eax
    2e91:	0f 84 55 ff ff ff    	je     2dec <pt_is_word_beginning+0x14c>
    2e97:	89 5c 24 04          	mov    %ebx,0x4(%esp)
    2e9b:	89 3c 24             	mov    %edi,(%esp)
    2e9e:	e8 2d 34 00 00       	call   62d0 <spt_get_coord>
    2ea3:	8b 45 d4             	mov    -0x2c(%ebp),%eax
    2ea6:	40                   	inc    %eax
    2ea7:	8d 4d c8             	lea    -0x38(%ebp),%ecx
    2eaa:	89 45 d4             	mov    %eax,-0x2c(%ebp)
    2ead:	a1 04 70 02 00       	mov    0x27004,%eax
    2eb2:	89 4c 24 0c          	mov    %ecx,0xc(%esp)
    2eb6:	89 04 24             	mov    %eax,(%esp)
    2eb9:	c7 44 24 08 01 00 00 	movl   $0x1,0x8(%esp)
    2ec0:	00 
    2ec1:	89 5c 24 04          	mov    %ebx,0x4(%esp)
    2ec5:	e8 06 32 00 00       	call   60d0 <sheet_get_cell_pt>
    2eca:	c7 04 24 01 00 00 00 	movl   $0x1,(%esp)
    2ed1:	e8 7a 16 01 00       	call   14550 <malloc>
    2ed6:	89 85 7c ff ff ff    	mov    %eax,-0x84(%ebp)
    2edc:	85 c0                	test   %eax,%eax
    2ede:	0f 84 d6 00 00 00    	je     2fba <pt_is_word_beginning+0x31a>
    2ee4:	8b 57 04             	mov    0x4(%edi),%edx
    2ee7:	8b 07                	mov    (%edi),%eax
    2ee9:	89 55 dc             	mov    %edx,-0x24(%ebp)
    2eec:	8d 55 e0             	lea    -0x20(%ebp),%edx
    2eef:	31 c9                	xor    %ecx,%ecx
    2ef1:	89 55 80             	mov    %edx,-0x80(%ebp)
    2ef4:	8d 55 d8             	lea    -0x28(%ebp),%edx
    2ef7:	89 45 d8             	mov    %eax,-0x28(%ebp)
    2efa:	89 bd 74 ff ff ff    	mov    %edi,-0x8c(%ebp)
    2f00:	c7 45 84 01 00 00 00 	movl   $0x1,-0x7c(%ebp)
    2f07:	89 95 78 ff ff ff    	mov    %edx,-0x88(%ebp)
    2f0d:	89 cf                	mov    %ecx,%edi
    2f0f:	8b 85 7c ff ff ff    	mov    -0x84(%ebp),%eax
    2f15:	8d 76 00             	lea    0x0(%esi),%esi
    2f18:	8b 4d 80             	mov    -0x80(%ebp),%ecx
    2f1b:	01 f8                	add    %edi,%eax
    2f1d:	89 4c 24 14          	mov    %ecx,0x14(%esp)
    2f21:	8b 4d 84             	mov    -0x7c(%ebp),%ecx
    2f24:	29 f9                	sub    %edi,%ecx
    2f26:	8d 55 c8             	lea    -0x38(%ebp),%edx
    2f29:	89 4c 24 10          	mov    %ecx,0x10(%esp)
    2f2d:	8b 8d 78 ff ff ff    	mov    -0x88(%ebp),%ecx
    2f33:	89 4c 24 04          	mov    %ecx,0x4(%esp)
    2f37:	8b 0d 04 70 02 00    	mov    0x27004,%ecx
    2f3d:	89 54 24 08          	mov    %edx,0x8(%esp)
    2f41:	89 0c 24             	mov    %ecx,(%esp)
    2f44:	89 44 24 0c          	mov    %eax,0xc(%esp)
    2f48:	89 85 70 ff ff ff    	mov    %eax,-0x90(%ebp)
    2f4e:	e8 ed 30 00 00       	call   6040 <sheet_copy_out>
    2f53:	8b 85 70 ff ff ff    	mov    -0x90(%ebp),%eax
    2f59:	89 04 24             	mov    %eax,(%esp)
    2f5c:	e8 1f 4d 00 00       	call   7c80 <str_size>
    2f61:	8b 55 e4             	mov    -0x1c(%ebp),%edx
    2f64:	89 55 dc             	mov    %edx,-0x24(%ebp)
    2f67:	8b 4d 80             	mov    -0x80(%ebp),%ecx
    2f6a:	8d 55 c8             	lea    -0x38(%ebp),%edx
    2f6d:	01 c7                	add    %eax,%edi
    2f6f:	89 54 24 04          	mov    %edx,0x4(%esp)
    2f73:	8b 45 e0             	mov    -0x20(%ebp),%eax
    2f76:	89 0c 24             	mov    %ecx,(%esp)
    2f79:	89 45 d8             	mov    %eax,-0x28(%ebp)
    2f7c:	e8 df 33 00 00       	call   6360 <spt_equal>
    2f81:	84 c0                	test   %al,%al
    2f83:	0f 85 0c 02 00 00    	jne    3195 <pt_is_word_beginning+0x4f5>
    2f89:	8b 45 84             	mov    -0x7c(%ebp),%eax
    2f8c:	01 c0                	add    %eax,%eax
    2f8e:	89 45 84             	mov    %eax,-0x7c(%ebp)
    2f91:	8b 85 7c ff ff ff    	mov    -0x84(%ebp),%eax
    2f97:	8b 55 84             	mov    -0x7c(%ebp),%edx
    2f9a:	89 04 24             	mov    %eax,(%esp)
    2f9d:	89 54 24 04          	mov    %edx,0x4(%esp)
    2fa1:	e8 0a 19 01 00       	call   148b0 <realloc>
    2fa6:	89 85 7c ff ff ff    	mov    %eax,-0x84(%ebp)
    2fac:	85 c0                	test   %eax,%eax
    2fae:	0f 85 64 ff ff ff    	jne    2f18 <pt_is_word_beginning+0x278>
    2fb4:	8b bd 74 ff ff ff    	mov    -0x8c(%ebp),%edi
    2fba:	8d 45 c0             	lea    -0x40(%ebp),%eax
    2fbd:	89 3c 24             	mov    %edi,(%esp)
    2fc0:	89 44 24 04          	mov    %eax,0x4(%esp)
    2fc4:	e8 07 33 00 00       	call   62d0 <spt_get_coord>
    2fc9:	8b 45 c4             	mov    -0x3c(%ebp),%eax
    2fcc:	48                   	dec    %eax
    2fcd:	8d 4d c0             	lea    -0x40(%ebp),%ecx
    2fd0:	8d 55 b8             	lea    -0x48(%ebp),%edx
    2fd3:	89 45 c4             	mov    %eax,-0x3c(%ebp)
    2fd6:	a1 04 70 02 00       	mov    0x27004,%eax
    2fdb:	89 4c 24 04          	mov    %ecx,0x4(%esp)
    2fdf:	89 54 24 0c          	mov    %edx,0xc(%esp)
    2fe3:	89 04 24             	mov    %eax,(%esp)
    2fe6:	c7 44 24 08 00 00 00 	movl   $0x0,0x8(%esp)
    2fed:	00 
    2fee:	e8 dd 30 00 00       	call   60d0 <sheet_get_cell_pt>
    2ff3:	8d 45 b8             	lea    -0x48(%ebp),%eax
    2ff6:	89 04 24             	mov    %eax,(%esp)
    2ff9:	89 5c 24 04          	mov    %ebx,0x4(%esp)
    2ffd:	e8 ce 32 00 00       	call   62d0 <spt_get_coord>
    3002:	8b 45 d4             	mov    -0x2c(%ebp),%eax
    3005:	40                   	inc    %eax
    3006:	8d 55 c8             	lea    -0x38(%ebp),%edx
    3009:	89 45 d4             	mov    %eax,-0x2c(%ebp)
    300c:	a1 04 70 02 00       	mov    0x27004,%eax
    3011:	89 54 24 0c          	mov    %edx,0xc(%esp)
    3015:	89 04 24             	mov    %eax,(%esp)
    3018:	c7 44 24 08 01 00 00 	movl   $0x1,0x8(%esp)
    301f:	00 
    3020:	89 5c 24 04          	mov    %ebx,0x4(%esp)
    3024:	e8 a7 30 00 00       	call   60d0 <sheet_get_cell_pt>
    3029:	c7 04 24 01 00 00 00 	movl   $0x1,(%esp)
    3030:	e8 1b 15 01 00       	call   14550 <malloc>
    3035:	89 c2                	mov    %eax,%edx
    3037:	85 c0                	test   %eax,%eax
    3039:	0f 84 d7 00 00 00    	je     3116 <pt_is_word_beginning+0x476>
    303f:	8b 4d b8             	mov    -0x48(%ebp),%ecx
    3042:	8b 5d bc             	mov    -0x44(%ebp),%ebx
    3045:	8d 45 e0             	lea    -0x20(%ebp),%eax
    3048:	89 4d d8             	mov    %ecx,-0x28(%ebp)
    304b:	89 5d dc             	mov    %ebx,-0x24(%ebp)
    304e:	b9 01 00 00 00       	mov    $0x1,%ecx
    3053:	31 db                	xor    %ebx,%ebx
    3055:	89 45 80             	mov    %eax,-0x80(%ebp)
    3058:	8d 45 d8             	lea    -0x28(%ebp),%eax
    305b:	89 bd 7c ff ff ff    	mov    %edi,-0x84(%ebp)
    3061:	89 85 78 ff ff ff    	mov    %eax,-0x88(%ebp)
    3067:	89 5d 84             	mov    %ebx,-0x7c(%ebp)
    306a:	89 cf                	mov    %ecx,%edi
    306c:	8d 74 26 00          	lea    0x0(%esi,%eiz,1),%esi
    3070:	8b 4d 80             	mov    -0x80(%ebp),%ecx
    3073:	8b 5d 84             	mov    -0x7c(%ebp),%ebx
    3076:	89 4c 24 14          	mov    %ecx,0x14(%esp)
    307a:	89 f9                	mov    %edi,%ecx
    307c:	29 d9                	sub    %ebx,%ecx
    307e:	8b 45 84             	mov    -0x7c(%ebp),%eax
    3081:	89 4c 24 10          	mov    %ecx,0x10(%esp)
    3085:	8b 8d 78 ff ff ff    	mov    -0x88(%ebp),%ecx
    308b:	01 d0                	add    %edx,%eax
    308d:	8d 5d c8             	lea    -0x38(%ebp),%ebx
    3090:	89 4c 24 04          	mov    %ecx,0x4(%esp)
    3094:	8b 0d 04 70 02 00    	mov    0x27004,%ecx
    309a:	89 0c 24             	mov    %ecx,(%esp)
    309d:	89 44 24 0c          	mov    %eax,0xc(%esp)
    30a1:	89 5c 24 08          	mov    %ebx,0x8(%esp)
    30a5:	89 95 6c ff ff ff    	mov    %edx,-0x94(%ebp)
    30ab:	89 85 70 ff ff ff    	mov    %eax,-0x90(%ebp)
    30b1:	e8 8a 2f 00 00       	call   6040 <sheet_copy_out>
    30b6:	8b 85 70 ff ff ff    	mov    -0x90(%ebp),%eax
    30bc:	89 04 24             	mov    %eax,(%esp)
    30bf:	e8 bc 4b 00 00       	call   7c80 <str_size>
    30c4:	8b 4d e0             	mov    -0x20(%ebp),%ecx
    30c7:	8b 5d e4             	mov    -0x1c(%ebp),%ebx
    30ca:	8b 55 84             	mov    -0x7c(%ebp),%edx
    30cd:	89 4d d8             	mov    %ecx,-0x28(%ebp)
    30d0:	89 5d dc             	mov    %ebx,-0x24(%ebp)
    30d3:	8b 4d 80             	mov    -0x80(%ebp),%ecx
    30d6:	8d 5d c8             	lea    -0x38(%ebp),%ebx
    30d9:	01 c2                	add    %eax,%edx
    30db:	89 5c 24 04          	mov    %ebx,0x4(%esp)
    30df:	89 0c 24             	mov    %ecx,(%esp)
    30e2:	89 55 84             	mov    %edx,-0x7c(%ebp)
    30e5:	e8 76 32 00 00       	call   6360 <spt_equal>
    30ea:	8b 95 6c ff ff ff    	mov    -0x94(%ebp),%edx
    30f0:	84 c0                	test   %al,%al
    30f2:	0f 85 fa 00 00 00    	jne    31f2 <pt_is_word_beginning+0x552>
    30f8:	01 ff                	add    %edi,%edi
    30fa:	89 14 24             	mov    %edx,(%esp)
    30fd:	89 7c 24 04          	mov    %edi,0x4(%esp)
    3101:	e8 aa 17 01 00       	call   148b0 <realloc>
    3106:	89 c2                	mov    %eax,%edx
    3108:	85 c0                	test   %eax,%eax
    310a:	0f 85 60 ff ff ff    	jne    3070 <pt_is_word_beginning+0x3d0>
    3110:	8b bd 7c ff ff ff    	mov    -0x84(%ebp),%edi
    3116:	89 f8                	mov    %edi,%eax
    3118:	e8 13 fa ff ff       	call   2b30 <pt_is_punctuation>
    311d:	84 c0                	test   %al,%al
    311f:	74 14                	je     3135 <pt_is_word_beginning+0x495>
    3121:	8d 45 b8             	lea    -0x48(%ebp),%eax
    3124:	e8 07 fa ff ff       	call   2b30 <pt_is_punctuation>
    3129:	88 c2                	mov    %al,%dl
    312b:	b0 01                	mov    $0x1,%al
    312d:	84 d2                	test   %dl,%dl
    312f:	0f 84 b9 fc ff ff    	je     2dee <pt_is_word_beginning+0x14e>
    3135:	8d 45 b8             	lea    -0x48(%ebp),%eax
    3138:	e8 f3 f9 ff ff       	call   2b30 <pt_is_punctuation>
    313d:	88 c2                	mov    %al,%dl
    313f:	31 c0                	xor    %eax,%eax
    3141:	84 d2                	test   %dl,%dl
    3143:	0f 84 a5 fc ff ff    	je     2dee <pt_is_word_beginning+0x14e>
    3149:	89 f8                	mov    %edi,%eax
    314b:	e8 e0 f9 ff ff       	call   2b30 <pt_is_punctuation>
    3150:	83 f0 01             	xor    $0x1,%eax
    3153:	e9 96 fc ff ff       	jmp    2dee <pt_is_word_beginning+0x14e>
    3158:	8b 45 c4             	mov    -0x3c(%ebp),%eax
    315b:	8b 4d d4             	mov    -0x2c(%ebp),%ecx
    315e:	29 c8                	sub    %ecx,%eax
    3160:	e9 83 fc ff ff       	jmp    2de8 <pt_is_word_beginning+0x148>
    3165:	8d 76 00             	lea    0x0(%esi),%esi
    3168:	8b 45 c4             	mov    -0x3c(%ebp),%eax
    316b:	8b 55 d4             	mov    -0x2c(%ebp),%edx
    316e:	29 d0                	sub    %edx,%eax
    3170:	e9 b6 fc ff ff       	jmp    2e2b <pt_is_word_beginning+0x18b>
    3175:	8d 76 00             	lea    0x0(%esi),%esi
    3178:	8b 45 c4             	mov    -0x3c(%ebp),%eax
    317b:	8b 4d d4             	mov    -0x2c(%ebp),%ecx
    317e:	29 c8                	sub    %ecx,%eax
    3180:	e9 d8 fc ff ff       	jmp    2e5d <pt_is_word_beginning+0x1bd>
    3185:	8d 76 00             	lea    0x0(%esi),%esi
    3188:	8b 45 c4             	mov    -0x3c(%ebp),%eax
    318b:	8b 55 d4             	mov    -0x2c(%ebp),%edx
    318e:	29 d0                	sub    %edx,%eax
    3190:	e9 fa fc ff ff       	jmp    2e8f <pt_is_word_beginning+0x1ef>
    3195:	8b 8d 7c ff ff ff    	mov    -0x84(%ebp),%ecx
    319b:	8b bd 74 ff ff ff    	mov    -0x8c(%ebp),%edi
    31a1:	85 c9                	test   %ecx,%ecx
    31a3:	0f 84 11 fe ff ff    	je     2fba <pt_is_word_beginning+0x31a>
    31a9:	8b 85 7c ff ff ff    	mov    -0x84(%ebp),%eax
    31af:	c7 45 94 00 00 00 00 	movl   $0x0,-0x6c(%ebp)
    31b6:	89 04 24             	mov    %eax,(%esp)
    31b9:	e8 c2 4a 00 00       	call   7c80 <str_size>
    31be:	89 74 24 04          	mov    %esi,0x4(%esp)
    31c2:	89 44 24 08          	mov    %eax,0x8(%esp)
    31c6:	8b 85 7c ff ff ff    	mov    -0x84(%ebp),%eax
    31cc:	89 04 24             	mov    %eax,(%esp)
    31cf:	e8 6c 46 00 00       	call   7840 <str_decode>
    31d4:	83 f8 09             	cmp    $0x9,%eax
    31d7:	0f 8c dd fd ff ff    	jl     2fba <pt_is_word_beginning+0x31a>
    31dd:	83 f8 0a             	cmp    $0xa,%eax
    31e0:	7e 09                	jle    31eb <pt_is_word_beginning+0x54b>
    31e2:	83 f8 20             	cmp    $0x20,%eax
    31e5:	0f 85 cf fd ff ff    	jne    2fba <pt_is_word_beginning+0x31a>
    31eb:	31 c0                	xor    %eax,%eax
    31ed:	e9 fc fb ff ff       	jmp    2dee <pt_is_word_beginning+0x14e>
    31f2:	8b bd 7c ff ff ff    	mov    -0x84(%ebp),%edi
    31f8:	85 d2                	test   %edx,%edx
    31fa:	0f 84 16 ff ff ff    	je     3116 <pt_is_word_beginning+0x476>
    3200:	89 14 24             	mov    %edx,(%esp)
    3203:	89 95 6c ff ff ff    	mov    %edx,-0x94(%ebp)
    3209:	c7 45 94 00 00 00 00 	movl   $0x0,-0x6c(%ebp)
    3210:	e8 6b 4a 00 00       	call   7c80 <str_size>
    3215:	8b 95 6c ff ff ff    	mov    -0x94(%ebp),%edx
    321b:	89 44 24 08          	mov    %eax,0x8(%esp)
    321f:	89 74 24 04          	mov    %esi,0x4(%esp)
    3223:	89 14 24             	mov    %edx,(%esp)
    3226:	e8 15 46 00 00       	call   7840 <str_decode>
    322b:	83 f8 09             	cmp    $0x9,%eax
    322e:	0f 8c e2 fe ff ff    	jl     3116 <pt_is_word_beginning+0x476>
    3234:	83 f8 0a             	cmp    $0xa,%eax
    3237:	0f 8e af fb ff ff    	jle    2dec <pt_is_word_beginning+0x14c>
    323d:	83 f8 20             	cmp    $0x20,%eax
    3240:	0f 85 d0 fe ff ff    	jne    3116 <pt_is_word_beginning+0x476>
    3246:	e9 a1 fb ff ff       	jmp    2dec <pt_is_word_beginning+0x14c>
    324b:	90                   	nop
    324c:	8d 74 26 00          	lea    0x0(%esi,%eiz,1),%esi

00003250 <search>:
    3250:	55                   	push   %ebp
    3251:	89 e5                	mov    %esp,%ebp
    3253:	57                   	push   %edi
    3254:	56                   	push   %esi
    3255:	53                   	push   %ebx
    3256:	81 ec 9c 00 00 00    	sub    $0x9c,%esp
    325c:	89 c3                	mov    %eax,%ebx
    325e:	a1 a8 6f 02 00       	mov    0x26fa8,%eax
    3263:	88 55 87             	mov    %dl,-0x79(%ebp)
    3266:	48                   	dec    %eax
    3267:	c7 44 24 04 00 00 00 	movl   $0x0,0x4(%esp)
    326e:	00 
    326f:	89 44 24 08          	mov    %eax,0x8(%esp)
    3273:	a1 a0 6f 02 00       	mov    0x26fa0,%eax
    3278:	89 04 24             	mov    %eax,(%esp)
    327b:	e8 a0 ed 00 00       	call   12020 <console_set_pos>
    3280:	a1 a0 6f 02 00       	mov    0x26fa0,%eax
    3285:	89 04 24             	mov    %eax,(%esp)
    3288:	c7 44 24 04 02 00 00 	movl   $0x2,0x4(%esp)
    328f:	00 
    3290:	e8 2b ea 00 00       	call   11cc0 <console_set_style>
    3295:	8b 35 a4 6f 02 00    	mov    0x26fa4,%esi
    329b:	b8 03 00 00 00       	mov    $0x3,%eax
    32a0:	c7 44 24 08 32 3b 02 	movl   $0x23b32,0x8(%esp)
    32a7:	00 
    32a8:	29 f0                	sub    %esi,%eax
    32aa:	c7 04 24 92 3a 02 00 	movl   $0x23a92,(%esp)
    32b1:	89 44 24 04          	mov    %eax,0x4(%esp)
    32b5:	8d 75 8c             	lea    -0x74(%ebp),%esi
    32b8:	e8 13 bc 00 00       	call   eed0 <printf>
    32bd:	a1 a0 6f 02 00       	mov    0x26fa0,%eax
    32c2:	89 04 24             	mov    %eax,(%esp)
    32c5:	e8 c6 e8 00 00       	call   11b90 <console_flush>
    32ca:	a1 a0 6f 02 00       	mov    0x26fa0,%eax
    32cf:	89 04 24             	mov    %eax,(%esp)
    32d2:	c7 44 24 04 00 00 00 	movl   $0x0,0x4(%esp)
    32d9:	00 
    32da:	e8 e1 e9 00 00       	call   11cc0 <console_set_style>
    32df:	89 74 24 04          	mov    %esi,0x4(%esp)
    32e3:	c7 04 24 d4 6f 02 00 	movl   $0x26fd4,(%esp)
    32ea:	83 0d d0 6f 02 00 08 	orl    $0x8,0x26fd0
    32f1:	e8 6a 31 00 00       	call   6460 <tag_get_pt>
    32f6:	8b 45 8c             	mov    -0x74(%ebp),%eax
    32f9:	8b 55 90             	mov    -0x70(%ebp),%edx
    32fc:	89 74 24 08          	mov    %esi,0x8(%esp)
    3300:	80 7d 87 00          	cmpb   $0x0,-0x79(%ebp)
    3304:	89 04 24             	mov    %eax,(%esp)
    3307:	89 54 24 04          	mov    %edx,0x4(%esp)
    330b:	0f 85 57 03 00 00    	jne    3668 <search+0x418>
    3311:	e8 6a 30 00 00       	call   6380 <spt_next_char>
    3316:	8b 45 8c             	mov    -0x74(%ebp),%eax
    3319:	89 45 94             	mov    %eax,-0x6c(%ebp)
    331c:	a1 04 44 02 00       	mov    0x24404,%eax
    3321:	89 45 d8             	mov    %eax,-0x28(%ebp)
    3324:	a1 08 44 02 00       	mov    0x24408,%eax
    3329:	89 45 dc             	mov    %eax,-0x24(%ebp)
    332c:	a1 0c 44 02 00       	mov    0x2440c,%eax
    3331:	8b 55 90             	mov    -0x70(%ebp),%edx
    3334:	89 45 e0             	mov    %eax,-0x20(%ebp)
    3337:	a1 10 44 02 00       	mov    0x24410,%eax
    333c:	89 55 98             	mov    %edx,-0x68(%ebp)
    333f:	89 45 e4             	mov    %eax,-0x1c(%ebp)
    3342:	31 c0                	xor    %eax,%eax
    3344:	89 1c 24             	mov    %ebx,(%esp)
    3347:	8a 45 87             	mov    -0x79(%ebp),%al
    334a:	89 44 24 18          	mov    %eax,0x18(%esp)
    334e:	8b 45 d8             	mov    -0x28(%ebp),%eax
    3351:	89 44 24 08          	mov    %eax,0x8(%esp)
    3355:	8b 45 dc             	mov    -0x24(%ebp),%eax
    3358:	89 44 24 0c          	mov    %eax,0xc(%esp)
    335c:	8b 45 e0             	mov    -0x20(%ebp),%eax
    335f:	89 44 24 10          	mov    %eax,0x10(%esp)
    3363:	8b 45 e4             	mov    -0x1c(%ebp),%eax
    3366:	89 44 24 14          	mov    %eax,0x14(%esp)
    336a:	8d 45 94             	lea    -0x6c(%ebp),%eax
    336d:	89 44 24 04          	mov    %eax,0x4(%esp)
    3371:	e8 0a 31 00 00       	call   6480 <search_init>
    3376:	89 c7                	mov    %eax,%edi
    3378:	85 c0                	test   %eax,%eax
    337a:	0f 84 28 04 00 00    	je     37a8 <search+0x558>
    3380:	8d 45 cc             	lea    -0x34(%ebp),%eax
    3383:	89 3c 24             	mov    %edi,(%esp)
    3386:	89 44 24 04          	mov    %eax,0x4(%esp)
    338a:	e8 51 32 00 00       	call   65e0 <search_next_match>
    338f:	85 c0                	test   %eax,%eax
    3391:	0f 85 09 03 00 00    	jne    36a0 <search+0x450>
    3397:	a1 a8 6f 02 00       	mov    0x26fa8,%eax
    339c:	8b 55 d4             	mov    -0x2c(%ebp),%edx
    339f:	48                   	dec    %eax
    33a0:	c7 44 24 04 00 00 00 	movl   $0x0,0x4(%esp)
    33a7:	00 
    33a8:	89 44 24 08          	mov    %eax,0x8(%esp)
    33ac:	a1 a0 6f 02 00       	mov    0x26fa0,%eax
    33b1:	85 d2                	test   %edx,%edx
    33b3:	89 04 24             	mov    %eax,(%esp)
    33b6:	0f 84 7c 03 00 00    	je     3738 <search+0x4e8>
    33bc:	e8 5f ec 00 00       	call   12020 <console_set_pos>
    33c1:	a1 a0 6f 02 00       	mov    0x26fa0,%eax
    33c6:	89 04 24             	mov    %eax,(%esp)
    33c9:	c7 44 24 04 02 00 00 	movl   $0x2,0x4(%esp)
    33d0:	00 
    33d1:	e8 ea e8 00 00       	call   11cc0 <console_set_style>
    33d6:	8b 35 a4 6f 02 00    	mov    0x26fa4,%esi
    33dc:	b8 03 00 00 00       	mov    $0x3,%eax
    33e1:	c7 44 24 08 6d 3b 02 	movl   $0x23b6d,0x8(%esp)
    33e8:	00 
    33e9:	29 f0                	sub    %esi,%eax
    33eb:	c7 04 24 92 3a 02 00 	movl   $0x23a92,(%esp)
    33f2:	89 44 24 04          	mov    %eax,0x4(%esp)
    33f6:	e8 d5 ba 00 00       	call   eed0 <printf>
    33fb:	a1 a0 6f 02 00       	mov    0x26fa0,%eax
    3400:	89 04 24             	mov    %eax,(%esp)
    3403:	e8 88 e7 00 00       	call   11b90 <console_flush>
    3408:	a1 a0 6f 02 00       	mov    0x26fa0,%eax
    340d:	c7 44 24 04 00 00 00 	movl   $0x0,0x4(%esp)
    3414:	00 
    3415:	89 04 24             	mov    %eax,(%esp)
    3418:	e8 a3 e8 00 00       	call   11cc0 <console_set_style>
    341d:	8b 75 d4             	mov    -0x2c(%ebp),%esi
    3420:	83 0d d0 6f 02 00 08 	orl    $0x8,0x26fd0
    3427:	85 f6                	test   %esi,%esi
    3429:	0f 84 06 04 00 00    	je     3835 <search+0x5e5>
    342f:	8d 5d ac             	lea    -0x54(%ebp),%ebx
    3432:	8b 56 04             	mov    0x4(%esi),%edx
    3435:	8b 06                	mov    (%esi),%eax
    3437:	89 5c 24 04          	mov    %ebx,0x4(%esp)
    343b:	c7 04 24 d4 6f 02 00 	movl   $0x26fd4,(%esp)
    3442:	89 55 a0             	mov    %edx,-0x60(%ebp)
    3445:	89 45 9c             	mov    %eax,-0x64(%ebp)
    3448:	e8 13 30 00 00       	call   6460 <tag_get_pt>
    344d:	8d 45 b4             	lea    -0x4c(%ebp),%eax
    3450:	c7 04 24 e4 6f 02 00 	movl   $0x26fe4,(%esp)
    3457:	89 44 24 04          	mov    %eax,0x4(%esp)
    345b:	e8 00 30 00 00       	call   6460 <tag_get_pt>
    3460:	8d 55 b4             	lea    -0x4c(%ebp),%edx
    3463:	89 54 24 04          	mov    %edx,0x4(%esp)
    3467:	89 1c 24             	mov    %ebx,(%esp)
    346a:	e8 f1 2e 00 00       	call   6360 <spt_equal>
    346f:	8b 15 04 70 02 00    	mov    0x27004,%edx
    3475:	89 14 24             	mov    %edx,(%esp)
    3478:	c7 44 24 04 d4 6f 02 	movl   $0x26fd4,0x4(%esp)
    347f:	00 
    3480:	88 45 80             	mov    %al,-0x80(%ebp)
    3483:	e8 a8 2f 00 00       	call   6430 <sheet_remove_tag>
    3488:	8d 55 9c             	lea    -0x64(%ebp),%edx
    348b:	8b 0d 04 70 02 00    	mov    0x27004,%ecx
    3491:	89 54 24 04          	mov    %edx,0x4(%esp)
    3495:	89 0c 24             	mov    %ecx,(%esp)
    3498:	c7 44 24 08 d4 6f 02 	movl   $0x26fd4,0x8(%esp)
    349f:	00 
    34a0:	89 95 7c ff ff ff    	mov    %edx,-0x84(%ebp)
    34a6:	e8 55 2f 00 00       	call   6400 <sheet_place_tag>
    34ab:	8b 0d 04 70 02 00    	mov    0x27004,%ecx
    34b1:	89 0c 24             	mov    %ecx,(%esp)
    34b4:	c7 44 24 04 e4 6f 02 	movl   $0x26fe4,0x4(%esp)
    34bb:	00 
    34bc:	e8 6f 2f 00 00       	call   6430 <sheet_remove_tag>
    34c1:	8b 95 7c ff ff ff    	mov    -0x84(%ebp),%edx
    34c7:	8b 0d 04 70 02 00    	mov    0x27004,%ecx
    34cd:	89 54 24 04          	mov    %edx,0x4(%esp)
    34d1:	89 0c 24             	mov    %ecx,(%esp)
    34d4:	c7 44 24 08 e4 6f 02 	movl   $0x26fe4,0x8(%esp)
    34db:	00 
    34dc:	e8 1f 2f 00 00       	call   6400 <sheet_place_tag>
    34e1:	8d 4d c4             	lea    -0x3c(%ebp),%ecx
    34e4:	8b 95 7c ff ff ff    	mov    -0x84(%ebp),%edx
    34ea:	89 4c 24 04          	mov    %ecx,0x4(%esp)
    34ee:	89 14 24             	mov    %edx,(%esp)
    34f1:	e8 da 2d 00 00       	call   62d0 <spt_get_coord>
    34f6:	8a 45 80             	mov    -0x80(%ebp),%al
    34f9:	84 c0                	test   %al,%al
    34fb:	75 07                	jne    3504 <search+0x2b4>
    34fd:	83 0d d0 6f 02 00 01 	orl    $0x1,0x26fd0
    3504:	8b 45 c8             	mov    -0x38(%ebp),%eax
    3507:	a3 f4 6f 02 00       	mov    %eax,0x26ff4
    350c:	e8 8f dc ff ff       	call   11a0 <caret_update>
    3511:	80 7d 87 00          	cmpb   $0x0,-0x79(%ebp)
    3515:	0f 85 36 01 00 00    	jne    3651 <search+0x401>
    351b:	8b 55 d0             	mov    -0x30(%ebp),%edx
    351e:	8b 45 cc             	mov    -0x34(%ebp),%eax
    3521:	89 d1                	mov    %edx,%ecx
    3523:	09 c1                	or     %eax,%ecx
    3525:	74 2e                	je     3555 <search+0x305>
    3527:	90                   	nop
    3528:	83 c0 ff             	add    $0xffffffff,%eax
    352b:	89 74 24 08          	mov    %esi,0x8(%esp)
    352f:	83 d2 ff             	adc    $0xffffffff,%edx
    3532:	89 45 cc             	mov    %eax,-0x34(%ebp)
    3535:	89 55 d0             	mov    %edx,-0x30(%ebp)
    3538:	8b 06                	mov    (%esi),%eax
    353a:	8b 56 04             	mov    0x4(%esi),%edx
    353d:	89 04 24             	mov    %eax,(%esp)
    3540:	89 54 24 04          	mov    %edx,0x4(%esp)
    3544:	e8 77 2e 00 00       	call   63c0 <spt_prev_char>
    3549:	8b 55 d0             	mov    -0x30(%ebp),%edx
    354c:	8b 45 cc             	mov    -0x34(%ebp),%eax
    354f:	89 d1                	mov    %edx,%ecx
    3551:	09 c1                	or     %eax,%ecx
    3553:	75 d3                	jne    3528 <search+0x2d8>
    3555:	8b 56 04             	mov    0x4(%esi),%edx
    3558:	8b 06                	mov    (%esi),%eax
    355a:	89 5c 24 04          	mov    %ebx,0x4(%esp)
    355e:	c7 04 24 d4 6f 02 00 	movl   $0x26fd4,(%esp)
    3565:	89 55 a8             	mov    %edx,-0x58(%ebp)
    3568:	89 45 a4             	mov    %eax,-0x5c(%ebp)
    356b:	e8 f0 2e 00 00       	call   6460 <tag_get_pt>
    3570:	8d 45 b4             	lea    -0x4c(%ebp),%eax
    3573:	89 44 24 04          	mov    %eax,0x4(%esp)
    3577:	c7 04 24 e4 6f 02 00 	movl   $0x26fe4,(%esp)
    357e:	e8 dd 2e 00 00       	call   6460 <tag_get_pt>
    3583:	8d 55 b4             	lea    -0x4c(%ebp),%edx
    3586:	89 54 24 04          	mov    %edx,0x4(%esp)
    358a:	89 1c 24             	mov    %ebx,(%esp)
    358d:	e8 ce 2d 00 00       	call   6360 <spt_equal>
    3592:	a1 04 70 02 00       	mov    0x27004,%eax
    3597:	89 04 24             	mov    %eax,(%esp)
    359a:	c7 44 24 04 d4 6f 02 	movl   $0x26fd4,0x4(%esp)
    35a1:	00 
    35a2:	e8 89 2e 00 00       	call   6430 <sheet_remove_tag>
    35a7:	8d 45 a4             	lea    -0x5c(%ebp),%eax
    35aa:	8b 15 04 70 02 00    	mov    0x27004,%edx
    35b0:	89 44 24 04          	mov    %eax,0x4(%esp)
    35b4:	89 14 24             	mov    %edx,(%esp)
    35b7:	c7 44 24 08 d4 6f 02 	movl   $0x26fd4,0x8(%esp)
    35be:	00 
    35bf:	89 45 80             	mov    %eax,-0x80(%ebp)
    35c2:	e8 39 2e 00 00       	call   6400 <sheet_place_tag>
    35c7:	8d 4d c4             	lea    -0x3c(%ebp),%ecx
    35ca:	8b 45 80             	mov    -0x80(%ebp),%eax
    35cd:	89 4c 24 04          	mov    %ecx,0x4(%esp)
    35d1:	89 04 24             	mov    %eax,(%esp)
    35d4:	e8 f7 2c 00 00       	call   62d0 <spt_get_coord>
    35d9:	8d 45 bc             	lea    -0x44(%ebp),%eax
    35dc:	89 44 24 04          	mov    %eax,0x4(%esp)
    35e0:	89 1c 24             	mov    %ebx,(%esp)
    35e3:	e8 e8 2c 00 00       	call   62d0 <spt_get_coord>
    35e8:	8b 45 c4             	mov    -0x3c(%ebp),%eax
    35eb:	39 45 bc             	cmp    %eax,-0x44(%ebp)
    35ee:	a1 d0 6f 02 00       	mov    0x26fd0,%eax
    35f3:	0f 84 37 01 00 00    	je     3730 <search+0x4e0>
    35f9:	83 c8 01             	or     $0x1,%eax
    35fc:	a3 d0 6f 02 00       	mov    %eax,0x26fd0
    3601:	8b 45 c8             	mov    -0x38(%ebp),%eax
    3604:	a3 f4 6f 02 00       	mov    %eax,0x26ff4
    3609:	e8 92 db ff ff       	call   11a0 <caret_update>
    360e:	89 34 24             	mov    %esi,(%esp)
    3611:	e8 4a 10 01 00       	call   14660 <free>
    3616:	89 3c 24             	mov    %edi,(%esp)
    3619:	e8 b2 30 00 00       	call   66d0 <search_fini>
    361e:	81 c4 9c 00 00 00    	add    $0x9c,%esp
    3624:	5b                   	pop    %ebx
    3625:	5e                   	pop    %esi
    3626:	5f                   	pop    %edi
    3627:	5d                   	pop    %ebp
    3628:	c3                   	ret    
    3629:	8d b4 26 00 00 00 00 	lea    0x0(%esi,%eiz,1),%esi
    3630:	83 c0 ff             	add    $0xffffffff,%eax
    3633:	89 74 24 08          	mov    %esi,0x8(%esp)
    3637:	83 d2 ff             	adc    $0xffffffff,%edx
    363a:	89 45 cc             	mov    %eax,-0x34(%ebp)
    363d:	89 55 d0             	mov    %edx,-0x30(%ebp)
    3640:	8b 06                	mov    (%esi),%eax
    3642:	8b 56 04             	mov    0x4(%esi),%edx
    3645:	89 04 24             	mov    %eax,(%esp)
    3648:	89 54 24 04          	mov    %edx,0x4(%esp)
    364c:	e8 2f 2d 00 00       	call   6380 <spt_next_char>
    3651:	8b 55 d0             	mov    -0x30(%ebp),%edx
    3654:	8b 45 cc             	mov    -0x34(%ebp),%eax
    3657:	89 d1                	mov    %edx,%ecx
    3659:	09 c1                	or     %eax,%ecx
    365b:	75 d3                	jne    3630 <search+0x3e0>
    365d:	e9 f3 fe ff ff       	jmp    3555 <search+0x305>
    3662:	8d b6 00 00 00 00    	lea    0x0(%esi),%esi
    3668:	e8 53 2d 00 00       	call   63c0 <spt_prev_char>
    366d:	8b 45 8c             	mov    -0x74(%ebp),%eax
    3670:	89 45 94             	mov    %eax,-0x6c(%ebp)
    3673:	a1 14 44 02 00       	mov    0x24414,%eax
    3678:	89 45 d8             	mov    %eax,-0x28(%ebp)
    367b:	a1 18 44 02 00       	mov    0x24418,%eax
    3680:	89 45 dc             	mov    %eax,-0x24(%ebp)
    3683:	a1 1c 44 02 00       	mov    0x2441c,%eax
    3688:	8b 55 90             	mov    -0x70(%ebp),%edx
    368b:	89 45 e0             	mov    %eax,-0x20(%ebp)
    368e:	a1 20 44 02 00       	mov    0x24420,%eax
    3693:	89 55 98             	mov    %edx,-0x68(%ebp)
    3696:	89 45 e4             	mov    %eax,-0x1c(%ebp)
    3699:	e9 a4 fc ff ff       	jmp    3342 <search+0xf2>
    369e:	66 90                	xchg   %ax,%ax
    36a0:	a1 a8 6f 02 00       	mov    0x26fa8,%eax
    36a5:	c7 44 24 04 00 00 00 	movl   $0x0,0x4(%esp)
    36ac:	00 
    36ad:	48                   	dec    %eax
    36ae:	89 44 24 08          	mov    %eax,0x8(%esp)
    36b2:	a1 a0 6f 02 00       	mov    0x26fa0,%eax
    36b7:	89 04 24             	mov    %eax,(%esp)
    36ba:	e8 61 e9 00 00       	call   12020 <console_set_pos>
    36bf:	a1 a0 6f 02 00       	mov    0x26fa0,%eax
    36c4:	89 04 24             	mov    %eax,(%esp)
    36c7:	c7 44 24 04 02 00 00 	movl   $0x2,0x4(%esp)
    36ce:	00 
    36cf:	e8 ec e5 00 00       	call   11cc0 <console_set_style>
    36d4:	8b 0d a4 6f 02 00    	mov    0x26fa4,%ecx
    36da:	b8 03 00 00 00       	mov    $0x3,%eax
    36df:	c7 44 24 08 5b 3b 02 	movl   $0x23b5b,0x8(%esp)
    36e6:	00 
    36e7:	29 c8                	sub    %ecx,%eax
    36e9:	c7 04 24 92 3a 02 00 	movl   $0x23a92,(%esp)
    36f0:	89 44 24 04          	mov    %eax,0x4(%esp)
    36f4:	e8 d7 b7 00 00       	call   eed0 <printf>
    36f9:	a1 a0 6f 02 00       	mov    0x26fa0,%eax
    36fe:	89 04 24             	mov    %eax,(%esp)
    3701:	e8 8a e4 00 00       	call   11b90 <console_flush>
    3706:	a1 a0 6f 02 00       	mov    0x26fa0,%eax
    370b:	c7 44 24 04 00 00 00 	movl   $0x0,0x4(%esp)
    3712:	00 
    3713:	89 04 24             	mov    %eax,(%esp)
    3716:	e8 a5 e5 00 00       	call   11cc0 <console_set_style>
    371b:	89 3c 24             	mov    %edi,(%esp)
    371e:	83 0d d0 6f 02 00 08 	orl    $0x8,0x26fd0
    3725:	e8 a6 2f 00 00       	call   66d0 <search_fini>
    372a:	e9 68 fc ff ff       	jmp    3397 <search+0x147>
    372f:	90                   	nop
    3730:	83 c8 02             	or     $0x2,%eax
    3733:	e9 c4 fe ff ff       	jmp    35fc <search+0x3ac>
    3738:	e8 e3 e8 00 00       	call   12020 <console_set_pos>
    373d:	a1 a0 6f 02 00       	mov    0x26fa0,%eax
    3742:	89 04 24             	mov    %eax,(%esp)
    3745:	c7 44 24 04 02 00 00 	movl   $0x2,0x4(%esp)
    374c:	00 
    374d:	e8 6e e5 00 00       	call   11cc0 <console_set_style>
    3752:	8b 1d a4 6f 02 00    	mov    0x26fa4,%ebx
    3758:	b8 03 00 00 00       	mov    $0x3,%eax
    375d:	c7 44 24 08 8c 3b 02 	movl   $0x23b8c,0x8(%esp)
    3764:	00 
    3765:	29 d8                	sub    %ebx,%eax
    3767:	c7 04 24 92 3a 02 00 	movl   $0x23a92,(%esp)
    376e:	89 44 24 04          	mov    %eax,0x4(%esp)
    3772:	e8 59 b7 00 00       	call   eed0 <printf>
    3777:	a1 a0 6f 02 00       	mov    0x26fa0,%eax
    377c:	89 04 24             	mov    %eax,(%esp)
    377f:	e8 0c e4 00 00       	call   11b90 <console_flush>
    3784:	a1 a0 6f 02 00       	mov    0x26fa0,%eax
    3789:	c7 44 24 04 00 00 00 	movl   $0x0,0x4(%esp)
    3790:	00 
    3791:	89 04 24             	mov    %eax,(%esp)
    3794:	e8 27 e5 00 00       	call   11cc0 <console_set_style>
    3799:	83 0d d0 6f 02 00 08 	orl    $0x8,0x26fd0
    37a0:	e9 71 fe ff ff       	jmp    3616 <search+0x3c6>
    37a5:	8d 76 00             	lea    0x0(%esi),%esi
    37a8:	a1 a8 6f 02 00       	mov    0x26fa8,%eax
    37ad:	c7 44 24 04 00 00 00 	movl   $0x0,0x4(%esp)
    37b4:	00 
    37b5:	48                   	dec    %eax
    37b6:	89 44 24 08          	mov    %eax,0x8(%esp)
    37ba:	a1 a0 6f 02 00       	mov    0x26fa0,%eax
    37bf:	89 04 24             	mov    %eax,(%esp)
    37c2:	e8 59 e8 00 00       	call   12020 <console_set_pos>
    37c7:	a1 a0 6f 02 00       	mov    0x26fa0,%eax
    37cc:	89 04 24             	mov    %eax,(%esp)
    37cf:	c7 44 24 04 02 00 00 	movl   $0x2,0x4(%esp)
    37d6:	00 
    37d7:	e8 e4 e4 00 00       	call   11cc0 <console_set_style>
    37dc:	8b 1d a4 6f 02 00    	mov    0x26fa4,%ebx
    37e2:	b8 03 00 00 00       	mov    $0x3,%eax
    37e7:	c7 44 24 08 3f 3b 02 	movl   $0x23b3f,0x8(%esp)
    37ee:	00 
    37ef:	29 d8                	sub    %ebx,%eax
    37f1:	c7 04 24 92 3a 02 00 	movl   $0x23a92,(%esp)
    37f8:	89 44 24 04          	mov    %eax,0x4(%esp)
    37fc:	e8 cf b6 00 00       	call   eed0 <printf>
    3801:	a1 a0 6f 02 00       	mov    0x26fa0,%eax
    3806:	89 04 24             	mov    %eax,(%esp)
    3809:	e8 82 e3 00 00       	call   11b90 <console_flush>
    380e:	a1 a0 6f 02 00       	mov    0x26fa0,%eax
    3813:	c7 44 24 04 00 00 00 	movl   $0x0,0x4(%esp)
    381a:	00 
    381b:	89 04 24             	mov    %eax,(%esp)
    381e:	e8 9d e4 00 00       	call   11cc0 <console_set_style>
    3823:	83 0d d0 6f 02 00 08 	orl    $0x8,0x26fd0
    382a:	81 c4 9c 00 00 00    	add    $0x9c,%esp
    3830:	5b                   	pop    %ebx
    3831:	5e                   	pop    %esi
    3832:	5f                   	pop    %edi
    3833:	5d                   	pop    %ebp
    3834:	c3                   	ret    
    3835:	c7 44 24 08 06 07 00 	movl   $0x706,0x8(%esp)
    383c:	00 
    383d:	c7 44 24 04 a0 3a 02 	movl   $0x23aa0,0x4(%esp)
    3844:	00 
    3845:	c7 04 24 7a 3b 02 00 	movl   $0x23b7a,(%esp)
    384c:	e8 df b4 01 00       	call   1ed30 <assert_abort>
    3851:	66 90                	xchg   %ax,%ax
    3853:	66 90                	xchg   %ax,%ax
    3855:	66 90                	xchg   %ax,%ax
    3857:	66 90                	xchg   %ax,%ax
    3859:	66 90                	xchg   %ax,%ax
    385b:	66 90                	xchg   %ax,%ax
    385d:	66 90                	xchg   %ax,%ax
    385f:	90                   	nop

00003860 <main>:
    3860:	55                   	push   %ebp
    3861:	89 e5                	mov    %esp,%ebp
    3863:	57                   	push   %edi
    3864:	56                   	push   %esi
    3865:	53                   	push   %ebx
    3866:	83 e4 f0             	and    $0xfffffff0,%esp
    3869:	81 ec f0 00 00 00    	sub    $0xf0,%esp
    386f:	a1 2c 70 02 00       	mov    0x2702c,%eax
    3874:	89 44 24 04          	mov    %eax,0x4(%esp)
    3878:	a1 30 70 02 00       	mov    0x27030,%eax
    387d:	89 04 24             	mov    %eax,(%esp)
    3880:	e8 2b e2 00 00       	call   11ab0 <console_init>
    3885:	89 04 24             	mov    %eax,(%esp)
    3888:	a3 a0 6f 02 00       	mov    %eax,0x26fa0
    388d:	e8 1e e3 00 00       	call   11bb0 <console_clear>
    3892:	a1 a0 6f 02 00       	mov    0x26fa0,%eax
    3897:	c7 44 24 08 a8 6f 02 	movl   $0x26fa8,0x8(%esp)
    389e:	00 
    389f:	c7 44 24 04 a4 6f 02 	movl   $0x26fa4,0x4(%esp)
    38a6:	00 
    38a7:	89 04 24             	mov    %eax,(%esp)
    38aa:	e8 81 e3 00 00       	call   11c30 <console_get_size>
    38af:	a1 a8 6f 02 00       	mov    0x26fa8,%eax
    38b4:	83 e8 03             	sub    $0x3,%eax
    38b7:	c7 04 24 04 70 02 00 	movl   $0x27004,(%esp)
    38be:	a3 c0 6f 02 00       	mov    %eax,0x26fc0
    38c3:	a1 a4 6f 02 00       	mov    0x26fa4,%eax
    38c8:	a3 c4 6f 02 00       	mov    %eax,0x26fc4
    38cd:	c7 05 c8 6f 02 00 01 	movl   $0x1,0x26fc8
    38d4:	00 00 00 
    38d7:	c7 05 cc 6f 02 00 01 	movl   $0x1,0x26fcc
    38de:	00 00 00 
    38e1:	e8 1a 25 00 00       	call   5e00 <sheet_create>
    38e6:	85 c0                	test   %eax,%eax
    38e8:	0f 85 de 20 00 00    	jne    59cc <main+0x216c>
    38ee:	8d 74 24 50          	lea    0x50(%esp),%esi
    38f2:	89 f0                	mov    %esi,%eax
    38f4:	e8 67 d8 ff ff       	call   1160 <pt_get_sof>
    38f9:	a1 04 70 02 00       	mov    0x27004,%eax
    38fe:	c7 44 24 08 d4 6f 02 	movl   $0x26fd4,0x8(%esp)
    3905:	00 
    3906:	89 74 24 04          	mov    %esi,0x4(%esp)
    390a:	89 04 24             	mov    %eax,(%esp)
    390d:	e8 ee 2a 00 00       	call   6400 <sheet_place_tag>
    3912:	c7 05 f4 6f 02 00 01 	movl   $0x1,0x26ff4
    3919:	00 00 00 
    391c:	83 7d 08 02          	cmpl   $0x2,0x8(%ebp)
    3920:	0f 84 9c 08 00 00    	je     41c2 <main+0x962>
    3926:	83 7d 08 01          	cmpl   $0x1,0x8(%ebp)
    392a:	0f 8f b0 20 00 00    	jg     59e0 <main+0x2180>
    3930:	c7 05 00 70 02 00 00 	movl   $0x0,0x27000
    3937:	00 00 00 
    393a:	c6 44 24 38 01       	movb   $0x1,0x38(%esp)
    393f:	a1 04 70 02 00       	mov    0x27004,%eax
    3944:	89 74 24 04          	mov    %esi,0x4(%esp)
    3948:	89 04 24             	mov    %eax,(%esp)
    394b:	c7 44 24 08 e4 6f 02 	movl   $0x26fe4,0x8(%esp)
    3952:	00 
    3953:	e8 a8 2a 00 00       	call   6400 <sheet_place_tag>
    3958:	89 f0                	mov    %esi,%eax
    395a:	e8 01 d8 ff ff       	call   1160 <pt_get_sof>
    395f:	8b 44 24 50          	mov    0x50(%esp),%eax
    3963:	89 44 24 58          	mov    %eax,0x58(%esp)
    3967:	8d 84 24 b8 00 00 00 	lea    0xb8(%esp),%eax
    396e:	8b 54 24 54          	mov    0x54(%esp),%edx
    3972:	89 44 24 04          	mov    %eax,0x4(%esp)
    3976:	8d b4 24 c8 00 00 00 	lea    0xc8(%esp),%esi
    397d:	c7 04 24 d4 6f 02 00 	movl   $0x26fd4,(%esp)
    3984:	89 54 24 5c          	mov    %edx,0x5c(%esp)
    3988:	e8 d3 2a 00 00       	call   6460 <tag_get_pt>
    398d:	89 74 24 04          	mov    %esi,0x4(%esp)
    3991:	c7 04 24 e4 6f 02 00 	movl   $0x26fe4,(%esp)
    3998:	e8 c3 2a 00 00       	call   6460 <tag_get_pt>
    399d:	8d 94 24 b8 00 00 00 	lea    0xb8(%esp),%edx
    39a4:	89 14 24             	mov    %edx,(%esp)
    39a7:	89 74 24 04          	mov    %esi,0x4(%esp)
    39ab:	e8 b0 29 00 00       	call   6360 <spt_equal>
    39b0:	a1 04 70 02 00       	mov    0x27004,%eax
    39b5:	89 04 24             	mov    %eax,(%esp)
    39b8:	c7 44 24 04 d4 6f 02 	movl   $0x26fd4,0x4(%esp)
    39bf:	00 
    39c0:	e8 6b 2a 00 00       	call   6430 <sheet_remove_tag>
    39c5:	8d 7c 24 58          	lea    0x58(%esp),%edi
    39c9:	a1 04 70 02 00       	mov    0x27004,%eax
    39ce:	c7 44 24 08 d4 6f 02 	movl   $0x26fd4,0x8(%esp)
    39d5:	00 
    39d6:	89 04 24             	mov    %eax,(%esp)
    39d9:	89 7c 24 04          	mov    %edi,0x4(%esp)
    39dd:	8d 9c 24 d0 00 00 00 	lea    0xd0(%esp),%ebx
    39e4:	e8 17 2a 00 00       	call   6400 <sheet_place_tag>
    39e9:	89 5c 24 04          	mov    %ebx,0x4(%esp)
    39ed:	89 3c 24             	mov    %edi,(%esp)
    39f0:	e8 db 28 00 00       	call   62d0 <spt_get_coord>
    39f5:	8d 84 24 c0 00 00 00 	lea    0xc0(%esp),%eax
    39fc:	8d 94 24 b8 00 00 00 	lea    0xb8(%esp),%edx
    3a03:	89 44 24 04          	mov    %eax,0x4(%esp)
    3a07:	89 14 24             	mov    %edx,(%esp)
    3a0a:	e8 c1 28 00 00       	call   62d0 <spt_get_coord>
    3a0f:	8b 84 24 d0 00 00 00 	mov    0xd0(%esp),%eax
    3a16:	39 84 24 c0 00 00 00 	cmp    %eax,0xc0(%esp)
    3a1d:	a1 d0 6f 02 00       	mov    0x26fd0,%eax
    3a22:	0f 84 d5 04 00 00    	je     3efd <main+0x69d>
    3a28:	83 c8 01             	or     $0x1,%eax
    3a2b:	a3 d0 6f 02 00       	mov    %eax,0x26fd0
    3a30:	8b 84 24 d4 00 00 00 	mov    0xd4(%esp),%eax
    3a37:	a3 f4 6f 02 00       	mov    %eax,0x26ff4
    3a3c:	e8 5f d7 ff ff       	call   11a0 <caret_update>
    3a41:	31 c0                	xor    %eax,%eax
    3a43:	c6 05 08 70 02 00 01 	movb   $0x1,0x27008
    3a4a:	e8 a1 e5 ff ff       	call   1ff0 <cursor_setvis>
    3a4f:	a1 a0 6f 02 00       	mov    0x26fa0,%eax
    3a54:	89 04 24             	mov    %eax,(%esp)
    3a57:	e8 54 e1 00 00       	call   11bb0 <console_clear>
    3a5c:	e8 1f e1 ff ff       	call   1b80 <pane_text_display>
    3a61:	e8 6a db ff ff       	call   15d0 <pane_status_display>
    3a66:	80 7c 24 38 00       	cmpb   $0x0,0x38(%esp)
    3a6b:	0f 85 4d 03 00 00    	jne    3dbe <main+0x55e>
    3a71:	89 74 24 04          	mov    %esi,0x4(%esp)
    3a75:	c7 04 24 d4 6f 02 00 	movl   $0x26fd4,(%esp)
    3a7c:	e8 df 29 00 00       	call   6460 <tag_get_pt>
    3a81:	89 5c 24 04          	mov    %ebx,0x4(%esp)
    3a85:	89 34 24             	mov    %esi,(%esp)
    3a88:	e8 43 28 00 00       	call   62d0 <spt_get_coord>
    3a8d:	8b 3d c8 6f 02 00    	mov    0x26fc8,%edi
    3a93:	8b 84 24 d0 00 00 00 	mov    0xd0(%esp),%eax
    3a9a:	8b 15 cc 6f 02 00    	mov    0x26fcc,%edx
    3aa0:	29 f8                	sub    %edi,%eax
    3aa2:	8d bc 24 d8 00 00 00 	lea    0xd8(%esp),%edi
    3aa9:	89 44 24 08          	mov    %eax,0x8(%esp)
    3aad:	8b 84 24 d4 00 00 00 	mov    0xd4(%esp),%eax
    3ab4:	29 d0                	sub    %edx,%eax
    3ab6:	89 44 24 04          	mov    %eax,0x4(%esp)
    3aba:	a1 a0 6f 02 00       	mov    0x26fa0,%eax
    3abf:	89 04 24             	mov    %eax,(%esp)
    3ac2:	e8 59 e5 00 00       	call   12020 <console_set_pos>
    3ac7:	b8 01 00 00 00       	mov    $0x1,%eax
    3acc:	e8 1f e5 ff ff       	call   1ff0 <cursor_setvis>
    3ad1:	c6 05 0c 70 02 00 00 	movb   $0x0,0x2700c
    3ad8:	c7 84 24 e4 00 00 00 	movl   $0x29,0xe4(%esp)
    3adf:	29 00 00 00 
    3ae3:	e8 98 e1 ff ff       	call   1c80 <selection_delete>
    3ae8:	b8 0a 00 00 00       	mov    $0xa,%eax
    3aed:	e8 ce d5 ff ff       	call   10c0 <insert_char>
    3af2:	e8 a9 d6 ff ff       	call   11a0 <caret_update>
    3af7:	e8 a4 d6 ff ff       	call   11a0 <caret_update>
    3afc:	80 3d 0c 70 02 00 00 	cmpb   $0x0,0x2700c
    3b03:	0f 85 db 00 00 00    	jne    3be4 <main+0x384>
    3b09:	a1 a0 6f 02 00       	mov    0x26fa0,%eax
    3b0e:	89 7c 24 04          	mov    %edi,0x4(%esp)
    3b12:	89 04 24             	mov    %eax,(%esp)
    3b15:	e8 86 e5 00 00       	call   120a0 <console_get_kbd_event>
    3b1a:	8b 8c 24 e0 00 00 00 	mov    0xe0(%esp),%ecx
    3b21:	c7 05 d0 6f 02 00 00 	movl   $0x0,0x26fd0
    3b28:	00 00 00 
    3b2b:	85 c9                	test   %ecx,%ecx
    3b2d:	75 39                	jne    3b68 <main+0x308>
    3b2f:	8b 84 24 e8 00 00 00 	mov    0xe8(%esp),%eax
    3b36:	a8 33                	test   $0x33,%al
    3b38:	75 08                	jne    3b42 <main+0x2e2>
    3b3a:	a8 0c                	test   $0xc,%al
    3b3c:	0f 85 36 02 00 00    	jne    3d78 <main+0x518>
    3b42:	a8 3c                	test   $0x3c,%al
    3b44:	75 08                	jne    3b4e <main+0x2ee>
    3b46:	a8 03                	test   $0x3,%al
    3b48:	0f 85 44 02 00 00    	jne    3d92 <main+0x532>
    3b4e:	a8 30                	test   $0x30,%al
    3b50:	75 0e                	jne    3b60 <main+0x300>
    3b52:	a8 0c                	test   $0xc,%al
    3b54:	74 0a                	je     3b60 <main+0x300>
    3b56:	a8 03                	test   $0x3,%al
    3b58:	0f 85 a7 03 00 00    	jne    3f05 <main+0x6a5>
    3b5e:	66 90                	xchg   %ax,%ax
    3b60:	a8 3f                	test   $0x3f,%al
    3b62:	0f 84 58 01 00 00    	je     3cc0 <main+0x460>
    3b68:	80 3d 08 70 02 00 00 	cmpb   $0x0,0x27008
    3b6f:	74 1c                	je     3b8d <main+0x32d>
    3b71:	a1 a0 6f 02 00       	mov    0x26fa0,%eax
    3b76:	c7 44 24 04 00 00 00 	movl   $0x0,0x4(%esp)
    3b7d:	00 
    3b7e:	89 04 24             	mov    %eax,(%esp)
    3b81:	e8 ea e2 00 00       	call   11e70 <console_cursor_visibility>
    3b86:	c6 05 08 70 02 00 00 	movb   $0x0,0x27008
    3b8d:	a1 d0 6f 02 00       	mov    0x26fd0,%eax
    3b92:	a8 01                	test   $0x1,%al
    3b94:	0f 85 16 01 00 00    	jne    3cb0 <main+0x450>
    3b9a:	a8 02                	test   $0x2,%al
    3b9c:	0f 85 c6 00 00 00    	jne    3c68 <main+0x408>
    3ba2:	a8 04                	test   $0x4,%al
    3ba4:	0f 85 ae 00 00 00    	jne    3c58 <main+0x3f8>
    3baa:	a8 08                	test   $0x8,%al
    3bac:	75 52                	jne    3c00 <main+0x3a0>
    3bae:	80 3d 08 70 02 00 00 	cmpb   $0x0,0x27008
    3bb5:	0f 85 41 ff ff ff    	jne    3afc <main+0x29c>
    3bbb:	a1 a0 6f 02 00       	mov    0x26fa0,%eax
    3bc0:	c7 44 24 04 01 00 00 	movl   $0x1,0x4(%esp)
    3bc7:	00 
    3bc8:	89 04 24             	mov    %eax,(%esp)
    3bcb:	e8 a0 e2 00 00       	call   11e70 <console_cursor_visibility>
    3bd0:	c6 05 08 70 02 00 01 	movb   $0x1,0x27008
    3bd7:	80 3d 0c 70 02 00 00 	cmpb   $0x0,0x2700c
    3bde:	0f 84 25 ff ff ff    	je     3b09 <main+0x2a9>
    3be4:	a1 a0 6f 02 00       	mov    0x26fa0,%eax
    3be9:	89 04 24             	mov    %eax,(%esp)
    3bec:	e8 bf df 00 00       	call   11bb0 <console_clear>
    3bf1:	31 c0                	xor    %eax,%eax
    3bf3:	8d 65 f4             	lea    -0xc(%ebp),%esp
    3bf6:	5b                   	pop    %ebx
    3bf7:	5e                   	pop    %esi
    3bf8:	5f                   	pop    %edi
    3bf9:	5d                   	pop    %ebp
    3bfa:	c3                   	ret    
    3bfb:	90                   	nop
    3bfc:	8d 74 26 00          	lea    0x0(%esi,%eiz,1),%esi
    3c00:	89 74 24 04          	mov    %esi,0x4(%esp)
    3c04:	c7 04 24 d4 6f 02 00 	movl   $0x26fd4,(%esp)
    3c0b:	e8 50 28 00 00       	call   6460 <tag_get_pt>
    3c10:	89 5c 24 04          	mov    %ebx,0x4(%esp)
    3c14:	89 34 24             	mov    %esi,(%esp)
    3c17:	e8 b4 26 00 00       	call   62d0 <spt_get_coord>
    3c1c:	8b 84 24 d0 00 00 00 	mov    0xd0(%esp),%eax
    3c23:	8b 15 c8 6f 02 00    	mov    0x26fc8,%edx
    3c29:	8b 0d cc 6f 02 00    	mov    0x26fcc,%ecx
    3c2f:	29 d0                	sub    %edx,%eax
    3c31:	89 44 24 08          	mov    %eax,0x8(%esp)
    3c35:	8b 84 24 d4 00 00 00 	mov    0xd4(%esp),%eax
    3c3c:	29 c8                	sub    %ecx,%eax
    3c3e:	89 44 24 04          	mov    %eax,0x4(%esp)
    3c42:	a1 a0 6f 02 00       	mov    0x26fa0,%eax
    3c47:	89 04 24             	mov    %eax,(%esp)
    3c4a:	e8 d1 e3 00 00       	call   12020 <console_set_pos>
    3c4f:	e9 5a ff ff ff       	jmp    3bae <main+0x34e>
    3c54:	8d 74 26 00          	lea    0x0(%esi,%eiz,1),%esi
    3c58:	e8 73 d9 ff ff       	call   15d0 <pane_status_display>
    3c5d:	a1 d0 6f 02 00       	mov    0x26fd0,%eax
    3c62:	e9 43 ff ff ff       	jmp    3baa <main+0x34a>
    3c67:	90                   	nop
    3c68:	89 74 24 04          	mov    %esi,0x4(%esp)
    3c6c:	c7 04 24 d4 6f 02 00 	movl   $0x26fd4,(%esp)
    3c73:	e8 e8 27 00 00       	call   6460 <tag_get_pt>
    3c78:	89 5c 24 04          	mov    %ebx,0x4(%esp)
    3c7c:	89 34 24             	mov    %esi,(%esp)
    3c7f:	e8 4c 26 00 00       	call   62d0 <spt_get_coord>
    3c84:	8b 15 c8 6f 02 00    	mov    0x26fc8,%edx
    3c8a:	8b 84 24 d0 00 00 00 	mov    0xd0(%esp),%eax
    3c91:	29 d0                	sub    %edx,%eax
    3c93:	8d 50 01             	lea    0x1(%eax),%edx
    3c96:	e8 55 da ff ff       	call   16f0 <pane_row_range_display>
    3c9b:	a1 d0 6f 02 00       	mov    0x26fd0,%eax
    3ca0:	83 c8 0c             	or     $0xc,%eax
    3ca3:	a3 d0 6f 02 00       	mov    %eax,0x26fd0
    3ca8:	e9 f5 fe ff ff       	jmp    3ba2 <main+0x342>
    3cad:	8d 76 00             	lea    0x0(%esi),%esi
    3cb0:	e8 cb de ff ff       	call   1b80 <pane_text_display>
    3cb5:	a1 d0 6f 02 00       	mov    0x26fd0,%eax
    3cba:	e9 db fe ff ff       	jmp    3b9a <main+0x33a>
    3cbf:	90                   	nop
    3cc0:	8b 94 24 e4 00 00 00 	mov    0xe4(%esp),%edx
    3cc7:	8d 42 f2             	lea    -0xe(%edx),%eax
    3cca:	83 f8 46             	cmp    $0x46,%eax
    3ccd:	0f 86 07 01 00 00    	jbe    3dda <main+0x57a>
    3cd3:	8b 84 24 ec 00 00 00 	mov    0xec(%esp),%eax
    3cda:	83 f8 09             	cmp    $0x9,%eax
    3cdd:	74 09                	je     3ce8 <main+0x488>
    3cdf:	83 f8 1f             	cmp    $0x1f,%eax
    3ce2:	0f 8e 80 fe ff ff    	jle    3b68 <main+0x308>
    3ce8:	e8 93 df ff ff       	call   1c80 <selection_delete>
    3ced:	8b 94 24 ec 00 00 00 	mov    0xec(%esp),%edx
    3cf4:	89 74 24 04          	mov    %esi,0x4(%esp)
    3cf8:	c7 04 24 d4 6f 02 00 	movl   $0x26fd4,(%esp)
    3cff:	89 54 24 38          	mov    %edx,0x38(%esp)
    3d03:	e8 58 27 00 00       	call   6460 <tag_get_pt>
    3d08:	8b 54 24 38          	mov    0x38(%esp),%edx
    3d0c:	8d 44 24 4c          	lea    0x4c(%esp),%eax
    3d10:	89 14 24             	mov    %edx,(%esp)
    3d13:	c7 44 24 0c 05 00 00 	movl   $0x5,0xc(%esp)
    3d1a:	00 
    3d1b:	89 44 24 08          	mov    %eax,0x8(%esp)
    3d1f:	89 5c 24 04          	mov    %ebx,0x4(%esp)
    3d23:	c7 44 24 4c 00 00 00 	movl   $0x0,0x4c(%esp)
    3d2a:	00 
    3d2b:	e8 60 3e 00 00       	call   7b90 <chr_encode>
    3d30:	8b 44 24 4c          	mov    0x4c(%esp),%eax
    3d34:	c6 84 04 d0 00 00 00 	movb   $0x0,0xd0(%esp,%eax,1)
    3d3b:	00 
    3d3c:	a1 04 70 02 00       	mov    0x27004,%eax
    3d41:	89 5c 24 0c          	mov    %ebx,0xc(%esp)
    3d45:	c7 44 24 08 00 00 00 	movl   $0x0,0x8(%esp)
    3d4c:	00 
    3d4d:	89 74 24 04          	mov    %esi,0x4(%esp)
    3d51:	89 04 24             	mov    %eax,(%esp)
    3d54:	e8 07 21 00 00       	call   5e60 <sheet_insert>
    3d59:	a1 d0 6f 02 00       	mov    0x26fd0,%eax
    3d5e:	83 7c 24 38 0a       	cmpl   $0xa,0x38(%esp)
    3d63:	0f 84 82 01 00 00    	je     3eeb <main+0x68b>
    3d69:	83 c8 02             	or     $0x2,%eax
    3d6c:	a3 d0 6f 02 00       	mov    %eax,0x26fd0
    3d71:	e9 7d 01 00 00       	jmp    3ef3 <main+0x693>
    3d76:	66 90                	xchg   %ax,%ax
    3d78:	8b 84 24 e4 00 00 00 	mov    0xe4(%esp),%eax
    3d7f:	83 e8 12             	sub    $0x12,%eax
    3d82:	83 f8 42             	cmp    $0x42,%eax
    3d85:	0f 87 dd fd ff ff    	ja     3b68 <main+0x308>
    3d8b:	ff 24 85 94 41 02 00 	jmp    *0x24194(,%eax,4)
    3d92:	8b 8c 24 e4 00 00 00 	mov    0xe4(%esp),%ecx
    3d99:	83 e9 4c             	sub    $0x4c,%ecx
    3d9c:	83 f9 08             	cmp    $0x8,%ecx
    3d9f:	0f 87 2e ff ff ff    	ja     3cd3 <main+0x473>
    3da5:	b8 01 00 00 00       	mov    $0x1,%eax
    3daa:	d3 e0                	shl    %cl,%eax
    3dac:	a9 fb 01 00 00       	test   $0x1fb,%eax
    3db1:	0f 84 1c ff ff ff    	je     3cd3 <main+0x473>
    3db7:	ff 24 8d a0 42 02 00 	jmp    *0x242a0(,%ecx,4)
    3dbe:	83 3d 00 70 02 00 00 	cmpl   $0x0,0x27000
    3dc5:	0f 84 a6 fc ff ff    	je     3a71 <main+0x211>
    3dcb:	b8 e0 3d 02 00       	mov    $0x23de0,%eax
    3dd0:	e8 bb d4 ff ff       	call   1290 <status_display>
    3dd5:	e9 97 fc ff ff       	jmp    3a71 <main+0x211>
    3dda:	ff 24 85 c4 42 02 00 	jmp    *0x242c4(,%eax,4)
    3de1:	8d 84 24 b8 00 00 00 	lea    0xb8(%esp),%eax
    3de8:	c7 04 24 d4 6f 02 00 	movl   $0x26fd4,(%esp)
    3def:	89 44 24 04          	mov    %eax,0x4(%esp)
    3df3:	e8 68 26 00 00       	call   6460 <tag_get_pt>
    3df8:	89 74 24 04          	mov    %esi,0x4(%esp)
    3dfc:	c7 04 24 e4 6f 02 00 	movl   $0x26fe4,(%esp)
    3e03:	e8 58 26 00 00       	call   6460 <tag_get_pt>
    3e08:	8d 94 24 c0 00 00 00 	lea    0xc0(%esp),%edx
    3e0f:	8d 84 24 b8 00 00 00 	lea    0xb8(%esp),%eax
    3e16:	89 54 24 04          	mov    %edx,0x4(%esp)
    3e1a:	89 04 24             	mov    %eax,(%esp)
    3e1d:	e8 ae 24 00 00       	call   62d0 <spt_get_coord>
    3e22:	89 5c 24 04          	mov    %ebx,0x4(%esp)
    3e26:	89 34 24             	mov    %esi,(%esp)
    3e29:	e8 a2 24 00 00       	call   62d0 <spt_get_coord>
    3e2e:	8b 84 24 c0 00 00 00 	mov    0xc0(%esp),%eax
    3e35:	8b 94 24 d0 00 00 00 	mov    0xd0(%esp),%edx
    3e3c:	39 d0                	cmp    %edx,%eax
    3e3e:	0f 84 52 04 00 00    	je     4296 <main+0xa36>
    3e44:	29 d0                	sub    %edx,%eax
    3e46:	85 c0                	test   %eax,%eax
    3e48:	0f 85 6a 03 00 00    	jne    41b8 <main+0x958>
    3e4e:	8d 94 24 b8 00 00 00 	lea    0xb8(%esp),%edx
    3e55:	c7 04 24 d4 6f 02 00 	movl   $0x26fd4,(%esp)
    3e5c:	89 54 24 04          	mov    %edx,0x4(%esp)
    3e60:	e8 fb 25 00 00       	call   6460 <tag_get_pt>
    3e65:	8d 94 24 b8 00 00 00 	lea    0xb8(%esp),%edx
    3e6c:	8d 84 24 c0 00 00 00 	lea    0xc0(%esp),%eax
    3e73:	89 14 24             	mov    %edx,(%esp)
    3e76:	89 44 24 04          	mov    %eax,0x4(%esp)
    3e7a:	e8 51 24 00 00       	call   62d0 <spt_get_coord>
    3e7f:	8d 84 24 c0 00 00 00 	lea    0xc0(%esp),%eax
    3e86:	89 44 24 04          	mov    %eax,0x4(%esp)
    3e8a:	a1 04 70 02 00       	mov    0x27004,%eax
    3e8f:	89 04 24             	mov    %eax,(%esp)
    3e92:	89 74 24 0c          	mov    %esi,0xc(%esp)
    3e96:	c7 44 24 08 01 00 00 	movl   $0x1,0x8(%esp)
    3e9d:	00 
    3e9e:	e8 2d 22 00 00       	call   60d0 <sheet_get_cell_pt>
    3ea3:	89 5c 24 04          	mov    %ebx,0x4(%esp)
    3ea7:	89 34 24             	mov    %esi,(%esp)
    3eaa:	e8 21 24 00 00       	call   62d0 <spt_get_coord>
    3eaf:	8d 94 24 b8 00 00 00 	lea    0xb8(%esp),%edx
    3eb6:	a1 04 70 02 00       	mov    0x27004,%eax
    3ebb:	89 54 24 04          	mov    %edx,0x4(%esp)
    3ebf:	89 74 24 08          	mov    %esi,0x8(%esp)
    3ec3:	89 04 24             	mov    %eax,(%esp)
    3ec6:	e8 95 20 00 00       	call   5f60 <sheet_delete>
    3ecb:	a1 d0 6f 02 00       	mov    0x26fd0,%eax
    3ed0:	89 c2                	mov    %eax,%edx
    3ed2:	83 ca 02             	or     $0x2,%edx
    3ed5:	89 15 d0 6f 02 00    	mov    %edx,0x26fd0
    3edb:	8b 94 24 c0 00 00 00 	mov    0xc0(%esp),%edx
    3ee2:	39 94 24 d0 00 00 00 	cmp    %edx,0xd0(%esp)
    3ee9:	74 08                	je     3ef3 <main+0x693>
    3eeb:	83 c8 03             	or     $0x3,%eax
    3eee:	a3 d0 6f 02 00       	mov    %eax,0x26fd0
    3ef3:	e8 a8 d2 ff ff       	call   11a0 <caret_update>
    3ef8:	e9 6b fc ff ff       	jmp    3b68 <main+0x308>
    3efd:	83 c8 02             	or     $0x2,%eax
    3f00:	e9 26 fb ff ff       	jmp    3a2b <main+0x1cb>
    3f05:	8b 84 24 e4 00 00 00 	mov    0xe4(%esp),%eax
    3f0c:	83 f8 4f             	cmp    $0x4f,%eax
    3f0f:	0f 84 94 03 00 00    	je     42a9 <main+0xa49>
    3f15:	0f 87 d8 02 00 00    	ja     41f3 <main+0x993>
    3f1b:	83 f8 20             	cmp    $0x20,%eax
    3f1e:	0f 84 3f 02 00 00    	je     4163 <main+0x903>
    3f24:	83 f8 4c             	cmp    $0x4c,%eax
    3f27:	0f 85 3b fc ff ff    	jne    3b68 <main+0x308>
    3f2d:	8d 84 24 90 00 00 00 	lea    0x90(%esp),%eax
    3f34:	c7 44 24 08 00 00 00 	movl   $0x0,0x8(%esp)
    3f3b:	00 
    3f3c:	89 44 24 0c          	mov    %eax,0xc(%esp)
    3f40:	a1 04 70 02 00       	mov    0x27004,%eax
    3f45:	89 04 24             	mov    %eax,(%esp)
    3f48:	89 5c 24 04          	mov    %ebx,0x4(%esp)
    3f4c:	c7 84 24 d4 00 00 00 	movl   $0x1,0xd4(%esp)
    3f53:	01 00 00 00 
    3f57:	c7 84 24 d0 00 00 00 	movl   $0x1,0xd0(%esp)
    3f5e:	01 00 00 00 
    3f62:	e8 69 21 00 00       	call   60d0 <sheet_get_cell_pt>
    3f67:	8b 84 24 90 00 00 00 	mov    0x90(%esp),%eax
    3f6e:	89 84 24 a8 00 00 00 	mov    %eax,0xa8(%esp)
    3f75:	8d 84 24 b8 00 00 00 	lea    0xb8(%esp),%eax
    3f7c:	8b 94 24 94 00 00 00 	mov    0x94(%esp),%edx
    3f83:	89 44 24 04          	mov    %eax,0x4(%esp)
    3f87:	c7 04 24 d4 6f 02 00 	movl   $0x26fd4,(%esp)
    3f8e:	89 94 24 ac 00 00 00 	mov    %edx,0xac(%esp)
    3f95:	e8 c6 24 00 00       	call   6460 <tag_get_pt>
    3f9a:	89 74 24 04          	mov    %esi,0x4(%esp)
    3f9e:	c7 04 24 e4 6f 02 00 	movl   $0x26fe4,(%esp)
    3fa5:	e8 b6 24 00 00       	call   6460 <tag_get_pt>
    3faa:	8d 94 24 b8 00 00 00 	lea    0xb8(%esp),%edx
    3fb1:	89 14 24             	mov    %edx,(%esp)
    3fb4:	89 74 24 04          	mov    %esi,0x4(%esp)
    3fb8:	e8 a3 23 00 00       	call   6360 <spt_equal>
    3fbd:	a1 04 70 02 00       	mov    0x27004,%eax
    3fc2:	89 04 24             	mov    %eax,(%esp)
    3fc5:	c7 44 24 04 d4 6f 02 	movl   $0x26fd4,0x4(%esp)
    3fcc:	00 
    3fcd:	e8 5e 24 00 00       	call   6430 <sheet_remove_tag>
    3fd2:	c7 44 24 08 d4 6f 02 	movl   $0x26fd4,0x8(%esp)
    3fd9:	00 
    3fda:	8d 84 24 a8 00 00 00 	lea    0xa8(%esp),%eax
    3fe1:	e9 8d 03 00 00       	jmp    4373 <main+0xb13>
    3fe6:	83 ea 4c             	sub    $0x4c,%edx
    3fe9:	83 fa 08             	cmp    $0x8,%edx
    3fec:	0f 87 76 fb ff ff    	ja     3b68 <main+0x308>
    3ff2:	ff 24 95 e0 43 02 00 	jmp    *0x243e0(,%edx,4)
    3ff9:	e8 82 dc ff ff       	call   1c80 <selection_delete>
    3ffe:	89 74 24 04          	mov    %esi,0x4(%esp)
    4002:	c7 04 24 d4 6f 02 00 	movl   $0x26fd4,(%esp)
    4009:	e8 52 24 00 00       	call   6460 <tag_get_pt>
    400e:	8d 54 24 4c          	lea    0x4c(%esp),%edx
    4012:	c7 44 24 4c 00 00 00 	movl   $0x0,0x4c(%esp)
    4019:	00 
    401a:	c7 44 24 0c 05 00 00 	movl   $0x5,0xc(%esp)
    4021:	00 
    4022:	89 54 24 08          	mov    %edx,0x8(%esp)
    4026:	89 5c 24 04          	mov    %ebx,0x4(%esp)
    402a:	c7 04 24 0a 00 00 00 	movl   $0xa,(%esp)
    4031:	e8 5a 3b 00 00       	call   7b90 <chr_encode>
    4036:	8b 44 24 4c          	mov    0x4c(%esp),%eax
    403a:	c6 84 04 d0 00 00 00 	movb   $0x0,0xd0(%esp,%eax,1)
    4041:	00 
    4042:	a1 04 70 02 00       	mov    0x27004,%eax
    4047:	89 5c 24 0c          	mov    %ebx,0xc(%esp)
    404b:	c7 44 24 08 00 00 00 	movl   $0x0,0x8(%esp)
    4052:	00 
    4053:	89 74 24 04          	mov    %esi,0x4(%esp)
    4057:	89 04 24             	mov    %eax,(%esp)
    405a:	e8 01 1e 00 00       	call   5e60 <sheet_insert>
    405f:	83 0d d0 6f 02 00 03 	orl    $0x3,0x26fd0
    4066:	e8 35 d1 ff ff       	call   11a0 <caret_update>
    406b:	e9 f8 fa ff ff       	jmp    3b68 <main+0x308>
    4070:	8d 94 24 b8 00 00 00 	lea    0xb8(%esp),%edx
    4077:	c7 04 24 d4 6f 02 00 	movl   $0x26fd4,(%esp)
    407e:	89 54 24 04          	mov    %edx,0x4(%esp)
    4082:	e8 d9 23 00 00       	call   6460 <tag_get_pt>
    4087:	89 74 24 04          	mov    %esi,0x4(%esp)
    408b:	c7 04 24 e4 6f 02 00 	movl   $0x26fe4,(%esp)
    4092:	e8 c9 23 00 00       	call   6460 <tag_get_pt>
    4097:	8d 84 24 c0 00 00 00 	lea    0xc0(%esp),%eax
    409e:	8d 94 24 b8 00 00 00 	lea    0xb8(%esp),%edx
    40a5:	89 44 24 04          	mov    %eax,0x4(%esp)
    40a9:	89 14 24             	mov    %edx,(%esp)
    40ac:	e8 1f 22 00 00       	call   62d0 <spt_get_coord>
    40b1:	89 5c 24 04          	mov    %ebx,0x4(%esp)
    40b5:	89 34 24             	mov    %esi,(%esp)
    40b8:	e8 13 22 00 00       	call   62d0 <spt_get_coord>
    40bd:	8b 84 24 c0 00 00 00 	mov    0xc0(%esp),%eax
    40c4:	8b 94 24 d0 00 00 00 	mov    0xd0(%esp),%edx
    40cb:	39 d0                	cmp    %edx,%eax
    40cd:	0f 84 b0 01 00 00    	je     4283 <main+0xa23>
    40d3:	29 d0                	sub    %edx,%eax
    40d5:	85 c0                	test   %eax,%eax
    40d7:	0f 85 db 00 00 00    	jne    41b8 <main+0x958>
    40dd:	89 74 24 04          	mov    %esi,0x4(%esp)
    40e1:	c7 04 24 d4 6f 02 00 	movl   $0x26fd4,(%esp)
    40e8:	e8 73 23 00 00       	call   6460 <tag_get_pt>
    40ed:	89 5c 24 04          	mov    %ebx,0x4(%esp)
    40f1:	89 34 24             	mov    %esi,(%esp)
    40f4:	e8 d7 21 00 00       	call   62d0 <spt_get_coord>
    40f9:	8d 84 24 b8 00 00 00 	lea    0xb8(%esp),%eax
    4100:	89 44 24 0c          	mov    %eax,0xc(%esp)
    4104:	a1 04 70 02 00       	mov    0x27004,%eax
    4109:	89 04 24             	mov    %eax,(%esp)
    410c:	c7 44 24 08 00 00 00 	movl   $0x0,0x8(%esp)
    4113:	00 
    4114:	89 5c 24 04          	mov    %ebx,0x4(%esp)
    4118:	ff 8c 24 d4 00 00 00 	decl   0xd4(%esp)
    411f:	e8 ac 1f 00 00       	call   60d0 <sheet_get_cell_pt>
    4124:	8d 94 24 b8 00 00 00 	lea    0xb8(%esp),%edx
    412b:	a1 04 70 02 00       	mov    0x27004,%eax
    4130:	89 54 24 04          	mov    %edx,0x4(%esp)
    4134:	89 74 24 08          	mov    %esi,0x8(%esp)
    4138:	89 04 24             	mov    %eax,(%esp)
    413b:	e8 20 1e 00 00       	call   5f60 <sheet_delete>
    4140:	a1 d0 6f 02 00       	mov    0x26fd0,%eax
    4145:	89 c2                	mov    %eax,%edx
    4147:	83 ca 02             	or     $0x2,%edx
    414a:	89 15 d0 6f 02 00    	mov    %edx,0x26fd0
    4150:	83 bc 24 d4 00 00 00 	cmpl   $0x0,0xd4(%esp)
    4157:	00 
    4158:	0f 8f 95 fd ff ff    	jg     3ef3 <main+0x693>
    415e:	e9 88 fd ff ff       	jmp    3eeb <main+0x68b>
    4163:	8b 15 f8 6f 02 00    	mov    0x26ff8,%edx
    4169:	85 d2                	test   %edx,%edx
    416b:	0f 84 8a 1a 00 00    	je     5bfb <main+0x239b>
    4171:	b8 d8 3c 02 00       	mov    $0x23cd8,%eax
    4176:	e8 a5 e1 ff ff       	call   2320 <prompt>
    417b:	85 c0                	test   %eax,%eax
    417d:	0f 84 49 1b 00 00    	je     5ccc <main+0x246c>
    4183:	8b 15 f8 6f 02 00    	mov    0x26ff8,%edx
    4189:	85 d2                	test   %edx,%edx
    418b:	74 10                	je     419d <main+0x93d>
    418d:	89 14 24             	mov    %edx,(%esp)
    4190:	89 44 24 24          	mov    %eax,0x24(%esp)
    4194:	e8 c7 04 01 00       	call   14660 <free>
    4199:	8b 44 24 24          	mov    0x24(%esp),%eax
    419d:	ba 01 00 00 00       	mov    $0x1,%edx
    41a2:	a3 f8 6f 02 00       	mov    %eax,0x26ff8
    41a7:	c6 05 fc 6f 02 00 01 	movb   $0x1,0x26ffc
    41ae:	e8 9d f0 ff ff       	call   3250 <search>
    41b3:	e9 b0 f9 ff ff       	jmp    3b68 <main+0x308>
    41b8:	e8 c3 da ff ff       	call   1c80 <selection_delete>
    41bd:	e9 31 fd ff ff       	jmp    3ef3 <main+0x693>
    41c2:	8b 45 0c             	mov    0xc(%ebp),%eax
    41c5:	8b 40 04             	mov    0x4(%eax),%eax
    41c8:	89 04 24             	mov    %eax,(%esp)
    41cb:	e8 50 5a 00 00       	call   9c20 <str_dup>
    41d0:	c6 44 24 38 01       	movb   $0x1,0x38(%esp)
    41d5:	a3 00 70 02 00       	mov    %eax,0x27000
    41da:	85 c0                	test   %eax,%eax
    41dc:	0f 84 5d f7 ff ff    	je     393f <main+0xdf>
    41e2:	e8 69 df ff ff       	call   2150 <file_insert>
    41e7:	85 c0                	test   %eax,%eax
    41e9:	0f 95 44 24 38       	setne  0x38(%esp)
    41ee:	e9 4c f7 ff ff       	jmp    393f <main+0xdf>
    41f3:	83 f8 52             	cmp    $0x52,%eax
    41f6:	0f 84 52 17 00 00    	je     594e <main+0x20ee>
    41fc:	83 f8 54             	cmp    $0x54,%eax
    41ff:	0f 85 63 f9 ff ff    	jne    3b68 <main+0x308>
    4205:	89 74 24 04          	mov    %esi,0x4(%esp)
    4209:	c7 04 24 d4 6f 02 00 	movl   $0x26fd4,(%esp)
    4210:	e8 4b 22 00 00       	call   6460 <tag_get_pt>
    4215:	8b 84 24 c8 00 00 00 	mov    0xc8(%esp),%eax
    421c:	8b 94 24 cc 00 00 00 	mov    0xcc(%esp),%edx
    4223:	89 84 24 a0 00 00 00 	mov    %eax,0xa0(%esp)
    422a:	89 94 24 a4 00 00 00 	mov    %edx,0xa4(%esp)
    4231:	8d 94 24 a0 00 00 00 	lea    0xa0(%esp),%edx
    4238:	8b 84 24 a0 00 00 00 	mov    0xa0(%esp),%eax
    423f:	89 54 24 08          	mov    %edx,0x8(%esp)
    4243:	8b 94 24 a4 00 00 00 	mov    0xa4(%esp),%edx
    424a:	89 54 24 04          	mov    %edx,0x4(%esp)
    424e:	89 04 24             	mov    %eax,(%esp)
    4251:	e8 2a 21 00 00       	call   6380 <spt_next_char>
    4256:	8d 84 24 a0 00 00 00 	lea    0xa0(%esp),%eax
    425d:	e8 3e ea ff ff       	call   2ca0 <pt_is_word_beginning>
    4262:	84 c0                	test   %al,%al
    4264:	74 cb                	je     4231 <main+0x9d1>
    4266:	b9 01 00 00 00       	mov    $0x1,%ecx
    426b:	8b 84 24 a0 00 00 00 	mov    0xa0(%esp),%eax
    4272:	8b 94 24 a4 00 00 00 	mov    0xa4(%esp),%edx
    4279:	e8 b2 dd ff ff       	call   2030 <caret_move.constprop.16>
    427e:	e9 e5 f8 ff ff       	jmp    3b68 <main+0x308>
    4283:	8b 84 24 c4 00 00 00 	mov    0xc4(%esp),%eax
    428a:	2b 84 24 d4 00 00 00 	sub    0xd4(%esp),%eax
    4291:	e9 3f fe ff ff       	jmp    40d5 <main+0x875>
    4296:	8b 84 24 c4 00 00 00 	mov    0xc4(%esp),%eax
    429d:	2b 84 24 d4 00 00 00 	sub    0xd4(%esp),%eax
    42a4:	e9 9d fb ff ff       	jmp    3e46 <main+0x5e6>
    42a9:	8d 54 24 4c          	lea    0x4c(%esp),%edx
    42ad:	a1 04 70 02 00       	mov    0x27004,%eax
    42b2:	89 54 24 04          	mov    %edx,0x4(%esp)
    42b6:	89 04 24             	mov    %eax,(%esp)
    42b9:	e8 c2 1f 00 00       	call   6280 <sheet_get_num_rows>
    42be:	8b 44 24 4c          	mov    0x4c(%esp),%eax
    42c2:	40                   	inc    %eax
    42c3:	c7 44 24 08 01 00 00 	movl   $0x1,0x8(%esp)
    42ca:	00 
    42cb:	89 84 24 d0 00 00 00 	mov    %eax,0xd0(%esp)
    42d2:	8d 84 24 90 00 00 00 	lea    0x90(%esp),%eax
    42d9:	89 44 24 0c          	mov    %eax,0xc(%esp)
    42dd:	a1 04 70 02 00       	mov    0x27004,%eax
    42e2:	89 04 24             	mov    %eax,(%esp)
    42e5:	89 5c 24 04          	mov    %ebx,0x4(%esp)
    42e9:	c7 84 24 d4 00 00 00 	movl   $0x1,0xd4(%esp)
    42f0:	01 00 00 00 
    42f4:	e8 d7 1d 00 00       	call   60d0 <sheet_get_cell_pt>
    42f9:	8b 84 24 90 00 00 00 	mov    0x90(%esp),%eax
    4300:	8b 94 24 94 00 00 00 	mov    0x94(%esp),%edx
    4307:	89 84 24 b0 00 00 00 	mov    %eax,0xb0(%esp)
    430e:	8d 84 24 b8 00 00 00 	lea    0xb8(%esp),%eax
    4315:	89 44 24 04          	mov    %eax,0x4(%esp)
    4319:	c7 04 24 d4 6f 02 00 	movl   $0x26fd4,(%esp)
    4320:	89 94 24 b4 00 00 00 	mov    %edx,0xb4(%esp)
    4327:	e8 34 21 00 00       	call   6460 <tag_get_pt>
    432c:	89 74 24 04          	mov    %esi,0x4(%esp)
    4330:	c7 04 24 e4 6f 02 00 	movl   $0x26fe4,(%esp)
    4337:	e8 24 21 00 00       	call   6460 <tag_get_pt>
    433c:	8d 94 24 b8 00 00 00 	lea    0xb8(%esp),%edx
    4343:	89 14 24             	mov    %edx,(%esp)
    4346:	89 74 24 04          	mov    %esi,0x4(%esp)
    434a:	e8 11 20 00 00       	call   6360 <spt_equal>
    434f:	a1 04 70 02 00       	mov    0x27004,%eax
    4354:	89 04 24             	mov    %eax,(%esp)
    4357:	c7 44 24 04 d4 6f 02 	movl   $0x26fd4,0x4(%esp)
    435e:	00 
    435f:	e8 cc 20 00 00       	call   6430 <sheet_remove_tag>
    4364:	c7 44 24 08 d4 6f 02 	movl   $0x26fd4,0x8(%esp)
    436b:	00 
    436c:	8d 84 24 b0 00 00 00 	lea    0xb0(%esp),%eax
    4373:	8b 15 04 70 02 00    	mov    0x27004,%edx
    4379:	89 44 24 04          	mov    %eax,0x4(%esp)
    437d:	89 14 24             	mov    %edx,(%esp)
    4380:	89 44 24 24          	mov    %eax,0x24(%esp)
    4384:	e8 77 20 00 00       	call   6400 <sheet_place_tag>
    4389:	8b 44 24 24          	mov    0x24(%esp),%eax
    438d:	89 04 24             	mov    %eax,(%esp)
    4390:	89 5c 24 04          	mov    %ebx,0x4(%esp)
    4394:	e8 37 1f 00 00       	call   62d0 <spt_get_coord>
    4399:	8d 84 24 c0 00 00 00 	lea    0xc0(%esp),%eax
    43a0:	8d 94 24 b8 00 00 00 	lea    0xb8(%esp),%edx
    43a7:	89 44 24 04          	mov    %eax,0x4(%esp)
    43ab:	89 14 24             	mov    %edx,(%esp)
    43ae:	e8 1d 1f 00 00       	call   62d0 <spt_get_coord>
    43b3:	8b 84 24 d0 00 00 00 	mov    0xd0(%esp),%eax
    43ba:	39 84 24 c0 00 00 00 	cmp    %eax,0xc0(%esp)
    43c1:	a1 d0 6f 02 00       	mov    0x26fd0,%eax
    43c6:	0f 84 d5 17 00 00    	je     5ba1 <main+0x2341>
    43cc:	83 c8 01             	or     $0x1,%eax
    43cf:	a3 d0 6f 02 00       	mov    %eax,0x26fd0
    43d4:	8b 84 24 d4 00 00 00 	mov    0xd4(%esp),%eax
    43db:	a3 f4 6f 02 00       	mov    %eax,0x26ff4
    43e0:	e8 bb cd ff ff       	call   11a0 <caret_update>
    43e5:	e9 7e f7 ff ff       	jmp    3b68 <main+0x308>
    43ea:	8b 15 00 70 02 00    	mov    0x27000,%edx
    43f0:	85 d2                	test   %edx,%edx
    43f2:	0f 84 7f 18 00 00    	je     5c77 <main+0x2417>
    43f8:	b8 bb 3b 02 00       	mov    $0x23bbb,%eax
    43fd:	e8 1e df ff ff       	call   2320 <prompt>
    4402:	89 c2                	mov    %eax,%edx
    4404:	85 c0                	test   %eax,%eax
    4406:	0f 84 cf 18 00 00    	je     5cdb <main+0x247b>
    440c:	89 54 24 20          	mov    %edx,0x20(%esp)
    4410:	e8 9b e1 ff ff       	call   25b0 <file_save>
    4415:	8b 54 24 20          	mov    0x20(%esp),%edx
    4419:	85 c0                	test   %eax,%eax
    441b:	0f 85 47 f7 ff ff    	jne    3b68 <main+0x308>
    4421:	a1 00 70 02 00       	mov    0x27000,%eax
    4426:	85 c0                	test   %eax,%eax
    4428:	74 0c                	je     4436 <main+0xbd6>
    442a:	89 04 24             	mov    %eax,(%esp)
    442d:	e8 2e 02 01 00       	call   14660 <free>
    4432:	8b 54 24 20          	mov    0x20(%esp),%edx
    4436:	89 15 00 70 02 00    	mov    %edx,0x27000
    443c:	e9 27 f7 ff ff       	jmp    3b68 <main+0x308>
    4441:	89 74 24 04          	mov    %esi,0x4(%esp)
    4445:	c7 04 24 d4 6f 02 00 	movl   $0x26fd4,(%esp)
    444c:	e8 0f 20 00 00       	call   6460 <tag_get_pt>
    4451:	8b 84 24 c8 00 00 00 	mov    0xc8(%esp),%eax
    4458:	8b 94 24 cc 00 00 00 	mov    0xcc(%esp),%edx
    445f:	89 44 24 70          	mov    %eax,0x70(%esp)
    4463:	89 54 24 74          	mov    %edx,0x74(%esp)
    4467:	8d 54 24 70          	lea    0x70(%esp),%edx
    446b:	8b 44 24 70          	mov    0x70(%esp),%eax
    446f:	89 54 24 08          	mov    %edx,0x8(%esp)
    4473:	8b 54 24 74          	mov    0x74(%esp),%edx
    4477:	89 54 24 04          	mov    %edx,0x4(%esp)
    447b:	89 04 24             	mov    %eax,(%esp)
    447e:	e8 fd 1e 00 00       	call   6380 <spt_next_char>
    4483:	8d 44 24 70          	lea    0x70(%esp),%eax
    4487:	e8 14 e8 ff ff       	call   2ca0 <pt_is_word_beginning>
    448c:	84 c0                	test   %al,%al
    448e:	74 d7                	je     4467 <main+0xc07>
    4490:	31 c9                	xor    %ecx,%ecx
    4492:	8b 44 24 70          	mov    0x70(%esp),%eax
    4496:	8b 54 24 74          	mov    0x74(%esp),%edx
    449a:	e8 91 db ff ff       	call   2030 <caret_move.constprop.16>
    449f:	e9 c4 f6 ff ff       	jmp    3b68 <main+0x308>
    44a4:	a1 a0 6f 02 00       	mov    0x26fa0,%eax
    44a9:	89 04 24             	mov    %eax,(%esp)
    44ac:	e8 df d6 00 00       	call   11b90 <console_flush>
    44b1:	a1 a0 6f 02 00       	mov    0x26fa0,%eax
    44b6:	c7 44 24 08 00 ff 00 	movl   $0xff00,0x8(%esp)
    44bd:	00 
    44be:	c7 44 24 04 f7 f7 f7 	movl   $0xf7f7f7,0x4(%esp)
    44c5:	00 
    44c6:	89 04 24             	mov    %eax,(%esp)
    44c9:	e8 22 d9 00 00       	call   11df0 <console_set_rgb_color>
    44ce:	e9 95 f6 ff ff       	jmp    3b68 <main+0x308>
    44d3:	e8 a8 d7 ff ff       	call   1c80 <selection_delete>
    44d8:	8d 54 24 48          	lea    0x48(%esp),%edx
    44dc:	89 14 24             	mov    %edx,(%esp)
    44df:	e8 ac 25 00 00       	call   6a90 <clipboard_get_str>
    44e4:	85 c0                	test   %eax,%eax
    44e6:	0f 85 95 09 00 00    	jne    4e81 <main+0x1621>
    44ec:	83 7c 24 48 00       	cmpl   $0x0,0x48(%esp)
    44f1:	0f 84 8a 09 00 00    	je     4e81 <main+0x1621>
    44f7:	8d 54 24 44          	lea    0x44(%esp),%edx
    44fb:	c7 44 24 44 00 00 00 	movl   $0x0,0x44(%esp)
    4502:	00 
    4503:	89 54 24 28          	mov    %edx,0x28(%esp)
    4507:	8b 54 24 28          	mov    0x28(%esp),%edx
    450b:	8b 44 24 48          	mov    0x48(%esp),%eax
    450f:	c7 44 24 08 ff ff ff 	movl   $0xffffffff,0x8(%esp)
    4516:	ff 
    4517:	89 54 24 04          	mov    %edx,0x4(%esp)
    451b:	89 04 24             	mov    %eax,(%esp)
    451e:	e8 1d 33 00 00       	call   7840 <str_decode>
    4523:	89 44 24 38          	mov    %eax,0x38(%esp)
    4527:	85 c0                	test   %eax,%eax
    4529:	0f 84 7a 16 00 00    	je     5ba9 <main+0x2349>
    452f:	89 74 24 04          	mov    %esi,0x4(%esp)
    4533:	c7 04 24 d4 6f 02 00 	movl   $0x26fd4,(%esp)
    453a:	e8 21 1f 00 00       	call   6460 <tag_get_pt>
    453f:	8d 44 24 4c          	lea    0x4c(%esp),%eax
    4543:	89 44 24 08          	mov    %eax,0x8(%esp)
    4547:	8b 44 24 38          	mov    0x38(%esp),%eax
    454b:	c7 44 24 0c 05 00 00 	movl   $0x5,0xc(%esp)
    4552:	00 
    4553:	89 5c 24 04          	mov    %ebx,0x4(%esp)
    4557:	89 04 24             	mov    %eax,(%esp)
    455a:	c7 44 24 4c 00 00 00 	movl   $0x0,0x4c(%esp)
    4561:	00 
    4562:	e8 29 36 00 00       	call   7b90 <chr_encode>
    4567:	8b 44 24 4c          	mov    0x4c(%esp),%eax
    456b:	c6 84 04 d0 00 00 00 	movb   $0x0,0xd0(%esp,%eax,1)
    4572:	00 
    4573:	a1 04 70 02 00       	mov    0x27004,%eax
    4578:	89 5c 24 0c          	mov    %ebx,0xc(%esp)
    457c:	c7 44 24 08 00 00 00 	movl   $0x0,0x8(%esp)
    4583:	00 
    4584:	89 74 24 04          	mov    %esi,0x4(%esp)
    4588:	89 04 24             	mov    %eax,(%esp)
    458b:	e8 d0 18 00 00       	call   5e60 <sheet_insert>
    4590:	a1 d0 6f 02 00       	mov    0x26fd0,%eax
    4595:	83 7c 24 38 0a       	cmpl   $0xa,0x38(%esp)
    459a:	0f 84 4b 13 00 00    	je     58eb <main+0x208b>
    45a0:	83 c8 02             	or     $0x2,%eax
    45a3:	a3 d0 6f 02 00       	mov    %eax,0x26fd0
    45a8:	e9 5a ff ff ff       	jmp    4507 <main+0xca7>
    45ad:	ba 57 52 02 00       	mov    $0x25257,%edx
    45b2:	b8 d3 3b 02 00       	mov    $0x23bd3,%eax
    45b7:	e8 64 dd ff ff       	call   2320 <prompt>
    45bc:	c7 44 24 04 f7 4c 02 	movl   $0x24cf7,0x4(%esp)
    45c3:	00 
    45c4:	89 04 24             	mov    %eax,(%esp)
    45c7:	89 44 24 20          	mov    %eax,0x20(%esp)
    45cb:	e8 a0 89 00 00       	call   cf70 <fopen>
    45d0:	8b 54 24 20          	mov    0x20(%esp),%edx
    45d4:	85 d2                	test   %edx,%edx
    45d6:	0f 84 de 15 00 00    	je     5bba <main+0x235a>
    45dc:	85 c0                	test   %eax,%eax
    45de:	0f 84 d6 15 00 00    	je     5bba <main+0x235a>
    45e4:	89 d0                	mov    %edx,%eax
    45e6:	e8 65 db ff ff       	call   2150 <file_insert>
    45eb:	e9 78 f5 ff ff       	jmp    3b68 <main+0x308>
    45f0:	a1 a0 6f 02 00       	mov    0x26fa0,%eax
    45f5:	89 04 24             	mov    %eax,(%esp)
    45f8:	e8 93 d5 00 00       	call   11b90 <console_flush>
    45fd:	a1 a0 6f 02 00       	mov    0x26fa0,%eax
    4602:	c7 44 24 04 00 00 00 	movl   $0x0,0x4(%esp)
    4609:	00 
    460a:	89 04 24             	mov    %eax,(%esp)
    460d:	e8 ae d6 00 00       	call   11cc0 <console_set_style>
    4612:	e9 51 f5 ff ff       	jmp    3b68 <main+0x308>
    4617:	8d 94 24 b8 00 00 00 	lea    0xb8(%esp),%edx
    461e:	a1 04 70 02 00       	mov    0x27004,%eax
    4623:	89 54 24 0c          	mov    %edx,0xc(%esp)
    4627:	89 04 24             	mov    %eax,(%esp)
    462a:	c7 44 24 08 00 00 00 	movl   $0x0,0x8(%esp)
    4631:	00 
    4632:	89 5c 24 04          	mov    %ebx,0x4(%esp)
    4636:	c7 84 24 d4 00 00 00 	movl   $0x1,0xd4(%esp)
    463d:	01 00 00 00 
    4641:	c7 84 24 d0 00 00 00 	movl   $0x1,0xd0(%esp)
    4648:	01 00 00 00 
    464c:	e8 7f 1a 00 00       	call   60d0 <sheet_get_cell_pt>
    4651:	8d 44 24 4c          	lea    0x4c(%esp),%eax
    4655:	89 44 24 04          	mov    %eax,0x4(%esp)
    4659:	a1 04 70 02 00       	mov    0x27004,%eax
    465e:	89 04 24             	mov    %eax,(%esp)
    4661:	e8 1a 1c 00 00       	call   6280 <sheet_get_num_rows>
    4666:	8b 44 24 4c          	mov    0x4c(%esp),%eax
    466a:	40                   	inc    %eax
    466b:	89 74 24 0c          	mov    %esi,0xc(%esp)
    466f:	89 84 24 d0 00 00 00 	mov    %eax,0xd0(%esp)
    4676:	a1 04 70 02 00       	mov    0x27004,%eax
    467b:	89 04 24             	mov    %eax,(%esp)
    467e:	c7 44 24 08 01 00 00 	movl   $0x1,0x8(%esp)
    4685:	00 
    4686:	89 5c 24 04          	mov    %ebx,0x4(%esp)
    468a:	c7 84 24 d4 00 00 00 	movl   $0x1,0xd4(%esp)
    4691:	01 00 00 00 
    4695:	e8 36 1a 00 00       	call   60d0 <sheet_get_cell_pt>
    469a:	8b 84 24 b8 00 00 00 	mov    0xb8(%esp),%eax
    46a1:	89 44 24 60          	mov    %eax,0x60(%esp)
    46a5:	8b 84 24 c8 00 00 00 	mov    0xc8(%esp),%eax
    46ac:	8b 94 24 bc 00 00 00 	mov    0xbc(%esp),%edx
    46b3:	89 44 24 68          	mov    %eax,0x68(%esp)
    46b7:	a1 04 70 02 00       	mov    0x27004,%eax
    46bc:	89 54 24 64          	mov    %edx,0x64(%esp)
    46c0:	89 04 24             	mov    %eax,(%esp)
    46c3:	8b 94 24 cc 00 00 00 	mov    0xcc(%esp),%edx
    46ca:	c7 44 24 04 e4 6f 02 	movl   $0x26fe4,0x4(%esp)
    46d1:	00 
    46d2:	89 54 24 6c          	mov    %edx,0x6c(%esp)
    46d6:	e8 55 1d 00 00       	call   6430 <sheet_remove_tag>
    46db:	8d 44 24 60          	lea    0x60(%esp),%eax
    46df:	89 44 24 04          	mov    %eax,0x4(%esp)
    46e3:	a1 04 70 02 00       	mov    0x27004,%eax
    46e8:	89 04 24             	mov    %eax,(%esp)
    46eb:	c7 44 24 08 e4 6f 02 	movl   $0x26fe4,0x8(%esp)
    46f2:	00 
    46f3:	e8 08 1d 00 00       	call   6400 <sheet_place_tag>
    46f8:	a1 04 70 02 00       	mov    0x27004,%eax
    46fd:	89 04 24             	mov    %eax,(%esp)
    4700:	c7 44 24 04 d4 6f 02 	movl   $0x26fd4,0x4(%esp)
    4707:	00 
    4708:	e8 23 1d 00 00       	call   6430 <sheet_remove_tag>
    470d:	8d 44 24 68          	lea    0x68(%esp),%eax
    4711:	89 44 24 04          	mov    %eax,0x4(%esp)
    4715:	a1 04 70 02 00       	mov    0x27004,%eax
    471a:	c7 44 24 08 d4 6f 02 	movl   $0x26fd4,0x8(%esp)
    4721:	00 
    4722:	89 04 24             	mov    %eax,(%esp)
    4725:	e8 d6 1c 00 00       	call   6400 <sheet_place_tag>
    472a:	83 0d d0 6f 02 00 01 	orl    $0x1,0x26fd0
    4731:	e8 6a ca ff ff       	call   11a0 <caret_update>
    4736:	e9 2d f4 ff ff       	jmp    3b68 <main+0x308>
    473b:	8b 15 00 70 02 00    	mov    0x27000,%edx
    4741:	85 d2                	test   %edx,%edx
    4743:	0f 84 14 16 00 00    	je     5d5d <main+0x24fd>
    4749:	89 d0                	mov    %edx,%eax
    474b:	89 54 24 20          	mov    %edx,0x20(%esp)
    474f:	e8 5c de ff ff       	call   25b0 <file_save>
    4754:	8b 54 24 20          	mov    0x20(%esp),%edx
    4758:	c7 44 24 04 f7 4c 02 	movl   $0x24cf7,0x4(%esp)
    475f:	00 
    4760:	89 14 24             	mov    %edx,(%esp)
    4763:	e8 08 88 00 00       	call   cf70 <fopen>
    4768:	89 44 24 34          	mov    %eax,0x34(%esp)
    476c:	85 c0                	test   %eax,%eax
    476e:	0f 84 f4 f3 ff ff    	je     3b68 <main+0x308>
    4774:	8d 54 24 48          	lea    0x48(%esp),%edx
    4778:	c7 44 24 2c 00 00 00 	movl   $0x0,0x2c(%esp)
    477f:	00 
    4780:	c6 44 24 30 01       	movb   $0x1,0x30(%esp)
    4785:	89 54 24 38          	mov    %edx,0x38(%esp)
    4789:	eb 48                	jmp    47d3 <main+0xf73>
    478b:	3c 0a                	cmp    $0xa,%al
    478d:	0f 84 65 11 00 00    	je     58f8 <main+0x2098>
    4793:	3c 20                	cmp    $0x20,%al
    4795:	0f 84 de 00 00 00    	je     4879 <main+0x1019>
    479b:	3c 2e                	cmp    $0x2e,%al
    479d:	0f 84 38 01 00 00    	je     48db <main+0x107b>
    47a3:	3c 2c                	cmp    $0x2c,%al
    47a5:	0f 84 73 01 00 00    	je     491e <main+0x10be>
    47ab:	3c 0d                	cmp    $0xd,%al
    47ad:	74 10                	je     47bf <main+0xf5f>
    47af:	80 7c 24 30 00       	cmpb   $0x0,0x30(%esp)
    47b4:	74 09                	je     47bf <main+0xf5f>
    47b6:	ff 44 24 2c          	incl   0x2c(%esp)
    47ba:	c6 44 24 30 00       	movb   $0x0,0x30(%esp)
    47bf:	8b 44 24 34          	mov    0x34(%esp),%eax
    47c3:	89 04 24             	mov    %eax,(%esp)
    47c6:	e8 05 a6 00 00       	call   edd0 <feof>
    47cb:	85 c0                	test   %eax,%eax
    47cd:	0f 85 fb 12 00 00    	jne    5ace <main+0x226e>
    47d3:	8b 44 24 34          	mov    0x34(%esp),%eax
    47d7:	8b 54 24 38          	mov    0x38(%esp),%edx
    47db:	89 44 24 0c          	mov    %eax,0xc(%esp)
    47df:	c7 44 24 08 01 00 00 	movl   $0x1,0x8(%esp)
    47e6:	00 
    47e7:	c7 44 24 04 01 00 00 	movl   $0x1,0x4(%esp)
    47ee:	00 
    47ef:	89 14 24             	mov    %edx,(%esp)
    47f2:	e8 19 8c 00 00       	call   d410 <fread>
    47f7:	8a 44 24 48          	mov    0x48(%esp),%al
    47fb:	3c 09                	cmp    $0x9,%al
    47fd:	75 8c                	jne    478b <main+0xf2b>
    47ff:	8b 44 24 34          	mov    0x34(%esp),%eax
    4803:	8b 54 24 38          	mov    0x38(%esp),%edx
    4807:	89 44 24 0c          	mov    %eax,0xc(%esp)
    480b:	c7 44 24 08 01 00 00 	movl   $0x1,0x8(%esp)
    4812:	00 
    4813:	c7 44 24 04 01 00 00 	movl   $0x1,0x4(%esp)
    481a:	00 
    481b:	89 14 24             	mov    %edx,(%esp)
    481e:	e8 ed 8b 00 00       	call   d410 <fread>
    4823:	8a 44 24 48          	mov    0x48(%esp),%al
    4827:	3c 09                	cmp    $0x9,%al
    4829:	74 d4                	je     47ff <main+0xf9f>
    482b:	3c 0d                	cmp    $0xd,%al
    482d:	0f 84 11 11 00 00    	je     5944 <main+0x20e4>
    4833:	3c 0a                	cmp    $0xa,%al
    4835:	0f 84 09 11 00 00    	je     5944 <main+0x20e4>
    483b:	3c 20                	cmp    $0x20,%al
    483d:	0f 84 01 11 00 00    	je     5944 <main+0x20e4>
    4843:	3c 2e                	cmp    $0x2e,%al
    4845:	0f 84 f9 10 00 00    	je     5944 <main+0x20e4>
    484b:	3c 2c                	cmp    $0x2c,%al
    484d:	0f 84 f1 10 00 00    	je     5944 <main+0x20e4>
    4853:	ff 44 24 2c          	incl   0x2c(%esp)
    4857:	c6 44 24 30 00       	movb   $0x0,0x30(%esp)
    485c:	3c 20                	cmp    $0x20,%al
    485e:	0f 84 5b ff ff ff    	je     47bf <main+0xf5f>
    4864:	3c 2e                	cmp    $0x2e,%al
    4866:	0f 84 53 ff ff ff    	je     47bf <main+0xf5f>
    486c:	3c 2c                	cmp    $0x2c,%al
    486e:	0f 85 3b ff ff ff    	jne    47af <main+0xf4f>
    4874:	e9 46 ff ff ff       	jmp    47bf <main+0xf5f>
    4879:	8b 44 24 34          	mov    0x34(%esp),%eax
    487d:	8b 54 24 38          	mov    0x38(%esp),%edx
    4881:	89 44 24 0c          	mov    %eax,0xc(%esp)
    4885:	c7 44 24 08 01 00 00 	movl   $0x1,0x8(%esp)
    488c:	00 
    488d:	c7 44 24 04 01 00 00 	movl   $0x1,0x4(%esp)
    4894:	00 
    4895:	89 14 24             	mov    %edx,(%esp)
    4898:	e8 73 8b 00 00       	call   d410 <fread>
    489d:	8a 44 24 48          	mov    0x48(%esp),%al
    48a1:	3c 20                	cmp    $0x20,%al
    48a3:	74 d4                	je     4879 <main+0x1019>
    48a5:	3c 0d                	cmp    $0xd,%al
    48a7:	74 6e                	je     4917 <main+0x10b7>
    48a9:	3c 0a                	cmp    $0xa,%al
    48ab:	74 6a                	je     4917 <main+0x10b7>
    48ad:	3c 09                	cmp    $0x9,%al
    48af:	74 66                	je     4917 <main+0x10b7>
    48b1:	3c 2e                	cmp    $0x2e,%al
    48b3:	74 62                	je     4917 <main+0x10b7>
    48b5:	3c 2c                	cmp    $0x2c,%al
    48b7:	74 5e                	je     4917 <main+0x10b7>
    48b9:	ff 44 24 2c          	incl   0x2c(%esp)
    48bd:	c6 44 24 30 00       	movb   $0x0,0x30(%esp)
    48c2:	3c 0d                	cmp    $0xd,%al
    48c4:	0f 84 f5 fe ff ff    	je     47bf <main+0xf5f>
    48ca:	3c 0a                	cmp    $0xa,%al
    48cc:	0f 84 ed fe ff ff    	je     47bf <main+0xf5f>
    48d2:	3c 09                	cmp    $0x9,%al
    48d4:	75 86                	jne    485c <main+0xffc>
    48d6:	e9 e4 fe ff ff       	jmp    47bf <main+0xf5f>
    48db:	8b 44 24 34          	mov    0x34(%esp),%eax
    48df:	8b 54 24 38          	mov    0x38(%esp),%edx
    48e3:	89 44 24 0c          	mov    %eax,0xc(%esp)
    48e7:	c7 44 24 08 01 00 00 	movl   $0x1,0x8(%esp)
    48ee:	00 
    48ef:	c7 44 24 04 01 00 00 	movl   $0x1,0x4(%esp)
    48f6:	00 
    48f7:	89 14 24             	mov    %edx,(%esp)
    48fa:	e8 11 8b 00 00       	call   d410 <fread>
    48ff:	8a 44 24 48          	mov    0x48(%esp),%al
    4903:	3c 2e                	cmp    $0x2e,%al
    4905:	74 d4                	je     48db <main+0x107b>
    4907:	3c 0d                	cmp    $0xd,%al
    4909:	74 0c                	je     4917 <main+0x10b7>
    490b:	3c 0a                	cmp    $0xa,%al
    490d:	74 08                	je     4917 <main+0x10b7>
    490f:	3c 09                	cmp    $0x9,%al
    4911:	74 04                	je     4917 <main+0x10b7>
    4913:	3c 20                	cmp    $0x20,%al
    4915:	75 9e                	jne    48b5 <main+0x1055>
    4917:	c6 44 24 30 01       	movb   $0x1,0x30(%esp)
    491c:	eb a4                	jmp    48c2 <main+0x1062>
    491e:	8b 44 24 34          	mov    0x34(%esp),%eax
    4922:	8b 54 24 38          	mov    0x38(%esp),%edx
    4926:	89 44 24 0c          	mov    %eax,0xc(%esp)
    492a:	c7 44 24 08 01 00 00 	movl   $0x1,0x8(%esp)
    4931:	00 
    4932:	c7 44 24 04 01 00 00 	movl   $0x1,0x4(%esp)
    4939:	00 
    493a:	89 14 24             	mov    %edx,(%esp)
    493d:	e8 ce 8a 00 00       	call   d410 <fread>
    4942:	8a 44 24 48          	mov    0x48(%esp),%al
    4946:	3c 2c                	cmp    $0x2c,%al
    4948:	74 d4                	je     491e <main+0x10be>
    494a:	3c 0d                	cmp    $0xd,%al
    494c:	74 c9                	je     4917 <main+0x10b7>
    494e:	3c 0a                	cmp    $0xa,%al
    4950:	74 c5                	je     4917 <main+0x10b7>
    4952:	3c 09                	cmp    $0x9,%al
    4954:	74 c1                	je     4917 <main+0x10b7>
    4956:	3c 20                	cmp    $0x20,%al
    4958:	74 bd                	je     4917 <main+0x10b7>
    495a:	3c 2e                	cmp    $0x2e,%al
    495c:	0f 85 57 ff ff ff    	jne    48b9 <main+0x1059>
    4962:	eb b3                	jmp    4917 <main+0x10b7>
    4964:	a1 2c 70 02 00       	mov    0x2702c,%eax
    4969:	89 44 24 04          	mov    %eax,0x4(%esp)
    496d:	a1 30 70 02 00       	mov    0x27030,%eax
    4972:	89 04 24             	mov    %eax,(%esp)
    4975:	e8 36 d1 00 00       	call   11ab0 <console_init>
    497a:	89 04 24             	mov    %eax,(%esp)
    497d:	a3 10 70 02 00       	mov    %eax,0x27010
    4982:	e8 29 d2 00 00       	call   11bb0 <console_clear>
    4987:	a1 10 70 02 00       	mov    0x27010,%eax
    498c:	c7 44 24 08 a8 6f 02 	movl   $0x26fa8,0x8(%esp)
    4993:	00 
    4994:	c7 44 24 04 a4 6f 02 	movl   $0x26fa4,0x4(%esp)
    499b:	00 
    499c:	89 04 24             	mov    %eax,(%esp)
    499f:	e8 8c d2 00 00       	call   11c30 <console_get_size>
    49a4:	a1 a8 6f 02 00       	mov    0x26fa8,%eax
    49a9:	48                   	dec    %eax
    49aa:	c7 44 24 08 05 00 00 	movl   $0x5,0x8(%esp)
    49b1:	00 
    49b2:	a3 c0 6f 02 00       	mov    %eax,0x26fc0
    49b7:	a1 a4 6f 02 00       	mov    0x26fa4,%eax
    49bc:	a3 c4 6f 02 00       	mov    %eax,0x26fc4
    49c1:	a1 a0 6f 02 00       	mov    0x26fa0,%eax
    49c6:	c7 44 24 04 00 00 00 	movl   $0x0,0x4(%esp)
    49cd:	00 
    49ce:	89 04 24             	mov    %eax,(%esp)
    49d1:	c7 05 c8 6f 02 00 01 	movl   $0x1,0x26fc8
    49d8:	00 00 00 
    49db:	c7 05 cc 6f 02 00 01 	movl   $0x1,0x26fcc
    49e2:	00 00 00 
    49e5:	e8 36 d6 00 00       	call   12020 <console_set_pos>
    49ea:	80 3d 08 70 02 00 00 	cmpb   $0x0,0x27008
    49f1:	74 1c                	je     4a0f <main+0x11af>
    49f3:	a1 a0 6f 02 00       	mov    0x26fa0,%eax
    49f8:	c7 44 24 04 00 00 00 	movl   $0x0,0x4(%esp)
    49ff:	00 
    4a00:	89 04 24             	mov    %eax,(%esp)
    4a03:	e8 68 d4 00 00       	call   11e70 <console_cursor_visibility>
    4a08:	c6 05 08 70 02 00 00 	movb   $0x0,0x27008
    4a0f:	a1 10 70 02 00       	mov    0x27010,%eax
    4a14:	c7 44 24 04 02 00 00 	movl   $0x2,0x4(%esp)
    4a1b:	00 
    4a1c:	89 04 24             	mov    %eax,(%esp)
    4a1f:	e8 9c d2 00 00       	call   11cc0 <console_set_style>
    4a24:	c7 04 24 78 3e 02 00 	movl   $0x23e78,(%esp)
    4a2b:	e8 a0 a4 00 00       	call   eed0 <printf>
    4a30:	a1 10 70 02 00       	mov    0x27010,%eax
    4a35:	89 04 24             	mov    %eax,(%esp)
    4a38:	e8 53 d1 00 00       	call   11b90 <console_flush>
    4a3d:	a1 10 70 02 00       	mov    0x27010,%eax
    4a42:	89 04 24             	mov    %eax,(%esp)
    4a45:	c7 44 24 04 00 00 00 	movl   $0x0,0x4(%esp)
    4a4c:	00 
    4a4d:	e8 6e d2 00 00       	call   11cc0 <console_set_style>
    4a52:	c7 04 24 cc 3e 02 00 	movl   $0x23ecc,(%esp)
    4a59:	e8 72 a4 00 00       	call   eed0 <printf>
    4a5e:	a1 10 70 02 00       	mov    0x27010,%eax
    4a63:	89 04 24             	mov    %eax,(%esp)
    4a66:	c7 44 24 04 02 00 00 	movl   $0x2,0x4(%esp)
    4a6d:	00 
    4a6e:	e8 4d d2 00 00       	call   11cc0 <console_set_style>
    4a73:	c7 04 24 13 3c 02 00 	movl   $0x23c13,(%esp)
    4a7a:	e8 51 a4 00 00       	call   eed0 <printf>
    4a7f:	8b 15 a4 6f 02 00    	mov    0x26fa4,%edx
    4a85:	29 c2                	sub    %eax,%edx
    4a87:	c7 44 24 08 57 52 02 	movl   $0x25257,0x8(%esp)
    4a8e:	00 
    4a8f:	89 54 24 04          	mov    %edx,0x4(%esp)
    4a93:	c7 04 24 98 3a 02 00 	movl   $0x23a98,(%esp)
    4a9a:	e8 31 a4 00 00       	call   eed0 <printf>
    4a9f:	c7 04 24 20 3f 02 00 	movl   $0x23f20,(%esp)
    4aa6:	e8 25 a4 00 00       	call   eed0 <printf>
    4aab:	c7 04 24 27 3c 02 00 	movl   $0x23c27,(%esp)
    4ab2:	e8 19 a4 00 00       	call   eed0 <printf>
    4ab7:	8b 15 a4 6f 02 00    	mov    0x26fa4,%edx
    4abd:	29 c2                	sub    %eax,%edx
    4abf:	c7 44 24 08 57 52 02 	movl   $0x25257,0x8(%esp)
    4ac6:	00 
    4ac7:	89 54 24 04          	mov    %edx,0x4(%esp)
    4acb:	c7 04 24 98 3a 02 00 	movl   $0x23a98,(%esp)
    4ad2:	e8 f9 a3 00 00       	call   eed0 <printf>
    4ad7:	c7 04 24 74 3f 02 00 	movl   $0x23f74,(%esp)
    4ade:	e8 ed a3 00 00       	call   eed0 <printf>
    4ae3:	c7 04 24 3c 3c 02 00 	movl   $0x23c3c,(%esp)
    4aea:	e8 e1 a3 00 00       	call   eed0 <printf>
    4aef:	8b 15 a4 6f 02 00    	mov    0x26fa4,%edx
    4af5:	29 c2                	sub    %eax,%edx
    4af7:	c7 44 24 08 57 52 02 	movl   $0x25257,0x8(%esp)
    4afe:	00 
    4aff:	89 54 24 04          	mov    %edx,0x4(%esp)
    4b03:	c7 04 24 98 3a 02 00 	movl   $0x23a98,(%esp)
    4b0a:	e8 c1 a3 00 00       	call   eed0 <printf>
    4b0f:	c7 04 24 c8 3f 02 00 	movl   $0x23fc8,(%esp)
    4b16:	e8 b5 a3 00 00       	call   eed0 <printf>
    4b1b:	8b 15 a4 6f 02 00    	mov    0x26fa4,%edx
    4b21:	29 c2                	sub    %eax,%edx
    4b23:	c7 44 24 08 57 52 02 	movl   $0x25257,0x8(%esp)
    4b2a:	00 
    4b2b:	89 54 24 04          	mov    %edx,0x4(%esp)
    4b2f:	c7 04 24 98 3a 02 00 	movl   $0x23a98,(%esp)
    4b36:	e8 95 a3 00 00       	call   eed0 <printf>
    4b3b:	c7 04 24 f4 3f 02 00 	movl   $0x23ff4,(%esp)
    4b42:	e8 89 a3 00 00       	call   eed0 <printf>
    4b47:	8b 15 a4 6f 02 00    	mov    0x26fa4,%edx
    4b4d:	29 c2                	sub    %eax,%edx
    4b4f:	c7 44 24 08 57 52 02 	movl   $0x25257,0x8(%esp)
    4b56:	00 
    4b57:	89 54 24 04          	mov    %edx,0x4(%esp)
    4b5b:	c7 04 24 98 3a 02 00 	movl   $0x23a98,(%esp)
    4b62:	e8 69 a3 00 00       	call   eed0 <printf>
    4b67:	c7 04 24 18 40 02 00 	movl   $0x24018,(%esp)
    4b6e:	e8 5d a3 00 00       	call   eed0 <printf>
    4b73:	8b 15 a4 6f 02 00    	mov    0x26fa4,%edx
    4b79:	29 c2                	sub    %eax,%edx
    4b7b:	c7 44 24 08 57 52 02 	movl   $0x25257,0x8(%esp)
    4b82:	00 
    4b83:	89 54 24 04          	mov    %edx,0x4(%esp)
    4b87:	c7 04 24 98 3a 02 00 	movl   $0x23a98,(%esp)
    4b8e:	e8 3d a3 00 00       	call   eed0 <printf>
    4b93:	c7 04 24 3c 40 02 00 	movl   $0x2403c,(%esp)
    4b9a:	e8 31 a3 00 00       	call   eed0 <printf>
    4b9f:	8b 15 a4 6f 02 00    	mov    0x26fa4,%edx
    4ba5:	29 c2                	sub    %eax,%edx
    4ba7:	c7 44 24 08 57 52 02 	movl   $0x25257,0x8(%esp)
    4bae:	00 
    4baf:	89 54 24 04          	mov    %edx,0x4(%esp)
    4bb3:	c7 04 24 98 3a 02 00 	movl   $0x23a98,(%esp)
    4bba:	e8 11 a3 00 00       	call   eed0 <printf>
    4bbf:	c7 04 24 8c 40 02 00 	movl   $0x2408c,(%esp)
    4bc6:	e8 05 a3 00 00       	call   eed0 <printf>
    4bcb:	8b 15 a4 6f 02 00    	mov    0x26fa4,%edx
    4bd1:	29 c2                	sub    %eax,%edx
    4bd3:	c7 44 24 08 57 52 02 	movl   $0x25257,0x8(%esp)
    4bda:	00 
    4bdb:	89 54 24 04          	mov    %edx,0x4(%esp)
    4bdf:	c7 04 24 98 3a 02 00 	movl   $0x23a98,(%esp)
    4be6:	e8 e5 a2 00 00       	call   eed0 <printf>
    4beb:	c7 04 24 50 3c 02 00 	movl   $0x23c50,(%esp)
    4bf2:	e8 d9 a2 00 00       	call   eed0 <printf>
    4bf7:	8b 15 a4 6f 02 00    	mov    0x26fa4,%edx
    4bfd:	29 c2                	sub    %eax,%edx
    4bff:	c7 44 24 08 57 52 02 	movl   $0x25257,0x8(%esp)
    4c06:	00 
    4c07:	89 54 24 04          	mov    %edx,0x4(%esp)
    4c0b:	c7 04 24 98 3a 02 00 	movl   $0x23a98,(%esp)
    4c12:	e8 b9 a2 00 00       	call   eed0 <printf>
    4c17:	c7 04 24 6a 3c 02 00 	movl   $0x23c6a,(%esp)
    4c1e:	e8 ad a2 00 00       	call   eed0 <printf>
    4c23:	8b 15 a4 6f 02 00    	mov    0x26fa4,%edx
    4c29:	29 c2                	sub    %eax,%edx
    4c2b:	c7 44 24 08 57 52 02 	movl   $0x25257,0x8(%esp)
    4c32:	00 
    4c33:	89 54 24 04          	mov    %edx,0x4(%esp)
    4c37:	c7 04 24 98 3a 02 00 	movl   $0x23a98,(%esp)
    4c3e:	e8 8d a2 00 00       	call   eed0 <printf>
    4c43:	c7 04 24 c0 40 02 00 	movl   $0x240c0,(%esp)
    4c4a:	e8 81 a2 00 00       	call   eed0 <printf>
    4c4f:	8b 15 a4 6f 02 00    	mov    0x26fa4,%edx
    4c55:	29 c2                	sub    %eax,%edx
    4c57:	c7 44 24 08 57 52 02 	movl   $0x25257,0x8(%esp)
    4c5e:	00 
    4c5f:	89 54 24 04          	mov    %edx,0x4(%esp)
    4c63:	c7 04 24 98 3a 02 00 	movl   $0x23a98,(%esp)
    4c6a:	e8 61 a2 00 00       	call   eed0 <printf>
    4c6f:	c7 04 24 e0 40 02 00 	movl   $0x240e0,(%esp)
    4c76:	e8 55 a2 00 00       	call   eed0 <printf>
    4c7b:	8b 15 a4 6f 02 00    	mov    0x26fa4,%edx
    4c81:	29 c2                	sub    %eax,%edx
    4c83:	c7 44 24 08 57 52 02 	movl   $0x25257,0x8(%esp)
    4c8a:	00 
    4c8b:	89 54 24 04          	mov    %edx,0x4(%esp)
    4c8f:	c7 04 24 98 3a 02 00 	movl   $0x23a98,(%esp)
    4c96:	e8 35 a2 00 00       	call   eed0 <printf>
    4c9b:	c7 04 24 04 41 02 00 	movl   $0x24104,(%esp)
    4ca2:	e8 29 a2 00 00       	call   eed0 <printf>
    4ca7:	8b 15 a4 6f 02 00    	mov    0x26fa4,%edx
    4cad:	29 c2                	sub    %eax,%edx
    4caf:	c7 44 24 08 57 52 02 	movl   $0x25257,0x8(%esp)
    4cb6:	00 
    4cb7:	89 54 24 04          	mov    %edx,0x4(%esp)
    4cbb:	c7 04 24 98 3a 02 00 	movl   $0x23a98,(%esp)
    4cc2:	e8 09 a2 00 00       	call   eed0 <printf>
    4cc7:	c7 04 24 28 41 02 00 	movl   $0x24128,(%esp)
    4cce:	e8 fd a1 00 00       	call   eed0 <printf>
    4cd3:	8b 15 a4 6f 02 00    	mov    0x26fa4,%edx
    4cd9:	29 c2                	sub    %eax,%edx
    4cdb:	c7 44 24 08 57 52 02 	movl   $0x25257,0x8(%esp)
    4ce2:	00 
    4ce3:	89 54 24 04          	mov    %edx,0x4(%esp)
    4ce7:	c7 04 24 98 3a 02 00 	movl   $0x23a98,(%esp)
    4cee:	e8 dd a1 00 00       	call   eed0 <printf>
    4cf3:	c7 04 24 4c 41 02 00 	movl   $0x2414c,(%esp)
    4cfa:	e8 d1 a1 00 00       	call   eed0 <printf>
    4cff:	8b 15 a4 6f 02 00    	mov    0x26fa4,%edx
    4d05:	29 c2                	sub    %eax,%edx
    4d07:	c7 44 24 08 57 52 02 	movl   $0x25257,0x8(%esp)
    4d0e:	00 
    4d0f:	89 54 24 04          	mov    %edx,0x4(%esp)
    4d13:	c7 04 24 98 3a 02 00 	movl   $0x23a98,(%esp)
    4d1a:	e8 b1 a1 00 00       	call   eed0 <printf>
    4d1f:	c7 04 24 70 41 02 00 	movl   $0x24170,(%esp)
    4d26:	e8 a5 a1 00 00       	call   eed0 <printf>
    4d2b:	8b 15 a4 6f 02 00    	mov    0x26fa4,%edx
    4d31:	29 c2                	sub    %eax,%edx
    4d33:	c7 44 24 08 57 52 02 	movl   $0x25257,0x8(%esp)
    4d3a:	00 
    4d3b:	89 54 24 04          	mov    %edx,0x4(%esp)
    4d3f:	c7 04 24 98 3a 02 00 	movl   $0x23a98,(%esp)
    4d46:	e8 85 a1 00 00       	call   eed0 <printf>
    4d4b:	a1 10 70 02 00       	mov    0x27010,%eax
    4d50:	89 04 24             	mov    %eax,(%esp)
    4d53:	e8 38 ce 00 00       	call   11b90 <console_flush>
    4d58:	ba 57 52 02 00       	mov    $0x25257,%edx
    4d5d:	b8 87 3c 02 00       	mov    $0x23c87,%eax
    4d62:	e8 b9 d5 ff ff       	call   2320 <prompt>
    4d67:	a1 10 70 02 00       	mov    0x27010,%eax
    4d6c:	89 04 24             	mov    %eax,(%esp)
    4d6f:	e8 3c ce 00 00       	call   11bb0 <console_clear>
    4d74:	e8 07 cf ff ff       	call   1c80 <selection_delete>
    4d79:	89 74 24 04          	mov    %esi,0x4(%esp)
    4d7d:	c7 04 24 d4 6f 02 00 	movl   $0x26fd4,(%esp)
    4d84:	e8 d7 16 00 00       	call   6460 <tag_get_pt>
    4d89:	8d 44 24 4c          	lea    0x4c(%esp),%eax
    4d8d:	c7 44 24 4c 00 00 00 	movl   $0x0,0x4c(%esp)
    4d94:	00 
    4d95:	c7 44 24 0c 05 00 00 	movl   $0x5,0xc(%esp)
    4d9c:	00 
    4d9d:	89 44 24 08          	mov    %eax,0x8(%esp)
    4da1:	e9 80 f2 ff ff       	jmp    4026 <main+0x7c6>
    4da6:	8b 15 00 70 02 00    	mov    0x27000,%edx
    4dac:	85 d2                	test   %edx,%edx
    4dae:	0f 84 0b 10 00 00    	je     5dbf <main+0x255f>
    4db4:	89 d0                	mov    %edx,%eax
    4db6:	89 54 24 20          	mov    %edx,0x20(%esp)
    4dba:	e8 f1 d7 ff ff       	call   25b0 <file_save>
    4dbf:	8b 54 24 20          	mov    0x20(%esp),%edx
    4dc3:	c7 44 24 04 f7 4c 02 	movl   $0x24cf7,0x4(%esp)
    4dca:	00 
    4dcb:	89 14 24             	mov    %edx,(%esp)
    4dce:	e8 9d 81 00 00       	call   cf70 <fopen>
    4dd3:	89 44 24 34          	mov    %eax,0x34(%esp)
    4dd7:	85 c0                	test   %eax,%eax
    4dd9:	0f 84 89 ed ff ff    	je     3b68 <main+0x308>
    4ddf:	8d 54 24 48          	lea    0x48(%esp),%edx
    4de3:	c7 44 24 2c 00 00 00 	movl   $0x0,0x2c(%esp)
    4dea:	00 
    4deb:	c6 44 24 30 01       	movb   $0x1,0x30(%esp)
    4df0:	89 54 24 38          	mov    %edx,0x38(%esp)
    4df4:	eb 24                	jmp    4e1a <main+0x15ba>
    4df6:	80 7c 24 30 00       	cmpb   $0x0,0x30(%esp)
    4dfb:	74 04                	je     4e01 <main+0x15a1>
    4dfd:	ff 44 24 2c          	incl   0x2c(%esp)
    4e01:	c6 44 24 30 00       	movb   $0x0,0x30(%esp)
    4e06:	8b 44 24 34          	mov    0x34(%esp),%eax
    4e0a:	89 04 24             	mov    %eax,(%esp)
    4e0d:	e8 be 9f 00 00       	call   edd0 <feof>
    4e12:	85 c0                	test   %eax,%eax
    4e14:	0f 85 dc 0b 00 00    	jne    59f6 <main+0x2196>
    4e1a:	8b 44 24 34          	mov    0x34(%esp),%eax
    4e1e:	8b 54 24 38          	mov    0x38(%esp),%edx
    4e22:	89 44 24 0c          	mov    %eax,0xc(%esp)
    4e26:	c7 44 24 08 01 00 00 	movl   $0x1,0x8(%esp)
    4e2d:	00 
    4e2e:	c7 44 24 04 01 00 00 	movl   $0x1,0x4(%esp)
    4e35:	00 
    4e36:	89 14 24             	mov    %edx,(%esp)
    4e39:	e8 d2 85 00 00       	call   d410 <fread>
    4e3e:	80 7c 24 48 0a       	cmpb   $0xa,0x48(%esp)
    4e43:	75 b1                	jne    4df6 <main+0x1596>
    4e45:	8b 44 24 34          	mov    0x34(%esp),%eax
    4e49:	8b 54 24 38          	mov    0x38(%esp),%edx
    4e4d:	89 44 24 0c          	mov    %eax,0xc(%esp)
    4e51:	c7 44 24 08 01 00 00 	movl   $0x1,0x8(%esp)
    4e58:	00 
    4e59:	c7 44 24 04 01 00 00 	movl   $0x1,0x4(%esp)
    4e60:	00 
    4e61:	89 14 24             	mov    %edx,(%esp)
    4e64:	e8 a7 85 00 00       	call   d410 <fread>
    4e69:	80 7c 24 48 0a       	cmpb   $0xa,0x48(%esp)
    4e6e:	75 8d                	jne    4dfd <main+0x159d>
    4e70:	c6 44 24 30 01       	movb   $0x1,0x30(%esp)
    4e75:	eb 8f                	jmp    4e06 <main+0x15a6>
    4e77:	e8 c4 da ff ff       	call   2940 <selection_copy>
    4e7c:	e8 ff cd ff ff       	call   1c80 <selection_delete>
    4e81:	83 0d d0 6f 02 00 01 	orl    $0x1,0x26fd0
    4e88:	e8 13 c3 ff ff       	call   11a0 <caret_update>
    4e8d:	e9 d6 ec ff ff       	jmp    3b68 <main+0x308>
    4e92:	ba 57 52 02 00       	mov    $0x25257,%edx
    4e97:	b8 9f 3c 02 00       	mov    $0x23c9f,%eax
    4e9c:	e8 7f d4 ff ff       	call   2320 <prompt>
    4ea1:	89 c2                	mov    %eax,%edx
    4ea3:	85 c0                	test   %eax,%eax
    4ea5:	0f 84 8b 0d 00 00    	je     5c36 <main+0x23d6>
    4eab:	8d 44 24 48          	lea    0x48(%esp),%eax
    4eaf:	89 14 24             	mov    %edx,(%esp)
    4eb2:	c7 44 24 08 0a 00 00 	movl   $0xa,0x8(%esp)
    4eb9:	00 
    4eba:	89 44 24 04          	mov    %eax,0x4(%esp)
    4ebe:	89 54 24 20          	mov    %edx,0x20(%esp)
    4ec2:	e8 19 4d 00 00       	call   9be0 <strtol>
    4ec7:	8b 4c 24 48          	mov    0x48(%esp),%ecx
    4ecb:	8b 54 24 20          	mov    0x20(%esp),%edx
    4ecf:	80 39 00             	cmpb   $0x0,(%ecx)
    4ed2:	89 14 24             	mov    %edx,(%esp)
    4ed5:	0f 84 2a 0d 00 00    	je     5c05 <main+0x23a5>
    4edb:	e8 80 f7 00 00       	call   14660 <free>
    4ee0:	a1 a8 6f 02 00       	mov    0x26fa8,%eax
    4ee5:	48                   	dec    %eax
    4ee6:	c7 44 24 04 00 00 00 	movl   $0x0,0x4(%esp)
    4eed:	00 
    4eee:	89 44 24 08          	mov    %eax,0x8(%esp)
    4ef2:	a1 a0 6f 02 00       	mov    0x26fa0,%eax
    4ef7:	89 04 24             	mov    %eax,(%esp)
    4efa:	e8 21 d1 00 00       	call   12020 <console_set_pos>
    4eff:	a1 a0 6f 02 00       	mov    0x26fa0,%eax
    4f04:	c7 44 24 04 02 00 00 	movl   $0x2,0x4(%esp)
    4f0b:	00 
    4f0c:	89 04 24             	mov    %eax,(%esp)
    4f0f:	e8 ac cd 00 00       	call   11cc0 <console_set_style>
    4f14:	c7 44 24 08 c0 3c 02 	movl   $0x23cc0,0x8(%esp)
    4f1b:	00 
    4f1c:	b8 03 00 00 00       	mov    $0x3,%eax
    4f21:	c7 04 24 92 3a 02 00 	movl   $0x23a92,(%esp)
    4f28:	2b 05 a4 6f 02 00    	sub    0x26fa4,%eax
    4f2e:	89 44 24 04          	mov    %eax,0x4(%esp)
    4f32:	e8 99 9f 00 00       	call   eed0 <printf>
    4f37:	a1 a0 6f 02 00       	mov    0x26fa0,%eax
    4f3c:	89 04 24             	mov    %eax,(%esp)
    4f3f:	e8 4c cc 00 00       	call   11b90 <console_flush>
    4f44:	a1 a0 6f 02 00       	mov    0x26fa0,%eax
    4f49:	c7 44 24 04 00 00 00 	movl   $0x0,0x4(%esp)
    4f50:	00 
    4f51:	89 04 24             	mov    %eax,(%esp)
    4f54:	e8 67 cd 00 00       	call   11cc0 <console_set_style>
    4f59:	83 0d d0 6f 02 00 08 	orl    $0x8,0x26fd0
    4f60:	e9 03 ec ff ff       	jmp    3b68 <main+0x308>
    4f65:	8b 15 00 70 02 00    	mov    0x27000,%edx
    4f6b:	85 d2                	test   %edx,%edx
    4f6d:	0f 84 1b 0e 00 00    	je     5d8e <main+0x252e>
    4f73:	89 d0                	mov    %edx,%eax
    4f75:	89 54 24 20          	mov    %edx,0x20(%esp)
    4f79:	e8 32 d6 ff ff       	call   25b0 <file_save>
    4f7e:	8b 54 24 20          	mov    0x20(%esp),%edx
    4f82:	c7 44 24 04 f7 4c 02 	movl   $0x24cf7,0x4(%esp)
    4f89:	00 
    4f8a:	89 14 24             	mov    %edx,(%esp)
    4f8d:	e8 de 7f 00 00       	call   cf70 <fopen>
    4f92:	89 44 24 34          	mov    %eax,0x34(%esp)
    4f96:	85 c0                	test   %eax,%eax
    4f98:	0f 84 ca eb ff ff    	je     3b68 <main+0x308>
    4f9e:	8d 54 24 48          	lea    0x48(%esp),%edx
    4fa2:	89 44 24 0c          	mov    %eax,0xc(%esp)
    4fa6:	c7 44 24 08 01 00 00 	movl   $0x1,0x8(%esp)
    4fad:	00 
    4fae:	c7 44 24 04 01 00 00 	movl   $0x1,0x4(%esp)
    4fb5:	00 
    4fb6:	89 14 24             	mov    %edx,(%esp)
    4fb9:	89 54 24 38          	mov    %edx,0x38(%esp)
    4fbd:	e8 4e 84 00 00       	call   d410 <fread>
    4fc2:	c7 44 24 30 00 00 00 	movl   $0x0,0x30(%esp)
    4fc9:	00 
    4fca:	eb 40                	jmp    500c <main+0x17ac>
    4fcc:	8a 44 24 48          	mov    0x48(%esp),%al
    4fd0:	88 c2                	mov    %al,%dl
    4fd2:	83 e2 df             	and    $0xffffffdf,%edx
    4fd5:	83 ea 41             	sub    $0x41,%edx
    4fd8:	80 fa 19             	cmp    $0x19,%dl
    4fdb:	76 07                	jbe    4fe4 <main+0x1784>
    4fdd:	83 e8 30             	sub    $0x30,%eax
    4fe0:	3c 09                	cmp    $0x9,%al
    4fe2:	77 04                	ja     4fe8 <main+0x1788>
    4fe4:	ff 44 24 30          	incl   0x30(%esp)
    4fe8:	8b 44 24 34          	mov    0x34(%esp),%eax
    4fec:	8b 54 24 38          	mov    0x38(%esp),%edx
    4ff0:	89 44 24 0c          	mov    %eax,0xc(%esp)
    4ff4:	c7 44 24 08 01 00 00 	movl   $0x1,0x8(%esp)
    4ffb:	00 
    4ffc:	c7 44 24 04 01 00 00 	movl   $0x1,0x4(%esp)
    5003:	00 
    5004:	89 14 24             	mov    %edx,(%esp)
    5007:	e8 04 84 00 00       	call   d410 <fread>
    500c:	8b 44 24 34          	mov    0x34(%esp),%eax
    5010:	89 04 24             	mov    %eax,(%esp)
    5013:	e8 b8 9d 00 00       	call   edd0 <feof>
    5018:	85 c0                	test   %eax,%eax
    501a:	74 b0                	je     4fcc <main+0x176c>
    501c:	8d 94 24 b8 00 00 00 	lea    0xb8(%esp),%edx
    5023:	c7 04 24 d4 6f 02 00 	movl   $0x26fd4,(%esp)
    502a:	89 54 24 04          	mov    %edx,0x4(%esp)
    502e:	e8 2d 14 00 00       	call   6460 <tag_get_pt>
    5033:	8d 94 24 b8 00 00 00 	lea    0xb8(%esp),%edx
    503a:	8d 84 24 c0 00 00 00 	lea    0xc0(%esp),%eax
    5041:	89 14 24             	mov    %edx,(%esp)
    5044:	89 44 24 04          	mov    %eax,0x4(%esp)
    5048:	e8 83 12 00 00       	call   62d0 <spt_get_coord>
    504d:	8d 44 24 4c          	lea    0x4c(%esp),%eax
    5051:	89 44 24 08          	mov    %eax,0x8(%esp)
    5055:	8b 84 24 c0 00 00 00 	mov    0xc0(%esp),%eax
    505c:	48                   	dec    %eax
    505d:	89 44 24 04          	mov    %eax,0x4(%esp)
    5061:	a1 04 70 02 00       	mov    0x27004,%eax
    5066:	89 04 24             	mov    %eax,(%esp)
    5069:	e8 12 11 00 00       	call   6180 <sheet_get_row_width>
    506e:	8d 54 24 44          	lea    0x44(%esp),%edx
    5072:	a1 04 70 02 00       	mov    0x27004,%eax
    5077:	89 54 24 04          	mov    %edx,0x4(%esp)
    507b:	89 04 24             	mov    %eax,(%esp)
    507e:	e8 fd 11 00 00       	call   6280 <sheet_get_num_rows>
    5083:	a1 a8 6f 02 00       	mov    0x26fa8,%eax
    5088:	83 e8 03             	sub    $0x3,%eax
    508b:	c7 44 24 04 1b 00 00 	movl   $0x1b,0x4(%esp)
    5092:	00 
    5093:	89 44 24 08          	mov    %eax,0x8(%esp)
    5097:	a1 a0 6f 02 00       	mov    0x26fa0,%eax
    509c:	89 04 24             	mov    %eax,(%esp)
    509f:	e8 7c cf 00 00       	call   12020 <console_set_pos>
    50a4:	a1 a0 6f 02 00       	mov    0x26fa0,%eax
    50a9:	89 04 24             	mov    %eax,(%esp)
    50ac:	e8 df ca 00 00       	call   11b90 <console_flush>
    50b1:	a1 a0 6f 02 00       	mov    0x26fa0,%eax
    50b6:	89 04 24             	mov    %eax,(%esp)
    50b9:	c7 44 24 08 f7 f7 f7 	movl   $0xf7f7f7,0x8(%esp)
    50c0:	00 
    50c1:	c7 44 24 04 ff 66 00 	movl   $0x66ff,0x4(%esp)
    50c8:	00 
    50c9:	e8 22 cd 00 00       	call   11df0 <console_set_rgb_color>
    50ce:	a1 a0 6f 02 00       	mov    0x26fa0,%eax
    50d3:	89 04 24             	mov    %eax,(%esp)
    50d6:	e8 b5 ca 00 00       	call   11b90 <console_flush>
    50db:	8b 54 24 30          	mov    0x30(%esp),%edx
    50df:	89 54 24 04          	mov    %edx,0x4(%esp)
    50e3:	c7 04 24 08 3e 02 00 	movl   $0x23e08,(%esp)
    50ea:	e8 e1 9d 00 00       	call   eed0 <printf>
    50ef:	8b 15 a0 6f 02 00    	mov    0x26fa0,%edx
    50f5:	89 14 24             	mov    %edx,(%esp)
    50f8:	89 44 24 24          	mov    %eax,0x24(%esp)
    50fc:	e8 8f ca 00 00       	call   11b90 <console_flush>
    5101:	8b 15 a0 6f 02 00    	mov    0x26fa0,%edx
    5107:	89 14 24             	mov    %edx,(%esp)
    510a:	c7 44 24 04 00 00 00 	movl   $0x0,0x4(%esp)
    5111:	00 
    5112:	e8 a9 cb 00 00       	call   11cc0 <console_set_style>
    5117:	8b 15 a4 6f 02 00    	mov    0x26fa4,%edx
    511d:	8b 44 24 24          	mov    0x24(%esp),%eax
    5121:	83 ea 1b             	sub    $0x1b,%edx
    5124:	29 c2                	sub    %eax,%edx
    5126:	c7 44 24 08 57 52 02 	movl   $0x25257,0x8(%esp)
    512d:	00 
    512e:	89 54 24 04          	mov    %edx,0x4(%esp)
    5132:	c7 04 24 98 3a 02 00 	movl   $0x23a98,(%esp)
    5139:	e8 92 9d 00 00       	call   eed0 <printf>
    513e:	a1 a0 6f 02 00       	mov    0x26fa0,%eax
    5143:	89 04 24             	mov    %eax,(%esp)
    5146:	e8 45 ca 00 00       	call   11b90 <console_flush>
    514b:	a1 a0 6f 02 00       	mov    0x26fa0,%eax
    5150:	89 04 24             	mov    %eax,(%esp)
    5153:	c7 44 24 04 00 00 00 	movl   $0x0,0x4(%esp)
    515a:	00 
    515b:	e8 60 cb 00 00       	call   11cc0 <console_set_style>
    5160:	89 74 24 04          	mov    %esi,0x4(%esp)
    5164:	c7 04 24 d4 6f 02 00 	movl   $0x26fd4,(%esp)
    516b:	83 0d d0 6f 02 00 08 	orl    $0x8,0x26fd0
    5172:	e8 e9 12 00 00       	call   6460 <tag_get_pt>
    5177:	89 5c 24 04          	mov    %ebx,0x4(%esp)
    517b:	89 34 24             	mov    %esi,(%esp)
    517e:	e8 4d 11 00 00       	call   62d0 <spt_get_coord>
    5183:	8b 84 24 d0 00 00 00 	mov    0xd0(%esp),%eax
    518a:	2b 05 c8 6f 02 00    	sub    0x26fc8,%eax
    5190:	89 44 24 08          	mov    %eax,0x8(%esp)
    5194:	8b 84 24 d4 00 00 00 	mov    0xd4(%esp),%eax
    519b:	2b 05 cc 6f 02 00    	sub    0x26fcc,%eax
    51a1:	89 44 24 04          	mov    %eax,0x4(%esp)
    51a5:	a1 a0 6f 02 00       	mov    0x26fa0,%eax
    51aa:	89 04 24             	mov    %eax,(%esp)
    51ad:	e8 6e ce 00 00       	call   12020 <console_set_pos>
    51b2:	8b 44 24 34          	mov    0x34(%esp),%eax
    51b6:	89 04 24             	mov    %eax,(%esp)
    51b9:	e8 a2 80 00 00       	call   d260 <fclose>
    51be:	e9 a5 e9 ff ff       	jmp    3b68 <main+0x308>
    51c3:	a1 00 70 02 00       	mov    0x27000,%eax
    51c8:	85 c0                	test   %eax,%eax
    51ca:	0f 84 b1 0a 00 00    	je     5c81 <main+0x2421>
    51d0:	e8 db d3 ff ff       	call   25b0 <file_save>
    51d5:	e9 8e e9 ff ff       	jmp    3b68 <main+0x308>
    51da:	c6 05 0c 70 02 00 01 	movb   $0x1,0x2700c
    51e1:	e9 82 e9 ff ff       	jmp    3b68 <main+0x308>
    51e6:	e8 55 d7 ff ff       	call   2940 <selection_copy>
    51eb:	e9 78 e9 ff ff       	jmp    3b68 <main+0x308>
    51f0:	a1 f8 6f 02 00       	mov    0x26ff8,%eax
    51f5:	85 c0                	test   %eax,%eax
    51f7:	0f 84 1f 0b 00 00    	je     5d1c <main+0x24bc>
    51fd:	31 d2                	xor    %edx,%edx
    51ff:	8a 15 fc 6f 02 00    	mov    0x26ffc,%dl
    5205:	e8 46 e0 ff ff       	call   3250 <search>
    520a:	e9 59 e9 ff ff       	jmp    3b68 <main+0x308>
    520f:	8d 84 24 90 00 00 00 	lea    0x90(%esp),%eax
    5216:	c7 44 24 08 00 00 00 	movl   $0x0,0x8(%esp)
    521d:	00 
    521e:	89 44 24 0c          	mov    %eax,0xc(%esp)
    5222:	a1 04 70 02 00       	mov    0x27004,%eax
    5227:	89 04 24             	mov    %eax,(%esp)
    522a:	89 5c 24 04          	mov    %ebx,0x4(%esp)
    522e:	c7 84 24 d4 00 00 00 	movl   $0x1,0xd4(%esp)
    5235:	01 00 00 00 
    5239:	c7 84 24 d0 00 00 00 	movl   $0x1,0xd0(%esp)
    5240:	01 00 00 00 
    5244:	e8 87 0e 00 00       	call   60d0 <sheet_get_cell_pt>
    5249:	8b 94 24 94 00 00 00 	mov    0x94(%esp),%edx
    5250:	89 94 24 84 00 00 00 	mov    %edx,0x84(%esp)
    5257:	8d 94 24 b8 00 00 00 	lea    0xb8(%esp),%edx
    525e:	8b 84 24 90 00 00 00 	mov    0x90(%esp),%eax
    5265:	89 54 24 04          	mov    %edx,0x4(%esp)
    5269:	c7 04 24 d4 6f 02 00 	movl   $0x26fd4,(%esp)
    5270:	89 84 24 80 00 00 00 	mov    %eax,0x80(%esp)
    5277:	e8 e4 11 00 00       	call   6460 <tag_get_pt>
    527c:	89 74 24 04          	mov    %esi,0x4(%esp)
    5280:	c7 04 24 e4 6f 02 00 	movl   $0x26fe4,(%esp)
    5287:	e8 d4 11 00 00       	call   6460 <tag_get_pt>
    528c:	8d 84 24 b8 00 00 00 	lea    0xb8(%esp),%eax
    5293:	89 74 24 04          	mov    %esi,0x4(%esp)
    5297:	89 04 24             	mov    %eax,(%esp)
    529a:	e8 c1 10 00 00       	call   6360 <spt_equal>
    529f:	8b 15 04 70 02 00    	mov    0x27004,%edx
    52a5:	89 14 24             	mov    %edx,(%esp)
    52a8:	c7 44 24 04 d4 6f 02 	movl   $0x26fd4,0x4(%esp)
    52af:	00 
    52b0:	88 44 24 24          	mov    %al,0x24(%esp)
    52b4:	e8 77 11 00 00       	call   6430 <sheet_remove_tag>
    52b9:	c7 44 24 08 d4 6f 02 	movl   $0x26fd4,0x8(%esp)
    52c0:	00 
    52c1:	8d 94 24 80 00 00 00 	lea    0x80(%esp),%edx
    52c8:	8b 0d 04 70 02 00    	mov    0x27004,%ecx
    52ce:	89 54 24 04          	mov    %edx,0x4(%esp)
    52d2:	89 0c 24             	mov    %ecx,(%esp)
    52d5:	89 54 24 20          	mov    %edx,0x20(%esp)
    52d9:	e8 22 11 00 00       	call   6400 <sheet_place_tag>
    52de:	8b 0d 04 70 02 00    	mov    0x27004,%ecx
    52e4:	89 0c 24             	mov    %ecx,(%esp)
    52e7:	c7 44 24 04 e4 6f 02 	movl   $0x26fe4,0x4(%esp)
    52ee:	00 
    52ef:	e8 3c 11 00 00       	call   6430 <sheet_remove_tag>
    52f4:	8b 54 24 20          	mov    0x20(%esp),%edx
    52f8:	8b 0d 04 70 02 00    	mov    0x27004,%ecx
    52fe:	89 54 24 04          	mov    %edx,0x4(%esp)
    5302:	89 0c 24             	mov    %ecx,(%esp)
    5305:	c7 44 24 08 e4 6f 02 	movl   $0x26fe4,0x8(%esp)
    530c:	00 
    530d:	e8 ee 10 00 00       	call   6400 <sheet_place_tag>
    5312:	8b 54 24 20          	mov    0x20(%esp),%edx
    5316:	89 5c 24 04          	mov    %ebx,0x4(%esp)
    531a:	89 14 24             	mov    %edx,(%esp)
    531d:	e8 ae 0f 00 00       	call   62d0 <spt_get_coord>
    5322:	8a 44 24 24          	mov    0x24(%esp),%al
    5326:	84 c0                	test   %al,%al
    5328:	0f 85 a6 f0 ff ff    	jne    43d4 <main+0xb74>
    532e:	83 0d d0 6f 02 00 01 	orl    $0x1,0x26fd0
    5335:	e9 9a f0 ff ff       	jmp    43d4 <main+0xb74>
    533a:	8d 94 24 b8 00 00 00 	lea    0xb8(%esp),%edx
    5341:	c7 04 24 d4 6f 02 00 	movl   $0x26fd4,(%esp)
    5348:	89 54 24 04          	mov    %edx,0x4(%esp)
    534c:	e8 0f 11 00 00       	call   6460 <tag_get_pt>
    5351:	8d 94 24 b8 00 00 00 	lea    0xb8(%esp),%edx
    5358:	8d 84 24 c0 00 00 00 	lea    0xc0(%esp),%eax
    535f:	89 14 24             	mov    %edx,(%esp)
    5362:	89 44 24 04          	mov    %eax,0x4(%esp)
    5366:	e8 65 0f 00 00       	call   62d0 <spt_get_coord>
    536b:	8d 44 24 4c          	lea    0x4c(%esp),%eax
    536f:	89 44 24 08          	mov    %eax,0x8(%esp)
    5373:	8b 84 24 c0 00 00 00 	mov    0xc0(%esp),%eax
    537a:	48                   	dec    %eax
    537b:	89 44 24 04          	mov    %eax,0x4(%esp)
    537f:	a1 04 70 02 00       	mov    0x27004,%eax
    5384:	89 04 24             	mov    %eax,(%esp)
    5387:	e8 f4 0d 00 00       	call   6180 <sheet_get_row_width>
    538c:	8d 54 24 44          	lea    0x44(%esp),%edx
    5390:	a1 04 70 02 00       	mov    0x27004,%eax
    5395:	89 54 24 04          	mov    %edx,0x4(%esp)
    5399:	89 04 24             	mov    %eax,(%esp)
    539c:	e8 df 0e 00 00       	call   6280 <sheet_get_num_rows>
    53a1:	a1 a8 6f 02 00       	mov    0x26fa8,%eax
    53a6:	83 e8 03             	sub    $0x3,%eax
    53a9:	c7 44 24 04 1b 00 00 	movl   $0x1b,0x4(%esp)
    53b0:	00 
    53b1:	89 44 24 08          	mov    %eax,0x8(%esp)
    53b5:	a1 a0 6f 02 00       	mov    0x26fa0,%eax
    53ba:	89 04 24             	mov    %eax,(%esp)
    53bd:	e8 5e cc 00 00       	call   12020 <console_set_pos>
    53c2:	a1 a0 6f 02 00       	mov    0x26fa0,%eax
    53c7:	89 04 24             	mov    %eax,(%esp)
    53ca:	e8 c1 c7 00 00       	call   11b90 <console_flush>
    53cf:	a1 a0 6f 02 00       	mov    0x26fa0,%eax
    53d4:	89 04 24             	mov    %eax,(%esp)
    53d7:	c7 44 24 08 f7 f7 f7 	movl   $0xf7f7f7,0x8(%esp)
    53de:	00 
    53df:	c7 44 24 04 ff 44 00 	movl   $0x44ff,0x4(%esp)
    53e6:	00 
    53e7:	e8 04 ca 00 00       	call   11df0 <console_set_rgb_color>
    53ec:	a1 a0 6f 02 00       	mov    0x26fa0,%eax
    53f1:	89 04 24             	mov    %eax,(%esp)
    53f4:	e8 97 c7 00 00       	call   11b90 <console_flush>
    53f9:	8b 84 24 c0 00 00 00 	mov    0xc0(%esp),%eax
    5400:	48                   	dec    %eax
    5401:	8b 54 24 44          	mov    0x44(%esp),%edx
    5405:	89 44 24 3c          	mov    %eax,0x3c(%esp)
    5409:	8b 8c 24 c4 00 00 00 	mov    0xc4(%esp),%ecx
    5410:	db 44 24 3c          	fildl  0x3c(%esp)
    5414:	89 54 24 3c          	mov    %edx,0x3c(%esp)
    5418:	4a                   	dec    %edx
    5419:	db 44 24 3c          	fildl  0x3c(%esp)
    541d:	d8 25 24 44 02 00    	fsubs  0x24424
    5423:	89 4c 24 14          	mov    %ecx,0x14(%esp)
    5427:	89 54 24 08          	mov    %edx,0x8(%esp)
    542b:	89 44 24 04          	mov    %eax,0x4(%esp)
    542f:	c7 04 24 f6 3b 02 00 	movl   $0x23bf6,(%esp)
    5436:	de f9                	fdivrp %st,%st(1)
    5438:	d8 0d 28 44 02 00    	fmuls  0x24428
    543e:	dd 5c 24 0c          	fstpl  0xc(%esp)
    5442:	e8 89 9a 00 00       	call   eed0 <printf>
    5447:	8b 15 a0 6f 02 00    	mov    0x26fa0,%edx
    544d:	89 44 24 24          	mov    %eax,0x24(%esp)
    5451:	89 14 24             	mov    %edx,(%esp)
    5454:	e8 37 c7 00 00       	call   11b90 <console_flush>
    5459:	8b 15 a0 6f 02 00    	mov    0x26fa0,%edx
    545f:	89 14 24             	mov    %edx,(%esp)
    5462:	c7 44 24 04 00 00 00 	movl   $0x0,0x4(%esp)
    5469:	00 
    546a:	e8 51 c8 00 00       	call   11cc0 <console_set_style>
    546f:	8b 15 a4 6f 02 00    	mov    0x26fa4,%edx
    5475:	8b 44 24 24          	mov    0x24(%esp),%eax
    5479:	83 ea 1b             	sub    $0x1b,%edx
    547c:	29 c2                	sub    %eax,%edx
    547e:	c7 44 24 08 57 52 02 	movl   $0x25257,0x8(%esp)
    5485:	00 
    5486:	89 54 24 04          	mov    %edx,0x4(%esp)
    548a:	c7 04 24 98 3a 02 00 	movl   $0x23a98,(%esp)
    5491:	e8 3a 9a 00 00       	call   eed0 <printf>
    5496:	a1 a0 6f 02 00       	mov    0x26fa0,%eax
    549b:	89 04 24             	mov    %eax,(%esp)
    549e:	e8 ed c6 00 00       	call   11b90 <console_flush>
    54a3:	a1 a0 6f 02 00       	mov    0x26fa0,%eax
    54a8:	89 04 24             	mov    %eax,(%esp)
    54ab:	c7 44 24 04 00 00 00 	movl   $0x0,0x4(%esp)
    54b2:	00 
    54b3:	e8 08 c8 00 00       	call   11cc0 <console_set_style>
    54b8:	89 74 24 04          	mov    %esi,0x4(%esp)
    54bc:	c7 04 24 d4 6f 02 00 	movl   $0x26fd4,(%esp)
    54c3:	83 0d d0 6f 02 00 08 	orl    $0x8,0x26fd0
    54ca:	e8 91 0f 00 00       	call   6460 <tag_get_pt>
    54cf:	89 5c 24 04          	mov    %ebx,0x4(%esp)
    54d3:	89 34 24             	mov    %esi,(%esp)
    54d6:	e8 f5 0d 00 00       	call   62d0 <spt_get_coord>
    54db:	8b 84 24 d0 00 00 00 	mov    0xd0(%esp),%eax
    54e2:	2b 05 c8 6f 02 00    	sub    0x26fc8,%eax
    54e8:	89 44 24 08          	mov    %eax,0x8(%esp)
    54ec:	8b 84 24 d4 00 00 00 	mov    0xd4(%esp),%eax
    54f3:	2b 05 cc 6f 02 00    	sub    0x26fcc,%eax
    54f9:	89 44 24 04          	mov    %eax,0x4(%esp)
    54fd:	a1 a0 6f 02 00       	mov    0x26fa0,%eax
    5502:	89 04 24             	mov    %eax,(%esp)
    5505:	e8 16 cb 00 00       	call   12020 <console_set_pos>
    550a:	e9 59 e6 ff ff       	jmp    3b68 <main+0x308>
    550f:	89 74 24 04          	mov    %esi,0x4(%esp)
    5513:	c7 04 24 d4 6f 02 00 	movl   $0x26fd4,(%esp)
    551a:	e8 41 0f 00 00       	call   6460 <tag_get_pt>
    551f:	8b 84 24 c8 00 00 00 	mov    0xc8(%esp),%eax
    5526:	8b 94 24 cc 00 00 00 	mov    0xcc(%esp),%edx
    552d:	89 44 24 78          	mov    %eax,0x78(%esp)
    5531:	89 54 24 7c          	mov    %edx,0x7c(%esp)
    5535:	8d 44 24 78          	lea    0x78(%esp),%eax
    5539:	8b 54 24 7c          	mov    0x7c(%esp),%edx
    553d:	89 44 24 08          	mov    %eax,0x8(%esp)
    5541:	8b 44 24 78          	mov    0x78(%esp),%eax
    5545:	89 54 24 04          	mov    %edx,0x4(%esp)
    5549:	89 04 24             	mov    %eax,(%esp)
    554c:	e8 6f 0e 00 00       	call   63c0 <spt_prev_char>
    5551:	8d 44 24 78          	lea    0x78(%esp),%eax
    5555:	e8 46 d7 ff ff       	call   2ca0 <pt_is_word_beginning>
    555a:	84 c0                	test   %al,%al
    555c:	74 d7                	je     5535 <main+0x1cd5>
    555e:	31 c9                	xor    %ecx,%ecx
    5560:	8b 44 24 78          	mov    0x78(%esp),%eax
    5564:	8b 54 24 7c          	mov    0x7c(%esp),%edx
    5568:	e8 c3 ca ff ff       	call   2030 <caret_move.constprop.16>
    556d:	e9 f6 e5 ff ff       	jmp    3b68 <main+0x308>
    5572:	8d 54 24 4c          	lea    0x4c(%esp),%edx
    5576:	a1 04 70 02 00       	mov    0x27004,%eax
    557b:	89 54 24 04          	mov    %edx,0x4(%esp)
    557f:	89 04 24             	mov    %eax,(%esp)
    5582:	e8 f9 0c 00 00       	call   6280 <sheet_get_num_rows>
    5587:	8b 44 24 4c          	mov    0x4c(%esp),%eax
    558b:	40                   	inc    %eax
    558c:	c7 44 24 08 01 00 00 	movl   $0x1,0x8(%esp)
    5593:	00 
    5594:	89 84 24 d0 00 00 00 	mov    %eax,0xd0(%esp)
    559b:	8d 84 24 90 00 00 00 	lea    0x90(%esp),%eax
    55a2:	89 44 24 0c          	mov    %eax,0xc(%esp)
    55a6:	a1 04 70 02 00       	mov    0x27004,%eax
    55ab:	89 04 24             	mov    %eax,(%esp)
    55ae:	89 5c 24 04          	mov    %ebx,0x4(%esp)
    55b2:	c7 84 24 d4 00 00 00 	movl   $0x1,0xd4(%esp)
    55b9:	01 00 00 00 
    55bd:	e8 0e 0b 00 00       	call   60d0 <sheet_get_cell_pt>
    55c2:	8b 84 24 90 00 00 00 	mov    0x90(%esp),%eax
    55c9:	8b 94 24 94 00 00 00 	mov    0x94(%esp),%edx
    55d0:	89 84 24 88 00 00 00 	mov    %eax,0x88(%esp)
    55d7:	8d 84 24 b8 00 00 00 	lea    0xb8(%esp),%eax
    55de:	89 44 24 04          	mov    %eax,0x4(%esp)
    55e2:	c7 04 24 d4 6f 02 00 	movl   $0x26fd4,(%esp)
    55e9:	89 94 24 8c 00 00 00 	mov    %edx,0x8c(%esp)
    55f0:	e8 6b 0e 00 00       	call   6460 <tag_get_pt>
    55f5:	89 74 24 04          	mov    %esi,0x4(%esp)
    55f9:	c7 04 24 e4 6f 02 00 	movl   $0x26fe4,(%esp)
    5600:	e8 5b 0e 00 00       	call   6460 <tag_get_pt>
    5605:	8d 94 24 b8 00 00 00 	lea    0xb8(%esp),%edx
    560c:	89 14 24             	mov    %edx,(%esp)
    560f:	89 74 24 04          	mov    %esi,0x4(%esp)
    5613:	e8 48 0d 00 00       	call   6360 <spt_equal>
    5618:	8b 15 04 70 02 00    	mov    0x27004,%edx
    561e:	89 14 24             	mov    %edx,(%esp)
    5621:	c7 44 24 04 d4 6f 02 	movl   $0x26fd4,0x4(%esp)
    5628:	00 
    5629:	88 44 24 24          	mov    %al,0x24(%esp)
    562d:	e8 fe 0d 00 00       	call   6430 <sheet_remove_tag>
    5632:	c7 44 24 08 d4 6f 02 	movl   $0x26fd4,0x8(%esp)
    5639:	00 
    563a:	8d 94 24 88 00 00 00 	lea    0x88(%esp),%edx
    5641:	e9 82 fc ff ff       	jmp    52c8 <main+0x1a68>
    5646:	89 74 24 04          	mov    %esi,0x4(%esp)
    564a:	c7 04 24 d4 6f 02 00 	movl   $0x26fd4,(%esp)
    5651:	e8 0a 0e 00 00       	call   6460 <tag_get_pt>
    5656:	89 5c 24 04          	mov    %ebx,0x4(%esp)
    565a:	89 34 24             	mov    %esi,(%esp)
    565d:	e8 6e 0c 00 00       	call   62d0 <spt_get_coord>
    5662:	c7 84 24 d4 00 00 00 	movl   $0x1,0xd4(%esp)
    5669:	01 00 00 00 
    566d:	89 74 24 0c          	mov    %esi,0xc(%esp)
    5671:	c7 44 24 08 00 00 00 	movl   $0x0,0x8(%esp)
    5678:	00 
    5679:	a1 04 70 02 00       	mov    0x27004,%eax
    567e:	89 5c 24 04          	mov    %ebx,0x4(%esp)
    5682:	89 04 24             	mov    %eax,(%esp)
    5685:	e8 46 0a 00 00       	call   60d0 <sheet_get_cell_pt>
    568a:	b9 01 00 00 00       	mov    $0x1,%ecx
    568f:	8b 84 24 c8 00 00 00 	mov    0xc8(%esp),%eax
    5696:	8b 94 24 cc 00 00 00 	mov    0xcc(%esp),%edx
    569d:	e8 8e c9 ff ff       	call   2030 <caret_move.constprop.16>
    56a2:	e9 c1 e4 ff ff       	jmp    3b68 <main+0x308>
    56a7:	89 74 24 04          	mov    %esi,0x4(%esp)
    56ab:	c7 04 24 d4 6f 02 00 	movl   $0x26fd4,(%esp)
    56b2:	e8 a9 0d 00 00       	call   6460 <tag_get_pt>
    56b7:	89 5c 24 04          	mov    %ebx,0x4(%esp)
    56bb:	89 34 24             	mov    %esi,(%esp)
    56be:	e8 0d 0c 00 00       	call   62d0 <spt_get_coord>
    56c3:	8d 44 24 4c          	lea    0x4c(%esp),%eax
    56c7:	89 44 24 08          	mov    %eax,0x8(%esp)
    56cb:	8b 84 24 d0 00 00 00 	mov    0xd0(%esp),%eax
    56d2:	89 44 24 04          	mov    %eax,0x4(%esp)
    56d6:	a1 04 70 02 00       	mov    0x27004,%eax
    56db:	89 04 24             	mov    %eax,(%esp)
    56de:	e8 9d 0a 00 00       	call   6180 <sheet_get_row_width>
    56e3:	8b 44 24 4c          	mov    0x4c(%esp),%eax
    56e7:	48                   	dec    %eax
    56e8:	89 74 24 0c          	mov    %esi,0xc(%esp)
    56ec:	89 84 24 d4 00 00 00 	mov    %eax,0xd4(%esp)
    56f3:	c7 44 24 08 01 00 00 	movl   $0x1,0x8(%esp)
    56fa:	00 
    56fb:	e9 79 ff ff ff       	jmp    5679 <main+0x1e19>
    5700:	a1 c0 6f 02 00       	mov    0x26fc0,%eax
    5705:	c7 04 24 01 00 00 00 	movl   $0x1,(%esp)
    570c:	f7 d8                	neg    %eax
    570e:	31 c9                	xor    %ecx,%ecx
    5710:	31 d2                	xor    %edx,%edx
    5712:	e8 69 bc ff ff       	call   1380 <caret_move_relative>
    5717:	e9 4c e4 ff ff       	jmp    3b68 <main+0x308>
    571c:	c7 04 24 01 00 00 00 	movl   $0x1,(%esp)
    5723:	b9 01 00 00 00       	mov    $0x1,%ecx
    5728:	31 d2                	xor    %edx,%edx
    572a:	31 c0                	xor    %eax,%eax
    572c:	e8 4f bc ff ff       	call   1380 <caret_move_relative>
    5731:	e9 32 e4 ff ff       	jmp    3b68 <main+0x308>
    5736:	c7 04 24 01 00 00 00 	movl   $0x1,(%esp)
    573d:	31 c9                	xor    %ecx,%ecx
    573f:	31 d2                	xor    %edx,%edx
    5741:	b8 01 00 00 00       	mov    $0x1,%eax
    5746:	e8 35 bc ff ff       	call   1380 <caret_move_relative>
    574b:	e9 18 e4 ff ff       	jmp    3b68 <main+0x308>
    5750:	c7 04 24 01 00 00 00 	movl   $0x1,(%esp)
    5757:	31 c9                	xor    %ecx,%ecx
    5759:	83 ca ff             	or     $0xffffffff,%edx
    575c:	31 c0                	xor    %eax,%eax
    575e:	e8 1d bc ff ff       	call   1380 <caret_move_relative>
    5763:	e9 00 e4 ff ff       	jmp    3b68 <main+0x308>
    5768:	c7 04 24 01 00 00 00 	movl   $0x1,(%esp)
    576f:	31 c9                	xor    %ecx,%ecx
    5771:	31 d2                	xor    %edx,%edx
    5773:	83 c8 ff             	or     $0xffffffff,%eax
    5776:	e8 05 bc ff ff       	call   1380 <caret_move_relative>
    577b:	e9 e8 e3 ff ff       	jmp    3b68 <main+0x308>
    5780:	c7 04 24 01 00 00 00 	movl   $0x1,(%esp)
    5787:	31 c9                	xor    %ecx,%ecx
    5789:	31 d2                	xor    %edx,%edx
    578b:	a1 c0 6f 02 00       	mov    0x26fc0,%eax
    5790:	e8 eb bb ff ff       	call   1380 <caret_move_relative>
    5795:	e9 ce e3 ff ff       	jmp    3b68 <main+0x308>
    579a:	c7 04 24 00 00 00 00 	movl   $0x0,(%esp)
    57a1:	b9 01 00 00 00       	mov    $0x1,%ecx
    57a6:	31 d2                	xor    %edx,%edx
    57a8:	31 c0                	xor    %eax,%eax
    57aa:	e8 d1 bb ff ff       	call   1380 <caret_move_relative>
    57af:	e9 b4 e3 ff ff       	jmp    3b68 <main+0x308>
    57b4:	89 74 24 04          	mov    %esi,0x4(%esp)
    57b8:	c7 04 24 d4 6f 02 00 	movl   $0x26fd4,(%esp)
    57bf:	e8 9c 0c 00 00       	call   6460 <tag_get_pt>
    57c4:	89 5c 24 04          	mov    %ebx,0x4(%esp)
    57c8:	89 34 24             	mov    %esi,(%esp)
    57cb:	e8 00 0b 00 00       	call   62d0 <spt_get_coord>
    57d0:	c7 84 24 d4 00 00 00 	movl   $0x1,0xd4(%esp)
    57d7:	01 00 00 00 
    57db:	89 74 24 0c          	mov    %esi,0xc(%esp)
    57df:	c7 44 24 08 00 00 00 	movl   $0x0,0x8(%esp)
    57e6:	00 
    57e7:	a1 04 70 02 00       	mov    0x27004,%eax
    57ec:	89 5c 24 04          	mov    %ebx,0x4(%esp)
    57f0:	89 04 24             	mov    %eax,(%esp)
    57f3:	e8 d8 08 00 00       	call   60d0 <sheet_get_cell_pt>
    57f8:	31 c9                	xor    %ecx,%ecx
    57fa:	8b 84 24 c8 00 00 00 	mov    0xc8(%esp),%eax
    5801:	8b 94 24 cc 00 00 00 	mov    0xcc(%esp),%edx
    5808:	e8 23 c8 ff ff       	call   2030 <caret_move.constprop.16>
    580d:	e9 56 e3 ff ff       	jmp    3b68 <main+0x308>
    5812:	89 74 24 04          	mov    %esi,0x4(%esp)
    5816:	c7 04 24 d4 6f 02 00 	movl   $0x26fd4,(%esp)
    581d:	e8 3e 0c 00 00       	call   6460 <tag_get_pt>
    5822:	89 5c 24 04          	mov    %ebx,0x4(%esp)
    5826:	89 34 24             	mov    %esi,(%esp)
    5829:	e8 a2 0a 00 00       	call   62d0 <spt_get_coord>
    582e:	8d 44 24 4c          	lea    0x4c(%esp),%eax
    5832:	89 44 24 08          	mov    %eax,0x8(%esp)
    5836:	8b 84 24 d0 00 00 00 	mov    0xd0(%esp),%eax
    583d:	89 44 24 04          	mov    %eax,0x4(%esp)
    5841:	a1 04 70 02 00       	mov    0x27004,%eax
    5846:	89 04 24             	mov    %eax,(%esp)
    5849:	e8 32 09 00 00       	call   6180 <sheet_get_row_width>
    584e:	8b 44 24 4c          	mov    0x4c(%esp),%eax
    5852:	48                   	dec    %eax
    5853:	89 74 24 0c          	mov    %esi,0xc(%esp)
    5857:	89 84 24 d4 00 00 00 	mov    %eax,0xd4(%esp)
    585e:	c7 44 24 08 01 00 00 	movl   $0x1,0x8(%esp)
    5865:	00 
    5866:	e9 7c ff ff ff       	jmp    57e7 <main+0x1f87>
    586b:	a1 c0 6f 02 00       	mov    0x26fc0,%eax
    5870:	c7 04 24 00 00 00 00 	movl   $0x0,(%esp)
    5877:	f7 d8                	neg    %eax
    5879:	31 c9                	xor    %ecx,%ecx
    587b:	31 d2                	xor    %edx,%edx
    587d:	e8 fe ba ff ff       	call   1380 <caret_move_relative>
    5882:	e9 e1 e2 ff ff       	jmp    3b68 <main+0x308>
    5887:	c7 04 24 00 00 00 00 	movl   $0x0,(%esp)
    588e:	31 c9                	xor    %ecx,%ecx
    5890:	31 d2                	xor    %edx,%edx
    5892:	b8 01 00 00 00       	mov    $0x1,%eax
    5897:	e8 e4 ba ff ff       	call   1380 <caret_move_relative>
    589c:	e9 c7 e2 ff ff       	jmp    3b68 <main+0x308>
    58a1:	c7 04 24 00 00 00 00 	movl   $0x0,(%esp)
    58a8:	31 c9                	xor    %ecx,%ecx
    58aa:	83 ca ff             	or     $0xffffffff,%edx
    58ad:	31 c0                	xor    %eax,%eax
    58af:	e8 cc ba ff ff       	call   1380 <caret_move_relative>
    58b4:	e9 af e2 ff ff       	jmp    3b68 <main+0x308>
    58b9:	c7 04 24 00 00 00 00 	movl   $0x0,(%esp)
    58c0:	31 c9                	xor    %ecx,%ecx
    58c2:	31 d2                	xor    %edx,%edx
    58c4:	83 c8 ff             	or     $0xffffffff,%eax
    58c7:	e8 b4 ba ff ff       	call   1380 <caret_move_relative>
    58cc:	e9 97 e2 ff ff       	jmp    3b68 <main+0x308>
    58d1:	c7 04 24 00 00 00 00 	movl   $0x0,(%esp)
    58d8:	31 c9                	xor    %ecx,%ecx
    58da:	31 d2                	xor    %edx,%edx
    58dc:	a1 c0 6f 02 00       	mov    0x26fc0,%eax
    58e1:	e8 9a ba ff ff       	call   1380 <caret_move_relative>
    58e6:	e9 7d e2 ff ff       	jmp    3b68 <main+0x308>
    58eb:	83 c8 03             	or     $0x3,%eax
    58ee:	a3 d0 6f 02 00       	mov    %eax,0x26fd0
    58f3:	e9 0f ec ff ff       	jmp    4507 <main+0xca7>
    58f8:	8b 54 24 38          	mov    0x38(%esp),%edx
    58fc:	8b 44 24 34          	mov    0x34(%esp),%eax
    5900:	89 14 24             	mov    %edx,(%esp)
    5903:	89 44 24 0c          	mov    %eax,0xc(%esp)
    5907:	c7 44 24 08 01 00 00 	movl   $0x1,0x8(%esp)
    590e:	00 
    590f:	c7 44 24 04 01 00 00 	movl   $0x1,0x4(%esp)
    5916:	00 
    5917:	e8 f4 7a 00 00       	call   d410 <fread>
    591c:	8a 44 24 48          	mov    0x48(%esp),%al
    5920:	8d 50 f7             	lea    -0x9(%eax),%edx
    5923:	80 fa 01             	cmp    $0x1,%dl
    5926:	0f 86 eb ef ff ff    	jbe    4917 <main+0x10b7>
    592c:	3c 0d                	cmp    $0xd,%al
    592e:	0f 84 e3 ef ff ff    	je     4917 <main+0x10b7>
    5934:	3c 20                	cmp    $0x20,%al
    5936:	74 0c                	je     5944 <main+0x20e4>
    5938:	3c 2e                	cmp    $0x2e,%al
    593a:	74 08                	je     5944 <main+0x20e4>
    593c:	3c 2c                	cmp    $0x2c,%al
    593e:	0f 85 75 ef ff ff    	jne    48b9 <main+0x1059>
    5944:	c6 44 24 30 01       	movb   $0x1,0x30(%esp)
    5949:	e9 71 ee ff ff       	jmp    47bf <main+0xf5f>
    594e:	89 74 24 04          	mov    %esi,0x4(%esp)
    5952:	c7 04 24 d4 6f 02 00 	movl   $0x26fd4,(%esp)
    5959:	e8 02 0b 00 00       	call   6460 <tag_get_pt>
    595e:	8b 84 24 c8 00 00 00 	mov    0xc8(%esp),%eax
    5965:	8b 94 24 cc 00 00 00 	mov    0xcc(%esp),%edx
    596c:	89 84 24 98 00 00 00 	mov    %eax,0x98(%esp)
    5973:	89 94 24 9c 00 00 00 	mov    %edx,0x9c(%esp)
    597a:	8d 84 24 98 00 00 00 	lea    0x98(%esp),%eax
    5981:	8b 94 24 9c 00 00 00 	mov    0x9c(%esp),%edx
    5988:	89 44 24 08          	mov    %eax,0x8(%esp)
    598c:	8b 84 24 98 00 00 00 	mov    0x98(%esp),%eax
    5993:	89 54 24 04          	mov    %edx,0x4(%esp)
    5997:	89 04 24             	mov    %eax,(%esp)
    599a:	e8 21 0a 00 00       	call   63c0 <spt_prev_char>
    599f:	8d 84 24 98 00 00 00 	lea    0x98(%esp),%eax
    59a6:	e8 f5 d2 ff ff       	call   2ca0 <pt_is_word_beginning>
    59ab:	84 c0                	test   %al,%al
    59ad:	74 cb                	je     597a <main+0x211a>
    59af:	b9 01 00 00 00       	mov    $0x1,%ecx
    59b4:	8b 84 24 98 00 00 00 	mov    0x98(%esp),%eax
    59bb:	8b 94 24 9c 00 00 00 	mov    0x9c(%esp),%edx
    59c2:	e8 69 c6 ff ff       	call   2030 <caret_move.constprop.16>
    59c7:	e9 9c e1 ff ff       	jmp    3b68 <main+0x308>
    59cc:	c7 04 24 97 3b 02 00 	movl   $0x23b97,(%esp)
    59d3:	e8 f8 94 00 00       	call   eed0 <printf>
    59d8:	83 c8 ff             	or     $0xffffffff,%eax
    59db:	e9 13 e2 ff ff       	jmp    3bf3 <main+0x393>
    59e0:	c7 04 24 a7 3b 02 00 	movl   $0x23ba7,(%esp)
    59e7:	e8 e4 94 00 00       	call   eed0 <printf>
    59ec:	b8 fe ff ff ff       	mov    $0xfffffffe,%eax
    59f1:	e9 fd e1 ff ff       	jmp    3bf3 <main+0x393>
    59f6:	8d 94 24 b8 00 00 00 	lea    0xb8(%esp),%edx
    59fd:	c7 04 24 d4 6f 02 00 	movl   $0x26fd4,(%esp)
    5a04:	89 54 24 04          	mov    %edx,0x4(%esp)
    5a08:	e8 53 0a 00 00       	call   6460 <tag_get_pt>
    5a0d:	8d 94 24 b8 00 00 00 	lea    0xb8(%esp),%edx
    5a14:	8d 84 24 c0 00 00 00 	lea    0xc0(%esp),%eax
    5a1b:	89 14 24             	mov    %edx,(%esp)
    5a1e:	89 44 24 04          	mov    %eax,0x4(%esp)
    5a22:	e8 a9 08 00 00       	call   62d0 <spt_get_coord>
    5a27:	8d 44 24 4c          	lea    0x4c(%esp),%eax
    5a2b:	89 44 24 08          	mov    %eax,0x8(%esp)
    5a2f:	8b 84 24 c0 00 00 00 	mov    0xc0(%esp),%eax
    5a36:	48                   	dec    %eax
    5a37:	89 44 24 04          	mov    %eax,0x4(%esp)
    5a3b:	a1 04 70 02 00       	mov    0x27004,%eax
    5a40:	89 04 24             	mov    %eax,(%esp)
    5a43:	e8 38 07 00 00       	call   6180 <sheet_get_row_width>
    5a48:	8d 54 24 44          	lea    0x44(%esp),%edx
    5a4c:	a1 04 70 02 00       	mov    0x27004,%eax
    5a51:	89 54 24 04          	mov    %edx,0x4(%esp)
    5a55:	89 04 24             	mov    %eax,(%esp)
    5a58:	e8 23 08 00 00       	call   6280 <sheet_get_num_rows>
    5a5d:	a1 a8 6f 02 00       	mov    0x26fa8,%eax
    5a62:	83 e8 03             	sub    $0x3,%eax
    5a65:	c7 44 24 04 1b 00 00 	movl   $0x1b,0x4(%esp)
    5a6c:	00 
    5a6d:	89 44 24 08          	mov    %eax,0x8(%esp)
    5a71:	a1 a0 6f 02 00       	mov    0x26fa0,%eax
    5a76:	89 04 24             	mov    %eax,(%esp)
    5a79:	e8 a2 c5 00 00       	call   12020 <console_set_pos>
    5a7e:	a1 a0 6f 02 00       	mov    0x26fa0,%eax
    5a83:	89 04 24             	mov    %eax,(%esp)
    5a86:	e8 05 c1 00 00       	call   11b90 <console_flush>
    5a8b:	a1 a0 6f 02 00       	mov    0x26fa0,%eax
    5a90:	89 04 24             	mov    %eax,(%esp)
    5a93:	c7 44 24 08 f7 f7 f7 	movl   $0xf7f7f7,0x8(%esp)
    5a9a:	00 
    5a9b:	c7 44 24 04 ff 66 00 	movl   $0x66ff,0x4(%esp)
    5aa2:	00 
    5aa3:	e8 48 c3 00 00       	call   11df0 <console_set_rgb_color>
    5aa8:	a1 a0 6f 02 00       	mov    0x26fa0,%eax
    5aad:	89 04 24             	mov    %eax,(%esp)
    5ab0:	e8 db c0 00 00       	call   11b90 <console_flush>
    5ab5:	8b 54 24 2c          	mov    0x2c(%esp),%edx
    5ab9:	89 54 24 04          	mov    %edx,0x4(%esp)
    5abd:	c7 04 24 54 3e 02 00 	movl   $0x23e54,(%esp)
    5ac4:	e8 07 94 00 00       	call   eed0 <printf>
    5ac9:	e9 79 f9 ff ff       	jmp    5447 <main+0x1be7>
    5ace:	8d 94 24 b8 00 00 00 	lea    0xb8(%esp),%edx
    5ad5:	c7 04 24 d4 6f 02 00 	movl   $0x26fd4,(%esp)
    5adc:	89 54 24 04          	mov    %edx,0x4(%esp)
    5ae0:	e8 7b 09 00 00       	call   6460 <tag_get_pt>
    5ae5:	8d 94 24 b8 00 00 00 	lea    0xb8(%esp),%edx
    5aec:	8d 84 24 c0 00 00 00 	lea    0xc0(%esp),%eax
    5af3:	89 14 24             	mov    %edx,(%esp)
    5af6:	89 44 24 04          	mov    %eax,0x4(%esp)
    5afa:	e8 d1 07 00 00       	call   62d0 <spt_get_coord>
    5aff:	8d 44 24 4c          	lea    0x4c(%esp),%eax
    5b03:	89 44 24 08          	mov    %eax,0x8(%esp)
    5b07:	8b 84 24 c0 00 00 00 	mov    0xc0(%esp),%eax
    5b0e:	48                   	dec    %eax
    5b0f:	89 44 24 04          	mov    %eax,0x4(%esp)
    5b13:	a1 04 70 02 00       	mov    0x27004,%eax
    5b18:	89 04 24             	mov    %eax,(%esp)
    5b1b:	e8 60 06 00 00       	call   6180 <sheet_get_row_width>
    5b20:	8d 54 24 44          	lea    0x44(%esp),%edx
    5b24:	a1 04 70 02 00       	mov    0x27004,%eax
    5b29:	89 54 24 04          	mov    %edx,0x4(%esp)
    5b2d:	89 04 24             	mov    %eax,(%esp)
    5b30:	e8 4b 07 00 00       	call   6280 <sheet_get_num_rows>
    5b35:	a1 a8 6f 02 00       	mov    0x26fa8,%eax
    5b3a:	83 e8 03             	sub    $0x3,%eax
    5b3d:	c7 44 24 04 1b 00 00 	movl   $0x1b,0x4(%esp)
    5b44:	00 
    5b45:	89 44 24 08          	mov    %eax,0x8(%esp)
    5b49:	a1 a0 6f 02 00       	mov    0x26fa0,%eax
    5b4e:	89 04 24             	mov    %eax,(%esp)
    5b51:	e8 ca c4 00 00       	call   12020 <console_set_pos>
    5b56:	a1 a0 6f 02 00       	mov    0x26fa0,%eax
    5b5b:	89 04 24             	mov    %eax,(%esp)
    5b5e:	e8 2d c0 00 00       	call   11b90 <console_flush>
    5b63:	a1 a0 6f 02 00       	mov    0x26fa0,%eax
    5b68:	89 04 24             	mov    %eax,(%esp)
    5b6b:	c7 44 24 08 f7 f7 f7 	movl   $0xf7f7f7,0x8(%esp)
    5b72:	00 
    5b73:	c7 44 24 04 ff 66 00 	movl   $0x66ff,0x4(%esp)
    5b7a:	00 
    5b7b:	e8 70 c2 00 00       	call   11df0 <console_set_rgb_color>
    5b80:	a1 a0 6f 02 00       	mov    0x26fa0,%eax
    5b85:	89 04 24             	mov    %eax,(%esp)
    5b88:	e8 03 c0 00 00       	call   11b90 <console_flush>
    5b8d:	8b 54 24 2c          	mov    0x2c(%esp),%edx
    5b91:	89 54 24 04          	mov    %edx,0x4(%esp)
    5b95:	c7 04 24 30 3e 02 00 	movl   $0x23e30,(%esp)
    5b9c:	e9 49 f5 ff ff       	jmp    50ea <main+0x188a>
    5ba1:	83 c8 02             	or     $0x2,%eax
    5ba4:	e9 26 e8 ff ff       	jmp    43cf <main+0xb6f>
    5ba9:	8b 44 24 48          	mov    0x48(%esp),%eax
    5bad:	89 04 24             	mov    %eax,(%esp)
    5bb0:	e8 ab ea 00 00       	call   14660 <free>
    5bb5:	e9 c7 f2 ff ff       	jmp    4e81 <main+0x1621>
