
root:     file format elf32-i386


Disassembly of section .init:

00001094 <__entry>:
    1094:	66 8c d0             	mov    %ss,%ax
    1097:	8e d8                	mov    %eax,%ds
    1099:	8e c0                	mov    %eax,%es
    109b:	8e e0                	mov    %eax,%fs
    109d:	b8 01 00 00 00       	mov    $0x1,%eax
    10a2:	0f a2                	cpuid  
    10a4:	0f ba e2 0b          	bt     $0xb,%edx
    10a8:	73 0c                	jae    10b6 <__entry+0x22>
    10aa:	8d 05 30 8e 02 00    	lea    0x28e30,%eax
    10b0:	c7 00 c7 15 02 00    	movl   $0x215c7,(%eax)
    10b6:	6a 00                	push   $0x0
    10b8:	89 e5                	mov    %esp,%ebp
    10ba:	57                   	push   %edi
    10bb:	e8 10 5e 00 00       	call   6ed0 <__main>

Disassembly of section .text:

000010c0 <root_fun_offline>:
    10c0:	55                   	push   %ebp
    10c1:	89 e5                	mov    %esp,%ebp
    10c3:	53                   	push   %ebx
    10c4:	83 ec 14             	sub    $0x14,%esp
    10c7:	8b 5d 08             	mov    0x8(%ebp),%ebx
    10ca:	c7 44 24 04 22 58 02 	movl   $0x25822,0x4(%esp)
    10d1:	00 
    10d2:	c7 04 24 04 00 00 00 	movl   $0x4,(%esp)
    10d9:	e8 82 18 00 00       	call   2960 <ddf_msg>
    10de:	89 5d 08             	mov    %ebx,0x8(%ebp)
    10e1:	83 c4 14             	add    $0x14,%esp
    10e4:	5b                   	pop    %ebx
    10e5:	5d                   	pop    %ebp
    10e6:	e9 95 12 00 00       	jmp    2380 <ddf_fun_offline>
    10eb:	90                   	nop
    10ec:	8d 74 26 00          	lea    0x0(%esi,%eiz,1),%esi

000010f0 <root_fun_online>:
    10f0:	55                   	push   %ebp
    10f1:	89 e5                	mov    %esp,%ebp
    10f3:	53                   	push   %ebx
    10f4:	83 ec 14             	sub    $0x14,%esp
    10f7:	8b 5d 08             	mov    0x8(%ebp),%ebx
    10fa:	c7 44 24 04 35 58 02 	movl   $0x25835,0x4(%esp)
    1101:	00 
    1102:	c7 04 24 04 00 00 00 	movl   $0x4,(%esp)
    1109:	e8 52 18 00 00       	call   2960 <ddf_msg>
    110e:	89 5d 08             	mov    %ebx,0x8(%ebp)
    1111:	83 c4 14             	add    $0x14,%esp
    1114:	5b                   	pop    %ebx
    1115:	5d                   	pop    %ebp
    1116:	e9 25 12 00 00       	jmp    2340 <ddf_fun_online>
    111b:	90                   	nop
    111c:	8d 74 26 00          	lea    0x0(%esi,%eiz,1),%esi

00001120 <root_dev_add>:
    1120:	55                   	push   %ebp
    1121:	89 e5                	mov    %esp,%ebp
    1123:	56                   	push   %esi
    1124:	53                   	push   %ebx
    1125:	83 ec 30             	sub    $0x30,%esp
    1128:	8b 75 08             	mov    0x8(%ebp),%esi
    112b:	89 34 24             	mov    %esi,(%esp)
    112e:	e8 dd 0c 00 00       	call   1e10 <ddf_dev_get_handle>
    1133:	c7 44 24 04 c0 58 02 	movl   $0x258c0,0x4(%esp)
    113a:	00 
    113b:	89 44 24 08          	mov    %eax,0x8(%esp)
    113f:	c7 04 24 04 00 00 00 	movl   $0x4,(%esp)
    1146:	e8 15 18 00 00       	call   2960 <ddf_msg>
    114b:	c7 44 24 10 47 58 02 	movl   $0x25847,0x10(%esp)
    1152:	00 
    1153:	c7 44 24 0c 64 00 00 	movl   $0x64,0xc(%esp)
    115a:	00 
    115b:	c7 44 24 08 4b 58 02 	movl   $0x2584b,0x8(%esp)
    1162:	00 
    1163:	c7 44 24 04 e0 58 02 	movl   $0x258e0,0x4(%esp)
    116a:	00 
    116b:	c7 04 24 04 00 00 00 	movl   $0x4,(%esp)
    1172:	e8 e9 17 00 00       	call   2960 <ddf_msg>
    1177:	c7 44 24 08 4b 58 02 	movl   $0x2584b,0x8(%esp)
    117e:	00 
    117f:	c7 44 24 04 01 00 00 	movl   $0x1,0x4(%esp)
    1186:	00 
    1187:	89 34 24             	mov    %esi,(%esp)
    118a:	e8 71 0d 00 00       	call   1f00 <ddf_fun_create>
    118f:	89 c3                	mov    %eax,%ebx
    1191:	85 c0                	test   %eax,%eax
    1193:	0f 84 3d 02 00 00    	je     13d6 <root_dev_add+0x2b6>
    1199:	c7 44 24 08 64 00 00 	movl   $0x64,0x8(%esp)
    11a0:	00 
    11a1:	c7 44 24 04 47 58 02 	movl   $0x25847,0x4(%esp)
    11a8:	00 
    11a9:	89 04 24             	mov    %eax,(%esp)
    11ac:	e8 0f 12 00 00       	call   23c0 <ddf_fun_add_match_id>
    11b1:	85 c0                	test   %eax,%eax
    11b3:	0f 85 8f 01 00 00    	jne    1348 <root_dev_add+0x228>
    11b9:	89 1c 24             	mov    %ebx,(%esp)
    11bc:	e8 cf 0f 00 00       	call   2190 <ddf_fun_bind>
    11c1:	85 c0                	test   %eax,%eax
    11c3:	0f 85 f7 00 00 00    	jne    12c0 <root_dev_add+0x1a0>
    11c9:	8d 45 f4             	lea    -0xc(%ebp),%eax
    11cc:	c7 04 24 6c 58 02 00 	movl   $0x2586c,(%esp)
    11d3:	89 44 24 04          	mov    %eax,0x4(%esp)
    11d7:	e8 04 5f 01 00       	call   170e0 <sysinfo_get_data>
    11dc:	85 c0                	test   %eax,%eax
    11de:	0f 84 13 02 00 00    	je     13f7 <root_dev_add+0x2d7>
    11e4:	8b 55 f4             	mov    -0xc(%ebp),%edx
    11e7:	89 04 24             	mov    %eax,(%esp)
    11ea:	42                   	inc    %edx
    11eb:	89 54 24 04          	mov    %edx,0x4(%esp)
    11ef:	e8 0c 59 01 00       	call   16b00 <realloc>
    11f4:	89 c3                	mov    %eax,%ebx
    11f6:	85 c0                	test   %eax,%eax
    11f8:	0f 84 15 02 00 00    	je     1413 <root_dev_add+0x2f3>
    11fe:	8b 45 f4             	mov    -0xc(%ebp),%eax
    1201:	c6 04 03 00          	movb   $0x0,(%ebx,%eax,1)
    1205:	8d 45 f0             	lea    -0x10(%ebp),%eax
    1208:	89 5c 24 08          	mov    %ebx,0x8(%esp)
    120c:	c7 44 24 04 8f 58 02 	movl   $0x2588f,0x4(%esp)
    1213:	00 
    1214:	89 04 24             	mov    %eax,(%esp)
    1217:	e8 f4 dc 00 00       	call   ef10 <asprintf>
    121c:	40                   	inc    %eax
    121d:	0f 84 8d 01 00 00    	je     13b0 <root_dev_add+0x290>
    1223:	89 1c 24             	mov    %ebx,(%esp)
    1226:	e8 85 56 01 00       	call   168b0 <free>
    122b:	8b 45 f0             	mov    -0x10(%ebp),%eax
    122e:	89 44 24 10          	mov    %eax,0x10(%esp)
    1232:	c7 44 24 0c 64 00 00 	movl   $0x64,0xc(%esp)
    1239:	00 
    123a:	c7 44 24 08 9b 58 02 	movl   $0x2589b,0x8(%esp)
    1241:	00 
    1242:	c7 44 24 04 90 59 02 	movl   $0x25990,0x4(%esp)
    1249:	00 
    124a:	c7 04 24 04 00 00 00 	movl   $0x4,(%esp)
    1251:	e8 0a 17 00 00       	call   2960 <ddf_msg>
    1256:	89 34 24             	mov    %esi,(%esp)
    1259:	c7 44 24 08 9b 58 02 	movl   $0x2589b,0x8(%esp)
    1260:	00 
    1261:	c7 44 24 04 01 00 00 	movl   $0x1,0x4(%esp)
    1268:	00 
    1269:	e8 92 0c 00 00       	call   1f00 <ddf_fun_create>
    126e:	89 c6                	mov    %eax,%esi
    1270:	85 c0                	test   %eax,%eax
    1272:	0f 84 b9 01 00 00    	je     1431 <root_dev_add+0x311>
    1278:	8b 45 f0             	mov    -0x10(%ebp),%eax
    127b:	c7 44 24 08 64 00 00 	movl   $0x64,0x8(%esp)
    1282:	00 
    1283:	89 44 24 04          	mov    %eax,0x4(%esp)
    1287:	89 34 24             	mov    %esi,(%esp)
    128a:	e8 31 11 00 00       	call   23c0 <ddf_fun_add_match_id>
    128f:	89 c3                	mov    %eax,%ebx
    1291:	85 c0                	test   %eax,%eax
    1293:	0f 85 df 00 00 00    	jne    1378 <root_dev_add+0x258>
    1299:	8b 45 f0             	mov    -0x10(%ebp),%eax
    129c:	89 04 24             	mov    %eax,(%esp)
    129f:	e8 0c 56 01 00       	call   168b0 <free>
    12a4:	89 34 24             	mov    %esi,(%esp)
    12a7:	e8 e4 0e 00 00       	call   2190 <ddf_fun_bind>
    12ac:	89 c3                	mov    %eax,%ebx
    12ae:	85 c0                	test   %eax,%eax
    12b0:	75 46                	jne    12f8 <root_dev_add+0x1d8>
    12b2:	83 c4 30             	add    $0x30,%esp
    12b5:	89 d8                	mov    %ebx,%eax
    12b7:	5b                   	pop    %ebx
    12b8:	5e                   	pop    %esi
    12b9:	5d                   	pop    %ebp
    12ba:	c3                   	ret    
    12bb:	90                   	nop
    12bc:	8d 74 26 00          	lea    0x0(%esi,%eiz,1),%esi
    12c0:	89 04 24             	mov    %eax,(%esp)
    12c3:	e8 68 b7 00 00       	call   ca30 <str_error>
    12c8:	c7 44 24 08 4b 58 02 	movl   $0x2584b,0x8(%esp)
    12cf:	00 
    12d0:	89 44 24 0c          	mov    %eax,0xc(%esp)
    12d4:	c7 44 24 04 50 59 02 	movl   $0x25950,0x4(%esp)
    12db:	00 
    12dc:	c7 04 24 01 00 00 00 	movl   $0x1,(%esp)
    12e3:	e8 78 16 00 00       	call   2960 <ddf_msg>
    12e8:	89 1c 24             	mov    %ebx,(%esp)
    12eb:	e8 90 0d 00 00       	call   2080 <ddf_fun_destroy>
    12f0:	e9 d4 fe ff ff       	jmp    11c9 <root_dev_add+0xa9>
    12f5:	8d 76 00             	lea    0x0(%esi),%esi
    12f8:	89 04 24             	mov    %eax,(%esp)
    12fb:	e8 30 b7 00 00       	call   ca30 <str_error>
    1300:	c7 44 24 08 9b 58 02 	movl   $0x2589b,0x8(%esp)
    1307:	00 
    1308:	89 44 24 0c          	mov    %eax,0xc(%esp)
    130c:	c7 44 24 04 50 59 02 	movl   $0x25950,0x4(%esp)
    1313:	00 
    1314:	c7 04 24 01 00 00 00 	movl   $0x1,(%esp)
    131b:	e8 40 16 00 00       	call   2960 <ddf_msg>
    1320:	89 34 24             	mov    %esi,(%esp)
    1323:	e8 58 0d 00 00       	call   2080 <ddf_fun_destroy>
    1328:	c7 44 24 04 cc 59 02 	movl   $0x259cc,0x4(%esp)
    132f:	00 
    1330:	c7 04 24 01 00 00 00 	movl   $0x1,(%esp)
    1337:	e8 24 16 00 00       	call   2960 <ddf_msg>
    133c:	83 c4 30             	add    $0x30,%esp
    133f:	89 d8                	mov    %ebx,%eax
    1341:	5b                   	pop    %ebx
    1342:	5e                   	pop    %esi
    1343:	5d                   	pop    %ebp
    1344:	c3                   	ret    
    1345:	8d 76 00             	lea    0x0(%esi),%esi
    1348:	c7 44 24 08 4b 58 02 	movl   $0x2584b,0x8(%esp)
    134f:	00 
    1350:	c7 44 24 04 28 59 02 	movl   $0x25928,0x4(%esp)
    1357:	00 
    1358:	c7 04 24 01 00 00 00 	movl   $0x1,(%esp)
    135f:	e8 fc 15 00 00       	call   2960 <ddf_msg>
    1364:	89 1c 24             	mov    %ebx,(%esp)
    1367:	e8 14 0d 00 00       	call   2080 <ddf_fun_destroy>
    136c:	e9 58 fe ff ff       	jmp    11c9 <root_dev_add+0xa9>
    1371:	8d b4 26 00 00 00 00 	lea    0x0(%esi,%eiz,1),%esi
    1378:	c7 44 24 08 9b 58 02 	movl   $0x2589b,0x8(%esp)
    137f:	00 
    1380:	c7 44 24 04 28 59 02 	movl   $0x25928,0x4(%esp)
    1387:	00 
    1388:	c7 04 24 01 00 00 00 	movl   $0x1,(%esp)
    138f:	e8 cc 15 00 00       	call   2960 <ddf_msg>
    1394:	8b 45 f0             	mov    -0x10(%ebp),%eax
    1397:	89 04 24             	mov    %eax,(%esp)
    139a:	e8 11 55 01 00       	call   168b0 <free>
    139f:	89 34 24             	mov    %esi,(%esp)
    13a2:	e8 d9 0c 00 00       	call   2080 <ddf_fun_destroy>
    13a7:	e9 7c ff ff ff       	jmp    1328 <root_dev_add+0x208>
    13ac:	8d 74 26 00          	lea    0x0(%esi,%eiz,1),%esi
    13b0:	c7 44 24 04 75 58 02 	movl   $0x25875,0x4(%esp)
    13b7:	00 
    13b8:	c7 04 24 01 00 00 00 	movl   $0x1,(%esp)
    13bf:	e8 9c 15 00 00       	call   2960 <ddf_msg>
    13c4:	89 1c 24             	mov    %ebx,(%esp)
    13c7:	e8 e4 54 01 00       	call   168b0 <free>
    13cc:	bb fe ff ff ff       	mov    $0xfffffffe,%ebx
    13d1:	e9 52 ff ff ff       	jmp    1328 <root_dev_add+0x208>
    13d6:	c7 44 24 08 4b 58 02 	movl   $0x2584b,0x8(%esp)
    13dd:	00 
    13de:	c7 44 24 04 50 58 02 	movl   $0x25850,0x4(%esp)
    13e5:	00 
    13e6:	c7 04 24 01 00 00 00 	movl   $0x1,(%esp)
    13ed:	e8 6e 15 00 00       	call   2960 <ddf_msg>
    13f2:	e9 d2 fd ff ff       	jmp    11c9 <root_dev_add+0xa9>
    13f7:	c7 44 24 04 70 59 02 	movl   $0x25970,0x4(%esp)
    13fe:	00 
    13ff:	c7 04 24 01 00 00 00 	movl   $0x1,(%esp)
    1406:	e8 55 15 00 00       	call   2960 <ddf_msg>
    140b:	83 cb ff             	or     $0xffffffff,%ebx
    140e:	e9 15 ff ff ff       	jmp    1328 <root_dev_add+0x208>
    1413:	c7 44 24 04 75 58 02 	movl   $0x25875,0x4(%esp)
    141a:	00 
    141b:	c7 04 24 01 00 00 00 	movl   $0x1,(%esp)
    1422:	e8 39 15 00 00       	call   2960 <ddf_msg>
    1427:	bb fe ff ff ff       	mov    $0xfffffffe,%ebx
    142c:	e9 f7 fe ff ff       	jmp    1328 <root_dev_add+0x208>
    1431:	c7 44 24 08 9b 58 02 	movl   $0x2589b,0x8(%esp)
    1438:	00 
    1439:	c7 44 24 04 9e 58 02 	movl   $0x2589e,0x4(%esp)
    1440:	00 
    1441:	c7 04 24 01 00 00 00 	movl   $0x1,(%esp)
    1448:	bb fe ff ff ff       	mov    $0xfffffffe,%ebx
    144d:	e8 0e 15 00 00       	call   2960 <ddf_msg>
    1452:	8b 45 f0             	mov    -0x10(%ebp),%eax
    1455:	89 04 24             	mov    %eax,(%esp)
    1458:	e8 53 54 01 00       	call   168b0 <free>
    145d:	e9 c6 fe ff ff       	jmp    1328 <root_dev_add+0x208>
    1462:	66 90                	xchg   %ax,%ax
    1464:	66 90                	xchg   %ax,%ax
    1466:	66 90                	xchg   %ax,%ax
    1468:	66 90                	xchg   %ax,%ax
    146a:	66 90                	xchg   %ax,%ax
    146c:	66 90                	xchg   %ax,%ax
    146e:	66 90                	xchg   %ax,%ax

00001470 <main>:
    1470:	55                   	push   %ebp
    1471:	89 e5                	mov    %esp,%ebp
    1473:	83 e4 f0             	and    $0xfffffff0,%esp
    1476:	83 ec 10             	sub    $0x10,%esp
    1479:	c7 04 24 f8 59 02 00 	movl   $0x259f8,(%esp)
    1480:	e8 cb ff 00 00       	call   11450 <printf>
    1485:	c7 04 24 b9 58 02 00 	movl   $0x258b9,(%esp)
    148c:	e8 bf 14 00 00       	call   2950 <ddf_log_init>
    1491:	c7 04 24 20 8a 02 00 	movl   $0x28a20,(%esp)
    1498:	e8 d3 10 00 00       	call   2570 <ddf_driver_main>
    149d:	c9                   	leave  
    149e:	c3                   	ret    
    149f:	90                   	nop

000014a0 <driver_connection_gen.isra.8>:
    14a0:	55                   	push   %ebp
    14a1:	89 e5                	mov    %esp,%ebp
    14a3:	57                   	push   %edi
    14a4:	56                   	push   %esi
    14a5:	53                   	push   %ebx
    14a6:	83 ec 5c             	sub    $0x5c,%esp
    14a9:	89 c6                	mov    %eax,%esi
    14ab:	8b 7a 08             	mov    0x8(%edx),%edi
    14ae:	89 55 a8             	mov    %edx,-0x58(%ebp)
    14b1:	c7 04 24 3c 8a 02 00 	movl   $0x28a3c,(%esp)
    14b8:	e8 63 bf 00 00       	call   d420 <fibril_mutex_lock>
    14bd:	c7 04 24 3c 8a 02 00 	movl   $0x28a3c,(%esp)
    14c4:	e8 87 c1 00 00       	call   d650 <fibril_mutex_is_locked>
    14c9:	8b 55 a8             	mov    -0x58(%ebp),%edx
    14cc:	84 c0                	test   %al,%al
    14ce:	0f 84 a6 02 00 00    	je     177a <driver_connection_gen.isra.8+0x2da>
    14d4:	a1 50 8a 02 00       	mov    0x28a50,%eax
    14d9:	3d 4c 8a 02 00       	cmp    $0x28a4c,%eax
    14de:	75 12                	jne    14f2 <driver_connection_gen.isra.8+0x52>
    14e0:	eb 46                	jmp    1528 <driver_connection_gen.isra.8+0x88>
    14e2:	8d b6 00 00 00 00    	lea    0x0(%esi),%esi
    14e8:	8b 40 04             	mov    0x4(%eax),%eax
    14eb:	3d 4c 8a 02 00       	cmp    $0x28a4c,%eax
    14f0:	74 36                	je     1528 <driver_connection_gen.isra.8+0x88>
    14f2:	8d 58 d4             	lea    -0x2c(%eax),%ebx
    14f5:	3b 7b 04             	cmp    0x4(%ebx),%edi
    14f8:	75 ee                	jne    14e8 <driver_connection_gen.isra.8+0x48>
    14fa:	c7 04 24 3c 8a 02 00 	movl   $0x28a3c,(%esp)
    1501:	89 55 a8             	mov    %edx,-0x58(%ebp)
    1504:	e8 37 c0 00 00       	call   d540 <fibril_mutex_unlock>
    1509:	8b 43 28             	mov    0x28(%ebx),%eax
    150c:	85 c0                	test   %eax,%eax
    150e:	8b 55 a8             	mov    -0x58(%ebp),%edx
    1511:	74 55                	je     1568 <driver_connection_gen.isra.8+0xc8>
    1513:	89 5c 24 08          	mov    %ebx,0x8(%esp)
    1517:	89 34 24             	mov    %esi,(%esp)
    151a:	89 54 24 04          	mov    %edx,0x4(%esp)
    151e:	ff d0                	call   *%eax
    1520:	83 c4 5c             	add    $0x5c,%esp
    1523:	5b                   	pop    %ebx
    1524:	5e                   	pop    %esi
    1525:	5f                   	pop    %edi
    1526:	5d                   	pop    %ebp
    1527:	c3                   	ret    
    1528:	c7 04 24 3c 8a 02 00 	movl   $0x28a3c,(%esp)
    152f:	e8 0c c0 00 00       	call   d540 <fibril_mutex_unlock>
    1534:	a1 a0 8e 02 00       	mov    0x28ea0,%eax
    1539:	89 7c 24 08          	mov    %edi,0x8(%esp)
    153d:	8b 00                	mov    (%eax),%eax
    153f:	c7 04 24 60 5c 02 00 	movl   $0x25c60,(%esp)
    1546:	89 44 24 04          	mov    %eax,0x4(%esp)
    154a:	e8 01 ff 00 00       	call   11450 <printf>
    154f:	c7 44 24 04 ff ff ff 	movl   $0xffffffff,0x4(%esp)
    1556:	ff 
    1557:	89 34 24             	mov    %esi,(%esp)
    155a:	e8 f1 80 01 00       	call   19650 <async_answer_0>
    155f:	83 c4 5c             	add    $0x5c,%esp
    1562:	5b                   	pop    %ebx
    1563:	5e                   	pop    %esi
    1564:	5f                   	pop    %edi
    1565:	5d                   	pop    %ebp
    1566:	c3                   	ret    
    1567:	90                   	nop
    1568:	8b 43 24             	mov    0x24(%ebx),%eax
    156b:	85 c0                	test   %eax,%eax
    156d:	0f 84 cd 01 00 00    	je     1740 <driver_connection_gen.isra.8+0x2a0>
    1573:	8b 00                	mov    (%eax),%eax
    1575:	85 c0                	test   %eax,%eax
    1577:	0f 84 c3 01 00 00    	je     1740 <driver_connection_gen.isra.8+0x2a0>
    157d:	89 1c 24             	mov    %ebx,(%esp)
    1580:	ff d0                	call   *%eax
    1582:	89 34 24             	mov    %esi,(%esp)
    1585:	89 44 24 04          	mov    %eax,0x4(%esp)
    1589:	89 45 a8             	mov    %eax,-0x58(%ebp)
    158c:	e8 bf 80 01 00       	call   19650 <async_answer_0>
    1591:	8b 55 a8             	mov    -0x58(%ebp),%edx
    1594:	85 d2                	test   %edx,%edx
    1596:	75 c7                	jne    155f <driver_connection_gen.isra.8+0xbf>
    1598:	8d 55 c4             	lea    -0x3c(%ebp),%edx
    159b:	89 7d ac             	mov    %edi,-0x54(%ebp)
    159e:	89 55 b4             	mov    %edx,-0x4c(%ebp)
    15a1:	8d b4 26 00 00 00 00 	lea    0x0(%esi,%eiz,1),%esi
    15a8:	c7 44 24 04 00 00 00 	movl   $0x0,0x4(%esp)
    15af:	00 
    15b0:	89 14 24             	mov    %edx,(%esp)
    15b3:	e8 68 6a 01 00       	call   18020 <async_get_call_timeout>
    15b8:	8b 75 c4             	mov    -0x3c(%ebp),%esi
    15bb:	89 c7                	mov    %eax,%edi
    15bd:	85 f6                	test   %esi,%esi
    15bf:	0f 84 eb 00 00 00    	je     16b0 <driver_connection_gen.isra.8+0x210>
    15c5:	81 ee 00 04 00 00    	sub    $0x400,%esi
    15cb:	89 34 24             	mov    %esi,(%esp)
    15ce:	e8 8d 10 00 00       	call   2660 <is_valid_iface_idx>
    15d3:	84 c0                	test   %al,%al
    15d5:	75 31                	jne    1608 <driver_connection_gen.isra.8+0x168>
    15d7:	8b 43 24             	mov    0x24(%ebx),%eax
    15da:	85 c0                	test   %eax,%eax
    15dc:	0f 84 96 00 00 00    	je     1678 <driver_connection_gen.isra.8+0x1d8>
    15e2:	8b 40 34             	mov    0x34(%eax),%eax
    15e5:	85 c0                	test   %eax,%eax
    15e7:	0f 84 8b 00 00 00    	je     1678 <driver_connection_gen.isra.8+0x1d8>
    15ed:	8b 55 b4             	mov    -0x4c(%ebp),%edx
    15f0:	89 7c 24 04          	mov    %edi,0x4(%esp)
    15f4:	89 54 24 08          	mov    %edx,0x8(%esp)
    15f8:	89 1c 24             	mov    %ebx,(%esp)
    15fb:	ff d0                	call   *%eax
    15fd:	8b 55 b4             	mov    -0x4c(%ebp),%edx
    1600:	eb a6                	jmp    15a8 <driver_connection_gen.isra.8+0x108>
    1602:	8d b6 00 00 00 00    	lea    0x0(%esi),%esi
    1608:	89 34 24             	mov    %esi,(%esp)
    160b:	e8 50 10 00 00       	call   2660 <is_valid_iface_idx>
    1610:	84 c0                	test   %al,%al
    1612:	0f 84 46 01 00 00    	je     175e <driver_connection_gen.isra.8+0x2be>
    1618:	8b 43 24             	mov    0x24(%ebx),%eax
    161b:	85 c0                	test   %eax,%eax
    161d:	0f 84 bd 00 00 00    	je     16e0 <driver_connection_gen.isra.8+0x240>
    1623:	8b 44 b0 08          	mov    0x8(%eax,%esi,4),%eax
    1627:	89 45 b0             	mov    %eax,-0x50(%ebp)
    162a:	85 c0                	test   %eax,%eax
    162c:	0f 84 ae 00 00 00    	je     16e0 <driver_connection_gen.isra.8+0x240>
    1632:	89 34 24             	mov    %esi,(%esp)
    1635:	e8 c6 0f 00 00       	call   2600 <get_remote_iface>
    163a:	85 c0                	test   %eax,%eax
    163c:	0f 84 54 01 00 00    	je     1796 <driver_connection_gen.isra.8+0x2f6>
    1642:	8b 55 c8             	mov    -0x38(%ebp),%edx
    1645:	89 04 24             	mov    %eax,(%esp)
    1648:	89 54 24 04          	mov    %edx,0x4(%esp)
    164c:	e8 ef 0f 00 00       	call   2640 <get_remote_method>
    1651:	85 c0                	test   %eax,%eax
    1653:	0f 84 b7 00 00 00    	je     1710 <driver_connection_gen.isra.8+0x270>
    1659:	8b 55 b4             	mov    -0x4c(%ebp),%edx
    165c:	89 7c 24 08          	mov    %edi,0x8(%esp)
    1660:	89 54 24 0c          	mov    %edx,0xc(%esp)
    1664:	8b 55 b0             	mov    -0x50(%ebp),%edx
    1667:	89 54 24 04          	mov    %edx,0x4(%esp)
    166b:	89 1c 24             	mov    %ebx,(%esp)
    166e:	ff d0                	call   *%eax
    1670:	8b 55 b4             	mov    -0x4c(%ebp),%edx
    1673:	e9 30 ff ff ff       	jmp    15a8 <driver_connection_gen.isra.8+0x108>
    1678:	a1 a0 8e 02 00       	mov    0x28ea0,%eax
    167d:	89 74 24 08          	mov    %esi,0x8(%esp)
    1681:	8b 00                	mov    (%eax),%eax
    1683:	c7 04 24 8c 5b 02 00 	movl   $0x25b8c,(%esp)
    168a:	89 44 24 04          	mov    %eax,0x4(%esp)
    168e:	e8 bd fd 00 00       	call   11450 <printf>
    1693:	c7 44 24 04 f5 ff ff 	movl   $0xfffffff5,0x4(%esp)
    169a:	ff 
    169b:	89 3c 24             	mov    %edi,(%esp)
    169e:	e8 ad 7f 01 00       	call   19650 <async_answer_0>
    16a3:	8b 55 b4             	mov    -0x4c(%ebp),%edx
    16a6:	e9 fd fe ff ff       	jmp    15a8 <driver_connection_gen.isra.8+0x108>
    16ab:	90                   	nop
    16ac:	8d 74 26 00          	lea    0x0(%esi,%eiz,1),%esi
    16b0:	8b 43 24             	mov    0x24(%ebx),%eax
    16b3:	85 c0                	test   %eax,%eax
    16b5:	74 0c                	je     16c3 <driver_connection_gen.isra.8+0x223>
    16b7:	8b 40 04             	mov    0x4(%eax),%eax
    16ba:	85 c0                	test   %eax,%eax
    16bc:	74 05                	je     16c3 <driver_connection_gen.isra.8+0x223>
    16be:	89 1c 24             	mov    %ebx,(%esp)
    16c1:	ff d0                	call   *%eax
    16c3:	89 3c 24             	mov    %edi,(%esp)
    16c6:	c7 44 24 04 00 00 00 	movl   $0x0,0x4(%esp)
    16cd:	00 
    16ce:	e8 7d 7f 01 00       	call   19650 <async_answer_0>
    16d3:	83 c4 5c             	add    $0x5c,%esp
    16d6:	5b                   	pop    %ebx
    16d7:	5e                   	pop    %esi
    16d8:	5f                   	pop    %edi
    16d9:	5d                   	pop    %ebp
    16da:	c3                   	ret    
    16db:	90                   	nop
    16dc:	8d 74 26 00          	lea    0x0(%esi,%eiz,1),%esi
    16e0:	a1 a0 8e 02 00       	mov    0x28ea0,%eax
    16e5:	8b 00                	mov    (%eax),%eax
    16e7:	c7 04 24 c8 5b 02 00 	movl   $0x25bc8,(%esp)
    16ee:	89 44 24 04          	mov    %eax,0x4(%esp)
    16f2:	e8 59 fd 00 00       	call   11450 <printf>
    16f7:	8b 55 ac             	mov    -0x54(%ebp),%edx
    16fa:	89 74 24 08          	mov    %esi,0x8(%esp)
    16fe:	89 54 24 04          	mov    %edx,0x4(%esp)
    1702:	c7 04 24 ec 5b 02 00 	movl   $0x25bec,(%esp)
    1709:	eb 83                	jmp    168e <driver_connection_gen.isra.8+0x1ee>
    170b:	90                   	nop
    170c:	8d 74 26 00          	lea    0x0(%esi,%eiz,1),%esi
    1710:	a1 a0 8e 02 00       	mov    0x28ea0,%eax
    1715:	8b 00                	mov    (%eax),%eax
    1717:	c7 04 24 24 5c 02 00 	movl   $0x25c24,(%esp)
    171e:	89 44 24 04          	mov    %eax,0x4(%esp)
    1722:	e8 29 fd 00 00       	call   11450 <printf>
    1727:	c7 44 24 04 f5 ff ff 	movl   $0xfffffff5,0x4(%esp)
    172e:	ff 
    172f:	89 3c 24             	mov    %edi,(%esp)
    1732:	e8 19 7f 01 00       	call   19650 <async_answer_0>
    1737:	8b 55 b4             	mov    -0x4c(%ebp),%edx
    173a:	e9 69 fe ff ff       	jmp    15a8 <driver_connection_gen.isra.8+0x108>
    173f:	90                   	nop
    1740:	c7 44 24 04 00 00 00 	movl   $0x0,0x4(%esp)
    1747:	00 
    1748:	89 34 24             	mov    %esi,(%esp)
    174b:	e8 00 7f 01 00       	call   19650 <async_answer_0>
    1750:	8d 55 c4             	lea    -0x3c(%ebp),%edx
    1753:	89 55 b4             	mov    %edx,-0x4c(%ebp)
    1756:	89 7d ac             	mov    %edi,-0x54(%ebp)
    1759:	e9 4a fe ff ff       	jmp    15a8 <driver_connection_gen.isra.8+0x108>
    175e:	c7 44 24 08 1e 03 00 	movl   $0x31e,0x8(%esp)
    1765:	00 
    1766:	c7 44 24 04 1a 5a 02 	movl   $0x25a1a,0x4(%esp)
    176d:	00 
    176e:	c7 04 24 2b 5a 02 00 	movl   $0x25a2b,(%esp)
    1775:	e8 f6 fb 01 00       	call   21370 <assert_abort>
    177a:	c7 44 24 08 75 00 00 	movl   $0x75,0x8(%esp)
    1781:	00 
    1782:	c7 44 24 04 1a 5a 02 	movl   $0x25a1a,0x4(%esp)
    1789:	00 
    178a:	c7 04 24 60 5b 02 00 	movl   $0x25b60,(%esp)
    1791:	e8 da fb 01 00       	call   21370 <assert_abort>
    1796:	c7 44 24 08 a6 01 00 	movl   $0x1a6,0x8(%esp)
    179d:	00 
    179e:	c7 44 24 04 1a 5a 02 	movl   $0x25a1a,0x4(%esp)
    17a5:	00 
    17a6:	c7 04 24 43 5a 02 00 	movl   $0x25a43,(%esp)
    17ad:	e8 be fb 01 00       	call   21370 <assert_abort>
    17b2:	8d b4 26 00 00 00 00 	lea    0x0(%esi,%eiz,1),%esi
    17b9:	8d bc 27 00 00 00 00 	lea    0x0(%edi,%eiz,1),%edi

000017c0 <driver_connection>:
    17c0:	55                   	push   %ebp
    17c1:	89 e5                	mov    %esp,%ebp
    17c3:	57                   	push   %edi
    17c4:	56                   	push   %esi
    17c5:	53                   	push   %ebx
    17c6:	83 ec 6c             	sub    $0x6c,%esp
    17c9:	8b 45 08             	mov    0x8(%ebp),%eax
    17cc:	85 c0                	test   %eax,%eax
    17ce:	75 58                	jne    1828 <driver_connection+0x68>
    17d0:	c7 44 24 04 00 00 00 	movl   $0x0,0x4(%esp)
    17d7:	00 
    17d8:	89 04 24             	mov    %eax,(%esp)
    17db:	e8 70 7e 01 00       	call   19650 <async_answer_0>
    17e0:	8d 45 c4             	lea    -0x3c(%ebp),%eax
    17e3:	c7 44 24 04 00 00 00 	movl   $0x0,0x4(%esp)
    17ea:	00 
    17eb:	89 04 24             	mov    %eax,(%esp)
    17ee:	e8 2d 68 01 00       	call   18020 <async_get_call_timeout>
    17f3:	89 c6                	mov    %eax,%esi
    17f5:	8b 45 c4             	mov    -0x3c(%ebp),%eax
    17f8:	85 c0                	test   %eax,%eax
    17fa:	74 3e                	je     183a <driver_connection+0x7a>
    17fc:	2d 00 04 00 00       	sub    $0x400,%eax
    1801:	83 f8 04             	cmp    $0x4,%eax
    1804:	76 12                	jbe    1818 <driver_connection+0x58>
    1806:	c7 44 24 04 f5 ff ff 	movl   $0xfffffff5,0x4(%esp)
    180d:	ff 
    180e:	89 34 24             	mov    %esi,(%esp)
    1811:	e8 3a 7e 01 00       	call   19650 <async_answer_0>
    1816:	eb c8                	jmp    17e0 <driver_connection+0x20>
    1818:	8b 7d c8             	mov    -0x38(%ebp),%edi
    181b:	ff 24 85 10 5d 02 00 	jmp    *0x25d10(,%eax,4)
    1822:	8d b6 00 00 00 00    	lea    0x0(%esi),%esi
    1828:	8b 4d 0c             	mov    0xc(%ebp),%ecx
    182b:	8b 51 04             	mov    0x4(%ecx),%edx
    182e:	83 fa 02             	cmp    $0x2,%edx
    1831:	75 15                	jne    1848 <driver_connection+0x88>
    1833:	89 ca                	mov    %ecx,%edx
    1835:	e8 66 fc ff ff       	call   14a0 <driver_connection_gen.isra.8>
    183a:	83 c4 6c             	add    $0x6c,%esp
    183d:	5b                   	pop    %ebx
    183e:	5e                   	pop    %esi
    183f:	5f                   	pop    %edi
    1840:	5d                   	pop    %ebp
    1841:	c3                   	ret    
    1842:	8d b6 00 00 00 00    	lea    0x0(%esi),%esi
    1848:	83 fa 03             	cmp    $0x3,%edx
    184b:	0f 84 2f 03 00 00    	je     1b80 <driver_connection+0x3c0>
    1851:	4a                   	dec    %edx
    1852:	0f 84 78 ff ff ff    	je     17d0 <driver_connection+0x10>
    1858:	c7 44 24 04 ff ff ff 	movl   $0xffffffff,0x4(%esp)
    185f:	ff 
    1860:	89 04 24             	mov    %eax,(%esp)
    1863:	e8 e8 7d 01 00       	call   19650 <async_answer_0>
    1868:	83 c4 6c             	add    $0x6c,%esp
    186b:	5b                   	pop    %ebx
    186c:	5e                   	pop    %esi
    186d:	5f                   	pop    %edi
    186e:	5d                   	pop    %ebp
    186f:	c3                   	ret    
    1870:	c7 04 24 3c 8a 02 00 	movl   $0x28a3c,(%esp)
    1877:	e8 a4 bb 00 00       	call   d420 <fibril_mutex_lock>
    187c:	c7 04 24 3c 8a 02 00 	movl   $0x28a3c,(%esp)
    1883:	e8 c8 bd 00 00       	call   d650 <fibril_mutex_is_locked>
    1888:	84 c0                	test   %al,%al
    188a:	0f 84 a0 04 00 00    	je     1d30 <driver_connection+0x570>
    1890:	a1 50 8a 02 00       	mov    0x28a50,%eax
    1895:	3d 4c 8a 02 00       	cmp    $0x28a4c,%eax
    189a:	75 1a                	jne    18b6 <driver_connection+0xf6>
    189c:	e9 87 03 00 00       	jmp    1c28 <driver_connection+0x468>
    18a1:	8d b4 26 00 00 00 00 	lea    0x0(%esi,%eiz,1),%esi
    18a8:	8b 40 04             	mov    0x4(%eax),%eax
    18ab:	3d 4c 8a 02 00       	cmp    $0x28a4c,%eax
    18b0:	0f 84 72 03 00 00    	je     1c28 <driver_connection+0x468>
    18b6:	8d 58 d4             	lea    -0x2c(%eax),%ebx
    18b9:	3b 7b 04             	cmp    0x4(%ebx),%edi
    18bc:	75 ea                	jne    18a8 <driver_connection+0xe8>
    18be:	8b 43 0c             	mov    0xc(%ebx),%eax
    18c1:	f0 ff 40 04          	lock incl 0x4(%eax)
    18c5:	8d 7b 08             	lea    0x8(%ebx),%edi
    18c8:	f0 ff 43 08          	lock incl 0x8(%ebx)
    18cc:	c7 04 24 3c 8a 02 00 	movl   $0x28a3c,(%esp)
    18d3:	e8 68 bc 00 00       	call   d540 <fibril_mutex_unlock>
    18d8:	a1 a0 8e 02 00       	mov    0x28ea0,%eax
    18dd:	8b 40 04             	mov    0x4(%eax),%eax
    18e0:	8b 40 0c             	mov    0xc(%eax),%eax
    18e3:	85 c0                	test   %eax,%eax
    18e5:	0f 84 e5 02 00 00    	je     1bd0 <driver_connection+0x410>
    18eb:	89 1c 24             	mov    %ebx,(%esp)
    18ee:	ff d0                	call   *%eax
    18f0:	89 45 b0             	mov    %eax,-0x50(%ebp)
    18f3:	8b 4b 0c             	mov    0xc(%ebx),%ecx
    18f6:	83 c8 ff             	or     $0xffffffff,%eax
    18f9:	89 4d b4             	mov    %ecx,-0x4c(%ebp)
    18fc:	f0 0f c1 07          	lock xadd %eax,(%edi)
    1900:	48                   	dec    %eax
    1901:	0f 84 81 03 00 00    	je     1c88 <driver_connection+0x4c8>
    1907:	83 c8 ff             	or     $0xffffffff,%eax
    190a:	8b 55 b4             	mov    -0x4c(%ebp),%edx
    190d:	f0 0f c1 42 04       	lock xadd %eax,0x4(%edx)
    1912:	48                   	dec    %eax
    1913:	0f 84 37 03 00 00    	je     1c50 <driver_connection+0x490>
    1919:	8b 45 b0             	mov    -0x50(%ebp),%eax
    191c:	e9 88 00 00 00       	jmp    19a9 <driver_connection+0x1e9>
    1921:	8d b4 26 00 00 00 00 	lea    0x0(%esi,%eiz,1),%esi
    1928:	c7 04 24 54 8a 02 00 	movl   $0x28a54,(%esp)
    192f:	e8 ec ba 00 00       	call   d420 <fibril_mutex_lock>
    1934:	c7 04 24 54 8a 02 00 	movl   $0x28a54,(%esp)
    193b:	e8 10 bd 00 00       	call   d650 <fibril_mutex_is_locked>
    1940:	84 c0                	test   %al,%al
    1942:	0f 84 04 04 00 00    	je     1d4c <driver_connection+0x58c>
    1948:	a1 68 8a 02 00       	mov    0x28a68,%eax
    194d:	3d 64 8a 02 00       	cmp    $0x28a64,%eax
    1952:	75 1a                	jne    196e <driver_connection+0x1ae>
    1954:	e9 a7 02 00 00       	jmp    1c00 <driver_connection+0x440>
    1959:	8d b4 26 00 00 00 00 	lea    0x0(%esi,%eiz,1),%esi
    1960:	8b 40 04             	mov    0x4(%eax),%eax
    1963:	3d 64 8a 02 00       	cmp    $0x28a64,%eax
    1968:	0f 84 92 02 00 00    	je     1c00 <driver_connection+0x440>
    196e:	8d 58 ec             	lea    -0x14(%eax),%ebx
    1971:	3b 78 ec             	cmp    -0x14(%eax),%edi
    1974:	75 ea                	jne    1960 <driver_connection+0x1a0>
    1976:	8d 7b 04             	lea    0x4(%ebx),%edi
    1979:	f0 ff 43 04          	lock incl 0x4(%ebx)
    197d:	c7 04 24 54 8a 02 00 	movl   $0x28a54,(%esp)
    1984:	e8 b7 bb 00 00       	call   d540 <fibril_mutex_unlock>
    1989:	a1 a0 8e 02 00       	mov    0x28ea0,%eax
    198e:	8b 40 04             	mov    0x4(%eax),%eax
    1991:	8b 40 08             	mov    0x8(%eax),%eax
    1994:	85 c0                	test   %eax,%eax
    1996:	0f 84 58 01 00 00    	je     1af4 <driver_connection+0x334>
    199c:	89 1c 24             	mov    %ebx,(%esp)
    199f:	ff d0                	call   *%eax
    19a1:	85 c0                	test   %eax,%eax
    19a3:	0f 84 e7 01 00 00    	je     1b90 <driver_connection+0x3d0>
    19a9:	89 44 24 04          	mov    %eax,0x4(%esp)
    19ad:	89 34 24             	mov    %esi,(%esp)
    19b0:	e8 9b 7c 01 00       	call   19650 <async_answer_0>
    19b5:	e9 26 fe ff ff       	jmp    17e0 <driver_connection+0x20>
    19ba:	8d b6 00 00 00 00    	lea    0x0(%esi),%esi
    19c0:	c7 44 24 04 1c 00 00 	movl   $0x1c,0x4(%esp)
    19c7:	00 
    19c8:	c7 04 24 01 00 00 00 	movl   $0x1,(%esp)
    19cf:	e8 6c 4d 01 00       	call   16740 <calloc>
    19d4:	89 c3                	mov    %eax,%ebx
    19d6:	f0 ff 40 04          	lock incl 0x4(%eax)
    19da:	8d 55 c0             	lea    -0x40(%ebp),%edx
    19dd:	89 38                	mov    %edi,(%eax)
    19df:	89 14 24             	mov    %edx,(%esp)
    19e2:	c7 44 24 14 00 00 00 	movl   $0x0,0x14(%esp)
    19e9:	00 
    19ea:	c7 44 24 10 00 00 00 	movl   $0x0,0x10(%esp)
    19f1:	00 
    19f2:	c7 44 24 0c 00 00 00 	movl   $0x0,0xc(%esp)
    19f9:	00 
    19fa:	c7 44 24 08 00 00 00 	movl   $0x0,0x8(%esp)
    1a01:	00 
    1a02:	c7 44 24 04 01 00 00 	movl   $0x1,0x4(%esp)
    1a09:	00 
    1a0a:	c7 45 c0 00 00 00 00 	movl   $0x0,-0x40(%ebp)
    1a11:	e8 5a 97 01 00       	call   1b170 <async_data_write_accept>
    1a16:	8b 45 c0             	mov    -0x40(%ebp),%eax
    1a19:	89 43 0c             	mov    %eax,0xc(%ebx)
    1a1c:	a1 a0 8e 02 00       	mov    0x28ea0,%eax
    1a21:	8b 40 04             	mov    0x4(%eax),%eax
    1a24:	89 1c 24             	mov    %ebx,(%esp)
    1a27:	ff 10                	call   *(%eax)
    1a29:	89 c7                	mov    %eax,%edi
    1a2b:	85 c0                	test   %eax,%eax
    1a2d:	0f 85 ad 01 00 00    	jne    1be0 <driver_connection+0x420>
    1a33:	c7 04 24 54 8a 02 00 	movl   $0x28a54,(%esp)
    1a3a:	e8 e1 b9 00 00       	call   d420 <fibril_mutex_lock>
    1a3f:	8b 15 64 8a 02 00    	mov    0x28a64,%edx
    1a45:	8d 43 14             	lea    0x14(%ebx),%eax
    1a48:	c7 43 18 64 8a 02 00 	movl   $0x28a64,0x18(%ebx)
    1a4f:	89 53 14             	mov    %edx,0x14(%ebx)
    1a52:	89 42 04             	mov    %eax,0x4(%edx)
    1a55:	c7 04 24 54 8a 02 00 	movl   $0x28a54,(%esp)
    1a5c:	a3 64 8a 02 00       	mov    %eax,0x28a64
    1a61:	e8 da ba 00 00       	call   d540 <fibril_mutex_unlock>
    1a66:	c7 44 24 04 00 00 00 	movl   $0x0,0x4(%esp)
    1a6d:	00 
    1a6e:	89 34 24             	mov    %esi,(%esp)
    1a71:	e8 da 7b 01 00       	call   19650 <async_answer_0>
    1a76:	e9 65 fd ff ff       	jmp    17e0 <driver_connection+0x20>
    1a7b:	90                   	nop
    1a7c:	8d 74 26 00          	lea    0x0(%esi,%eiz,1),%esi
    1a80:	c7 04 24 54 8a 02 00 	movl   $0x28a54,(%esp)
    1a87:	e8 94 b9 00 00       	call   d420 <fibril_mutex_lock>
    1a8c:	c7 04 24 54 8a 02 00 	movl   $0x28a54,(%esp)
    1a93:	e8 b8 bb 00 00       	call   d650 <fibril_mutex_is_locked>
    1a98:	84 c0                	test   %al,%al
    1a9a:	0f 84 ac 02 00 00    	je     1d4c <driver_connection+0x58c>
    1aa0:	a1 68 8a 02 00       	mov    0x28a68,%eax
    1aa5:	3d 64 8a 02 00       	cmp    $0x28a64,%eax
    1aaa:	75 1a                	jne    1ac6 <driver_connection+0x306>
    1aac:	e9 4f 01 00 00       	jmp    1c00 <driver_connection+0x440>
    1ab1:	8d b4 26 00 00 00 00 	lea    0x0(%esi,%eiz,1),%esi
    1ab8:	8b 40 04             	mov    0x4(%eax),%eax
    1abb:	3d 64 8a 02 00       	cmp    $0x28a64,%eax
    1ac0:	0f 84 3a 01 00 00    	je     1c00 <driver_connection+0x440>
    1ac6:	8d 58 ec             	lea    -0x14(%eax),%ebx
    1ac9:	3b 78 ec             	cmp    -0x14(%eax),%edi
    1acc:	75 ea                	jne    1ab8 <driver_connection+0x2f8>
    1ace:	8d 7b 04             	lea    0x4(%ebx),%edi
    1ad1:	f0 ff 43 04          	lock incl 0x4(%ebx)
    1ad5:	c7 04 24 54 8a 02 00 	movl   $0x28a54,(%esp)
    1adc:	e8 5f ba 00 00       	call   d540 <fibril_mutex_unlock>
    1ae1:	a1 a0 8e 02 00       	mov    0x28ea0,%eax
    1ae6:	8b 40 04             	mov    0x4(%eax),%eax
    1ae9:	8b 40 04             	mov    0x4(%eax),%eax
    1aec:	85 c0                	test   %eax,%eax
    1aee:	0f 85 a8 fe ff ff    	jne    199c <driver_connection+0x1dc>
    1af4:	b8 f5 ff ff ff       	mov    $0xfffffff5,%eax
    1af9:	e9 ab fe ff ff       	jmp    19a9 <driver_connection+0x1e9>
    1afe:	66 90                	xchg   %ax,%ax
    1b00:	c7 04 24 3c 8a 02 00 	movl   $0x28a3c,(%esp)
    1b07:	e8 14 b9 00 00       	call   d420 <fibril_mutex_lock>
    1b0c:	c7 04 24 3c 8a 02 00 	movl   $0x28a3c,(%esp)
    1b13:	e8 38 bb 00 00       	call   d650 <fibril_mutex_is_locked>
    1b18:	84 c0                	test   %al,%al
    1b1a:	0f 84 10 02 00 00    	je     1d30 <driver_connection+0x570>
    1b20:	a1 50 8a 02 00       	mov    0x28a50,%eax
    1b25:	3d 4c 8a 02 00       	cmp    $0x28a4c,%eax
    1b2a:	75 1a                	jne    1b46 <driver_connection+0x386>
    1b2c:	e9 f7 00 00 00       	jmp    1c28 <driver_connection+0x468>
    1b31:	8d b4 26 00 00 00 00 	lea    0x0(%esi,%eiz,1),%esi
    1b38:	8b 40 04             	mov    0x4(%eax),%eax
    1b3b:	3d 4c 8a 02 00       	cmp    $0x28a4c,%eax
    1b40:	0f 84 e2 00 00 00    	je     1c28 <driver_connection+0x468>
    1b46:	8d 58 d4             	lea    -0x2c(%eax),%ebx
    1b49:	3b 7b 04             	cmp    0x4(%ebx),%edi
    1b4c:	75 ea                	jne    1b38 <driver_connection+0x378>
    1b4e:	8b 43 0c             	mov    0xc(%ebx),%eax
    1b51:	f0 ff 40 04          	lock incl 0x4(%eax)
    1b55:	f0 ff 43 08          	lock incl 0x8(%ebx)
    1b59:	c7 04 24 3c 8a 02 00 	movl   $0x28a3c,(%esp)
    1b60:	e8 db b9 00 00       	call   d540 <fibril_mutex_unlock>
    1b65:	a1 a0 8e 02 00       	mov    0x28ea0,%eax
    1b6a:	8b 40 04             	mov    0x4(%eax),%eax
    1b6d:	8b 40 10             	mov    0x10(%eax),%eax
    1b70:	85 c0                	test   %eax,%eax
    1b72:	74 80                	je     1af4 <driver_connection+0x334>
    1b74:	89 1c 24             	mov    %ebx,(%esp)
    1b77:	ff d0                	call   *%eax
    1b79:	e9 2b fe ff ff       	jmp    19a9 <driver_connection+0x1e9>
    1b7e:	66 90                	xchg   %ax,%ax
    1b80:	8b 55 0c             	mov    0xc(%ebp),%edx
    1b83:	e8 18 f9 ff ff       	call   14a0 <driver_connection_gen.isra.8>
    1b88:	83 c4 6c             	add    $0x6c,%esp
    1b8b:	5b                   	pop    %ebx
    1b8c:	5e                   	pop    %esi
    1b8d:	5f                   	pop    %edi
    1b8e:	5d                   	pop    %ebp
    1b8f:	c3                   	ret    
    1b90:	83 ca ff             	or     $0xffffffff,%edx
    1b93:	f0 0f c1 17          	lock xadd %edx,(%edi)
    1b97:	4a                   	dec    %edx
    1b98:	0f 85 0b fe ff ff    	jne    19a9 <driver_connection+0x1e9>
    1b9e:	8b 43 08             	mov    0x8(%ebx),%eax
    1ba1:	85 c0                	test   %eax,%eax
    1ba3:	74 08                	je     1bad <driver_connection+0x3ed>
    1ba5:	89 04 24             	mov    %eax,(%esp)
    1ba8:	e8 a3 83 01 00       	call   19f50 <async_hangup>
    1bad:	8b 43 10             	mov    0x10(%ebx),%eax
    1bb0:	85 c0                	test   %eax,%eax
    1bb2:	74 08                	je     1bbc <driver_connection+0x3fc>
    1bb4:	89 04 24             	mov    %eax,(%esp)
    1bb7:	e8 f4 4c 01 00       	call   168b0 <free>
    1bbc:	89 1c 24             	mov    %ebx,(%esp)
    1bbf:	e8 ec 4c 01 00       	call   168b0 <free>
    1bc4:	31 c0                	xor    %eax,%eax
    1bc6:	e9 de fd ff ff       	jmp    19a9 <driver_connection+0x1e9>
    1bcb:	90                   	nop
    1bcc:	8d 74 26 00          	lea    0x0(%esi,%eiz,1),%esi
    1bd0:	c7 45 b0 f5 ff ff ff 	movl   $0xfffffff5,-0x50(%ebp)
    1bd7:	e9 17 fd ff ff       	jmp    18f3 <driver_connection+0x133>
    1bdc:	8d 74 26 00          	lea    0x0(%esi,%eiz,1),%esi
    1be0:	83 c8 ff             	or     $0xffffffff,%eax
    1be3:	f0 0f c1 43 04       	lock xadd %eax,0x4(%ebx)
    1be8:	48                   	dec    %eax
    1be9:	0f 84 16 01 00 00    	je     1d05 <driver_connection+0x545>
    1bef:	89 7c 24 04          	mov    %edi,0x4(%esp)
    1bf3:	89 34 24             	mov    %esi,(%esp)
    1bf6:	e8 55 7a 01 00       	call   19650 <async_answer_0>
    1bfb:	e9 e0 fb ff ff       	jmp    17e0 <driver_connection+0x20>
    1c00:	c7 04 24 54 8a 02 00 	movl   $0x28a54,(%esp)
    1c07:	e8 34 b9 00 00       	call   d540 <fibril_mutex_unlock>
    1c0c:	c7 44 24 04 ff ff ff 	movl   $0xffffffff,0x4(%esp)
    1c13:	ff 
    1c14:	89 34 24             	mov    %esi,(%esp)
    1c17:	e8 34 7a 01 00       	call   19650 <async_answer_0>
    1c1c:	e9 bf fb ff ff       	jmp    17e0 <driver_connection+0x20>
    1c21:	8d b4 26 00 00 00 00 	lea    0x0(%esi,%eiz,1),%esi
    1c28:	c7 04 24 3c 8a 02 00 	movl   $0x28a3c,(%esp)
    1c2f:	e8 0c b9 00 00       	call   d540 <fibril_mutex_unlock>
    1c34:	c7 44 24 04 ff ff ff 	movl   $0xffffffff,0x4(%esp)
    1c3b:	ff 
    1c3c:	89 34 24             	mov    %esi,(%esp)
    1c3f:	e8 0c 7a 01 00       	call   19650 <async_answer_0>
    1c44:	e9 97 fb ff ff       	jmp    17e0 <driver_connection+0x20>
    1c49:	8d b4 26 00 00 00 00 	lea    0x0(%esi,%eiz,1),%esi
    1c50:	8b 42 08             	mov    0x8(%edx),%eax
    1c53:	85 c0                	test   %eax,%eax
    1c55:	74 08                	je     1c5f <driver_connection+0x49f>
    1c57:	89 04 24             	mov    %eax,(%esp)
    1c5a:	e8 f1 82 01 00       	call   19f50 <async_hangup>
    1c5f:	8b 4d b4             	mov    -0x4c(%ebp),%ecx
    1c62:	8b 41 10             	mov    0x10(%ecx),%eax
    1c65:	85 c0                	test   %eax,%eax
    1c67:	74 08                	je     1c71 <driver_connection+0x4b1>
    1c69:	89 04 24             	mov    %eax,(%esp)
    1c6c:	e8 3f 4c 01 00       	call   168b0 <free>
    1c71:	8b 55 b4             	mov    -0x4c(%ebp),%edx
    1c74:	89 14 24             	mov    %edx,(%esp)
    1c77:	e8 34 4c 01 00       	call   168b0 <free>
    1c7c:	e9 98 fc ff ff       	jmp    1919 <driver_connection+0x159>
    1c81:	8d b4 26 00 00 00 00 	lea    0x0(%esi,%eiz,1),%esi
    1c88:	8d 7b 18             	lea    0x18(%ebx),%edi
    1c8b:	8b 43 1c             	mov    0x1c(%ebx),%eax
    1c8e:	39 f8                	cmp    %edi,%eax
    1c90:	74 48                	je     1cda <driver_connection+0x51a>
    1c92:	89 5d ac             	mov    %ebx,-0x54(%ebp)
    1c95:	89 c3                	mov    %eax,%ebx
    1c97:	90                   	nop
    1c98:	8b 0b                	mov    (%ebx),%ecx
    1c9a:	85 c9                	test   %ecx,%ecx
    1c9c:	74 0e                	je     1cac <driver_connection+0x4ec>
    1c9e:	8b 53 04             	mov    0x4(%ebx),%edx
    1ca1:	85 d2                	test   %edx,%edx
    1ca3:	74 07                	je     1cac <driver_connection+0x4ec>
    1ca5:	89 0a                	mov    %ecx,(%edx)
    1ca7:	8b 0b                	mov    (%ebx),%ecx
    1ca9:	89 51 04             	mov    %edx,0x4(%ecx)
    1cac:	8b 53 08             	mov    0x8(%ebx),%edx
    1caf:	c7 03 00 00 00 00    	movl   $0x0,(%ebx)
    1cb5:	c7 43 04 00 00 00 00 	movl   $0x0,0x4(%ebx)
    1cbc:	85 d2                	test   %edx,%edx
    1cbe:	74 08                	je     1cc8 <driver_connection+0x508>
    1cc0:	89 14 24             	mov    %edx,(%esp)
    1cc3:	e8 e8 4b 01 00       	call   168b0 <free>
    1cc8:	89 1c 24             	mov    %ebx,(%esp)
    1ccb:	e8 e0 4b 01 00       	call   168b0 <free>
    1cd0:	8b 5f 04             	mov    0x4(%edi),%ebx
    1cd3:	39 fb                	cmp    %edi,%ebx
    1cd5:	75 c1                	jne    1c98 <driver_connection+0x4d8>
    1cd7:	8b 5d ac             	mov    -0x54(%ebp),%ebx
    1cda:	8b 43 20             	mov    0x20(%ebx),%eax
    1cdd:	85 c0                	test   %eax,%eax
    1cdf:	74 08                	je     1ce9 <driver_connection+0x529>
    1ce1:	89 04 24             	mov    %eax,(%esp)
    1ce4:	e8 c7 4b 01 00       	call   168b0 <free>
    1ce9:	8b 43 14             	mov    0x14(%ebx),%eax
    1cec:	85 c0                	test   %eax,%eax
    1cee:	74 08                	je     1cf8 <driver_connection+0x538>
    1cf0:	89 04 24             	mov    %eax,(%esp)
    1cf3:	e8 b8 4b 01 00       	call   168b0 <free>
    1cf8:	89 1c 24             	mov    %ebx,(%esp)
    1cfb:	e8 b0 4b 01 00       	call   168b0 <free>
    1d00:	e9 02 fc ff ff       	jmp    1907 <driver_connection+0x147>
    1d05:	8b 43 08             	mov    0x8(%ebx),%eax
    1d08:	85 c0                	test   %eax,%eax
    1d0a:	74 08                	je     1d14 <driver_connection+0x554>
    1d0c:	89 04 24             	mov    %eax,(%esp)
    1d0f:	e8 3c 82 01 00       	call   19f50 <async_hangup>
    1d14:	8b 43 10             	mov    0x10(%ebx),%eax
    1d17:	85 c0                	test   %eax,%eax
    1d19:	74 08                	je     1d23 <driver_connection+0x563>
    1d1b:	89 04 24             	mov    %eax,(%esp)
    1d1e:	e8 8d 4b 01 00       	call   168b0 <free>
    1d23:	89 1c 24             	mov    %ebx,(%esp)
    1d26:	e8 85 4b 01 00       	call   168b0 <free>
    1d2b:	e9 bf fe ff ff       	jmp    1bef <driver_connection+0x42f>
    1d30:	c7 44 24 08 75 00 00 	movl   $0x75,0x8(%esp)
    1d37:	00 
    1d38:	c7 44 24 04 1a 5a 02 	movl   $0x25a1a,0x4(%esp)
    1d3f:	00 
    1d40:	c7 04 24 60 5b 02 00 	movl   $0x25b60,(%esp)
    1d47:	e8 24 f6 01 00       	call   21370 <assert_abort>
    1d4c:	c7 44 24 08 66 00 00 	movl   $0x66,0x8(%esp)
    1d53:	00 
    1d54:	c7 44 24 04 1a 5a 02 	movl   $0x25a1a,0x4(%esp)
    1d5b:	00 
    1d5c:	c7 04 24 ac 5c 02 00 	movl   $0x25cac,(%esp)
    1d63:	e8 08 f6 01 00       	call   21370 <assert_abort>
    1d68:	90                   	nop
    1d69:	8d b4 26 00 00 00 00 	lea    0x0(%esi,%eiz,1),%esi

00001d70 <ddf_dev_data_alloc>:
    1d70:	55                   	push   %ebp
    1d71:	89 e5                	mov    %esp,%ebp
    1d73:	53                   	push   %ebx
    1d74:	83 ec 14             	sub    $0x14,%esp
    1d77:	8b 5d 08             	mov    0x8(%ebp),%ebx
    1d7a:	8b 43 10             	mov    0x10(%ebx),%eax
    1d7d:	85 c0                	test   %eax,%eax
    1d7f:	75 20                	jne    1da1 <ddf_dev_data_alloc+0x31>
    1d81:	8b 45 0c             	mov    0xc(%ebp),%eax
    1d84:	c7 04 24 01 00 00 00 	movl   $0x1,(%esp)
    1d8b:	89 44 24 04          	mov    %eax,0x4(%esp)
    1d8f:	e8 ac 49 01 00       	call   16740 <calloc>
    1d94:	85 c0                	test   %eax,%eax
    1d96:	74 03                	je     1d9b <ddf_dev_data_alloc+0x2b>
    1d98:	89 43 10             	mov    %eax,0x10(%ebx)
    1d9b:	83 c4 14             	add    $0x14,%esp
    1d9e:	5b                   	pop    %ebx
    1d9f:	5d                   	pop    %ebp
    1da0:	c3                   	ret    
    1da1:	c7 44 24 08 52 02 00 	movl   $0x252,0x8(%esp)
    1da8:	00 
    1da9:	c7 44 24 04 1a 5a 02 	movl   $0x25a1a,0x4(%esp)
    1db0:	00 
    1db1:	c7 04 24 55 5a 02 00 	movl   $0x25a55,(%esp)
    1db8:	e8 b3 f5 01 00       	call   21370 <assert_abort>
    1dbd:	8d 76 00             	lea    0x0(%esi),%esi

00001dc0 <ddf_fun_data_implant>:
    1dc0:	55                   	push   %ebp
    1dc1:	89 e5                	mov    %esp,%ebp
    1dc3:	83 ec 18             	sub    $0x18,%esp
    1dc6:	8b 45 08             	mov    0x8(%ebp),%eax
    1dc9:	8b 50 20             	mov    0x20(%eax),%edx
    1dcc:	85 d2                	test   %edx,%edx
    1dce:	75 08                	jne    1dd8 <ddf_fun_data_implant+0x18>
    1dd0:	8b 55 0c             	mov    0xc(%ebp),%edx
    1dd3:	89 50 20             	mov    %edx,0x20(%eax)
    1dd6:	c9                   	leave  
    1dd7:	c3                   	ret    
    1dd8:	c7 44 24 08 63 02 00 	movl   $0x263,0x8(%esp)
    1ddf:	00 
    1de0:	c7 44 24 04 1a 5a 02 	movl   $0x25a1a,0x4(%esp)
    1de7:	00 
    1de8:	c7 04 24 6e 5a 02 00 	movl   $0x25a6e,(%esp)
    1def:	e8 7c f5 01 00       	call   21370 <assert_abort>
    1df4:	8d b6 00 00 00 00    	lea    0x0(%esi),%esi
    1dfa:	8d bf 00 00 00 00    	lea    0x0(%edi),%edi

00001e00 <ddf_dev_data_get>:
    1e00:	55                   	push   %ebp
    1e01:	89 e5                	mov    %esp,%ebp
    1e03:	8b 45 08             	mov    0x8(%ebp),%eax
    1e06:	5d                   	pop    %ebp
    1e07:	8b 40 10             	mov    0x10(%eax),%eax
    1e0a:	c3                   	ret    
    1e0b:	90                   	nop
    1e0c:	8d 74 26 00          	lea    0x0(%esi,%eiz,1),%esi

00001e10 <ddf_dev_get_handle>:
    1e10:	55                   	push   %ebp
    1e11:	89 e5                	mov    %esp,%ebp
    1e13:	8b 45 08             	mov    0x8(%ebp),%eax
    1e16:	5d                   	pop    %ebp
    1e17:	8b 00                	mov    (%eax),%eax
    1e19:	c3                   	ret    
    1e1a:	8d b6 00 00 00 00    	lea    0x0(%esi),%esi

00001e20 <ddf_dev_get_name>:
    1e20:	55                   	push   %ebp
    1e21:	89 e5                	mov    %esp,%ebp
    1e23:	8b 45 08             	mov    0x8(%ebp),%eax
    1e26:	5d                   	pop    %ebp
    1e27:	8b 40 0c             	mov    0xc(%eax),%eax
    1e2a:	c3                   	ret    
    1e2b:	90                   	nop
    1e2c:	8d 74 26 00          	lea    0x0(%esi,%eiz,1),%esi

00001e30 <ddf_dev_parent_sess_create>:
    1e30:	55                   	push   %ebp
    1e31:	89 e5                	mov    %esp,%ebp
    1e33:	53                   	push   %ebx
    1e34:	83 ec 14             	sub    $0x14,%esp
    1e37:	8b 5d 08             	mov    0x8(%ebp),%ebx
    1e3a:	8b 4b 08             	mov    0x8(%ebx),%ecx
    1e3d:	85 c9                	test   %ecx,%ecx
    1e3f:	75 22                	jne    1e63 <ddf_dev_parent_sess_create+0x33>
    1e41:	c7 44 24 08 01 00 00 	movl   $0x1,0x8(%esp)
    1e48:	00 
    1e49:	8b 03                	mov    (%ebx),%eax
    1e4b:	89 44 24 04          	mov    %eax,0x4(%esp)
    1e4f:	8b 45 0c             	mov    0xc(%ebp),%eax
    1e52:	89 04 24             	mov    %eax,(%esp)
    1e55:	e8 f6 63 00 00       	call   8250 <devman_parent_device_connect>
    1e5a:	89 43 08             	mov    %eax,0x8(%ebx)
    1e5d:	83 c4 14             	add    $0x14,%esp
    1e60:	5b                   	pop    %ebx
    1e61:	5d                   	pop    %ebp
    1e62:	c3                   	ret    
    1e63:	c7 44 24 08 87 02 00 	movl   $0x287,0x8(%esp)
    1e6a:	00 
    1e6b:	c7 44 24 04 1a 5a 02 	movl   $0x25a1a,0x4(%esp)
    1e72:	00 
    1e73:	c7 04 24 87 5a 02 00 	movl   $0x25a87,(%esp)
    1e7a:	e8 f1 f4 01 00       	call   21370 <assert_abort>
    1e7f:	90                   	nop

00001e80 <ddf_dev_parent_sess_get>:
    1e80:	55                   	push   %ebp
    1e81:	89 e5                	mov    %esp,%ebp
    1e83:	8b 45 08             	mov    0x8(%ebp),%eax
    1e86:	5d                   	pop    %ebp
    1e87:	8b 40 08             	mov    0x8(%eax),%eax
    1e8a:	c3                   	ret    
    1e8b:	90                   	nop
    1e8c:	8d 74 26 00          	lea    0x0(%esi,%eiz,1),%esi

00001e90 <ddf_fun_set_name>:
    1e90:	55                   	push   %ebp
    1e91:	89 e5                	mov    %esp,%ebp
    1e93:	53                   	push   %ebx
    1e94:	83 ec 14             	sub    $0x14,%esp
    1e97:	8b 5d 08             	mov    0x8(%ebp),%ebx
    1e9a:	8b 43 14             	mov    0x14(%ebx),%eax
    1e9d:	85 c0                	test   %eax,%eax
    1e9f:	75 19                	jne    1eba <ddf_fun_set_name+0x2a>
    1ea1:	8b 45 0c             	mov    0xc(%ebp),%eax
    1ea4:	89 04 24             	mov    %eax,(%esp)
    1ea7:	e8 44 a2 00 00       	call   c0f0 <str_dup>
    1eac:	83 f8 01             	cmp    $0x1,%eax
    1eaf:	89 43 14             	mov    %eax,0x14(%ebx)
    1eb2:	19 c0                	sbb    %eax,%eax
    1eb4:	83 c4 14             	add    $0x14,%esp
    1eb7:	5b                   	pop    %ebx
    1eb8:	5d                   	pop    %ebp
    1eb9:	c3                   	ret    
    1eba:	c7 44 24 08 a0 02 00 	movl   $0x2a0,0x8(%esp)
    1ec1:	00 
    1ec2:	c7 44 24 04 1a 5a 02 	movl   $0x25a1a,0x4(%esp)
    1ec9:	00 
    1eca:	c7 04 24 a0 5a 02 00 	movl   $0x25aa0,(%esp)
    1ed1:	e8 9a f4 01 00       	call   21370 <assert_abort>
    1ed6:	8d 76 00             	lea    0x0(%esi),%esi
    1ed9:	8d bc 27 00 00 00 00 	lea    0x0(%edi,%eiz,1),%edi

00001ee0 <ddf_fun_get_dev>:
    1ee0:	55                   	push   %ebp
    1ee1:	89 e5                	mov    %esp,%ebp
    1ee3:	8b 45 08             	mov    0x8(%ebp),%eax
    1ee6:	5d                   	pop    %ebp
    1ee7:	8b 40 0c             	mov    0xc(%eax),%eax
    1eea:	c3                   	ret    
    1eeb:	90                   	nop
    1eec:	8d 74 26 00          	lea    0x0(%esi,%eiz,1),%esi

00001ef0 <ddf_fun_get_handle>:
    1ef0:	55                   	push   %ebp
    1ef1:	89 e5                	mov    %esp,%ebp
    1ef3:	8b 45 08             	mov    0x8(%ebp),%eax
    1ef6:	5d                   	pop    %ebp
    1ef7:	8b 40 04             	mov    0x4(%eax),%eax
    1efa:	c3                   	ret    
    1efb:	90                   	nop
    1efc:	8d 74 26 00          	lea    0x0(%esi,%eiz,1),%esi

00001f00 <ddf_fun_create>:
    1f00:	55                   	push   %ebp
    1f01:	89 e5                	mov    %esp,%ebp
    1f03:	57                   	push   %edi
    1f04:	56                   	push   %esi
    1f05:	53                   	push   %ebx
    1f06:	83 ec 1c             	sub    $0x1c,%esp
    1f09:	8b 75 08             	mov    0x8(%ebp),%esi
    1f0c:	c7 44 24 04 34 00 00 	movl   $0x34,0x4(%esp)
    1f13:	00 
    1f14:	c7 04 24 01 00 00 00 	movl   $0x1,(%esp)
    1f1b:	e8 20 48 01 00       	call   16740 <calloc>
    1f20:	89 c3                	mov    %eax,%ebx
    1f22:	85 c0                	test   %eax,%eax
    1f24:	74 44                	je     1f6a <ddf_fun_create+0x6a>
    1f26:	8d 78 18             	lea    0x18(%eax),%edi
    1f29:	c7 40 2c 00 00 00 00 	movl   $0x0,0x2c(%eax)
    1f30:	89 78 18             	mov    %edi,0x18(%eax)
    1f33:	89 78 1c             	mov    %edi,0x1c(%eax)
    1f36:	c7 40 30 00 00 00 00 	movl   $0x0,0x30(%eax)
    1f3d:	89 70 0c             	mov    %esi,0xc(%eax)
    1f40:	f0 ff 46 04          	lock incl 0x4(%esi)
    1f44:	f0 ff 40 08          	lock incl 0x8(%eax)
    1f48:	c6 00 00             	movb   $0x0,(%eax)
    1f4b:	8b 45 0c             	mov    0xc(%ebp),%eax
    1f4e:	89 43 10             	mov    %eax,0x10(%ebx)
    1f51:	8b 45 10             	mov    0x10(%ebp),%eax
    1f54:	85 c0                	test   %eax,%eax
    1f56:	74 12                	je     1f6a <ddf_fun_create+0x6a>
    1f58:	8b 45 10             	mov    0x10(%ebp),%eax
    1f5b:	89 04 24             	mov    %eax,(%esp)
    1f5e:	e8 8d a1 00 00       	call   c0f0 <str_dup>
    1f63:	89 43 14             	mov    %eax,0x14(%ebx)
    1f66:	85 c0                	test   %eax,%eax
    1f68:	74 0a                	je     1f74 <ddf_fun_create+0x74>
    1f6a:	83 c4 1c             	add    $0x1c,%esp
    1f6d:	89 d8                	mov    %ebx,%eax
    1f6f:	5b                   	pop    %ebx
    1f70:	5e                   	pop    %esi
    1f71:	5f                   	pop    %edi
    1f72:	5d                   	pop    %ebp
    1f73:	c3                   	ret    
    1f74:	8b 73 1c             	mov    0x1c(%ebx),%esi
    1f77:	39 fe                	cmp    %edi,%esi
    1f79:	74 44                	je     1fbf <ddf_fun_create+0xbf>
    1f7b:	90                   	nop
    1f7c:	8d 74 26 00          	lea    0x0(%esi,%eiz,1),%esi
    1f80:	8b 0e                	mov    (%esi),%ecx
    1f82:	85 c9                	test   %ecx,%ecx
    1f84:	74 0e                	je     1f94 <ddf_fun_create+0x94>
    1f86:	8b 46 04             	mov    0x4(%esi),%eax
    1f89:	85 c0                	test   %eax,%eax
    1f8b:	74 07                	je     1f94 <ddf_fun_create+0x94>
    1f8d:	89 08                	mov    %ecx,(%eax)
    1f8f:	8b 0e                	mov    (%esi),%ecx
    1f91:	89 41 04             	mov    %eax,0x4(%ecx)
    1f94:	8b 46 08             	mov    0x8(%esi),%eax
    1f97:	c7 06 00 00 00 00    	movl   $0x0,(%esi)
    1f9d:	c7 46 04 00 00 00 00 	movl   $0x0,0x4(%esi)
    1fa4:	85 c0                	test   %eax,%eax
    1fa6:	74 08                	je     1fb0 <ddf_fun_create+0xb0>
    1fa8:	89 04 24             	mov    %eax,(%esp)
    1fab:	e8 00 49 01 00       	call   168b0 <free>
    1fb0:	89 34 24             	mov    %esi,(%esp)
    1fb3:	e8 f8 48 01 00       	call   168b0 <free>
    1fb8:	8b 77 04             	mov    0x4(%edi),%esi
    1fbb:	39 fe                	cmp    %edi,%esi
    1fbd:	75 c1                	jne    1f80 <ddf_fun_create+0x80>
    1fbf:	8b 43 20             	mov    0x20(%ebx),%eax
    1fc2:	85 c0                	test   %eax,%eax
    1fc4:	74 08                	je     1fce <ddf_fun_create+0xce>
    1fc6:	89 04 24             	mov    %eax,(%esp)
    1fc9:	e8 e2 48 01 00       	call   168b0 <free>
    1fce:	8b 43 14             	mov    0x14(%ebx),%eax
    1fd1:	85 c0                	test   %eax,%eax
    1fd3:	74 08                	je     1fdd <ddf_fun_create+0xdd>
    1fd5:	89 04 24             	mov    %eax,(%esp)
    1fd8:	e8 d3 48 01 00       	call   168b0 <free>
    1fdd:	89 1c 24             	mov    %ebx,(%esp)
    1fe0:	31 db                	xor    %ebx,%ebx
    1fe2:	e8 c9 48 01 00       	call   168b0 <free>
    1fe7:	eb 81                	jmp    1f6a <ddf_fun_create+0x6a>
    1fe9:	8d b4 26 00 00 00 00 	lea    0x0(%esi,%eiz,1),%esi

00001ff0 <ddf_fun_data_alloc>:
    1ff0:	55                   	push   %ebp
    1ff1:	89 e5                	mov    %esp,%ebp
    1ff3:	53                   	push   %ebx
    1ff4:	83 ec 14             	sub    $0x14,%esp
    1ff7:	8b 5d 08             	mov    0x8(%ebp),%ebx
    1ffa:	80 3b 00             	cmpb   $0x0,(%ebx)
    1ffd:	75 27                	jne    2026 <ddf_fun_data_alloc+0x36>
    1fff:	8b 43 20             	mov    0x20(%ebx),%eax
    2002:	85 c0                	test   %eax,%eax
    2004:	75 3c                	jne    2042 <ddf_fun_data_alloc+0x52>
    2006:	8b 45 0c             	mov    0xc(%ebp),%eax
    2009:	c7 04 24 01 00 00 00 	movl   $0x1,(%esp)
    2010:	89 44 24 04          	mov    %eax,0x4(%esp)
    2014:	e8 27 47 01 00       	call   16740 <calloc>
    2019:	85 c0                	test   %eax,%eax
    201b:	74 03                	je     2020 <ddf_fun_data_alloc+0x30>
    201d:	89 43 20             	mov    %eax,0x20(%ebx)
    2020:	83 c4 14             	add    $0x14,%esp
    2023:	5b                   	pop    %ebx
    2024:	5d                   	pop    %ebp
    2025:	c3                   	ret    
    2026:	c7 44 24 08 ec 02 00 	movl   $0x2ec,0x8(%esp)
    202d:	00 
    202e:	c7 44 24 04 1a 5a 02 	movl   $0x25a1a,0x4(%esp)
    2035:	00 
    2036:	c7 04 24 b2 5a 02 00 	movl   $0x25ab2,(%esp)
    203d:	e8 2e f3 01 00       	call   21370 <assert_abort>
    2042:	c7 44 24 08 ed 02 00 	movl   $0x2ed,0x8(%esp)
    2049:	00 
    204a:	c7 44 24 04 1a 5a 02 	movl   $0x25a1a,0x4(%esp)
    2051:	00 
    2052:	c7 04 24 6e 5a 02 00 	movl   $0x25a6e,(%esp)
    2059:	e8 12 f3 01 00       	call   21370 <assert_abort>
    205e:	66 90                	xchg   %ax,%ax

00002060 <ddf_fun_data_get>:
    2060:	55                   	push   %ebp
    2061:	89 e5                	mov    %esp,%ebp
    2063:	8b 45 08             	mov    0x8(%ebp),%eax
    2066:	5d                   	pop    %ebp
    2067:	8b 40 20             	mov    0x20(%eax),%eax
    206a:	c3                   	ret    
    206b:	90                   	nop
    206c:	8d 74 26 00          	lea    0x0(%esi,%eiz,1),%esi

00002070 <ddf_fun_get_name>:
    2070:	55                   	push   %ebp
    2071:	89 e5                	mov    %esp,%ebp
    2073:	8b 45 08             	mov    0x8(%ebp),%eax
    2076:	5d                   	pop    %ebp
    2077:	8b 40 14             	mov    0x14(%eax),%eax
    207a:	c3                   	ret    
    207b:	90                   	nop
    207c:	8d 74 26 00          	lea    0x0(%esi,%eiz,1),%esi

00002080 <ddf_fun_destroy>:
    2080:	55                   	push   %ebp
    2081:	89 e5                	mov    %esp,%ebp
    2083:	57                   	push   %edi
    2084:	56                   	push   %esi
    2085:	53                   	push   %ebx
    2086:	83 ec 2c             	sub    $0x2c,%esp
    2089:	8b 5d 08             	mov    0x8(%ebp),%ebx
    208c:	80 3b 00             	cmpb   $0x0,(%ebx)
    208f:	0f 85 d8 00 00 00    	jne    216d <ddf_fun_destroy+0xed>
    2095:	8b 73 0c             	mov    0xc(%ebx),%esi
    2098:	83 c8 ff             	or     $0xffffffff,%eax
    209b:	f0 0f c1 43 08       	lock xadd %eax,0x8(%ebx)
    20a0:	48                   	dec    %eax
    20a1:	74 1d                	je     20c0 <ddf_fun_destroy+0x40>
    20a3:	83 c8 ff             	or     $0xffffffff,%eax
    20a6:	f0 0f c1 46 04       	lock xadd %eax,0x4(%esi)
    20ab:	48                   	dec    %eax
    20ac:	0f 84 8e 00 00 00    	je     2140 <ddf_fun_destroy+0xc0>
    20b2:	83 c4 2c             	add    $0x2c,%esp
    20b5:	5b                   	pop    %ebx
    20b6:	5e                   	pop    %esi
    20b7:	5f                   	pop    %edi
    20b8:	5d                   	pop    %ebp
    20b9:	c3                   	ret    
    20ba:	8d b6 00 00 00 00    	lea    0x0(%esi),%esi
    20c0:	8d 7b 18             	lea    0x18(%ebx),%edi
    20c3:	8b 43 1c             	mov    0x1c(%ebx),%eax
    20c6:	39 f8                	cmp    %edi,%eax
    20c8:	74 4b                	je     2115 <ddf_fun_destroy+0x95>
    20ca:	8d b6 00 00 00 00    	lea    0x0(%esi),%esi
    20d0:	8b 08                	mov    (%eax),%ecx
    20d2:	85 c9                	test   %ecx,%ecx
    20d4:	74 0e                	je     20e4 <ddf_fun_destroy+0x64>
    20d6:	8b 50 04             	mov    0x4(%eax),%edx
    20d9:	85 d2                	test   %edx,%edx
    20db:	74 07                	je     20e4 <ddf_fun_destroy+0x64>
    20dd:	89 0a                	mov    %ecx,(%edx)
    20df:	8b 08                	mov    (%eax),%ecx
    20e1:	89 51 04             	mov    %edx,0x4(%ecx)
    20e4:	8b 50 08             	mov    0x8(%eax),%edx
    20e7:	c7 00 00 00 00 00    	movl   $0x0,(%eax)
    20ed:	c7 40 04 00 00 00 00 	movl   $0x0,0x4(%eax)
    20f4:	85 d2                	test   %edx,%edx
    20f6:	74 0e                	je     2106 <ddf_fun_destroy+0x86>
    20f8:	89 14 24             	mov    %edx,(%esp)
    20fb:	89 45 e4             	mov    %eax,-0x1c(%ebp)
    20fe:	e8 ad 47 01 00       	call   168b0 <free>
    2103:	8b 45 e4             	mov    -0x1c(%ebp),%eax
    2106:	89 04 24             	mov    %eax,(%esp)
    2109:	e8 a2 47 01 00       	call   168b0 <free>
    210e:	8b 47 04             	mov    0x4(%edi),%eax
    2111:	39 f8                	cmp    %edi,%eax
    2113:	75 bb                	jne    20d0 <ddf_fun_destroy+0x50>
    2115:	8b 43 20             	mov    0x20(%ebx),%eax
    2118:	85 c0                	test   %eax,%eax
    211a:	74 08                	je     2124 <ddf_fun_destroy+0xa4>
    211c:	89 04 24             	mov    %eax,(%esp)
    211f:	e8 8c 47 01 00       	call   168b0 <free>
    2124:	8b 43 14             	mov    0x14(%ebx),%eax
    2127:	85 c0                	test   %eax,%eax
    2129:	74 08                	je     2133 <ddf_fun_destroy+0xb3>
    212b:	89 04 24             	mov    %eax,(%esp)
    212e:	e8 7d 47 01 00       	call   168b0 <free>
    2133:	89 1c 24             	mov    %ebx,(%esp)
    2136:	e8 75 47 01 00       	call   168b0 <free>
    213b:	e9 63 ff ff ff       	jmp    20a3 <ddf_fun_destroy+0x23>
    2140:	8b 46 08             	mov    0x8(%esi),%eax
    2143:	85 c0                	test   %eax,%eax
    2145:	74 08                	je     214f <ddf_fun_destroy+0xcf>
    2147:	89 04 24             	mov    %eax,(%esp)
    214a:	e8 01 7e 01 00       	call   19f50 <async_hangup>
    214f:	8b 46 10             	mov    0x10(%esi),%eax
    2152:	85 c0                	test   %eax,%eax
    2154:	74 08                	je     215e <ddf_fun_destroy+0xde>
    2156:	89 04 24             	mov    %eax,(%esp)
    2159:	e8 52 47 01 00       	call   168b0 <free>
    215e:	89 75 08             	mov    %esi,0x8(%ebp)
    2161:	83 c4 2c             	add    $0x2c,%esp
    2164:	5b                   	pop    %ebx
    2165:	5e                   	pop    %esi
    2166:	5f                   	pop    %edi
    2167:	5d                   	pop    %ebp
    2168:	e9 43 47 01 00       	jmp    168b0 <free>
    216d:	c7 44 24 08 11 03 00 	movl   $0x311,0x8(%esp)
    2174:	00 
    2175:	c7 44 24 04 1a 5a 02 	movl   $0x25a1a,0x4(%esp)
    217c:	00 
    217d:	c7 04 24 b2 5a 02 00 	movl   $0x25ab2,(%esp)
    2184:	e8 e7 f1 01 00       	call   21370 <assert_abort>
    2189:	8d b4 26 00 00 00 00 	lea    0x0(%esi,%eiz,1),%esi

00002190 <ddf_fun_bind>:
    2190:	55                   	push   %ebp
    2191:	89 e5                	mov    %esp,%ebp
    2193:	53                   	push   %ebx
    2194:	83 ec 34             	sub    $0x34,%esp
    2197:	8b 5d 08             	mov    0x8(%ebp),%ebx
    219a:	80 3b 00             	cmpb   $0x0,(%ebx)
    219d:	0f 85 c3 00 00 00    	jne    2266 <ddf_fun_bind+0xd6>
    21a3:	8b 43 14             	mov    0x14(%ebx),%eax
    21a6:	85 c0                	test   %eax,%eax
    21a8:	0f 84 d4 00 00 00    	je     2282 <ddf_fun_bind+0xf2>
    21ae:	c7 04 24 3c 8a 02 00 	movl   $0x28a3c,(%esp)
    21b5:	e8 66 b2 00 00       	call   d420 <fibril_mutex_lock>
    21ba:	8b 15 4c 8a 02 00    	mov    0x28a4c,%edx
    21c0:	8d 43 2c             	lea    0x2c(%ebx),%eax
    21c3:	c7 43 30 4c 8a 02 00 	movl   $0x28a4c,0x30(%ebx)
    21ca:	89 53 2c             	mov    %edx,0x2c(%ebx)
    21cd:	89 42 04             	mov    %eax,0x4(%edx)
    21d0:	c7 04 24 3c 8a 02 00 	movl   $0x28a3c,(%esp)
    21d7:	a3 4c 8a 02 00       	mov    %eax,0x28a4c
    21dc:	e8 5f b3 00 00       	call   d540 <fibril_mutex_unlock>
    21e1:	8d 43 04             	lea    0x4(%ebx),%eax
    21e4:	89 44 24 10          	mov    %eax,0x10(%esp)
    21e8:	8b 43 0c             	mov    0xc(%ebx),%eax
    21eb:	8b 00                	mov    (%eax),%eax
    21ed:	89 44 24 0c          	mov    %eax,0xc(%esp)
    21f1:	8d 43 18             	lea    0x18(%ebx),%eax
    21f4:	89 44 24 08          	mov    %eax,0x8(%esp)
    21f8:	8b 43 10             	mov    0x10(%ebx),%eax
    21fb:	89 44 24 04          	mov    %eax,0x4(%esp)
    21ff:	8b 43 14             	mov    0x14(%ebx),%eax
    2202:	89 04 24             	mov    %eax,(%esp)
    2205:	e8 56 58 00 00       	call   7a60 <devman_add_function>
    220a:	85 c0                	test   %eax,%eax
    220c:	75 0a                	jne    2218 <ddf_fun_bind+0x88>
    220e:	c6 03 01             	movb   $0x1,(%ebx)
    2211:	83 c4 34             	add    $0x34,%esp
    2214:	5b                   	pop    %ebx
    2215:	5d                   	pop    %ebp
    2216:	c3                   	ret    
    2217:	90                   	nop
    2218:	c7 04 24 3c 8a 02 00 	movl   $0x28a3c,(%esp)
    221f:	89 45 f4             	mov    %eax,-0xc(%ebp)
    2222:	e8 f9 b1 00 00       	call   d420 <fibril_mutex_lock>
    2227:	8b 4b 2c             	mov    0x2c(%ebx),%ecx
    222a:	85 c9                	test   %ecx,%ecx
    222c:	8b 45 f4             	mov    -0xc(%ebp),%eax
    222f:	74 0f                	je     2240 <ddf_fun_bind+0xb0>
    2231:	8b 53 30             	mov    0x30(%ebx),%edx
    2234:	85 d2                	test   %edx,%edx
    2236:	74 08                	je     2240 <ddf_fun_bind+0xb0>
    2238:	89 0a                	mov    %ecx,(%edx)
    223a:	8b 4b 2c             	mov    0x2c(%ebx),%ecx
    223d:	89 51 04             	mov    %edx,0x4(%ecx)
    2240:	c7 43 2c 00 00 00 00 	movl   $0x0,0x2c(%ebx)
    2247:	c7 43 30 00 00 00 00 	movl   $0x0,0x30(%ebx)
    224e:	c7 04 24 3c 8a 02 00 	movl   $0x28a3c,(%esp)
    2255:	89 45 f4             	mov    %eax,-0xc(%ebp)
    2258:	e8 e3 b2 00 00       	call   d540 <fibril_mutex_unlock>
    225d:	8b 45 f4             	mov    -0xc(%ebp),%eax
    2260:	83 c4 34             	add    $0x34,%esp
    2263:	5b                   	pop    %ebx
    2264:	5d                   	pop    %ebp
    2265:	c3                   	ret    
    2266:	c7 44 24 08 35 03 00 	movl   $0x335,0x8(%esp)
    226d:	00 
    226e:	c7 44 24 04 1a 5a 02 	movl   $0x25a1a,0x4(%esp)
    2275:	00 
    2276:	c7 04 24 b2 5a 02 00 	movl   $0x25ab2,(%esp)
    227d:	e8 ee f0 01 00       	call   21370 <assert_abort>
    2282:	c7 44 24 08 36 03 00 	movl   $0x336,0x8(%esp)
    2289:	00 
    228a:	c7 44 24 04 1a 5a 02 	movl   $0x25a1a,0x4(%esp)
    2291:	00 
    2292:	c7 04 24 c6 5a 02 00 	movl   $0x25ac6,(%esp)
    2299:	e8 d2 f0 01 00       	call   21370 <assert_abort>
    229e:	66 90                	xchg   %ax,%ax

000022a0 <ddf_fun_unbind>:
    22a0:	55                   	push   %ebp
    22a1:	89 e5                	mov    %esp,%ebp
    22a3:	53                   	push   %ebx
    22a4:	83 ec 24             	sub    $0x24,%esp
    22a7:	8b 5d 08             	mov    0x8(%ebp),%ebx
    22aa:	80 3b 00             	cmpb   $0x0,(%ebx)
    22ad:	74 6a                	je     2319 <ddf_fun_unbind+0x79>
    22af:	8b 43 04             	mov    0x4(%ebx),%eax
    22b2:	89 04 24             	mov    %eax,(%esp)
    22b5:	e8 46 5c 00 00       	call   7f00 <devman_remove_function>
    22ba:	85 c0                	test   %eax,%eax
    22bc:	74 0a                	je     22c8 <ddf_fun_unbind+0x28>
    22be:	83 c4 24             	add    $0x24,%esp
    22c1:	5b                   	pop    %ebx
    22c2:	5d                   	pop    %ebp
    22c3:	c3                   	ret    
    22c4:	8d 74 26 00          	lea    0x0(%esi,%eiz,1),%esi
    22c8:	c7 04 24 3c 8a 02 00 	movl   $0x28a3c,(%esp)
    22cf:	89 45 f4             	mov    %eax,-0xc(%ebp)
    22d2:	e8 49 b1 00 00       	call   d420 <fibril_mutex_lock>
    22d7:	8b 4b 2c             	mov    0x2c(%ebx),%ecx
    22da:	85 c9                	test   %ecx,%ecx
    22dc:	8b 45 f4             	mov    -0xc(%ebp),%eax
    22df:	74 0f                	je     22f0 <ddf_fun_unbind+0x50>
    22e1:	8b 53 30             	mov    0x30(%ebx),%edx
    22e4:	85 d2                	test   %edx,%edx
    22e6:	74 08                	je     22f0 <ddf_fun_unbind+0x50>
    22e8:	89 0a                	mov    %ecx,(%edx)
    22ea:	8b 4b 2c             	mov    0x2c(%ebx),%ecx
    22ed:	89 51 04             	mov    %edx,0x4(%ecx)
    22f0:	c7 43 2c 00 00 00 00 	movl   $0x0,0x2c(%ebx)
    22f7:	c7 43 30 00 00 00 00 	movl   $0x0,0x30(%ebx)
    22fe:	c7 04 24 3c 8a 02 00 	movl   $0x28a3c,(%esp)
    2305:	89 45 f4             	mov    %eax,-0xc(%ebp)
    2308:	e8 33 b2 00 00       	call   d540 <fibril_mutex_unlock>
    230d:	c6 03 00             	movb   $0x0,(%ebx)
    2310:	8b 45 f4             	mov    -0xc(%ebp),%eax
    2313:	83 c4 24             	add    $0x24,%esp
    2316:	5b                   	pop    %ebx
    2317:	5d                   	pop    %ebp
    2318:	c3                   	ret    
    2319:	c7 44 24 08 50 03 00 	movl   $0x350,0x8(%esp)
    2320:	00 
    2321:	c7 44 24 04 1a 5a 02 	movl   $0x25a1a,0x4(%esp)
    2328:	00 
    2329:	c7 04 24 d8 5a 02 00 	movl   $0x25ad8,(%esp)
    2330:	e8 3b f0 01 00       	call   21370 <assert_abort>
    2335:	8d 74 26 00          	lea    0x0(%esi,%eiz,1),%esi
    2339:	8d bc 27 00 00 00 00 	lea    0x0(%edi,%eiz,1),%edi

00002340 <ddf_fun_online>:
    2340:	55                   	push   %ebp
    2341:	89 e5                	mov    %esp,%ebp
    2343:	83 ec 18             	sub    $0x18,%esp
    2346:	8b 45 08             	mov    0x8(%ebp),%eax
    2349:	80 38 00             	cmpb   $0x0,(%eax)
    234c:	74 0c                	je     235a <ddf_fun_online+0x1a>
    234e:	8b 40 04             	mov    0x4(%eax),%eax
    2351:	89 45 08             	mov    %eax,0x8(%ebp)
    2354:	c9                   	leave  
    2355:	e9 16 5d 00 00       	jmp    8070 <devman_drv_fun_online>
    235a:	c7 44 24 08 65 03 00 	movl   $0x365,0x8(%esp)
    2361:	00 
    2362:	c7 44 24 04 1a 5a 02 	movl   $0x25a1a,0x4(%esp)
    2369:	00 
    236a:	c7 04 24 d8 5a 02 00 	movl   $0x25ad8,(%esp)
    2371:	e8 fa ef 01 00       	call   21370 <assert_abort>
    2376:	8d 76 00             	lea    0x0(%esi),%esi
    2379:	8d bc 27 00 00 00 00 	lea    0x0(%edi,%eiz,1),%edi

00002380 <ddf_fun_offline>:
    2380:	55                   	push   %ebp
    2381:	89 e5                	mov    %esp,%ebp
    2383:	83 ec 18             	sub    $0x18,%esp
    2386:	8b 45 08             	mov    0x8(%ebp),%eax
    2389:	80 38 00             	cmpb   $0x0,(%eax)
    238c:	74 0c                	je     239a <ddf_fun_offline+0x1a>
    238e:	8b 40 04             	mov    0x4(%eax),%eax
    2391:	89 45 08             	mov    %eax,0x8(%ebp)
    2394:	c9                   	leave  
    2395:	e9 c6 5d 00 00       	jmp    8160 <devman_drv_fun_offline>
    239a:	c7 44 24 08 77 03 00 	movl   $0x377,0x8(%esp)
    23a1:	00 
    23a2:	c7 44 24 04 1a 5a 02 	movl   $0x25a1a,0x4(%esp)
    23a9:	00 
    23aa:	c7 04 24 d8 5a 02 00 	movl   $0x25ad8,(%esp)
    23b1:	e8 ba ef 01 00       	call   21370 <assert_abort>
    23b6:	8d 76 00             	lea    0x0(%esi),%esi
    23b9:	8d bc 27 00 00 00 00 	lea    0x0(%edi,%eiz,1),%edi

000023c0 <ddf_fun_add_match_id>:
    23c0:	55                   	push   %ebp
    23c1:	89 e5                	mov    %esp,%ebp
    23c3:	57                   	push   %edi
    23c4:	56                   	push   %esi
    23c5:	53                   	push   %ebx
    23c6:	83 ec 1c             	sub    $0x1c,%esp
    23c9:	8b 75 08             	mov    0x8(%ebp),%esi
    23cc:	8b 5d 10             	mov    0x10(%ebp),%ebx
    23cf:	80 3e 00             	cmpb   $0x0,(%esi)
    23d2:	0f 85 97 00 00 00    	jne    246f <ddf_fun_add_match_id+0xaf>
    23d8:	83 7e 10 01          	cmpl   $0x1,0x10(%esi)
    23dc:	75 75                	jne    2453 <ddf_fun_add_match_id+0x93>
    23de:	c7 04 24 10 00 00 00 	movl   $0x10,(%esp)
    23e5:	e8 b6 43 01 00       	call   167a0 <malloc>
    23ea:	c7 44 24 08 10 00 00 	movl   $0x10,0x8(%esp)
    23f1:	00 
    23f2:	89 c7                	mov    %eax,%edi
    23f4:	c7 44 24 04 00 00 00 	movl   $0x0,0x4(%esp)
    23fb:	00 
    23fc:	89 04 24             	mov    %eax,(%esp)
    23ff:	e8 bc 6d 00 00       	call   91c0 <memset>
    2404:	85 ff                	test   %edi,%edi
    2406:	74 44                	je     244c <ddf_fun_add_match_id+0x8c>
    2408:	8b 45 0c             	mov    0xc(%ebp),%eax
    240b:	89 04 24             	mov    %eax,(%esp)
    240e:	e8 dd 9c 00 00       	call   c0f0 <str_dup>
    2413:	8b 56 1c             	mov    0x1c(%esi),%edx
    2416:	8d 4e 18             	lea    0x18(%esi),%ecx
    2419:	89 47 08             	mov    %eax,0x8(%edi)
    241c:	89 5f 0c             	mov    %ebx,0xc(%edi)
    241f:	39 ca                	cmp    %ecx,%edx
    2421:	75 0c                	jne    242f <ddf_fun_add_match_id+0x6f>
    2423:	eb 0f                	jmp    2434 <ddf_fun_add_match_id+0x74>
    2425:	8d 76 00             	lea    0x0(%esi),%esi
    2428:	8b 52 04             	mov    0x4(%edx),%edx
    242b:	39 ca                	cmp    %ecx,%edx
    242d:	74 05                	je     2434 <ddf_fun_add_match_id+0x74>
    242f:	3b 5a 0c             	cmp    0xc(%edx),%ebx
    2432:	76 f4                	jbe    2428 <ddf_fun_add_match_id+0x68>
    2434:	8b 02                	mov    (%edx),%eax
    2436:	89 57 04             	mov    %edx,0x4(%edi)
    2439:	89 07                	mov    %eax,(%edi)
    243b:	8b 02                	mov    (%edx),%eax
    243d:	89 3a                	mov    %edi,(%edx)
    243f:	89 78 04             	mov    %edi,0x4(%eax)
    2442:	31 c0                	xor    %eax,%eax
    2444:	83 c4 1c             	add    $0x1c,%esp
    2447:	5b                   	pop    %ebx
    2448:	5e                   	pop    %esi
    2449:	5f                   	pop    %edi
    244a:	5d                   	pop    %ebp
    244b:	c3                   	ret    
    244c:	b8 fe ff ff ff       	mov    $0xfffffffe,%eax
    2451:	eb f1                	jmp    2444 <ddf_fun_add_match_id+0x84>
    2453:	c7 44 24 08 91 03 00 	movl   $0x391,0x8(%esp)
    245a:	00 
    245b:	c7 44 24 04 1a 5a 02 	movl   $0x25a1a,0x4(%esp)
    2462:	00 
    2463:	c7 04 24 eb 5a 02 00 	movl   $0x25aeb,(%esp)
    246a:	e8 01 ef 01 00       	call   21370 <assert_abort>
    246f:	c7 44 24 08 90 03 00 	movl   $0x390,0x8(%esp)
    2476:	00 
    2477:	c7 44 24 04 1a 5a 02 	movl   $0x25a1a,0x4(%esp)
    247e:	00 
    247f:	c7 04 24 b2 5a 02 00 	movl   $0x25ab2,(%esp)
    2486:	e8 e5 ee 01 00       	call   21370 <assert_abort>
    248b:	90                   	nop
    248c:	8d 74 26 00          	lea    0x0(%esi,%eiz,1),%esi

00002490 <ddf_fun_set_ops>:
    2490:	55                   	push   %ebp
    2491:	89 e5                	mov    %esp,%ebp
    2493:	83 ec 18             	sub    $0x18,%esp
    2496:	8b 45 08             	mov    0x8(%ebp),%eax
    2499:	8b 50 28             	mov    0x28(%eax),%edx
    249c:	85 d2                	test   %edx,%edx
    249e:	75 08                	jne    24a8 <ddf_fun_set_ops+0x18>
    24a0:	8b 55 0c             	mov    0xc(%ebp),%edx
    24a3:	89 50 24             	mov    %edx,0x24(%eax)
    24a6:	c9                   	leave  
    24a7:	c3                   	ret    
    24a8:	c7 44 24 08 a1 03 00 	movl   $0x3a1,0x8(%esp)
    24af:	00 
    24b0:	c7 44 24 04 1a 5a 02 	movl   $0x25a1a,0x4(%esp)
    24b7:	00 
    24b8:	c7 04 24 03 5b 02 00 	movl   $0x25b03,(%esp)
    24bf:	e8 ac ee 01 00       	call   21370 <assert_abort>
    24c4:	8d b6 00 00 00 00    	lea    0x0(%esi),%esi
    24ca:	8d bf 00 00 00 00    	lea    0x0(%edi),%edi

000024d0 <ddf_fun_set_conn_handler>:
    24d0:	55                   	push   %ebp
    24d1:	89 e5                	mov    %esp,%ebp
    24d3:	83 ec 18             	sub    $0x18,%esp
    24d6:	8b 45 08             	mov    0x8(%ebp),%eax
    24d9:	8b 48 24             	mov    0x24(%eax),%ecx
    24dc:	85 c9                	test   %ecx,%ecx
    24de:	75 08                	jne    24e8 <ddf_fun_set_conn_handler+0x18>
    24e0:	8b 55 0c             	mov    0xc(%ebp),%edx
    24e3:	89 50 28             	mov    %edx,0x28(%eax)
    24e6:	c9                   	leave  
    24e7:	c3                   	ret    
    24e8:	c7 44 24 08 ab 03 00 	movl   $0x3ab,0x8(%esp)
    24ef:	00 
    24f0:	c7 44 24 04 1a 5a 02 	movl   $0x25a1a,0x4(%esp)
    24f7:	00 
    24f8:	c7 04 24 1d 5b 02 00 	movl   $0x25b1d,(%esp)
    24ff:	e8 6c ee 01 00       	call   21370 <assert_abort>
    2504:	8d b6 00 00 00 00    	lea    0x0(%esi),%esi
    250a:	8d bf 00 00 00 00    	lea    0x0(%edi),%edi

00002510 <ddf_fun_add_to_category>:
    2510:	55                   	push   %ebp
    2511:	89 e5                	mov    %esp,%ebp
    2513:	83 ec 18             	sub    $0x18,%esp
    2516:	8b 45 08             	mov    0x8(%ebp),%eax
    2519:	8b 55 0c             	mov    0xc(%ebp),%edx
    251c:	80 38 00             	cmpb   $0x0,(%eax)
    251f:	74 15                	je     2536 <ddf_fun_add_to_category+0x26>
    2521:	83 78 10 02          	cmpl   $0x2,0x10(%eax)
    2525:	75 2b                	jne    2552 <ddf_fun_add_to_category+0x42>
    2527:	89 55 0c             	mov    %edx,0xc(%ebp)
    252a:	8b 40 04             	mov    0x4(%eax),%eax
    252d:	89 45 08             	mov    %eax,0x8(%ebp)
    2530:	c9                   	leave  
    2531:	e9 ea 57 00 00       	jmp    7d20 <devman_add_device_to_category>
    2536:	c7 44 24 08 be 03 00 	movl   $0x3be,0x8(%esp)
    253d:	00 
    253e:	c7 44 24 04 1a 5a 02 	movl   $0x25a1a,0x4(%esp)
    2545:	00 
    2546:	c7 04 24 d8 5a 02 00 	movl   $0x25ad8,(%esp)
    254d:	e8 1e ee 01 00       	call   21370 <assert_abort>
    2552:	c7 44 24 08 bf 03 00 	movl   $0x3bf,0x8(%esp)
    2559:	00 
    255a:	c7 44 24 04 1a 5a 02 	movl   $0x25a1a,0x4(%esp)
    2561:	00 
    2562:	c7 04 24 2e 5b 02 00 	movl   $0x25b2e,(%esp)
    2569:	e8 02 ee 01 00       	call   21370 <assert_abort>
    256e:	66 90                	xchg   %ax,%ax

00002570 <ddf_driver_main>:
    2570:	55                   	push   %ebp
    2571:	89 e5                	mov    %esp,%ebp
    2573:	53                   	push   %ebx
    2574:	83 ec 14             	sub    $0x14,%esp
    2577:	8b 45 08             	mov    0x8(%ebp),%eax
    257a:	a3 a0 8e 02 00       	mov    %eax,0x28ea0
    257f:	e8 7c 01 00 00       	call   2700 <interrupt_init>
    2584:	c7 04 24 c0 17 00 00 	movl   $0x17c0,(%esp)
    258b:	e8 70 58 01 00       	call   17e00 <async_set_client_connection>
    2590:	a1 a0 8e 02 00       	mov    0x28ea0,%eax
    2595:	8b 00                	mov    (%eax),%eax
    2597:	89 04 24             	mov    %eax,(%esp)
    259a:	e8 81 52 00 00       	call   7820 <devman_driver_register>
    259f:	89 c3                	mov    %eax,%ebx
    25a1:	85 c0                	test   %eax,%eax
    25a3:	74 2b                	je     25d0 <ddf_driver_main+0x60>
    25a5:	b8 48 5b 02 00       	mov    $0x25b48,%eax
    25aa:	83 fb f7             	cmp    $0xfffffff7,%ebx
    25ad:	74 08                	je     25b7 <ddf_driver_main+0x47>
    25af:	89 1c 24             	mov    %ebx,(%esp)
    25b2:	e8 79 a4 00 00       	call   ca30 <str_error>
    25b7:	89 44 24 04          	mov    %eax,0x4(%esp)
    25bb:	c7 04 24 d4 5c 02 00 	movl   $0x25cd4,(%esp)
    25c2:	e8 89 ee 00 00       	call   11450 <printf>
    25c7:	83 c4 14             	add    $0x14,%esp
    25ca:	89 d8                	mov    %ebx,%eax
    25cc:	5b                   	pop    %ebx
    25cd:	5d                   	pop    %ebp
    25ce:	c3                   	ret    
    25cf:	90                   	nop
    25d0:	c7 04 24 00 00 00 00 	movl   $0x0,(%esp)
    25d7:	e8 94 c7 00 00       	call   ed70 <task_retval>
    25dc:	89 c3                	mov    %eax,%ebx
    25de:	85 c0                	test   %eax,%eax
    25e0:	75 e5                	jne    25c7 <ddf_driver_main+0x57>
    25e2:	c7 04 24 01 00 00 00 	movl   $0x1,(%esp)
    25e9:	e8 62 a6 00 00       	call   cc50 <fibril_switch>
    25ee:	83 c4 14             	add    $0x14,%esp
    25f1:	89 d8                	mov    %ebx,%eax
    25f3:	5b                   	pop    %ebx
    25f4:	5d                   	pop    %ebp
    25f5:	c3                   	ret    
    25f6:	66 90                	xchg   %ax,%ax
    25f8:	66 90                	xchg   %ax,%ax
    25fa:	66 90                	xchg   %ax,%ax
    25fc:	66 90                	xchg   %ax,%ax
    25fe:	66 90                	xchg   %ax,%ax

00002600 <get_remote_iface>:
    2600:	55                   	push   %ebp
    2601:	89 e5                	mov    %esp,%ebp
    2603:	83 ec 18             	sub    $0x18,%esp
    2606:	8b 45 08             	mov    0x8(%ebp),%eax
    2609:	83 f8 0a             	cmp    $0xa,%eax
    260c:	77 09                	ja     2617 <get_remote_iface+0x17>
    260e:	8b 04 85 40 5d 02 00 	mov    0x25d40(,%eax,4),%eax
    2615:	c9                   	leave  
    2616:	c3                   	ret    
    2617:	c7 44 24 08 47 00 00 	movl   $0x47,0x8(%esp)
    261e:	00 
    261f:	c7 44 24 04 24 5d 02 	movl   $0x25d24,0x4(%esp)
    2626:	00 
    2627:	c7 04 24 2b 5a 02 00 	movl   $0x25a2b,(%esp)
    262e:	e8 3d ed 01 00       	call   21370 <assert_abort>
    2633:	8d b6 00 00 00 00    	lea    0x0(%esi),%esi
    2639:	8d bc 27 00 00 00 00 	lea    0x0(%edi,%eiz,1),%edi

00002640 <get_remote_method>:
    2640:	55                   	push   %ebp
    2641:	89 e5                	mov    %esp,%ebp
    2643:	8b 55 08             	mov    0x8(%ebp),%edx
    2646:	8b 45 0c             	mov    0xc(%ebp),%eax
    2649:	39 02                	cmp    %eax,(%edx)
    264b:	76 0b                	jbe    2658 <get_remote_method+0x18>
    264d:	8b 52 04             	mov    0x4(%edx),%edx
    2650:	5d                   	pop    %ebp
    2651:	8b 04 82             	mov    (%edx,%eax,4),%eax
    2654:	c3                   	ret    
    2655:	8d 76 00             	lea    0x0(%esi),%esi
    2658:	31 c0                	xor    %eax,%eax
    265a:	5d                   	pop    %ebp
    265b:	c3                   	ret    
    265c:	8d 74 26 00          	lea    0x0(%esi,%eiz,1),%esi

00002660 <is_valid_iface_idx>:
    2660:	55                   	push   %ebp
    2661:	89 e5                	mov    %esp,%ebp
    2663:	83 7d 08 0a          	cmpl   $0xa,0x8(%ebp)
    2667:	5d                   	pop    %ebp
    2668:	0f 96 c0             	setbe  %al
    266b:	c3                   	ret    
    266c:	66 90                	xchg   %ax,%ax
    266e:	66 90                	xchg   %ax,%ax

00002670 <driver_irq_handler>:
    2670:	55                   	push   %ebp
    2671:	89 e5                	mov    %esp,%ebp
    2673:	57                   	push   %edi
    2674:	56                   	push   %esi
    2675:	53                   	push   %ebx
    2676:	83 ec 2c             	sub    $0x2c,%esp
    2679:	8b 5d 0c             	mov    0xc(%ebp),%ebx
    267c:	8b 45 08             	mov    0x8(%ebp),%eax
    267f:	89 45 e4             	mov    %eax,-0x1c(%ebp)
    2682:	8b 33                	mov    (%ebx),%esi
    2684:	c7 04 24 b0 8e 02 00 	movl   $0x28eb0,(%esp)
    268b:	e8 90 ad 00 00       	call   d420 <fibril_mutex_lock>
    2690:	a1 ac 8e 02 00       	mov    0x28eac,%eax
    2695:	3d a8 8e 02 00       	cmp    $0x28ea8,%eax
    269a:	75 0e                	jne    26aa <driver_irq_handler+0x3a>
    269c:	eb 42                	jmp    26e0 <driver_irq_handler+0x70>
    269e:	66 90                	xchg   %ax,%ax
    26a0:	8b 40 04             	mov    0x4(%eax),%eax
    26a3:	3d a8 8e 02 00       	cmp    $0x28ea8,%eax
    26a8:	74 36                	je     26e0 <driver_irq_handler+0x70>
    26aa:	8d 78 f0             	lea    -0x10(%eax),%edi
    26ad:	3b 70 f0             	cmp    -0x10(%eax),%esi
    26b0:	75 ee                	jne    26a0 <driver_irq_handler+0x30>
    26b2:	c7 04 24 b0 8e 02 00 	movl   $0x28eb0,(%esp)
    26b9:	e8 82 ae 00 00       	call   d540 <fibril_mutex_unlock>
    26be:	8b 47 0c             	mov    0xc(%edi),%eax
    26c1:	85 c0                	test   %eax,%eax
    26c3:	74 13                	je     26d8 <driver_irq_handler+0x68>
    26c5:	8b 55 e4             	mov    -0x1c(%ebp),%edx
    26c8:	89 5c 24 08          	mov    %ebx,0x8(%esp)
    26cc:	89 54 24 04          	mov    %edx,0x4(%esp)
    26d0:	8b 57 04             	mov    0x4(%edi),%edx
    26d3:	89 14 24             	mov    %edx,(%esp)
    26d6:	ff d0                	call   *%eax
    26d8:	83 c4 2c             	add    $0x2c,%esp
    26db:	5b                   	pop    %ebx
    26dc:	5e                   	pop    %esi
    26dd:	5f                   	pop    %edi
    26de:	5d                   	pop    %ebp
    26df:	c3                   	ret    
    26e0:	c7 45 08 b0 8e 02 00 	movl   $0x28eb0,0x8(%ebp)
    26e7:	83 c4 2c             	add    $0x2c,%esp
    26ea:	5b                   	pop    %ebx
    26eb:	5e                   	pop    %esi
    26ec:	5f                   	pop    %edi
    26ed:	5d                   	pop    %ebp
    26ee:	e9 4d ae 00 00       	jmp    d540 <fibril_mutex_unlock>
    26f3:	8d b6 00 00 00 00    	lea    0x0(%esi),%esi
    26f9:	8d bc 27 00 00 00 00 	lea    0x0(%edi,%eiz,1),%edi

00002700 <interrupt_init>:
    2700:	55                   	push   %ebp
    2701:	89 e5                	mov    %esp,%ebp
    2703:	83 ec 18             	sub    $0x18,%esp
    2706:	c7 44 24 08 1c 00 00 	movl   $0x1c,0x8(%esp)
    270d:	00 
    270e:	c7 44 24 04 00 00 00 	movl   $0x0,0x4(%esp)
    2715:	00 
    2716:	c7 04 24 a4 8e 02 00 	movl   $0x28ea4,(%esp)
    271d:	e8 9e 6a 00 00       	call   91c0 <memset>
    2722:	c7 04 24 b0 8e 02 00 	movl   $0x28eb0,(%esp)
    2729:	e8 d2 ac 00 00       	call   d400 <fibril_mutex_initialize>
    272e:	c7 04 24 70 26 00 00 	movl   $0x2670,(%esp)
    2735:	c7 05 a8 8e 02 00 a8 	movl   $0x28ea8,0x28ea8
    273c:	8e 02 00 
    273f:	c7 05 ac 8e 02 00 a8 	movl   $0x28ea8,0x28eac
    2746:	8e 02 00 
    2749:	e8 f2 56 01 00       	call   17e40 <async_set_interrupt_received>
    274e:	c9                   	leave  
    274f:	c3                   	ret    

00002750 <register_interrupt_handler>:
    2750:	55                   	push   %ebp
    2751:	89 e5                	mov    %esp,%ebp
    2753:	57                   	push   %edi
    2754:	56                   	push   %esi
    2755:	53                   	push   %ebx
    2756:	83 ec 2c             	sub    $0x2c,%esp
    2759:	8b 7d 08             	mov    0x8(%ebp),%edi
    275c:	8b 5d 14             	mov    0x14(%ebp),%ebx
    275f:	c7 04 24 18 00 00 00 	movl   $0x18,(%esp)
    2766:	e8 35 40 01 00       	call   167a0 <malloc>
    276b:	89 c6                	mov    %eax,%esi
    276d:	85 c0                	test   %eax,%eax
    276f:	74 18                	je     2789 <register_interrupt_handler+0x39>
    2771:	c7 44 24 08 18 00 00 	movl   $0x18,0x8(%esp)
    2778:	00 
    2779:	c7 44 24 04 00 00 00 	movl   $0x0,0x4(%esp)
    2780:	00 
    2781:	89 04 24             	mov    %eax,(%esp)
    2784:	e8 37 6a 00 00       	call   91c0 <memset>
    2789:	8b 45 0c             	mov    0xc(%ebp),%eax
    278c:	c7 04 24 b0 8e 02 00 	movl   $0x28eb0,(%esp)
    2793:	89 46 08             	mov    %eax,0x8(%esi)
    2796:	8b 45 10             	mov    0x10(%ebp),%eax
    2799:	89 46 0c             	mov    %eax,0xc(%esi)
    279c:	89 7e 04             	mov    %edi,0x4(%esi)
    279f:	e8 7c ac 00 00       	call   d420 <fibril_mutex_lock>
    27a4:	a1 a4 8e 02 00       	mov    0x28ea4,%eax
    27a9:	8b 0d a8 8e 02 00    	mov    0x28ea8,%ecx
    27af:	89 06                	mov    %eax,(%esi)
    27b1:	40                   	inc    %eax
    27b2:	c7 46 14 a8 8e 02 00 	movl   $0x28ea8,0x14(%esi)
    27b9:	a3 a4 8e 02 00       	mov    %eax,0x28ea4
    27be:	8d 46 10             	lea    0x10(%esi),%eax
    27c1:	89 41 04             	mov    %eax,0x4(%ecx)
    27c4:	c7 04 24 b0 8e 02 00 	movl   $0x28eb0,(%esp)
    27cb:	89 4e 10             	mov    %ecx,0x10(%esi)
    27ce:	a3 a8 8e 02 00       	mov    %eax,0x28ea8
    27d3:	e8 68 ad 00 00       	call   d540 <fibril_mutex_unlock>
    27d8:	85 db                	test   %ebx,%ebx
    27da:	0f 84 80 00 00 00    	je     2860 <register_interrupt_handler+0x110>
    27e0:	8b 06                	mov    (%esi),%eax
    27e2:	89 5c 24 0c          	mov    %ebx,0xc(%esp)
    27e6:	89 44 24 08          	mov    %eax,0x8(%esp)
    27ea:	8b 07                	mov    (%edi),%eax
    27ec:	89 44 24 04          	mov    %eax,0x4(%esp)
    27f0:	8b 45 0c             	mov    0xc(%ebp),%eax
    27f3:	89 04 24             	mov    %eax,(%esp)
    27f6:	e8 05 4c 00 00       	call   7400 <irq_register>
    27fb:	85 c0                	test   %eax,%eax
    27fd:	75 09                	jne    2808 <register_interrupt_handler+0xb8>
    27ff:	83 c4 2c             	add    $0x2c,%esp
    2802:	5b                   	pop    %ebx
    2803:	5e                   	pop    %esi
    2804:	5f                   	pop    %edi
    2805:	5d                   	pop    %ebp
    2806:	c3                   	ret    
    2807:	90                   	nop
    2808:	c7 04 24 b0 8e 02 00 	movl   $0x28eb0,(%esp)
    280f:	89 45 e4             	mov    %eax,-0x1c(%ebp)
    2812:	e8 09 ac 00 00       	call   d420 <fibril_mutex_lock>
    2817:	8b 5e 10             	mov    0x10(%esi),%ebx
    281a:	85 db                	test   %ebx,%ebx
    281c:	8b 45 e4             	mov    -0x1c(%ebp),%eax
    281f:	74 0f                	je     2830 <register_interrupt_handler+0xe0>
    2821:	8b 4e 14             	mov    0x14(%esi),%ecx
    2824:	85 c9                	test   %ecx,%ecx
    2826:	74 08                	je     2830 <register_interrupt_handler+0xe0>
    2828:	89 19                	mov    %ebx,(%ecx)
    282a:	8b 5e 10             	mov    0x10(%esi),%ebx
    282d:	89 4b 04             	mov    %ecx,0x4(%ebx)
    2830:	c7 04 24 b0 8e 02 00 	movl   $0x28eb0,(%esp)
    2837:	89 45 e4             	mov    %eax,-0x1c(%ebp)
    283a:	c7 46 10 00 00 00 00 	movl   $0x0,0x10(%esi)
    2841:	c7 46 14 00 00 00 00 	movl   $0x0,0x14(%esi)
    2848:	e8 f3 ac 00 00       	call   d540 <fibril_mutex_unlock>
    284d:	89 34 24             	mov    %esi,(%esp)
    2850:	e8 5b 40 01 00       	call   168b0 <free>
    2855:	8b 45 e4             	mov    -0x1c(%ebp),%eax
    2858:	83 c4 2c             	add    $0x2c,%esp
    285b:	5b                   	pop    %ebx
    285c:	5e                   	pop    %esi
    285d:	5f                   	pop    %edi
    285e:	5d                   	pop    %ebp
    285f:	c3                   	ret    
    2860:	bb 6c 8a 02 00       	mov    $0x28a6c,%ebx
    2865:	e9 76 ff ff ff       	jmp    27e0 <register_interrupt_handler+0x90>
    286a:	8d b6 00 00 00 00    	lea    0x0(%esi),%esi

00002870 <unregister_interrupt_handler>:
    2870:	55                   	push   %ebp
    2871:	89 e5                	mov    %esp,%ebp
    2873:	57                   	push   %edi
    2874:	56                   	push   %esi
    2875:	53                   	push   %ebx
    2876:	83 ec 1c             	sub    $0x1c,%esp
    2879:	8b 7d 08             	mov    0x8(%ebp),%edi
    287c:	8b 75 0c             	mov    0xc(%ebp),%esi
    287f:	c7 04 24 b0 8e 02 00 	movl   $0x28eb0,(%esp)
    2886:	e8 95 ab 00 00       	call   d420 <fibril_mutex_lock>
    288b:	a1 ac 8e 02 00       	mov    0x28eac,%eax
    2890:	3d a8 8e 02 00       	cmp    $0x28ea8,%eax
    2895:	75 13                	jne    28aa <unregister_interrupt_handler+0x3a>
    2897:	e9 8c 00 00 00       	jmp    2928 <unregister_interrupt_handler+0xb8>
    289c:	8d 74 26 00          	lea    0x0(%esi,%eiz,1),%esi
    28a0:	8b 40 04             	mov    0x4(%eax),%eax
    28a3:	3d a8 8e 02 00       	cmp    $0x28ea8,%eax
    28a8:	74 7e                	je     2928 <unregister_interrupt_handler+0xb8>
    28aa:	8d 58 f0             	lea    -0x10(%eax),%ebx
    28ad:	3b 73 08             	cmp    0x8(%ebx),%esi
    28b0:	75 ee                	jne    28a0 <unregister_interrupt_handler+0x30>
    28b2:	3b 7b 04             	cmp    0x4(%ebx),%edi
    28b5:	75 e9                	jne    28a0 <unregister_interrupt_handler+0x30>
    28b7:	c7 04 24 b0 8e 02 00 	movl   $0x28eb0,(%esp)
    28be:	e8 7d ac 00 00       	call   d540 <fibril_mutex_unlock>
    28c3:	8b 07                	mov    (%edi),%eax
    28c5:	89 44 24 04          	mov    %eax,0x4(%esp)
    28c9:	89 34 24             	mov    %esi,(%esp)
    28cc:	e8 7f 4b 00 00       	call   7450 <irq_unregister>
    28d1:	c7 04 24 b0 8e 02 00 	movl   $0x28eb0,(%esp)
    28d8:	89 c6                	mov    %eax,%esi
    28da:	e8 41 ab 00 00       	call   d420 <fibril_mutex_lock>
    28df:	8b 43 10             	mov    0x10(%ebx),%eax
    28e2:	85 c0                	test   %eax,%eax
    28e4:	74 0f                	je     28f5 <unregister_interrupt_handler+0x85>
    28e6:	8b 53 14             	mov    0x14(%ebx),%edx
    28e9:	85 d2                	test   %edx,%edx
    28eb:	74 08                	je     28f5 <unregister_interrupt_handler+0x85>
    28ed:	89 02                	mov    %eax,(%edx)
    28ef:	8b 4b 10             	mov    0x10(%ebx),%ecx
    28f2:	89 51 04             	mov    %edx,0x4(%ecx)
    28f5:	c7 43 10 00 00 00 00 	movl   $0x0,0x10(%ebx)
    28fc:	c7 43 14 00 00 00 00 	movl   $0x0,0x14(%ebx)
    2903:	c7 04 24 b0 8e 02 00 	movl   $0x28eb0,(%esp)
    290a:	e8 31 ac 00 00       	call   d540 <fibril_mutex_unlock>
    290f:	89 1c 24             	mov    %ebx,(%esp)
    2912:	e8 99 3f 01 00       	call   168b0 <free>
    2917:	83 c4 1c             	add    $0x1c,%esp
    291a:	89 f0                	mov    %esi,%eax
    291c:	5b                   	pop    %ebx
    291d:	5e                   	pop    %esi
    291e:	5f                   	pop    %edi
    291f:	5d                   	pop    %ebp
    2920:	c3                   	ret    
    2921:	8d b4 26 00 00 00 00 	lea    0x0(%esi,%eiz,1),%esi
    2928:	c7 04 24 b0 8e 02 00 	movl   $0x28eb0,(%esp)
    292f:	e8 0c ac 00 00       	call   d540 <fibril_mutex_unlock>
    2934:	8b 07                	mov    (%edi),%eax
    2936:	89 45 0c             	mov    %eax,0xc(%ebp)
    2939:	89 75 08             	mov    %esi,0x8(%ebp)
    293c:	83 c4 1c             	add    $0x1c,%esp
    293f:	5b                   	pop    %ebx
    2940:	5e                   	pop    %esi
    2941:	5f                   	pop    %edi
    2942:	5d                   	pop    %ebp
    2943:	e9 08 4b 00 00       	jmp    7450 <irq_unregister>
    2948:	66 90                	xchg   %ax,%ax
    294a:	66 90                	xchg   %ax,%ax
    294c:	66 90                	xchg   %ax,%ax
    294e:	66 90                	xchg   %ax,%ax

00002950 <ddf_log_init>:
    2950:	55                   	push   %ebp
    2951:	89 e5                	mov    %esp,%ebp
    2953:	5d                   	pop    %ebp
    2954:	e9 d7 eb 00 00       	jmp    11530 <log_init>
    2959:	8d b4 26 00 00 00 00 	lea    0x0(%esi,%eiz,1),%esi

00002960 <ddf_msg>:
    2960:	55                   	push   %ebp
    2961:	89 e5                	mov    %esp,%ebp
    2963:	83 ec 18             	sub    $0x18,%esp
    2966:	8d 45 10             	lea    0x10(%ebp),%eax
    2969:	c7 04 24 ff ff ff ff 	movl   $0xffffffff,(%esp)
    2970:	89 44 24 0c          	mov    %eax,0xc(%esp)
    2974:	8b 45 0c             	mov    0xc(%ebp),%eax
    2977:	89 44 24 08          	mov    %eax,0x8(%esp)
    297b:	8b 45 08             	mov    0x8(%ebp),%eax
    297e:	89 44 24 04          	mov    %eax,0x4(%esp)
    2982:	e8 99 ee 00 00       	call   11820 <log_msgv>
    2987:	c9                   	leave  
    2988:	c3                   	ret    
    2989:	66 90                	xchg   %ax,%ax
    298b:	66 90                	xchg   %ax,%ax
    298d:	66 90                	xchg   %ax,%ax
    298f:	90                   	nop

00002990 <remote_hw_res_enable_interrupt>:
    2990:	55                   	push   %ebp
    2991:	89 e5                	mov    %esp,%ebp
    2993:	53                   	push   %ebx
    2994:	83 ec 14             	sub    $0x14,%esp
    2997:	8b 45 0c             	mov    0xc(%ebp),%eax
    299a:	8b 55 08             	mov    0x8(%ebp),%edx
    299d:	8b 5d 10             	mov    0x10(%ebp),%ebx
    29a0:	8b 40 04             	mov    0x4(%eax),%eax
    29a3:	85 c0                	test   %eax,%eax
    29a5:	74 39                	je     29e0 <remote_hw_res_enable_interrupt+0x50>
    29a7:	89 14 24             	mov    %edx,(%esp)
    29aa:	ff d0                	call   *%eax
    29ac:	84 c0                	test   %al,%al
    29ae:	75 18                	jne    29c8 <remote_hw_res_enable_interrupt+0x38>
    29b0:	89 5d 08             	mov    %ebx,0x8(%ebp)
    29b3:	c7 45 0c fc ff ff ff 	movl   $0xfffffffc,0xc(%ebp)
    29ba:	83 c4 14             	add    $0x14,%esp
    29bd:	5b                   	pop    %ebx
    29be:	5d                   	pop    %ebp
    29bf:	e9 8c 6c 01 00       	jmp    19650 <async_answer_0>
    29c4:	8d 74 26 00          	lea    0x0(%esi,%eiz,1),%esi
    29c8:	89 5d 08             	mov    %ebx,0x8(%ebp)
    29cb:	c7 45 0c 00 00 00 00 	movl   $0x0,0xc(%ebp)
    29d2:	83 c4 14             	add    $0x14,%esp
    29d5:	5b                   	pop    %ebx
    29d6:	5d                   	pop    %ebp
    29d7:	e9 74 6c 01 00       	jmp    19650 <async_answer_0>
    29dc:	8d 74 26 00          	lea    0x0(%esi,%eiz,1),%esi
    29e0:	89 5d 08             	mov    %ebx,0x8(%ebp)
    29e3:	c7 45 0c f5 ff ff ff 	movl   $0xfffffff5,0xc(%ebp)
    29ea:	83 c4 14             	add    $0x14,%esp
    29ed:	5b                   	pop    %ebx
    29ee:	5d                   	pop    %ebp
    29ef:	e9 5c 6c 01 00       	jmp    19650 <async_answer_0>
    29f4:	8d b6 00 00 00 00    	lea    0x0(%esi),%esi
    29fa:	8d bf 00 00 00 00    	lea    0x0(%edi),%edi

00002a00 <remote_hw_res_get_resource_list>:
    2a00:	55                   	push   %ebp
    2a01:	89 e5                	mov    %esp,%ebp
    2a03:	53                   	push   %ebx
    2a04:	83 ec 24             	sub    $0x24,%esp
    2a07:	8b 45 0c             	mov    0xc(%ebp),%eax
    2a0a:	8b 00                	mov    (%eax),%eax
    2a0c:	85 c0                	test   %eax,%eax
    2a0e:	74 48                	je     2a58 <remote_hw_res_get_resource_list+0x58>
    2a10:	8b 55 08             	mov    0x8(%ebp),%edx
    2a13:	89 14 24             	mov    %edx,(%esp)
    2a16:	ff d0                	call   *%eax
    2a18:	89 c3                	mov    %eax,%ebx
    2a1a:	85 c0                	test   %eax,%eax
    2a1c:	74 7a                	je     2a98 <remote_hw_res_get_resource_list+0x98>
    2a1e:	8b 00                	mov    (%eax),%eax
    2a20:	c7 44 24 04 00 00 00 	movl   $0x0,0x4(%esp)
    2a27:	00 
    2a28:	89 44 24 08          	mov    %eax,0x8(%esp)
    2a2c:	8b 45 10             	mov    0x10(%ebp),%eax
    2a2f:	89 04 24             	mov    %eax,(%esp)
    2a32:	e8 59 6c 01 00       	call   19690 <async_answer_1>
    2a37:	8d 45 f4             	lea    -0xc(%ebp),%eax
    2a3a:	89 44 24 04          	mov    %eax,0x4(%esp)
    2a3e:	8d 45 10             	lea    0x10(%ebp),%eax
    2a41:	89 04 24             	mov    %eax,(%esp)
    2a44:	e8 77 81 01 00       	call   1abc0 <async_data_read_receive>
    2a49:	84 c0                	test   %al,%al
    2a4b:	75 2b                	jne    2a78 <remote_hw_res_get_resource_list+0x78>
    2a4d:	83 c4 24             	add    $0x24,%esp
    2a50:	5b                   	pop    %ebx
    2a51:	5d                   	pop    %ebp
    2a52:	c3                   	ret    
    2a53:	90                   	nop
    2a54:	8d 74 26 00          	lea    0x0(%esi,%eiz,1),%esi
    2a58:	8b 45 10             	mov    0x10(%ebp),%eax
    2a5b:	c7 44 24 04 f5 ff ff 	movl   $0xfffffff5,0x4(%esp)
    2a62:	ff 
    2a63:	89 04 24             	mov    %eax,(%esp)
    2a66:	e8 e5 6b 01 00       	call   19650 <async_answer_0>
    2a6b:	83 c4 24             	add    $0x24,%esp
    2a6e:	5b                   	pop    %ebx
    2a6f:	5d                   	pop    %ebp
    2a70:	c3                   	ret    
    2a71:	8d b4 26 00 00 00 00 	lea    0x0(%esi,%eiz,1),%esi
    2a78:	8b 45 f4             	mov    -0xc(%ebp),%eax
    2a7b:	89 44 24 08          	mov    %eax,0x8(%esp)
    2a7f:	8b 43 04             	mov    0x4(%ebx),%eax
    2a82:	89 44 24 04          	mov    %eax,0x4(%esp)
    2a86:	8b 45 10             	mov    0x10(%ebp),%eax
    2a89:	89 04 24             	mov    %eax,(%esp)
    2a8c:	e8 8f 81 01 00       	call   1ac20 <async_data_read_finalize>
    2a91:	83 c4 24             	add    $0x24,%esp
    2a94:	5b                   	pop    %ebx
    2a95:	5d                   	pop    %ebp
    2a96:	c3                   	ret    
    2a97:	90                   	nop
    2a98:	8b 45 10             	mov    0x10(%ebp),%eax
    2a9b:	c7 44 24 04 ff ff ff 	movl   $0xffffffff,0x4(%esp)
    2aa2:	ff 
    2aa3:	89 04 24             	mov    %eax,(%esp)
    2aa6:	e8 a5 6b 01 00       	call   19650 <async_answer_0>
    2aab:	83 c4 24             	add    $0x24,%esp
    2aae:	5b                   	pop    %ebx
    2aaf:	5d                   	pop    %ebp
    2ab0:	c3                   	ret    
    2ab1:	66 90                	xchg   %ax,%ax
    2ab3:	66 90                	xchg   %ax,%ax
    2ab5:	66 90                	xchg   %ax,%ax
    2ab7:	66 90                	xchg   %ax,%ax
    2ab9:	66 90                	xchg   %ax,%ax
    2abb:	66 90                	xchg   %ax,%ax
    2abd:	66 90                	xchg   %ax,%ax
    2abf:	90                   	nop

00002ac0 <remote_char_write>:
    2ac0:	55                   	push   %ebp
    2ac1:	89 e5                	mov    %esp,%ebp
    2ac3:	56                   	push   %esi
    2ac4:	53                   	push   %ebx
    2ac5:	81 ec 20 01 00 00    	sub    $0x120,%esp
    2acb:	8d 85 f4 fe ff ff    	lea    -0x10c(%ebp),%eax
    2ad1:	8b 5d 0c             	mov    0xc(%ebp),%ebx
    2ad4:	89 44 24 04          	mov    %eax,0x4(%esp)
    2ad8:	8d 85 f0 fe ff ff    	lea    -0x110(%ebp),%eax
    2ade:	89 04 24             	mov    %eax,(%esp)
    2ae1:	e8 fa 85 01 00       	call   1b0e0 <async_data_write_receive>
    2ae6:	84 c0                	test   %al,%al
    2ae8:	0f 84 82 00 00 00    	je     2b70 <remote_char_write+0xb0>
    2aee:	8b 43 04             	mov    0x4(%ebx),%eax
    2af1:	85 c0                	test   %eax,%eax
    2af3:	0f 84 b7 00 00 00    	je     2bb0 <remote_char_write+0xf0>
    2af9:	8b 85 f4 fe ff ff    	mov    -0x10c(%ebp),%eax
    2aff:	3d 00 01 00 00       	cmp    $0x100,%eax
    2b04:	76 0f                	jbe    2b15 <remote_char_write+0x55>
    2b06:	c7 85 f4 fe ff ff 00 	movl   $0x100,-0x10c(%ebp)
    2b0d:	01 00 00 
    2b10:	b8 00 01 00 00       	mov    $0x100,%eax
    2b15:	89 44 24 08          	mov    %eax,0x8(%esp)
    2b19:	8d b5 f8 fe ff ff    	lea    -0x108(%ebp),%esi
    2b1f:	8b 85 f0 fe ff ff    	mov    -0x110(%ebp),%eax
    2b25:	89 74 24 04          	mov    %esi,0x4(%esp)
    2b29:	89 04 24             	mov    %eax,(%esp)
    2b2c:	e8 ff 85 01 00       	call   1b130 <async_data_write_finalize>
    2b31:	8b 85 f4 fe ff ff    	mov    -0x10c(%ebp),%eax
    2b37:	89 44 24 08          	mov    %eax,0x8(%esp)
    2b3b:	8b 45 08             	mov    0x8(%ebp),%eax
    2b3e:	89 74 24 04          	mov    %esi,0x4(%esp)
    2b42:	89 04 24             	mov    %eax,(%esp)
    2b45:	ff 53 04             	call   *0x4(%ebx)
    2b48:	85 c0                	test   %eax,%eax
    2b4a:	78 44                	js     2b90 <remote_char_write+0xd0>
    2b4c:	89 44 24 08          	mov    %eax,0x8(%esp)
    2b50:	8b 45 10             	mov    0x10(%ebp),%eax
    2b53:	c7 44 24 04 00 00 00 	movl   $0x0,0x4(%esp)
    2b5a:	00 
    2b5b:	89 04 24             	mov    %eax,(%esp)
    2b5e:	e8 2d 6b 01 00       	call   19690 <async_answer_1>
    2b63:	81 c4 20 01 00 00    	add    $0x120,%esp
    2b69:	5b                   	pop    %ebx
    2b6a:	5e                   	pop    %esi
    2b6b:	5d                   	pop    %ebp
    2b6c:	c3                   	ret    
    2b6d:	8d 76 00             	lea    0x0(%esi),%esi
    2b70:	8b 45 10             	mov    0x10(%ebp),%eax
    2b73:	c7 44 24 04 f2 ff ff 	movl   $0xfffffff2,0x4(%esp)
    2b7a:	ff 
    2b7b:	89 04 24             	mov    %eax,(%esp)
    2b7e:	e8 cd 6a 01 00       	call   19650 <async_answer_0>
    2b83:	81 c4 20 01 00 00    	add    $0x120,%esp
    2b89:	5b                   	pop    %ebx
    2b8a:	5e                   	pop    %esi
    2b8b:	5d                   	pop    %ebp
    2b8c:	c3                   	ret    
    2b8d:	8d 76 00             	lea    0x0(%esi),%esi
    2b90:	89 44 24 04          	mov    %eax,0x4(%esp)
    2b94:	8b 45 10             	mov    0x10(%ebp),%eax
    2b97:	89 04 24             	mov    %eax,(%esp)
    2b9a:	e8 b1 6a 01 00       	call   19650 <async_answer_0>
    2b9f:	81 c4 20 01 00 00    	add    $0x120,%esp
    2ba5:	5b                   	pop    %ebx
    2ba6:	5e                   	pop    %esi
    2ba7:	5d                   	pop    %ebp
    2ba8:	c3                   	ret    
    2ba9:	8d b4 26 00 00 00 00 	lea    0x0(%esi,%eiz,1),%esi
    2bb0:	8b 85 f0 fe ff ff    	mov    -0x110(%ebp),%eax
    2bb6:	c7 44 24 08 00 00 00 	movl   $0x0,0x8(%esp)
    2bbd:	00 
    2bbe:	c7 44 24 04 00 00 00 	movl   $0x0,0x4(%esp)
    2bc5:	00 
    2bc6:	89 04 24             	mov    %eax,(%esp)
    2bc9:	e8 62 85 01 00       	call   1b130 <async_data_write_finalize>
    2bce:	8b 45 10             	mov    0x10(%ebp),%eax
    2bd1:	c7 44 24 04 f5 ff ff 	movl   $0xfffffff5,0x4(%esp)
    2bd8:	ff 
    2bd9:	89 04 24             	mov    %eax,(%esp)
    2bdc:	e8 6f 6a 01 00       	call   19650 <async_answer_0>
    2be1:	e9 7d ff ff ff       	jmp    2b63 <remote_char_write+0xa3>
    2be6:	8d 76 00             	lea    0x0(%esi),%esi
    2be9:	8d bc 27 00 00 00 00 	lea    0x0(%edi,%eiz,1),%edi

00002bf0 <remote_char_read>:
    2bf0:	55                   	push   %ebp
    2bf1:	89 e5                	mov    %esp,%ebp
    2bf3:	56                   	push   %esi
    2bf4:	53                   	push   %ebx
    2bf5:	81 ec 20 01 00 00    	sub    $0x120,%esp
    2bfb:	8d 85 f4 fe ff ff    	lea    -0x10c(%ebp),%eax
    2c01:	89 44 24 04          	mov    %eax,0x4(%esp)
    2c05:	8d 85 f0 fe ff ff    	lea    -0x110(%ebp),%eax
    2c0b:	89 04 24             	mov    %eax,(%esp)
    2c0e:	e8 ad 7f 01 00       	call   1abc0 <async_data_read_receive>
    2c13:	84 c0                	test   %al,%al
    2c15:	0f 84 b5 00 00 00    	je     2cd0 <remote_char_read+0xe0>
    2c1b:	8b 45 0c             	mov    0xc(%ebp),%eax
    2c1e:	8b 10                	mov    (%eax),%edx
    2c20:	85 d2                	test   %edx,%edx
    2c22:	0f 84 c8 00 00 00    	je     2cf0 <remote_char_read+0x100>
    2c28:	8b 85 f4 fe ff ff    	mov    -0x10c(%ebp),%eax
    2c2e:	3d 00 01 00 00       	cmp    $0x100,%eax
    2c33:	76 0f                	jbe    2c44 <remote_char_read+0x54>
    2c35:	c7 85 f4 fe ff ff 00 	movl   $0x100,-0x10c(%ebp)
    2c3c:	01 00 00 
    2c3f:	b8 00 01 00 00       	mov    $0x100,%eax
    2c44:	89 44 24 08          	mov    %eax,0x8(%esp)
    2c48:	8d b5 f8 fe ff ff    	lea    -0x108(%ebp),%esi
    2c4e:	8b 45 08             	mov    0x8(%ebp),%eax
    2c51:	89 74 24 04          	mov    %esi,0x4(%esp)
    2c55:	89 04 24             	mov    %eax,(%esp)
    2c58:	ff d2                	call   *%edx
    2c5a:	89 c3                	mov    %eax,%ebx
    2c5c:	85 c0                	test   %eax,%eax
    2c5e:	78 38                	js     2c98 <remote_char_read+0xa8>
    2c60:	89 44 24 08          	mov    %eax,0x8(%esp)
    2c64:	8b 85 f0 fe ff ff    	mov    -0x110(%ebp),%eax
    2c6a:	89 74 24 04          	mov    %esi,0x4(%esp)
    2c6e:	89 04 24             	mov    %eax,(%esp)
    2c71:	e8 aa 7f 01 00       	call   1ac20 <async_data_read_finalize>
    2c76:	8b 45 10             	mov    0x10(%ebp),%eax
    2c79:	89 5c 24 08          	mov    %ebx,0x8(%esp)
    2c7d:	c7 44 24 04 00 00 00 	movl   $0x0,0x4(%esp)
    2c84:	00 
    2c85:	89 04 24             	mov    %eax,(%esp)
    2c88:	e8 03 6a 01 00       	call   19690 <async_answer_1>
    2c8d:	81 c4 20 01 00 00    	add    $0x120,%esp
    2c93:	5b                   	pop    %ebx
    2c94:	5e                   	pop    %esi
    2c95:	5d                   	pop    %ebp
    2c96:	c3                   	ret    
    2c97:	90                   	nop
    2c98:	8b 85 f0 fe ff ff    	mov    -0x110(%ebp),%eax
    2c9e:	89 74 24 04          	mov    %esi,0x4(%esp)
    2ca2:	c7 44 24 08 00 00 00 	movl   $0x0,0x8(%esp)
    2ca9:	00 
    2caa:	89 04 24             	mov    %eax,(%esp)
    2cad:	e8 6e 7f 01 00       	call   1ac20 <async_data_read_finalize>
    2cb2:	8b 45 10             	mov    0x10(%ebp),%eax
    2cb5:	89 5c 24 04          	mov    %ebx,0x4(%esp)
    2cb9:	89 04 24             	mov    %eax,(%esp)
    2cbc:	e8 8f 69 01 00       	call   19650 <async_answer_0>
    2cc1:	81 c4 20 01 00 00    	add    $0x120,%esp
    2cc7:	5b                   	pop    %ebx
    2cc8:	5e                   	pop    %esi
    2cc9:	5d                   	pop    %ebp
    2cca:	c3                   	ret    
    2ccb:	90                   	nop
    2ccc:	8d 74 26 00          	lea    0x0(%esi,%eiz,1),%esi
    2cd0:	8b 45 10             	mov    0x10(%ebp),%eax
    2cd3:	c7 44 24 04 f2 ff ff 	movl   $0xfffffff2,0x4(%esp)
    2cda:	ff 
    2cdb:	89 04 24             	mov    %eax,(%esp)
    2cde:	e8 6d 69 01 00       	call   19650 <async_answer_0>
    2ce3:	81 c4 20 01 00 00    	add    $0x120,%esp
    2ce9:	5b                   	pop    %ebx
    2cea:	5e                   	pop    %esi
    2ceb:	5d                   	pop    %ebp
    2cec:	c3                   	ret    
    2ced:	8d 76 00             	lea    0x0(%esi),%esi
    2cf0:	8b 85 f0 fe ff ff    	mov    -0x110(%ebp),%eax
    2cf6:	c7 44 24 08 00 00 00 	movl   $0x0,0x8(%esp)
    2cfd:	00 
    2cfe:	c7 44 24 04 00 00 00 	movl   $0x0,0x4(%esp)
    2d05:	00 
    2d06:	89 04 24             	mov    %eax,(%esp)
    2d09:	e8 12 7f 01 00       	call   1ac20 <async_data_read_finalize>
    2d0e:	8b 45 10             	mov    0x10(%ebp),%eax
    2d11:	c7 44 24 04 f5 ff ff 	movl   $0xfffffff5,0x4(%esp)
    2d18:	ff 
    2d19:	89 04 24             	mov    %eax,(%esp)
    2d1c:	e8 2f 69 01 00       	call   19650 <async_answer_0>
    2d21:	e9 67 ff ff ff       	jmp    2c8d <remote_char_read+0x9d>
    2d26:	66 90                	xchg   %ax,%ax
    2d28:	66 90                	xchg   %ax,%ax
    2d2a:	66 90                	xchg   %ax,%ax
    2d2c:	66 90                	xchg   %ax,%ax
    2d2e:	66 90                	xchg   %ax,%ax

00002d30 <remote_graph_connect>:
    2d30:	55                   	push   %ebp
    2d31:	89 e5                	mov    %esp,%ebp
    2d33:	57                   	push   %edi
    2d34:	56                   	push   %esi
    2d35:	53                   	push   %ebx
    2d36:	83 ec 2c             	sub    $0x2c,%esp
    2d39:	8b 5d 0c             	mov    0xc(%ebp),%ebx
    2d3c:	8b 55 14             	mov    0x14(%ebp),%edx
    2d3f:	8b 7d 08             	mov    0x8(%ebp),%edi
    2d42:	8b 75 10             	mov    0x10(%ebp),%esi
    2d45:	8b 03                	mov    (%ebx),%eax
    2d47:	89 55 e4             	mov    %edx,-0x1c(%ebp)
    2d4a:	85 c0                	test   %eax,%eax
    2d4c:	74 3a                	je     2d88 <remote_graph_connect+0x58>
    2d4e:	89 3c 24             	mov    %edi,(%esp)
    2d51:	e8 0a f3 ff ff       	call   2060 <ddf_fun_data_get>
    2d56:	85 c0                	test   %eax,%eax
    2d58:	74 2e                	je     2d88 <remote_graph_connect+0x58>
    2d5a:	8b 1b                	mov    (%ebx),%ebx
    2d5c:	89 3c 24             	mov    %edi,(%esp)
    2d5f:	e8 fc f2 ff ff       	call   2060 <ddf_fun_data_get>
    2d64:	8b 55 e4             	mov    -0x1c(%ebp),%edx
    2d67:	89 75 0c             	mov    %esi,0xc(%ebp)
    2d6a:	89 45 08             	mov    %eax,0x8(%ebp)
    2d6d:	c7 45 14 00 00 00 00 	movl   $0x0,0x14(%ebp)
    2d74:	89 55 10             	mov    %edx,0x10(%ebp)
    2d77:	83 c4 2c             	add    $0x2c,%esp
    2d7a:	89 d8                	mov    %ebx,%eax
    2d7c:	5b                   	pop    %ebx
    2d7d:	5e                   	pop    %esi
    2d7e:	5f                   	pop    %edi
    2d7f:	5d                   	pop    %ebp
    2d80:	ff e0                	jmp    *%eax
    2d82:	8d b6 00 00 00 00    	lea    0x0(%esi),%esi
    2d88:	89 75 08             	mov    %esi,0x8(%ebp)
    2d8b:	c7 45 0c f5 ff ff ff 	movl   $0xfffffff5,0xc(%ebp)
    2d92:	83 c4 2c             	add    $0x2c,%esp
    2d95:	5b                   	pop    %ebx
    2d96:	5e                   	pop    %esi
    2d97:	5f                   	pop    %edi
    2d98:	5d                   	pop    %ebp
    2d99:	e9 b2 68 01 00       	jmp    19650 <async_answer_0>
    2d9e:	66 90                	xchg   %ax,%ax

00002da0 <remote_nic_poll_now>:
    2da0:	55                   	push   %ebp
    2da1:	89 e5                	mov    %esp,%ebp
    2da3:	53                   	push   %ebx
    2da4:	83 ec 14             	sub    $0x14,%esp
    2da7:	8b 45 0c             	mov    0xc(%ebp),%eax
    2daa:	8b 55 08             	mov    0x8(%ebp),%edx
    2dad:	8b 5d 10             	mov    0x10(%ebp),%ebx
    2db0:	8b 80 a0 00 00 00    	mov    0xa0(%eax),%eax
    2db6:	85 c0                	test   %eax,%eax
    2db8:	74 16                	je     2dd0 <remote_nic_poll_now+0x30>
    2dba:	89 14 24             	mov    %edx,(%esp)
    2dbd:	ff d0                	call   *%eax
    2dbf:	89 5d 08             	mov    %ebx,0x8(%ebp)
    2dc2:	89 45 0c             	mov    %eax,0xc(%ebp)
    2dc5:	83 c4 14             	add    $0x14,%esp
    2dc8:	5b                   	pop    %ebx
    2dc9:	5d                   	pop    %ebp
    2dca:	e9 81 68 01 00       	jmp    19650 <async_answer_0>
    2dcf:	90                   	nop
    2dd0:	89 5d 08             	mov    %ebx,0x8(%ebp)
    2dd3:	c7 45 0c f5 ff ff ff 	movl   $0xfffffff5,0xc(%ebp)
    2dda:	83 c4 14             	add    $0x14,%esp
    2ddd:	5b                   	pop    %ebx
    2dde:	5d                   	pop    %ebp
    2ddf:	e9 6c 68 01 00       	jmp    19650 <async_answer_0>
    2de4:	8d b6 00 00 00 00    	lea    0x0(%esi),%esi
    2dea:	8d bf 00 00 00 00    	lea    0x0(%edi),%edi

00002df0 <remote_nic_offload_set>:
    2df0:	55                   	push   %ebp
    2df1:	89 e5                	mov    %esp,%ebp
    2df3:	56                   	push   %esi
    2df4:	53                   	push   %ebx
    2df5:	83 ec 10             	sub    $0x10,%esp
    2df8:	8b 45 0c             	mov    0xc(%ebp),%eax
    2dfb:	8b 4d 08             	mov    0x8(%ebp),%ecx
    2dfe:	8b 5d 10             	mov    0x10(%ebp),%ebx
    2e01:	8b 55 14             	mov    0x14(%ebp),%edx
    2e04:	8b 80 94 00 00 00    	mov    0x94(%eax),%eax
    2e0a:	85 c0                	test   %eax,%eax
    2e0c:	74 2a                	je     2e38 <remote_nic_offload_set+0x48>
    2e0e:	8b 72 0c             	mov    0xc(%edx),%esi
    2e11:	89 74 24 08          	mov    %esi,0x8(%esp)
    2e15:	8b 52 08             	mov    0x8(%edx),%edx
    2e18:	89 0c 24             	mov    %ecx,(%esp)
    2e1b:	89 54 24 04          	mov    %edx,0x4(%esp)
    2e1f:	ff d0                	call   *%eax
    2e21:	89 5d 08             	mov    %ebx,0x8(%ebp)
    2e24:	89 45 0c             	mov    %eax,0xc(%ebp)
    2e27:	83 c4 10             	add    $0x10,%esp
    2e2a:	5b                   	pop    %ebx
    2e2b:	5e                   	pop    %esi
    2e2c:	5d                   	pop    %ebp
    2e2d:	e9 1e 68 01 00       	jmp    19650 <async_answer_0>
    2e32:	8d b6 00 00 00 00    	lea    0x0(%esi),%esi
    2e38:	89 5d 08             	mov    %ebx,0x8(%ebp)
    2e3b:	c7 45 0c f5 ff ff ff 	movl   $0xfffffff5,0xc(%ebp)
    2e42:	83 c4 10             	add    $0x10,%esp
    2e45:	5b                   	pop    %ebx
    2e46:	5e                   	pop    %esi
    2e47:	5d                   	pop    %ebp
    2e48:	e9 03 68 01 00       	jmp    19650 <async_answer_0>
    2e4d:	8d 76 00             	lea    0x0(%esi),%esi

00002e50 <remote_nic_wol_virtue_remove>:
    2e50:	55                   	push   %ebp
    2e51:	89 e5                	mov    %esp,%ebp
    2e53:	53                   	push   %ebx
    2e54:	83 ec 14             	sub    $0x14,%esp
    2e57:	8b 45 0c             	mov    0xc(%ebp),%eax
    2e5a:	8b 55 08             	mov    0x8(%ebp),%edx
    2e5d:	8b 5d 10             	mov    0x10(%ebp),%ebx
    2e60:	8b 4d 14             	mov    0x14(%ebp),%ecx
    2e63:	8b 40 7c             	mov    0x7c(%eax),%eax
    2e66:	85 c0                	test   %eax,%eax
    2e68:	74 1e                	je     2e88 <remote_nic_wol_virtue_remove+0x38>
    2e6a:	8b 49 08             	mov    0x8(%ecx),%ecx
    2e6d:	89 14 24             	mov    %edx,(%esp)
    2e70:	89 4c 24 04          	mov    %ecx,0x4(%esp)
    2e74:	ff d0                	call   *%eax
    2e76:	89 5d 08             	mov    %ebx,0x8(%ebp)
    2e79:	89 45 0c             	mov    %eax,0xc(%ebp)
    2e7c:	83 c4 14             	add    $0x14,%esp
    2e7f:	5b                   	pop    %ebx
    2e80:	5d                   	pop    %ebp
    2e81:	e9 ca 67 01 00       	jmp    19650 <async_answer_0>
    2e86:	66 90                	xchg   %ax,%ax
    2e88:	89 5d 08             	mov    %ebx,0x8(%ebp)
    2e8b:	c7 45 0c f5 ff ff ff 	movl   $0xfffffff5,0xc(%ebp)
    2e92:	83 c4 14             	add    $0x14,%esp
    2e95:	5b                   	pop    %ebx
    2e96:	5d                   	pop    %ebp
    2e97:	e9 b4 67 01 00       	jmp    19650 <async_answer_0>
    2e9c:	8d 74 26 00          	lea    0x0(%esi,%eiz,1),%esi

00002ea0 <remote_nic_vlan_set_tag>:
    2ea0:	55                   	push   %ebp
    2ea1:	89 e5                	mov    %esp,%ebp
    2ea3:	57                   	push   %edi
    2ea4:	56                   	push   %esi
    2ea5:	53                   	push   %ebx
    2ea6:	83 ec 1c             	sub    $0x1c,%esp
    2ea9:	8b 55 0c             	mov    0xc(%ebp),%edx
    2eac:	8b 7d 08             	mov    0x8(%ebp),%edi
    2eaf:	8b 5d 10             	mov    0x10(%ebp),%ebx
    2eb2:	8b 45 14             	mov    0x14(%ebp),%eax
    2eb5:	8b 52 74             	mov    0x74(%edx),%edx
    2eb8:	85 d2                	test   %edx,%edx
    2eba:	74 4c                	je     2f08 <remote_nic_vlan_set_tag+0x68>
    2ebc:	8b 48 10             	mov    0x10(%eax),%ecx
    2ebf:	85 c9                	test   %ecx,%ecx
    2ec1:	0f 95 c1             	setne  %cl
    2ec4:	81 e1 ff 00 00 00    	and    $0xff,%ecx
    2eca:	89 4c 24 0c          	mov    %ecx,0xc(%esp)
    2ece:	8b 70 0c             	mov    0xc(%eax),%esi
    2ed1:	85 f6                	test   %esi,%esi
    2ed3:	0f 95 c1             	setne  %cl
    2ed6:	81 e1 ff 00 00 00    	and    $0xff,%ecx
    2edc:	89 4c 24 08          	mov    %ecx,0x8(%esp)
    2ee0:	8b 40 08             	mov    0x8(%eax),%eax
    2ee3:	89 3c 24             	mov    %edi,(%esp)
    2ee6:	25 ff ff 00 00       	and    $0xffff,%eax
    2eeb:	89 44 24 04          	mov    %eax,0x4(%esp)
    2eef:	ff d2                	call   *%edx
    2ef1:	89 5d 08             	mov    %ebx,0x8(%ebp)
    2ef4:	89 45 0c             	mov    %eax,0xc(%ebp)
    2ef7:	83 c4 1c             	add    $0x1c,%esp
    2efa:	5b                   	pop    %ebx
    2efb:	5e                   	pop    %esi
    2efc:	5f                   	pop    %edi
    2efd:	5d                   	pop    %ebp
    2efe:	e9 4d 67 01 00       	jmp    19650 <async_answer_0>
    2f03:	90                   	nop
    2f04:	8d 74 26 00          	lea    0x0(%esi,%eiz,1),%esi
    2f08:	89 5d 08             	mov    %ebx,0x8(%ebp)
    2f0b:	c7 45 0c f5 ff ff ff 	movl   $0xfffffff5,0xc(%ebp)
    2f12:	83 c4 1c             	add    $0x1c,%esp
    2f15:	5b                   	pop    %ebx
    2f16:	5e                   	pop    %esi
    2f17:	5f                   	pop    %edi
    2f18:	5d                   	pop    %ebp
    2f19:	e9 32 67 01 00       	jmp    19650 <async_answer_0>
    2f1e:	66 90                	xchg   %ax,%ax

00002f20 <remote_nic_defective_set_mode>:
    2f20:	55                   	push   %ebp
    2f21:	89 e5                	mov    %esp,%ebp
    2f23:	53                   	push   %ebx
    2f24:	83 ec 14             	sub    $0x14,%esp
    2f27:	8b 45 0c             	mov    0xc(%ebp),%eax
    2f2a:	8b 55 08             	mov    0x8(%ebp),%edx
    2f2d:	8b 5d 10             	mov    0x10(%ebp),%ebx
    2f30:	8b 4d 14             	mov    0x14(%ebp),%ecx
    2f33:	8b 40 60             	mov    0x60(%eax),%eax
    2f36:	85 c0                	test   %eax,%eax
    2f38:	74 1e                	je     2f58 <remote_nic_defective_set_mode+0x38>
    2f3a:	8b 49 08             	mov    0x8(%ecx),%ecx
    2f3d:	89 14 24             	mov    %edx,(%esp)
    2f40:	89 4c 24 04          	mov    %ecx,0x4(%esp)
    2f44:	ff d0                	call   *%eax
    2f46:	89 5d 08             	mov    %ebx,0x8(%ebp)
    2f49:	89 45 0c             	mov    %eax,0xc(%ebp)
    2f4c:	83 c4 14             	add    $0x14,%esp
    2f4f:	5b                   	pop    %ebx
    2f50:	5d                   	pop    %ebp
    2f51:	e9 fa 66 01 00       	jmp    19650 <async_answer_0>
    2f56:	66 90                	xchg   %ax,%ax
    2f58:	89 5d 08             	mov    %ebx,0x8(%ebp)
    2f5b:	c7 45 0c f5 ff ff ff 	movl   $0xfffffff5,0xc(%ebp)
    2f62:	83 c4 14             	add    $0x14,%esp
    2f65:	5b                   	pop    %ebx
    2f66:	5d                   	pop    %ebp
    2f67:	e9 e4 66 01 00       	jmp    19650 <async_answer_0>
    2f6c:	8d 74 26 00          	lea    0x0(%esi,%eiz,1),%esi

00002f70 <remote_nic_broadcast_set_mode>:
    2f70:	55                   	push   %ebp
    2f71:	89 e5                	mov    %esp,%ebp
    2f73:	53                   	push   %ebx
    2f74:	83 ec 14             	sub    $0x14,%esp
    2f77:	8b 45 0c             	mov    0xc(%ebp),%eax
    2f7a:	8b 55 08             	mov    0x8(%ebp),%edx
    2f7d:	8b 5d 10             	mov    0x10(%ebp),%ebx
    2f80:	8b 4d 14             	mov    0x14(%ebp),%ecx
    2f83:	8b 40 58             	mov    0x58(%eax),%eax
    2f86:	85 c0                	test   %eax,%eax
    2f88:	74 1e                	je     2fa8 <remote_nic_broadcast_set_mode+0x38>
    2f8a:	8b 49 08             	mov    0x8(%ecx),%ecx
    2f8d:	89 14 24             	mov    %edx,(%esp)
    2f90:	89 4c 24 04          	mov    %ecx,0x4(%esp)
    2f94:	ff d0                	call   *%eax
    2f96:	89 5d 08             	mov    %ebx,0x8(%ebp)
    2f99:	89 45 0c             	mov    %eax,0xc(%ebp)
    2f9c:	83 c4 14             	add    $0x14,%esp
    2f9f:	5b                   	pop    %ebx
    2fa0:	5d                   	pop    %ebp
    2fa1:	e9 aa 66 01 00       	jmp    19650 <async_answer_0>
    2fa6:	66 90                	xchg   %ax,%ax
    2fa8:	89 5d 08             	mov    %ebx,0x8(%ebp)
    2fab:	c7 45 0c f5 ff ff ff 	movl   $0xfffffff5,0xc(%ebp)
    2fb2:	83 c4 14             	add    $0x14,%esp
    2fb5:	5b                   	pop    %ebx
    2fb6:	5d                   	pop    %ebp
    2fb7:	e9 94 66 01 00       	jmp    19650 <async_answer_0>
    2fbc:	8d 74 26 00          	lea    0x0(%esi,%eiz,1),%esi

00002fc0 <remote_nic_set_pause>:
    2fc0:	55                   	push   %ebp
    2fc1:	89 e5                	mov    %esp,%ebp
    2fc3:	56                   	push   %esi
    2fc4:	53                   	push   %ebx
    2fc5:	83 ec 10             	sub    $0x10,%esp
    2fc8:	8b 55 0c             	mov    0xc(%ebp),%edx
    2fcb:	8b 4d 08             	mov    0x8(%ebp),%ecx
    2fce:	8b 5d 10             	mov    0x10(%ebp),%ebx
    2fd1:	8b 45 14             	mov    0x14(%ebp),%eax
    2fd4:	8b 52 40             	mov    0x40(%edx),%edx
    2fd7:	85 d2                	test   %edx,%edx
    2fd9:	74 2d                	je     3008 <remote_nic_set_pause+0x48>
    2fdb:	0f b7 70 10          	movzwl 0x10(%eax),%esi
    2fdf:	89 74 24 0c          	mov    %esi,0xc(%esp)
    2fe3:	8b 70 0c             	mov    0xc(%eax),%esi
    2fe6:	89 74 24 08          	mov    %esi,0x8(%esp)
    2fea:	8b 40 08             	mov    0x8(%eax),%eax
    2fed:	89 0c 24             	mov    %ecx,(%esp)
    2ff0:	89 44 24 04          	mov    %eax,0x4(%esp)
    2ff4:	ff d2                	call   *%edx
    2ff6:	89 5d 08             	mov    %ebx,0x8(%ebp)
    2ff9:	89 45 0c             	mov    %eax,0xc(%ebp)
    2ffc:	83 c4 10             	add    $0x10,%esp
    2fff:	5b                   	pop    %ebx
    3000:	5e                   	pop    %esi
    3001:	5d                   	pop    %ebp
    3002:	e9 49 66 01 00       	jmp    19650 <async_answer_0>
    3007:	90                   	nop
    3008:	89 5d 08             	mov    %ebx,0x8(%ebp)
    300b:	c7 45 0c f5 ff ff ff 	movl   $0xfffffff5,0xc(%ebp)
    3012:	83 c4 10             	add    $0x10,%esp
    3015:	5b                   	pop    %ebx
    3016:	5e                   	pop    %esi
    3017:	5d                   	pop    %ebp
    3018:	e9 33 66 01 00       	jmp    19650 <async_answer_0>
    301d:	8d 76 00             	lea    0x0(%esi),%esi

00003020 <remote_nic_autoneg_restart>:
    3020:	55                   	push   %ebp
    3021:	89 e5                	mov    %esp,%ebp
    3023:	53                   	push   %ebx
    3024:	83 ec 14             	sub    $0x14,%esp
    3027:	8b 45 0c             	mov    0xc(%ebp),%eax
    302a:	8b 55 08             	mov    0x8(%ebp),%edx
    302d:	8b 5d 10             	mov    0x10(%ebp),%ebx
    3030:	8b 40 38             	mov    0x38(%eax),%eax
    3033:	85 c0                	test   %eax,%eax
    3035:	74 19                	je     3050 <remote_nic_autoneg_restart+0x30>
    3037:	89 14 24             	mov    %edx,(%esp)
    303a:	ff d0                	call   *%eax
    303c:	89 5d 08             	mov    %ebx,0x8(%ebp)
    303f:	89 45 0c             	mov    %eax,0xc(%ebp)
    3042:	83 c4 14             	add    $0x14,%esp
    3045:	5b                   	pop    %ebx
    3046:	5d                   	pop    %ebp
    3047:	e9 04 66 01 00       	jmp    19650 <async_answer_0>
    304c:	8d 74 26 00          	lea    0x0(%esi,%eiz,1),%esi
    3050:	89 5d 08             	mov    %ebx,0x8(%ebp)
    3053:	c7 45 0c f5 ff ff ff 	movl   $0xfffffff5,0xc(%ebp)
    305a:	83 c4 14             	add    $0x14,%esp
    305d:	5b                   	pop    %ebx
    305e:	5d                   	pop    %ebp
    305f:	e9 ec 65 01 00       	jmp    19650 <async_answer_0>
    3064:	8d b6 00 00 00 00    	lea    0x0(%esi),%esi
    306a:	8d bf 00 00 00 00    	lea    0x0(%edi),%edi

00003070 <remote_nic_autoneg_disable>:
    3070:	55                   	push   %ebp
    3071:	89 e5                	mov    %esp,%ebp
    3073:	53                   	push   %ebx
    3074:	83 ec 14             	sub    $0x14,%esp
    3077:	8b 45 0c             	mov    0xc(%ebp),%eax
    307a:	8b 55 08             	mov    0x8(%ebp),%edx
    307d:	8b 5d 10             	mov    0x10(%ebp),%ebx
    3080:	8b 40 30             	mov    0x30(%eax),%eax
    3083:	85 c0                	test   %eax,%eax
    3085:	74 19                	je     30a0 <remote_nic_autoneg_disable+0x30>
    3087:	89 14 24             	mov    %edx,(%esp)
    308a:	ff d0                	call   *%eax
    308c:	89 5d 08             	mov    %ebx,0x8(%ebp)
    308f:	89 45 0c             	mov    %eax,0xc(%ebp)
    3092:	83 c4 14             	add    $0x14,%esp
    3095:	5b                   	pop    %ebx
    3096:	5d                   	pop    %ebp
    3097:	e9 b4 65 01 00       	jmp    19650 <async_answer_0>
    309c:	8d 74 26 00          	lea    0x0(%esi,%eiz,1),%esi
    30a0:	89 5d 08             	mov    %ebx,0x8(%ebp)
    30a3:	c7 45 0c f5 ff ff ff 	movl   $0xfffffff5,0xc(%ebp)
    30aa:	83 c4 14             	add    $0x14,%esp
    30ad:	5b                   	pop    %ebx
    30ae:	5d                   	pop    %ebp
    30af:	e9 9c 65 01 00       	jmp    19650 <async_answer_0>
    30b4:	8d b6 00 00 00 00    	lea    0x0(%esi),%esi
    30ba:	8d bf 00 00 00 00    	lea    0x0(%edi),%edi

000030c0 <remote_nic_autoneg_enable>:
    30c0:	55                   	push   %ebp
    30c1:	89 e5                	mov    %esp,%ebp
    30c3:	53                   	push   %ebx
    30c4:	83 ec 14             	sub    $0x14,%esp
    30c7:	8b 45 0c             	mov    0xc(%ebp),%eax
    30ca:	8b 55 08             	mov    0x8(%ebp),%edx
    30cd:	8b 5d 10             	mov    0x10(%ebp),%ebx
    30d0:	8b 4d 14             	mov    0x14(%ebp),%ecx
    30d3:	8b 40 2c             	mov    0x2c(%eax),%eax
    30d6:	85 c0                	test   %eax,%eax
    30d8:	74 1e                	je     30f8 <remote_nic_autoneg_enable+0x38>
    30da:	8b 49 08             	mov    0x8(%ecx),%ecx
    30dd:	89 14 24             	mov    %edx,(%esp)
    30e0:	89 4c 24 04          	mov    %ecx,0x4(%esp)
    30e4:	ff d0                	call   *%eax
    30e6:	89 5d 08             	mov    %ebx,0x8(%ebp)
    30e9:	89 45 0c             	mov    %eax,0xc(%ebp)
    30ec:	83 c4 14             	add    $0x14,%esp
    30ef:	5b                   	pop    %ebx
    30f0:	5d                   	pop    %ebp
    30f1:	e9 5a 65 01 00       	jmp    19650 <async_answer_0>
    30f6:	66 90                	xchg   %ax,%ax
    30f8:	89 5d 08             	mov    %ebx,0x8(%ebp)
    30fb:	c7 45 0c f5 ff ff ff 	movl   $0xfffffff5,0xc(%ebp)
    3102:	83 c4 14             	add    $0x14,%esp
    3105:	5b                   	pop    %ebx
    3106:	5d                   	pop    %ebp
    3107:	e9 44 65 01 00       	jmp    19650 <async_answer_0>
    310c:	8d 74 26 00          	lea    0x0(%esi,%eiz,1),%esi

00003110 <remote_nic_set_operation_mode>:
    3110:	55                   	push   %ebp
    3111:	89 e5                	mov    %esp,%ebp
    3113:	56                   	push   %esi
    3114:	53                   	push   %ebx
    3115:	83 ec 10             	sub    $0x10,%esp
    3118:	8b 55 0c             	mov    0xc(%ebp),%edx
    311b:	8b 4d 08             	mov    0x8(%ebp),%ecx
    311e:	8b 5d 10             	mov    0x10(%ebp),%ebx
    3121:	8b 45 14             	mov    0x14(%ebp),%eax
    3124:	8b 52 28             	mov    0x28(%edx),%edx
    3127:	85 d2                	test   %edx,%edx
    3129:	74 2d                	je     3158 <remote_nic_set_operation_mode+0x48>
    312b:	8b 70 10             	mov    0x10(%eax),%esi
    312e:	89 74 24 0c          	mov    %esi,0xc(%esp)
    3132:	8b 70 0c             	mov    0xc(%eax),%esi
    3135:	89 74 24 08          	mov    %esi,0x8(%esp)
    3139:	8b 40 08             	mov    0x8(%eax),%eax
    313c:	89 0c 24             	mov    %ecx,(%esp)
    313f:	89 44 24 04          	mov    %eax,0x4(%esp)
    3143:	ff d2                	call   *%edx
    3145:	89 5d 08             	mov    %ebx,0x8(%ebp)
    3148:	89 45 0c             	mov    %eax,0xc(%ebp)
    314b:	83 c4 10             	add    $0x10,%esp
    314e:	5b                   	pop    %ebx
    314f:	5e                   	pop    %esi
    3150:	5d                   	pop    %ebp
    3151:	e9 fa 64 01 00       	jmp    19650 <async_answer_0>
    3156:	66 90                	xchg   %ax,%ax
    3158:	89 5d 08             	mov    %ebx,0x8(%ebp)
    315b:	c7 45 0c f5 ff ff ff 	movl   $0xfffffff5,0xc(%ebp)
    3162:	83 c4 10             	add    $0x10,%esp
    3165:	5b                   	pop    %ebx
    3166:	5e                   	pop    %esi
    3167:	5d                   	pop    %ebp
    3168:	e9 e3 64 01 00       	jmp    19650 <async_answer_0>
    316d:	8d 76 00             	lea    0x0(%esi),%esi

00003170 <remote_nic_poll_set_mode>:
    3170:	55                   	push   %ebp
    3171:	31 d2                	xor    %edx,%edx
    3173:	89 e5                	mov    %esp,%ebp
    3175:	56                   	push   %esi
    3176:	53                   	push   %ebx
    3177:	83 ec 20             	sub    $0x20,%esp
    317a:	8b 45 14             	mov    0x14(%ebp),%eax
    317d:	8b 58 08             	mov    0x8(%eax),%ebx
    3180:	8b 40 0c             	mov    0xc(%eax),%eax
    3183:	85 c0                	test   %eax,%eax
    3185:	75 39                	jne    31c0 <remote_nic_poll_set_mode+0x50>
    3187:	8b 45 0c             	mov    0xc(%ebp),%eax
    318a:	8b 80 9c 00 00 00    	mov    0x9c(%eax),%eax
    3190:	85 c0                	test   %eax,%eax
    3192:	0f 84 b8 00 00 00    	je     3250 <remote_nic_poll_set_mode+0xe0>
    3198:	89 54 24 08          	mov    %edx,0x8(%esp)
    319c:	8b 55 08             	mov    0x8(%ebp),%edx
    319f:	89 5c 24 04          	mov    %ebx,0x4(%esp)
    31a3:	89 14 24             	mov    %edx,(%esp)
    31a6:	ff d0                	call   *%eax
    31a8:	89 44 24 04          	mov    %eax,0x4(%esp)
    31ac:	8b 45 10             	mov    0x10(%ebp),%eax
    31af:	89 04 24             	mov    %eax,(%esp)
    31b2:	e8 99 64 01 00       	call   19650 <async_answer_0>
    31b7:	83 c4 20             	add    $0x20,%esp
    31ba:	5b                   	pop    %ebx
    31bb:	5e                   	pop    %esi
    31bc:	5d                   	pop    %ebp
    31bd:	c3                   	ret    
    31be:	66 90                	xchg   %ax,%ax
    31c0:	8d 45 e8             	lea    -0x18(%ebp),%eax
    31c3:	89 44 24 04          	mov    %eax,0x4(%esp)
    31c7:	8d 45 ec             	lea    -0x14(%ebp),%eax
    31ca:	89 04 24             	mov    %eax,(%esp)
    31cd:	e8 0e 7f 01 00       	call   1b0e0 <async_data_write_receive>
    31d2:	84 c0                	test   %al,%al
    31d4:	0f 84 96 00 00 00    	je     3270 <remote_nic_poll_set_mode+0x100>
    31da:	83 7d e8 08          	cmpl   $0x8,-0x18(%ebp)
    31de:	74 30                	je     3210 <remote_nic_poll_set_mode+0xa0>
    31e0:	8b 45 ec             	mov    -0x14(%ebp),%eax
    31e3:	c7 44 24 04 fd ff ff 	movl   $0xfffffffd,0x4(%esp)
    31ea:	ff 
    31eb:	89 04 24             	mov    %eax,(%esp)
    31ee:	e8 5d 64 01 00       	call   19650 <async_answer_0>
    31f3:	8b 45 10             	mov    0x10(%ebp),%eax
    31f6:	c7 44 24 04 fd ff ff 	movl   $0xfffffffd,0x4(%esp)
    31fd:	ff 
    31fe:	89 04 24             	mov    %eax,(%esp)
    3201:	e8 4a 64 01 00       	call   19650 <async_answer_0>
    3206:	83 c4 20             	add    $0x20,%esp
    3209:	5b                   	pop    %ebx
    320a:	5e                   	pop    %esi
    320b:	5d                   	pop    %ebp
    320c:	c3                   	ret    
    320d:	8d 76 00             	lea    0x0(%esi),%esi
    3210:	8d 75 f0             	lea    -0x10(%ebp),%esi
    3213:	8b 45 ec             	mov    -0x14(%ebp),%eax
    3216:	c7 44 24 08 08 00 00 	movl   $0x8,0x8(%esp)
    321d:	00 
    321e:	89 74 24 04          	mov    %esi,0x4(%esp)
    3222:	89 04 24             	mov    %eax,(%esp)
    3225:	e8 06 7f 01 00       	call   1b130 <async_data_write_finalize>
    322a:	89 f2                	mov    %esi,%edx
    322c:	85 c0                	test   %eax,%eax
    322e:	0f 84 53 ff ff ff    	je     3187 <remote_nic_poll_set_mode+0x17>
    3234:	8b 45 10             	mov    0x10(%ebp),%eax
    3237:	c7 44 24 04 f2 ff ff 	movl   $0xfffffff2,0x4(%esp)
    323e:	ff 
    323f:	89 04 24             	mov    %eax,(%esp)
    3242:	e8 09 64 01 00       	call   19650 <async_answer_0>
    3247:	e9 6b ff ff ff       	jmp    31b7 <remote_nic_poll_set_mode+0x47>
    324c:	8d 74 26 00          	lea    0x0(%esi,%eiz,1),%esi
    3250:	8b 45 10             	mov    0x10(%ebp),%eax
    3253:	c7 44 24 04 f5 ff ff 	movl   $0xfffffff5,0x4(%esp)
    325a:	ff 
    325b:	89 04 24             	mov    %eax,(%esp)
    325e:	e8 ed 63 01 00       	call   19650 <async_answer_0>
    3263:	83 c4 20             	add    $0x20,%esp
    3266:	5b                   	pop    %ebx
    3267:	5e                   	pop    %esi
    3268:	5d                   	pop    %ebp
    3269:	c3                   	ret    
    326a:	8d b6 00 00 00 00    	lea    0x0(%esi),%esi
    3270:	8b 45 ec             	mov    -0x14(%ebp),%eax
    3273:	c7 44 24 04 f2 ff ff 	movl   $0xfffffff2,0x4(%esp)
    327a:	ff 
    327b:	89 04 24             	mov    %eax,(%esp)
    327e:	e8 cd 63 01 00       	call   19650 <async_answer_0>
    3283:	8b 45 10             	mov    0x10(%ebp),%eax
    3286:	c7 44 24 04 f2 ff ff 	movl   $0xfffffff2,0x4(%esp)
    328d:	ff 
    328e:	89 04 24             	mov    %eax,(%esp)
    3291:	e8 ba 63 01 00       	call   19650 <async_answer_0>
    3296:	e9 1c ff ff ff       	jmp    31b7 <remote_nic_poll_set_mode+0x47>
    329b:	90                   	nop
    329c:	8d 74 26 00          	lea    0x0(%esi,%eiz,1),%esi

000032a0 <remote_nic_vlan_set_mask>:
    32a0:	55                   	push   %ebp
    32a1:	31 d2                	xor    %edx,%edx
    32a3:	89 e5                	mov    %esp,%ebp
    32a5:	53                   	push   %ebx
    32a6:	81 ec 24 02 00 00    	sub    $0x224,%esp
    32ac:	8b 45 14             	mov    0x14(%ebp),%eax
    32af:	8b 40 08             	mov    0x8(%eax),%eax
    32b2:	85 c0                	test   %eax,%eax
    32b4:	75 32                	jne    32e8 <remote_nic_vlan_set_mask+0x48>
    32b6:	8b 45 0c             	mov    0xc(%ebp),%eax
    32b9:	8b 40 70             	mov    0x70(%eax),%eax
    32bc:	85 c0                	test   %eax,%eax
    32be:	0f 84 cc 00 00 00    	je     3390 <remote_nic_vlan_set_mask+0xf0>
    32c4:	89 54 24 04          	mov    %edx,0x4(%esp)
    32c8:	8b 55 08             	mov    0x8(%ebp),%edx
    32cb:	89 14 24             	mov    %edx,(%esp)
    32ce:	ff d0                	call   *%eax
    32d0:	89 44 24 04          	mov    %eax,0x4(%esp)
    32d4:	8b 45 10             	mov    0x10(%ebp),%eax
    32d7:	89 04 24             	mov    %eax,(%esp)
    32da:	e8 71 63 01 00       	call   19650 <async_answer_0>
    32df:	81 c4 24 02 00 00    	add    $0x224,%esp
    32e5:	5b                   	pop    %ebx
    32e6:	5d                   	pop    %ebp
    32e7:	c3                   	ret    
    32e8:	8d 85 f4 fd ff ff    	lea    -0x20c(%ebp),%eax
    32ee:	89 44 24 04          	mov    %eax,0x4(%esp)
    32f2:	8d 85 f0 fd ff ff    	lea    -0x210(%ebp),%eax
    32f8:	89 04 24             	mov    %eax,(%esp)
    32fb:	e8 e0 7d 01 00       	call   1b0e0 <async_data_write_receive>
    3300:	84 c0                	test   %al,%al
    3302:	0f 84 a8 00 00 00    	je     33b0 <remote_nic_vlan_set_mask+0x110>
    3308:	81 bd f4 fd ff ff 00 	cmpl   $0x200,-0x20c(%ebp)
    330f:	02 00 00 
    3312:	74 34                	je     3348 <remote_nic_vlan_set_mask+0xa8>
    3314:	8b 85 f0 fd ff ff    	mov    -0x210(%ebp),%eax
    331a:	c7 44 24 04 fd ff ff 	movl   $0xfffffffd,0x4(%esp)
    3321:	ff 
    3322:	89 04 24             	mov    %eax,(%esp)
    3325:	e8 26 63 01 00       	call   19650 <async_answer_0>
    332a:	8b 45 10             	mov    0x10(%ebp),%eax
    332d:	c7 44 24 04 fd ff ff 	movl   $0xfffffffd,0x4(%esp)
    3334:	ff 
    3335:	89 04 24             	mov    %eax,(%esp)
    3338:	e8 13 63 01 00       	call   19650 <async_answer_0>
    333d:	81 c4 24 02 00 00    	add    $0x224,%esp
    3343:	5b                   	pop    %ebx
    3344:	5d                   	pop    %ebp
    3345:	c3                   	ret    
    3346:	66 90                	xchg   %ax,%ax
    3348:	8d 9d f8 fd ff ff    	lea    -0x208(%ebp),%ebx
    334e:	8b 85 f0 fd ff ff    	mov    -0x210(%ebp),%eax
    3354:	c7 44 24 08 00 02 00 	movl   $0x200,0x8(%esp)
    335b:	00 
    335c:	89 5c 24 04          	mov    %ebx,0x4(%esp)
    3360:	89 04 24             	mov    %eax,(%esp)
    3363:	e8 c8 7d 01 00       	call   1b130 <async_data_write_finalize>
    3368:	89 da                	mov    %ebx,%edx
    336a:	85 c0                	test   %eax,%eax
    336c:	0f 84 44 ff ff ff    	je     32b6 <remote_nic_vlan_set_mask+0x16>
    3372:	8b 45 10             	mov    0x10(%ebp),%eax
    3375:	c7 44 24 04 f2 ff ff 	movl   $0xfffffff2,0x4(%esp)
    337c:	ff 
    337d:	89 04 24             	mov    %eax,(%esp)
    3380:	e8 cb 62 01 00       	call   19650 <async_answer_0>
    3385:	e9 55 ff ff ff       	jmp    32df <remote_nic_vlan_set_mask+0x3f>
    338a:	8d b6 00 00 00 00    	lea    0x0(%esi),%esi
    3390:	8b 45 10             	mov    0x10(%ebp),%eax
    3393:	c7 44 24 04 f5 ff ff 	movl   $0xfffffff5,0x4(%esp)
    339a:	ff 
    339b:	89 04 24             	mov    %eax,(%esp)
    339e:	e8 ad 62 01 00       	call   19650 <async_answer_0>
    33a3:	81 c4 24 02 00 00    	add    $0x224,%esp
    33a9:	5b                   	pop    %ebx
    33aa:	5d                   	pop    %ebp
    33ab:	c3                   	ret    
    33ac:	8d 74 26 00          	lea    0x0(%esi,%eiz,1),%esi
    33b0:	8b 85 f0 fd ff ff    	mov    -0x210(%ebp),%eax
    33b6:	c7 44 24 04 f2 ff ff 	movl   $0xfffffff2,0x4(%esp)
    33bd:	ff 
    33be:	89 04 24             	mov    %eax,(%esp)
    33c1:	e8 8a 62 01 00       	call   19650 <async_answer_0>
    33c6:	8b 45 10             	mov    0x10(%ebp),%eax
    33c9:	c7 44 24 04 f2 ff ff 	movl   $0xfffffff2,0x4(%esp)
    33d0:	ff 
    33d1:	89 04 24             	mov    %eax,(%esp)
    33d4:	e8 77 62 01 00       	call   19650 <async_answer_0>
    33d9:	e9 01 ff ff ff       	jmp    32df <remote_nic_vlan_set_mask+0x3f>
    33de:	66 90                	xchg   %ax,%ax

000033e0 <remote_nic_set_address>:
    33e0:	55                   	push   %ebp
    33e1:	89 e5                	mov    %esp,%ebp
    33e3:	53                   	push   %ebx
    33e4:	83 ec 24             	sub    $0x24,%esp
    33e7:	8d 45 e8             	lea    -0x18(%ebp),%eax
    33ea:	89 44 24 04          	mov    %eax,0x4(%esp)
    33ee:	8d 45 ec             	lea    -0x14(%ebp),%eax
    33f1:	89 04 24             	mov    %eax,(%esp)
    33f4:	e8 e7 7c 01 00       	call   1b0e0 <async_data_write_receive>
    33f9:	84 c0                	test   %al,%al
    33fb:	0f 84 87 00 00 00    	je     3488 <remote_nic_set_address+0xa8>
    3401:	8b 45 e8             	mov    -0x18(%ebp),%eax
    3404:	83 f8 06             	cmp    $0x6,%eax
    3407:	77 4f                	ja     3458 <remote_nic_set_address+0x78>
    3409:	89 44 24 08          	mov    %eax,0x8(%esp)
    340d:	8d 5d f2             	lea    -0xe(%ebp),%ebx
    3410:	8b 45 ec             	mov    -0x14(%ebp),%eax
    3413:	89 5c 24 04          	mov    %ebx,0x4(%esp)
    3417:	89 04 24             	mov    %eax,(%esp)
    341a:	e8 11 7d 01 00       	call   1b130 <async_data_write_finalize>
    341f:	85 c0                	test   %eax,%eax
    3421:	0f 85 91 00 00 00    	jne    34b8 <remote_nic_set_address+0xd8>
    3427:	8b 45 0c             	mov    0xc(%ebp),%eax
    342a:	8b 40 14             	mov    0x14(%eax),%eax
    342d:	85 c0                	test   %eax,%eax
    342f:	0f 84 a3 00 00 00    	je     34d8 <remote_nic_set_address+0xf8>
    3435:	8b 55 08             	mov    0x8(%ebp),%edx
    3438:	89 5c 24 04          	mov    %ebx,0x4(%esp)
    343c:	89 14 24             	mov    %edx,(%esp)
    343f:	ff d0                	call   *%eax
    3441:	89 44 24 04          	mov    %eax,0x4(%esp)
    3445:	8b 45 10             	mov    0x10(%ebp),%eax
    3448:	89 04 24             	mov    %eax,(%esp)
    344b:	e8 00 62 01 00       	call   19650 <async_answer_0>
    3450:	83 c4 24             	add    $0x24,%esp
    3453:	5b                   	pop    %ebx
    3454:	5d                   	pop    %ebp
    3455:	c3                   	ret    
    3456:	66 90                	xchg   %ax,%ax
    3458:	8b 45 ec             	mov    -0x14(%ebp),%eax
    345b:	c7 44 24 04 fd ff ff 	movl   $0xfffffffd,0x4(%esp)
    3462:	ff 
    3463:	89 04 24             	mov    %eax,(%esp)
    3466:	e8 e5 61 01 00       	call   19650 <async_answer_0>
    346b:	8b 45 10             	mov    0x10(%ebp),%eax
    346e:	c7 44 24 04 fd ff ff 	movl   $0xfffffffd,0x4(%esp)
    3475:	ff 
    3476:	89 04 24             	mov    %eax,(%esp)
    3479:	e8 d2 61 01 00       	call   19650 <async_answer_0>
    347e:	83 c4 24             	add    $0x24,%esp
    3481:	5b                   	pop    %ebx
    3482:	5d                   	pop    %ebp
    3483:	c3                   	ret    
    3484:	8d 74 26 00          	lea    0x0(%esi,%eiz,1),%esi
    3488:	8b 45 ec             	mov    -0x14(%ebp),%eax
    348b:	c7 44 24 04 f2 ff ff 	movl   $0xfffffff2,0x4(%esp)
    3492:	ff 
    3493:	89 04 24             	mov    %eax,(%esp)
    3496:	e8 b5 61 01 00       	call   19650 <async_answer_0>
    349b:	8b 45 10             	mov    0x10(%ebp),%eax
    349e:	c7 44 24 04 f2 ff ff 	movl   $0xfffffff2,0x4(%esp)
    34a5:	ff 
    34a6:	89 04 24             	mov    %eax,(%esp)
    34a9:	e8 a2 61 01 00       	call   19650 <async_answer_0>
    34ae:	83 c4 24             	add    $0x24,%esp
    34b1:	5b                   	pop    %ebx
    34b2:	5d                   	pop    %ebp
    34b3:	c3                   	ret    
    34b4:	8d 74 26 00          	lea    0x0(%esi,%eiz,1),%esi
    34b8:	8b 45 10             	mov    0x10(%ebp),%eax
    34bb:	c7 44 24 04 f2 ff ff 	movl   $0xfffffff2,0x4(%esp)
    34c2:	ff 
    34c3:	89 04 24             	mov    %eax,(%esp)
    34c6:	e8 85 61 01 00       	call   19650 <async_answer_0>
    34cb:	83 c4 24             	add    $0x24,%esp
    34ce:	5b                   	pop    %ebx
    34cf:	5d                   	pop    %ebp
    34d0:	c3                   	ret    
    34d1:	8d b4 26 00 00 00 00 	lea    0x0(%esi,%eiz,1),%esi
    34d8:	8b 45 10             	mov    0x10(%ebp),%eax
    34db:	c7 44 24 04 f5 ff ff 	movl   $0xfffffff5,0x4(%esp)
    34e2:	ff 
    34e3:	89 04 24             	mov    %eax,(%esp)
    34e6:	e8 65 61 01 00       	call   19650 <async_answer_0>
    34eb:	e9 60 ff ff ff       	jmp    3450 <remote_nic_set_address+0x70>

000034f0 <remote_nic_poll_get_mode>:
    34f0:	55                   	push   %ebp
    34f1:	89 e5                	mov    %esp,%ebp
    34f3:	57                   	push   %edi
    34f4:	56                   	push   %esi
    34f5:	53                   	push   %ebx
    34f6:	83 ec 3c             	sub    $0x3c,%esp
    34f9:	8b 45 0c             	mov    0xc(%ebp),%eax
    34fc:	8b 80 98 00 00 00    	mov    0x98(%eax),%eax
    3502:	85 c0                	test   %eax,%eax
    3504:	0f 84 ee 00 00 00    	je     35f8 <remote_nic_poll_get_mode+0x108>
    350a:	8b 55 14             	mov    0x14(%ebp),%edx
    350d:	8d 5d e0             	lea    -0x20(%ebp),%ebx
    3510:	c7 45 d4 00 00 00 00 	movl   $0x0,-0x2c(%ebp)
    3517:	c7 45 e0 00 00 00 00 	movl   $0x0,-0x20(%ebp)
    351e:	8b 72 08             	mov    0x8(%edx),%esi
    3521:	8d 55 d4             	lea    -0x2c(%ebp),%edx
    3524:	89 54 24 04          	mov    %edx,0x4(%esp)
    3528:	8b 55 08             	mov    0x8(%ebp),%edx
    352b:	c7 45 e4 00 00 00 00 	movl   $0x0,-0x1c(%ebp)
    3532:	89 5c 24 08          	mov    %ebx,0x8(%esp)
    3536:	89 14 24             	mov    %edx,(%esp)
    3539:	ff d0                	call   *%eax
    353b:	89 c7                	mov    %eax,%edi
    353d:	85 c0                	test   %eax,%eax
    353f:	75 67                	jne    35a8 <remote_nic_poll_get_mode+0xb8>
    3541:	85 f6                	test   %esi,%esi
    3543:	74 63                	je     35a8 <remote_nic_poll_get_mode+0xb8>
    3545:	8d 45 d8             	lea    -0x28(%ebp),%eax
    3548:	89 44 24 04          	mov    %eax,0x4(%esp)
    354c:	8d 45 dc             	lea    -0x24(%ebp),%eax
    354f:	89 04 24             	mov    %eax,(%esp)
    3552:	e8 69 76 01 00       	call   1abc0 <async_data_read_receive>
    3557:	84 c0                	test   %al,%al
    3559:	74 6d                	je     35c8 <remote_nic_poll_get_mode+0xd8>
    355b:	83 7d d8 08          	cmpl   $0x8,-0x28(%ebp)
    355f:	74 2f                	je     3590 <remote_nic_poll_get_mode+0xa0>
    3561:	8b 45 dc             	mov    -0x24(%ebp),%eax
    3564:	c7 44 24 04 fd ff ff 	movl   $0xfffffffd,0x4(%esp)
    356b:	ff 
    356c:	89 04 24             	mov    %eax,(%esp)
    356f:	e8 dc 60 01 00       	call   19650 <async_answer_0>
    3574:	8b 45 10             	mov    0x10(%ebp),%eax
    3577:	c7 44 24 04 fd ff ff 	movl   $0xfffffffd,0x4(%esp)
    357e:	ff 
    357f:	89 04 24             	mov    %eax,(%esp)
    3582:	e8 c9 60 01 00       	call   19650 <async_answer_0>
    3587:	83 c4 3c             	add    $0x3c,%esp
    358a:	5b                   	pop    %ebx
    358b:	5e                   	pop    %esi
    358c:	5f                   	pop    %edi
    358d:	5d                   	pop    %ebp
    358e:	c3                   	ret    
    358f:	90                   	nop
    3590:	8b 45 dc             	mov    -0x24(%ebp),%eax
    3593:	c7 44 24 08 08 00 00 	movl   $0x8,0x8(%esp)
    359a:	00 
    359b:	89 5c 24 04          	mov    %ebx,0x4(%esp)
    359f:	89 04 24             	mov    %eax,(%esp)
    35a2:	e8 79 76 01 00       	call   1ac20 <async_data_read_finalize>
    35a7:	90                   	nop
    35a8:	8b 45 d4             	mov    -0x2c(%ebp),%eax
    35ab:	89 7c 24 04          	mov    %edi,0x4(%esp)
    35af:	89 44 24 08          	mov    %eax,0x8(%esp)
    35b3:	8b 45 10             	mov    0x10(%ebp),%eax
    35b6:	89 04 24             	mov    %eax,(%esp)
    35b9:	e8 d2 60 01 00       	call   19690 <async_answer_1>
    35be:	83 c4 3c             	add    $0x3c,%esp
    35c1:	5b                   	pop    %ebx
    35c2:	5e                   	pop    %esi
    35c3:	5f                   	pop    %edi
    35c4:	5d                   	pop    %ebp
    35c5:	c3                   	ret    
    35c6:	66 90                	xchg   %ax,%ax
    35c8:	8b 45 dc             	mov    -0x24(%ebp),%eax
    35cb:	c7 44 24 04 f2 ff ff 	movl   $0xfffffff2,0x4(%esp)
    35d2:	ff 
    35d3:	89 04 24             	mov    %eax,(%esp)
    35d6:	e8 75 60 01 00       	call   19650 <async_answer_0>
    35db:	8b 45 10             	mov    0x10(%ebp),%eax
    35de:	c7 44 24 04 f2 ff ff 	movl   $0xfffffff2,0x4(%esp)
    35e5:	ff 
    35e6:	89 04 24             	mov    %eax,(%esp)
    35e9:	e8 62 60 01 00       	call   19650 <async_answer_0>
    35ee:	83 c4 3c             	add    $0x3c,%esp
    35f1:	5b                   	pop    %ebx
    35f2:	5e                   	pop    %esi
    35f3:	5f                   	pop    %edi
    35f4:	5d                   	pop    %ebp
    35f5:	c3                   	ret    
    35f6:	66 90                	xchg   %ax,%ax
    35f8:	8b 45 10             	mov    0x10(%ebp),%eax
    35fb:	c7 44 24 04 f5 ff ff 	movl   $0xfffffff5,0x4(%esp)
    3602:	ff 
    3603:	89 04 24             	mov    %eax,(%esp)
    3606:	e8 45 60 01 00       	call   19650 <async_answer_0>
    360b:	83 c4 3c             	add    $0x3c,%esp
    360e:	5b                   	pop    %ebx
    360f:	5e                   	pop    %esi
    3610:	5f                   	pop    %edi
    3611:	5d                   	pop    %ebp
    3612:	c3                   	ret    
    3613:	8d b6 00 00 00 00    	lea    0x0(%esi),%esi
    3619:	8d bc 27 00 00 00 00 	lea    0x0(%edi,%eiz,1),%edi

00003620 <remote_nic_wol_virtue_get_caps>:
    3620:	55                   	push   %ebp
    3621:	89 e5                	mov    %esp,%ebp
    3623:	83 ec 28             	sub    $0x28,%esp
    3626:	8b 45 0c             	mov    0xc(%ebp),%eax
    3629:	8b 80 88 00 00 00    	mov    0x88(%eax),%eax
    362f:	85 c0                	test   %eax,%eax
    3631:	74 3d                	je     3670 <remote_nic_wol_virtue_get_caps+0x50>
    3633:	8d 55 f4             	lea    -0xc(%ebp),%edx
    3636:	c7 45 f4 ff ff ff ff 	movl   $0xffffffff,-0xc(%ebp)
    363d:	89 54 24 08          	mov    %edx,0x8(%esp)
    3641:	8b 55 14             	mov    0x14(%ebp),%edx
    3644:	8b 52 08             	mov    0x8(%edx),%edx
    3647:	89 54 24 04          	mov    %edx,0x4(%esp)
    364b:	8b 55 08             	mov    0x8(%ebp),%edx
    364e:	89 14 24             	mov    %edx,(%esp)
    3651:	ff d0                	call   *%eax
    3653:	8b 55 f4             	mov    -0xc(%ebp),%edx
    3656:	89 44 24 04          	mov    %eax,0x4(%esp)
    365a:	8b 45 10             	mov    0x10(%ebp),%eax
    365d:	89 54 24 08          	mov    %edx,0x8(%esp)
    3661:	89 04 24             	mov    %eax,(%esp)
    3664:	e8 27 60 01 00       	call   19690 <async_answer_1>
    3669:	c9                   	leave  
    366a:	c3                   	ret    
    366b:	90                   	nop
    366c:	8d 74 26 00          	lea    0x0(%esi,%eiz,1),%esi
    3670:	8b 45 10             	mov    0x10(%ebp),%eax
    3673:	c7 44 24 04 f5 ff ff 	movl   $0xfffffff5,0x4(%esp)
    367a:	ff 
    367b:	89 04 24             	mov    %eax,(%esp)
    367e:	e8 cd 5f 01 00       	call   19650 <async_answer_0>
    3683:	c9                   	leave  
    3684:	c3                   	ret    
    3685:	8d 74 26 00          	lea    0x0(%esi,%eiz,1),%esi
    3689:	8d bc 27 00 00 00 00 	lea    0x0(%edi,%eiz,1),%edi

00003690 <remote_nic_defective_get_mode>:
    3690:	55                   	push   %ebp
    3691:	89 e5                	mov    %esp,%ebp
    3693:	83 ec 28             	sub    $0x28,%esp
    3696:	8b 45 0c             	mov    0xc(%ebp),%eax
    3699:	8b 40 5c             	mov    0x5c(%eax),%eax
    369c:	85 c0                	test   %eax,%eax
    369e:	74 30                	je     36d0 <remote_nic_defective_get_mode+0x40>
    36a0:	8d 55 f4             	lea    -0xc(%ebp),%edx
    36a3:	c7 45 f4 00 00 00 00 	movl   $0x0,-0xc(%ebp)
    36aa:	89 54 24 04          	mov    %edx,0x4(%esp)
    36ae:	8b 55 08             	mov    0x8(%ebp),%edx
    36b1:	89 14 24             	mov    %edx,(%esp)
    36b4:	ff d0                	call   *%eax
    36b6:	8b 55 f4             	mov    -0xc(%ebp),%edx
    36b9:	89 44 24 04          	mov    %eax,0x4(%esp)
    36bd:	8b 45 10             	mov    0x10(%ebp),%eax
    36c0:	89 54 24 08          	mov    %edx,0x8(%esp)
    36c4:	89 04 24             	mov    %eax,(%esp)
    36c7:	e8 c4 5f 01 00       	call   19690 <async_answer_1>
    36cc:	c9                   	leave  
    36cd:	c3                   	ret    
    36ce:	66 90                	xchg   %ax,%ax
    36d0:	8b 45 10             	mov    0x10(%ebp),%eax
    36d3:	c7 44 24 04 f5 ff ff 	movl   $0xfffffff5,0x4(%esp)
    36da:	ff 
    36db:	89 04 24             	mov    %eax,(%esp)
    36de:	e8 6d 5f 01 00       	call   19650 <async_answer_0>
    36e3:	c9                   	leave  
    36e4:	c3                   	ret    
    36e5:	8d 74 26 00          	lea    0x0(%esi,%eiz,1),%esi
    36e9:	8d bc 27 00 00 00 00 	lea    0x0(%edi,%eiz,1),%edi

000036f0 <remote_nic_broadcast_get_mode>:
    36f0:	55                   	push   %ebp
    36f1:	89 e5                	mov    %esp,%ebp
    36f3:	83 ec 28             	sub    $0x28,%esp
    36f6:	8b 45 0c             	mov    0xc(%ebp),%eax
    36f9:	8b 40 54             	mov    0x54(%eax),%eax
    36fc:	85 c0                	test   %eax,%eax
    36fe:	74 30                	je     3730 <remote_nic_broadcast_get_mode+0x40>
    3700:	8d 55 f4             	lea    -0xc(%ebp),%edx
    3703:	c7 45 f4 02 00 00 00 	movl   $0x2,-0xc(%ebp)
    370a:	89 54 24 04          	mov    %edx,0x4(%esp)
    370e:	8b 55 08             	mov    0x8(%ebp),%edx
    3711:	89 14 24             	mov    %edx,(%esp)
    3714:	ff d0                	call   *%eax
    3716:	8b 55 f4             	mov    -0xc(%ebp),%edx
    3719:	89 44 24 04          	mov    %eax,0x4(%esp)
    371d:	8b 45 10             	mov    0x10(%ebp),%eax
    3720:	89 54 24 08          	mov    %edx,0x8(%esp)
    3724:	89 04 24             	mov    %eax,(%esp)
    3727:	e8 64 5f 01 00       	call   19690 <async_answer_1>
    372c:	c9                   	leave  
    372d:	c3                   	ret    
    372e:	66 90                	xchg   %ax,%ax
    3730:	8b 45 10             	mov    0x10(%ebp),%eax
    3733:	c7 44 24 04 f5 ff ff 	movl   $0xfffffff5,0x4(%esp)
    373a:	ff 
    373b:	89 04 24             	mov    %eax,(%esp)
    373e:	e8 0d 5f 01 00       	call   19650 <async_answer_0>
    3743:	c9                   	leave  
    3744:	c3                   	ret    
    3745:	8d 74 26 00          	lea    0x0(%esi,%eiz,1),%esi
    3749:	8d bc 27 00 00 00 00 	lea    0x0(%edi,%eiz,1),%edi

00003750 <remote_nic_get_cable_state>:
    3750:	55                   	push   %ebp
    3751:	89 e5                	mov    %esp,%ebp
    3753:	83 ec 28             	sub    $0x28,%esp
    3756:	8b 45 0c             	mov    0xc(%ebp),%eax
    3759:	8b 40 20             	mov    0x20(%eax),%eax
    375c:	85 c0                	test   %eax,%eax
    375e:	74 30                	je     3790 <remote_nic_get_cable_state+0x40>
    3760:	8d 55 f4             	lea    -0xc(%ebp),%edx
    3763:	c7 45 f4 00 00 00 00 	movl   $0x0,-0xc(%ebp)
    376a:	89 54 24 04          	mov    %edx,0x4(%esp)
    376e:	8b 55 08             	mov    0x8(%ebp),%edx
    3771:	89 14 24             	mov    %edx,(%esp)
    3774:	ff d0                	call   *%eax
    3776:	8b 55 f4             	mov    -0xc(%ebp),%edx
    3779:	89 44 24 04          	mov    %eax,0x4(%esp)
    377d:	8b 45 10             	mov    0x10(%ebp),%eax
    3780:	89 54 24 08          	mov    %edx,0x8(%esp)
    3784:	89 04 24             	mov    %eax,(%esp)
    3787:	e8 04 5f 01 00       	call   19690 <async_answer_1>
    378c:	c9                   	leave  
    378d:	c3                   	ret    
    378e:	66 90                	xchg   %ax,%ax
    3790:	8b 45 10             	mov    0x10(%ebp),%eax
    3793:	c7 44 24 04 f5 ff ff 	movl   $0xfffffff5,0x4(%esp)
    379a:	ff 
    379b:	89 04 24             	mov    %eax,(%esp)
    379e:	e8 ad 5e 01 00       	call   19650 <async_answer_0>
    37a3:	c9                   	leave  
    37a4:	c3                   	ret    
    37a5:	8d 74 26 00          	lea    0x0(%esi,%eiz,1),%esi
    37a9:	8d bc 27 00 00 00 00 	lea    0x0(%edi,%eiz,1),%edi

000037b0 <remote_nic_offload_probe>:
    37b0:	55                   	push   %ebp
    37b1:	89 e5                	mov    %esp,%ebp
    37b3:	83 ec 28             	sub    $0x28,%esp
    37b6:	8b 45 0c             	mov    0xc(%ebp),%eax
    37b9:	8b 80 90 00 00 00    	mov    0x90(%eax),%eax
    37bf:	85 c0                	test   %eax,%eax
    37c1:	74 45                	je     3808 <remote_nic_offload_probe+0x58>
    37c3:	8d 55 f4             	lea    -0xc(%ebp),%edx
    37c6:	c7 45 f0 00 00 00 00 	movl   $0x0,-0x10(%ebp)
    37cd:	89 54 24 08          	mov    %edx,0x8(%esp)
    37d1:	8d 55 f0             	lea    -0x10(%ebp),%edx
    37d4:	89 54 24 04          	mov    %edx,0x4(%esp)
    37d8:	8b 55 08             	mov    0x8(%ebp),%edx
    37db:	89 14 24             	mov    %edx,(%esp)
    37de:	c7 45 f4 00 00 00 00 	movl   $0x0,-0xc(%ebp)
    37e5:	ff d0                	call   *%eax
    37e7:	8b 55 f4             	mov    -0xc(%ebp),%edx
    37ea:	89 54 24 0c          	mov    %edx,0xc(%esp)
    37ee:	89 44 24 04          	mov    %eax,0x4(%esp)
    37f2:	8b 55 f0             	mov    -0x10(%ebp),%edx
    37f5:	8b 45 10             	mov    0x10(%ebp),%eax
    37f8:	89 54 24 08          	mov    %edx,0x8(%esp)
    37fc:	89 04 24             	mov    %eax,(%esp)
    37ff:	e8 cc 5e 01 00       	call   196d0 <async_answer_2>
    3804:	c9                   	leave  
    3805:	c3                   	ret    
    3806:	66 90                	xchg   %ax,%ax
    3808:	8b 45 10             	mov    0x10(%ebp),%eax
    380b:	c7 44 24 04 f5 ff ff 	movl   $0xfffffff5,0x4(%esp)
    3812:	ff 
    3813:	89 04 24             	mov    %eax,(%esp)
    3816:	e8 35 5e 01 00       	call   19650 <async_answer_0>
    381b:	c9                   	leave  
    381c:	c3                   	ret    
    381d:	8d 76 00             	lea    0x0(%esi),%esi

00003820 <remote_nic_vlan_get_mask>:
    3820:	55                   	push   %ebp
    3821:	89 e5                	mov    %esp,%ebp
    3823:	56                   	push   %esi
    3824:	53                   	push   %ebx
    3825:	81 ec 20 02 00 00    	sub    $0x220,%esp
    382b:	8b 5d 0c             	mov    0xc(%ebp),%ebx
    382e:	8b 43 6c             	mov    0x6c(%ebx),%eax
    3831:	85 c0                	test   %eax,%eax
    3833:	0f 84 c7 00 00 00    	je     3900 <remote_nic_vlan_get_mask+0xe0>
    3839:	8d b5 f8 fd ff ff    	lea    -0x208(%ebp),%esi
    383f:	c7 44 24 08 00 02 00 	movl   $0x200,0x8(%esp)
    3846:	00 
    3847:	c7 44 24 04 00 00 00 	movl   $0x0,0x4(%esp)
    384e:	00 
    384f:	89 34 24             	mov    %esi,(%esp)
    3852:	e8 69 59 00 00       	call   91c0 <memset>
    3857:	8b 45 08             	mov    0x8(%ebp),%eax
    385a:	89 74 24 04          	mov    %esi,0x4(%esp)
    385e:	89 04 24             	mov    %eax,(%esp)
    3861:	ff 53 6c             	call   *0x6c(%ebx)
    3864:	89 c3                	mov    %eax,%ebx
    3866:	85 c0                	test   %eax,%eax
    3868:	75 78                	jne    38e2 <remote_nic_vlan_get_mask+0xc2>
    386a:	8d 85 f4 fd ff ff    	lea    -0x20c(%ebp),%eax
    3870:	89 44 24 04          	mov    %eax,0x4(%esp)
    3874:	8d 85 f0 fd ff ff    	lea    -0x210(%ebp),%eax
    387a:	89 04 24             	mov    %eax,(%esp)
    387d:	e8 3e 73 01 00       	call   1abc0 <async_data_read_receive>
    3882:	84 c0                	test   %al,%al
    3884:	74 0c                	je     3892 <remote_nic_vlan_get_mask+0x72>
    3886:	81 bd f4 fd ff ff 00 	cmpl   $0x200,-0x20c(%ebp)
    388d:	02 00 00 
    3890:	74 36                	je     38c8 <remote_nic_vlan_get_mask+0xa8>
    3892:	8b 85 f0 fd ff ff    	mov    -0x210(%ebp),%eax
    3898:	c7 44 24 04 f2 ff ff 	movl   $0xfffffff2,0x4(%esp)
    389f:	ff 
    38a0:	89 04 24             	mov    %eax,(%esp)
    38a3:	e8 a8 5d 01 00       	call   19650 <async_answer_0>
    38a8:	8b 45 10             	mov    0x10(%ebp),%eax
    38ab:	c7 44 24 04 f2 ff ff 	movl   $0xfffffff2,0x4(%esp)
    38b2:	ff 
    38b3:	89 04 24             	mov    %eax,(%esp)
    38b6:	e8 95 5d 01 00       	call   19650 <async_answer_0>
    38bb:	81 c4 20 02 00 00    	add    $0x220,%esp
    38c1:	5b                   	pop    %ebx
    38c2:	5e                   	pop    %esi
    38c3:	5d                   	pop    %ebp
    38c4:	c3                   	ret    
    38c5:	8d 76 00             	lea    0x0(%esi),%esi
    38c8:	8b 85 f0 fd ff ff    	mov    -0x210(%ebp),%eax
    38ce:	c7 44 24 08 00 02 00 	movl   $0x200,0x8(%esp)
    38d5:	00 
    38d6:	89 74 24 04          	mov    %esi,0x4(%esp)
    38da:	89 04 24             	mov    %eax,(%esp)
    38dd:	e8 3e 73 01 00       	call   1ac20 <async_data_read_finalize>
    38e2:	8b 45 10             	mov    0x10(%ebp),%eax
    38e5:	89 5c 24 04          	mov    %ebx,0x4(%esp)
    38e9:	89 04 24             	mov    %eax,(%esp)
    38ec:	e8 5f 5d 01 00       	call   19650 <async_answer_0>
    38f1:	81 c4 20 02 00 00    	add    $0x220,%esp
    38f7:	5b                   	pop    %ebx
    38f8:	5e                   	pop    %esi
    38f9:	5d                   	pop    %ebp
    38fa:	c3                   	ret    
    38fb:	90                   	nop
    38fc:	8d 74 26 00          	lea    0x0(%esi,%eiz,1),%esi
    3900:	8b 45 10             	mov    0x10(%ebp),%eax
    3903:	c7 44 24 04 f5 ff ff 	movl   $0xfffffff5,0x4(%esp)
    390a:	ff 
    390b:	89 04 24             	mov    %eax,(%esp)
    390e:	e8 3d 5d 01 00       	call   19650 <async_answer_0>
    3913:	81 c4 20 02 00 00    	add    $0x220,%esp
    3919:	5b                   	pop    %ebx
    391a:	5e                   	pop    %esi
    391b:	5d                   	pop    %ebp
    391c:	c3                   	ret    
    391d:	8d 76 00             	lea    0x0(%esi),%esi

00003920 <remote_nic_get_device_info>:
    3920:	55                   	push   %ebp
    3921:	89 e5                	mov    %esp,%ebp
    3923:	56                   	push   %esi
    3924:	53                   	push   %ebx
    3925:	81 ec 40 01 00 00    	sub    $0x140,%esp
    392b:	8b 5d 0c             	mov    0xc(%ebp),%ebx
    392e:	8b 43 1c             	mov    0x1c(%ebx),%eax
    3931:	85 c0                	test   %eax,%eax
    3933:	0f 84 ff 00 00 00    	je     3a38 <remote_nic_get_device_info+0x118>
    3939:	8d b5 dc fe ff ff    	lea    -0x124(%ebp),%esi
    393f:	c7 44 24 08 1c 01 00 	movl   $0x11c,0x8(%esp)
    3946:	00 
    3947:	c7 44 24 04 00 00 00 	movl   $0x0,0x4(%esp)
    394e:	00 
    394f:	89 34 24             	mov    %esi,(%esp)
    3952:	e8 69 58 00 00       	call   91c0 <memset>
    3957:	8b 45 08             	mov    0x8(%ebp),%eax
    395a:	89 74 24 04          	mov    %esi,0x4(%esp)
    395e:	89 04 24             	mov    %eax,(%esp)
    3961:	ff 53 1c             	call   *0x1c(%ebx)
    3964:	89 c3                	mov    %eax,%ebx
    3966:	85 c0                	test   %eax,%eax
    3968:	75 78                	jne    39e2 <remote_nic_get_device_info+0xc2>
    396a:	8d 85 d8 fe ff ff    	lea    -0x128(%ebp),%eax
    3970:	89 44 24 04          	mov    %eax,0x4(%esp)
    3974:	8d 85 d4 fe ff ff    	lea    -0x12c(%ebp),%eax
    397a:	89 04 24             	mov    %eax,(%esp)
    397d:	e8 3e 72 01 00       	call   1abc0 <async_data_read_receive>
    3982:	84 c0                	test   %al,%al
    3984:	74 7a                	je     3a00 <remote_nic_get_device_info+0xe0>
    3986:	81 bd d8 fe ff ff 1b 	cmpl   $0x11b,-0x128(%ebp)
    398d:	01 00 00 
    3990:	77 36                	ja     39c8 <remote_nic_get_device_info+0xa8>
    3992:	8b 85 d4 fe ff ff    	mov    -0x12c(%ebp),%eax
    3998:	c7 44 24 04 fd ff ff 	movl   $0xfffffffd,0x4(%esp)
    399f:	ff 
    39a0:	89 04 24             	mov    %eax,(%esp)
    39a3:	e8 a8 5c 01 00       	call   19650 <async_answer_0>
    39a8:	8b 45 10             	mov    0x10(%ebp),%eax
    39ab:	c7 44 24 04 fd ff ff 	movl   $0xfffffffd,0x4(%esp)
    39b2:	ff 
    39b3:	89 04 24             	mov    %eax,(%esp)
    39b6:	e8 95 5c 01 00       	call   19650 <async_answer_0>
    39bb:	81 c4 40 01 00 00    	add    $0x140,%esp
    39c1:	5b                   	pop    %ebx
    39c2:	5e                   	pop    %esi
    39c3:	5d                   	pop    %ebp
    39c4:	c3                   	ret    
    39c5:	8d 76 00             	lea    0x0(%esi),%esi
    39c8:	8b 85 d4 fe ff ff    	mov    -0x12c(%ebp),%eax
    39ce:	c7 44 24 08 1c 01 00 	movl   $0x11c,0x8(%esp)
    39d5:	00 
    39d6:	89 74 24 04          	mov    %esi,0x4(%esp)
    39da:	89 04 24             	mov    %eax,(%esp)
    39dd:	e8 3e 72 01 00       	call   1ac20 <async_data_read_finalize>
    39e2:	8b 45 10             	mov    0x10(%ebp),%eax
    39e5:	89 5c 24 04          	mov    %ebx,0x4(%esp)
    39e9:	89 04 24             	mov    %eax,(%esp)
    39ec:	e8 5f 5c 01 00       	call   19650 <async_answer_0>
    39f1:	81 c4 40 01 00 00    	add    $0x140,%esp
    39f7:	5b                   	pop    %ebx
    39f8:	5e                   	pop    %esi
    39f9:	5d                   	pop    %ebp
    39fa:	c3                   	ret    
    39fb:	90                   	nop
    39fc:	8d 74 26 00          	lea    0x0(%esi,%eiz,1),%esi
    3a00:	8b 85 d4 fe ff ff    	mov    -0x12c(%ebp),%eax
    3a06:	c7 44 24 04 f2 ff ff 	movl   $0xfffffff2,0x4(%esp)
    3a0d:	ff 
    3a0e:	89 04 24             	mov    %eax,(%esp)
    3a11:	e8 3a 5c 01 00       	call   19650 <async_answer_0>
    3a16:	8b 45 10             	mov    0x10(%ebp),%eax
    3a19:	c7 44 24 04 f2 ff ff 	movl   $0xfffffff2,0x4(%esp)
    3a20:	ff 
    3a21:	89 04 24             	mov    %eax,(%esp)
    3a24:	e8 27 5c 01 00       	call   19650 <async_answer_0>
    3a29:	81 c4 40 01 00 00    	add    $0x140,%esp
    3a2f:	5b                   	pop    %ebx
    3a30:	5e                   	pop    %esi
    3a31:	5d                   	pop    %ebp
    3a32:	c3                   	ret    
    3a33:	90                   	nop
    3a34:	8d 74 26 00          	lea    0x0(%esi,%eiz,1),%esi
    3a38:	8b 45 10             	mov    0x10(%ebp),%eax
    3a3b:	c7 44 24 04 f5 ff ff 	movl   $0xfffffff5,0x4(%esp)
    3a42:	ff 
    3a43:	89 04 24             	mov    %eax,(%esp)
    3a46:	e8 05 5c 01 00       	call   19650 <async_answer_0>
    3a4b:	81 c4 40 01 00 00    	add    $0x140,%esp
    3a51:	5b                   	pop    %ebx
    3a52:	5e                   	pop    %esi
    3a53:	5d                   	pop    %ebp
    3a54:	c3                   	ret    
    3a55:	8d 74 26 00          	lea    0x0(%esi,%eiz,1),%esi
    3a59:	8d bc 27 00 00 00 00 	lea    0x0(%edi,%eiz,1),%edi

00003a60 <remote_nic_get_stats>:
    3a60:	55                   	push   %ebp
    3a61:	89 e5                	mov    %esp,%ebp
    3a63:	56                   	push   %esi
    3a64:	53                   	push   %ebx
    3a65:	81 ec 90 00 00 00    	sub    $0x90,%esp
    3a6b:	8b 5d 0c             	mov    0xc(%ebp),%ebx
    3a6e:	8b 43 18             	mov    0x18(%ebx),%eax
    3a71:	85 c0                	test   %eax,%eax
    3a73:	0f 84 df 00 00 00    	je     3b58 <remote_nic_get_stats+0xf8>
    3a79:	8d 75 8c             	lea    -0x74(%ebp),%esi
    3a7c:	c7 44 24 08 6c 00 00 	movl   $0x6c,0x8(%esp)
    3a83:	00 
    3a84:	c7 44 24 04 00 00 00 	movl   $0x0,0x4(%esp)
    3a8b:	00 
    3a8c:	89 34 24             	mov    %esi,(%esp)
    3a8f:	e8 2c 57 00 00       	call   91c0 <memset>
    3a94:	8b 45 08             	mov    0x8(%ebp),%eax
    3a97:	89 74 24 04          	mov    %esi,0x4(%esp)
    3a9b:	89 04 24             	mov    %eax,(%esp)
    3a9e:	ff 53 18             	call   *0x18(%ebx)
    3aa1:	89 c3                	mov    %eax,%ebx
    3aa3:	85 c0                	test   %eax,%eax
    3aa5:	75 68                	jne    3b0f <remote_nic_get_stats+0xaf>
    3aa7:	8d 45 88             	lea    -0x78(%ebp),%eax
    3aaa:	89 44 24 04          	mov    %eax,0x4(%esp)
    3aae:	8d 45 84             	lea    -0x7c(%ebp),%eax
    3ab1:	89 04 24             	mov    %eax,(%esp)
    3ab4:	e8 07 71 01 00       	call   1abc0 <async_data_read_receive>
    3ab9:	84 c0                	test   %al,%al
    3abb:	74 6b                	je     3b28 <remote_nic_get_stats+0xc8>
    3abd:	83 7d 88 6b          	cmpl   $0x6b,-0x78(%ebp)
    3ac1:	77 35                	ja     3af8 <remote_nic_get_stats+0x98>
    3ac3:	8b 45 84             	mov    -0x7c(%ebp),%eax
    3ac6:	c7 44 24 04 fd ff ff 	movl   $0xfffffffd,0x4(%esp)
    3acd:	ff 
    3ace:	89 04 24             	mov    %eax,(%esp)
    3ad1:	e8 7a 5b 01 00       	call   19650 <async_answer_0>
    3ad6:	8b 45 10             	mov    0x10(%ebp),%eax
    3ad9:	c7 44 24 04 fd ff ff 	movl   $0xfffffffd,0x4(%esp)
    3ae0:	ff 
    3ae1:	89 04 24             	mov    %eax,(%esp)
    3ae4:	e8 67 5b 01 00       	call   19650 <async_answer_0>
    3ae9:	81 c4 90 00 00 00    	add    $0x90,%esp
    3aef:	5b                   	pop    %ebx
    3af0:	5e                   	pop    %esi
    3af1:	5d                   	pop    %ebp
    3af2:	c3                   	ret    
    3af3:	90                   	nop
    3af4:	8d 74 26 00          	lea    0x0(%esi,%eiz,1),%esi
    3af8:	8b 45 84             	mov    -0x7c(%ebp),%eax
    3afb:	c7 44 24 08 6c 00 00 	movl   $0x6c,0x8(%esp)
    3b02:	00 
    3b03:	89 74 24 04          	mov    %esi,0x4(%esp)
    3b07:	89 04 24             	mov    %eax,(%esp)
    3b0a:	e8 11 71 01 00       	call   1ac20 <async_data_read_finalize>
    3b0f:	8b 45 10             	mov    0x10(%ebp),%eax
    3b12:	89 5c 24 04          	mov    %ebx,0x4(%esp)
    3b16:	89 04 24             	mov    %eax,(%esp)
    3b19:	e8 32 5b 01 00       	call   19650 <async_answer_0>
    3b1e:	81 c4 90 00 00 00    	add    $0x90,%esp
    3b24:	5b                   	pop    %ebx
    3b25:	5e                   	pop    %esi
    3b26:	5d                   	pop    %ebp
    3b27:	c3                   	ret    
    3b28:	8b 45 84             	mov    -0x7c(%ebp),%eax
    3b2b:	c7 44 24 04 f2 ff ff 	movl   $0xfffffff2,0x4(%esp)
    3b32:	ff 
    3b33:	89 04 24             	mov    %eax,(%esp)
    3b36:	e8 15 5b 01 00       	call   19650 <async_answer_0>
    3b3b:	8b 45 10             	mov    0x10(%ebp),%eax
    3b3e:	c7 44 24 04 f2 ff ff 	movl   $0xfffffff2,0x4(%esp)
    3b45:	ff 
    3b46:	89 04 24             	mov    %eax,(%esp)
    3b49:	e8 02 5b 01 00       	call   19650 <async_answer_0>
    3b4e:	81 c4 90 00 00 00    	add    $0x90,%esp
    3b54:	5b                   	pop    %ebx
    3b55:	5e                   	pop    %esi
    3b56:	5d                   	pop    %ebp
    3b57:	c3                   	ret    
    3b58:	8b 45 10             	mov    0x10(%ebp),%eax
    3b5b:	c7 44 24 04 f5 ff ff 	movl   $0xfffffff5,0x4(%esp)
    3b62:	ff 
    3b63:	89 04 24             	mov    %eax,(%esp)
    3b66:	e8 e5 5a 01 00       	call   19650 <async_answer_0>
    3b6b:	81 c4 90 00 00 00    	add    $0x90,%esp
    3b71:	5b                   	pop    %ebx
    3b72:	5e                   	pop    %esi
    3b73:	5d                   	pop    %ebp
    3b74:	c3                   	ret    
    3b75:	8d 74 26 00          	lea    0x0(%esi,%eiz,1),%esi
    3b79:	8d bc 27 00 00 00 00 	lea    0x0(%edi,%eiz,1),%edi

00003b80 <remote_nic_wol_load_info>:
    3b80:	55                   	push   %ebp
    3b81:	89 e5                	mov    %esp,%ebp
    3b83:	57                   	push   %edi
    3b84:	56                   	push   %esi
    3b85:	53                   	push   %ebx
    3b86:	83 ec 3c             	sub    $0x3c,%esp
    3b89:	8b 7d 0c             	mov    0xc(%ebp),%edi
    3b8c:	8b 87 8c 00 00 00    	mov    0x8c(%edi),%eax
    3b92:	85 c0                	test   %eax,%eax
    3b94:	0f 84 2e 01 00 00    	je     3cc8 <remote_nic_wol_load_info+0x148>
    3b9a:	8b 45 14             	mov    0x14(%ebp),%eax
    3b9d:	c7 45 d8 00 00 00 00 	movl   $0x0,-0x28(%ebp)
    3ba4:	c7 45 dc 00 00 00 00 	movl   $0x0,-0x24(%ebp)
    3bab:	8b 58 08             	mov    0x8(%eax),%ebx
    3bae:	85 db                	test   %ebx,%ebx
    3bb0:	0f 85 92 00 00 00    	jne    3c48 <remote_nic_wol_load_info+0xc8>
    3bb6:	31 f6                	xor    %esi,%esi
    3bb8:	89 5c 24 08          	mov    %ebx,0x8(%esp)
    3bbc:	c7 44 24 04 00 00 00 	movl   $0x0,0x4(%esp)
    3bc3:	00 
    3bc4:	89 34 24             	mov    %esi,(%esp)
    3bc7:	e8 f4 55 00 00       	call   91c0 <memset>
    3bcc:	8d 45 d8             	lea    -0x28(%ebp),%eax
    3bcf:	89 44 24 10          	mov    %eax,0x10(%esp)
    3bd3:	8d 45 dc             	lea    -0x24(%ebp),%eax
    3bd6:	89 44 24 04          	mov    %eax,0x4(%esp)
    3bda:	8b 45 08             	mov    0x8(%ebp),%eax
    3bdd:	89 74 24 0c          	mov    %esi,0xc(%esp)
    3be1:	89 5c 24 08          	mov    %ebx,0x8(%esp)
    3be5:	89 04 24             	mov    %eax,(%esp)
    3be8:	ff 97 8c 00 00 00    	call   *0x8c(%edi)
    3bee:	89 c7                	mov    %eax,%edi
    3bf0:	85 c0                	test   %eax,%eax
    3bf2:	0f 85 a0 00 00 00    	jne    3c98 <remote_nic_wol_load_info+0x118>
    3bf8:	8d 45 e4             	lea    -0x1c(%ebp),%eax
    3bfb:	89 44 24 04          	mov    %eax,0x4(%esp)
    3bff:	8d 45 e0             	lea    -0x20(%ebp),%eax
    3c02:	89 04 24             	mov    %eax,(%esp)
    3c05:	e8 b6 6f 01 00       	call   1abc0 <async_data_read_receive>
    3c0a:	84 c0                	test   %al,%al
    3c0c:	75 62                	jne    3c70 <remote_nic_wol_load_info+0xf0>
    3c0e:	8b 45 e0             	mov    -0x20(%ebp),%eax
    3c11:	c7 44 24 04 f2 ff ff 	movl   $0xfffffff2,0x4(%esp)
    3c18:	ff 
    3c19:	89 04 24             	mov    %eax,(%esp)
    3c1c:	e8 2f 5a 01 00       	call   19650 <async_answer_0>
    3c21:	8b 45 10             	mov    0x10(%ebp),%eax
    3c24:	c7 44 24 04 f2 ff ff 	movl   $0xfffffff2,0x4(%esp)
    3c2b:	ff 
    3c2c:	89 04 24             	mov    %eax,(%esp)
    3c2f:	e8 1c 5a 01 00       	call   19650 <async_answer_0>
    3c34:	89 34 24             	mov    %esi,(%esp)
    3c37:	e8 74 2c 01 00       	call   168b0 <free>
    3c3c:	83 c4 3c             	add    $0x3c,%esp
    3c3f:	5b                   	pop    %ebx
    3c40:	5e                   	pop    %esi
    3c41:	5f                   	pop    %edi
    3c42:	5d                   	pop    %ebp
    3c43:	c3                   	ret    
    3c44:	8d 74 26 00          	lea    0x0(%esi,%eiz,1),%esi
    3c48:	89 1c 24             	mov    %ebx,(%esp)
    3c4b:	e8 50 2b 01 00       	call   167a0 <malloc>
    3c50:	89 c6                	mov    %eax,%esi
    3c52:	85 c0                	test   %eax,%eax
    3c54:	0f 85 5e ff ff ff    	jne    3bb8 <remote_nic_wol_load_info+0x38>
    3c5a:	8b 45 10             	mov    0x10(%ebp),%eax
    3c5d:	c7 44 24 04 fe ff ff 	movl   $0xfffffffe,0x4(%esp)
    3c64:	ff 
    3c65:	89 04 24             	mov    %eax,(%esp)
    3c68:	e8 e3 59 01 00       	call   19650 <async_answer_0>
    3c6d:	eb cd                	jmp    3c3c <remote_nic_wol_load_info+0xbc>
    3c6f:	90                   	nop
    3c70:	8b 45 e4             	mov    -0x1c(%ebp),%eax
    3c73:	39 d8                	cmp    %ebx,%eax
    3c75:	76 02                	jbe    3c79 <remote_nic_wol_load_info+0xf9>
    3c77:	89 d8                	mov    %ebx,%eax
    3c79:	8b 55 d8             	mov    -0x28(%ebp),%edx
    3c7c:	39 d0                	cmp    %edx,%eax
    3c7e:	76 02                	jbe    3c82 <remote_nic_wol_load_info+0x102>
    3c80:	89 d0                	mov    %edx,%eax
    3c82:	89 45 e4             	mov    %eax,-0x1c(%ebp)
    3c85:	89 44 24 08          	mov    %eax,0x8(%esp)
    3c89:	8b 45 e0             	mov    -0x20(%ebp),%eax
    3c8c:	89 74 24 04          	mov    %esi,0x4(%esp)
    3c90:	89 04 24             	mov    %eax,(%esp)
    3c93:	e8 88 6f 01 00       	call   1ac20 <async_data_read_finalize>
    3c98:	8b 45 d8             	mov    -0x28(%ebp),%eax
    3c9b:	89 7c 24 04          	mov    %edi,0x4(%esp)
    3c9f:	89 44 24 0c          	mov    %eax,0xc(%esp)
    3ca3:	8b 45 dc             	mov    -0x24(%ebp),%eax
    3ca6:	89 44 24 08          	mov    %eax,0x8(%esp)
    3caa:	8b 45 10             	mov    0x10(%ebp),%eax
    3cad:	89 04 24             	mov    %eax,(%esp)
    3cb0:	e8 1b 5a 01 00       	call   196d0 <async_answer_2>
    3cb5:	89 34 24             	mov    %esi,(%esp)
    3cb8:	e8 f3 2b 01 00       	call   168b0 <free>
    3cbd:	83 c4 3c             	add    $0x3c,%esp
    3cc0:	5b                   	pop    %ebx
    3cc1:	5e                   	pop    %esi
    3cc2:	5f                   	pop    %edi
    3cc3:	5d                   	pop    %ebp
    3cc4:	c3                   	ret    
    3cc5:	8d 76 00             	lea    0x0(%esi),%esi
    3cc8:	8b 45 10             	mov    0x10(%ebp),%eax
    3ccb:	c7 44 24 04 f5 ff ff 	movl   $0xfffffff5,0x4(%esp)
    3cd2:	ff 
    3cd3:	89 04 24             	mov    %eax,(%esp)
    3cd6:	e8 75 59 01 00       	call   19650 <async_answer_0>
    3cdb:	e9 5c ff ff ff       	jmp    3c3c <remote_nic_wol_load_info+0xbc>

00003ce0 <remote_nic_wol_virtue_list>:
    3ce0:	55                   	push   %ebp
    3ce1:	89 e5                	mov    %esp,%ebp
    3ce3:	57                   	push   %edi
    3ce4:	56                   	push   %esi
    3ce5:	53                   	push   %ebx
    3ce6:	83 ec 4c             	sub    $0x4c,%esp
    3ce9:	8b 55 0c             	mov    0xc(%ebp),%edx
    3cec:	8b 45 14             	mov    0x14(%ebp),%eax
    3cef:	8b 8a 84 00 00 00    	mov    0x84(%edx),%ecx
    3cf5:	85 c9                	test   %ecx,%ecx
    3cf7:	0f 84 6b 01 00 00    	je     3e68 <remote_nic_wol_virtue_list+0x188>
    3cfd:	8b 78 0c             	mov    0xc(%eax),%edi
    3d00:	8b 70 08             	mov    0x8(%eax),%esi
    3d03:	c7 45 dc 00 00 00 00 	movl   $0x0,-0x24(%ebp)
    3d0a:	85 ff                	test   %edi,%edi
    3d0c:	74 62                	je     3d70 <remote_nic_wol_virtue_list+0x90>
    3d0e:	8d 14 bd 00 00 00 00 	lea    0x0(,%edi,4),%edx
    3d15:	89 14 24             	mov    %edx,(%esp)
    3d18:	89 55 d4             	mov    %edx,-0x2c(%ebp)
    3d1b:	e8 80 2a 01 00       	call   167a0 <malloc>
    3d20:	89 c3                	mov    %eax,%ebx
    3d22:	85 c0                	test   %eax,%eax
    3d24:	0f 84 56 01 00 00    	je     3e80 <remote_nic_wol_virtue_list+0x1a0>
    3d2a:	8b 55 d4             	mov    -0x2c(%ebp),%edx
    3d2d:	c7 44 24 04 00 00 00 	movl   $0x0,0x4(%esp)
    3d34:	00 
    3d35:	89 54 24 08          	mov    %edx,0x8(%esp)
    3d39:	89 04 24             	mov    %eax,(%esp)
    3d3c:	e8 7f 54 00 00       	call   91c0 <memset>
    3d41:	8d 45 dc             	lea    -0x24(%ebp),%eax
    3d44:	89 44 24 10          	mov    %eax,0x10(%esp)
    3d48:	8b 55 0c             	mov    0xc(%ebp),%edx
    3d4b:	8b 45 08             	mov    0x8(%ebp),%eax
    3d4e:	89 5c 24 0c          	mov    %ebx,0xc(%esp)
    3d52:	89 7c 24 08          	mov    %edi,0x8(%esp)
    3d56:	89 74 24 04          	mov    %esi,0x4(%esp)
    3d5a:	89 04 24             	mov    %eax,(%esp)
    3d5d:	ff 92 84 00 00 00    	call   *0x84(%edx)
    3d63:	8b 55 dc             	mov    -0x24(%ebp),%edx
    3d66:	85 d2                	test   %edx,%edx
    3d68:	75 76                	jne    3de0 <remote_nic_wol_virtue_list+0x100>
    3d6a:	31 d2                	xor    %edx,%edx
    3d6c:	eb 4d                	jmp    3dbb <remote_nic_wol_virtue_list+0xdb>
    3d6e:	66 90                	xchg   %ax,%ax
    3d70:	c7 44 24 08 00 00 00 	movl   $0x0,0x8(%esp)
    3d77:	00 
    3d78:	c7 44 24 04 00 00 00 	movl   $0x0,0x4(%esp)
    3d7f:	00 
    3d80:	c7 04 24 00 00 00 00 	movl   $0x0,(%esp)
    3d87:	31 db                	xor    %ebx,%ebx
    3d89:	e8 32 54 00 00       	call   91c0 <memset>
    3d8e:	8d 45 dc             	lea    -0x24(%ebp),%eax
    3d91:	89 44 24 10          	mov    %eax,0x10(%esp)
    3d95:	8b 55 0c             	mov    0xc(%ebp),%edx
    3d98:	8b 45 08             	mov    0x8(%ebp),%eax
    3d9b:	c7 44 24 0c 00 00 00 	movl   $0x0,0xc(%esp)
    3da2:	00 
    3da3:	c7 44 24 08 00 00 00 	movl   $0x0,0x8(%esp)
    3daa:	00 
    3dab:	89 74 24 04          	mov    %esi,0x4(%esp)
    3daf:	89 04 24             	mov    %eax,(%esp)
    3db2:	ff 92 84 00 00 00    	call   *0x84(%edx)
    3db8:	8b 55 dc             	mov    -0x24(%ebp),%edx
    3dbb:	89 44 24 04          	mov    %eax,0x4(%esp)
    3dbf:	8b 45 10             	mov    0x10(%ebp),%eax
    3dc2:	89 54 24 08          	mov    %edx,0x8(%esp)
    3dc6:	89 04 24             	mov    %eax,(%esp)
    3dc9:	e8 c2 58 01 00       	call   19690 <async_answer_1>
    3dce:	89 1c 24             	mov    %ebx,(%esp)
    3dd1:	e8 da 2a 01 00       	call   168b0 <free>
    3dd6:	83 c4 4c             	add    $0x4c,%esp
    3dd9:	5b                   	pop    %ebx
    3dda:	5e                   	pop    %esi
    3ddb:	5f                   	pop    %edi
    3ddc:	5d                   	pop    %ebp
    3ddd:	c3                   	ret    
    3dde:	66 90                	xchg   %ax,%ax
    3de0:	8d 45 e4             	lea    -0x1c(%ebp),%eax
    3de3:	89 44 24 04          	mov    %eax,0x4(%esp)
    3de7:	8d 45 e0             	lea    -0x20(%ebp),%eax
    3dea:	89 04 24             	mov    %eax,(%esp)
    3ded:	e8 ce 6d 01 00       	call   1abc0 <async_data_read_receive>
    3df2:	84 c0                	test   %al,%al
    3df4:	74 3a                	je     3e30 <remote_nic_wol_virtue_list+0x150>
    3df6:	8b 55 dc             	mov    -0x24(%ebp),%edx
    3df9:	8b 45 e4             	mov    -0x1c(%ebp),%eax
    3dfc:	c1 e2 02             	shl    $0x2,%edx
    3dff:	39 c2                	cmp    %eax,%edx
    3e01:	73 05                	jae    3e08 <remote_nic_wol_virtue_list+0x128>
    3e03:	89 55 e4             	mov    %edx,-0x1c(%ebp)
    3e06:	89 d0                	mov    %edx,%eax
    3e08:	39 45 d4             	cmp    %eax,-0x2c(%ebp)
    3e0b:	73 08                	jae    3e15 <remote_nic_wol_virtue_list+0x135>
    3e0d:	8b 55 d4             	mov    -0x2c(%ebp),%edx
    3e10:	89 55 e4             	mov    %edx,-0x1c(%ebp)
    3e13:	89 d0                	mov    %edx,%eax
    3e15:	89 44 24 08          	mov    %eax,0x8(%esp)
    3e19:	8b 45 e0             	mov    -0x20(%ebp),%eax
    3e1c:	89 5c 24 04          	mov    %ebx,0x4(%esp)
    3e20:	89 04 24             	mov    %eax,(%esp)
    3e23:	e8 f8 6d 01 00       	call   1ac20 <async_data_read_finalize>
    3e28:	8b 55 dc             	mov    -0x24(%ebp),%edx
    3e2b:	eb 8e                	jmp    3dbb <remote_nic_wol_virtue_list+0xdb>
    3e2d:	8d 76 00             	lea    0x0(%esi),%esi
    3e30:	8b 45 e0             	mov    -0x20(%ebp),%eax
    3e33:	c7 44 24 04 f2 ff ff 	movl   $0xfffffff2,0x4(%esp)
    3e3a:	ff 
    3e3b:	89 04 24             	mov    %eax,(%esp)
    3e3e:	e8 0d 58 01 00       	call   19650 <async_answer_0>
    3e43:	8b 55 10             	mov    0x10(%ebp),%edx
    3e46:	c7 44 24 04 f2 ff ff 	movl   $0xfffffff2,0x4(%esp)
    3e4d:	ff 
    3e4e:	89 14 24             	mov    %edx,(%esp)
    3e51:	e8 fa 57 01 00       	call   19650 <async_answer_0>
    3e56:	89 1c 24             	mov    %ebx,(%esp)
    3e59:	e8 52 2a 01 00       	call   168b0 <free>
    3e5e:	e9 73 ff ff ff       	jmp    3dd6 <remote_nic_wol_virtue_list+0xf6>
    3e63:	90                   	nop
    3e64:	8d 74 26 00          	lea    0x0(%esi,%eiz,1),%esi
    3e68:	8b 45 10             	mov    0x10(%ebp),%eax
    3e6b:	c7 44 24 04 f5 ff ff 	movl   $0xfffffff5,0x4(%esp)
    3e72:	ff 
    3e73:	89 04 24             	mov    %eax,(%esp)
    3e76:	e8 d5 57 01 00       	call   19650 <async_answer_0>
    3e7b:	e9 56 ff ff ff       	jmp    3dd6 <remote_nic_wol_virtue_list+0xf6>
    3e80:	8b 45 10             	mov    0x10(%ebp),%eax
    3e83:	c7 44 24 04 fe ff ff 	movl   $0xfffffffe,0x4(%esp)
    3e8a:	ff 
    3e8b:	89 04 24             	mov    %eax,(%esp)
    3e8e:	e8 bd 57 01 00       	call   19650 <async_answer_0>
    3e93:	e9 3e ff ff ff       	jmp    3dd6 <remote_nic_wol_virtue_list+0xf6>
    3e98:	90                   	nop
    3e99:	8d b4 26 00 00 00 00 	lea    0x0(%esi,%eiz,1),%esi

00003ea0 <remote_nic_wol_virtue_probe>:
    3ea0:	55                   	push   %ebp
    3ea1:	89 e5                	mov    %esp,%ebp
    3ea3:	57                   	push   %edi
    3ea4:	56                   	push   %esi
    3ea5:	53                   	push   %ebx
    3ea6:	83 ec 4c             	sub    $0x4c,%esp
    3ea9:	8b 75 0c             	mov    0xc(%ebp),%esi
    3eac:	8b 45 14             	mov    0x14(%ebp),%eax
    3eaf:	8b 96 80 00 00 00    	mov    0x80(%esi),%edx
    3eb5:	85 d2                	test   %edx,%edx
    3eb7:	0f 84 83 01 00 00    	je     4040 <remote_nic_wol_virtue_probe+0x1a0>
    3ebd:	8b 50 08             	mov    0x8(%eax),%edx
    3ec0:	8b 78 0c             	mov    0xc(%eax),%edi
    3ec3:	89 55 d4             	mov    %edx,-0x2c(%ebp)
    3ec6:	c7 45 d8 00 00 00 00 	movl   $0x0,-0x28(%ebp)
    3ecd:	c7 45 dc 00 00 00 00 	movl   $0x0,-0x24(%ebp)
    3ed4:	85 ff                	test   %edi,%edi
    3ed6:	0f 85 84 00 00 00    	jne    3f60 <remote_nic_wol_virtue_probe+0xc0>
    3edc:	c7 44 24 08 00 00 00 	movl   $0x0,0x8(%esp)
    3ee3:	00 
    3ee4:	c7 44 24 04 00 00 00 	movl   $0x0,0x4(%esp)
    3eeb:	00 
    3eec:	c7 04 24 00 00 00 00 	movl   $0x0,(%esp)
    3ef3:	31 db                	xor    %ebx,%ebx
    3ef5:	e8 c6 52 00 00       	call   91c0 <memset>
    3efa:	8d 45 dc             	lea    -0x24(%ebp),%eax
    3efd:	89 44 24 14          	mov    %eax,0x14(%esp)
    3f01:	8d 45 d8             	lea    -0x28(%ebp),%eax
    3f04:	8b 55 d4             	mov    -0x2c(%ebp),%edx
    3f07:	89 44 24 08          	mov    %eax,0x8(%esp)
    3f0b:	8b 45 08             	mov    0x8(%ebp),%eax
    3f0e:	89 54 24 04          	mov    %edx,0x4(%esp)
    3f12:	c7 44 24 10 00 00 00 	movl   $0x0,0x10(%esp)
    3f19:	00 
    3f1a:	c7 44 24 0c 00 00 00 	movl   $0x0,0xc(%esp)
    3f21:	00 
    3f22:	89 04 24             	mov    %eax,(%esp)
    3f25:	ff 96 80 00 00 00    	call   *0x80(%esi)
    3f2b:	8b 55 dc             	mov    -0x24(%ebp),%edx
    3f2e:	89 c6                	mov    %eax,%esi
    3f30:	8b 45 d8             	mov    -0x28(%ebp),%eax
    3f33:	89 54 24 0c          	mov    %edx,0xc(%esp)
    3f37:	89 44 24 08          	mov    %eax,0x8(%esp)
    3f3b:	8b 45 10             	mov    0x10(%ebp),%eax
    3f3e:	89 74 24 04          	mov    %esi,0x4(%esp)
    3f42:	89 04 24             	mov    %eax,(%esp)
    3f45:	e8 86 57 01 00       	call   196d0 <async_answer_2>
    3f4a:	89 1c 24             	mov    %ebx,(%esp)
    3f4d:	e8 5e 29 01 00       	call   168b0 <free>
    3f52:	83 c4 4c             	add    $0x4c,%esp
    3f55:	5b                   	pop    %ebx
    3f56:	5e                   	pop    %esi
    3f57:	5f                   	pop    %edi
    3f58:	5d                   	pop    %ebp
    3f59:	c3                   	ret    
    3f5a:	8d b6 00 00 00 00    	lea    0x0(%esi),%esi
    3f60:	89 3c 24             	mov    %edi,(%esp)
    3f63:	e8 38 28 01 00       	call   167a0 <malloc>
    3f68:	89 c3                	mov    %eax,%ebx
    3f6a:	85 c0                	test   %eax,%eax
    3f6c:	0f 84 e6 00 00 00    	je     4058 <remote_nic_wol_virtue_probe+0x1b8>
    3f72:	89 7c 24 08          	mov    %edi,0x8(%esp)
    3f76:	c7 44 24 04 00 00 00 	movl   $0x0,0x4(%esp)
    3f7d:	00 
    3f7e:	89 04 24             	mov    %eax,(%esp)
    3f81:	e8 3a 52 00 00       	call   91c0 <memset>
    3f86:	8d 45 dc             	lea    -0x24(%ebp),%eax
    3f89:	89 44 24 14          	mov    %eax,0x14(%esp)
    3f8d:	8d 45 d8             	lea    -0x28(%ebp),%eax
    3f90:	8b 55 d4             	mov    -0x2c(%ebp),%edx
    3f93:	89 44 24 08          	mov    %eax,0x8(%esp)
    3f97:	8b 45 08             	mov    0x8(%ebp),%eax
    3f9a:	89 54 24 04          	mov    %edx,0x4(%esp)
    3f9e:	89 5c 24 10          	mov    %ebx,0x10(%esp)
    3fa2:	89 7c 24 0c          	mov    %edi,0xc(%esp)
    3fa6:	89 04 24             	mov    %eax,(%esp)
    3fa9:	ff 96 80 00 00 00    	call   *0x80(%esi)
    3faf:	31 d2                	xor    %edx,%edx
    3fb1:	89 c6                	mov    %eax,%esi
    3fb3:	8b 45 dc             	mov    -0x24(%ebp),%eax
    3fb6:	85 c0                	test   %eax,%eax
    3fb8:	0f 84 72 ff ff ff    	je     3f30 <remote_nic_wol_virtue_probe+0x90>
    3fbe:	8d 45 e4             	lea    -0x1c(%ebp),%eax
    3fc1:	89 44 24 04          	mov    %eax,0x4(%esp)
    3fc5:	8d 45 e0             	lea    -0x20(%ebp),%eax
    3fc8:	89 04 24             	mov    %eax,(%esp)
    3fcb:	e8 f0 6b 01 00       	call   1abc0 <async_data_read_receive>
    3fd0:	84 c0                	test   %al,%al
    3fd2:	74 34                	je     4008 <remote_nic_wol_virtue_probe+0x168>
    3fd4:	8b 45 e4             	mov    -0x1c(%ebp),%eax
    3fd7:	8b 4d dc             	mov    -0x24(%ebp),%ecx
    3fda:	39 c8                	cmp    %ecx,%eax
    3fdc:	76 05                	jbe    3fe3 <remote_nic_wol_virtue_probe+0x143>
    3fde:	89 4d e4             	mov    %ecx,-0x1c(%ebp)
    3fe1:	89 c8                	mov    %ecx,%eax
    3fe3:	39 c7                	cmp    %eax,%edi
    3fe5:	73 05                	jae    3fec <remote_nic_wol_virtue_probe+0x14c>
    3fe7:	89 7d e4             	mov    %edi,-0x1c(%ebp)
    3fea:	89 f8                	mov    %edi,%eax
    3fec:	89 44 24 08          	mov    %eax,0x8(%esp)
    3ff0:	8b 45 e0             	mov    -0x20(%ebp),%eax
    3ff3:	89 5c 24 04          	mov    %ebx,0x4(%esp)
    3ff7:	89 04 24             	mov    %eax,(%esp)
    3ffa:	e8 21 6c 01 00       	call   1ac20 <async_data_read_finalize>
    3fff:	8b 55 dc             	mov    -0x24(%ebp),%edx
    4002:	e9 29 ff ff ff       	jmp    3f30 <remote_nic_wol_virtue_probe+0x90>
    4007:	90                   	nop
    4008:	8b 45 e0             	mov    -0x20(%ebp),%eax
    400b:	c7 44 24 04 f2 ff ff 	movl   $0xfffffff2,0x4(%esp)
    4012:	ff 
    4013:	89 04 24             	mov    %eax,(%esp)
    4016:	e8 35 56 01 00       	call   19650 <async_answer_0>
    401b:	8b 55 10             	mov    0x10(%ebp),%edx
    401e:	c7 44 24 04 f2 ff ff 	movl   $0xfffffff2,0x4(%esp)
    4025:	ff 
    4026:	89 14 24             	mov    %edx,(%esp)
    4029:	e8 22 56 01 00       	call   19650 <async_answer_0>
    402e:	89 1c 24             	mov    %ebx,(%esp)
    4031:	e8 7a 28 01 00       	call   168b0 <free>
    4036:	e9 17 ff ff ff       	jmp    3f52 <remote_nic_wol_virtue_probe+0xb2>
    403b:	90                   	nop
    403c:	8d 74 26 00          	lea    0x0(%esi,%eiz,1),%esi
    4040:	8b 45 10             	mov    0x10(%ebp),%eax
    4043:	c7 44 24 04 f5 ff ff 	movl   $0xfffffff5,0x4(%esp)
    404a:	ff 
    404b:	89 04 24             	mov    %eax,(%esp)
    404e:	e8 fd 55 01 00       	call   19650 <async_answer_0>
    4053:	e9 fa fe ff ff       	jmp    3f52 <remote_nic_wol_virtue_probe+0xb2>
    4058:	8b 45 10             	mov    0x10(%ebp),%eax
    405b:	c7 44 24 04 fe ff ff 	movl   $0xfffffffe,0x4(%esp)
    4062:	ff 
    4063:	89 04 24             	mov    %eax,(%esp)
    4066:	e8 e5 55 01 00       	call   19650 <async_answer_0>
    406b:	e9 e2 fe ff ff       	jmp    3f52 <remote_nic_wol_virtue_probe+0xb2>

00004070 <remote_nic_wol_virtue_add>:
    4070:	55                   	push   %ebp
    4071:	89 e5                	mov    %esp,%ebp
    4073:	57                   	push   %edi
    4074:	56                   	push   %esi
    4075:	53                   	push   %ebx
    4076:	83 ec 3c             	sub    $0x3c,%esp
    4079:	8b 55 0c             	mov    0xc(%ebp),%edx
    407c:	8b 75 14             	mov    0x14(%ebp),%esi
    407f:	8b 4a 78             	mov    0x78(%edx),%ecx
    4082:	8b 5e 0c             	mov    0xc(%esi),%ebx
    4085:	85 c9                	test   %ecx,%ecx
    4087:	0f 84 0b 01 00 00    	je     4198 <remote_nic_wol_virtue_add+0x128>
    408d:	c7 45 e0 00 00 00 00 	movl   $0x0,-0x20(%ebp)
    4094:	85 db                	test   %ebx,%ebx
    4096:	0f 84 cc 00 00 00    	je     4168 <remote_nic_wol_virtue_add+0xf8>
    409c:	8d 45 e0             	lea    -0x20(%ebp),%eax
    409f:	89 44 24 04          	mov    %eax,0x4(%esp)
    40a3:	8d 45 dc             	lea    -0x24(%ebp),%eax
    40a6:	89 04 24             	mov    %eax,(%esp)
    40a9:	e8 32 70 01 00       	call   1b0e0 <async_data_write_receive>
    40ae:	84 c0                	test   %al,%al
    40b0:	75 2e                	jne    40e0 <remote_nic_wol_virtue_add+0x70>
    40b2:	8b 45 dc             	mov    -0x24(%ebp),%eax
    40b5:	c7 44 24 04 f2 ff ff 	movl   $0xfffffff2,0x4(%esp)
    40bc:	ff 
    40bd:	89 04 24             	mov    %eax,(%esp)
    40c0:	e8 8b 55 01 00       	call   19650 <async_answer_0>
    40c5:	8b 55 10             	mov    0x10(%ebp),%edx
    40c8:	c7 44 24 04 f2 ff ff 	movl   $0xfffffff2,0x4(%esp)
    40cf:	ff 
    40d0:	89 14 24             	mov    %edx,(%esp)
    40d3:	e8 78 55 01 00       	call   19650 <async_answer_0>
    40d8:	83 c4 3c             	add    $0x3c,%esp
    40db:	5b                   	pop    %ebx
    40dc:	5e                   	pop    %esi
    40dd:	5f                   	pop    %edi
    40de:	5d                   	pop    %ebp
    40df:	c3                   	ret    
    40e0:	8b 45 e0             	mov    -0x20(%ebp),%eax
    40e3:	89 04 24             	mov    %eax,(%esp)
    40e6:	e8 b5 26 01 00       	call   167a0 <malloc>
    40eb:	89 c3                	mov    %eax,%ebx
    40ed:	89 c7                	mov    %eax,%edi
    40ef:	85 c0                	test   %eax,%eax
    40f1:	0f 84 c1 00 00 00    	je     41b8 <remote_nic_wol_virtue_add+0x148>
    40f7:	8b 45 e0             	mov    -0x20(%ebp),%eax
    40fa:	89 5c 24 04          	mov    %ebx,0x4(%esp)
    40fe:	89 44 24 08          	mov    %eax,0x8(%esp)
    4102:	8b 45 dc             	mov    -0x24(%ebp),%eax
    4105:	89 04 24             	mov    %eax,(%esp)
    4108:	e8 23 70 01 00       	call   1b130 <async_data_write_finalize>
    410d:	85 c0                	test   %eax,%eax
    410f:	75 5f                	jne    4170 <remote_nic_wol_virtue_add+0x100>
    4111:	8d 45 e4             	lea    -0x1c(%ebp),%eax
    4114:	89 7c 24 08          	mov    %edi,0x8(%esp)
    4118:	89 44 24 10          	mov    %eax,0x10(%esp)
    411c:	8b 45 e0             	mov    -0x20(%ebp),%eax
    411f:	89 44 24 0c          	mov    %eax,0xc(%esp)
    4123:	8b 55 0c             	mov    0xc(%ebp),%edx
    4126:	8b 46 08             	mov    0x8(%esi),%eax
    4129:	c7 45 e4 00 00 00 00 	movl   $0x0,-0x1c(%ebp)
    4130:	89 44 24 04          	mov    %eax,0x4(%esp)
    4134:	8b 45 08             	mov    0x8(%ebp),%eax
    4137:	89 04 24             	mov    %eax,(%esp)
    413a:	ff 52 78             	call   *0x78(%edx)
    413d:	8b 4d e4             	mov    -0x1c(%ebp),%ecx
    4140:	8b 55 10             	mov    0x10(%ebp),%edx
    4143:	89 4c 24 08          	mov    %ecx,0x8(%esp)
    4147:	89 14 24             	mov    %edx,(%esp)
    414a:	89 44 24 04          	mov    %eax,0x4(%esp)
    414e:	e8 3d 55 01 00       	call   19690 <async_answer_1>
    4153:	89 3c 24             	mov    %edi,(%esp)
    4156:	e8 55 27 01 00       	call   168b0 <free>
    415b:	83 c4 3c             	add    $0x3c,%esp
    415e:	5b                   	pop    %ebx
    415f:	5e                   	pop    %esi
    4160:	5f                   	pop    %edi
    4161:	5d                   	pop    %ebp
    4162:	c3                   	ret    
    4163:	90                   	nop
    4164:	8d 74 26 00          	lea    0x0(%esi,%eiz,1),%esi
    4168:	31 ff                	xor    %edi,%edi
    416a:	eb a5                	jmp    4111 <remote_nic_wol_virtue_add+0xa1>
    416c:	8d 74 26 00          	lea    0x0(%esi,%eiz,1),%esi
    4170:	8b 55 10             	mov    0x10(%ebp),%edx
    4173:	c7 44 24 04 f2 ff ff 	movl   $0xfffffff2,0x4(%esp)
    417a:	ff 
    417b:	89 14 24             	mov    %edx,(%esp)
    417e:	e8 cd 54 01 00       	call   19650 <async_answer_0>
    4183:	89 1c 24             	mov    %ebx,(%esp)
    4186:	e8 25 27 01 00       	call   168b0 <free>
    418b:	83 c4 3c             	add    $0x3c,%esp
    418e:	5b                   	pop    %ebx
    418f:	5e                   	pop    %esi
    4190:	5f                   	pop    %edi
    4191:	5d                   	pop    %ebp
    4192:	c3                   	ret    
    4193:	90                   	nop
    4194:	8d 74 26 00          	lea    0x0(%esi,%eiz,1),%esi
    4198:	85 db                	test   %ebx,%ebx
    419a:	75 4c                	jne    41e8 <remote_nic_wol_virtue_add+0x178>
    419c:	8b 55 10             	mov    0x10(%ebp),%edx
    419f:	c7 44 24 04 f5 ff ff 	movl   $0xfffffff5,0x4(%esp)
    41a6:	ff 
    41a7:	89 14 24             	mov    %edx,(%esp)
    41aa:	e8 a1 54 01 00       	call   19650 <async_answer_0>
    41af:	e9 d9 fe ff ff       	jmp    408d <remote_nic_wol_virtue_add+0x1d>
    41b4:	8d 74 26 00          	lea    0x0(%esi,%eiz,1),%esi
    41b8:	8b 45 dc             	mov    -0x24(%ebp),%eax
    41bb:	c7 44 24 04 fe ff ff 	movl   $0xfffffffe,0x4(%esp)
    41c2:	ff 
    41c3:	89 04 24             	mov    %eax,(%esp)
    41c6:	e8 85 54 01 00       	call   19650 <async_answer_0>
    41cb:	8b 55 10             	mov    0x10(%ebp),%edx
    41ce:	c7 44 24 04 fe ff ff 	movl   $0xfffffffe,0x4(%esp)
    41d5:	ff 
    41d6:	89 14 24             	mov    %edx,(%esp)
    41d9:	e8 72 54 01 00       	call   19650 <async_answer_0>
    41de:	e9 f5 fe ff ff       	jmp    40d8 <remote_nic_wol_virtue_add+0x68>
    41e3:	90                   	nop
    41e4:	8d 74 26 00          	lea    0x0(%esi,%eiz,1),%esi
    41e8:	8d 45 dc             	lea    -0x24(%ebp),%eax
    41eb:	c7 44 24 04 00 00 00 	movl   $0x0,0x4(%esp)
    41f2:	00 
    41f3:	89 04 24             	mov    %eax,(%esp)
    41f6:	e8 e5 6e 01 00       	call   1b0e0 <async_data_write_receive>
    41fb:	8b 45 dc             	mov    -0x24(%ebp),%eax
    41fe:	c7 44 24 04 f5 ff ff 	movl   $0xfffffff5,0x4(%esp)
    4205:	ff 
    4206:	89 04 24             	mov    %eax,(%esp)
    4209:	e8 42 54 01 00       	call   19650 <async_answer_0>
    420e:	eb 8c                	jmp    419c <remote_nic_wol_virtue_add+0x12c>

00004210 <remote_nic_blocked_sources_set>:
    4210:	55                   	push   %ebp
    4211:	89 e5                	mov    %esp,%ebp
    4213:	57                   	push   %edi
    4214:	56                   	push   %esi
    4215:	53                   	push   %ebx
    4216:	83 ec 2c             	sub    $0x2c,%esp
    4219:	31 f6                	xor    %esi,%esi
    421b:	8b 45 14             	mov    0x14(%ebp),%eax
    421e:	8b 58 08             	mov    0x8(%eax),%ebx
    4221:	85 db                	test   %ebx,%ebx
    4223:	75 43                	jne    4268 <remote_nic_blocked_sources_set+0x58>
    4225:	8b 45 0c             	mov    0xc(%ebp),%eax
    4228:	8b 40 68             	mov    0x68(%eax),%eax
    422b:	85 c0                	test   %eax,%eax
    422d:	0f 84 e5 00 00 00    	je     4318 <remote_nic_blocked_sources_set+0x108>
    4233:	8b 55 08             	mov    0x8(%ebp),%edx
    4236:	89 5c 24 08          	mov    %ebx,0x8(%esp)
    423a:	89 74 24 04          	mov    %esi,0x4(%esp)
    423e:	89 14 24             	mov    %edx,(%esp)
    4241:	ff d0                	call   *%eax
    4243:	89 44 24 04          	mov    %eax,0x4(%esp)
    4247:	8b 45 10             	mov    0x10(%ebp),%eax
    424a:	89 04 24             	mov    %eax,(%esp)
    424d:	e8 fe 53 01 00       	call   19650 <async_answer_0>
    4252:	89 34 24             	mov    %esi,(%esp)
    4255:	e8 56 26 01 00       	call   168b0 <free>
    425a:	83 c4 2c             	add    $0x2c,%esp
    425d:	5b                   	pop    %ebx
    425e:	5e                   	pop    %esi
    425f:	5f                   	pop    %edi
    4260:	5d                   	pop    %ebp
    4261:	c3                   	ret    
    4262:	8d b6 00 00 00 00    	lea    0x0(%esi),%esi
    4268:	8d 45 e0             	lea    -0x20(%ebp),%eax
    426b:	89 44 24 04          	mov    %eax,0x4(%esp)
    426f:	8d 45 e4             	lea    -0x1c(%ebp),%eax
    4272:	89 04 24             	mov    %eax,(%esp)
    4275:	e8 66 6e 01 00       	call   1b0e0 <async_data_write_receive>
    427a:	84 c0                	test   %al,%al
    427c:	0f 84 ae 00 00 00    	je     4330 <remote_nic_blocked_sources_set+0x120>
    4282:	8d 04 5b             	lea    (%ebx,%ebx,2),%eax
    4285:	01 c0                	add    %eax,%eax
    4287:	3b 45 e0             	cmp    -0x20(%ebp),%eax
    428a:	74 34                	je     42c0 <remote_nic_blocked_sources_set+0xb0>
    428c:	8b 45 e4             	mov    -0x1c(%ebp),%eax
    428f:	c7 44 24 04 fd ff ff 	movl   $0xfffffffd,0x4(%esp)
    4296:	ff 
    4297:	89 04 24             	mov    %eax,(%esp)
    429a:	e8 b1 53 01 00       	call   19650 <async_answer_0>
    429f:	8b 45 10             	mov    0x10(%ebp),%eax
    42a2:	c7 44 24 04 fd ff ff 	movl   $0xfffffffd,0x4(%esp)
    42a9:	ff 
    42aa:	89 04 24             	mov    %eax,(%esp)
    42ad:	e8 9e 53 01 00       	call   19650 <async_answer_0>
    42b2:	83 c4 2c             	add    $0x2c,%esp
    42b5:	5b                   	pop    %ebx
    42b6:	5e                   	pop    %esi
    42b7:	5f                   	pop    %edi
    42b8:	5d                   	pop    %ebp
    42b9:	c3                   	ret    
    42ba:	8d b6 00 00 00 00    	lea    0x0(%esi),%esi
    42c0:	89 04 24             	mov    %eax,(%esp)
    42c3:	e8 d8 24 01 00       	call   167a0 <malloc>
    42c8:	89 c7                	mov    %eax,%edi
    42ca:	89 c6                	mov    %eax,%esi
    42cc:	85 c0                	test   %eax,%eax
    42ce:	0f 84 87 00 00 00    	je     435b <remote_nic_blocked_sources_set+0x14b>
    42d4:	8b 45 e0             	mov    -0x20(%ebp),%eax
    42d7:	89 7c 24 04          	mov    %edi,0x4(%esp)
    42db:	89 44 24 08          	mov    %eax,0x8(%esp)
    42df:	8b 45 e4             	mov    -0x1c(%ebp),%eax
    42e2:	89 04 24             	mov    %eax,(%esp)
    42e5:	e8 46 6e 01 00       	call   1b130 <async_data_write_finalize>
    42ea:	85 c0                	test   %eax,%eax
    42ec:	0f 84 33 ff ff ff    	je     4225 <remote_nic_blocked_sources_set+0x15>
    42f2:	8b 45 10             	mov    0x10(%ebp),%eax
    42f5:	c7 44 24 04 f2 ff ff 	movl   $0xfffffff2,0x4(%esp)
    42fc:	ff 
    42fd:	89 04 24             	mov    %eax,(%esp)
    4300:	e8 4b 53 01 00       	call   19650 <async_answer_0>
    4305:	89 3c 24             	mov    %edi,(%esp)
    4308:	e8 a3 25 01 00       	call   168b0 <free>
    430d:	e9 48 ff ff ff       	jmp    425a <remote_nic_blocked_sources_set+0x4a>
    4312:	8d b6 00 00 00 00    	lea    0x0(%esi),%esi
    4318:	8b 45 10             	mov    0x10(%ebp),%eax
    431b:	c7 44 24 04 f5 ff ff 	movl   $0xfffffff5,0x4(%esp)
    4322:	ff 
    4323:	89 04 24             	mov    %eax,(%esp)
    4326:	e8 25 53 01 00       	call   19650 <async_answer_0>
    432b:	e9 22 ff ff ff       	jmp    4252 <remote_nic_blocked_sources_set+0x42>
    4330:	8b 45 e4             	mov    -0x1c(%ebp),%eax
    4333:	c7 44 24 04 f2 ff ff 	movl   $0xfffffff2,0x4(%esp)
    433a:	ff 
    433b:	89 04 24             	mov    %eax,(%esp)
    433e:	e8 0d 53 01 00       	call   19650 <async_answer_0>
    4343:	8b 45 10             	mov    0x10(%ebp),%eax
    4346:	c7 44 24 04 f2 ff ff 	movl   $0xfffffff2,0x4(%esp)
    434d:	ff 
    434e:	89 04 24             	mov    %eax,(%esp)
    4351:	e8 fa 52 01 00       	call   19650 <async_answer_0>
    4356:	e9 ff fe ff ff       	jmp    425a <remote_nic_blocked_sources_set+0x4a>
    435b:	8b 45 e4             	mov    -0x1c(%ebp),%eax
    435e:	c7 44 24 04 fe ff ff 	movl   $0xfffffffe,0x4(%esp)
    4365:	ff 
    4366:	89 04 24             	mov    %eax,(%esp)
    4369:	e8 e2 52 01 00       	call   19650 <async_answer_0>
    436e:	8b 45 10             	mov    0x10(%ebp),%eax
    4371:	c7 44 24 04 fe ff ff 	movl   $0xfffffffe,0x4(%esp)
    4378:	ff 
    4379:	89 04 24             	mov    %eax,(%esp)
    437c:	e8 cf 52 01 00       	call   19650 <async_answer_0>
    4381:	e9 d4 fe ff ff       	jmp    425a <remote_nic_blocked_sources_set+0x4a>
    4386:	8d 76 00             	lea    0x0(%esi),%esi
    4389:	8d bc 27 00 00 00 00 	lea    0x0(%edi,%eiz,1),%edi

00004390 <remote_nic_blocked_sources_get>:
    4390:	55                   	push   %ebp
    4391:	89 e5                	mov    %esp,%ebp
    4393:	57                   	push   %edi
    4394:	56                   	push   %esi
    4395:	53                   	push   %ebx
    4396:	83 ec 2c             	sub    $0x2c,%esp
    4399:	8b 55 0c             	mov    0xc(%ebp),%edx
    439c:	8b 7a 64             	mov    0x64(%edx),%edi
    439f:	85 ff                	test   %edi,%edi
    43a1:	0f 84 69 01 00 00    	je     4510 <remote_nic_blocked_sources_get+0x180>
    43a7:	8b 45 14             	mov    0x14(%ebp),%eax
    43aa:	8b 70 08             	mov    0x8(%eax),%esi
    43ad:	85 f6                	test   %esi,%esi
    43af:	74 67                	je     4418 <remote_nic_blocked_sources_get+0x88>
    43b1:	8d 3c 76             	lea    (%esi,%esi,2),%edi
    43b4:	01 ff                	add    %edi,%edi
    43b6:	89 3c 24             	mov    %edi,(%esp)
    43b9:	e8 e2 23 01 00       	call   167a0 <malloc>
    43be:	89 c3                	mov    %eax,%ebx
    43c0:	85 c0                	test   %eax,%eax
    43c2:	0f 84 a0 01 00 00    	je     4568 <remote_nic_blocked_sources_get+0x1d8>
    43c8:	89 7c 24 08          	mov    %edi,0x8(%esp)
    43cc:	c7 44 24 04 00 00 00 	movl   $0x0,0x4(%esp)
    43d3:	00 
    43d4:	89 04 24             	mov    %eax,(%esp)
    43d7:	e8 e4 4d 00 00       	call   91c0 <memset>
    43dc:	8d 45 dc             	lea    -0x24(%ebp),%eax
    43df:	89 44 24 0c          	mov    %eax,0xc(%esp)
    43e3:	8b 55 0c             	mov    0xc(%ebp),%edx
    43e6:	8b 45 08             	mov    0x8(%ebp),%eax
    43e9:	c7 45 dc 00 00 00 00 	movl   $0x0,-0x24(%ebp)
    43f0:	89 5c 24 08          	mov    %ebx,0x8(%esp)
    43f4:	89 74 24 04          	mov    %esi,0x4(%esp)
    43f8:	89 04 24             	mov    %eax,(%esp)
    43fb:	ff 52 64             	call   *0x64(%edx)
    43fe:	85 c0                	test   %eax,%eax
    4400:	0f 85 7a 01 00 00    	jne    4580 <remote_nic_blocked_sources_get+0x1f0>
    4406:	8b 75 dc             	mov    -0x24(%ebp),%esi
    4409:	85 f6                	test   %esi,%esi
    440b:	75 7b                	jne    4488 <remote_nic_blocked_sources_get+0xf8>
    440d:	31 d2                	xor    %edx,%edx
    440f:	eb 52                	jmp    4463 <remote_nic_blocked_sources_get+0xd3>
    4411:	8d b4 26 00 00 00 00 	lea    0x0(%esi,%eiz,1),%esi
    4418:	c7 44 24 08 00 00 00 	movl   $0x0,0x8(%esp)
    441f:	00 
    4420:	c7 44 24 04 00 00 00 	movl   $0x0,0x4(%esp)
    4427:	00 
    4428:	c7 04 24 00 00 00 00 	movl   $0x0,(%esp)
    442f:	31 db                	xor    %ebx,%ebx
    4431:	e8 8a 4d 00 00       	call   91c0 <memset>
    4436:	8b 55 08             	mov    0x8(%ebp),%edx
    4439:	8d 45 dc             	lea    -0x24(%ebp),%eax
    443c:	89 14 24             	mov    %edx,(%esp)
    443f:	8b 55 0c             	mov    0xc(%ebp),%edx
    4442:	c7 45 dc 00 00 00 00 	movl   $0x0,-0x24(%ebp)
    4449:	89 44 24 0c          	mov    %eax,0xc(%esp)
    444d:	c7 44 24 08 00 00 00 	movl   $0x0,0x8(%esp)
    4454:	00 
    4455:	c7 44 24 04 00 00 00 	movl   $0x0,0x4(%esp)
    445c:	00 
    445d:	ff 52 64             	call   *0x64(%edx)
    4460:	8b 55 dc             	mov    -0x24(%ebp),%edx
    4463:	89 44 24 04          	mov    %eax,0x4(%esp)
    4467:	8b 45 10             	mov    0x10(%ebp),%eax
    446a:	89 54 24 08          	mov    %edx,0x8(%esp)
    446e:	89 04 24             	mov    %eax,(%esp)
    4471:	e8 1a 52 01 00       	call   19690 <async_answer_1>
    4476:	89 1c 24             	mov    %ebx,(%esp)
    4479:	e8 32 24 01 00       	call   168b0 <free>
    447e:	83 c4 2c             	add    $0x2c,%esp
    4481:	5b                   	pop    %ebx
    4482:	5e                   	pop    %esi
    4483:	5f                   	pop    %edi
    4484:	5d                   	pop    %ebp
    4485:	c3                   	ret    
    4486:	66 90                	xchg   %ax,%ax
    4488:	8d 45 e4             	lea    -0x1c(%ebp),%eax
    448b:	89 44 24 04          	mov    %eax,0x4(%esp)
    448f:	8d 45 e0             	lea    -0x20(%ebp),%eax
    4492:	89 04 24             	mov    %eax,(%esp)
    4495:	e8 26 67 01 00       	call   1abc0 <async_data_read_receive>
    449a:	84 c0                	test   %al,%al
    449c:	0f 84 86 00 00 00    	je     4528 <remote_nic_blocked_sources_get+0x198>
    44a2:	8b 45 dc             	mov    -0x24(%ebp),%eax
    44a5:	8d 14 40             	lea    (%eax,%eax,2),%edx
    44a8:	8b 45 e4             	mov    -0x1c(%ebp),%eax
    44ab:	01 d2                	add    %edx,%edx
    44ad:	39 c2                	cmp    %eax,%edx
    44af:	73 05                	jae    44b6 <remote_nic_blocked_sources_get+0x126>
    44b1:	89 55 e4             	mov    %edx,-0x1c(%ebp)
    44b4:	89 d0                	mov    %edx,%eax
    44b6:	39 c7                	cmp    %eax,%edi
    44b8:	73 05                	jae    44bf <remote_nic_blocked_sources_get+0x12f>
    44ba:	89 7d e4             	mov    %edi,-0x1c(%ebp)
    44bd:	89 f8                	mov    %edi,%eax
    44bf:	89 44 24 08          	mov    %eax,0x8(%esp)
    44c3:	8b 45 e0             	mov    -0x20(%ebp),%eax
    44c6:	89 5c 24 04          	mov    %ebx,0x4(%esp)
    44ca:	89 04 24             	mov    %eax,(%esp)
    44cd:	e8 4e 67 01 00       	call   1ac20 <async_data_read_finalize>
    44d2:	8b 45 e0             	mov    -0x20(%ebp),%eax
    44d5:	c7 44 24 04 f2 ff ff 	movl   $0xfffffff2,0x4(%esp)
    44dc:	ff 
    44dd:	89 04 24             	mov    %eax,(%esp)
    44e0:	e8 6b 51 01 00       	call   19650 <async_answer_0>
    44e5:	89 1c 24             	mov    %ebx,(%esp)
    44e8:	e8 c3 23 01 00       	call   168b0 <free>
    44ed:	8b 45 dc             	mov    -0x24(%ebp),%eax
    44f0:	89 44 24 08          	mov    %eax,0x8(%esp)
    44f4:	8b 45 10             	mov    0x10(%ebp),%eax
    44f7:	c7 44 24 04 00 00 00 	movl   $0x0,0x4(%esp)
    44fe:	00 
    44ff:	89 04 24             	mov    %eax,(%esp)
    4502:	e8 89 51 01 00       	call   19690 <async_answer_1>
    4507:	83 c4 2c             	add    $0x2c,%esp
    450a:	5b                   	pop    %ebx
    450b:	5e                   	pop    %esi
    450c:	5f                   	pop    %edi
    450d:	5d                   	pop    %ebp
    450e:	c3                   	ret    
    450f:	90                   	nop
    4510:	8b 45 10             	mov    0x10(%ebp),%eax
    4513:	c7 44 24 04 f5 ff ff 	movl   $0xfffffff5,0x4(%esp)
    451a:	ff 
    451b:	89 04 24             	mov    %eax,(%esp)
    451e:	e8 2d 51 01 00       	call   19650 <async_answer_0>
    4523:	e9 56 ff ff ff       	jmp    447e <remote_nic_blocked_sources_get+0xee>
    4528:	8b 45 e0             	mov    -0x20(%ebp),%eax
    452b:	c7 44 24 04 f2 ff ff 	movl   $0xfffffff2,0x4(%esp)
    4532:	ff 
    4533:	89 04 24             	mov    %eax,(%esp)
    4536:	e8 15 51 01 00       	call   19650 <async_answer_0>
    453b:	8b 45 dc             	mov    -0x24(%ebp),%eax
    453e:	8b 55 10             	mov    0x10(%ebp),%edx
    4541:	89 44 24 08          	mov    %eax,0x8(%esp)
    4545:	c7 44 24 04 00 00 00 	movl   $0x0,0x4(%esp)
    454c:	00 
    454d:	89 14 24             	mov    %edx,(%esp)
    4550:	e8 3b 51 01 00       	call   19690 <async_answer_1>
    4555:	89 1c 24             	mov    %ebx,(%esp)
    4558:	e8 53 23 01 00       	call   168b0 <free>
    455d:	e9 1c ff ff ff       	jmp    447e <remote_nic_blocked_sources_get+0xee>
    4562:	8d b6 00 00 00 00    	lea    0x0(%esi),%esi
    4568:	8b 55 10             	mov    0x10(%ebp),%edx
    456b:	c7 44 24 04 fe ff ff 	movl   $0xfffffffe,0x4(%esp)
    4572:	ff 
    4573:	89 14 24             	mov    %edx,(%esp)
    4576:	e8 d5 50 01 00       	call   19650 <async_answer_0>
    457b:	e9 fe fe ff ff       	jmp    447e <remote_nic_blocked_sources_get+0xee>
    4580:	8b 55 dc             	mov    -0x24(%ebp),%edx
    4583:	e9 db fe ff ff       	jmp    4463 <remote_nic_blocked_sources_get+0xd3>
    4588:	90                   	nop
    4589:	8d b4 26 00 00 00 00 	lea    0x0(%esi,%eiz,1),%esi

00004590 <remote_nic_multicast_set_mode>:
    4590:	55                   	push   %ebp
    4591:	89 e5                	mov    %esp,%ebp
    4593:	57                   	push   %edi
    4594:	56                   	push   %esi
    4595:	53                   	push   %ebx
    4596:	83 ec 3c             	sub    $0x3c,%esp
    4599:	31 f6                	xor    %esi,%esi
    459b:	8b 45 14             	mov    0x14(%ebp),%eax
    459e:	8b 58 0c             	mov    0xc(%eax),%ebx
    45a1:	8b 78 08             	mov    0x8(%eax),%edi
    45a4:	85 db                	test   %ebx,%ebx
    45a6:	75 48                	jne    45f0 <remote_nic_multicast_set_mode+0x60>
    45a8:	8b 45 0c             	mov    0xc(%ebp),%eax
    45ab:	8b 40 50             	mov    0x50(%eax),%eax
    45ae:	85 c0                	test   %eax,%eax
    45b0:	0f 84 ea 00 00 00    	je     46a0 <remote_nic_multicast_set_mode+0x110>
    45b6:	8b 55 08             	mov    0x8(%ebp),%edx
    45b9:	89 5c 24 0c          	mov    %ebx,0xc(%esp)
    45bd:	89 74 24 08          	mov    %esi,0x8(%esp)
    45c1:	89 7c 24 04          	mov    %edi,0x4(%esp)
    45c5:	89 14 24             	mov    %edx,(%esp)
    45c8:	ff d0                	call   *%eax
    45ca:	89 44 24 04          	mov    %eax,0x4(%esp)
    45ce:	8b 45 10             	mov    0x10(%ebp),%eax
    45d1:	89 04 24             	mov    %eax,(%esp)
    45d4:	e8 77 50 01 00       	call   19650 <async_answer_0>
    45d9:	89 34 24             	mov    %esi,(%esp)
    45dc:	e8 cf 22 01 00       	call   168b0 <free>
    45e1:	83 c4 3c             	add    $0x3c,%esp
    45e4:	5b                   	pop    %ebx
    45e5:	5e                   	pop    %esi
    45e6:	5f                   	pop    %edi
    45e7:	5d                   	pop    %ebp
    45e8:	c3                   	ret    
    45e9:	8d b4 26 00 00 00 00 	lea    0x0(%esi,%eiz,1),%esi
    45f0:	8d 45 e4             	lea    -0x1c(%ebp),%eax
    45f3:	89 44 24 04          	mov    %eax,0x4(%esp)
    45f7:	8d 45 e0             	lea    -0x20(%ebp),%eax
    45fa:	89 04 24             	mov    %eax,(%esp)
    45fd:	e8 de 6a 01 00       	call   1b0e0 <async_data_write_receive>
    4602:	84 c0                	test   %al,%al
    4604:	0f 84 ae 00 00 00    	je     46b8 <remote_nic_multicast_set_mode+0x128>
    460a:	8d 04 5b             	lea    (%ebx,%ebx,2),%eax
    460d:	01 c0                	add    %eax,%eax
    460f:	3b 45 e4             	cmp    -0x1c(%ebp),%eax
    4612:	74 34                	je     4648 <remote_nic_multicast_set_mode+0xb8>
    4614:	8b 45 e0             	mov    -0x20(%ebp),%eax
    4617:	c7 44 24 04 fd ff ff 	movl   $0xfffffffd,0x4(%esp)
    461e:	ff 
    461f:	89 04 24             	mov    %eax,(%esp)
    4622:	e8 29 50 01 00       	call   19650 <async_answer_0>
    4627:	8b 45 10             	mov    0x10(%ebp),%eax
    462a:	c7 44 24 04 fd ff ff 	movl   $0xfffffffd,0x4(%esp)
    4631:	ff 
    4632:	89 04 24             	mov    %eax,(%esp)
    4635:	e8 16 50 01 00       	call   19650 <async_answer_0>
    463a:	83 c4 3c             	add    $0x3c,%esp
    463d:	5b                   	pop    %ebx
    463e:	5e                   	pop    %esi
    463f:	5f                   	pop    %edi
    4640:	5d                   	pop    %ebp
    4641:	c3                   	ret    
    4642:	8d b6 00 00 00 00    	lea    0x0(%esi),%esi
    4648:	89 04 24             	mov    %eax,(%esp)
    464b:	e8 50 21 01 00       	call   167a0 <malloc>
    4650:	89 c2                	mov    %eax,%edx
    4652:	89 c6                	mov    %eax,%esi
    4654:	85 c0                	test   %eax,%eax
    4656:	0f 84 87 00 00 00    	je     46e3 <remote_nic_multicast_set_mode+0x153>
    465c:	8b 45 e4             	mov    -0x1c(%ebp),%eax
    465f:	89 54 24 04          	mov    %edx,0x4(%esp)
    4663:	89 44 24 08          	mov    %eax,0x8(%esp)
    4667:	8b 45 e0             	mov    -0x20(%ebp),%eax
    466a:	89 04 24             	mov    %eax,(%esp)
    466d:	89 55 d4             	mov    %edx,-0x2c(%ebp)
    4670:	e8 bb 6a 01 00       	call   1b130 <async_data_write_finalize>
    4675:	85 c0                	test   %eax,%eax
    4677:	0f 84 2b ff ff ff    	je     45a8 <remote_nic_multicast_set_mode+0x18>
    467d:	8b 45 10             	mov    0x10(%ebp),%eax
    4680:	c7 44 24 04 f2 ff ff 	movl   $0xfffffff2,0x4(%esp)
    4687:	ff 
    4688:	89 04 24             	mov    %eax,(%esp)
    468b:	e8 c0 4f 01 00       	call   19650 <async_answer_0>
    4690:	8b 55 d4             	mov    -0x2c(%ebp),%edx
    4693:	89 14 24             	mov    %edx,(%esp)
    4696:	e8 15 22 01 00       	call   168b0 <free>
    469b:	e9 41 ff ff ff       	jmp    45e1 <remote_nic_multicast_set_mode+0x51>
    46a0:	8b 45 10             	mov    0x10(%ebp),%eax
    46a3:	c7 44 24 04 f5 ff ff 	movl   $0xfffffff5,0x4(%esp)
    46aa:	ff 
    46ab:	89 04 24             	mov    %eax,(%esp)
    46ae:	e8 9d 4f 01 00       	call   19650 <async_answer_0>
    46b3:	e9 21 ff ff ff       	jmp    45d9 <remote_nic_multicast_set_mode+0x49>
    46b8:	8b 45 e0             	mov    -0x20(%ebp),%eax
    46bb:	c7 44 24 04 f2 ff ff 	movl   $0xfffffff2,0x4(%esp)
    46c2:	ff 
    46c3:	89 04 24             	mov    %eax,(%esp)
    46c6:	e8 85 4f 01 00       	call   19650 <async_answer_0>
    46cb:	8b 45 10             	mov    0x10(%ebp),%eax
    46ce:	c7 44 24 04 f2 ff ff 	movl   $0xfffffff2,0x4(%esp)
    46d5:	ff 
    46d6:	89 04 24             	mov    %eax,(%esp)
    46d9:	e8 72 4f 01 00       	call   19650 <async_answer_0>
    46de:	e9 fe fe ff ff       	jmp    45e1 <remote_nic_multicast_set_mode+0x51>
    46e3:	8b 45 e0             	mov    -0x20(%ebp),%eax
    46e6:	c7 44 24 04 fe ff ff 	movl   $0xfffffffe,0x4(%esp)
    46ed:	ff 
    46ee:	89 04 24             	mov    %eax,(%esp)
    46f1:	e8 5a 4f 01 00       	call   19650 <async_answer_0>
    46f6:	8b 45 10             	mov    0x10(%ebp),%eax
    46f9:	c7 44 24 04 fe ff ff 	movl   $0xfffffffe,0x4(%esp)
    4700:	ff 
    4701:	89 04 24             	mov    %eax,(%esp)
    4704:	e8 47 4f 01 00       	call   19650 <async_answer_0>
    4709:	e9 d3 fe ff ff       	jmp    45e1 <remote_nic_multicast_set_mode+0x51>
    470e:	66 90                	xchg   %ax,%ax

00004710 <remote_nic_multicast_get_mode>:
    4710:	55                   	push   %ebp
    4711:	89 e5                	mov    %esp,%ebp
    4713:	57                   	push   %edi
    4714:	56                   	push   %esi
    4715:	53                   	push   %ebx
    4716:	83 ec 3c             	sub    $0x3c,%esp
    4719:	8b 55 0c             	mov    0xc(%ebp),%edx
    471c:	8b 42 4c             	mov    0x4c(%edx),%eax
    471f:	85 c0                	test   %eax,%eax
    4721:	0f 84 81 01 00 00    	je     48a8 <remote_nic_multicast_get_mode+0x198>
    4727:	8b 45 14             	mov    0x14(%ebp),%eax
    472a:	8b 70 08             	mov    0x8(%eax),%esi
    472d:	85 f6                	test   %esi,%esi
    472f:	0f 84 eb 00 00 00    	je     4820 <remote_nic_multicast_get_mode+0x110>
    4735:	8d 3c 76             	lea    (%esi,%esi,2),%edi
    4738:	01 ff                	add    %edi,%edi
    473a:	89 3c 24             	mov    %edi,(%esp)
    473d:	e8 5e 20 01 00       	call   167a0 <malloc>
    4742:	89 c3                	mov    %eax,%ebx
    4744:	85 c0                	test   %eax,%eax
    4746:	0f 84 b4 01 00 00    	je     4900 <remote_nic_multicast_get_mode+0x1f0>
    474c:	89 7c 24 08          	mov    %edi,0x8(%esp)
    4750:	c7 44 24 04 00 00 00 	movl   $0x0,0x4(%esp)
    4757:	00 
    4758:	89 04 24             	mov    %eax,(%esp)
    475b:	e8 60 4a 00 00       	call   91c0 <memset>
    4760:	8d 45 dc             	lea    -0x24(%ebp),%eax
    4763:	89 44 24 10          	mov    %eax,0x10(%esp)
    4767:	8d 45 d8             	lea    -0x28(%ebp),%eax
    476a:	89 44 24 04          	mov    %eax,0x4(%esp)
    476e:	8b 55 0c             	mov    0xc(%ebp),%edx
    4771:	8b 45 08             	mov    0x8(%ebp),%eax
    4774:	89 74 24 08          	mov    %esi,0x8(%esp)
    4778:	c7 45 d8 01 00 00 00 	movl   $0x1,-0x28(%ebp)
    477f:	c7 45 dc 00 00 00 00 	movl   $0x0,-0x24(%ebp)
    4786:	89 5c 24 0c          	mov    %ebx,0xc(%esp)
    478a:	89 04 24             	mov    %eax,(%esp)
    478d:	ff 52 4c             	call   *0x4c(%edx)
    4790:	89 c6                	mov    %eax,%esi
    4792:	85 c0                	test   %eax,%eax
    4794:	0f 85 de 00 00 00    	jne    4878 <remote_nic_multicast_get_mode+0x168>
    479a:	8b 45 dc             	mov    -0x24(%ebp),%eax
    479d:	85 c0                	test   %eax,%eax
    479f:	0f 84 d3 00 00 00    	je     4878 <remote_nic_multicast_get_mode+0x168>
    47a5:	8d 45 e4             	lea    -0x1c(%ebp),%eax
    47a8:	89 44 24 04          	mov    %eax,0x4(%esp)
    47ac:	8d 45 e0             	lea    -0x20(%ebp),%eax
    47af:	89 04 24             	mov    %eax,(%esp)
    47b2:	e8 09 64 01 00       	call   1abc0 <async_data_read_receive>
    47b7:	84 c0                	test   %al,%al
    47b9:	0f 84 01 01 00 00    	je     48c0 <remote_nic_multicast_get_mode+0x1b0>
    47bf:	8b 45 dc             	mov    -0x24(%ebp),%eax
    47c2:	8d 14 40             	lea    (%eax,%eax,2),%edx
    47c5:	8b 45 e4             	mov    -0x1c(%ebp),%eax
    47c8:	01 d2                	add    %edx,%edx
    47ca:	39 c2                	cmp    %eax,%edx
    47cc:	73 05                	jae    47d3 <remote_nic_multicast_get_mode+0xc3>
    47ce:	89 55 e4             	mov    %edx,-0x1c(%ebp)
    47d1:	89 d0                	mov    %edx,%eax
    47d3:	39 c7                	cmp    %eax,%edi
    47d5:	73 05                	jae    47dc <remote_nic_multicast_get_mode+0xcc>
    47d7:	89 7d e4             	mov    %edi,-0x1c(%ebp)
    47da:	89 f8                	mov    %edi,%eax
    47dc:	89 44 24 08          	mov    %eax,0x8(%esp)
    47e0:	8b 45 e0             	mov    -0x20(%ebp),%eax
    47e3:	89 5c 24 04          	mov    %ebx,0x4(%esp)
    47e7:	89 04 24             	mov    %eax,(%esp)
    47ea:	e8 31 64 01 00       	call   1ac20 <async_data_read_finalize>
    47ef:	89 1c 24             	mov    %ebx,(%esp)
    47f2:	e8 b9 20 01 00       	call   168b0 <free>
    47f7:	8b 45 dc             	mov    -0x24(%ebp),%eax
    47fa:	89 44 24 0c          	mov    %eax,0xc(%esp)
    47fe:	8b 45 d8             	mov    -0x28(%ebp),%eax
    4801:	89 44 24 08          	mov    %eax,0x8(%esp)
    4805:	8b 45 10             	mov    0x10(%ebp),%eax
    4808:	c7 44 24 04 00 00 00 	movl   $0x0,0x4(%esp)
    480f:	00 
    4810:	89 04 24             	mov    %eax,(%esp)
    4813:	e8 b8 4e 01 00       	call   196d0 <async_answer_2>
    4818:	83 c4 3c             	add    $0x3c,%esp
    481b:	5b                   	pop    %ebx
    481c:	5e                   	pop    %esi
    481d:	5f                   	pop    %edi
    481e:	5d                   	pop    %ebp
    481f:	c3                   	ret    
    4820:	c7 44 24 08 00 00 00 	movl   $0x0,0x8(%esp)
    4827:	00 
    4828:	c7 44 24 04 00 00 00 	movl   $0x0,0x4(%esp)
    482f:	00 
    4830:	c7 04 24 00 00 00 00 	movl   $0x0,(%esp)
    4837:	31 db                	xor    %ebx,%ebx
    4839:	e8 82 49 00 00       	call   91c0 <memset>
    483e:	8b 55 08             	mov    0x8(%ebp),%edx
    4841:	8d 45 dc             	lea    -0x24(%ebp),%eax
    4844:	89 14 24             	mov    %edx,(%esp)
    4847:	89 44 24 10          	mov    %eax,0x10(%esp)
    484b:	8b 55 0c             	mov    0xc(%ebp),%edx
    484e:	8d 45 d8             	lea    -0x28(%ebp),%eax
    4851:	c7 45 d8 01 00 00 00 	movl   $0x1,-0x28(%ebp)
    4858:	c7 45 dc 00 00 00 00 	movl   $0x0,-0x24(%ebp)
    485f:	c7 44 24 0c 00 00 00 	movl   $0x0,0xc(%esp)
    4866:	00 
    4867:	c7 44 24 08 00 00 00 	movl   $0x0,0x8(%esp)
    486e:	00 
    486f:	89 44 24 04          	mov    %eax,0x4(%esp)
    4873:	ff 52 4c             	call   *0x4c(%edx)
    4876:	89 c6                	mov    %eax,%esi
    4878:	89 1c 24             	mov    %ebx,(%esp)
    487b:	e8 30 20 01 00       	call   168b0 <free>
    4880:	8b 45 dc             	mov    -0x24(%ebp),%eax
    4883:	89 44 24 0c          	mov    %eax,0xc(%esp)
    4887:	8b 45 d8             	mov    -0x28(%ebp),%eax
    488a:	89 44 24 08          	mov    %eax,0x8(%esp)
    488e:	8b 45 10             	mov    0x10(%ebp),%eax
    4891:	89 74 24 04          	mov    %esi,0x4(%esp)
    4895:	89 04 24             	mov    %eax,(%esp)
    4898:	e8 33 4e 01 00       	call   196d0 <async_answer_2>
    489d:	83 c4 3c             	add    $0x3c,%esp
    48a0:	5b                   	pop    %ebx
    48a1:	5e                   	pop    %esi
    48a2:	5f                   	pop    %edi
    48a3:	5d                   	pop    %ebp
    48a4:	c3                   	ret    
    48a5:	8d 76 00             	lea    0x0(%esi),%esi
    48a8:	8b 45 10             	mov    0x10(%ebp),%eax
    48ab:	c7 44 24 04 f5 ff ff 	movl   $0xfffffff5,0x4(%esp)
    48b2:	ff 
    48b3:	89 04 24             	mov    %eax,(%esp)
    48b6:	e8 95 4d 01 00       	call   19650 <async_answer_0>
    48bb:	eb e0                	jmp    489d <remote_nic_multicast_get_mode+0x18d>
    48bd:	8d 76 00             	lea    0x0(%esi),%esi
    48c0:	8b 45 e0             	mov    -0x20(%ebp),%eax
    48c3:	c7 44 24 04 f2 ff ff 	movl   $0xfffffff2,0x4(%esp)
    48ca:	ff 
    48cb:	89 04 24             	mov    %eax,(%esp)
    48ce:	e8 7d 4d 01 00       	call   19650 <async_answer_0>
    48d3:	8b 45 dc             	mov    -0x24(%ebp),%eax
    48d6:	89 44 24 0c          	mov    %eax,0xc(%esp)
    48da:	8b 55 10             	mov    0x10(%ebp),%edx
    48dd:	8b 45 d8             	mov    -0x28(%ebp),%eax
    48e0:	c7 44 24 04 00 00 00 	movl   $0x0,0x4(%esp)
    48e7:	00 
    48e8:	89 44 24 08          	mov    %eax,0x8(%esp)
    48ec:	89 14 24             	mov    %edx,(%esp)
    48ef:	e8 dc 4d 01 00       	call   196d0 <async_answer_2>
    48f4:	89 1c 24             	mov    %ebx,(%esp)
    48f7:	e8 b4 1f 01 00       	call   168b0 <free>
    48fc:	eb 9f                	jmp    489d <remote_nic_multicast_get_mode+0x18d>
    48fe:	66 90                	xchg   %ax,%ax
    4900:	8b 55 10             	mov    0x10(%ebp),%edx
    4903:	c7 44 24 04 fe ff ff 	movl   $0xfffffffe,0x4(%esp)
    490a:	ff 
    490b:	89 14 24             	mov    %edx,(%esp)
    490e:	e8 3d 4d 01 00       	call   19650 <async_answer_0>
    4913:	eb 88                	jmp    489d <remote_nic_multicast_get_mode+0x18d>
    4915:	8d 74 26 00          	lea    0x0(%esi,%eiz,1),%esi
    4919:	8d bc 27 00 00 00 00 	lea    0x0(%edi,%eiz,1),%edi

00004920 <remote_nic_unicast_set_mode>:
    4920:	55                   	push   %ebp
    4921:	89 e5                	mov    %esp,%ebp
    4923:	57                   	push   %edi
    4924:	56                   	push   %esi
    4925:	53                   	push   %ebx
    4926:	83 ec 3c             	sub    $0x3c,%esp
    4929:	31 f6                	xor    %esi,%esi
    492b:	8b 45 14             	mov    0x14(%ebp),%eax
    492e:	8b 58 0c             	mov    0xc(%eax),%ebx
    4931:	8b 78 08             	mov    0x8(%eax),%edi
    4934:	85 db                	test   %ebx,%ebx
    4936:	75 48                	jne    4980 <remote_nic_unicast_set_mode+0x60>
    4938:	8b 45 0c             	mov    0xc(%ebp),%eax
    493b:	8b 40 48             	mov    0x48(%eax),%eax
    493e:	85 c0                	test   %eax,%eax
    4940:	0f 84 ea 00 00 00    	je     4a30 <remote_nic_unicast_set_mode+0x110>
    4946:	8b 55 08             	mov    0x8(%ebp),%edx
    4949:	89 5c 24 0c          	mov    %ebx,0xc(%esp)
    494d:	89 74 24 08          	mov    %esi,0x8(%esp)
    4951:	89 7c 24 04          	mov    %edi,0x4(%esp)
    4955:	89 14 24             	mov    %edx,(%esp)
    4958:	ff d0                	call   *%eax
    495a:	89 44 24 04          	mov    %eax,0x4(%esp)
    495e:	8b 45 10             	mov    0x10(%ebp),%eax
    4961:	89 04 24             	mov    %eax,(%esp)
    4964:	e8 e7 4c 01 00       	call   19650 <async_answer_0>
    4969:	89 34 24             	mov    %esi,(%esp)
    496c:	e8 3f 1f 01 00       	call   168b0 <free>
    4971:	83 c4 3c             	add    $0x3c,%esp
    4974:	5b                   	pop    %ebx
    4975:	5e                   	pop    %esi
    4976:	5f                   	pop    %edi
    4977:	5d                   	pop    %ebp
    4978:	c3                   	ret    
    4979:	8d b4 26 00 00 00 00 	lea    0x0(%esi,%eiz,1),%esi
    4980:	8d 45 e0             	lea    -0x20(%ebp),%eax
    4983:	89 44 24 04          	mov    %eax,0x4(%esp)
    4987:	8d 45 e4             	lea    -0x1c(%ebp),%eax
    498a:	89 04 24             	mov    %eax,(%esp)
    498d:	e8 4e 67 01 00       	call   1b0e0 <async_data_write_receive>
    4992:	84 c0                	test   %al,%al
    4994:	0f 84 ae 00 00 00    	je     4a48 <remote_nic_unicast_set_mode+0x128>
    499a:	8d 04 5b             	lea    (%ebx,%ebx,2),%eax
    499d:	01 c0                	add    %eax,%eax
    499f:	3b 45 e0             	cmp    -0x20(%ebp),%eax
    49a2:	74 34                	je     49d8 <remote_nic_unicast_set_mode+0xb8>
    49a4:	8b 45 e4             	mov    -0x1c(%ebp),%eax
    49a7:	c7 44 24 04 fd ff ff 	movl   $0xfffffffd,0x4(%esp)
    49ae:	ff 
    49af:	89 04 24             	mov    %eax,(%esp)
    49b2:	e8 99 4c 01 00       	call   19650 <async_answer_0>
    49b7:	8b 45 10             	mov    0x10(%ebp),%eax
    49ba:	c7 44 24 04 fd ff ff 	movl   $0xfffffffd,0x4(%esp)
    49c1:	ff 
    49c2:	89 04 24             	mov    %eax,(%esp)
    49c5:	e8 86 4c 01 00       	call   19650 <async_answer_0>
    49ca:	83 c4 3c             	add    $0x3c,%esp
    49cd:	5b                   	pop    %ebx
    49ce:	5e                   	pop    %esi
    49cf:	5f                   	pop    %edi
    49d0:	5d                   	pop    %ebp
    49d1:	c3                   	ret    
    49d2:	8d b6 00 00 00 00    	lea    0x0(%esi),%esi
    49d8:	89 04 24             	mov    %eax,(%esp)
    49db:	e8 c0 1d 01 00       	call   167a0 <malloc>
    49e0:	89 c2                	mov    %eax,%edx
    49e2:	89 c6                	mov    %eax,%esi
    49e4:	85 c0                	test   %eax,%eax
    49e6:	0f 84 87 00 00 00    	je     4a73 <remote_nic_unicast_set_mode+0x153>
    49ec:	8b 45 e0             	mov    -0x20(%ebp),%eax
    49ef:	89 54 24 04          	mov    %edx,0x4(%esp)
    49f3:	89 44 24 08          	mov    %eax,0x8(%esp)
    49f7:	8b 45 e4             	mov    -0x1c(%ebp),%eax
    49fa:	89 04 24             	mov    %eax,(%esp)
    49fd:	89 55 d4             	mov    %edx,-0x2c(%ebp)
    4a00:	e8 2b 67 01 00       	call   1b130 <async_data_write_finalize>
    4a05:	85 c0                	test   %eax,%eax
    4a07:	0f 84 2b ff ff ff    	je     4938 <remote_nic_unicast_set_mode+0x18>
    4a0d:	8b 45 10             	mov    0x10(%ebp),%eax
    4a10:	c7 44 24 04 f2 ff ff 	movl   $0xfffffff2,0x4(%esp)
    4a17:	ff 
    4a18:	89 04 24             	mov    %eax,(%esp)
    4a1b:	e8 30 4c 01 00       	call   19650 <async_answer_0>
    4a20:	8b 55 d4             	mov    -0x2c(%ebp),%edx
    4a23:	89 14 24             	mov    %edx,(%esp)
    4a26:	e8 85 1e 01 00       	call   168b0 <free>
    4a2b:	e9 41 ff ff ff       	jmp    4971 <remote_nic_unicast_set_mode+0x51>
    4a30:	8b 45 10             	mov    0x10(%ebp),%eax
    4a33:	c7 44 24 04 f5 ff ff 	movl   $0xfffffff5,0x4(%esp)
    4a3a:	ff 
    4a3b:	89 04 24             	mov    %eax,(%esp)
    4a3e:	e8 0d 4c 01 00       	call   19650 <async_answer_0>
    4a43:	e9 21 ff ff ff       	jmp    4969 <remote_nic_unicast_set_mode+0x49>
    4a48:	8b 45 e4             	mov    -0x1c(%ebp),%eax
    4a4b:	c7 44 24 04 f2 ff ff 	movl   $0xfffffff2,0x4(%esp)
    4a52:	ff 
    4a53:	89 04 24             	mov    %eax,(%esp)
    4a56:	e8 f5 4b 01 00       	call   19650 <async_answer_0>
    4a5b:	8b 45 10             	mov    0x10(%ebp),%eax
    4a5e:	c7 44 24 04 f2 ff ff 	movl   $0xfffffff2,0x4(%esp)
    4a65:	ff 
    4a66:	89 04 24             	mov    %eax,(%esp)
    4a69:	e8 e2 4b 01 00       	call   19650 <async_answer_0>
    4a6e:	e9 fe fe ff ff       	jmp    4971 <remote_nic_unicast_set_mode+0x51>
    4a73:	8b 45 e4             	mov    -0x1c(%ebp),%eax
    4a76:	c7 44 24 04 fe ff ff 	movl   $0xfffffffe,0x4(%esp)
    4a7d:	ff 
    4a7e:	89 04 24             	mov    %eax,(%esp)
    4a81:	e8 ca 4b 01 00       	call   19650 <async_answer_0>
    4a86:	8b 45 10             	mov    0x10(%ebp),%eax
    4a89:	c7 44 24 04 fe ff ff 	movl   $0xfffffffe,0x4(%esp)
    4a90:	ff 
    4a91:	89 04 24             	mov    %eax,(%esp)
    4a94:	e8 b7 4b 01 00       	call   19650 <async_answer_0>
    4a99:	e9 d3 fe ff ff       	jmp    4971 <remote_nic_unicast_set_mode+0x51>
    4a9e:	66 90                	xchg   %ax,%ax

00004aa0 <remote_nic_unicast_get_mode>:
    4aa0:	55                   	push   %ebp
    4aa1:	89 e5                	mov    %esp,%ebp
    4aa3:	57                   	push   %edi
    4aa4:	56                   	push   %esi
    4aa5:	53                   	push   %ebx
    4aa6:	83 ec 3c             	sub    $0x3c,%esp
    4aa9:	8b 55 0c             	mov    0xc(%ebp),%edx
    4aac:	8b 42 44             	mov    0x44(%edx),%eax
    4aaf:	85 c0                	test   %eax,%eax
    4ab1:	0f 84 99 01 00 00    	je     4c50 <remote_nic_unicast_get_mode+0x1b0>
    4ab7:	8b 45 14             	mov    0x14(%ebp),%eax
    4aba:	8b 70 08             	mov    0x8(%eax),%esi
    4abd:	85 f6                	test   %esi,%esi
    4abf:	0f 84 03 01 00 00    	je     4bc8 <remote_nic_unicast_get_mode+0x128>
    4ac5:	8d 3c 76             	lea    (%esi,%esi,2),%edi
    4ac8:	01 ff                	add    %edi,%edi
    4aca:	89 3c 24             	mov    %edi,(%esp)
    4acd:	e8 ce 1c 01 00       	call   167a0 <malloc>
    4ad2:	89 c3                	mov    %eax,%ebx
    4ad4:	85 c0                	test   %eax,%eax
    4ad6:	0f 84 cc 01 00 00    	je     4ca8 <remote_nic_unicast_get_mode+0x208>
    4adc:	89 7c 24 08          	mov    %edi,0x8(%esp)
    4ae0:	c7 44 24 04 00 00 00 	movl   $0x0,0x4(%esp)
    4ae7:	00 
    4ae8:	89 04 24             	mov    %eax,(%esp)
    4aeb:	e8 d0 46 00 00       	call   91c0 <memset>
    4af0:	8d 45 dc             	lea    -0x24(%ebp),%eax
    4af3:	89 44 24 10          	mov    %eax,0x10(%esp)
    4af7:	8d 45 d8             	lea    -0x28(%ebp),%eax
    4afa:	89 44 24 04          	mov    %eax,0x4(%esp)
    4afe:	8b 55 0c             	mov    0xc(%ebp),%edx
    4b01:	8b 45 08             	mov    0x8(%ebp),%eax
    4b04:	89 74 24 08          	mov    %esi,0x8(%esp)
    4b08:	c7 45 d8 02 00 00 00 	movl   $0x2,-0x28(%ebp)
    4b0f:	c7 45 dc 00 00 00 00 	movl   $0x0,-0x24(%ebp)
    4b16:	89 5c 24 0c          	mov    %ebx,0xc(%esp)
    4b1a:	89 04 24             	mov    %eax,(%esp)
    4b1d:	ff 52 44             	call   *0x44(%edx)
    4b20:	89 c6                	mov    %eax,%esi
    4b22:	85 c0                	test   %eax,%eax
    4b24:	0f 85 f6 00 00 00    	jne    4c20 <remote_nic_unicast_get_mode+0x180>
    4b2a:	8b 45 dc             	mov    -0x24(%ebp),%eax
    4b2d:	85 c0                	test   %eax,%eax
    4b2f:	0f 84 eb 00 00 00    	je     4c20 <remote_nic_unicast_get_mode+0x180>
    4b35:	8d 45 e4             	lea    -0x1c(%ebp),%eax
    4b38:	89 44 24 04          	mov    %eax,0x4(%esp)
    4b3c:	8d 45 e0             	lea    -0x20(%ebp),%eax
    4b3f:	89 04 24             	mov    %eax,(%esp)
    4b42:	e8 79 60 01 00       	call   1abc0 <async_data_read_receive>
    4b47:	84 c0                	test   %al,%al
    4b49:	0f 84 19 01 00 00    	je     4c68 <remote_nic_unicast_get_mode+0x1c8>
    4b4f:	8b 45 dc             	mov    -0x24(%ebp),%eax
    4b52:	8d 14 40             	lea    (%eax,%eax,2),%edx
    4b55:	8b 45 e4             	mov    -0x1c(%ebp),%eax
    4b58:	01 d2                	add    %edx,%edx
    4b5a:	39 c2                	cmp    %eax,%edx
    4b5c:	73 05                	jae    4b63 <remote_nic_unicast_get_mode+0xc3>
    4b5e:	89 55 e4             	mov    %edx,-0x1c(%ebp)
    4b61:	89 d0                	mov    %edx,%eax
    4b63:	39 c7                	cmp    %eax,%edi
    4b65:	73 05                	jae    4b6c <remote_nic_unicast_get_mode+0xcc>
    4b67:	89 7d e4             	mov    %edi,-0x1c(%ebp)
    4b6a:	89 f8                	mov    %edi,%eax
    4b6c:	89 44 24 08          	mov    %eax,0x8(%esp)
    4b70:	8b 45 e0             	mov    -0x20(%ebp),%eax
    4b73:	89 5c 24 04          	mov    %ebx,0x4(%esp)
    4b77:	89 04 24             	mov    %eax,(%esp)
    4b7a:	e8 a1 60 01 00       	call   1ac20 <async_data_read_finalize>
    4b7f:	8b 45 e0             	mov    -0x20(%ebp),%eax
    4b82:	c7 44 24 04 f2 ff ff 	movl   $0xfffffff2,0x4(%esp)
    4b89:	ff 
    4b8a:	89 04 24             	mov    %eax,(%esp)
    4b8d:	e8 be 4a 01 00       	call   19650 <async_answer_0>
    4b92:	89 1c 24             	mov    %ebx,(%esp)
    4b95:	e8 16 1d 01 00       	call   168b0 <free>
    4b9a:	8b 45 dc             	mov    -0x24(%ebp),%eax
    4b9d:	89 44 24 0c          	mov    %eax,0xc(%esp)
    4ba1:	8b 45 d8             	mov    -0x28(%ebp),%eax
    4ba4:	89 44 24 08          	mov    %eax,0x8(%esp)
    4ba8:	8b 45 10             	mov    0x10(%ebp),%eax
    4bab:	c7 44 24 04 00 00 00 	movl   $0x0,0x4(%esp)
    4bb2:	00 
    4bb3:	89 04 24             	mov    %eax,(%esp)
    4bb6:	e8 15 4b 01 00       	call   196d0 <async_answer_2>
    4bbb:	83 c4 3c             	add    $0x3c,%esp
    4bbe:	5b                   	pop    %ebx
    4bbf:	5e                   	pop    %esi
    4bc0:	5f                   	pop    %edi
    4bc1:	5d                   	pop    %ebp
    4bc2:	c3                   	ret    
    4bc3:	90                   	nop
    4bc4:	8d 74 26 00          	lea    0x0(%esi,%eiz,1),%esi
    4bc8:	c7 44 24 08 00 00 00 	movl   $0x0,0x8(%esp)
    4bcf:	00 
    4bd0:	c7 44 24 04 00 00 00 	movl   $0x0,0x4(%esp)
    4bd7:	00 
    4bd8:	c7 04 24 00 00 00 00 	movl   $0x0,(%esp)
    4bdf:	31 db                	xor    %ebx,%ebx
    4be1:	e8 da 45 00 00       	call   91c0 <memset>
    4be6:	8b 55 08             	mov    0x8(%ebp),%edx
    4be9:	8d 45 dc             	lea    -0x24(%ebp),%eax
    4bec:	89 14 24             	mov    %edx,(%esp)
    4bef:	89 44 24 10          	mov    %eax,0x10(%esp)
    4bf3:	8b 55 0c             	mov    0xc(%ebp),%edx
    4bf6:	8d 45 d8             	lea    -0x28(%ebp),%eax
    4bf9:	c7 45 d8 02 00 00 00 	movl   $0x2,-0x28(%ebp)
    4c00:	c7 45 dc 00 00 00 00 	movl   $0x0,-0x24(%ebp)
    4c07:	c7 44 24 0c 00 00 00 	movl   $0x0,0xc(%esp)
    4c0e:	00 
    4c0f:	c7 44 24 08 00 00 00 	movl   $0x0,0x8(%esp)
    4c16:	00 
    4c17:	89 44 24 04          	mov    %eax,0x4(%esp)
    4c1b:	ff 52 44             	call   *0x44(%edx)
    4c1e:	89 c6                	mov    %eax,%esi
    4c20:	89 1c 24             	mov    %ebx,(%esp)
    4c23:	e8 88 1c 01 00       	call   168b0 <free>
    4c28:	8b 45 dc             	mov    -0x24(%ebp),%eax
    4c2b:	89 44 24 0c          	mov    %eax,0xc(%esp)
    4c2f:	8b 45 d8             	mov    -0x28(%ebp),%eax
    4c32:	89 44 24 08          	mov    %eax,0x8(%esp)
    4c36:	8b 45 10             	mov    0x10(%ebp),%eax
    4c39:	89 74 24 04          	mov    %esi,0x4(%esp)
    4c3d:	89 04 24             	mov    %eax,(%esp)
    4c40:	e8 8b 4a 01 00       	call   196d0 <async_answer_2>
    4c45:	83 c4 3c             	add    $0x3c,%esp
    4c48:	5b                   	pop    %ebx
    4c49:	5e                   	pop    %esi
    4c4a:	5f                   	pop    %edi
    4c4b:	5d                   	pop    %ebp
    4c4c:	c3                   	ret    
    4c4d:	8d 76 00             	lea    0x0(%esi),%esi
    4c50:	8b 45 10             	mov    0x10(%ebp),%eax
    4c53:	c7 44 24 04 f5 ff ff 	movl   $0xfffffff5,0x4(%esp)
    4c5a:	ff 
    4c5b:	89 04 24             	mov    %eax,(%esp)
    4c5e:	e8 ed 49 01 00       	call   19650 <async_answer_0>
    4c63:	eb e0                	jmp    4c45 <remote_nic_unicast_get_mode+0x1a5>
    4c65:	8d 76 00             	lea    0x0(%esi),%esi
    4c68:	8b 45 e0             	mov    -0x20(%ebp),%eax
    4c6b:	c7 44 24 04 f2 ff ff 	movl   $0xfffffff2,0x4(%esp)
    4c72:	ff 
    4c73:	89 04 24             	mov    %eax,(%esp)
    4c76:	e8 d5 49 01 00       	call   19650 <async_answer_0>
    4c7b:	8b 45 dc             	mov    -0x24(%ebp),%eax
    4c7e:	89 44 24 0c          	mov    %eax,0xc(%esp)
    4c82:	8b 55 10             	mov    0x10(%ebp),%edx
    4c85:	8b 45 d8             	mov    -0x28(%ebp),%eax
    4c88:	c7 44 24 04 00 00 00 	movl   $0x0,0x4(%esp)
    4c8f:	00 
    4c90:	89 44 24 08          	mov    %eax,0x8(%esp)
    4c94:	89 14 24             	mov    %edx,(%esp)
    4c97:	e8 34 4a 01 00       	call   196d0 <async_answer_2>
    4c9c:	89 1c 24             	mov    %ebx,(%esp)
    4c9f:	e8 0c 1c 01 00       	call   168b0 <free>
    4ca4:	eb 9f                	jmp    4c45 <remote_nic_unicast_get_mode+0x1a5>
    4ca6:	66 90                	xchg   %ax,%ax
    4ca8:	8b 55 10             	mov    0x10(%ebp),%edx
    4cab:	c7 44 24 04 fe ff ff 	movl   $0xfffffffe,0x4(%esp)
    4cb2:	ff 
    4cb3:	89 14 24             	mov    %edx,(%esp)
    4cb6:	e8 95 49 01 00       	call   19650 <async_answer_0>
    4cbb:	eb 88                	jmp    4c45 <remote_nic_unicast_get_mode+0x1a5>
    4cbd:	8d 76 00             	lea    0x0(%esi),%esi

00004cc0 <remote_nic_get_pause>:
    4cc0:	55                   	push   %ebp
    4cc1:	89 e5                	mov    %esp,%ebp
    4cc3:	83 ec 38             	sub    $0x38,%esp
    4cc6:	8b 45 0c             	mov    0xc(%ebp),%eax
    4cc9:	8b 40 3c             	mov    0x3c(%eax),%eax
    4ccc:	85 c0                	test   %eax,%eax
    4cce:	74 50                	je     4d20 <remote_nic_get_pause+0x60>
    4cd0:	8d 55 ee             	lea    -0x12(%ebp),%edx
    4cd3:	89 54 24 0c          	mov    %edx,0xc(%esp)
    4cd7:	8d 55 f4             	lea    -0xc(%ebp),%edx
    4cda:	89 54 24 08          	mov    %edx,0x8(%esp)
    4cde:	8d 55 f0             	lea    -0x10(%ebp),%edx
    4ce1:	89 54 24 04          	mov    %edx,0x4(%esp)
    4ce5:	8b 55 08             	mov    0x8(%ebp),%edx
    4ce8:	89 14 24             	mov    %edx,(%esp)
    4ceb:	ff d0                	call   *%eax
    4ced:	66 8b 55 ee          	mov    -0x12(%ebp),%dx
    4cf1:	81 e2 ff ff 00 00    	and    $0xffff,%edx
    4cf7:	89 44 24 04          	mov    %eax,0x4(%esp)
    4cfb:	89 54 24 10          	mov    %edx,0x10(%esp)
    4cff:	8b 55 f4             	mov    -0xc(%ebp),%edx
    4d02:	89 54 24 0c          	mov    %edx,0xc(%esp)
    4d06:	8b 45 10             	mov    0x10(%ebp),%eax
    4d09:	8b 55 f0             	mov    -0x10(%ebp),%edx
    4d0c:	89 04 24             	mov    %eax,(%esp)
    4d0f:	89 54 24 08          	mov    %edx,0x8(%esp)
    4d13:	e8 f8 49 01 00       	call   19710 <async_answer_3>
    4d18:	c9                   	leave  
    4d19:	c3                   	ret    
    4d1a:	8d b6 00 00 00 00    	lea    0x0(%esi),%esi
    4d20:	8b 45 10             	mov    0x10(%ebp),%eax
    4d23:	c7 44 24 04 f5 ff ff 	movl   $0xfffffff5,0x4(%esp)
    4d2a:	ff 
    4d2b:	89 04 24             	mov    %eax,(%esp)
    4d2e:	e8 1d 49 01 00       	call   19650 <async_answer_0>
    4d33:	c9                   	leave  
    4d34:	c3                   	ret    
    4d35:	8d 74 26 00          	lea    0x0(%esi,%eiz,1),%esi
    4d39:	8d bc 27 00 00 00 00 	lea    0x0(%edi,%eiz,1),%edi

00004d40 <remote_nic_get_operation_mode>:
    4d40:	55                   	push   %ebp
    4d41:	89 e5                	mov    %esp,%ebp
    4d43:	83 ec 38             	sub    $0x38,%esp
    4d46:	8b 45 0c             	mov    0xc(%ebp),%eax
    4d49:	8b 40 24             	mov    0x24(%eax),%eax
    4d4c:	85 c0                	test   %eax,%eax
    4d4e:	74 58                	je     4da8 <remote_nic_get_operation_mode+0x68>
    4d50:	8d 55 f4             	lea    -0xc(%ebp),%edx
    4d53:	c7 45 ec 00 00 00 00 	movl   $0x0,-0x14(%ebp)
    4d5a:	89 54 24 0c          	mov    %edx,0xc(%esp)
    4d5e:	8d 55 f0             	lea    -0x10(%ebp),%edx
    4d61:	89 54 24 08          	mov    %edx,0x8(%esp)
    4d65:	8d 55 ec             	lea    -0x14(%ebp),%edx
    4d68:	89 54 24 04          	mov    %edx,0x4(%esp)
    4d6c:	8b 55 08             	mov    0x8(%ebp),%edx
    4d6f:	89 14 24             	mov    %edx,(%esp)
    4d72:	c7 45 f0 00 00 00 00 	movl   $0x0,-0x10(%ebp)
    4d79:	c7 45 f4 00 00 00 00 	movl   $0x0,-0xc(%ebp)
    4d80:	ff d0                	call   *%eax
    4d82:	8b 55 f4             	mov    -0xc(%ebp),%edx
    4d85:	89 54 24 10          	mov    %edx,0x10(%esp)
    4d89:	8b 55 f0             	mov    -0x10(%ebp),%edx
    4d8c:	89 54 24 0c          	mov    %edx,0xc(%esp)
    4d90:	89 44 24 04          	mov    %eax,0x4(%esp)
    4d94:	8b 55 ec             	mov    -0x14(%ebp),%edx
    4d97:	8b 45 10             	mov    0x10(%ebp),%eax
    4d9a:	89 54 24 08          	mov    %edx,0x8(%esp)
    4d9e:	89 04 24             	mov    %eax,(%esp)
    4da1:	e8 6a 49 01 00       	call   19710 <async_answer_3>
    4da6:	c9                   	leave  
    4da7:	c3                   	ret    
    4da8:	8b 45 10             	mov    0x10(%ebp),%eax
    4dab:	c7 44 24 04 f5 ff ff 	movl   $0xfffffff5,0x4(%esp)
    4db2:	ff 
    4db3:	89 04 24             	mov    %eax,(%esp)
    4db6:	e8 95 48 01 00       	call   19650 <async_answer_0>
    4dbb:	c9                   	leave  
    4dbc:	c3                   	ret    
    4dbd:	8d 76 00             	lea    0x0(%esi),%esi

00004dc0 <remote_nic_autoneg_probe>:
    4dc0:	55                   	push   %ebp
    4dc1:	89 e5                	mov    %esp,%ebp
    4dc3:	83 ec 38             	sub    $0x38,%esp
