
klog:     file format elf32-i386


Disassembly of section .init:

00001094 <__entry>:
    1094:	66 8c d0             	mov    %ss,%ax
    1097:	8e d8                	mov    %eax,%ds
    1099:	8e c0                	mov    %eax,%es
    109b:	8e e0                	mov    %eax,%fs
    109d:	b8 01 00 00 00       	mov    $0x1,%eax
    10a2:	0f a2                	cpuid  
    10a4:	0f ba e2 0b          	bt     $0xb,%edx
    10a8:	73 0c                	jae    10b6 <__entry+0x22>
    10aa:	8d 05 d0 39 02 00    	lea    0x239d0,%eax
    10b0:	c7 00 f7 c6 01 00    	movl   $0x1c6f7,(%eax)
    10b6:	6a 00                	push   $0x0
    10b8:	89 e5                	mov    %esp,%ebp
    10ba:	57                   	push   %edi
    10bb:	e8 90 1f 00 00       	call   3050 <__main>

Disassembly of section .text:

000010c0 <consumer>:
    10c0:	55                   	push   %ebp
    10c1:	89 e5                	mov    %esp,%ebp
    10c3:	57                   	push   %edi
    10c4:	56                   	push   %esi
    10c5:	53                   	push   %ebx
    10c6:	83 ec 1c             	sub    $0x1c,%esp
    10c9:	c7 44 24 04 09 18 02 	movl   $0x21809,0x4(%esp)
    10d0:	00 
    10d1:	c7 04 24 42 09 02 00 	movl   $0x20942,(%esp)
    10d8:	e8 73 8d 00 00       	call   9e50 <fopen>
    10dd:	89 c7                	mov    %eax,%edi
    10df:	85 c0                	test   %eax,%eax
    10e1:	75 35                	jne    1118 <consumer+0x58>
    10e3:	e8 c8 2a 00 00       	call   3bb0 <__errno>
    10e8:	8b 00                	mov    (%eax),%eax
    10ea:	89 04 24             	mov    %eax,(%esp)
    10ed:	e8 3e 63 00 00       	call   7430 <str_error>
    10f2:	c7 44 24 08 42 09 02 	movl   $0x20942,0x8(%esp)
    10f9:	00 
    10fa:	89 44 24 0c          	mov    %eax,0xc(%esp)
    10fe:	c7 44 24 04 47 09 02 	movl   $0x20947,0x4(%esp)
    1105:	00 
    1106:	c7 04 24 a0 09 02 00 	movl   $0x209a0,(%esp)
    110d:	e8 9e ac 00 00       	call   bdb0 <printf>
    1112:	8d b6 00 00 00 00    	lea    0x0(%esi),%esi
    1118:	c7 04 24 80 3a 02 00 	movl   $0x23a80,(%esp)
    111f:	e8 8c 6e 01 00       	call   17fb0 <prodcons_consume>
    1124:	89 c3                	mov    %eax,%ebx
    1126:	8b 40 08             	mov    0x8(%eax),%eax
    1129:	85 c0                	test   %eax,%eax
    112b:	74 68                	je     1195 <consumer+0xd5>
    112d:	31 f6                	xor    %esi,%esi
    112f:	90                   	nop
    1130:	8b 43 0c             	mov    0xc(%ebx),%eax
    1133:	8b 04 b0             	mov    (%eax,%esi,4),%eax
    1136:	46                   	inc    %esi
    1137:	89 04 24             	mov    %eax,(%esp)
    113a:	e8 b1 a9 00 00       	call   baf0 <putchar>
    113f:	8b 43 08             	mov    0x8(%ebx),%eax
    1142:	39 f0                	cmp    %esi,%eax
    1144:	77 ea                	ja     1130 <consumer+0x70>
    1146:	85 ff                	test   %edi,%edi
    1148:	74 36                	je     1180 <consumer+0xc0>
    114a:	31 f6                	xor    %esi,%esi
    114c:	85 c0                	test   %eax,%eax
    114e:	74 18                	je     1168 <consumer+0xa8>
    1150:	89 7c 24 04          	mov    %edi,0x4(%esp)
    1154:	8b 43 0c             	mov    0xc(%ebx),%eax
    1157:	8b 04 b0             	mov    (%eax,%esi,4),%eax
    115a:	46                   	inc    %esi
    115b:	89 04 24             	mov    %eax,(%esp)
    115e:	e8 cd a7 00 00       	call   b930 <fputc>
    1163:	39 73 08             	cmp    %esi,0x8(%ebx)
    1166:	77 e8                	ja     1150 <consumer+0x90>
    1168:	89 3c 24             	mov    %edi,(%esp)
    116b:	e8 c0 9f 00 00       	call   b130 <fflush>
    1170:	89 3c 24             	mov    %edi,(%esp)
    1173:	e8 78 ab 00 00       	call   bcf0 <fileno>
    1178:	89 04 24             	mov    %eax,(%esp)
    117b:	e8 40 96 01 00       	call   1a7c0 <fsync>
    1180:	8b 43 0c             	mov    0xc(%ebx),%eax
    1183:	89 04 24             	mov    %eax,(%esp)
    1186:	e8 e5 03 01 00       	call   11570 <free>
    118b:	89 1c 24             	mov    %ebx,(%esp)
    118e:	e8 dd 03 01 00       	call   11570 <free>
    1193:	eb 83                	jmp    1118 <consumer+0x58>
    1195:	85 ff                	test   %edi,%edi
    1197:	75 cf                	jne    1168 <consumer+0xa8>
    1199:	eb e5                	jmp    1180 <consumer+0xc0>
    119b:	90                   	nop
    119c:	8d 74 26 00          	lea    0x0(%esi,%eiz,1),%esi

000011a0 <notification_received>:
    11a0:	55                   	push   %ebp
    11a1:	89 e5                	mov    %esp,%ebp
    11a3:	57                   	push   %edi
    11a4:	56                   	push   %esi
    11a5:	53                   	push   %ebx
    11a6:	83 ec 2c             	sub    $0x2c,%esp
    11a9:	8b 7d 0c             	mov    0xc(%ebp),%edi
    11ac:	c7 04 24 20 38 02 00 	movl   $0x23820,(%esp)
    11b3:	e8 68 6c 00 00       	call   7e20 <fibril_mutex_lock>
    11b8:	8b 47 08             	mov    0x8(%edi),%eax
    11bb:	8b 4f 04             	mov    0x4(%edi),%ecx
    11be:	8b 5f 0c             	mov    0xc(%edi),%ebx
    11c1:	01 c8                	add    %ecx,%eax
    11c3:	8b 35 60 3a 02 00    	mov    0x23a60,%esi
    11c9:	29 d8                	sub    %ebx,%eax
    11cb:	31 d2                	xor    %edx,%edx
    11cd:	f7 f6                	div    %esi
    11cf:	8d 04 1a             	lea    (%edx,%ebx,1),%eax
    11d2:	39 c6                	cmp    %eax,%esi
    11d4:	0f 86 96 00 00 00    	jbe    1270 <notification_received+0xd0>
    11da:	a1 64 3a 02 00       	mov    0x23a64,%eax
    11df:	8d 3c 90             	lea    (%eax,%edx,4),%edi
    11e2:	c7 04 24 10 00 00 00 	movl   $0x10,(%esp)
    11e9:	e8 72 02 01 00       	call   11460 <malloc>
    11ee:	89 c6                	mov    %eax,%esi
    11f0:	85 c0                	test   %eax,%eax
    11f2:	74 56                	je     124a <notification_received+0xaa>
    11f4:	8d 14 9d 00 00 00 00 	lea    0x0(,%ebx,4),%edx
    11fb:	89 14 24             	mov    %edx,(%esp)
    11fe:	89 55 e0             	mov    %edx,-0x20(%ebp)
    1201:	e8 5a 02 01 00       	call   11460 <malloc>
    1206:	85 ff                	test   %edi,%edi
    1208:	8b 55 e0             	mov    -0x20(%ebp),%edx
    120b:	0f 84 e7 00 00 00    	je     12f8 <notification_received+0x158>
    1211:	89 54 24 08          	mov    %edx,0x8(%esp)
    1215:	89 7c 24 04          	mov    %edi,0x4(%esp)
    1219:	89 04 24             	mov    %eax,(%esp)
    121c:	89 45 e0             	mov    %eax,-0x20(%ebp)
    121f:	e8 1c 2b 00 00       	call   3d40 <memcpy>
    1224:	8b 4d e0             	mov    -0x20(%ebp),%ecx
    1227:	c7 06 00 00 00 00    	movl   $0x0,(%esi)
    122d:	c7 46 04 00 00 00 00 	movl   $0x0,0x4(%esi)
    1234:	89 5e 08             	mov    %ebx,0x8(%esi)
    1237:	89 4e 0c             	mov    %ecx,0xc(%esi)
    123a:	89 74 24 04          	mov    %esi,0x4(%esp)
    123e:	c7 04 24 80 3a 02 00 	movl   $0x23a80,(%esp)
    1245:	e8 16 6d 01 00       	call   17f60 <prodcons_produce>
    124a:	c7 04 24 00 00 00 00 	movl   $0x0,(%esp)
    1251:	e8 ba 28 00 00       	call   3b10 <event_unmask>
    1256:	c7 45 08 20 38 02 00 	movl   $0x23820,0x8(%ebp)
    125d:	83 c4 2c             	add    $0x2c,%esp
    1260:	5b                   	pop    %ebx
    1261:	5e                   	pop    %esi
    1262:	5f                   	pop    %edi
    1263:	5d                   	pop    %ebp
    1264:	e9 d7 6c 00 00       	jmp    7f40 <fibril_mutex_unlock>
    1269:	8d b4 26 00 00 00 00 	lea    0x0(%esi,%eiz,1),%esi
    1270:	a1 64 3a 02 00       	mov    0x23a64,%eax
    1275:	29 d6                	sub    %edx,%esi
    1277:	c7 04 24 10 00 00 00 	movl   $0x10,(%esp)
    127e:	89 75 e4             	mov    %esi,-0x1c(%ebp)
    1281:	8d 3c 90             	lea    (%eax,%edx,4),%edi
    1284:	e8 d7 01 01 00       	call   11460 <malloc>
    1289:	89 c6                	mov    %eax,%esi
    128b:	85 c0                	test   %eax,%eax
    128d:	74 54                	je     12e3 <notification_received+0x143>
    128f:	8b 4d e4             	mov    -0x1c(%ebp),%ecx
    1292:	c1 e1 02             	shl    $0x2,%ecx
    1295:	89 0c 24             	mov    %ecx,(%esp)
    1298:	89 4d e0             	mov    %ecx,-0x20(%ebp)
    129b:	e8 c0 01 01 00       	call   11460 <malloc>
    12a0:	85 ff                	test   %edi,%edi
    12a2:	8b 4d e0             	mov    -0x20(%ebp),%ecx
    12a5:	74 61                	je     1308 <notification_received+0x168>
    12a7:	89 4c 24 08          	mov    %ecx,0x8(%esp)
    12ab:	89 7c 24 04          	mov    %edi,0x4(%esp)
    12af:	89 04 24             	mov    %eax,(%esp)
    12b2:	89 45 e0             	mov    %eax,-0x20(%ebp)
    12b5:	e8 86 2a 00 00       	call   3d40 <memcpy>
    12ba:	8b 45 e4             	mov    -0x1c(%ebp),%eax
    12bd:	8b 55 e0             	mov    -0x20(%ebp),%edx
    12c0:	c7 06 00 00 00 00    	movl   $0x0,(%esi)
    12c6:	c7 46 04 00 00 00 00 	movl   $0x0,0x4(%esi)
    12cd:	89 46 08             	mov    %eax,0x8(%esi)
    12d0:	89 56 0c             	mov    %edx,0xc(%esi)
    12d3:	89 74 24 04          	mov    %esi,0x4(%esp)
    12d7:	c7 04 24 80 3a 02 00 	movl   $0x23a80,(%esp)
    12de:	e8 7d 6c 01 00       	call   17f60 <prodcons_produce>
    12e3:	8b 55 e4             	mov    -0x1c(%ebp),%edx
    12e6:	8b 3d 64 3a 02 00    	mov    0x23a64,%edi
    12ec:	29 d3                	sub    %edx,%ebx
    12ee:	e9 ef fe ff ff       	jmp    11e2 <notification_received+0x42>
    12f3:	90                   	nop
    12f4:	8d 74 26 00          	lea    0x0(%esi,%eiz,1),%esi
    12f8:	89 34 24             	mov    %esi,(%esp)
    12fb:	e8 70 02 01 00       	call   11570 <free>
    1300:	e9 45 ff ff ff       	jmp    124a <notification_received+0xaa>
    1305:	8d 76 00             	lea    0x0(%esi),%esi
    1308:	89 34 24             	mov    %esi,(%esp)
    130b:	e8 60 02 01 00       	call   11570 <free>
    1310:	eb d1                	jmp    12e3 <notification_received+0x143>
    1312:	66 90                	xchg   %ax,%ax
    1314:	66 90                	xchg   %ax,%ax
    1316:	66 90                	xchg   %ax,%ax
    1318:	66 90                	xchg   %ax,%ax
    131a:	66 90                	xchg   %ax,%ax
    131c:	66 90                	xchg   %ax,%ax
    131e:	66 90                	xchg   %ax,%ax

00001320 <main>:
    1320:	55                   	push   %ebp
    1321:	89 e5                	mov    %esp,%ebp
    1323:	57                   	push   %edi
    1324:	56                   	push   %esi
    1325:	53                   	push   %ebx
    1326:	83 e4 f0             	and    $0xfffffff0,%esp
    1329:	83 ec 20             	sub    $0x20,%esp
    132c:	8d 44 24 14          	lea    0x14(%esp),%eax
    1330:	c7 04 24 4c 09 02 00 	movl   $0x2094c,(%esp)
    1337:	89 44 24 04          	mov    %eax,0x4(%esp)
    133b:	e8 10 0a 01 00       	call   11d50 <sysinfo_get_value>
    1340:	89 c3                	mov    %eax,%ebx
    1342:	85 c0                	test   %eax,%eax
    1344:	0f 85 67 01 00 00    	jne    14b1 <main+0x191>
    134a:	8d 44 24 18          	lea    0x18(%esp),%eax
    134e:	c7 04 24 57 09 02 00 	movl   $0x20957,(%esp)
    1355:	89 44 24 04          	mov    %eax,0x4(%esp)
    1359:	e8 f2 09 01 00       	call   11d50 <sysinfo_get_value>
    135e:	89 c3                	mov    %eax,%ebx
    1360:	85 c0                	test   %eax,%eax
    1362:	0f 85 22 01 00 00    	jne    148a <main+0x16a>
    1368:	8b 54 24 14          	mov    0x14(%esp),%edx
    136c:	c7 44 24 0c 64 3a 02 	movl   $0x23a64,0xc(%esp)
    1373:	00 
    1374:	89 d0                	mov    %edx,%eax
    1376:	c7 44 24 08 09 00 00 	movl   $0x9,0x8(%esp)
    137d:	00 
    137e:	c1 e0 0c             	shl    $0xc,%eax
    1381:	89 54 24 04          	mov    %edx,0x4(%esp)
    1385:	c1 e8 02             	shr    $0x2,%eax
    1388:	a3 60 3a 02 00       	mov    %eax,0x23a60
    138d:	8b 44 24 18          	mov    0x18(%esp),%eax
    1391:	89 04 24             	mov    %eax,(%esp)
    1394:	e8 c7 1d 00 00       	call   3160 <physmem_map>
    1399:	89 c3                	mov    %eax,%ebx
    139b:	85 c0                	test   %eax,%eax
    139d:	0f 85 4c 01 00 00    	jne    14ef <main+0x1cf>
    13a3:	c7 04 24 80 3a 02 00 	movl   $0x23a80,(%esp)
    13aa:	e8 81 6b 01 00       	call   17f30 <prodcons_initialize>
    13af:	c7 04 24 a0 11 00 00 	movl   $0x11a0,(%esp)
    13b6:	e8 45 17 01 00       	call   12b00 <async_set_interrupt_received>
    13bb:	c7 44 24 04 00 00 00 	movl   $0x0,0x4(%esp)
    13c2:	00 
    13c3:	c7 04 24 00 00 00 00 	movl   $0x0,(%esp)
    13ca:	e8 a1 26 00 00       	call   3a70 <event_subscribe>
    13cf:	89 c3                	mov    %eax,%ebx
    13d1:	85 c0                	test   %eax,%eax
    13d3:	0f 85 f7 00 00 00    	jne    14d0 <main+0x1b0>
    13d9:	c7 44 24 04 00 00 00 	movl   $0x0,0x4(%esp)
    13e0:	00 
    13e1:	c7 04 24 c0 10 00 00 	movl   $0x10c0,(%esp)
    13e8:	e8 53 65 00 00       	call   7940 <fibril_create>
    13ed:	89 c7                	mov    %eax,%edi
    13ef:	85 c0                	test   %eax,%eax
    13f1:	0f 84 17 01 00 00    	je     150e <main+0x1ee>
    13f7:	e8 34 08 00 00       	call   1c30 <tinput_new>
    13fc:	89 c6                	mov    %eax,%esi
    13fe:	85 c0                	test   %eax,%eax
    1400:	0f 84 2f 01 00 00    	je     1535 <main+0x215>
    1406:	89 3c 24             	mov    %edi,(%esp)
    1409:	8d 7c 24 1c          	lea    0x1c(%esp),%edi
    140d:	e8 6e 66 00 00       	call   7a80 <fibril_add_ready>
    1412:	c7 04 24 00 00 00 00 	movl   $0x0,(%esp)
    1419:	e8 f2 26 00 00       	call   3b10 <event_unmask>
    141e:	e8 0d ab 00 00       	call   bf30 <klog_update>
    1423:	c7 44 24 04 96 09 02 	movl   $0x20996,0x4(%esp)
    142a:	00 
    142b:	89 34 24             	mov    %esi,(%esp)
    142e:	e8 8d 08 00 00       	call   1cc0 <tinput_set_prompt>
    1433:	eb 43                	jmp    1478 <main+0x158>
    1435:	8d 76 00             	lea    0x0(%esi),%esi
    1438:	8b 44 24 1c          	mov    0x1c(%esp),%eax
    143c:	c7 44 24 04 1f 1d 02 	movl   $0x21d1f,0x4(%esp)
    1443:	00 
    1444:	89 04 24             	mov    %eax,(%esp)
    1447:	e8 34 3c 00 00       	call   5080 <str_cmp>
    144c:	85 c0                	test   %eax,%eax
    144e:	8b 44 24 1c          	mov    0x1c(%esp),%eax
    1452:	89 04 24             	mov    %eax,(%esp)
    1455:	74 1c                	je     1473 <main+0x153>
    1457:	e8 f4 36 00 00       	call   4b50 <str_size>
    145c:	89 44 24 04          	mov    %eax,0x4(%esp)
    1460:	8b 44 24 1c          	mov    0x1c(%esp),%eax
    1464:	89 04 24             	mov    %eax,(%esp)
    1467:	e8 14 ab 00 00       	call   bf80 <klog_command>
    146c:	8b 44 24 1c          	mov    0x1c(%esp),%eax
    1470:	89 04 24             	mov    %eax,(%esp)
    1473:	e8 f8 00 01 00       	call   11570 <free>
    1478:	89 7c 24 04          	mov    %edi,0x4(%esp)
    147c:	89 34 24             	mov    %esi,(%esp)
    147f:	e8 8c 08 00 00       	call   1d10 <tinput_read>
    1484:	85 c0                	test   %eax,%eax
    1486:	74 b0                	je     1438 <main+0x118>
    1488:	eb 1d                	jmp    14a7 <main+0x187>
    148a:	a1 b4 3a 02 00       	mov    0x23ab4,%eax
    148f:	c7 44 24 08 47 09 02 	movl   $0x20947,0x8(%esp)
    1496:	00 
    1497:	c7 44 24 04 f0 09 02 	movl   $0x209f0,0x4(%esp)
    149e:	00 
    149f:	89 04 24             	mov    %eax,(%esp)
    14a2:	e8 d9 a8 00 00       	call   bd80 <fprintf>
    14a7:	8d 65 f4             	lea    -0xc(%ebp),%esp
    14aa:	89 d8                	mov    %ebx,%eax
    14ac:	5b                   	pop    %ebx
    14ad:	5e                   	pop    %esi
    14ae:	5f                   	pop    %edi
    14af:	5d                   	pop    %ebp
    14b0:	c3                   	ret    
    14b1:	a1 b4 3a 02 00       	mov    0x23ab4,%eax
    14b6:	c7 44 24 08 47 09 02 	movl   $0x20947,0x8(%esp)
    14bd:	00 
    14be:	c7 44 24 04 c8 09 02 	movl   $0x209c8,0x4(%esp)
    14c5:	00 
    14c6:	89 04 24             	mov    %eax,(%esp)
    14c9:	e8 b2 a8 00 00       	call   bd80 <fprintf>
    14ce:	eb d7                	jmp    14a7 <main+0x187>
    14d0:	a1 b4 3a 02 00       	mov    0x23ab4,%eax
    14d5:	c7 44 24 08 47 09 02 	movl   $0x20947,0x8(%esp)
    14dc:	00 
    14dd:	c7 44 24 04 1c 0a 02 	movl   $0x20a1c,0x4(%esp)
    14e4:	00 
    14e5:	89 04 24             	mov    %eax,(%esp)
    14e8:	e8 93 a8 00 00       	call   bd80 <fprintf>
    14ed:	eb b8                	jmp    14a7 <main+0x187>
    14ef:	a1 b4 3a 02 00       	mov    0x23ab4,%eax
    14f4:	c7 44 24 08 47 09 02 	movl   $0x20947,0x8(%esp)
    14fb:	00 
    14fc:	c7 44 24 04 62 09 02 	movl   $0x20962,0x4(%esp)
    1503:	00 
    1504:	89 04 24             	mov    %eax,(%esp)
    1507:	e8 74 a8 00 00       	call   bd80 <fprintf>
    150c:	eb 99                	jmp    14a7 <main+0x187>
    150e:	a1 b4 3a 02 00       	mov    0x23ab4,%eax
    1513:	c7 44 24 08 47 09 02 	movl   $0x20947,0x8(%esp)
    151a:	00 
    151b:	c7 44 24 04 48 0a 02 	movl   $0x20a48,0x4(%esp)
    1522:	00 
    1523:	89 04 24             	mov    %eax,(%esp)
    1526:	e8 55 a8 00 00       	call   bd80 <fprintf>
    152b:	bb fe ff ff ff       	mov    $0xfffffffe,%ebx
    1530:	e9 72 ff ff ff       	jmp    14a7 <main+0x187>
    1535:	a1 b4 3a 02 00       	mov    0x23ab4,%eax
    153a:	c7 44 24 08 47 09 02 	movl   $0x20947,0x8(%esp)
    1541:	00 
    1542:	c7 44 24 04 7a 09 02 	movl   $0x2097a,0x4(%esp)
    1549:	00 
    154a:	89 04 24             	mov    %eax,(%esp)
    154d:	e8 2e a8 00 00       	call   bd80 <fprintf>
    1552:	bb fe ff ff ff       	mov    $0xfffffffe,%ebx
    1557:	e9 4b ff ff ff       	jmp    14a7 <main+0x187>
    155c:	66 90                	xchg   %ax,%ax
    155e:	66 90                	xchg   %ax,%ax

00001560 <compl_cmp>:
    1560:	55                   	push   %ebp
    1561:	89 e5                	mov    %esp,%ebp
    1563:	8b 45 0c             	mov    0xc(%ebp),%eax
    1566:	8b 00                	mov    (%eax),%eax
    1568:	89 45 0c             	mov    %eax,0xc(%ebp)
    156b:	8b 45 08             	mov    0x8(%ebp),%eax
    156e:	8b 00                	mov    (%eax),%eax
    1570:	89 45 08             	mov    %eax,0x8(%ebp)
    1573:	5d                   	pop    %ebp
    1574:	e9 07 3b 00 00       	jmp    5080 <str_cmp>
    1579:	8d b4 26 00 00 00 00 	lea    0x0(%esi,%eiz,1),%esi

00001580 <tinput_display_tail>:
    1580:	55                   	push   %ebp
    1581:	89 e5                	mov    %esp,%ebp
    1583:	57                   	push   %edi
    1584:	56                   	push   %esi
    1585:	53                   	push   %ebx
    1586:	83 ec 2c             	sub    $0x2c,%esp
    1589:	89 c6                	mov    %eax,%esi
    158b:	89 d3                	mov    %edx,%ebx
    158d:	89 cf                	mov    %ecx,%edi
    158f:	c7 04 24 04 10 00 00 	movl   $0x1004,(%esp)
    1596:	e8 c5 fe 00 00       	call   11460 <malloc>
    159b:	89 45 e4             	mov    %eax,-0x1c(%ebp)
    159e:	85 c0                	test   %eax,%eax
    15a0:	0f 84 b8 00 00 00    	je     165e <tinput_display_tail+0xde>
    15a6:	8b 86 28 10 00 00    	mov    0x1028(%esi),%eax
    15ac:	8b 8e 24 10 00 00    	mov    0x1024(%esi),%ecx
    15b2:	89 45 e0             	mov    %eax,-0x20(%ebp)
    15b5:	39 c8                	cmp    %ecx,%eax
    15b7:	0f 82 ab 00 00 00    	jb     1668 <tinput_display_tail+0xe8>
    15bd:	8b 86 14 10 00 00    	mov    0x1014(%esi),%eax
    15c3:	31 d2                	xor    %edx,%edx
    15c5:	01 d8                	add    %ebx,%eax
    15c7:	89 4d dc             	mov    %ecx,-0x24(%ebp)
    15ca:	f7 b6 18 10 00 00    	divl   0x1018(%esi)
    15d0:	89 44 24 08          	mov    %eax,0x8(%esp)
    15d4:	8b 06                	mov    (%esi),%eax
    15d6:	89 54 24 04          	mov    %edx,0x4(%esp)
    15da:	89 04 24             	mov    %eax,(%esp)
    15dd:	e8 4e d9 00 00       	call   ef30 <console_set_pos>
    15e2:	8b 06                	mov    (%esi),%eax
    15e4:	c7 44 24 04 00 00 00 	movl   $0x0,0x4(%esp)
    15eb:	00 
    15ec:	89 04 24             	mov    %eax,(%esp)
    15ef:	e8 dc d5 00 00       	call   ebd0 <console_set_style>
    15f4:	8b 4d dc             	mov    -0x24(%ebp),%ecx
    15f7:	39 cb                	cmp    %ecx,%ebx
    15f9:	0f 82 29 01 00 00    	jb     1728 <tinput_display_tail+0x1a8>
    15ff:	3b 5d e0             	cmp    -0x20(%ebp),%ebx
    1602:	0f 82 b8 00 00 00    	jb     16c0 <tinput_display_tail+0x140>
    1608:	8b 06                	mov    (%esi),%eax
    160a:	89 04 24             	mov    %eax,(%esp)
    160d:	e8 8e d4 00 00       	call   eaa0 <console_flush>
    1612:	8b 06                	mov    (%esi),%eax
    1614:	89 04 24             	mov    %eax,(%esp)
    1617:	c7 44 24 04 00 00 00 	movl   $0x0,0x4(%esp)
    161e:	00 
    161f:	e8 ac d5 00 00       	call   ebd0 <console_set_style>
    1624:	8b 86 20 10 00 00    	mov    0x1020(%esi),%eax
    162a:	39 c3                	cmp    %eax,%ebx
    162c:	72 4a                	jb     1678 <tinput_display_tail+0xf8>
    162e:	31 db                	xor    %ebx,%ebx
    1630:	85 ff                	test   %edi,%edi
    1632:	74 15                	je     1649 <tinput_display_tail+0xc9>
    1634:	8d 74 26 00          	lea    0x0(%esi,%eiz,1),%esi
    1638:	c7 04 24 20 00 00 00 	movl   $0x20,(%esp)
    163f:	43                   	inc    %ebx
    1640:	e8 ab a4 00 00       	call   baf0 <putchar>
    1645:	39 fb                	cmp    %edi,%ebx
    1647:	75 ef                	jne    1638 <tinput_display_tail+0xb8>
    1649:	8b 06                	mov    (%esi),%eax
    164b:	89 04 24             	mov    %eax,(%esp)
    164e:	e8 4d d4 00 00       	call   eaa0 <console_flush>
    1653:	8b 45 e4             	mov    -0x1c(%ebp),%eax
    1656:	89 04 24             	mov    %eax,(%esp)
    1659:	e8 12 ff 00 00       	call   11570 <free>
    165e:	83 c4 2c             	add    $0x2c,%esp
    1661:	5b                   	pop    %ebx
    1662:	5e                   	pop    %esi
    1663:	5f                   	pop    %edi
    1664:	5d                   	pop    %ebp
    1665:	c3                   	ret    
    1666:	66 90                	xchg   %ax,%ax
    1668:	89 4d e0             	mov    %ecx,-0x20(%ebp)
    166b:	89 c1                	mov    %eax,%ecx
    166d:	e9 4b ff ff ff       	jmp    15bd <tinput_display_tail+0x3d>
    1672:	8d b6 00 00 00 00    	lea    0x0(%esi),%esi
    1678:	29 d8                	sub    %ebx,%eax
    167a:	c1 e0 02             	shl    $0x2,%eax
    167d:	89 44 24 08          	mov    %eax,0x8(%esp)
    1681:	8d 44 9e 0c          	lea    0xc(%esi,%ebx,4),%eax
    1685:	89 44 24 04          	mov    %eax,0x4(%esp)
    1689:	8b 45 e4             	mov    -0x1c(%ebp),%eax
    168c:	89 04 24             	mov    %eax,(%esp)
    168f:	e8 ac 26 00 00       	call   3d40 <memcpy>
    1694:	8b 86 20 10 00 00    	mov    0x1020(%esi),%eax
    169a:	8b 55 e4             	mov    -0x1c(%ebp),%edx
    169d:	29 d8                	sub    %ebx,%eax
    169f:	c7 04 82 00 00 00 00 	movl   $0x0,(%edx,%eax,4)
    16a6:	89 54 24 04          	mov    %edx,0x4(%esp)
    16aa:	c7 04 24 6e 0a 02 00 	movl   $0x20a6e,(%esp)
    16b1:	e8 fa a6 00 00       	call   bdb0 <printf>
    16b6:	e9 73 ff ff ff       	jmp    162e <tinput_display_tail+0xae>
    16bb:	90                   	nop
    16bc:	8d 74 26 00          	lea    0x0(%esi,%eiz,1),%esi
    16c0:	8b 06                	mov    (%esi),%eax
    16c2:	89 04 24             	mov    %eax,(%esp)
    16c5:	e8 d6 d3 00 00       	call   eaa0 <console_flush>
    16ca:	8b 06                	mov    (%esi),%eax
    16cc:	89 04 24             	mov    %eax,(%esp)
    16cf:	c7 44 24 04 03 00 00 	movl   $0x3,0x4(%esp)
    16d6:	00 
    16d7:	e8 f4 d4 00 00       	call   ebd0 <console_set_style>
    16dc:	8b 55 e0             	mov    -0x20(%ebp),%edx
    16df:	8d 44 9e 0c          	lea    0xc(%esi,%ebx,4),%eax
    16e3:	29 da                	sub    %ebx,%edx
    16e5:	c1 e2 02             	shl    $0x2,%edx
    16e8:	89 44 24 04          	mov    %eax,0x4(%esp)
    16ec:	8b 45 e4             	mov    -0x1c(%ebp),%eax
    16ef:	89 54 24 08          	mov    %edx,0x8(%esp)
    16f3:	89 04 24             	mov    %eax,(%esp)
    16f6:	89 55 d8             	mov    %edx,-0x28(%ebp)
    16f9:	e8 42 26 00 00       	call   3d40 <memcpy>
    16fe:	8b 45 e4             	mov    -0x1c(%ebp),%eax
    1701:	8b 55 d8             	mov    -0x28(%ebp),%edx
    1704:	c7 04 10 00 00 00 00 	movl   $0x0,(%eax,%edx,1)
    170b:	89 44 24 04          	mov    %eax,0x4(%esp)
    170f:	c7 04 24 6e 0a 02 00 	movl   $0x20a6e,(%esp)
    1716:	e8 95 a6 00 00       	call   bdb0 <printf>
    171b:	8b 5d e0             	mov    -0x20(%ebp),%ebx
    171e:	e9 e5 fe ff ff       	jmp    1608 <tinput_display_tail+0x88>
    1723:	90                   	nop
    1724:	8d 74 26 00          	lea    0x0(%esi,%eiz,1),%esi
    1728:	89 ca                	mov    %ecx,%edx
    172a:	8d 44 9e 0c          	lea    0xc(%esi,%ebx,4),%eax
    172e:	29 da                	sub    %ebx,%edx
    1730:	89 44 24 04          	mov    %eax,0x4(%esp)
    1734:	c1 e2 02             	shl    $0x2,%edx
    1737:	8b 45 e4             	mov    -0x1c(%ebp),%eax
    173a:	89 54 24 08          	mov    %edx,0x8(%esp)
    173e:	89 04 24             	mov    %eax,(%esp)
    1741:	89 55 d8             	mov    %edx,-0x28(%ebp)
    1744:	e8 f7 25 00 00       	call   3d40 <memcpy>
    1749:	8b 45 e4             	mov    -0x1c(%ebp),%eax
    174c:	8b 55 d8             	mov    -0x28(%ebp),%edx
    174f:	c7 04 10 00 00 00 00 	movl   $0x0,(%eax,%edx,1)
    1756:	89 44 24 04          	mov    %eax,0x4(%esp)
    175a:	c7 04 24 6e 0a 02 00 	movl   $0x20a6e,(%esp)
    1761:	e8 4a a6 00 00       	call   bdb0 <printf>
    1766:	8b 4d dc             	mov    -0x24(%ebp),%ecx
    1769:	89 cb                	mov    %ecx,%ebx
    176b:	e9 8f fe ff ff       	jmp    15ff <tinput_display_tail+0x7f>

00001770 <tinput_insert_string>:
    1770:	55                   	push   %ebp
    1771:	89 e5                	mov    %esp,%ebp
    1773:	57                   	push   %edi
    1774:	56                   	push   %esi
    1775:	53                   	push   %ebx
    1776:	83 ec 3c             	sub    $0x3c,%esp
    1779:	89 c6                	mov    %eax,%esi
    177b:	89 55 d0             	mov    %edx,-0x30(%ebp)
    177e:	bb 00 04 00 00       	mov    $0x400,%ebx
    1783:	89 14 24             	mov    %edx,(%esp)
    1786:	e8 a5 35 00 00       	call   4d30 <str_length>
    178b:	8b be 20 10 00 00    	mov    0x1020(%esi),%edi
    1791:	29 fb                	sub    %edi,%ebx
    1793:	39 d8                	cmp    %ebx,%eax
    1795:	0f 82 2d 01 00 00    	jb     18c8 <tinput_insert_string+0x158>
    179b:	85 db                	test   %ebx,%ebx
    179d:	74 28                	je     17c7 <tinput_insert_string+0x57>
    179f:	8b be 18 10 00 00    	mov    0x1018(%esi),%edi
    17a5:	31 d2                	xor    %edx,%edx
    17a7:	8b 86 14 10 00 00    	mov    0x1014(%esi),%eax
    17ad:	8b 8e 20 10 00 00    	mov    0x1020(%esi),%ecx
    17b3:	f7 f7                	div    %edi
    17b5:	8d 04 0a             	lea    (%edx,%ecx,1),%eax
    17b8:	31 d2                	xor    %edx,%edx
    17ba:	01 d8                	add    %ebx,%eax
    17bc:	f7 f7                	div    %edi
    17be:	40                   	inc    %eax
    17bf:	3b 86 1c 10 00 00    	cmp    0x101c(%esi),%eax
    17c5:	72 09                	jb     17d0 <tinput_insert_string+0x60>
    17c7:	83 c4 3c             	add    $0x3c,%esp
    17ca:	5b                   	pop    %ebx
    17cb:	5e                   	pop    %esi
    17cc:	5f                   	pop    %edi
    17cd:	5d                   	pop    %ebp
    17ce:	c3                   	ret    
    17cf:	90                   	nop
    17d0:	85 c9                	test   %ecx,%ecx
    17d2:	0f 85 08 01 00 00    	jne    18e0 <tinput_insert_string+0x170>
    17d8:	89 5d d4             	mov    %ebx,-0x2c(%ebp)
    17db:	c7 45 e4 00 00 00 00 	movl   $0x0,-0x1c(%ebp)
    17e2:	31 ff                	xor    %edi,%edi
    17e4:	8b 5d d0             	mov    -0x30(%ebp),%ebx
    17e7:	eb 28                	jmp    1811 <tinput_insert_string+0xa1>
    17e9:	8d b4 26 00 00 00 00 	lea    0x0(%esi,%eiz,1),%esi
    17f0:	83 f8 1f             	cmp    $0x1f,%eax
    17f3:	7f 05                	jg     17fa <tinput_insert_string+0x8a>
    17f5:	b8 20 00 00 00       	mov    $0x20,%eax
    17fa:	8b 96 24 10 00 00    	mov    0x1024(%esi),%edx
    1800:	8d 0c 17             	lea    (%edi,%edx,1),%ecx
    1803:	47                   	inc    %edi
    1804:	3b 7d d4             	cmp    -0x2c(%ebp),%edi
    1807:	89 44 8e 0c          	mov    %eax,0xc(%esi,%ecx,4)
    180b:	0f 84 f8 00 00 00    	je     1909 <tinput_insert_string+0x199>
    1811:	8d 45 e4             	lea    -0x1c(%ebp),%eax
    1814:	c7 44 24 08 ff ff ff 	movl   $0xffffffff,0x8(%esp)
    181b:	ff 
    181c:	89 44 24 04          	mov    %eax,0x4(%esp)
    1820:	89 1c 24             	mov    %ebx,(%esp)
    1823:	e8 e8 2e 00 00       	call   4710 <str_decode>
    1828:	85 c0                	test   %eax,%eax
    182a:	75 c4                	jne    17f0 <tinput_insert_string+0x80>
    182c:	8b 5d d4             	mov    -0x2c(%ebp),%ebx
    182f:	8b 96 24 10 00 00    	mov    0x1024(%esi),%edx
    1835:	8b 8e 20 10 00 00    	mov    0x1020(%esi),%ecx
    183b:	8d 04 13             	lea    (%ebx,%edx,1),%eax
    183e:	01 cb                	add    %ecx,%ebx
    1840:	89 86 24 10 00 00    	mov    %eax,0x1024(%esi)
    1846:	31 c9                	xor    %ecx,%ecx
    1848:	89 9e 20 10 00 00    	mov    %ebx,0x1020(%esi)
    184e:	c7 44 9e 0c 00 00 00 	movl   $0x0,0xc(%esi,%ebx,4)
    1855:	00 
    1856:	89 86 28 10 00 00    	mov    %eax,0x1028(%esi)
    185c:	89 f0                	mov    %esi,%eax
    185e:	e8 1d fd ff ff       	call   1580 <tinput_display_tail>
    1863:	8b 9e 14 10 00 00    	mov    0x1014(%esi),%ebx
    1869:	8b 86 20 10 00 00    	mov    0x1020(%esi),%eax
    186f:	31 d2                	xor    %edx,%edx
    1871:	01 d8                	add    %ebx,%eax
    1873:	8b 8e 18 10 00 00    	mov    0x1018(%esi),%ecx
    1879:	f7 f1                	div    %ecx
    187b:	8b 96 1c 10 00 00    	mov    0x101c(%esi),%edx
    1881:	39 d0                	cmp    %edx,%eax
    1883:	72 1c                	jb     18a1 <tinput_insert_string+0x131>
    1885:	29 d0                	sub    %edx,%eax
    1887:	8b 96 10 10 00 00    	mov    0x1010(%esi),%edx
    188d:	40                   	inc    %eax
    188e:	0f af c1             	imul   %ecx,%eax
    1891:	29 c3                	sub    %eax,%ebx
    1893:	29 c2                	sub    %eax,%edx
    1895:	89 9e 14 10 00 00    	mov    %ebx,0x1014(%esi)
    189b:	89 96 10 10 00 00    	mov    %edx,0x1010(%esi)
    18a1:	8b 86 24 10 00 00    	mov    0x1024(%esi),%eax
    18a7:	31 d2                	xor    %edx,%edx
    18a9:	01 d8                	add    %ebx,%eax
    18ab:	f7 f1                	div    %ecx
    18ad:	89 44 24 08          	mov    %eax,0x8(%esp)
    18b1:	8b 06                	mov    (%esi),%eax
    18b3:	89 54 24 04          	mov    %edx,0x4(%esp)
    18b7:	89 04 24             	mov    %eax,(%esp)
    18ba:	e8 71 d6 00 00       	call   ef30 <console_set_pos>
    18bf:	83 c4 3c             	add    $0x3c,%esp
    18c2:	5b                   	pop    %ebx
    18c3:	5e                   	pop    %esi
    18c4:	5f                   	pop    %edi
    18c5:	5d                   	pop    %ebp
    18c6:	c3                   	ret    
    18c7:	90                   	nop
    18c8:	8b 45 d0             	mov    -0x30(%ebp),%eax
    18cb:	89 04 24             	mov    %eax,(%esp)
    18ce:	e8 5d 34 00 00       	call   4d30 <str_length>
    18d3:	89 c3                	mov    %eax,%ebx
    18d5:	e9 c1 fe ff ff       	jmp    179b <tinput_insert_string+0x2b>
    18da:	8d b6 00 00 00 00    	lea    0x0(%esi),%esi
    18e0:	8b 96 24 10 00 00    	mov    0x1024(%esi),%edx
    18e6:	39 d1                	cmp    %edx,%ecx
    18e8:	0f 86 ea fe ff ff    	jbe    17d8 <tinput_insert_string+0x68>
    18ee:	8d 44 8e 08          	lea    0x8(%esi,%ecx,4),%eax
    18f2:	8d 4c 96 08          	lea    0x8(%esi,%edx,4),%ecx
    18f6:	66 90                	xchg   %ax,%ax
    18f8:	8b 10                	mov    (%eax),%edx
    18fa:	89 14 98             	mov    %edx,(%eax,%ebx,4)
    18fd:	83 e8 04             	sub    $0x4,%eax
    1900:	39 c8                	cmp    %ecx,%eax
    1902:	75 f4                	jne    18f8 <tinput_insert_string+0x188>
    1904:	e9 cf fe ff ff       	jmp    17d8 <tinput_insert_string+0x68>
    1909:	8b 5d d4             	mov    -0x2c(%ebp),%ebx
    190c:	e9 24 ff ff ff       	jmp    1835 <tinput_insert_string+0xc5>
    1911:	eb 0d                	jmp    1920 <tinput_history_seek.part.5>
    1913:	90                   	nop
    1914:	90                   	nop
    1915:	90                   	nop
    1916:	90                   	nop
    1917:	90                   	nop
    1918:	90                   	nop
    1919:	90                   	nop
    191a:	90                   	nop
    191b:	90                   	nop
    191c:	90                   	nop
    191d:	90                   	nop
    191e:	90                   	nop
    191f:	90                   	nop

00001920 <tinput_history_seek.part.5>:
    1920:	55                   	push   %ebp
    1921:	89 e5                	mov    %esp,%ebp
    1923:	57                   	push   %edi
    1924:	56                   	push   %esi
    1925:	53                   	push   %ebx
    1926:	83 ec 2c             	sub    $0x2c,%esp
    1929:	89 c3                	mov    %eax,%ebx
    192b:	8b b0 5c 10 00 00    	mov    0x105c(%eax),%esi
    1931:	81 c6 08 04 00 00    	add    $0x408,%esi
    1937:	8b 44 b0 0c          	mov    0xc(%eax,%esi,4),%eax
    193b:	85 c0                	test   %eax,%eax
    193d:	74 22                	je     1961 <tinput_history_seek.part.5+0x41>
    193f:	89 04 24             	mov    %eax,(%esp)
    1942:	89 55 e4             	mov    %edx,-0x1c(%ebp)
    1945:	e8 26 fc 00 00       	call   11570 <free>
    194a:	8b b3 5c 10 00 00    	mov    0x105c(%ebx),%esi
    1950:	81 c6 08 04 00 00    	add    $0x408,%esi
    1956:	8b 55 e4             	mov    -0x1c(%ebp),%edx
    1959:	c7 44 b3 0c 00 00 00 	movl   $0x0,0xc(%ebx,%esi,4)
    1960:	00 
    1961:	8d 7b 0c             	lea    0xc(%ebx),%edi
    1964:	89 55 e4             	mov    %edx,-0x1c(%ebp)
    1967:	89 3c 24             	mov    %edi,(%esp)
    196a:	e8 21 47 00 00       	call   6090 <wstr_to_astr>
    196f:	8b 8b 5c 10 00 00    	mov    0x105c(%ebx),%ecx
    1975:	8b 55 e4             	mov    -0x1c(%ebp),%edx
    1978:	89 44 b3 0c          	mov    %eax,0xc(%ebx,%esi,4)
    197c:	01 ca                	add    %ecx,%edx
    197e:	8b b3 20 10 00 00    	mov    0x1020(%ebx),%esi
    1984:	89 93 5c 10 00 00    	mov    %edx,0x105c(%ebx)
    198a:	8b 84 93 2c 10 00 00 	mov    0x102c(%ebx,%edx,4),%eax
    1991:	89 04 24             	mov    %eax,(%esp)
    1994:	e8 97 33 00 00       	call   4d30 <str_length>
    1999:	29 c6                	sub    %eax,%esi
    199b:	8b 83 5c 10 00 00    	mov    0x105c(%ebx),%eax
    19a1:	8b 84 83 2c 10 00 00 	mov    0x102c(%ebx,%eax,4),%eax
    19a8:	c7 44 24 04 00 04 00 	movl   $0x400,0x4(%esp)
    19af:	00 
    19b0:	89 44 24 08          	mov    %eax,0x8(%esp)
    19b4:	89 3c 24             	mov    %edi,(%esp)
    19b7:	e8 f4 48 00 00       	call   62b0 <str_to_wstr>
    19bc:	89 3c 24             	mov    %edi,(%esp)
    19bf:	e8 4c 34 00 00       	call   4e10 <wstr_length>
    19c4:	89 f1                	mov    %esi,%ecx
    19c6:	83 f1 ff             	xor    $0xffffffff,%ecx
    19c9:	31 d2                	xor    %edx,%edx
    19cb:	c1 f9 1f             	sar    $0x1f,%ecx
    19ce:	89 83 20 10 00 00    	mov    %eax,0x1020(%ebx)
    19d4:	21 f1                	and    %esi,%ecx
    19d6:	89 83 24 10 00 00    	mov    %eax,0x1024(%ebx)
    19dc:	89 83 28 10 00 00    	mov    %eax,0x1028(%ebx)
    19e2:	89 d8                	mov    %ebx,%eax
    19e4:	e8 97 fb ff ff       	call   1580 <tinput_display_tail>
    19e9:	8b b3 14 10 00 00    	mov    0x1014(%ebx),%esi
    19ef:	8b 83 20 10 00 00    	mov    0x1020(%ebx),%eax
    19f5:	31 d2                	xor    %edx,%edx
    19f7:	01 f0                	add    %esi,%eax
    19f9:	8b 8b 18 10 00 00    	mov    0x1018(%ebx),%ecx
    19ff:	f7 f1                	div    %ecx
    1a01:	8b 93 1c 10 00 00    	mov    0x101c(%ebx),%edx
    1a07:	39 d0                	cmp    %edx,%eax
    1a09:	72 1c                	jb     1a27 <tinput_history_seek.part.5+0x107>
    1a0b:	29 d0                	sub    %edx,%eax
    1a0d:	8b 93 10 10 00 00    	mov    0x1010(%ebx),%edx
    1a13:	40                   	inc    %eax
    1a14:	0f af c1             	imul   %ecx,%eax
    1a17:	29 c6                	sub    %eax,%esi
    1a19:	29 c2                	sub    %eax,%edx
    1a1b:	89 b3 14 10 00 00    	mov    %esi,0x1014(%ebx)
    1a21:	89 93 10 10 00 00    	mov    %edx,0x1010(%ebx)
    1a27:	8b 83 24 10 00 00    	mov    0x1024(%ebx),%eax
    1a2d:	31 d2                	xor    %edx,%edx
    1a2f:	01 f0                	add    %esi,%eax
    1a31:	f7 f1                	div    %ecx
    1a33:	89 44 24 08          	mov    %eax,0x8(%esp)
    1a37:	8b 03                	mov    (%ebx),%eax
    1a39:	89 54 24 04          	mov    %edx,0x4(%esp)
    1a3d:	89 04 24             	mov    %eax,(%esp)
    1a40:	e8 eb d4 00 00       	call   ef30 <console_set_pos>
    1a45:	83 c4 2c             	add    $0x2c,%esp
    1a48:	5b                   	pop    %ebx
    1a49:	5e                   	pop    %esi
    1a4a:	5f                   	pop    %edi
    1a4b:	5d                   	pop    %ebp
    1a4c:	c3                   	ret    
    1a4d:	8d 76 00             	lea    0x0(%esi),%esi

00001a50 <tinput_display>:
    1a50:	55                   	push   %ebp
    1a51:	89 e5                	mov    %esp,%ebp
    1a53:	56                   	push   %esi
    1a54:	53                   	push   %ebx
    1a55:	89 c3                	mov    %eax,%ebx
    1a57:	83 ec 20             	sub    $0x20,%esp
    1a5a:	8d 45 f4             	lea    -0xc(%ebp),%eax
    1a5d:	89 44 24 08          	mov    %eax,0x8(%esp)
    1a61:	8d 45 f0             	lea    -0x10(%ebp),%eax
    1a64:	89 44 24 04          	mov    %eax,0x4(%esp)
    1a68:	8b 03                	mov    (%ebx),%eax
    1a6a:	89 04 24             	mov    %eax,(%esp)
    1a6d:	e8 2e d4 00 00       	call   eea0 <console_get_pos>
    1a72:	85 c0                	test   %eax,%eax
    1a74:	0f 85 ce 00 00 00    	jne    1b48 <tinput_display+0xf8>
    1a7a:	8b 83 18 10 00 00    	mov    0x1018(%ebx),%eax
    1a80:	8b 75 f4             	mov    -0xc(%ebp),%esi
    1a83:	0f af f0             	imul   %eax,%esi
    1a86:	8b 45 f0             	mov    -0x10(%ebp),%eax
    1a89:	01 c6                	add    %eax,%esi
    1a8b:	8b 43 04             	mov    0x4(%ebx),%eax
    1a8e:	89 b3 10 10 00 00    	mov    %esi,0x1010(%ebx)
    1a94:	89 04 24             	mov    %eax,(%esp)
    1a97:	e8 94 32 00 00       	call   4d30 <str_length>
    1a9c:	31 d2                	xor    %edx,%edx
    1a9e:	01 c6                	add    %eax,%esi
    1aa0:	8b 83 10 10 00 00    	mov    0x1010(%ebx),%eax
    1aa6:	f7 b3 18 10 00 00    	divl   0x1018(%ebx)
    1aac:	89 44 24 08          	mov    %eax,0x8(%esp)
    1ab0:	8b 03                	mov    (%ebx),%eax
    1ab2:	89 54 24 04          	mov    %edx,0x4(%esp)
    1ab6:	89 04 24             	mov    %eax,(%esp)
    1ab9:	89 b3 14 10 00 00    	mov    %esi,0x1014(%ebx)
    1abf:	e8 6c d4 00 00       	call   ef30 <console_set_pos>
    1ac4:	8b 03                	mov    (%ebx),%eax
    1ac6:	89 04 24             	mov    %eax,(%esp)
    1ac9:	c7 44 24 04 01 00 00 	movl   $0x1,0x4(%esp)
    1ad0:	00 
    1ad1:	e8 fa d0 00 00       	call   ebd0 <console_set_style>
    1ad6:	8b 43 04             	mov    0x4(%ebx),%eax
    1ad9:	89 44 24 04          	mov    %eax,0x4(%esp)
    1add:	c7 04 24 72 0a 02 00 	movl   $0x20a72,(%esp)
    1ae4:	e8 c7 a2 00 00       	call   bdb0 <printf>
    1ae9:	8b 03                	mov    (%ebx),%eax
    1aeb:	89 04 24             	mov    %eax,(%esp)
    1aee:	e8 ad cf 00 00       	call   eaa0 <console_flush>
    1af3:	8b 03                	mov    (%ebx),%eax
    1af5:	89 04 24             	mov    %eax,(%esp)
    1af8:	c7 44 24 04 00 00 00 	movl   $0x0,0x4(%esp)
    1aff:	00 
    1b00:	e8 cb d0 00 00       	call   ebd0 <console_set_style>
    1b05:	31 c9                	xor    %ecx,%ecx
    1b07:	31 d2                	xor    %edx,%edx
    1b09:	89 d8                	mov    %ebx,%eax
    1b0b:	e8 70 fa ff ff       	call   1580 <tinput_display_tail>
    1b10:	8b 93 14 10 00 00    	mov    0x1014(%ebx),%edx
    1b16:	8b 83 24 10 00 00    	mov    0x1024(%ebx),%eax
    1b1c:	01 d0                	add    %edx,%eax
    1b1e:	31 d2                	xor    %edx,%edx
    1b20:	f7 b3 18 10 00 00    	divl   0x1018(%ebx)
    1b26:	89 44 24 08          	mov    %eax,0x8(%esp)
    1b2a:	8b 03                	mov    (%ebx),%eax
    1b2c:	89 04 24             	mov    %eax,(%esp)
    1b2f:	89 54 24 04          	mov    %edx,0x4(%esp)
    1b33:	e8 f8 d3 00 00       	call   ef30 <console_set_pos>
    1b38:	31 c0                	xor    %eax,%eax
    1b3a:	83 c4 20             	add    $0x20,%esp
    1b3d:	5b                   	pop    %ebx
    1b3e:	5e                   	pop    %esi
    1b3f:	5d                   	pop    %ebp
    1b40:	c3                   	ret    
    1b41:	8d b4 26 00 00 00 00 	lea    0x0(%esi,%eiz,1),%esi
    1b48:	b8 f7 fe ff ff       	mov    $0xfffffef7,%eax
    1b4d:	eb eb                	jmp    1b3a <tinput_display+0xea>
    1b4f:	90                   	nop

00001b50 <tinput_seek_word.constprop.9>:
    1b50:	55                   	push   %ebp
    1b51:	89 e5                	mov    %esp,%ebp
    1b53:	56                   	push   %esi
    1b54:	53                   	push   %ebx
    1b55:	89 d6                	mov    %edx,%esi
    1b57:	83 ec 10             	sub    $0x10,%esp
    1b5a:	89 c3                	mov    %eax,%ebx
    1b5c:	8b 88 24 10 00 00    	mov    0x1024(%eax),%ecx
    1b62:	3b 88 28 10 00 00    	cmp    0x1028(%eax),%ecx
    1b68:	74 04                	je     1b6e <tinput_seek_word.constprop.9+0x1e>
    1b6a:	84 d2                	test   %dl,%dl
    1b6c:	74 5a                	je     1bc8 <tinput_seek_word.constprop.9+0x78>
    1b6e:	8b 83 20 10 00 00    	mov    0x1020(%ebx),%eax
    1b74:	39 c8                	cmp    %ecx,%eax
    1b76:	74 47                	je     1bbf <tinput_seek_word.constprop.9+0x6f>
    1b78:	41                   	inc    %ecx
    1b79:	39 c8                	cmp    %ecx,%eax
    1b7b:	74 0e                	je     1b8b <tinput_seek_word.constprop.9+0x3b>
    1b7d:	83 7c 8b 08 20       	cmpl   $0x20,0x8(%ebx,%ecx,4)
    1b82:	75 f4                	jne    1b78 <tinput_seek_word.constprop.9+0x28>
    1b84:	83 7c 8b 0c 20       	cmpl   $0x20,0xc(%ebx,%ecx,4)
    1b89:	74 ed                	je     1b78 <tinput_seek_word.constprop.9+0x28>
    1b8b:	89 f0                	mov    %esi,%eax
    1b8d:	89 8b 24 10 00 00    	mov    %ecx,0x1024(%ebx)
    1b93:	84 c0                	test   %al,%al
    1b95:	75 79                	jne    1c10 <tinput_seek_word.constprop.9+0xc0>
    1b97:	89 8b 28 10 00 00    	mov    %ecx,0x1028(%ebx)
    1b9d:	8b 83 14 10 00 00    	mov    0x1014(%ebx),%eax
    1ba3:	31 d2                	xor    %edx,%edx
    1ba5:	01 c8                	add    %ecx,%eax
    1ba7:	f7 b3 18 10 00 00    	divl   0x1018(%ebx)
    1bad:	89 44 24 08          	mov    %eax,0x8(%esp)
    1bb1:	8b 03                	mov    (%ebx),%eax
    1bb3:	89 54 24 04          	mov    %edx,0x4(%esp)
    1bb7:	89 04 24             	mov    %eax,(%esp)
    1bba:	e8 71 d3 00 00       	call   ef30 <console_set_pos>
    1bbf:	83 c4 10             	add    $0x10,%esp
    1bc2:	5b                   	pop    %ebx
    1bc3:	5e                   	pop    %esi
    1bc4:	5d                   	pop    %ebp
    1bc5:	c3                   	ret    
    1bc6:	66 90                	xchg   %ax,%ax
    1bc8:	89 8b 28 10 00 00    	mov    %ecx,0x1028(%ebx)
    1bce:	31 d2                	xor    %edx,%edx
    1bd0:	31 c9                	xor    %ecx,%ecx
    1bd2:	89 d8                	mov    %ebx,%eax
    1bd4:	e8 a7 f9 ff ff       	call   1580 <tinput_display_tail>
    1bd9:	8b 8b 14 10 00 00    	mov    0x1014(%ebx),%ecx
    1bdf:	8b 83 24 10 00 00    	mov    0x1024(%ebx),%eax
    1be5:	31 d2                	xor    %edx,%edx
    1be7:	01 c8                	add    %ecx,%eax
    1be9:	f7 b3 18 10 00 00    	divl   0x1018(%ebx)
    1bef:	89 44 24 08          	mov    %eax,0x8(%esp)
    1bf3:	8b 03                	mov    (%ebx),%eax
    1bf5:	89 54 24 04          	mov    %edx,0x4(%esp)
    1bf9:	89 04 24             	mov    %eax,(%esp)
    1bfc:	e8 2f d3 00 00       	call   ef30 <console_set_pos>
    1c01:	8b 8b 24 10 00 00    	mov    0x1024(%ebx),%ecx
    1c07:	e9 62 ff ff ff       	jmp    1b6e <tinput_seek_word.constprop.9+0x1e>
    1c0c:	8d 74 26 00          	lea    0x0(%esi,%eiz,1),%esi
    1c10:	31 c9                	xor    %ecx,%ecx
    1c12:	31 d2                	xor    %edx,%edx
    1c14:	89 d8                	mov    %ebx,%eax
    1c16:	e8 65 f9 ff ff       	call   1580 <tinput_display_tail>
    1c1b:	8b 8b 24 10 00 00    	mov    0x1024(%ebx),%ecx
    1c21:	e9 77 ff ff ff       	jmp    1b9d <tinput_seek_word.constprop.9+0x4d>
    1c26:	8d 76 00             	lea    0x0(%esi),%esi
    1c29:	8d bc 27 00 00 00 00 	lea    0x0(%edi,%eiz,1),%edi

00001c30 <tinput_new>:
    1c30:	55                   	push   %ebp
    1c31:	89 e5                	mov    %esp,%ebp
    1c33:	53                   	push   %ebx
    1c34:	83 ec 14             	sub    $0x14,%esp
    1c37:	c7 44 24 04 64 10 00 	movl   $0x1064,0x4(%esp)
    1c3e:	00 
    1c3f:	c7 04 24 01 00 00 00 	movl   $0x1,(%esp)
    1c46:	e8 b5 f7 00 00       	call   11400 <calloc>
    1c4b:	89 c3                	mov    %eax,%ebx
    1c4d:	85 c0                	test   %eax,%eax
    1c4f:	74 36                	je     1c87 <tinput_new+0x57>
    1c51:	a1 b8 3a 02 00       	mov    0x23ab8,%eax
    1c56:	89 44 24 04          	mov    %eax,0x4(%esp)
    1c5a:	a1 bc 3a 02 00       	mov    0x23abc,%eax
    1c5f:	89 04 24             	mov    %eax,(%esp)
    1c62:	e8 59 cd 00 00       	call   e9c0 <console_init>
    1c67:	c7 83 58 10 00 00 00 	movl   $0x0,0x1058(%ebx)
    1c6e:	00 00 00 
    1c71:	89 03                	mov    %eax,(%ebx)
    1c73:	c7 83 5c 10 00 00 00 	movl   $0x0,0x105c(%ebx)
    1c7a:	00 00 00 
    1c7d:	c7 83 2c 10 00 00 00 	movl   $0x0,0x102c(%ebx)
    1c84:	00 00 00 
    1c87:	83 c4 14             	add    $0x14,%esp
    1c8a:	89 d8                	mov    %ebx,%eax
    1c8c:	5b                   	pop    %ebx
    1c8d:	5d                   	pop    %ebp
    1c8e:	c3                   	ret    
    1c8f:	90                   	nop

00001c90 <tinput_destroy>:
    1c90:	55                   	push   %ebp
    1c91:	89 e5                	mov    %esp,%ebp
    1c93:	53                   	push   %ebx
    1c94:	83 ec 14             	sub    $0x14,%esp
    1c97:	8b 5d 08             	mov    0x8(%ebp),%ebx
    1c9a:	8b 43 04             	mov    0x4(%ebx),%eax
    1c9d:	85 c0                	test   %eax,%eax
    1c9f:	74 08                	je     1ca9 <tinput_destroy+0x19>
    1ca1:	89 04 24             	mov    %eax,(%esp)
    1ca4:	e8 c7 f8 00 00       	call   11570 <free>
    1ca9:	89 5d 08             	mov    %ebx,0x8(%ebp)
    1cac:	83 c4 14             	add    $0x14,%esp
    1caf:	5b                   	pop    %ebx
    1cb0:	5d                   	pop    %ebp
    1cb1:	e9 ba f8 00 00       	jmp    11570 <free>
    1cb6:	8d 76 00             	lea    0x0(%esi),%esi
    1cb9:	8d bc 27 00 00 00 00 	lea    0x0(%edi,%eiz,1),%edi

00001cc0 <tinput_set_prompt>:
    1cc0:	55                   	push   %ebp
    1cc1:	89 e5                	mov    %esp,%ebp
    1cc3:	53                   	push   %ebx
    1cc4:	83 ec 14             	sub    $0x14,%esp
    1cc7:	8b 5d 08             	mov    0x8(%ebp),%ebx
    1cca:	8b 43 04             	mov    0x4(%ebx),%eax
    1ccd:	85 c0                	test   %eax,%eax
    1ccf:	74 08                	je     1cd9 <tinput_set_prompt+0x19>
    1cd1:	89 04 24             	mov    %eax,(%esp)
    1cd4:	e8 97 f8 00 00       	call   11570 <free>
    1cd9:	8b 45 0c             	mov    0xc(%ebp),%eax
    1cdc:	89 04 24             	mov    %eax,(%esp)
    1cdf:	e8 0c 4e 00 00       	call   6af0 <str_dup>
    1ce4:	83 f8 01             	cmp    $0x1,%eax
    1ce7:	89 43 04             	mov    %eax,0x4(%ebx)
    1cea:	19 c0                	sbb    %eax,%eax
    1cec:	83 c4 14             	add    $0x14,%esp
    1cef:	83 e0 fe             	and    $0xfffffffe,%eax
    1cf2:	5b                   	pop    %ebx
    1cf3:	5d                   	pop    %ebp
    1cf4:	c3                   	ret    
    1cf5:	8d 74 26 00          	lea    0x0(%esi,%eiz,1),%esi
    1cf9:	8d bc 27 00 00 00 00 	lea    0x0(%edi,%eiz,1),%edi

00001d00 <tinput_set_compl_ops>:
    1d00:	55                   	push   %ebp
    1d01:	89 e5                	mov    %esp,%ebp
    1d03:	8b 45 08             	mov    0x8(%ebp),%eax
    1d06:	8b 55 0c             	mov    0xc(%ebp),%edx
    1d09:	89 50 08             	mov    %edx,0x8(%eax)
    1d0c:	5d                   	pop    %ebp
    1d0d:	c3                   	ret    
    1d0e:	66 90                	xchg   %ax,%ax

00001d10 <tinput_read>:
    1d10:	55                   	push   %ebp
    1d11:	89 e5                	mov    %esp,%ebp
    1d13:	57                   	push   %edi
    1d14:	56                   	push   %esi
    1d15:	53                   	push   %ebx
    1d16:	81 ec 9c 00 00 00    	sub    $0x9c,%esp
    1d1c:	8b 7d 08             	mov    0x8(%ebp),%edi
    1d1f:	8b 07                	mov    (%edi),%eax
    1d21:	89 04 24             	mov    %eax,(%esp)
    1d24:	e8 77 cd 00 00       	call   eaa0 <console_flush>
    1d29:	8d 87 1c 10 00 00    	lea    0x101c(%edi),%eax
    1d2f:	89 44 24 08          	mov    %eax,0x8(%esp)
    1d33:	8d 87 18 10 00 00    	lea    0x1018(%edi),%eax
    1d39:	89 44 24 04          	mov    %eax,0x4(%esp)
    1d3d:	89 45 a0             	mov    %eax,-0x60(%ebp)
    1d40:	8b 07                	mov    (%edi),%eax
    1d42:	89 04 24             	mov    %eax,(%esp)
    1d45:	e8 f6 cd 00 00       	call   eb40 <console_get_size>
    1d4a:	85 c0                	test   %eax,%eax
    1d4c:	0f 85 24 03 00 00    	jne    2076 <tinput_read+0x366>
    1d52:	c7 87 24 10 00 00 00 	movl   $0x0,0x1024(%edi)
    1d59:	00 00 00 
    1d5c:	c7 87 28 10 00 00 00 	movl   $0x0,0x1028(%edi)
    1d63:	00 00 00 
    1d66:	c7 87 20 10 00 00 00 	movl   $0x0,0x1020(%edi)
    1d6d:	00 00 00 
    1d70:	c7 47 0c 00 00 00 00 	movl   $0x0,0xc(%edi)
    1d77:	c6 87 60 10 00 00 00 	movb   $0x0,0x1060(%edi)
    1d7e:	c6 87 61 10 00 00 00 	movb   $0x0,0x1061(%edi)
    1d85:	89 f8                	mov    %edi,%eax
    1d87:	e8 c4 fc ff ff       	call   1a50 <tinput_display>
    1d8c:	85 c0                	test   %eax,%eax
    1d8e:	0f 85 e2 02 00 00    	jne    2076 <tinput_read+0x366>
    1d94:	8d 74 26 00          	lea    0x0(%esi,%eiz,1),%esi
    1d98:	80 bf 60 10 00 00 00 	cmpb   $0x0,0x1060(%edi)
    1d9f:	0f 85 05 02 00 00    	jne    1faa <tinput_read+0x29a>
    1da5:	8b 07                	mov    (%edi),%eax
    1da7:	89 04 24             	mov    %eax,(%esp)
    1daa:	e8 f1 cc 00 00       	call   eaa0 <console_flush>
    1daf:	8d 55 d0             	lea    -0x30(%ebp),%edx
    1db2:	89 54 24 04          	mov    %edx,0x4(%esp)
    1db6:	8b 07                	mov    (%edi),%eax
    1db8:	89 04 24             	mov    %eax,(%esp)
    1dbb:	e8 f0 d1 00 00       	call   efb0 <console_get_kbd_event>
    1dc0:	84 c0                	test   %al,%al
    1dc2:	0f 84 ae 02 00 00    	je     2076 <tinput_read+0x366>
    1dc8:	8b 5d d8             	mov    -0x28(%ebp),%ebx
    1dcb:	85 db                	test   %ebx,%ebx
    1dcd:	75 c9                	jne    1d98 <tinput_read+0x88>
    1dcf:	8b 55 e0             	mov    -0x20(%ebp),%edx
    1dd2:	89 d0                	mov    %edx,%eax
    1dd4:	f6 c2 0c             	test   $0xc,%dl
    1dd7:	74 09                	je     1de2 <tinput_read+0xd2>
    1dd9:	f6 c2 33             	test   $0x33,%dl
    1ddc:	0f 84 82 02 00 00    	je     2064 <tinput_read+0x354>
    1de2:	a8 03                	test   $0x3,%al
    1de4:	74 08                	je     1dee <tinput_read+0xde>
    1de6:	a8 3c                	test   $0x3c,%al
    1de8:	0f 84 60 02 00 00    	je     204e <tinput_read+0x33e>
    1dee:	a8 0c                	test   $0xc,%al
    1df0:	74 0e                	je     1e00 <tinput_read+0xf0>
    1df2:	a8 03                	test   $0x3,%al
    1df4:	74 0a                	je     1e00 <tinput_read+0xf0>
    1df6:	a8 30                	test   $0x30,%al
    1df8:	0f 84 8f 02 00 00    	je     208d <tinput_read+0x37d>
    1dfe:	66 90                	xchg   %ax,%ax
    1e00:	a8 3f                	test   $0x3f,%al
    1e02:	0f 84 30 02 00 00    	je     2038 <tinput_read+0x328>
    1e08:	8b 5d e4             	mov    -0x1c(%ebp),%ebx
    1e0b:	83 fb 1f             	cmp    $0x1f,%ebx
    1e0e:	7e 88                	jle    1d98 <tinput_read+0x88>
    1e10:	8b 97 28 10 00 00    	mov    0x1028(%edi),%edx
    1e16:	8b b7 24 10 00 00    	mov    0x1024(%edi),%esi
    1e1c:	39 f2                	cmp    %esi,%edx
    1e1e:	73 06                	jae    1e26 <tinput_read+0x116>
    1e20:	89 f0                	mov    %esi,%eax
    1e22:	89 d6                	mov    %edx,%esi
    1e24:	89 c2                	mov    %eax,%edx
    1e26:	39 f2                	cmp    %esi,%edx
    1e28:	0f 84 85 00 00 00    	je     1eb3 <tinput_read+0x1a3>
    1e2e:	8b 87 20 10 00 00    	mov    0x1020(%edi),%eax
    1e34:	89 55 80             	mov    %edx,-0x80(%ebp)
    1e37:	29 d0                	sub    %edx,%eax
    1e39:	c1 e0 02             	shl    $0x2,%eax
    1e3c:	89 44 24 08          	mov    %eax,0x8(%esp)
    1e40:	8d 44 97 0c          	lea    0xc(%edi,%edx,4),%eax
    1e44:	89 44 24 04          	mov    %eax,0x4(%esp)
    1e48:	8d 44 b7 0c          	lea    0xc(%edi,%esi,4),%eax
    1e4c:	89 04 24             	mov    %eax,(%esp)
    1e4f:	e8 dc 20 00 00       	call   3f30 <memmove>
    1e54:	8b 87 20 10 00 00    	mov    0x1020(%edi),%eax
    1e5a:	8b 55 80             	mov    -0x80(%ebp),%edx
    1e5d:	01 f0                	add    %esi,%eax
    1e5f:	29 d0                	sub    %edx,%eax
    1e61:	89 d1                	mov    %edx,%ecx
    1e63:	89 87 20 10 00 00    	mov    %eax,0x1020(%edi)
    1e69:	29 f1                	sub    %esi,%ecx
    1e6b:	c7 44 87 0c 00 00 00 	movl   $0x0,0xc(%edi,%eax,4)
    1e72:	00 
    1e73:	89 f2                	mov    %esi,%edx
    1e75:	89 f8                	mov    %edi,%eax
    1e77:	89 b7 28 10 00 00    	mov    %esi,0x1028(%edi)
    1e7d:	89 b7 24 10 00 00    	mov    %esi,0x1024(%edi)
    1e83:	e8 f8 f6 ff ff       	call   1580 <tinput_display_tail>
    1e88:	8b 87 24 10 00 00    	mov    0x1024(%edi),%eax
    1e8e:	8b 8f 14 10 00 00    	mov    0x1014(%edi),%ecx
    1e94:	31 d2                	xor    %edx,%edx
    1e96:	01 c8                	add    %ecx,%eax
    1e98:	f7 b7 18 10 00 00    	divl   0x1018(%edi)
    1e9e:	89 44 24 08          	mov    %eax,0x8(%esp)
    1ea2:	89 54 24 04          	mov    %edx,0x4(%esp)
    1ea6:	8b 07                	mov    (%edi),%eax
    1ea8:	89 04 24             	mov    %eax,(%esp)
    1eab:	e8 80 d0 00 00       	call   ef30 <console_set_pos>
    1eb0:	8b 5d e4             	mov    -0x1c(%ebp),%ebx
    1eb3:	8b b7 20 10 00 00    	mov    0x1020(%edi),%esi
    1eb9:	81 fe 00 04 00 00    	cmp    $0x400,%esi
    1ebf:	0f 84 d3 fe ff ff    	je     1d98 <tinput_read+0x88>
    1ec5:	31 d2                	xor    %edx,%edx
    1ec7:	8b 87 14 10 00 00    	mov    0x1014(%edi),%eax
    1ecd:	f7 b7 18 10 00 00    	divl   0x1018(%edi)
    1ed3:	8d 4e 01             	lea    0x1(%esi),%ecx
    1ed6:	8d 04 11             	lea    (%ecx,%edx,1),%eax
    1ed9:	31 d2                	xor    %edx,%edx
    1edb:	f7 b7 18 10 00 00    	divl   0x1018(%edi)
    1ee1:	85 d2                	test   %edx,%edx
    1ee3:	75 0d                	jne    1ef2 <tinput_read+0x1e2>
    1ee5:	40                   	inc    %eax
    1ee6:	3b 87 1c 10 00 00    	cmp    0x101c(%edi),%eax
    1eec:	0f 83 a6 fe ff ff    	jae    1d98 <tinput_read+0x88>
    1ef2:	8b 97 24 10 00 00    	mov    0x1024(%edi),%edx
    1ef8:	39 f2                	cmp    %esi,%edx
    1efa:	73 1b                	jae    1f17 <tinput_read+0x207>
    1efc:	8d 44 b7 08          	lea    0x8(%edi,%esi,4),%eax
    1f00:	89 55 b4             	mov    %edx,-0x4c(%ebp)
    1f03:	8d 74 97 08          	lea    0x8(%edi,%edx,4),%esi
    1f07:	90                   	nop
    1f08:	8b 10                	mov    (%eax),%edx
    1f0a:	89 50 04             	mov    %edx,0x4(%eax)
    1f0d:	83 e8 04             	sub    $0x4,%eax
    1f10:	39 f0                	cmp    %esi,%eax
    1f12:	75 f4                	jne    1f08 <tinput_read+0x1f8>
    1f14:	8b 55 b4             	mov    -0x4c(%ebp),%edx
    1f17:	8d 42 01             	lea    0x1(%edx),%eax
    1f1a:	89 5c 97 0c          	mov    %ebx,0xc(%edi,%edx,4)
    1f1e:	89 87 24 10 00 00    	mov    %eax,0x1024(%edi)
    1f24:	89 8f 20 10 00 00    	mov    %ecx,0x1020(%edi)
    1f2a:	c7 44 8f 0c 00 00 00 	movl   $0x0,0xc(%edi,%ecx,4)
    1f31:	00 
    1f32:	89 87 28 10 00 00    	mov    %eax,0x1028(%edi)
    1f38:	31 c9                	xor    %ecx,%ecx
    1f3a:	89 f8                	mov    %edi,%eax
    1f3c:	e8 3f f6 ff ff       	call   1580 <tinput_display_tail>
    1f41:	8b 9f 14 10 00 00    	mov    0x1014(%edi),%ebx
    1f47:	8b 87 20 10 00 00    	mov    0x1020(%edi),%eax
    1f4d:	31 d2                	xor    %edx,%edx
    1f4f:	01 d8                	add    %ebx,%eax
    1f51:	8b 8f 18 10 00 00    	mov    0x1018(%edi),%ecx
    1f57:	f7 f1                	div    %ecx
    1f59:	8b 97 1c 10 00 00    	mov    0x101c(%edi),%edx
    1f5f:	39 d0                	cmp    %edx,%eax
    1f61:	72 1c                	jb     1f7f <tinput_read+0x26f>
    1f63:	29 d0                	sub    %edx,%eax
    1f65:	8b 97 10 10 00 00    	mov    0x1010(%edi),%edx
    1f6b:	40                   	inc    %eax
    1f6c:	0f af c1             	imul   %ecx,%eax
    1f6f:	29 c3                	sub    %eax,%ebx
    1f71:	29 c2                	sub    %eax,%edx
    1f73:	89 9f 14 10 00 00    	mov    %ebx,0x1014(%edi)
    1f79:	89 97 10 10 00 00    	mov    %edx,0x1010(%edi)
    1f7f:	8b 87 24 10 00 00    	mov    0x1024(%edi),%eax
    1f85:	31 d2                	xor    %edx,%edx
    1f87:	01 d8                	add    %ebx,%eax
    1f89:	f7 f1                	div    %ecx
    1f8b:	89 44 24 08          	mov    %eax,0x8(%esp)
    1f8f:	89 54 24 04          	mov    %edx,0x4(%esp)
    1f93:	8b 07                	mov    (%edi),%eax
    1f95:	89 04 24             	mov    %eax,(%esp)
    1f98:	e8 93 cf 00 00       	call   ef30 <console_set_pos>
    1f9d:	80 bf 60 10 00 00 00 	cmpb   $0x0,0x1060(%edi)
    1fa4:	0f 84 fb fd ff ff    	je     1da5 <tinput_read+0x95>
    1faa:	80 bf 61 10 00 00 00 	cmpb   $0x0,0x1061(%edi)
    1fb1:	0f 85 26 0c 00 00    	jne    2bdd <tinput_read+0xecd>
    1fb7:	8b 87 20 10 00 00    	mov    0x1020(%edi),%eax
    1fbd:	8b b7 14 10 00 00    	mov    0x1014(%edi),%esi
    1fc3:	89 87 24 10 00 00    	mov    %eax,0x1024(%edi)
    1fc9:	31 d2                	xor    %edx,%edx
    1fcb:	01 f0                	add    %esi,%eax
    1fcd:	f7 b7 18 10 00 00    	divl   0x1018(%edi)
    1fd3:	89 54 24 04          	mov    %edx,0x4(%esp)
    1fd7:	89 44 24 08          	mov    %eax,0x8(%esp)
    1fdb:	8b 07                	mov    (%edi),%eax
    1fdd:	89 04 24             	mov    %eax,(%esp)
    1fe0:	e8 4b cf 00 00       	call   ef30 <console_set_pos>
    1fe5:	c7 04 24 0a 00 00 00 	movl   $0xa,(%esp)
    1fec:	e8 ff 9a 00 00       	call   baf0 <putchar>
    1ff1:	8d 47 0c             	lea    0xc(%edi),%eax
    1ff4:	89 04 24             	mov    %eax,(%esp)
    1ff7:	e8 94 40 00 00       	call   6090 <wstr_to_astr>
    1ffc:	c7 44 24 04 1f 1d 02 	movl   $0x21d1f,0x4(%esp)
    2003:	00 
    2004:	89 04 24             	mov    %eax,(%esp)
    2007:	89 c3                	mov    %eax,%ebx
    2009:	e8 72 30 00 00       	call   5080 <str_cmp>
    200e:	85 c0                	test   %eax,%eax
    2010:	0f 85 31 0a 00 00    	jne    2a47 <tinput_read+0xd37>
    2016:	8b 45 0c             	mov    0xc(%ebp),%eax
    2019:	c7 87 5c 10 00 00 00 	movl   $0x0,0x105c(%edi)
    2020:	00 00 00 
    2023:	89 18                	mov    %ebx,(%eax)
    2025:	81 c4 9c 00 00 00    	add    $0x9c,%esp
    202b:	31 c0                	xor    %eax,%eax
    202d:	5b                   	pop    %ebx
    202e:	5e                   	pop    %esi
    202f:	5f                   	pop    %edi
    2030:	5d                   	pop    %ebp
    2031:	c3                   	ret    
    2032:	8d b6 00 00 00 00    	lea    0x0(%esi),%esi
    2038:	8b 45 dc             	mov    -0x24(%ebp),%eax
    203b:	83 e8 0e             	sub    $0xe,%eax
    203e:	83 f8 4c             	cmp    $0x4c,%eax
    2041:	0f 87 c1 fd ff ff    	ja     1e08 <tinput_read+0xf8>
    2047:	ff 24 85 8c 0a 02 00 	jmp    *0x20a8c(,%eax,4)
    204e:	8b 55 dc             	mov    -0x24(%ebp),%edx
    2051:	83 ea 4c             	sub    $0x4c,%edx
    2054:	83 fa 08             	cmp    $0x8,%edx
    2057:	0f 87 91 fd ff ff    	ja     1dee <tinput_read+0xde>
    205d:	ff 24 95 c0 0b 02 00 	jmp    *0x20bc0(,%edx,4)
    2064:	8b 45 dc             	mov    -0x24(%ebp),%eax
    2067:	83 e8 10             	sub    $0x10,%eax
    206a:	83 f8 44             	cmp    $0x44,%eax
    206d:	76 17                	jbe    2086 <tinput_read+0x376>
    206f:	89 d0                	mov    %edx,%eax
    2071:	e9 6c fd ff ff       	jmp    1de2 <tinput_read+0xd2>
    2076:	b8 f7 fe ff ff       	mov    $0xfffffef7,%eax
    207b:	81 c4 9c 00 00 00    	add    $0x9c,%esp
    2081:	5b                   	pop    %ebx
    2082:	5e                   	pop    %esi
    2083:	5f                   	pop    %edi
    2084:	5d                   	pop    %ebp
    2085:	c3                   	ret    
    2086:	ff 24 85 e4 0b 02 00 	jmp    *0x20be4(,%eax,4)
    208d:	8b 55 dc             	mov    -0x24(%ebp),%edx
    2090:	83 fa 52             	cmp    $0x52,%edx
    2093:	0f 84 3b 0a 00 00    	je     2ad4 <tinput_read+0xdc4>
    2099:	76 26                	jbe    20c1 <tinput_read+0x3b1>
    209b:	83 fa 53             	cmp    $0x53,%edx
    209e:	0f 84 0b 0a 00 00    	je     2aaf <tinput_read+0xd9f>
    20a4:	83 fa 54             	cmp    $0x54,%edx
    20a7:	0f 85 53 fd ff ff    	jne    1e00 <tinput_read+0xf0>
    20ad:	89 f8                	mov    %edi,%eax
    20af:	ba 01 00 00 00       	mov    $0x1,%edx
    20b4:	e8 97 fa ff ff       	call   1b50 <tinput_seek_word.constprop.9>
    20b9:	8b 45 e0             	mov    -0x20(%ebp),%eax
    20bc:	e9 3f fd ff ff       	jmp    1e00 <tinput_read+0xf0>
    20c1:	83 fa 51             	cmp    $0x51,%edx
    20c4:	0f 85 36 fd ff ff    	jne    1e00 <tinput_read+0xf0>
    20ca:	8b 97 24 10 00 00    	mov    0x1024(%edi),%edx
    20d0:	8b 87 18 10 00 00    	mov    0x1018(%edi),%eax
    20d6:	39 c2                	cmp    %eax,%edx
    20d8:	72 08                	jb     20e2 <tinput_read+0x3d2>
    20da:	29 c2                	sub    %eax,%edx
    20dc:	89 97 24 10 00 00    	mov    %edx,0x1024(%edi)
    20e2:	31 c9                	xor    %ecx,%ecx
    20e4:	31 d2                	xor    %edx,%edx
    20e6:	89 f8                	mov    %edi,%eax
    20e8:	e8 93 f4 ff ff       	call   1580 <tinput_display_tail>
    20ed:	8b 97 14 10 00 00    	mov    0x1014(%edi),%edx
    20f3:	8b 87 24 10 00 00    	mov    0x1024(%edi),%eax
    20f9:	01 d0                	add    %edx,%eax
    20fb:	31 d2                	xor    %edx,%edx
    20fd:	f7 b7 18 10 00 00    	divl   0x1018(%edi)
    2103:	89 44 24 08          	mov    %eax,0x8(%esp)
    2107:	89 54 24 04          	mov    %edx,0x4(%esp)
    210b:	8b 07                	mov    (%edi),%eax
    210d:	89 04 24             	mov    %eax,(%esp)
    2110:	e8 1b ce 00 00       	call   ef30 <console_set_pos>
    2115:	8b 45 e0             	mov    -0x20(%ebp),%eax
    2118:	e9 e3 fc ff ff       	jmp    1e00 <tinput_read+0xf0>
    211d:	c6 87 60 10 00 00 01 	movb   $0x1,0x1060(%edi)
    2124:	e9 df fc ff ff       	jmp    1e08 <tinput_read+0xf8>
    2129:	8b 87 24 10 00 00    	mov    0x1024(%edi),%eax
    212f:	3b 87 28 10 00 00    	cmp    0x1028(%edi),%eax
    2135:	74 39                	je     2170 <tinput_read+0x460>
    2137:	89 87 28 10 00 00    	mov    %eax,0x1028(%edi)
    213d:	31 c9                	xor    %ecx,%ecx
    213f:	31 d2                	xor    %edx,%edx
    2141:	89 f8                	mov    %edi,%eax
    2143:	e8 38 f4 ff ff       	call   1580 <tinput_display_tail>
    2148:	8b 87 24 10 00 00    	mov    0x1024(%edi),%eax
    214e:	8b 8f 14 10 00 00    	mov    0x1014(%edi),%ecx
    2154:	31 d2                	xor    %edx,%edx
    2156:	01 c8                	add    %ecx,%eax
    2158:	f7 b7 18 10 00 00    	divl   0x1018(%edi)
    215e:	89 44 24 08          	mov    %eax,0x8(%esp)
    2162:	89 54 24 04          	mov    %edx,0x4(%esp)
    2166:	8b 07                	mov    (%edi),%eax
    2168:	89 04 24             	mov    %eax,(%esp)
    216b:	e8 c0 cd 00 00       	call   ef30 <console_set_pos>
    2170:	c7 87 24 10 00 00 00 	movl   $0x0,0x1024(%edi)
    2177:	00 00 00 
    217a:	c7 87 28 10 00 00 00 	movl   $0x0,0x1028(%edi)
    2181:	00 00 00 
    2184:	8b 87 14 10 00 00    	mov    0x1014(%edi),%eax
    218a:	31 d2                	xor    %edx,%edx
    218c:	f7 b7 18 10 00 00    	divl   0x1018(%edi)
    2192:	89 44 24 08          	mov    %eax,0x8(%esp)
    2196:	89 54 24 04          	mov    %edx,0x4(%esp)
    219a:	8b 07                	mov    (%edi),%eax
    219c:	89 04 24             	mov    %eax,(%esp)
    219f:	e8 8c cd 00 00       	call   ef30 <console_set_pos>
    21a4:	e9 5f fc ff ff       	jmp    1e08 <tinput_read+0xf8>
    21a9:	8b 9f 24 10 00 00    	mov    0x1024(%edi),%ebx
    21af:	8b b7 28 10 00 00    	mov    0x1028(%edi),%esi
    21b5:	39 f3                	cmp    %esi,%ebx
    21b7:	0f 85 60 09 00 00    	jne    2b1d <tinput_read+0xe0d>
    21bd:	85 db                	test   %ebx,%ebx
    21bf:	0f 84 43 fc ff ff    	je     1e08 <tinput_read+0xf8>
    21c5:	8b b7 20 10 00 00    	mov    0x1020(%edi),%esi
    21cb:	39 f3                	cmp    %esi,%ebx
    21cd:	73 15                	jae    21e4 <tinput_read+0x4d4>
    21cf:	8d 44 9f 0c          	lea    0xc(%edi,%ebx,4),%eax
    21d3:	8d 54 b7 0c          	lea    0xc(%edi,%esi,4),%edx
    21d7:	90                   	nop
    21d8:	8b 08                	mov    (%eax),%ecx
    21da:	89 48 fc             	mov    %ecx,-0x4(%eax)
    21dd:	83 c0 04             	add    $0x4,%eax
    21e0:	39 d0                	cmp    %edx,%eax
    21e2:	75 f4                	jne    21d8 <tinput_read+0x4c8>
    21e4:	8d 53 ff             	lea    -0x1(%ebx),%edx
    21e7:	4e                   	dec    %esi
    21e8:	89 f8                	mov    %edi,%eax
    21ea:	89 97 24 10 00 00    	mov    %edx,0x1024(%edi)
    21f0:	89 b7 20 10 00 00    	mov    %esi,0x1020(%edi)
    21f6:	c7 44 b7 0c 00 00 00 	movl   $0x0,0xc(%edi,%esi,4)
    21fd:	00 
    21fe:	89 97 28 10 00 00    	mov    %edx,0x1028(%edi)
    2204:	b9 01 00 00 00       	mov    $0x1,%ecx
    2209:	e8 72 f3 ff ff       	call   1580 <tinput_display_tail>
    220e:	8b 87 24 10 00 00    	mov    0x1024(%edi),%eax
    2214:	e9 c1 03 00 00       	jmp    25da <tinput_read+0x8ca>
    2219:	8b 47 08             	mov    0x8(%edi),%eax
    221c:	85 c0                	test   %eax,%eax
    221e:	0f 84 e4 fb ff ff    	je     1e08 <tinput_read+0xf8>
    2224:	8d 4d bc             	lea    -0x44(%ebp),%ecx
    2227:	8d 55 c0             	lea    -0x40(%ebp),%edx
    222a:	89 4c 24 0c          	mov    %ecx,0xc(%esp)
    222e:	89 54 24 08          	mov    %edx,0x8(%esp)
    2232:	8b 97 24 10 00 00    	mov    0x1024(%edi),%edx
    2238:	89 54 24 04          	mov    %edx,0x4(%esp)
    223c:	8d 57 0c             	lea    0xc(%edi),%edx
    223f:	89 14 24             	mov    %edx,(%esp)
    2242:	ff 10                	call   *(%eax)
    2244:	85 c0                	test   %eax,%eax
    2246:	0f 85 bc fb ff ff    	jne    1e08 <tinput_read+0xf8>
    224c:	c7 04 24 04 00 00 00 	movl   $0x4,(%esp)
    2253:	e8 08 f2 00 00       	call   11460 <malloc>
    2258:	89 c6                	mov    %eax,%esi
    225a:	85 c0                	test   %eax,%eax
    225c:	0f 84 e1 0c 00 00    	je     2f43 <tinput_read+0x1233>
    2262:	8d 5d c4             	lea    -0x3c(%ebp),%ebx
    2265:	c7 45 a8 00 00 00 00 	movl   $0x0,-0x58(%ebp)
    226c:	c7 45 b4 01 00 00 00 	movl   $0x1,-0x4c(%ebp)
    2273:	89 5d b0             	mov    %ebx,-0x50(%ebp)
    2276:	89 da                	mov    %ebx,%edx
    2278:	eb 53                	jmp    22cd <tinput_read+0x5bd>
    227a:	8d b6 00 00 00 00    	lea    0x0(%esi),%esi
    2280:	8b 4d b4             	mov    -0x4c(%ebp),%ecx
    2283:	39 4d a8             	cmp    %ecx,-0x58(%ebp)
    2286:	72 20                	jb     22a8 <tinput_read+0x598>
    2288:	01 c9                	add    %ecx,%ecx
    228a:	89 34 24             	mov    %esi,(%esp)
    228d:	89 c8                	mov    %ecx,%eax
    228f:	89 4d b4             	mov    %ecx,-0x4c(%ebp)
    2292:	c1 e0 02             	shl    $0x2,%eax
    2295:	89 44 24 04          	mov    %eax,0x4(%esp)
    2299:	e8 22 f5 00 00       	call   117c0 <realloc>
    229e:	89 c6                	mov    %eax,%esi
    22a0:	85 c0                	test   %eax,%eax
    22a2:	0f 84 37 0a 00 00    	je     2cdf <tinput_read+0xfcf>
    22a8:	8b 45 a8             	mov    -0x58(%ebp),%eax
    22ab:	8d 1c 86             	lea    (%esi,%eax,4),%ebx
    22ae:	8b 45 c4             	mov    -0x3c(%ebp),%eax
    22b1:	89 04 24             	mov    %eax,(%esp)
    22b4:	e8 37 48 00 00       	call   6af0 <str_dup>
    22b9:	89 03                	mov    %eax,(%ebx)
    22bb:	85 c0                	test   %eax,%eax
    22bd:	0f 84 1c 0a 00 00    	je     2cdf <tinput_read+0xfcf>
    22c3:	8b 45 a8             	mov    -0x58(%ebp),%eax
    22c6:	8b 55 b0             	mov    -0x50(%ebp),%edx
    22c9:	40                   	inc    %eax
    22ca:	89 45 a8             	mov    %eax,-0x58(%ebp)
    22cd:	8b 47 08             	mov    0x8(%edi),%eax
    22d0:	89 54 24 04          	mov    %edx,0x4(%esp)
    22d4:	8b 55 bc             	mov    -0x44(%ebp),%edx
    22d7:	89 14 24             	mov    %edx,(%esp)
    22da:	ff 50 04             	call   *0x4(%eax)
    22dd:	85 c0                	test   %eax,%eax
    22df:	74 9f                	je     2280 <tinput_read+0x570>
    22e1:	8b 47 08             	mov    0x8(%edi),%eax
    22e4:	8b 55 bc             	mov    -0x44(%ebp),%edx
    22e7:	89 14 24             	mov    %edx,(%esp)
    22ea:	ff 50 08             	call   *0x8(%eax)
    22ed:	83 7d a8 01          	cmpl   $0x1,-0x58(%ebp)
    22f1:	0f 86 3a 0c 00 00    	jbe    2f31 <tinput_read+0x1221>
    22f7:	8b 06                	mov    (%esi),%eax
    22f9:	89 04 24             	mov    %eax,(%esp)
    22fc:	e8 2f 2a 00 00       	call   4d30 <str_length>
    2301:	c7 45 ac 01 00 00 00 	movl   $0x1,-0x54(%ebp)
    2308:	89 45 b0             	mov    %eax,-0x50(%ebp)
    230b:	89 75 a4             	mov    %esi,-0x5c(%ebp)
    230e:	89 7d 9c             	mov    %edi,-0x64(%ebp)
    2311:	8b 45 a4             	mov    -0x5c(%ebp),%eax
    2314:	8b 55 ac             	mov    -0x54(%ebp),%edx
    2317:	c7 45 b4 00 00 00 00 	movl   $0x0,-0x4c(%ebp)
    231e:	8b 3c 90             	mov    (%eax,%edx,4),%edi
    2321:	8b 30                	mov    (%eax),%esi
    2323:	c7 45 c8 00 00 00 00 	movl   $0x0,-0x38(%ebp)
    232a:	c7 45 cc 00 00 00 00 	movl   $0x0,-0x34(%ebp)
    2331:	eb 14                	jmp    2347 <tinput_read+0x637>
    2333:	90                   	nop
    2334:	8d 74 26 00          	lea    0x0(%esi,%eiz,1),%esi
    2338:	85 db                	test   %ebx,%ebx
    233a:	74 3f                	je     237b <tinput_read+0x66b>
    233c:	39 c3                	cmp    %eax,%ebx
    233e:	75 3b                	jne    237b <tinput_read+0x66b>
    2340:	8b 45 b4             	mov    -0x4c(%ebp),%eax
    2343:	40                   	inc    %eax
    2344:	89 45 b4             	mov    %eax,-0x4c(%ebp)
    2347:	8d 55 c8             	lea    -0x38(%ebp),%edx
    234a:	c7 44 24 08 ff ff ff 	movl   $0xffffffff,0x8(%esp)
    2351:	ff 
    2352:	89 54 24 04          	mov    %edx,0x4(%esp)
    2356:	89 34 24             	mov    %esi,(%esp)
    2359:	e8 b2 23 00 00       	call   4710 <str_decode>
    235e:	8d 4d cc             	lea    -0x34(%ebp),%ecx
    2361:	c7 44 24 08 ff ff ff 	movl   $0xffffffff,0x8(%esp)
    2368:	ff 
    2369:	89 4c 24 04          	mov    %ecx,0x4(%esp)
    236d:	89 3c 24             	mov    %edi,(%esp)
    2370:	89 c3                	mov    %eax,%ebx
    2372:	e8 99 23 00 00       	call   4710 <str_decode>
    2377:	85 c0                	test   %eax,%eax
    2379:	75 bd                	jne    2338 <tinput_read+0x628>
    237b:	8b 45 b0             	mov    -0x50(%ebp),%eax
    237e:	39 45 b4             	cmp    %eax,-0x4c(%ebp)
    2381:	0f 86 d5 08 00 00    	jbe    2c5c <tinput_read+0xf4c>
    2387:	8b 4d ac             	mov    -0x54(%ebp),%ecx
    238a:	8b 45 a8             	mov    -0x58(%ebp),%eax
    238d:	41                   	inc    %ecx
    238e:	89 4d ac             	mov    %ecx,-0x54(%ebp)
    2391:	39 45 ac             	cmp    %eax,-0x54(%ebp)
    2394:	0f 85 77 ff ff ff    	jne    2311 <tinput_read+0x601>
    239a:	8b 7d 9c             	mov    -0x64(%ebp),%edi
    239d:	8b 55 c0             	mov    -0x40(%ebp),%edx
    23a0:	8b 75 a4             	mov    -0x5c(%ebp),%esi
    23a3:	8b 87 24 10 00 00    	mov    0x1024(%edi),%eax
    23a9:	29 d0                	sub    %edx,%eax
    23ab:	89 44 24 04          	mov    %eax,0x4(%esp)
    23af:	8b 06                	mov    (%esi),%eax
    23b1:	89 04 24             	mov    %eax,(%esp)
    23b4:	e8 d7 27 00 00       	call   4b90 <str_lsize>
    23b9:	89 c3                	mov    %eax,%ebx
    23bb:	39 45 b0             	cmp    %eax,-0x50(%ebp)
    23be:	0f 86 2c 09 00 00    	jbe    2cf0 <tinput_read+0xfe0>
    23c4:	8b 45 b0             	mov    -0x50(%ebp),%eax
    23c7:	29 d8                	sub    %ebx,%eax
    23c9:	89 44 24 04          	mov    %eax,0x4(%esp)
    23cd:	8b 06                	mov    (%esi),%eax
    23cf:	89 04 24             	mov    %eax,(%esp)
    23d2:	e8 b9 27 00 00       	call   4b90 <str_lsize>
    23d7:	89 44 24 04          	mov    %eax,0x4(%esp)
    23db:	8b 06                	mov    (%esi),%eax
    23dd:	01 c3                	add    %eax,%ebx
    23df:	89 1c 24             	mov    %ebx,(%esp)
    23e2:	e8 69 47 00 00       	call   6b50 <str_ndup>
    23e7:	89 c3                	mov    %eax,%ebx
    23e9:	89 c2                	mov    %eax,%edx
    23eb:	89 f8                	mov    %edi,%eax
    23ed:	e8 7e f3 ff ff       	call   1770 <tinput_insert_string>
    23f2:	89 1c 24             	mov    %ebx,(%esp)
    23f5:	e8 76 f1 00 00       	call   11570 <free>
    23fa:	31 db                	xor    %ebx,%ebx
    23fc:	8b 04 9e             	mov    (%esi,%ebx,4),%eax
    23ff:	43                   	inc    %ebx
    2400:	89 04 24             	mov    %eax,(%esp)
    2403:	e8 68 f1 00 00       	call   11570 <free>
    2408:	39 5d a8             	cmp    %ebx,-0x58(%ebp)
    240b:	77 ef                	ja     23fc <tinput_read+0x6ec>
    240d:	89 34 24             	mov    %esi,(%esp)
    2410:	e8 5b f1 00 00       	call   11570 <free>
    2415:	e9 ee f9 ff ff       	jmp    1e08 <tinput_read+0xf8>
    241a:	8b 87 5c 10 00 00    	mov    0x105c(%edi),%eax
    2420:	40                   	inc    %eax
    2421:	3b 87 58 10 00 00    	cmp    0x1058(%edi),%eax
    2427:	0f 87 db f9 ff ff    	ja     1e08 <tinput_read+0xf8>
    242d:	ba 01 00 00 00       	mov    $0x1,%edx
    2432:	89 f8                	mov    %edi,%eax
    2434:	e8 e7 f4 ff ff       	call   1920 <tinput_history_seek.part.5>
    2439:	e9 ca f9 ff ff       	jmp    1e08 <tinput_read+0xf8>
    243e:	8b 87 24 10 00 00    	mov    0x1024(%edi),%eax
    2444:	3b 87 28 10 00 00    	cmp    0x1028(%edi),%eax
    244a:	74 3f                	je     248b <tinput_read+0x77b>
    244c:	89 87 28 10 00 00    	mov    %eax,0x1028(%edi)
    2452:	31 c9                	xor    %ecx,%ecx
    2454:	31 d2                	xor    %edx,%edx
    2456:	89 f8                	mov    %edi,%eax
    2458:	e8 23 f1 ff ff       	call   1580 <tinput_display_tail>
    245d:	8b 87 24 10 00 00    	mov    0x1024(%edi),%eax
    2463:	8b b7 14 10 00 00    	mov    0x1014(%edi),%esi
    2469:	31 d2                	xor    %edx,%edx
    246b:	01 f0                	add    %esi,%eax
    246d:	f7 b7 18 10 00 00    	divl   0x1018(%edi)
    2473:	89 44 24 08          	mov    %eax,0x8(%esp)
    2477:	89 54 24 04          	mov    %edx,0x4(%esp)
    247b:	8b 07                	mov    (%edi),%eax
    247d:	89 04 24             	mov    %eax,(%esp)
    2480:	e8 ab ca 00 00       	call   ef30 <console_set_pos>
    2485:	8b 87 24 10 00 00    	mov    0x1024(%edi),%eax
    248b:	85 c0                	test   %eax,%eax
    248d:	0f 84 82 00 00 00    	je     2515 <tinput_read+0x805>
    2493:	48                   	dec    %eax
    2494:	89 87 24 10 00 00    	mov    %eax,0x1024(%edi)
    249a:	eb 79                	jmp    2515 <tinput_read+0x805>
    249c:	8b 87 5c 10 00 00    	mov    0x105c(%edi),%eax
    24a2:	85 c0                	test   %eax,%eax
    24a4:	0f 84 5e f9 ff ff    	je     1e08 <tinput_read+0xf8>
    24aa:	83 ca ff             	or     $0xffffffff,%edx
    24ad:	89 f8                	mov    %edi,%eax
    24af:	e8 6c f4 ff ff       	call   1920 <tinput_history_seek.part.5>
    24b4:	e9 4f f9 ff ff       	jmp    1e08 <tinput_read+0xf8>
    24b9:	8b 87 24 10 00 00    	mov    0x1024(%edi),%eax
    24bf:	3b 87 28 10 00 00    	cmp    0x1028(%edi),%eax
    24c5:	74 3f                	je     2506 <tinput_read+0x7f6>
    24c7:	89 87 28 10 00 00    	mov    %eax,0x1028(%edi)
    24cd:	31 c9                	xor    %ecx,%ecx
    24cf:	31 d2                	xor    %edx,%edx
    24d1:	89 f8                	mov    %edi,%eax
    24d3:	e8 a8 f0 ff ff       	call   1580 <tinput_display_tail>
    24d8:	8b 87 24 10 00 00    	mov    0x1024(%edi),%eax
    24de:	8b 9f 14 10 00 00    	mov    0x1014(%edi),%ebx
    24e4:	31 d2                	xor    %edx,%edx
    24e6:	01 d8                	add    %ebx,%eax
    24e8:	f7 b7 18 10 00 00    	divl   0x1018(%edi)
    24ee:	89 44 24 08          	mov    %eax,0x8(%esp)
    24f2:	89 54 24 04          	mov    %edx,0x4(%esp)
    24f6:	8b 07                	mov    (%edi),%eax
    24f8:	89 04 24             	mov    %eax,(%esp)
    24fb:	e8 30 ca 00 00       	call   ef30 <console_set_pos>
    2500:	8b 87 24 10 00 00    	mov    0x1024(%edi),%eax
    2506:	3b 87 20 10 00 00    	cmp    0x1020(%edi),%eax
    250c:	73 07                	jae    2515 <tinput_read+0x805>
    250e:	40                   	inc    %eax
    250f:	89 87 24 10 00 00    	mov    %eax,0x1024(%edi)
    2515:	89 87 28 10 00 00    	mov    %eax,0x1028(%edi)
    251b:	e9 ba 00 00 00       	jmp    25da <tinput_read+0x8ca>
    2520:	8b 97 24 10 00 00    	mov    0x1024(%edi),%edx
    2526:	8b 9f 28 10 00 00    	mov    0x1028(%edi),%ebx
    252c:	39 da                	cmp    %ebx,%edx
    252e:	0f 85 4e 06 00 00    	jne    2b82 <tinput_read+0xe72>
    2534:	8b b7 20 10 00 00    	mov    0x1020(%edi),%esi
    253a:	39 f2                	cmp    %esi,%edx
    253c:	0f 84 c6 f8 ff ff    	je     1e08 <tinput_read+0xf8>
    2542:	8d 42 01             	lea    0x1(%edx),%eax
    2545:	89 87 24 10 00 00    	mov    %eax,0x1024(%edi)
    254b:	89 87 28 10 00 00    	mov    %eax,0x1028(%edi)
    2551:	85 c0                	test   %eax,%eax
    2553:	0f 84 af f8 ff ff    	je     1e08 <tinput_read+0xf8>
    2559:	39 c6                	cmp    %eax,%esi
    255b:	0f 86 86 fc ff ff    	jbe    21e7 <tinput_read+0x4d7>
    2561:	8d 44 87 0c          	lea    0xc(%edi,%eax,4),%eax
    2565:	8d 5c b7 0c          	lea    0xc(%edi,%esi,4),%ebx
    2569:	8d b4 26 00 00 00 00 	lea    0x0(%esi,%eiz,1),%esi
    2570:	8b 08                	mov    (%eax),%ecx
    2572:	89 48 fc             	mov    %ecx,-0x4(%eax)
    2575:	83 c0 04             	add    $0x4,%eax
    2578:	39 d8                	cmp    %ebx,%eax
    257a:	75 f4                	jne    2570 <tinput_read+0x860>
    257c:	e9 66 fc ff ff       	jmp    21e7 <tinput_read+0x4d7>
    2581:	8b 87 24 10 00 00    	mov    0x1024(%edi),%eax
    2587:	3b 87 28 10 00 00    	cmp    0x1028(%edi),%eax
    258d:	74 39                	je     25c8 <tinput_read+0x8b8>
    258f:	89 87 28 10 00 00    	mov    %eax,0x1028(%edi)
    2595:	31 d2                	xor    %edx,%edx
    2597:	89 f8                	mov    %edi,%eax
    2599:	31 c9                	xor    %ecx,%ecx
    259b:	e8 e0 ef ff ff       	call   1580 <tinput_display_tail>
    25a0:	8b 97 14 10 00 00    	mov    0x1014(%edi),%edx
    25a6:	8b 87 24 10 00 00    	mov    0x1024(%edi),%eax
    25ac:	01 d0                	add    %edx,%eax
    25ae:	31 d2                	xor    %edx,%edx
    25b0:	f7 b7 18 10 00 00    	divl   0x1018(%edi)
    25b6:	89 44 24 08          	mov    %eax,0x8(%esp)
    25ba:	89 54 24 04          	mov    %edx,0x4(%esp)
    25be:	8b 07                	mov    (%edi),%eax
    25c0:	89 04 24             	mov    %eax,(%esp)
    25c3:	e8 68 c9 00 00       	call   ef30 <console_set_pos>
    25c8:	8b 87 20 10 00 00    	mov    0x1020(%edi),%eax
    25ce:	89 87 24 10 00 00    	mov    %eax,0x1024(%edi)
    25d4:	89 87 28 10 00 00    	mov    %eax,0x1028(%edi)
    25da:	8b 9f 14 10 00 00    	mov    0x1014(%edi),%ebx
    25e0:	01 d8                	add    %ebx,%eax
    25e2:	e9 a3 fb ff ff       	jmp    218a <tinput_read+0x47a>
    25e7:	8b 87 24 10 00 00    	mov    0x1024(%edi),%eax
    25ed:	3b 87 20 10 00 00    	cmp    0x1020(%edi),%eax
    25f3:	73 07                	jae    25fc <tinput_read+0x8ec>
    25f5:	40                   	inc    %eax
    25f6:	89 87 24 10 00 00    	mov    %eax,0x1024(%edi)
    25fc:	31 c9                	xor    %ecx,%ecx
    25fe:	31 d2                	xor    %edx,%edx
    2600:	89 f8                	mov    %edi,%eax
    2602:	e8 79 ef ff ff       	call   1580 <tinput_display_tail>
    2607:	8b 87 24 10 00 00    	mov    0x1024(%edi),%eax
    260d:	8b 9f 14 10 00 00    	mov    0x1014(%edi),%ebx
    2613:	31 d2                	xor    %edx,%edx
    2615:	01 d8                	add    %ebx,%eax
    2617:	f7 b7 18 10 00 00    	divl   0x1018(%edi)
    261d:	89 44 24 08          	mov    %eax,0x8(%esp)
    2621:	89 54 24 04          	mov    %edx,0x4(%esp)
    2625:	8b 07                	mov    (%edi),%eax
    2627:	89 04 24             	mov    %eax,(%esp)
    262a:	e8 01 c9 00 00       	call   ef30 <console_set_pos>
    262f:	8b 45 e0             	mov    -0x20(%ebp),%eax
    2632:	e9 b7 f7 ff ff       	jmp    1dee <tinput_read+0xde>
    2637:	8b 87 18 10 00 00    	mov    0x1018(%edi),%eax
    263d:	8b b7 24 10 00 00    	mov    0x1024(%edi),%esi
    2643:	01 f0                	add    %esi,%eax
    2645:	3b 87 20 10 00 00    	cmp    0x1020(%edi),%eax
    264b:	77 af                	ja     25fc <tinput_read+0x8ec>
    264d:	89 87 24 10 00 00    	mov    %eax,0x1024(%edi)
    2653:	eb a7                	jmp    25fc <tinput_read+0x8ec>
    2655:	8b 87 24 10 00 00    	mov    0x1024(%edi),%eax
    265b:	85 c0                	test   %eax,%eax
    265d:	74 9d                	je     25fc <tinput_read+0x8ec>
    265f:	48                   	dec    %eax
    2660:	89 87 24 10 00 00    	mov    %eax,0x1024(%edi)
    2666:	eb 94                	jmp    25fc <tinput_read+0x8ec>
    2668:	8b 97 24 10 00 00    	mov    0x1024(%edi),%edx
    266e:	8b 87 18 10 00 00    	mov    0x1018(%edi),%eax
    2674:	39 c2                	cmp    %eax,%edx
    2676:	72 84                	jb     25fc <tinput_read+0x8ec>
    2678:	29 c2                	sub    %eax,%edx
    267a:	89 97 24 10 00 00    	mov    %edx,0x1024(%edi)
    2680:	e9 77 ff ff ff       	jmp    25fc <tinput_read+0x8ec>
    2685:	8b 87 20 10 00 00    	mov    0x1020(%edi),%eax
    268b:	eb c0                	jmp    264d <tinput_read+0x93d>
    268d:	c7 87 24 10 00 00 00 	movl   $0x0,0x1024(%edi)
    2694:	00 00 00 
    2697:	e9 60 ff ff ff       	jmp    25fc <tinput_read+0x8ec>
    269c:	c6 87 60 10 00 00 01 	movb   $0x1,0x1060(%edi)
    26a3:	c6 87 61 10 00 00 01 	movb   $0x1,0x1061(%edi)
    26aa:	89 d0                	mov    %edx,%eax
    26ac:	e9 31 f7 ff ff       	jmp    1de2 <tinput_read+0xd2>
    26b1:	89 f8                	mov    %edi,%eax
    26b3:	31 d2                	xor    %edx,%edx
    26b5:	e8 96 f4 ff ff       	call   1b50 <tinput_seek_word.constprop.9>
    26ba:	8b 45 e0             	mov    -0x20(%ebp),%eax
    26bd:	e9 20 f7 ff ff       	jmp    1de2 <tinput_read+0xd2>
    26c2:	8b 87 24 10 00 00    	mov    0x1024(%edi),%eax
    26c8:	3b 87 28 10 00 00    	cmp    0x1028(%edi),%eax
    26ce:	74 3f                	je     270f <tinput_read+0x9ff>
    26d0:	89 87 28 10 00 00    	mov    %eax,0x1028(%edi)
    26d6:	31 c9                	xor    %ecx,%ecx
    26d8:	31 d2                	xor    %edx,%edx
    26da:	89 f8                	mov    %edi,%eax
    26dc:	e8 9f ee ff ff       	call   1580 <tinput_display_tail>
    26e1:	8b 87 24 10 00 00    	mov    0x1024(%edi),%eax
    26e7:	8b b7 14 10 00 00    	mov    0x1014(%edi),%esi
    26ed:	31 d2                	xor    %edx,%edx
    26ef:	01 f0                	add    %esi,%eax
    26f1:	f7 b7 18 10 00 00    	divl   0x1018(%edi)
    26f7:	89 44 24 08          	mov    %eax,0x8(%esp)
    26fb:	89 54 24 04          	mov    %edx,0x4(%esp)
    26ff:	8b 07                	mov    (%edi),%eax
    2701:	89 04 24             	mov    %eax,(%esp)
    2704:	e8 27 c8 00 00       	call   ef30 <console_set_pos>
    2709:	8b 87 24 10 00 00    	mov    0x1024(%edi),%eax
    270f:	8b 8f 18 10 00 00    	mov    0x1018(%edi),%ecx
    2715:	8d 14 08             	lea    (%eax,%ecx,1),%edx
    2718:	3b 97 20 10 00 00    	cmp    0x1020(%edi),%edx
    271e:	0f 87 fc 01 00 00    	ja     2920 <tinput_read+0xc10>
    2724:	89 97 24 10 00 00    	mov    %edx,0x1024(%edi)
    272a:	89 d0                	mov    %edx,%eax
    272c:	e9 ef 01 00 00       	jmp    2920 <tinput_read+0xc10>
    2731:	8b 87 24 10 00 00    	mov    0x1024(%edi),%eax
    2737:	3b 87 28 10 00 00    	cmp    0x1028(%edi),%eax
    273d:	74 3f                	je     277e <tinput_read+0xa6e>
    273f:	89 87 28 10 00 00    	mov    %eax,0x1028(%edi)
    2745:	31 c9                	xor    %ecx,%ecx
    2747:	31 d2                	xor    %edx,%edx
    2749:	89 f8                	mov    %edi,%eax
    274b:	e8 30 ee ff ff       	call   1580 <tinput_display_tail>
    2750:	8b 87 24 10 00 00    	mov    0x1024(%edi),%eax
    2756:	8b 8f 14 10 00 00    	mov    0x1014(%edi),%ecx
    275c:	31 d2                	xor    %edx,%edx
    275e:	01 c8                	add    %ecx,%eax
    2760:	f7 b7 18 10 00 00    	divl   0x1018(%edi)
    2766:	89 44 24 08          	mov    %eax,0x8(%esp)
    276a:	89 54 24 04          	mov    %edx,0x4(%esp)
    276e:	8b 07                	mov    (%edi),%eax
    2770:	89 04 24             	mov    %eax,(%esp)
    2773:	e8 b8 c7 00 00       	call   ef30 <console_set_pos>
    2778:	8b 87 24 10 00 00    	mov    0x1024(%edi),%eax
    277e:	85 c0                	test   %eax,%eax
    2780:	0f 84 33 01 00 00    	je     28b9 <tinput_read+0xba9>
    2786:	48                   	dec    %eax
    2787:	0f 84 c0 04 00 00    	je     2c4d <tinput_read+0xf3d>
    278d:	83 7c 87 08 20       	cmpl   $0x20,0x8(%edi,%eax,4)
    2792:	75 f2                	jne    2786 <tinput_read+0xa76>
    2794:	83 7c 87 0c 20       	cmpl   $0x20,0xc(%edi,%eax,4)
    2799:	74 eb                	je     2786 <tinput_read+0xa76>
    279b:	89 87 24 10 00 00    	mov    %eax,0x1024(%edi)
    27a1:	89 87 28 10 00 00    	mov    %eax,0x1028(%edi)
    27a7:	e9 eb 00 00 00       	jmp    2897 <tinput_read+0xb87>
    27ac:	8b b7 28 10 00 00    	mov    0x1028(%edi),%esi
    27b2:	8b 9f 24 10 00 00    	mov    0x1024(%edi),%ebx
    27b8:	39 de                	cmp    %ebx,%esi
    27ba:	0f 82 77 04 00 00    	jb     2c37 <tinput_read+0xf27>
    27c0:	39 de                	cmp    %ebx,%esi
    27c2:	74 7c                	je     2840 <tinput_read+0xb30>
    27c4:	8b 87 20 10 00 00    	mov    0x1020(%edi),%eax
    27ca:	29 f0                	sub    %esi,%eax
    27cc:	c1 e0 02             	shl    $0x2,%eax
    27cf:	89 44 24 08          	mov    %eax,0x8(%esp)
    27d3:	8d 44 b7 0c          	lea    0xc(%edi,%esi,4),%eax
    27d7:	89 44 24 04          	mov    %eax,0x4(%esp)
    27db:	8d 44 9f 0c          	lea    0xc(%edi,%ebx,4),%eax
    27df:	89 04 24             	mov    %eax,(%esp)
    27e2:	e8 49 17 00 00       	call   3f30 <memmove>
    27e7:	8b 87 20 10 00 00    	mov    0x1020(%edi),%eax
    27ed:	01 d8                	add    %ebx,%eax
    27ef:	89 f1                	mov    %esi,%ecx
    27f1:	29 f0                	sub    %esi,%eax
    27f3:	29 d9                	sub    %ebx,%ecx
    27f5:	89 87 20 10 00 00    	mov    %eax,0x1020(%edi)
    27fb:	89 da                	mov    %ebx,%edx
    27fd:	c7 44 87 0c 00 00 00 	movl   $0x0,0xc(%edi,%eax,4)
    2804:	00 
    2805:	89 9f 28 10 00 00    	mov    %ebx,0x1028(%edi)
    280b:	89 f8                	mov    %edi,%eax
    280d:	89 9f 24 10 00 00    	mov    %ebx,0x1024(%edi)
    2813:	e8 68 ed ff ff       	call   1580 <tinput_display_tail>
    2818:	8b 87 24 10 00 00    	mov    0x1024(%edi),%eax
    281e:	8b 8f 14 10 00 00    	mov    0x1014(%edi),%ecx
    2824:	31 d2                	xor    %edx,%edx
    2826:	01 c8                	add    %ecx,%eax
    2828:	f7 b7 18 10 00 00    	divl   0x1018(%edi)
    282e:	89 44 24 08          	mov    %eax,0x8(%esp)
    2832:	89 54 24 04          	mov    %edx,0x4(%esp)
    2836:	8b 07                	mov    (%edi),%eax
    2838:	89 04 24             	mov    %eax,(%esp)
    283b:	e8 f0 c6 00 00       	call   ef30 <console_set_pos>
    2840:	8d 5d c4             	lea    -0x3c(%ebp),%ebx
    2843:	89 1c 24             	mov    %ebx,(%esp)
    2846:	e8 c5 0f 00 00       	call   3810 <clipboard_get_str>
    284b:	85 c0                	test   %eax,%eax
    284d:	75 6a                	jne    28b9 <tinput_read+0xba9>
    284f:	8b 55 c4             	mov    -0x3c(%ebp),%edx
    2852:	85 d2                	test   %edx,%edx
    2854:	74 63                	je     28b9 <tinput_read+0xba9>
    2856:	89 f8                	mov    %edi,%eax
    2858:	e8 13 ef ff ff       	call   1770 <tinput_insert_string>
    285d:	8b 45 c4             	mov    -0x3c(%ebp),%eax
    2860:	89 04 24             	mov    %eax,(%esp)
    2863:	e8 08 ed 00 00       	call   11570 <free>
    2868:	8b 45 e0             	mov    -0x20(%ebp),%eax
    286b:	e9 72 f5 ff ff       	jmp    1de2 <tinput_read+0xd2>
    2870:	8b 87 20 10 00 00    	mov    0x1020(%edi),%eax
    2876:	c7 87 28 10 00 00 00 	movl   $0x0,0x1028(%edi)
    287d:	00 00 00 
    2880:	89 87 24 10 00 00    	mov    %eax,0x1024(%edi)
    2886:	31 c9                	xor    %ecx,%ecx
    2888:	31 d2                	xor    %edx,%edx
    288a:	89 f8                	mov    %edi,%eax
    288c:	e8 ef ec ff ff       	call   1580 <tinput_display_tail>
    2891:	8b 87 24 10 00 00    	mov    0x1024(%edi),%eax
    2897:	8b 97 14 10 00 00    	mov    0x1014(%edi),%edx
    289d:	01 d0                	add    %edx,%eax
    289f:	31 d2                	xor    %edx,%edx
    28a1:	f7 b7 18 10 00 00    	divl   0x1018(%edi)
    28a7:	89 44 24 08          	mov    %eax,0x8(%esp)
    28ab:	89 54 24 04          	mov    %edx,0x4(%esp)
    28af:	8b 07                	mov    (%edi),%eax
    28b1:	89 04 24             	mov    %eax,(%esp)
    28b4:	e8 77 c6 00 00       	call   ef30 <console_set_pos>
    28b9:	8b 45 e0             	mov    -0x20(%ebp),%eax
    28bc:	e9 21 f5 ff ff       	jmp    1de2 <tinput_read+0xd2>
    28c1:	8b 87 24 10 00 00    	mov    0x1024(%edi),%eax
    28c7:	3b 87 28 10 00 00    	cmp    0x1028(%edi),%eax
    28cd:	74 3f                	je     290e <tinput_read+0xbfe>
    28cf:	89 87 28 10 00 00    	mov    %eax,0x1028(%edi)
    28d5:	31 c9                	xor    %ecx,%ecx
    28d7:	31 d2                	xor    %edx,%edx
    28d9:	89 f8                	mov    %edi,%eax
    28db:	e8 a0 ec ff ff       	call   1580 <tinput_display_tail>
    28e0:	8b 97 14 10 00 00    	mov    0x1014(%edi),%edx
    28e6:	8b 87 24 10 00 00    	mov    0x1024(%edi),%eax
    28ec:	01 d0                	add    %edx,%eax
    28ee:	31 d2                	xor    %edx,%edx
    28f0:	f7 b7 18 10 00 00    	divl   0x1018(%edi)
    28f6:	89 44 24 08          	mov    %eax,0x8(%esp)
    28fa:	89 54 24 04          	mov    %edx,0x4(%esp)
    28fe:	8b 07                	mov    (%edi),%eax
    2900:	89 04 24             	mov    %eax,(%esp)
    2903:	e8 28 c6 00 00       	call   ef30 <console_set_pos>
    2908:	8b 87 24 10 00 00    	mov    0x1024(%edi),%eax
    290e:	8b 8f 18 10 00 00    	mov    0x1018(%edi),%ecx
    2914:	39 c1                	cmp    %eax,%ecx
    2916:	77 08                	ja     2920 <tinput_read+0xc10>
    2918:	29 c8                	sub    %ecx,%eax
    291a:	89 87 24 10 00 00    	mov    %eax,0x1024(%edi)
    2920:	8b 9f 14 10 00 00    	mov    0x1014(%edi),%ebx
    2926:	89 87 28 10 00 00    	mov    %eax,0x1028(%edi)
    292c:	31 d2                	xor    %edx,%edx
    292e:	01 d8                	add    %ebx,%eax
    2930:	f7 f1                	div    %ecx
    2932:	e9 70 ff ff ff       	jmp    28a7 <tinput_read+0xb97>
    2937:	8b 9f 28 10 00 00    	mov    0x1028(%edi),%ebx
    293d:	8b 87 24 10 00 00    	mov    0x1024(%edi),%eax
    2943:	39 c3                	cmp    %eax,%ebx
    2945:	73 06                	jae    294d <tinput_read+0xc3d>
    2947:	89 c2                	mov    %eax,%edx
    2949:	89 d8                	mov    %ebx,%eax
    294b:	89 d3                	mov    %edx,%ebx
    294d:	39 9f 20 10 00 00    	cmp    %ebx,0x1020(%edi)
    2953:	0f 87 b5 02 00 00    	ja     2c0e <tinput_read+0xefe>
    2959:	8d 44 87 0c          	lea    0xc(%edi,%eax,4),%eax
    295d:	89 04 24             	mov    %eax,(%esp)
    2960:	e8 2b 37 00 00       	call   6090 <wstr_to_astr>
    2965:	89 c6                	mov    %eax,%esi
    2967:	85 f6                	test   %esi,%esi
    2969:	74 14                	je     297f <tinput_read+0xc6f>
    296b:	89 34 24             	mov    %esi,(%esp)
    296e:	e8 ad 0c 00 00       	call   3620 <clipboard_put_str>
    2973:	85 c0                	test   %eax,%eax
    2975:	75 08                	jne    297f <tinput_read+0xc6f>
    2977:	89 34 24             	mov    %esi,(%esp)
    297a:	e8 f1 eb 00 00       	call   11570 <free>
    297f:	8b b7 28 10 00 00    	mov    0x1028(%edi),%esi
    2985:	8b 9f 24 10 00 00    	mov    0x1024(%edi),%ebx
    298b:	39 de                	cmp    %ebx,%esi
    298d:	73 06                	jae    2995 <tinput_read+0xc85>
    298f:	89 d8                	mov    %ebx,%eax
    2991:	89 f3                	mov    %esi,%ebx
    2993:	89 c6                	mov    %eax,%esi
    2995:	39 de                	cmp    %ebx,%esi
    2997:	0f 84 1c ff ff ff    	je     28b9 <tinput_read+0xba9>
    299d:	8b 87 20 10 00 00    	mov    0x1020(%edi),%eax
    29a3:	29 f0                	sub    %esi,%eax
    29a5:	c1 e0 02             	shl    $0x2,%eax
    29a8:	89 44 24 08          	mov    %eax,0x8(%esp)
    29ac:	8d 44 b7 0c          	lea    0xc(%edi,%esi,4),%eax
    29b0:	89 44 24 04          	mov    %eax,0x4(%esp)
    29b4:	8d 44 9f 0c          	lea    0xc(%edi,%ebx,4),%eax
    29b8:	89 04 24             	mov    %eax,(%esp)
    29bb:	e8 70 15 00 00       	call   3f30 <memmove>
    29c0:	8b 87 20 10 00 00    	mov    0x1020(%edi),%eax
    29c6:	01 d8                	add    %ebx,%eax
    29c8:	89 f1                	mov    %esi,%ecx
    29ca:	29 f0                	sub    %esi,%eax
    29cc:	89 9f 28 10 00 00    	mov    %ebx,0x1028(%edi)
    29d2:	89 9f 24 10 00 00    	mov    %ebx,0x1024(%edi)
    29d8:	89 87 20 10 00 00    	mov    %eax,0x1020(%edi)
    29de:	c7 44 87 0c 00 00 00 	movl   $0x0,0xc(%edi,%eax,4)
    29e5:	00 
    29e6:	29 d9                	sub    %ebx,%ecx
    29e8:	89 da                	mov    %ebx,%edx
    29ea:	e9 9b fe ff ff       	jmp    288a <tinput_read+0xb7a>
    29ef:	8b 9f 28 10 00 00    	mov    0x1028(%edi),%ebx
    29f5:	8b 87 24 10 00 00    	mov    0x1024(%edi),%eax
    29fb:	39 c3                	cmp    %eax,%ebx
    29fd:	73 06                	jae    2a05 <tinput_read+0xcf5>
    29ff:	89 c2                	mov    %eax,%edx
    2a01:	89 d8                	mov    %ebx,%eax
    2a03:	89 d3                	mov    %edx,%ebx
    2a05:	39 9f 20 10 00 00    	cmp    %ebx,0x1020(%edi)
    2a0b:	0f 87 d4 01 00 00    	ja     2be5 <tinput_read+0xed5>
    2a11:	8d 44 87 0c          	lea    0xc(%edi,%eax,4),%eax
    2a15:	89 04 24             	mov    %eax,(%esp)
    2a18:	e8 73 36 00 00       	call   6090 <wstr_to_astr>
    2a1d:	89 c6                	mov    %eax,%esi
    2a1f:	85 f6                	test   %esi,%esi
    2a21:	0f 84 92 fe ff ff    	je     28b9 <tinput_read+0xba9>
    2a27:	89 34 24             	mov    %esi,(%esp)
    2a2a:	e8 f1 0b 00 00       	call   3620 <clipboard_put_str>
    2a2f:	85 c0                	test   %eax,%eax
    2a31:	0f 85 82 fe ff ff    	jne    28b9 <tinput_read+0xba9>
    2a37:	89 34 24             	mov    %esi,(%esp)
    2a3a:	e8 31 eb 00 00       	call   11570 <free>
    2a3f:	8b 45 e0             	mov    -0x20(%ebp),%eax
    2a42:	e9 9b f3 ff ff       	jmp    1de2 <tinput_read+0xd2>
    2a47:	8b 97 58 10 00 00    	mov    0x1058(%edi),%edx
    2a4d:	83 fa 09             	cmp    $0x9,%edx
    2a50:	0f 87 a6 00 00 00    	ja     2afc <tinput_read+0xdec>
    2a56:	42                   	inc    %edx
    2a57:	89 97 58 10 00 00    	mov    %edx,0x1058(%edi)
    2a5d:	83 fa 01             	cmp    $0x1,%edx
    2a60:	76 1a                	jbe    2a7c <tinput_read+0xd6c>
    2a62:	8d b6 00 00 00 00    	lea    0x0(%esi),%esi
    2a68:	4a                   	dec    %edx
    2a69:	83 fa 01             	cmp    $0x1,%edx
    2a6c:	8b 84 97 2c 10 00 00 	mov    0x102c(%edi,%edx,4),%eax
    2a73:	89 84 97 30 10 00 00 	mov    %eax,0x1030(%edi,%edx,4)
    2a7a:	75 ec                	jne    2a68 <tinput_read+0xd58>
    2a7c:	89 1c 24             	mov    %ebx,(%esp)
    2a7f:	e8 6c 40 00 00       	call   6af0 <str_dup>
    2a84:	89 87 30 10 00 00    	mov    %eax,0x1030(%edi)
    2a8a:	8b 87 2c 10 00 00    	mov    0x102c(%edi),%eax
    2a90:	85 c0                	test   %eax,%eax
    2a92:	0f 84 7e f5 ff ff    	je     2016 <tinput_read+0x306>
    2a98:	89 04 24             	mov    %eax,(%esp)
    2a9b:	e8 d0 ea 00 00       	call   11570 <free>
    2aa0:	c7 87 2c 10 00 00 00 	movl   $0x0,0x102c(%edi)
    2aa7:	00 00 00 
    2aaa:	e9 67 f5 ff ff       	jmp    2016 <tinput_read+0x306>
    2aaf:	8b 87 18 10 00 00    	mov    0x1018(%edi),%eax
    2ab5:	8b 8f 24 10 00 00    	mov    0x1024(%edi),%ecx
    2abb:	01 c8                	add    %ecx,%eax
    2abd:	3b 87 20 10 00 00    	cmp    0x1020(%edi),%eax
    2ac3:	0f 87 19 f6 ff ff    	ja     20e2 <tinput_read+0x3d2>
    2ac9:	89 87 24 10 00 00    	mov    %eax,0x1024(%edi)
    2acf:	e9 0e f6 ff ff       	jmp    20e2 <tinput_read+0x3d2>
    2ad4:	8b 97 24 10 00 00    	mov    0x1024(%edi),%edx
    2ada:	85 d2                	test   %edx,%edx
    2adc:	0f 84 1e f3 ff ff    	je     1e00 <tinput_read+0xf0>
    2ae2:	4a                   	dec    %edx
    2ae3:	0f 84 e7 01 00 00    	je     2cd0 <tinput_read+0xfc0>
    2ae9:	83 7c 97 08 20       	cmpl   $0x20,0x8(%edi,%edx,4)
    2aee:	75 f2                	jne    2ae2 <tinput_read+0xdd2>
    2af0:	83 7c 97 0c 20       	cmpl   $0x20,0xc(%edi,%edx,4)
    2af5:	74 eb                	je     2ae2 <tinput_read+0xdd2>
    2af7:	e9 e0 f5 ff ff       	jmp    20dc <tinput_read+0x3cc>
    2afc:	8b 87 54 10 00 00    	mov    0x1054(%edi),%eax
    2b02:	85 c0                	test   %eax,%eax
    2b04:	0f 84 5e ff ff ff    	je     2a68 <tinput_read+0xd58>
    2b0a:	89 04 24             	mov    %eax,(%esp)
    2b0d:	e8 5e ea 00 00       	call   11570 <free>
    2b12:	8b 97 58 10 00 00    	mov    0x1058(%edi),%edx
    2b18:	e9 40 ff ff ff       	jmp    2a5d <tinput_read+0xd4d>
    2b1d:	0f 87 1f 01 00 00    	ja     2c42 <tinput_read+0xf32>
    2b23:	8b 87 20 10 00 00    	mov    0x1020(%edi),%eax
    2b29:	29 f0                	sub    %esi,%eax
    2b2b:	c1 e0 02             	shl    $0x2,%eax
    2b2e:	89 44 24 08          	mov    %eax,0x8(%esp)
    2b32:	8d 44 b7 0c          	lea    0xc(%edi,%esi,4),%eax
    2b36:	89 44 24 04          	mov    %eax,0x4(%esp)
    2b3a:	8d 44 9f 0c          	lea    0xc(%edi,%ebx,4),%eax
    2b3e:	89 04 24             	mov    %eax,(%esp)
    2b41:	e8 ea 13 00 00       	call   3f30 <memmove>
    2b46:	8b 87 20 10 00 00    	mov    0x1020(%edi),%eax
    2b4c:	01 d8                	add    %ebx,%eax
    2b4e:	89 f1                	mov    %esi,%ecx
    2b50:	29 f0                	sub    %esi,%eax
    2b52:	89 9f 28 10 00 00    	mov    %ebx,0x1028(%edi)
    2b58:	89 9f 24 10 00 00    	mov    %ebx,0x1024(%edi)
    2b5e:	89 87 20 10 00 00    	mov    %eax,0x1020(%edi)
    2b64:	c7 44 87 0c 00 00 00 	movl   $0x0,0xc(%edi,%eax,4)
    2b6b:	00 
    2b6c:	29 d9                	sub    %ebx,%ecx
    2b6e:	89 da                	mov    %ebx,%edx
    2b70:	89 f8                	mov    %edi,%eax
    2b72:	e8 09 ea ff ff       	call   1580 <tinput_display_tail>
    2b77:	8b 87 24 10 00 00    	mov    0x1024(%edi),%eax
    2b7d:	e9 58 fa ff ff       	jmp    25da <tinput_read+0x8ca>
    2b82:	76 06                	jbe    2b8a <tinput_read+0xe7a>
    2b84:	89 d0                	mov    %edx,%eax
    2b86:	89 da                	mov    %ebx,%edx
    2b88:	89 c3                	mov    %eax,%ebx
    2b8a:	8b 87 20 10 00 00    	mov    0x1020(%edi),%eax
    2b90:	89 55 80             	mov    %edx,-0x80(%ebp)
    2b93:	29 d8                	sub    %ebx,%eax
    2b95:	c1 e0 02             	shl    $0x2,%eax
    2b98:	89 44 24 08          	mov    %eax,0x8(%esp)
    2b9c:	8d 44 9f 0c          	lea    0xc(%edi,%ebx,4),%eax
    2ba0:	89 44 24 04          	mov    %eax,0x4(%esp)
    2ba4:	8d 44 97 0c          	lea    0xc(%edi,%edx,4),%eax
    2ba8:	89 04 24             	mov    %eax,(%esp)
    2bab:	e8 80 13 00 00       	call   3f30 <memmove>
    2bb0:	8b 55 80             	mov    -0x80(%ebp),%edx
    2bb3:	8b 87 20 10 00 00    	mov    0x1020(%edi),%eax
    2bb9:	89 d9                	mov    %ebx,%ecx
    2bbb:	01 d0                	add    %edx,%eax
    2bbd:	89 97 28 10 00 00    	mov    %edx,0x1028(%edi)
    2bc3:	29 d8                	sub    %ebx,%eax
    2bc5:	89 97 24 10 00 00    	mov    %edx,0x1024(%edi)
    2bcb:	89 87 20 10 00 00    	mov    %eax,0x1020(%edi)
    2bd1:	29 d1                	sub    %edx,%ecx
    2bd3:	c7 44 87 0c 00 00 00 	movl   $0x0,0xc(%edi,%eax,4)
    2bda:	00 
    2bdb:	eb 93                	jmp    2b70 <tinput_read+0xe60>
    2bdd:	83 c8 ff             	or     $0xffffffff,%eax
    2be0:	e9 96 f4 ff ff       	jmp    207b <tinput_read+0x36b>
    2be5:	8d 44 87 0c          	lea    0xc(%edi,%eax,4),%eax
    2be9:	8b 54 9f 0c          	mov    0xc(%edi,%ebx,4),%edx
    2bed:	c7 44 9f 0c 00 00 00 	movl   $0x0,0xc(%edi,%ebx,4)
    2bf4:	00 
    2bf5:	89 04 24             	mov    %eax,(%esp)
    2bf8:	89 55 80             	mov    %edx,-0x80(%ebp)
    2bfb:	e8 90 34 00 00       	call   6090 <wstr_to_astr>
    2c00:	8b 55 80             	mov    -0x80(%ebp),%edx
    2c03:	89 c6                	mov    %eax,%esi
    2c05:	89 54 9f 0c          	mov    %edx,0xc(%edi,%ebx,4)
    2c09:	e9 11 fe ff ff       	jmp    2a1f <tinput_read+0xd0f>
    2c0e:	8d 44 87 0c          	lea    0xc(%edi,%eax,4),%eax
    2c12:	8b 54 9f 0c          	mov    0xc(%edi,%ebx,4),%edx
    2c16:	c7 44 9f 0c 00 00 00 	movl   $0x0,0xc(%edi,%ebx,4)
    2c1d:	00 
    2c1e:	89 04 24             	mov    %eax,(%esp)
    2c21:	89 55 80             	mov    %edx,-0x80(%ebp)
    2c24:	e8 67 34 00 00       	call   6090 <wstr_to_astr>
    2c29:	8b 55 80             	mov    -0x80(%ebp),%edx
    2c2c:	89 c6                	mov    %eax,%esi
    2c2e:	89 54 9f 0c          	mov    %edx,0xc(%edi,%ebx,4)
    2c32:	e9 30 fd ff ff       	jmp    2967 <tinput_read+0xc57>
    2c37:	89 d8                	mov    %ebx,%eax
    2c39:	89 f3                	mov    %esi,%ebx
    2c3b:	89 c6                	mov    %eax,%esi
    2c3d:	e9 7e fb ff ff       	jmp    27c0 <tinput_read+0xab0>
    2c42:	89 d8                	mov    %ebx,%eax
    2c44:	89 f3                	mov    %esi,%ebx
    2c46:	89 c6                	mov    %eax,%esi
    2c48:	e9 d6 fe ff ff       	jmp    2b23 <tinput_read+0xe13>
    2c4d:	c7 87 24 10 00 00 00 	movl   $0x0,0x1024(%edi)
    2c54:	00 00 00 
    2c57:	e9 45 fb ff ff       	jmp    27a1 <tinput_read+0xa91>
    2c5c:	8b 45 a4             	mov    -0x5c(%ebp),%eax
    2c5f:	8b 55 ac             	mov    -0x54(%ebp),%edx
    2c62:	c7 45 b0 00 00 00 00 	movl   $0x0,-0x50(%ebp)
    2c69:	8b 34 90             	mov    (%eax,%edx,4),%esi
    2c6c:	8b 18                	mov    (%eax),%ebx
    2c6e:	c7 45 c8 00 00 00 00 	movl   $0x0,-0x38(%ebp)
    2c75:	c7 45 cc 00 00 00 00 	movl   $0x0,-0x34(%ebp)
    2c7c:	eb 19                	jmp    2c97 <tinput_read+0xf87>
    2c7e:	66 90                	xchg   %ax,%ax
    2c80:	85 ff                	test   %edi,%edi
    2c82:	0f 84 ff f6 ff ff    	je     2387 <tinput_read+0x677>
    2c88:	39 c7                	cmp    %eax,%edi
    2c8a:	0f 85 f7 f6 ff ff    	jne    2387 <tinput_read+0x677>
    2c90:	8b 7d b0             	mov    -0x50(%ebp),%edi
    2c93:	47                   	inc    %edi
    2c94:	89 7d b0             	mov    %edi,-0x50(%ebp)
    2c97:	8d 55 c8             	lea    -0x38(%ebp),%edx
    2c9a:	c7 44 24 08 ff ff ff 	movl   $0xffffffff,0x8(%esp)
    2ca1:	ff 
    2ca2:	89 54 24 04          	mov    %edx,0x4(%esp)
    2ca6:	89 1c 24             	mov    %ebx,(%esp)
    2ca9:	e8 62 1a 00 00       	call   4710 <str_decode>
    2cae:	8d 4d cc             	lea    -0x34(%ebp),%ecx
    2cb1:	c7 44 24 08 ff ff ff 	movl   $0xffffffff,0x8(%esp)
    2cb8:	ff 
    2cb9:	89 4c 24 04          	mov    %ecx,0x4(%esp)
    2cbd:	89 34 24             	mov    %esi,(%esp)
    2cc0:	89 c7                	mov    %eax,%edi
    2cc2:	e8 49 1a 00 00       	call   4710 <str_decode>
    2cc7:	85 c0                	test   %eax,%eax
    2cc9:	75 b5                	jne    2c80 <tinput_read+0xf70>
    2ccb:	e9 b7 f6 ff ff       	jmp    2387 <tinput_read+0x677>
    2cd0:	c7 87 24 10 00 00 00 	movl   $0x0,0x1024(%edi)
    2cd7:	00 00 00 
    2cda:	e9 03 f4 ff ff       	jmp    20e2 <tinput_read+0x3d2>
    2cdf:	c7 04 24 75 0a 02 00 	movl   $0x20a75,(%esp)
    2ce6:	e8 c5 90 00 00       	call   bdb0 <printf>
    2ceb:	e9 f1 f5 ff ff       	jmp    22e1 <tinput_read+0x5d1>
    2cf0:	8b 45 a8             	mov    -0x58(%ebp),%eax
    2cf3:	c7 44 24 10 00 00 00 	movl   $0x0,0x10(%esp)
    2cfa:	00 
    2cfb:	c7 44 24 0c 60 15 00 	movl   $0x1560,0xc(%esp)
    2d02:	00 
    2d03:	c7 44 24 08 04 00 00 	movl   $0x4,0x8(%esp)
    2d0a:	00 
    2d0b:	89 44 24 04          	mov    %eax,0x4(%esp)
    2d0f:	89 34 24             	mov    %esi,(%esp)
    2d12:	e8 b9 96 01 00       	call   1c3d0 <qsort>
    2d17:	8b 8f 14 10 00 00    	mov    0x1014(%edi),%ecx
    2d1d:	8b 87 20 10 00 00    	mov    0x1020(%edi),%eax
    2d23:	31 d2                	xor    %edx,%edx
    2d25:	01 c8                	add    %ecx,%eax
    2d27:	31 db                	xor    %ebx,%ebx
    2d29:	f7 b7 18 10 00 00    	divl   0x1018(%edi)
    2d2f:	89 54 24 04          	mov    %edx,0x4(%esp)
    2d33:	89 44 24 08          	mov    %eax,0x8(%esp)
    2d37:	8b 07                	mov    (%edi),%eax
    2d39:	89 04 24             	mov    %eax,(%esp)
    2d3c:	e8 ef c1 00 00       	call   ef30 <console_set_pos>
    2d41:	8b 07                	mov    (%edi),%eax
    2d43:	89 04 24             	mov    %eax,(%esp)
    2d46:	e8 55 bd 00 00       	call   eaa0 <console_flush>
    2d4b:	c7 04 24 0a 00 00 00 	movl   $0xa,(%esp)
    2d52:	e8 99 8d 00 00       	call   baf0 <putchar>
    2d57:	31 d2                	xor    %edx,%edx
    2d59:	89 7d b4             	mov    %edi,-0x4c(%ebp)
    2d5c:	89 d7                	mov    %edx,%edi
    2d5e:	eb 06                	jmp    2d66 <tinput_read+0x1056>
    2d60:	47                   	inc    %edi
    2d61:	3b 7d a8             	cmp    -0x58(%ebp),%edi
    2d64:	74 1e                	je     2d84 <tinput_read+0x1074>
    2d66:	8b 04 be             	mov    (%esi,%edi,4),%eax
    2d69:	89 04 24             	mov    %eax,(%esp)
    2d6c:	e8 0f 22 00 00       	call   4f80 <str_width>
    2d71:	39 d8                	cmp    %ebx,%eax
    2d73:	72 eb                	jb     2d60 <tinput_read+0x1050>
    2d75:	8b 04 be             	mov    (%esi,%edi,4),%eax
    2d78:	89 04 24             	mov    %eax,(%esp)
    2d7b:	e8 00 22 00 00       	call   4f80 <str_width>
    2d80:	89 c3                	mov    %eax,%ebx
    2d82:	eb dc                	jmp    2d60 <tinput_read+0x1050>
    2d84:	8b 7d b4             	mov    -0x4c(%ebp),%edi
    2d87:	31 d2                	xor    %edx,%edx
    2d89:	8b 8f 18 10 00 00    	mov    0x1018(%edi),%ecx
    2d8f:	89 4d ac             	mov    %ecx,-0x54(%ebp)
    2d92:	41                   	inc    %ecx
    2d93:	89 4d b0             	mov    %ecx,-0x50(%ebp)
    2d96:	8d 4b 01             	lea    0x1(%ebx),%ecx
    2d99:	8b 45 b0             	mov    -0x50(%ebp),%eax
    2d9c:	f7 f1                	div    %ecx
    2d9e:	89 45 a4             	mov    %eax,-0x5c(%ebp)
    2da1:	85 c0                	test   %eax,%eax
    2da3:	0f 84 75 01 00 00    	je     2f1e <tinput_read+0x120e>
    2da9:	31 d2                	xor    %edx,%edx
    2dab:	8b 45 a8             	mov    -0x58(%ebp),%eax
    2dae:	f7 75 a4             	divl   -0x5c(%ebp)
    2db1:	85 d2                	test   %edx,%edx
    2db3:	0f 95 c2             	setne  %dl
    2db6:	81 e2 ff 00 00 00    	and    $0xff,%edx
    2dbc:	89 55 b4             	mov    %edx,-0x4c(%ebp)
    2dbf:	8b 55 a4             	mov    -0x5c(%ebp),%edx
    2dc2:	31 c0                	xor    %eax,%eax
    2dc4:	0f af d1             	imul   %ecx,%edx
    2dc7:	4a                   	dec    %edx
    2dc8:	39 55 ac             	cmp    %edx,-0x54(%ebp)
    2dcb:	76 10                	jbe    2ddd <tinput_read+0x10cd>
    2dcd:	8b 55 a4             	mov    -0x5c(%ebp),%edx
    2dd0:	8b 45 b0             	mov    -0x50(%ebp),%eax
    2dd3:	29 d0                	sub    %edx,%eax
    2dd5:	8b 55 a4             	mov    -0x5c(%ebp),%edx
    2dd8:	0f af d3             	imul   %ebx,%edx
    2ddb:	29 d0                	sub    %edx,%eax
    2ddd:	31 d2                	xor    %edx,%edx
    2ddf:	8b 4d a4             	mov    -0x5c(%ebp),%ecx
    2de2:	f7 75 a4             	divl   -0x5c(%ebp)
    2de5:	01 d8                	add    %ebx,%eax
    2de7:	49                   	dec    %ecx
    2de8:	89 45 98             	mov    %eax,-0x68(%ebp)
    2deb:	31 d2                	xor    %edx,%edx
    2ded:	8b 45 a8             	mov    -0x58(%ebp),%eax
    2df0:	89 4d 94             	mov    %ecx,-0x6c(%ebp)
    2df3:	f7 75 a4             	divl   -0x5c(%ebp)
    2df6:	8b 4d 98             	mov    -0x68(%ebp),%ecx
    2df9:	c7 45 8c 00 00 00 00 	movl   $0x0,-0x74(%ebp)
    2e00:	41                   	inc    %ecx
    2e01:	03 45 b4             	add    -0x4c(%ebp),%eax
    2e04:	89 4d 88             	mov    %ecx,-0x78(%ebp)
    2e07:	89 45 9c             	mov    %eax,-0x64(%ebp)
    2e0a:	0f 84 cd 00 00 00    	je     2edd <tinput_read+0x11cd>
    2e10:	89 7d 84             	mov    %edi,-0x7c(%ebp)
    2e13:	89 f7                	mov    %esi,%edi
    2e15:	8b 75 8c             	mov    -0x74(%ebp),%esi
    2e18:	c7 45 b0 00 00 00 00 	movl   $0x0,-0x50(%ebp)
    2e1f:	c7 45 b4 00 00 00 00 	movl   $0x0,-0x4c(%ebp)
    2e26:	39 75 a8             	cmp    %esi,-0x58(%ebp)
    2e29:	0f 86 88 00 00 00    	jbe    2eb7 <tinput_read+0x11a7>
    2e2f:	8b 45 b4             	mov    -0x4c(%ebp),%eax
    2e32:	85 c0                	test   %eax,%eax
    2e34:	0f 85 be 00 00 00    	jne    2ef8 <tinput_read+0x11e8>
    2e3a:	8b 04 b7             	mov    (%edi,%esi,4),%eax
    2e3d:	c7 04 24 72 0a 02 00 	movl   $0x20a72,(%esp)
    2e44:	89 44 24 04          	mov    %eax,0x4(%esp)
    2e48:	e8 63 8f 00 00       	call   bdb0 <printf>
    2e4d:	8b 04 b7             	mov    (%edi,%esi,4),%eax
    2e50:	89 04 24             	mov    %eax,(%esp)
    2e53:	e8 28 21 00 00       	call   4f80 <str_width>
    2e58:	8b 5d b0             	mov    -0x50(%ebp),%ebx
    2e5b:	01 c3                	add    %eax,%ebx
    2e5d:	8b 4d 94             	mov    -0x6c(%ebp),%ecx
    2e60:	89 45 ac             	mov    %eax,-0x54(%ebp)
    2e63:	89 5d b0             	mov    %ebx,-0x50(%ebp)
    2e66:	39 4d b4             	cmp    %ecx,-0x4c(%ebp)
    2e69:	73 34                	jae    2e9f <tinput_read+0x118f>
    2e6b:	39 45 98             	cmp    %eax,-0x68(%ebp)
    2e6e:	76 2f                	jbe    2e9f <tinput_read+0x118f>
    2e70:	89 75 90             	mov    %esi,-0x70(%ebp)
    2e73:	89 c3                	mov    %eax,%ebx
    2e75:	8b 75 98             	mov    -0x68(%ebp),%esi
    2e78:	c7 04 24 4f 0d 02 00 	movl   $0x20d4f,(%esp)
    2e7f:	43                   	inc    %ebx
    2e80:	e8 2b 8f 00 00       	call   bdb0 <printf>
    2e85:	39 de                	cmp    %ebx,%esi
    2e87:	77 ef                	ja     2e78 <tinput_read+0x1168>
    2e89:	8b 45 ac             	mov    -0x54(%ebp),%eax
    2e8c:	8b 55 88             	mov    -0x78(%ebp),%edx
    2e8f:	83 f0 ff             	xor    $0xffffffff,%eax
    2e92:	8b 4d b0             	mov    -0x50(%ebp),%ecx
    2e95:	01 d0                	add    %edx,%eax
    2e97:	8b 75 90             	mov    -0x70(%ebp),%esi
    2e9a:	01 c1                	add    %eax,%ecx
    2e9c:	89 4d b0             	mov    %ecx,-0x50(%ebp)
    2e9f:	8b 45 b4             	mov    -0x4c(%ebp),%eax
    2ea2:	40                   	inc    %eax
    2ea3:	89 45 b4             	mov    %eax,-0x4c(%ebp)
    2ea6:	8b 45 9c             	mov    -0x64(%ebp),%eax
    2ea9:	8b 55 b4             	mov    -0x4c(%ebp),%edx
    2eac:	01 c6                	add    %eax,%esi
    2eae:	39 55 a4             	cmp    %edx,-0x5c(%ebp)
    2eb1:	0f 87 6f ff ff ff    	ja     2e26 <tinput_read+0x1116>
    2eb7:	8b 4d a0             	mov    -0x60(%ebp),%ecx
    2eba:	31 d2                	xor    %edx,%edx
    2ebc:	8b 45 b0             	mov    -0x50(%ebp),%eax
    2ebf:	f7 31                	divl   (%ecx)
    2ec1:	85 d2                	test   %edx,%edx
    2ec3:	75 4b                	jne    2f10 <tinput_read+0x1200>
    2ec5:	8b 5d 8c             	mov    -0x74(%ebp),%ebx
    2ec8:	8b 4d 9c             	mov    -0x64(%ebp),%ecx
    2ecb:	43                   	inc    %ebx
    2ecc:	89 5d 8c             	mov    %ebx,-0x74(%ebp)
    2ecf:	39 4d 8c             	cmp    %ecx,-0x74(%ebp)
    2ed2:	0f 85 3d ff ff ff    	jne    2e15 <tinput_read+0x1105>
    2ed8:	89 fe                	mov    %edi,%esi
    2eda:	8b 7d 84             	mov    -0x7c(%ebp),%edi
    2edd:	a1 b8 3a 02 00       	mov    0x23ab8,%eax
    2ee2:	89 04 24             	mov    %eax,(%esp)
    2ee5:	e8 46 82 00 00       	call   b130 <fflush>
    2eea:	89 f8                	mov    %edi,%eax
    2eec:	e8 5f eb ff ff       	call   1a50 <tinput_display>
    2ef1:	e9 04 f5 ff ff       	jmp    23fa <tinput_read+0x6ea>
    2ef6:	66 90                	xchg   %ax,%ax
    2ef8:	c7 04 24 4f 0d 02 00 	movl   $0x20d4f,(%esp)
    2eff:	e8 ac 8e 00 00       	call   bdb0 <printf>
    2f04:	8b 45 b0             	mov    -0x50(%ebp),%eax
    2f07:	40                   	inc    %eax
    2f08:	89 45 b0             	mov    %eax,-0x50(%ebp)
    2f0b:	e9 2a ff ff ff       	jmp    2e3a <tinput_read+0x112a>
    2f10:	c7 04 24 5b 22 02 00 	movl   $0x2225b,(%esp)
    2f17:	e8 94 8e 00 00       	call   bdb0 <printf>
    2f1c:	eb a7                	jmp    2ec5 <tinput_read+0x11b5>
    2f1e:	c7 45 b4 00 00 00 00 	movl   $0x0,-0x4c(%ebp)
    2f25:	c7 45 a4 01 00 00 00 	movl   $0x1,-0x5c(%ebp)
    2f2c:	e9 8e fe ff ff       	jmp    2dbf <tinput_read+0x10af>
    2f31:	74 21                	je     2f54 <tinput_read+0x1244>
    2f33:	8b 5d a8             	mov    -0x58(%ebp),%ebx
    2f36:	85 db                	test   %ebx,%ebx
    2f38:	0f 85 bc f4 ff ff    	jne    23fa <tinput_read+0x6ea>
    2f3e:	e9 ca f4 ff ff       	jmp    240d <tinput_read+0x6fd>
    2f43:	c7 04 24 75 0a 02 00 	movl   $0x20a75,(%esp)
    2f4a:	e8 61 8e 00 00       	call   bdb0 <printf>
    2f4f:	e9 b4 ee ff ff       	jmp    1e08 <tinput_read+0xf8>
    2f54:	8b 87 24 10 00 00    	mov    0x1024(%edi),%eax
    2f5a:	8b 55 c0             	mov    -0x40(%ebp),%edx
    2f5d:	29 d0                	sub    %edx,%eax
    2f5f:	89 44 24 04          	mov    %eax,0x4(%esp)
    2f63:	8b 06                	mov    (%esi),%eax
    2f65:	89 04 24             	mov    %eax,(%esp)
    2f68:	e8 23 1c 00 00       	call   4b90 <str_lsize>
    2f6d:	8b 0e                	mov    (%esi),%ecx
    2f6f:	01 c8                	add    %ecx,%eax
    2f71:	89 c2                	mov    %eax,%edx
    2f73:	89 f8                	mov    %edi,%eax
    2f75:	e8 f6 e7 ff ff       	call   1770 <tinput_insert_string>
    2f7a:	e9 7b f4 ff ff       	jmp    23fa <tinput_read+0x6ea>
    2f7f:	90                   	nop

00002f80 <exit>:
    2f80:	55                   	push   %ebp
    2f81:	89 e5                	mov    %esp,%ebp
    2f83:	83 ec 28             	sub    $0x28,%esp
    2f86:	80 3d a0 3a 02 00 00 	cmpb   $0x0,0x23aa0
    2f8d:	75 3f                	jne    2fce <exit+0x4e>
    2f8f:	c7 44 24 18 0a 00 00 	movl   $0xa,0x18(%esp)
    2f96:	00 
    2f97:	c7 44 24 14 00 00 00 	movl   $0x0,0x14(%esp)
    2f9e:	00 
    2f9f:	c7 44 24 10 00 00 00 	movl   $0x0,0x10(%esp)
    2fa6:	00 
    2fa7:	c7 44 24 0c 00 00 00 	movl   $0x0,0xc(%esp)
    2fae:	00 
    2faf:	c7 44 24 08 00 00 00 	movl   $0x0,0x8(%esp)
    2fb6:	00 
    2fb7:	c7 44 24 04 00 00 00 	movl   $0x0,0x4(%esp)
    2fbe:	00 
    2fbf:	c7 04 24 00 00 00 00 	movl   $0x0,(%esp)
    2fc6:	ff 15 d0 39 02 00    	call   *0x239d0
    2fcc:	eb fe                	jmp    2fcc <exit+0x4c>
    2fce:	e8 7d 6c 00 00       	call   9c50 <__stdio_done>
    2fd3:	8b 45 08             	mov    0x8(%ebp),%eax
    2fd6:	89 04 24             	mov    %eax,(%esp)
    2fd9:	e8 92 67 00 00       	call   9770 <task_retval>
    2fde:	65 a1 00 00 00 00    	mov    %gs:0x0,%eax
    2fe4:	8b 40 04             	mov    0x4(%eax),%eax
    2fe7:	89 04 24             	mov    %eax,(%esp)
    2fea:	e8 71 45 00 00       	call   7560 <fibril_teardown>
    2fef:	eb 9e                	jmp    2f8f <exit+0xf>
    2ff1:	eb 0d                	jmp    3000 <abort>
    2ff3:	90                   	nop
    2ff4:	90                   	nop
    2ff5:	90                   	nop
    2ff6:	90                   	nop
    2ff7:	90                   	nop
    2ff8:	90                   	nop
    2ff9:	90                   	nop
    2ffa:	90                   	nop
    2ffb:	90                   	nop
    2ffc:	90                   	nop
    2ffd:	90                   	nop
    2ffe:	90                   	nop
    2fff:	90                   	nop

00003000 <abort>:
    3000:	55                   	push   %ebp
    3001:	89 e5                	mov    %esp,%ebp
    3003:	83 ec 28             	sub    $0x28,%esp
    3006:	c7 44 24 18 0a 00 00 	movl   $0xa,0x18(%esp)
    300d:	00 
    300e:	c7 44 24 14 00 00 00 	movl   $0x0,0x14(%esp)
    3015:	00 
    3016:	c7 44 24 10 00 00 00 	movl   $0x0,0x10(%esp)
    301d:	00 
    301e:	c7 44 24 0c 00 00 00 	movl   $0x0,0xc(%esp)
    3025:	00 
    3026:	c7 44 24 08 00 00 00 	movl   $0x0,0x8(%esp)
    302d:	00 
    302e:	c7 44 24 04 00 00 00 	movl   $0x0,0x4(%esp)
    3035:	00 
    3036:	c7 04 24 01 00 00 00 	movl   $0x1,(%esp)
    303d:	ff 15 d0 39 02 00    	call   *0x239d0
    3043:	eb fe                	jmp    3043 <abort+0x43>
    3045:	8d 74 26 00          	lea    0x0(%esi,%eiz,1),%esi
    3049:	8d bc 27 00 00 00 00 	lea    0x0(%edi,%eiz,1),%edi

00003050 <__main>:
    3050:	55                   	push   %ebp
    3051:	89 e5                	mov    %esp,%ebp
    3053:	57                   	push   %edi
    3054:	56                   	push   %esi
    3055:	53                   	push   %ebx
    3056:	83 ec 2c             	sub    $0x2c,%esp
    3059:	8b 5d 08             	mov    0x8(%ebp),%ebx
    305c:	e8 ff e2 00 00       	call   11360 <__malloc_init>
    3061:	e8 7a 05 01 00       	call   135e0 <__async_init>
    3066:	e8 75 44 00 00       	call   74e0 <fibril_setup>
    306b:	85 c0                	test   %eax,%eax
    306d:	0f 84 82 00 00 00    	je     30f5 <__main+0xa5>
    3073:	c7 44 24 18 01 00 00 	movl   $0x1,0x18(%esp)
    307a:	00 
    307b:	c7 44 24 14 00 00 00 	movl   $0x0,0x14(%esp)
    3082:	00 
    3083:	c7 44 24 10 00 00 00 	movl   $0x0,0x10(%esp)
    308a:	00 
    308b:	c7 44 24 0c 00 00 00 	movl   $0x0,0xc(%esp)
    3092:	00 
    3093:	c7 44 24 08 00 00 00 	movl   $0x0,0x8(%esp)
    309a:	00 
    309b:	c7 44 24 04 00 00 00 	movl   $0x0,0x4(%esp)
    30a2:	00 
    30a3:	8b 40 30             	mov    0x30(%eax),%eax
    30a6:	89 04 24             	mov    %eax,(%esp)
    30a9:	ff 15 d0 39 02 00    	call   *0x239d0
    30af:	89 1d 40 3a 02 00    	mov    %ebx,0x23a40
    30b5:	c6 05 a0 3a 02 00 01 	movb   $0x1,0x23aa0
    30bc:	85 db                	test   %ebx,%ebx
    30be:	74 3a                	je     30fa <__main+0xaa>
    30c0:	8b 43 10             	mov    0x10(%ebx),%eax
    30c3:	8b 73 08             	mov    0x8(%ebx),%esi
    30c6:	8b 7b 0c             	mov    0xc(%ebx),%edi
    30c9:	89 04 24             	mov    %eax,(%esp)
    30cc:	e8 ef 68 00 00       	call   99c0 <__stdio_init>
    30d1:	a1 40 3a 02 00       	mov    0x23a40,%eax
    30d6:	8b 40 04             	mov    0x4(%eax),%eax
    30d9:	89 04 24             	mov    %eax,(%esp)
    30dc:	e8 5f 83 01 00       	call   1b440 <chdir>
    30e1:	89 7c 24 04          	mov    %edi,0x4(%esp)
    30e5:	89 34 24             	mov    %esi,(%esp)
    30e8:	e8 33 e2 ff ff       	call   1320 <main>
    30ed:	89 04 24             	mov    %eax,(%esp)
    30f0:	e8 8b fe ff ff       	call   2f80 <exit>
    30f5:	e8 06 ff ff ff       	call   3000 <abort>
    30fa:	c7 04 24 00 00 00 00 	movl   $0x0,(%esp)
    3101:	31 ff                	xor    %edi,%edi
    3103:	e8 b8 68 00 00       	call   99c0 <__stdio_init>
    3108:	31 f6                	xor    %esi,%esi
    310a:	eb d5                	jmp    30e1 <__main+0x91>
    310c:	66 90                	xchg   %ax,%ax
    310e:	66 90                	xchg   %ax,%ax

00003110 <device_assign_devno>:
    3110:	55                   	push   %ebp
    3111:	89 e5                	mov    %esp,%ebp
    3113:	83 ec 28             	sub    $0x28,%esp
    3116:	c7 44 24 18 22 00 00 	movl   $0x22,0x18(%esp)
    311d:	00 
    311e:	c7 44 24 14 00 00 00 	movl   $0x0,0x14(%esp)
    3125:	00 
    3126:	c7 44 24 10 00 00 00 	movl   $0x0,0x10(%esp)
    312d:	00 
    312e:	c7 44 24 0c 00 00 00 	movl   $0x0,0xc(%esp)
    3135:	00 
    3136:	c7 44 24 08 00 00 00 	movl   $0x0,0x8(%esp)
    313d:	00 
    313e:	c7 44 24 04 00 00 00 	movl   $0x0,0x4(%esp)
    3145:	00 
    3146:	c7 04 24 00 00 00 00 	movl   $0x0,(%esp)
    314d:	ff 15 d0 39 02 00    	call   *0x239d0
    3153:	c9                   	leave  
    3154:	c3                   	ret    
    3155:	8d 74 26 00          	lea    0x0(%esi,%eiz,1),%esi
    3159:	8d bc 27 00 00 00 00 	lea    0x0(%edi,%eiz,1),%edi

00003160 <physmem_map>:
    3160:	55                   	push   %ebp
    3161:	89 e5                	mov    %esp,%ebp
    3163:	83 ec 28             	sub    $0x28,%esp
    3166:	8b 45 14             	mov    0x14(%ebp),%eax
    3169:	c7 44 24 18 23 00 00 	movl   $0x23,0x18(%esp)
    3170:	00 
    3171:	89 44 24 0c          	mov    %eax,0xc(%esp)
    3175:	8b 45 10             	mov    0x10(%ebp),%eax
    3178:	89 44 24 08          	mov    %eax,0x8(%esp)
    317c:	8b 45 0c             	mov    0xc(%ebp),%eax
    317f:	89 44 24 04          	mov    %eax,0x4(%esp)
    3183:	8b 45 08             	mov    0x8(%ebp),%eax
    3186:	c7 44 24 14 00 00 00 	movl   $0x0,0x14(%esp)
    318d:	00 
    318e:	c7 44 24 10 94 10 00 	movl   $0x1094,0x10(%esp)
    3195:	00 
    3196:	89 04 24             	mov    %eax,(%esp)
    3199:	e8 32 95 01 00       	call   1c6d0 <__syscall_slow>
    319e:	c9                   	leave  
    319f:	c3                   	ret    

000031a0 <dmamem_map>:
    31a0:	55                   	push   %ebp
    31a1:	89 e5                	mov    %esp,%ebp
    31a3:	83 ec 28             	sub    $0x28,%esp
    31a6:	8b 45 14             	mov    0x14(%ebp),%eax
    31a9:	8b 55 08             	mov    0x8(%ebp),%edx
    31ac:	83 e0 fe             	and    $0xfffffffe,%eax
    31af:	89 54 24 10          	mov    %edx,0x10(%esp)
    31b3:	89 44 24 08          	mov    %eax,0x8(%esp)
    31b7:	8b 45 10             	mov    0x10(%ebp),%eax
    31ba:	8b 55 18             	mov    0x18(%ebp),%edx
    31bd:	89 44 24 04          	mov    %eax,0x4(%esp)
    31c1:	8b 45 0c             	mov    0xc(%ebp),%eax
    31c4:	c7 44 24 18 25 00 00 	movl   $0x25,0x18(%esp)
    31cb:	00 
    31cc:	c7 44 24 14 00 00 00 	movl   $0x0,0x14(%esp)
    31d3:	00 
    31d4:	89 54 24 0c          	mov    %edx,0xc(%esp)
    31d8:	89 04 24             	mov    %eax,(%esp)
    31db:	e8 f0 94 01 00       	call   1c6d0 <__syscall_slow>
    31e0:	c9                   	leave  
    31e1:	c3                   	ret    
    31e2:	8d b4 26 00 00 00 00 	lea    0x0(%esi,%eiz,1),%esi
    31e9:	8d bc 27 00 00 00 00 	lea    0x0(%edi,%eiz,1),%edi

000031f0 <dmamem_map_anonymous>:
    31f0:	55                   	push   %ebp
    31f1:	89 e5                	mov    %esp,%ebp
    31f3:	83 ec 28             	sub    $0x28,%esp
    31f6:	8b 45 10             	mov    0x10(%ebp),%eax
    31f9:	8b 55 18             	mov    0x18(%ebp),%edx
    31fc:	83 c8 01             	or     $0x1,%eax
    31ff:	89 54 24 10          	mov    %edx,0x10(%esp)
    3203:	89 44 24 08          	mov    %eax,0x8(%esp)
    3207:	8b 45 0c             	mov    0xc(%ebp),%eax
    320a:	8b 55 14             	mov    0x14(%ebp),%edx
    320d:	89 44 24 04          	mov    %eax,0x4(%esp)
    3211:	8b 45 08             	mov    0x8(%ebp),%eax
    3214:	c7 44 24 18 25 00 00 	movl   $0x25,0x18(%esp)
    321b:	00 
    321c:	c7 44 24 14 94 10 00 	movl   $0x1094,0x14(%esp)
    3223:	00 
    3224:	89 54 24 0c          	mov    %edx,0xc(%esp)
    3228:	89 04 24             	mov    %eax,(%esp)
    322b:	e8 a0 94 01 00       	call   1c6d0 <__syscall_slow>
    3230:	c9                   	leave  
    3231:	c3                   	ret    
    3232:	8d b4 26 00 00 00 00 	lea    0x0(%esi,%eiz,1),%esi
    3239:	8d bc 27 00 00 00 00 	lea    0x0(%edi,%eiz,1),%edi

00003240 <dmamem_unmap>:
    3240:	55                   	push   %ebp
    3241:	89 e5                	mov    %esp,%ebp
    3243:	83 ec 28             	sub    $0x28,%esp
    3246:	8b 45 0c             	mov    0xc(%ebp),%eax
    3249:	c7 44 24 18 26 00 00 	movl   $0x26,0x18(%esp)
    3250:	00 
    3251:	89 44 24 04          	mov    %eax,0x4(%esp)
    3255:	8b 45 08             	mov    0x8(%ebp),%eax
    3258:	c7 44 24 14 00 00 00 	movl   $0x0,0x14(%esp)
    325f:	00 
    3260:	c7 44 24 10 00 00 00 	movl   $0x0,0x10(%esp)
    3267:	00 
    3268:	c7 44 24 0c 00 00 00 	movl   $0x0,0xc(%esp)
    326f:	00 
    3270:	c7 44 24 08 00 00 00 	movl   $0x0,0x8(%esp)
    3277:	00 
    3278:	89 04 24             	mov    %eax,(%esp)
    327b:	ff 15 d0 39 02 00    	call   *0x239d0
    3281:	c9                   	leave  
    3282:	c3                   	ret    
    3283:	8d b6 00 00 00 00    	lea    0x0(%esi),%esi
    3289:	8d bc 27 00 00 00 00 	lea    0x0(%edi,%eiz,1),%edi

00003290 <dmamem_unmap_anonymous>:
    3290:	55                   	push   %ebp
    3291:	89 e5                	mov    %esp,%ebp
    3293:	83 ec 28             	sub    $0x28,%esp
    3296:	8b 45 08             	mov    0x8(%ebp),%eax
    3299:	c7 44 24 18 26 00 00 	movl   $0x26,0x18(%esp)
    32a0:	00 
    32a1:	c7 44 24 14 00 00 00 	movl   $0x0,0x14(%esp)
    32a8:	00 
    32a9:	c7 44 24 10 00 00 00 	movl   $0x0,0x10(%esp)
    32b0:	00 
    32b1:	c7 44 24 0c 00 00 00 	movl   $0x0,0xc(%esp)
    32b8:	00 
    32b9:	c7 44 24 08 01 00 00 	movl   $0x1,0x8(%esp)
    32c0:	00 
    32c1:	c7 44 24 04 00 00 00 	movl   $0x0,0x4(%esp)
    32c8:	00 
    32c9:	89 04 24             	mov    %eax,(%esp)
    32cc:	ff 15 d0 39 02 00    	call   *0x239d0
    32d2:	c9                   	leave  
    32d3:	c3                   	ret    
    32d4:	8d b6 00 00 00 00    	lea    0x0(%esi),%esi
    32da:	8d bf 00 00 00 00    	lea    0x0(%edi),%edi

000032e0 <pio_enable>:
    32e0:	55                   	push   %ebp
    32e1:	89 e5                	mov    %esp,%ebp
    32e3:	56                   	push   %esi
    32e4:	53                   	push   %ebx
    32e5:	83 ec 40             	sub    $0x40,%esp
    32e8:	8b 5d 08             	mov    0x8(%ebp),%ebx
    32eb:	8b 75 10             	mov    0x10(%ebp),%esi
    32ee:	81 fb ff ff 00 00    	cmp    $0xffff,%ebx
    32f4:	77 62                	ja     3358 <pio_enable+0x78>
    32f6:	85 f6                	test   %esi,%esi
    32f8:	74 02                	je     32fc <pio_enable+0x1c>
    32fa:	89 1e                	mov    %ebx,(%esi)
    32fc:	e8 df 5e 00 00       	call   91e0 <task_get_id>
    3301:	89 5d f0             	mov    %ebx,-0x10(%ebp)
    3304:	89 45 e8             	mov    %eax,-0x18(%ebp)
    3307:	8b 45 0c             	mov    0xc(%ebp),%eax
    330a:	89 45 f4             	mov    %eax,-0xc(%ebp)
    330d:	8d 45 e8             	lea    -0x18(%ebp),%eax
    3310:	89 55 ec             	mov    %edx,-0x14(%ebp)
    3313:	c7 44 24 18 27 00 00 	movl   $0x27,0x18(%esp)
    331a:	00 
    331b:	c7 44 24 14 00 00 00 	movl   $0x0,0x14(%esp)
    3322:	00 
    3323:	c7 44 24 10 00 00 00 	movl   $0x0,0x10(%esp)
    332a:	00 
    332b:	c7 44 24 0c 00 00 00 	movl   $0x0,0xc(%esp)
    3332:	00 
    3333:	c7 44 24 08 00 00 00 	movl   $0x0,0x8(%esp)
    333a:	00 
    333b:	c7 44 24 04 00 00 00 	movl   $0x0,0x4(%esp)
    3342:	00 
    3343:	89 04 24             	mov    %eax,(%esp)
    3346:	ff 15 d0 39 02 00    	call   *0x239d0
    334c:	83 c4 40             	add    $0x40,%esp
    334f:	5b                   	pop    %ebx
    3350:	5e                   	pop    %esi
    3351:	5d                   	pop    %ebp
    3352:	c3                   	ret    
    3353:	90                   	nop
    3354:	8d 74 26 00          	lea    0x0(%esi,%eiz,1),%esi
    3358:	85 f6                	test   %esi,%esi
    335a:	74 5e                	je     33ba <pio_enable+0xda>
    335c:	89 d8                	mov    %ebx,%eax
    335e:	8b 4d 0c             	mov    0xc(%ebp),%ecx
    3361:	25 00 f0 ff ff       	and    $0xfffff000,%eax
    3366:	31 d2                	xor    %edx,%edx
    3368:	29 c3                	sub    %eax,%ebx
    336a:	01 d9                	add    %ebx,%ecx
    336c:	74 07                	je     3375 <pio_enable+0x95>
    336e:	8d 51 ff             	lea    -0x1(%ecx),%edx
    3371:	c1 ea 0c             	shr    $0xc,%edx
    3374:	42                   	inc    %edx
    3375:	8d 4d e4             	lea    -0x1c(%ebp),%ecx
    3378:	c7 44 24 18 23 00 00 	movl   $0x23,0x18(%esp)
    337f:	00 
    3380:	c7 44 24 14 00 00 00 	movl   $0x0,0x14(%esp)
    3387:	00 
    3388:	c7 44 24 10 94 10 00 	movl   $0x1094,0x10(%esp)
    338f:	00 
    3390:	89 4c 24 0c          	mov    %ecx,0xc(%esp)
    3394:	c7 44 24 08 03 00 00 	movl   $0x3,0x8(%esp)
    339b:	00 
    339c:	89 54 24 04          	mov    %edx,0x4(%esp)
    33a0:	89 04 24             	mov    %eax,(%esp)
    33a3:	e8 28 93 01 00       	call   1c6d0 <__syscall_slow>
    33a8:	85 c0                	test   %eax,%eax
    33aa:	75 a0                	jne    334c <pio_enable+0x6c>
    33ac:	8b 55 e4             	mov    -0x1c(%ebp),%edx
    33af:	01 d3                	add    %edx,%ebx
    33b1:	89 1e                	mov    %ebx,(%esi)
    33b3:	83 c4 40             	add    $0x40,%esp
    33b6:	5b                   	pop    %ebx
    33b7:	5e                   	pop    %esi
    33b8:	5d                   	pop    %ebp
    33b9:	c3                   	ret    
    33ba:	b8 f2 ff ff ff       	mov    $0xfffffff2,%eax
    33bf:	eb 8b                	jmp    334c <pio_enable+0x6c>
    33c1:	eb 0d                	jmp    33d0 <pio_write_8>
    33c3:	90                   	nop
    33c4:	90                   	nop
    33c5:	90                   	nop
    33c6:	90                   	nop
    33c7:	90                   	nop
    33c8:	90                   	nop
    33c9:	90                   	nop
    33ca:	90                   	nop
    33cb:	90                   	nop
    33cc:	90                   	nop
    33cd:	90                   	nop
    33ce:	90                   	nop
    33cf:	90                   	nop

000033d0 <pio_write_8>:
    33d0:	55                   	push   %ebp
    33d1:	89 e5                	mov    %esp,%ebp
    33d3:	57                   	push   %edi
    33d4:	56                   	push   %esi
    33d5:	53                   	push   %ebx
    33d6:	83 ec 1c             	sub    $0x1c,%esp
    33d9:	8b 75 0c             	mov    0xc(%ebp),%esi
    33dc:	8b 5d 08             	mov    0x8(%ebp),%ebx
    33df:	89 f0                	mov    %esi,%eax
    33e1:	c7 44 24 08 01 00 00 	movl   $0x1,0x8(%esp)
    33e8:	00 
    33e9:	25 ff 00 00 00       	and    $0xff,%eax
    33ee:	89 1c 24             	mov    %ebx,(%esp)
    33f1:	89 44 24 04          	mov    %eax,0x4(%esp)
    33f5:	e8 06 91 01 00       	call   1c500 <pio_trace_log>
    33fa:	81 fb ff ff 00 00    	cmp    $0xffff,%ebx
    3400:	76 0e                	jbe    3410 <pio_write_8+0x40>
    3402:	89 f0                	mov    %esi,%eax
    3404:	88 03                	mov    %al,(%ebx)
    3406:	83 c4 1c             	add    $0x1c,%esp
    3409:	5b                   	pop    %ebx
    340a:	5e                   	pop    %esi
    340b:	5f                   	pop    %edi
    340c:	5d                   	pop    %ebp
    340d:	c3                   	ret    
    340e:	66 90                	xchg   %ax,%ax
    3410:	89 f0                	mov    %esi,%eax
    3412:	89 da                	mov    %ebx,%edx
    3414:	ee                   	out    %al,(%dx)
    3415:	83 c4 1c             	add    $0x1c,%esp
    3418:	5b                   	pop    %ebx
    3419:	5e                   	pop    %esi
    341a:	5f                   	pop    %edi
    341b:	5d                   	pop    %ebp
    341c:	c3                   	ret    
    341d:	8d 76 00             	lea    0x0(%esi),%esi

00003420 <pio_write_16>:
    3420:	55                   	push   %ebp
    3421:	89 e5                	mov    %esp,%ebp
    3423:	57                   	push   %edi
    3424:	56                   	push   %esi
    3425:	53                   	push   %ebx
    3426:	83 ec 1c             	sub    $0x1c,%esp
    3429:	8b 75 0c             	mov    0xc(%ebp),%esi
    342c:	8b 5d 08             	mov    0x8(%ebp),%ebx
    342f:	89 f0                	mov    %esi,%eax
    3431:	c7 44 24 08 01 00 00 	movl   $0x1,0x8(%esp)
    3438:	00 
    3439:	25 ff ff 00 00       	and    $0xffff,%eax
    343e:	89 1c 24             	mov    %ebx,(%esp)
    3441:	89 44 24 04          	mov    %eax,0x4(%esp)
    3445:	e8 b6 90 01 00       	call   1c500 <pio_trace_log>
    344a:	81 fb ff ff 00 00    	cmp    $0xffff,%ebx
    3450:	76 0e                	jbe    3460 <pio_write_16+0x40>
    3452:	66 89 33             	mov    %si,(%ebx)
    3455:	83 c4 1c             	add    $0x1c,%esp
    3458:	5b                   	pop    %ebx
    3459:	5e                   	pop    %esi
    345a:	5f                   	pop    %edi
    345b:	5d                   	pop    %ebp
    345c:	c3                   	ret    
    345d:	8d 76 00             	lea    0x0(%esi),%esi
    3460:	89 f0                	mov    %esi,%eax
    3462:	89 da                	mov    %ebx,%edx
    3464:	66 ef                	out    %ax,(%dx)
    3466:	83 c4 1c             	add    $0x1c,%esp
    3469:	5b                   	pop    %ebx
    346a:	5e                   	pop    %esi
    346b:	5f                   	pop    %edi
    346c:	5d                   	pop    %ebp
    346d:	c3                   	ret    
    346e:	66 90                	xchg   %ax,%ax

00003470 <pio_write_32>:
    3470:	55                   	push   %ebp
    3471:	89 e5                	mov    %esp,%ebp
    3473:	56                   	push   %esi
    3474:	53                   	push   %ebx
    3475:	83 ec 10             	sub    $0x10,%esp
    3478:	8b 5d 08             	mov    0x8(%ebp),%ebx
    347b:	8b 75 0c             	mov    0xc(%ebp),%esi
    347e:	c7 44 24 08 01 00 00 	movl   $0x1,0x8(%esp)
    3485:	00 
    3486:	89 74 24 04          	mov    %esi,0x4(%esp)
    348a:	89 1c 24             	mov    %ebx,(%esp)
    348d:	e8 6e 90 01 00       	call   1c500 <pio_trace_log>
    3492:	81 fb ff ff 00 00    	cmp    $0xffff,%ebx
    3498:	76 0e                	jbe    34a8 <pio_write_32+0x38>
    349a:	89 33                	mov    %esi,(%ebx)
    349c:	83 c4 10             	add    $0x10,%esp
    349f:	5b                   	pop    %ebx
    34a0:	5e                   	pop    %esi
    34a1:	5d                   	pop    %ebp
    34a2:	c3                   	ret    
    34a3:	90                   	nop
    34a4:	8d 74 26 00          	lea    0x0(%esi,%eiz,1),%esi
    34a8:	89 f0                	mov    %esi,%eax
    34aa:	89 da                	mov    %ebx,%edx
    34ac:	ef                   	out    %eax,(%dx)
    34ad:	83 c4 10             	add    $0x10,%esp
    34b0:	5b                   	pop    %ebx
    34b1:	5e                   	pop    %esi
    34b2:	5d                   	pop    %ebp
    34b3:	c3                   	ret    
    34b4:	8d b6 00 00 00 00    	lea    0x0(%esi),%esi
    34ba:	8d bf 00 00 00 00    	lea    0x0(%edi),%edi

000034c0 <pio_read_8>:
    34c0:	55                   	push   %ebp
    34c1:	89 e5                	mov    %esp,%ebp
    34c3:	53                   	push   %ebx
    34c4:	83 ec 14             	sub    $0x14,%esp
    34c7:	8b 55 08             	mov    0x8(%ebp),%edx
    34ca:	81 fa ff ff 00 00    	cmp    $0xffff,%edx
    34d0:	76 26                	jbe    34f8 <pio_read_8+0x38>
    34d2:	8a 1a                	mov    (%edx),%bl
    34d4:	31 c0                	xor    %eax,%eax
    34d6:	c7 44 24 08 00 00 00 	movl   $0x0,0x8(%esp)
    34dd:	00 
    34de:	88 d8                	mov    %bl,%al
    34e0:	89 14 24             	mov    %edx,(%esp)
    34e3:	89 44 24 04          	mov    %eax,0x4(%esp)
    34e7:	e8 14 90 01 00       	call   1c500 <pio_trace_log>
    34ec:	83 c4 14             	add    $0x14,%esp
    34ef:	88 d8                	mov    %bl,%al
    34f1:	5b                   	pop    %ebx
    34f2:	5d                   	pop    %ebp
    34f3:	c3                   	ret    
    34f4:	8d 74 26 00          	lea    0x0(%esi,%eiz,1),%esi
    34f8:	ec                   	in     (%dx),%al
    34f9:	88 c3                	mov    %al,%bl
    34fb:	eb d7                	jmp    34d4 <pio_read_8+0x14>
    34fd:	8d 76 00             	lea    0x0(%esi),%esi

00003500 <pio_read_16>:
    3500:	55                   	push   %ebp
    3501:	89 e5                	mov    %esp,%ebp
    3503:	53                   	push   %ebx
    3504:	83 ec 14             	sub    $0x14,%esp
    3507:	8b 55 08             	mov    0x8(%ebp),%edx
    350a:	81 fa ff ff 00 00    	cmp    $0xffff,%edx
    3510:	76 26                	jbe    3538 <pio_read_16+0x38>
    3512:	66 8b 1a             	mov    (%edx),%bx
    3515:	89 d8                	mov    %ebx,%eax
    3517:	c7 44 24 08 00 00 00 	movl   $0x0,0x8(%esp)
    351e:	00 
    351f:	25 ff ff 00 00       	and    $0xffff,%eax
    3524:	89 14 24             	mov    %edx,(%esp)
    3527:	89 44 24 04          	mov    %eax,0x4(%esp)
    352b:	e8 d0 8f 01 00       	call   1c500 <pio_trace_log>
    3530:	83 c4 14             	add    $0x14,%esp
    3533:	89 d8                	mov    %ebx,%eax
    3535:	5b                   	pop    %ebx
    3536:	5d                   	pop    %ebp
    3537:	c3                   	ret    
    3538:	66 ed                	in     (%dx),%ax
    353a:	89 c3                	mov    %eax,%ebx
    353c:	eb d7                	jmp    3515 <pio_read_16+0x15>
    353e:	66 90                	xchg   %ax,%ax

00003540 <pio_read_32>:
    3540:	55                   	push   %ebp
    3541:	89 e5                	mov    %esp,%ebp
    3543:	53                   	push   %ebx
    3544:	83 ec 14             	sub    $0x14,%esp
    3547:	8b 55 08             	mov    0x8(%ebp),%edx
    354a:	81 fa ff ff 00 00    	cmp    $0xffff,%edx
    3550:	76 1e                	jbe    3570 <pio_read_32+0x30>
    3552:	8b 1a                	mov    (%edx),%ebx
    3554:	89 5c 24 04          	mov    %ebx,0x4(%esp)
    3558:	c7 44 24 08 00 00 00 	movl   $0x0,0x8(%esp)
    355f:	00 
    3560:	89 14 24             	mov    %edx,(%esp)
    3563:	e8 98 8f 01 00       	call   1c500 <pio_trace_log>
    3568:	83 c4 14             	add    $0x14,%esp
    356b:	89 d8                	mov    %ebx,%eax
    356d:	5b                   	pop    %ebx
    356e:	5d                   	pop    %ebp
    356f:	c3                   	ret    
    3570:	ed                   	in     (%dx),%eax
    3571:	89 c3                	mov    %eax,%ebx
    3573:	eb df                	jmp    3554 <pio_read_32+0x14>
    3575:	8d 74 26 00          	lea    0x0(%esi,%eiz,1),%esi
    3579:	8d bc 27 00 00 00 00 	lea    0x0(%edi,%eiz,1),%edi

00003580 <irq_register>:
    3580:	55                   	push   %ebp
    3581:	89 e5                	mov    %esp,%ebp
    3583:	83 ec 28             	sub    $0x28,%esp
    3586:	8b 45 14             	mov    0x14(%ebp),%eax
    3589:	c7 44 24 18 29 00 00 	movl   $0x29,0x18(%esp)
    3590:	00 
    3591:	89 44 24 0c          	mov    %eax,0xc(%esp)
    3595:	8b 45 10             	mov    0x10(%ebp),%eax
    3598:	89 44 24 08          	mov    %eax,0x8(%esp)
    359c:	8b 45 0c             	mov    0xc(%ebp),%eax
    359f:	89 44 24 04          	mov    %eax,0x4(%esp)
    35a3:	8b 45 08             	mov    0x8(%ebp),%eax
    35a6:	c7 44 24 14 00 00 00 	movl   $0x0,0x14(%esp)
    35ad:	00 
    35ae:	c7 44 24 10 00 00 00 	movl   $0x0,0x10(%esp)
    35b5:	00 
    35b6:	89 04 24             	mov    %eax,(%esp)
    35b9:	ff 15 d0 39 02 00    	call   *0x239d0
    35bf:	c9                   	leave  
    35c0:	c3                   	ret    
    35c1:	eb 0d                	jmp    35d0 <irq_unregister>
    35c3:	90                   	nop
    35c4:	90                   	nop
    35c5:	90                   	nop
    35c6:	90                   	nop
    35c7:	90                   	nop
    35c8:	90                   	nop
    35c9:	90                   	nop
    35ca:	90                   	nop
    35cb:	90                   	nop
    35cc:	90                   	nop
    35cd:	90                   	nop
    35ce:	90                   	nop
    35cf:	90                   	nop

000035d0 <irq_unregister>:
    35d0:	55                   	push   %ebp
    35d1:	89 e5                	mov    %esp,%ebp
    35d3:	83 ec 28             	sub    $0x28,%esp
    35d6:	8b 45 0c             	mov    0xc(%ebp),%eax
    35d9:	c7 44 24 18 2a 00 00 	movl   $0x2a,0x18(%esp)
    35e0:	00 
    35e1:	89 44 24 04          	mov    %eax,0x4(%esp)
    35e5:	8b 45 08             	mov    0x8(%ebp),%eax
    35e8:	c7 44 24 14 00 00 00 	movl   $0x0,0x14(%esp)
    35ef:	00 
    35f0:	c7 44 24 10 00 00 00 	movl   $0x0,0x10(%esp)
    35f7:	00 
    35f8:	c7 44 24 0c 00 00 00 	movl   $0x0,0xc(%esp)
    35ff:	00 
    3600:	c7 44 24 08 00 00 00 	movl   $0x0,0x8(%esp)
    3607:	00 
    3608:	89 04 24             	mov    %eax,(%esp)
    360b:	ff 15 d0 39 02 00    	call   *0x239d0
    3611:	c9                   	leave  
    3612:	c3                   	ret    
    3613:	66 90                	xchg   %ax,%ax
    3615:	66 90                	xchg   %ax,%ax
    3617:	66 90                	xchg   %ax,%ax
    3619:	66 90                	xchg   %ax,%ax
    361b:	66 90                	xchg   %ax,%ax
    361d:	66 90                	xchg   %ax,%ax
    361f:	90                   	nop

00003620 <clipboard_put_str>:
    3620:	55                   	push   %ebp
    3621:	89 e5                	mov    %esp,%ebp
    3623:	57                   	push   %edi
    3624:	56                   	push   %esi
    3625:	53                   	push   %ebx
    3626:	83 ec 4c             	sub    $0x4c,%esp
    3629:	8b 45 08             	mov    0x8(%ebp),%eax
    362c:	89 04 24             	mov    %eax,(%esp)
    362f:	e8 1c 15 00 00       	call   4b50 <str_size>
    3634:	c7 04 24 30 38 02 00 	movl   $0x23830,(%esp)
    363b:	89 c3                	mov    %eax,%ebx
    363d:	85 c0                	test   %eax,%eax
    363f:	0f 84 fb 00 00 00    	je     3740 <clipboard_put_str+0x120>
    3645:	e8 d6 47 00 00       	call   7e20 <fibril_mutex_lock>
    364a:	8b 15 a4 3a 02 00    	mov    0x23aa4,%edx
    3650:	85 d2                	test   %edx,%edx
    3652:	75 31                	jne    3685 <clipboard_put_str+0x65>
    3654:	8d 74 26 00          	lea    0x0(%esi,%eiz,1),%esi
    3658:	c7 44 24 0c 00 00 00 	movl   $0x0,0xc(%esp)
    365f:	00 
    3660:	c7 44 24 08 00 00 00 	movl   $0x0,0x8(%esp)
    3667:	00 
    3668:	c7 44 24 04 63 6c 69 	movl   $0x70696c63,0x4(%esp)
    366f:	70 
    3670:	c7 04 24 02 00 00 00 	movl   $0x2,(%esp)
    3677:	e8 e4 e9 00 00       	call   12060 <service_connect_blocking>
    367c:	a3 a4 3a 02 00       	mov    %eax,0x23aa4
    3681:	85 c0                	test   %eax,%eax
    3683:	74 d3                	je     3658 <clipboard_put_str+0x38>
    3685:	c7 04 24 30 38 02 00 	movl   $0x23830,(%esp)
    368c:	e8 af 48 00 00       	call   7f40 <fibril_mutex_unlock>
    3691:	a1 a4 3a 02 00       	mov    0x23aa4,%eax
    3696:	89 04 24             	mov    %eax,(%esp)
    3699:	e8 72 16 01 00       	call   14d10 <async_exchange_begin>
    369e:	c7 44 24 18 00 00 00 	movl   $0x0,0x18(%esp)
    36a5:	00 
    36a6:	c7 44 24 14 00 00 00 	movl   $0x0,0x14(%esp)
    36ad:	00 
    36ae:	c7 44 24 10 00 00 00 	movl   $0x0,0x10(%esp)
    36b5:	00 
    36b6:	c7 44 24 0c 00 00 00 	movl   $0x0,0xc(%esp)
    36bd:	00 
    36be:	c7 44 24 08 01 00 00 	movl   $0x1,0x8(%esp)
    36c5:	00 
    36c6:	c7 44 24 04 00 04 00 	movl   $0x400,0x4(%esp)
    36cd:	00 
    36ce:	89 04 24             	mov    %eax,(%esp)
    36d1:	89 c7                	mov    %eax,%edi
    36d3:	e8 d8 ff 00 00       	call   136b0 <async_send_fast>
    36d8:	89 c6                	mov    %eax,%esi
    36da:	8b 45 08             	mov    0x8(%ebp),%eax
    36dd:	89 5c 24 08          	mov    %ebx,0x8(%esp)
    36e1:	89 44 24 04          	mov    %eax,0x4(%esp)
    36e5:	89 3c 24             	mov    %edi,(%esp)
    36e8:	e8 13 25 01 00       	call   15c00 <async_data_write_start>
    36ed:	89 3c 24             	mov    %edi,(%esp)
    36f0:	89 45 e0             	mov    %eax,-0x20(%ebp)
    36f3:	e8 88 19 01 00       	call   15080 <async_exchange_end>
    36f8:	8b 45 e0             	mov    -0x20(%ebp),%eax
    36fb:	85 c0                	test   %eax,%eax
    36fd:	75 21                	jne    3720 <clipboard_put_str+0x100>
    36ff:	8d 45 e0             	lea    -0x20(%ebp),%eax
    3702:	89 34 24             	mov    %esi,(%esp)
    3705:	89 44 24 04          	mov    %eax,0x4(%esp)
    3709:	e8 72 01 01 00       	call   13880 <async_wait_for>
    370e:	8b 45 e0             	mov    -0x20(%ebp),%eax
    3711:	83 c4 4c             	add    $0x4c,%esp
    3714:	5b                   	pop    %ebx
    3715:	5e                   	pop    %esi
    3716:	5f                   	pop    %edi
    3717:	5d                   	pop    %ebp
    3718:	c3                   	ret    
    3719:	8d b4 26 00 00 00 00 	lea    0x0(%esi,%eiz,1),%esi
    3720:	8d 45 e4             	lea    -0x1c(%ebp),%eax
    3723:	89 34 24             	mov    %esi,(%esp)
    3726:	89 44 24 04          	mov    %eax,0x4(%esp)
    372a:	e8 51 01 01 00       	call   13880 <async_wait_for>
    372f:	8b 45 e4             	mov    -0x1c(%ebp),%eax
    3732:	85 c0                	test   %eax,%eax
    3734:	74 d8                	je     370e <clipboard_put_str+0xee>
    3736:	83 c4 4c             	add    $0x4c,%esp
    3739:	5b                   	pop    %ebx
    373a:	5e                   	pop    %esi
    373b:	5f                   	pop    %edi
    373c:	5d                   	pop    %ebp
    373d:	c3                   	ret    
    373e:	66 90                	xchg   %ax,%ax
    3740:	e8 db 46 00 00       	call   7e20 <fibril_mutex_lock>
    3745:	8b 0d a4 3a 02 00    	mov    0x23aa4,%ecx
    374b:	85 c9                	test   %ecx,%ecx
    374d:	75 2e                	jne    377d <clipboard_put_str+0x15d>
    374f:	90                   	nop
    3750:	c7 44 24 0c 00 00 00 	movl   $0x0,0xc(%esp)
    3757:	00 
    3758:	c7 44 24 08 00 00 00 	movl   $0x0,0x8(%esp)
    375f:	00 
    3760:	c7 44 24 04 63 6c 69 	movl   $0x70696c63,0x4(%esp)
    3767:	70 
    3768:	c7 04 24 02 00 00 00 	movl   $0x2,(%esp)
    376f:	e8 ec e8 00 00       	call   12060 <service_connect_blocking>
    3774:	a3 a4 3a 02 00       	mov    %eax,0x23aa4
    3779:	85 c0                	test   %eax,%eax
    377b:	74 d3                	je     3750 <clipboard_put_str+0x130>
    377d:	c7 04 24 30 38 02 00 	movl   $0x23830,(%esp)
    3784:	e8 b7 47 00 00       	call   7f40 <fibril_mutex_unlock>
    3789:	a1 a4 3a 02 00       	mov    0x23aa4,%eax
    378e:	89 04 24             	mov    %eax,(%esp)
    3791:	e8 7a 15 01 00       	call   14d10 <async_exchange_begin>
    3796:	c7 44 24 28 00 00 00 	movl   $0x0,0x28(%esp)
    379d:	00 
    379e:	c7 44 24 24 00 00 00 	movl   $0x0,0x24(%esp)
    37a5:	00 
    37a6:	c7 44 24 20 00 00 00 	movl   $0x0,0x20(%esp)
    37ad:	00 
    37ae:	c7 44 24 1c 00 00 00 	movl   $0x0,0x1c(%esp)
    37b5:	00 
    37b6:	c7 44 24 18 00 00 00 	movl   $0x0,0x18(%esp)
    37bd:	00 
    37be:	c7 44 24 14 00 00 00 	movl   $0x0,0x14(%esp)
    37c5:	00 
    37c6:	c7 44 24 10 00 00 00 	movl   $0x0,0x10(%esp)
    37cd:	00 
    37ce:	c7 44 24 0c 00 00 00 	movl   $0x0,0xc(%esp)
    37d5:	00 
    37d6:	c7 44 24 08 00 00 00 	movl   $0x0,0x8(%esp)
    37dd:	00 
    37de:	c7 44 24 04 00 04 00 	movl   $0x400,0x4(%esp)
    37e5:	00 
    37e6:	89 04 24             	mov    %eax,(%esp)
    37e9:	89 c3                	mov    %eax,%ebx
    37eb:	e8 d0 04 01 00       	call   13cc0 <async_req_fast>
    37f0:	89 1c 24             	mov    %ebx,(%esp)
    37f3:	89 c6                	mov    %eax,%esi
    37f5:	e8 86 18 01 00       	call   15080 <async_exchange_end>
    37fa:	83 c4 4c             	add    $0x4c,%esp
    37fd:	89 f0                	mov    %esi,%eax
    37ff:	5b                   	pop    %ebx
    3800:	5e                   	pop    %esi
    3801:	5f                   	pop    %edi
    3802:	5d                   	pop    %ebp
    3803:	c3                   	ret    
    3804:	8d b6 00 00 00 00    	lea    0x0(%esi),%esi
    380a:	8d bf 00 00 00 00    	lea    0x0(%edi),%edi

00003810 <clipboard_get_str>:
    3810:	55                   	push   %ebp
    3811:	89 e5                	mov    %esp,%ebp
    3813:	57                   	push   %edi
    3814:	56                   	push   %esi
    3815:	53                   	push   %ebx
    3816:	83 ec 5c             	sub    $0x5c,%esp
    3819:	8d 75 dc             	lea    -0x24(%ebp),%esi
    381c:	8d 5d d8             	lea    -0x28(%ebp),%ebx
    381f:	c7 04 24 30 38 02 00 	movl   $0x23830,(%esp)
    3826:	e8 f5 45 00 00       	call   7e20 <fibril_mutex_lock>
    382b:	a1 a4 3a 02 00       	mov    0x23aa4,%eax
    3830:	85 c0                	test   %eax,%eax
    3832:	75 31                	jne    3865 <clipboard_get_str+0x55>
    3834:	8d 74 26 00          	lea    0x0(%esi,%eiz,1),%esi
    3838:	c7 44 24 0c 00 00 00 	movl   $0x0,0xc(%esp)
    383f:	00 
    3840:	c7 44 24 08 00 00 00 	movl   $0x0,0x8(%esp)
    3847:	00 
    3848:	c7 44 24 04 63 6c 69 	movl   $0x70696c63,0x4(%esp)
    384f:	70 
    3850:	c7 04 24 02 00 00 00 	movl   $0x2,(%esp)
    3857:	e8 04 e8 00 00       	call   12060 <service_connect_blocking>
    385c:	a3 a4 3a 02 00       	mov    %eax,0x23aa4
    3861:	85 c0                	test   %eax,%eax
    3863:	74 d3                	je     3838 <clipboard_get_str+0x28>
    3865:	c7 04 24 30 38 02 00 	movl   $0x23830,(%esp)
    386c:	e8 cf 46 00 00       	call   7f40 <fibril_mutex_unlock>
    3871:	a1 a4 3a 02 00       	mov    0x23aa4,%eax
    3876:	89 04 24             	mov    %eax,(%esp)
    3879:	e8 92 14 01 00       	call   14d10 <async_exchange_begin>
    387e:	c7 44 24 28 00 00 00 	movl   $0x0,0x28(%esp)
    3885:	00 
    3886:	c7 44 24 24 00 00 00 	movl   $0x0,0x24(%esp)
    388d:	00 
    388e:	c7 44 24 20 00 00 00 	movl   $0x0,0x20(%esp)
    3895:	00 
    3896:	89 74 24 1c          	mov    %esi,0x1c(%esp)
    389a:	89 5c 24 18          	mov    %ebx,0x18(%esp)
    389e:	c7 44 24 14 00 00 00 	movl   $0x0,0x14(%esp)
    38a5:	00 
    38a6:	c7 44 24 10 00 00 00 	movl   $0x0,0x10(%esp)
    38ad:	00 
    38ae:	c7 44 24 0c 00 00 00 	movl   $0x0,0xc(%esp)
    38b5:	00 
    38b6:	c7 44 24 08 00 00 00 	movl   $0x0,0x8(%esp)
    38bd:	00 
    38be:	c7 44 24 04 02 04 00 	movl   $0x402,0x4(%esp)
    38c5:	00 
    38c6:	89 04 24             	mov    %eax,(%esp)
    38c9:	89 c7                	mov    %eax,%edi
    38cb:	e8 f0 03 01 00       	call   13cc0 <async_req_fast>
    38d0:	89 3c 24             	mov    %edi,(%esp)
    38d3:	89 45 e0             	mov    %eax,-0x20(%ebp)
    38d6:	e8 a5 17 01 00       	call   15080 <async_exchange_end>
    38db:	8b 45 e0             	mov    -0x20(%ebp),%eax
    38de:	85 c0                	test   %eax,%eax
    38e0:	75 25                	jne    3907 <clipboard_get_str+0xf7>
    38e2:	8b 45 dc             	mov    -0x24(%ebp),%eax
    38e5:	85 c0                	test   %eax,%eax
    38e7:	75 27                	jne    3910 <clipboard_get_str+0x100>
    38e9:	c7 04 24 01 00 00 00 	movl   $0x1,(%esp)
    38f0:	e8 6b db 00 00       	call   11460 <malloc>
    38f5:	85 c0                	test   %eax,%eax
    38f7:	0f 84 2b 01 00 00    	je     3a28 <clipboard_get_str+0x218>
    38fd:	8b 55 08             	mov    0x8(%ebp),%edx
    3900:	c6 00 00             	movb   $0x0,(%eax)
    3903:	89 02                	mov    %eax,(%edx)
    3905:	31 c0                	xor    %eax,%eax
    3907:	83 c4 5c             	add    $0x5c,%esp
    390a:	5b                   	pop    %ebx
    390b:	5e                   	pop    %esi
    390c:	5f                   	pop    %edi
    390d:	5d                   	pop    %ebp
    390e:	c3                   	ret    
    390f:	90                   	nop
    3910:	48                   	dec    %eax
    3911:	74 0d                	je     3920 <clipboard_get_str+0x110>
    3913:	83 c4 5c             	add    $0x5c,%esp
    3916:	b8 f2 ff ff ff       	mov    $0xfffffff2,%eax
    391b:	5b                   	pop    %ebx
    391c:	5e                   	pop    %esi
    391d:	5f                   	pop    %edi
    391e:	5d                   	pop    %ebp
    391f:	c3                   	ret    
    3920:	8b 45 d8             	mov    -0x28(%ebp),%eax
    3923:	40                   	inc    %eax
    3924:	89 04 24             	mov    %eax,(%esp)
    3927:	e8 34 db 00 00       	call   11460 <malloc>
    392c:	89 45 d4             	mov    %eax,-0x2c(%ebp)
    392f:	85 c0                	test   %eax,%eax
    3931:	0f 84 f1 00 00 00    	je     3a28 <clipboard_get_str+0x218>
    3937:	c7 04 24 30 38 02 00 	movl   $0x23830,(%esp)
    393e:	e8 dd 44 00 00       	call   7e20 <fibril_mutex_lock>
    3943:	8b 3d a4 3a 02 00    	mov    0x23aa4,%edi
    3949:	85 ff                	test   %edi,%edi
    394b:	75 30                	jne    397d <clipboard_get_str+0x16d>
    394d:	8d 76 00             	lea    0x0(%esi),%esi
    3950:	c7 44 24 0c 00 00 00 	movl   $0x0,0xc(%esp)
    3957:	00 
    3958:	c7 44 24 08 00 00 00 	movl   $0x0,0x8(%esp)
    395f:	00 
    3960:	c7 44 24 04 63 6c 69 	movl   $0x70696c63,0x4(%esp)
    3967:	70 
    3968:	c7 04 24 02 00 00 00 	movl   $0x2,(%esp)
    396f:	e8 ec e6 00 00       	call   12060 <service_connect_blocking>
    3974:	a3 a4 3a 02 00       	mov    %eax,0x23aa4
    3979:	85 c0                	test   %eax,%eax
    397b:	74 d3                	je     3950 <clipboard_get_str+0x140>
    397d:	c7 04 24 30 38 02 00 	movl   $0x23830,(%esp)
    3984:	e8 b7 45 00 00       	call   7f40 <fibril_mutex_unlock>
    3989:	a1 a4 3a 02 00       	mov    0x23aa4,%eax
    398e:	89 04 24             	mov    %eax,(%esp)
    3991:	e8 7a 13 01 00       	call   14d10 <async_exchange_begin>
    3996:	c7 44 24 18 00 00 00 	movl   $0x0,0x18(%esp)
    399d:	00 
    399e:	89 c7                	mov    %eax,%edi
    39a0:	8b 45 dc             	mov    -0x24(%ebp),%eax
    39a3:	c7 44 24 14 00 00 00 	movl   $0x0,0x14(%esp)
    39aa:	00 
    39ab:	c7 44 24 10 00 00 00 	movl   $0x0,0x10(%esp)
    39b2:	00 
    39b3:	c7 44 24 0c 00 00 00 	movl   $0x0,0xc(%esp)
    39ba:	00 
    39bb:	89 44 24 08          	mov    %eax,0x8(%esp)
    39bf:	c7 44 24 04 01 04 00 	movl   $0x401,0x4(%esp)
    39c6:	00 
    39c7:	89 3c 24             	mov    %edi,(%esp)
    39ca:	e8 e1 fc 00 00       	call   136b0 <async_send_fast>
    39cf:	89 3c 24             	mov    %edi,(%esp)
    39d2:	89 45 d0             	mov    %eax,-0x30(%ebp)
    39d5:	8b 45 d8             	mov    -0x28(%ebp),%eax
    39d8:	89 44 24 08          	mov    %eax,0x8(%esp)
    39dc:	8b 45 d4             	mov    -0x2c(%ebp),%eax
    39df:	89 44 24 04          	mov    %eax,0x4(%esp)
    39e3:	e8 f8 1c 01 00       	call   156e0 <async_data_read_start>
    39e8:	89 3c 24             	mov    %edi,(%esp)
    39eb:	89 45 e0             	mov    %eax,-0x20(%ebp)
    39ee:	e8 8d 16 01 00       	call   15080 <async_exchange_end>
    39f3:	8b 45 e0             	mov    -0x20(%ebp),%eax
    39f6:	83 f8 f0             	cmp    $0xfffffff0,%eax
    39f9:	0f 84 20 fe ff ff    	je     381f <clipboard_get_str+0xf>
    39ff:	85 c0                	test   %eax,%eax
    3a01:	74 2f                	je     3a32 <clipboard_get_str+0x222>
    3a03:	8d 45 e4             	lea    -0x1c(%ebp),%eax
    3a06:	89 44 24 04          	mov    %eax,0x4(%esp)
    3a0a:	8b 45 d0             	mov    -0x30(%ebp),%eax
    3a0d:	89 04 24             	mov    %eax,(%esp)
    3a10:	e8 6b fe 00 00       	call   13880 <async_wait_for>
    3a15:	8b 45 e4             	mov    -0x1c(%ebp),%eax
    3a18:	85 c0                	test   %eax,%eax
    3a1a:	0f 85 e7 fe ff ff    	jne    3907 <clipboard_get_str+0xf7>
    3a20:	8b 45 e0             	mov    -0x20(%ebp),%eax
    3a23:	e9 df fe ff ff       	jmp    3907 <clipboard_get_str+0xf7>
    3a28:	b8 fe ff ff ff       	mov    $0xfffffffe,%eax
    3a2d:	e9 d5 fe ff ff       	jmp    3907 <clipboard_get_str+0xf7>
    3a32:	8d 45 e0             	lea    -0x20(%ebp),%eax
    3a35:	89 44 24 04          	mov    %eax,0x4(%esp)
    3a39:	8b 45 d0             	mov    -0x30(%ebp),%eax
    3a3c:	89 04 24             	mov    %eax,(%esp)
    3a3f:	e8 3c fe 00 00       	call   13880 <async_wait_for>
    3a44:	8b 45 e0             	mov    -0x20(%ebp),%eax
    3a47:	85 c0                	test   %eax,%eax
    3a49:	0f 85 b8 fe ff ff    	jne    3907 <clipboard_get_str+0xf7>
    3a4f:	8b 55 d8             	mov    -0x28(%ebp),%edx
    3a52:	8b 4d d4             	mov    -0x2c(%ebp),%ecx
    3a55:	c6 04 11 00          	movb   $0x0,(%ecx,%edx,1)
    3a59:	8b 55 08             	mov    0x8(%ebp),%edx
    3a5c:	89 0a                	mov    %ecx,(%edx)
    3a5e:	e9 a4 fe ff ff       	jmp    3907 <clipboard_get_str+0xf7>
    3a63:	66 90                	xchg   %ax,%ax
    3a65:	66 90                	xchg   %ax,%ax
    3a67:	66 90                	xchg   %ax,%ax
    3a69:	66 90                	xchg   %ax,%ax
    3a6b:	66 90                	xchg   %ax,%ax
    3a6d:	66 90                	xchg   %ax,%ax
    3a6f:	90                   	nop

00003a70 <event_subscribe>:
    3a70:	55                   	push   %ebp
    3a71:	89 e5                	mov    %esp,%ebp
    3a73:	83 ec 28             	sub    $0x28,%esp
    3a76:	8b 45 0c             	mov    0xc(%ebp),%eax
    3a79:	c7 44 24 18 1e 00 00 	movl   $0x1e,0x18(%esp)
    3a80:	00 
    3a81:	89 44 24 04          	mov    %eax,0x4(%esp)
    3a85:	8b 45 08             	mov    0x8(%ebp),%eax
    3a88:	c7 44 24 14 00 00 00 	movl   $0x0,0x14(%esp)
    3a8f:	00 
    3a90:	c7 44 24 10 00 00 00 	movl   $0x0,0x10(%esp)
    3a97:	00 
    3a98:	c7 44 24 0c 00 00 00 	movl   $0x0,0xc(%esp)
    3a9f:	00 
    3aa0:	c7 44 24 08 00 00 00 	movl   $0x0,0x8(%esp)
    3aa7:	00 
    3aa8:	89 04 24             	mov    %eax,(%esp)
    3aab:	ff 15 d0 39 02 00    	call   *0x239d0
    3ab1:	c9                   	leave  
    3ab2:	c3                   	ret    
    3ab3:	8d b6 00 00 00 00    	lea    0x0(%esi),%esi
    3ab9:	8d bc 27 00 00 00 00 	lea    0x0(%edi,%eiz,1),%edi

00003ac0 <event_task_subscribe>:
    3ac0:	55                   	push   %ebp
    3ac1:	89 e5                	mov    %esp,%ebp
    3ac3:	83 ec 28             	sub    $0x28,%esp
    3ac6:	8b 45 0c             	mov    0xc(%ebp),%eax
    3ac9:	c7 44 24 18 1e 00 00 	movl   $0x1e,0x18(%esp)
    3ad0:	00 
    3ad1:	89 44 24 04          	mov    %eax,0x4(%esp)
    3ad5:	8b 45 08             	mov    0x8(%ebp),%eax
    3ad8:	c7 44 24 14 00 00 00 	movl   $0x0,0x14(%esp)
    3adf:	00 
    3ae0:	c7 44 24 10 00 00 00 	movl   $0x0,0x10(%esp)
    3ae7:	00 
    3ae8:	c7 44 24 0c 00 00 00 	movl   $0x0,0xc(%esp)
    3aef:	00 
    3af0:	c7 44 24 08 00 00 00 	movl   $0x0,0x8(%esp)
    3af7:	00 
    3af8:	89 04 24             	mov    %eax,(%esp)
    3afb:	ff 15 d0 39 02 00    	call   *0x239d0
    3b01:	c9                   	leave  
    3b02:	c3                   	ret    
    3b03:	8d b6 00 00 00 00    	lea    0x0(%esi),%esi
    3b09:	8d bc 27 00 00 00 00 	lea    0x0(%edi,%eiz,1),%edi

00003b10 <event_unmask>:
    3b10:	55                   	push   %ebp
    3b11:	89 e5                	mov    %esp,%ebp
    3b13:	83 ec 28             	sub    $0x28,%esp
    3b16:	8b 45 08             	mov    0x8(%ebp),%eax
    3b19:	c7 44 24 18 1f 00 00 	movl   $0x1f,0x18(%esp)
    3b20:	00 
    3b21:	c7 44 24 14 00 00 00 	movl   $0x0,0x14(%esp)
    3b28:	00 
    3b29:	c7 44 24 10 00 00 00 	movl   $0x0,0x10(%esp)
    3b30:	00 
    3b31:	c7 44 24 0c 00 00 00 	movl   $0x0,0xc(%esp)
    3b38:	00 
    3b39:	c7 44 24 08 00 00 00 	movl   $0x0,0x8(%esp)
    3b40:	00 
    3b41:	c7 44 24 04 00 00 00 	movl   $0x0,0x4(%esp)
    3b48:	00 
    3b49:	89 04 24             	mov    %eax,(%esp)
    3b4c:	ff 15 d0 39 02 00    	call   *0x239d0
    3b52:	c9                   	leave  
    3b53:	c3                   	ret    
    3b54:	8d b6 00 00 00 00    	lea    0x0(%esi),%esi
    3b5a:	8d bf 00 00 00 00    	lea    0x0(%edi),%edi

00003b60 <event_task_unmask>:
    3b60:	55                   	push   %ebp
    3b61:	89 e5                	mov    %esp,%ebp
    3b63:	83 ec 28             	sub    $0x28,%esp
    3b66:	8b 45 08             	mov    0x8(%ebp),%eax
    3b69:	c7 44 24 18 1f 00 00 	movl   $0x1f,0x18(%esp)
    3b70:	00 
    3b71:	c7 44 24 14 00 00 00 	movl   $0x0,0x14(%esp)
    3b78:	00 
    3b79:	c7 44 24 10 00 00 00 	movl   $0x0,0x10(%esp)
    3b80:	00 
    3b81:	c7 44 24 0c 00 00 00 	movl   $0x0,0xc(%esp)
    3b88:	00 
    3b89:	c7 44 24 08 00 00 00 	movl   $0x0,0x8(%esp)
    3b90:	00 
    3b91:	c7 44 24 04 00 00 00 	movl   $0x0,0x4(%esp)
    3b98:	00 
    3b99:	89 04 24             	mov    %eax,(%esp)
    3b9c:	ff 15 d0 39 02 00    	call   *0x239d0
    3ba2:	c9                   	leave  
    3ba3:	c3                   	ret    
    3ba4:	66 90                	xchg   %ax,%ax
    3ba6:	66 90                	xchg   %ax,%ax
    3ba8:	66 90                	xchg   %ax,%ax
    3baa:	66 90                	xchg   %ax,%ax
    3bac:	66 90                	xchg   %ax,%ax
    3bae:	66 90                	xchg   %ax,%ax

00003bb0 <__errno>:
    3bb0:	55                   	push   %ebp
    3bb1:	65 a1 00 00 00 00    	mov    %gs:0x0,%eax
    3bb7:	89 e5                	mov    %esp,%ebp
    3bb9:	05 b4 ff ff ff       	add    $0xffffffb4,%eax
    3bbe:	5d                   	pop    %ebp
    3bbf:	c3                   	ret    

00003bc0 <memset>:
    3bc0:	55                   	push   %ebp
    3bc1:	89 e5                	mov    %esp,%ebp
    3bc3:	57                   	push   %edi
    3bc4:	56                   	push   %esi
    3bc5:	53                   	push   %ebx
    3bc6:	83 ec 20             	sub    $0x20,%esp
    3bc9:	c7 45 f0 04 00 00 00 	movl   $0x4,-0x10(%ebp)
    3bd0:	8b 45 08             	mov    0x8(%ebp),%eax
    3bd3:	8b 75 f0             	mov    -0x10(%ebp),%esi
    3bd6:	89 c2                	mov    %eax,%edx
    3bd8:	83 e2 03             	and    $0x3,%edx
    3bdb:	29 d6                	sub    %edx,%esi
    3bdd:	8b 55 10             	mov    0x10(%ebp),%edx
    3be0:	89 75 f0             	mov    %esi,-0x10(%ebp)
    3be3:	39 55 f0             	cmp    %edx,-0x10(%ebp)
    3be6:	76 03                	jbe    3beb <memset+0x2b>
    3be8:	89 55 f0             	mov    %edx,-0x10(%ebp)
    3beb:	8b 7d f0             	mov    -0x10(%ebp),%edi
    3bee:	8b 5d f0             	mov    -0x10(%ebp),%ebx
    3bf1:	4f                   	dec    %edi
    3bf2:	85 db                	test   %ebx,%ebx
    3bf4:	0f 84 2e 01 00 00    	je     3d28 <memset+0x168>
    3bfa:	89 c1                	mov    %eax,%ecx
    3bfc:	8b 55 f0             	mov    -0x10(%ebp),%edx
    3bff:	f7 d9                	neg    %ecx
    3c01:	83 e1 03             	and    $0x3,%ecx
    3c04:	8a 5d 0c             	mov    0xc(%ebp),%bl
    3c07:	89 4d ec             	mov    %ecx,-0x14(%ebp)
    3c0a:	39 d1                	cmp    %edx,%ecx
    3c0c:	0f 87 0e 01 00 00    	ja     3d20 <memset+0x160>
    3c12:	83 7d f0 06          	cmpl   $0x6,-0x10(%ebp)
    3c16:	0f 87 10 01 00 00    	ja     3d2c <memset+0x16c>
    3c1c:	8b 4d f0             	mov    -0x10(%ebp),%ecx
    3c1f:	89 4d ec             	mov    %ecx,-0x14(%ebp)
    3c22:	8b 75 ec             	mov    -0x14(%ebp),%esi
    3c25:	89 c2                	mov    %eax,%edx
    3c27:	90                   	nop
    3c28:	88 1a                	mov    %bl,(%edx)
    3c2a:	42                   	inc    %edx
    3c2b:	89 d1                	mov    %edx,%ecx
    3c2d:	4f                   	dec    %edi
    3c2e:	29 c1                	sub    %eax,%ecx
    3c30:	39 f1                	cmp    %esi,%ecx
    3c32:	72 f4                	jb     3c28 <memset+0x68>
    3c34:	89 55 d4             	mov    %edx,-0x2c(%ebp)
    3c37:	8b 55 ec             	mov    -0x14(%ebp),%edx
    3c3a:	39 55 f0             	cmp    %edx,-0x10(%ebp)
    3c3d:	0f 84 84 00 00 00    	je     3cc7 <memset+0x107>
    3c43:	8b 4d f0             	mov    -0x10(%ebp),%ecx
    3c46:	8b 55 ec             	mov    -0x14(%ebp),%edx
    3c49:	29 d1                	sub    %edx,%ecx
    3c4b:	89 4d dc             	mov    %ecx,-0x24(%ebp)
    3c4e:	c1 e9 02             	shr    $0x2,%ecx
    3c51:	89 4d e4             	mov    %ecx,-0x1c(%ebp)
    3c54:	c1 e1 02             	shl    $0x2,%ecx
    3c57:	89 4d e0             	mov    %ecx,-0x20(%ebp)
    3c5a:	74 59                	je     3cb5 <memset+0xf5>
    3c5c:	31 c9                	xor    %ecx,%ecx
    3c5e:	31 d2                	xor    %edx,%edx
    3c60:	88 d9                	mov    %bl,%cl
    3c62:	88 da                	mov    %bl,%dl
    3c64:	8a 6d 0c             	mov    0xc(%ebp),%ch
    3c67:	89 55 e8             	mov    %edx,-0x18(%ebp)
    3c6a:	c1 e2 10             	shl    $0x10,%edx
    3c6d:	89 ce                	mov    %ecx,%esi
    3c6f:	81 e6 ff ff 00 00    	and    $0xffff,%esi
    3c75:	8b 4d e8             	mov    -0x18(%ebp),%ecx
    3c78:	c1 e1 18             	shl    $0x18,%ecx
    3c7b:	09 d6                	or     %edx,%esi
    3c7d:	09 ce                	or     %ecx,%esi
    3c7f:	8b 4d ec             	mov    -0x14(%ebp),%ecx
    3c82:	01 c1                	add    %eax,%ecx
    3c84:	89 7d e8             	mov    %edi,-0x18(%ebp)
    3c87:	89 4d ec             	mov    %ecx,-0x14(%ebp)
    3c8a:	8b 55 d4             	mov    -0x2c(%ebp),%edx
    3c8d:	8b 7d ec             	mov    -0x14(%ebp),%edi
    3c90:	31 c9                	xor    %ecx,%ecx
    3c92:	89 45 ec             	mov    %eax,-0x14(%ebp)
    3c95:	8b 45 e4             	mov    -0x1c(%ebp),%eax
    3c98:	89 34 8f             	mov    %esi,(%edi,%ecx,4)
    3c9b:	41                   	inc    %ecx
    3c9c:	39 c8                	cmp    %ecx,%eax
    3c9e:	77 f8                	ja     3c98 <memset+0xd8>
    3ca0:	8b 4d e0             	mov    -0x20(%ebp),%ecx
    3ca3:	8b 7d e8             	mov    -0x18(%ebp),%edi
    3ca6:	01 ca                	add    %ecx,%edx
    3ca8:	29 cf                	sub    %ecx,%edi
    3caa:	8b 45 ec             	mov    -0x14(%ebp),%eax
    3cad:	89 55 d4             	mov    %edx,-0x2c(%ebp)
    3cb0:	39 4d dc             	cmp    %ecx,-0x24(%ebp)
    3cb3:	74 12                	je     3cc7 <memset+0x107>
    3cb5:	8b 55 d4             	mov    -0x2c(%ebp),%edx
    3cb8:	8d 4c 3a 01          	lea    0x1(%edx,%edi,1),%ecx
    3cbc:	8d 74 26 00          	lea    0x0(%esi,%eiz,1),%esi
    3cc0:	88 1a                	mov    %bl,(%edx)
    3cc2:	42                   	inc    %edx
    3cc3:	39 ca                	cmp    %ecx,%edx
    3cc5:	75 f9                	jne    3cc0 <memset+0x100>
    3cc7:	8b 5d f0             	mov    -0x10(%ebp),%ebx
    3cca:	01 c3                	add    %eax,%ebx
    3ccc:	8b 75 10             	mov    0x10(%ebp),%esi
    3ccf:	2b 75 f0             	sub    -0x10(%ebp),%esi
    3cd2:	74 43                	je     3d17 <memset+0x157>
    3cd4:	0f b6 55 0c          	movzbl 0xc(%ebp),%edx
    3cd8:	89 d1                	mov    %edx,%ecx
    3cda:	89 f7                	mov    %esi,%edi
    3cdc:	c1 e1 08             	shl    $0x8,%ecx
    3cdf:	83 e7 03             	and    $0x3,%edi
    3ce2:	09 d1                	or     %edx,%ecx
    3ce4:	c1 e1 08             	shl    $0x8,%ecx
    3ce7:	09 d1                	or     %edx,%ecx
    3ce9:	c1 e1 08             	shl    $0x8,%ecx
    3cec:	09 d1                	or     %edx,%ecx
    3cee:	c1 ee 02             	shr    $0x2,%esi
    3cf1:	74 10                	je     3d03 <memset+0x143>
    3cf3:	31 d2                	xor    %edx,%edx
    3cf5:	8d 76 00             	lea    0x0(%esi),%esi
    3cf8:	89 0c 93             	mov    %ecx,(%ebx,%edx,4)
    3cfb:	42                   	inc    %edx
    3cfc:	39 f2                	cmp    %esi,%edx
    3cfe:	75 f8                	jne    3cf8 <memset+0x138>
    3d00:	8d 1c 93             	lea    (%ebx,%edx,4),%ebx
    3d03:	85 ff                	test   %edi,%edi
    3d05:	74 10                	je     3d17 <memset+0x157>
    3d07:	8a 55 0c             	mov    0xc(%ebp),%dl
    3d0a:	01 df                	add    %ebx,%edi
    3d0c:	8d 74 26 00          	lea    0x0(%esi,%eiz,1),%esi
    3d10:	88 13                	mov    %dl,(%ebx)
    3d12:	43                   	inc    %ebx
    3d13:	39 fb                	cmp    %edi,%ebx
    3d15:	75 f9                	jne    3d10 <memset+0x150>
    3d17:	83 c4 20             	add    $0x20,%esp
    3d1a:	5b                   	pop    %ebx
    3d1b:	5e                   	pop    %esi
    3d1c:	5f                   	pop    %edi
    3d1d:	5d                   	pop    %ebp
    3d1e:	c3                   	ret    
    3d1f:	90                   	nop
    3d20:	89 55 ec             	mov    %edx,-0x14(%ebp)
    3d23:	e9 ea fe ff ff       	jmp    3c12 <memset+0x52>
    3d28:	89 c3                	mov    %eax,%ebx
    3d2a:	eb a0                	jmp    3ccc <memset+0x10c>
    3d2c:	8b 4d ec             	mov    -0x14(%ebp),%ecx
    3d2f:	85 c9                	test   %ecx,%ecx
    3d31:	0f 85 eb fe ff ff    	jne    3c22 <memset+0x62>
    3d37:	89 45 d4             	mov    %eax,-0x2c(%ebp)
    3d3a:	e9 04 ff ff ff       	jmp    3c43 <memset+0x83>
    3d3f:	90                   	nop

00003d40 <memcpy>:
    3d40:	55                   	push   %ebp
    3d41:	89 e5                	mov    %esp,%ebp
    3d43:	57                   	push   %edi
    3d44:	56                   	push   %esi
    3d45:	53                   	push   %ebx
    3d46:	83 ec 0c             	sub    $0xc,%esp
    3d49:	8b 4d 0c             	mov    0xc(%ebp),%ecx
    3d4c:	8b 45 08             	mov    0x8(%ebp),%eax
    3d4f:	89 ca                	mov    %ecx,%edx
    3d51:	31 c2                	xor    %eax,%edx
    3d53:	83 e2 03             	and    $0x3,%edx
    3d56:	0f 85 84 01 00 00    	jne    3ee0 <memcpy+0x1a0>
    3d5c:	c7 45 ec 04 00 00 00 	movl   $0x4,-0x14(%ebp)
    3d63:	89 c2                	mov    %eax,%edx
    3d65:	83 e2 03             	and    $0x3,%edx
    3d68:	8b 75 ec             	mov    -0x14(%ebp),%esi
    3d6b:	29 d6                	sub    %edx,%esi
    3d6d:	8b 55 10             	mov    0x10(%ebp),%edx
    3d70:	89 75 ec             	mov    %esi,-0x14(%ebp)
    3d73:	39 55 ec             	cmp    %edx,-0x14(%ebp)
    3d76:	0f 87 5c 01 00 00    	ja     3ed8 <memcpy+0x198>
    3d7c:	8b 5d ec             	mov    -0x14(%ebp),%ebx
    3d7f:	4b                   	dec    %ebx
    3d80:	89 5d f0             	mov    %ebx,-0x10(%ebp)
    3d83:	8b 5d ec             	mov    -0x14(%ebp),%ebx
    3d86:	85 db                	test   %ebx,%ebx
    3d88:	0f 84 91 01 00 00    	je     3f1f <memcpy+0x1df>
    3d8e:	8d 51 04             	lea    0x4(%ecx),%edx
    3d91:	8b 5d ec             	mov    -0x14(%ebp),%ebx
    3d94:	c1 eb 02             	shr    $0x2,%ebx
    3d97:	39 d0                	cmp    %edx,%eax
    3d99:	0f 93 c2             	setae  %dl
    3d9c:	89 d6                	mov    %edx,%esi
    3d9e:	8d 50 04             	lea    0x4(%eax),%edx
    3da1:	39 d1                	cmp    %edx,%ecx
    3da3:	8d 3c 9d 00 00 00 00 	lea    0x0(,%ebx,4),%edi
    3daa:	0f 93 c2             	setae  %dl
    3dad:	09 d6                	or     %edx,%esi
    3daf:	83 7d ec 09          	cmpl   $0x9,-0x14(%ebp)
    3db3:	0f 97 c2             	seta   %dl
    3db6:	21 d6                	and    %edx,%esi
    3db8:	89 ca                	mov    %ecx,%edx
    3dba:	09 c2                	or     %eax,%edx
    3dbc:	83 e2 03             	and    $0x3,%edx
    3dbf:	89 f2                	mov    %esi,%edx
    3dc1:	0f 94 45 e8          	sete   -0x18(%ebp)
    3dc5:	84 55 e8             	test   %dl,-0x18(%ebp)
    3dc8:	0f 84 58 01 00 00    	je     3f26 <memcpy+0x1e6>
    3dce:	85 ff                	test   %edi,%edi
    3dd0:	0f 84 50 01 00 00    	je     3f26 <memcpy+0x1e6>
    3dd6:	31 d2                	xor    %edx,%edx
    3dd8:	8b 34 91             	mov    (%ecx,%edx,4),%esi
    3ddb:	89 34 90             	mov    %esi,(%eax,%edx,4)
    3dde:	42                   	inc    %edx
    3ddf:	39 d3                	cmp    %edx,%ebx
    3de1:	77 f5                	ja     3dd8 <memcpy+0x98>
    3de3:	8b 55 f0             	mov    -0x10(%ebp),%edx
    3de6:	8d 1c 39             	lea    (%ecx,%edi,1),%ebx
    3de9:	29 fa                	sub    %edi,%edx
    3deb:	8d 34 38             	lea    (%eax,%edi,1),%esi
    3dee:	89 55 f0             	mov    %edx,-0x10(%ebp)
    3df1:	39 7d ec             	cmp    %edi,-0x14(%ebp)
    3df4:	74 18                	je     3e0e <memcpy+0xce>
    3df6:	8b 7d f0             	mov    -0x10(%ebp),%edi
    3df9:	31 d2                	xor    %edx,%edx
    3dfb:	47                   	inc    %edi
    3dfc:	89 45 f0             	mov    %eax,-0x10(%ebp)
    3dff:	90                   	nop
    3e00:	8a 04 13             	mov    (%ebx,%edx,1),%al
    3e03:	88 04 16             	mov    %al,(%esi,%edx,1)
    3e06:	42                   	inc    %edx
    3e07:	39 fa                	cmp    %edi,%edx
    3e09:	75 f5                	jne    3e00 <memcpy+0xc0>
    3e0b:	8b 45 f0             	mov    -0x10(%ebp),%eax
    3e0e:	8b 55 ec             	mov    -0x14(%ebp),%edx
    3e11:	8b 7d ec             	mov    -0x14(%ebp),%edi
    3e14:	01 c2                	add    %eax,%edx
    3e16:	01 f9                	add    %edi,%ecx
    3e18:	8b 5d 10             	mov    0x10(%ebp),%ebx
    3e1b:	2b 5d ec             	sub    -0x14(%ebp),%ebx
    3e1e:	0f 84 a9 00 00 00    	je     3ecd <memcpy+0x18d>
    3e24:	89 df                	mov    %ebx,%edi
    3e26:	c1 ef 02             	shr    $0x2,%edi
    3e29:	8d 34 bd 00 00 00 00 	lea    0x0(,%edi,4),%esi
    3e30:	29 f3                	sub    %esi,%ebx
    3e32:	85 ff                	test   %edi,%edi
    3e34:	89 5d ec             	mov    %ebx,-0x14(%ebp)
    3e37:	74 1c                	je     3e55 <memcpy+0x115>
    3e39:	31 db                	xor    %ebx,%ebx
    3e3b:	89 45 f0             	mov    %eax,-0x10(%ebp)
    3e3e:	66 90                	xchg   %ax,%ax
    3e40:	8b 04 99             	mov    (%ecx,%ebx,4),%eax
    3e43:	89 04 9a             	mov    %eax,(%edx,%ebx,4)
    3e46:	43                   	inc    %ebx
    3e47:	39 fb                	cmp    %edi,%ebx
    3e49:	75 f5                	jne    3e40 <memcpy+0x100>
    3e4b:	8b 45 f0             	mov    -0x10(%ebp),%eax
    3e4e:	01 f2                	add    %esi,%edx
    3e50:	01 f1                	add    %esi,%ecx
    3e52:	8b 5d ec             	mov    -0x14(%ebp),%ebx
    3e55:	4b                   	dec    %ebx
    3e56:	8b 75 ec             	mov    -0x14(%ebp),%esi
    3e59:	89 5d e8             	mov    %ebx,-0x18(%ebp)
    3e5c:	85 f6                	test   %esi,%esi
    3e5e:	74 6d                	je     3ecd <memcpy+0x18d>
    3e60:	8d 5a 04             	lea    0x4(%edx),%ebx
    3e63:	8b 75 ec             	mov    -0x14(%ebp),%esi
    3e66:	c1 ee 02             	shr    $0x2,%esi
    3e69:	39 d9                	cmp    %ebx,%ecx
    3e6b:	8d 59 04             	lea    0x4(%ecx),%ebx
    3e6e:	0f 93 45 f0          	setae  -0x10(%ebp)
    3e72:	39 da                	cmp    %ebx,%edx
    3e74:	8d 3c b5 00 00 00 00 	lea    0x0(,%esi,4),%edi
    3e7b:	0f 93 c3             	setae  %bl
    3e7e:	08 5d f0             	or     %bl,-0x10(%ebp)
    3e81:	83 7d ec 08          	cmpl   $0x8,-0x14(%ebp)
    3e85:	0f 97 c3             	seta   %bl
    3e88:	84 5d f0             	test   %bl,-0x10(%ebp)
    3e8b:	74 2a                	je     3eb7 <memcpy+0x177>
    3e8d:	85 ff                	test   %edi,%edi
    3e8f:	74 26                	je     3eb7 <memcpy+0x177>
    3e91:	31 db                	xor    %ebx,%ebx
    3e93:	89 45 f0             	mov    %eax,-0x10(%ebp)
    3e96:	66 90                	xchg   %ax,%ax
    3e98:	8b 04 99             	mov    (%ecx,%ebx,4),%eax
    3e9b:	89 04 9a             	mov    %eax,(%edx,%ebx,4)
    3e9e:	43                   	inc    %ebx
    3e9f:	39 de                	cmp    %ebx,%esi
    3ea1:	77 f5                	ja     3e98 <memcpy+0x158>
    3ea3:	8b 5d e8             	mov    -0x18(%ebp),%ebx
    3ea6:	01 f9                	add    %edi,%ecx
    3ea8:	29 fb                	sub    %edi,%ebx
    3eaa:	01 fa                	add    %edi,%edx
    3eac:	8b 45 f0             	mov    -0x10(%ebp),%eax
    3eaf:	89 5d e8             	mov    %ebx,-0x18(%ebp)
    3eb2:	39 7d ec             	cmp    %edi,-0x14(%ebp)
    3eb5:	74 16                	je     3ecd <memcpy+0x18d>
    3eb7:	8b 75 e8             	mov    -0x18(%ebp),%esi
    3eba:	31 db                	xor    %ebx,%ebx
    3ebc:	46                   	inc    %esi
    3ebd:	89 c7                	mov    %eax,%edi
    3ebf:	90                   	nop
    3ec0:	8a 04 19             	mov    (%ecx,%ebx,1),%al
    3ec3:	88 04 1a             	mov    %al,(%edx,%ebx,1)
    3ec6:	43                   	inc    %ebx
    3ec7:	39 f3                	cmp    %esi,%ebx
    3ec9:	75 f5                	jne    3ec0 <memcpy+0x180>
    3ecb:	89 f8                	mov    %edi,%eax
    3ecd:	83 c4 0c             	add    $0xc,%esp
    3ed0:	5b                   	pop    %ebx
    3ed1:	5e                   	pop    %esi
    3ed2:	5f                   	pop    %edi
    3ed3:	5d                   	pop    %ebp
    3ed4:	c3                   	ret    
    3ed5:	8d 76 00             	lea    0x0(%esi),%esi
    3ed8:	89 55 ec             	mov    %edx,-0x14(%ebp)
    3edb:	e9 9c fe ff ff       	jmp    3d7c <memcpy+0x3c>
    3ee0:	8b 75 10             	mov    0x10(%ebp),%esi
    3ee3:	31 d2                	xor    %edx,%edx
    3ee5:	c1 ee 02             	shr    $0x2,%esi
    3ee8:	74 11                	je     3efb <memcpy+0x1bb>
    3eea:	8d b6 00 00 00 00    	lea    0x0(%esi),%esi
    3ef0:	8b 1c 91             	mov    (%ecx,%edx,4),%ebx
    3ef3:	89 1c 90             	mov    %ebx,(%eax,%edx,4)
    3ef6:	42                   	inc    %edx
    3ef7:	39 f2                	cmp    %esi,%edx
    3ef9:	75 f5                	jne    3ef0 <memcpy+0x1b0>
    3efb:	8b 75 10             	mov    0x10(%ebp),%esi
    3efe:	83 e6 03             	and    $0x3,%esi
    3f01:	74 ca                	je     3ecd <memcpy+0x18d>
    3f03:	c1 e2 02             	shl    $0x2,%edx
    3f06:	31 db                	xor    %ebx,%ebx
    3f08:	01 d1                	add    %edx,%ecx
    3f0a:	89 c7                	mov    %eax,%edi
    3f0c:	01 c2                	add    %eax,%edx
    3f0e:	66 90                	xchg   %ax,%ax
    3f10:	8a 04 19             	mov    (%ecx,%ebx,1),%al
    3f13:	88 04 1a             	mov    %al,(%edx,%ebx,1)
    3f16:	43                   	inc    %ebx
    3f17:	39 de                	cmp    %ebx,%esi
    3f19:	77 f5                	ja     3f10 <memcpy+0x1d0>
    3f1b:	89 f8                	mov    %edi,%eax
    3f1d:	eb ae                	jmp    3ecd <memcpy+0x18d>
    3f1f:	89 c2                	mov    %eax,%edx
    3f21:	e9 f2 fe ff ff       	jmp    3e18 <memcpy+0xd8>
    3f26:	89 c6                	mov    %eax,%esi
    3f28:	89 cb                	mov    %ecx,%ebx
    3f2a:	e9 c7 fe ff ff       	jmp    3df6 <memcpy+0xb6>
    3f2f:	90                   	nop

00003f30 <memmove>:
    3f30:	55                   	push   %ebp
    3f31:	89 e5                	mov    %esp,%ebp
    3f33:	57                   	push   %edi
    3f34:	56                   	push   %esi
    3f35:	53                   	push   %ebx
    3f36:	83 ec 0c             	sub    $0xc,%esp
    3f39:	8b 45 08             	mov    0x8(%ebp),%eax
    3f3c:	8b 55 0c             	mov    0xc(%ebp),%edx
    3f3f:	39 c2                	cmp    %eax,%edx
    3f41:	0f 84 b6 00 00 00    	je     3ffd <memmove+0xcd>
    3f47:	8b 4d 10             	mov    0x10(%ebp),%ecx
    3f4a:	01 d1                	add    %edx,%ecx
    3f4c:	39 c8                	cmp    %ecx,%eax
    3f4e:	0f 83 b4 00 00 00    	jae    4008 <memmove+0xd8>
    3f54:	8b 4d 10             	mov    0x10(%ebp),%ecx
    3f57:	01 c1                	add    %eax,%ecx
    3f59:	39 ca                	cmp    %ecx,%edx
    3f5b:	0f 83 a7 00 00 00    	jae    4008 <memmove+0xd8>
    3f61:	39 c2                	cmp    %eax,%edx
    3f63:	0f 86 47 02 00 00    	jbe    41b0 <memmove+0x280>
    3f69:	8b 7d 10             	mov    0x10(%ebp),%edi
    3f6c:	8b 4d 10             	mov    0x10(%ebp),%ecx
    3f6f:	4f                   	dec    %edi
    3f70:	85 c9                	test   %ecx,%ecx
    3f72:	0f 84 85 00 00 00    	je     3ffd <memmove+0xcd>
    3f78:	8d 5a 04             	lea    0x4(%edx),%ebx
    3f7b:	8b 4d 10             	mov    0x10(%ebp),%ecx
    3f7e:	c1 e9 02             	shr    $0x2,%ecx
    3f81:	39 d8                	cmp    %ebx,%eax
    3f83:	8d 58 04             	lea    0x4(%eax),%ebx
    3f86:	0f 93 45 f0          	setae  -0x10(%ebp)
    3f8a:	39 da                	cmp    %ebx,%edx
    3f8c:	8d 34 8d 00 00 00 00 	lea    0x0(,%ecx,4),%esi
    3f93:	0f 93 c3             	setae  %bl
    3f96:	08 5d f0             	or     %bl,-0x10(%ebp)
    3f99:	83 7d 10 09          	cmpl   $0x9,0x10(%ebp)
    3f9d:	0f 97 c3             	seta   %bl
    3fa0:	20 5d f0             	and    %bl,-0x10(%ebp)
    3fa3:	89 d3                	mov    %edx,%ebx
    3fa5:	09 c3                	or     %eax,%ebx
    3fa7:	83 e3 03             	and    $0x3,%ebx
    3faa:	0f 94 c3             	sete   %bl
    3fad:	84 5d f0             	test   %bl,-0x10(%ebp)
    3fb0:	0f 84 8b 02 00 00    	je     4241 <memmove+0x311>
    3fb6:	85 f6                	test   %esi,%esi
    3fb8:	0f 84 83 02 00 00    	je     4241 <memmove+0x311>
    3fbe:	31 db                	xor    %ebx,%ebx
    3fc0:	89 75 f0             	mov    %esi,-0x10(%ebp)
    3fc3:	90                   	nop
    3fc4:	8d 74 26 00          	lea    0x0(%esi,%eiz,1),%esi
    3fc8:	8b 34 9a             	mov    (%edx,%ebx,4),%esi
    3fcb:	89 34 98             	mov    %esi,(%eax,%ebx,4)
    3fce:	43                   	inc    %ebx
    3fcf:	39 d9                	cmp    %ebx,%ecx
    3fd1:	77 f5                	ja     3fc8 <memmove+0x98>
    3fd3:	8b 75 f0             	mov    -0x10(%ebp),%esi
    3fd6:	01 f2                	add    %esi,%edx
    3fd8:	29 f7                	sub    %esi,%edi
    3fda:	8d 0c 30             	lea    (%eax,%esi,1),%ecx
    3fdd:	39 75 10             	cmp    %esi,0x10(%ebp)
    3fe0:	74 1b                	je     3ffd <memmove+0xcd>
    3fe2:	8d 77 01             	lea    0x1(%edi),%esi
    3fe5:	31 db                	xor    %ebx,%ebx
    3fe7:	89 c7                	mov    %eax,%edi
    3fe9:	8d b4 26 00 00 00 00 	lea    0x0(%esi,%eiz,1),%esi
    3ff0:	8a 04 1a             	mov    (%edx,%ebx,1),%al
    3ff3:	88 04 19             	mov    %al,(%ecx,%ebx,1)
    3ff6:	43                   	inc    %ebx
    3ff7:	39 f3                	cmp    %esi,%ebx
    3ff9:	75 f5                	jne    3ff0 <memmove+0xc0>
    3ffb:	89 f8                	mov    %edi,%eax
    3ffd:	83 c4 0c             	add    $0xc,%esp
    4000:	5b                   	pop    %ebx
    4001:	5e                   	pop    %esi
    4002:	5f                   	pop    %edi
    4003:	5d                   	pop    %ebp
    4004:	c3                   	ret    
    4005:	8d 76 00             	lea    0x0(%esi),%esi
    4008:	89 d1                	mov    %edx,%ecx
    400a:	31 c1                	xor    %eax,%ecx
    400c:	83 e1 03             	and    $0x3,%ecx
    400f:	0f 85 db 01 00 00    	jne    41f0 <memmove+0x2c0>
    4015:	c7 45 e8 04 00 00 00 	movl   $0x4,-0x18(%ebp)
    401c:	89 c1                	mov    %eax,%ecx
    401e:	83 e1 03             	and    $0x3,%ecx
    4021:	8b 75 e8             	mov    -0x18(%ebp),%esi
    4024:	29 ce                	sub    %ecx,%esi
    4026:	8b 4d 10             	mov    0x10(%ebp),%ecx
    4029:	89 75 e8             	mov    %esi,-0x18(%ebp)
    402c:	39 4d e8             	cmp    %ecx,-0x18(%ebp)
    402f:	0f 87 b3 01 00 00    	ja     41e8 <memmove+0x2b8>
    4035:	8b 5d e8             	mov    -0x18(%ebp),%ebx
    4038:	4b                   	dec    %ebx
    4039:	89 5d f0             	mov    %ebx,-0x10(%ebp)
    403c:	8b 5d e8             	mov    -0x18(%ebp),%ebx
    403f:	85 db                	test   %ebx,%ebx
    4041:	0f 84 f3 01 00 00    	je     423a <memmove+0x30a>
    4047:	8d 4a 04             	lea    0x4(%edx),%ecx
    404a:	8b 5d e8             	mov    -0x18(%ebp),%ebx
    404d:	c1 eb 02             	shr    $0x2,%ebx
    4050:	39 c8                	cmp    %ecx,%eax
    4052:	0f 93 c1             	setae  %cl
    4055:	89 ce                	mov    %ecx,%esi
    4057:	8d 48 04             	lea    0x4(%eax),%ecx
    405a:	39 ca                	cmp    %ecx,%edx
    405c:	8d 3c 9d 00 00 00 00 	lea    0x0(,%ebx,4),%edi
    4063:	0f 93 c1             	setae  %cl
    4066:	09 ce                	or     %ecx,%esi
    4068:	83 7d e8 09          	cmpl   $0x9,-0x18(%ebp)
    406c:	0f 97 c1             	seta   %cl
    406f:	21 ce                	and    %ecx,%esi
    4071:	89 d1                	mov    %edx,%ecx
    4073:	09 c1                	or     %eax,%ecx
    4075:	83 e1 03             	and    $0x3,%ecx
    4078:	89 f1                	mov    %esi,%ecx
    407a:	0f 94 45 ec          	sete   -0x14(%ebp)
    407e:	84 4d ec             	test   %cl,-0x14(%ebp)
    4081:	0f 84 c1 01 00 00    	je     4248 <memmove+0x318>
    4087:	85 ff                	test   %edi,%edi
    4089:	0f 84 b9 01 00 00    	je     4248 <memmove+0x318>
    408f:	31 c9                	xor    %ecx,%ecx
    4091:	8d b4 26 00 00 00 00 	lea    0x0(%esi,%eiz,1),%esi
    4098:	8b 34 8a             	mov    (%edx,%ecx,4),%esi
    409b:	89 34 88             	mov    %esi,(%eax,%ecx,4)
    409e:	41                   	inc    %ecx
    409f:	39 cb                	cmp    %ecx,%ebx
    40a1:	77 f5                	ja     4098 <memmove+0x168>
    40a3:	8b 4d f0             	mov    -0x10(%ebp),%ecx
    40a6:	8d 1c 3a             	lea    (%edx,%edi,1),%ebx
    40a9:	29 f9                	sub    %edi,%ecx
    40ab:	8d 34 38             	lea    (%eax,%edi,1),%esi
    40ae:	89 4d f0             	mov    %ecx,-0x10(%ebp)
    40b1:	39 7d e8             	cmp    %edi,-0x18(%ebp)
    40b4:	74 18                	je     40ce <memmove+0x19e>
    40b6:	8b 7d f0             	mov    -0x10(%ebp),%edi
    40b9:	31 c9                	xor    %ecx,%ecx
    40bb:	47                   	inc    %edi
    40bc:	89 45 f0             	mov    %eax,-0x10(%ebp)
    40bf:	90                   	nop
    40c0:	8a 04 0b             	mov    (%ebx,%ecx,1),%al
    40c3:	88 04 0e             	mov    %al,(%esi,%ecx,1)
    40c6:	41                   	inc    %ecx
    40c7:	39 f9                	cmp    %edi,%ecx
    40c9:	75 f5                	jne    40c0 <memmove+0x190>
    40cb:	8b 45 f0             	mov    -0x10(%ebp),%eax
    40ce:	8b 4d e8             	mov    -0x18(%ebp),%ecx
    40d1:	8b 7d e8             	mov    -0x18(%ebp),%edi
    40d4:	01 c1                	add    %eax,%ecx
    40d6:	01 fa                	add    %edi,%edx
    40d8:	8b 5d 10             	mov    0x10(%ebp),%ebx
    40db:	2b 5d e8             	sub    -0x18(%ebp),%ebx
    40de:	0f 84 19 ff ff ff    	je     3ffd <memmove+0xcd>
    40e4:	89 de                	mov    %ebx,%esi
    40e6:	c1 ee 02             	shr    $0x2,%esi
    40e9:	8d 3c b5 00 00 00 00 	lea    0x0(,%esi,4),%edi
    40f0:	29 fb                	sub    %edi,%ebx
    40f2:	85 f6                	test   %esi,%esi
    40f4:	89 5d ec             	mov    %ebx,-0x14(%ebp)
    40f7:	74 1c                	je     4115 <memmove+0x1e5>
    40f9:	31 db                	xor    %ebx,%ebx
    40fb:	89 45 f0             	mov    %eax,-0x10(%ebp)
    40fe:	66 90                	xchg   %ax,%ax
    4100:	8b 04 9a             	mov    (%edx,%ebx,4),%eax
    4103:	89 04 99             	mov    %eax,(%ecx,%ebx,4)
    4106:	43                   	inc    %ebx
    4107:	39 f3                	cmp    %esi,%ebx
    4109:	75 f5                	jne    4100 <memmove+0x1d0>
    410b:	8b 45 f0             	mov    -0x10(%ebp),%eax
    410e:	01 f9                	add    %edi,%ecx
    4110:	01 fa                	add    %edi,%edx
    4112:	8b 5d ec             	mov    -0x14(%ebp),%ebx
    4115:	4b                   	dec    %ebx
    4116:	8b 75 ec             	mov    -0x14(%ebp),%esi
    4119:	89 5d e8             	mov    %ebx,-0x18(%ebp)
    411c:	85 f6                	test   %esi,%esi
    411e:	0f 84 d9 fe ff ff    	je     3ffd <memmove+0xcd>
    4124:	8d 59 04             	lea    0x4(%ecx),%ebx
    4127:	8b 75 ec             	mov    -0x14(%ebp),%esi
    412a:	c1 ee 02             	shr    $0x2,%esi
    412d:	39 da                	cmp    %ebx,%edx
    412f:	8d 5a 04             	lea    0x4(%edx),%ebx
    4132:	0f 93 45 f0          	setae  -0x10(%ebp)
    4136:	39 d9                	cmp    %ebx,%ecx
    4138:	8d 3c b5 00 00 00 00 	lea    0x0(,%esi,4),%edi
    413f:	0f 93 c3             	setae  %bl
    4142:	08 5d f0             	or     %bl,-0x10(%ebp)
    4145:	83 7d ec 09          	cmpl   $0x9,-0x14(%ebp)
    4149:	0f 97 c3             	seta   %bl
    414c:	20 5d f0             	and    %bl,-0x10(%ebp)
    414f:	89 cb                	mov    %ecx,%ebx
    4151:	09 d3                	or     %edx,%ebx
    4153:	83 e3 03             	and    $0x3,%ebx
    4156:	0f 94 c3             	sete   %bl
    4159:	84 5d f0             	test   %bl,-0x10(%ebp)
    415c:	74 2d                	je     418b <memmove+0x25b>
    415e:	85 ff                	test   %edi,%edi
    4160:	74 29                	je     418b <memmove+0x25b>
    4162:	31 db                	xor    %ebx,%ebx
    4164:	89 45 f0             	mov    %eax,-0x10(%ebp)
    4167:	90                   	nop
    4168:	8b 04 9a             	mov    (%edx,%ebx,4),%eax
    416b:	89 04 99             	mov    %eax,(%ecx,%ebx,4)
    416e:	43                   	inc    %ebx
    416f:	39 de                	cmp    %ebx,%esi
    4171:	77 f5                	ja     4168 <memmove+0x238>
    4173:	8b 5d e8             	mov    -0x18(%ebp),%ebx
    4176:	01 fa                	add    %edi,%edx
    4178:	29 fb                	sub    %edi,%ebx
    417a:	01 f9                	add    %edi,%ecx
    417c:	8b 45 f0             	mov    -0x10(%ebp),%eax
    417f:	89 5d e8             	mov    %ebx,-0x18(%ebp)
    4182:	39 7d ec             	cmp    %edi,-0x14(%ebp)
    4185:	0f 84 72 fe ff ff    	je     3ffd <memmove+0xcd>
    418b:	8b 75 e8             	mov    -0x18(%ebp),%esi
    418e:	31 db                	xor    %ebx,%ebx
    4190:	46                   	inc    %esi
    4191:	89 c7                	mov    %eax,%edi
    4193:	90                   	nop
    4194:	8d 74 26 00          	lea    0x0(%esi,%eiz,1),%esi
    4198:	8a 04 1a             	mov    (%edx,%ebx,1),%al
    419b:	88 04 19             	mov    %al,(%ecx,%ebx,1)
    419e:	43                   	inc    %ebx
    419f:	39 f3                	cmp    %esi,%ebx
    41a1:	75 f5                	jne    4198 <memmove+0x268>
    41a3:	89 f8                	mov    %edi,%eax
    41a5:	e9 53 fe ff ff       	jmp    3ffd <memmove+0xcd>
    41aa:	8d b6 00 00 00 00    	lea    0x0(%esi),%esi
    41b0:	8b 4d 10             	mov    0x10(%ebp),%ecx
    41b3:	8b 7d 10             	mov    0x10(%ebp),%edi
    41b6:	49                   	dec    %ecx
    41b7:	01 ca                	add    %ecx,%edx
    41b9:	85 ff                	test   %edi,%edi
    41bb:	8d 1c 08             	lea    (%eax,%ecx,1),%ebx
    41be:	0f 84 39 fe ff ff    	je     3ffd <memmove+0xcd>
    41c4:	8b 75 10             	mov    0x10(%ebp),%esi
    41c7:	f7 de                	neg    %esi
    41c9:	01 f2                	add    %esi,%edx
    41cb:	01 f3                	add    %esi,%ebx
    41cd:	89 c6                	mov    %eax,%esi
    41cf:	90                   	nop
    41d0:	8a 44 0a 01          	mov    0x1(%edx,%ecx,1),%al
    41d4:	88 44 0b 01          	mov    %al,0x1(%ebx,%ecx,1)
    41d8:	49                   	dec    %ecx
    41d9:	83 f9 ff             	cmp    $0xffffffff,%ecx
    41dc:	75 f2                	jne    41d0 <memmove+0x2a0>
    41de:	83 c4 0c             	add    $0xc,%esp
    41e1:	89 f0                	mov    %esi,%eax
    41e3:	5b                   	pop    %ebx
    41e4:	5e                   	pop    %esi
    41e5:	5f                   	pop    %edi
    41e6:	5d                   	pop    %ebp
    41e7:	c3                   	ret    
    41e8:	89 4d e8             	mov    %ecx,-0x18(%ebp)
    41eb:	e9 45 fe ff ff       	jmp    4035 <memmove+0x105>
    41f0:	8b 75 10             	mov    0x10(%ebp),%esi
    41f3:	31 c9                	xor    %ecx,%ecx
    41f5:	c1 ee 02             	shr    $0x2,%esi
    41f8:	74 11                	je     420b <memmove+0x2db>
    41fa:	8d b6 00 00 00 00    	lea    0x0(%esi),%esi
    4200:	8b 1c 8a             	mov    (%edx,%ecx,4),%ebx
    4203:	89 1c 88             	mov    %ebx,(%eax,%ecx,4)
    4206:	41                   	inc    %ecx
    4207:	39 f1                	cmp    %esi,%ecx
    4209:	75 f5                	jne    4200 <memmove+0x2d0>
    420b:	8b 75 10             	mov    0x10(%ebp),%esi
    420e:	83 e6 03             	and    $0x3,%esi
    4211:	0f 84 e6 fd ff ff    	je     3ffd <memmove+0xcd>
    4217:	c1 e1 02             	shl    $0x2,%ecx
    421a:	31 db                	xor    %ebx,%ebx
    421c:	01 ca                	add    %ecx,%edx
    421e:	89 c7                	mov    %eax,%edi
    4220:	01 c1                	add    %eax,%ecx
    4222:	8d b6 00 00 00 00    	lea    0x0(%esi),%esi
    4228:	8a 04 1a             	mov    (%edx,%ebx,1),%al
    422b:	88 04 19             	mov    %al,(%ecx,%ebx,1)
    422e:	43                   	inc    %ebx
    422f:	39 de                	cmp    %ebx,%esi
    4231:	77 f5                	ja     4228 <memmove+0x2f8>
    4233:	89 f8                	mov    %edi,%eax
    4235:	e9 c3 fd ff ff       	jmp    3ffd <memmove+0xcd>
    423a:	89 c1                	mov    %eax,%ecx
    423c:	e9 97 fe ff ff       	jmp    40d8 <memmove+0x1a8>
    4241:	89 c1                	mov    %eax,%ecx
    4243:	e9 9a fd ff ff       	jmp    3fe2 <memmove+0xb2>
    4248:	89 c6                	mov    %eax,%esi
    424a:	89 d3                	mov    %edx,%ebx
    424c:	e9 65 fe ff ff       	jmp    40b6 <memmove+0x186>
    4251:	eb 0d                	jmp    4260 <bcmp>
    4253:	90                   	nop
    4254:	90                   	nop
    4255:	90                   	nop
    4256:	90                   	nop
    4257:	90                   	nop
    4258:	90                   	nop
    4259:	90                   	nop
    425a:	90                   	nop
    425b:	90                   	nop
    425c:	90                   	nop
    425d:	90                   	nop
    425e:	90                   	nop
    425f:	90                   	nop

00004260 <bcmp>:
    4260:	55                   	push   %ebp
    4261:	89 e5                	mov    %esp,%ebp
    4263:	57                   	push   %edi
    4264:	56                   	push   %esi
    4265:	53                   	push   %ebx
    4266:	8b 45 10             	mov    0x10(%ebp),%eax
    4269:	8b 7d 08             	mov    0x8(%ebp),%edi
    426c:	8b 75 0c             	mov    0xc(%ebp),%esi
    426f:	85 c0                	test   %eax,%eax
    4271:	74 1d                	je     4290 <bcmp+0x30>
    4273:	8a 0e                	mov    (%esi),%cl
    4275:	31 d2                	xor    %edx,%edx
    4277:	38 0f                	cmp    %cl,(%edi)
    4279:	74 12                	je     428d <bcmp+0x2d>
    427b:	eb 15                	jmp    4292 <bcmp+0x32>
    427d:	8d 76 00             	lea    0x0(%esi),%esi
    4280:	8a 5c 17 01          	mov    0x1(%edi,%edx,1),%bl
    4284:	8a 4c 16 01          	mov    0x1(%esi,%edx,1),%cl
    4288:	42                   	inc    %edx
    4289:	38 cb                	cmp    %cl,%bl
    428b:	75 05                	jne    4292 <bcmp+0x32>
    428d:	48                   	dec    %eax
    428e:	75 f0                	jne    4280 <bcmp+0x20>
    4290:	31 c0                	xor    %eax,%eax
    4292:	5b                   	pop    %ebx
    4293:	5e                   	pop    %esi
    4294:	5f                   	pop    %edi
    4295:	5d                   	pop    %ebp
    4296:	c3                   	ret    
    4297:	66 90                	xchg   %ax,%ax
    4299:	66 90                	xchg   %ax,%ax
    429b:	66 90                	xchg   %ax,%ax
    429d:	66 90                	xchg   %ax,%ax
    429f:	90                   	nop

000042a0 <_strtoul>:
    42a0:	55                   	push   %ebp
    42a1:	89 e5                	mov    %esp,%ebp
    42a3:	57                   	push   %edi
    42a4:	56                   	push   %esi
    42a5:	53                   	push   %ebx
    42a6:	83 ec 08             	sub    $0x8,%esp
    42a9:	89 45 f0             	mov    %eax,-0x10(%ebp)
    42ac:	8a 00                	mov    (%eax),%al
    42ae:	89 55 ec             	mov    %edx,-0x14(%ebp)
    42b1:	0f be d0             	movsbl %al,%edx
    42b4:	83 ea 09             	sub    $0x9,%edx
    42b7:	8b 5d f0             	mov    -0x10(%ebp),%ebx
    42ba:	83 fa 17             	cmp    $0x17,%edx
    42bd:	77 23                	ja     42e2 <_strtoul+0x42>
    42bf:	8b 3c 95 40 0e 02 00 	mov    0x20e40(,%edx,4),%edi
    42c6:	85 ff                	test   %edi,%edi
    42c8:	0f 84 94 01 00 00    	je     4462 <_strtoul+0x1c2>
    42ce:	66 90                	xchg   %ax,%ax
    42d0:	43                   	inc    %ebx
    42d1:	8a 03                	mov    (%ebx),%al
    42d3:	0f be d0             	movsbl %al,%edx
    42d6:	83 ea 09             	sub    $0x9,%edx
    42d9:	83 fa 17             	cmp    $0x17,%edx
    42dc:	0f 86 a6 00 00 00    	jbe    4388 <_strtoul+0xe8>
    42e2:	3c 2d                	cmp    $0x2d,%al
    42e4:	0f 84 1e 01 00 00    	je     4408 <_strtoul+0x168>
    42ea:	3c 2b                	cmp    $0x2b,%al
    42ec:	0f 94 c0             	sete   %al
    42ef:	25 ff 00 00 00       	and    $0xff,%eax
    42f4:	01 c3                	add    %eax,%ebx
    42f6:	85 c9                	test   %ecx,%ecx
    42f8:	0f 84 a2 00 00 00    	je     43a0 <_strtoul+0x100>
    42fe:	83 f9 24             	cmp    $0x24,%ecx
    4301:	0f 8f 21 01 00 00    	jg     4428 <_strtoul+0x188>
    4307:	83 f9 01             	cmp    $0x1,%ecx
    430a:	0f 84 18 01 00 00    	je     4428 <_strtoul+0x188>
    4310:	8a 13                	mov    (%ebx),%dl
    4312:	83 f9 10             	cmp    $0x10,%ecx
    4315:	0f 84 16 01 00 00    	je     4431 <_strtoul+0x191>
    431b:	84 d2                	test   %dl,%dl
    431d:	0f 84 2c 01 00 00    	je     444f <_strtoul+0x1af>
    4323:	89 de                	mov    %ebx,%esi
    4325:	31 c0                	xor    %eax,%eax
    4327:	eb 4a                	jmp    4373 <_strtoul+0xd3>
    4329:	8d b4 26 00 00 00 00 	lea    0x0(%esi,%eiz,1),%esi
    4330:	83 ea 57             	sub    $0x57,%edx
    4333:	81 e2 ff 00 00 00    	and    $0xff,%edx
    4339:	39 d1                	cmp    %edx,%ecx
    433b:	0f 8e 94 00 00 00    	jle    43d5 <_strtoul+0x135>
    4341:	0f b6 f8             	movzbl %al,%edi
    4344:	0f af f9             	imul   %ecx,%edi
    4347:	c1 e8 08             	shr    $0x8,%eax
    434a:	01 fa                	add    %edi,%edx
    434c:	0f af c1             	imul   %ecx,%eax
    434f:	89 d7                	mov    %edx,%edi
    4351:	c1 ef 08             	shr    $0x8,%edi
    4354:	01 f8                	add    %edi,%eax
    4356:	3d ff ff ff 00       	cmp    $0xffffff,%eax
    435b:	0f 87 b7 00 00 00    	ja     4418 <_strtoul+0x178>
    4361:	46                   	inc    %esi
    4362:	81 e2 ff 00 00 00    	and    $0xff,%edx
    4368:	c1 e0 08             	shl    $0x8,%eax
    436b:	01 d0                	add    %edx,%eax
    436d:	8a 16                	mov    (%esi),%dl
    436f:	84 d2                	test   %dl,%dl
    4371:	74 62                	je     43d5 <_strtoul+0x135>
    4373:	80 fa 60             	cmp    $0x60,%dl
    4376:	77 b8                	ja     4330 <_strtoul+0x90>
    4378:	80 fa 40             	cmp    $0x40,%dl
    437b:	76 53                	jbe    43d0 <_strtoul+0x130>
    437d:	83 ea 37             	sub    $0x37,%edx
    4380:	eb b1                	jmp    4333 <_strtoul+0x93>
    4382:	8d b6 00 00 00 00    	lea    0x0(%esi),%esi
    4388:	8b 34 95 40 0e 02 00 	mov    0x20e40(,%edx,4),%esi
    438f:	85 f6                	test   %esi,%esi
    4391:	0f 85 39 ff ff ff    	jne    42d0 <_strtoul+0x30>
    4397:	e9 46 ff ff ff       	jmp    42e2 <_strtoul+0x42>
    439c:	8d 74 26 00          	lea    0x0(%esi,%eiz,1),%esi
    43a0:	8a 13                	mov    (%ebx),%dl
    43a2:	b9 0a 00 00 00       	mov    $0xa,%ecx
    43a7:	80 fa 30             	cmp    $0x30,%dl
    43aa:	0f 85 6b ff ff ff    	jne    431b <_strtoul+0x7b>
    43b0:	8a 43 01             	mov    0x1(%ebx),%al
    43b3:	83 e0 df             	and    $0xffffffdf,%eax
    43b6:	3c 58                	cmp    $0x58,%al
    43b8:	0f 85 98 00 00 00    	jne    4456 <_strtoul+0x1b6>
    43be:	8a 53 02             	mov    0x2(%ebx),%dl
    43c1:	b1 10                	mov    $0x10,%cl
    43c3:	83 c3 02             	add    $0x2,%ebx
    43c6:	e9 50 ff ff ff       	jmp    431b <_strtoul+0x7b>
    43cb:	90                   	nop
    43cc:	8d 74 26 00          	lea    0x0(%esi,%eiz,1),%esi
    43d0:	80 fa 39             	cmp    $0x39,%dl
    43d3:	76 2b                	jbe    4400 <_strtoul+0x160>
    43d5:	39 f3                	cmp    %esi,%ebx
    43d7:	74 76                	je     444f <_strtoul+0x1af>
    43d9:	8b 5d ec             	mov    -0x14(%ebp),%ebx
    43dc:	85 db                	test   %ebx,%ebx
    43de:	74 05                	je     43e5 <_strtoul+0x145>
    43e0:	8b 55 ec             	mov    -0x14(%ebp),%edx
    43e3:	89 32                	mov    %esi,(%edx)
    43e5:	39 75 f0             	cmp    %esi,-0x10(%ebp)
    43e8:	0f 95 c2             	setne  %dl
    43eb:	81 e2 ff 00 00 00    	and    $0xff,%edx
    43f1:	f7 da                	neg    %edx
    43f3:	21 d0                	and    %edx,%eax
    43f5:	5a                   	pop    %edx
    43f6:	59                   	pop    %ecx
    43f7:	5b                   	pop    %ebx
    43f8:	5e                   	pop    %esi
    43f9:	5f                   	pop    %edi
    43fa:	5d                   	pop    %ebp
    43fb:	c3                   	ret    
    43fc:	8d 74 26 00          	lea    0x0(%esi,%eiz,1),%esi
    4400:	83 ea 30             	sub    $0x30,%edx
    4403:	e9 2b ff ff ff       	jmp    4333 <_strtoul+0x93>
    4408:	8b 45 08             	mov    0x8(%ebp),%eax
    440b:	43                   	inc    %ebx
    440c:	c6 00 01             	movb   $0x1,(%eax)
    440f:	e9 e2 fe ff ff       	jmp    42f6 <_strtoul+0x56>
    4414:	8d 74 26 00          	lea    0x0(%esi,%eiz,1),%esi
    4418:	5a                   	pop    %edx
    4419:	83 c8 ff             	or     $0xffffffff,%eax
    441c:	59                   	pop    %ecx
    441d:	5b                   	pop    %ebx
    441e:	5e                   	pop    %esi
    441f:	5f                   	pop    %edi
    4420:	5d                   	pop    %ebp
    4421:	c3                   	ret    
    4422:	8d b6 00 00 00 00    	lea    0x0(%esi),%esi
    4428:	5a                   	pop    %edx
    4429:	31 c0                	xor    %eax,%eax
    442b:	59                   	pop    %ecx
    442c:	5b                   	pop    %ebx
    442d:	5e                   	pop    %esi
    442e:	5f                   	pop    %edi
    442f:	5d                   	pop    %ebp
    4430:	c3                   	ret    
    4431:	80 fa 30             	cmp    $0x30,%dl
    4434:	0f 85 e1 fe ff ff    	jne    431b <_strtoul+0x7b>
    443a:	8a 43 01             	mov    0x1(%ebx),%al
    443d:	83 e0 df             	and    $0xffffffdf,%eax
    4440:	3c 58                	cmp    $0x58,%al
    4442:	75 17                	jne    445b <_strtoul+0x1bb>
    4444:	8a 53 02             	mov    0x2(%ebx),%dl
    4447:	83 c3 02             	add    $0x2,%ebx
    444a:	e9 cc fe ff ff       	jmp    431b <_strtoul+0x7b>
    444f:	8b 75 f0             	mov    -0x10(%ebp),%esi
    4452:	31 c0                	xor    %eax,%eax
    4454:	eb 83                	jmp    43d9 <_strtoul+0x139>
    4456:	b9 08 00 00 00       	mov    $0x8,%ecx
    445b:	b2 30                	mov    $0x30,%dl
    445d:	e9 c1 fe ff ff       	jmp    4323 <_strtoul+0x83>
    4462:	8b 5d f0             	mov    -0x10(%ebp),%ebx
    4465:	e9 78 fe ff ff       	jmp    42e2 <_strtoul+0x42>
    446a:	8d b6 00 00 00 00    	lea    0x0(%esi),%esi

00004470 <str_uint>:
    4470:	55                   	push   %ebp
    4471:	89 e5                	mov    %esp,%ebp
    4473:	57                   	push   %edi
    4474:	56                   	push   %esi
    4475:	53                   	push   %ebx
    4476:	83 ec 3c             	sub    $0x3c,%esp
    4479:	89 45 dc             	mov    %eax,-0x24(%ebp)
    447c:	89 55 d8             	mov    %edx,-0x28(%ebp)
    447f:	8b 75 08             	mov    0x8(%ebp),%esi
    4482:	85 d2                	test   %edx,%edx
    4484:	0f 84 5f 02 00 00    	je     46e9 <str_uint+0x279>
    448a:	85 f6                	test   %esi,%esi
    448c:	0f 84 3b 02 00 00    	je     46cd <str_uint+0x25d>
    4492:	8b 45 0c             	mov    0xc(%ebp),%eax
    4495:	85 c0                	test   %eax,%eax
    4497:	0f 84 14 02 00 00    	je     46b1 <str_uint+0x241>
    449d:	8b 45 dc             	mov    -0x24(%ebp),%eax
    44a0:	c6 06 00             	movb   $0x0,(%esi)
    44a3:	8b 5d dc             	mov    -0x24(%ebp),%ebx
    44a6:	8a 10                	mov    (%eax),%dl
    44a8:	0f be c2             	movsbl %dl,%eax
    44ab:	83 e8 09             	sub    $0x9,%eax
    44ae:	83 f8 17             	cmp    $0x17,%eax
    44b1:	77 27                	ja     44da <str_uint+0x6a>
    44b3:	8b 04 85 40 0e 02 00 	mov    0x20e40(,%eax,4),%eax
    44ba:	85 c0                	test   %eax,%eax
    44bc:	0f 84 e7 01 00 00    	je     46a9 <str_uint+0x239>
    44c2:	8d b6 00 00 00 00    	lea    0x0(%esi),%esi
    44c8:	43                   	inc    %ebx
    44c9:	8a 13                	mov    (%ebx),%dl
    44cb:	0f be c2             	movsbl %dl,%eax
    44ce:	83 e8 09             	sub    $0x9,%eax
    44d1:	83 f8 17             	cmp    $0x17,%eax
    44d4:	0f 86 06 01 00 00    	jbe    45e0 <str_uint+0x170>
    44da:	80 fa 2d             	cmp    $0x2d,%dl
    44dd:	0f 84 4d 01 00 00    	je     4630 <str_uint+0x1c0>
    44e3:	80 fa 2b             	cmp    $0x2b,%dl
    44e6:	0f 94 c0             	sete   %al
    44e9:	25 ff 00 00 00       	and    $0xff,%eax
    44ee:	01 c3                	add    %eax,%ebx
    44f0:	85 c9                	test   %ecx,%ecx
    44f2:	0f 85 18 01 00 00    	jne    4610 <str_uint+0x1a0>
    44f8:	b1 0a                	mov    $0xa,%cl
    44fa:	80 3b 30             	cmpb   $0x30,(%ebx)
    44fd:	0f 84 3d 01 00 00    	je     4640 <str_uint+0x1d0>
    4503:	8b 45 0c             	mov    0xc(%ebp),%eax
    4506:	c7 00 00 00 00 00    	movl   $0x0,(%eax)
    450c:	c7 40 04 00 00 00 00 	movl   $0x0,0x4(%eax)
    4513:	8a 03                	mov    (%ebx),%al
    4515:	84 c0                	test   %al,%al
    4517:	0f 84 37 01 00 00    	je     4654 <str_uint+0x1e4>
    451d:	8d 50 9f             	lea    -0x61(%eax),%edx
    4520:	c7 45 e0 00 00 00 00 	movl   $0x0,-0x20(%ebp)
    4527:	c7 45 e4 00 00 00 00 	movl   $0x0,-0x1c(%ebp)
    452e:	89 5d d4             	mov    %ebx,-0x2c(%ebp)
    4531:	80 fa 19             	cmp    $0x19,%dl
    4534:	77 64                	ja     459a <str_uint+0x12a>
    4536:	66 90                	xchg   %ax,%ax
    4538:	0f be f0             	movsbl %al,%esi
    453b:	83 ee 57             	sub    $0x57,%esi
    453e:	39 f1                	cmp    %esi,%ecx
    4540:	76 6e                	jbe    45b0 <str_uint+0x140>
    4542:	8b 45 e0             	mov    -0x20(%ebp),%eax
    4545:	8b 7d e4             	mov    -0x1c(%ebp),%edi
    4548:	f7 e1                	mul    %ecx
    454a:	0f af f9             	imul   %ecx,%edi
    454d:	89 45 c8             	mov    %eax,-0x38(%ebp)
    4550:	01 fa                	add    %edi,%edx
    4552:	31 ff                	xor    %edi,%edi
    4554:	03 75 c8             	add    -0x38(%ebp),%esi
    4557:	89 55 cc             	mov    %edx,-0x34(%ebp)
    455a:	8b 55 0c             	mov    0xc(%ebp),%edx
    455d:	13 7d cc             	adc    -0x34(%ebp),%edi
    4560:	89 32                	mov    %esi,(%edx)
    4562:	89 7a 04             	mov    %edi,0x4(%edx)
    4565:	3b 7d e4             	cmp    -0x1c(%ebp),%edi
    4568:	77 1b                	ja     4585 <str_uint+0x115>
    456a:	73 14                	jae    4580 <str_uint+0x110>
    456c:	8b 45 d8             	mov    -0x28(%ebp),%eax
    456f:	89 18                	mov    %ebx,(%eax)
    4571:	b8 f0 ff ff ff       	mov    $0xfffffff0,%eax
    4576:	83 c4 3c             	add    $0x3c,%esp
    4579:	5b                   	pop    %ebx
    457a:	5e                   	pop    %esi
    457b:	5f                   	pop    %edi
    457c:	5d                   	pop    %ebp
    457d:	c3                   	ret    
    457e:	66 90                	xchg   %ax,%ax
    4580:	3b 75 e0             	cmp    -0x20(%ebp),%esi
    4583:	72 e7                	jb     456c <str_uint+0xfc>
    4585:	43                   	inc    %ebx
    4586:	8a 03                	mov    (%ebx),%al
    4588:	84 c0                	test   %al,%al
    458a:	74 24                	je     45b0 <str_uint+0x140>
    458c:	8d 50 9f             	lea    -0x61(%eax),%edx
    458f:	89 75 e0             	mov    %esi,-0x20(%ebp)
    4592:	89 7d e4             	mov    %edi,-0x1c(%ebp)
    4595:	80 fa 19             	cmp    $0x19,%dl
    4598:	76 9e                	jbe    4538 <str_uint+0xc8>
    459a:	8d 50 bf             	lea    -0x41(%eax),%edx
    459d:	80 fa 19             	cmp    $0x19,%dl
    45a0:	77 56                	ja     45f8 <str_uint+0x188>
    45a2:	0f be f0             	movsbl %al,%esi
    45a5:	83 ee 37             	sub    $0x37,%esi
    45a8:	39 f1                	cmp    %esi,%ecx
    45aa:	77 96                	ja     4542 <str_uint+0xd2>
    45ac:	8d 74 26 00          	lea    0x0(%esi,%eiz,1),%esi
    45b0:	89 da                	mov    %ebx,%edx
    45b2:	8b 5d d4             	mov    -0x2c(%ebp),%ebx
    45b5:	39 d3                	cmp    %edx,%ebx
    45b7:	0f 84 97 00 00 00    	je     4654 <str_uint+0x1e4>
    45bd:	8b 45 d8             	mov    -0x28(%ebp),%eax
    45c0:	39 55 dc             	cmp    %edx,-0x24(%ebp)
    45c3:	89 10                	mov    %edx,(%eax)
    45c5:	0f 95 c0             	setne  %al
    45c8:	25 ff 00 00 00       	and    $0xff,%eax
    45cd:	83 c4 3c             	add    $0x3c,%esp
    45d0:	48                   	dec    %eax
    45d1:	5b                   	pop    %ebx
    45d2:	83 e0 f2             	and    $0xfffffff2,%eax
    45d5:	5e                   	pop    %esi
    45d6:	5f                   	pop    %edi
    45d7:	5d                   	pop    %ebp
    45d8:	c3                   	ret    
    45d9:	8d b4 26 00 00 00 00 	lea    0x0(%esi,%eiz,1),%esi
    45e0:	8b 3c 85 40 0e 02 00 	mov    0x20e40(,%eax,4),%edi
    45e7:	85 ff                	test   %edi,%edi
    45e9:	0f 85 d9 fe ff ff    	jne    44c8 <str_uint+0x58>
    45ef:	e9 e6 fe ff ff       	jmp    44da <str_uint+0x6a>
    45f4:	8d 74 26 00          	lea    0x0(%esi,%eiz,1),%esi
    45f8:	8d 50 d0             	lea    -0x30(%eax),%edx
    45fb:	80 fa 09             	cmp    $0x9,%dl
    45fe:	77 b0                	ja     45b0 <str_uint+0x140>
    4600:	0f be f0             	movsbl %al,%esi
    4603:	83 ee 30             	sub    $0x30,%esi
    4606:	e9 33 ff ff ff       	jmp    453e <str_uint+0xce>
    460b:	90                   	nop
    460c:	8d 74 26 00          	lea    0x0(%esi,%eiz,1),%esi
    4610:	8d 41 fe             	lea    -0x2(%ecx),%eax
    4613:	83 f8 22             	cmp    $0x22,%eax
    4616:	0f 86 e7 fe ff ff    	jbe    4503 <str_uint+0x93>
    461c:	8b 55 d8             	mov    -0x28(%ebp),%edx
    461f:	b8 f2 ff ff ff       	mov    $0xfffffff2,%eax
    4624:	89 1a                	mov    %ebx,(%edx)
    4626:	e9 4b ff ff ff       	jmp    4576 <str_uint+0x106>
    462b:	90                   	nop
    462c:	8d 74 26 00          	lea    0x0(%esi,%eiz,1),%esi
    4630:	c6 06 01             	movb   $0x1,(%esi)
    4633:	43                   	inc    %ebx
    4634:	e9 b7 fe ff ff       	jmp    44f0 <str_uint+0x80>
    4639:	8d b4 26 00 00 00 00 	lea    0x0(%esi,%eiz,1),%esi
    4640:	8a 43 01             	mov    0x1(%ebx),%al
    4643:	83 e8 42             	sub    $0x42,%eax
    4646:	3c 36                	cmp    $0x36,%al
    4648:	76 1f                	jbe    4669 <str_uint+0x1f9>
    464a:	b9 08 00 00 00       	mov    $0x8,%ecx
    464f:	e9 af fe ff ff       	jmp    4503 <str_uint+0x93>
    4654:	8b 55 d8             	mov    -0x28(%ebp),%edx
    4657:	8b 45 dc             	mov    -0x24(%ebp),%eax
    465a:	89 02                	mov    %eax,(%edx)
    465c:	83 c4 3c             	add    $0x3c,%esp
    465f:	b8 f2 ff ff ff       	mov    $0xfffffff2,%eax
    4664:	5b                   	pop    %ebx
    4665:	5e                   	pop    %esi
    4666:	5f                   	pop    %edi
    4667:	5d                   	pop    %ebp
    4668:	c3                   	ret    
    4669:	25 ff 00 00 00       	and    $0xff,%eax
    466e:	ff 24 85 60 0d 02 00 	jmp    *0x20d60(,%eax,4)
    4675:	83 c3 02             	add    $0x2,%ebx
    4678:	b9 10 00 00 00       	mov    $0x10,%ecx
    467d:	e9 81 fe ff ff       	jmp    4503 <str_uint+0x93>
    4682:	83 c3 02             	add    $0x2,%ebx
    4685:	b9 08 00 00 00       	mov    $0x8,%ecx
    468a:	e9 74 fe ff ff       	jmp    4503 <str_uint+0x93>
    468f:	83 c3 02             	add    $0x2,%ebx
    4692:	b9 0a 00 00 00       	mov    $0xa,%ecx
    4697:	e9 67 fe ff ff       	jmp    4503 <str_uint+0x93>
    469c:	83 c3 02             	add    $0x2,%ebx
    469f:	b9 02 00 00 00       	mov    $0x2,%ecx
    46a4:	e9 5a fe ff ff       	jmp    4503 <str_uint+0x93>
    46a9:	8b 5d dc             	mov    -0x24(%ebp),%ebx
    46ac:	e9 29 fe ff ff       	jmp    44da <str_uint+0x6a>
    46b1:	c7 44 24 08 82 05 00 	movl   $0x582,0x8(%esp)
    46b8:	00 
    46b9:	c7 44 24 04 f8 0c 02 	movl   $0x20cf8,0x4(%esp)
    46c0:	00 
    46c1:	c7 04 24 21 0d 02 00 	movl   $0x20d21,(%esp)
    46c8:	e8 d3 7d 01 00       	call   1c4a0 <assert_abort>
    46cd:	c7 44 24 08 81 05 00 	movl   $0x581,0x8(%esp)
    46d4:	00 
    46d5:	c7 44 24 04 f8 0c 02 	movl   $0x20cf8,0x4(%esp)
    46dc:	00 
    46dd:	c7 04 24 15 0d 02 00 	movl   $0x20d15,(%esp)
    46e4:	e8 b7 7d 01 00       	call   1c4a0 <assert_abort>
    46e9:	c7 44 24 08 80 05 00 	movl   $0x580,0x8(%esp)
    46f0:	00 
    46f1:	c7 44 24 04 f8 0c 02 	movl   $0x20cf8,0x4(%esp)
    46f8:	00 
    46f9:	c7 04 24 06 0d 02 00 	movl   $0x20d06,(%esp)
    4700:	e8 9b 7d 01 00       	call   1c4a0 <assert_abort>
    4705:	8d 74 26 00          	lea    0x0(%esi,%eiz,1),%esi
    4709:	8d bc 27 00 00 00 00 	lea    0x0(%edi,%eiz,1),%edi

00004710 <str_decode>:
    4710:	55                   	push   %ebp
    4711:	89 e5                	mov    %esp,%ebp
    4713:	57                   	push   %edi
    4714:	56                   	push   %esi
    4715:	53                   	push   %ebx
    4716:	83 ec 0c             	sub    $0xc,%esp
    4719:	8b 45 0c             	mov    0xc(%ebp),%eax
    471c:	8b 7d 08             	mov    0x8(%ebp),%edi
    471f:	8b 10                	mov    (%eax),%edx
    4721:	31 c0                	xor    %eax,%eax
    4723:	8d 4a 01             	lea    0x1(%edx),%ecx
    4726:	3b 4d 10             	cmp    0x10(%ebp),%ecx
    4729:	77 0d                	ja     4738 <str_decode+0x28>
    472b:	0f be 04 17          	movsbl (%edi,%edx,1),%eax
    472f:	8b 5d 0c             	mov    0xc(%ebp),%ebx
    4732:	84 c0                	test   %al,%al
    4734:	89 0b                	mov    %ecx,(%ebx)
    4736:	78 08                	js     4740 <str_decode+0x30>
    4738:	83 c4 0c             	add    $0xc,%esp
    473b:	5b                   	pop    %ebx
    473c:	5e                   	pop    %esi
    473d:	5f                   	pop    %edi
    473e:	5d                   	pop    %ebp
    473f:	c3                   	ret    
    4740:	be e0 ff ff ff       	mov    $0xffffffe0,%esi
    4745:	21 c6                	and    %eax,%esi
    4747:	89 f3                	mov    %esi,%ebx
    4749:	80 fb c0             	cmp    $0xc0,%bl
    474c:	74 32                	je     4780 <str_decode+0x70>
    474e:	be f0 ff ff ff       	mov    $0xfffffff0,%esi
    4753:	21 c6                	and    %eax,%esi
    4755:	89 f3                	mov    %esi,%ebx
    4757:	80 fb e0             	cmp    $0xe0,%bl
    475a:	0f 84 90 00 00 00    	je     47f0 <str_decode+0xe0>
    4760:	be f8 ff ff ff       	mov    $0xfffffff8,%esi
    4765:	21 c6                	and    %eax,%esi
    4767:	89 f3                	mov    %esi,%ebx
    4769:	80 fb f0             	cmp    $0xf0,%bl
    476c:	0f 84 87 00 00 00    	je     47f9 <str_decode+0xe9>
    4772:	83 c4 0c             	add    $0xc,%esp
    4775:	b8 3f 00 00 00       	mov    $0x3f,%eax
    477a:	5b                   	pop    %ebx
    477b:	5e                   	pop    %esi
    477c:	5f                   	pop    %edi
    477d:	5d                   	pop    %ebp
    477e:	c3                   	ret    
    477f:	90                   	nop
    4780:	b3 1f                	mov    $0x1f,%bl
    4782:	be 01 00 00 00       	mov    $0x1,%esi
    4787:	01 f1                	add    %esi,%ecx
    4789:	89 4d f0             	mov    %ecx,-0x10(%ebp)
    478c:	39 4d 10             	cmp    %ecx,0x10(%ebp)
    478f:	72 e1                	jb     4772 <str_decode+0x62>
    4791:	21 d8                	and    %ebx,%eax
    4793:	8a 4c 17 01          	mov    0x1(%edi,%edx,1),%cl
    4797:	8b 5d 0c             	mov    0xc(%ebp),%ebx
    479a:	be c0 ff ff ff       	mov    $0xffffffc0,%esi
    479f:	83 c2 02             	add    $0x2,%edx
    47a2:	21 ce                	and    %ecx,%esi
    47a4:	89 13                	mov    %edx,(%ebx)
    47a6:	89 f3                	mov    %esi,%ebx
    47a8:	25 ff 00 00 00       	and    $0xff,%eax
    47ad:	80 fb 80             	cmp    $0x80,%bl
    47b0:	75 c0                	jne    4772 <str_decode+0x62>
    47b2:	8b 5d 0c             	mov    0xc(%ebp),%ebx
    47b5:	89 5d e8             	mov    %ebx,-0x18(%ebp)
    47b8:	eb 1d                	jmp    47d7 <str_decode+0xc7>
    47ba:	8d b6 00 00 00 00    	lea    0x0(%esi),%esi
    47c0:	8a 0c 17             	mov    (%edi,%edx,1),%cl
    47c3:	8b 5d e8             	mov    -0x18(%ebp),%ebx
    47c6:	be c0 ff ff ff       	mov    $0xffffffc0,%esi
    47cb:	42                   	inc    %edx
    47cc:	21 ce                	and    %ecx,%esi
    47ce:	89 13                	mov    %edx,(%ebx)
    47d0:	89 f3                	mov    %esi,%ebx
    47d2:	80 fb 80             	cmp    $0x80,%bl
    47d5:	75 9b                	jne    4772 <str_decode+0x62>
    47d7:	89 c6                	mov    %eax,%esi
    47d9:	89 c8                	mov    %ecx,%eax
    47db:	c1 e6 06             	shl    $0x6,%esi
    47de:	83 e0 3f             	and    $0x3f,%eax
    47e1:	09 f0                	or     %esi,%eax
    47e3:	39 55 f0             	cmp    %edx,-0x10(%ebp)
    47e6:	75 d8                	jne    47c0 <str_decode+0xb0>
    47e8:	e9 4b ff ff ff       	jmp    4738 <str_decode+0x28>
    47ed:	8d 76 00             	lea    0x0(%esi),%esi
    47f0:	b3 0f                	mov    $0xf,%bl
    47f2:	be 02 00 00 00       	mov    $0x2,%esi
    47f7:	eb 8e                	jmp    4787 <str_decode+0x77>
    47f9:	b3 07                	mov    $0x7,%bl
    47fb:	be 03 00 00 00       	mov    $0x3,%esi
    4800:	eb 85                	jmp    4787 <str_decode+0x77>
    4802:	8d b4 26 00 00 00 00 	lea    0x0(%esi,%eiz,1),%esi
    4809:	8d bc 27 00 00 00 00 	lea    0x0(%edi,%eiz,1),%edi

00004810 <str_decode_reverse>:
    4810:	55                   	push   %ebp
    4811:	89 e5                	mov    %esp,%ebp
    4813:	57                   	push   %edi
    4814:	56                   	push   %esi
    4815:	53                   	push   %ebx
    4816:	50                   	push   %eax
    4817:	31 c0                	xor    %eax,%eax
    4819:	8b 7d 0c             	mov    0xc(%ebp),%edi
    481c:	8b 1f                	mov    (%edi),%ebx
    481e:	85 db                	test   %ebx,%ebx
    4820:	0f 84 24 01 00 00    	je     494a <str_decode_reverse+0x13a>
    4826:	8d 73 ff             	lea    -0x1(%ebx),%esi
    4829:	8b 55 08             	mov    0x8(%ebp),%edx
    482c:	89 37                	mov    %esi,(%edi)
    482e:	8a 14 32             	mov    (%edx,%esi,1),%dl
    4831:	88 55 f1             	mov    %dl,-0xf(%ebp)
    4834:	84 d2                	test   %dl,%dl
    4836:	0f 89 c4 01 00 00    	jns    4a00 <str_decode_reverse+0x1f0>
    483c:	88 d1                	mov    %dl,%cl
    483e:	83 e1 e0             	and    $0xffffffe0,%ecx
    4841:	88 4d f2             	mov    %cl,-0xe(%ebp)
    4844:	80 f9 c0             	cmp    $0xc0,%cl
    4847:	0f 84 d8 01 00 00    	je     4a25 <str_decode_reverse+0x215>
    484d:	88 d1                	mov    %dl,%cl
    484f:	83 e1 f0             	and    $0xfffffff0,%ecx
    4852:	80 f9 e0             	cmp    $0xe0,%cl
    4855:	0f 84 f1 01 00 00    	je     4a4c <str_decode_reverse+0x23c>
    485b:	88 d0                	mov    %dl,%al
    485d:	83 e0 f8             	and    $0xfffffff8,%eax
    4860:	3c f0                	cmp    $0xf0,%al
    4862:	0f 84 ee 00 00 00    	je     4956 <str_decode_reverse+0x146>
    4868:	88 d1                	mov    %dl,%cl
    486a:	83 e1 c0             	and    $0xffffffc0,%ecx
    486d:	80 f9 80             	cmp    $0x80,%cl
    4870:	0f 85 cf 00 00 00    	jne    4945 <str_decode_reverse+0x135>
    4876:	85 f6                	test   %esi,%esi
    4878:	0f 84 c7 00 00 00    	je     4945 <str_decode_reverse+0x135>
    487e:	8d 43 fe             	lea    -0x2(%ebx),%eax
    4881:	8b 4d 08             	mov    0x8(%ebp),%ecx
    4884:	89 07                	mov    %eax,(%edi)
    4886:	8a 14 01             	mov    (%ecx,%eax,1),%dl
    4889:	88 d1                	mov    %dl,%cl
    488b:	88 55 f1             	mov    %dl,-0xf(%ebp)
    488e:	83 e1 e0             	and    $0xffffffe0,%ecx
    4891:	88 4d f2             	mov    %cl,-0xe(%ebp)
    4894:	80 f9 c0             	cmp    $0xc0,%cl
    4897:	0f 84 b3 00 00 00    	je     4950 <str_decode_reverse+0x140>
    489d:	88 d1                	mov    %dl,%cl
    489f:	83 e1 f0             	and    $0xfffffff0,%ecx
    48a2:	80 f9 e0             	cmp    $0xe0,%cl
    48a5:	0f 84 65 01 00 00    	je     4a10 <str_decode_reverse+0x200>
    48ab:	88 d1                	mov    %dl,%cl
    48ad:	83 e1 f8             	and    $0xfffffff8,%ecx
    48b0:	80 f9 f0             	cmp    $0xf0,%cl
    48b3:	0f 84 57 01 00 00    	je     4a10 <str_decode_reverse+0x200>
    48b9:	83 e2 c0             	and    $0xffffffc0,%edx
    48bc:	80 fa 80             	cmp    $0x80,%dl
    48bf:	0f 85 80 00 00 00    	jne    4945 <str_decode_reverse+0x135>
    48c5:	85 c0                	test   %eax,%eax
    48c7:	74 7c                	je     4945 <str_decode_reverse+0x135>
    48c9:	8d 73 fd             	lea    -0x3(%ebx),%esi
    48cc:	8b 4d 08             	mov    0x8(%ebp),%ecx
    48cf:	89 37                	mov    %esi,(%edi)
    48d1:	8a 14 31             	mov    (%ecx,%esi,1),%dl
    48d4:	88 d1                	mov    %dl,%cl
    48d6:	88 55 f1             	mov    %dl,-0xf(%ebp)
    48d9:	83 e1 e0             	and    $0xffffffe0,%ecx
    48dc:	88 4d f2             	mov    %cl,-0xe(%ebp)
    48df:	80 f9 c0             	cmp    $0xc0,%cl
    48e2:	0f 84 36 01 00 00    	je     4a1e <str_decode_reverse+0x20e>
    48e8:	88 d1                	mov    %dl,%cl
    48ea:	83 e1 f0             	and    $0xfffffff0,%ecx
    48ed:	80 f9 e0             	cmp    $0xe0,%cl
    48f0:	0f 84 21 01 00 00    	je     4a17 <str_decode_reverse+0x207>
    48f6:	88 d1                	mov    %dl,%cl
    48f8:	83 e1 f8             	and    $0xfffffff8,%ecx
    48fb:	80 f9 f0             	cmp    $0xf0,%cl
    48fe:	0f 84 13 01 00 00    	je     4a17 <str_decode_reverse+0x207>
    4904:	83 e2 c0             	and    $0xffffffc0,%edx
    4907:	80 fa 80             	cmp    $0x80,%dl
    490a:	75 39                	jne    4945 <str_decode_reverse+0x135>
    490c:	85 f6                	test   %esi,%esi
    490e:	74 35                	je     4945 <str_decode_reverse+0x135>
    4910:	83 eb 04             	sub    $0x4,%ebx
    4913:	8b 45 08             	mov    0x8(%ebp),%eax
    4916:	89 1f                	mov    %ebx,(%edi)
    4918:	8a 14 18             	mov    (%eax,%ebx,1),%dl
    491b:	88 d1                	mov    %dl,%cl
    491d:	88 55 f1             	mov    %dl,-0xf(%ebp)
    4920:	83 e1 e0             	and    $0xffffffe0,%ecx
    4923:	88 4d f2             	mov    %cl,-0xe(%ebp)
    4926:	80 f9 c0             	cmp    $0xc0,%cl
    4929:	74 25                	je     4950 <str_decode_reverse+0x140>
    492b:	88 d0                	mov    %dl,%al
    492d:	83 e0 f0             	and    $0xfffffff0,%eax
    4930:	3c e0                	cmp    $0xe0,%al
    4932:	0f 84 d8 00 00 00    	je     4a10 <str_decode_reverse+0x200>
    4938:	88 d0                	mov    %dl,%al
    493a:	83 e0 f8             	and    $0xfffffff8,%eax
    493d:	3c f0                	cmp    $0xf0,%al
    493f:	0f 84 cb 00 00 00    	je     4a10 <str_decode_reverse+0x200>
    4945:	b8 3f 00 00 00       	mov    $0x3f,%eax
    494a:	5a                   	pop    %edx
    494b:	5b                   	pop    %ebx
    494c:	5e                   	pop    %esi
    494d:	5f                   	pop    %edi
    494e:	5d                   	pop    %ebp
    494f:	c3                   	ret    
    4950:	89 f3                	mov    %esi,%ebx
    4952:	c6 45 f2 c0          	movb   $0xc0,-0xe(%ebp)
    4956:	31 c0                	xor    %eax,%eax
    4958:	39 5d 10             	cmp    %ebx,0x10(%ebp)
    495b:	72 ed                	jb     494a <str_decode_reverse+0x13a>
    495d:	84 d2                	test   %dl,%dl
    495f:	78 69                	js     49ca <str_decode_reverse+0x1ba>
    4961:	bf 7f 00 00 00       	mov    $0x7f,%edi
    4966:	31 d2                	xor    %edx,%edx
    4968:	8d 34 1a             	lea    (%edx,%ebx,1),%esi
    496b:	b8 3f 00 00 00       	mov    $0x3f,%eax
    4970:	39 75 10             	cmp    %esi,0x10(%ebp)
    4973:	72 d5                	jb     494a <str_decode_reverse+0x13a>
    4975:	8a 4d f1             	mov    -0xf(%ebp),%cl
    4978:	31 c0                	xor    %eax,%eax
    497a:	21 f9                	and    %edi,%ecx
    497c:	85 d2                	test   %edx,%edx
    497e:	88 c8                	mov    %cl,%al
    4980:	74 c8                	je     494a <str_decode_reverse+0x13a>
    4982:	8b 4d 08             	mov    0x8(%ebp),%ecx
    4985:	8d 73 01             	lea    0x1(%ebx),%esi
    4988:	8a 0c 19             	mov    (%ecx,%ebx,1),%cl
    498b:	88 4d f3             	mov    %cl,-0xd(%ebp)
    498e:	83 e1 c0             	and    $0xffffffc0,%ecx
    4991:	80 f9 80             	cmp    $0x80,%cl
    4994:	75 af                	jne    4945 <str_decode_reverse+0x135>
    4996:	8b 7d 08             	mov    0x8(%ebp),%edi
    4999:	8b 4d 08             	mov    0x8(%ebp),%ecx
    499c:	01 fb                	add    %edi,%ebx
    499e:	01 ce                	add    %ecx,%esi
    49a0:	01 da                	add    %ebx,%edx
    49a2:	8a 4d f3             	mov    -0xd(%ebp),%cl
    49a5:	eb 0e                	jmp    49b5 <str_decode_reverse+0x1a5>
    49a7:	90                   	nop
    49a8:	8a 0e                	mov    (%esi),%cl
    49aa:	46                   	inc    %esi
    49ab:	88 cb                	mov    %cl,%bl
    49ad:	83 e3 c0             	and    $0xffffffc0,%ebx
    49b0:	80 fb 80             	cmp    $0x80,%bl
    49b3:	75 90                	jne    4945 <str_decode_reverse+0x135>
    49b5:	89 c3                	mov    %eax,%ebx
    49b7:	89 c8                	mov    %ecx,%eax
    49b9:	c1 e3 06             	shl    $0x6,%ebx
    49bc:	83 e0 3f             	and    $0x3f,%eax
    49bf:	09 d8                	or     %ebx,%eax
    49c1:	39 d6                	cmp    %edx,%esi
    49c3:	75 e3                	jne    49a8 <str_decode_reverse+0x198>
    49c5:	e9 80 ff ff ff       	jmp    494a <str_decode_reverse+0x13a>
    49ca:	80 7d f2 c0          	cmpb   $0xc0,-0xe(%ebp)
    49ce:	74 5e                	je     4a2e <str_decode_reverse+0x21e>
    49d0:	8a 45 f1             	mov    -0xf(%ebp),%al
    49d3:	83 e0 f0             	and    $0xfffffff0,%eax
    49d6:	3c e0                	cmp    $0xe0,%al
    49d8:	74 63                	je     4a3d <str_decode_reverse+0x22d>
    49da:	8a 55 f1             	mov    -0xf(%ebp),%dl
    49dd:	b8 3f 00 00 00       	mov    $0x3f,%eax
    49e2:	83 e2 f8             	and    $0xfffffff8,%edx
    49e5:	80 fa f0             	cmp    $0xf0,%dl
    49e8:	0f 85 5c ff ff ff    	jne    494a <str_decode_reverse+0x13a>
    49ee:	bf 07 00 00 00       	mov    $0x7,%edi
    49f3:	ba 03 00 00 00       	mov    $0x3,%edx
    49f8:	e9 6b ff ff ff       	jmp    4968 <str_decode_reverse+0x158>
    49fd:	8d 76 00             	lea    0x0(%esi),%esi
    4a00:	0f be 45 f1          	movsbl -0xf(%ebp),%eax
    4a04:	e9 41 ff ff ff       	jmp    494a <str_decode_reverse+0x13a>
    4a09:	8d b4 26 00 00 00 00 	lea    0x0(%esi,%eiz,1),%esi
    4a10:	89 f3                	mov    %esi,%ebx
    4a12:	e9 3f ff ff ff       	jmp    4956 <str_decode_reverse+0x146>
    4a17:	89 c3                	mov    %eax,%ebx
    4a19:	e9 38 ff ff ff       	jmp    4956 <str_decode_reverse+0x146>
    4a1e:	89 c3                	mov    %eax,%ebx
    4a20:	e9 2d ff ff ff       	jmp    4952 <str_decode_reverse+0x142>
    4a25:	3b 5d 10             	cmp    0x10(%ebp),%ebx
    4a28:	0f 87 1c ff ff ff    	ja     494a <str_decode_reverse+0x13a>
    4a2e:	bf 1f 00 00 00       	mov    $0x1f,%edi
    4a33:	ba 01 00 00 00       	mov    $0x1,%edx
    4a38:	e9 2b ff ff ff       	jmp    4968 <str_decode_reverse+0x158>
    4a3d:	bf 0f 00 00 00       	mov    $0xf,%edi
    4a42:	ba 02 00 00 00       	mov    $0x2,%edx
    4a47:	e9 1c ff ff ff       	jmp    4968 <str_decode_reverse+0x158>
    4a4c:	3b 5d 10             	cmp    0x10(%ebp),%ebx
    4a4f:	0f 86 7b ff ff ff    	jbe    49d0 <str_decode_reverse+0x1c0>
    4a55:	e9 f0 fe ff ff       	jmp    494a <str_decode_reverse+0x13a>
    4a5a:	8d b6 00 00 00 00    	lea    0x0(%esi),%esi

00004a60 <chr_encode>:
    4a60:	55                   	push   %ebp
    4a61:	89 e5                	mov    %esp,%ebp
    4a63:	57                   	push   %edi
    4a64:	56                   	push   %esi
    4a65:	53                   	push   %ebx
    4a66:	83 ec 24             	sub    $0x24,%esp
    4a69:	8b 7d 10             	mov    0x10(%ebp),%edi
    4a6c:	8b 1f                	mov    (%edi),%ebx
    4a6e:	3b 5d 14             	cmp    0x14(%ebp),%ebx
    4a71:	0f 83 c5 00 00 00    	jae    4b3c <chr_encode+0xdc>
    4a77:	8b 4d 08             	mov    0x8(%ebp),%ecx
    4a7a:	b8 f2 ff ff ff       	mov    $0xfffffff2,%eax
    4a7f:	81 f9 ff ff 10 00    	cmp    $0x10ffff,%ecx
    4a85:	77 34                	ja     4abb <chr_encode+0x5b>
    4a87:	f7 c1 80 ff ff ff    	test   $0xffffff80,%ecx
    4a8d:	75 39                	jne    4ac8 <chr_encode+0x68>
    4a8f:	c6 45 d0 00          	movb   $0x0,-0x30(%ebp)
    4a93:	c6 45 e0 7f          	movb   $0x7f,-0x20(%ebp)
    4a97:	c7 45 f0 00 00 00 00 	movl   $0x0,-0x10(%ebp)
    4a9e:	8b 45 e0             	mov    -0x20(%ebp),%eax
    4aa1:	8b 55 0c             	mov    0xc(%ebp),%edx
    4aa4:	21 c1                	and    %eax,%ecx
    4aa6:	8b 45 d0             	mov    -0x30(%ebp),%eax
    4aa9:	09 c1                	or     %eax,%ecx
    4aab:	88 0c 1a             	mov    %cl,(%edx,%ebx,1)
    4aae:	8b 55 f0             	mov    -0x10(%ebp),%edx
    4ab1:	8b 07                	mov    (%edi),%eax
    4ab3:	8d 44 02 01          	lea    0x1(%edx,%eax,1),%eax
    4ab7:	89 07                	mov    %eax,(%edi)
    4ab9:	31 c0                	xor    %eax,%eax
    4abb:	83 c4 24             	add    $0x24,%esp
    4abe:	5b                   	pop    %ebx
    4abf:	5e                   	pop    %esi
    4ac0:	5f                   	pop    %edi
    4ac1:	5d                   	pop    %ebp
    4ac2:	c3                   	ret    
    4ac3:	90                   	nop
    4ac4:	8d 74 26 00          	lea    0x0(%esi,%eiz,1),%esi
    4ac8:	f7 c1 00 f8 ff ff    	test   $0xfffff800,%ecx
    4ace:	74 58                	je     4b28 <chr_encode+0xc8>
    4ad0:	89 c8                	mov    %ecx,%eax
    4ad2:	25 00 00 ff ff       	and    $0xffff0000,%eax
    4ad7:	83 f8 01             	cmp    $0x1,%eax
    4ada:	19 d2                	sbb    %edx,%edx
    4adc:	83 e2 f0             	and    $0xfffffff0,%edx
    4adf:	83 ea 10             	sub    $0x10,%edx
    4ae2:	83 f8 01             	cmp    $0x1,%eax
    4ae5:	88 55 d0             	mov    %dl,-0x30(%ebp)
    4ae8:	19 d2                	sbb    %edx,%edx
    4aea:	83 e2 08             	and    $0x8,%edx
    4aed:	83 c2 07             	add    $0x7,%edx
    4af0:	83 f8 01             	cmp    $0x1,%eax
    4af3:	19 c0                	sbb    %eax,%eax
    4af5:	88 55 e0             	mov    %dl,-0x20(%ebp)
    4af8:	83 c0 03             	add    $0x3,%eax
    4afb:	89 45 f0             	mov    %eax,-0x10(%ebp)
    4afe:	01 d8                	add    %ebx,%eax
    4b00:	39 45 14             	cmp    %eax,0x14(%ebp)
    4b03:	76 37                	jbe    4b3c <chr_encode+0xdc>
    4b05:	8b 45 f0             	mov    -0x10(%ebp),%eax
    4b08:	89 ca                	mov    %ecx,%edx
    4b0a:	8b 75 0c             	mov    0xc(%ebp),%esi
    4b0d:	01 c6                	add    %eax,%esi
    4b0f:	83 e2 3f             	and    $0x3f,%edx
    4b12:	c1 e9 06             	shr    $0x6,%ecx
    4b15:	80 ca 80             	or     $0x80,%dl
    4b18:	88 14 1e             	mov    %dl,(%esi,%ebx,1)
    4b1b:	48                   	dec    %eax
    4b1c:	8b 1f                	mov    (%edi),%ebx
    4b1e:	75 e8                	jne    4b08 <chr_encode+0xa8>
    4b20:	e9 79 ff ff ff       	jmp    4a9e <chr_encode+0x3e>
    4b25:	8d 76 00             	lea    0x0(%esi),%esi
    4b28:	c7 45 f0 01 00 00 00 	movl   $0x1,-0x10(%ebp)
    4b2f:	c6 45 d0 c0          	movb   $0xc0,-0x30(%ebp)
    4b33:	c6 45 e0 1f          	movb   $0x1f,-0x20(%ebp)
    4b37:	8b 45 f0             	mov    -0x10(%ebp),%eax
    4b3a:	eb c2                	jmp    4afe <chr_encode+0x9e>
    4b3c:	b8 f0 ff ff ff       	mov    $0xfffffff0,%eax
    4b41:	e9 75 ff ff ff       	jmp    4abb <chr_encode+0x5b>
    4b46:	8d 76 00             	lea    0x0(%esi),%esi
    4b49:	8d bc 27 00 00 00 00 	lea    0x0(%edi,%eiz,1),%edi

00004b50 <str_size>:
    4b50:	55                   	push   %ebp
    4b51:	31 c0                	xor    %eax,%eax
    4b53:	89 e5                	mov    %esp,%ebp
    4b55:	8b 55 08             	mov    0x8(%ebp),%edx
    4b58:	80 3a 00             	cmpb   $0x0,(%edx)
    4b5b:	74 0a                	je     4b67 <str_size+0x17>
    4b5d:	8d 76 00             	lea    0x0(%esi),%esi
    4b60:	40                   	inc    %eax
    4b61:	80 3c 02 00          	cmpb   $0x0,(%edx,%eax,1)
    4b65:	75 f9                	jne    4b60 <str_size+0x10>
    4b67:	5d                   	pop    %ebp
    4b68:	c3                   	ret    
    4b69:	8d b4 26 00 00 00 00 	lea    0x0(%esi,%eiz,1),%esi

00004b70 <wstr_size>:
    4b70:	55                   	push   %ebp
    4b71:	31 c0                	xor    %eax,%eax
    4b73:	89 e5                	mov    %esp,%ebp
    4b75:	8b 55 08             	mov    0x8(%ebp),%edx
    4b78:	8b 0a                	mov    (%edx),%ecx
    4b7a:	85 c9                	test   %ecx,%ecx
    4b7c:	74 0d                	je     4b8b <wstr_size+0x1b>
    4b7e:	66 90                	xchg   %ax,%ax
    4b80:	40                   	inc    %eax
    4b81:	8b 0c 82             	mov    (%edx,%eax,4),%ecx
    4b84:	85 c9                	test   %ecx,%ecx
    4b86:	75 f8                	jne    4b80 <wstr_size+0x10>
    4b88:	c1 e0 02             	shl    $0x2,%eax
    4b8b:	5d                   	pop    %ebp
    4b8c:	c3                   	ret    
    4b8d:	8d 76 00             	lea    0x0(%esi),%esi

00004b90 <str_lsize>:
    4b90:	55                   	push   %ebp
    4b91:	31 c0                	xor    %eax,%eax
    4b93:	89 e5                	mov    %esp,%ebp
    4b95:	57                   	push   %edi
    4b96:	56                   	push   %esi
    4b97:	53                   	push   %ebx
    4b98:	83 ec 0c             	sub    $0xc,%esp
    4b9b:	8b 7d 0c             	mov    0xc(%ebp),%edi
    4b9e:	8b 5d 08             	mov    0x8(%ebp),%ebx
    4ba1:	85 ff                	test   %edi,%edi
    4ba3:	74 5b                	je     4c00 <str_lsize+0x70>
    4ba5:	c7 45 f0 00 00 00 00 	movl   $0x0,-0x10(%ebp)
    4bac:	eb 17                	jmp    4bc5 <str_lsize+0x35>
    4bae:	66 90                	xchg   %ax,%ax
    4bb0:	89 f8                	mov    %edi,%eax
    4bb2:	85 d2                	test   %edx,%edx
    4bb4:	74 4a                	je     4c00 <str_lsize+0x70>
    4bb6:	8b 75 f0             	mov    -0x10(%ebp),%esi
    4bb9:	8b 55 0c             	mov    0xc(%ebp),%edx
    4bbc:	46                   	inc    %esi
    4bbd:	89 75 f0             	mov    %esi,-0x10(%ebp)
    4bc0:	39 55 f0             	cmp    %edx,-0x10(%ebp)
    4bc3:	74 3b                	je     4c00 <str_lsize+0x70>
    4bc5:	0f be 14 03          	movsbl (%ebx,%eax,1),%edx
    4bc9:	8d 78 01             	lea    0x1(%eax),%edi
    4bcc:	84 d2                	test   %dl,%dl
    4bce:	79 e0                	jns    4bb0 <str_lsize+0x20>
    4bd0:	88 d1                	mov    %dl,%cl
    4bd2:	83 e1 e0             	and    $0xffffffe0,%ecx
    4bd5:	80 f9 c0             	cmp    $0xc0,%cl
    4bd8:	74 2e                	je     4c08 <str_lsize+0x78>
    4bda:	88 d1                	mov    %dl,%cl
    4bdc:	83 e1 f0             	and    $0xfffffff0,%ecx
    4bdf:	80 f9 e0             	cmp    $0xe0,%cl
    4be2:	74 7d                	je     4c61 <str_lsize+0xd1>
    4be4:	88 d1                	mov    %dl,%cl
    4be6:	83 e1 f8             	and    $0xfffffff8,%ecx
    4be9:	80 f9 f0             	cmp    $0xf0,%cl
    4bec:	74 7c                	je     4c6a <str_lsize+0xda>
    4bee:	8b 75 f0             	mov    -0x10(%ebp),%esi
    4bf1:	8b 55 0c             	mov    0xc(%ebp),%edx
    4bf4:	46                   	inc    %esi
    4bf5:	89 f8                	mov    %edi,%eax
    4bf7:	89 75 f0             	mov    %esi,-0x10(%ebp)
    4bfa:	39 55 f0             	cmp    %edx,-0x10(%ebp)
    4bfd:	75 c6                	jne    4bc5 <str_lsize+0x35>
    4bff:	90                   	nop
    4c00:	83 c4 0c             	add    $0xc,%esp
    4c03:	5b                   	pop    %ebx
    4c04:	5e                   	pop    %esi
    4c05:	5f                   	pop    %edi
    4c06:	5d                   	pop    %ebp
    4c07:	c3                   	ret    
    4c08:	b1 1f                	mov    $0x1f,%cl
    4c0a:	be 01 00 00 00       	mov    $0x1,%esi
    4c0f:	21 ca                	and    %ecx,%edx
    4c11:	8a 0c 3b             	mov    (%ebx,%edi,1),%cl
    4c14:	88 4d ee             	mov    %cl,-0x12(%ebp)
    4c17:	83 e1 c0             	and    $0xffffffc0,%ecx
    4c1a:	81 e2 ff 00 00 00    	and    $0xff,%edx
    4c20:	83 c0 02             	add    $0x2,%eax
    4c23:	80 f9 80             	cmp    $0x80,%cl
    4c26:	75 8e                	jne    4bb6 <str_lsize+0x26>
    4c28:	01 f7                	add    %esi,%edi
    4c2a:	8a 4d ee             	mov    -0x12(%ebp),%cl
    4c2d:	89 5d e8             	mov    %ebx,-0x18(%ebp)
    4c30:	89 d6                	mov    %edx,%esi
    4c32:	89 ca                	mov    %ecx,%edx
    4c34:	c1 e6 06             	shl    $0x6,%esi
    4c37:	83 e2 3f             	and    $0x3f,%edx
    4c3a:	09 f2                	or     %esi,%edx
    4c3c:	8b 5d e8             	mov    -0x18(%ebp),%ebx
    4c3f:	39 f8                	cmp    %edi,%eax
    4c41:	0f 84 6b ff ff ff    	je     4bb2 <str_lsize+0x22>
    4c47:	8a 0c 03             	mov    (%ebx,%eax,1),%cl
    4c4a:	be c0 ff ff ff       	mov    $0xffffffc0,%esi
    4c4f:	21 ce                	and    %ecx,%esi
    4c51:	40                   	inc    %eax
    4c52:	89 f3                	mov    %esi,%ebx
    4c54:	80 fb 80             	cmp    $0x80,%bl
    4c57:	74 d7                	je     4c30 <str_lsize+0xa0>
    4c59:	8b 5d e8             	mov    -0x18(%ebp),%ebx
    4c5c:	e9 55 ff ff ff       	jmp    4bb6 <str_lsize+0x26>
    4c61:	b1 0f                	mov    $0xf,%cl
    4c63:	be 02 00 00 00       	mov    $0x2,%esi
    4c68:	eb a5                	jmp    4c0f <str_lsize+0x7f>
    4c6a:	b1 07                	mov    $0x7,%cl
    4c6c:	be 03 00 00 00       	mov    $0x3,%esi
    4c71:	eb 9c                	jmp    4c0f <str_lsize+0x7f>
    4c73:	8d b6 00 00 00 00    	lea    0x0(%esi),%esi
    4c79:	8d bc 27 00 00 00 00 	lea    0x0(%edi,%eiz,1),%edi

00004c80 <str_nsize>:
    4c80:	55                   	push   %ebp
    4c81:	31 c0                	xor    %eax,%eax
    4c83:	89 e5                	mov    %esp,%ebp
    4c85:	8b 55 08             	mov    0x8(%ebp),%edx
    4c88:	8b 4d 0c             	mov    0xc(%ebp),%ecx
    4c8b:	80 3a 00             	cmpb   $0x0,(%edx)
    4c8e:	74 13                	je     4ca3 <str_nsize+0x23>
    4c90:	85 c9                	test   %ecx,%ecx
    4c92:	75 08                	jne    4c9c <str_nsize+0x1c>
    4c94:	eb 0d                	jmp    4ca3 <str_nsize+0x23>
    4c96:	66 90                	xchg   %ax,%ax
    4c98:	39 c8                	cmp    %ecx,%eax
    4c9a:	74 07                	je     4ca3 <str_nsize+0x23>
    4c9c:	40                   	inc    %eax
    4c9d:	80 3c 02 00          	cmpb   $0x0,(%edx,%eax,1)
    4ca1:	75 f5                	jne    4c98 <str_nsize+0x18>
    4ca3:	5d                   	pop    %ebp
    4ca4:	c3                   	ret    
    4ca5:	8d 74 26 00          	lea    0x0(%esi,%eiz,1),%esi
    4ca9:	8d bc 27 00 00 00 00 	lea    0x0(%edi,%eiz,1),%edi

00004cb0 <wstr_nsize>:
    4cb0:	55                   	push   %ebp
    4cb1:	89 e5                	mov    %esp,%ebp
    4cb3:	53                   	push   %ebx
    4cb4:	8b 5d 0c             	mov    0xc(%ebp),%ebx
    4cb7:	8b 4d 08             	mov    0x8(%ebp),%ecx
    4cba:	83 e3 fc             	and    $0xfffffffc,%ebx
    4cbd:	74 26                	je     4ce5 <wstr_nsize+0x35>
    4cbf:	8b 01                	mov    (%ecx),%eax
    4cc1:	85 c0                	test   %eax,%eax
    4cc3:	74 20                	je     4ce5 <wstr_nsize+0x35>
    4cc5:	31 d2                	xor    %edx,%edx
    4cc7:	eb 0d                	jmp    4cd6 <wstr_nsize+0x26>
    4cc9:	8d b4 26 00 00 00 00 	lea    0x0(%esi,%eiz,1),%esi
    4cd0:	83 3c 91 00          	cmpl   $0x0,(%ecx,%edx,4)
    4cd4:	74 0c                	je     4ce2 <wstr_nsize+0x32>
    4cd6:	42                   	inc    %edx
    4cd7:	8d 04 95 00 00 00 00 	lea    0x0(,%edx,4),%eax
    4cde:	39 c3                	cmp    %eax,%ebx
    4ce0:	77 ee                	ja     4cd0 <wstr_nsize+0x20>
    4ce2:	5b                   	pop    %ebx
    4ce3:	5d                   	pop    %ebp
    4ce4:	c3                   	ret    
    4ce5:	31 c0                	xor    %eax,%eax
    4ce7:	eb f9                	jmp    4ce2 <wstr_nsize+0x32>
    4ce9:	8d b4 26 00 00 00 00 	lea    0x0(%esi,%eiz,1),%esi

00004cf0 <wstr_lsize>:
    4cf0:	55                   	push   %ebp
    4cf1:	89 e5                	mov    %esp,%ebp
    4cf3:	53                   	push   %ebx
    4cf4:	8b 5d 0c             	mov    0xc(%ebp),%ebx
    4cf7:	8b 4d 08             	mov    0x8(%ebp),%ecx
    4cfa:	c1 e3 02             	shl    $0x2,%ebx
    4cfd:	74 26                	je     4d25 <wstr_lsize+0x35>
    4cff:	8b 01                	mov    (%ecx),%eax
    4d01:	85 c0                	test   %eax,%eax
    4d03:	74 20                	je     4d25 <wstr_lsize+0x35>
    4d05:	31 d2                	xor    %edx,%edx
    4d07:	eb 0d                	jmp    4d16 <wstr_lsize+0x26>
    4d09:	8d b4 26 00 00 00 00 	lea    0x0(%esi,%eiz,1),%esi
    4d10:	83 3c 91 00          	cmpl   $0x0,(%ecx,%edx,4)
    4d14:	74 0c                	je     4d22 <wstr_lsize+0x32>
    4d16:	42                   	inc    %edx
    4d17:	8d 04 95 00 00 00 00 	lea    0x0(,%edx,4),%eax
    4d1e:	39 c3                	cmp    %eax,%ebx
    4d20:	77 ee                	ja     4d10 <wstr_lsize+0x20>
    4d22:	5b                   	pop    %ebx
    4d23:	5d                   	pop    %ebp
    4d24:	c3                   	ret    
    4d25:	31 c0                	xor    %eax,%eax
    4d27:	eb f9                	jmp    4d22 <wstr_lsize+0x32>
    4d29:	8d b4 26 00 00 00 00 	lea    0x0(%esi,%eiz,1),%esi

00004d30 <str_length>:
    4d30:	55                   	push   %ebp
    4d31:	89 e5                	mov    %esp,%ebp
    4d33:	57                   	push   %edi
    4d34:	56                   	push   %esi
    4d35:	53                   	push   %ebx
    4d36:	83 ec 0c             	sub    $0xc,%esp
    4d39:	31 ff                	xor    %edi,%edi
    4d3b:	8b 5d 08             	mov    0x8(%ebp),%ebx
    4d3e:	c7 45 f0 00 00 00 00 	movl   $0x0,-0x10(%ebp)
    4d45:	eb 0e                	jmp    4d55 <str_length+0x25>
    4d47:	90                   	nop
    4d48:	85 c0                	test   %eax,%eax
    4d4a:	74 3b                	je     4d87 <str_length+0x57>
    4d4c:	89 d7                	mov    %edx,%edi
    4d4e:	8b 55 f0             	mov    -0x10(%ebp),%edx
    4d51:	42                   	inc    %edx
    4d52:	89 55 f0             	mov    %edx,-0x10(%ebp)
    4d55:	0f be 04 3b          	movsbl (%ebx,%edi,1),%eax
    4d59:	8d 57 01             	lea    0x1(%edi),%edx
    4d5c:	84 c0                	test   %al,%al
    4d5e:	79 e8                	jns    4d48 <str_length+0x18>
    4d60:	88 c1                	mov    %al,%cl
    4d62:	83 e1 e0             	and    $0xffffffe0,%ecx
    4d65:	80 f9 c0             	cmp    $0xc0,%cl
    4d68:	74 28                	je     4d92 <str_length+0x62>
    4d6a:	88 c1                	mov    %al,%cl
    4d6c:	83 e1 f0             	and    $0xfffffff0,%ecx
    4d6f:	80 f9 e0             	cmp    $0xe0,%cl
    4d72:	74 7d                	je     4df1 <str_length+0xc1>
    4d74:	88 c1                	mov    %al,%cl
    4d76:	83 e1 f8             	and    $0xfffffff8,%ecx
    4d79:	80 f9 f0             	cmp    $0xf0,%cl
    4d7c:	75 ce                	jne    4d4c <str_length+0x1c>
    4d7e:	b1 07                	mov    $0x7,%cl
    4d80:	be 03 00 00 00       	mov    $0x3,%esi
    4d85:	eb 12                	jmp    4d99 <str_length+0x69>
    4d87:	8b 45 f0             	mov    -0x10(%ebp),%eax
    4d8a:	83 c4 0c             	add    $0xc,%esp
    4d8d:	5b                   	pop    %ebx
    4d8e:	5e                   	pop    %esi
    4d8f:	5f                   	pop    %edi
    4d90:	5d                   	pop    %ebp
    4d91:	c3                   	ret    
    4d92:	b1 1f                	mov    $0x1f,%cl
    4d94:	be 01 00 00 00       	mov    $0x1,%esi
    4d99:	21 c8                	and    %ecx,%eax
    4d9b:	8a 0c 13             	mov    (%ebx,%edx,1),%cl
