
cdfs:     file format elf32-i386


Disassembly of section .init:

00001094 <__entry>:
    1094:	66 8c d0             	mov    %ss,%ax
    1097:	8e d8                	mov    %eax,%ds
    1099:	8e c0                	mov    %eax,%es
    109b:	8e e0                	mov    %eax,%fs
    109d:	b8 01 00 00 00       	mov    $0x1,%eax
    10a2:	0f a2                	cpuid  
    10a4:	0f ba e2 0b          	bt     $0xb,%edx
    10a8:	73 0c                	jae    10b6 <__entry+0x22>
    10aa:	8d 05 34 49 02 00    	lea    0x24934,%eax
    10b0:	c7 00 87 f5 01 00    	movl   $0x1f587,(%eax)
    10b6:	6a 00                	push   $0x0
    10b8:	89 e5                	mov    %esp,%ebp
    10ba:	57                   	push   %edi
    10bb:	e8 20 40 00 00       	call   50e0 <__main>

Disassembly of section .text:

000010c0 <main>:
    10c0:	55                   	push   %ebp
    10c1:	89 e5                	mov    %esp,%ebp
    10c3:	53                   	push   %ebx
    10c4:	83 e4 f0             	and    $0xfffffff0,%esp
    10c7:	83 ec 10             	sub    $0x10,%esp
    10ca:	8b 5d 0c             	mov    0xc(%ebp),%ebx
    10cd:	c7 44 24 04 b2 1a 02 	movl   $0x21ab2,0x4(%esp)
    10d4:	00 
    10d5:	c7 04 24 18 1b 02 00 	movl   $0x21b18,(%esp)
    10dc:	e8 bf ef 00 00       	call   100a0 <printf>
    10e1:	83 7d 08 03          	cmpl   $0x3,0x8(%ebp)
    10e5:	0f 84 ac 00 00 00    	je     1197 <main+0xd7>
    10eb:	e8 90 11 00 00       	call   2280 <cdfs_init>
    10f0:	84 c0                	test   %al,%al
    10f2:	0f 84 db 00 00 00    	je     11d3 <main+0x113>
    10f8:	c7 44 24 0c 00 00 00 	movl   $0x0,0xc(%esp)
    10ff:	00 
    1100:	c7 44 24 08 00 00 00 	movl   $0x0,0x8(%esp)
    1107:	00 
    1108:	c7 44 24 04 76 66 73 	movl   $0x20736676,0x4(%esp)
    110f:	20 
    1110:	c7 04 24 02 00 00 00 	movl   $0x2,(%esp)
    1117:	e8 94 44 01 00       	call   155b0 <service_connect_blocking>
    111c:	85 c0                	test   %eax,%eax
    111e:	0f 84 dc 00 00 00    	je     1200 <main+0x140>
    1124:	c7 44 24 0c c0 46 02 	movl   $0x246c0,0xc(%esp)
    112b:	00 
    112c:	c7 44 24 08 a0 46 02 	movl   $0x246a0,0x8(%esp)
    1133:	00 
    1134:	c7 44 24 04 80 46 02 	movl   $0x24680,0x4(%esp)
    113b:	00 
    113c:	89 04 24             	mov    %eax,(%esp)
    113f:	e8 fc 3a 00 00       	call   4c40 <fs_register>
    1144:	89 c3                	mov    %eax,%ebx
    1146:	85 c0                	test   %eax,%eax
    1148:	75 33                	jne    117d <main+0xbd>
    114a:	c7 44 24 04 b2 1a 02 	movl   $0x21ab2,0x4(%esp)
    1151:	00 
    1152:	c7 04 24 fd 1a 02 00 	movl   $0x21afd,(%esp)
    1159:	e8 42 ef 00 00       	call   100a0 <printf>
    115e:	c7 04 24 00 00 00 00 	movl   $0x0,(%esp)
    1165:	e8 f6 c8 00 00       	call   da60 <task_retval>
    116a:	c7 04 24 01 00 00 00 	movl   $0x1,(%esp)
    1171:	e8 ca a7 00 00       	call   b940 <fibril_switch>
    1176:	89 d8                	mov    %ebx,%eax
    1178:	8b 5d fc             	mov    -0x4(%ebp),%ebx
    117b:	c9                   	leave  
    117c:	c3                   	ret    
    117d:	89 44 24 08          	mov    %eax,0x8(%esp)
    1181:	c7 44 24 04 b2 1a 02 	movl   $0x21ab2,0x4(%esp)
    1188:	00 
    1189:	c7 04 24 60 1b 02 00 	movl   $0x21b60,(%esp)
    1190:	e8 0b ef 00 00       	call   100a0 <printf>
    1195:	eb df                	jmp    1176 <main+0xb6>
    1197:	c7 44 24 04 b7 1a 02 	movl   $0x21ab7,0x4(%esp)
    119e:	00 
    119f:	8b 43 04             	mov    0x4(%ebx),%eax
    11a2:	89 04 24             	mov    %eax,(%esp)
    11a5:	e8 76 82 00 00       	call   9420 <str_cmp>
    11aa:	85 c0                	test   %eax,%eax
    11ac:	75 3e                	jne    11ec <main+0x12c>
    11ae:	c7 44 24 08 0a 00 00 	movl   $0xa,0x8(%esp)
    11b5:	00 
    11b6:	c7 44 24 04 00 00 00 	movl   $0x0,0x4(%esp)
    11bd:	00 
    11be:	8b 43 08             	mov    0x8(%ebx),%eax
    11c1:	89 04 24             	mov    %eax,(%esp)
    11c4:	e8 87 9c 00 00       	call   ae50 <strtol>
    11c9:	a3 98 46 02 00       	mov    %eax,0x24698
    11ce:	e9 18 ff ff ff       	jmp    10eb <main+0x2b>
    11d3:	c7 44 24 04 b2 1a 02 	movl   $0x21ab2,0x4(%esp)
    11da:	00 
    11db:	c7 04 24 40 1b 02 00 	movl   $0x21b40,(%esp)
    11e2:	e8 b9 ee 00 00       	call   100a0 <printf>
    11e7:	83 cb ff             	or     $0xffffffff,%ebx
    11ea:	eb 8a                	jmp    1176 <main+0xb6>
    11ec:	c7 04 24 c2 1a 02 00 	movl   $0x21ac2,(%esp)
    11f3:	83 cb ff             	or     $0xffffffff,%ebx
    11f6:	e8 a5 ee 00 00       	call   100a0 <printf>
    11fb:	e9 76 ff ff ff       	jmp    1176 <main+0xb6>
    1200:	c7 44 24 04 b2 1a 02 	movl   $0x21ab2,0x4(%esp)
    1207:	00 
    1208:	c7 04 24 df 1a 02 00 	movl   $0x21adf,(%esp)
    120f:	e8 8c ee 00 00       	call   100a0 <printf>
    1214:	83 cb ff             	or     $0xffffffff,%ebx
    1217:	e9 5a ff ff ff       	jmp    1176 <main+0xb6>
    121c:	66 90                	xchg   %ax,%ax
    121e:	66 90                	xchg   %ax,%ax

00001220 <nodes_key_hash>:
    1220:	55                   	push   %ebp
    1221:	89 e5                	mov    %esp,%ebp
    1223:	8b 45 08             	mov    0x8(%ebp),%eax
    1226:	5d                   	pop    %ebp
    1227:	8b 10                	mov    (%eax),%edx
    1229:	8b 48 04             	mov    0x4(%eax),%ecx
    122c:	89 d0                	mov    %edx,%eax
    122e:	c1 c8 1b             	ror    $0x1b,%eax
    1231:	8d 84 01 b9 79 37 9e 	lea    -0x61c88647(%ecx,%eax,1),%eax
    1238:	31 d0                	xor    %edx,%eax
    123a:	c3                   	ret    
    123b:	90                   	nop
    123c:	8d 74 26 00          	lea    0x0(%esi,%eiz,1),%esi

00001240 <nodes_hash>:
    1240:	55                   	push   %ebp
    1241:	89 e5                	mov    %esp,%ebp
    1243:	8b 45 08             	mov    0x8(%ebp),%eax
    1246:	5d                   	pop    %ebp
    1247:	8b 50 fc             	mov    -0x4(%eax),%edx
    124a:	8b 48 f8             	mov    -0x8(%eax),%ecx
    124d:	89 d0                	mov    %edx,%eax
    124f:	c1 c8 1b             	ror    $0x1b,%eax
    1252:	8d 84 01 b9 79 37 9e 	lea    -0x61c88647(%ecx,%eax,1),%eax
    1259:	31 d0                	xor    %edx,%eax
    125b:	c3                   	ret    
    125c:	8d 74 26 00          	lea    0x0(%esi,%eiz,1),%esi

00001260 <nodes_key_equal>:
    1260:	55                   	push   %ebp
    1261:	31 c0                	xor    %eax,%eax
    1263:	89 e5                	mov    %esp,%ebp
    1265:	53                   	push   %ebx
    1266:	8b 55 0c             	mov    0xc(%ebp),%edx
    1269:	8b 4d 08             	mov    0x8(%ebp),%ecx
    126c:	8b 5a fc             	mov    -0x4(%edx),%ebx
    126f:	83 ea 0c             	sub    $0xc,%edx
    1272:	39 19                	cmp    %ebx,(%ecx)
    1274:	74 0a                	je     1280 <nodes_key_equal+0x20>
    1276:	5b                   	pop    %ebx
    1277:	5d                   	pop    %ebp
    1278:	c3                   	ret    
    1279:	8d b4 26 00 00 00 00 	lea    0x0(%esi,%eiz,1),%esi
    1280:	8b 42 04             	mov    0x4(%edx),%eax
    1283:	5b                   	pop    %ebx
    1284:	39 41 04             	cmp    %eax,0x4(%ecx)
    1287:	5d                   	pop    %ebp
    1288:	0f 94 c0             	sete   %al
    128b:	c3                   	ret    
    128c:	8d 74 26 00          	lea    0x0(%esi,%eiz,1),%esi

00001290 <cdfs_node_put>:
    1290:	55                   	push   %ebp
    1291:	31 c0                	xor    %eax,%eax
    1293:	89 e5                	mov    %esp,%ebp
    1295:	5d                   	pop    %ebp
    1296:	c3                   	ret    
    1297:	89 f6                	mov    %esi,%esi
    1299:	8d bc 27 00 00 00 00 	lea    0x0(%edi,%eiz,1),%edi

000012a0 <cdfs_create_node>:
    12a0:	55                   	push   %ebp
    12a1:	b8 f5 ff ff ff       	mov    $0xfffffff5,%eax
    12a6:	89 e5                	mov    %esp,%ebp
    12a8:	5d                   	pop    %ebp
    12a9:	c3                   	ret    
    12aa:	8d b6 00 00 00 00    	lea    0x0(%esi),%esi

000012b0 <cdfs_destroy_node>:
    12b0:	55                   	push   %ebp
    12b1:	b8 f5 ff ff ff       	mov    $0xfffffff5,%eax
    12b6:	89 e5                	mov    %esp,%ebp
    12b8:	5d                   	pop    %ebp
    12b9:	c3                   	ret    
    12ba:	8d b6 00 00 00 00    	lea    0x0(%esi),%esi

000012c0 <cdfs_link_node>:
    12c0:	55                   	push   %ebp
    12c1:	b8 f5 ff ff ff       	mov    $0xfffffff5,%eax
    12c6:	89 e5                	mov    %esp,%ebp
    12c8:	5d                   	pop    %ebp
    12c9:	c3                   	ret    
    12ca:	8d b6 00 00 00 00    	lea    0x0(%esi),%esi

000012d0 <cdfs_unlink_node>:
    12d0:	55                   	push   %ebp
    12d1:	b8 f5 ff ff ff       	mov    $0xfffffff5,%eax
    12d6:	89 e5                	mov    %esp,%ebp
    12d8:	5d                   	pop    %ebp
    12d9:	c3                   	ret    
    12da:	8d b6 00 00 00 00    	lea    0x0(%esi),%esi

000012e0 <cdfs_index_get>:
    12e0:	55                   	push   %ebp
    12e1:	89 e5                	mov    %esp,%ebp
    12e3:	8b 45 08             	mov    0x8(%ebp),%eax
    12e6:	85 c0                	test   %eax,%eax
    12e8:	74 0e                	je     12f8 <cdfs_index_get+0x18>
    12ea:	8b 40 10             	mov    0x10(%eax),%eax
    12ed:	5d                   	pop    %ebp
    12ee:	8b 40 04             	mov    0x4(%eax),%eax
    12f1:	c3                   	ret    
    12f2:	8d b6 00 00 00 00    	lea    0x0(%esi),%esi
    12f8:	31 c0                	xor    %eax,%eax
    12fa:	5d                   	pop    %ebp
    12fb:	8b 40 04             	mov    0x4(%eax),%eax
    12fe:	c3                   	ret    
    12ff:	90                   	nop

00001300 <cdfs_size_get>:
    1300:	55                   	push   %ebp
    1301:	89 e5                	mov    %esp,%ebp
    1303:	8b 45 08             	mov    0x8(%ebp),%eax
    1306:	85 c0                	test   %eax,%eax
    1308:	74 0e                	je     1318 <cdfs_size_get+0x18>
    130a:	8b 40 10             	mov    0x10(%eax),%eax
    130d:	31 d2                	xor    %edx,%edx
    130f:	5d                   	pop    %ebp
    1310:	8b 40 1c             	mov    0x1c(%eax),%eax
    1313:	c3                   	ret    
    1314:	8d 74 26 00          	lea    0x0(%esi,%eiz,1),%esi
    1318:	31 c0                	xor    %eax,%eax
    131a:	31 d2                	xor    %edx,%edx
    131c:	5d                   	pop    %ebp
    131d:	8b 40 1c             	mov    0x1c(%eax),%eax
    1320:	c3                   	ret    
    1321:	eb 0d                	jmp    1330 <cdfs_lnkcnt_get>
    1323:	90                   	nop
    1324:	90                   	nop
    1325:	90                   	nop
    1326:	90                   	nop
    1327:	90                   	nop
    1328:	90                   	nop
    1329:	90                   	nop
    132a:	90                   	nop
    132b:	90                   	nop
    132c:	90                   	nop
    132d:	90                   	nop
    132e:	90                   	nop
    132f:	90                   	nop

00001330 <cdfs_lnkcnt_get>:
    1330:	55                   	push   %ebp
    1331:	89 e5                	mov    %esp,%ebp
    1333:	8b 45 08             	mov    0x8(%ebp),%eax
    1336:	85 c0                	test   %eax,%eax
    1338:	74 0e                	je     1348 <cdfs_lnkcnt_get+0x18>
    133a:	8b 40 10             	mov    0x10(%eax),%eax
    133d:	5d                   	pop    %ebp
    133e:	8b 40 18             	mov    0x18(%eax),%eax
    1341:	c3                   	ret    
    1342:	8d b6 00 00 00 00    	lea    0x0(%esi),%esi
    1348:	31 c0                	xor    %eax,%eax
    134a:	5d                   	pop    %ebp
    134b:	8b 40 18             	mov    0x18(%eax),%eax
    134e:	c3                   	ret    
    134f:	90                   	nop

00001350 <cdfs_is_directory>:
    1350:	55                   	push   %ebp
    1351:	89 e5                	mov    %esp,%ebp
    1353:	8b 45 08             	mov    0x8(%ebp),%eax
    1356:	85 c0                	test   %eax,%eax
    1358:	74 0e                	je     1368 <cdfs_is_directory+0x18>
    135a:	8b 40 10             	mov    0x10(%eax),%eax
    135d:	5d                   	pop    %ebp
    135e:	83 78 14 02          	cmpl   $0x2,0x14(%eax)
    1362:	0f 94 c0             	sete   %al
    1365:	c3                   	ret    
    1366:	66 90                	xchg   %ax,%ax
    1368:	31 c0                	xor    %eax,%eax
    136a:	5d                   	pop    %ebp
    136b:	83 78 14 02          	cmpl   $0x2,0x14(%eax)
    136f:	0f 94 c0             	sete   %al
    1372:	c3                   	ret    
    1373:	8d b6 00 00 00 00    	lea    0x0(%esi),%esi
    1379:	8d bc 27 00 00 00 00 	lea    0x0(%edi,%eiz,1),%edi

00001380 <cdfs_is_file>:
    1380:	55                   	push   %ebp
    1381:	89 e5                	mov    %esp,%ebp
    1383:	8b 45 08             	mov    0x8(%ebp),%eax
    1386:	85 c0                	test   %eax,%eax
    1388:	74 0e                	je     1398 <cdfs_is_file+0x18>
    138a:	8b 40 10             	mov    0x10(%eax),%eax
    138d:	5d                   	pop    %ebp
    138e:	83 78 14 01          	cmpl   $0x1,0x14(%eax)
    1392:	0f 94 c0             	sete   %al
    1395:	c3                   	ret    
    1396:	66 90                	xchg   %ax,%ax
    1398:	31 c0                	xor    %eax,%eax
    139a:	5d                   	pop    %ebp
    139b:	83 78 14 01          	cmpl   $0x1,0x14(%eax)
    139f:	0f 94 c0             	sete   %al
    13a2:	c3                   	ret    
    13a3:	8d b6 00 00 00 00    	lea    0x0(%esi),%esi
    13a9:	8d bc 27 00 00 00 00 	lea    0x0(%edi,%eiz,1),%edi

000013b0 <cdfs_service_get>:
    13b0:	55                   	push   %ebp
    13b1:	31 c0                	xor    %eax,%eax
    13b3:	89 e5                	mov    %esp,%ebp
    13b5:	5d                   	pop    %ebp
    13b6:	c3                   	ret    
    13b7:	89 f6                	mov    %esi,%esi
    13b9:	8d bc 27 00 00 00 00 	lea    0x0(%edi,%eiz,1),%edi

000013c0 <cdfs_write>:
    13c0:	55                   	push   %ebp
    13c1:	b8 f5 ff ff ff       	mov    $0xfffffff5,%eax
    13c6:	89 e5                	mov    %esp,%ebp
    13c8:	5d                   	pop    %ebp
    13c9:	c3                   	ret    
    13ca:	8d b6 00 00 00 00    	lea    0x0(%esi),%esi

000013d0 <cdfs_truncate>:
    13d0:	55                   	push   %ebp
    13d1:	b8 f5 ff ff ff       	mov    $0xfffffff5,%eax
    13d6:	89 e5                	mov    %esp,%ebp
    13d8:	5d                   	pop    %ebp
    13d9:	c3                   	ret    
    13da:	8d b6 00 00 00 00    	lea    0x0(%esi),%esi

000013e0 <cdfs_destroy>:
    13e0:	55                   	push   %ebp
    13e1:	b8 f5 ff ff ff       	mov    $0xfffffff5,%eax
    13e6:	89 e5                	mov    %esp,%ebp
    13e8:	5d                   	pop    %ebp
    13e9:	c3                   	ret    
    13ea:	8d b6 00 00 00 00    	lea    0x0(%esi),%esi

000013f0 <cdfs_sync>:
    13f0:	55                   	push   %ebp
    13f1:	31 c0                	xor    %eax,%eax
    13f3:	89 e5                	mov    %esp,%ebp
    13f5:	5d                   	pop    %ebp
    13f6:	c3                   	ret    
    13f7:	89 f6                	mov    %esi,%esi
    13f9:	8d bc 27 00 00 00 00 	lea    0x0(%edi,%eiz,1),%edi

00001400 <cdfs_node_get>:
    1400:	55                   	push   %ebp
    1401:	89 e5                	mov    %esp,%ebp
    1403:	83 ec 28             	sub    $0x28,%esp
    1406:	8b 45 0c             	mov    0xc(%ebp),%eax
    1409:	c7 04 24 70 49 02 00 	movl   $0x24970,(%esp)
    1410:	89 45 f0             	mov    %eax,-0x10(%ebp)
    1413:	8b 45 10             	mov    0x10(%ebp),%eax
    1416:	89 45 f4             	mov    %eax,-0xc(%ebp)
    1419:	8d 45 f0             	lea    -0x10(%ebp),%eax
    141c:	89 44 24 04          	mov    %eax,0x4(%esp)
    1420:	e8 ab 9b 01 00       	call   1afd0 <hash_table_find>
    1425:	85 c0                	test   %eax,%eax
    1427:	74 17                	je     1440 <cdfs_node_get+0x40>
    1429:	83 f8 0c             	cmp    $0xc,%eax
    142c:	74 22                	je     1450 <cdfs_node_get+0x50>
    142e:	8b 40 f4             	mov    -0xc(%eax),%eax
    1431:	8b 55 08             	mov    0x8(%ebp),%edx
    1434:	89 02                	mov    %eax,(%edx)
    1436:	31 c0                	xor    %eax,%eax
    1438:	c9                   	leave  
    1439:	c3                   	ret    
    143a:	8d b6 00 00 00 00    	lea    0x0(%esi),%esi
    1440:	8b 55 08             	mov    0x8(%ebp),%edx
    1443:	31 c0                	xor    %eax,%eax
    1445:	c7 02 00 00 00 00    	movl   $0x0,(%edx)
    144b:	c9                   	leave  
    144c:	c3                   	ret    
    144d:	8d 76 00             	lea    0x0(%esi),%esi
    1450:	31 c0                	xor    %eax,%eax
    1452:	eb dd                	jmp    1431 <cdfs_node_get+0x31>
    1454:	8d b6 00 00 00 00    	lea    0x0(%esi),%esi
    145a:	8d bf 00 00 00 00    	lea    0x0(%edi),%edi

00001460 <cache_remove_closed>:
    1460:	55                   	push   %ebp
    1461:	89 e5                	mov    %esp,%ebp
    1463:	53                   	push   %ebx
    1464:	83 ec 14             	sub    $0x14,%esp
    1467:	8b 5d 0c             	mov    0xc(%ebp),%ebx
    146a:	8b 03                	mov    (%ebx),%eax
    146c:	85 c0                	test   %eax,%eax
    146e:	74 0a                	je     147a <cache_remove_closed+0x1a>
    1470:	8b 55 08             	mov    0x8(%ebp),%edx
    1473:	8b 4a 24             	mov    0x24(%edx),%ecx
    1476:	85 c9                	test   %ecx,%ecx
    1478:	74 0e                	je     1488 <cache_remove_closed+0x28>
    147a:	85 c0                	test   %eax,%eax
    147c:	0f 95 c0             	setne  %al
    147f:	83 c4 14             	add    $0x14,%esp
    1482:	5b                   	pop    %ebx
    1483:	5d                   	pop    %ebp
    1484:	c3                   	ret    
    1485:	8d 76 00             	lea    0x0(%esi),%esi
    1488:	89 54 24 04          	mov    %edx,0x4(%esp)
    148c:	c7 04 24 70 49 02 00 	movl   $0x24970,(%esp)
    1493:	e8 b8 9d 01 00       	call   1b250 <hash_table_remove_item>
    1498:	a1 8c 49 02 00       	mov    0x2498c,%eax
    149d:	48                   	dec    %eax
    149e:	a3 8c 49 02 00       	mov    %eax,0x2498c
    14a3:	8b 03                	mov    (%ebx),%eax
    14a5:	48                   	dec    %eax
    14a6:	89 03                	mov    %eax,(%ebx)
    14a8:	85 c0                	test   %eax,%eax
    14aa:	0f 95 c0             	setne  %al
    14ad:	83 c4 14             	add    $0x14,%esp
    14b0:	5b                   	pop    %ebx
    14b1:	5d                   	pop    %ebp
    14b2:	c3                   	ret    
    14b3:	8d b6 00 00 00 00    	lea    0x0(%esi),%esi
    14b9:	8d bc 27 00 00 00 00 	lea    0x0(%edi,%eiz,1),%edi

000014c0 <rm_service_id_nodes>:
    14c0:	55                   	push   %ebp
    14c1:	89 e5                	mov    %esp,%ebp
    14c3:	83 ec 18             	sub    $0x18,%esp
    14c6:	8b 55 0c             	mov    0xc(%ebp),%edx
    14c9:	8b 45 08             	mov    0x8(%ebp),%eax
    14cc:	8b 0a                	mov    (%edx),%ecx
    14ce:	39 48 fc             	cmp    %ecx,-0x4(%eax)
    14d1:	74 05                	je     14d8 <rm_service_id_nodes+0x18>
    14d3:	b0 01                	mov    $0x1,%al
    14d5:	c9                   	leave  
    14d6:	c3                   	ret    
    14d7:	90                   	nop
    14d8:	89 44 24 04          	mov    %eax,0x4(%esp)
    14dc:	c7 04 24 70 49 02 00 	movl   $0x24970,(%esp)
    14e3:	e8 68 9d 01 00       	call   1b250 <hash_table_remove_item>
    14e8:	b0 01                	mov    $0x1,%al
    14ea:	c9                   	leave  
    14eb:	c3                   	ret    
    14ec:	8d 74 26 00          	lea    0x0(%esi,%eiz,1),%esi

000014f0 <cdfs_unmounted>:
    14f0:	55                   	push   %ebp
    14f1:	89 e5                	mov    %esp,%ebp
    14f3:	83 ec 28             	sub    $0x28,%esp
    14f6:	8b 45 08             	mov    0x8(%ebp),%eax
    14f9:	c7 44 24 04 c0 14 00 	movl   $0x14c0,0x4(%esp)
    1500:	00 
    1501:	89 45 f4             	mov    %eax,-0xc(%ebp)
    1504:	8d 45 f4             	lea    -0xc(%ebp),%eax
    1507:	89 44 24 08          	mov    %eax,0x8(%esp)
    150b:	c7 04 24 70 49 02 00 	movl   $0x24970,(%esp)
    1512:	e8 19 9e 01 00       	call   1b330 <hash_table_apply>
    1517:	8b 45 f4             	mov    -0xc(%ebp),%eax
    151a:	89 04 24             	mov    %eax,(%esp)
    151d:	e8 3e 12 00 00       	call   2760 <block_cache_fini>
    1522:	8b 45 f4             	mov    -0xc(%ebp),%eax
    1525:	89 04 24             	mov    %eax,(%esp)
    1528:	e8 f3 13 00 00       	call   2920 <block_fini>
    152d:	31 c0                	xor    %eax,%eax
    152f:	c9                   	leave  
    1530:	c3                   	ret    
    1531:	eb 0d                	jmp    1540 <cdfs_close>
    1533:	90                   	nop
    1534:	90                   	nop
    1535:	90                   	nop
    1536:	90                   	nop
    1537:	90                   	nop
    1538:	90                   	nop
    1539:	90                   	nop
    153a:	90                   	nop
    153b:	90                   	nop
    153c:	90                   	nop
    153d:	90                   	nop
    153e:	90                   	nop
    153f:	90                   	nop

00001540 <cdfs_close>:
    1540:	55                   	push   %ebp
    1541:	89 e5                	mov    %esp,%ebp
    1543:	83 ec 28             	sub    $0x28,%esp
    1546:	8b 45 0c             	mov    0xc(%ebp),%eax
    1549:	85 c0                	test   %eax,%eax
    154b:	75 0b                	jne    1558 <cdfs_close+0x18>
    154d:	31 c0                	xor    %eax,%eax
    154f:	c9                   	leave  
    1550:	c3                   	ret    
    1551:	8d b4 26 00 00 00 00 	lea    0x0(%esi,%eiz,1),%esi
    1558:	89 45 f4             	mov    %eax,-0xc(%ebp)
    155b:	8d 45 f0             	lea    -0x10(%ebp),%eax
    155e:	8b 55 08             	mov    0x8(%ebp),%edx
    1561:	89 44 24 04          	mov    %eax,0x4(%esp)
    1565:	c7 04 24 70 49 02 00 	movl   $0x24970,(%esp)
    156c:	89 55 f0             	mov    %edx,-0x10(%ebp)
    156f:	e8 5c 9a 01 00       	call   1afd0 <hash_table_find>
    1574:	85 c0                	test   %eax,%eax
    1576:	74 41                	je     15b9 <cdfs_close+0x79>
    1578:	83 e8 0c             	sub    $0xc,%eax
    157b:	8b 50 30             	mov    0x30(%eax),%edx
    157e:	85 d2                	test   %edx,%edx
    1580:	74 3c                	je     15be <cdfs_close+0x7e>
    1582:	4a                   	dec    %edx
    1583:	89 50 30             	mov    %edx,0x30(%eax)
    1586:	a1 8c 49 02 00       	mov    0x2498c,%eax
    158b:	3d c8 00 00 00       	cmp    $0xc8,%eax
    1590:	76 bb                	jbe    154d <cdfs_close+0xd>
    1592:	2d c8 00 00 00       	sub    $0xc8,%eax
    1597:	c7 44 24 04 60 14 00 	movl   $0x1460,0x4(%esp)
    159e:	00 
    159f:	89 45 ec             	mov    %eax,-0x14(%ebp)
    15a2:	8d 45 ec             	lea    -0x14(%ebp),%eax
    15a5:	89 44 24 08          	mov    %eax,0x8(%esp)
    15a9:	c7 04 24 70 49 02 00 	movl   $0x24970,(%esp)
    15b0:	e8 7b 9d 01 00       	call   1b330 <hash_table_apply>
    15b5:	31 c0                	xor    %eax,%eax
    15b7:	eb 96                	jmp    154f <cdfs_close+0xf>
    15b9:	83 c8 ff             	or     $0xffffffff,%eax
    15bc:	c9                   	leave  
    15bd:	c3                   	ret    
    15be:	c7 44 24 08 c1 03 00 	movl   $0x3c1,0x8(%esp)
    15c5:	00 
    15c6:	c7 44 24 04 89 1b 02 	movl   $0x21b89,0x4(%esp)
    15cd:	00 
    15ce:	c7 04 24 94 1b 02 00 	movl   $0x21b94,(%esp)
    15d5:	e8 26 df 01 00       	call   1f500 <assert_abort>
    15da:	8d b6 00 00 00 00    	lea    0x0(%esi),%esi

000015e0 <nodes_remove_callback>:
    15e0:	55                   	push   %ebp
    15e1:	89 e5                	mov    %esp,%ebp
    15e3:	57                   	push   %edi
    15e4:	56                   	push   %esi
    15e5:	53                   	push   %ebx
    15e6:	83 ec 1c             	sub    $0x1c,%esp
    15e9:	8b 7d 08             	mov    0x8(%ebp),%edi
    15ec:	8d 5f f4             	lea    -0xc(%edi),%ebx
    15ef:	83 7b 14 02          	cmpl   $0x2,0x14(%ebx)
    15f3:	75 59                	jne    164e <nodes_remove_callback+0x6e>
    15f5:	8b 43 24             	mov    0x24(%ebx),%eax
    15f8:	8d 77 14             	lea    0x14(%edi),%esi
    15fb:	39 f0                	cmp    %esi,%eax
    15fd:	74 35                	je     1634 <nodes_remove_callback+0x54>
    15ff:	90                   	nop
    1600:	85 c0                	test   %eax,%eax
    1602:	74 30                	je     1634 <nodes_remove_callback+0x54>
    1604:	8b 08                	mov    (%eax),%ecx
    1606:	85 c9                	test   %ecx,%ecx
    1608:	74 0e                	je     1618 <nodes_remove_callback+0x38>
    160a:	8b 50 04             	mov    0x4(%eax),%edx
    160d:	85 d2                	test   %edx,%edx
    160f:	74 07                	je     1618 <nodes_remove_callback+0x38>
    1611:	89 0a                	mov    %ecx,(%edx)
    1613:	8b 08                	mov    (%eax),%ecx
    1615:	89 51 04             	mov    %edx,0x4(%ecx)
    1618:	c7 00 00 00 00 00    	movl   $0x0,(%eax)
    161e:	c7 40 04 00 00 00 00 	movl   $0x0,0x4(%eax)
    1625:	89 04 24             	mov    %eax,(%esp)
    1628:	e8 03 38 01 00       	call   14e30 <free>
    162d:	8b 43 24             	mov    0x24(%ebx),%eax
    1630:	39 f0                	cmp    %esi,%eax
    1632:	75 cc                	jne    1600 <nodes_remove_callback+0x20>
    1634:	8b 47 f4             	mov    -0xc(%edi),%eax
    1637:	89 04 24             	mov    %eax,(%esp)
    163a:	e8 f1 37 01 00       	call   14e30 <free>
    163f:	89 5d 08             	mov    %ebx,0x8(%ebp)
    1642:	83 c4 1c             	add    $0x1c,%esp
    1645:	5b                   	pop    %ebx
    1646:	5e                   	pop    %esi
    1647:	5f                   	pop    %edi
    1648:	5d                   	pop    %ebp
    1649:	e9 e2 37 01 00       	jmp    14e30 <free>
    164e:	c7 44 24 08 fb 00 00 	movl   $0xfb,0x8(%esp)
    1655:	00 
    1656:	c7 44 24 04 89 1b 02 	movl   $0x21b89,0x4(%esp)
    165d:	00 
    165e:	c7 04 24 a5 1b 02 00 	movl   $0x21ba5,(%esp)
    1665:	e8 96 de 01 00       	call   1f500 <assert_abort>
    166a:	8d b6 00 00 00 00    	lea    0x0(%esi),%esi

00001670 <cdfs_root_get>:
    1670:	55                   	push   %ebp
    1671:	89 e5                	mov    %esp,%ebp
    1673:	83 ec 28             	sub    $0x28,%esp
    1676:	8b 45 0c             	mov    0xc(%ebp),%eax
    1679:	c7 04 24 70 49 02 00 	movl   $0x24970,(%esp)
    1680:	89 45 f0             	mov    %eax,-0x10(%ebp)
    1683:	8d 45 f0             	lea    -0x10(%ebp),%eax
    1686:	89 44 24 04          	mov    %eax,0x4(%esp)
    168a:	c7 45 f4 00 00 00 00 	movl   $0x0,-0xc(%ebp)
    1691:	e8 3a 99 01 00       	call   1afd0 <hash_table_find>
    1696:	85 c0                	test   %eax,%eax
    1698:	74 16                	je     16b0 <cdfs_root_get+0x40>
    169a:	83 f8 0c             	cmp    $0xc,%eax
    169d:	74 21                	je     16c0 <cdfs_root_get+0x50>
    169f:	8b 40 f4             	mov    -0xc(%eax),%eax
    16a2:	8b 55 08             	mov    0x8(%ebp),%edx
    16a5:	89 02                	mov    %eax,(%edx)
    16a7:	31 c0                	xor    %eax,%eax
    16a9:	c9                   	leave  
    16aa:	c3                   	ret    
    16ab:	90                   	nop
    16ac:	8d 74 26 00          	lea    0x0(%esi,%eiz,1),%esi
    16b0:	8b 55 08             	mov    0x8(%ebp),%edx
    16b3:	31 c0                	xor    %eax,%eax
    16b5:	c7 02 00 00 00 00    	movl   $0x0,(%edx)
    16bb:	c9                   	leave  
    16bc:	c3                   	ret    
    16bd:	8d 76 00             	lea    0x0(%esi),%esi
    16c0:	31 c0                	xor    %eax,%eax
    16c2:	eb de                	jmp    16a2 <cdfs_root_get+0x32>
    16c4:	8d b6 00 00 00 00    	lea    0x0(%esi),%esi
    16ca:	8d bf 00 00 00 00    	lea    0x0(%edi),%edi

000016d0 <create_node>:
    16d0:	55                   	push   %ebp
    16d1:	89 e5                	mov    %esp,%ebp
    16d3:	57                   	push   %edi
    16d4:	56                   	push   %esi
    16d5:	53                   	push   %ebx
    16d6:	83 ec 3c             	sub    $0x3c,%esp
    16d9:	89 cb                	mov    %ecx,%ebx
    16db:	89 45 d4             	mov    %eax,-0x2c(%ebp)
    16de:	f6 c1 03             	test   $0x3,%cl
    16e1:	0f 84 1f 01 00 00    	je     1806 <create_node+0x136>
    16e7:	c7 04 24 34 00 00 00 	movl   $0x34,(%esp)
    16ee:	89 d6                	mov    %edx,%esi
    16f0:	e8 2b 36 01 00       	call   14d20 <malloc>
    16f5:	89 c7                	mov    %eax,%edi
    16f7:	85 c0                	test   %eax,%eax
    16f9:	0f 84 f1 00 00 00    	je     17f0 <create_node+0x120>
    16ff:	c7 00 00 00 00 00    	movl   $0x0,(%eax)
    1705:	c7 40 04 00 00 00 00 	movl   $0x0,0x4(%eax)
    170c:	c7 40 08 00 00 00 00 	movl   $0x0,0x8(%eax)
    1713:	c7 40 14 00 00 00 00 	movl   $0x0,0x14(%eax)
    171a:	c7 40 18 00 00 00 00 	movl   $0x0,0x18(%eax)
    1721:	c7 40 1c 00 00 00 00 	movl   $0x0,0x1c(%eax)
    1728:	c7 40 28 00 00 00 00 	movl   $0x0,0x28(%eax)
    172f:	c6 40 2c 00          	movb   $0x0,0x2c(%eax)
    1733:	c7 40 30 00 00 00 00 	movl   $0x0,0x30(%eax)
    173a:	8d 40 20             	lea    0x20(%eax),%eax
    173d:	c7 04 24 14 00 00 00 	movl   $0x14,(%esp)
    1744:	89 47 20             	mov    %eax,0x20(%edi)
    1747:	89 47 24             	mov    %eax,0x24(%edi)
    174a:	e8 d1 35 01 00       	call   14d20 <malloc>
    174f:	89 07                	mov    %eax,(%edi)
    1751:	85 c0                	test   %eax,%eax
    1753:	0f 84 9e 00 00 00    	je     17f7 <create_node+0x127>
    1759:	89 04 24             	mov    %eax,(%esp)
    175c:	e8 4f 36 00 00       	call   4db0 <fs_node_initialize>
    1761:	8b 07                	mov    (%edi),%eax
    1763:	89 78 10             	mov    %edi,0x10(%eax)
    1766:	8d 45 e0             	lea    -0x20(%ebp),%eax
    1769:	89 44 24 04          	mov    %eax,0x4(%esp)
    176d:	c7 04 24 70 49 02 00 	movl   $0x24970,(%esp)
    1774:	89 75 e0             	mov    %esi,-0x20(%ebp)
    1777:	c7 45 e4 00 00 00 00 	movl   $0x0,-0x1c(%ebp)
    177e:	e8 4d 98 01 00       	call   1afd0 <hash_table_find>
    1783:	85 c0                	test   %eax,%eax
    1785:	74 59                	je     17e0 <create_node+0x110>
    1787:	83 f8 0c             	cmp    $0xc,%eax
    178a:	74 54                	je     17e0 <create_node+0x110>
    178c:	8b 40 f4             	mov    -0xc(%eax),%eax
    178f:	85 c0                	test   %eax,%eax
    1791:	74 4d                	je     17e0 <create_node+0x110>
    1793:	83 e3 02             	and    $0x2,%ebx
    1796:	8b 55 08             	mov    0x8(%ebp),%edx
    1799:	83 fb 01             	cmp    $0x1,%ebx
    179c:	c7 04 24 70 49 02 00 	movl   $0x24970,(%esp)
    17a3:	19 c0                	sbb    %eax,%eax
    17a5:	89 57 04             	mov    %edx,0x4(%edi)
    17a8:	83 c0 02             	add    $0x2,%eax
    17ab:	89 77 08             	mov    %esi,0x8(%edi)
    17ae:	89 47 14             	mov    %eax,0x14(%edi)
    17b1:	8d 47 0c             	lea    0xc(%edi),%eax
    17b4:	89 44 24 04          	mov    %eax,0x4(%esp)
    17b8:	e8 e3 95 01 00       	call   1ada0 <hash_table_insert>
    17bd:	8b 1d 8c 49 02 00    	mov    0x2498c,%ebx
    17c3:	8b 55 d4             	mov    -0x2c(%ebp),%edx
    17c6:	8b 07                	mov    (%edi),%eax
    17c8:	43                   	inc    %ebx
    17c9:	89 02                	mov    %eax,(%edx)
    17cb:	89 1d 8c 49 02 00    	mov    %ebx,0x2498c
    17d1:	31 c0                	xor    %eax,%eax
    17d3:	83 c4 3c             	add    $0x3c,%esp
    17d6:	5b                   	pop    %ebx
    17d7:	5e                   	pop    %esi
    17d8:	5f                   	pop    %edi
    17d9:	5d                   	pop    %ebp
    17da:	c3                   	ret    
    17db:	90                   	nop
    17dc:	8d 74 26 00          	lea    0x0(%esi,%eiz,1),%esi
    17e0:	c7 45 08 00 00 00 00 	movl   $0x0,0x8(%ebp)
    17e7:	eb aa                	jmp    1793 <create_node+0xc3>
    17e9:	8d b4 26 00 00 00 00 	lea    0x0(%esi,%eiz,1),%esi
    17f0:	b8 fe ff ff ff       	mov    $0xfffffffe,%eax
    17f5:	eb dc                	jmp    17d3 <create_node+0x103>
    17f7:	89 3c 24             	mov    %edi,(%esp)
    17fa:	e8 31 36 01 00       	call   14e30 <free>
    17ff:	b8 fe ff ff ff       	mov    $0xfffffffe,%eax
    1804:	eb cd                	jmp    17d3 <create_node+0x103>
    1806:	c7 44 24 08 3c 01 00 	movl   $0x13c,0x8(%esp)
    180d:	00 
    180e:	c7 44 24 04 89 1b 02 	movl   $0x21b89,0x4(%esp)
    1815:	00 
    1816:	c7 04 24 d8 1b 02 00 	movl   $0x21bd8,(%esp)
    181d:	e8 de dc 01 00       	call   1f500 <assert_abort>
    1822:	8d b4 26 00 00 00 00 	lea    0x0(%esi,%eiz,1),%esi
    1829:	8d bc 27 00 00 00 00 	lea    0x0(%edi,%eiz,1),%edi

00001830 <cdfs_readdir>:
    1830:	55                   	push   %ebp
    1831:	89 e5                	mov    %esp,%ebp
    1833:	57                   	push   %edi
    1834:	56                   	push   %esi
    1835:	53                   	push   %ebx
    1836:	83 ec 7c             	sub    $0x7c,%esp
    1839:	89 45 ac             	mov    %eax,-0x54(%ebp)
    183c:	89 55 b0             	mov    %edx,-0x50(%ebp)
    183f:	85 d2                	test   %edx,%edx
    1841:	0f 84 98 02 00 00    	je     1adf <cdfs_readdir+0x2af>
    1847:	8b 42 10             	mov    0x10(%edx),%eax
    184a:	89 45 b8             	mov    %eax,-0x48(%ebp)
    184d:	85 c0                	test   %eax,%eax
    184f:	0f 84 8a 02 00 00    	je     1adf <cdfs_readdir+0x2af>
    1855:	80 78 2c 00          	cmpb   $0x0,0x2c(%eax)
    1859:	0f 85 69 02 00 00    	jne    1ac8 <cdfs_readdir+0x298>
    185f:	8b 40 1c             	mov    0x1c(%eax),%eax
    1862:	89 c1                	mov    %eax,%ecx
    1864:	25 ff 07 00 00       	and    $0x7ff,%eax
    1869:	c1 e9 0b             	shr    $0xb,%ecx
    186c:	83 f8 01             	cmp    $0x1,%eax
    186f:	83 d9 ff             	sbb    $0xffffffff,%ecx
    1872:	89 4d a8             	mov    %ecx,-0x58(%ebp)
    1875:	85 c9                	test   %ecx,%ecx
    1877:	0f 84 3c 02 00 00    	je     1ab9 <cdfs_readdir+0x289>
    187d:	c7 45 b4 00 00 00 00 	movl   $0x0,-0x4c(%ebp)
    1884:	8b 55 b8             	mov    -0x48(%ebp),%edx
    1887:	c7 44 24 10 00 00 00 	movl   $0x0,0x10(%esp)
    188e:	00 
    188f:	8b 45 b4             	mov    -0x4c(%ebp),%eax
    1892:	8b 7a 28             	mov    0x28(%edx),%edi
    1895:	8d 55 e0             	lea    -0x20(%ebp),%edx
    1898:	01 f8                	add    %edi,%eax
    189a:	c7 44 24 0c 00 00 00 	movl   $0x0,0xc(%esp)
    18a1:	00 
    18a2:	89 44 24 08          	mov    %eax,0x8(%esp)
    18a6:	8b 45 ac             	mov    -0x54(%ebp),%eax
    18a9:	89 44 24 04          	mov    %eax,0x4(%esp)
    18ad:	89 14 24             	mov    %edx,(%esp)
    18b0:	e8 1b 14 00 00       	call   2cd0 <block_get>
    18b5:	85 c0                	test   %eax,%eax
    18b7:	0f 85 d7 01 00 00    	jne    1a94 <cdfs_readdir+0x264>
    18bd:	8b 45 e0             	mov    -0x20(%ebp),%eax
    18c0:	8b 78 54             	mov    0x54(%eax),%edi
    18c3:	80 3f 00             	cmpb   $0x0,(%edi)
    18c6:	0f 84 d2 01 00 00    	je     1a9e <cdfs_readdir+0x26e>
    18cc:	c7 45 d0 00 00 00 00 	movl   $0x0,-0x30(%ebp)
    18d3:	90                   	nop
    18d4:	8d 74 26 00          	lea    0x0(%esi,%eiz,1),%esi
    18d8:	8b 45 d0             	mov    -0x30(%ebp),%eax
    18db:	8b 55 b8             	mov    -0x48(%ebp),%edx
    18de:	01 c7                	add    %eax,%edi
    18e0:	8b 75 d0             	mov    -0x30(%ebp),%esi
    18e3:	8b 5a 28             	mov    0x28(%edx),%ebx
    18e6:	8b 55 ac             	mov    -0x54(%ebp),%edx
    18e9:	8a 47 19             	mov    0x19(%edi),%al
    18ec:	83 e0 02             	and    $0x2,%eax
    18ef:	3c 01                	cmp    $0x1,%al
    18f1:	8b 45 b4             	mov    -0x4c(%ebp),%eax
    18f4:	19 c9                	sbb    %ecx,%ecx
    18f6:	01 d8                	add    %ebx,%eax
    18f8:	c1 e0 0b             	shl    $0xb,%eax
    18fb:	83 c1 02             	add    $0x2,%ecx
    18fe:	01 f0                	add    %esi,%eax
    1900:	89 4d cc             	mov    %ecx,-0x34(%ebp)
    1903:	89 04 24             	mov    %eax,(%esp)
    1906:	8d 45 e4             	lea    -0x1c(%ebp),%eax
    1909:	e8 c2 fd ff ff       	call   16d0 <create_node>
    190e:	85 c0                	test   %eax,%eax
    1910:	0f 85 7e 01 00 00    	jne    1a94 <cdfs_readdir+0x264>
    1916:	8b 45 e4             	mov    -0x1c(%ebp),%eax
    1919:	85 c0                	test   %eax,%eax
    191b:	0f 84 73 01 00 00    	je     1a94 <cdfs_readdir+0x264>
    1921:	8b 40 10             	mov    0x10(%eax),%eax
    1924:	89 45 c4             	mov    %eax,-0x3c(%ebp)
    1927:	8b 47 02             	mov    0x2(%edi),%eax
    192a:	8b 4d c4             	mov    -0x3c(%ebp),%ecx
    192d:	89 41 28             	mov    %eax,0x28(%ecx)
    1930:	8b 47 0a             	mov    0xa(%edi),%eax
    1933:	89 41 1c             	mov    %eax,0x1c(%ecx)
    1936:	31 c0                	xor    %eax,%eax
    1938:	8a 47 20             	mov    0x20(%edi),%al
    193b:	40                   	inc    %eax
    193c:	89 04 24             	mov    %eax,(%esp)
    193f:	e8 dc 33 01 00       	call   14d20 <malloc>
    1944:	89 c3                	mov    %eax,%ebx
    1946:	85 c0                	test   %eax,%eax
    1948:	0f 84 46 01 00 00    	je     1a94 <cdfs_readdir+0x264>
    194e:	31 c0                	xor    %eax,%eax
    1950:	8a 47 20             	mov    0x20(%edi),%al
    1953:	89 1c 24             	mov    %ebx,(%esp)
    1956:	89 44 24 08          	mov    %eax,0x8(%esp)
    195a:	8d 47 21             	lea    0x21(%edi),%eax
    195d:	89 44 24 04          	mov    %eax,0x4(%esp)
    1961:	e8 7a 67 00 00       	call   80e0 <memcpy>
    1966:	31 c0                	xor    %eax,%eax
    1968:	8a 47 20             	mov    0x20(%edi),%al
    196b:	8b 55 b0             	mov    -0x50(%ebp),%edx
    196e:	c6 04 03 00          	movb   $0x0,(%ebx,%eax,1)
    1972:	8b 45 e4             	mov    -0x1c(%ebp),%eax
    1975:	8b 52 10             	mov    0x10(%edx),%edx
    1978:	85 c0                	test   %eax,%eax
    197a:	89 55 d4             	mov    %edx,-0x2c(%ebp)
    197d:	0f 84 05 01 00 00    	je     1a88 <cdfs_readdir+0x258>
    1983:	8b 40 10             	mov    0x10(%eax),%eax
    1986:	89 45 c0             	mov    %eax,-0x40(%ebp)
    1989:	8b 4d d4             	mov    -0x2c(%ebp),%ecx
    198c:	83 79 14 02          	cmpl   $0x2,0x14(%ecx)
    1990:	0f 85 65 01 00 00    	jne    1afb <cdfs_readdir+0x2cb>
    1996:	89 ca                	mov    %ecx,%edx
    1998:	8b 71 24             	mov    0x24(%ecx),%esi
    199b:	83 c2 20             	add    $0x20,%edx
    199e:	89 55 c8             	mov    %edx,-0x38(%ebp)
    19a1:	39 d6                	cmp    %edx,%esi
    19a3:	74 6e                	je     1a13 <cdfs_readdir+0x1e3>
    19a5:	89 7d bc             	mov    %edi,-0x44(%ebp)
    19a8:	89 f7                	mov    %esi,%edi
    19aa:	8b 75 c8             	mov    -0x38(%ebp),%esi
    19ad:	eb 08                	jmp    19b7 <cdfs_readdir+0x187>
    19af:	90                   	nop
    19b0:	8b 7f 04             	mov    0x4(%edi),%edi
    19b3:	39 f7                	cmp    %esi,%edi
    19b5:	74 59                	je     1a10 <cdfs_readdir+0x1e0>
    19b7:	89 5c 24 04          	mov    %ebx,0x4(%esp)
    19bb:	8b 47 0c             	mov    0xc(%edi),%eax
    19be:	89 04 24             	mov    %eax,(%esp)
    19c1:	e8 5a 7a 00 00       	call   9420 <str_cmp>
    19c6:	85 c0                	test   %eax,%eax
    19c8:	75 e6                	jne    19b0 <cdfs_readdir+0x180>
    19ca:	8b 7d bc             	mov    -0x44(%ebp),%edi
    19cd:	89 1c 24             	mov    %ebx,(%esp)
    19d0:	e8 5b 34 01 00       	call   14e30 <free>
    19d5:	83 7d cc 01          	cmpl   $0x1,-0x34(%ebp)
    19d9:	0f 84 9c 00 00 00    	je     1a7b <cdfs_readdir+0x24b>
    19df:	8a 07                	mov    (%edi),%al
    19e1:	31 d2                	xor    %edx,%edx
    19e3:	88 c2                	mov    %al,%dl
    19e5:	8b 4d d0             	mov    -0x30(%ebp),%ecx
    19e8:	01 d1                	add    %edx,%ecx
    19ea:	84 c0                	test   %al,%al
    19ec:	89 4d d0             	mov    %ecx,-0x30(%ebp)
    19ef:	8b 45 e0             	mov    -0x20(%ebp),%eax
    19f2:	0f 84 a6 00 00 00    	je     1a9e <cdfs_readdir+0x26e>
    19f8:	81 7d d0 ff 07 00 00 	cmpl   $0x7ff,-0x30(%ebp)
    19ff:	0f 87 99 00 00 00    	ja     1a9e <cdfs_readdir+0x26e>
    1a05:	8b 78 54             	mov    0x54(%eax),%edi
    1a08:	e9 cb fe ff ff       	jmp    18d8 <cdfs_readdir+0xa8>
    1a0d:	8d 76 00             	lea    0x0(%esi),%esi
    1a10:	8b 7d bc             	mov    -0x44(%ebp),%edi
    1a13:	c7 04 24 10 00 00 00 	movl   $0x10,(%esp)
    1a1a:	e8 01 33 01 00       	call   14d20 <malloc>
    1a1f:	85 c0                	test   %eax,%eax
    1a21:	74 aa                	je     19cd <cdfs_readdir+0x19d>
    1a23:	89 1c 24             	mov    %ebx,(%esp)
    1a26:	89 45 a4             	mov    %eax,-0x5c(%ebp)
    1a29:	e8 62 94 00 00       	call   ae90 <str_dup>
    1a2e:	8b 55 a4             	mov    -0x5c(%ebp),%edx
    1a31:	85 c0                	test   %eax,%eax
    1a33:	89 42 0c             	mov    %eax,0xc(%edx)
    1a36:	0f 84 96 00 00 00    	je     1ad2 <cdfs_readdir+0x2a2>
    1a3c:	8b 4d c0             	mov    -0x40(%ebp),%ecx
    1a3f:	c7 02 00 00 00 00    	movl   $0x0,(%edx)
    1a45:	8b 71 18             	mov    0x18(%ecx),%esi
    1a48:	8b 41 04             	mov    0x4(%ecx),%eax
    1a4b:	46                   	inc    %esi
    1a4c:	89 42 08             	mov    %eax,0x8(%edx)
    1a4f:	89 71 18             	mov    %esi,0x18(%ecx)
    1a52:	8b 4d c8             	mov    -0x38(%ebp),%ecx
    1a55:	89 4a 04             	mov    %ecx,0x4(%edx)
    1a58:	8b 4d d4             	mov    -0x2c(%ebp),%ecx
    1a5b:	8b 41 20             	mov    0x20(%ecx),%eax
    1a5e:	89 02                	mov    %eax,(%edx)
    1a60:	8b 41 20             	mov    0x20(%ecx),%eax
    1a63:	89 51 20             	mov    %edx,0x20(%ecx)
    1a66:	89 50 04             	mov    %edx,0x4(%eax)
    1a69:	89 1c 24             	mov    %ebx,(%esp)
    1a6c:	e8 bf 33 01 00       	call   14e30 <free>
    1a71:	83 7d cc 01          	cmpl   $0x1,-0x34(%ebp)
    1a75:	0f 85 64 ff ff ff    	jne    19df <cdfs_readdir+0x1af>
    1a7b:	8b 55 c4             	mov    -0x3c(%ebp),%edx
    1a7e:	c6 42 2c 01          	movb   $0x1,0x2c(%edx)
    1a82:	e9 58 ff ff ff       	jmp    19df <cdfs_readdir+0x1af>
    1a87:	90                   	nop
    1a88:	c7 45 c0 00 00 00 00 	movl   $0x0,-0x40(%ebp)
    1a8f:	e9 f5 fe ff ff       	jmp    1989 <cdfs_readdir+0x159>
    1a94:	31 c0                	xor    %eax,%eax
    1a96:	83 c4 7c             	add    $0x7c,%esp
    1a99:	5b                   	pop    %ebx
    1a9a:	5e                   	pop    %esi
    1a9b:	5f                   	pop    %edi
    1a9c:	5d                   	pop    %ebp
    1a9d:	c3                   	ret    
    1a9e:	89 04 24             	mov    %eax,(%esp)
    1aa1:	e8 7a 0f 00 00       	call   2a20 <block_put>
    1aa6:	8b 45 b4             	mov    -0x4c(%ebp),%eax
    1aa9:	40                   	inc    %eax
    1aaa:	8b 4d a8             	mov    -0x58(%ebp),%ecx
    1aad:	89 45 b4             	mov    %eax,-0x4c(%ebp)
    1ab0:	39 4d b4             	cmp    %ecx,-0x4c(%ebp)
    1ab3:	0f 85 cb fd ff ff    	jne    1884 <cdfs_readdir+0x54>
    1ab9:	8b 45 b8             	mov    -0x48(%ebp),%eax
    1abc:	c6 40 2c 01          	movb   $0x1,0x2c(%eax)
    1ac0:	b0 01                	mov    $0x1,%al
    1ac2:	eb d2                	jmp    1a96 <cdfs_readdir+0x266>
    1ac4:	8d 74 26 00          	lea    0x0(%esi,%eiz,1),%esi
    1ac8:	83 c4 7c             	add    $0x7c,%esp
    1acb:	b0 01                	mov    $0x1,%al
    1acd:	5b                   	pop    %ebx
    1ace:	5e                   	pop    %esi
    1acf:	5f                   	pop    %edi
    1ad0:	5d                   	pop    %ebp
    1ad1:	c3                   	ret    
    1ad2:	89 14 24             	mov    %edx,(%esp)
    1ad5:	e8 56 33 01 00       	call   14e30 <free>
    1ada:	e9 ee fe ff ff       	jmp    19cd <cdfs_readdir+0x19d>
    1adf:	c7 44 24 08 8f 01 00 	movl   $0x18f,0x8(%esp)
    1ae6:	00 
    1ae7:	c7 44 24 04 89 1b 02 	movl   $0x21b89,0x4(%esp)
    1aee:	00 
    1aef:	c7 04 24 c2 1b 02 00 	movl   $0x21bc2,(%esp)
    1af6:	e8 05 da 01 00       	call   1f500 <assert_abort>
    1afb:	c7 44 24 08 6c 01 00 	movl   $0x16c,0x8(%esp)
    1b02:	00 
    1b03:	c7 44 24 04 89 1b 02 	movl   $0x21b89,0x4(%esp)
    1b0a:	00 
    1b0b:	c7 04 24 04 1c 02 00 	movl   $0x21c04,(%esp)
    1b12:	e8 e9 d9 01 00       	call   1f500 <assert_abort>
    1b17:	89 f6                	mov    %esi,%esi
    1b19:	8d bc 27 00 00 00 00 	lea    0x0(%edi,%eiz,1),%edi

00001b20 <cdfs_read>:
    1b20:	55                   	push   %ebp
    1b21:	89 e5                	mov    %esp,%ebp
    1b23:	57                   	push   %edi
    1b24:	56                   	push   %esi
    1b25:	53                   	push   %ebx
    1b26:	83 ec 5c             	sub    $0x5c,%esp
    1b29:	8b 45 08             	mov    0x8(%ebp),%eax
    1b2c:	8b 75 10             	mov    0x10(%ebp),%esi
    1b2f:	89 45 e0             	mov    %eax,-0x20(%ebp)
    1b32:	8b 45 0c             	mov    0xc(%ebp),%eax
    1b35:	89 45 e4             	mov    %eax,-0x1c(%ebp)
    1b38:	8d 45 e0             	lea    -0x20(%ebp),%eax
    1b3b:	89 44 24 04          	mov    %eax,0x4(%esp)
    1b3f:	c7 04 24 70 49 02 00 	movl   $0x24970,(%esp)
    1b46:	8b 7d 14             	mov    0x14(%ebp),%edi
    1b49:	e8 82 94 01 00       	call   1afd0 <hash_table_find>
    1b4e:	85 c0                	test   %eax,%eax
    1b50:	0f 84 05 02 00 00    	je     1d5b <cdfs_read+0x23b>
    1b56:	8d 48 f4             	lea    -0xc(%eax),%ecx
    1b59:	80 79 2c 00          	cmpb   $0x0,0x2c(%ecx)
    1b5d:	75 1c                	jne    1b7b <cdfs_read+0x5b>
    1b5f:	8b 50 f4             	mov    -0xc(%eax),%edx
    1b62:	8b 45 08             	mov    0x8(%ebp),%eax
    1b65:	89 4d c0             	mov    %ecx,-0x40(%ebp)
    1b68:	e8 c3 fc ff ff       	call   1830 <cdfs_readdir>
    1b6d:	88 c2                	mov    %al,%dl
    1b6f:	8b 4d c0             	mov    -0x40(%ebp),%ecx
    1b72:	b8 01 00 00 00       	mov    $0x1,%eax
    1b77:	84 d2                	test   %dl,%dl
    1b79:	75 65                	jne    1be0 <cdfs_read+0xc0>
    1b7b:	8d 45 d8             	lea    -0x28(%ebp),%eax
    1b7e:	89 4d c0             	mov    %ecx,-0x40(%ebp)
    1b81:	89 44 24 04          	mov    %eax,0x4(%esp)
    1b85:	8d 45 d4             	lea    -0x2c(%ebp),%eax
    1b88:	89 04 24             	mov    %eax,(%esp)
    1b8b:	e8 40 72 01 00       	call   18dd0 <async_data_read_receive>
    1b90:	8b 4d c0             	mov    -0x40(%ebp),%ecx
    1b93:	84 c0                	test   %al,%al
    1b95:	0f 84 a3 01 00 00    	je     1d3e <cdfs_read+0x21e>
    1b9b:	83 79 14 01          	cmpl   $0x1,0x14(%ecx)
    1b9f:	0f 84 83 00 00 00    	je     1c28 <cdfs_read+0x108>
    1ba5:	8b 59 24             	mov    0x24(%ecx),%ebx
    1ba8:	83 c1 20             	add    $0x20,%ecx
    1bab:	39 cb                	cmp    %ecx,%ebx
    1bad:	74 15                	je     1bc4 <cdfs_read+0xa4>
    1baf:	85 f6                	test   %esi,%esi
    1bb1:	74 35                	je     1be8 <cdfs_read+0xc8>
    1bb3:	31 c0                	xor    %eax,%eax
    1bb5:	eb 05                	jmp    1bbc <cdfs_read+0x9c>
    1bb7:	90                   	nop
    1bb8:	39 c6                	cmp    %eax,%esi
    1bba:	74 2c                	je     1be8 <cdfs_read+0xc8>
    1bbc:	8b 5b 04             	mov    0x4(%ebx),%ebx
    1bbf:	40                   	inc    %eax
    1bc0:	39 cb                	cmp    %ecx,%ebx
    1bc2:	75 f4                	jne    1bb8 <cdfs_read+0x98>
    1bc4:	8b 45 d4             	mov    -0x2c(%ebp),%eax
    1bc7:	c7 44 24 04 ff ff ff 	movl   $0xffffffff,0x4(%esp)
    1bce:	ff 
    1bcf:	89 04 24             	mov    %eax,(%esp)
    1bd2:	e8 89 5c 01 00       	call   17860 <async_answer_0>
    1bd7:	83 c8 ff             	or     $0xffffffff,%eax
    1bda:	8d b6 00 00 00 00    	lea    0x0(%esi),%esi
    1be0:	83 c4 5c             	add    $0x5c,%esp
    1be3:	5b                   	pop    %ebx
    1be4:	5e                   	pop    %esi
    1be5:	5f                   	pop    %edi
    1be6:	5d                   	pop    %ebp
    1be7:	c3                   	ret    
    1be8:	85 db                	test   %ebx,%ebx
    1bea:	74 d8                	je     1bc4 <cdfs_read+0xa4>
    1bec:	8b 45 18             	mov    0x18(%ebp),%eax
    1bef:	c7 00 01 00 00 00    	movl   $0x1,(%eax)
    1bf5:	8b 43 0c             	mov    0xc(%ebx),%eax
    1bf8:	89 04 24             	mov    %eax,(%esp)
    1bfb:	e8 f0 72 00 00       	call   8ef0 <str_size>
    1c00:	40                   	inc    %eax
    1c01:	89 44 24 08          	mov    %eax,0x8(%esp)
    1c05:	8b 43 0c             	mov    0xc(%ebx),%eax
    1c08:	89 44 24 04          	mov    %eax,0x4(%esp)
    1c0c:	8b 45 d4             	mov    -0x2c(%ebp),%eax
    1c0f:	89 04 24             	mov    %eax,(%esp)
    1c12:	e8 19 72 01 00       	call   18e30 <async_data_read_finalize>
    1c17:	83 c4 5c             	add    $0x5c,%esp
    1c1a:	31 c0                	xor    %eax,%eax
    1c1c:	5b                   	pop    %ebx
    1c1d:	5e                   	pop    %esi
    1c1e:	5f                   	pop    %edi
    1c1f:	5d                   	pop    %ebp
    1c20:	c3                   	ret    
    1c21:	8d b4 26 00 00 00 00 	lea    0x0(%esi,%eiz,1),%esi
    1c28:	31 d2                	xor    %edx,%edx
    1c2a:	8b 41 1c             	mov    0x1c(%ecx),%eax
    1c2d:	39 fa                	cmp    %edi,%edx
    1c2f:	77 0e                	ja     1c3f <cdfs_read+0x11f>
    1c31:	0f 82 91 00 00 00    	jb     1cc8 <cdfs_read+0x1a8>
    1c37:	39 f0                	cmp    %esi,%eax
    1c39:	0f 86 89 00 00 00    	jbe    1cc8 <cdfs_read+0x1a8>
    1c3f:	89 f2                	mov    %esi,%edx
    1c41:	bb 00 08 00 00       	mov    $0x800,%ebx
    1c46:	81 e2 ff 07 00 00    	and    $0x7ff,%edx
    1c4c:	89 55 c4             	mov    %edx,-0x3c(%ebp)
    1c4f:	8b 55 d8             	mov    -0x28(%ebp),%edx
    1c52:	8b 45 c4             	mov    -0x3c(%ebp),%eax
    1c55:	29 c3                	sub    %eax,%ebx
    1c57:	39 d3                	cmp    %edx,%ebx
    1c59:	76 02                	jbe    1c5d <cdfs_read+0x13d>
    1c5b:	89 d3                	mov    %edx,%ebx
    1c5d:	8b 45 18             	mov    0x18(%ebp),%eax
    1c60:	31 d2                	xor    %edx,%edx
    1c62:	89 18                	mov    %ebx,(%eax)
    1c64:	8b 41 1c             	mov    0x1c(%ecx),%eax
    1c67:	29 f0                	sub    %esi,%eax
    1c69:	19 fa                	sbb    %edi,%edx
    1c6b:	85 d2                	test   %edx,%edx
    1c6d:	75 08                	jne    1c77 <cdfs_read+0x157>
    1c6f:	39 c3                	cmp    %eax,%ebx
    1c71:	0f 87 c0 00 00 00    	ja     1d37 <cdfs_read+0x217>
    1c77:	8b 55 18             	mov    0x18(%ebp),%edx
    1c7a:	8b 45 08             	mov    0x8(%ebp),%eax
    1c7d:	0f ac fe 0b          	shrd   $0xb,%edi,%esi
    1c81:	89 1a                	mov    %ebx,(%edx)
    1c83:	c7 44 24 10 00 00 00 	movl   $0x0,0x10(%esp)
    1c8a:	00 
    1c8b:	8b 59 28             	mov    0x28(%ecx),%ebx
    1c8e:	89 44 24 04          	mov    %eax,0x4(%esp)
    1c92:	01 de                	add    %ebx,%esi
    1c94:	8d 45 dc             	lea    -0x24(%ebp),%eax
    1c97:	89 74 24 08          	mov    %esi,0x8(%esp)
    1c9b:	c7 44 24 0c 00 00 00 	movl   $0x0,0xc(%esp)
    1ca2:	00 
    1ca3:	89 04 24             	mov    %eax,(%esp)
    1ca6:	e8 25 10 00 00       	call   2cd0 <block_get>
    1cab:	89 c3                	mov    %eax,%ebx
    1cad:	85 c0                	test   %eax,%eax
    1caf:	74 47                	je     1cf8 <cdfs_read+0x1d8>
    1cb1:	89 44 24 04          	mov    %eax,0x4(%esp)
    1cb5:	8b 45 d4             	mov    -0x2c(%ebp),%eax
    1cb8:	89 04 24             	mov    %eax,(%esp)
    1cbb:	e8 a0 5b 01 00       	call   17860 <async_answer_0>
    1cc0:	89 d8                	mov    %ebx,%eax
    1cc2:	e9 19 ff ff ff       	jmp    1be0 <cdfs_read+0xc0>
    1cc7:	90                   	nop
    1cc8:	8b 55 18             	mov    0x18(%ebp),%edx
    1ccb:	8b 45 d4             	mov    -0x2c(%ebp),%eax
    1cce:	c7 02 00 00 00 00    	movl   $0x0,(%edx)
    1cd4:	c7 44 24 08 00 00 00 	movl   $0x0,0x8(%esp)
    1cdb:	00 
    1cdc:	c7 44 24 04 00 00 00 	movl   $0x0,0x4(%esp)
    1ce3:	00 
    1ce4:	89 04 24             	mov    %eax,(%esp)
    1ce7:	e8 44 71 01 00       	call   18e30 <async_data_read_finalize>
    1cec:	31 c0                	xor    %eax,%eax
    1cee:	e9 ed fe ff ff       	jmp    1be0 <cdfs_read+0xc0>
    1cf3:	90                   	nop
    1cf4:	8d 74 26 00          	lea    0x0(%esi,%eiz,1),%esi
    1cf8:	8b 55 18             	mov    0x18(%ebp),%edx
    1cfb:	8b 02                	mov    (%edx),%eax
    1cfd:	8b 55 c4             	mov    -0x3c(%ebp),%edx
    1d00:	89 44 24 08          	mov    %eax,0x8(%esp)
    1d04:	8b 45 dc             	mov    -0x24(%ebp),%eax
    1d07:	8b 40 54             	mov    0x54(%eax),%eax
    1d0a:	01 d0                	add    %edx,%eax
    1d0c:	89 44 24 04          	mov    %eax,0x4(%esp)
    1d10:	8b 45 d4             	mov    -0x2c(%ebp),%eax
    1d13:	89 04 24             	mov    %eax,(%esp)
    1d16:	e8 15 71 01 00       	call   18e30 <async_data_read_finalize>
    1d1b:	8b 45 dc             	mov    -0x24(%ebp),%eax
    1d1e:	89 04 24             	mov    %eax,(%esp)
    1d21:	e8 fa 0c 00 00       	call   2a20 <block_put>
    1d26:	89 c3                	mov    %eax,%ebx
    1d28:	85 c0                	test   %eax,%eax
    1d2a:	0f 84 e7 fe ff ff    	je     1c17 <cdfs_read+0xf7>
    1d30:	89 d8                	mov    %ebx,%eax
    1d32:	e9 a9 fe ff ff       	jmp    1be0 <cdfs_read+0xc0>
    1d37:	89 c3                	mov    %eax,%ebx
    1d39:	e9 39 ff ff ff       	jmp    1c77 <cdfs_read+0x157>
    1d3e:	8b 45 d4             	mov    -0x2c(%ebp),%eax
    1d41:	c7 44 24 04 f2 ff ff 	movl   $0xfffffff2,0x4(%esp)
    1d48:	ff 
    1d49:	89 04 24             	mov    %eax,(%esp)
    1d4c:	e8 0f 5b 01 00       	call   17860 <async_answer_0>
    1d51:	b8 f2 ff ff ff       	mov    $0xfffffff2,%eax
    1d56:	e9 85 fe ff ff       	jmp    1be0 <cdfs_read+0xc0>
    1d5b:	83 c8 ff             	or     $0xffffffff,%eax
    1d5e:	e9 7d fe ff ff       	jmp    1be0 <cdfs_read+0xc0>
    1d63:	8d b6 00 00 00 00    	lea    0x0(%esi),%esi
    1d69:	8d bc 27 00 00 00 00 	lea    0x0(%edi,%eiz,1),%edi

00001d70 <cdfs_has_children>:
    1d70:	55                   	push   %ebp
    1d71:	89 e5                	mov    %esp,%ebp
    1d73:	53                   	push   %ebx
    1d74:	51                   	push   %ecx
    1d75:	8b 55 0c             	mov    0xc(%ebp),%edx
    1d78:	85 d2                	test   %edx,%edx
    1d7a:	74 2c                	je     1da8 <cdfs_has_children+0x38>
    1d7c:	8b 5a 10             	mov    0x10(%edx),%ebx
    1d7f:	83 7b 14 02          	cmpl   $0x2,0x14(%ebx)
    1d83:	74 13                	je     1d98 <cdfs_has_children+0x28>
    1d85:	8d 43 20             	lea    0x20(%ebx),%eax
    1d88:	39 43 24             	cmp    %eax,0x24(%ebx)
    1d8b:	8b 45 08             	mov    0x8(%ebp),%eax
    1d8e:	0f 95 00             	setne  (%eax)
    1d91:	31 c0                	xor    %eax,%eax
    1d93:	5a                   	pop    %edx
    1d94:	5b                   	pop    %ebx
    1d95:	5d                   	pop    %ebp
    1d96:	c3                   	ret    
    1d97:	90                   	nop
    1d98:	80 7b 2c 00          	cmpb   $0x0,0x2c(%ebx)
    1d9c:	75 e7                	jne    1d85 <cdfs_has_children+0x15>
    1d9e:	8b 43 08             	mov    0x8(%ebx),%eax
    1da1:	e8 8a fa ff ff       	call   1830 <cdfs_readdir>
    1da6:	eb dd                	jmp    1d85 <cdfs_has_children+0x15>
    1da8:	31 db                	xor    %ebx,%ebx
    1daa:	eb d3                	jmp    1d7f <cdfs_has_children+0xf>
    1dac:	8d 74 26 00          	lea    0x0(%esi,%eiz,1),%esi

00001db0 <cdfs_node_open>:
    1db0:	55                   	push   %ebp
    1db1:	89 e5                	mov    %esp,%ebp
    1db3:	53                   	push   %ebx
    1db4:	51                   	push   %ecx
    1db5:	8b 55 08             	mov    0x8(%ebp),%edx
    1db8:	85 d2                	test   %edx,%edx
    1dba:	74 24                	je     1de0 <cdfs_node_open+0x30>
    1dbc:	8b 5a 10             	mov    0x10(%edx),%ebx
    1dbf:	80 7b 2c 00          	cmpb   $0x0,0x2c(%ebx)
    1dc3:	75 08                	jne    1dcd <cdfs_node_open+0x1d>
    1dc5:	8b 43 08             	mov    0x8(%ebx),%eax
    1dc8:	e8 63 fa ff ff       	call   1830 <cdfs_readdir>
    1dcd:	8b 43 30             	mov    0x30(%ebx),%eax
    1dd0:	40                   	inc    %eax
    1dd1:	89 43 30             	mov    %eax,0x30(%ebx)
    1dd4:	31 c0                	xor    %eax,%eax
    1dd6:	5a                   	pop    %edx
    1dd7:	5b                   	pop    %ebx
    1dd8:	5d                   	pop    %ebp
    1dd9:	c3                   	ret    
    1dda:	8d b6 00 00 00 00    	lea    0x0(%esi),%esi
    1de0:	31 db                	xor    %ebx,%ebx
    1de2:	eb db                	jmp    1dbf <cdfs_node_open+0xf>
    1de4:	8d b6 00 00 00 00    	lea    0x0(%esi),%esi
    1dea:	8d bf 00 00 00 00    	lea    0x0(%edi),%edi

00001df0 <cdfs_match>:
    1df0:	55                   	push   %ebp
    1df1:	89 e5                	mov    %esp,%ebp
    1df3:	57                   	push   %edi
    1df4:	56                   	push   %esi
    1df5:	53                   	push   %ebx
    1df6:	83 ec 4c             	sub    $0x4c,%esp
    1df9:	8b 55 0c             	mov    0xc(%ebp),%edx
    1dfc:	8b 75 10             	mov    0x10(%ebp),%esi
    1dff:	85 d2                	test   %edx,%edx
    1e01:	0f 84 b1 00 00 00    	je     1eb8 <cdfs_match+0xc8>
    1e07:	8b 4a 10             	mov    0x10(%edx),%ecx
    1e0a:	89 4d d4             	mov    %ecx,-0x2c(%ebp)
    1e0d:	80 79 2c 00          	cmpb   $0x0,0x2c(%ecx)
    1e11:	0f 84 81 00 00 00    	je     1e98 <cdfs_match+0xa8>
    1e17:	8b 4d d4             	mov    -0x2c(%ebp),%ecx
    1e1a:	89 cb                	mov    %ecx,%ebx
    1e1c:	8b 79 24             	mov    0x24(%ecx),%edi
    1e1f:	83 c3 20             	add    $0x20,%ebx
    1e22:	39 df                	cmp    %ebx,%edi
    1e24:	75 09                	jne    1e2f <cdfs_match+0x3f>
    1e26:	eb 58                	jmp    1e80 <cdfs_match+0x90>
    1e28:	8b 7f 04             	mov    0x4(%edi),%edi
    1e2b:	39 df                	cmp    %ebx,%edi
    1e2d:	74 51                	je     1e80 <cdfs_match+0x90>
    1e2f:	89 74 24 04          	mov    %esi,0x4(%esp)
    1e33:	8b 47 0c             	mov    0xc(%edi),%eax
    1e36:	89 04 24             	mov    %eax,(%esp)
    1e39:	e8 e2 75 00 00       	call   9420 <str_cmp>
    1e3e:	85 c0                	test   %eax,%eax
    1e40:	75 e6                	jne    1e28 <cdfs_match+0x38>
    1e42:	8b 4d d4             	mov    -0x2c(%ebp),%ecx
    1e45:	8d 45 e0             	lea    -0x20(%ebp),%eax
    1e48:	8b 5f 08             	mov    0x8(%edi),%ebx
    1e4b:	8b 71 08             	mov    0x8(%ecx),%esi
    1e4e:	89 44 24 04          	mov    %eax,0x4(%esp)
    1e52:	c7 04 24 70 49 02 00 	movl   $0x24970,(%esp)
    1e59:	89 75 e0             	mov    %esi,-0x20(%ebp)
    1e5c:	89 5d e4             	mov    %ebx,-0x1c(%ebp)
    1e5f:	e8 6c 91 01 00       	call   1afd0 <hash_table_find>
    1e64:	85 c0                	test   %eax,%eax
    1e66:	74 63                	je     1ecb <cdfs_match+0xdb>
    1e68:	83 f8 0c             	cmp    $0xc,%eax
    1e6b:	74 5a                	je     1ec7 <cdfs_match+0xd7>
    1e6d:	8b 40 f4             	mov    -0xc(%eax),%eax
    1e70:	8b 55 08             	mov    0x8(%ebp),%edx
    1e73:	89 02                	mov    %eax,(%edx)
    1e75:	83 c4 4c             	add    $0x4c,%esp
    1e78:	31 c0                	xor    %eax,%eax
    1e7a:	5b                   	pop    %ebx
    1e7b:	5e                   	pop    %esi
    1e7c:	5f                   	pop    %edi
    1e7d:	5d                   	pop    %ebp
    1e7e:	c3                   	ret    
    1e7f:	90                   	nop
    1e80:	8b 45 08             	mov    0x8(%ebp),%eax
    1e83:	c7 00 00 00 00 00    	movl   $0x0,(%eax)
    1e89:	83 c4 4c             	add    $0x4c,%esp
    1e8c:	31 c0                	xor    %eax,%eax
    1e8e:	5b                   	pop    %ebx
    1e8f:	5e                   	pop    %esi
    1e90:	5f                   	pop    %edi
    1e91:	5d                   	pop    %ebp
    1e92:	c3                   	ret    
    1e93:	90                   	nop
    1e94:	8d 74 26 00          	lea    0x0(%esi,%eiz,1),%esi
    1e98:	8b 41 08             	mov    0x8(%ecx),%eax
    1e9b:	e8 90 f9 ff ff       	call   1830 <cdfs_readdir>
    1ea0:	88 c2                	mov    %al,%dl
    1ea2:	b8 01 00 00 00       	mov    $0x1,%eax
    1ea7:	84 d2                	test   %dl,%dl
    1ea9:	0f 84 68 ff ff ff    	je     1e17 <cdfs_match+0x27>
    1eaf:	83 c4 4c             	add    $0x4c,%esp
    1eb2:	5b                   	pop    %ebx
    1eb3:	5e                   	pop    %esi
    1eb4:	5f                   	pop    %edi
    1eb5:	5d                   	pop    %ebp
    1eb6:	c3                   	ret    
    1eb7:	90                   	nop
    1eb8:	c7 45 d4 00 00 00 00 	movl   $0x0,-0x2c(%ebp)
    1ebf:	8b 4d d4             	mov    -0x2c(%ebp),%ecx
    1ec2:	e9 46 ff ff ff       	jmp    1e0d <cdfs_match+0x1d>
    1ec7:	31 c0                	xor    %eax,%eax
    1ec9:	eb a5                	jmp    1e70 <cdfs_match+0x80>
    1ecb:	89 d8                	mov    %ebx,%eax
    1ecd:	c7 44 24 10 00 00 00 	movl   $0x0,0x10(%esp)
    1ed4:	00 
    1ed5:	c1 e8 0b             	shr    $0xb,%eax
    1ed8:	c7 44 24 0c 00 00 00 	movl   $0x0,0xc(%esp)
    1edf:	00 
    1ee0:	89 44 24 08          	mov    %eax,0x8(%esp)
    1ee4:	8d 45 d8             	lea    -0x28(%ebp),%eax
    1ee7:	89 74 24 04          	mov    %esi,0x4(%esp)
    1eeb:	89 04 24             	mov    %eax,(%esp)
    1eee:	e8 dd 0d 00 00       	call   2cd0 <block_get>
    1ef3:	89 df                	mov    %ebx,%edi
    1ef5:	81 e7 ff 07 00 00    	and    $0x7ff,%edi
    1efb:	85 c0                	test   %eax,%eax
    1efd:	75 c8                	jne    1ec7 <cdfs_match+0xd7>
    1eff:	8b 45 d8             	mov    -0x28(%ebp),%eax
    1f02:	8b 50 54             	mov    0x54(%eax),%edx
    1f05:	01 d7                	add    %edx,%edi
    1f07:	89 f2                	mov    %esi,%edx
    1f09:	8a 47 19             	mov    0x19(%edi),%al
    1f0c:	89 1c 24             	mov    %ebx,(%esp)
    1f0f:	83 e0 02             	and    $0x2,%eax
    1f12:	3c 01                	cmp    $0x1,%al
    1f14:	8d 45 dc             	lea    -0x24(%ebp),%eax
    1f17:	19 c9                	sbb    %ecx,%ecx
    1f19:	83 c1 02             	add    $0x2,%ecx
    1f1c:	89 4d d4             	mov    %ecx,-0x2c(%ebp)
    1f1f:	e8 ac f7 ff ff       	call   16d0 <create_node>
    1f24:	85 c0                	test   %eax,%eax
    1f26:	75 9f                	jne    1ec7 <cdfs_match+0xd7>
    1f28:	8b 45 dc             	mov    -0x24(%ebp),%eax
    1f2b:	85 c0                	test   %eax,%eax
    1f2d:	74 98                	je     1ec7 <cdfs_match+0xd7>
    1f2f:	8b 40 10             	mov    0x10(%eax),%eax
    1f32:	8b 57 02             	mov    0x2(%edi),%edx
    1f35:	83 7d d4 01          	cmpl   $0x1,-0x2c(%ebp)
    1f39:	89 50 28             	mov    %edx,0x28(%eax)
    1f3c:	8b 57 0a             	mov    0xa(%edi),%edx
    1f3f:	c7 40 18 01 00 00 00 	movl   $0x1,0x18(%eax)
    1f46:	89 50 1c             	mov    %edx,0x1c(%eax)
    1f49:	74 13                	je     1f5e <cdfs_match+0x16e>
    1f4b:	8b 45 d8             	mov    -0x28(%ebp),%eax
    1f4e:	89 04 24             	mov    %eax,(%esp)
    1f51:	e8 ca 0a 00 00       	call   2a20 <block_put>
    1f56:	8b 45 dc             	mov    -0x24(%ebp),%eax
    1f59:	e9 12 ff ff ff       	jmp    1e70 <cdfs_match+0x80>
    1f5e:	c6 40 2c 01          	movb   $0x1,0x2c(%eax)
    1f62:	eb e7                	jmp    1f4b <cdfs_match+0x15b>
    1f64:	8d b6 00 00 00 00    	lea    0x0(%esi),%esi
    1f6a:	8d bf 00 00 00 00    	lea    0x0(%edi),%edi

00001f70 <cdfs_mounted>:
    1f70:	55                   	push   %ebp
    1f71:	89 e5                	mov    %esp,%ebp
    1f73:	57                   	push   %edi
    1f74:	56                   	push   %esi
    1f75:	53                   	push   %ebx
    1f76:	83 ec 5c             	sub    $0x5c,%esp
    1f79:	8b 75 08             	mov    0x8(%ebp),%esi
    1f7c:	c7 44 24 08 00 08 00 	movl   $0x800,0x8(%esp)
    1f83:	00 
    1f84:	89 74 24 04          	mov    %esi,0x4(%esp)
    1f88:	c7 04 24 02 00 00 00 	movl   $0x2,(%esp)
    1f8f:	e8 5c 03 00 00       	call   22f0 <block_init>
    1f94:	89 c3                	mov    %eax,%ebx
    1f96:	85 c0                	test   %eax,%eax
    1f98:	74 0e                	je     1fa8 <cdfs_mounted+0x38>
    1f9a:	83 c4 5c             	add    $0x5c,%esp
    1f9d:	89 d8                	mov    %ebx,%eax
    1f9f:	5b                   	pop    %ebx
    1fa0:	5e                   	pop    %esi
    1fa1:	5f                   	pop    %edi
    1fa2:	5d                   	pop    %ebp
    1fa3:	c3                   	ret    
    1fa4:	8d 74 26 00          	lea    0x0(%esi,%eiz,1),%esi
    1fa8:	8b 45 0c             	mov    0xc(%ebp),%eax
    1fab:	c7 44 24 08 08 00 00 	movl   $0x8,0x8(%esp)
    1fb2:	00 
    1fb3:	c7 44 24 04 c7 1b 02 	movl   $0x21bc7,0x4(%esp)
    1fba:	00 
    1fbb:	89 04 24             	mov    %eax,(%esp)
    1fbe:	c7 45 d4 00 00 00 00 	movl   $0x0,-0x2c(%ebp)
    1fc5:	e8 86 76 00 00       	call   9650 <str_lcmp>
    1fca:	85 c0                	test   %eax,%eax
    1fcc:	0f 84 2e 01 00 00    	je     2100 <cdfs_mounted+0x190>
    1fd2:	c7 44 24 04 01 00 00 	movl   $0x1,0x4(%esp)
    1fd9:	00 
    1fda:	89 34 24             	mov    %esi,(%esp)
    1fdd:	e8 4e 19 00 00       	call   3930 <block_get_toc>
    1fe2:	85 c0                	test   %eax,%eax
    1fe4:	74 0b                	je     1ff1 <cdfs_mounted+0x81>
    1fe6:	66 81 38 00 0a       	cmpw   $0xa00,(%eax)
    1feb:	0f 84 a7 01 00 00    	je     2198 <cdfs_mounted+0x228>
    1ff1:	c7 44 24 0c 00 00 00 	movl   $0x0,0xc(%esp)
    1ff8:	00 
    1ff9:	c7 44 24 08 00 00 00 	movl   $0x0,0x8(%esp)
    2000:	00 
    2001:	c7 44 24 04 00 08 00 	movl   $0x800,0x4(%esp)
    2008:	00 
    2009:	89 34 24             	mov    %esi,(%esp)
    200c:	e8 1f 06 00 00       	call   2630 <block_cache_init>
    2011:	89 c3                	mov    %eax,%ebx
    2013:	85 c0                	test   %eax,%eax
    2015:	0f 85 2d 01 00 00    	jne    2148 <cdfs_mounted+0x1d8>
    201b:	8d 7d e0             	lea    -0x20(%ebp),%edi
    201e:	c7 04 24 70 49 02 00 	movl   $0x24970,(%esp)
    2025:	89 7c 24 04          	mov    %edi,0x4(%esp)
    2029:	89 75 e0             	mov    %esi,-0x20(%ebp)
    202c:	c7 45 e4 00 00 00 00 	movl   $0x0,-0x1c(%ebp)
    2033:	e8 98 8f 01 00       	call   1afd0 <hash_table_find>
    2038:	85 c0                	test   %eax,%eax
    203a:	74 10                	je     204c <cdfs_mounted+0xdc>
    203c:	83 f8 0c             	cmp    $0xc,%eax
    203f:	74 0b                	je     204c <cdfs_mounted+0xdc>
    2041:	8b 48 f4             	mov    -0xc(%eax),%ecx
    2044:	85 c9                	test   %ecx,%ecx
    2046:	0f 85 64 01 00 00    	jne    21b0 <cdfs_mounted+0x240>
    204c:	a1 14 47 02 00       	mov    0x24714,%eax
    2051:	8b 4d d4             	mov    -0x2c(%ebp),%ecx
    2054:	89 4d c4             	mov    %ecx,-0x3c(%ebp)
    2057:	89 04 24             	mov    %eax,(%esp)
    205a:	8d 50 01             	lea    0x1(%eax),%edx
    205d:	b9 02 00 00 00       	mov    $0x2,%ecx
    2062:	89 15 14 47 02 00    	mov    %edx,0x24714
    2068:	8d 45 d8             	lea    -0x28(%ebp),%eax
    206b:	89 f2                	mov    %esi,%edx
    206d:	e8 5e f6 ff ff       	call   16d0 <create_node>
    2072:	85 c0                	test   %eax,%eax
    2074:	75 66                	jne    20dc <cdfs_mounted+0x16c>
    2076:	8b 55 d8             	mov    -0x28(%ebp),%edx
    2079:	85 d2                	test   %edx,%edx
    207b:	74 5f                	je     20dc <cdfs_mounted+0x16c>
    207d:	8b 42 10             	mov    0x10(%edx),%eax
    2080:	c7 40 18 00 00 00 00 	movl   $0x0,0x18(%eax)
    2087:	c7 40 28 00 00 00 00 	movl   $0x0,0x28(%eax)
    208e:	c6 40 2c 00          	movb   $0x0,0x2c(%eax)
    2092:	8b 45 c4             	mov    -0x3c(%ebp),%eax
    2095:	83 c0 10             	add    $0x10,%eax
    2098:	c7 44 24 10 00 00 00 	movl   $0x0,0x10(%esp)
    209f:	00 
    20a0:	89 44 24 08          	mov    %eax,0x8(%esp)
    20a4:	8d 45 dc             	lea    -0x24(%ebp),%eax
    20a7:	c7 44 24 0c 00 00 00 	movl   $0x0,0xc(%esp)
    20ae:	00 
    20af:	89 74 24 04          	mov    %esi,0x4(%esp)
    20b3:	89 04 24             	mov    %eax,(%esp)
    20b6:	89 55 c0             	mov    %edx,-0x40(%ebp)
    20b9:	e8 12 0c 00 00       	call   2cd0 <block_get>
    20be:	85 c0                	test   %eax,%eax
    20c0:	75 1a                	jne    20dc <cdfs_mounted+0x16c>
    20c2:	8b 45 dc             	mov    -0x24(%ebp),%eax
    20c5:	8b 48 54             	mov    0x54(%eax),%ecx
    20c8:	89 4d c4             	mov    %ecx,-0x3c(%ebp)
    20cb:	80 39 01             	cmpb   $0x1,(%ecx)
    20ce:	0f 84 8c 00 00 00    	je     2160 <cdfs_mounted+0x1f0>
    20d4:	89 04 24             	mov    %eax,(%esp)
    20d7:	e8 44 09 00 00       	call   2a20 <block_put>
    20dc:	89 34 24             	mov    %esi,(%esp)
    20df:	bb fe ff ff ff       	mov    $0xfffffffe,%ebx
    20e4:	e8 77 06 00 00       	call   2760 <block_cache_fini>
    20e9:	89 34 24             	mov    %esi,(%esp)
    20ec:	e8 2f 08 00 00       	call   2920 <block_fini>
    20f1:	83 c4 5c             	add    $0x5c,%esp
    20f4:	89 d8                	mov    %ebx,%eax
    20f6:	5b                   	pop    %ebx
    20f7:	5e                   	pop    %esi
    20f8:	5f                   	pop    %edi
    20f9:	5d                   	pop    %ebp
    20fa:	c3                   	ret    
    20fb:	90                   	nop
    20fc:	8d 74 26 00          	lea    0x0(%esi,%eiz,1),%esi
    2100:	8d 45 d4             	lea    -0x2c(%ebp),%eax
    2103:	c7 44 24 0c 00 00 00 	movl   $0x0,0xc(%esp)
    210a:	00 
    210b:	89 44 24 10          	mov    %eax,0x10(%esp)
    210f:	8b 45 0c             	mov    0xc(%ebp),%eax
    2112:	83 c0 08             	add    $0x8,%eax
    2115:	c7 44 24 08 00 00 00 	movl   $0x0,0x8(%esp)
    211c:	00 
    211d:	c7 44 24 04 00 00 00 	movl   $0x0,0x4(%esp)
    2124:	00 
    2125:	89 04 24             	mov    %eax,(%esp)
    2128:	e8 13 92 00 00       	call   b340 <str_uint32_t>
    212d:	85 c0                	test   %eax,%eax
    212f:	0f 84 bc fe ff ff    	je     1ff1 <cdfs_mounted+0x81>
    2135:	c7 45 d4 00 00 00 00 	movl   $0x0,-0x2c(%ebp)
    213c:	e9 b0 fe ff ff       	jmp    1ff1 <cdfs_mounted+0x81>
    2141:	8d b4 26 00 00 00 00 	lea    0x0(%esi,%eiz,1),%esi
    2148:	89 34 24             	mov    %esi,(%esp)
    214b:	e8 d0 07 00 00       	call   2920 <block_fini>
    2150:	83 c4 5c             	add    $0x5c,%esp
    2153:	89 d8                	mov    %ebx,%eax
    2155:	5b                   	pop    %ebx
    2156:	5e                   	pop    %esi
    2157:	5f                   	pop    %edi
    2158:	5d                   	pop    %ebp
    2159:	c3                   	ret    
    215a:	8d b6 00 00 00 00    	lea    0x0(%esi),%esi
    2160:	89 c8                	mov    %ecx,%eax
    2162:	c7 44 24 08 05 00 00 	movl   $0x5,0x8(%esp)
    2169:	00 
    216a:	40                   	inc    %eax
    216b:	c7 44 24 04 d0 1b 02 	movl   $0x21bd0,0x4(%esp)
    2172:	00 
    2173:	89 04 24             	mov    %eax,(%esp)
    2176:	e8 85 64 00 00       	call   8600 <bcmp>
    217b:	8b 55 c0             	mov    -0x40(%ebp),%edx
    217e:	85 c0                	test   %eax,%eax
    2180:	75 09                	jne    218b <cdfs_mounted+0x21b>
    2182:	8b 4d c4             	mov    -0x3c(%ebp),%ecx
    2185:	80 79 06 01          	cmpb   $0x1,0x6(%ecx)
    2189:	74 3f                	je     21ca <cdfs_mounted+0x25a>
    218b:	8b 45 dc             	mov    -0x24(%ebp),%eax
    218e:	e9 41 ff ff ff       	jmp    20d4 <cdfs_mounted+0x164>
    2193:	90                   	nop
    2194:	8d 74 26 00          	lea    0x0(%esi,%eiz,1),%esi
    2198:	8b 50 08             	mov    0x8(%eax),%edx
    219b:	89 04 24             	mov    %eax,(%esp)
    219e:	0f ca                	bswap  %edx
    21a0:	89 55 d4             	mov    %edx,-0x2c(%ebp)
    21a3:	e8 88 2c 01 00       	call   14e30 <free>
    21a8:	e9 44 fe ff ff       	jmp    1ff1 <cdfs_mounted+0x81>
    21ad:	8d 76 00             	lea    0x0(%esi),%esi
    21b0:	89 34 24             	mov    %esi,(%esp)
    21b3:	bb fc fe ff ff       	mov    $0xfffffefc,%ebx
    21b8:	e8 a3 05 00 00       	call   2760 <block_cache_fini>
    21bd:	89 34 24             	mov    %esi,(%esp)
    21c0:	e8 5b 07 00 00       	call   2920 <block_fini>
    21c5:	e9 d0 fd ff ff       	jmp    1f9a <cdfs_mounted+0x2a>
    21ca:	66 83 79 7c 01       	cmpw   $0x1,0x7c(%ecx)
    21cf:	75 ba                	jne    218b <cdfs_mounted+0x21b>
    21d1:	66 81 b9 80 00 00 00 	cmpw   $0x800,0x80(%ecx)
    21d8:	00 08 
    21da:	75 af                	jne    218b <cdfs_mounted+0x21b>
    21dc:	8b 81 9e 00 00 00    	mov    0x9e(%ecx),%eax
    21e2:	8b 4a 10             	mov    0x10(%edx),%ecx
    21e5:	89 41 28             	mov    %eax,0x28(%ecx)
    21e8:	8b 45 c4             	mov    -0x3c(%ebp),%eax
    21eb:	8b 88 a6 00 00 00    	mov    0xa6(%eax),%ecx
    21f1:	8b 42 10             	mov    0x10(%edx),%eax
    21f4:	89 48 1c             	mov    %ecx,0x1c(%eax)
    21f7:	89 f0                	mov    %esi,%eax
    21f9:	e8 32 f6 ff ff       	call   1830 <cdfs_readdir>
    21fe:	84 c0                	test   %al,%al
    2200:	8b 45 dc             	mov    -0x24(%ebp),%eax
    2203:	89 04 24             	mov    %eax,(%esp)
    2206:	74 64                	je     226c <cdfs_mounted+0x2fc>
    2208:	e8 13 08 00 00       	call   2a20 <block_put>
    220d:	89 7c 24 04          	mov    %edi,0x4(%esp)
    2211:	c7 04 24 70 49 02 00 	movl   $0x24970,(%esp)
    2218:	89 75 e0             	mov    %esi,-0x20(%ebp)
    221b:	c7 45 e4 00 00 00 00 	movl   $0x0,-0x1c(%ebp)
    2222:	e8 a9 8d 01 00       	call   1afd0 <hash_table_find>
    2227:	85 c0                	test   %eax,%eax
    2229:	74 3d                	je     2268 <cdfs_mounted+0x2f8>
    222b:	83 f8 0c             	cmp    $0xc,%eax
    222e:	74 38                	je     2268 <cdfs_mounted+0x2f8>
    2230:	8b 40 f4             	mov    -0xc(%eax),%eax
    2233:	85 c0                	test   %eax,%eax
    2235:	74 31                	je     2268 <cdfs_mounted+0x2f8>
    2237:	8b 40 10             	mov    0x10(%eax),%eax
    223a:	8b 55 10             	mov    0x10(%ebp),%edx
    223d:	8b 48 04             	mov    0x4(%eax),%ecx
    2240:	89 0a                	mov    %ecx,(%edx)
    2242:	8b 55 14             	mov    0x14(%ebp),%edx
    2245:	8b 48 1c             	mov    0x1c(%eax),%ecx
    2248:	89 0a                	mov    %ecx,(%edx)
    224a:	c7 42 04 00 00 00 00 	movl   $0x0,0x4(%edx)
    2251:	8b 50 18             	mov    0x18(%eax),%edx
    2254:	8b 45 18             	mov    0x18(%ebp),%eax
    2257:	89 10                	mov    %edx,(%eax)
    2259:	83 c4 5c             	add    $0x5c,%esp
    225c:	89 d8                	mov    %ebx,%eax
    225e:	5b                   	pop    %ebx
    225f:	5e                   	pop    %esi
    2260:	5f                   	pop    %edi
    2261:	5d                   	pop    %ebp
    2262:	c3                   	ret    
    2263:	90                   	nop
    2264:	8d 74 26 00          	lea    0x0(%esi,%eiz,1),%esi
    2268:	31 c0                	xor    %eax,%eax
    226a:	eb ce                	jmp    223a <cdfs_mounted+0x2ca>
    226c:	e8 af 07 00 00       	call   2a20 <block_put>
    2271:	e9 66 fe ff ff       	jmp    20dc <cdfs_mounted+0x16c>
    2276:	8d 76 00             	lea    0x0(%esi),%esi
    2279:	8d bc 27 00 00 00 00 	lea    0x0(%edi,%eiz,1),%edi

00002280 <cdfs_init>:
    2280:	55                   	push   %ebp
    2281:	89 e5                	mov    %esp,%ebp
    2283:	83 ec 18             	sub    $0x18,%esp
    2286:	c7 44 24 0c 00 47 02 	movl   $0x24700,0xc(%esp)
    228d:	00 
    228e:	c7 44 24 08 00 00 00 	movl   $0x0,0x8(%esp)
    2295:	00 
    2296:	c7 44 24 04 00 00 00 	movl   $0x0,0x4(%esp)
    229d:	00 
    229e:	c7 04 24 70 49 02 00 	movl   $0x24970,(%esp)
    22a5:	e8 16 87 01 00       	call   1a9c0 <hash_table_create>
    22aa:	c9                   	leave  
    22ab:	c3                   	ret    
    22ac:	66 90                	xchg   %ax,%ax
    22ae:	66 90                	xchg   %ax,%ax

000022b0 <cache_key_hash>:
    22b0:	55                   	push   %ebp
    22b1:	89 e5                	mov    %esp,%ebp
    22b3:	8b 45 08             	mov    0x8(%ebp),%eax
    22b6:	5d                   	pop    %ebp
    22b7:	8b 00                	mov    (%eax),%eax
    22b9:	c3                   	ret    
    22ba:	8d b6 00 00 00 00    	lea    0x0(%esi),%esi

000022c0 <cache_hash>:
    22c0:	55                   	push   %ebp
    22c1:	89 e5                	mov    %esp,%ebp
    22c3:	8b 45 08             	mov    0x8(%ebp),%eax
    22c6:	5d                   	pop    %ebp
    22c7:	8b 40 e4             	mov    -0x1c(%eax),%eax
    22ca:	c3                   	ret    
    22cb:	90                   	nop
    22cc:	8d 74 26 00          	lea    0x0(%esi,%eiz,1),%esi

000022d0 <cache_key_equal>:
    22d0:	55                   	push   %ebp
    22d1:	89 e5                	mov    %esp,%ebp
    22d3:	8b 45 0c             	mov    0xc(%ebp),%eax
    22d6:	8b 4d 08             	mov    0x8(%ebp),%ecx
    22d9:	5d                   	pop    %ebp
    22da:	8b 50 e4             	mov    -0x1c(%eax),%edx
    22dd:	8b 40 e8             	mov    -0x18(%eax),%eax
    22e0:	33 41 04             	xor    0x4(%ecx),%eax
    22e3:	33 11                	xor    (%ecx),%edx
    22e5:	09 c2                	or     %eax,%edx
    22e7:	0f 94 c0             	sete   %al
    22ea:	c3                   	ret    
    22eb:	90                   	nop
    22ec:	8d 74 26 00          	lea    0x0(%esi,%eiz,1),%esi

000022f0 <block_init>:
    22f0:	55                   	push   %ebp
    22f1:	89 e5                	mov    %esp,%ebp
    22f3:	57                   	push   %edi
    22f4:	56                   	push   %esi
    22f5:	53                   	push   %ebx
    22f6:	83 ec 3c             	sub    $0x3c,%esp
    22f9:	8b 5d 0c             	mov    0xc(%ebp),%ebx
    22fc:	8b 45 08             	mov    0x8(%ebp),%eax
    22ff:	c7 44 24 08 01 00 00 	movl   $0x1,0x8(%esp)
    2306:	00 
    2307:	89 5c 24 04          	mov    %ebx,0x4(%esp)
    230b:	89 04 24             	mov    %eax,(%esp)
    230e:	e8 fd 4c 00 00       	call   7010 <loc_service_connect>
    2313:	89 c6                	mov    %eax,%esi
    2315:	85 c0                	test   %eax,%eax
    2317:	0f 84 30 01 00 00    	je     244d <block_init+0x15d>
    231d:	8d 45 e0             	lea    -0x20(%ebp),%eax
    2320:	89 34 24             	mov    %esi,(%esp)
    2323:	89 44 24 04          	mov    %eax,0x4(%esp)
    2327:	e8 b4 2e 00 00       	call   51e0 <bd_open>
    232c:	89 c7                	mov    %eax,%edi
    232e:	85 c0                	test   %eax,%eax
    2330:	0f 85 d4 00 00 00    	jne    240a <block_init+0x11a>
    2336:	8d 45 e4             	lea    -0x1c(%ebp),%eax
    2339:	89 44 24 04          	mov    %eax,0x4(%esp)
    233d:	8b 45 e0             	mov    -0x20(%ebp),%eax
    2340:	89 04 24             	mov    %eax,(%esp)
    2343:	e8 68 31 00 00       	call   54b0 <bd_get_block_size>
    2348:	89 c7                	mov    %eax,%edi
    234a:	85 c0                	test   %eax,%eax
    234c:	0f 85 ad 00 00 00    	jne    23ff <block_init+0x10f>
    2352:	8b 55 e0             	mov    -0x20(%ebp),%edx
    2355:	c7 04 24 28 00 00 00 	movl   $0x28,(%esp)
    235c:	89 55 d4             	mov    %edx,-0x2c(%ebp)
    235f:	8b 55 e4             	mov    -0x1c(%ebp),%edx
    2362:	89 55 d0             	mov    %edx,-0x30(%ebp)
    2365:	e8 b6 29 01 00       	call   14d20 <malloc>
    236a:	85 c0                	test   %eax,%eax
    236c:	0f 84 e0 00 00 00    	je     2452 <block_init+0x162>
    2372:	8b 55 d4             	mov    -0x2c(%ebp),%edx
    2375:	c7 00 00 00 00 00    	movl   $0x0,(%eax)
    237b:	89 50 10             	mov    %edx,0x10(%eax)
    237e:	8b 55 d0             	mov    -0x30(%ebp),%edx
    2381:	89 50 20             	mov    %edx,0x20(%eax)
    2384:	c7 40 04 00 00 00 00 	movl   $0x0,0x4(%eax)
    238b:	89 58 08             	mov    %ebx,0x8(%eax)
    238e:	89 70 0c             	mov    %esi,0xc(%eax)
    2391:	c7 40 14 00 00 00 00 	movl   $0x0,0x14(%eax)
    2398:	c7 40 18 00 00 00 00 	movl   $0x0,0x18(%eax)
    239f:	c7 40 1c 00 00 00 00 	movl   $0x0,0x1c(%eax)
    23a6:	c7 40 24 00 00 00 00 	movl   $0x0,0x24(%eax)
    23ad:	c7 04 24 18 47 02 00 	movl   $0x24718,(%esp)
    23b4:	89 45 cc             	mov    %eax,-0x34(%ebp)
    23b7:	e8 54 9d 00 00       	call   c110 <fibril_mutex_lock>
    23bc:	8b 15 2c 47 02 00    	mov    0x2472c,%edx
    23c2:	81 fa 28 47 02 00    	cmp    $0x24728,%edx
    23c8:	8b 45 cc             	mov    -0x34(%ebp),%eax
    23cb:	75 0e                	jne    23db <block_init+0xeb>
    23cd:	eb 51                	jmp    2420 <block_init+0x130>
    23cf:	90                   	nop
    23d0:	8b 52 04             	mov    0x4(%edx),%edx
    23d3:	81 fa 28 47 02 00    	cmp    $0x24728,%edx
    23d9:	74 45                	je     2420 <block_init+0x130>
    23db:	3b 5a 08             	cmp    0x8(%edx),%ebx
    23de:	75 f0                	jne    23d0 <block_init+0xe0>
    23e0:	c7 04 24 18 47 02 00 	movl   $0x24718,(%esp)
    23e7:	89 45 cc             	mov    %eax,-0x34(%ebp)
    23ea:	e8 41 9e 00 00       	call   c230 <fibril_mutex_unlock>
    23ef:	8b 45 cc             	mov    -0x34(%ebp),%eax
    23f2:	89 04 24             	mov    %eax,(%esp)
    23f5:	bf fc fe ff ff       	mov    $0xfffffefc,%edi
    23fa:	e8 31 2a 01 00       	call   14e30 <free>
    23ff:	8b 45 e0             	mov    -0x20(%ebp),%eax
    2402:	89 04 24             	mov    %eax,(%esp)
    2405:	e8 76 2e 00 00       	call   5280 <bd_close>
    240a:	89 34 24             	mov    %esi,(%esp)
    240d:	e8 4e 5d 01 00       	call   18160 <async_hangup>
    2412:	83 c4 3c             	add    $0x3c,%esp
    2415:	89 f8                	mov    %edi,%eax
    2417:	5b                   	pop    %ebx
    2418:	5e                   	pop    %esi
    2419:	5f                   	pop    %edi
    241a:	5d                   	pop    %ebp
    241b:	c3                   	ret    
    241c:	8d 74 26 00          	lea    0x0(%esi,%eiz,1),%esi
    2420:	8b 15 28 47 02 00    	mov    0x24728,%edx
    2426:	c7 40 04 28 47 02 00 	movl   $0x24728,0x4(%eax)
    242d:	89 10                	mov    %edx,(%eax)
    242f:	a3 28 47 02 00       	mov    %eax,0x24728
    2434:	89 42 04             	mov    %eax,0x4(%edx)
    2437:	c7 04 24 18 47 02 00 	movl   $0x24718,(%esp)
    243e:	e8 ed 9d 00 00       	call   c230 <fibril_mutex_unlock>
    2443:	83 c4 3c             	add    $0x3c,%esp
    2446:	89 f8                	mov    %edi,%eax
    2448:	5b                   	pop    %ebx
    2449:	5e                   	pop    %esi
    244a:	5f                   	pop    %edi
    244b:	5d                   	pop    %ebp
    244c:	c3                   	ret    
    244d:	83 cf ff             	or     $0xffffffff,%edi
    2450:	eb c0                	jmp    2412 <block_init+0x122>
    2452:	bf fe ff ff ff       	mov    $0xfffffffe,%edi
    2457:	eb a6                	jmp    23ff <block_init+0x10f>
    2459:	8d b4 26 00 00 00 00 	lea    0x0(%esi,%eiz,1),%esi

00002460 <block_bb_read>:
    2460:	55                   	push   %ebp
    2461:	89 e5                	mov    %esp,%ebp
    2463:	57                   	push   %edi
    2464:	56                   	push   %esi
    2465:	53                   	push   %ebx
    2466:	83 ec 3c             	sub    $0x3c,%esp
    2469:	8b 45 08             	mov    0x8(%ebp),%eax
    246c:	8b 75 0c             	mov    0xc(%ebp),%esi
    246f:	c7 04 24 18 47 02 00 	movl   $0x24718,(%esp)
    2476:	89 45 e4             	mov    %eax,-0x1c(%ebp)
    2479:	8b 7d 10             	mov    0x10(%ebp),%edi
    247c:	e8 8f 9c 00 00       	call   c110 <fibril_mutex_lock>
    2481:	8b 1d 2c 47 02 00    	mov    0x2472c,%ebx
    2487:	8b 45 e4             	mov    -0x1c(%ebp),%eax
    248a:	81 fb 28 47 02 00    	cmp    $0x24728,%ebx
    2490:	75 15                	jne    24a7 <block_bb_read+0x47>
    2492:	e9 91 00 00 00       	jmp    2528 <block_bb_read+0xc8>
    2497:	90                   	nop
    2498:	8b 5b 04             	mov    0x4(%ebx),%ebx
    249b:	81 fb 28 47 02 00    	cmp    $0x24728,%ebx
    24a1:	0f 84 81 00 00 00    	je     2528 <block_bb_read+0xc8>
    24a7:	3b 43 08             	cmp    0x8(%ebx),%eax
    24aa:	75 ec                	jne    2498 <block_bb_read+0x38>
    24ac:	c7 04 24 18 47 02 00 	movl   $0x24718,(%esp)
    24b3:	e8 78 9d 00 00       	call   c230 <fibril_mutex_unlock>
    24b8:	8b 43 14             	mov    0x14(%ebx),%eax
    24bb:	85 c0                	test   %eax,%eax
    24bd:	0f 85 d5 00 00 00    	jne    2598 <block_bb_read+0x138>
    24c3:	8b 43 20             	mov    0x20(%ebx),%eax
    24c6:	89 04 24             	mov    %eax,(%esp)
    24c9:	e8 52 28 01 00       	call   14d20 <malloc>
    24ce:	89 c1                	mov    %eax,%ecx
    24d0:	85 c0                	test   %eax,%eax
    24d2:	0f 84 cf 00 00 00    	je     25a7 <block_bb_read+0x147>
    24d8:	8b 43 20             	mov    0x20(%ebx),%eax
    24db:	89 4c 24 10          	mov    %ecx,0x10(%esp)
    24df:	89 44 24 14          	mov    %eax,0x14(%esp)
    24e3:	c7 44 24 0c 01 00 00 	movl   $0x1,0xc(%esp)
    24ea:	00 
    24eb:	c7 44 24 04 00 00 00 	movl   $0x0,0x4(%esp)
    24f2:	00 
    24f3:	c7 44 24 08 00 00 00 	movl   $0x0,0x8(%esp)
    24fa:	00 
    24fb:	8b 43 10             	mov    0x10(%ebx),%eax
    24fe:	89 4d e4             	mov    %ecx,-0x1c(%ebp)
    2501:	89 04 24             	mov    %eax,(%esp)
    2504:	e8 87 2d 00 00       	call   5290 <bd_read_blocks>
    2509:	8b 4d e4             	mov    -0x1c(%ebp),%ecx
    250c:	89 c2                	mov    %eax,%edx
    250e:	85 c0                	test   %eax,%eax
    2510:	75 36                	jne    2548 <block_bb_read+0xe8>
    2512:	89 4b 14             	mov    %ecx,0x14(%ebx)
    2515:	89 73 18             	mov    %esi,0x18(%ebx)
    2518:	89 7b 1c             	mov    %edi,0x1c(%ebx)
    251b:	83 c4 3c             	add    $0x3c,%esp
    251e:	89 d0                	mov    %edx,%eax
    2520:	5b                   	pop    %ebx
    2521:	5e                   	pop    %esi
    2522:	5f                   	pop    %edi
    2523:	5d                   	pop    %ebp
    2524:	c3                   	ret    
    2525:	8d 76 00             	lea    0x0(%esi),%esi
    2528:	c7 04 24 18 47 02 00 	movl   $0x24718,(%esp)
    252f:	e8 fc 9c 00 00       	call   c230 <fibril_mutex_unlock>
    2534:	83 ca ff             	or     $0xffffffff,%edx
    2537:	83 c4 3c             	add    $0x3c,%esp
    253a:	89 d0                	mov    %edx,%eax
    253c:	5b                   	pop    %ebx
    253d:	5e                   	pop    %esi
    253e:	5f                   	pop    %edi
    253f:	5d                   	pop    %ebp
    2540:	c3                   	ret    
    2541:	8d b4 26 00 00 00 00 	lea    0x0(%esi,%eiz,1),%esi
    2548:	8b 43 08             	mov    0x8(%ebx),%eax
    254b:	89 54 24 04          	mov    %edx,0x4(%esp)
    254f:	89 44 24 14          	mov    %eax,0x14(%esp)
    2553:	c7 44 24 0c 00 00 00 	movl   $0x0,0xc(%esp)
    255a:	00 
    255b:	c7 44 24 10 00 00 00 	movl   $0x0,0x10(%esp)
    2562:	00 
    2563:	c7 44 24 08 01 00 00 	movl   $0x1,0x8(%esp)
    256a:	00 
    256b:	c7 04 24 74 1c 02 00 	movl   $0x21c74,(%esp)
    2572:	89 55 e0             	mov    %edx,-0x20(%ebp)
    2575:	e8 26 db 00 00       	call   100a0 <printf>
    257a:	e8 e1 ce 01 00       	call   1f460 <stacktrace_print>
    257f:	8b 4d e4             	mov    -0x1c(%ebp),%ecx
    2582:	89 0c 24             	mov    %ecx,(%esp)
    2585:	e8 a6 28 01 00       	call   14e30 <free>
    258a:	8b 55 e0             	mov    -0x20(%ebp),%edx
    258d:	83 c4 3c             	add    $0x3c,%esp
    2590:	89 d0                	mov    %edx,%eax
    2592:	5b                   	pop    %ebx
    2593:	5e                   	pop    %esi
    2594:	5f                   	pop    %edi
    2595:	5d                   	pop    %ebp
    2596:	c3                   	ret    
    2597:	90                   	nop
    2598:	83 c4 3c             	add    $0x3c,%esp
    259b:	ba fc fe ff ff       	mov    $0xfffffefc,%edx
    25a0:	89 d0                	mov    %edx,%eax
    25a2:	5b                   	pop    %ebx
    25a3:	5e                   	pop    %esi
    25a4:	5f                   	pop    %edi
    25a5:	5d                   	pop    %ebp
    25a6:	c3                   	ret    
    25a7:	ba fe ff ff ff       	mov    $0xfffffffe,%edx
    25ac:	eb 89                	jmp    2537 <block_bb_read+0xd7>
    25ae:	66 90                	xchg   %ax,%ax

000025b0 <block_bb_get>:
    25b0:	55                   	push   %ebp
    25b1:	89 e5                	mov    %esp,%ebp
    25b3:	56                   	push   %esi
    25b4:	53                   	push   %ebx
    25b5:	83 ec 10             	sub    $0x10,%esp
    25b8:	8b 75 08             	mov    0x8(%ebp),%esi
    25bb:	c7 04 24 18 47 02 00 	movl   $0x24718,(%esp)
    25c2:	e8 49 9b 00 00       	call   c110 <fibril_mutex_lock>
    25c7:	8b 1d 2c 47 02 00    	mov    0x2472c,%ebx
    25cd:	81 fb 28 47 02 00    	cmp    $0x24728,%ebx
    25d3:	75 0e                	jne    25e3 <block_bb_get+0x33>
    25d5:	eb 29                	jmp    2600 <block_bb_get+0x50>
    25d7:	90                   	nop
    25d8:	8b 5b 04             	mov    0x4(%ebx),%ebx
    25db:	81 fb 28 47 02 00    	cmp    $0x24728,%ebx
    25e1:	74 1d                	je     2600 <block_bb_get+0x50>
    25e3:	3b 73 08             	cmp    0x8(%ebx),%esi
    25e6:	75 f0                	jne    25d8 <block_bb_get+0x28>
    25e8:	c7 04 24 18 47 02 00 	movl   $0x24718,(%esp)
    25ef:	e8 3c 9c 00 00       	call   c230 <fibril_mutex_unlock>
    25f4:	8b 43 14             	mov    0x14(%ebx),%eax
    25f7:	83 c4 10             	add    $0x10,%esp
    25fa:	5b                   	pop    %ebx
    25fb:	5e                   	pop    %esi
    25fc:	5d                   	pop    %ebp
    25fd:	c3                   	ret    
    25fe:	66 90                	xchg   %ax,%ax
    2600:	c7 04 24 18 47 02 00 	movl   $0x24718,(%esp)
    2607:	e8 24 9c 00 00       	call   c230 <fibril_mutex_unlock>
    260c:	c7 44 24 08 e5 00 00 	movl   $0xe5,0x8(%esp)
    2613:	00 
    2614:	c7 44 24 04 23 1c 02 	movl   $0x21c23,0x4(%esp)
    261b:	00 
    261c:	c7 04 24 2b 1c 02 00 	movl   $0x21c2b,(%esp)
    2623:	e8 d8 ce 01 00       	call   1f500 <assert_abort>
    2628:	90                   	nop
    2629:	8d b4 26 00 00 00 00 	lea    0x0(%esi,%eiz,1),%esi

00002630 <block_cache_init>:
    2630:	55                   	push   %ebp
    2631:	89 e5                	mov    %esp,%ebp
    2633:	56                   	push   %esi
    2634:	53                   	push   %ebx
    2635:	83 ec 10             	sub    $0x10,%esp
    2638:	8b 75 08             	mov    0x8(%ebp),%esi
    263b:	c7 04 24 18 47 02 00 	movl   $0x24718,(%esp)
    2642:	e8 c9 9a 00 00       	call   c110 <fibril_mutex_lock>
    2647:	8b 1d 2c 47 02 00    	mov    0x2472c,%ebx
    264d:	81 fb 28 47 02 00    	cmp    $0x24728,%ebx
    2653:	75 1a                	jne    266f <block_cache_init+0x3f>
    2655:	e9 b6 00 00 00       	jmp    2710 <block_cache_init+0xe0>
    265a:	8d b6 00 00 00 00    	lea    0x0(%esi),%esi
    2660:	8b 5b 04             	mov    0x4(%ebx),%ebx
    2663:	81 fb 28 47 02 00    	cmp    $0x24728,%ebx
    2669:	0f 84 a1 00 00 00    	je     2710 <block_cache_init+0xe0>
    266f:	3b 73 08             	cmp    0x8(%ebx),%esi
    2672:	75 ec                	jne    2660 <block_cache_init+0x30>
    2674:	c7 04 24 18 47 02 00 	movl   $0x24718,(%esp)
    267b:	e8 b0 9b 00 00       	call   c230 <fibril_mutex_unlock>
    2680:	8b 53 24             	mov    0x24(%ebx),%edx
    2683:	85 d2                	test   %edx,%edx
    2685:	0f 85 9d 00 00 00    	jne    2728 <block_cache_init+0xf8>
    268b:	c7 04 24 48 00 00 00 	movl   $0x48,(%esp)
    2692:	e8 89 26 01 00       	call   14d20 <malloc>
    2697:	89 c6                	mov    %eax,%esi
    2699:	85 c0                	test   %eax,%eax
    269b:	0f 84 a2 00 00 00    	je     2743 <block_cache_init+0x113>
    26a1:	89 04 24             	mov    %eax,(%esp)
    26a4:	e8 47 9a 00 00       	call   c0f0 <fibril_mutex_initialize>
    26a9:	8d 46 3c             	lea    0x3c(%esi),%eax
    26ac:	89 46 3c             	mov    %eax,0x3c(%esi)
    26af:	89 46 40             	mov    %eax,0x40(%esi)
    26b2:	8b 45 0c             	mov    0xc(%ebp),%eax
    26b5:	31 d2                	xor    %edx,%edx
    26b7:	89 46 10             	mov    %eax,0x10(%esi)
    26ba:	8b 45 10             	mov    0x10(%ebp),%eax
    26bd:	89 46 18             	mov    %eax,0x18(%esi)
    26c0:	8b 45 14             	mov    0x14(%ebp),%eax
    26c3:	89 46 44             	mov    %eax,0x44(%esi)
    26c6:	8b 45 0c             	mov    0xc(%ebp),%eax
    26c9:	f7 73 20             	divl   0x20(%ebx)
    26cc:	c7 46 1c 00 00 00 00 	movl   $0x0,0x1c(%esi)
    26d3:	85 d2                	test   %edx,%edx
    26d5:	75 5d                	jne    2734 <block_cache_init+0x104>
    26d7:	89 46 14             	mov    %eax,0x14(%esi)
    26da:	8d 46 20             	lea    0x20(%esi),%eax
    26dd:	c7 44 24 0c 30 47 02 	movl   $0x24730,0xc(%esp)
    26e4:	00 
    26e5:	c7 44 24 08 00 00 00 	movl   $0x0,0x8(%esp)
    26ec:	00 
    26ed:	c7 44 24 04 00 00 00 	movl   $0x0,0x4(%esp)
    26f4:	00 
    26f5:	89 04 24             	mov    %eax,(%esp)
    26f8:	e8 c3 82 01 00       	call   1a9c0 <hash_table_create>
    26fd:	84 c0                	test   %al,%al
    26ff:	74 49                	je     274a <block_cache_init+0x11a>
    2701:	89 73 24             	mov    %esi,0x24(%ebx)
    2704:	83 c4 10             	add    $0x10,%esp
    2707:	31 c0                	xor    %eax,%eax
    2709:	5b                   	pop    %ebx
    270a:	5e                   	pop    %esi
    270b:	5d                   	pop    %ebp
    270c:	c3                   	ret    
    270d:	8d 76 00             	lea    0x0(%esi),%esi
    2710:	c7 04 24 18 47 02 00 	movl   $0x24718,(%esp)
    2717:	e8 14 9b 00 00       	call   c230 <fibril_mutex_unlock>
    271c:	83 c8 ff             	or     $0xffffffff,%eax
    271f:	83 c4 10             	add    $0x10,%esp
    2722:	5b                   	pop    %ebx
    2723:	5e                   	pop    %esi
    2724:	5d                   	pop    %ebp
    2725:	c3                   	ret    
    2726:	66 90                	xchg   %ax,%ax
    2728:	83 c4 10             	add    $0x10,%esp
    272b:	b8 fc fe ff ff       	mov    $0xfffffefc,%eax
    2730:	5b                   	pop    %ebx
    2731:	5e                   	pop    %esi
    2732:	5d                   	pop    %ebp
    2733:	c3                   	ret    
    2734:	89 34 24             	mov    %esi,(%esp)
    2737:	e8 f4 26 01 00       	call   14e30 <free>
    273c:	b8 f5 ff ff ff       	mov    $0xfffffff5,%eax
    2741:	eb dc                	jmp    271f <block_cache_init+0xef>
    2743:	b8 fe ff ff ff       	mov    $0xfffffffe,%eax
    2748:	eb d5                	jmp    271f <block_cache_init+0xef>
    274a:	89 34 24             	mov    %esi,(%esp)
    274d:	e8 de 26 01 00       	call   14e30 <free>
    2752:	b8 fe ff ff ff       	mov    $0xfffffffe,%eax
    2757:	eb c6                	jmp    271f <block_cache_init+0xef>
    2759:	8d b4 26 00 00 00 00 	lea    0x0(%esi,%eiz,1),%esi

00002760 <block_cache_fini>:
    2760:	55                   	push   %ebp
    2761:	89 e5                	mov    %esp,%ebp
    2763:	57                   	push   %edi
    2764:	56                   	push   %esi
    2765:	53                   	push   %ebx
    2766:	83 ec 4c             	sub    $0x4c,%esp
    2769:	8b 5d 08             	mov    0x8(%ebp),%ebx
    276c:	c7 04 24 18 47 02 00 	movl   $0x24718,(%esp)
    2773:	e8 98 99 00 00       	call   c110 <fibril_mutex_lock>
    2778:	8b 35 2c 47 02 00    	mov    0x2472c,%esi
    277e:	81 fe 28 47 02 00    	cmp    $0x24728,%esi
    2784:	75 19                	jne    279f <block_cache_fini+0x3f>
    2786:	e9 1d 01 00 00       	jmp    28a8 <block_cache_fini+0x148>
    278b:	90                   	nop
    278c:	8d 74 26 00          	lea    0x0(%esi,%eiz,1),%esi
    2790:	8b 76 04             	mov    0x4(%esi),%esi
    2793:	81 fe 28 47 02 00    	cmp    $0x24728,%esi
    2799:	0f 84 09 01 00 00    	je     28a8 <block_cache_fini+0x148>
    279f:	3b 5e 08             	cmp    0x8(%esi),%ebx
    27a2:	75 ec                	jne    2790 <block_cache_fini+0x30>
    27a4:	c7 04 24 18 47 02 00 	movl   $0x24718,(%esp)
    27ab:	e8 80 9a 00 00       	call   c230 <fibril_mutex_unlock>
    27b0:	8b 56 24             	mov    0x24(%esi),%edx
    27b3:	89 55 e0             	mov    %edx,-0x20(%ebp)
    27b6:	85 d2                	test   %edx,%edx
    27b8:	0f 84 46 01 00 00    	je     2904 <block_cache_fini+0x1a4>
    27be:	8b 5a 40             	mov    0x40(%edx),%ebx
    27c1:	83 c2 3c             	add    $0x3c,%edx
    27c4:	89 55 d4             	mov    %edx,-0x2c(%ebp)
    27c7:	8b 55 e0             	mov    -0x20(%ebp),%edx
    27ca:	83 c2 20             	add    $0x20,%edx
    27cd:	3b 5d d4             	cmp    -0x2c(%ebp),%ebx
    27d0:	89 55 e4             	mov    %edx,-0x1c(%ebp)
    27d3:	89 da                	mov    %ebx,%edx
    27d5:	0f 84 2d 01 00 00    	je     2908 <block_cache_fini+0x1a8>
    27db:	90                   	nop
    27dc:	8d 74 26 00          	lea    0x0(%esi,%eiz,1),%esi
    27e0:	8d 5a bc             	lea    -0x44(%edx),%ebx
    27e3:	8b 4b 44             	mov    0x44(%ebx),%ecx
    27e6:	85 c9                	test   %ecx,%ecx
    27e8:	74 0f                	je     27f9 <block_cache_fini+0x99>
    27ea:	8b 43 48             	mov    0x48(%ebx),%eax
    27ed:	85 c0                	test   %eax,%eax
    27ef:	74 08                	je     27f9 <block_cache_fini+0x99>
    27f1:	89 08                	mov    %ecx,(%eax)
    27f3:	8b 4b 44             	mov    0x44(%ebx),%ecx
    27f6:	89 41 04             	mov    %eax,0x4(%ecx)
    27f9:	c7 43 44 00 00 00 00 	movl   $0x0,0x44(%ebx)
    2800:	c7 43 48 00 00 00 00 	movl   $0x0,0x48(%ebx)
    2807:	80 7b 14 00          	cmpb   $0x0,0x14(%ebx)
    280b:	74 41                	je     284e <block_cache_fini+0xee>
    280d:	8b 43 38             	mov    0x38(%ebx),%eax
    2810:	8b 55 e0             	mov    -0x20(%ebp),%edx
    2813:	89 45 d8             	mov    %eax,-0x28(%ebp)
    2816:	8b 43 40             	mov    0x40(%ebx),%eax
    2819:	8b 7a 14             	mov    0x14(%edx),%edi
    281c:	8b 53 3c             	mov    0x3c(%ebx),%edx
    281f:	89 44 24 14          	mov    %eax,0x14(%esp)
    2823:	89 55 dc             	mov    %edx,-0x24(%ebp)
    2826:	8b 43 54             	mov    0x54(%ebx),%eax
    2829:	8b 55 dc             	mov    -0x24(%ebp),%edx
    282c:	89 44 24 10          	mov    %eax,0x10(%esp)
    2830:	8b 45 d8             	mov    -0x28(%ebp),%eax
    2833:	89 7c 24 0c          	mov    %edi,0xc(%esp)
    2837:	89 44 24 04          	mov    %eax,0x4(%esp)
    283b:	89 54 24 08          	mov    %edx,0x8(%esp)
    283f:	8b 46 10             	mov    0x10(%esi),%eax
    2842:	89 04 24             	mov    %eax,(%esp)
    2845:	e8 b6 2b 00 00       	call   5400 <bd_write_blocks>
    284a:	85 c0                	test   %eax,%eax
    284c:	75 7a                	jne    28c8 <block_cache_fini+0x168>
    284e:	8d 43 4c             	lea    0x4c(%ebx),%eax
    2851:	8b 7d e4             	mov    -0x1c(%ebp),%edi
    2854:	89 44 24 04          	mov    %eax,0x4(%esp)
    2858:	89 3c 24             	mov    %edi,(%esp)
    285b:	e8 f0 89 01 00       	call   1b250 <hash_table_remove_item>
    2860:	8b 43 54             	mov    0x54(%ebx),%eax
    2863:	89 04 24             	mov    %eax,(%esp)
    2866:	e8 c5 25 01 00       	call   14e30 <free>
    286b:	89 1c 24             	mov    %ebx,(%esp)
    286e:	e8 bd 25 01 00       	call   14e30 <free>
    2873:	8b 45 e0             	mov    -0x20(%ebp),%eax
    2876:	8b 50 40             	mov    0x40(%eax),%edx
    2879:	3b 55 d4             	cmp    -0x2c(%ebp),%edx
    287c:	0f 85 5e ff ff ff    	jne    27e0 <block_cache_fini+0x80>
    2882:	89 3c 24             	mov    %edi,(%esp)
    2885:	31 ff                	xor    %edi,%edi
    2887:	e8 64 82 01 00       	call   1aaf0 <hash_table_destroy>
    288c:	8b 55 e0             	mov    -0x20(%ebp),%edx
    288f:	c7 46 24 00 00 00 00 	movl   $0x0,0x24(%esi)
    2896:	89 14 24             	mov    %edx,(%esp)
    2899:	e8 92 25 01 00       	call   14e30 <free>
    289e:	83 c4 4c             	add    $0x4c,%esp
    28a1:	89 f8                	mov    %edi,%eax
    28a3:	5b                   	pop    %ebx
    28a4:	5e                   	pop    %esi
    28a5:	5f                   	pop    %edi
    28a6:	5d                   	pop    %ebp
    28a7:	c3                   	ret    
    28a8:	c7 04 24 18 47 02 00 	movl   $0x24718,(%esp)
    28af:	83 cf ff             	or     $0xffffffff,%edi
    28b2:	e8 79 99 00 00       	call   c230 <fibril_mutex_unlock>
    28b7:	83 c4 4c             	add    $0x4c,%esp
    28ba:	89 f8                	mov    %edi,%eax
    28bc:	5b                   	pop    %ebx
    28bd:	5e                   	pop    %esi
    28be:	5f                   	pop    %edi
    28bf:	5d                   	pop    %ebp
    28c0:	c3                   	ret    
    28c1:	8d b4 26 00 00 00 00 	lea    0x0(%esi,%eiz,1),%esi
    28c8:	89 f9                	mov    %edi,%ecx
    28ca:	89 c7                	mov    %eax,%edi
    28cc:	8b 46 08             	mov    0x8(%esi),%eax
    28cf:	8b 55 dc             	mov    -0x24(%ebp),%edx
    28d2:	89 44 24 14          	mov    %eax,0x14(%esp)
    28d6:	8b 45 d8             	mov    -0x28(%ebp),%eax
    28d9:	89 54 24 10          	mov    %edx,0x10(%esp)
    28dd:	89 4c 24 08          	mov    %ecx,0x8(%esp)
    28e1:	89 7c 24 04          	mov    %edi,0x4(%esp)
    28e5:	89 44 24 0c          	mov    %eax,0xc(%esp)
    28e9:	c7 04 24 c0 1c 02 00 	movl   $0x21cc0,(%esp)
    28f0:	e8 ab d7 00 00       	call   100a0 <printf>
    28f5:	e8 66 cb 01 00       	call   1f460 <stacktrace_print>
    28fa:	83 c4 4c             	add    $0x4c,%esp
    28fd:	89 f8                	mov    %edi,%eax
    28ff:	5b                   	pop    %ebx
    2900:	5e                   	pop    %esi
    2901:	5f                   	pop    %edi
    2902:	5d                   	pop    %ebp
    2903:	c3                   	ret    
    2904:	31 ff                	xor    %edi,%edi
    2906:	eb af                	jmp    28b7 <block_cache_fini+0x157>
    2908:	8b 55 e0             	mov    -0x20(%ebp),%edx
    290b:	8d 7a 20             	lea    0x20(%edx),%edi
    290e:	e9 6f ff ff ff       	jmp    2882 <block_cache_fini+0x122>
    2913:	8d b6 00 00 00 00    	lea    0x0(%esi),%esi
    2919:	8d bc 27 00 00 00 00 	lea    0x0(%edi,%eiz,1),%edi

00002920 <block_fini>:
    2920:	55                   	push   %ebp
    2921:	89 e5                	mov    %esp,%ebp
    2923:	56                   	push   %esi
    2924:	53                   	push   %ebx
    2925:	83 ec 10             	sub    $0x10,%esp
    2928:	8b 75 08             	mov    0x8(%ebp),%esi
    292b:	c7 04 24 18 47 02 00 	movl   $0x24718,(%esp)
    2932:	e8 d9 97 00 00       	call   c110 <fibril_mutex_lock>
    2937:	8b 1d 2c 47 02 00    	mov    0x2472c,%ebx
    293d:	81 fb 28 47 02 00    	cmp    $0x24728,%ebx
    2943:	75 1a                	jne    295f <block_fini+0x3f>
    2945:	e9 a6 00 00 00       	jmp    29f0 <block_fini+0xd0>
    294a:	8d b6 00 00 00 00    	lea    0x0(%esi),%esi
    2950:	8b 5b 04             	mov    0x4(%ebx),%ebx
    2953:	81 fb 28 47 02 00    	cmp    $0x24728,%ebx
    2959:	0f 84 91 00 00 00    	je     29f0 <block_fini+0xd0>
    295f:	3b 73 08             	cmp    0x8(%ebx),%esi
    2962:	75 ec                	jne    2950 <block_fini+0x30>
    2964:	c7 04 24 18 47 02 00 	movl   $0x24718,(%esp)
    296b:	e8 c0 98 00 00       	call   c230 <fibril_mutex_unlock>
    2970:	8b 4b 24             	mov    0x24(%ebx),%ecx
    2973:	85 c9                	test   %ecx,%ecx
    2975:	74 08                	je     297f <block_fini+0x5f>
    2977:	89 34 24             	mov    %esi,(%esp)
    297a:	e8 e1 fd ff ff       	call   2760 <block_cache_fini>
    297f:	c7 04 24 18 47 02 00 	movl   $0x24718,(%esp)
    2986:	e8 85 97 00 00       	call   c110 <fibril_mutex_lock>
    298b:	8b 13                	mov    (%ebx),%edx
    298d:	85 d2                	test   %edx,%edx
    298f:	74 0e                	je     299f <block_fini+0x7f>
    2991:	8b 43 04             	mov    0x4(%ebx),%eax
    2994:	85 c0                	test   %eax,%eax
    2996:	74 07                	je     299f <block_fini+0x7f>
    2998:	89 10                	mov    %edx,(%eax)
    299a:	8b 13                	mov    (%ebx),%edx
    299c:	89 42 04             	mov    %eax,0x4(%edx)
    299f:	c7 03 00 00 00 00    	movl   $0x0,(%ebx)
    29a5:	c7 43 04 00 00 00 00 	movl   $0x0,0x4(%ebx)
    29ac:	c7 04 24 18 47 02 00 	movl   $0x24718,(%esp)
    29b3:	e8 78 98 00 00       	call   c230 <fibril_mutex_unlock>
    29b8:	8b 43 14             	mov    0x14(%ebx),%eax
    29bb:	85 c0                	test   %eax,%eax
    29bd:	74 08                	je     29c7 <block_fini+0xa7>
    29bf:	89 04 24             	mov    %eax,(%esp)
    29c2:	e8 69 24 01 00       	call   14e30 <free>
    29c7:	8b 43 10             	mov    0x10(%ebx),%eax
    29ca:	89 04 24             	mov    %eax,(%esp)
    29cd:	e8 ae 28 00 00       	call   5280 <bd_close>
    29d2:	8b 43 0c             	mov    0xc(%ebx),%eax
    29d5:	89 04 24             	mov    %eax,(%esp)
    29d8:	e8 83 57 01 00       	call   18160 <async_hangup>
    29dd:	89 5d 08             	mov    %ebx,0x8(%ebp)
    29e0:	83 c4 10             	add    $0x10,%esp
    29e3:	5b                   	pop    %ebx
    29e4:	5e                   	pop    %esi
    29e5:	5d                   	pop    %ebp
    29e6:	e9 45 24 01 00       	jmp    14e30 <free>
    29eb:	90                   	nop
    29ec:	8d 74 26 00          	lea    0x0(%esi,%eiz,1),%esi
    29f0:	c7 04 24 18 47 02 00 	movl   $0x24718,(%esp)
    29f7:	e8 34 98 00 00       	call   c230 <fibril_mutex_unlock>
    29fc:	c7 44 24 08 b8 00 00 	movl   $0xb8,0x8(%esp)
    2a03:	00 
    2a04:	c7 44 24 04 23 1c 02 	movl   $0x21c23,0x4(%esp)
    2a0b:	00 
    2a0c:	c7 04 24 2b 1c 02 00 	movl   $0x21c2b,(%esp)
    2a13:	e8 e8 ca 01 00       	call   1f500 <assert_abort>
    2a18:	90                   	nop
    2a19:	8d b4 26 00 00 00 00 	lea    0x0(%esi,%eiz,1),%esi

00002a20 <block_put>:
    2a20:	55                   	push   %ebp
    2a21:	89 e5                	mov    %esp,%ebp
    2a23:	57                   	push   %edi
    2a24:	56                   	push   %esi
    2a25:	53                   	push   %ebx
    2a26:	83 ec 3c             	sub    $0x3c,%esp
    2a29:	8b 7d 08             	mov    0x8(%ebp),%edi
    2a2c:	8b 5f 2c             	mov    0x2c(%edi),%ebx
    2a2f:	c7 04 24 18 47 02 00 	movl   $0x24718,(%esp)
    2a36:	e8 d5 96 00 00       	call   c110 <fibril_mutex_lock>
    2a3b:	8b 35 2c 47 02 00    	mov    0x2472c,%esi
    2a41:	81 fe 28 47 02 00    	cmp    $0x24728,%esi
    2a47:	75 16                	jne    2a5f <block_put+0x3f>
    2a49:	e9 fa 00 00 00       	jmp    2b48 <block_put+0x128>
    2a4e:	66 90                	xchg   %ax,%ax
    2a50:	8b 76 04             	mov    0x4(%esi),%esi
    2a53:	81 fe 28 47 02 00    	cmp    $0x24728,%esi
    2a59:	0f 84 e9 00 00 00    	je     2b48 <block_put+0x128>
    2a5f:	3b 5e 08             	cmp    0x8(%esi),%ebx
    2a62:	75 ec                	jne    2a50 <block_put+0x30>
    2a64:	c7 04 24 18 47 02 00 	movl   $0x24718,(%esp)
    2a6b:	e8 c0 97 00 00       	call   c230 <fibril_mutex_unlock>
    2a70:	8b 5e 24             	mov    0x24(%esi),%ebx
    2a73:	85 db                	test   %ebx,%ebx
    2a75:	0f 84 10 02 00 00    	je     2c8b <block_put+0x26b>
    2a7b:	8b 47 10             	mov    0x10(%edi),%eax
    2a7e:	85 c0                	test   %eax,%eax
    2a80:	0f 84 21 02 00 00    	je     2ca7 <block_put+0x287>
    2a86:	c7 45 dc 00 00 00 00 	movl   $0x0,-0x24(%ebp)
    2a8d:	89 75 d8             	mov    %esi,-0x28(%ebp)
    2a90:	eb 7b                	jmp    2b0d <block_put+0xed>
    2a92:	8d b6 00 00 00 00    	lea    0x0(%esi),%esi
    2a98:	80 7f 14 00          	cmpb   $0x0,0x14(%edi)
    2a9c:	74 0a                	je     2aa8 <block_put+0x88>
    2a9e:	83 7f 10 01          	cmpl   $0x1,0x10(%edi)
    2aa2:	0f 84 18 01 00 00    	je     2bc0 <block_put+0x1a0>
    2aa8:	89 3c 24             	mov    %edi,(%esp)
    2aab:	e8 80 97 00 00       	call   c230 <fibril_mutex_unlock>
    2ab0:	89 1c 24             	mov    %ebx,(%esp)
    2ab3:	e8 58 96 00 00       	call   c110 <fibril_mutex_lock>
    2ab8:	89 3c 24             	mov    %edi,(%esp)
    2abb:	e8 50 96 00 00       	call   c110 <fibril_mutex_lock>
    2ac0:	8b 4f 10             	mov    0x10(%edi),%ecx
    2ac3:	8d 41 ff             	lea    -0x1(%ecx),%eax
    2ac6:	89 47 10             	mov    %eax,0x10(%edi)
    2ac9:	85 c0                	test   %eax,%eax
    2acb:	0f 85 9f 01 00 00    	jne    2c70 <block_put+0x250>
    2ad1:	83 7b 1c 14          	cmpl   $0x14,0x1c(%ebx)
    2ad5:	0f 87 95 00 00 00    	ja     2b70 <block_put+0x150>
    2adb:	8b 45 dc             	mov    -0x24(%ebp),%eax
    2ade:	85 c0                	test   %eax,%eax
    2ae0:	0f 85 8a 00 00 00    	jne    2b70 <block_put+0x150>
    2ae6:	83 7b 44 01          	cmpl   $0x1,0x44(%ebx)
    2aea:	0f 84 68 01 00 00    	je     2c58 <block_put+0x238>
    2af0:	80 7f 14 00          	cmpb   $0x0,0x14(%edi)
    2af4:	0f 84 5e 01 00 00    	je     2c58 <block_put+0x238>
    2afa:	89 4f 10             	mov    %ecx,0x10(%edi)
    2afd:	89 3c 24             	mov    %edi,(%esp)
    2b00:	e8 2b 97 00 00       	call   c230 <fibril_mutex_unlock>
    2b05:	89 1c 24             	mov    %ebx,(%esp)
    2b08:	e8 23 97 00 00       	call   c230 <fibril_mutex_unlock>
    2b0d:	89 1c 24             	mov    %ebx,(%esp)
    2b10:	e8 fb 95 00 00       	call   c110 <fibril_mutex_lock>
    2b15:	8b 43 1c             	mov    0x1c(%ebx),%eax
    2b18:	8b 73 44             	mov    0x44(%ebx),%esi
    2b1b:	89 1c 24             	mov    %ebx,(%esp)
    2b1e:	89 45 e0             	mov    %eax,-0x20(%ebp)
    2b21:	e8 0a 97 00 00       	call   c230 <fibril_mutex_unlock>
    2b26:	89 3c 24             	mov    %edi,(%esp)
    2b29:	e8 e2 95 00 00       	call   c110 <fibril_mutex_lock>
    2b2e:	80 7f 15 00          	cmpb   $0x0,0x15(%edi)
    2b32:	0f 84 60 ff ff ff    	je     2a98 <block_put+0x78>
    2b38:	c6 47 14 00          	movb   $0x0,0x14(%edi)
    2b3c:	e9 67 ff ff ff       	jmp    2aa8 <block_put+0x88>
    2b41:	8d b4 26 00 00 00 00 	lea    0x0(%esi,%eiz,1),%esi
    2b48:	c7 04 24 18 47 02 00 	movl   $0x24718,(%esp)
    2b4f:	e8 dc 96 00 00       	call   c230 <fibril_mutex_unlock>
    2b54:	c7 44 24 08 2d 02 00 	movl   $0x22d,0x8(%esp)
    2b5b:	00 
    2b5c:	c7 44 24 04 23 1c 02 	movl   $0x21c23,0x4(%esp)
    2b63:	00 
    2b64:	c7 04 24 2b 1c 02 00 	movl   $0x21c2b,(%esp)
    2b6b:	e8 90 c9 01 00       	call   1f500 <assert_abort>
    2b70:	80 7f 14 00          	cmpb   $0x0,0x14(%edi)
    2b74:	75 84                	jne    2afa <block_put+0xda>
    2b76:	8d 47 4c             	lea    0x4c(%edi),%eax
    2b79:	89 44 24 04          	mov    %eax,0x4(%esp)
    2b7d:	8d 43 20             	lea    0x20(%ebx),%eax
    2b80:	89 04 24             	mov    %eax,(%esp)
    2b83:	e8 c8 86 01 00       	call   1b250 <hash_table_remove_item>
    2b88:	89 3c 24             	mov    %edi,(%esp)
    2b8b:	e8 a0 96 00 00       	call   c230 <fibril_mutex_unlock>
    2b90:	8b 47 54             	mov    0x54(%edi),%eax
    2b93:	89 04 24             	mov    %eax,(%esp)
    2b96:	e8 95 22 01 00       	call   14e30 <free>
    2b9b:	89 3c 24             	mov    %edi,(%esp)
    2b9e:	e8 8d 22 01 00       	call   14e30 <free>
    2ba3:	8b 73 1c             	mov    0x1c(%ebx),%esi
    2ba6:	4e                   	dec    %esi
    2ba7:	89 73 1c             	mov    %esi,0x1c(%ebx)
    2baa:	89 1c 24             	mov    %ebx,(%esp)
    2bad:	e8 7e 96 00 00       	call   c230 <fibril_mutex_unlock>
    2bb2:	8b 45 dc             	mov    -0x24(%ebp),%eax
    2bb5:	83 c4 3c             	add    $0x3c,%esp
    2bb8:	5b                   	pop    %ebx
    2bb9:	5e                   	pop    %esi
    2bba:	5f                   	pop    %edi
    2bbb:	5d                   	pop    %ebp
    2bbc:	c3                   	ret    
    2bbd:	8d 76 00             	lea    0x0(%esi),%esi
    2bc0:	4e                   	dec    %esi
    2bc1:	75 0a                	jne    2bcd <block_put+0x1ad>
    2bc3:	83 7d e0 14          	cmpl   $0x14,-0x20(%ebp)
    2bc7:	0f 86 db fe ff ff    	jbe    2aa8 <block_put+0x88>
    2bcd:	8b 47 38             	mov    0x38(%edi),%eax
    2bd0:	8b 57 3c             	mov    0x3c(%edi),%edx
    2bd3:	89 45 e0             	mov    %eax,-0x20(%ebp)
    2bd6:	8b 47 40             	mov    0x40(%edi),%eax
    2bd9:	8b 73 14             	mov    0x14(%ebx),%esi
    2bdc:	89 55 e4             	mov    %edx,-0x1c(%ebp)
    2bdf:	89 44 24 14          	mov    %eax,0x14(%esp)
    2be3:	8b 55 e4             	mov    -0x1c(%ebp),%edx
    2be6:	8b 47 54             	mov    0x54(%edi),%eax
    2be9:	89 54 24 08          	mov    %edx,0x8(%esp)
    2bed:	89 44 24 10          	mov    %eax,0x10(%esp)
    2bf1:	8b 55 d8             	mov    -0x28(%ebp),%edx
    2bf4:	8b 45 e0             	mov    -0x20(%ebp),%eax
    2bf7:	89 74 24 0c          	mov    %esi,0xc(%esp)
    2bfb:	89 44 24 04          	mov    %eax,0x4(%esp)
    2bff:	8b 42 10             	mov    0x10(%edx),%eax
    2c02:	89 04 24             	mov    %eax,(%esp)
    2c05:	e8 f6 27 00 00       	call   5400 <bd_write_blocks>
    2c0a:	89 45 dc             	mov    %eax,-0x24(%ebp)
    2c0d:	85 c0                	test   %eax,%eax
    2c0f:	0f 84 23 ff ff ff    	je     2b38 <block_put+0x118>
    2c15:	8b 55 d8             	mov    -0x28(%ebp),%edx
    2c18:	8b 42 08             	mov    0x8(%edx),%eax
    2c1b:	8b 55 e4             	mov    -0x1c(%ebp),%edx
    2c1e:	89 44 24 14          	mov    %eax,0x14(%esp)
    2c22:	8b 45 e0             	mov    -0x20(%ebp),%eax
    2c25:	89 44 24 0c          	mov    %eax,0xc(%esp)
    2c29:	8b 45 dc             	mov    -0x24(%ebp),%eax
    2c2c:	89 54 24 10          	mov    %edx,0x10(%esp)
    2c30:	89 74 24 08          	mov    %esi,0x8(%esp)
    2c34:	89 44 24 04          	mov    %eax,0x4(%esp)
    2c38:	c7 04 24 c0 1c 02 00 	movl   $0x21cc0,(%esp)
    2c3f:	e8 5c d4 00 00       	call   100a0 <printf>
    2c44:	e8 17 c8 01 00       	call   1f460 <stacktrace_print>
    2c49:	c6 47 14 00          	movb   $0x0,0x14(%edi)
    2c4d:	e9 56 fe ff ff       	jmp    2aa8 <block_put+0x88>
    2c52:	8d b6 00 00 00 00    	lea    0x0(%esi),%esi
    2c58:	8d 4b 3c             	lea    0x3c(%ebx),%ecx
    2c5b:	8d 47 44             	lea    0x44(%edi),%eax
    2c5e:	89 4f 48             	mov    %ecx,0x48(%edi)
    2c61:	8b 4b 3c             	mov    0x3c(%ebx),%ecx
    2c64:	89 4f 44             	mov    %ecx,0x44(%edi)
    2c67:	8b 4b 3c             	mov    0x3c(%ebx),%ecx
    2c6a:	89 43 3c             	mov    %eax,0x3c(%ebx)
    2c6d:	89 41 04             	mov    %eax,0x4(%ecx)
    2c70:	89 3c 24             	mov    %edi,(%esp)
    2c73:	e8 b8 95 00 00       	call   c230 <fibril_mutex_unlock>
    2c78:	89 1c 24             	mov    %ebx,(%esp)
    2c7b:	e8 b0 95 00 00       	call   c230 <fibril_mutex_unlock>
    2c80:	8b 45 dc             	mov    -0x24(%ebp),%eax
    2c83:	83 c4 3c             	add    $0x3c,%esp
    2c86:	5b                   	pop    %ebx
    2c87:	5e                   	pop    %esi
    2c88:	5f                   	pop    %edi
    2c89:	5d                   	pop    %ebp
    2c8a:	c3                   	ret    
    2c8b:	c7 44 24 08 2e 02 00 	movl   $0x22e,0x8(%esp)
    2c92:	00 
    2c93:	c7 44 24 04 23 1c 02 	movl   $0x21c23,0x4(%esp)
    2c9a:	00 
    2c9b:	c7 04 24 32 1c 02 00 	movl   $0x21c32,(%esp)
    2ca2:	e8 59 c8 01 00       	call   1f500 <assert_abort>
    2ca7:	c7 44 24 08 2f 02 00 	movl   $0x22f,0x8(%esp)
    2cae:	00 
    2caf:	c7 44 24 04 23 1c 02 	movl   $0x21c23,0x4(%esp)
    2cb6:	00 
    2cb7:	c7 04 24 40 1c 02 00 	movl   $0x21c40,(%esp)
    2cbe:	e8 3d c8 01 00       	call   1f500 <assert_abort>
    2cc3:	8d b6 00 00 00 00    	lea    0x0(%esi),%esi
    2cc9:	8d bc 27 00 00 00 00 	lea    0x0(%edi,%eiz,1),%edi

00002cd0 <block_get>:
    2cd0:	55                   	push   %ebp
    2cd1:	89 e5                	mov    %esp,%ebp
    2cd3:	57                   	push   %edi
    2cd4:	56                   	push   %esi
    2cd5:	53                   	push   %ebx
    2cd6:	83 ec 5c             	sub    $0x5c,%esp
    2cd9:	8b 45 10             	mov    0x10(%ebp),%eax
    2cdc:	89 45 e0             	mov    %eax,-0x20(%ebp)
    2cdf:	c7 04 24 18 47 02 00 	movl   $0x24718,(%esp)
    2ce6:	8b 45 14             	mov    0x14(%ebp),%eax
    2ce9:	89 45 e4             	mov    %eax,-0x1c(%ebp)
    2cec:	e8 1f 94 00 00       	call   c110 <fibril_mutex_lock>
    2cf1:	8b 35 2c 47 02 00    	mov    0x2472c,%esi
    2cf7:	81 fe 28 47 02 00    	cmp    $0x24728,%esi
    2cfd:	74 21                	je     2d20 <block_get+0x50>
    2cff:	8b 55 0c             	mov    0xc(%ebp),%edx
    2d02:	89 d0                	mov    %edx,%eax
    2d04:	3b 56 08             	cmp    0x8(%esi),%edx
    2d07:	75 0c                	jne    2d15 <block_get+0x45>
    2d09:	eb 3d                	jmp    2d48 <block_get+0x78>
    2d0b:	90                   	nop
    2d0c:	8d 74 26 00          	lea    0x0(%esi,%eiz,1),%esi
    2d10:	3b 46 08             	cmp    0x8(%esi),%eax
    2d13:	74 33                	je     2d48 <block_get+0x78>
    2d15:	8b 76 04             	mov    0x4(%esi),%esi
    2d18:	81 fe 28 47 02 00    	cmp    $0x24728,%esi
    2d1e:	75 f0                	jne    2d10 <block_get+0x40>
    2d20:	c7 04 24 18 47 02 00 	movl   $0x24718,(%esp)
    2d27:	e8 04 95 00 00       	call   c230 <fibril_mutex_unlock>
    2d2c:	c7 44 24 08 80 01 00 	movl   $0x180,0x8(%esp)
    2d33:	00 
    2d34:	c7 44 24 04 23 1c 02 	movl   $0x21c23,0x4(%esp)
    2d3b:	00 
    2d3c:	c7 04 24 2b 1c 02 00 	movl   $0x21c2b,(%esp)
    2d43:	e8 b8 c7 01 00       	call   1f500 <assert_abort>
    2d48:	c7 04 24 18 47 02 00 	movl   $0x24718,(%esp)
    2d4f:	e8 dc 94 00 00       	call   c230 <fibril_mutex_unlock>
    2d54:	8b 5e 24             	mov    0x24(%esi),%ebx
    2d57:	85 db                	test   %ebx,%ebx
    2d59:	0f 84 36 04 00 00    	je     3195 <block_get+0x4c5>
    2d5f:	8d 4b 20             	lea    0x20(%ebx),%ecx
    2d62:	8d 53 3c             	lea    0x3c(%ebx),%edx
    2d65:	89 4d c8             	mov    %ecx,-0x38(%ebp)
    2d68:	89 55 d8             	mov    %edx,-0x28(%ebp)
    2d6b:	89 75 cc             	mov    %esi,-0x34(%ebp)
    2d6e:	66 90                	xchg   %ax,%ax
    2d70:	89 1c 24             	mov    %ebx,(%esp)
    2d73:	e8 98 93 00 00       	call   c110 <fibril_mutex_lock>
    2d78:	8d 4d e0             	lea    -0x20(%ebp),%ecx
    2d7b:	89 4c 24 04          	mov    %ecx,0x4(%esp)
    2d7f:	8b 4d c8             	mov    -0x38(%ebp),%ecx
    2d82:	89 0c 24             	mov    %ecx,(%esp)
    2d85:	e8 46 82 01 00       	call   1afd0 <hash_table_find>
    2d8a:	85 c0                	test   %eax,%eax
    2d8c:	0f 85 9b 01 00 00    	jne    2f2d <block_get+0x25d>
    2d92:	83 7b 1c 09          	cmpl   $0x9,0x1c(%ebx)
    2d96:	0f 86 c4 00 00 00    	jbe    2e60 <block_get+0x190>
    2d9c:	8b 53 40             	mov    0x40(%ebx),%edx
    2d9f:	3b 55 d8             	cmp    -0x28(%ebp),%edx
    2da2:	0f 84 b8 00 00 00    	je     2e60 <block_get+0x190>
    2da8:	8d 72 bc             	lea    -0x44(%edx),%esi
    2dab:	89 34 24             	mov    %esi,(%esp)
    2dae:	e8 5d 93 00 00       	call   c110 <fibril_mutex_lock>
    2db3:	80 7e 14 00          	cmpb   $0x0,0x14(%esi)
    2db7:	0f 84 13 02 00 00    	je     2fd0 <block_get+0x300>
    2dbd:	8b 4e 44             	mov    0x44(%esi),%ecx
    2dc0:	85 c9                	test   %ecx,%ecx
    2dc2:	74 0f                	je     2dd3 <block_get+0x103>
    2dc4:	8b 46 48             	mov    0x48(%esi),%eax
    2dc7:	85 c0                	test   %eax,%eax
    2dc9:	74 08                	je     2dd3 <block_get+0x103>
    2dcb:	89 08                	mov    %ecx,(%eax)
    2dcd:	8b 4e 44             	mov    0x44(%esi),%ecx
    2dd0:	89 41 04             	mov    %eax,0x4(%ecx)
    2dd3:	c7 46 44 00 00 00 00 	movl   $0x0,0x44(%esi)
    2dda:	8d 46 44             	lea    0x44(%esi),%eax
    2ddd:	8b 4b 3c             	mov    0x3c(%ebx),%ecx
    2de0:	8b 55 d8             	mov    -0x28(%ebp),%edx
    2de3:	89 4e 44             	mov    %ecx,0x44(%esi)
    2de6:	89 56 48             	mov    %edx,0x48(%esi)
    2de9:	8b 4b 3c             	mov    0x3c(%ebx),%ecx
    2dec:	89 43 3c             	mov    %eax,0x3c(%ebx)
    2def:	89 41 04             	mov    %eax,0x4(%ecx)
    2df2:	89 1c 24             	mov    %ebx,(%esp)
    2df5:	e8 36 94 00 00       	call   c230 <fibril_mutex_unlock>
    2dfa:	8b 46 40             	mov    0x40(%esi),%eax
    2dfd:	8b 4e 3c             	mov    0x3c(%esi),%ecx
    2e00:	8b 56 38             	mov    0x38(%esi),%edx
    2e03:	8b 7b 14             	mov    0x14(%ebx),%edi
    2e06:	89 44 24 14          	mov    %eax,0x14(%esp)
    2e0a:	8b 46 54             	mov    0x54(%esi),%eax
    2e0d:	89 4d d4             	mov    %ecx,-0x2c(%ebp)
    2e10:	89 4c 24 08          	mov    %ecx,0x8(%esp)
    2e14:	8b 4d cc             	mov    -0x34(%ebp),%ecx
    2e17:	89 44 24 10          	mov    %eax,0x10(%esp)
    2e1b:	89 7c 24 0c          	mov    %edi,0xc(%esp)
    2e1f:	89 54 24 04          	mov    %edx,0x4(%esp)
    2e23:	89 55 d0             	mov    %edx,-0x30(%ebp)
    2e26:	8b 41 10             	mov    0x10(%ecx),%eax
    2e29:	89 04 24             	mov    %eax,(%esp)
    2e2c:	e8 cf 25 00 00       	call   5400 <bd_write_blocks>
    2e31:	85 c0                	test   %eax,%eax
    2e33:	0f 85 87 00 00 00    	jne    2ec0 <block_get+0x1f0>
    2e39:	c6 46 14 00          	movb   $0x0,0x14(%esi)
    2e3d:	89 1c 24             	mov    %ebx,(%esp)
    2e40:	e8 9b 93 00 00       	call   c1e0 <fibril_mutex_trylock>
    2e45:	84 c0                	test   %al,%al
    2e47:	0f 85 b3 00 00 00    	jne    2f00 <block_get+0x230>
    2e4d:	89 34 24             	mov    %esi,(%esp)
    2e50:	e8 db 93 00 00       	call   c230 <fibril_mutex_unlock>
    2e55:	e9 16 ff ff ff       	jmp    2d70 <block_get+0xa0>
    2e5a:	8d b6 00 00 00 00    	lea    0x0(%esi),%esi
    2e60:	c7 04 24 58 00 00 00 	movl   $0x58,(%esp)
    2e67:	e8 b4 1e 01 00       	call   14d20 <malloc>
    2e6c:	89 c6                	mov    %eax,%esi
    2e6e:	85 c0                	test   %eax,%eax
    2e70:	74 1e                	je     2e90 <block_get+0x1c0>
    2e72:	8b 43 10             	mov    0x10(%ebx),%eax
    2e75:	89 04 24             	mov    %eax,(%esp)
    2e78:	e8 a3 1e 01 00       	call   14d20 <malloc>
    2e7d:	89 46 54             	mov    %eax,0x54(%esi)
    2e80:	85 c0                	test   %eax,%eax
    2e82:	0f 85 c4 02 00 00    	jne    314c <block_get+0x47c>
    2e88:	89 34 24             	mov    %esi,(%esp)
    2e8b:	e8 a0 1f 01 00       	call   14e30 <free>
    2e90:	8b 53 40             	mov    0x40(%ebx),%edx
    2e93:	3b 55 d8             	cmp    -0x28(%ebp),%edx
    2e96:	0f 85 0c ff ff ff    	jne    2da8 <block_get+0xd8>
    2e9c:	89 1c 24             	mov    %ebx,(%esp)
    2e9f:	31 ff                	xor    %edi,%edi
    2ea1:	e8 8a 93 00 00       	call   c230 <fibril_mutex_unlock>
    2ea6:	b9 fe ff ff ff       	mov    $0xfffffffe,%ecx
    2eab:	8b 45 08             	mov    0x8(%ebp),%eax
    2eae:	89 38                	mov    %edi,(%eax)
    2eb0:	83 c4 5c             	add    $0x5c,%esp
    2eb3:	89 c8                	mov    %ecx,%eax
    2eb5:	5b                   	pop    %ebx
    2eb6:	5e                   	pop    %esi
    2eb7:	5f                   	pop    %edi
    2eb8:	5d                   	pop    %ebp
    2eb9:	c3                   	ret    
    2eba:	8d b6 00 00 00 00    	lea    0x0(%esi),%esi
    2ec0:	8b 4d cc             	mov    -0x34(%ebp),%ecx
    2ec3:	8b 51 08             	mov    0x8(%ecx),%edx
    2ec6:	8b 4d d4             	mov    -0x2c(%ebp),%ecx
    2ec9:	89 54 24 14          	mov    %edx,0x14(%esp)
    2ecd:	8b 55 d0             	mov    -0x30(%ebp),%edx
    2ed0:	89 54 24 0c          	mov    %edx,0xc(%esp)
    2ed4:	89 4c 24 10          	mov    %ecx,0x10(%esp)
    2ed8:	89 7c 24 08          	mov    %edi,0x8(%esp)
    2edc:	89 44 24 04          	mov    %eax,0x4(%esp)
    2ee0:	c7 04 24 c0 1c 02 00 	movl   $0x21cc0,(%esp)
    2ee7:	e8 b4 d1 00 00       	call   100a0 <printf>
    2eec:	e8 6f c5 01 00       	call   1f460 <stacktrace_print>
    2ef1:	89 34 24             	mov    %esi,(%esp)
    2ef4:	e8 37 93 00 00       	call   c230 <fibril_mutex_unlock>
    2ef9:	e9 72 fe ff ff       	jmp    2d70 <block_get+0xa0>
    2efe:	66 90                	xchg   %ax,%ax
    2f00:	8d 4d e0             	lea    -0x20(%ebp),%ecx
    2f03:	89 f7                	mov    %esi,%edi
    2f05:	89 4c 24 04          	mov    %ecx,0x4(%esp)
    2f09:	8b 4d c8             	mov    -0x38(%ebp),%ecx
    2f0c:	89 0c 24             	mov    %ecx,(%esp)
    2f0f:	8b 75 cc             	mov    -0x34(%ebp),%esi
    2f12:	e8 b9 80 01 00       	call   1afd0 <hash_table_find>
    2f17:	85 c0                	test   %eax,%eax
    2f19:	0f 84 b6 00 00 00    	je     2fd5 <block_get+0x305>
    2f1f:	89 3c 24             	mov    %edi,(%esp)
    2f22:	89 45 c0             	mov    %eax,-0x40(%ebp)
    2f25:	e8 06 93 00 00       	call   c230 <fibril_mutex_unlock>
    2f2a:	8b 45 c0             	mov    -0x40(%ebp),%eax
    2f2d:	8d 78 b4             	lea    -0x4c(%eax),%edi
    2f30:	89 3c 24             	mov    %edi,(%esp)
    2f33:	e8 d8 91 00 00       	call   c110 <fibril_mutex_lock>
    2f38:	8b 47 10             	mov    0x10(%edi),%eax
    2f3b:	8d 50 01             	lea    0x1(%eax),%edx
    2f3e:	85 c0                	test   %eax,%eax
    2f40:	89 57 10             	mov    %edx,0x10(%edi)
    2f43:	75 24                	jne    2f69 <block_get+0x299>
    2f45:	8b 57 44             	mov    0x44(%edi),%edx
    2f48:	85 d2                	test   %edx,%edx
    2f4a:	74 0f                	je     2f5b <block_get+0x28b>
    2f4c:	8b 47 48             	mov    0x48(%edi),%eax
    2f4f:	85 c0                	test   %eax,%eax
    2f51:	74 08                	je     2f5b <block_get+0x28b>
    2f53:	89 10                	mov    %edx,(%eax)
    2f55:	8b 57 44             	mov    0x44(%edi),%edx
    2f58:	89 42 04             	mov    %eax,0x4(%edx)
    2f5b:	c7 47 44 00 00 00 00 	movl   $0x0,0x44(%edi)
    2f62:	c7 47 48 00 00 00 00 	movl   $0x0,0x48(%edi)
    2f69:	80 7f 15 01          	cmpb   $0x1,0x15(%edi)
    2f6d:	19 c0                	sbb    %eax,%eax
    2f6f:	40                   	inc    %eax
    2f70:	80 7f 15 01          	cmpb   $0x1,0x15(%edi)
    2f74:	19 c9                	sbb    %ecx,%ecx
    2f76:	89 3c 24             	mov    %edi,(%esp)
    2f79:	83 f1 ff             	xor    $0xffffffff,%ecx
    2f7c:	88 45 c0             	mov    %al,-0x40(%ebp)
    2f7f:	81 e1 f7 fe ff ff    	and    $0xfffffef7,%ecx
    2f85:	89 4d c4             	mov    %ecx,-0x3c(%ebp)
    2f88:	e8 a3 92 00 00       	call   c230 <fibril_mutex_unlock>
    2f8d:	89 1c 24             	mov    %ebx,(%esp)
    2f90:	e8 9b 92 00 00       	call   c230 <fibril_mutex_unlock>
    2f95:	8a 45 c0             	mov    -0x40(%ebp),%al
    2f98:	8b 4d c4             	mov    -0x3c(%ebp),%ecx
    2f9b:	84 c0                	test   %al,%al
    2f9d:	0f 84 08 ff ff ff    	je     2eab <block_get+0x1db>
    2fa3:	80 7f 15 00          	cmpb   $0x0,0x15(%edi)
    2fa7:	0f 84 b0 01 00 00    	je     315d <block_get+0x48d>
    2fad:	89 3c 24             	mov    %edi,(%esp)
    2fb0:	89 4d c4             	mov    %ecx,-0x3c(%ebp)
    2fb3:	e8 68 fa ff ff       	call   2a20 <block_put>
    2fb8:	8b 45 08             	mov    0x8(%ebp),%eax
    2fbb:	31 ff                	xor    %edi,%edi
    2fbd:	8b 4d c4             	mov    -0x3c(%ebp),%ecx
    2fc0:	89 38                	mov    %edi,(%eax)
    2fc2:	83 c4 5c             	add    $0x5c,%esp
    2fc5:	89 c8                	mov    %ecx,%eax
    2fc7:	5b                   	pop    %ebx
    2fc8:	5e                   	pop    %esi
    2fc9:	5f                   	pop    %edi
    2fca:	5d                   	pop    %ebp
    2fcb:	c3                   	ret    
    2fcc:	8d 74 26 00          	lea    0x0(%esi,%eiz,1),%esi
    2fd0:	89 f7                	mov    %esi,%edi
    2fd2:	8b 75 cc             	mov    -0x34(%ebp),%esi
    2fd5:	89 3c 24             	mov    %edi,(%esp)
    2fd8:	e8 53 92 00 00       	call   c230 <fibril_mutex_unlock>
    2fdd:	8b 57 44             	mov    0x44(%edi),%edx
    2fe0:	85 d2                	test   %edx,%edx
    2fe2:	74 0f                	je     2ff3 <block_get+0x323>
    2fe4:	8b 47 48             	mov    0x48(%edi),%eax
    2fe7:	85 c0                	test   %eax,%eax
    2fe9:	74 08                	je     2ff3 <block_get+0x323>
    2feb:	89 10                	mov    %edx,(%eax)
    2fed:	8b 57 44             	mov    0x44(%edi),%edx
    2ff0:	89 42 04             	mov    %eax,0x4(%edx)
    2ff3:	8d 47 4c             	lea    0x4c(%edi),%eax
    2ff6:	8b 4d c8             	mov    -0x38(%ebp),%ecx
    2ff9:	c7 47 44 00 00 00 00 	movl   $0x0,0x44(%edi)
    3000:	c7 47 48 00 00 00 00 	movl   $0x0,0x48(%edi)
    3007:	89 44 24 04          	mov    %eax,0x4(%esp)
    300b:	89 0c 24             	mov    %ecx,(%esp)
    300e:	e8 3d 82 01 00       	call   1b250 <hash_table_remove_item>
    3013:	89 3c 24             	mov    %edi,(%esp)
    3016:	e8 d5 90 00 00       	call   c0f0 <fibril_mutex_initialize>
    301b:	8d 47 18             	lea    0x18(%edi),%eax
    301e:	c7 47 10 01 00 00 00 	movl   $0x1,0x10(%edi)
    3025:	c6 47 14 00          	movb   $0x0,0x14(%edi)
    3029:	c6 47 15 00          	movb   $0x0,0x15(%edi)
    302d:	89 04 24             	mov    %eax,(%esp)
    3030:	e8 4b 93 00 00       	call   c380 <fibril_rwlock_initialize>
    3035:	8b 4d e0             	mov    -0x20(%ebp),%ecx
    3038:	8b 43 10             	mov    0x10(%ebx),%eax
    303b:	89 4d d8             	mov    %ecx,-0x28(%ebp)
    303e:	c7 47 44 00 00 00 00 	movl   $0x0,0x44(%edi)
    3045:	c7 47 48 00 00 00 00 	movl   $0x0,0x48(%edi)
    304c:	89 47 40             	mov    %eax,0x40(%edi)
    304f:	8b 45 d8             	mov    -0x28(%ebp),%eax
    3052:	8b 55 0c             	mov    0xc(%ebp),%edx
    3055:	8b 4d e4             	mov    -0x1c(%ebp),%ecx
    3058:	89 47 30             	mov    %eax,0x30(%edi)
    305b:	8b 46 24             	mov    0x24(%esi),%eax
    305e:	89 57 2c             	mov    %edx,0x2c(%edi)
    3061:	89 4f 34             	mov    %ecx,0x34(%edi)
    3064:	85 c0                	test   %eax,%eax
    3066:	0f 84 0d 01 00 00    	je     3179 <block_get+0x4a9>
    306c:	8b 40 14             	mov    0x14(%eax),%eax
    306f:	0f af c8             	imul   %eax,%ecx
    3072:	f7 65 d8             	mull   -0x28(%ebp)
    3075:	01 ca                	add    %ecx,%edx
    3077:	89 47 38             	mov    %eax,0x38(%edi)
    307a:	8b 4d c8             	mov    -0x38(%ebp),%ecx
    307d:	8d 47 4c             	lea    0x4c(%edi),%eax
    3080:	89 57 3c             	mov    %edx,0x3c(%edi)
    3083:	89 44 24 04          	mov    %eax,0x4(%esp)
    3087:	89 0c 24             	mov    %ecx,(%esp)
    308a:	e8 11 7d 01 00       	call   1ada0 <hash_table_insert>
    308f:	89 3c 24             	mov    %edi,(%esp)
    3092:	e8 79 90 00 00       	call   c110 <fibril_mutex_lock>
    3097:	89 1c 24             	mov    %ebx,(%esp)
    309a:	e8 91 91 00 00       	call   c230 <fibril_mutex_unlock>
    309f:	f6 45 18 01          	testb  $0x1,0x18(%ebp)
    30a3:	74 1d                	je     30c2 <block_get+0x3f2>
    30a5:	31 c0                	xor    %eax,%eax
    30a7:	31 c9                	xor    %ecx,%ecx
    30a9:	89 3c 24             	mov    %edi,(%esp)
    30ac:	88 45 c0             	mov    %al,-0x40(%ebp)
    30af:	89 4d c4             	mov    %ecx,-0x3c(%ebp)
    30b2:	e8 79 91 00 00       	call   c230 <fibril_mutex_unlock>
    30b7:	8b 4d c4             	mov    -0x3c(%ebp),%ecx
    30ba:	8a 45 c0             	mov    -0x40(%ebp),%al
    30bd:	e9 d9 fe ff ff       	jmp    2f9b <block_get+0x2cb>
    30c2:	8b 53 14             	mov    0x14(%ebx),%edx
    30c5:	8b 4f 3c             	mov    0x3c(%edi),%ecx
    30c8:	8b 43 10             	mov    0x10(%ebx),%eax
    30cb:	89 55 d0             	mov    %edx,-0x30(%ebp)
    30ce:	8b 57 38             	mov    0x38(%edi),%edx
    30d1:	89 4d dc             	mov    %ecx,-0x24(%ebp)
    30d4:	89 44 24 14          	mov    %eax,0x14(%esp)
    30d8:	8b 4d d0             	mov    -0x30(%ebp),%ecx
    30db:	89 55 d8             	mov    %edx,-0x28(%ebp)
    30de:	8b 47 54             	mov    0x54(%edi),%eax
    30e1:	8b 55 d8             	mov    -0x28(%ebp),%edx
    30e4:	89 4c 24 0c          	mov    %ecx,0xc(%esp)
    30e8:	8b 4d dc             	mov    -0x24(%ebp),%ecx
    30eb:	89 44 24 10          	mov    %eax,0x10(%esp)
    30ef:	89 4c 24 08          	mov    %ecx,0x8(%esp)
    30f3:	89 54 24 04          	mov    %edx,0x4(%esp)
    30f7:	8b 46 10             	mov    0x10(%esi),%eax
    30fa:	89 04 24             	mov    %eax,(%esp)
    30fd:	e8 8e 21 00 00       	call   5290 <bd_read_blocks>
    3102:	89 c1                	mov    %eax,%ecx
    3104:	31 c0                	xor    %eax,%eax
    3106:	85 c9                	test   %ecx,%ecx
    3108:	74 9f                	je     30a9 <block_get+0x3d9>
    310a:	8b 46 08             	mov    0x8(%esi),%eax
    310d:	8b 55 dc             	mov    -0x24(%ebp),%edx
    3110:	89 44 24 14          	mov    %eax,0x14(%esp)
    3114:	89 54 24 10          	mov    %edx,0x10(%esp)
    3118:	8b 45 d8             	mov    -0x28(%ebp),%eax
    311b:	8b 55 d0             	mov    -0x30(%ebp),%edx
    311e:	89 4c 24 04          	mov    %ecx,0x4(%esp)
    3122:	89 54 24 08          	mov    %edx,0x8(%esp)
    3126:	89 44 24 0c          	mov    %eax,0xc(%esp)
    312a:	c7 04 24 74 1c 02 00 	movl   $0x21c74,(%esp)
    3131:	89 4d c4             	mov    %ecx,-0x3c(%ebp)
    3134:	e8 67 cf 00 00       	call   100a0 <printf>
    3139:	e8 22 c3 01 00       	call   1f460 <stacktrace_print>
    313e:	c6 47 15 01          	movb   $0x1,0x15(%edi)
    3142:	b0 01                	mov    $0x1,%al
    3144:	8b 4d c4             	mov    -0x3c(%ebp),%ecx
    3147:	e9 5d ff ff ff       	jmp    30a9 <block_get+0x3d9>
    314c:	8b 43 1c             	mov    0x1c(%ebx),%eax
    314f:	89 f7                	mov    %esi,%edi
    3151:	40                   	inc    %eax
    3152:	8b 75 cc             	mov    -0x34(%ebp),%esi
    3155:	89 43 1c             	mov    %eax,0x1c(%ebx)
    3158:	e9 b6 fe ff ff       	jmp    3013 <block_get+0x343>
    315d:	c7 44 24 08 15 02 00 	movl   $0x215,0x8(%esp)
    3164:	00 
    3165:	c7 44 24 04 23 1c 02 	movl   $0x21c23,0x4(%esp)
    316c:	00 
    316d:	c7 04 24 69 1c 02 00 	movl   $0x21c69,(%esp)
    3174:	e8 87 c3 01 00       	call   1f500 <assert_abort>
    3179:	c7 44 24 08 96 03 00 	movl   $0x396,0x8(%esp)
    3180:	00 
    3181:	c7 44 24 04 23 1c 02 	movl   $0x21c23,0x4(%esp)
    3188:	00 
    3189:	c7 04 24 53 1c 02 00 	movl   $0x21c53,(%esp)
    3190:	e8 6b c3 01 00       	call   1f500 <assert_abort>
    3195:	c7 44 24 08 81 01 00 	movl   $0x181,0x8(%esp)
    319c:	00 
    319d:	c7 44 24 04 23 1c 02 	movl   $0x21c23,0x4(%esp)
    31a4:	00 
    31a5:	c7 04 24 32 1c 02 00 	movl   $0x21c32,(%esp)
    31ac:	e8 4f c3 01 00       	call   1f500 <assert_abort>
    31b1:	eb 0d                	jmp    31c0 <block_seqread>
    31b3:	90                   	nop
    31b4:	90                   	nop
    31b5:	90                   	nop
    31b6:	90                   	nop
    31b7:	90                   	nop
    31b8:	90                   	nop
    31b9:	90                   	nop
    31ba:	90                   	nop
    31bb:	90                   	nop
    31bc:	90                   	nop
    31bd:	90                   	nop
    31be:	90                   	nop
    31bf:	90                   	nop

000031c0 <block_seqread>:
    31c0:	55                   	push   %ebp
    31c1:	89 e5                	mov    %esp,%ebp
    31c3:	57                   	push   %edi
    31c4:	56                   	push   %esi
    31c5:	53                   	push   %ebx
    31c6:	83 ec 3c             	sub    $0x3c,%esp
    31c9:	8b 5d 08             	mov    0x8(%ebp),%ebx
    31cc:	c7 04 24 18 47 02 00 	movl   $0x24718,(%esp)
    31d3:	e8 38 8f 00 00       	call   c110 <fibril_mutex_lock>
    31d8:	8b 0d 2c 47 02 00    	mov    0x2472c,%ecx
    31de:	81 f9 28 47 02 00    	cmp    $0x24728,%ecx
    31e4:	75 19                	jne    31ff <block_seqread+0x3f>
    31e6:	e9 45 01 00 00       	jmp    3330 <block_seqread+0x170>
    31eb:	90                   	nop
    31ec:	8d 74 26 00          	lea    0x0(%esi,%eiz,1),%esi
    31f0:	8b 49 04             	mov    0x4(%ecx),%ecx
    31f3:	81 f9 28 47 02 00    	cmp    $0x24728,%ecx
    31f9:	0f 84 31 01 00 00    	je     3330 <block_seqread+0x170>
    31ff:	3b 59 08             	cmp    0x8(%ecx),%ebx
    3202:	75 ec                	jne    31f0 <block_seqread+0x30>
    3204:	c7 04 24 18 47 02 00 	movl   $0x24718,(%esp)
    320b:	89 4d d8             	mov    %ecx,-0x28(%ebp)
    320e:	e8 1d 90 00 00       	call   c230 <fibril_mutex_unlock>
    3213:	8b 4d d8             	mov    -0x28(%ebp),%ecx
    3216:	8b 5d 20             	mov    0x20(%ebp),%ebx
    3219:	8b 71 20             	mov    0x20(%ecx),%esi
    321c:	89 75 dc             	mov    %esi,-0x24(%ebp)
    321f:	85 db                	test   %ebx,%ebx
    3221:	0f 84 f9 00 00 00    	je     3320 <block_seqread+0x160>
    3227:	8b 7d 14             	mov    0x14(%ebp),%edi
    322a:	89 4d e0             	mov    %ecx,-0x20(%ebp)
    322d:	8b 5d 20             	mov    0x20(%ebp),%ebx
    3230:	c7 45 e4 00 00 00 00 	movl   $0x0,-0x1c(%ebp)
    3237:	8b 07                	mov    (%edi),%eax
    3239:	8b 4d 10             	mov    0x10(%ebp),%ecx
    323c:	eb 18                	jmp    3256 <block_seqread+0x96>
    323e:	66 90                	xchg   %ax,%ax
    3240:	89 c7                	mov    %eax,%edi
    3242:	29 f7                	sub    %esi,%edi
    3244:	0f 85 4f 01 00 00    	jne    3399 <block_seqread+0x1d9>
    324a:	39 c6                	cmp    %eax,%esi
    324c:	74 5b                	je     32a9 <block_seqread+0xe9>
    324e:	85 db                	test   %ebx,%ebx
    3250:	0f 84 ca 00 00 00    	je     3320 <block_seqread+0x160>
    3256:	8b 31                	mov    (%ecx),%esi
    3258:	8d 14 33             	lea    (%ebx,%esi,1),%edx
    325b:	39 c2                	cmp    %eax,%edx
    325d:	73 e1                	jae    3240 <block_seqread+0x80>
    325f:	89 df                	mov    %ebx,%edi
    3261:	31 db                	xor    %ebx,%ebx
    3263:	8b 45 0c             	mov    0xc(%ebp),%eax
    3266:	8b 55 e4             	mov    -0x1c(%ebp),%edx
    3269:	01 c6                	add    %eax,%esi
    326b:	8b 45 1c             	mov    0x1c(%ebp),%eax
    326e:	01 d0                	add    %edx,%eax
    3270:	89 7c 24 08          	mov    %edi,0x8(%esp)
    3274:	89 74 24 04          	mov    %esi,0x4(%esp)
    3278:	89 04 24             	mov    %eax,(%esp)
    327b:	89 4d d8             	mov    %ecx,-0x28(%ebp)
    327e:	e8 5d 4e 00 00       	call   80e0 <memcpy>
    3283:	8b 4d e4             	mov    -0x1c(%ebp),%ecx
    3286:	89 f8                	mov    %edi,%eax
    3288:	01 f9                	add    %edi,%ecx
    328a:	31 d2                	xor    %edx,%edx
    328c:	89 4d e4             	mov    %ecx,-0x1c(%ebp)
    328f:	8b 4d d8             	mov    -0x28(%ebp),%ecx
    3292:	8b 31                	mov    (%ecx),%esi
    3294:	01 fe                	add    %edi,%esi
    3296:	8b 7d 18             	mov    0x18(%ebp),%edi
    3299:	89 31                	mov    %esi,(%ecx)
    329b:	01 07                	add    %eax,(%edi)
    329d:	11 57 04             	adc    %edx,0x4(%edi)
    32a0:	8b 7d 14             	mov    0x14(%ebp),%edi
    32a3:	8b 07                	mov    (%edi),%eax
    32a5:	39 c6                	cmp    %eax,%esi
    32a7:	75 a5                	jne    324e <block_seqread+0x8e>
    32a9:	8b 7d 18             	mov    0x18(%ebp),%edi
    32ac:	8b 75 dc             	mov    -0x24(%ebp),%esi
    32af:	89 74 24 08          	mov    %esi,0x8(%esp)
    32b3:	c7 44 24 0c 00 00 00 	movl   $0x0,0xc(%esp)
    32ba:	00 
    32bb:	8b 07                	mov    (%edi),%eax
    32bd:	8b 57 04             	mov    0x4(%edi),%edx
    32c0:	89 54 24 04          	mov    %edx,0x4(%esp)
    32c4:	89 04 24             	mov    %eax,(%esp)
    32c7:	89 4d d8             	mov    %ecx,-0x28(%ebp)
    32ca:	e8 21 e1 01 00       	call   213f0 <__udivdi3>
    32cf:	89 d7                	mov    %edx,%edi
    32d1:	8b 55 e0             	mov    -0x20(%ebp),%edx
    32d4:	89 c6                	mov    %eax,%esi
    32d6:	8b 42 20             	mov    0x20(%edx),%eax
    32d9:	c7 44 24 0c 01 00 00 	movl   $0x1,0xc(%esp)
    32e0:	00 
    32e1:	89 44 24 14          	mov    %eax,0x14(%esp)
    32e5:	8b 45 0c             	mov    0xc(%ebp),%eax
    32e8:	89 44 24 10          	mov    %eax,0x10(%esp)
    32ec:	89 74 24 04          	mov    %esi,0x4(%esp)
    32f0:	89 7c 24 08          	mov    %edi,0x8(%esp)
    32f4:	8b 42 10             	mov    0x10(%edx),%eax
    32f7:	89 04 24             	mov    %eax,(%esp)
    32fa:	e8 91 1f 00 00       	call   5290 <bd_read_blocks>
    32ff:	8b 4d d8             	mov    -0x28(%ebp),%ecx
    3302:	85 c0                	test   %eax,%eax
    3304:	75 52                	jne    3358 <block_seqread+0x198>
    3306:	8b 75 14             	mov    0x14(%ebp),%esi
    3309:	8b 7d dc             	mov    -0x24(%ebp),%edi
    330c:	c7 01 00 00 00 00    	movl   $0x0,(%ecx)
    3312:	89 f8                	mov    %edi,%eax
    3314:	89 3e                	mov    %edi,(%esi)
    3316:	85 db                	test   %ebx,%ebx
    3318:	0f 85 38 ff ff ff    	jne    3256 <block_seqread+0x96>
    331e:	66 90                	xchg   %ax,%ax
    3320:	83 c4 3c             	add    $0x3c,%esp
    3323:	31 d2                	xor    %edx,%edx
    3325:	89 d0                	mov    %edx,%eax
    3327:	5b                   	pop    %ebx
    3328:	5e                   	pop    %esi
    3329:	5f                   	pop    %edi
    332a:	5d                   	pop    %ebp
    332b:	c3                   	ret    
    332c:	8d 74 26 00          	lea    0x0(%esi,%eiz,1),%esi
    3330:	c7 04 24 18 47 02 00 	movl   $0x24718,(%esp)
    3337:	e8 f4 8e 00 00       	call   c230 <fibril_mutex_unlock>
    333c:	c7 44 24 08 9c 02 00 	movl   $0x29c,0x8(%esp)
    3343:	00 
    3344:	c7 44 24 04 23 1c 02 	movl   $0x21c23,0x4(%esp)
    334b:	00 
    334c:	c7 04 24 2b 1c 02 00 	movl   $0x21c2b,(%esp)
    3353:	e8 a8 c1 01 00       	call   1f500 <assert_abort>
    3358:	8b 4d e0             	mov    -0x20(%ebp),%ecx
    335b:	89 c2                	mov    %eax,%edx
    335d:	8b 41 08             	mov    0x8(%ecx),%eax
    3360:	89 54 24 04          	mov    %edx,0x4(%esp)
    3364:	89 74 24 0c          	mov    %esi,0xc(%esp)
    3368:	89 7c 24 10          	mov    %edi,0x10(%esp)
    336c:	89 44 24 14          	mov    %eax,0x14(%esp)
    3370:	c7 44 24 08 01 00 00 	movl   $0x1,0x8(%esp)
    3377:	00 
    3378:	c7 04 24 74 1c 02 00 	movl   $0x21c74,(%esp)
    337f:	89 55 d8             	mov    %edx,-0x28(%ebp)
    3382:	e8 19 cd 00 00       	call   100a0 <printf>
    3387:	e8 d4 c0 01 00       	call   1f460 <stacktrace_print>
    338c:	8b 55 d8             	mov    -0x28(%ebp),%edx
    338f:	83 c4 3c             	add    $0x3c,%esp
    3392:	89 d0                	mov    %edx,%eax
    3394:	5b                   	pop    %ebx
    3395:	5e                   	pop    %esi
    3396:	5f                   	pop    %edi
    3397:	5d                   	pop    %ebp
    3398:	c3                   	ret    
    3399:	29 fb                	sub    %edi,%ebx
    339b:	e9 c3 fe ff ff       	jmp    3263 <block_seqread+0xa3>

000033a0 <block_read_direct>:
    33a0:	55                   	push   %ebp
    33a1:	89 e5                	mov    %esp,%ebp
    33a3:	57                   	push   %edi
    33a4:	56                   	push   %esi
    33a5:	53                   	push   %ebx
    33a6:	83 ec 3c             	sub    $0x3c,%esp
    33a9:	8b 45 08             	mov    0x8(%ebp),%eax
    33ac:	8b 75 0c             	mov    0xc(%ebp),%esi
    33af:	c7 04 24 18 47 02 00 	movl   $0x24718,(%esp)
    33b6:	89 45 e4             	mov    %eax,-0x1c(%ebp)
    33b9:	8b 7d 10             	mov    0x10(%ebp),%edi
    33bc:	e8 4f 8d 00 00       	call   c110 <fibril_mutex_lock>
    33c1:	8b 1d 2c 47 02 00    	mov    0x2472c,%ebx
    33c7:	8b 45 e4             	mov    -0x1c(%ebp),%eax
    33ca:	81 fb 28 47 02 00    	cmp    $0x24728,%ebx
    33d0:	75 15                	jne    33e7 <block_read_direct+0x47>
    33d2:	e9 91 00 00 00       	jmp    3468 <block_read_direct+0xc8>
    33d7:	90                   	nop
    33d8:	8b 5b 04             	mov    0x4(%ebx),%ebx
    33db:	81 fb 28 47 02 00    	cmp    $0x24728,%ebx
    33e1:	0f 84 81 00 00 00    	je     3468 <block_read_direct+0xc8>
    33e7:	3b 43 08             	cmp    0x8(%ebx),%eax
    33ea:	75 ec                	jne    33d8 <block_read_direct+0x38>
    33ec:	c7 04 24 18 47 02 00 	movl   $0x24718,(%esp)
    33f3:	e8 38 8e 00 00       	call   c230 <fibril_mutex_unlock>
    33f8:	8b 53 20             	mov    0x20(%ebx),%edx
    33fb:	8b 45 14             	mov    0x14(%ebp),%eax
    33fe:	89 74 24 04          	mov    %esi,0x4(%esp)
    3402:	0f af c2             	imul   %edx,%eax
    3405:	8b 55 14             	mov    0x14(%ebp),%edx
    3408:	89 44 24 14          	mov    %eax,0x14(%esp)
    340c:	8b 45 18             	mov    0x18(%ebp),%eax
    340f:	89 54 24 0c          	mov    %edx,0xc(%esp)
    3413:	89 44 24 10          	mov    %eax,0x10(%esp)
    3417:	89 7c 24 08          	mov    %edi,0x8(%esp)
    341b:	8b 43 10             	mov    0x10(%ebx),%eax
    341e:	89 04 24             	mov    %eax,(%esp)
    3421:	e8 6a 1e 00 00       	call   5290 <bd_read_blocks>
    3426:	89 c2                	mov    %eax,%edx
    3428:	85 c0                	test   %eax,%eax
    342a:	74 31                	je     345d <block_read_direct+0xbd>
    342c:	8b 43 08             	mov    0x8(%ebx),%eax
    342f:	89 54 24 04          	mov    %edx,0x4(%esp)
    3433:	89 44 24 14          	mov    %eax,0x14(%esp)
    3437:	8b 45 14             	mov    0x14(%ebp),%eax
    343a:	89 74 24 0c          	mov    %esi,0xc(%esp)
    343e:	89 7c 24 10          	mov    %edi,0x10(%esp)
    3442:	89 44 24 08          	mov    %eax,0x8(%esp)
    3446:	c7 04 24 74 1c 02 00 	movl   $0x21c74,(%esp)
    344d:	89 55 e4             	mov    %edx,-0x1c(%ebp)
    3450:	e8 4b cc 00 00       	call   100a0 <printf>
    3455:	e8 06 c0 01 00       	call   1f460 <stacktrace_print>
    345a:	8b 55 e4             	mov    -0x1c(%ebp),%edx
    345d:	83 c4 3c             	add    $0x3c,%esp
    3460:	89 d0                	mov    %edx,%eax
    3462:	5b                   	pop    %ebx
    3463:	5e                   	pop    %esi
    3464:	5f                   	pop    %edi
    3465:	5d                   	pop    %ebp
    3466:	c3                   	ret    
    3467:	90                   	nop
    3468:	c7 04 24 18 47 02 00 	movl   $0x24718,(%esp)
    346f:	e8 bc 8d 00 00       	call   c230 <fibril_mutex_unlock>
    3474:	c7 44 24 08 d3 02 00 	movl   $0x2d3,0x8(%esp)
    347b:	00 
    347c:	c7 44 24 04 23 1c 02 	movl   $0x21c23,0x4(%esp)
    3483:	00 
    3484:	c7 04 24 2b 1c 02 00 	movl   $0x21c2b,(%esp)
    348b:	e8 70 c0 01 00       	call   1f500 <assert_abort>

00003490 <block_write_direct>:
    3490:	55                   	push   %ebp
    3491:	89 e5                	mov    %esp,%ebp
    3493:	57                   	push   %edi
    3494:	56                   	push   %esi
    3495:	53                   	push   %ebx
    3496:	83 ec 3c             	sub    $0x3c,%esp
    3499:	8b 45 08             	mov    0x8(%ebp),%eax
    349c:	8b 75 0c             	mov    0xc(%ebp),%esi
    349f:	c7 04 24 18 47 02 00 	movl   $0x24718,(%esp)
    34a6:	89 45 e4             	mov    %eax,-0x1c(%ebp)
    34a9:	8b 7d 10             	mov    0x10(%ebp),%edi
    34ac:	e8 5f 8c 00 00       	call   c110 <fibril_mutex_lock>
    34b1:	8b 1d 2c 47 02 00    	mov    0x2472c,%ebx
    34b7:	8b 45 e4             	mov    -0x1c(%ebp),%eax
    34ba:	81 fb 28 47 02 00    	cmp    $0x24728,%ebx
    34c0:	75 15                	jne    34d7 <block_write_direct+0x47>
    34c2:	e9 91 00 00 00       	jmp    3558 <block_write_direct+0xc8>
    34c7:	90                   	nop
    34c8:	8b 5b 04             	mov    0x4(%ebx),%ebx
    34cb:	81 fb 28 47 02 00    	cmp    $0x24728,%ebx
    34d1:	0f 84 81 00 00 00    	je     3558 <block_write_direct+0xc8>
    34d7:	3b 43 08             	cmp    0x8(%ebx),%eax
    34da:	75 ec                	jne    34c8 <block_write_direct+0x38>
    34dc:	c7 04 24 18 47 02 00 	movl   $0x24718,(%esp)
    34e3:	e8 48 8d 00 00       	call   c230 <fibril_mutex_unlock>
    34e8:	8b 4b 20             	mov    0x20(%ebx),%ecx
    34eb:	8b 45 14             	mov    0x14(%ebp),%eax
    34ee:	8b 55 14             	mov    0x14(%ebp),%edx
    34f1:	0f af c1             	imul   %ecx,%eax
    34f4:	89 44 24 14          	mov    %eax,0x14(%esp)
    34f8:	8b 45 18             	mov    0x18(%ebp),%eax
    34fb:	89 54 24 0c          	mov    %edx,0xc(%esp)
    34ff:	89 44 24 10          	mov    %eax,0x10(%esp)
    3503:	89 74 24 04          	mov    %esi,0x4(%esp)
    3507:	89 7c 24 08          	mov    %edi,0x8(%esp)
    350b:	8b 43 10             	mov    0x10(%ebx),%eax
    350e:	89 04 24             	mov    %eax,(%esp)
    3511:	e8 ea 1e 00 00       	call   5400 <bd_write_blocks>
    3516:	89 c2                	mov    %eax,%edx
    3518:	85 c0                	test   %eax,%eax
    351a:	74 31                	je     354d <block_write_direct+0xbd>
    351c:	8b 43 08             	mov    0x8(%ebx),%eax
    351f:	89 54 24 04          	mov    %edx,0x4(%esp)
    3523:	89 44 24 14          	mov    %eax,0x14(%esp)
    3527:	8b 45 14             	mov    0x14(%ebp),%eax
    352a:	89 74 24 0c          	mov    %esi,0xc(%esp)
    352e:	89 7c 24 10          	mov    %edi,0x10(%esp)
    3532:	89 44 24 08          	mov    %eax,0x8(%esp)
    3536:	c7 04 24 c0 1c 02 00 	movl   $0x21cc0,(%esp)
    353d:	89 55 e4             	mov    %edx,-0x1c(%ebp)
    3540:	e8 5b cb 00 00       	call   100a0 <printf>
    3545:	e8 16 bf 01 00       	call   1f460 <stacktrace_print>
    354a:	8b 55 e4             	mov    -0x1c(%ebp),%edx
    354d:	83 c4 3c             	add    $0x3c,%esp
    3550:	89 d0                	mov    %edx,%eax
    3552:	5b                   	pop    %ebx
    3553:	5e                   	pop    %esi
    3554:	5f                   	pop    %edi
    3555:	5d                   	pop    %ebp
    3556:	c3                   	ret    
    3557:	90                   	nop
    3558:	c7 04 24 18 47 02 00 	movl   $0x24718,(%esp)
    355f:	e8 cc 8c 00 00       	call   c230 <fibril_mutex_unlock>
    3564:	c7 44 24 08 e7 02 00 	movl   $0x2e7,0x8(%esp)
    356b:	00 
    356c:	c7 44 24 04 23 1c 02 	movl   $0x21c23,0x4(%esp)
    3573:	00 
    3574:	c7 04 24 2b 1c 02 00 	movl   $0x21c2b,(%esp)
    357b:	e8 80 bf 01 00       	call   1f500 <assert_abort>

00003580 <block_get_bsize>:
    3580:	55                   	push   %ebp
    3581:	89 e5                	mov    %esp,%ebp
    3583:	57                   	push   %edi
    3584:	56                   	push   %esi
    3585:	53                   	push   %ebx
    3586:	83 ec 1c             	sub    $0x1c,%esp
    3589:	8b 75 08             	mov    0x8(%ebp),%esi
    358c:	8b 7d 0c             	mov    0xc(%ebp),%edi
    358f:	c7 04 24 18 47 02 00 	movl   $0x24718,(%esp)
    3596:	e8 75 8b 00 00       	call   c110 <fibril_mutex_lock>
    359b:	8b 1d 2c 47 02 00    	mov    0x2472c,%ebx
    35a1:	81 fb 28 47 02 00    	cmp    $0x24728,%ebx
    35a7:	75 12                	jne    35bb <block_get_bsize+0x3b>
    35a9:	eb 3d                	jmp    35e8 <block_get_bsize+0x68>
    35ab:	90                   	nop
    35ac:	8d 74 26 00          	lea    0x0(%esi,%eiz,1),%esi
    35b0:	8b 5b 04             	mov    0x4(%ebx),%ebx
    35b3:	81 fb 28 47 02 00    	cmp    $0x24728,%ebx
    35b9:	74 2d                	je     35e8 <block_get_bsize+0x68>
    35bb:	3b 73 08             	cmp    0x8(%ebx),%esi
    35be:	75 f0                	jne    35b0 <block_get_bsize+0x30>
    35c0:	c7 04 24 18 47 02 00 	movl   $0x24718,(%esp)
    35c7:	e8 64 8c 00 00       	call   c230 <fibril_mutex_unlock>
    35cc:	89 7d 0c             	mov    %edi,0xc(%ebp)
    35cf:	8b 43 10             	mov    0x10(%ebx),%eax
    35d2:	89 45 08             	mov    %eax,0x8(%ebp)
    35d5:	83 c4 1c             	add    $0x1c,%esp
    35d8:	5b                   	pop    %ebx
    35d9:	5e                   	pop    %esi
    35da:	5f                   	pop    %edi
    35db:	5d                   	pop    %ebp
    35dc:	e9 cf 1e 00 00       	jmp    54b0 <bd_get_block_size>
    35e1:	8d b4 26 00 00 00 00 	lea    0x0(%esi,%eiz,1),%esi
    35e8:	c7 04 24 18 47 02 00 	movl   $0x24718,(%esp)
    35ef:	e8 3c 8c 00 00       	call   c230 <fibril_mutex_unlock>
    35f4:	c7 44 24 08 f8 02 00 	movl   $0x2f8,0x8(%esp)
    35fb:	00 
    35fc:	c7 44 24 04 23 1c 02 	movl   $0x21c23,0x4(%esp)
    3603:	00 
    3604:	c7 04 24 2b 1c 02 00 	movl   $0x21c2b,(%esp)
    360b:	e8 f0 be 01 00       	call   1f500 <assert_abort>

00003610 <block_get_nblocks>:
    3610:	55                   	push   %ebp
    3611:	89 e5                	mov    %esp,%ebp
    3613:	57                   	push   %edi
    3614:	56                   	push   %esi
    3615:	53                   	push   %ebx
    3616:	83 ec 1c             	sub    $0x1c,%esp
    3619:	8b 75 08             	mov    0x8(%ebp),%esi
    361c:	8b 7d 0c             	mov    0xc(%ebp),%edi
    361f:	c7 04 24 18 47 02 00 	movl   $0x24718,(%esp)
    3626:	e8 e5 8a 00 00       	call   c110 <fibril_mutex_lock>
    362b:	8b 1d 2c 47 02 00    	mov    0x2472c,%ebx
    3631:	81 fb 28 47 02 00    	cmp    $0x24728,%ebx
    3637:	75 12                	jne    364b <block_get_nblocks+0x3b>
    3639:	eb 3d                	jmp    3678 <block_get_nblocks+0x68>
    363b:	90                   	nop
    363c:	8d 74 26 00          	lea    0x0(%esi,%eiz,1),%esi
    3640:	8b 5b 04             	mov    0x4(%ebx),%ebx
    3643:	81 fb 28 47 02 00    	cmp    $0x24728,%ebx
    3649:	74 2d                	je     3678 <block_get_nblocks+0x68>
    364b:	3b 73 08             	cmp    0x8(%ebx),%esi
    364e:	75 f0                	jne    3640 <block_get_nblocks+0x30>
    3650:	c7 04 24 18 47 02 00 	movl   $0x24718,(%esp)
    3657:	e8 d4 8b 00 00       	call   c230 <fibril_mutex_unlock>
    365c:	89 7d 0c             	mov    %edi,0xc(%ebp)
    365f:	8b 43 10             	mov    0x10(%ebx),%eax
    3662:	89 45 08             	mov    %eax,0x8(%ebp)
    3665:	83 c4 1c             	add    $0x1c,%esp
    3668:	5b                   	pop    %ebx
    3669:	5e                   	pop    %esi
    366a:	5f                   	pop    %edi
    366b:	5d                   	pop    %ebp
    366c:	e9 cf 1e 00 00       	jmp    5540 <bd_get_num_blocks>
    3671:	8d b4 26 00 00 00 00 	lea    0x0(%esi,%eiz,1),%esi
    3678:	c7 04 24 18 47 02 00 	movl   $0x24718,(%esp)
    367f:	e8 ac 8b 00 00       	call   c230 <fibril_mutex_unlock>
    3684:	c7 44 24 08 07 03 00 	movl   $0x307,0x8(%esp)
    368b:	00 
    368c:	c7 44 24 04 23 1c 02 	movl   $0x21c23,0x4(%esp)
    3693:	00 
    3694:	c7 04 24 2b 1c 02 00 	movl   $0x21c2b,(%esp)
    369b:	e8 60 be 01 00       	call   1f500 <assert_abort>

000036a0 <block_read_bytes_direct>:
    36a0:	55                   	push   %ebp
    36a1:	89 e5                	mov    %esp,%ebp
    36a3:	57                   	push   %edi
    36a4:	56                   	push   %esi
    36a5:	53                   	push   %ebx
    36a6:	83 ec 5c             	sub    $0x5c,%esp
    36a9:	8b 45 0c             	mov    0xc(%ebp),%eax
    36ac:	8b 55 10             	mov    0x10(%ebp),%edx
    36af:	c7 04 24 18 47 02 00 	movl   $0x24718,(%esp)
    36b6:	8b 5d 08             	mov    0x8(%ebp),%ebx
    36b9:	89 45 c8             	mov    %eax,-0x38(%ebp)
    36bc:	89 55 cc             	mov    %edx,-0x34(%ebp)
    36bf:	e8 4c 8a 00 00       	call   c110 <fibril_mutex_lock>
    36c4:	8b 35 2c 47 02 00    	mov    0x2472c,%esi
    36ca:	81 fe 28 47 02 00    	cmp    $0x24728,%esi
    36d0:	75 11                	jne    36e3 <block_read_bytes_direct+0x43>
    36d2:	eb 44                	jmp    3718 <block_read_bytes_direct+0x78>
    36d4:	8d 74 26 00          	lea    0x0(%esi,%eiz,1),%esi
    36d8:	8b 76 04             	mov    0x4(%esi),%esi
    36db:	81 fe 28 47 02 00    	cmp    $0x24728,%esi
    36e1:	74 35                	je     3718 <block_read_bytes_direct+0x78>
    36e3:	3b 5e 08             	cmp    0x8(%esi),%ebx
    36e6:	75 f0                	jne    36d8 <block_read_bytes_direct+0x38>
    36e8:	c7 04 24 18 47 02 00 	movl   $0x24718,(%esp)
    36ef:	e8 3c 8b 00 00       	call   c230 <fibril_mutex_unlock>
    36f4:	8d 45 e4             	lea    -0x1c(%ebp),%eax
    36f7:	89 44 24 04          	mov    %eax,0x4(%esp)
    36fb:	8b 46 10             	mov    0x10(%esi),%eax
    36fe:	89 04 24             	mov    %eax,(%esp)
    3701:	e8 aa 1d 00 00       	call   54b0 <bd_get_block_size>
    3706:	89 c1                	mov    %eax,%ecx
    3708:	85 c0                	test   %eax,%eax
    370a:	74 34                	je     3740 <block_read_bytes_direct+0xa0>
    370c:	83 c4 5c             	add    $0x5c,%esp
    370f:	89 c8                	mov    %ecx,%eax
    3711:	5b                   	pop    %ebx
    3712:	5e                   	pop    %esi
    3713:	5f                   	pop    %edi
    3714:	5d                   	pop    %ebp
    3715:	c3                   	ret    
    3716:	66 90                	xchg   %ax,%ax
    3718:	c7 04 24 18 47 02 00 	movl   $0x24718,(%esp)
    371f:	e8 0c 8b 00 00       	call   c230 <fibril_mutex_unlock>
    3724:	c7 44 24 08 f8 02 00 	movl   $0x2f8,0x8(%esp)
    372b:	00 
    372c:	c7 44 24 04 23 1c 02 	movl   $0x21c23,0x4(%esp)
    3733:	00 
    3734:	c7 04 24 2b 1c 02 00 	movl   $0x21c2b,(%esp)
    373b:	e8 c0 bd 01 00       	call   1f500 <assert_abort>
    3740:	8b 4d e4             	mov    -0x1c(%ebp),%ecx
    3743:	8b 45 c8             	mov    -0x38(%ebp),%eax
    3746:	8b 55 cc             	mov    -0x34(%ebp),%edx
    3749:	89 4c 24 08          	mov    %ecx,0x8(%esp)
    374d:	c7 44 24 0c 00 00 00 	movl   $0x0,0xc(%esp)
    3754:	00 
    3755:	89 04 24             	mov    %eax,(%esp)
    3758:	89 54 24 04          	mov    %edx,0x4(%esp)
    375c:	89 4d c4             	mov    %ecx,-0x3c(%ebp)
    375f:	e8 8c dc 01 00       	call   213f0 <__udivdi3>
    3764:	be 01 00 00 00       	mov    $0x1,%esi
    3769:	29 c6                	sub    %eax,%esi
    376b:	8b 4d 14             	mov    0x14(%ebp),%ecx
    376e:	89 c7                	mov    %eax,%edi
    3770:	8b 45 c8             	mov    -0x38(%ebp),%eax
    3773:	89 4d d0             	mov    %ecx,-0x30(%ebp)
    3776:	89 55 c0             	mov    %edx,-0x40(%ebp)
    3779:	83 c0 ff             	add    $0xffffffff,%eax
    377c:	8b 55 cc             	mov    -0x34(%ebp),%edx
    377f:	83 d2 ff             	adc    $0xffffffff,%edx
    3782:	03 45 d0             	add    -0x30(%ebp),%eax
    3785:	c7 45 d4 00 00 00 00 	movl   $0x0,-0x2c(%ebp)
    378c:	8b 4d c4             	mov    -0x3c(%ebp),%ecx
    378f:	13 55 d4             	adc    -0x2c(%ebp),%edx
    3792:	89 4c 24 08          	mov    %ecx,0x8(%esp)
    3796:	c7 44 24 0c 00 00 00 	movl   $0x0,0xc(%esp)
    379d:	00 
    379e:	89 04 24             	mov    %eax,(%esp)
    37a1:	89 54 24 04          	mov    %edx,0x4(%esp)
    37a5:	e8 46 dc 01 00       	call   213f0 <__udivdi3>
    37aa:	01 c6                	add    %eax,%esi
    37ac:	8b 45 c4             	mov    -0x3c(%ebp),%eax
    37af:	0f af c6             	imul   %esi,%eax
    37b2:	89 04 24             	mov    %eax,(%esp)
    37b5:	e8 66 15 01 00       	call   14d20 <malloc>
    37ba:	89 45 d0             	mov    %eax,-0x30(%ebp)
    37bd:	85 c0                	test   %eax,%eax
    37bf:	0f 84 59 01 00 00    	je     391e <block_read_bytes_direct+0x27e>
    37c5:	c7 04 24 18 47 02 00 	movl   $0x24718,(%esp)
    37cc:	e8 3f 89 00 00       	call   c110 <fibril_mutex_lock>
    37d1:	8b 15 2c 47 02 00    	mov    0x2472c,%edx
    37d7:	81 fa 28 47 02 00    	cmp    $0x24728,%edx
    37dd:	75 18                	jne    37f7 <block_read_bytes_direct+0x157>
    37df:	e9 cc 00 00 00       	jmp    38b0 <block_read_bytes_direct+0x210>
    37e4:	8d 74 26 00          	lea    0x0(%esi,%eiz,1),%esi
    37e8:	8b 52 04             	mov    0x4(%edx),%edx
    37eb:	81 fa 28 47 02 00    	cmp    $0x24728,%edx
    37f1:	0f 84 b9 00 00 00    	je     38b0 <block_read_bytes_direct+0x210>
    37f7:	3b 5a 08             	cmp    0x8(%edx),%ebx
    37fa:	75 ec                	jne    37e8 <block_read_bytes_direct+0x148>
    37fc:	c7 04 24 18 47 02 00 	movl   $0x24718,(%esp)
    3803:	89 55 bc             	mov    %edx,-0x44(%ebp)
    3806:	e8 25 8a 00 00       	call   c230 <fibril_mutex_unlock>
    380b:	8b 55 bc             	mov    -0x44(%ebp),%edx
    380e:	8b 42 20             	mov    0x20(%edx),%eax
    3811:	8b 4d c0             	mov    -0x40(%ebp),%ecx
    3814:	0f af c6             	imul   %esi,%eax
    3817:	89 44 24 14          	mov    %eax,0x14(%esp)
    381b:	8b 45 d0             	mov    -0x30(%ebp),%eax
    381e:	89 4c 24 08          	mov    %ecx,0x8(%esp)
    3822:	89 44 24 10          	mov    %eax,0x10(%esp)
    3826:	89 74 24 0c          	mov    %esi,0xc(%esp)
    382a:	89 7c 24 04          	mov    %edi,0x4(%esp)
    382e:	8b 42 10             	mov    0x10(%edx),%eax
    3831:	89 04 24             	mov    %eax,(%esp)
    3834:	e8 57 1a 00 00       	call   5290 <bd_read_blocks>
    3839:	8b 55 bc             	mov    -0x44(%ebp),%edx
    383c:	89 c1                	mov    %eax,%ecx
    383e:	85 c0                	test   %eax,%eax
    3840:	0f 85 92 00 00 00    	jne    38d8 <block_read_bytes_direct+0x238>
    3846:	8b 55 14             	mov    0x14(%ebp),%edx
    3849:	8b 45 c4             	mov    -0x3c(%ebp),%eax
    384c:	89 54 24 08          	mov    %edx,0x8(%esp)
    3850:	8b 55 cc             	mov    -0x34(%ebp),%edx
    3853:	8b 74 24 08          	mov    0x8(%esp),%esi
    3857:	89 44 24 08          	mov    %eax,0x8(%esp)
    385b:	8b 45 c8             	mov    -0x38(%ebp),%eax
    385e:	8b 7c 24 0c          	mov    0xc(%esp),%edi
    3862:	89 04 24             	mov    %eax,(%esp)
    3865:	c7 44 24 0c 00 00 00 	movl   $0x0,0xc(%esp)
    386c:	00 
    386d:	89 54 24 04          	mov    %edx,0x4(%esp)
    3871:	89 4d bc             	mov    %ecx,-0x44(%ebp)
    3874:	e8 f7 dd 01 00       	call   21670 <__umoddi3>
    3879:	8b 5d d0             	mov    -0x30(%ebp),%ebx
    387c:	01 d8                	add    %ebx,%eax
    387e:	89 74 24 08          	mov    %esi,0x8(%esp)
    3882:	89 44 24 04          	mov    %eax,0x4(%esp)
    3886:	8b 45 18             	mov    0x18(%ebp),%eax
    3889:	89 04 24             	mov    %eax,(%esp)
    388c:	89 7c 24 0c          	mov    %edi,0xc(%esp)
    3890:	e8 4b 48 00 00       	call   80e0 <memcpy>
    3895:	8b 45 d0             	mov    -0x30(%ebp),%eax
    3898:	89 04 24             	mov    %eax,(%esp)
    389b:	e8 90 15 01 00       	call   14e30 <free>
    38a0:	8b 4d bc             	mov    -0x44(%ebp),%ecx
    38a3:	83 c4 5c             	add    $0x5c,%esp
    38a6:	89 c8                	mov    %ecx,%eax
    38a8:	5b                   	pop    %ebx
    38a9:	5e                   	pop    %esi
    38aa:	5f                   	pop    %edi
    38ab:	5d                   	pop    %ebp
    38ac:	c3                   	ret    
    38ad:	8d 76 00             	lea    0x0(%esi),%esi
    38b0:	c7 04 24 18 47 02 00 	movl   $0x24718,(%esp)
    38b7:	e8 74 89 00 00       	call   c230 <fibril_mutex_unlock>
    38bc:	c7 44 24 08 d3 02 00 	movl   $0x2d3,0x8(%esp)
    38c3:	00 
    38c4:	c7 44 24 04 23 1c 02 	movl   $0x21c23,0x4(%esp)
    38cb:	00 
    38cc:	c7 04 24 2b 1c 02 00 	movl   $0x21c2b,(%esp)
    38d3:	e8 28 bc 01 00       	call   1f500 <assert_abort>
    38d8:	8b 42 08             	mov    0x8(%edx),%eax
    38db:	89 4c 24 04          	mov    %ecx,0x4(%esp)
    38df:	89 44 24 14          	mov    %eax,0x14(%esp)
    38e3:	8b 45 c0             	mov    -0x40(%ebp),%eax
    38e6:	89 7c 24 0c          	mov    %edi,0xc(%esp)
    38ea:	89 74 24 08          	mov    %esi,0x8(%esp)
    38ee:	89 44 24 10          	mov    %eax,0x10(%esp)
    38f2:	c7 04 24 74 1c 02 00 	movl   $0x21c74,(%esp)
    38f9:	89 4d bc             	mov    %ecx,-0x44(%ebp)
    38fc:	e8 9f c7 00 00       	call   100a0 <printf>
    3901:	e8 5a bb 01 00       	call   1f460 <stacktrace_print>
    3906:	8b 45 d0             	mov    -0x30(%ebp),%eax
    3909:	89 04 24             	mov    %eax,(%esp)
    390c:	e8 1f 15 01 00       	call   14e30 <free>
    3911:	8b 4d bc             	mov    -0x44(%ebp),%ecx
    3914:	83 c4 5c             	add    $0x5c,%esp
    3917:	89 c8                	mov    %ecx,%eax
    3919:	5b                   	pop    %ebx
    391a:	5e                   	pop    %esi
    391b:	5f                   	pop    %edi
    391c:	5d                   	pop    %ebp
    391d:	c3                   	ret    
    391e:	b9 fe ff ff ff       	mov    $0xfffffffe,%ecx
    3923:	e9 e4 fd ff ff       	jmp    370c <block_read_bytes_direct+0x6c>
    3928:	90                   	nop
    3929:	8d b4 26 00 00 00 00 	lea    0x0(%esi,%eiz,1),%esi

00003930 <block_get_toc>:
    3930:	55                   	push   %ebp
    3931:	89 e5                	mov    %esp,%ebp
    3933:	57                   	push   %edi
    3934:	56                   	push   %esi
    3935:	53                   	push   %ebx
    3936:	83 ec 1c             	sub    $0x1c,%esp
    3939:	8b 75 08             	mov    0x8(%ebp),%esi
    393c:	c7 04 24 18 47 02 00 	movl   $0x24718,(%esp)
    3943:	0f b6 7d 0c          	movzbl 0xc(%ebp),%edi
    3947:	e8 c4 87 00 00       	call   c110 <fibril_mutex_lock>
    394c:	8b 1d 2c 47 02 00    	mov    0x2472c,%ebx
    3952:	81 fb 28 47 02 00    	cmp    $0x24728,%ebx
    3958:	75 11                	jne    396b <block_get_toc+0x3b>
    395a:	eb 64                	jmp    39c0 <block_get_toc+0x90>
    395c:	8d 74 26 00          	lea    0x0(%esi,%eiz,1),%esi
    3960:	8b 5b 04             	mov    0x4(%ebx),%ebx
    3963:	81 fb 28 47 02 00    	cmp    $0x24728,%ebx
    3969:	74 55                	je     39c0 <block_get_toc+0x90>
    396b:	3b 73 08             	cmp    0x8(%ebx),%esi
    396e:	75 f0                	jne    3960 <block_get_toc+0x30>
    3970:	c7 04 24 18 47 02 00 	movl   $0x24718,(%esp)
    3977:	e8 b4 88 00 00       	call   c230 <fibril_mutex_unlock>
    397c:	c7 04 24 0c 00 00 00 	movl   $0xc,(%esp)
    3983:	e8 98 13 01 00       	call   14d20 <malloc>
    3988:	89 c6                	mov    %eax,%esi
    398a:	85 c0                	test   %eax,%eax
    398c:	74 25                	je     39b3 <block_get_toc+0x83>
    398e:	81 e7 ff 00 00 00    	and    $0xff,%edi
    3994:	c7 44 24 0c 0c 00 00 	movl   $0xc,0xc(%esp)
    399b:	00 
    399c:	89 44 24 08          	mov    %eax,0x8(%esp)
    39a0:	89 7c 24 04          	mov    %edi,0x4(%esp)
    39a4:	8b 43 10             	mov    0x10(%ebx),%eax
    39a7:	89 04 24             	mov    %eax,(%esp)
    39aa:	e8 91 19 00 00       	call   5340 <bd_read_toc>
    39af:	85 c0                	test   %eax,%eax
    39b1:	75 35                	jne    39e8 <block_get_toc+0xb8>
    39b3:	83 c4 1c             	add    $0x1c,%esp
    39b6:	89 f0                	mov    %esi,%eax
    39b8:	5b                   	pop    %ebx
    39b9:	5e                   	pop    %esi
    39ba:	5f                   	pop    %edi
    39bb:	5d                   	pop    %ebp
    39bc:	c3                   	ret    
    39bd:	8d 76 00             	lea    0x0(%esi),%esi
    39c0:	c7 04 24 18 47 02 00 	movl   $0x24718,(%esp)
    39c7:	e8 64 88 00 00       	call   c230 <fibril_mutex_unlock>
    39cc:	c7 44 24 08 4f 03 00 	movl   $0x34f,0x8(%esp)
    39d3:	00 
    39d4:	c7 44 24 04 23 1c 02 	movl   $0x21c23,0x4(%esp)
    39db:	00 
    39dc:	c7 04 24 2b 1c 02 00 	movl   $0x21c2b,(%esp)
    39e3:	e8 18 bb 01 00       	call   1f500 <assert_abort>
    39e8:	89 34 24             	mov    %esi,(%esp)
    39eb:	31 f6                	xor    %esi,%esi
    39ed:	e8 3e 14 01 00       	call   14e30 <free>
    39f2:	eb bf                	jmp    39b3 <block_get_toc+0x83>

000039f4 <write_blocks.part.1>:
    39f4:	55                   	push   %ebp
    39f5:	89 e5                	mov    %esp,%ebp
    39f7:	83 ec 18             	sub    $0x18,%esp
    39fa:	c7 44 24 08 85 03 00 	movl   $0x385,0x8(%esp)
    3a01:	00 
    3a02:	c7 44 24 04 23 1c 02 	movl   $0x21c23,0x4(%esp)
    3a09:	00 
    3a0a:	c7 04 24 2b 1c 02 00 	movl   $0x21c2b,(%esp)
    3a11:	e8 ea ba 01 00       	call   1f500 <assert_abort>

00003a16 <read_blocks.part.2>:
    3a16:	55                   	push   %ebp
    3a17:	89 e5                	mov    %esp,%ebp
    3a19:	83 ec 18             	sub    $0x18,%esp
    3a1c:	c7 44 24 08 6a 03 00 	movl   $0x36a,0x8(%esp)
    3a23:	00 
    3a24:	c7 44 24 04 23 1c 02 	movl   $0x21c23,0x4(%esp)
    3a2b:	00 
    3a2c:	c7 04 24 2b 1c 02 00 	movl   $0x21c2b,(%esp)
    3a33:	e8 c8 ba 01 00       	call   1f500 <assert_abort>
    3a38:	66 90                	xchg   %ax,%ax
    3a3a:	66 90                	xchg   %ax,%ax
    3a3c:	66 90                	xchg   %ax,%ax
    3a3e:	66 90                	xchg   %ax,%ax

00003a40 <vfs_connection>:
    3a40:	55                   	push   %ebp
    3a41:	89 e5                	mov    %esp,%ebp
    3a43:	57                   	push   %edi
    3a44:	56                   	push   %esi
    3a45:	53                   	push   %ebx
    3a46:	81 ec dc 01 00 00    	sub    $0x1dc,%esp
    3a4c:	8b 45 08             	mov    0x8(%ebp),%eax
    3a4f:	85 c0                	test   %eax,%eax
    3a51:	0f 85 51 0a 00 00    	jne    44a8 <vfs_connection+0xa68>
    3a57:	90                   	nop
    3a58:	8d 85 c0 fe ff ff    	lea    -0x140(%ebp),%eax
    3a5e:	c7 44 24 04 00 00 00 	movl   $0x0,0x4(%esp)
    3a65:	00 
    3a66:	89 04 24             	mov    %eax,(%esp)
    3a69:	e8 c2 27 01 00       	call   16230 <async_get_call_timeout>
    3a6e:	89 c6                	mov    %eax,%esi
    3a70:	8b 85 c0 fe ff ff    	mov    -0x140(%ebp),%eax
    3a76:	85 c0                	test   %eax,%eax
    3a78:	0f 84 9a 09 00 00    	je     4418 <vfs_connection+0x9d8>
    3a7e:	2d 00 04 00 00       	sub    $0x400,%eax
    3a83:	83 f8 0c             	cmp    $0xc,%eax
    3a86:	76 18                	jbe    3aa0 <vfs_connection+0x60>
    3a88:	c7 44 24 04 f5 ff ff 	movl   $0xfffffff5,0x4(%esp)
    3a8f:	ff 
    3a90:	89 34 24             	mov    %esi,(%esp)
    3a93:	e8 c8 3d 01 00       	call   17860 <async_answer_0>
    3a98:	eb be                	jmp    3a58 <vfs_connection+0x18>
    3a9a:	8d b6 00 00 00 00    	lea    0x0(%esi),%esi
    3aa0:	ff 24 85 10 1d 02 00 	jmp    *0x21d10(,%eax,4)
    3aa7:	90                   	nop
    3aa8:	8b 0d 94 49 02 00    	mov    0x24994,%ecx
    3aae:	8b 95 c4 fe ff ff    	mov    -0x13c(%ebp),%edx
    3ab4:	89 8d 74 fe ff ff    	mov    %ecx,-0x18c(%ebp)
    3aba:	8b 8d c8 fe ff ff    	mov    -0x138(%ebp),%ecx
    3ac0:	89 95 68 fe ff ff    	mov    %edx,-0x198(%ebp)
    3ac6:	89 8d 70 fe ff ff    	mov    %ecx,-0x190(%ebp)
    3acc:	8b 95 d0 fe ff ff    	mov    -0x130(%ebp),%edx
    3ad2:	8b 8d cc fe ff ff    	mov    -0x134(%ebp),%ecx
    3ad8:	89 8d 64 fe ff ff    	mov    %ecx,-0x19c(%ebp)
    3ade:	89 95 60 fe ff ff    	mov    %edx,-0x1a0(%ebp)
    3ae4:	8b 8d d4 fe ff ff    	mov    -0x12c(%ebp),%ecx
    3aea:	8b 95 70 fe ff ff    	mov    -0x190(%ebp),%edx
    3af0:	8b 3d 98 49 02 00    	mov    0x24998,%edi
    3af6:	89 8d 5c fe ff ff    	mov    %ecx,-0x1a4(%ebp)
    3afc:	39 95 68 fe ff ff    	cmp    %edx,-0x198(%ebp)
    3b02:	76 0c                	jbe    3b10 <vfs_connection+0xd0>
    3b04:	81 c2 00 00 02 00    	add    $0x20000,%edx
    3b0a:	89 95 70 fe ff ff    	mov    %edx,-0x190(%ebp)
    3b10:	8b 8d 64 fe ff ff    	mov    -0x19c(%ebp),%ecx
    3b16:	8d 85 84 fe ff ff    	lea    -0x17c(%ebp),%eax
    3b1c:	89 4c 24 04          	mov    %ecx,0x4(%esp)
    3b20:	8b 8d 74 fe ff ff    	mov    -0x18c(%ebp),%ecx
    3b26:	c7 85 84 fe ff ff 00 	movl   $0x0,-0x17c(%ebp)
    3b2d:	00 00 00 
    3b30:	c7 85 88 fe ff ff 00 	movl   $0x0,-0x178(%ebp)
    3b37:	00 00 00 
    3b3a:	89 04 24             	mov    %eax,(%esp)
    3b3d:	ff 11                	call   *(%ecx)
    3b3f:	89 c2                	mov    %eax,%edx
    3b41:	85 c0                	test   %eax,%eax
    3b43:	0f 85 df 08 00 00    	jne    4428 <vfs_connection+0x9e8>
    3b49:	8b 85 84 fe ff ff    	mov    -0x17c(%ebp),%eax
    3b4f:	80 38 00             	cmpb   $0x0,(%eax)
    3b52:	0f 85 2b 0a 00 00    	jne    4583 <vfs_connection+0xb43>
    3b58:	8b 95 68 fe ff ff    	mov    -0x198(%ebp),%edx
    3b5e:	8b 0d 9c 49 02 00    	mov    0x2499c,%ecx
    3b64:	81 e2 ff ff 01 00    	and    $0x1ffff,%edx
    3b6a:	66 89 bd 52 fe ff ff 	mov    %di,-0x1ae(%ebp)
    3b71:	80 3c 11 2f          	cmpb   $0x2f,(%ecx,%edx,1)
    3b75:	8b 95 68 fe ff ff    	mov    -0x198(%ebp),%edx
    3b7b:	0f 94 c3             	sete   %bl
    3b7e:	81 e3 ff 00 00 00    	and    $0xff,%ebx
    3b84:	01 d3                	add    %edx,%ebx
    3b86:	39 9d 70 fe ff ff    	cmp    %ebx,-0x190(%ebp)
    3b8c:	0f 82 ac 0f 00 00    	jb     4b3e <vfs_connection+0x10fe>
    3b92:	8b 95 60 fe ff ff    	mov    -0x1a0(%ebp),%edx
    3b98:	c7 85 6c fe ff ff 00 	movl   $0x0,-0x194(%ebp)
    3b9f:	00 00 00 
    3ba2:	83 e2 08             	and    $0x8,%edx
    3ba5:	89 b5 54 fe ff ff    	mov    %esi,-0x1ac(%ebp)
    3bab:	89 95 58 fe ff ff    	mov    %edx,-0x1a8(%ebp)
    3bb1:	8d 8d 80 fe ff ff    	lea    -0x180(%ebp),%ecx
    3bb7:	89 44 24 04          	mov    %eax,0x4(%esp)
    3bbb:	89 0c 24             	mov    %ecx,(%esp)
    3bbe:	8b 8d 74 fe ff ff    	mov    -0x18c(%ebp),%ecx
    3bc4:	ff 51 24             	call   *0x24(%ecx)
    3bc7:	85 c0                	test   %eax,%eax
    3bc9:	0f 85 55 0a 00 00    	jne    4624 <vfs_connection+0xbe4>
    3bcf:	80 bd 80 fe ff ff 00 	cmpb   $0x0,-0x180(%ebp)
    3bd6:	0f 84 4c 0c 00 00    	je     4828 <vfs_connection+0xde8>
    3bdc:	8b 35 9c 49 02 00    	mov    0x2499c,%esi
    3be2:	31 d2                	xor    %edx,%edx
    3be4:	8b 8d 70 fe ff ff    	mov    -0x190(%ebp),%ecx
    3bea:	8d b6 00 00 00 00    	lea    0x0(%esi),%esi
    3bf0:	89 d8                	mov    %ebx,%eax
    3bf2:	25 ff ff 01 00       	and    $0x1ffff,%eax
    3bf7:	8a 04 06             	mov    (%esi,%eax,1),%al
    3bfa:	3c 2f                	cmp    $0x2f,%al
    3bfc:	0f 84 8e 08 00 00    	je     4490 <vfs_connection+0xa50>
    3c02:	81 fa ff 00 00 00    	cmp    $0xff,%edx
    3c08:	0f 84 5a 09 00 00    	je     4568 <vfs_connection+0xb28>
    3c0e:	43                   	inc    %ebx
    3c0f:	88 84 15 e4 fe ff ff 	mov    %al,-0x11c(%ebp,%edx,1)
    3c16:	8d bd e4 fe ff ff    	lea    -0x11c(%ebp),%edi
    3c1c:	42                   	inc    %edx
    3c1d:	39 d9                	cmp    %ebx,%ecx
    3c1f:	73 cf                	jae    3bf0 <vfs_connection+0x1b0>
    3c21:	89 de                	mov    %ebx,%esi
    3c23:	8b 85 84 fe ff ff    	mov    -0x17c(%ebp),%eax
    3c29:	8b 8d 74 fe ff ff    	mov    -0x18c(%ebp),%ecx
    3c2f:	89 44 24 04          	mov    %eax,0x4(%esp)
    3c33:	8d 85 88 fe ff ff    	lea    -0x178(%ebp),%eax
    3c39:	c6 84 15 e4 fe ff ff 	movb   $0x0,-0x11c(%ebp,%edx,1)
    3c40:	00 
    3c41:	89 7c 24 08          	mov    %edi,0x8(%esp)
    3c45:	89 04 24             	mov    %eax,(%esp)
    3c48:	43                   	inc    %ebx
    3c49:	ff 51 04             	call   *0x4(%ecx)
    3c4c:	85 c0                	test   %eax,%eax
    3c4e:	0f 85 d0 09 00 00    	jne    4624 <vfs_connection+0xbe4>
    3c54:	8b 85 88 fe ff ff    	mov    -0x178(%ebp),%eax
    3c5a:	85 c0                	test   %eax,%eax
    3c5c:	0f 84 9a 0c 00 00    	je     48fc <vfs_connection+0xebc>
    3c62:	80 38 00             	cmpb   $0x0,(%eax)
    3c65:	74 1a                	je     3c81 <vfs_connection+0x241>
    3c67:	8b bd 58 fe ff ff    	mov    -0x1a8(%ebp),%edi
    3c6d:	85 ff                	test   %edi,%edi
    3c6f:	0f 84 f7 0d 00 00    	je     4a6c <vfs_connection+0x102c>
    3c75:	39 9d 70 fe ff ff    	cmp    %ebx,-0x190(%ebp)
    3c7b:	0f 83 b0 0e 00 00    	jae    4b31 <vfs_connection+0x10f1>
    3c81:	8b 8d 6c fe ff ff    	mov    -0x194(%ebp),%ecx
    3c87:	85 c9                	test   %ecx,%ecx
    3c89:	74 20                	je     3cab <vfs_connection+0x26b>
    3c8b:	8b 8d 6c fe ff ff    	mov    -0x194(%ebp),%ecx
    3c91:	89 0c 24             	mov    %ecx,(%esp)
    3c94:	8b 8d 74 fe ff ff    	mov    -0x18c(%ebp),%ecx
    3c9a:	ff 51 10             	call   *0x10(%ecx)
    3c9d:	85 c0                	test   %eax,%eax
    3c9f:	0f 85 7f 09 00 00    	jne    4624 <vfs_connection+0xbe4>
    3ca5:	8b 85 88 fe ff ff    	mov    -0x178(%ebp),%eax
    3cab:	8b 8d 84 fe ff ff    	mov    -0x17c(%ebp),%ecx
    3cb1:	c7 85 88 fe ff ff 00 	movl   $0x0,-0x178(%ebp)
    3cb8:	00 00 00 
    3cbb:	89 8d 6c fe ff ff    	mov    %ecx,-0x194(%ebp)
    3cc1:	89 85 84 fe ff ff    	mov    %eax,-0x17c(%ebp)
    3cc7:	39 9d 70 fe ff ff    	cmp    %ebx,-0x190(%ebp)
    3ccd:	0f 83 de fe ff ff    	jae    3bb1 <vfs_connection+0x171>
    3cd3:	8b b5 54 fe ff ff    	mov    -0x1ac(%ebp),%esi
    3cd9:	f6 85 60 fe ff ff 80 	testb  $0x80,-0x1a0(%ebp)
    3ce0:	0f 85 ff 0c 00 00    	jne    49e5 <vfs_connection+0xfa5>
    3ce6:	8b 85 60 fe ff ff    	mov    -0x1a0(%ebp),%eax
    3cec:	83 e0 30             	and    $0x30,%eax
    3cef:	83 f8 30             	cmp    $0x30,%eax
    3cf2:	0f 84 d8 0c 00 00    	je     49d0 <vfs_connection+0xf90>
    3cf8:	f6 85 60 fe ff ff 40 	testb  $0x40,-0x1a0(%ebp)
    3cff:	0f 85 cb 0c 00 00    	jne    49d0 <vfs_connection+0xf90>
    3d05:	f6 85 60 fe ff ff 01 	testb  $0x1,-0x1a0(%ebp)
    3d0c:	0f 85 6a 0e 00 00    	jne    4b7c <vfs_connection+0x113c>
    3d12:	f6 85 60 fe ff ff 02 	testb  $0x2,-0x1a0(%ebp)
    3d19:	0f 85 2e 0e 00 00    	jne    4b4d <vfs_connection+0x110d>
    3d1f:	f6 85 60 fe ff ff 04 	testb  $0x4,-0x1a0(%ebp)
    3d26:	0f 84 23 09 00 00    	je     464f <vfs_connection+0xc0f>
    3d2c:	8b 95 6c fe ff ff    	mov    -0x194(%ebp),%edx
    3d32:	85 d2                	test   %edx,%edx
    3d34:	0f 84 15 09 00 00    	je     464f <vfs_connection+0xc0f>
    3d3a:	c7 44 24 04 f2 ff ff 	movl   $0xfffffff2,0x4(%esp)
    3d41:	ff 
    3d42:	89 34 24             	mov    %esi,(%esp)
    3d45:	e8 16 3b 01 00       	call   17860 <async_answer_0>
    3d4a:	e9 f9 06 00 00       	jmp    4448 <vfs_connection+0xa08>
    3d4f:	90                   	nop
    3d50:	8b 8d c8 fe ff ff    	mov    -0x138(%ebp),%ecx
    3d56:	8b bd c4 fe ff ff    	mov    -0x13c(%ebp),%edi
    3d5c:	8d 85 8c fe ff ff    	lea    -0x174(%ebp),%eax
    3d62:	8b 1d 94 49 02 00    	mov    0x24994,%ebx
    3d68:	8b 15 98 49 02 00    	mov    0x24998,%edx
    3d6e:	89 4c 24 08          	mov    %ecx,0x8(%esp)
    3d72:	89 7c 24 04          	mov    %edi,0x4(%esp)
    3d76:	89 04 24             	mov    %eax,(%esp)
    3d79:	89 95 70 fe ff ff    	mov    %edx,-0x190(%ebp)
    3d7f:	89 8d 74 fe ff ff    	mov    %ecx,-0x18c(%ebp)
    3d85:	ff 53 08             	call   *0x8(%ebx)
    3d88:	85 c0                	test   %eax,%eax
    3d8a:	75 7f                	jne    3e0b <vfs_connection+0x3cb>
    3d8c:	8d 95 94 fe ff ff    	lea    -0x16c(%ebp),%edx
    3d92:	8d 85 90 fe ff ff    	lea    -0x170(%ebp),%eax
    3d98:	89 54 24 04          	mov    %edx,0x4(%esp)
    3d9c:	89 04 24             	mov    %eax,(%esp)
    3d9f:	e8 2c 50 01 00       	call   18dd0 <async_data_read_receive>
    3da4:	84 c0                	test   %al,%al
    3da6:	74 0d                	je     3db5 <vfs_connection+0x375>
    3da8:	83 bd 94 fe ff ff 20 	cmpl   $0x20,-0x16c(%ebp)
    3daf:	0f 84 8f 09 00 00    	je     4744 <vfs_connection+0xd04>
    3db5:	8b 85 8c fe ff ff    	mov    -0x174(%ebp),%eax
    3dbb:	89 04 24             	mov    %eax,(%esp)
    3dbe:	ff 53 10             	call   *0x10(%ebx)
    3dc1:	8b 85 90 fe ff ff    	mov    -0x170(%ebp),%eax
    3dc7:	c7 44 24 04 f2 ff ff 	movl   $0xfffffff2,0x4(%esp)
    3dce:	ff 
    3dcf:	89 04 24             	mov    %eax,(%esp)
    3dd2:	e8 89 3a 01 00       	call   17860 <async_answer_0>
    3dd7:	c7 44 24 04 f2 ff ff 	movl   $0xfffffff2,0x4(%esp)
    3dde:	ff 
    3ddf:	89 34 24             	mov    %esi,(%esp)
    3de2:	e8 79 3a 01 00       	call   17860 <async_answer_0>
    3de7:	e9 6c fc ff ff       	jmp    3a58 <vfs_connection+0x18>
    3dec:	8d 74 26 00          	lea    0x0(%esi,%eiz,1),%esi
    3df0:	8b 85 c8 fe ff ff    	mov    -0x138(%ebp),%eax
    3df6:	89 44 24 04          	mov    %eax,0x4(%esp)
    3dfa:	8b 85 c4 fe ff ff    	mov    -0x13c(%ebp),%eax
    3e00:	89 04 24             	mov    %eax,(%esp)
    3e03:	a1 90 49 02 00       	mov    0x24990,%eax
    3e08:	ff 50 1c             	call   *0x1c(%eax)
    3e0b:	89 44 24 04          	mov    %eax,0x4(%esp)
    3e0f:	89 34 24             	mov    %esi,(%esp)
    3e12:	e8 49 3a 01 00       	call   17860 <async_answer_0>
    3e17:	e9 3c fc ff ff       	jmp    3a58 <vfs_connection+0x18>
    3e1c:	8d 74 26 00          	lea    0x0(%esi,%eiz,1),%esi
    3e20:	8b 85 c8 fe ff ff    	mov    -0x138(%ebp),%eax
    3e26:	8b 1d 94 49 02 00    	mov    0x24994,%ebx
    3e2c:	89 44 24 08          	mov    %eax,0x8(%esp)
    3e30:	8b 85 c4 fe ff ff    	mov    -0x13c(%ebp),%eax
    3e36:	89 44 24 04          	mov    %eax,0x4(%esp)
    3e3a:	8d 85 8c fe ff ff    	lea    -0x174(%ebp),%eax
    3e40:	89 04 24             	mov    %eax,(%esp)
    3e43:	ff 53 08             	call   *0x8(%ebx)
    3e46:	85 c0                	test   %eax,%eax
    3e48:	75 c1                	jne    3e0b <vfs_connection+0x3cb>
    3e4a:	8b 85 8c fe ff ff    	mov    -0x174(%ebp),%eax
    3e50:	85 c0                	test   %eax,%eax
    3e52:	0f 84 c4 07 00 00    	je     461c <vfs_connection+0xbdc>
    3e58:	80 38 00             	cmpb   $0x0,(%eax)
    3e5b:	0f 84 5f 06 00 00    	je     44c0 <vfs_connection+0xa80>
    3e61:	8b 40 04             	mov    0x4(%eax),%eax
    3e64:	89 04 24             	mov    %eax,(%esp)
    3e67:	e8 f4 43 01 00       	call   18260 <async_exchange_begin>
    3e6c:	c7 44 24 28 00 00 00 	movl   $0x0,0x28(%esp)
    3e73:	00 
    3e74:	89 c7                	mov    %eax,%edi
    3e76:	8b 85 8c fe ff ff    	mov    -0x174(%ebp),%eax
    3e7c:	c7 44 24 24 00 00 00 	movl   $0x0,0x24(%esp)
    3e83:	00 
    3e84:	c7 44 24 20 00 00 00 	movl   $0x0,0x20(%esp)
    3e8b:	00 
    3e8c:	c7 44 24 1c 00 00 00 	movl   $0x0,0x1c(%esp)
    3e93:	00 
    3e94:	c7 44 24 18 00 00 00 	movl   $0x0,0x18(%esp)
    3e9b:	00 
    3e9c:	c7 44 24 14 00 00 00 	movl   $0x0,0x14(%esp)
    3ea3:	00 
    3ea4:	c7 44 24 10 00 00 00 	movl   $0x0,0x10(%esp)
    3eab:	00 
    3eac:	c7 44 24 0c 00 00 00 	movl   $0x0,0xc(%esp)
    3eb3:	00 
    3eb4:	8b 40 0c             	mov    0xc(%eax),%eax
    3eb7:	c7 44 24 04 08 04 00 	movl   $0x408,0x4(%esp)
    3ebe:	00 
    3ebf:	89 44 24 08          	mov    %eax,0x8(%esp)
    3ec3:	89 3c 24             	mov    %edi,(%esp)
    3ec6:	e8 45 33 01 00       	call   17210 <async_req_fast>
    3ecb:	89 3c 24             	mov    %edi,(%esp)
    3ece:	89 85 74 fe ff ff    	mov    %eax,-0x18c(%ebp)
    3ed4:	e8 f7 46 01 00       	call   185d0 <async_exchange_end>
    3ed9:	8b 8d 74 fe ff ff    	mov    -0x18c(%ebp),%ecx
    3edf:	85 c9                	test   %ecx,%ecx
    3ee1:	75 34                	jne    3f17 <vfs_connection+0x4d7>
    3ee3:	8b 85 8c fe ff ff    	mov    -0x174(%ebp),%eax
    3ee9:	8b 40 04             	mov    0x4(%eax),%eax
    3eec:	89 04 24             	mov    %eax,(%esp)
    3eef:	e8 6c 42 01 00       	call   18160 <async_hangup>
    3ef4:	8b 85 8c fe ff ff    	mov    -0x174(%ebp),%eax
    3efa:	c6 00 00             	movb   $0x0,(%eax)
    3efd:	66 c7 40 08 00 00    	movw   $0x0,0x8(%eax)
    3f03:	c7 40 0c 00 00 00 00 	movl   $0x0,0xc(%eax)
    3f0a:	c7 40 04 00 00 00 00 	movl   $0x0,0x4(%eax)
    3f11:	89 04 24             	mov    %eax,(%esp)
    3f14:	ff 53 10             	call   *0x10(%ebx)
    3f17:	8b 85 8c fe ff ff    	mov    -0x174(%ebp),%eax
    3f1d:	89 04 24             	mov    %eax,(%esp)
    3f20:	ff 53 10             	call   *0x10(%ebx)
    3f23:	8b 85 74 fe ff ff    	mov    -0x18c(%ebp),%eax
    3f29:	89 44 24 04          	mov    %eax,0x4(%esp)
    3f2d:	89 34 24             	mov    %esi,(%esp)
    3f30:	e8 2b 39 01 00       	call   17860 <async_answer_0>
    3f35:	e9 1e fb ff ff       	jmp    3a58 <vfs_connection+0x18>
    3f3a:	8d b6 00 00 00 00    	lea    0x0(%esi),%esi
    3f40:	8b 85 c4 fe ff ff    	mov    -0x13c(%ebp),%eax
    3f46:	89 04 24             	mov    %eax,(%esp)
    3f49:	a1 90 49 02 00       	mov    0x24990,%eax
    3f4e:	ff 50 04             	call   *0x4(%eax)
    3f51:	89 34 24             	mov    %esi,(%esp)
    3f54:	89 44 24 04          	mov    %eax,0x4(%esp)
    3f58:	e8 03 39 01 00       	call   17860 <async_answer_0>
    3f5d:	e9 f6 fa ff ff       	jmp    3a58 <vfs_connection+0x18>
    3f62:	8d b6 00 00 00 00    	lea    0x0(%esi),%esi
    3f68:	8d 95 8c fe ff ff    	lea    -0x174(%ebp),%edx
    3f6e:	c7 44 24 14 00 00 00 	movl   $0x0,0x14(%esp)
    3f75:	00 
    3f76:	c7 44 24 10 00 00 00 	movl   $0x0,0x10(%esp)
    3f7d:	00 
    3f7e:	c7 44 24 0c 00 00 00 	movl   $0x0,0xc(%esp)
    3f85:	00 
    3f86:	c7 44 24 08 00 00 00 	movl   $0x0,0x8(%esp)
    3f8d:	00 
    3f8e:	c7 44 24 04 01 00 00 	movl   $0x1,0x4(%esp)
    3f95:	00 
    3f96:	89 14 24             	mov    %edx,(%esp)
    3f99:	8b 9d c4 fe ff ff    	mov    -0x13c(%ebp),%ebx
    3f9f:	e8 dc 53 01 00       	call   19380 <async_data_write_accept>
    3fa4:	85 c0                	test   %eax,%eax
    3fa6:	0f 85 5f fe ff ff    	jne    3e0b <vfs_connection+0x3cb>
    3fac:	8d 85 98 fe ff ff    	lea    -0x168(%ebp),%eax
    3fb2:	8d 8d 94 fe ff ff    	lea    -0x16c(%ebp),%ecx
    3fb8:	89 44 24 0c          	mov    %eax,0xc(%esp)
    3fbc:	8d 85 90 fe ff ff    	lea    -0x170(%ebp),%eax
    3fc2:	89 44 24 08          	mov    %eax,0x8(%esp)
    3fc6:	8b 85 8c fe ff ff    	mov    -0x174(%ebp),%eax
    3fcc:	89 44 24 04          	mov    %eax,0x4(%esp)
    3fd0:	a1 90 49 02 00       	mov    0x24990,%eax
    3fd5:	89 4c 24 10          	mov    %ecx,0x10(%esp)
    3fd9:	89 1c 24             	mov    %ebx,(%esp)
    3fdc:	ff 10                	call   *(%eax)
    3fde:	85 c0                	test   %eax,%eax
    3fe0:	0f 85 fa 04 00 00    	jne    44e0 <vfs_connection+0xaa0>
    3fe6:	8b 85 94 fe ff ff    	mov    -0x16c(%ebp),%eax
    3fec:	c7 44 24 04 00 00 00 	movl   $0x0,0x4(%esp)
    3ff3:	00 
    3ff4:	89 44 24 14          	mov    %eax,0x14(%esp)
    3ff8:	8b 85 9c fe ff ff    	mov    -0x164(%ebp),%eax
    3ffe:	89 44 24 10          	mov    %eax,0x10(%esp)
    4002:	8b 85 98 fe ff ff    	mov    -0x168(%ebp),%eax
    4008:	89 44 24 0c          	mov    %eax,0xc(%esp)
    400c:	8b 85 90 fe ff ff    	mov    -0x170(%ebp),%eax
    4012:	89 44 24 08          	mov    %eax,0x8(%esp)
    4016:	89 34 24             	mov    %esi,(%esp)
    4019:	e8 42 39 01 00       	call   17960 <async_answer_4>
    401e:	8b 85 8c fe ff ff    	mov    -0x174(%ebp),%eax
    4024:	89 04 24             	mov    %eax,(%esp)
    4027:	e8 04 0e 01 00       	call   14e30 <free>
    402c:	e9 27 fa ff ff       	jmp    3a58 <vfs_connection+0x18>
    4031:	8d b4 26 00 00 00 00 	lea    0x0(%esi,%eiz,1),%esi
    4038:	8b 95 c4 fe ff ff    	mov    -0x13c(%ebp),%edx
    403e:	8b 8d cc fe ff ff    	mov    -0x134(%ebp),%ecx
    4044:	89 95 74 fe ff ff    	mov    %edx,-0x18c(%ebp)
    404a:	c7 04 24 01 00 00 00 	movl   $0x1,(%esp)
    4051:	8b 95 d0 fe ff ff    	mov    -0x130(%ebp),%edx
    4057:	8b 1d 94 49 02 00    	mov    0x24994,%ebx
    405d:	89 95 70 fe ff ff    	mov    %edx,-0x190(%ebp)
    4063:	8b bd c8 fe ff ff    	mov    -0x138(%ebp),%edi
    4069:	89 8d 6c fe ff ff    	mov    %ecx,-0x194(%ebp)
    406f:	e8 4c 59 01 00       	call   199c0 <async_clone_receive>
    4074:	89 c2                	mov    %eax,%edx
    4076:	85 c0                	test   %eax,%eax
    4078:	0f 84 48 04 00 00    	je     44c6 <vfs_connection+0xa86>
    407e:	8b 8d 74 fe ff ff    	mov    -0x18c(%ebp),%ecx
    4084:	8d 85 8c fe ff ff    	lea    -0x174(%ebp),%eax
    408a:	89 7c 24 08          	mov    %edi,0x8(%esp)
    408e:	89 95 4c fe ff ff    	mov    %edx,-0x1b4(%ebp)
    4094:	89 4c 24 04          	mov    %ecx,0x4(%esp)
    4098:	89 04 24             	mov    %eax,(%esp)
    409b:	ff 53 08             	call   *0x8(%ebx)
    409e:	8b 95 4c fe ff ff    	mov    -0x1b4(%ebp),%edx
    40a4:	89 c7                	mov    %eax,%edi
    40a6:	85 c0                	test   %eax,%eax
    40a8:	0f 85 82 04 00 00    	jne    4530 <vfs_connection+0xaf0>
    40ae:	8b 85 8c fe ff ff    	mov    -0x174(%ebp),%eax
    40b4:	85 c0                	test   %eax,%eax
    40b6:	0f 84 44 05 00 00    	je     4600 <vfs_connection+0xbc0>
    40bc:	80 38 00             	cmpb   $0x0,(%eax)
    40bf:	89 14 24             	mov    %edx,(%esp)
    40c2:	0f 85 30 04 00 00    	jne    44f8 <vfs_connection+0xab8>
    40c8:	89 95 4c fe ff ff    	mov    %edx,-0x1b4(%ebp)
    40ce:	e8 8d 41 01 00       	call   18260 <async_exchange_begin>
    40d3:	c7 04 24 01 00 00 00 	movl   $0x1,(%esp)
    40da:	89 44 24 04          	mov    %eax,0x4(%esp)
    40de:	89 85 48 fe ff ff    	mov    %eax,-0x1b8(%ebp)
    40e4:	e8 97 3b 01 00       	call   17c80 <async_clone_establish>
    40e9:	8b 95 4c fe ff ff    	mov    -0x1b4(%ebp),%edx
    40ef:	85 c0                	test   %eax,%eax
    40f1:	8b 8d 48 fe ff ff    	mov    -0x1b8(%ebp),%ecx
    40f7:	0f 84 01 06 00 00    	je     46fe <vfs_connection+0xcbe>
    40fd:	8b 85 70 fe ff ff    	mov    -0x190(%ebp),%eax
    4103:	8d bd e4 fe ff ff    	lea    -0x11c(%ebp),%edi
    4109:	89 0c 24             	mov    %ecx,(%esp)
    410c:	89 7c 24 18          	mov    %edi,0x18(%esp)
    4110:	c7 44 24 14 00 00 00 	movl   $0x0,0x14(%esp)
    4117:	00 
    4118:	c7 44 24 10 00 00 00 	movl   $0x0,0x10(%esp)
    411f:	00 
    4120:	c7 44 24 0c 00 00 00 	movl   $0x0,0xc(%esp)
    4127:	00 
    4128:	89 44 24 08          	mov    %eax,0x8(%esp)
    412c:	c7 44 24 04 06 04 00 	movl   $0x406,0x4(%esp)
    4133:	00 
    4134:	89 95 4c fe ff ff    	mov    %edx,-0x1b4(%ebp)
    413a:	89 8d 48 fe ff ff    	mov    %ecx,-0x1b8(%ebp)
    4140:	e8 eb 53 01 00       	call   19530 <async_data_write_forward_fast>
    4145:	8b 8d 48 fe ff ff    	mov    -0x1b8(%ebp),%ecx
    414b:	89 c3                	mov    %eax,%ebx
    414d:	89 0c 24             	mov    %ecx,(%esp)
    4150:	e8 7b 44 01 00       	call   185d0 <async_exchange_end>
    4155:	85 db                	test   %ebx,%ebx
    4157:	8b 95 4c fe ff ff    	mov    -0x1b4(%ebp),%edx
    415d:	75 1f                	jne    417e <vfs_connection+0x73e>
    415f:	8b 85 8c fe ff ff    	mov    -0x174(%ebp),%eax
    4165:	8b 8d 6c fe ff ff    	mov    -0x194(%ebp),%ecx
    416b:	66 89 48 08          	mov    %cx,0x8(%eax)
    416f:	8b 8d 70 fe ff ff    	mov    -0x190(%ebp),%ecx
    4175:	c6 00 01             	movb   $0x1,(%eax)
    4178:	89 48 0c             	mov    %ecx,0xc(%eax)
    417b:	89 50 04             	mov    %edx,0x4(%eax)
    417e:	8b 85 f4 fe ff ff    	mov    -0x10c(%ebp),%eax
    4184:	89 5c 24 04          	mov    %ebx,0x4(%esp)
    4188:	89 44 24 14          	mov    %eax,0x14(%esp)
    418c:	8b 85 f0 fe ff ff    	mov    -0x110(%ebp),%eax
    4192:	89 44 24 10          	mov    %eax,0x10(%esp)
    4196:	8b 85 ec fe ff ff    	mov    -0x114(%ebp),%eax
    419c:	89 44 24 0c          	mov    %eax,0xc(%esp)
    41a0:	8b 85 e8 fe ff ff    	mov    -0x118(%ebp),%eax
    41a6:	89 44 24 08          	mov    %eax,0x8(%esp)
    41aa:	89 34 24             	mov    %esi,(%esp)
    41ad:	e8 ae 37 01 00       	call   17960 <async_answer_4>
    41b2:	e9 a1 f8 ff ff       	jmp    3a58 <vfs_connection+0x18>
    41b7:	90                   	nop
    41b8:	8b 85 c8 fe ff ff    	mov    -0x138(%ebp),%eax
    41be:	89 44 24 04          	mov    %eax,0x4(%esp)
    41c2:	8b 85 c4 fe ff ff    	mov    -0x13c(%ebp),%eax
    41c8:	89 04 24             	mov    %eax,(%esp)
    41cb:	a1 90 49 02 00       	mov    0x24990,%eax
    41d0:	ff 50 14             	call   *0x14(%eax)
    41d3:	89 34 24             	mov    %esi,(%esp)
    41d6:	89 44 24 04          	mov    %eax,0x4(%esp)
    41da:	e8 81 36 01 00       	call   17860 <async_answer_0>
    41df:	e9 74 f8 ff ff       	jmp    3a58 <vfs_connection+0x18>
    41e4:	8d 74 26 00          	lea    0x0(%esi,%eiz,1),%esi
    41e8:	8b 85 d0 fe ff ff    	mov    -0x130(%ebp),%eax
    41ee:	8b 8d cc fe ff ff    	mov    -0x134(%ebp),%ecx
    41f4:	89 44 24 0c          	mov    %eax,0xc(%esp)
    41f8:	8b 85 c8 fe ff ff    	mov    -0x138(%ebp),%eax
    41fe:	89 44 24 04          	mov    %eax,0x4(%esp)
    4202:	8b 85 c4 fe ff ff    	mov    -0x13c(%ebp),%eax
    4208:	89 04 24             	mov    %eax,(%esp)
    420b:	a1 90 49 02 00       	mov    0x24990,%eax
    4210:	89 4c 24 08          	mov    %ecx,0x8(%esp)
    4214:	ff 50 10             	call   *0x10(%eax)
    4217:	89 34 24             	mov    %esi,(%esp)
    421a:	89 44 24 04          	mov    %eax,0x4(%esp)
    421e:	e8 3d 36 01 00       	call   17860 <async_answer_0>
    4223:	e9 30 f8 ff ff       	jmp    3a58 <vfs_connection+0x18>
    4228:	8d 85 98 fe ff ff    	lea    -0x168(%ebp),%eax
    422e:	8d 95 94 fe ff ff    	lea    -0x16c(%ebp),%edx
    4234:	89 44 24 14          	mov    %eax,0x14(%esp)
    4238:	8b 85 d0 fe ff ff    	mov    -0x130(%ebp),%eax
    423e:	89 44 24 0c          	mov    %eax,0xc(%esp)
    4242:	8b 85 c8 fe ff ff    	mov    -0x138(%ebp),%eax
    4248:	89 44 24 04          	mov    %eax,0x4(%esp)
    424c:	8b 85 c4 fe ff ff    	mov    -0x13c(%ebp),%eax
    4252:	8b 8d cc fe ff ff    	mov    -0x134(%ebp),%ecx
    4258:	89 04 24             	mov    %eax,(%esp)
    425b:	a1 90 49 02 00       	mov    0x24990,%eax
    4260:	89 54 24 10          	mov    %edx,0x10(%esp)
    4264:	89 4c 24 08          	mov    %ecx,0x8(%esp)
    4268:	ff 50 0c             	call   *0xc(%eax)
    426b:	85 c0                	test   %eax,%eax
    426d:	0f 85 98 fb ff ff    	jne    3e0b <vfs_connection+0x3cb>
    4273:	8b 85 9c fe ff ff    	mov    -0x164(%ebp),%eax
    4279:	c7 44 24 04 00 00 00 	movl   $0x0,0x4(%esp)
    4280:	00 
    4281:	89 44 24 10          	mov    %eax,0x10(%esp)
    4285:	8b 85 98 fe ff ff    	mov    -0x168(%ebp),%eax
    428b:	89 44 24 0c          	mov    %eax,0xc(%esp)
    428f:	8b 85 94 fe ff ff    	mov    -0x16c(%ebp),%eax
    4295:	89 44 24 08          	mov    %eax,0x8(%esp)
    4299:	89 34 24             	mov    %esi,(%esp)
    429c:	e8 7f 36 01 00       	call   17920 <async_answer_3>
    42a1:	e9 b2 f7 ff ff       	jmp    3a58 <vfs_connection+0x18>
    42a6:	66 90                	xchg   %ax,%ax
    42a8:	8d 85 94 fe ff ff    	lea    -0x16c(%ebp),%eax
    42ae:	8b 8d cc fe ff ff    	mov    -0x134(%ebp),%ecx
    42b4:	89 44 24 10          	mov    %eax,0x10(%esp)
    42b8:	8b 85 d0 fe ff ff    	mov    -0x130(%ebp),%eax
    42be:	89 44 24 0c          	mov    %eax,0xc(%esp)
    42c2:	8b 85 c8 fe ff ff    	mov    -0x138(%ebp),%eax
    42c8:	89 44 24 04          	mov    %eax,0x4(%esp)
    42cc:	8b 85 c4 fe ff ff    	mov    -0x13c(%ebp),%eax
    42d2:	89 04 24             	mov    %eax,(%esp)
    42d5:	a1 90 49 02 00       	mov    0x24990,%eax
    42da:	89 4c 24 08          	mov    %ecx,0x8(%esp)
    42de:	ff 50 08             	call   *0x8(%eax)
    42e1:	85 c0                	test   %eax,%eax
    42e3:	0f 85 22 fb ff ff    	jne    3e0b <vfs_connection+0x3cb>
    42e9:	8b 85 94 fe ff ff    	mov    -0x16c(%ebp),%eax
    42ef:	c7 44 24 04 00 00 00 	movl   $0x0,0x4(%esp)
    42f6:	00 
    42f7:	89 44 24 08          	mov    %eax,0x8(%esp)
    42fb:	89 34 24             	mov    %esi,(%esp)
    42fe:	e8 9d 35 01 00       	call   178a0 <async_answer_1>
    4303:	e9 50 f7 ff ff       	jmp    3a58 <vfs_connection+0x18>
    4308:	8b 85 c8 fe ff ff    	mov    -0x138(%ebp),%eax
    430e:	8d 8d 8c fe ff ff    	lea    -0x174(%ebp),%ecx
    4314:	89 44 24 08          	mov    %eax,0x8(%esp)
    4318:	8b 1d 94 49 02 00    	mov    0x24994,%ebx
    431e:	8b 85 c4 fe ff ff    	mov    -0x13c(%ebp),%eax
    4324:	89 0c 24             	mov    %ecx,(%esp)
    4327:	89 44 24 04          	mov    %eax,0x4(%esp)
    432b:	ff 53 08             	call   *0x8(%ebx)
    432e:	85 c0                	test   %eax,%eax
    4330:	0f 85 d5 fa ff ff    	jne    3e0b <vfs_connection+0x3cb>
    4336:	8b 85 8c fe ff ff    	mov    -0x174(%ebp),%eax
    433c:	85 c0                	test   %eax,%eax
    433e:	0f 84 0f 02 00 00    	je     4553 <vfs_connection+0xb13>
    4344:	89 04 24             	mov    %eax,(%esp)
    4347:	ff 53 0c             	call   *0xc(%ebx)
    434a:	89 85 74 fe ff ff    	mov    %eax,-0x18c(%ebp)
    4350:	8b 85 8c fe ff ff    	mov    -0x174(%ebp),%eax
    4356:	89 04 24             	mov    %eax,(%esp)
    4359:	ff 53 2c             	call   *0x2c(%ebx)
    435c:	89 85 70 fe ff ff    	mov    %eax,-0x190(%ebp)
    4362:	8b 85 8c fe ff ff    	mov    -0x174(%ebp),%eax
    4368:	89 95 4c fe ff ff    	mov    %edx,-0x1b4(%ebp)
    436e:	89 04 24             	mov    %eax,(%esp)
    4371:	ff 53 38             	call   *0x38(%ebx)
    4374:	31 c9                	xor    %ecx,%ecx
    4376:	88 c1                	mov    %al,%cl
    4378:	8b 85 8c fe ff ff    	mov    -0x174(%ebp),%eax
    437e:	89 8d 48 fe ff ff    	mov    %ecx,-0x1b8(%ebp)
    4384:	89 04 24             	mov    %eax,(%esp)
    4387:	ff 53 34             	call   *0x34(%ebx)
    438a:	3c 01                	cmp    $0x1,%al
    438c:	8b 85 8c fe ff ff    	mov    -0x174(%ebp),%eax
    4392:	19 ff                	sbb    %edi,%edi
    4394:	89 04 24             	mov    %eax,(%esp)
    4397:	ff 53 30             	call   *0x30(%ebx)
    439a:	83 f7 ff             	xor    $0xffffffff,%edi
    439d:	8b 8d 48 fe ff ff    	mov    -0x1b8(%ebp),%ecx
    43a3:	89 44 24 10          	mov    %eax,0x10(%esp)
    43a7:	83 e7 02             	and    $0x2,%edi
    43aa:	8b 85 70 fe ff ff    	mov    -0x190(%ebp),%eax
    43b0:	09 f9                	or     %edi,%ecx
    43b2:	8b 95 4c fe ff ff    	mov    -0x1b4(%ebp),%edx
    43b8:	89 44 24 08          	mov    %eax,0x8(%esp)
    43bc:	8b 85 74 fe ff ff    	mov    -0x18c(%ebp),%eax
    43c2:	89 4c 24 14          	mov    %ecx,0x14(%esp)
    43c6:	89 54 24 0c          	mov    %edx,0xc(%esp)
    43ca:	89 44 24 04          	mov    %eax,0x4(%esp)
    43ce:	89 34 24             	mov    %esi,(%esp)
    43d1:	e8 8a 35 01 00       	call   17960 <async_answer_4>
    43d6:	8b 85 8c fe ff ff    	mov    -0x174(%ebp),%eax
    43dc:	89 04 24             	mov    %eax,(%esp)
    43df:	ff 53 10             	call   *0x10(%ebx)
    43e2:	e9 71 f6 ff ff       	jmp    3a58 <vfs_connection+0x18>
    43e7:	90                   	nop
    43e8:	8b 85 c8 fe ff ff    	mov    -0x138(%ebp),%eax
    43ee:	89 44 24 04          	mov    %eax,0x4(%esp)
    43f2:	8b 85 c4 fe ff ff    	mov    -0x13c(%ebp),%eax
    43f8:	89 04 24             	mov    %eax,(%esp)
    43fb:	a1 90 49 02 00       	mov    0x24990,%eax
    4400:	ff 50 18             	call   *0x18(%eax)
    4403:	89 34 24             	mov    %esi,(%esp)
    4406:	89 44 24 04          	mov    %eax,0x4(%esp)
    440a:	e8 51 34 01 00       	call   17860 <async_answer_0>
    440f:	e9 44 f6 ff ff       	jmp    3a58 <vfs_connection+0x18>
    4414:	8d 74 26 00          	lea    0x0(%esi,%eiz,1),%esi
    4418:	81 c4 dc 01 00 00    	add    $0x1dc,%esp
    441e:	5b                   	pop    %ebx
    441f:	5e                   	pop    %esi
    4420:	5f                   	pop    %edi
    4421:	5d                   	pop    %ebp
    4422:	c3                   	ret    
    4423:	90                   	nop
    4424:	8d 74 26 00          	lea    0x0(%esi,%eiz,1),%esi
    4428:	c7 85 6c fe ff ff 00 	movl   $0x0,-0x194(%ebp)
    442f:	00 00 00 
    4432:	89 54 24 04          	mov    %edx,0x4(%esp)
    4436:	89 34 24             	mov    %esi,(%esp)
    4439:	e8 22 34 01 00       	call   17860 <async_answer_0>
    443e:	8b 85 6c fe ff ff    	mov    -0x194(%ebp),%eax
    4444:	85 c0                	test   %eax,%eax
    4446:	74 12                	je     445a <vfs_connection+0xa1a>
    4448:	8b 8d 6c fe ff ff    	mov    -0x194(%ebp),%ecx
    444e:	89 0c 24             	mov    %ecx,(%esp)
    4451:	8b 8d 74 fe ff ff    	mov    -0x18c(%ebp),%ecx
    4457:	ff 51 10             	call   *0x10(%ecx)
    445a:	8b 85 84 fe ff ff    	mov    -0x17c(%ebp),%eax
    4460:	85 c0                	test   %eax,%eax
    4462:	74 0c                	je     4470 <vfs_connection+0xa30>
    4464:	8b 8d 74 fe ff ff    	mov    -0x18c(%ebp),%ecx
    446a:	89 04 24             	mov    %eax,(%esp)
    446d:	ff 51 10             	call   *0x10(%ecx)
    4470:	8b 85 88 fe ff ff    	mov    -0x178(%ebp),%eax
    4476:	85 c0                	test   %eax,%eax
    4478:	0f 84 da f5 ff ff    	je     3a58 <vfs_connection+0x18>
    447e:	8b 8d 74 fe ff ff    	mov    -0x18c(%ebp),%ecx
    4484:	89 04 24             	mov    %eax,(%esp)
    4487:	ff 51 10             	call   *0x10(%ecx)
    448a:	e9 c9 f5 ff ff       	jmp    3a58 <vfs_connection+0x18>
    448f:	90                   	nop
    4490:	85 d2                	test   %edx,%edx
    4492:	0f 84 62 07 00 00    	je     4bfa <vfs_connection+0x11ba>
    4498:	89 de                	mov    %ebx,%esi
    449a:	8d bd e4 fe ff ff    	lea    -0x11c(%ebp),%edi
    44a0:	e9 7e f7 ff ff       	jmp    3c23 <vfs_connection+0x1e3>
    44a5:	8d 76 00             	lea    0x0(%esi),%esi
    44a8:	c7 44 24 04 00 00 00 	movl   $0x0,0x4(%esp)
    44af:	00 
    44b0:	89 04 24             	mov    %eax,(%esp)
    44b3:	e8 a8 33 01 00       	call   17860 <async_answer_0>
    44b8:	e9 9b f5 ff ff       	jmp    3a58 <vfs_connection+0x18>
    44bd:	8d 76 00             	lea    0x0(%esi),%esi
    44c0:	89 04 24             	mov    %eax,(%esp)
    44c3:	ff 53 10             	call   *0x10(%ebx)
    44c6:	c7 44 24 04 f2 ff ff 	movl   $0xfffffff2,0x4(%esp)
    44cd:	ff 
    44ce:	89 34 24             	mov    %esi,(%esp)
    44d1:	e8 8a 33 01 00       	call   17860 <async_answer_0>
    44d6:	e9 7d f5 ff ff       	jmp    3a58 <vfs_connection+0x18>
    44db:	90                   	nop
    44dc:	8d 74 26 00          	lea    0x0(%esi,%eiz,1),%esi
    44e0:	89 44 24 04          	mov    %eax,0x4(%esp)
    44e4:	89 34 24             	mov    %esi,(%esp)
    44e7:	e8 74 33 01 00       	call   17860 <async_answer_0>
    44ec:	e9 2d fb ff ff       	jmp    401e <vfs_connection+0x5de>
    44f1:	8d b4 26 00 00 00 00 	lea    0x0(%esi,%eiz,1),%esi
    44f8:	e8 63 3c 01 00       	call   18160 <async_hangup>
    44fd:	8b 85 8c fe ff ff    	mov    -0x174(%ebp),%eax
    4503:	89 04 24             	mov    %eax,(%esp)
    4506:	ff 53 10             	call   *0x10(%ebx)
    4509:	c7 04 24 f1 ff ff ff 	movl   $0xfffffff1,(%esp)
    4510:	e8 db 4f 01 00       	call   194f0 <async_data_write_void>
    4515:	c7 44 24 04 f1 ff ff 	movl   $0xfffffff1,0x4(%esp)
    451c:	ff 
    451d:	89 34 24             	mov    %esi,(%esp)
    4520:	e8 3b 33 01 00       	call   17860 <async_answer_0>
    4525:	e9 2e f5 ff ff       	jmp    3a58 <vfs_connection+0x18>
    452a:	8d b6 00 00 00 00    	lea    0x0(%esi),%esi
    4530:	89 14 24             	mov    %edx,(%esp)
    4533:	89 fb                	mov    %edi,%ebx
    4535:	e8 26 3c 01 00       	call   18160 <async_hangup>
    453a:	89 3c 24             	mov    %edi,(%esp)
    453d:	e8 ae 4f 01 00       	call   194f0 <async_data_write_void>
    4542:	89 5c 24 04          	mov    %ebx,0x4(%esp)
    4546:	89 34 24             	mov    %esi,(%esp)
    4549:	e8 12 33 01 00       	call   17860 <async_answer_0>
    454e:	e9 05 f5 ff ff       	jmp    3a58 <vfs_connection+0x18>
    4553:	c7 44 24 04 ff ff ff 	movl   $0xffffffff,0x4(%esp)
    455a:	ff 
    455b:	89 34 24             	mov    %esi,(%esp)
    455e:	e8 fd 32 01 00       	call   17860 <async_answer_0>
    4563:	e9 f0 f4 ff ff       	jmp    3a58 <vfs_connection+0x18>
    4568:	8b b5 54 fe ff ff    	mov    -0x1ac(%ebp),%esi
    456e:	c7 44 24 04 00 ff ff 	movl   $0xffffff00,0x4(%esp)
    4575:	ff 
    4576:	89 34 24             	mov    %esi,(%esp)
    4579:	e8 e2 32 01 00       	call   17860 <async_answer_0>
    457e:	e9 bb fe ff ff       	jmp    443e <vfs_connection+0x9fe>
    4583:	8b 40 04             	mov    0x4(%eax),%eax
    4586:	89 04 24             	mov    %eax,(%esp)
    4589:	e8 d2 3c 01 00       	call   18260 <async_exchange_begin>
    458e:	8b 95 5c fe ff ff    	mov    -0x1a4(%ebp),%edx
    4594:	89 c3                	mov    %eax,%ebx
    4596:	8b 8d 60 fe ff ff    	mov    -0x1a0(%ebp),%ecx
    459c:	8b 85 84 fe ff ff    	mov    -0x17c(%ebp),%eax
    45a2:	89 54 24 1c          	mov    %edx,0x1c(%esp)
    45a6:	89 4c 24 18          	mov    %ecx,0x18(%esp)
    45aa:	c7 44 24 20 01 00 00 	movl   $0x1,0x20(%esp)
    45b1:	00 
    45b2:	8b 40 0c             	mov    0xc(%eax),%eax
    45b5:	8b 8d 68 fe ff ff    	mov    -0x198(%ebp),%ecx
    45bb:	8b 95 70 fe ff ff    	mov    -0x190(%ebp),%edx
    45c1:	89 4c 24 0c          	mov    %ecx,0xc(%esp)
    45c5:	89 54 24 10          	mov    %edx,0x10(%esp)
    45c9:	89 44 24 14          	mov    %eax,0x14(%esp)
    45cd:	c7 44 24 08 0b 04 00 	movl   $0x40b,0x8(%esp)
    45d4:	00 
    45d5:	89 5c 24 04          	mov    %ebx,0x4(%esp)
    45d9:	89 34 24             	mov    %esi,(%esp)
    45dc:	e8 cf 33 01 00       	call   179b0 <async_forward_slow>
    45e1:	89 1c 24             	mov    %ebx,(%esp)
    45e4:	e8 e7 3f 01 00       	call   185d0 <async_exchange_end>
    45e9:	8b 85 84 fe ff ff    	mov    -0x17c(%ebp),%eax
    45ef:	8b 8d 74 fe ff ff    	mov    -0x18c(%ebp),%ecx
    45f5:	89 04 24             	mov    %eax,(%esp)
    45f8:	ff 51 10             	call   *0x10(%ecx)
    45fb:	e9 58 f4 ff ff       	jmp    3a58 <vfs_connection+0x18>
    4600:	89 14 24             	mov    %edx,(%esp)
    4603:	83 cb ff             	or     $0xffffffff,%ebx
    4606:	e8 55 3b 01 00       	call   18160 <async_hangup>
    460b:	c7 04 24 ff ff ff ff 	movl   $0xffffffff,(%esp)
    4612:	e8 d9 4e 01 00       	call   194f0 <async_data_write_void>
    4617:	e9 26 ff ff ff       	jmp    4542 <vfs_connection+0xb02>
    461c:	83 c8 ff             	or     $0xffffffff,%eax
    461f:	e9 e7 f7 ff ff       	jmp    3e0b <vfs_connection+0x3cb>
    4624:	8b b5 54 fe ff ff    	mov    -0x1ac(%ebp),%esi
    462a:	89 c2                	mov    %eax,%edx
    462c:	e9 01 fe ff ff       	jmp    4432 <vfs_connection+0x9f2>
    4631:	8b 85 84 fe ff ff    	mov    -0x17c(%ebp),%eax
    4637:	8b 8d 74 fe ff ff    	mov    -0x18c(%ebp),%ecx
    463d:	89 04 24             	mov    %eax,(%esp)
    4640:	ff 51 10             	call   *0x10(%ecx)
    4643:	8b 85 8c fe ff ff    	mov    -0x174(%ebp),%eax
    4649:	89 85 84 fe ff ff    	mov    %eax,-0x17c(%ebp)
    464f:	f7 85 60 fe ff ff 00 	testl  $0x100,-0x1a0(%ebp)
    4656:	01 00 00 
    4659:	75 78                	jne    46d3 <vfs_connection+0xc93>
    465b:	8b 85 84 fe ff ff    	mov    -0x17c(%ebp),%eax
    4661:	8b 8d 74 fe ff ff    	mov    -0x18c(%ebp),%ecx
    4667:	89 04 24             	mov    %eax,(%esp)
    466a:	ff 51 2c             	call   *0x2c(%ecx)
    466d:	8b 8d 74 fe ff ff    	mov    -0x18c(%ebp),%ecx
    4673:	89 c3                	mov    %eax,%ebx
    4675:	8b 85 84 fe ff ff    	mov    -0x17c(%ebp),%eax
    467b:	89 95 4c fe ff ff    	mov    %edx,-0x1b4(%ebp)
    4681:	89 04 24             	mov    %eax,(%esp)
    4684:	ff 51 30             	call   *0x30(%ecx)
    4687:	8b 8d 74 fe ff ff    	mov    -0x18c(%ebp),%ecx
    468d:	89 c7                	mov    %eax,%edi
    468f:	8b 85 84 fe ff ff    	mov    -0x17c(%ebp),%eax
    4695:	89 04 24             	mov    %eax,(%esp)
    4698:	ff 51 28             	call   *0x28(%ecx)
    469b:	8b 95 4c fe ff ff    	mov    -0x1b4(%ebp),%edx
    46a1:	89 7c 24 18          	mov    %edi,0x18(%esp)
    46a5:	89 54 24 14          	mov    %edx,0x14(%esp)
    46a9:	89 5c 24 10          	mov    %ebx,0x10(%esp)
    46ad:	89 44 24 0c          	mov    %eax,0xc(%esp)
    46b1:	8b 8d 64 fe ff ff    	mov    -0x19c(%ebp),%ecx
    46b7:	0f bf 85 52 fe ff ff 	movswl -0x1ae(%ebp),%eax
    46be:	89 4c 24 08          	mov    %ecx,0x8(%esp)
    46c2:	89 44 24 04          	mov    %eax,0x4(%esp)
    46c6:	89 34 24             	mov    %esi,(%esp)
    46c9:	e8 a2 32 01 00       	call   17970 <async_answer_5>
    46ce:	e9 6b fd ff ff       	jmp    443e <vfs_connection+0x9fe>
    46d3:	8b 85 84 fe ff ff    	mov    -0x17c(%ebp),%eax
    46d9:	8b 8d 74 fe ff ff    	mov    -0x18c(%ebp),%ecx
    46df:	89 04 24             	mov    %eax,(%esp)
    46e2:	ff 51 0c             	call   *0xc(%ecx)
    46e5:	85 c0                	test   %eax,%eax
    46e7:	0f 84 6e ff ff ff    	je     465b <vfs_connection+0xc1b>
    46ed:	89 44 24 04          	mov    %eax,0x4(%esp)
    46f1:	89 34 24             	mov    %esi,(%esp)
    46f4:	e8 67 31 01 00       	call   17860 <async_answer_0>
    46f9:	e9 40 fd ff ff       	jmp    443e <vfs_connection+0x9fe>
    46fe:	89 0c 24             	mov    %ecx,(%esp)
    4701:	e8 ca 3e 01 00       	call   185d0 <async_exchange_end>
    4706:	8b 95 4c fe ff ff    	mov    -0x1b4(%ebp),%edx
    470c:	89 14 24             	mov    %edx,(%esp)
    470f:	e8 4c 3a 01 00       	call   18160 <async_hangup>
    4714:	8b 85 8c fe ff ff    	mov    -0x174(%ebp),%eax
    471a:	89 04 24             	mov    %eax,(%esp)
    471d:	ff 53 10             	call   *0x10(%ebx)
    4720:	e8 bb 0e 00 00       	call   55e0 <__errno>
    4725:	89 c3                	mov    %eax,%ebx
    4727:	8b 00                	mov    (%eax),%eax
    4729:	89 04 24             	mov    %eax,(%esp)
    472c:	e8 bf 4d 01 00       	call   194f0 <async_data_write_void>
    4731:	8b 03                	mov    (%ebx),%eax
    4733:	89 44 24 04          	mov    %eax,0x4(%esp)
    4737:	89 34 24             	mov    %esi,(%esp)
    473a:	e8 21 31 01 00       	call   17860 <async_answer_0>
    473f:	e9 14 f3 ff ff       	jmp    3a58 <vfs_connection+0x18>
    4744:	8d 8d a0 fe ff ff    	lea    -0x160(%ebp),%ecx
    474a:	c7 44 24 08 20 00 00 	movl   $0x20,0x8(%esp)
    4751:	00 
    4752:	89 0c 24             	mov    %ecx,(%esp)
    4755:	c7 44 24 04 00 00 00 	movl   $0x0,0x4(%esp)
    475c:	00 
    475d:	89 8d 48 fe ff ff    	mov    %ecx,-0x1b8(%ebp)
    4763:	e8 f8 37 00 00       	call   7f60 <memset>
    4768:	8b 85 70 fe ff ff    	mov    -0x190(%ebp),%eax
    476e:	8b 95 74 fe ff ff    	mov    -0x18c(%ebp),%edx
    4774:	66 89 85 a0 fe ff ff 	mov    %ax,-0x160(%ebp)
    477b:	8b 85 8c fe ff ff    	mov    -0x174(%ebp),%eax
    4781:	89 95 a8 fe ff ff    	mov    %edx,-0x158(%ebp)
    4787:	89 bd a4 fe ff ff    	mov    %edi,-0x15c(%ebp)
    478d:	89 04 24             	mov    %eax,(%esp)
    4790:	ff 53 30             	call   *0x30(%ebx)
    4793:	89 85 ac fe ff ff    	mov    %eax,-0x154(%ebp)
    4799:	8b 85 8c fe ff ff    	mov    -0x174(%ebp),%eax
    479f:	89 04 24             	mov    %eax,(%esp)
    47a2:	ff 53 38             	call   *0x38(%ebx)
    47a5:	88 85 b0 fe ff ff    	mov    %al,-0x150(%ebp)
    47ab:	8b 85 8c fe ff ff    	mov    -0x174(%ebp),%eax
    47b1:	89 04 24             	mov    %eax,(%esp)
    47b4:	ff 53 34             	call   *0x34(%ebx)
    47b7:	88 85 b1 fe ff ff    	mov    %al,-0x14f(%ebp)
    47bd:	8b 85 8c fe ff ff    	mov    -0x174(%ebp),%eax
    47c3:	89 04 24             	mov    %eax,(%esp)
    47c6:	ff 53 2c             	call   *0x2c(%ebx)
    47c9:	89 85 b4 fe ff ff    	mov    %eax,-0x14c(%ebp)
    47cf:	8b 85 8c fe ff ff    	mov    -0x174(%ebp),%eax
    47d5:	89 95 b8 fe ff ff    	mov    %edx,-0x148(%ebp)
    47db:	89 04 24             	mov    %eax,(%esp)
    47de:	ff 53 3c             	call   *0x3c(%ebx)
    47e1:	89 85 bc fe ff ff    	mov    %eax,-0x144(%ebp)
    47e7:	8b 85 8c fe ff ff    	mov    -0x174(%ebp),%eax
    47ed:	89 04 24             	mov    %eax,(%esp)
    47f0:	ff 53 10             	call   *0x10(%ebx)
    47f3:	8b 8d 48 fe ff ff    	mov    -0x1b8(%ebp),%ecx
    47f9:	8b 85 90 fe ff ff    	mov    -0x170(%ebp),%eax
    47ff:	c7 44 24 08 20 00 00 	movl   $0x20,0x8(%esp)
    4806:	00 
    4807:	89 4c 24 04          	mov    %ecx,0x4(%esp)
    480b:	89 04 24             	mov    %eax,(%esp)
    480e:	e8 1d 46 01 00       	call   18e30 <async_data_read_finalize>
    4813:	c7 44 24 04 00 00 00 	movl   $0x0,0x4(%esp)
    481a:	00 
    481b:	89 34 24             	mov    %esi,(%esp)
    481e:	e8 3d 30 01 00       	call   17860 <async_answer_0>
    4823:	e9 30 f2 ff ff       	jmp    3a58 <vfs_connection+0x18>
    4828:	8b 85 84 fe ff ff    	mov    -0x17c(%ebp),%eax
    482e:	8b 8d 74 fe ff ff    	mov    -0x18c(%ebp),%ecx
    4834:	89 44 24 04          	mov    %eax,0x4(%esp)
    4838:	8d 85 80 fe ff ff    	lea    -0x180(%ebp),%eax
    483e:	89 04 24             	mov    %eax,(%esp)
    4841:	8b b5 54 fe ff ff    	mov    -0x1ac(%ebp),%esi
    4847:	ff 51 24             	call   *0x24(%ecx)
    484a:	89 c2                	mov    %eax,%edx
    484c:	85 c0                	test   %eax,%eax
    484e:	0f 85 de fb ff ff    	jne    4432 <vfs_connection+0x9f2>
    4854:	80 bd 80 fe ff ff 00 	cmpb   $0x0,-0x180(%ebp)
    485b:	0f 85 78 f4 ff ff    	jne    3cd9 <vfs_connection+0x299>
    4861:	f6 85 60 fe ff ff 60 	testb  $0x60,-0x1a0(%ebp)
    4868:	74 7d                	je     48e7 <vfs_connection+0xea7>
    486a:	8b 85 84 fe ff ff    	mov    -0x17c(%ebp),%eax
    4870:	8b 8d 74 fe ff ff    	mov    -0x18c(%ebp),%ecx
    4876:	89 04 24             	mov    %eax,(%esp)
    4879:	ff 51 34             	call   *0x34(%ecx)
    487c:	84 c0                	test   %al,%al
    487e:	0f 84 e3 02 00 00    	je     4b67 <vfs_connection+0x1127>
    4884:	8d 83 ff 00 00 00    	lea    0xff(%ebx),%eax
    488a:	8d bd e4 fe ff ff    	lea    -0x11c(%ebp),%edi
    4890:	89 85 68 fe ff ff    	mov    %eax,-0x198(%ebp)
    4896:	89 f8                	mov    %edi,%eax
    4898:	8b 0d 9c 49 02 00    	mov    0x2499c,%ecx
    489e:	29 d8                	sub    %ebx,%eax
    48a0:	31 d2                	xor    %edx,%edx
    48a2:	89 85 58 fe ff ff    	mov    %eax,-0x1a8(%ebp)
    48a8:	89 8d 54 fe ff ff    	mov    %ecx,-0x1ac(%ebp)
    48ae:	eb 23                	jmp    48d3 <vfs_connection+0xe93>
    48b0:	3b 9d 68 fe ff ff    	cmp    -0x198(%ebp),%ebx
    48b6:	0f 84 29 03 00 00    	je     4be5 <vfs_connection+0x11a5>
    48bc:	8b 8d 58 fe ff ff    	mov    -0x1a8(%ebp),%ecx
    48c2:	42                   	inc    %edx
    48c3:	88 04 19             	mov    %al,(%ecx,%ebx,1)
    48c6:	43                   	inc    %ebx
    48c7:	39 9d 70 fe ff ff    	cmp    %ebx,-0x190(%ebp)
    48cd:	0f 82 05 03 00 00    	jb     4bd8 <vfs_connection+0x1198>
    48d3:	89 d8                	mov    %ebx,%eax
    48d5:	8b 8d 54 fe ff ff    	mov    -0x1ac(%ebp),%ecx
    48db:	25 ff ff 01 00       	and    $0x1ffff,%eax
    48e0:	8a 04 01             	mov    (%ecx,%eax,1),%al
    48e3:	3c 2f                	cmp    $0x2f,%al
    48e5:	75 c9                	jne    48b0 <vfs_connection+0xe70>
    48e7:	c7 44 24 04 ff ff ff 	movl   $0xffffffff,0x4(%esp)
    48ee:	ff 
    48ef:	89 34 24             	mov    %esi,(%esp)
    48f2:	e8 69 2f 01 00       	call   17860 <async_answer_0>
    48f7:	e9 42 fb ff ff       	jmp    443e <vfs_connection+0x9fe>
    48fc:	8b b5 54 fe ff ff    	mov    -0x1ac(%ebp),%esi
    4902:	39 9d 70 fe ff ff    	cmp    %ebx,-0x190(%ebp)
    4908:	73 dd                	jae    48e7 <vfs_connection+0xea7>
    490a:	f6 85 60 fe ff ff 60 	testb  $0x60,-0x1a0(%ebp)
    4911:	74 d4                	je     48e7 <vfs_connection+0xea7>
    4913:	8b 85 84 fe ff ff    	mov    -0x17c(%ebp),%eax
    4919:	8b 8d 74 fe ff ff    	mov    -0x18c(%ebp),%ecx
    491f:	89 04 24             	mov    %eax,(%esp)
    4922:	ff 51 34             	call   *0x34(%ecx)
    4925:	84 c0                	test   %al,%al
    4927:	0f 84 3a 02 00 00    	je     4b67 <vfs_connection+0x1127>
    492d:	8b 9d 60 fe ff ff    	mov    -0x1a0(%ebp),%ebx
    4933:	83 e3 20             	and    $0x20,%ebx
    4936:	0f 84 6f 02 00 00    	je     4bab <vfs_connection+0x116b>
    493c:	8b 8d 64 fe ff ff    	mov    -0x19c(%ebp),%ecx
    4942:	8b 95 60 fe ff ff    	mov    -0x1a0(%ebp),%edx
    4948:	89 4c 24 04          	mov    %ecx,0x4(%esp)
    494c:	8d 85 8c fe ff ff    	lea    -0x174(%ebp),%eax
    4952:	8b 8d 74 fe ff ff    	mov    -0x18c(%ebp),%ecx
    4958:	89 54 24 08          	mov    %edx,0x8(%esp)
    495c:	89 04 24             	mov    %eax,(%esp)
    495f:	ff 51 14             	call   *0x14(%ecx)
    4962:	89 c2                	mov    %eax,%edx
    4964:	85 d2                	test   %edx,%edx
    4966:	0f 85 c6 fa ff ff    	jne    4432 <vfs_connection+0x9f2>
    496c:	8b 85 8c fe ff ff    	mov    -0x174(%ebp),%eax
    4972:	85 c0                	test   %eax,%eax
    4974:	0f 84 9c 02 00 00    	je     4c16 <vfs_connection+0x11d6>
    497a:	89 44 24 04          	mov    %eax,0x4(%esp)
    497e:	8b 8d 74 fe ff ff    	mov    -0x18c(%ebp),%ecx
    4984:	8b 85 84 fe ff ff    	mov    -0x17c(%ebp),%eax
    498a:	89 7c 24 08          	mov    %edi,0x8(%esp)
    498e:	89 04 24             	mov    %eax,(%esp)
    4991:	ff 51 1c             	call   *0x1c(%ecx)
    4994:	89 c2                	mov    %eax,%edx
    4996:	85 c0                	test   %eax,%eax
    4998:	0f 84 93 fc ff ff    	je     4631 <vfs_connection+0xbf1>
    499e:	8b 85 8c fe ff ff    	mov    -0x174(%ebp),%eax
    49a4:	89 95 4c fe ff ff    	mov    %edx,-0x1b4(%ebp)
    49aa:	89 04 24             	mov    %eax,(%esp)
    49ad:	8b 8d 74 fe ff ff    	mov    -0x18c(%ebp),%ecx
    49b3:	85 db                	test   %ebx,%ebx
    49b5:	0f 84 70 02 00 00    	je     4c2b <vfs_connection+0x11eb>
    49bb:	ff 51 18             	call   *0x18(%ecx)
    49be:	8b 95 4c fe ff ff    	mov    -0x1b4(%ebp),%edx
    49c4:	e9 69 fa ff ff       	jmp    4432 <vfs_connection+0x9f2>
    49c9:	8d b4 26 00 00 00 00 	lea    0x0(%esi,%eiz,1),%esi
    49d0:	c7 44 24 04 fc fe ff 	movl   $0xfffffefc,0x4(%esp)
    49d7:	ff 
    49d8:	89 34 24             	mov    %esi,(%esp)
    49db:	e8 80 2e 01 00       	call   17860 <async_answer_0>
    49e0:	e9 59 fa ff ff       	jmp    443e <vfs_connection+0x9fe>
    49e5:	8b 85 84 fe ff ff    	mov    -0x17c(%ebp),%eax
    49eb:	8b 8d 74 fe ff ff    	mov    -0x18c(%ebp),%ecx
    49f1:	89 04 24             	mov    %eax,(%esp)
    49f4:	8d bd e4 fe ff ff    	lea    -0x11c(%ebp),%edi
    49fa:	ff 51 30             	call   *0x30(%ecx)
    49fd:	8b 8d 6c fe ff ff    	mov    -0x194(%ebp),%ecx
    4a03:	89 0c 24             	mov    %ecx,(%esp)
    4a06:	89 c3                	mov    %eax,%ebx
    4a08:	8b 8d 74 fe ff ff    	mov    -0x18c(%ebp),%ecx
    4a0e:	8b 85 84 fe ff ff    	mov    -0x17c(%ebp),%eax
    4a14:	89 7c 24 08          	mov    %edi,0x8(%esp)
    4a18:	89 44 24 04          	mov    %eax,0x4(%esp)
    4a1c:	ff 51 20             	call   *0x20(%ecx)
    4a1f:	85 c0                	test   %eax,%eax
    4a21:	0f 85 c6 fc ff ff    	jne    46ed <vfs_connection+0xcad>
    4a27:	8b 85 84 fe ff ff    	mov    -0x17c(%ebp),%eax
    4a2d:	8b 8d 74 fe ff ff    	mov    -0x18c(%ebp),%ecx
    4a33:	89 04 24             	mov    %eax,(%esp)
    4a36:	ff 51 2c             	call   *0x2c(%ecx)
    4a39:	89 c1                	mov    %eax,%ecx
    4a3b:	89 d7                	mov    %edx,%edi
    4a3d:	8b 85 84 fe ff ff    	mov    -0x17c(%ebp),%eax
    4a43:	8b 95 74 fe ff ff    	mov    -0x18c(%ebp),%edx
    4a49:	89 8d 48 fe ff ff    	mov    %ecx,-0x1b8(%ebp)
    4a4f:	89 04 24             	mov    %eax,(%esp)
    4a52:	ff 52 28             	call   *0x28(%edx)
    4a55:	8b 8d 48 fe ff ff    	mov    -0x1b8(%ebp),%ecx
    4a5b:	89 5c 24 18          	mov    %ebx,0x18(%esp)
    4a5f:	89 7c 24 14          	mov    %edi,0x14(%esp)
    4a63:	89 4c 24 10          	mov    %ecx,0x10(%esp)
    4a67:	e9 41 fc ff ff       	jmp    46ad <vfs_connection+0xc6d>
    4a6c:	89 f7                	mov    %esi,%edi
    4a6e:	39 9d 70 fe ff ff    	cmp    %ebx,-0x190(%ebp)
    4a74:	8b b5 54 fe ff ff    	mov    -0x1ac(%ebp),%esi
    4a7a:	73 0c                	jae    4a88 <vfs_connection+0x1048>
    4a7c:	8b bd 68 fe ff ff    	mov    -0x198(%ebp),%edi
    4a82:	89 bd 70 fe ff ff    	mov    %edi,-0x190(%ebp)
    4a88:	8b 40 04             	mov    0x4(%eax),%eax
    4a8b:	89 04 24             	mov    %eax,(%esp)
    4a8e:	e8 cd 37 01 00       	call   18260 <async_exchange_begin>
    4a93:	8b 8d 60 fe ff ff    	mov    -0x1a0(%ebp),%ecx
    4a99:	89 c3                	mov    %eax,%ebx
    4a9b:	8b 95 5c fe ff ff    	mov    -0x1a4(%ebp),%edx
    4aa1:	8b 85 88 fe ff ff    	mov    -0x178(%ebp),%eax
    4aa7:	89 4c 24 18          	mov    %ecx,0x18(%esp)
    4aab:	89 54 24 1c          	mov    %edx,0x1c(%esp)
    4aaf:	c7 44 24 20 01 00 00 	movl   $0x1,0x20(%esp)
    4ab6:	00 
    4ab7:	8b 40 0c             	mov    0xc(%eax),%eax
    4aba:	8b 95 70 fe ff ff    	mov    -0x190(%ebp),%edx
    4ac0:	89 54 24 10          	mov    %edx,0x10(%esp)
    4ac4:	89 5c 24 04          	mov    %ebx,0x4(%esp)
    4ac8:	89 44 24 14          	mov    %eax,0x14(%esp)
    4acc:	89 7c 24 0c          	mov    %edi,0xc(%esp)
    4ad0:	c7 44 24 08 0b 04 00 	movl   $0x40b,0x8(%esp)
    4ad7:	00 
    4ad8:	89 34 24             	mov    %esi,(%esp)
    4adb:	e8 d0 2e 01 00       	call   179b0 <async_forward_slow>
    4ae0:	89 1c 24             	mov    %ebx,(%esp)
    4ae3:	e8 e8 3a 01 00       	call   185d0 <async_exchange_end>
    4ae8:	8b 85 84 fe ff ff    	mov    -0x17c(%ebp),%eax
    4aee:	8b 8d 74 fe ff ff    	mov    -0x18c(%ebp),%ecx
    4af4:	89 04 24             	mov    %eax,(%esp)
    4af7:	ff 51 10             	call   *0x10(%ecx)
    4afa:	8b 85 88 fe ff ff    	mov    -0x178(%ebp),%eax
    4b00:	8b 8d 74 fe ff ff    	mov    -0x18c(%ebp),%ecx
    4b06:	89 04 24             	mov    %eax,(%esp)
    4b09:	ff 51 10             	call   *0x10(%ecx)
    4b0c:	8b 9d 6c fe ff ff    	mov    -0x194(%ebp),%ebx
    4b12:	85 db                	test   %ebx,%ebx
    4b14:	0f 84 3e ef ff ff    	je     3a58 <vfs_connection+0x18>
    4b1a:	8b 8d 6c fe ff ff    	mov    -0x194(%ebp),%ecx
    4b20:	89 0c 24             	mov    %ecx,(%esp)
    4b23:	8b 8d 74 fe ff ff    	mov    -0x18c(%ebp),%ecx
    4b29:	ff 51 10             	call   *0x10(%ecx)
    4b2c:	e9 27 ef ff ff       	jmp    3a58 <vfs_connection+0x18>
    4b31:	89 f7                	mov    %esi,%edi
    4b33:	8b b5 54 fe ff ff    	mov    -0x1ac(%ebp),%esi
    4b39:	e9 4a ff ff ff       	jmp    4a88 <vfs_connection+0x1048>
    4b3e:	c7 85 6c fe ff ff 00 	movl   $0x0,-0x194(%ebp)
    4b45:	00 00 00 
    4b48:	e9 8c f1 ff ff       	jmp    3cd9 <vfs_connection+0x299>
    4b4d:	8b 85 84 fe ff ff    	mov    -0x17c(%ebp),%eax
    4b53:	8b 8d 74 fe ff ff    	mov    -0x18c(%ebp),%ecx
    4b59:	89 04 24             	mov    %eax,(%esp)
    4b5c:	ff 51 38             	call   *0x38(%ecx)
    4b5f:	84 c0                	test   %al,%al
    4b61:	0f 84 b8 f1 ff ff    	je     3d1f <vfs_connection+0x2df>
    4b67:	c7 44 24 04 fe fe ff 	movl   $0xfffffefe,0x4(%esp)
    4b6e:	ff 
    4b6f:	89 34 24             	mov    %esi,(%esp)
    4b72:	e8 e9 2c 01 00       	call   17860 <async_answer_0>
    4b77:	e9 c2 f8 ff ff       	jmp    443e <vfs_connection+0x9fe>
    4b7c:	8b 85 84 fe ff ff    	mov    -0x17c(%ebp),%eax
    4b82:	8b 8d 74 fe ff ff    	mov    -0x18c(%ebp),%ecx
    4b88:	89 04 24             	mov    %eax,(%esp)
    4b8b:	ff 51 34             	call   *0x34(%ecx)
    4b8e:	84 c0                	test   %al,%al
    4b90:	0f 84 7c f1 ff ff    	je     3d12 <vfs_connection+0x2d2>
    4b96:	c7 44 24 04 ff fe ff 	movl   $0xfffffeff,0x4(%esp)
    4b9d:	ff 
    4b9e:	89 34 24             	mov    %esi,(%esp)
    4ba1:	e8 ba 2c 01 00       	call   17860 <async_answer_0>
    4ba6:	e9 93 f8 ff ff       	jmp    443e <vfs_connection+0x9fe>
    4bab:	8b 8d 64 fe ff ff    	mov    -0x19c(%ebp),%ecx
    4bb1:	8b 95 5c fe ff ff    	mov    -0x1a4(%ebp),%edx
    4bb7:	89 4c 24 04          	mov    %ecx,0x4(%esp)
    4bbb:	8d 85 8c fe ff ff    	lea    -0x174(%ebp),%eax
    4bc1:	8b 8d 74 fe ff ff    	mov    -0x18c(%ebp),%ecx
    4bc7:	89 54 24 08          	mov    %edx,0x8(%esp)
    4bcb:	89 04 24             	mov    %eax,(%esp)
    4bce:	ff 51 08             	call   *0x8(%ecx)
    4bd1:	89 c2                	mov    %eax,%edx
    4bd3:	e9 8c fd ff ff       	jmp    4964 <vfs_connection+0xf24>
    4bd8:	c6 84 15 e4 fe ff ff 	movb   $0x0,-0x11c(%ebp,%edx,1)
    4bdf:	00 
    4be0:	e9 48 fd ff ff       	jmp    492d <vfs_connection+0xeed>
    4be5:	c7 44 24 04 00 ff ff 	movl   $0xffffff00,0x4(%esp)
    4bec:	ff 
    4bed:	89 34 24             	mov    %esi,(%esp)
    4bf0:	e8 6b 2c 01 00       	call   17860 <async_answer_0>
    4bf5:	e9 44 f8 ff ff       	jmp    443e <vfs_connection+0x9fe>
    4bfa:	c7 44 24 08 30 02 00 	movl   $0x230,0x8(%esp)
    4c01:	00 
    4c02:	c7 44 24 04 08 1d 02 	movl   $0x21d08,0x4(%esp)
    4c09:	00 
    4c0a:	c7 04 24 9d 20 02 00 	movl   $0x2209d,(%esp)
    4c11:	e8 ea a8 01 00       	call   1f500 <assert_abort>
    4c16:	c7 44 24 04 fd fe ff 	movl   $0xfffffefd,0x4(%esp)
    4c1d:	ff 
    4c1e:	89 34 24             	mov    %esi,(%esp)
    4c21:	e8 3a 2c 01 00       	call   17860 <async_answer_0>
    4c26:	e9 13 f8 ff ff       	jmp    443e <vfs_connection+0x9fe>
    4c2b:	ff 51 10             	call   *0x10(%ecx)
    4c2e:	8b 95 4c fe ff ff    	mov    -0x1b4(%ebp),%edx
    4c34:	e9 f9 f7 ff ff       	jmp    4432 <vfs_connection+0x9f2>
    4c39:	8d b4 26 00 00 00 00 	lea    0x0(%esi,%eiz,1),%esi

00004c40 <fs_register>:
    4c40:	55                   	push   %ebp
    4c41:	89 e5                	mov    %esp,%ebp
    4c43:	57                   	push   %edi
    4c44:	53                   	push   %ebx
    4c45:	83 ec 60             	sub    $0x60,%esp
    4c48:	8b 45 08             	mov    0x8(%ebp),%eax
    4c4b:	89 04 24             	mov    %eax,(%esp)
    4c4e:	e8 0d 36 01 00       	call   18260 <async_exchange_begin>
    4c53:	c7 44 24 14 00 00 00 	movl   $0x0,0x14(%esp)
    4c5a:	00 
    4c5b:	89 c3                	mov    %eax,%ebx
    4c5d:	8d 45 d4             	lea    -0x2c(%ebp),%eax
    4c60:	89 44 24 18          	mov    %eax,0x18(%esp)
    4c64:	c7 44 24 10 00 00 00 	movl   $0x0,0x10(%esp)
    4c6b:	00 
    4c6c:	c7 44 24 0c 00 00 00 	movl   $0x0,0xc(%esp)
    4c73:	00 
    4c74:	c7 44 24 08 00 00 00 	movl   $0x0,0x8(%esp)
    4c7b:	00 
    4c7c:	c7 44 24 04 0b 04 00 	movl   $0x40b,0x4(%esp)
    4c83:	00 
    4c84:	89 1c 24             	mov    %ebx,(%esp)
    4c87:	e8 74 1f 01 00       	call   16c00 <async_send_fast>
    4c8c:	c7 44 24 08 20 00 00 	movl   $0x20,0x8(%esp)
    4c93:	00 
    4c94:	89 c7                	mov    %eax,%edi
    4c96:	8b 45 0c             	mov    0xc(%ebp),%eax
    4c99:	89 44 24 04          	mov    %eax,0x4(%esp)
    4c9d:	89 1c 24             	mov    %ebx,(%esp)
    4ca0:	e8 ab 44 01 00       	call   19150 <async_data_write_start>
    4ca5:	85 c0                	test   %eax,%eax
    4ca7:	0f 85 cb 00 00 00    	jne    4d78 <fs_register+0x138>
    4cad:	8b 45 10             	mov    0x10(%ebp),%eax
    4cb0:	c7 44 24 14 00 00 00 	movl   $0x0,0x14(%esp)
    4cb7:	00 
    4cb8:	a3 90 49 02 00       	mov    %eax,0x24990
    4cbd:	c7 44 24 10 40 3a 00 	movl   $0x3a40,0x10(%esp)
    4cc4:	00 
    4cc5:	8b 45 14             	mov    0x14(%ebp),%eax
    4cc8:	c7 44 24 0c 00 00 00 	movl   $0x0,0xc(%esp)
    4ccf:	00 
    4cd0:	c7 44 24 08 00 00 00 	movl   $0x0,0x8(%esp)
    4cd7:	00 
    4cd8:	c7 44 24 04 00 00 00 	movl   $0x0,0x4(%esp)
    4cdf:	00 
    4ce0:	89 1c 24             	mov    %ebx,(%esp)
    4ce3:	a3 94 49 02 00       	mov    %eax,0x24994
    4ce8:	e8 13 2d 01 00       	call   17a00 <async_connect_to_me>
    4ced:	c7 44 24 10 9c 49 02 	movl   $0x2499c,0x10(%esp)
    4cf4:	00 
    4cf5:	c7 44 24 0c 00 00 00 	movl   $0x0,0xc(%esp)
    4cfc:	00 
    4cfd:	c7 44 24 08 00 00 00 	movl   $0x0,0x8(%esp)
    4d04:	00 
    4d05:	c7 44 24 04 00 00 02 	movl   $0x20000,0x4(%esp)
    4d0c:	00 
    4d0d:	89 1c 24             	mov    %ebx,(%esp)
    4d10:	e8 4b 39 01 00       	call   18660 <async_share_in_start>
    4d15:	89 1c 24             	mov    %ebx,(%esp)
    4d18:	83 3d 9c 49 02 00 ff 	cmpl   $0xffffffff,0x2499c
    4d1f:	74 74                	je     4d95 <fs_register+0x155>
    4d21:	89 45 c4             	mov    %eax,-0x3c(%ebp)
    4d24:	e8 a7 38 01 00       	call   185d0 <async_exchange_end>
    4d29:	8b 45 c4             	mov    -0x3c(%ebp),%eax
    4d2c:	85 c0                	test   %eax,%eax
    4d2e:	75 30                	jne    4d60 <fs_register+0x120>
    4d30:	c7 44 24 04 00 00 00 	movl   $0x0,0x4(%esp)
    4d37:	00 
    4d38:	89 3c 24             	mov    %edi,(%esp)
    4d3b:	e8 90 20 01 00       	call   16dd0 <async_wait_for>
    4d40:	8b 45 d8             	mov    -0x28(%ebp),%eax
    4d43:	c7 04 24 40 3a 00 00 	movl   $0x3a40,(%esp)
    4d4a:	a3 98 49 02 00       	mov    %eax,0x24998
    4d4f:	e8 bc 12 01 00       	call   16010 <async_set_client_connection>
    4d54:	8b 45 d4             	mov    -0x2c(%ebp),%eax
    4d57:	83 c4 60             	add    $0x60,%esp
    4d5a:	5b                   	pop    %ebx
    4d5b:	5f                   	pop    %edi
    4d5c:	5d                   	pop    %ebp
    4d5d:	c3                   	ret    
    4d5e:	66 90                	xchg   %ax,%ax
    4d60:	89 3c 24             	mov    %edi,(%esp)
    4d63:	e8 b8 22 01 00       	call   17020 <async_forget>
    4d68:	8b 45 c4             	mov    -0x3c(%ebp),%eax
    4d6b:	83 c4 60             	add    $0x60,%esp
    4d6e:	5b                   	pop    %ebx
    4d6f:	5f                   	pop    %edi
    4d70:	5d                   	pop    %ebp
    4d71:	c3                   	ret    
    4d72:	8d b6 00 00 00 00    	lea    0x0(%esi),%esi
    4d78:	89 1c 24             	mov    %ebx,(%esp)
    4d7b:	89 45 c4             	mov    %eax,-0x3c(%ebp)
    4d7e:	e8 4d 38 01 00       	call   185d0 <async_exchange_end>
    4d83:	89 3c 24             	mov    %edi,(%esp)
    4d86:	e8 95 22 01 00       	call   17020 <async_forget>
    4d8b:	8b 45 c4             	mov    -0x3c(%ebp),%eax
    4d8e:	83 c4 60             	add    $0x60,%esp
    4d91:	5b                   	pop    %ebx
    4d92:	5f                   	pop    %edi
    4d93:	5d                   	pop    %ebp
    4d94:	c3                   	ret    
    4d95:	e8 36 38 01 00       	call   185d0 <async_exchange_end>
    4d9a:	89 3c 24             	mov    %edi,(%esp)
    4d9d:	e8 7e 22 01 00       	call   17020 <async_forget>
    4da2:	b8 fe ff ff ff       	mov    $0xfffffffe,%eax
    4da7:	eb ae                	jmp    4d57 <fs_register+0x117>
    4da9:	8d b4 26 00 00 00 00 	lea    0x0(%esi,%eiz,1),%esi

00004db0 <fs_node_initialize>:
    4db0:	55                   	push   %ebp
    4db1:	89 e5                	mov    %esp,%ebp
    4db3:	83 ec 18             	sub    $0x18,%esp
    4db6:	8b 45 08             	mov    0x8(%ebp),%eax
    4db9:	c7 44 24 08 14 00 00 	movl   $0x14,0x8(%esp)
    4dc0:	00 
    4dc1:	c7 44 24 04 00 00 00 	movl   $0x0,0x4(%esp)
    4dc8:	00 
    4dc9:	89 04 24             	mov    %eax,(%esp)
    4dcc:	e8 8f 31 00 00       	call   7f60 <memset>
    4dd1:	c9                   	leave  
    4dd2:	c3                   	ret    
    4dd3:	8d b6 00 00 00 00    	lea    0x0(%esi),%esi
    4dd9:	8d bc 27 00 00 00 00 	lea    0x0(%edi,%eiz,1),%edi

00004de0 <fs_instance_create>:
    4de0:	55                   	push   %ebp
    4de1:	89 e5                	mov    %esp,%ebp
    4de3:	57                   	push   %edi
    4de4:	56                   	push   %esi
    4de5:	53                   	push   %ebx
    4de6:	83 ec 1c             	sub    $0x1c,%esp
    4de9:	8b 5d 08             	mov    0x8(%ebp),%ebx
    4dec:	c7 04 24 10 00 00 00 	movl   $0x10,(%esp)
    4df3:	e8 28 ff 00 00       	call   14d20 <malloc>
    4df8:	89 c7                	mov    %eax,%edi
    4dfa:	85 c0                	test   %eax,%eax
    4dfc:	0f 84 ec 00 00 00    	je     4eee <fs_instance_create+0x10e>
    4e02:	c7 40 04 00 00 00 00 	movl   $0x0,0x4(%eax)
    4e09:	c7 40 08 00 00 00 00 	movl   $0x0,0x8(%eax)
    4e10:	89 18                	mov    %ebx,(%eax)
    4e12:	8b 45 0c             	mov    0xc(%ebp),%eax
    4e15:	c7 04 24 44 47 02 00 	movl   $0x24744,(%esp)
    4e1c:	89 47 0c             	mov    %eax,0xc(%edi)
    4e1f:	e8 ec 72 00 00       	call   c110 <fibril_mutex_lock>
    4e24:	8b 15 58 47 02 00    	mov    0x24758,%edx
    4e2a:	81 fa 54 47 02 00    	cmp    $0x24754,%edx
    4e30:	74 2f                	je     4e61 <fs_instance_create+0x81>
    4e32:	8b 42 fc             	mov    -0x4(%edx),%eax
    4e35:	8d 72 fc             	lea    -0x4(%edx),%esi
    4e38:	39 d8                	cmp    %ebx,%eax
    4e3a:	74 5c                	je     4e98 <fs_instance_create+0xb8>
    4e3c:	39 c3                	cmp    %eax,%ebx
    4e3e:	76 16                	jbe    4e56 <fs_instance_create+0x76>
    4e40:	eb 7e                	jmp    4ec0 <fs_instance_create+0xe0>
    4e42:	8d b6 00 00 00 00    	lea    0x0(%esi),%esi
    4e48:	8b 4a fc             	mov    -0x4(%edx),%ecx
    4e4b:	8d 72 fc             	lea    -0x4(%edx),%esi
    4e4e:	39 d9                	cmp    %ebx,%ecx
    4e50:	74 46                	je     4e98 <fs_instance_create+0xb8>
    4e52:	39 cb                	cmp    %ecx,%ebx
    4e54:	77 6a                	ja     4ec0 <fs_instance_create+0xe0>
    4e56:	8b 52 04             	mov    0x4(%edx),%edx
    4e59:	81 fa 54 47 02 00    	cmp    $0x24754,%edx
    4e5f:	75 e7                	jne    4e48 <fs_instance_create+0x68>
    4e61:	8b 15 54 47 02 00    	mov    0x24754,%edx
    4e67:	8d 47 04             	lea    0x4(%edi),%eax
    4e6a:	c7 47 08 54 47 02 00 	movl   $0x24754,0x8(%edi)
    4e71:	a3 54 47 02 00       	mov    %eax,0x24754
    4e76:	89 42 04             	mov    %eax,0x4(%edx)
    4e79:	c7 04 24 44 47 02 00 	movl   $0x24744,(%esp)
    4e80:	89 57 04             	mov    %edx,0x4(%edi)
    4e83:	e8 a8 73 00 00       	call   c230 <fibril_mutex_unlock>
    4e88:	31 c0                	xor    %eax,%eax
    4e8a:	83 c4 1c             	add    $0x1c,%esp
    4e8d:	5b                   	pop    %ebx
    4e8e:	5e                   	pop    %esi
    4e8f:	5f                   	pop    %edi
    4e90:	5d                   	pop    %ebp
    4e91:	c3                   	ret    
    4e92:	8d b6 00 00 00 00    	lea    0x0(%esi),%esi
    4e98:	c7 04 24 44 47 02 00 	movl   $0x24744,(%esp)
    4e9f:	e8 8c 73 00 00       	call   c230 <fibril_mutex_unlock>
    4ea4:	89 3c 24             	mov    %edi,(%esp)
    4ea7:	e8 84 ff 00 00       	call   14e30 <free>
    4eac:	83 c4 1c             	add    $0x1c,%esp
    4eaf:	b8 fc fe ff ff       	mov    $0xfffffefc,%eax
    4eb4:	5b                   	pop    %ebx
    4eb5:	5e                   	pop    %esi
    4eb6:	5f                   	pop    %edi
    4eb7:	5d                   	pop    %ebp
    4eb8:	c3                   	ret    
    4eb9:	8d b4 26 00 00 00 00 	lea    0x0(%esi,%eiz,1),%esi
    4ec0:	8d 56 04             	lea    0x4(%esi),%edx
    4ec3:	8d 47 04             	lea    0x4(%edi),%eax
    4ec6:	89 57 08             	mov    %edx,0x8(%edi)
    4ec9:	8b 56 04             	mov    0x4(%esi),%edx
    4ecc:	89 57 04             	mov    %edx,0x4(%edi)
    4ecf:	8b 56 04             	mov    0x4(%esi),%edx
    4ed2:	89 46 04             	mov    %eax,0x4(%esi)
    4ed5:	89 42 04             	mov    %eax,0x4(%edx)
    4ed8:	c7 04 24 44 47 02 00 	movl   $0x24744,(%esp)
    4edf:	e8 4c 73 00 00       	call   c230 <fibril_mutex_unlock>
    4ee4:	83 c4 1c             	add    $0x1c,%esp
    4ee7:	31 c0                	xor    %eax,%eax
    4ee9:	5b                   	pop    %ebx
    4eea:	5e                   	pop    %esi
    4eeb:	5f                   	pop    %edi
    4eec:	5d                   	pop    %ebp
    4eed:	c3                   	ret    
    4eee:	b8 fe ff ff ff       	mov    $0xfffffffe,%eax
    4ef3:	eb 95                	jmp    4e8a <fs_instance_create+0xaa>
    4ef5:	8d 74 26 00          	lea    0x0(%esi,%eiz,1),%esi
    4ef9:	8d bc 27 00 00 00 00 	lea    0x0(%edi,%eiz,1),%edi

00004f00 <fs_instance_get>:
    4f00:	55                   	push   %ebp
    4f01:	89 e5                	mov    %esp,%ebp
    4f03:	53                   	push   %ebx
    4f04:	83 ec 14             	sub    $0x14,%esp
    4f07:	8b 5d 08             	mov    0x8(%ebp),%ebx
    4f0a:	c7 04 24 44 47 02 00 	movl   $0x24744,(%esp)
    4f11:	e8 fa 71 00 00       	call   c110 <fibril_mutex_lock>
    4f16:	a1 58 47 02 00       	mov    0x24758,%eax
    4f1b:	3d 54 47 02 00       	cmp    $0x24754,%eax
    4f20:	75 10                	jne    4f32 <fs_instance_get+0x32>
    4f22:	eb 34                	jmp    4f58 <fs_instance_get+0x58>
    4f24:	8d 74 26 00          	lea    0x0(%esi,%eiz,1),%esi
    4f28:	8b 40 04             	mov    0x4(%eax),%eax
    4f2b:	3d 54 47 02 00       	cmp    $0x24754,%eax
    4f30:	74 26                	je     4f58 <fs_instance_get+0x58>
    4f32:	8d 50 fc             	lea    -0x4(%eax),%edx
    4f35:	39 58 fc             	cmp    %ebx,-0x4(%eax)
    4f38:	75 ee                	jne    4f28 <fs_instance_get+0x28>
    4f3a:	8b 45 0c             	mov    0xc(%ebp),%eax
    4f3d:	8b 52 0c             	mov    0xc(%edx),%edx
    4f40:	89 10                	mov    %edx,(%eax)
    4f42:	c7 04 24 44 47 02 00 	movl   $0x24744,(%esp)
    4f49:	e8 e2 72 00 00       	call   c230 <fibril_mutex_unlock>
    4f4e:	83 c4 14             	add    $0x14,%esp
    4f51:	31 c0                	xor    %eax,%eax
    4f53:	5b                   	pop    %ebx
    4f54:	5d                   	pop    %ebp
    4f55:	c3                   	ret    
    4f56:	66 90                	xchg   %ax,%ax
    4f58:	c7 04 24 44 47 02 00 	movl   $0x24744,(%esp)
    4f5f:	e8 cc 72 00 00       	call   c230 <fibril_mutex_unlock>
    4f64:	83 c4 14             	add    $0x14,%esp
    4f67:	83 c8 ff             	or     $0xffffffff,%eax
    4f6a:	5b                   	pop    %ebx
    4f6b:	5d                   	pop    %ebp
    4f6c:	c3                   	ret    
    4f6d:	8d 76 00             	lea    0x0(%esi),%esi

00004f70 <fs_instance_destroy>:
    4f70:	55                   	push   %ebp
    4f71:	89 e5                	mov    %esp,%ebp
    4f73:	56                   	push   %esi
    4f74:	53                   	push   %ebx
    4f75:	83 ec 10             	sub    $0x10,%esp
    4f78:	8b 75 08             	mov    0x8(%ebp),%esi
    4f7b:	c7 04 24 44 47 02 00 	movl   $0x24744,(%esp)
    4f82:	e8 89 71 00 00       	call   c110 <fibril_mutex_lock>
    4f87:	a1 58 47 02 00       	mov    0x24758,%eax
    4f8c:	3d 54 47 02 00       	cmp    $0x24754,%eax
    4f91:	75 0f                	jne    4fa2 <fs_instance_destroy+0x32>
    4f93:	eb 5b                	jmp    4ff0 <fs_instance_destroy+0x80>
    4f95:	8d 76 00             	lea    0x0(%esi),%esi
    4f98:	8b 40 04             	mov    0x4(%eax),%eax
    4f9b:	3d 54 47 02 00       	cmp    $0x24754,%eax
    4fa0:	74 4e                	je     4ff0 <fs_instance_destroy+0x80>
    4fa2:	8d 58 fc             	lea    -0x4(%eax),%ebx
    4fa5:	39 70 fc             	cmp    %esi,-0x4(%eax)
    4fa8:	75 ee                	jne    4f98 <fs_instance_destroy+0x28>
    4faa:	8b 53 04             	mov    0x4(%ebx),%edx
    4fad:	85 d2                	test   %edx,%edx
    4faf:	74 0f                	je     4fc0 <fs_instance_destroy+0x50>
    4fb1:	8b 43 08             	mov    0x8(%ebx),%eax
    4fb4:	85 c0                	test   %eax,%eax
    4fb6:	74 08                	je     4fc0 <fs_instance_destroy+0x50>
    4fb8:	89 10                	mov    %edx,(%eax)
    4fba:	8b 53 04             	mov    0x4(%ebx),%edx
    4fbd:	89 42 04             	mov    %eax,0x4(%edx)
    4fc0:	c7 43 04 00 00 00 00 	movl   $0x0,0x4(%ebx)
    4fc7:	c7 43 08 00 00 00 00 	movl   $0x0,0x8(%ebx)
    4fce:	c7 04 24 44 47 02 00 	movl   $0x24744,(%esp)
    4fd5:	e8 56 72 00 00       	call   c230 <fibril_mutex_unlock>
    4fda:	89 1c 24             	mov    %ebx,(%esp)
    4fdd:	e8 4e fe 00 00       	call   14e30 <free>
    4fe2:	83 c4 10             	add    $0x10,%esp
    4fe5:	31 c0                	xor    %eax,%eax
    4fe7:	5b                   	pop    %ebx
    4fe8:	5e                   	pop    %esi
    4fe9:	5d                   	pop    %ebp
    4fea:	c3                   	ret    
    4feb:	90                   	nop
    4fec:	8d 74 26 00          	lea    0x0(%esi,%eiz,1),%esi
    4ff0:	c7 04 24 44 47 02 00 	movl   $0x24744,(%esp)
    4ff7:	e8 34 72 00 00       	call   c230 <fibril_mutex_unlock>
    4ffc:	83 c4 10             	add    $0x10,%esp
    4fff:	83 c8 ff             	or     $0xffffffff,%eax
    5002:	5b                   	pop    %ebx
    5003:	5e                   	pop    %esi
    5004:	5d                   	pop    %ebp
    5005:	c3                   	ret    
    5006:	66 90                	xchg   %ax,%ax
    5008:	66 90                	xchg   %ax,%ax
    500a:	66 90                	xchg   %ax,%ax
    500c:	66 90                	xchg   %ax,%ax
    500e:	66 90                	xchg   %ax,%ax

00005010 <exit>:
    5010:	55                   	push   %ebp
    5011:	89 e5                	mov    %esp,%ebp
    5013:	83 ec 28             	sub    $0x28,%esp
    5016:	80 3d a0 49 02 00 00 	cmpb   $0x0,0x249a0
    501d:	75 3f                	jne    505e <exit+0x4e>
    501f:	c7 44 24 18 0a 00 00 	movl   $0xa,0x18(%esp)
    5026:	00 
    5027:	c7 44 24 14 00 00 00 	movl   $0x0,0x14(%esp)
    502e:	00 
    502f:	c7 44 24 10 00 00 00 	movl   $0x0,0x10(%esp)
    5036:	00 
    5037:	c7 44 24 0c 00 00 00 	movl   $0x0,0xc(%esp)
    503e:	00 
    503f:	c7 44 24 08 00 00 00 	movl   $0x0,0x8(%esp)
    5046:	00 
    5047:	c7 44 24 04 00 00 00 	movl   $0x0,0x4(%esp)
    504e:	00 
    504f:	c7 04 24 00 00 00 00 	movl   $0x0,(%esp)
    5056:	ff 15 34 49 02 00    	call   *0x24934
    505c:	eb fe                	jmp    505c <exit+0x4c>
    505e:	e8 dd 8e 00 00       	call   df40 <__stdio_done>
    5063:	8b 45 08             	mov    0x8(%ebp),%eax
    5066:	89 04 24             	mov    %eax,(%esp)
    5069:	e8 f2 89 00 00       	call   da60 <task_retval>
    506e:	65 a1 00 00 00 00    	mov    %gs:0x0,%eax
    5074:	8b 40 04             	mov    0x4(%eax),%eax
    5077:	89 04 24             	mov    %eax,(%esp)
    507a:	e8 d1 67 00 00       	call   b850 <fibril_teardown>
    507f:	eb 9e                	jmp    501f <exit+0xf>
    5081:	eb 0d                	jmp    5090 <abort>
    5083:	90                   	nop
    5084:	90                   	nop
    5085:	90                   	nop
    5086:	90                   	nop
    5087:	90                   	nop
    5088:	90                   	nop
    5089:	90                   	nop
    508a:	90                   	nop
    508b:	90                   	nop
    508c:	90                   	nop
    508d:	90                   	nop
    508e:	90                   	nop
    508f:	90                   	nop

00005090 <abort>:
    5090:	55                   	push   %ebp
    5091:	89 e5                	mov    %esp,%ebp
    5093:	83 ec 28             	sub    $0x28,%esp
    5096:	c7 44 24 18 0a 00 00 	movl   $0xa,0x18(%esp)
    509d:	00 
    509e:	c7 44 24 14 00 00 00 	movl   $0x0,0x14(%esp)
    50a5:	00 
    50a6:	c7 44 24 10 00 00 00 	movl   $0x0,0x10(%esp)
    50ad:	00 
    50ae:	c7 44 24 0c 00 00 00 	movl   $0x0,0xc(%esp)
    50b5:	00 
    50b6:	c7 44 24 08 00 00 00 	movl   $0x0,0x8(%esp)
    50bd:	00 
    50be:	c7 44 24 04 00 00 00 	movl   $0x0,0x4(%esp)
    50c5:	00 
    50c6:	c7 04 24 01 00 00 00 	movl   $0x1,(%esp)
    50cd:	ff 15 34 49 02 00    	call   *0x24934
    50d3:	eb fe                	jmp    50d3 <abort+0x43>
    50d5:	8d 74 26 00          	lea    0x0(%esi,%eiz,1),%esi
    50d9:	8d bc 27 00 00 00 00 	lea    0x0(%edi,%eiz,1),%edi

000050e0 <__main>:
    50e0:	55                   	push   %ebp
    50e1:	89 e5                	mov    %esp,%ebp
    50e3:	57                   	push   %edi
    50e4:	56                   	push   %esi
    50e5:	53                   	push   %ebx
    50e6:	83 ec 2c             	sub    $0x2c,%esp
    50e9:	8b 5d 08             	mov    0x8(%ebp),%ebx
    50ec:	e8 2f fb 00 00       	call   14c20 <__malloc_init>
    50f1:	e8 3a 1a 01 00       	call   16b30 <__async_init>
    50f6:	e8 d5 66 00 00       	call   b7d0 <fibril_setup>
    50fb:	85 c0                	test   %eax,%eax
    50fd:	0f 84 82 00 00 00    	je     5185 <__main+0xa5>
    5103:	c7 44 24 18 01 00 00 	movl   $0x1,0x18(%esp)
    510a:	00 
    510b:	c7 44 24 14 00 00 00 	movl   $0x0,0x14(%esp)
    5112:	00 
    5113:	c7 44 24 10 00 00 00 	movl   $0x0,0x10(%esp)
    511a:	00 
    511b:	c7 44 24 0c 00 00 00 	movl   $0x0,0xc(%esp)
    5122:	00 
    5123:	c7 44 24 08 00 00 00 	movl   $0x0,0x8(%esp)
    512a:	00 
    512b:	c7 44 24 04 00 00 00 	movl   $0x0,0x4(%esp)
    5132:	00 
    5133:	8b 40 30             	mov    0x30(%eax),%eax
    5136:	89 04 24             	mov    %eax,(%esp)
    5139:	ff 15 34 49 02 00    	call   *0x24934
    513f:	89 1d 68 49 02 00    	mov    %ebx,0x24968
    5145:	c6 05 a0 49 02 00 01 	movb   $0x1,0x249a0
    514c:	85 db                	test   %ebx,%ebx
    514e:	74 3a                	je     518a <__main+0xaa>
    5150:	8b 43 10             	mov    0x10(%ebx),%eax
    5153:	8b 73 08             	mov    0x8(%ebx),%esi
    5156:	8b 7b 0c             	mov    0xc(%ebx),%edi
    5159:	89 04 24             	mov    %eax,(%esp)
    515c:	e8 4f 8b 00 00       	call   dcb0 <__stdio_init>
    5161:	a1 68 49 02 00       	mov    0x24968,%eax
    5166:	8b 40 04             	mov    0x4(%eax),%eax
    5169:	89 04 24             	mov    %eax,(%esp)
    516c:	e8 1f 97 01 00       	call   1e890 <chdir>
    5171:	89 7c 24 04          	mov    %edi,0x4(%esp)
    5175:	89 34 24             	mov    %esi,(%esp)
    5178:	e8 43 bf ff ff       	call   10c0 <main>
    517d:	89 04 24             	mov    %eax,(%esp)
    5180:	e8 8b fe ff ff       	call   5010 <exit>
    5185:	e8 06 ff ff ff       	call   5090 <abort>
    518a:	c7 04 24 00 00 00 00 	movl   $0x0,(%esp)
    5191:	31 ff                	xor    %edi,%edi
    5193:	e8 18 8b 00 00       	call   dcb0 <__stdio_init>
    5198:	31 f6                	xor    %esi,%esi
    519a:	eb d5                	jmp    5171 <__main+0x91>
    519c:	66 90                	xchg   %ax,%ax
    519e:	66 90                	xchg   %ax,%ax

000051a0 <bd_cb_conn>:
    51a0:	55                   	push   %ebp
    51a1:	89 e5                	mov    %esp,%ebp
    51a3:	53                   	push   %ebx
    51a4:	83 ec 44             	sub    $0x44,%esp
    51a7:	8d 5d d4             	lea    -0x2c(%ebp),%ebx
    51aa:	eb 14                	jmp    51c0 <bd_cb_conn+0x20>
    51ac:	8d 74 26 00          	lea    0x0(%esi,%eiz,1),%esi
    51b0:	c7 44 24 04 f5 ff ff 	movl   $0xfffffff5,0x4(%esp)
    51b7:	ff 
    51b8:	89 04 24             	mov    %eax,(%esp)
    51bb:	e8 a0 26 01 00       	call   17860 <async_answer_0>
    51c0:	c7 44 24 04 00 00 00 	movl   $0x0,0x4(%esp)
    51c7:	00 
    51c8:	89 1c 24             	mov    %ebx,(%esp)
    51cb:	e8 60 10 01 00       	call   16230 <async_get_call_timeout>
    51d0:	8b 55 d4             	mov    -0x2c(%ebp),%edx
    51d3:	85 d2                	test   %edx,%edx
    51d5:	75 d9                	jne    51b0 <bd_cb_conn+0x10>
    51d7:	83 c4 44             	add    $0x44,%esp
    51da:	5b                   	pop    %ebx
    51db:	5d                   	pop    %ebp
    51dc:	c3                   	ret    
    51dd:	8d 76 00             	lea    0x0(%esi),%esi

000051e0 <bd_open>:
    51e0:	55                   	push   %ebp
    51e1:	89 e5                	mov    %esp,%ebp
    51e3:	57                   	push   %edi
    51e4:	56                   	push   %esi
    51e5:	53                   	push   %ebx
    51e6:	83 ec 3c             	sub    $0x3c,%esp
