
mkexfat:     file format elf32-i386


Disassembly of section .init:

00001094 <__entry>:
    1094:	66 8c d0             	mov    %ss,%ax
    1097:	8e d8                	mov    %eax,%ds
    1099:	8e c0                	mov    %eax,%es
    109b:	8e e0                	mov    %eax,%fs
    109d:	b8 01 00 00 00       	mov    $0x1,%eax
    10a2:	0f a2                	cpuid  
    10a4:	0f ba e2 0b          	bt     $0xb,%edx
    10a8:	73 0c                	jae    10b6 <__entry+0x22>
    10aa:	8d 05 4c 5d 02 00    	lea    0x25d4c,%eax
    10b0:	c7 00 e7 eb 01 00    	movl   $0x1ebe7,(%eax)
    10b6:	6a 00                	push   $0x0
    10b8:	89 e5                	mov    %esp,%ebp
    10ba:	57                   	push   %edi
    10bb:	e8 60 2a 00 00       	call   3b20 <__main>

Disassembly of section .text:

000010c0 <fat_allocate_clusters.isra.1>:
    10c0:	55                   	push   %ebp
    10c1:	89 e5                	mov    %esp,%ebp
    10c3:	57                   	push   %edi
    10c4:	56                   	push   %esi
    10c5:	53                   	push   %ebx
    10c6:	83 ec 4c             	sub    $0x4c,%esp
    10c9:	89 45 d8             	mov    %eax,-0x28(%ebp)
    10cc:	89 d0                	mov    %edx,%eax
    10ce:	89 d6                	mov    %edx,%esi
    10d0:	c1 e8 02             	shr    $0x2,%eax
    10d3:	31 d2                	xor    %edx,%edx
    10d5:	89 45 dc             	mov    %eax,-0x24(%ebp)
    10d8:	89 c8                	mov    %ecx,%eax
    10da:	f7 75 dc             	divl   -0x24(%ebp)
    10dd:	83 e8 80             	sub    $0xffffff80,%eax
    10e0:	89 34 24             	mov    %esi,(%esp)
    10e3:	89 4d cc             	mov    %ecx,-0x34(%ebp)
    10e6:	8b 5d 08             	mov    0x8(%ebp),%ebx
    10e9:	89 45 e0             	mov    %eax,-0x20(%ebp)
    10ec:	c7 45 e4 00 00 00 00 	movl   $0x0,-0x1c(%ebp)
    10f3:	89 d7                	mov    %edx,%edi
    10f5:	e8 56 26 01 00       	call   13750 <malloc>
    10fa:	8b 4d cc             	mov    -0x34(%ebp),%ecx
    10fd:	85 c0                	test   %eax,%eax
    10ff:	0f 84 39 01 00 00    	je     123e <fat_allocate_clusters.isra.1+0x17e>
    1105:	89 5d c8             	mov    %ebx,-0x38(%ebp)
    1108:	89 c2                	mov    %eax,%edx
    110a:	89 ce                	mov    %ecx,%esi
    110c:	8b 4d e0             	mov    -0x20(%ebp),%ecx
    110f:	8b 5d e4             	mov    -0x1c(%ebp),%ebx
    1112:	8b 45 d8             	mov    -0x28(%ebp),%eax
    1115:	89 54 24 10          	mov    %edx,0x10(%esp)
    1119:	c7 44 24 0c 01 00 00 	movl   $0x1,0xc(%esp)
    1120:	00 
    1121:	89 4c 24 04          	mov    %ecx,0x4(%esp)
    1125:	89 5c 24 08          	mov    %ebx,0x8(%esp)
    1129:	89 04 24             	mov    %eax,(%esp)
    112c:	89 55 cc             	mov    %edx,-0x34(%ebp)
    112f:	e8 7c 22 00 00       	call   33b0 <block_read_direct>
    1134:	8b 55 cc             	mov    -0x34(%ebp),%edx
    1137:	85 c0                	test   %eax,%eax
    1139:	0f 85 ed 00 00 00    	jne    122c <fat_allocate_clusters.isra.1+0x16c>
    113f:	83 3c ba 00          	cmpl   $0x0,(%edx,%edi,4)
    1143:	74 1c                	je     1161 <fat_allocate_clusters.isra.1+0xa1>
    1145:	c7 44 24 08 cc 01 00 	movl   $0x1cc,0x8(%esp)
    114c:	00 
    114d:	c7 44 24 04 22 11 02 	movl   $0x21122,0x4(%esp)
    1154:	00 
    1155:	c7 04 24 2c 11 02 00 	movl   $0x2112c,(%esp)
    115c:	e8 ff d9 01 00       	call   1eb60 <assert_abort>
    1161:	83 7d c8 00          	cmpl   $0x0,-0x38(%ebp)
    1165:	75 24                	jne    118b <fat_allocate_clusters.isra.1+0xcb>
    1167:	c7 44 24 08 cd 01 00 	movl   $0x1cd,0x8(%esp)
    116e:	00 
    116f:	c7 44 24 04 22 11 02 	movl   $0x21122,0x4(%esp)
    1176:	00 
    1177:	c7 04 24 3e 11 02 00 	movl   $0x2113e,(%esp)
    117e:	e8 dd d9 01 00       	call   1eb60 <assert_abort>
    1183:	46                   	inc    %esi
    1184:	4b                   	dec    %ebx
    1185:	89 34 ba             	mov    %esi,(%edx,%edi,4)
    1188:	47                   	inc    %edi
    1189:	eb 06                	jmp    1191 <fat_allocate_clusters.isra.1+0xd1>
    118b:	8b 4d dc             	mov    -0x24(%ebp),%ecx
    118e:	8b 5d c8             	mov    -0x38(%ebp),%ebx
    1191:	83 fb 01             	cmp    $0x1,%ebx
    1194:	76 04                	jbe    119a <fat_allocate_clusters.isra.1+0xda>
    1196:	39 f9                	cmp    %edi,%ecx
    1198:	77 e9                	ja     1183 <fat_allocate_clusters.isra.1+0xc3>
    119a:	89 5d c8             	mov    %ebx,-0x38(%ebp)
    119d:	39 7d dc             	cmp    %edi,-0x24(%ebp)
    11a0:	75 54                	jne    11f6 <fat_allocate_clusters.isra.1+0x136>
    11a2:	8b 4d e0             	mov    -0x20(%ebp),%ecx
    11a5:	8b 5d e4             	mov    -0x1c(%ebp),%ebx
    11a8:	83 c1 01             	add    $0x1,%ecx
    11ab:	8b 45 d8             	mov    -0x28(%ebp),%eax
    11ae:	83 d3 00             	adc    $0x0,%ebx
    11b1:	89 4d d0             	mov    %ecx,-0x30(%ebp)
    11b4:	89 5d d4             	mov    %ebx,-0x2c(%ebp)
    11b7:	8b 4d e0             	mov    -0x20(%ebp),%ecx
    11ba:	8b 5d e4             	mov    -0x1c(%ebp),%ebx
    11bd:	89 54 24 10          	mov    %edx,0x10(%esp)
    11c1:	c7 44 24 0c 01 00 00 	movl   $0x1,0xc(%esp)
    11c8:	00 
    11c9:	89 4c 24 04          	mov    %ecx,0x4(%esp)
    11cd:	89 5c 24 08          	mov    %ebx,0x8(%esp)
    11d1:	89 04 24             	mov    %eax,(%esp)
    11d4:	89 55 cc             	mov    %edx,-0x34(%ebp)
    11d7:	e8 c4 22 00 00       	call   34a0 <block_write_direct>
    11dc:	31 ff                	xor    %edi,%edi
    11de:	8b 55 cc             	mov    -0x34(%ebp),%edx
    11e1:	85 c0                	test   %eax,%eax
    11e3:	75 47                	jne    122c <fat_allocate_clusters.isra.1+0x16c>
    11e5:	8b 4d d0             	mov    -0x30(%ebp),%ecx
    11e8:	8b 5d d4             	mov    -0x2c(%ebp),%ebx
    11eb:	89 4d e0             	mov    %ecx,-0x20(%ebp)
    11ee:	89 5d e4             	mov    %ebx,-0x1c(%ebp)
    11f1:	e9 16 ff ff ff       	jmp    110c <fat_allocate_clusters.isra.1+0x4c>
    11f6:	8b 5d c8             	mov    -0x38(%ebp),%ebx
    11f9:	89 d6                	mov    %edx,%esi
    11fb:	4b                   	dec    %ebx
    11fc:	75 07                	jne    1205 <fat_allocate_clusters.isra.1+0x145>
    11fe:	c7 04 ba ff ff ff ff 	movl   $0xffffffff,(%edx,%edi,4)
    1205:	8b 55 e0             	mov    -0x20(%ebp),%edx
    1208:	8b 4d e4             	mov    -0x1c(%ebp),%ecx
    120b:	8b 45 d8             	mov    -0x28(%ebp),%eax
    120e:	89 74 24 10          	mov    %esi,0x10(%esp)
    1212:	c7 44 24 0c 01 00 00 	movl   $0x1,0xc(%esp)
    1219:	00 
    121a:	89 54 24 04          	mov    %edx,0x4(%esp)
    121e:	89 4c 24 08          	mov    %ecx,0x8(%esp)
    1222:	89 04 24             	mov    %eax,(%esp)
    1225:	e8 76 22 00 00       	call   34a0 <block_write_direct>
    122a:	eb 02                	jmp    122e <fat_allocate_clusters.isra.1+0x16e>
    122c:	89 d6                	mov    %edx,%esi
    122e:	89 34 24             	mov    %esi,(%esp)
    1231:	89 45 cc             	mov    %eax,-0x34(%ebp)
    1234:	e8 27 26 01 00       	call   13860 <free>
    1239:	8b 45 cc             	mov    -0x34(%ebp),%eax
    123c:	eb 05                	jmp    1243 <fat_allocate_clusters.isra.1+0x183>
    123e:	b8 fe ff ff ff       	mov    $0xfffffffe,%eax
    1243:	83 c4 4c             	add    $0x4c,%esp
    1246:	5b                   	pop    %ebx
    1247:	5e                   	pop    %esi
    1248:	5f                   	pop    %edi
    1249:	5d                   	pop    %ebp
    124a:	c3                   	ret    

0000124b <ebs_write.isra.2>:
    124b:	55                   	push   %ebp
    124c:	89 e5                	mov    %esp,%ebp
    124e:	57                   	push   %edi
    124f:	56                   	push   %esi
    1250:	53                   	push   %ebx
    1251:	83 ec 4c             	sub    $0x4c,%esp
    1254:	89 45 d8             	mov    %eax,-0x28(%ebp)
    1257:	89 55 dc             	mov    %edx,-0x24(%ebp)
    125a:	89 4d cc             	mov    %ecx,-0x34(%ebp)
    125d:	c7 44 24 04 01 00 00 	movl   $0x1,0x4(%esp)
    1264:	00 
    1265:	8b 75 08             	mov    0x8(%ebp),%esi
    1268:	8b 02                	mov    (%edx),%eax
    126a:	89 04 24             	mov    %eax,(%esp)
    126d:	e8 7e 24 01 00       	call   136f0 <calloc>
    1272:	89 c7                	mov    %eax,%edi
    1274:	85 c0                	test   %eax,%eax
    1276:	0f 84 33 01 00 00    	je     13af <ebs_write.isra.2+0x164>
    127c:	8b 55 dc             	mov    -0x24(%ebp),%edx
    127f:	c7 45 e0 00 00 00 00 	movl   $0x0,-0x20(%ebp)
    1286:	c7 45 e4 00 00 00 00 	movl   $0x0,-0x1c(%ebp)
    128d:	8b 02                	mov    (%edx),%eax
    128f:	c1 e8 02             	shr    $0x2,%eax
    1292:	c7 44 87 fc 00 00 55 	movl   $0xaa550000,-0x4(%edi,%eax,4)
    1299:	aa 
    129a:	8b 45 cc             	mov    -0x34(%ebp),%eax
    129d:	99                   	cltd   
    129e:	89 45 d0             	mov    %eax,-0x30(%ebp)
    12a1:	89 55 d4             	mov    %edx,-0x2c(%ebp)
    12a4:	8b 55 dc             	mov    -0x24(%ebp),%edx
    12a7:	31 c0                	xor    %eax,%eax
    12a9:	8b 0a                	mov    (%edx),%ecx
    12ab:	eb 0d                	jmp    12ba <ebs_write.isra.2+0x6f>
    12ad:	0f b6 1c 07          	movzbl (%edi,%eax,1),%ebx
    12b1:	8b 16                	mov    (%esi),%edx
    12b3:	40                   	inc    %eax
    12b4:	d1 ca                	ror    %edx
    12b6:	01 da                	add    %ebx,%edx
    12b8:	89 16                	mov    %edx,(%esi)
    12ba:	39 c8                	cmp    %ecx,%eax
    12bc:	75 ef                	jne    12ad <ebs_write.isra.2+0x62>
    12be:	8b 45 e0             	mov    -0x20(%ebp),%eax
    12c1:	8b 55 e4             	mov    -0x1c(%ebp),%edx
    12c4:	03 45 d0             	add    -0x30(%ebp),%eax
    12c7:	89 7c 24 10          	mov    %edi,0x10(%esp)
    12cb:	13 55 d4             	adc    -0x2c(%ebp),%edx
    12ce:	89 44 24 04          	mov    %eax,0x4(%esp)
    12d2:	8b 45 d8             	mov    -0x28(%ebp),%eax
    12d5:	c7 44 24 0c 01 00 00 	movl   $0x1,0xc(%esp)
    12dc:	00 
    12dd:	89 54 24 08          	mov    %edx,0x8(%esp)
    12e1:	89 04 24             	mov    %eax,(%esp)
    12e4:	e8 b7 21 00 00       	call   34a0 <block_write_direct>
    12e9:	85 c0                	test   %eax,%eax
    12eb:	0f 85 ae 00 00 00    	jne    139f <ebs_write.isra.2+0x154>
    12f1:	83 45 e0 01          	addl   $0x1,-0x20(%ebp)
    12f5:	83 55 e4 00          	adcl   $0x0,-0x1c(%ebp)
    12f9:	8b 45 e0             	mov    -0x20(%ebp),%eax
    12fc:	83 f0 08             	xor    $0x8,%eax
    12ff:	0b 45 e4             	or     -0x1c(%ebp),%eax
    1302:	75 a0                	jne    12a4 <ebs_write.isra.2+0x59>
    1304:	8b 55 dc             	mov    -0x24(%ebp),%edx
    1307:	8b 02                	mov    (%edx),%eax
    1309:	c7 44 24 04 00 00 00 	movl   $0x0,0x4(%esp)
    1310:	00 
    1311:	89 44 24 08          	mov    %eax,0x8(%esp)
    1315:	89 3c 24             	mov    %edi,(%esp)
    1318:	e8 73 56 00 00       	call   6990 <memset>
    131d:	8b 55 dc             	mov    -0x24(%ebp),%edx
    1320:	31 c0                	xor    %eax,%eax
    1322:	8b 1a                	mov    (%edx),%ebx
    1324:	eb 0d                	jmp    1333 <ebs_write.isra.2+0xe8>
    1326:	0f b6 0c 07          	movzbl (%edi,%eax,1),%ecx
    132a:	8b 16                	mov    (%esi),%edx
    132c:	40                   	inc    %eax
    132d:	d1 ca                	ror    %edx
    132f:	01 ca                	add    %ecx,%edx
    1331:	89 16                	mov    %edx,(%esi)
    1333:	39 d8                	cmp    %ebx,%eax
    1335:	75 ef                	jne    1326 <ebs_write.isra.2+0xdb>
    1337:	8b 45 cc             	mov    -0x34(%ebp),%eax
    133a:	89 7c 24 10          	mov    %edi,0x10(%esp)
    133e:	83 c0 08             	add    $0x8,%eax
    1341:	c7 44 24 0c 01 00 00 	movl   $0x1,0xc(%esp)
    1348:	00 
    1349:	99                   	cltd   
    134a:	89 44 24 04          	mov    %eax,0x4(%esp)
    134e:	8b 45 d8             	mov    -0x28(%ebp),%eax
    1351:	89 54 24 08          	mov    %edx,0x8(%esp)
    1355:	89 04 24             	mov    %eax,(%esp)
    1358:	e8 43 21 00 00       	call   34a0 <block_write_direct>
    135d:	85 c0                	test   %eax,%eax
    135f:	75 3e                	jne    139f <ebs_write.isra.2+0x154>
    1361:	8b 55 dc             	mov    -0x24(%ebp),%edx
    1364:	8b 1a                	mov    (%edx),%ebx
    1366:	eb 0d                	jmp    1375 <ebs_write.isra.2+0x12a>
    1368:	0f b6 0c 07          	movzbl (%edi,%eax,1),%ecx
    136c:	8b 16                	mov    (%esi),%edx
    136e:	40                   	inc    %eax
    136f:	d1 ca                	ror    %edx
    1371:	01 ca                	add    %ecx,%edx
    1373:	89 16                	mov    %edx,(%esi)
    1375:	39 d8                	cmp    %ebx,%eax
    1377:	75 ef                	jne    1368 <ebs_write.isra.2+0x11d>
    1379:	8b 45 cc             	mov    -0x34(%ebp),%eax
    137c:	89 7c 24 10          	mov    %edi,0x10(%esp)
    1380:	83 c0 09             	add    $0x9,%eax
    1383:	c7 44 24 0c 01 00 00 	movl   $0x1,0xc(%esp)
    138a:	00 
    138b:	99                   	cltd   
    138c:	89 44 24 04          	mov    %eax,0x4(%esp)
    1390:	8b 45 d8             	mov    -0x28(%ebp),%eax
    1393:	89 54 24 08          	mov    %edx,0x8(%esp)
    1397:	89 04 24             	mov    %eax,(%esp)
    139a:	e8 01 21 00 00       	call   34a0 <block_write_direct>
    139f:	89 3c 24             	mov    %edi,(%esp)
    13a2:	89 45 c8             	mov    %eax,-0x38(%ebp)
    13a5:	e8 b6 24 01 00       	call   13860 <free>
    13aa:	8b 45 c8             	mov    -0x38(%ebp),%eax
    13ad:	eb 05                	jmp    13b4 <ebs_write.isra.2+0x169>
    13af:	b8 fe ff ff ff       	mov    $0xfffffffe,%eax
    13b4:	83 c4 4c             	add    $0x4c,%esp
    13b7:	5b                   	pop    %ebx
    13b8:	5e                   	pop    %esi
    13b9:	5f                   	pop    %edi
    13ba:	5d                   	pop    %ebp
    13bb:	c3                   	ret    
    13bc:	66 90                	xchg   %ax,%ax
    13be:	66 90                	xchg   %ax,%ax

000013c0 <main>:
    13c0:	55                   	push   %ebp
    13c1:	89 e5                	mov    %esp,%ebp
    13c3:	57                   	push   %edi
    13c4:	56                   	push   %esi
    13c5:	53                   	push   %ebx
    13c6:	83 e4 f0             	and    $0xfffffff0,%esp
    13c9:	81 ec 90 02 00 00    	sub    $0x290,%esp
    13cf:	8b 5d 08             	mov    0x8(%ebp),%ebx
    13d2:	8b 75 0c             	mov    0xc(%ebp),%esi
    13d5:	83 fb 01             	cmp    $0x1,%ebx
    13d8:	0f 8e 69 01 00 00    	jle    1547 <main+0x187>
    13de:	c7 84 24 8c 00 00 00 	movl   $0x0,0x8c(%esp)
    13e5:	00 00 00 00 
    13e9:	c7 05 14 5d 02 00 00 	movl   $0x0,0x25d14
    13f0:	00 00 00 
    13f3:	c7 44 24 50 00 00 00 	movl   $0x0,0x50(%esp)
    13fa:	00 
    13fb:	c7 44 24 38 00 00 00 	movl   $0x0,0x38(%esp)
    1402:	00 
    1403:	c7 44 24 3c 00 00 00 	movl   $0x0,0x3c(%esp)
    140a:	00 
    140b:	8d 7c 24 50          	lea    0x50(%esp),%edi
    140f:	89 7c 24 10          	mov    %edi,0x10(%esp)
    1413:	c7 44 24 0c 00 19 02 	movl   $0x21900,0xc(%esp)
    141a:	00 
    141b:	c7 44 24 08 47 11 02 	movl   $0x21147,0x8(%esp)
    1422:	00 
    1423:	89 74 24 04          	mov    %esi,0x4(%esp)
    1427:	89 1c 24             	mov    %ebx,(%esp)
    142a:	e8 d1 85 01 00       	call   19a00 <getopt_long>
    142f:	83 f8 68             	cmp    $0x68,%eax
    1432:	74 6c                	je     14a0 <main+0xe0>
    1434:	83 f8 73             	cmp    $0x73,%eax
    1437:	0f 84 db 00 00 00    	je     1518 <main+0x158>
    143d:	83 f8 63             	cmp    $0x63,%eax
    1440:	74 76                	je     14b8 <main+0xf8>
    1442:	40                   	inc    %eax
    1443:	75 ca                	jne    140f <main+0x4f>
    1445:	a1 14 5d 02 00       	mov    0x25d14,%eax
    144a:	8b 1c 86             	mov    (%esi,%eax,4),%ebx
    144d:	85 db                	test   %ebx,%ebx
    144f:	0f 84 76 01 00 00    	je     15cb <main+0x20b>
    1455:	89 5c 24 04          	mov    %ebx,0x4(%esp)
    1459:	c7 04 24 4d 11 02 00 	movl   $0x2114d,(%esp)
    1460:	e8 6b d6 00 00       	call   ead0 <printf>
    1465:	8d 44 24 4c          	lea    0x4c(%esp),%eax
    1469:	c7 44 24 08 00 00 00 	movl   $0x0,0x8(%esp)
    1470:	00 
    1471:	89 44 24 04          	mov    %eax,0x4(%esp)
    1475:	89 1c 24             	mov    %ebx,(%esp)
    1478:	e8 d3 3c 00 00       	call   5150 <loc_service_get_id>
    147d:	85 c0                	test   %eax,%eax
    147f:	0f 84 e4 00 00 00    	je     1569 <main+0x1a9>
    1485:	89 5c 24 04          	mov    %ebx,0x4(%esp)
    1489:	c7 04 24 70 14 02 00 	movl   $0x21470,(%esp)
    1490:	e8 3b d6 00 00       	call   ead0 <printf>
    1495:	b8 02 00 00 00       	mov    $0x2,%eax
    149a:	eb 12                	jmp    14ae <main+0xee>
    149c:	8d 74 26 00          	lea    0x0(%esi,%eiz,1),%esi
    14a0:	c7 04 24 e8 12 02 00 	movl   $0x212e8,(%esp)
    14a7:	e8 24 d6 00 00       	call   ead0 <printf>
    14ac:	31 c0                	xor    %eax,%eax
    14ae:	8d 65 f4             	lea    -0xc(%ebp),%esp
    14b1:	5b                   	pop    %ebx
    14b2:	5e                   	pop    %esi
    14b3:	5f                   	pop    %edi
    14b4:	5d                   	pop    %ebp
    14b5:	c3                   	ret    
    14b6:	66 90                	xchg   %ax,%ax
    14b8:	a1 88 5d 02 00       	mov    0x25d88,%eax
    14bd:	c7 44 24 08 0a 00 00 	movl   $0xa,0x8(%esp)
    14c4:	00 
    14c5:	c7 44 24 04 00 00 00 	movl   $0x0,0x4(%esp)
    14cc:	00 
    14cd:	89 04 24             	mov    %eax,(%esp)
    14d0:	e8 ab 83 00 00       	call   9880 <strtol>
    14d5:	c1 e0 0a             	shl    $0xa,%eax
    14d8:	89 84 24 8c 00 00 00 	mov    %eax,0x8c(%esp)
    14df:	3d ff 0f 00 00       	cmp    $0xfff,%eax
    14e4:	0f 86 b5 00 00 00    	jbe    159f <main+0x1df>
    14ea:	3d 00 00 00 02       	cmp    $0x2000000,%eax
    14ef:	0f 87 c0 00 00 00    	ja     15b5 <main+0x1f5>
    14f5:	8d 50 ff             	lea    -0x1(%eax),%edx
    14f8:	85 c2                	test   %eax,%edx
    14fa:	0f 84 0f ff ff ff    	je     140f <main+0x4f>
    1500:	c7 04 24 f4 13 02 00 	movl   $0x213f4,(%esp)
    1507:	e8 c4 d5 00 00       	call   ead0 <printf>
    150c:	b8 01 00 00 00       	mov    $0x1,%eax
    1511:	eb 9b                	jmp    14ae <main+0xee>
    1513:	90                   	nop
    1514:	8d 74 26 00          	lea    0x0(%esi,%eiz,1),%esi
    1518:	a1 88 5d 02 00       	mov    0x25d88,%eax
    151d:	c7 44 24 08 0a 00 00 	movl   $0xa,0x8(%esp)
    1524:	00 
    1525:	c7 44 24 04 00 00 00 	movl   $0x0,0x4(%esp)
    152c:	00 
    152d:	89 04 24             	mov    %eax,(%esp)
    1530:	e8 4b 83 00 00       	call   9880 <strtol>
    1535:	89 c2                	mov    %eax,%edx
    1537:	89 44 24 38          	mov    %eax,0x38(%esp)
    153b:	c1 fa 1f             	sar    $0x1f,%edx
    153e:	89 54 24 3c          	mov    %edx,0x3c(%esp)
    1542:	e9 c8 fe ff ff       	jmp    140f <main+0x4f>
    1547:	c7 04 24 c4 12 02 00 	movl   $0x212c4,(%esp)
    154e:	e8 7d d5 00 00       	call   ead0 <printf>
    1553:	c7 04 24 e8 12 02 00 	movl   $0x212e8,(%esp)
    155a:	e8 71 d5 00 00       	call   ead0 <printf>
    155f:	b8 01 00 00 00       	mov    $0x1,%eax
    1564:	e9 45 ff ff ff       	jmp    14ae <main+0xee>
    1569:	8b 44 24 4c          	mov    0x4c(%esp),%eax
    156d:	c7 44 24 08 00 08 00 	movl   $0x800,0x8(%esp)
    1574:	00 
    1575:	89 44 24 04          	mov    %eax,0x4(%esp)
    1579:	c7 04 24 02 00 00 00 	movl   $0x2,(%esp)
    1580:	e8 7b 0d 00 00       	call   2300 <block_init>
    1585:	85 c0                	test   %eax,%eax
    1587:	74 64                	je     15ed <main+0x22d>
    1589:	c7 04 24 98 14 02 00 	movl   $0x21498,(%esp)
    1590:	e8 3b d5 00 00       	call   ead0 <printf>
    1595:	b8 02 00 00 00       	mov    $0x2,%eax
    159a:	e9 0f ff ff ff       	jmp    14ae <main+0xee>
    159f:	c7 04 24 7c 13 02 00 	movl   $0x2137c,(%esp)
    15a6:	e8 25 d5 00 00       	call   ead0 <printf>
    15ab:	b8 01 00 00 00       	mov    $0x1,%eax
    15b0:	e9 f9 fe ff ff       	jmp    14ae <main+0xee>
    15b5:	c7 04 24 b8 13 02 00 	movl   $0x213b8,(%esp)
    15bc:	e8 0f d5 00 00       	call   ead0 <printf>
    15c1:	b8 01 00 00 00       	mov    $0x1,%eax
    15c6:	e9 e3 fe ff ff       	jmp    14ae <main+0xee>
    15cb:	c7 04 24 38 14 02 00 	movl   $0x21438,(%esp)
    15d2:	e8 f9 d4 00 00       	call   ead0 <printf>
    15d7:	c7 04 24 e8 12 02 00 	movl   $0x212e8,(%esp)
    15de:	e8 ed d4 00 00       	call   ead0 <printf>
    15e3:	b8 01 00 00 00       	mov    $0x1,%eax
    15e8:	e9 c1 fe ff ff       	jmp    14ae <main+0xee>
    15ed:	8d 8c 24 88 00 00 00 	lea    0x88(%esp),%ecx
    15f4:	8b 44 24 4c          	mov    0x4c(%esp),%eax
    15f8:	89 4c 24 04          	mov    %ecx,0x4(%esp)
    15fc:	89 04 24             	mov    %eax,(%esp)
    15ff:	e8 8c 1f 00 00       	call   3590 <block_get_bsize>
    1604:	85 c0                	test   %eax,%eax
    1606:	75 4e                	jne    1656 <main+0x296>
    1608:	8b 8c 24 88 00 00 00 	mov    0x88(%esp),%ecx
    160f:	8b 5c 24 3c          	mov    0x3c(%esp),%ebx
    1613:	8b 44 24 38          	mov    0x38(%esp),%eax
    1617:	f7 e1                	mul    %ecx
    1619:	0f af d9             	imul   %ecx,%ebx
    161c:	89 44 24 38          	mov    %eax,0x38(%esp)
    1620:	01 da                	add    %ebx,%edx
    1622:	89 54 24 3c          	mov    %edx,0x3c(%esp)
    1626:	8b 44 24 38          	mov    0x38(%esp),%eax
    162a:	83 c0 ff             	add    $0xffffffff,%eax
    162d:	8b 54 24 3c          	mov    0x3c(%esp),%edx
    1631:	83 d2 ff             	adc    $0xffffffff,%edx
    1634:	83 fa 00             	cmp    $0x0,%edx
    1637:	77 33                	ja     166c <main+0x2ac>
    1639:	3d fe ff 0f 00       	cmp    $0xffffe,%eax
    163e:	77 2c                	ja     166c <main+0x2ac>
    1640:	c7 04 24 f0 14 02 00 	movl   $0x214f0,(%esp)
    1647:	e8 84 d4 00 00       	call   ead0 <printf>
    164c:	b8 01 00 00 00       	mov    $0x1,%eax
    1651:	e9 58 fe ff ff       	jmp    14ae <main+0xee>
    1656:	c7 04 24 c0 14 02 00 	movl   $0x214c0,(%esp)
    165d:	e8 6e d4 00 00       	call   ead0 <printf>
    1662:	b8 02 00 00 00       	mov    $0x2,%eax
    1667:	e9 42 fe ff ff       	jmp    14ae <main+0xee>
    166c:	81 f9 00 10 00 00    	cmp    $0x1000,%ecx
    1672:	76 16                	jbe    168a <main+0x2ca>
    1674:	c7 04 24 24 15 02 00 	movl   $0x21524,(%esp)
    167b:	e8 50 d4 00 00       	call   ead0 <printf>
    1680:	b8 02 00 00 00       	mov    $0x2,%eax
    1685:	e9 24 fe ff ff       	jmp    14ae <main+0xee>
    168a:	8d 44 24 60          	lea    0x60(%esp),%eax
    168e:	89 44 24 04          	mov    %eax,0x4(%esp)
    1692:	8b 44 24 4c          	mov    0x4c(%esp),%eax
    1696:	89 04 24             	mov    %eax,(%esp)
    1699:	e8 82 1f 00 00       	call   3620 <block_get_nblocks>
    169e:	85 c0                	test   %eax,%eax
    16a0:	74 5a                	je     16fc <main+0x33c>
    16a2:	c7 04 24 64 15 02 00 	movl   $0x21564,(%esp)
    16a9:	e8 22 d4 00 00       	call   ead0 <printf>
    16ae:	8b 54 24 3c          	mov    0x3c(%esp),%edx
    16b2:	0b 54 24 38          	or     0x38(%esp),%edx
    16b6:	0f 84 20 04 00 00    	je     1adc <main+0x71c>
    16bc:	8b 8c 24 88 00 00 00 	mov    0x88(%esp),%ecx
    16c3:	8b 74 24 64          	mov    0x64(%esp),%esi
    16c7:	8b 44 24 60          	mov    0x60(%esp),%eax
    16cb:	31 db                	xor    %ebx,%ebx
    16cd:	f7 e1                	mul    %ecx
    16cf:	0f af f1             	imul   %ecx,%esi
    16d2:	01 f2                	add    %esi,%edx
    16d4:	89 44 24 30          	mov    %eax,0x30(%esp)
    16d8:	89 54 24 34          	mov    %edx,0x34(%esp)
    16dc:	39 54 24 3c          	cmp    %edx,0x3c(%esp)
    16e0:	0f 86 39 02 00 00    	jbe    191f <main+0x55f>
    16e6:	c7 04 24 ec 15 02 00 	movl   $0x215ec,(%esp)
    16ed:	e8 de d3 00 00       	call   ead0 <printf>
    16f2:	b8 01 00 00 00       	mov    $0x1,%eax
    16f7:	e9 b2 fd ff ff       	jmp    14ae <main+0xee>
    16fc:	8b 44 24 60          	mov    0x60(%esp),%eax
    1700:	8b 54 24 64          	mov    0x64(%esp),%edx
    1704:	89 44 24 04          	mov    %eax,0x4(%esp)
    1708:	89 54 24 08          	mov    %edx,0x8(%esp)
    170c:	c7 04 24 cc 15 02 00 	movl   $0x215cc,(%esp)
    1713:	e8 b8 d3 00 00       	call   ead0 <printf>
    1718:	8b 44 24 3c          	mov    0x3c(%esp),%eax
    171c:	0b 44 24 38          	or     0x38(%esp),%eax
    1720:	75 9a                	jne    16bc <main+0x2fc>
    1722:	8b 44 24 60          	mov    0x60(%esp),%eax
    1726:	8b 54 24 64          	mov    0x64(%esp),%edx
    172a:	89 44 24 38          	mov    %eax,0x38(%esp)
    172e:	89 54 24 3c          	mov    %edx,0x3c(%esp)
    1732:	83 44 24 38 80       	addl   $0xffffff80,0x38(%esp)
    1737:	83 54 24 3c ff       	adcl   $0xffffffff,0x3c(%esp)
    173c:	8b b4 24 88 00 00 00 	mov    0x88(%esp),%esi
    1743:	8b 4c 24 3c          	mov    0x3c(%esp),%ecx
    1747:	8b 44 24 38          	mov    0x38(%esp),%eax
    174b:	f7 e6                	mul    %esi
    174d:	0f af ce             	imul   %esi,%ecx
    1750:	8b 9c 24 8c 00 00 00 	mov    0x8c(%esp),%ebx
    1757:	01 ca                	add    %ecx,%edx
    1759:	89 44 24 38          	mov    %eax,0x38(%esp)
    175d:	89 54 24 3c          	mov    %edx,0x3c(%esp)
    1761:	85 db                	test   %ebx,%ebx
    1763:	0f 84 01 03 00 00    	je     1a6a <main+0x6aa>
    1769:	8b 54 24 38          	mov    0x38(%esp),%edx
    176d:	8b 4c 24 3c          	mov    0x3c(%esp),%ecx
    1771:	89 5c 24 08          	mov    %ebx,0x8(%esp)
    1775:	c7 44 24 0c 00 00 00 	movl   $0x0,0xc(%esp)
    177c:	00 
    177d:	89 14 24             	mov    %edx,(%esp)
    1780:	89 4c 24 04          	mov    %ecx,0x4(%esp)
    1784:	e8 d7 f2 01 00       	call   20a60 <__udivdi3>
    1789:	89 44 24 7c          	mov    %eax,0x7c(%esp)
    178d:	8b 7c 24 7c          	mov    0x7c(%esp),%edi
    1791:	31 d2                	xor    %edx,%edx
    1793:	8d 44 be 0b          	lea    0xb(%esi,%edi,4),%eax
    1797:	f7 f6                	div    %esi
    1799:	89 44 24 68          	mov    %eax,0x68(%esp)
    179d:	83 e8 80             	sub    $0xffffff80,%eax
    17a0:	89 44 24 38          	mov    %eax,0x38(%esp)
    17a4:	31 d2                	xor    %edx,%edx
    17a6:	89 d8                	mov    %ebx,%eax
    17a8:	f7 f6                	div    %esi
    17aa:	89 c1                	mov    %eax,%ecx
    17ac:	31 d2                	xor    %edx,%edx
    17ae:	8b 44 24 38          	mov    0x38(%esp),%eax
    17b2:	f7 f1                	div    %ecx
    17b4:	85 d2                	test   %edx,%edx
    17b6:	0f 95 c2             	setne  %dl
    17b9:	81 e2 ff 00 00 00    	and    $0xff,%edx
    17bf:	01 d0                	add    %edx,%eax
    17c1:	31 d2                	xor    %edx,%edx
    17c3:	0f af c1             	imul   %ecx,%eax
    17c6:	89 44 24 6c          	mov    %eax,0x6c(%esp)
    17ca:	83 c0 80             	add    $0xffffff80,%eax
    17cd:	0f af c6             	imul   %esi,%eax
    17d0:	8d 4b ff             	lea    -0x1(%ebx),%ecx
    17d3:	01 c8                	add    %ecx,%eax
    17d5:	89 4c 24 38          	mov    %ecx,0x38(%esp)
    17d9:	f7 f3                	div    %ebx
    17db:	39 c7                	cmp    %eax,%edi
    17dd:	0f 86 7a 02 00 00    	jbe    1a5d <main+0x69d>
    17e3:	89 f9                	mov    %edi,%ecx
    17e5:	31 d2                	xor    %edx,%edx
    17e7:	29 c1                	sub    %eax,%ecx
    17e9:	8d 83 cb 16 00 00    	lea    0x16cb(%ebx),%eax
    17ef:	f7 f3                	div    %ebx
    17f1:	89 4c 24 7c          	mov    %ecx,0x7c(%esp)
    17f5:	83 c1 07             	add    $0x7,%ecx
    17f8:	c1 e9 03             	shr    $0x3,%ecx
    17fb:	89 c7                	mov    %eax,%edi
    17fd:	8b 44 24 38          	mov    0x38(%esp),%eax
    1801:	31 d2                	xor    %edx,%edx
    1803:	01 c8                	add    %ecx,%eax
    1805:	89 8c 24 84 00 00 00 	mov    %ecx,0x84(%esp)
    180c:	f7 f3                	div    %ebx
    180e:	c7 44 24 70 00 00 00 	movl   $0x0,0x70(%esp)
    1815:	00 
    1816:	c7 44 24 78 02 00 00 	movl   $0x2,0x78(%esp)
    181d:	00 
    181e:	8d 44 07 01          	lea    0x1(%edi,%eax,1),%eax
    1822:	c7 44 24 58 00 00 00 	movl   $0x0,0x58(%esp)
    1829:	00 
    182a:	89 84 24 80 00 00 00 	mov    %eax,0x80(%esp)
    1831:	c7 44 24 5c 00 00 00 	movl   $0x0,0x5c(%esp)
    1838:	00 
    1839:	89 74 24 04          	mov    %esi,0x4(%esp)
    183d:	c7 04 24 5a 11 02 00 	movl   $0x2115a,(%esp)
    1844:	e8 87 d2 00 00       	call   ead0 <printf>
    1849:	8b 84 24 8c 00 00 00 	mov    0x8c(%esp),%eax
    1850:	89 44 24 04          	mov    %eax,0x4(%esp)
    1854:	c7 04 24 76 11 02 00 	movl   $0x21176,(%esp)
    185b:	e8 70 d2 00 00       	call   ead0 <printf>
    1860:	8b 44 24 68          	mov    0x68(%esp),%eax
    1864:	89 44 24 04          	mov    %eax,0x4(%esp)
    1868:	c7 04 24 92 11 02 00 	movl   $0x21192,(%esp)
    186f:	e8 5c d2 00 00       	call   ead0 <printf>
    1874:	8b 44 24 6c          	mov    0x6c(%esp),%eax
    1878:	89 44 24 04          	mov    %eax,0x4(%esp)
    187c:	c7 04 24 ae 11 02 00 	movl   $0x211ae,(%esp)
    1883:	e8 48 d2 00 00       	call   ead0 <printf>
    1888:	8b 44 24 7c          	mov    0x7c(%esp),%eax
    188c:	89 44 24 04          	mov    %eax,0x4(%esp)
    1890:	c7 04 24 ca 11 02 00 	movl   $0x211ca,(%esp)
    1897:	e8 34 d2 00 00       	call   ead0 <printf>
    189c:	8b 84 24 80 00 00 00 	mov    0x80(%esp),%eax
    18a3:	89 44 24 04          	mov    %eax,0x4(%esp)
    18a7:	c7 04 24 e6 11 02 00 	movl   $0x211e6,(%esp)
    18ae:	e8 1d d2 00 00       	call   ead0 <printf>
    18b3:	8b 8c 24 8c 00 00 00 	mov    0x8c(%esp),%ecx
    18ba:	8b 84 24 84 00 00 00 	mov    0x84(%esp),%eax
    18c1:	31 d2                	xor    %edx,%edx
    18c3:	01 c8                	add    %ecx,%eax
    18c5:	c7 04 24 02 12 02 00 	movl   $0x21202,(%esp)
    18cc:	48                   	dec    %eax
    18cd:	f7 f1                	div    %ecx
    18cf:	89 44 24 04          	mov    %eax,0x4(%esp)
    18d3:	e8 f8 d1 00 00       	call   ead0 <printf>
    18d8:	8b 8c 24 8c 00 00 00 	mov    0x8c(%esp),%ecx
    18df:	31 d2                	xor    %edx,%edx
    18e1:	8d 81 cb 16 00 00    	lea    0x16cb(%ecx),%eax
    18e7:	f7 f1                	div    %ecx
    18e9:	89 44 24 04          	mov    %eax,0x4(%esp)
    18ed:	c7 04 24 1e 12 02 00 	movl   $0x2121e,(%esp)
    18f4:	e8 d7 d1 00 00       	call   ead0 <printf>
    18f9:	8b 84 24 80 00 00 00 	mov    0x80(%esp),%eax
    1900:	83 c0 02             	add    $0x2,%eax
    1903:	39 44 24 7c          	cmp    %eax,0x7c(%esp)
    1907:	77 4f                	ja     1958 <main+0x598>
    1909:	c7 04 24 48 16 02 00 	movl   $0x21648,(%esp)
    1910:	e8 bb d1 00 00       	call   ead0 <printf>
    1915:	b8 02 00 00 00       	mov    $0x2,%eax
    191a:	e9 8f fb ff ff       	jmp    14ae <main+0xee>
    191f:	72 0e                	jb     192f <main+0x56f>
    1921:	8b 74 24 30          	mov    0x30(%esp),%esi
    1925:	39 74 24 38          	cmp    %esi,0x38(%esp)
    1929:	0f 87 b7 fd ff ff    	ja     16e6 <main+0x326>
    192f:	89 4c 24 08          	mov    %ecx,0x8(%esp)
    1933:	8b 54 24 38          	mov    0x38(%esp),%edx
    1937:	8b 4c 24 3c          	mov    0x3c(%esp),%ecx
    193b:	89 5c 24 0c          	mov    %ebx,0xc(%esp)
    193f:	89 14 24             	mov    %edx,(%esp)
    1942:	89 4c 24 04          	mov    %ecx,0x4(%esp)
    1946:	e8 15 f1 01 00       	call   20a60 <__udivdi3>
    194b:	89 44 24 60          	mov    %eax,0x60(%esp)
    194f:	89 54 24 64          	mov    %edx,0x64(%esp)
    1953:	e9 ca fd ff ff       	jmp    1722 <main+0x362>
    1958:	c7 04 24 7c 16 02 00 	movl   $0x2167c,(%esp)
    195f:	e8 6c d1 00 00       	call   ead0 <printf>
    1964:	8b 84 24 88 00 00 00 	mov    0x88(%esp),%eax
    196b:	c7 44 24 04 01 00 00 	movl   $0x1,0x4(%esp)
    1972:	00 
    1973:	89 04 24             	mov    %eax,(%esp)
    1976:	8b 74 24 4c          	mov    0x4c(%esp),%esi
    197a:	e8 71 1d 01 00       	call   136f0 <calloc>
    197f:	89 c3                	mov    %eax,%ebx
    1981:	85 c0                	test   %eax,%eax
    1983:	0f 84 3d 01 00 00    	je     1ac6 <main+0x706>
    1989:	c7 00 f8 ff ff ff    	movl   $0xfffffff8,(%eax)
    198f:	c7 40 04 ff ff ff ff 	movl   $0xffffffff,0x4(%eax)
    1996:	89 44 24 10          	mov    %eax,0x10(%esp)
    199a:	c7 44 24 0c 01 00 00 	movl   $0x1,0xc(%esp)
    19a1:	00 
    19a2:	c7 44 24 04 80 00 00 	movl   $0x80,0x4(%esp)
    19a9:	00 
    19aa:	c7 44 24 08 00 00 00 	movl   $0x0,0x8(%esp)
    19b1:	00 
    19b2:	89 34 24             	mov    %esi,(%esp)
    19b5:	e8 e6 1a 00 00       	call   34a0 <block_write_direct>
    19ba:	85 c0                	test   %eax,%eax
    19bc:	0f 85 fc 00 00 00    	jne    1abe <main+0x6fe>
    19c2:	c7 43 04 00 00 00 00 	movl   $0x0,0x4(%ebx)
    19c9:	c7 03 00 00 00 00    	movl   $0x0,(%ebx)
    19cf:	bf 01 00 00 00       	mov    $0x1,%edi
    19d4:	eb 2f                	jmp    1a05 <main+0x645>
    19d6:	8d 87 80 00 00 00    	lea    0x80(%edi),%eax
    19dc:	89 5c 24 10          	mov    %ebx,0x10(%esp)
    19e0:	c7 44 24 0c 01 00 00 	movl   $0x1,0xc(%esp)
    19e7:	00 
    19e8:	89 44 24 04          	mov    %eax,0x4(%esp)
    19ec:	c7 44 24 08 00 00 00 	movl   $0x0,0x8(%esp)
    19f3:	00 
    19f4:	89 34 24             	mov    %esi,(%esp)
    19f7:	e8 a4 1a 00 00       	call   34a0 <block_write_direct>
    19fc:	85 c0                	test   %eax,%eax
    19fe:	0f 85 ba 00 00 00    	jne    1abe <main+0x6fe>
    1a04:	47                   	inc    %edi
    1a05:	3b 7c 24 68          	cmp    0x68(%esp),%edi
    1a09:	72 cb                	jb     19d6 <main+0x616>
    1a0b:	89 1c 24             	mov    %ebx,(%esp)
    1a0e:	e8 4d 1e 01 00       	call   13860 <free>
    1a13:	8b 8c 24 8c 00 00 00 	mov    0x8c(%esp),%ecx
    1a1a:	8b 84 24 84 00 00 00 	mov    0x84(%esp),%eax
    1a21:	31 d2                	xor    %edx,%edx
    1a23:	01 c8                	add    %ecx,%eax
    1a25:	48                   	dec    %eax
    1a26:	f7 f1                	div    %ecx
    1a28:	89 04 24             	mov    %eax,(%esp)
    1a2b:	8b 4c 24 78          	mov    0x78(%esp),%ecx
    1a2f:	8b 94 24 88 00 00 00 	mov    0x88(%esp),%edx
    1a36:	8b 44 24 4c          	mov    0x4c(%esp),%eax
    1a3a:	e8 81 f6 ff ff       	call   10c0 <fat_allocate_clusters.isra.1>
    1a3f:	85 c0                	test   %eax,%eax
    1a41:	0f 84 ab 00 00 00    	je     1af2 <main+0x732>
    1a47:	c7 04 24 d0 16 02 00 	movl   $0x216d0,(%esp)
    1a4e:	e8 7d d0 00 00       	call   ead0 <printf>
    1a53:	b8 02 00 00 00       	mov    $0x2,%eax
    1a58:	e9 51 fa ff ff       	jmp    14ae <main+0xee>
    1a5d:	c7 44 24 7c 00 00 00 	movl   $0x0,0x7c(%esp)
    1a64:	00 
    1a65:	e9 cf fd ff ff       	jmp    1839 <main+0x479>
    1a6a:	8b 44 24 38          	mov    0x38(%esp),%eax
    1a6e:	8b 54 24 3c          	mov    0x3c(%esp),%edx
    1a72:	0f ac d0 0c          	shrd   $0xc,%edx,%eax
    1a76:	bb 00 10 00 00       	mov    $0x1000,%ebx
    1a7b:	eb 2a                	jmp    1aa7 <main+0x6e7>
    1a7d:	81 fb ff ff ff 01    	cmp    $0x1ffffff,%ebx
    1a83:	77 29                	ja     1aae <main+0x6ee>
    1a85:	01 db                	add    %ebx,%ebx
    1a87:	8b 44 24 38          	mov    0x38(%esp),%eax
    1a8b:	8b 54 24 3c          	mov    0x3c(%esp),%edx
    1a8f:	89 5c 24 08          	mov    %ebx,0x8(%esp)
    1a93:	c7 44 24 0c 00 00 00 	movl   $0x0,0xc(%esp)
    1a9a:	00 
    1a9b:	89 04 24             	mov    %eax,(%esp)
    1a9e:	89 54 24 04          	mov    %edx,0x4(%esp)
    1aa2:	e8 b9 ef 01 00       	call   20a60 <__udivdi3>
    1aa7:	3d 00 24 f4 00       	cmp    $0xf42400,%eax
    1aac:	77 cf                	ja     1a7d <main+0x6bd>
    1aae:	89 9c 24 8c 00 00 00 	mov    %ebx,0x8c(%esp)
    1ab5:	89 44 24 7c          	mov    %eax,0x7c(%esp)
    1ab9:	e9 cf fc ff ff       	jmp    178d <main+0x3cd>
    1abe:	89 1c 24             	mov    %ebx,(%esp)
    1ac1:	e8 9a 1d 01 00       	call   13860 <free>
    1ac6:	c7 04 24 9c 16 02 00 	movl   $0x2169c,(%esp)
    1acd:	e8 fe cf 00 00       	call   ead0 <printf>
    1ad2:	b8 02 00 00 00       	mov    $0x2,%eax
    1ad7:	e9 d2 f9 ff ff       	jmp    14ae <main+0xee>
    1adc:	c7 04 24 9c 15 02 00 	movl   $0x2159c,(%esp)
    1ae3:	e8 e8 cf 00 00       	call   ead0 <printf>
    1ae8:	b8 01 00 00 00       	mov    $0x1,%eax
    1aed:	e9 bc f9 ff ff       	jmp    14ae <main+0xee>
    1af2:	8b 9c 24 8c 00 00 00 	mov    0x8c(%esp),%ebx
    1af9:	8b 84 24 84 00 00 00 	mov    0x84(%esp),%eax
    1b00:	01 d8                	add    %ebx,%eax
    1b02:	31 d2                	xor    %edx,%edx
    1b04:	48                   	dec    %eax
    1b05:	8b 74 24 78          	mov    0x78(%esp),%esi
    1b09:	f7 f3                	div    %ebx
    1b0b:	01 c6                	add    %eax,%esi
    1b0d:	31 d2                	xor    %edx,%edx
    1b0f:	8d 83 cb 16 00 00    	lea    0x16cb(%ebx),%eax
    1b15:	89 f1                	mov    %esi,%ecx
    1b17:	f7 f3                	div    %ebx
    1b19:	89 04 24             	mov    %eax,(%esp)
    1b1c:	8b 94 24 88 00 00 00 	mov    0x88(%esp),%edx
    1b23:	8b 44 24 4c          	mov    0x4c(%esp),%eax
    1b27:	89 74 24 74          	mov    %esi,0x74(%esp)
    1b2b:	e8 90 f5 ff ff       	call   10c0 <fat_allocate_clusters.isra.1>
    1b30:	85 c0                	test   %eax,%eax
    1b32:	74 16                	je     1b4a <main+0x78a>
    1b34:	c7 04 24 0c 17 02 00 	movl   $0x2170c,(%esp)
    1b3b:	e8 90 cf 00 00       	call   ead0 <printf>
    1b40:	b8 02 00 00 00       	mov    $0x2,%eax
    1b45:	e9 64 f9 ff ff       	jmp    14ae <main+0xee>
    1b4a:	8b 8c 24 8c 00 00 00 	mov    0x8c(%esp),%ecx
    1b51:	31 d2                	xor    %edx,%edx
    1b53:	c7 04 24 01 00 00 00 	movl   $0x1,(%esp)
    1b5a:	8d 81 cb 16 00 00    	lea    0x16cb(%ecx),%eax
    1b60:	f7 f1                	div    %ecx
    1b62:	8b 94 24 88 00 00 00 	mov    0x88(%esp),%edx
    1b69:	8d 0c 06             	lea    (%esi,%eax,1),%ecx
    1b6c:	8b 44 24 4c          	mov    0x4c(%esp),%eax
    1b70:	89 4c 24 70          	mov    %ecx,0x70(%esp)
    1b74:	e8 47 f5 ff ff       	call   10c0 <fat_allocate_clusters.isra.1>
    1b79:	85 c0                	test   %eax,%eax
    1b7b:	74 16                	je     1b93 <main+0x7d3>
    1b7d:	c7 04 24 50 17 02 00 	movl   $0x21750,(%esp)
    1b84:	e8 47 cf 00 00       	call   ead0 <printf>
    1b89:	b8 02 00 00 00       	mov    $0x2,%eax
    1b8e:	e9 1b f9 ff ff       	jmp    14ae <main+0xee>
    1b93:	c7 04 24 94 17 02 00 	movl   $0x21794,(%esp)
    1b9a:	e8 31 cf 00 00       	call   ead0 <printf>
    1b9f:	8b 8c 24 88 00 00 00 	mov    0x88(%esp),%ecx
    1ba6:	8b 84 24 84 00 00 00 	mov    0x84(%esp),%eax
    1bad:	31 d2                	xor    %edx,%edx
    1baf:	01 c8                	add    %ecx,%eax
    1bb1:	8b 74 24 4c          	mov    0x4c(%esp),%esi
    1bb5:	48                   	dec    %eax
    1bb6:	89 0c 24             	mov    %ecx,(%esp)
    1bb9:	f7 f1                	div    %ecx
    1bbb:	89 74 24 30          	mov    %esi,0x30(%esp)
    1bbf:	89 44 24 2c          	mov    %eax,0x2c(%esp)
    1bc3:	e8 88 1b 01 00       	call   13750 <malloc>
    1bc8:	89 c3                	mov    %eax,%ebx
    1bca:	85 c0                	test   %eax,%eax
    1bcc:	0f 84 5a 04 00 00    	je     202c <main+0xc6c>
    1bd2:	8b bc 24 80 00 00 00 	mov    0x80(%esp),%edi
    1bd9:	be 01 00 00 00       	mov    $0x1,%esi
    1bde:	c7 44 24 38 00 00 00 	movl   $0x0,0x38(%esp)
    1be5:	00 
    1be6:	8b 44 24 2c          	mov    0x2c(%esp),%eax
    1bea:	39 44 24 38          	cmp    %eax,0x38(%esp)
    1bee:	0f 84 a7 00 00 00    	je     1c9b <main+0x8db>
    1bf4:	89 f0                	mov    %esi,%eax
    1bf6:	84 c0                	test   %al,%al
    1bf8:	74 1b                	je     1c15 <main+0x855>
    1bfa:	8b 84 24 88 00 00 00 	mov    0x88(%esp),%eax
    1c01:	c7 44 24 04 00 00 00 	movl   $0x0,0x4(%esp)
    1c08:	00 
    1c09:	89 44 24 08          	mov    %eax,0x8(%esp)
    1c0d:	89 1c 24             	mov    %ebx,(%esp)
    1c10:	e8 7b 4d 00 00       	call   6990 <memset>
    1c15:	31 f6                	xor    %esi,%esi
    1c17:	85 ff                	test   %edi,%edi
    1c19:	74 43                	je     1c5e <main+0x89e>
    1c1b:	8b b4 24 88 00 00 00 	mov    0x88(%esp),%esi
    1c22:	31 c0                	xor    %eax,%eax
    1c24:	89 74 24 24          	mov    %esi,0x24(%esp)
    1c28:	89 c2                	mov    %eax,%edx
    1c2a:	89 c1                	mov    %eax,%ecx
    1c2c:	c1 ea 03             	shr    $0x3,%edx
    1c2f:	83 e1 07             	and    $0x7,%ecx
    1c32:	89 4c 24 28          	mov    %ecx,0x28(%esp)
    1c36:	3b 54 24 24          	cmp    0x24(%esp),%edx
    1c3a:	74 1b                	je     1c57 <main+0x897>
    1c3c:	8a 4c 24 28          	mov    0x28(%esp),%cl
    1c40:	be 01 00 00 00       	mov    $0x1,%esi
    1c45:	d3 e6                	shl    %cl,%esi
    1c47:	89 74 24 28          	mov    %esi,0x28(%esp)
    1c4b:	40                   	inc    %eax
    1c4c:	8a 4c 24 28          	mov    0x28(%esp),%cl
    1c50:	08 0c 13             	or     %cl,(%ebx,%edx,1)
    1c53:	39 c7                	cmp    %eax,%edi
    1c55:	75 d1                	jne    1c28 <main+0x868>
    1c57:	29 c7                	sub    %eax,%edi
    1c59:	be 01 00 00 00       	mov    $0x1,%esi
    1c5e:	8b 44 24 38          	mov    0x38(%esp),%eax
    1c62:	89 5c 24 10          	mov    %ebx,0x10(%esp)
    1c66:	03 44 24 6c          	add    0x6c(%esp),%eax
    1c6a:	c7 44 24 0c 01 00 00 	movl   $0x1,0xc(%esp)
    1c71:	00 
    1c72:	89 44 24 04          	mov    %eax,0x4(%esp)
    1c76:	8b 44 24 30          	mov    0x30(%esp),%eax
    1c7a:	c7 44 24 08 00 00 00 	movl   $0x0,0x8(%esp)
    1c81:	00 
    1c82:	89 04 24             	mov    %eax,(%esp)
    1c85:	e8 16 18 00 00       	call   34a0 <block_write_direct>
    1c8a:	85 c0                	test   %eax,%eax
    1c8c:	0f 85 92 03 00 00    	jne    2024 <main+0xc64>
    1c92:	ff 44 24 38          	incl   0x38(%esp)
    1c96:	e9 4b ff ff ff       	jmp    1be6 <main+0x826>
    1c9b:	89 1c 24             	mov    %ebx,(%esp)
    1c9e:	e8 bd 1b 01 00       	call   13860 <free>
    1ca3:	c7 04 24 3a 12 02 00 	movl   $0x2123a,(%esp)
    1caa:	e8 21 ce 00 00       	call   ead0 <printf>
    1caf:	8b 84 24 88 00 00 00 	mov    0x88(%esp),%eax
    1cb6:	8b 4c 24 4c          	mov    0x4c(%esp),%ecx
    1cba:	89 04 24             	mov    %eax,(%esp)
    1cbd:	89 4c 24 28          	mov    %ecx,0x28(%esp)
    1cc1:	e8 8a 1a 01 00       	call   13750 <malloc>
    1cc6:	89 c3                	mov    %eax,%ebx
    1cc8:	85 c0                	test   %eax,%eax
    1cca:	0f 84 95 01 00 00    	je     1e65 <main+0xaa5>
    1cd0:	8b 44 24 74          	mov    0x74(%esp),%eax
    1cd4:	8b 8c 24 88 00 00 00 	mov    0x88(%esp),%ecx
    1cdb:	83 e8 02             	sub    $0x2,%eax
    1cde:	31 d2                	xor    %edx,%edx
    1ce0:	0f af 84 24 8c 00 00 	imul   0x8c(%esp),%eax
    1ce7:	00 
    1ce8:	f7 f1                	div    %ecx
    1cea:	8b 74 24 6c          	mov    0x6c(%esp),%esi
    1cee:	89 44 24 30          	mov    %eax,0x30(%esp)
    1cf2:	31 ff                	xor    %edi,%edi
    1cf4:	01 74 24 30          	add    %esi,0x30(%esp)
    1cf8:	c7 44 24 34 00 00 00 	movl   $0x0,0x34(%esp)
    1cff:	00 
    1d00:	8d 81 cb 16 00 00    	lea    0x16cb(%ecx),%eax
    1d06:	11 7c 24 34          	adc    %edi,0x34(%esp)
    1d0a:	31 d2                	xor    %edx,%edx
    1d0c:	f7 f1                	div    %ecx
    1d0e:	89 44 24 24          	mov    %eax,0x24(%esp)
    1d12:	c7 44 24 38 cc 16 00 	movl   $0x16cc,0x38(%esp)
    1d19:	00 
    1d1a:	c7 44 24 2c 40 19 02 	movl   $0x21940,0x2c(%esp)
    1d21:	00 
    1d22:	31 f6                	xor    %esi,%esi
    1d24:	31 ff                	xor    %edi,%edi
    1d26:	31 c0                	xor    %eax,%eax
    1d28:	39 f8                	cmp    %edi,%eax
    1d2a:	72 0a                	jb     1d36 <main+0x976>
    1d2c:	39 74 24 24          	cmp    %esi,0x24(%esp)
    1d30:	0f 87 0c 03 00 00    	ja     2042 <main+0xc82>
    1d36:	89 1c 24             	mov    %ebx,(%esp)
    1d39:	e8 22 1b 01 00       	call   13860 <free>
    1d3e:	c7 04 24 55 12 02 00 	movl   $0x21255,(%esp)
    1d45:	e8 86 cd 00 00       	call   ead0 <printf>
    1d4a:	8b 84 24 88 00 00 00 	mov    0x88(%esp),%eax
    1d51:	8b 4c 24 4c          	mov    0x4c(%esp),%ecx
    1d55:	c7 44 24 04 01 00 00 	movl   $0x1,0x4(%esp)
    1d5c:	00 
    1d5d:	89 04 24             	mov    %eax,(%esp)
    1d60:	89 4c 24 38          	mov    %ecx,0x38(%esp)
    1d64:	e8 87 19 01 00       	call   136f0 <calloc>
    1d69:	89 c3                	mov    %eax,%ebx
    1d6b:	85 c0                	test   %eax,%eax
    1d6d:	0f 84 d4 00 00 00    	je     1e47 <main+0xa87>
    1d73:	c6 00 83             	movb   $0x83,(%eax)
    1d76:	8d 40 02             	lea    0x2(%eax),%eax
    1d79:	c7 44 24 08 72 12 02 	movl   $0x21272,0x8(%esp)
    1d80:	00 
    1d81:	c7 44 24 04 08 00 00 	movl   $0x8,0x4(%esp)
    1d88:	00 
    1d89:	89 04 24             	mov    %eax,(%esp)
    1d8c:	e8 4f 6f 00 00       	call   8ce0 <str_to_utf16>
    1d91:	8b 44 24 78          	mov    0x78(%esp),%eax
    1d95:	8b b4 24 84 00 00 00 	mov    0x84(%esp),%esi
    1d9c:	89 43 34             	mov    %eax,0x34(%ebx)
    1d9f:	c6 43 01 08          	movb   $0x8,0x1(%ebx)
    1da3:	c6 43 20 81          	movb   $0x81,0x20(%ebx)
    1da7:	c6 43 21 00          	movb   $0x0,0x21(%ebx)
    1dab:	89 73 38             	mov    %esi,0x38(%ebx)
    1dae:	c7 43 3c 00 00 00 00 	movl   $0x0,0x3c(%ebx)
    1db5:	c6 43 40 82          	movb   $0x82,0x40(%ebx)
    1db9:	31 c0                	xor    %eax,%eax
    1dbb:	31 d2                	xor    %edx,%edx
    1dbd:	d1 ca                	ror    %edx
    1dbf:	31 c9                	xor    %ecx,%ecx
    1dc1:	8a 88 40 19 02 00    	mov    0x21940(%eax),%cl
    1dc7:	40                   	inc    %eax
    1dc8:	01 ca                	add    %ecx,%edx
    1dca:	3d cc 16 00 00       	cmp    $0x16cc,%eax
    1dcf:	75 ec                	jne    1dbd <main+0x9fd>
    1dd1:	8b 44 24 74          	mov    0x74(%esp),%eax
    1dd5:	89 53 44             	mov    %edx,0x44(%ebx)
    1dd8:	89 43 54             	mov    %eax,0x54(%ebx)
    1ddb:	8b 44 24 6c          	mov    0x6c(%esp),%eax
    1ddf:	89 44 24 30          	mov    %eax,0x30(%esp)
    1de3:	8b 44 24 70          	mov    0x70(%esp),%eax
    1de7:	83 e8 02             	sub    $0x2,%eax
    1dea:	31 d2                	xor    %edx,%edx
    1dec:	0f af 84 24 8c 00 00 	imul   0x8c(%esp),%eax
    1df3:	00 
    1df4:	89 54 24 34          	mov    %edx,0x34(%esp)
    1df8:	31 d2                	xor    %edx,%edx
    1dfa:	f7 b4 24 88 00 00 00 	divl   0x88(%esp)
    1e01:	89 c6                	mov    %eax,%esi
    1e03:	31 ff                	xor    %edi,%edi
    1e05:	03 74 24 30          	add    0x30(%esp),%esi
    1e09:	8b 4c 24 38          	mov    0x38(%esp),%ecx
    1e0d:	13 7c 24 34          	adc    0x34(%esp),%edi
    1e11:	c7 43 58 cc 16 00 00 	movl   $0x16cc,0x58(%ebx)
    1e18:	c7 43 5c 00 00 00 00 	movl   $0x0,0x5c(%ebx)
    1e1f:	89 5c 24 10          	mov    %ebx,0x10(%esp)
    1e23:	c7 44 24 0c 01 00 00 	movl   $0x1,0xc(%esp)
    1e2a:	00 
    1e2b:	89 74 24 04          	mov    %esi,0x4(%esp)
    1e2f:	89 7c 24 08          	mov    %edi,0x8(%esp)
    1e33:	89 0c 24             	mov    %ecx,(%esp)
    1e36:	e8 65 16 00 00       	call   34a0 <block_write_direct>
    1e3b:	85 c0                	test   %eax,%eax
    1e3d:	74 3c                	je     1e7b <main+0xabb>
    1e3f:	89 1c 24             	mov    %ebx,(%esp)
    1e42:	e8 19 1a 01 00       	call   13860 <free>
    1e47:	c7 04 24 30 18 02 00 	movl   $0x21830,(%esp)
    1e4e:	e8 7d cc 00 00       	call   ead0 <printf>
    1e53:	b8 02 00 00 00       	mov    $0x2,%eax
    1e58:	e9 51 f6 ff ff       	jmp    14ae <main+0xee>
    1e5d:	89 1c 24             	mov    %ebx,(%esp)
    1e60:	e8 fb 19 01 00       	call   13860 <free>
    1e65:	c7 04 24 f4 17 02 00 	movl   $0x217f4,(%esp)
    1e6c:	e8 5f cc 00 00       	call   ead0 <printf>
    1e71:	b8 02 00 00 00       	mov    $0x2,%eax
    1e76:	e9 33 f6 ff ff       	jmp    14ae <main+0xee>
    1e7b:	8b 84 24 88 00 00 00 	mov    0x88(%esp),%eax
    1e82:	c7 44 24 04 00 00 00 	movl   $0x0,0x4(%esp)
    1e89:	00 
    1e8a:	89 44 24 08          	mov    %eax,0x8(%esp)
    1e8e:	89 1c 24             	mov    %ebx,(%esp)
    1e91:	e8 fa 4a 00 00       	call   6990 <memset>
    1e96:	b9 01 00 00 00       	mov    $0x1,%ecx
    1e9b:	31 d2                	xor    %edx,%edx
    1e9d:	8b 84 24 8c 00 00 00 	mov    0x8c(%esp),%eax
    1ea4:	f7 b4 24 88 00 00 00 	divl   0x88(%esp)
    1eab:	39 c1                	cmp    %eax,%ecx
    1ead:	73 3b                	jae    1eea <main+0xb2a>
    1eaf:	89 c8                	mov    %ecx,%eax
    1eb1:	31 d2                	xor    %edx,%edx
    1eb3:	01 f0                	add    %esi,%eax
    1eb5:	89 5c 24 10          	mov    %ebx,0x10(%esp)
    1eb9:	11 fa                	adc    %edi,%edx
    1ebb:	89 44 24 04          	mov    %eax,0x4(%esp)
    1ebf:	8b 44 24 38          	mov    0x38(%esp),%eax
    1ec3:	c7 44 24 0c 01 00 00 	movl   $0x1,0xc(%esp)
    1eca:	00 
    1ecb:	89 54 24 08          	mov    %edx,0x8(%esp)
    1ecf:	89 04 24             	mov    %eax,(%esp)
    1ed2:	89 4c 24 20          	mov    %ecx,0x20(%esp)
    1ed6:	e8 c5 15 00 00       	call   34a0 <block_write_direct>
    1edb:	8b 4c 24 20          	mov    0x20(%esp),%ecx
    1edf:	85 c0                	test   %eax,%eax
    1ee1:	0f 85 58 ff ff ff    	jne    1e3f <main+0xa7f>
    1ee7:	41                   	inc    %ecx
    1ee8:	eb b1                	jmp    1e9b <main+0xadb>
    1eea:	89 1c 24             	mov    %ebx,(%esp)
    1eed:	e8 6e 19 01 00       	call   13860 <free>
    1ef2:	c7 04 24 7b 12 02 00 	movl   $0x2127b,(%esp)
    1ef9:	e8 d2 cb 00 00       	call   ead0 <printf>
    1efe:	8b 84 24 88 00 00 00 	mov    0x88(%esp),%eax
    1f05:	c7 44 24 04 01 00 00 	movl   $0x1,0x4(%esp)
    1f0c:	00 
    1f0d:	89 04 24             	mov    %eax,(%esp)
    1f10:	8b 74 24 4c          	mov    0x4c(%esp),%esi
    1f14:	e8 d7 17 01 00       	call   136f0 <calloc>
    1f19:	89 c3                	mov    %eax,%ebx
    1f1b:	85 c0                	test   %eax,%eax
    1f1d:	0f 84 73 02 00 00    	je     2196 <main+0xdd6>
    1f23:	8d bc 24 90 00 00 00 	lea    0x90(%esp),%edi
    1f2a:	c7 44 24 08 00 02 00 	movl   $0x200,0x8(%esp)
    1f31:	00 
    1f32:	c7 44 24 04 00 00 00 	movl   $0x0,0x4(%esp)
    1f39:	00 
    1f3a:	89 3c 24             	mov    %edi,(%esp)
    1f3d:	e8 4e 4a 00 00       	call   6990 <memset>
    1f42:	8d 84 24 93 00 00 00 	lea    0x93(%esp),%eax
    1f49:	c7 44 24 08 08 00 00 	movl   $0x8,0x8(%esp)
    1f50:	00 
    1f51:	c7 44 24 04 96 12 02 	movl   $0x21296,0x4(%esp)
    1f58:	00 
    1f59:	89 04 24             	mov    %eax,(%esp)
    1f5c:	c6 84 24 90 00 00 00 	movb   $0xeb,0x90(%esp)
    1f63:	eb 
    1f64:	c6 84 24 91 00 00 00 	movb   $0x76,0x91(%esp)
    1f6b:	76 
    1f6c:	c6 84 24 92 00 00 00 	movb   $0x90,0x92(%esp)
    1f73:	90 
    1f74:	e8 97 4b 00 00       	call   6b10 <memcpy>
    1f79:	8b 44 24 58          	mov    0x58(%esp),%eax
    1f7d:	89 84 24 d0 00 00 00 	mov    %eax,0xd0(%esp)
    1f84:	8b 44 24 60          	mov    0x60(%esp),%eax
    1f88:	89 84 24 d8 00 00 00 	mov    %eax,0xd8(%esp)
    1f8f:	8b 44 24 68          	mov    0x68(%esp),%eax
    1f93:	8b 54 24 5c          	mov    0x5c(%esp),%edx
    1f97:	89 84 24 e4 00 00 00 	mov    %eax,0xe4(%esp)
    1f9e:	8b 44 24 6c          	mov    0x6c(%esp),%eax
    1fa2:	89 94 24 d4 00 00 00 	mov    %edx,0xd4(%esp)
    1fa9:	89 84 24 e8 00 00 00 	mov    %eax,0xe8(%esp)
    1fb0:	8b 54 24 64          	mov    0x64(%esp),%edx
    1fb4:	8b 44 24 7c          	mov    0x7c(%esp),%eax
    1fb8:	89 94 24 dc 00 00 00 	mov    %edx,0xdc(%esp)
    1fbf:	89 84 24 ec 00 00 00 	mov    %eax,0xec(%esp)
    1fc6:	8b 94 24 88 00 00 00 	mov    0x88(%esp),%edx
    1fcd:	8b 44 24 70          	mov    0x70(%esp),%eax
    1fd1:	c7 84 24 e0 00 00 00 	movl   $0x80,0xe0(%esp)
    1fd8:	80 00 00 00 
    1fdc:	89 84 24 f0 00 00 00 	mov    %eax,0xf0(%esp)
    1fe3:	c7 84 24 f4 00 00 00 	movl   $0xe1028172,0xf4(%esp)
    1fea:	72 81 02 e1 
    1fee:	c6 84 24 f9 00 00 00 	movb   $0x1,0xf9(%esp)
    1ff5:	01 
    1ff6:	c6 84 24 f8 00 00 00 	movb   $0x0,0xf8(%esp)
    1ffd:	00 
    1ffe:	66 c7 84 24 fa 00 00 	movw   $0x0,0xfa(%esp)
    2005:	00 00 00 
    2008:	89 54 24 30          	mov    %edx,0x30(%esp)
    200c:	c7 44 24 38 00 00 00 	movl   $0x0,0x38(%esp)
    2013:	00 
    2014:	31 c9                	xor    %ecx,%ecx
    2016:	89 d0                	mov    %edx,%eax
    2018:	d3 e8                	shr    %cl,%eax
    201a:	48                   	dec    %eax
    201b:	0f 84 b8 00 00 00    	je     20d9 <main+0xd19>
    2021:	41                   	inc    %ecx
    2022:	eb f2                	jmp    2016 <main+0xc56>
    2024:	89 1c 24             	mov    %ebx,(%esp)
    2027:	e8 34 18 01 00       	call   13860 <free>
    202c:	c7 04 24 b4 17 02 00 	movl   $0x217b4,(%esp)
    2033:	e8 98 ca 00 00       	call   ead0 <printf>
    2038:	b8 02 00 00 00       	mov    $0x2,%eax
    203d:	e9 6c f4 ff ff       	jmp    14ae <main+0xee>
    2042:	39 4c 24 38          	cmp    %ecx,0x38(%esp)
    2046:	73 1b                	jae    2063 <main+0xca3>
    2048:	89 4c 24 08          	mov    %ecx,0x8(%esp)
    204c:	c7 44 24 04 00 00 00 	movl   $0x0,0x4(%esp)
    2053:	00 
    2054:	89 1c 24             	mov    %ebx,(%esp)
    2057:	e8 34 49 00 00       	call   6990 <memset>
    205c:	8b 8c 24 88 00 00 00 	mov    0x88(%esp),%ecx
    2063:	8b 44 24 38          	mov    0x38(%esp),%eax
    2067:	39 c8                	cmp    %ecx,%eax
    2069:	76 02                	jbe    206d <main+0xcad>
    206b:	89 c8                	mov    %ecx,%eax
    206d:	8b 54 24 2c          	mov    0x2c(%esp),%edx
    2071:	89 44 24 08          	mov    %eax,0x8(%esp)
    2075:	89 54 24 04          	mov    %edx,0x4(%esp)
    2079:	89 1c 24             	mov    %ebx,(%esp)
    207c:	e8 8f 4a 00 00       	call   6b10 <memcpy>
    2081:	8b 44 24 30          	mov    0x30(%esp),%eax
    2085:	01 f0                	add    %esi,%eax
    2087:	8b 54 24 34          	mov    0x34(%esp),%edx
    208b:	11 fa                	adc    %edi,%edx
    208d:	8b 4c 24 28          	mov    0x28(%esp),%ecx
    2091:	89 5c 24 10          	mov    %ebx,0x10(%esp)
    2095:	c7 44 24 0c 01 00 00 	movl   $0x1,0xc(%esp)
    209c:	00 
    209d:	89 44 24 04          	mov    %eax,0x4(%esp)
    20a1:	89 54 24 08          	mov    %edx,0x8(%esp)
    20a5:	89 0c 24             	mov    %ecx,(%esp)
    20a8:	e8 f3 13 00 00       	call   34a0 <block_write_direct>
    20ad:	85 c0                	test   %eax,%eax
    20af:	0f 85 a8 fd ff ff    	jne    1e5d <main+0xa9d>
    20b5:	83 c6 01             	add    $0x1,%esi
    20b8:	8b 8c 24 88 00 00 00 	mov    0x88(%esp),%ecx
    20bf:	83 d7 00             	adc    $0x0,%edi
    20c2:	8b 44 24 38          	mov    0x38(%esp),%eax
    20c6:	39 c8                	cmp    %ecx,%eax
    20c8:	76 02                	jbe    20cc <main+0xd0c>
    20ca:	89 c8                	mov    %ecx,%eax
    20cc:	01 44 24 2c          	add    %eax,0x2c(%esp)
    20d0:	29 4c 24 38          	sub    %ecx,0x38(%esp)
    20d4:	e9 4d fc ff ff       	jmp    1d26 <main+0x966>
    20d9:	89 54 24 30          	mov    %edx,0x30(%esp)
    20dd:	8b 84 24 8c 00 00 00 	mov    0x8c(%esp),%eax
    20e4:	31 d2                	xor    %edx,%edx
    20e6:	89 4c 24 38          	mov    %ecx,0x38(%esp)
    20ea:	88 8c 24 fc 00 00 00 	mov    %cl,0xfc(%esp)
    20f1:	31 c9                	xor    %ecx,%ecx
    20f3:	f7 74 24 30          	divl   0x30(%esp)
    20f7:	89 c2                	mov    %eax,%edx
    20f9:	d3 ea                	shr    %cl,%edx
    20fb:	4a                   	dec    %edx
    20fc:	74 03                	je     2101 <main+0xd41>
    20fe:	41                   	inc    %ecx
    20ff:	eb f6                	jmp    20f7 <main+0xd37>
    2101:	0f b6 44 24 38       	movzbl 0x38(%esp),%eax
    2106:	88 8c 24 fd 00 00 00 	mov    %cl,0xfd(%esp)
    210d:	81 e1 ff 00 00 00    	and    $0xff,%ecx
    2113:	01 c8                	add    %ecx,%eax
    2115:	83 f8 19             	cmp    $0x19,%eax
    2118:	0f 8f 8e 00 00 00    	jg     21ac <main+0xdec>
    211e:	c6 84 24 fe 00 00 00 	movb   $0x1,0xfe(%esp)
    2125:	01 
    2126:	c6 84 24 ff 00 00 00 	movb   $0x80,0xff(%esp)
    212d:	80 
    212e:	c6 84 24 00 01 00 00 	movb   $0x0,0x100(%esp)
    2135:	00 
    2136:	66 c7 84 24 8e 02 00 	movw   $0xaa55,0x28e(%esp)
    213d:	00 55 aa 
    2140:	31 d2                	xor    %edx,%edx
    2142:	31 c0                	xor    %eax,%eax
    2144:	8d 48 96             	lea    -0x6a(%eax),%ecx
    2147:	83 f9 01             	cmp    $0x1,%ecx
    214a:	76 0e                	jbe    215a <main+0xd9a>
    214c:	83 f8 70             	cmp    $0x70,%eax
    214f:	74 09                	je     215a <main+0xd9a>
    2151:	d1 ca                	ror    %edx
    2153:	31 c9                	xor    %ecx,%ecx
    2155:	8a 0c 07             	mov    (%edi,%eax,1),%cl
    2158:	01 ca                	add    %ecx,%edx
    215a:	40                   	inc    %eax
    215b:	3d 00 02 00 00       	cmp    $0x200,%eax
    2160:	75 e2                	jne    2144 <main+0xd84>
    2162:	89 7c 24 10          	mov    %edi,0x10(%esp)
    2166:	c7 44 24 0c 01 00 00 	movl   $0x1,0xc(%esp)
    216d:	00 
    216e:	c7 44 24 04 00 00 00 	movl   $0x0,0x4(%esp)
    2175:	00 
    2176:	c7 44 24 08 00 00 00 	movl   $0x0,0x8(%esp)
    217d:	00 
    217e:	89 34 24             	mov    %esi,(%esp)
    2181:	89 54 24 54          	mov    %edx,0x54(%esp)
    2185:	e8 16 13 00 00       	call   34a0 <block_write_direct>
    218a:	85 c0                	test   %eax,%eax
    218c:	74 3a                	je     21c8 <main+0xe08>
    218e:	89 1c 24             	mov    %ebx,(%esp)
    2191:	e8 ca 16 01 00       	call   13860 <free>
    2196:	c7 04 24 b0 18 02 00 	movl   $0x218b0,(%esp)
    219d:	e8 2e c9 00 00       	call   ead0 <printf>
    21a2:	b8 02 00 00 00       	mov    $0x2,%eax
    21a7:	e9 02 f3 ff ff       	jmp    14ae <main+0xee>
    21ac:	c7 44 24 08 13 01 00 	movl   $0x113,0x8(%esp)
    21b3:	00 
    21b4:	c7 44 24 04 22 11 02 	movl   $0x21122,0x4(%esp)
    21bb:	00 
    21bc:	c7 04 24 78 18 02 00 	movl   $0x21878,(%esp)
    21c3:	e8 98 c9 01 00       	call   1eb60 <assert_abort>
    21c8:	8d 4c 24 54          	lea    0x54(%esp),%ecx
    21cc:	8d 94 24 88 00 00 00 	lea    0x88(%esp),%edx
    21d3:	89 0c 24             	mov    %ecx,(%esp)
    21d6:	89 f0                	mov    %esi,%eax
    21d8:	b9 01 00 00 00       	mov    $0x1,%ecx
    21dd:	e8 69 f0 ff ff       	call   124b <ebs_write.isra.2>
    21e2:	85 c0                	test   %eax,%eax
    21e4:	75 a8                	jne    218e <main+0xdce>
    21e6:	89 7c 24 10          	mov    %edi,0x10(%esp)
    21ea:	c7 44 24 0c 01 00 00 	movl   $0x1,0xc(%esp)
    21f1:	00 
    21f2:	c7 44 24 04 0c 00 00 	movl   $0xc,0x4(%esp)
    21f9:	00 
    21fa:	c7 44 24 08 00 00 00 	movl   $0x0,0x8(%esp)
    2201:	00 
    2202:	89 34 24             	mov    %esi,(%esp)
    2205:	e8 96 12 00 00       	call   34a0 <block_write_direct>
    220a:	85 c0                	test   %eax,%eax
    220c:	75 80                	jne    218e <main+0xdce>
    220e:	8b 94 24 88 00 00 00 	mov    0x88(%esp),%edx
    2215:	8b 4c 24 54          	mov    0x54(%esp),%ecx
    2219:	c1 ea 02             	shr    $0x2,%edx
    221c:	39 d0                	cmp    %edx,%eax
    221e:	74 06                	je     2226 <main+0xe66>
    2220:	89 0c 83             	mov    %ecx,(%ebx,%eax,4)
    2223:	40                   	inc    %eax
    2224:	eb f6                	jmp    221c <main+0xe5c>
    2226:	89 5c 24 10          	mov    %ebx,0x10(%esp)
    222a:	c7 44 24 0c 01 00 00 	movl   $0x1,0xc(%esp)
    2231:	00 
    2232:	c7 44 24 04 0b 00 00 	movl   $0xb,0x4(%esp)
    2239:	00 
    223a:	c7 44 24 08 00 00 00 	movl   $0x0,0x8(%esp)
    2241:	00 
    2242:	89 34 24             	mov    %esi,(%esp)
    2245:	e8 56 12 00 00       	call   34a0 <block_write_direct>
    224a:	85 c0                	test   %eax,%eax
    224c:	0f 85 3c ff ff ff    	jne    218e <main+0xdce>
    2252:	89 5c 24 10          	mov    %ebx,0x10(%esp)
    2256:	c7 44 24 0c 01 00 00 	movl   $0x1,0xc(%esp)
    225d:	00 
    225e:	c7 44 24 04 17 00 00 	movl   $0x17,0x4(%esp)
    2265:	00 
    2266:	c7 44 24 08 00 00 00 	movl   $0x0,0x8(%esp)
    226d:	00 
    226e:	89 34 24             	mov    %esi,(%esp)
    2271:	e8 2a 12 00 00       	call   34a0 <block_write_direct>
    2276:	85 c0                	test   %eax,%eax
    2278:	0f 85 10 ff ff ff    	jne    218e <main+0xdce>
    227e:	8d 44 24 54          	lea    0x54(%esp),%eax
    2282:	b9 0d 00 00 00       	mov    $0xd,%ecx
    2287:	89 04 24             	mov    %eax,(%esp)
    228a:	8d 94 24 88 00 00 00 	lea    0x88(%esp),%edx
    2291:	89 f0                	mov    %esi,%eax
    2293:	e8 b3 ef ff ff       	call   124b <ebs_write.isra.2>
    2298:	89 1c 24             	mov    %ebx,(%esp)
    229b:	89 c6                	mov    %eax,%esi
    229d:	e8 be 15 01 00       	call   13860 <free>
    22a2:	85 f6                	test   %esi,%esi
    22a4:	0f 85 ec fe ff ff    	jne    2196 <main+0xdd6>
    22aa:	c7 04 24 9f 12 02 00 	movl   $0x2129f,(%esp)
    22b1:	e8 1a c8 00 00       	call   ead0 <printf>
    22b6:	31 c0                	xor    %eax,%eax
    22b8:	e9 f1 f1 ff ff       	jmp    14ae <main+0xee>
    22bd:	66 90                	xchg   %ax,%ax
    22bf:	90                   	nop

000022c0 <cache_key_hash>:
    22c0:	55                   	push   %ebp
    22c1:	89 e5                	mov    %esp,%ebp
    22c3:	8b 45 08             	mov    0x8(%ebp),%eax
    22c6:	5d                   	pop    %ebp
    22c7:	8b 00                	mov    (%eax),%eax
    22c9:	c3                   	ret    
    22ca:	8d b6 00 00 00 00    	lea    0x0(%esi),%esi

000022d0 <cache_hash>:
    22d0:	55                   	push   %ebp
    22d1:	89 e5                	mov    %esp,%ebp
    22d3:	8b 45 08             	mov    0x8(%ebp),%eax
    22d6:	5d                   	pop    %ebp
    22d7:	8b 40 e4             	mov    -0x1c(%eax),%eax
    22da:	c3                   	ret    
    22db:	90                   	nop
    22dc:	8d 74 26 00          	lea    0x0(%esi,%eiz,1),%esi

000022e0 <cache_key_equal>:
    22e0:	55                   	push   %ebp
    22e1:	89 e5                	mov    %esp,%ebp
    22e3:	8b 45 0c             	mov    0xc(%ebp),%eax
    22e6:	8b 4d 08             	mov    0x8(%ebp),%ecx
    22e9:	5d                   	pop    %ebp
    22ea:	8b 50 e4             	mov    -0x1c(%eax),%edx
    22ed:	8b 40 e8             	mov    -0x18(%eax),%eax
    22f0:	33 41 04             	xor    0x4(%ecx),%eax
    22f3:	33 11                	xor    (%ecx),%edx
    22f5:	09 c2                	or     %eax,%edx
    22f7:	0f 94 c0             	sete   %al
    22fa:	c3                   	ret    
    22fb:	90                   	nop
    22fc:	8d 74 26 00          	lea    0x0(%esi,%eiz,1),%esi

00002300 <block_init>:
    2300:	55                   	push   %ebp
    2301:	89 e5                	mov    %esp,%ebp
    2303:	57                   	push   %edi
    2304:	56                   	push   %esi
    2305:	53                   	push   %ebx
    2306:	83 ec 3c             	sub    $0x3c,%esp
    2309:	8b 5d 0c             	mov    0xc(%ebp),%ebx
    230c:	8b 45 08             	mov    0x8(%ebp),%eax
    230f:	c7 44 24 08 01 00 00 	movl   $0x1,0x8(%esp)
    2316:	00 
    2317:	89 5c 24 04          	mov    %ebx,0x4(%esp)
    231b:	89 04 24             	mov    %eax,(%esp)
    231e:	e8 1d 37 00 00       	call   5a40 <loc_service_connect>
    2323:	89 c6                	mov    %eax,%esi
    2325:	85 c0                	test   %eax,%eax
    2327:	0f 84 30 01 00 00    	je     245d <block_init+0x15d>
    232d:	8d 45 e0             	lea    -0x20(%ebp),%eax
    2330:	89 34 24             	mov    %esi,(%esp)
    2333:	89 44 24 04          	mov    %eax,0x4(%esp)
    2337:	e8 e4 18 00 00       	call   3c20 <bd_open>
    233c:	89 c7                	mov    %eax,%edi
    233e:	85 c0                	test   %eax,%eax
    2340:	0f 85 d4 00 00 00    	jne    241a <block_init+0x11a>
    2346:	8d 45 e4             	lea    -0x1c(%ebp),%eax
    2349:	89 44 24 04          	mov    %eax,0x4(%esp)
    234d:	8b 45 e0             	mov    -0x20(%ebp),%eax
    2350:	89 04 24             	mov    %eax,(%esp)
    2353:	e8 98 1b 00 00       	call   3ef0 <bd_get_block_size>
    2358:	89 c7                	mov    %eax,%edi
    235a:	85 c0                	test   %eax,%eax
    235c:	0f 85 ad 00 00 00    	jne    240f <block_init+0x10f>
    2362:	8b 55 e0             	mov    -0x20(%ebp),%edx
    2365:	c7 04 24 28 00 00 00 	movl   $0x28,(%esp)
    236c:	89 55 d4             	mov    %edx,-0x2c(%ebp)
    236f:	8b 55 e4             	mov    -0x1c(%ebp),%edx
    2372:	89 55 d0             	mov    %edx,-0x30(%ebp)
    2375:	e8 d6 13 01 00       	call   13750 <malloc>
    237a:	85 c0                	test   %eax,%eax
    237c:	0f 84 e0 00 00 00    	je     2462 <block_init+0x162>
    2382:	8b 55 d4             	mov    -0x2c(%ebp),%edx
    2385:	c7 00 00 00 00 00    	movl   $0x0,(%eax)
    238b:	89 50 10             	mov    %edx,0x10(%eax)
    238e:	8b 55 d0             	mov    -0x30(%ebp),%edx
    2391:	89 50 20             	mov    %edx,0x20(%eax)
    2394:	c7 40 04 00 00 00 00 	movl   $0x0,0x4(%eax)
    239b:	89 58 08             	mov    %ebx,0x8(%eax)
    239e:	89 70 0c             	mov    %esi,0xc(%eax)
    23a1:	c7 40 14 00 00 00 00 	movl   $0x0,0x14(%eax)
    23a8:	c7 40 18 00 00 00 00 	movl   $0x0,0x18(%eax)
    23af:	c7 40 1c 00 00 00 00 	movl   $0x0,0x1c(%eax)
    23b6:	c7 40 24 00 00 00 00 	movl   $0x0,0x24(%eax)
    23bd:	c7 04 24 40 5b 02 00 	movl   $0x25b40,(%esp)
    23c4:	89 45 cc             	mov    %eax,-0x34(%ebp)
    23c7:	e8 74 87 00 00       	call   ab40 <fibril_mutex_lock>
    23cc:	8b 15 54 5b 02 00    	mov    0x25b54,%edx
    23d2:	81 fa 50 5b 02 00    	cmp    $0x25b50,%edx
    23d8:	8b 45 cc             	mov    -0x34(%ebp),%eax
    23db:	75 0e                	jne    23eb <block_init+0xeb>
    23dd:	eb 51                	jmp    2430 <block_init+0x130>
    23df:	90                   	nop
    23e0:	8b 52 04             	mov    0x4(%edx),%edx
    23e3:	81 fa 50 5b 02 00    	cmp    $0x25b50,%edx
    23e9:	74 45                	je     2430 <block_init+0x130>
    23eb:	3b 5a 08             	cmp    0x8(%edx),%ebx
    23ee:	75 f0                	jne    23e0 <block_init+0xe0>
    23f0:	c7 04 24 40 5b 02 00 	movl   $0x25b40,(%esp)
    23f7:	89 45 cc             	mov    %eax,-0x34(%ebp)
    23fa:	e8 61 88 00 00       	call   ac60 <fibril_mutex_unlock>
    23ff:	8b 45 cc             	mov    -0x34(%ebp),%eax
    2402:	89 04 24             	mov    %eax,(%esp)
    2405:	bf fc fe ff ff       	mov    $0xfffffefc,%edi
    240a:	e8 51 14 01 00       	call   13860 <free>
    240f:	8b 45 e0             	mov    -0x20(%ebp),%eax
    2412:	89 04 24             	mov    %eax,(%esp)
    2415:	e8 a6 18 00 00       	call   3cc0 <bd_close>
    241a:	89 34 24             	mov    %esi,(%esp)
    241d:	e8 6e 47 01 00       	call   16b90 <async_hangup>
    2422:	83 c4 3c             	add    $0x3c,%esp
    2425:	89 f8                	mov    %edi,%eax
    2427:	5b                   	pop    %ebx
    2428:	5e                   	pop    %esi
    2429:	5f                   	pop    %edi
    242a:	5d                   	pop    %ebp
    242b:	c3                   	ret    
    242c:	8d 74 26 00          	lea    0x0(%esi,%eiz,1),%esi
    2430:	8b 15 50 5b 02 00    	mov    0x25b50,%edx
    2436:	c7 40 04 50 5b 02 00 	movl   $0x25b50,0x4(%eax)
    243d:	89 10                	mov    %edx,(%eax)
    243f:	a3 50 5b 02 00       	mov    %eax,0x25b50
    2444:	89 42 04             	mov    %eax,0x4(%edx)
    2447:	c7 04 24 40 5b 02 00 	movl   $0x25b40,(%esp)
    244e:	e8 0d 88 00 00       	call   ac60 <fibril_mutex_unlock>
    2453:	83 c4 3c             	add    $0x3c,%esp
    2456:	89 f8                	mov    %edi,%eax
    2458:	5b                   	pop    %ebx
    2459:	5e                   	pop    %esi
    245a:	5f                   	pop    %edi
    245b:	5d                   	pop    %ebp
    245c:	c3                   	ret    
    245d:	83 cf ff             	or     $0xffffffff,%edi
    2460:	eb c0                	jmp    2422 <block_init+0x122>
    2462:	bf fe ff ff ff       	mov    $0xfffffffe,%edi
    2467:	eb a6                	jmp    240f <block_init+0x10f>
    2469:	8d b4 26 00 00 00 00 	lea    0x0(%esi,%eiz,1),%esi

00002470 <block_bb_read>:
    2470:	55                   	push   %ebp
    2471:	89 e5                	mov    %esp,%ebp
    2473:	57                   	push   %edi
    2474:	56                   	push   %esi
    2475:	53                   	push   %ebx
    2476:	83 ec 3c             	sub    $0x3c,%esp
    2479:	8b 45 08             	mov    0x8(%ebp),%eax
    247c:	8b 75 0c             	mov    0xc(%ebp),%esi
    247f:	c7 04 24 40 5b 02 00 	movl   $0x25b40,(%esp)
    2486:	89 45 e4             	mov    %eax,-0x1c(%ebp)
    2489:	8b 7d 10             	mov    0x10(%ebp),%edi
    248c:	e8 af 86 00 00       	call   ab40 <fibril_mutex_lock>
    2491:	8b 1d 54 5b 02 00    	mov    0x25b54,%ebx
    2497:	8b 45 e4             	mov    -0x1c(%ebp),%eax
    249a:	81 fb 50 5b 02 00    	cmp    $0x25b50,%ebx
    24a0:	75 15                	jne    24b7 <block_bb_read+0x47>
    24a2:	e9 91 00 00 00       	jmp    2538 <block_bb_read+0xc8>
    24a7:	90                   	nop
    24a8:	8b 5b 04             	mov    0x4(%ebx),%ebx
    24ab:	81 fb 50 5b 02 00    	cmp    $0x25b50,%ebx
    24b1:	0f 84 81 00 00 00    	je     2538 <block_bb_read+0xc8>
    24b7:	3b 43 08             	cmp    0x8(%ebx),%eax
    24ba:	75 ec                	jne    24a8 <block_bb_read+0x38>
    24bc:	c7 04 24 40 5b 02 00 	movl   $0x25b40,(%esp)
    24c3:	e8 98 87 00 00       	call   ac60 <fibril_mutex_unlock>
    24c8:	8b 43 14             	mov    0x14(%ebx),%eax
    24cb:	85 c0                	test   %eax,%eax
    24cd:	0f 85 d5 00 00 00    	jne    25a8 <block_bb_read+0x138>
    24d3:	8b 43 20             	mov    0x20(%ebx),%eax
    24d6:	89 04 24             	mov    %eax,(%esp)
    24d9:	e8 72 12 01 00       	call   13750 <malloc>
    24de:	89 c1                	mov    %eax,%ecx
    24e0:	85 c0                	test   %eax,%eax
    24e2:	0f 84 cf 00 00 00    	je     25b7 <block_bb_read+0x147>
    24e8:	8b 43 20             	mov    0x20(%ebx),%eax
    24eb:	89 4c 24 10          	mov    %ecx,0x10(%esp)
    24ef:	89 44 24 14          	mov    %eax,0x14(%esp)
    24f3:	c7 44 24 0c 01 00 00 	movl   $0x1,0xc(%esp)
    24fa:	00 
    24fb:	c7 44 24 04 00 00 00 	movl   $0x0,0x4(%esp)
    2502:	00 
    2503:	c7 44 24 08 00 00 00 	movl   $0x0,0x8(%esp)
    250a:	00 
    250b:	8b 43 10             	mov    0x10(%ebx),%eax
    250e:	89 4d e4             	mov    %ecx,-0x1c(%ebp)
    2511:	89 04 24             	mov    %eax,(%esp)
    2514:	e8 b7 17 00 00       	call   3cd0 <bd_read_blocks>
    2519:	8b 4d e4             	mov    -0x1c(%ebp),%ecx
    251c:	89 c2                	mov    %eax,%edx
    251e:	85 c0                	test   %eax,%eax
    2520:	75 36                	jne    2558 <block_bb_read+0xe8>
    2522:	89 4b 14             	mov    %ecx,0x14(%ebx)
    2525:	89 73 18             	mov    %esi,0x18(%ebx)
    2528:	89 7b 1c             	mov    %edi,0x1c(%ebx)
    252b:	83 c4 3c             	add    $0x3c,%esp
    252e:	89 d0                	mov    %edx,%eax
    2530:	5b                   	pop    %ebx
    2531:	5e                   	pop    %esi
    2532:	5f                   	pop    %edi
    2533:	5d                   	pop    %ebp
    2534:	c3                   	ret    
    2535:	8d 76 00             	lea    0x0(%esi),%esi
    2538:	c7 04 24 40 5b 02 00 	movl   $0x25b40,(%esp)
    253f:	e8 1c 87 00 00       	call   ac60 <fibril_mutex_unlock>
    2544:	83 ca ff             	or     $0xffffffff,%edx
    2547:	83 c4 3c             	add    $0x3c,%esp
    254a:	89 d0                	mov    %edx,%eax
    254c:	5b                   	pop    %ebx
    254d:	5e                   	pop    %esi
    254e:	5f                   	pop    %edi
    254f:	5d                   	pop    %ebp
    2550:	c3                   	ret    
    2551:	8d b4 26 00 00 00 00 	lea    0x0(%esi,%eiz,1),%esi
    2558:	8b 43 08             	mov    0x8(%ebx),%eax
    255b:	89 54 24 04          	mov    %edx,0x4(%esp)
    255f:	89 44 24 14          	mov    %eax,0x14(%esp)
    2563:	c7 44 24 0c 00 00 00 	movl   $0x0,0xc(%esp)
    256a:	00 
    256b:	c7 44 24 10 00 00 00 	movl   $0x0,0x10(%esp)
    2572:	00 
    2573:	c7 44 24 08 01 00 00 	movl   $0x1,0x8(%esp)
    257a:	00 
    257b:	c7 04 24 5c 30 02 00 	movl   $0x2305c,(%esp)
    2582:	89 55 e0             	mov    %edx,-0x20(%ebp)
    2585:	e8 46 c5 00 00       	call   ead0 <printf>
    258a:	e8 31 c5 01 00       	call   1eac0 <stacktrace_print>
    258f:	8b 4d e4             	mov    -0x1c(%ebp),%ecx
    2592:	89 0c 24             	mov    %ecx,(%esp)
    2595:	e8 c6 12 01 00       	call   13860 <free>
    259a:	8b 55 e0             	mov    -0x20(%ebp),%edx
    259d:	83 c4 3c             	add    $0x3c,%esp
    25a0:	89 d0                	mov    %edx,%eax
    25a2:	5b                   	pop    %ebx
    25a3:	5e                   	pop    %esi
    25a4:	5f                   	pop    %edi
    25a5:	5d                   	pop    %ebp
    25a6:	c3                   	ret    
    25a7:	90                   	nop
    25a8:	83 c4 3c             	add    $0x3c,%esp
    25ab:	ba fc fe ff ff       	mov    $0xfffffefc,%edx
    25b0:	89 d0                	mov    %edx,%eax
    25b2:	5b                   	pop    %ebx
    25b3:	5e                   	pop    %esi
    25b4:	5f                   	pop    %edi
    25b5:	5d                   	pop    %ebp
    25b6:	c3                   	ret    
    25b7:	ba fe ff ff ff       	mov    $0xfffffffe,%edx
    25bc:	eb 89                	jmp    2547 <block_bb_read+0xd7>
    25be:	66 90                	xchg   %ax,%ax

000025c0 <block_bb_get>:
    25c0:	55                   	push   %ebp
    25c1:	89 e5                	mov    %esp,%ebp
    25c3:	56                   	push   %esi
    25c4:	53                   	push   %ebx
    25c5:	83 ec 10             	sub    $0x10,%esp
    25c8:	8b 75 08             	mov    0x8(%ebp),%esi
    25cb:	c7 04 24 40 5b 02 00 	movl   $0x25b40,(%esp)
    25d2:	e8 69 85 00 00       	call   ab40 <fibril_mutex_lock>
    25d7:	8b 1d 54 5b 02 00    	mov    0x25b54,%ebx
    25dd:	81 fb 50 5b 02 00    	cmp    $0x25b50,%ebx
    25e3:	75 0e                	jne    25f3 <block_bb_get+0x33>
    25e5:	eb 29                	jmp    2610 <block_bb_get+0x50>
    25e7:	90                   	nop
    25e8:	8b 5b 04             	mov    0x4(%ebx),%ebx
    25eb:	81 fb 50 5b 02 00    	cmp    $0x25b50,%ebx
    25f1:	74 1d                	je     2610 <block_bb_get+0x50>
    25f3:	3b 73 08             	cmp    0x8(%ebx),%esi
    25f6:	75 f0                	jne    25e8 <block_bb_get+0x28>
    25f8:	c7 04 24 40 5b 02 00 	movl   $0x25b40,(%esp)
    25ff:	e8 5c 86 00 00       	call   ac60 <fibril_mutex_unlock>
    2604:	8b 43 14             	mov    0x14(%ebx),%eax
    2607:	83 c4 10             	add    $0x10,%esp
    260a:	5b                   	pop    %ebx
    260b:	5e                   	pop    %esi
    260c:	5d                   	pop    %ebp
    260d:	c3                   	ret    
    260e:	66 90                	xchg   %ax,%ax
    2610:	c7 04 24 40 5b 02 00 	movl   $0x25b40,(%esp)
    2617:	e8 44 86 00 00       	call   ac60 <fibril_mutex_unlock>
    261c:	c7 44 24 08 e5 00 00 	movl   $0xe5,0x8(%esp)
    2623:	00 
    2624:	c7 44 24 04 0c 30 02 	movl   $0x2300c,0x4(%esp)
    262b:	00 
    262c:	c7 04 24 14 30 02 00 	movl   $0x23014,(%esp)
    2633:	e8 28 c5 01 00       	call   1eb60 <assert_abort>
    2638:	90                   	nop
    2639:	8d b4 26 00 00 00 00 	lea    0x0(%esi,%eiz,1),%esi

00002640 <block_cache_init>:
    2640:	55                   	push   %ebp
    2641:	89 e5                	mov    %esp,%ebp
    2643:	56                   	push   %esi
    2644:	53                   	push   %ebx
    2645:	83 ec 10             	sub    $0x10,%esp
    2648:	8b 75 08             	mov    0x8(%ebp),%esi
    264b:	c7 04 24 40 5b 02 00 	movl   $0x25b40,(%esp)
    2652:	e8 e9 84 00 00       	call   ab40 <fibril_mutex_lock>
    2657:	8b 1d 54 5b 02 00    	mov    0x25b54,%ebx
    265d:	81 fb 50 5b 02 00    	cmp    $0x25b50,%ebx
    2663:	75 1a                	jne    267f <block_cache_init+0x3f>
    2665:	e9 b6 00 00 00       	jmp    2720 <block_cache_init+0xe0>
    266a:	8d b6 00 00 00 00    	lea    0x0(%esi),%esi
    2670:	8b 5b 04             	mov    0x4(%ebx),%ebx
    2673:	81 fb 50 5b 02 00    	cmp    $0x25b50,%ebx
    2679:	0f 84 a1 00 00 00    	je     2720 <block_cache_init+0xe0>
    267f:	3b 73 08             	cmp    0x8(%ebx),%esi
    2682:	75 ec                	jne    2670 <block_cache_init+0x30>
    2684:	c7 04 24 40 5b 02 00 	movl   $0x25b40,(%esp)
    268b:	e8 d0 85 00 00       	call   ac60 <fibril_mutex_unlock>
    2690:	8b 53 24             	mov    0x24(%ebx),%edx
    2693:	85 d2                	test   %edx,%edx
    2695:	0f 85 9d 00 00 00    	jne    2738 <block_cache_init+0xf8>
    269b:	c7 04 24 48 00 00 00 	movl   $0x48,(%esp)
    26a2:	e8 a9 10 01 00       	call   13750 <malloc>
    26a7:	89 c6                	mov    %eax,%esi
    26a9:	85 c0                	test   %eax,%eax
    26ab:	0f 84 a2 00 00 00    	je     2753 <block_cache_init+0x113>
    26b1:	89 04 24             	mov    %eax,(%esp)
    26b4:	e8 67 84 00 00       	call   ab20 <fibril_mutex_initialize>
    26b9:	8d 46 3c             	lea    0x3c(%esi),%eax
    26bc:	89 46 3c             	mov    %eax,0x3c(%esi)
    26bf:	89 46 40             	mov    %eax,0x40(%esi)
    26c2:	8b 45 0c             	mov    0xc(%ebp),%eax
    26c5:	31 d2                	xor    %edx,%edx
    26c7:	89 46 10             	mov    %eax,0x10(%esi)
    26ca:	8b 45 10             	mov    0x10(%ebp),%eax
    26cd:	89 46 18             	mov    %eax,0x18(%esi)
    26d0:	8b 45 14             	mov    0x14(%ebp),%eax
    26d3:	89 46 44             	mov    %eax,0x44(%esi)
    26d6:	8b 45 0c             	mov    0xc(%ebp),%eax
    26d9:	f7 73 20             	divl   0x20(%ebx)
    26dc:	c7 46 1c 00 00 00 00 	movl   $0x0,0x1c(%esi)
    26e3:	85 d2                	test   %edx,%edx
    26e5:	75 5d                	jne    2744 <block_cache_init+0x104>
    26e7:	89 46 14             	mov    %eax,0x14(%esi)
    26ea:	8d 46 20             	lea    0x20(%esi),%eax
    26ed:	c7 44 24 0c 58 5b 02 	movl   $0x25b58,0xc(%esp)
    26f4:	00 
    26f5:	c7 44 24 08 00 00 00 	movl   $0x0,0x8(%esp)
    26fc:	00 
    26fd:	c7 44 24 04 00 00 00 	movl   $0x0,0x4(%esp)
    2704:	00 
    2705:	89 04 24             	mov    %eax,(%esp)
    2708:	e8 13 79 01 00       	call   1a020 <hash_table_create>
    270d:	84 c0                	test   %al,%al
    270f:	74 49                	je     275a <block_cache_init+0x11a>
    2711:	89 73 24             	mov    %esi,0x24(%ebx)
    2714:	83 c4 10             	add    $0x10,%esp
    2717:	31 c0                	xor    %eax,%eax
    2719:	5b                   	pop    %ebx
    271a:	5e                   	pop    %esi
    271b:	5d                   	pop    %ebp
    271c:	c3                   	ret    
    271d:	8d 76 00             	lea    0x0(%esi),%esi
    2720:	c7 04 24 40 5b 02 00 	movl   $0x25b40,(%esp)
    2727:	e8 34 85 00 00       	call   ac60 <fibril_mutex_unlock>
    272c:	83 c8 ff             	or     $0xffffffff,%eax
    272f:	83 c4 10             	add    $0x10,%esp
    2732:	5b                   	pop    %ebx
    2733:	5e                   	pop    %esi
    2734:	5d                   	pop    %ebp
    2735:	c3                   	ret    
    2736:	66 90                	xchg   %ax,%ax
    2738:	83 c4 10             	add    $0x10,%esp
    273b:	b8 fc fe ff ff       	mov    $0xfffffefc,%eax
    2740:	5b                   	pop    %ebx
    2741:	5e                   	pop    %esi
    2742:	5d                   	pop    %ebp
    2743:	c3                   	ret    
    2744:	89 34 24             	mov    %esi,(%esp)
    2747:	e8 14 11 01 00       	call   13860 <free>
    274c:	b8 f5 ff ff ff       	mov    $0xfffffff5,%eax
    2751:	eb dc                	jmp    272f <block_cache_init+0xef>
    2753:	b8 fe ff ff ff       	mov    $0xfffffffe,%eax
    2758:	eb d5                	jmp    272f <block_cache_init+0xef>
    275a:	89 34 24             	mov    %esi,(%esp)
    275d:	e8 fe 10 01 00       	call   13860 <free>
    2762:	b8 fe ff ff ff       	mov    $0xfffffffe,%eax
    2767:	eb c6                	jmp    272f <block_cache_init+0xef>
    2769:	8d b4 26 00 00 00 00 	lea    0x0(%esi,%eiz,1),%esi

00002770 <block_cache_fini>:
    2770:	55                   	push   %ebp
    2771:	89 e5                	mov    %esp,%ebp
    2773:	57                   	push   %edi
    2774:	56                   	push   %esi
    2775:	53                   	push   %ebx
    2776:	83 ec 4c             	sub    $0x4c,%esp
    2779:	8b 5d 08             	mov    0x8(%ebp),%ebx
    277c:	c7 04 24 40 5b 02 00 	movl   $0x25b40,(%esp)
    2783:	e8 b8 83 00 00       	call   ab40 <fibril_mutex_lock>
    2788:	8b 35 54 5b 02 00    	mov    0x25b54,%esi
    278e:	81 fe 50 5b 02 00    	cmp    $0x25b50,%esi
    2794:	75 19                	jne    27af <block_cache_fini+0x3f>
    2796:	e9 1d 01 00 00       	jmp    28b8 <block_cache_fini+0x148>
    279b:	90                   	nop
    279c:	8d 74 26 00          	lea    0x0(%esi,%eiz,1),%esi
    27a0:	8b 76 04             	mov    0x4(%esi),%esi
    27a3:	81 fe 50 5b 02 00    	cmp    $0x25b50,%esi
    27a9:	0f 84 09 01 00 00    	je     28b8 <block_cache_fini+0x148>
    27af:	3b 5e 08             	cmp    0x8(%esi),%ebx
    27b2:	75 ec                	jne    27a0 <block_cache_fini+0x30>
    27b4:	c7 04 24 40 5b 02 00 	movl   $0x25b40,(%esp)
    27bb:	e8 a0 84 00 00       	call   ac60 <fibril_mutex_unlock>
    27c0:	8b 56 24             	mov    0x24(%esi),%edx
    27c3:	89 55 e0             	mov    %edx,-0x20(%ebp)
    27c6:	85 d2                	test   %edx,%edx
    27c8:	0f 84 46 01 00 00    	je     2914 <block_cache_fini+0x1a4>
    27ce:	8b 5a 40             	mov    0x40(%edx),%ebx
    27d1:	83 c2 3c             	add    $0x3c,%edx
    27d4:	89 55 d4             	mov    %edx,-0x2c(%ebp)
    27d7:	8b 55 e0             	mov    -0x20(%ebp),%edx
    27da:	83 c2 20             	add    $0x20,%edx
    27dd:	3b 5d d4             	cmp    -0x2c(%ebp),%ebx
    27e0:	89 55 e4             	mov    %edx,-0x1c(%ebp)
    27e3:	89 da                	mov    %ebx,%edx
    27e5:	0f 84 2d 01 00 00    	je     2918 <block_cache_fini+0x1a8>
    27eb:	90                   	nop
    27ec:	8d 74 26 00          	lea    0x0(%esi,%eiz,1),%esi
    27f0:	8d 5a bc             	lea    -0x44(%edx),%ebx
    27f3:	8b 4b 44             	mov    0x44(%ebx),%ecx
    27f6:	85 c9                	test   %ecx,%ecx
    27f8:	74 0f                	je     2809 <block_cache_fini+0x99>
    27fa:	8b 43 48             	mov    0x48(%ebx),%eax
    27fd:	85 c0                	test   %eax,%eax
    27ff:	74 08                	je     2809 <block_cache_fini+0x99>
    2801:	89 08                	mov    %ecx,(%eax)
    2803:	8b 4b 44             	mov    0x44(%ebx),%ecx
    2806:	89 41 04             	mov    %eax,0x4(%ecx)
    2809:	c7 43 44 00 00 00 00 	movl   $0x0,0x44(%ebx)
    2810:	c7 43 48 00 00 00 00 	movl   $0x0,0x48(%ebx)
    2817:	80 7b 14 00          	cmpb   $0x0,0x14(%ebx)
    281b:	74 41                	je     285e <block_cache_fini+0xee>
    281d:	8b 43 38             	mov    0x38(%ebx),%eax
    2820:	8b 55 e0             	mov    -0x20(%ebp),%edx
    2823:	89 45 d8             	mov    %eax,-0x28(%ebp)
    2826:	8b 43 40             	mov    0x40(%ebx),%eax
    2829:	8b 7a 14             	mov    0x14(%edx),%edi
    282c:	8b 53 3c             	mov    0x3c(%ebx),%edx
    282f:	89 44 24 14          	mov    %eax,0x14(%esp)
    2833:	89 55 dc             	mov    %edx,-0x24(%ebp)
    2836:	8b 43 54             	mov    0x54(%ebx),%eax
    2839:	8b 55 dc             	mov    -0x24(%ebp),%edx
    283c:	89 44 24 10          	mov    %eax,0x10(%esp)
    2840:	8b 45 d8             	mov    -0x28(%ebp),%eax
    2843:	89 7c 24 0c          	mov    %edi,0xc(%esp)
    2847:	89 44 24 04          	mov    %eax,0x4(%esp)
    284b:	89 54 24 08          	mov    %edx,0x8(%esp)
    284f:	8b 46 10             	mov    0x10(%esi),%eax
    2852:	89 04 24             	mov    %eax,(%esp)
    2855:	e8 e6 15 00 00       	call   3e40 <bd_write_blocks>
    285a:	85 c0                	test   %eax,%eax
    285c:	75 7a                	jne    28d8 <block_cache_fini+0x168>
    285e:	8d 43 4c             	lea    0x4c(%ebx),%eax
    2861:	8b 7d e4             	mov    -0x1c(%ebp),%edi
    2864:	89 44 24 04          	mov    %eax,0x4(%esp)
    2868:	89 3c 24             	mov    %edi,(%esp)
    286b:	e8 40 80 01 00       	call   1a8b0 <hash_table_remove_item>
    2870:	8b 43 54             	mov    0x54(%ebx),%eax
    2873:	89 04 24             	mov    %eax,(%esp)
    2876:	e8 e5 0f 01 00       	call   13860 <free>
    287b:	89 1c 24             	mov    %ebx,(%esp)
    287e:	e8 dd 0f 01 00       	call   13860 <free>
    2883:	8b 45 e0             	mov    -0x20(%ebp),%eax
    2886:	8b 50 40             	mov    0x40(%eax),%edx
    2889:	3b 55 d4             	cmp    -0x2c(%ebp),%edx
    288c:	0f 85 5e ff ff ff    	jne    27f0 <block_cache_fini+0x80>
    2892:	89 3c 24             	mov    %edi,(%esp)
    2895:	31 ff                	xor    %edi,%edi
    2897:	e8 b4 78 01 00       	call   1a150 <hash_table_destroy>
    289c:	8b 55 e0             	mov    -0x20(%ebp),%edx
    289f:	c7 46 24 00 00 00 00 	movl   $0x0,0x24(%esi)
    28a6:	89 14 24             	mov    %edx,(%esp)
    28a9:	e8 b2 0f 01 00       	call   13860 <free>
    28ae:	83 c4 4c             	add    $0x4c,%esp
    28b1:	89 f8                	mov    %edi,%eax
    28b3:	5b                   	pop    %ebx
    28b4:	5e                   	pop    %esi
    28b5:	5f                   	pop    %edi
    28b6:	5d                   	pop    %ebp
    28b7:	c3                   	ret    
    28b8:	c7 04 24 40 5b 02 00 	movl   $0x25b40,(%esp)
    28bf:	83 cf ff             	or     $0xffffffff,%edi
    28c2:	e8 99 83 00 00       	call   ac60 <fibril_mutex_unlock>
    28c7:	83 c4 4c             	add    $0x4c,%esp
    28ca:	89 f8                	mov    %edi,%eax
    28cc:	5b                   	pop    %ebx
    28cd:	5e                   	pop    %esi
    28ce:	5f                   	pop    %edi
    28cf:	5d                   	pop    %ebp
    28d0:	c3                   	ret    
    28d1:	8d b4 26 00 00 00 00 	lea    0x0(%esi,%eiz,1),%esi
    28d8:	89 f9                	mov    %edi,%ecx
    28da:	89 c7                	mov    %eax,%edi
    28dc:	8b 46 08             	mov    0x8(%esi),%eax
    28df:	8b 55 dc             	mov    -0x24(%ebp),%edx
    28e2:	89 44 24 14          	mov    %eax,0x14(%esp)
    28e6:	8b 45 d8             	mov    -0x28(%ebp),%eax
    28e9:	89 54 24 10          	mov    %edx,0x10(%esp)
    28ed:	89 4c 24 08          	mov    %ecx,0x8(%esp)
    28f1:	89 7c 24 04          	mov    %edi,0x4(%esp)
    28f5:	89 44 24 0c          	mov    %eax,0xc(%esp)
    28f9:	c7 04 24 a8 30 02 00 	movl   $0x230a8,(%esp)
    2900:	e8 cb c1 00 00       	call   ead0 <printf>
    2905:	e8 b6 c1 01 00       	call   1eac0 <stacktrace_print>
    290a:	83 c4 4c             	add    $0x4c,%esp
    290d:	89 f8                	mov    %edi,%eax
    290f:	5b                   	pop    %ebx
    2910:	5e                   	pop    %esi
    2911:	5f                   	pop    %edi
    2912:	5d                   	pop    %ebp
    2913:	c3                   	ret    
    2914:	31 ff                	xor    %edi,%edi
    2916:	eb af                	jmp    28c7 <block_cache_fini+0x157>
    2918:	8b 55 e0             	mov    -0x20(%ebp),%edx
    291b:	8d 7a 20             	lea    0x20(%edx),%edi
    291e:	e9 6f ff ff ff       	jmp    2892 <block_cache_fini+0x122>
    2923:	8d b6 00 00 00 00    	lea    0x0(%esi),%esi
    2929:	8d bc 27 00 00 00 00 	lea    0x0(%edi,%eiz,1),%edi

00002930 <block_fini>:
    2930:	55                   	push   %ebp
    2931:	89 e5                	mov    %esp,%ebp
    2933:	56                   	push   %esi
    2934:	53                   	push   %ebx
    2935:	83 ec 10             	sub    $0x10,%esp
    2938:	8b 75 08             	mov    0x8(%ebp),%esi
    293b:	c7 04 24 40 5b 02 00 	movl   $0x25b40,(%esp)
    2942:	e8 f9 81 00 00       	call   ab40 <fibril_mutex_lock>
    2947:	8b 1d 54 5b 02 00    	mov    0x25b54,%ebx
    294d:	81 fb 50 5b 02 00    	cmp    $0x25b50,%ebx
    2953:	75 1a                	jne    296f <block_fini+0x3f>
    2955:	e9 a6 00 00 00       	jmp    2a00 <block_fini+0xd0>
    295a:	8d b6 00 00 00 00    	lea    0x0(%esi),%esi
    2960:	8b 5b 04             	mov    0x4(%ebx),%ebx
    2963:	81 fb 50 5b 02 00    	cmp    $0x25b50,%ebx
    2969:	0f 84 91 00 00 00    	je     2a00 <block_fini+0xd0>
    296f:	3b 73 08             	cmp    0x8(%ebx),%esi
    2972:	75 ec                	jne    2960 <block_fini+0x30>
    2974:	c7 04 24 40 5b 02 00 	movl   $0x25b40,(%esp)
    297b:	e8 e0 82 00 00       	call   ac60 <fibril_mutex_unlock>
    2980:	8b 4b 24             	mov    0x24(%ebx),%ecx
    2983:	85 c9                	test   %ecx,%ecx
    2985:	74 08                	je     298f <block_fini+0x5f>
    2987:	89 34 24             	mov    %esi,(%esp)
    298a:	e8 e1 fd ff ff       	call   2770 <block_cache_fini>
    298f:	c7 04 24 40 5b 02 00 	movl   $0x25b40,(%esp)
    2996:	e8 a5 81 00 00       	call   ab40 <fibril_mutex_lock>
    299b:	8b 13                	mov    (%ebx),%edx
    299d:	85 d2                	test   %edx,%edx
    299f:	74 0e                	je     29af <block_fini+0x7f>
    29a1:	8b 43 04             	mov    0x4(%ebx),%eax
    29a4:	85 c0                	test   %eax,%eax
    29a6:	74 07                	je     29af <block_fini+0x7f>
    29a8:	89 10                	mov    %edx,(%eax)
    29aa:	8b 13                	mov    (%ebx),%edx
    29ac:	89 42 04             	mov    %eax,0x4(%edx)
    29af:	c7 03 00 00 00 00    	movl   $0x0,(%ebx)
    29b5:	c7 43 04 00 00 00 00 	movl   $0x0,0x4(%ebx)
    29bc:	c7 04 24 40 5b 02 00 	movl   $0x25b40,(%esp)
    29c3:	e8 98 82 00 00       	call   ac60 <fibril_mutex_unlock>
    29c8:	8b 43 14             	mov    0x14(%ebx),%eax
    29cb:	85 c0                	test   %eax,%eax
    29cd:	74 08                	je     29d7 <block_fini+0xa7>
    29cf:	89 04 24             	mov    %eax,(%esp)
    29d2:	e8 89 0e 01 00       	call   13860 <free>
    29d7:	8b 43 10             	mov    0x10(%ebx),%eax
    29da:	89 04 24             	mov    %eax,(%esp)
    29dd:	e8 de 12 00 00       	call   3cc0 <bd_close>
    29e2:	8b 43 0c             	mov    0xc(%ebx),%eax
    29e5:	89 04 24             	mov    %eax,(%esp)
    29e8:	e8 a3 41 01 00       	call   16b90 <async_hangup>
    29ed:	89 5d 08             	mov    %ebx,0x8(%ebp)
    29f0:	83 c4 10             	add    $0x10,%esp
    29f3:	5b                   	pop    %ebx
    29f4:	5e                   	pop    %esi
    29f5:	5d                   	pop    %ebp
    29f6:	e9 65 0e 01 00       	jmp    13860 <free>
    29fb:	90                   	nop
    29fc:	8d 74 26 00          	lea    0x0(%esi,%eiz,1),%esi
    2a00:	c7 04 24 40 5b 02 00 	movl   $0x25b40,(%esp)
    2a07:	e8 54 82 00 00       	call   ac60 <fibril_mutex_unlock>
    2a0c:	c7 44 24 08 b8 00 00 	movl   $0xb8,0x8(%esp)
    2a13:	00 
    2a14:	c7 44 24 04 0c 30 02 	movl   $0x2300c,0x4(%esp)
    2a1b:	00 
    2a1c:	c7 04 24 14 30 02 00 	movl   $0x23014,(%esp)
    2a23:	e8 38 c1 01 00       	call   1eb60 <assert_abort>
    2a28:	90                   	nop
    2a29:	8d b4 26 00 00 00 00 	lea    0x0(%esi,%eiz,1),%esi

00002a30 <block_put>:
    2a30:	55                   	push   %ebp
    2a31:	89 e5                	mov    %esp,%ebp
    2a33:	57                   	push   %edi
    2a34:	56                   	push   %esi
    2a35:	53                   	push   %ebx
    2a36:	83 ec 3c             	sub    $0x3c,%esp
    2a39:	8b 7d 08             	mov    0x8(%ebp),%edi
    2a3c:	8b 5f 2c             	mov    0x2c(%edi),%ebx
    2a3f:	c7 04 24 40 5b 02 00 	movl   $0x25b40,(%esp)
    2a46:	e8 f5 80 00 00       	call   ab40 <fibril_mutex_lock>
    2a4b:	8b 35 54 5b 02 00    	mov    0x25b54,%esi
    2a51:	81 fe 50 5b 02 00    	cmp    $0x25b50,%esi
    2a57:	75 16                	jne    2a6f <block_put+0x3f>
    2a59:	e9 fa 00 00 00       	jmp    2b58 <block_put+0x128>
    2a5e:	66 90                	xchg   %ax,%ax
    2a60:	8b 76 04             	mov    0x4(%esi),%esi
    2a63:	81 fe 50 5b 02 00    	cmp    $0x25b50,%esi
    2a69:	0f 84 e9 00 00 00    	je     2b58 <block_put+0x128>
    2a6f:	3b 5e 08             	cmp    0x8(%esi),%ebx
    2a72:	75 ec                	jne    2a60 <block_put+0x30>
    2a74:	c7 04 24 40 5b 02 00 	movl   $0x25b40,(%esp)
    2a7b:	e8 e0 81 00 00       	call   ac60 <fibril_mutex_unlock>
    2a80:	8b 5e 24             	mov    0x24(%esi),%ebx
    2a83:	85 db                	test   %ebx,%ebx
    2a85:	0f 84 10 02 00 00    	je     2c9b <block_put+0x26b>
    2a8b:	8b 47 10             	mov    0x10(%edi),%eax
    2a8e:	85 c0                	test   %eax,%eax
    2a90:	0f 84 21 02 00 00    	je     2cb7 <block_put+0x287>
    2a96:	c7 45 dc 00 00 00 00 	movl   $0x0,-0x24(%ebp)
    2a9d:	89 75 d8             	mov    %esi,-0x28(%ebp)
    2aa0:	eb 7b                	jmp    2b1d <block_put+0xed>
    2aa2:	8d b6 00 00 00 00    	lea    0x0(%esi),%esi
    2aa8:	80 7f 14 00          	cmpb   $0x0,0x14(%edi)
    2aac:	74 0a                	je     2ab8 <block_put+0x88>
    2aae:	83 7f 10 01          	cmpl   $0x1,0x10(%edi)
    2ab2:	0f 84 18 01 00 00    	je     2bd0 <block_put+0x1a0>
    2ab8:	89 3c 24             	mov    %edi,(%esp)
    2abb:	e8 a0 81 00 00       	call   ac60 <fibril_mutex_unlock>
    2ac0:	89 1c 24             	mov    %ebx,(%esp)
    2ac3:	e8 78 80 00 00       	call   ab40 <fibril_mutex_lock>
    2ac8:	89 3c 24             	mov    %edi,(%esp)
    2acb:	e8 70 80 00 00       	call   ab40 <fibril_mutex_lock>
    2ad0:	8b 4f 10             	mov    0x10(%edi),%ecx
    2ad3:	8d 41 ff             	lea    -0x1(%ecx),%eax
    2ad6:	89 47 10             	mov    %eax,0x10(%edi)
    2ad9:	85 c0                	test   %eax,%eax
    2adb:	0f 85 9f 01 00 00    	jne    2c80 <block_put+0x250>
    2ae1:	83 7b 1c 14          	cmpl   $0x14,0x1c(%ebx)
    2ae5:	0f 87 95 00 00 00    	ja     2b80 <block_put+0x150>
    2aeb:	8b 45 dc             	mov    -0x24(%ebp),%eax
    2aee:	85 c0                	test   %eax,%eax
    2af0:	0f 85 8a 00 00 00    	jne    2b80 <block_put+0x150>
    2af6:	83 7b 44 01          	cmpl   $0x1,0x44(%ebx)
    2afa:	0f 84 68 01 00 00    	je     2c68 <block_put+0x238>
    2b00:	80 7f 14 00          	cmpb   $0x0,0x14(%edi)
    2b04:	0f 84 5e 01 00 00    	je     2c68 <block_put+0x238>
    2b0a:	89 4f 10             	mov    %ecx,0x10(%edi)
    2b0d:	89 3c 24             	mov    %edi,(%esp)
    2b10:	e8 4b 81 00 00       	call   ac60 <fibril_mutex_unlock>
    2b15:	89 1c 24             	mov    %ebx,(%esp)
    2b18:	e8 43 81 00 00       	call   ac60 <fibril_mutex_unlock>
    2b1d:	89 1c 24             	mov    %ebx,(%esp)
    2b20:	e8 1b 80 00 00       	call   ab40 <fibril_mutex_lock>
    2b25:	8b 43 1c             	mov    0x1c(%ebx),%eax
    2b28:	8b 73 44             	mov    0x44(%ebx),%esi
    2b2b:	89 1c 24             	mov    %ebx,(%esp)
    2b2e:	89 45 e0             	mov    %eax,-0x20(%ebp)
    2b31:	e8 2a 81 00 00       	call   ac60 <fibril_mutex_unlock>
    2b36:	89 3c 24             	mov    %edi,(%esp)
    2b39:	e8 02 80 00 00       	call   ab40 <fibril_mutex_lock>
    2b3e:	80 7f 15 00          	cmpb   $0x0,0x15(%edi)
    2b42:	0f 84 60 ff ff ff    	je     2aa8 <block_put+0x78>
    2b48:	c6 47 14 00          	movb   $0x0,0x14(%edi)
    2b4c:	e9 67 ff ff ff       	jmp    2ab8 <block_put+0x88>
    2b51:	8d b4 26 00 00 00 00 	lea    0x0(%esi,%eiz,1),%esi
    2b58:	c7 04 24 40 5b 02 00 	movl   $0x25b40,(%esp)
    2b5f:	e8 fc 80 00 00       	call   ac60 <fibril_mutex_unlock>
    2b64:	c7 44 24 08 2d 02 00 	movl   $0x22d,0x8(%esp)
    2b6b:	00 
    2b6c:	c7 44 24 04 0c 30 02 	movl   $0x2300c,0x4(%esp)
    2b73:	00 
    2b74:	c7 04 24 14 30 02 00 	movl   $0x23014,(%esp)
    2b7b:	e8 e0 bf 01 00       	call   1eb60 <assert_abort>
    2b80:	80 7f 14 00          	cmpb   $0x0,0x14(%edi)
    2b84:	75 84                	jne    2b0a <block_put+0xda>
    2b86:	8d 47 4c             	lea    0x4c(%edi),%eax
    2b89:	89 44 24 04          	mov    %eax,0x4(%esp)
    2b8d:	8d 43 20             	lea    0x20(%ebx),%eax
    2b90:	89 04 24             	mov    %eax,(%esp)
    2b93:	e8 18 7d 01 00       	call   1a8b0 <hash_table_remove_item>
    2b98:	89 3c 24             	mov    %edi,(%esp)
    2b9b:	e8 c0 80 00 00       	call   ac60 <fibril_mutex_unlock>
    2ba0:	8b 47 54             	mov    0x54(%edi),%eax
    2ba3:	89 04 24             	mov    %eax,(%esp)
    2ba6:	e8 b5 0c 01 00       	call   13860 <free>
    2bab:	89 3c 24             	mov    %edi,(%esp)
    2bae:	e8 ad 0c 01 00       	call   13860 <free>
    2bb3:	8b 73 1c             	mov    0x1c(%ebx),%esi
    2bb6:	4e                   	dec    %esi
    2bb7:	89 73 1c             	mov    %esi,0x1c(%ebx)
    2bba:	89 1c 24             	mov    %ebx,(%esp)
    2bbd:	e8 9e 80 00 00       	call   ac60 <fibril_mutex_unlock>
    2bc2:	8b 45 dc             	mov    -0x24(%ebp),%eax
    2bc5:	83 c4 3c             	add    $0x3c,%esp
    2bc8:	5b                   	pop    %ebx
    2bc9:	5e                   	pop    %esi
    2bca:	5f                   	pop    %edi
    2bcb:	5d                   	pop    %ebp
    2bcc:	c3                   	ret    
    2bcd:	8d 76 00             	lea    0x0(%esi),%esi
    2bd0:	4e                   	dec    %esi
    2bd1:	75 0a                	jne    2bdd <block_put+0x1ad>
    2bd3:	83 7d e0 14          	cmpl   $0x14,-0x20(%ebp)
    2bd7:	0f 86 db fe ff ff    	jbe    2ab8 <block_put+0x88>
    2bdd:	8b 47 38             	mov    0x38(%edi),%eax
    2be0:	8b 57 3c             	mov    0x3c(%edi),%edx
    2be3:	89 45 e0             	mov    %eax,-0x20(%ebp)
    2be6:	8b 47 40             	mov    0x40(%edi),%eax
    2be9:	8b 73 14             	mov    0x14(%ebx),%esi
    2bec:	89 55 e4             	mov    %edx,-0x1c(%ebp)
    2bef:	89 44 24 14          	mov    %eax,0x14(%esp)
    2bf3:	8b 55 e4             	mov    -0x1c(%ebp),%edx
    2bf6:	8b 47 54             	mov    0x54(%edi),%eax
    2bf9:	89 54 24 08          	mov    %edx,0x8(%esp)
    2bfd:	89 44 24 10          	mov    %eax,0x10(%esp)
    2c01:	8b 55 d8             	mov    -0x28(%ebp),%edx
    2c04:	8b 45 e0             	mov    -0x20(%ebp),%eax
    2c07:	89 74 24 0c          	mov    %esi,0xc(%esp)
    2c0b:	89 44 24 04          	mov    %eax,0x4(%esp)
    2c0f:	8b 42 10             	mov    0x10(%edx),%eax
    2c12:	89 04 24             	mov    %eax,(%esp)
    2c15:	e8 26 12 00 00       	call   3e40 <bd_write_blocks>
    2c1a:	89 45 dc             	mov    %eax,-0x24(%ebp)
    2c1d:	85 c0                	test   %eax,%eax
    2c1f:	0f 84 23 ff ff ff    	je     2b48 <block_put+0x118>
    2c25:	8b 55 d8             	mov    -0x28(%ebp),%edx
    2c28:	8b 42 08             	mov    0x8(%edx),%eax
    2c2b:	8b 55 e4             	mov    -0x1c(%ebp),%edx
    2c2e:	89 44 24 14          	mov    %eax,0x14(%esp)
    2c32:	8b 45 e0             	mov    -0x20(%ebp),%eax
    2c35:	89 44 24 0c          	mov    %eax,0xc(%esp)
    2c39:	8b 45 dc             	mov    -0x24(%ebp),%eax
    2c3c:	89 54 24 10          	mov    %edx,0x10(%esp)
    2c40:	89 74 24 08          	mov    %esi,0x8(%esp)
    2c44:	89 44 24 04          	mov    %eax,0x4(%esp)
    2c48:	c7 04 24 a8 30 02 00 	movl   $0x230a8,(%esp)
    2c4f:	e8 7c be 00 00       	call   ead0 <printf>
    2c54:	e8 67 be 01 00       	call   1eac0 <stacktrace_print>
    2c59:	c6 47 14 00          	movb   $0x0,0x14(%edi)
    2c5d:	e9 56 fe ff ff       	jmp    2ab8 <block_put+0x88>
    2c62:	8d b6 00 00 00 00    	lea    0x0(%esi),%esi
    2c68:	8d 4b 3c             	lea    0x3c(%ebx),%ecx
    2c6b:	8d 47 44             	lea    0x44(%edi),%eax
    2c6e:	89 4f 48             	mov    %ecx,0x48(%edi)
    2c71:	8b 4b 3c             	mov    0x3c(%ebx),%ecx
    2c74:	89 4f 44             	mov    %ecx,0x44(%edi)
    2c77:	8b 4b 3c             	mov    0x3c(%ebx),%ecx
    2c7a:	89 43 3c             	mov    %eax,0x3c(%ebx)
    2c7d:	89 41 04             	mov    %eax,0x4(%ecx)
    2c80:	89 3c 24             	mov    %edi,(%esp)
    2c83:	e8 d8 7f 00 00       	call   ac60 <fibril_mutex_unlock>
    2c88:	89 1c 24             	mov    %ebx,(%esp)
    2c8b:	e8 d0 7f 00 00       	call   ac60 <fibril_mutex_unlock>
    2c90:	8b 45 dc             	mov    -0x24(%ebp),%eax
    2c93:	83 c4 3c             	add    $0x3c,%esp
    2c96:	5b                   	pop    %ebx
    2c97:	5e                   	pop    %esi
    2c98:	5f                   	pop    %edi
    2c99:	5d                   	pop    %ebp
    2c9a:	c3                   	ret    
    2c9b:	c7 44 24 08 2e 02 00 	movl   $0x22e,0x8(%esp)
    2ca2:	00 
    2ca3:	c7 44 24 04 0c 30 02 	movl   $0x2300c,0x4(%esp)
    2caa:	00 
    2cab:	c7 04 24 1b 30 02 00 	movl   $0x2301b,(%esp)
    2cb2:	e8 a9 be 01 00       	call   1eb60 <assert_abort>
    2cb7:	c7 44 24 08 2f 02 00 	movl   $0x22f,0x8(%esp)
    2cbe:	00 
    2cbf:	c7 44 24 04 0c 30 02 	movl   $0x2300c,0x4(%esp)
    2cc6:	00 
    2cc7:	c7 04 24 29 30 02 00 	movl   $0x23029,(%esp)
    2cce:	e8 8d be 01 00       	call   1eb60 <assert_abort>
    2cd3:	8d b6 00 00 00 00    	lea    0x0(%esi),%esi
    2cd9:	8d bc 27 00 00 00 00 	lea    0x0(%edi,%eiz,1),%edi

00002ce0 <block_get>:
    2ce0:	55                   	push   %ebp
    2ce1:	89 e5                	mov    %esp,%ebp
    2ce3:	57                   	push   %edi
    2ce4:	56                   	push   %esi
    2ce5:	53                   	push   %ebx
    2ce6:	83 ec 5c             	sub    $0x5c,%esp
    2ce9:	8b 45 10             	mov    0x10(%ebp),%eax
    2cec:	89 45 e0             	mov    %eax,-0x20(%ebp)
    2cef:	c7 04 24 40 5b 02 00 	movl   $0x25b40,(%esp)
    2cf6:	8b 45 14             	mov    0x14(%ebp),%eax
    2cf9:	89 45 e4             	mov    %eax,-0x1c(%ebp)
    2cfc:	e8 3f 7e 00 00       	call   ab40 <fibril_mutex_lock>
    2d01:	8b 35 54 5b 02 00    	mov    0x25b54,%esi
    2d07:	81 fe 50 5b 02 00    	cmp    $0x25b50,%esi
    2d0d:	74 21                	je     2d30 <block_get+0x50>
    2d0f:	8b 55 0c             	mov    0xc(%ebp),%edx
    2d12:	89 d0                	mov    %edx,%eax
    2d14:	3b 56 08             	cmp    0x8(%esi),%edx
    2d17:	75 0c                	jne    2d25 <block_get+0x45>
    2d19:	eb 3d                	jmp    2d58 <block_get+0x78>
    2d1b:	90                   	nop
    2d1c:	8d 74 26 00          	lea    0x0(%esi,%eiz,1),%esi
    2d20:	3b 46 08             	cmp    0x8(%esi),%eax
    2d23:	74 33                	je     2d58 <block_get+0x78>
    2d25:	8b 76 04             	mov    0x4(%esi),%esi
    2d28:	81 fe 50 5b 02 00    	cmp    $0x25b50,%esi
    2d2e:	75 f0                	jne    2d20 <block_get+0x40>
    2d30:	c7 04 24 40 5b 02 00 	movl   $0x25b40,(%esp)
    2d37:	e8 24 7f 00 00       	call   ac60 <fibril_mutex_unlock>
    2d3c:	c7 44 24 08 80 01 00 	movl   $0x180,0x8(%esp)
    2d43:	00 
    2d44:	c7 44 24 04 0c 30 02 	movl   $0x2300c,0x4(%esp)
    2d4b:	00 
    2d4c:	c7 04 24 14 30 02 00 	movl   $0x23014,(%esp)
    2d53:	e8 08 be 01 00       	call   1eb60 <assert_abort>
    2d58:	c7 04 24 40 5b 02 00 	movl   $0x25b40,(%esp)
    2d5f:	e8 fc 7e 00 00       	call   ac60 <fibril_mutex_unlock>
    2d64:	8b 5e 24             	mov    0x24(%esi),%ebx
    2d67:	85 db                	test   %ebx,%ebx
    2d69:	0f 84 36 04 00 00    	je     31a5 <block_get+0x4c5>
    2d6f:	8d 4b 20             	lea    0x20(%ebx),%ecx
    2d72:	8d 53 3c             	lea    0x3c(%ebx),%edx
    2d75:	89 4d c8             	mov    %ecx,-0x38(%ebp)
    2d78:	89 55 d8             	mov    %edx,-0x28(%ebp)
    2d7b:	89 75 cc             	mov    %esi,-0x34(%ebp)
    2d7e:	66 90                	xchg   %ax,%ax
    2d80:	89 1c 24             	mov    %ebx,(%esp)
    2d83:	e8 b8 7d 00 00       	call   ab40 <fibril_mutex_lock>
    2d88:	8d 4d e0             	lea    -0x20(%ebp),%ecx
    2d8b:	89 4c 24 04          	mov    %ecx,0x4(%esp)
    2d8f:	8b 4d c8             	mov    -0x38(%ebp),%ecx
    2d92:	89 0c 24             	mov    %ecx,(%esp)
    2d95:	e8 96 78 01 00       	call   1a630 <hash_table_find>
    2d9a:	85 c0                	test   %eax,%eax
    2d9c:	0f 85 9b 01 00 00    	jne    2f3d <block_get+0x25d>
    2da2:	83 7b 1c 09          	cmpl   $0x9,0x1c(%ebx)
    2da6:	0f 86 c4 00 00 00    	jbe    2e70 <block_get+0x190>
    2dac:	8b 53 40             	mov    0x40(%ebx),%edx
    2daf:	3b 55 d8             	cmp    -0x28(%ebp),%edx
    2db2:	0f 84 b8 00 00 00    	je     2e70 <block_get+0x190>
    2db8:	8d 72 bc             	lea    -0x44(%edx),%esi
    2dbb:	89 34 24             	mov    %esi,(%esp)
    2dbe:	e8 7d 7d 00 00       	call   ab40 <fibril_mutex_lock>
    2dc3:	80 7e 14 00          	cmpb   $0x0,0x14(%esi)
    2dc7:	0f 84 13 02 00 00    	je     2fe0 <block_get+0x300>
    2dcd:	8b 4e 44             	mov    0x44(%esi),%ecx
    2dd0:	85 c9                	test   %ecx,%ecx
    2dd2:	74 0f                	je     2de3 <block_get+0x103>
    2dd4:	8b 46 48             	mov    0x48(%esi),%eax
    2dd7:	85 c0                	test   %eax,%eax
    2dd9:	74 08                	je     2de3 <block_get+0x103>
    2ddb:	89 08                	mov    %ecx,(%eax)
    2ddd:	8b 4e 44             	mov    0x44(%esi),%ecx
    2de0:	89 41 04             	mov    %eax,0x4(%ecx)
    2de3:	c7 46 44 00 00 00 00 	movl   $0x0,0x44(%esi)
    2dea:	8d 46 44             	lea    0x44(%esi),%eax
    2ded:	8b 4b 3c             	mov    0x3c(%ebx),%ecx
    2df0:	8b 55 d8             	mov    -0x28(%ebp),%edx
    2df3:	89 4e 44             	mov    %ecx,0x44(%esi)
    2df6:	89 56 48             	mov    %edx,0x48(%esi)
    2df9:	8b 4b 3c             	mov    0x3c(%ebx),%ecx
    2dfc:	89 43 3c             	mov    %eax,0x3c(%ebx)
    2dff:	89 41 04             	mov    %eax,0x4(%ecx)
    2e02:	89 1c 24             	mov    %ebx,(%esp)
    2e05:	e8 56 7e 00 00       	call   ac60 <fibril_mutex_unlock>
    2e0a:	8b 46 40             	mov    0x40(%esi),%eax
    2e0d:	8b 4e 3c             	mov    0x3c(%esi),%ecx
    2e10:	8b 56 38             	mov    0x38(%esi),%edx
    2e13:	8b 7b 14             	mov    0x14(%ebx),%edi
    2e16:	89 44 24 14          	mov    %eax,0x14(%esp)
    2e1a:	8b 46 54             	mov    0x54(%esi),%eax
    2e1d:	89 4d d4             	mov    %ecx,-0x2c(%ebp)
    2e20:	89 4c 24 08          	mov    %ecx,0x8(%esp)
    2e24:	8b 4d cc             	mov    -0x34(%ebp),%ecx
    2e27:	89 44 24 10          	mov    %eax,0x10(%esp)
    2e2b:	89 7c 24 0c          	mov    %edi,0xc(%esp)
    2e2f:	89 54 24 04          	mov    %edx,0x4(%esp)
    2e33:	89 55 d0             	mov    %edx,-0x30(%ebp)
    2e36:	8b 41 10             	mov    0x10(%ecx),%eax
    2e39:	89 04 24             	mov    %eax,(%esp)
    2e3c:	e8 ff 0f 00 00       	call   3e40 <bd_write_blocks>
    2e41:	85 c0                	test   %eax,%eax
    2e43:	0f 85 87 00 00 00    	jne    2ed0 <block_get+0x1f0>
    2e49:	c6 46 14 00          	movb   $0x0,0x14(%esi)
    2e4d:	89 1c 24             	mov    %ebx,(%esp)
    2e50:	e8 bb 7d 00 00       	call   ac10 <fibril_mutex_trylock>
    2e55:	84 c0                	test   %al,%al
    2e57:	0f 85 b3 00 00 00    	jne    2f10 <block_get+0x230>
    2e5d:	89 34 24             	mov    %esi,(%esp)
    2e60:	e8 fb 7d 00 00       	call   ac60 <fibril_mutex_unlock>
    2e65:	e9 16 ff ff ff       	jmp    2d80 <block_get+0xa0>
    2e6a:	8d b6 00 00 00 00    	lea    0x0(%esi),%esi
    2e70:	c7 04 24 58 00 00 00 	movl   $0x58,(%esp)
    2e77:	e8 d4 08 01 00       	call   13750 <malloc>
    2e7c:	89 c6                	mov    %eax,%esi
    2e7e:	85 c0                	test   %eax,%eax
    2e80:	74 1e                	je     2ea0 <block_get+0x1c0>
    2e82:	8b 43 10             	mov    0x10(%ebx),%eax
    2e85:	89 04 24             	mov    %eax,(%esp)
    2e88:	e8 c3 08 01 00       	call   13750 <malloc>
    2e8d:	89 46 54             	mov    %eax,0x54(%esi)
    2e90:	85 c0                	test   %eax,%eax
    2e92:	0f 85 c4 02 00 00    	jne    315c <block_get+0x47c>
    2e98:	89 34 24             	mov    %esi,(%esp)
    2e9b:	e8 c0 09 01 00       	call   13860 <free>
    2ea0:	8b 53 40             	mov    0x40(%ebx),%edx
    2ea3:	3b 55 d8             	cmp    -0x28(%ebp),%edx
    2ea6:	0f 85 0c ff ff ff    	jne    2db8 <block_get+0xd8>
    2eac:	89 1c 24             	mov    %ebx,(%esp)
    2eaf:	31 ff                	xor    %edi,%edi
    2eb1:	e8 aa 7d 00 00       	call   ac60 <fibril_mutex_unlock>
    2eb6:	b9 fe ff ff ff       	mov    $0xfffffffe,%ecx
    2ebb:	8b 45 08             	mov    0x8(%ebp),%eax
    2ebe:	89 38                	mov    %edi,(%eax)
    2ec0:	83 c4 5c             	add    $0x5c,%esp
    2ec3:	89 c8                	mov    %ecx,%eax
    2ec5:	5b                   	pop    %ebx
    2ec6:	5e                   	pop    %esi
    2ec7:	5f                   	pop    %edi
    2ec8:	5d                   	pop    %ebp
    2ec9:	c3                   	ret    
    2eca:	8d b6 00 00 00 00    	lea    0x0(%esi),%esi
    2ed0:	8b 4d cc             	mov    -0x34(%ebp),%ecx
    2ed3:	8b 51 08             	mov    0x8(%ecx),%edx
    2ed6:	8b 4d d4             	mov    -0x2c(%ebp),%ecx
    2ed9:	89 54 24 14          	mov    %edx,0x14(%esp)
    2edd:	8b 55 d0             	mov    -0x30(%ebp),%edx
    2ee0:	89 54 24 0c          	mov    %edx,0xc(%esp)
    2ee4:	89 4c 24 10          	mov    %ecx,0x10(%esp)
    2ee8:	89 7c 24 08          	mov    %edi,0x8(%esp)
    2eec:	89 44 24 04          	mov    %eax,0x4(%esp)
    2ef0:	c7 04 24 a8 30 02 00 	movl   $0x230a8,(%esp)
    2ef7:	e8 d4 bb 00 00       	call   ead0 <printf>
    2efc:	e8 bf bb 01 00       	call   1eac0 <stacktrace_print>
    2f01:	89 34 24             	mov    %esi,(%esp)
    2f04:	e8 57 7d 00 00       	call   ac60 <fibril_mutex_unlock>
    2f09:	e9 72 fe ff ff       	jmp    2d80 <block_get+0xa0>
    2f0e:	66 90                	xchg   %ax,%ax
    2f10:	8d 4d e0             	lea    -0x20(%ebp),%ecx
    2f13:	89 f7                	mov    %esi,%edi
    2f15:	89 4c 24 04          	mov    %ecx,0x4(%esp)
    2f19:	8b 4d c8             	mov    -0x38(%ebp),%ecx
    2f1c:	89 0c 24             	mov    %ecx,(%esp)
    2f1f:	8b 75 cc             	mov    -0x34(%ebp),%esi
    2f22:	e8 09 77 01 00       	call   1a630 <hash_table_find>
    2f27:	85 c0                	test   %eax,%eax
    2f29:	0f 84 b6 00 00 00    	je     2fe5 <block_get+0x305>
    2f2f:	89 3c 24             	mov    %edi,(%esp)
    2f32:	89 45 c0             	mov    %eax,-0x40(%ebp)
    2f35:	e8 26 7d 00 00       	call   ac60 <fibril_mutex_unlock>
    2f3a:	8b 45 c0             	mov    -0x40(%ebp),%eax
    2f3d:	8d 78 b4             	lea    -0x4c(%eax),%edi
    2f40:	89 3c 24             	mov    %edi,(%esp)
    2f43:	e8 f8 7b 00 00       	call   ab40 <fibril_mutex_lock>
    2f48:	8b 47 10             	mov    0x10(%edi),%eax
    2f4b:	8d 50 01             	lea    0x1(%eax),%edx
    2f4e:	85 c0                	test   %eax,%eax
    2f50:	89 57 10             	mov    %edx,0x10(%edi)
    2f53:	75 24                	jne    2f79 <block_get+0x299>
    2f55:	8b 57 44             	mov    0x44(%edi),%edx
    2f58:	85 d2                	test   %edx,%edx
    2f5a:	74 0f                	je     2f6b <block_get+0x28b>
    2f5c:	8b 47 48             	mov    0x48(%edi),%eax
    2f5f:	85 c0                	test   %eax,%eax
    2f61:	74 08                	je     2f6b <block_get+0x28b>
    2f63:	89 10                	mov    %edx,(%eax)
    2f65:	8b 57 44             	mov    0x44(%edi),%edx
    2f68:	89 42 04             	mov    %eax,0x4(%edx)
    2f6b:	c7 47 44 00 00 00 00 	movl   $0x0,0x44(%edi)
    2f72:	c7 47 48 00 00 00 00 	movl   $0x0,0x48(%edi)
    2f79:	80 7f 15 01          	cmpb   $0x1,0x15(%edi)
    2f7d:	19 c0                	sbb    %eax,%eax
    2f7f:	40                   	inc    %eax
    2f80:	80 7f 15 01          	cmpb   $0x1,0x15(%edi)
    2f84:	19 c9                	sbb    %ecx,%ecx
    2f86:	89 3c 24             	mov    %edi,(%esp)
    2f89:	83 f1 ff             	xor    $0xffffffff,%ecx
    2f8c:	88 45 c0             	mov    %al,-0x40(%ebp)
    2f8f:	81 e1 f7 fe ff ff    	and    $0xfffffef7,%ecx
    2f95:	89 4d c4             	mov    %ecx,-0x3c(%ebp)
    2f98:	e8 c3 7c 00 00       	call   ac60 <fibril_mutex_unlock>
    2f9d:	89 1c 24             	mov    %ebx,(%esp)
    2fa0:	e8 bb 7c 00 00       	call   ac60 <fibril_mutex_unlock>
    2fa5:	8a 45 c0             	mov    -0x40(%ebp),%al
    2fa8:	8b 4d c4             	mov    -0x3c(%ebp),%ecx
    2fab:	84 c0                	test   %al,%al
    2fad:	0f 84 08 ff ff ff    	je     2ebb <block_get+0x1db>
    2fb3:	80 7f 15 00          	cmpb   $0x0,0x15(%edi)
    2fb7:	0f 84 b0 01 00 00    	je     316d <block_get+0x48d>
    2fbd:	89 3c 24             	mov    %edi,(%esp)
    2fc0:	89 4d c4             	mov    %ecx,-0x3c(%ebp)
    2fc3:	e8 68 fa ff ff       	call   2a30 <block_put>
    2fc8:	8b 45 08             	mov    0x8(%ebp),%eax
    2fcb:	31 ff                	xor    %edi,%edi
    2fcd:	8b 4d c4             	mov    -0x3c(%ebp),%ecx
    2fd0:	89 38                	mov    %edi,(%eax)
    2fd2:	83 c4 5c             	add    $0x5c,%esp
    2fd5:	89 c8                	mov    %ecx,%eax
    2fd7:	5b                   	pop    %ebx
    2fd8:	5e                   	pop    %esi
    2fd9:	5f                   	pop    %edi
    2fda:	5d                   	pop    %ebp
    2fdb:	c3                   	ret    
    2fdc:	8d 74 26 00          	lea    0x0(%esi,%eiz,1),%esi
    2fe0:	89 f7                	mov    %esi,%edi
    2fe2:	8b 75 cc             	mov    -0x34(%ebp),%esi
    2fe5:	89 3c 24             	mov    %edi,(%esp)
    2fe8:	e8 73 7c 00 00       	call   ac60 <fibril_mutex_unlock>
    2fed:	8b 57 44             	mov    0x44(%edi),%edx
    2ff0:	85 d2                	test   %edx,%edx
    2ff2:	74 0f                	je     3003 <block_get+0x323>
    2ff4:	8b 47 48             	mov    0x48(%edi),%eax
    2ff7:	85 c0                	test   %eax,%eax
    2ff9:	74 08                	je     3003 <block_get+0x323>
    2ffb:	89 10                	mov    %edx,(%eax)
    2ffd:	8b 57 44             	mov    0x44(%edi),%edx
    3000:	89 42 04             	mov    %eax,0x4(%edx)
    3003:	8d 47 4c             	lea    0x4c(%edi),%eax
    3006:	8b 4d c8             	mov    -0x38(%ebp),%ecx
    3009:	c7 47 44 00 00 00 00 	movl   $0x0,0x44(%edi)
    3010:	c7 47 48 00 00 00 00 	movl   $0x0,0x48(%edi)
    3017:	89 44 24 04          	mov    %eax,0x4(%esp)
    301b:	89 0c 24             	mov    %ecx,(%esp)
    301e:	e8 8d 78 01 00       	call   1a8b0 <hash_table_remove_item>
    3023:	89 3c 24             	mov    %edi,(%esp)
    3026:	e8 f5 7a 00 00       	call   ab20 <fibril_mutex_initialize>
    302b:	8d 47 18             	lea    0x18(%edi),%eax
    302e:	c7 47 10 01 00 00 00 	movl   $0x1,0x10(%edi)
    3035:	c6 47 14 00          	movb   $0x0,0x14(%edi)
    3039:	c6 47 15 00          	movb   $0x0,0x15(%edi)
    303d:	89 04 24             	mov    %eax,(%esp)
    3040:	e8 6b 7d 00 00       	call   adb0 <fibril_rwlock_initialize>
    3045:	8b 4d e0             	mov    -0x20(%ebp),%ecx
    3048:	8b 43 10             	mov    0x10(%ebx),%eax
    304b:	89 4d d8             	mov    %ecx,-0x28(%ebp)
    304e:	c7 47 44 00 00 00 00 	movl   $0x0,0x44(%edi)
    3055:	c7 47 48 00 00 00 00 	movl   $0x0,0x48(%edi)
    305c:	89 47 40             	mov    %eax,0x40(%edi)
    305f:	8b 45 d8             	mov    -0x28(%ebp),%eax
    3062:	8b 55 0c             	mov    0xc(%ebp),%edx
    3065:	8b 4d e4             	mov    -0x1c(%ebp),%ecx
    3068:	89 47 30             	mov    %eax,0x30(%edi)
    306b:	8b 46 24             	mov    0x24(%esi),%eax
    306e:	89 57 2c             	mov    %edx,0x2c(%edi)
    3071:	89 4f 34             	mov    %ecx,0x34(%edi)
    3074:	85 c0                	test   %eax,%eax
    3076:	0f 84 0d 01 00 00    	je     3189 <block_get+0x4a9>
    307c:	8b 40 14             	mov    0x14(%eax),%eax
    307f:	0f af c8             	imul   %eax,%ecx
    3082:	f7 65 d8             	mull   -0x28(%ebp)
    3085:	01 ca                	add    %ecx,%edx
    3087:	89 47 38             	mov    %eax,0x38(%edi)
    308a:	8b 4d c8             	mov    -0x38(%ebp),%ecx
    308d:	8d 47 4c             	lea    0x4c(%edi),%eax
    3090:	89 57 3c             	mov    %edx,0x3c(%edi)
    3093:	89 44 24 04          	mov    %eax,0x4(%esp)
    3097:	89 0c 24             	mov    %ecx,(%esp)
    309a:	e8 61 73 01 00       	call   1a400 <hash_table_insert>
    309f:	89 3c 24             	mov    %edi,(%esp)
    30a2:	e8 99 7a 00 00       	call   ab40 <fibril_mutex_lock>
    30a7:	89 1c 24             	mov    %ebx,(%esp)
    30aa:	e8 b1 7b 00 00       	call   ac60 <fibril_mutex_unlock>
    30af:	f6 45 18 01          	testb  $0x1,0x18(%ebp)
    30b3:	74 1d                	je     30d2 <block_get+0x3f2>
    30b5:	31 c0                	xor    %eax,%eax
    30b7:	31 c9                	xor    %ecx,%ecx
    30b9:	89 3c 24             	mov    %edi,(%esp)
    30bc:	88 45 c0             	mov    %al,-0x40(%ebp)
    30bf:	89 4d c4             	mov    %ecx,-0x3c(%ebp)
    30c2:	e8 99 7b 00 00       	call   ac60 <fibril_mutex_unlock>
    30c7:	8b 4d c4             	mov    -0x3c(%ebp),%ecx
    30ca:	8a 45 c0             	mov    -0x40(%ebp),%al
    30cd:	e9 d9 fe ff ff       	jmp    2fab <block_get+0x2cb>
    30d2:	8b 53 14             	mov    0x14(%ebx),%edx
    30d5:	8b 4f 3c             	mov    0x3c(%edi),%ecx
    30d8:	8b 43 10             	mov    0x10(%ebx),%eax
    30db:	89 55 d0             	mov    %edx,-0x30(%ebp)
    30de:	8b 57 38             	mov    0x38(%edi),%edx
    30e1:	89 4d dc             	mov    %ecx,-0x24(%ebp)
    30e4:	89 44 24 14          	mov    %eax,0x14(%esp)
    30e8:	8b 4d d0             	mov    -0x30(%ebp),%ecx
    30eb:	89 55 d8             	mov    %edx,-0x28(%ebp)
    30ee:	8b 47 54             	mov    0x54(%edi),%eax
    30f1:	8b 55 d8             	mov    -0x28(%ebp),%edx
    30f4:	89 4c 24 0c          	mov    %ecx,0xc(%esp)
    30f8:	8b 4d dc             	mov    -0x24(%ebp),%ecx
    30fb:	89 44 24 10          	mov    %eax,0x10(%esp)
    30ff:	89 4c 24 08          	mov    %ecx,0x8(%esp)
    3103:	89 54 24 04          	mov    %edx,0x4(%esp)
    3107:	8b 46 10             	mov    0x10(%esi),%eax
    310a:	89 04 24             	mov    %eax,(%esp)
    310d:	e8 be 0b 00 00       	call   3cd0 <bd_read_blocks>
    3112:	89 c1                	mov    %eax,%ecx
    3114:	31 c0                	xor    %eax,%eax
    3116:	85 c9                	test   %ecx,%ecx
    3118:	74 9f                	je     30b9 <block_get+0x3d9>
    311a:	8b 46 08             	mov    0x8(%esi),%eax
    311d:	8b 55 dc             	mov    -0x24(%ebp),%edx
    3120:	89 44 24 14          	mov    %eax,0x14(%esp)
    3124:	89 54 24 10          	mov    %edx,0x10(%esp)
    3128:	8b 45 d8             	mov    -0x28(%ebp),%eax
    312b:	8b 55 d0             	mov    -0x30(%ebp),%edx
    312e:	89 4c 24 04          	mov    %ecx,0x4(%esp)
    3132:	89 54 24 08          	mov    %edx,0x8(%esp)
    3136:	89 44 24 0c          	mov    %eax,0xc(%esp)
    313a:	c7 04 24 5c 30 02 00 	movl   $0x2305c,(%esp)
    3141:	89 4d c4             	mov    %ecx,-0x3c(%ebp)
    3144:	e8 87 b9 00 00       	call   ead0 <printf>
    3149:	e8 72 b9 01 00       	call   1eac0 <stacktrace_print>
    314e:	c6 47 15 01          	movb   $0x1,0x15(%edi)
    3152:	b0 01                	mov    $0x1,%al
    3154:	8b 4d c4             	mov    -0x3c(%ebp),%ecx
    3157:	e9 5d ff ff ff       	jmp    30b9 <block_get+0x3d9>
    315c:	8b 43 1c             	mov    0x1c(%ebx),%eax
    315f:	89 f7                	mov    %esi,%edi
    3161:	40                   	inc    %eax
    3162:	8b 75 cc             	mov    -0x34(%ebp),%esi
    3165:	89 43 1c             	mov    %eax,0x1c(%ebx)
    3168:	e9 b6 fe ff ff       	jmp    3023 <block_get+0x343>
    316d:	c7 44 24 08 15 02 00 	movl   $0x215,0x8(%esp)
    3174:	00 
    3175:	c7 44 24 04 0c 30 02 	movl   $0x2300c,0x4(%esp)
    317c:	00 
    317d:	c7 04 24 52 30 02 00 	movl   $0x23052,(%esp)
    3184:	e8 d7 b9 01 00       	call   1eb60 <assert_abort>
    3189:	c7 44 24 08 96 03 00 	movl   $0x396,0x8(%esp)
    3190:	00 
    3191:	c7 44 24 04 0c 30 02 	movl   $0x2300c,0x4(%esp)
    3198:	00 
    3199:	c7 04 24 3c 30 02 00 	movl   $0x2303c,(%esp)
    31a0:	e8 bb b9 01 00       	call   1eb60 <assert_abort>
    31a5:	c7 44 24 08 81 01 00 	movl   $0x181,0x8(%esp)
    31ac:	00 
    31ad:	c7 44 24 04 0c 30 02 	movl   $0x2300c,0x4(%esp)
    31b4:	00 
    31b5:	c7 04 24 1b 30 02 00 	movl   $0x2301b,(%esp)
    31bc:	e8 9f b9 01 00       	call   1eb60 <assert_abort>
    31c1:	eb 0d                	jmp    31d0 <block_seqread>
    31c3:	90                   	nop
    31c4:	90                   	nop
    31c5:	90                   	nop
    31c6:	90                   	nop
    31c7:	90                   	nop
    31c8:	90                   	nop
    31c9:	90                   	nop
    31ca:	90                   	nop
    31cb:	90                   	nop
    31cc:	90                   	nop
    31cd:	90                   	nop
    31ce:	90                   	nop
    31cf:	90                   	nop

000031d0 <block_seqread>:
    31d0:	55                   	push   %ebp
    31d1:	89 e5                	mov    %esp,%ebp
    31d3:	57                   	push   %edi
    31d4:	56                   	push   %esi
    31d5:	53                   	push   %ebx
    31d6:	83 ec 3c             	sub    $0x3c,%esp
    31d9:	8b 5d 08             	mov    0x8(%ebp),%ebx
    31dc:	c7 04 24 40 5b 02 00 	movl   $0x25b40,(%esp)
    31e3:	e8 58 79 00 00       	call   ab40 <fibril_mutex_lock>
    31e8:	8b 0d 54 5b 02 00    	mov    0x25b54,%ecx
    31ee:	81 f9 50 5b 02 00    	cmp    $0x25b50,%ecx
    31f4:	75 19                	jne    320f <block_seqread+0x3f>
    31f6:	e9 45 01 00 00       	jmp    3340 <block_seqread+0x170>
    31fb:	90                   	nop
    31fc:	8d 74 26 00          	lea    0x0(%esi,%eiz,1),%esi
    3200:	8b 49 04             	mov    0x4(%ecx),%ecx
    3203:	81 f9 50 5b 02 00    	cmp    $0x25b50,%ecx
    3209:	0f 84 31 01 00 00    	je     3340 <block_seqread+0x170>
    320f:	3b 59 08             	cmp    0x8(%ecx),%ebx
    3212:	75 ec                	jne    3200 <block_seqread+0x30>
    3214:	c7 04 24 40 5b 02 00 	movl   $0x25b40,(%esp)
    321b:	89 4d d8             	mov    %ecx,-0x28(%ebp)
    321e:	e8 3d 7a 00 00       	call   ac60 <fibril_mutex_unlock>
    3223:	8b 4d d8             	mov    -0x28(%ebp),%ecx
    3226:	8b 5d 20             	mov    0x20(%ebp),%ebx
    3229:	8b 71 20             	mov    0x20(%ecx),%esi
    322c:	89 75 dc             	mov    %esi,-0x24(%ebp)
    322f:	85 db                	test   %ebx,%ebx
    3231:	0f 84 f9 00 00 00    	je     3330 <block_seqread+0x160>
    3237:	8b 7d 14             	mov    0x14(%ebp),%edi
    323a:	89 4d e0             	mov    %ecx,-0x20(%ebp)
    323d:	8b 5d 20             	mov    0x20(%ebp),%ebx
    3240:	c7 45 e4 00 00 00 00 	movl   $0x0,-0x1c(%ebp)
    3247:	8b 07                	mov    (%edi),%eax
    3249:	8b 4d 10             	mov    0x10(%ebp),%ecx
    324c:	eb 18                	jmp    3266 <block_seqread+0x96>
    324e:	66 90                	xchg   %ax,%ax
    3250:	89 c7                	mov    %eax,%edi
    3252:	29 f7                	sub    %esi,%edi
    3254:	0f 85 4f 01 00 00    	jne    33a9 <block_seqread+0x1d9>
    325a:	39 c6                	cmp    %eax,%esi
    325c:	74 5b                	je     32b9 <block_seqread+0xe9>
    325e:	85 db                	test   %ebx,%ebx
    3260:	0f 84 ca 00 00 00    	je     3330 <block_seqread+0x160>
    3266:	8b 31                	mov    (%ecx),%esi
    3268:	8d 14 33             	lea    (%ebx,%esi,1),%edx
    326b:	39 c2                	cmp    %eax,%edx
    326d:	73 e1                	jae    3250 <block_seqread+0x80>
    326f:	89 df                	mov    %ebx,%edi
    3271:	31 db                	xor    %ebx,%ebx
    3273:	8b 45 0c             	mov    0xc(%ebp),%eax
    3276:	8b 55 e4             	mov    -0x1c(%ebp),%edx
    3279:	01 c6                	add    %eax,%esi
    327b:	8b 45 1c             	mov    0x1c(%ebp),%eax
    327e:	01 d0                	add    %edx,%eax
    3280:	89 7c 24 08          	mov    %edi,0x8(%esp)
    3284:	89 74 24 04          	mov    %esi,0x4(%esp)
    3288:	89 04 24             	mov    %eax,(%esp)
    328b:	89 4d d8             	mov    %ecx,-0x28(%ebp)
    328e:	e8 7d 38 00 00       	call   6b10 <memcpy>
    3293:	8b 4d e4             	mov    -0x1c(%ebp),%ecx
    3296:	89 f8                	mov    %edi,%eax
    3298:	01 f9                	add    %edi,%ecx
    329a:	31 d2                	xor    %edx,%edx
    329c:	89 4d e4             	mov    %ecx,-0x1c(%ebp)
    329f:	8b 4d d8             	mov    -0x28(%ebp),%ecx
    32a2:	8b 31                	mov    (%ecx),%esi
    32a4:	01 fe                	add    %edi,%esi
    32a6:	8b 7d 18             	mov    0x18(%ebp),%edi
    32a9:	89 31                	mov    %esi,(%ecx)
    32ab:	01 07                	add    %eax,(%edi)
    32ad:	11 57 04             	adc    %edx,0x4(%edi)
    32b0:	8b 7d 14             	mov    0x14(%ebp),%edi
    32b3:	8b 07                	mov    (%edi),%eax
    32b5:	39 c6                	cmp    %eax,%esi
    32b7:	75 a5                	jne    325e <block_seqread+0x8e>
    32b9:	8b 7d 18             	mov    0x18(%ebp),%edi
    32bc:	8b 75 dc             	mov    -0x24(%ebp),%esi
    32bf:	89 74 24 08          	mov    %esi,0x8(%esp)
    32c3:	c7 44 24 0c 00 00 00 	movl   $0x0,0xc(%esp)
    32ca:	00 
    32cb:	8b 07                	mov    (%edi),%eax
    32cd:	8b 57 04             	mov    0x4(%edi),%edx
    32d0:	89 54 24 04          	mov    %edx,0x4(%esp)
    32d4:	89 04 24             	mov    %eax,(%esp)
    32d7:	89 4d d8             	mov    %ecx,-0x28(%ebp)
    32da:	e8 81 d7 01 00       	call   20a60 <__udivdi3>
    32df:	89 d7                	mov    %edx,%edi
    32e1:	8b 55 e0             	mov    -0x20(%ebp),%edx
    32e4:	89 c6                	mov    %eax,%esi
    32e6:	8b 42 20             	mov    0x20(%edx),%eax
    32e9:	c7 44 24 0c 01 00 00 	movl   $0x1,0xc(%esp)
    32f0:	00 
    32f1:	89 44 24 14          	mov    %eax,0x14(%esp)
    32f5:	8b 45 0c             	mov    0xc(%ebp),%eax
    32f8:	89 44 24 10          	mov    %eax,0x10(%esp)
    32fc:	89 74 24 04          	mov    %esi,0x4(%esp)
    3300:	89 7c 24 08          	mov    %edi,0x8(%esp)
    3304:	8b 42 10             	mov    0x10(%edx),%eax
    3307:	89 04 24             	mov    %eax,(%esp)
    330a:	e8 c1 09 00 00       	call   3cd0 <bd_read_blocks>
    330f:	8b 4d d8             	mov    -0x28(%ebp),%ecx
    3312:	85 c0                	test   %eax,%eax
    3314:	75 52                	jne    3368 <block_seqread+0x198>
    3316:	8b 75 14             	mov    0x14(%ebp),%esi
    3319:	8b 7d dc             	mov    -0x24(%ebp),%edi
    331c:	c7 01 00 00 00 00    	movl   $0x0,(%ecx)
    3322:	89 f8                	mov    %edi,%eax
    3324:	89 3e                	mov    %edi,(%esi)
    3326:	85 db                	test   %ebx,%ebx
    3328:	0f 85 38 ff ff ff    	jne    3266 <block_seqread+0x96>
    332e:	66 90                	xchg   %ax,%ax
    3330:	83 c4 3c             	add    $0x3c,%esp
    3333:	31 d2                	xor    %edx,%edx
    3335:	89 d0                	mov    %edx,%eax
    3337:	5b                   	pop    %ebx
    3338:	5e                   	pop    %esi
    3339:	5f                   	pop    %edi
    333a:	5d                   	pop    %ebp
    333b:	c3                   	ret    
    333c:	8d 74 26 00          	lea    0x0(%esi,%eiz,1),%esi
    3340:	c7 04 24 40 5b 02 00 	movl   $0x25b40,(%esp)
    3347:	e8 14 79 00 00       	call   ac60 <fibril_mutex_unlock>
    334c:	c7 44 24 08 9c 02 00 	movl   $0x29c,0x8(%esp)
    3353:	00 
    3354:	c7 44 24 04 0c 30 02 	movl   $0x2300c,0x4(%esp)
    335b:	00 
    335c:	c7 04 24 14 30 02 00 	movl   $0x23014,(%esp)
    3363:	e8 f8 b7 01 00       	call   1eb60 <assert_abort>
    3368:	8b 4d e0             	mov    -0x20(%ebp),%ecx
    336b:	89 c2                	mov    %eax,%edx
    336d:	8b 41 08             	mov    0x8(%ecx),%eax
    3370:	89 54 24 04          	mov    %edx,0x4(%esp)
    3374:	89 74 24 0c          	mov    %esi,0xc(%esp)
    3378:	89 7c 24 10          	mov    %edi,0x10(%esp)
    337c:	89 44 24 14          	mov    %eax,0x14(%esp)
    3380:	c7 44 24 08 01 00 00 	movl   $0x1,0x8(%esp)
    3387:	00 
    3388:	c7 04 24 5c 30 02 00 	movl   $0x2305c,(%esp)
    338f:	89 55 d8             	mov    %edx,-0x28(%ebp)
    3392:	e8 39 b7 00 00       	call   ead0 <printf>
    3397:	e8 24 b7 01 00       	call   1eac0 <stacktrace_print>
    339c:	8b 55 d8             	mov    -0x28(%ebp),%edx
    339f:	83 c4 3c             	add    $0x3c,%esp
    33a2:	89 d0                	mov    %edx,%eax
    33a4:	5b                   	pop    %ebx
    33a5:	5e                   	pop    %esi
    33a6:	5f                   	pop    %edi
    33a7:	5d                   	pop    %ebp
    33a8:	c3                   	ret    
    33a9:	29 fb                	sub    %edi,%ebx
    33ab:	e9 c3 fe ff ff       	jmp    3273 <block_seqread+0xa3>

000033b0 <block_read_direct>:
    33b0:	55                   	push   %ebp
    33b1:	89 e5                	mov    %esp,%ebp
    33b3:	57                   	push   %edi
    33b4:	56                   	push   %esi
    33b5:	53                   	push   %ebx
    33b6:	83 ec 3c             	sub    $0x3c,%esp
    33b9:	8b 45 08             	mov    0x8(%ebp),%eax
    33bc:	8b 75 0c             	mov    0xc(%ebp),%esi
    33bf:	c7 04 24 40 5b 02 00 	movl   $0x25b40,(%esp)
    33c6:	89 45 e4             	mov    %eax,-0x1c(%ebp)
    33c9:	8b 7d 10             	mov    0x10(%ebp),%edi
    33cc:	e8 6f 77 00 00       	call   ab40 <fibril_mutex_lock>
    33d1:	8b 1d 54 5b 02 00    	mov    0x25b54,%ebx
    33d7:	8b 45 e4             	mov    -0x1c(%ebp),%eax
    33da:	81 fb 50 5b 02 00    	cmp    $0x25b50,%ebx
    33e0:	75 15                	jne    33f7 <block_read_direct+0x47>
    33e2:	e9 91 00 00 00       	jmp    3478 <block_read_direct+0xc8>
    33e7:	90                   	nop
    33e8:	8b 5b 04             	mov    0x4(%ebx),%ebx
    33eb:	81 fb 50 5b 02 00    	cmp    $0x25b50,%ebx
    33f1:	0f 84 81 00 00 00    	je     3478 <block_read_direct+0xc8>
    33f7:	3b 43 08             	cmp    0x8(%ebx),%eax
    33fa:	75 ec                	jne    33e8 <block_read_direct+0x38>
    33fc:	c7 04 24 40 5b 02 00 	movl   $0x25b40,(%esp)
    3403:	e8 58 78 00 00       	call   ac60 <fibril_mutex_unlock>
    3408:	8b 53 20             	mov    0x20(%ebx),%edx
    340b:	8b 45 14             	mov    0x14(%ebp),%eax
    340e:	89 74 24 04          	mov    %esi,0x4(%esp)
    3412:	0f af c2             	imul   %edx,%eax
    3415:	8b 55 14             	mov    0x14(%ebp),%edx
    3418:	89 44 24 14          	mov    %eax,0x14(%esp)
    341c:	8b 45 18             	mov    0x18(%ebp),%eax
    341f:	89 54 24 0c          	mov    %edx,0xc(%esp)
    3423:	89 44 24 10          	mov    %eax,0x10(%esp)
    3427:	89 7c 24 08          	mov    %edi,0x8(%esp)
    342b:	8b 43 10             	mov    0x10(%ebx),%eax
    342e:	89 04 24             	mov    %eax,(%esp)
    3431:	e8 9a 08 00 00       	call   3cd0 <bd_read_blocks>
    3436:	89 c2                	mov    %eax,%edx
    3438:	85 c0                	test   %eax,%eax
    343a:	74 31                	je     346d <block_read_direct+0xbd>
    343c:	8b 43 08             	mov    0x8(%ebx),%eax
    343f:	89 54 24 04          	mov    %edx,0x4(%esp)
    3443:	89 44 24 14          	mov    %eax,0x14(%esp)
    3447:	8b 45 14             	mov    0x14(%ebp),%eax
    344a:	89 74 24 0c          	mov    %esi,0xc(%esp)
    344e:	89 7c 24 10          	mov    %edi,0x10(%esp)
    3452:	89 44 24 08          	mov    %eax,0x8(%esp)
    3456:	c7 04 24 5c 30 02 00 	movl   $0x2305c,(%esp)
    345d:	89 55 e4             	mov    %edx,-0x1c(%ebp)
    3460:	e8 6b b6 00 00       	call   ead0 <printf>
    3465:	e8 56 b6 01 00       	call   1eac0 <stacktrace_print>
    346a:	8b 55 e4             	mov    -0x1c(%ebp),%edx
    346d:	83 c4 3c             	add    $0x3c,%esp
    3470:	89 d0                	mov    %edx,%eax
    3472:	5b                   	pop    %ebx
    3473:	5e                   	pop    %esi
    3474:	5f                   	pop    %edi
    3475:	5d                   	pop    %ebp
    3476:	c3                   	ret    
    3477:	90                   	nop
    3478:	c7 04 24 40 5b 02 00 	movl   $0x25b40,(%esp)
    347f:	e8 dc 77 00 00       	call   ac60 <fibril_mutex_unlock>
    3484:	c7 44 24 08 d3 02 00 	movl   $0x2d3,0x8(%esp)
    348b:	00 
    348c:	c7 44 24 04 0c 30 02 	movl   $0x2300c,0x4(%esp)
    3493:	00 
    3494:	c7 04 24 14 30 02 00 	movl   $0x23014,(%esp)
    349b:	e8 c0 b6 01 00       	call   1eb60 <assert_abort>

000034a0 <block_write_direct>:
    34a0:	55                   	push   %ebp
    34a1:	89 e5                	mov    %esp,%ebp
    34a3:	57                   	push   %edi
    34a4:	56                   	push   %esi
    34a5:	53                   	push   %ebx
    34a6:	83 ec 3c             	sub    $0x3c,%esp
    34a9:	8b 45 08             	mov    0x8(%ebp),%eax
    34ac:	8b 75 0c             	mov    0xc(%ebp),%esi
    34af:	c7 04 24 40 5b 02 00 	movl   $0x25b40,(%esp)
    34b6:	89 45 e4             	mov    %eax,-0x1c(%ebp)
    34b9:	8b 7d 10             	mov    0x10(%ebp),%edi
    34bc:	e8 7f 76 00 00       	call   ab40 <fibril_mutex_lock>
    34c1:	8b 1d 54 5b 02 00    	mov    0x25b54,%ebx
    34c7:	8b 45 e4             	mov    -0x1c(%ebp),%eax
    34ca:	81 fb 50 5b 02 00    	cmp    $0x25b50,%ebx
    34d0:	75 15                	jne    34e7 <block_write_direct+0x47>
    34d2:	e9 91 00 00 00       	jmp    3568 <block_write_direct+0xc8>
    34d7:	90                   	nop
    34d8:	8b 5b 04             	mov    0x4(%ebx),%ebx
    34db:	81 fb 50 5b 02 00    	cmp    $0x25b50,%ebx
    34e1:	0f 84 81 00 00 00    	je     3568 <block_write_direct+0xc8>
    34e7:	3b 43 08             	cmp    0x8(%ebx),%eax
    34ea:	75 ec                	jne    34d8 <block_write_direct+0x38>
    34ec:	c7 04 24 40 5b 02 00 	movl   $0x25b40,(%esp)
    34f3:	e8 68 77 00 00       	call   ac60 <fibril_mutex_unlock>
    34f8:	8b 4b 20             	mov    0x20(%ebx),%ecx
    34fb:	8b 45 14             	mov    0x14(%ebp),%eax
    34fe:	8b 55 14             	mov    0x14(%ebp),%edx
    3501:	0f af c1             	imul   %ecx,%eax
    3504:	89 44 24 14          	mov    %eax,0x14(%esp)
    3508:	8b 45 18             	mov    0x18(%ebp),%eax
    350b:	89 54 24 0c          	mov    %edx,0xc(%esp)
    350f:	89 44 24 10          	mov    %eax,0x10(%esp)
    3513:	89 74 24 04          	mov    %esi,0x4(%esp)
    3517:	89 7c 24 08          	mov    %edi,0x8(%esp)
    351b:	8b 43 10             	mov    0x10(%ebx),%eax
    351e:	89 04 24             	mov    %eax,(%esp)
    3521:	e8 1a 09 00 00       	call   3e40 <bd_write_blocks>
    3526:	89 c2                	mov    %eax,%edx
    3528:	85 c0                	test   %eax,%eax
    352a:	74 31                	je     355d <block_write_direct+0xbd>
    352c:	8b 43 08             	mov    0x8(%ebx),%eax
    352f:	89 54 24 04          	mov    %edx,0x4(%esp)
    3533:	89 44 24 14          	mov    %eax,0x14(%esp)
    3537:	8b 45 14             	mov    0x14(%ebp),%eax
    353a:	89 74 24 0c          	mov    %esi,0xc(%esp)
    353e:	89 7c 24 10          	mov    %edi,0x10(%esp)
    3542:	89 44 24 08          	mov    %eax,0x8(%esp)
    3546:	c7 04 24 a8 30 02 00 	movl   $0x230a8,(%esp)
    354d:	89 55 e4             	mov    %edx,-0x1c(%ebp)
    3550:	e8 7b b5 00 00       	call   ead0 <printf>
    3555:	e8 66 b5 01 00       	call   1eac0 <stacktrace_print>
    355a:	8b 55 e4             	mov    -0x1c(%ebp),%edx
    355d:	83 c4 3c             	add    $0x3c,%esp
    3560:	89 d0                	mov    %edx,%eax
    3562:	5b                   	pop    %ebx
    3563:	5e                   	pop    %esi
    3564:	5f                   	pop    %edi
    3565:	5d                   	pop    %ebp
    3566:	c3                   	ret    
    3567:	90                   	nop
    3568:	c7 04 24 40 5b 02 00 	movl   $0x25b40,(%esp)
    356f:	e8 ec 76 00 00       	call   ac60 <fibril_mutex_unlock>
    3574:	c7 44 24 08 e7 02 00 	movl   $0x2e7,0x8(%esp)
    357b:	00 
    357c:	c7 44 24 04 0c 30 02 	movl   $0x2300c,0x4(%esp)
    3583:	00 
    3584:	c7 04 24 14 30 02 00 	movl   $0x23014,(%esp)
    358b:	e8 d0 b5 01 00       	call   1eb60 <assert_abort>

00003590 <block_get_bsize>:
    3590:	55                   	push   %ebp
    3591:	89 e5                	mov    %esp,%ebp
    3593:	57                   	push   %edi
    3594:	56                   	push   %esi
    3595:	53                   	push   %ebx
    3596:	83 ec 1c             	sub    $0x1c,%esp
    3599:	8b 75 08             	mov    0x8(%ebp),%esi
    359c:	8b 7d 0c             	mov    0xc(%ebp),%edi
    359f:	c7 04 24 40 5b 02 00 	movl   $0x25b40,(%esp)
    35a6:	e8 95 75 00 00       	call   ab40 <fibril_mutex_lock>
    35ab:	8b 1d 54 5b 02 00    	mov    0x25b54,%ebx
    35b1:	81 fb 50 5b 02 00    	cmp    $0x25b50,%ebx
    35b7:	75 12                	jne    35cb <block_get_bsize+0x3b>
    35b9:	eb 3d                	jmp    35f8 <block_get_bsize+0x68>
    35bb:	90                   	nop
    35bc:	8d 74 26 00          	lea    0x0(%esi,%eiz,1),%esi
    35c0:	8b 5b 04             	mov    0x4(%ebx),%ebx
    35c3:	81 fb 50 5b 02 00    	cmp    $0x25b50,%ebx
    35c9:	74 2d                	je     35f8 <block_get_bsize+0x68>
    35cb:	3b 73 08             	cmp    0x8(%ebx),%esi
    35ce:	75 f0                	jne    35c0 <block_get_bsize+0x30>
    35d0:	c7 04 24 40 5b 02 00 	movl   $0x25b40,(%esp)
    35d7:	e8 84 76 00 00       	call   ac60 <fibril_mutex_unlock>
    35dc:	89 7d 0c             	mov    %edi,0xc(%ebp)
    35df:	8b 43 10             	mov    0x10(%ebx),%eax
    35e2:	89 45 08             	mov    %eax,0x8(%ebp)
    35e5:	83 c4 1c             	add    $0x1c,%esp
    35e8:	5b                   	pop    %ebx
    35e9:	5e                   	pop    %esi
    35ea:	5f                   	pop    %edi
    35eb:	5d                   	pop    %ebp
    35ec:	e9 ff 08 00 00       	jmp    3ef0 <bd_get_block_size>
    35f1:	8d b4 26 00 00 00 00 	lea    0x0(%esi,%eiz,1),%esi
    35f8:	c7 04 24 40 5b 02 00 	movl   $0x25b40,(%esp)
    35ff:	e8 5c 76 00 00       	call   ac60 <fibril_mutex_unlock>
    3604:	c7 44 24 08 f8 02 00 	movl   $0x2f8,0x8(%esp)
    360b:	00 
    360c:	c7 44 24 04 0c 30 02 	movl   $0x2300c,0x4(%esp)
    3613:	00 
    3614:	c7 04 24 14 30 02 00 	movl   $0x23014,(%esp)
    361b:	e8 40 b5 01 00       	call   1eb60 <assert_abort>

00003620 <block_get_nblocks>:
    3620:	55                   	push   %ebp
    3621:	89 e5                	mov    %esp,%ebp
    3623:	57                   	push   %edi
    3624:	56                   	push   %esi
    3625:	53                   	push   %ebx
    3626:	83 ec 1c             	sub    $0x1c,%esp
    3629:	8b 75 08             	mov    0x8(%ebp),%esi
    362c:	8b 7d 0c             	mov    0xc(%ebp),%edi
    362f:	c7 04 24 40 5b 02 00 	movl   $0x25b40,(%esp)
    3636:	e8 05 75 00 00       	call   ab40 <fibril_mutex_lock>
    363b:	8b 1d 54 5b 02 00    	mov    0x25b54,%ebx
    3641:	81 fb 50 5b 02 00    	cmp    $0x25b50,%ebx
    3647:	75 12                	jne    365b <block_get_nblocks+0x3b>
    3649:	eb 3d                	jmp    3688 <block_get_nblocks+0x68>
    364b:	90                   	nop
    364c:	8d 74 26 00          	lea    0x0(%esi,%eiz,1),%esi
    3650:	8b 5b 04             	mov    0x4(%ebx),%ebx
    3653:	81 fb 50 5b 02 00    	cmp    $0x25b50,%ebx
    3659:	74 2d                	je     3688 <block_get_nblocks+0x68>
    365b:	3b 73 08             	cmp    0x8(%ebx),%esi
    365e:	75 f0                	jne    3650 <block_get_nblocks+0x30>
    3660:	c7 04 24 40 5b 02 00 	movl   $0x25b40,(%esp)
    3667:	e8 f4 75 00 00       	call   ac60 <fibril_mutex_unlock>
    366c:	89 7d 0c             	mov    %edi,0xc(%ebp)
    366f:	8b 43 10             	mov    0x10(%ebx),%eax
    3672:	89 45 08             	mov    %eax,0x8(%ebp)
    3675:	83 c4 1c             	add    $0x1c,%esp
    3678:	5b                   	pop    %ebx
    3679:	5e                   	pop    %esi
    367a:	5f                   	pop    %edi
    367b:	5d                   	pop    %ebp
    367c:	e9 ff 08 00 00       	jmp    3f80 <bd_get_num_blocks>
    3681:	8d b4 26 00 00 00 00 	lea    0x0(%esi,%eiz,1),%esi
    3688:	c7 04 24 40 5b 02 00 	movl   $0x25b40,(%esp)
    368f:	e8 cc 75 00 00       	call   ac60 <fibril_mutex_unlock>
    3694:	c7 44 24 08 07 03 00 	movl   $0x307,0x8(%esp)
    369b:	00 
    369c:	c7 44 24 04 0c 30 02 	movl   $0x2300c,0x4(%esp)
    36a3:	00 
    36a4:	c7 04 24 14 30 02 00 	movl   $0x23014,(%esp)
    36ab:	e8 b0 b4 01 00       	call   1eb60 <assert_abort>

000036b0 <block_read_bytes_direct>:
    36b0:	55                   	push   %ebp
    36b1:	89 e5                	mov    %esp,%ebp
    36b3:	57                   	push   %edi
    36b4:	56                   	push   %esi
    36b5:	53                   	push   %ebx
    36b6:	83 ec 5c             	sub    $0x5c,%esp
    36b9:	8b 45 0c             	mov    0xc(%ebp),%eax
    36bc:	8b 55 10             	mov    0x10(%ebp),%edx
    36bf:	c7 04 24 40 5b 02 00 	movl   $0x25b40,(%esp)
    36c6:	8b 5d 08             	mov    0x8(%ebp),%ebx
    36c9:	89 45 c8             	mov    %eax,-0x38(%ebp)
    36cc:	89 55 cc             	mov    %edx,-0x34(%ebp)
    36cf:	e8 6c 74 00 00       	call   ab40 <fibril_mutex_lock>
    36d4:	8b 35 54 5b 02 00    	mov    0x25b54,%esi
    36da:	81 fe 50 5b 02 00    	cmp    $0x25b50,%esi
    36e0:	75 11                	jne    36f3 <block_read_bytes_direct+0x43>
    36e2:	eb 44                	jmp    3728 <block_read_bytes_direct+0x78>
    36e4:	8d 74 26 00          	lea    0x0(%esi,%eiz,1),%esi
    36e8:	8b 76 04             	mov    0x4(%esi),%esi
    36eb:	81 fe 50 5b 02 00    	cmp    $0x25b50,%esi
    36f1:	74 35                	je     3728 <block_read_bytes_direct+0x78>
    36f3:	3b 5e 08             	cmp    0x8(%esi),%ebx
    36f6:	75 f0                	jne    36e8 <block_read_bytes_direct+0x38>
    36f8:	c7 04 24 40 5b 02 00 	movl   $0x25b40,(%esp)
    36ff:	e8 5c 75 00 00       	call   ac60 <fibril_mutex_unlock>
    3704:	8d 45 e4             	lea    -0x1c(%ebp),%eax
    3707:	89 44 24 04          	mov    %eax,0x4(%esp)
    370b:	8b 46 10             	mov    0x10(%esi),%eax
    370e:	89 04 24             	mov    %eax,(%esp)
    3711:	e8 da 07 00 00       	call   3ef0 <bd_get_block_size>
    3716:	89 c1                	mov    %eax,%ecx
    3718:	85 c0                	test   %eax,%eax
    371a:	74 34                	je     3750 <block_read_bytes_direct+0xa0>
    371c:	83 c4 5c             	add    $0x5c,%esp
    371f:	89 c8                	mov    %ecx,%eax
    3721:	5b                   	pop    %ebx
    3722:	5e                   	pop    %esi
    3723:	5f                   	pop    %edi
    3724:	5d                   	pop    %ebp
    3725:	c3                   	ret    
    3726:	66 90                	xchg   %ax,%ax
    3728:	c7 04 24 40 5b 02 00 	movl   $0x25b40,(%esp)
    372f:	e8 2c 75 00 00       	call   ac60 <fibril_mutex_unlock>
    3734:	c7 44 24 08 f8 02 00 	movl   $0x2f8,0x8(%esp)
    373b:	00 
    373c:	c7 44 24 04 0c 30 02 	movl   $0x2300c,0x4(%esp)
    3743:	00 
    3744:	c7 04 24 14 30 02 00 	movl   $0x23014,(%esp)
    374b:	e8 10 b4 01 00       	call   1eb60 <assert_abort>
    3750:	8b 4d e4             	mov    -0x1c(%ebp),%ecx
    3753:	8b 45 c8             	mov    -0x38(%ebp),%eax
    3756:	8b 55 cc             	mov    -0x34(%ebp),%edx
    3759:	89 4c 24 08          	mov    %ecx,0x8(%esp)
    375d:	c7 44 24 0c 00 00 00 	movl   $0x0,0xc(%esp)
    3764:	00 
    3765:	89 04 24             	mov    %eax,(%esp)
    3768:	89 54 24 04          	mov    %edx,0x4(%esp)
    376c:	89 4d c4             	mov    %ecx,-0x3c(%ebp)
    376f:	e8 ec d2 01 00       	call   20a60 <__udivdi3>
    3774:	be 01 00 00 00       	mov    $0x1,%esi
    3779:	29 c6                	sub    %eax,%esi
    377b:	8b 4d 14             	mov    0x14(%ebp),%ecx
    377e:	89 c7                	mov    %eax,%edi
    3780:	8b 45 c8             	mov    -0x38(%ebp),%eax
    3783:	89 4d d0             	mov    %ecx,-0x30(%ebp)
    3786:	89 55 c0             	mov    %edx,-0x40(%ebp)
    3789:	83 c0 ff             	add    $0xffffffff,%eax
    378c:	8b 55 cc             	mov    -0x34(%ebp),%edx
    378f:	83 d2 ff             	adc    $0xffffffff,%edx
    3792:	03 45 d0             	add    -0x30(%ebp),%eax
    3795:	c7 45 d4 00 00 00 00 	movl   $0x0,-0x2c(%ebp)
    379c:	8b 4d c4             	mov    -0x3c(%ebp),%ecx
    379f:	13 55 d4             	adc    -0x2c(%ebp),%edx
    37a2:	89 4c 24 08          	mov    %ecx,0x8(%esp)
    37a6:	c7 44 24 0c 00 00 00 	movl   $0x0,0xc(%esp)
    37ad:	00 
    37ae:	89 04 24             	mov    %eax,(%esp)
    37b1:	89 54 24 04          	mov    %edx,0x4(%esp)
    37b5:	e8 a6 d2 01 00       	call   20a60 <__udivdi3>
    37ba:	01 c6                	add    %eax,%esi
    37bc:	8b 45 c4             	mov    -0x3c(%ebp),%eax
    37bf:	0f af c6             	imul   %esi,%eax
    37c2:	89 04 24             	mov    %eax,(%esp)
    37c5:	e8 86 ff 00 00       	call   13750 <malloc>
    37ca:	89 45 d0             	mov    %eax,-0x30(%ebp)
    37cd:	85 c0                	test   %eax,%eax
    37cf:	0f 84 59 01 00 00    	je     392e <block_read_bytes_direct+0x27e>
    37d5:	c7 04 24 40 5b 02 00 	movl   $0x25b40,(%esp)
    37dc:	e8 5f 73 00 00       	call   ab40 <fibril_mutex_lock>
    37e1:	8b 15 54 5b 02 00    	mov    0x25b54,%edx
    37e7:	81 fa 50 5b 02 00    	cmp    $0x25b50,%edx
    37ed:	75 18                	jne    3807 <block_read_bytes_direct+0x157>
    37ef:	e9 cc 00 00 00       	jmp    38c0 <block_read_bytes_direct+0x210>
    37f4:	8d 74 26 00          	lea    0x0(%esi,%eiz,1),%esi
    37f8:	8b 52 04             	mov    0x4(%edx),%edx
    37fb:	81 fa 50 5b 02 00    	cmp    $0x25b50,%edx
    3801:	0f 84 b9 00 00 00    	je     38c0 <block_read_bytes_direct+0x210>
    3807:	3b 5a 08             	cmp    0x8(%edx),%ebx
    380a:	75 ec                	jne    37f8 <block_read_bytes_direct+0x148>
    380c:	c7 04 24 40 5b 02 00 	movl   $0x25b40,(%esp)
    3813:	89 55 bc             	mov    %edx,-0x44(%ebp)
    3816:	e8 45 74 00 00       	call   ac60 <fibril_mutex_unlock>
    381b:	8b 55 bc             	mov    -0x44(%ebp),%edx
    381e:	8b 42 20             	mov    0x20(%edx),%eax
    3821:	8b 4d c0             	mov    -0x40(%ebp),%ecx
    3824:	0f af c6             	imul   %esi,%eax
    3827:	89 44 24 14          	mov    %eax,0x14(%esp)
    382b:	8b 45 d0             	mov    -0x30(%ebp),%eax
    382e:	89 4c 24 08          	mov    %ecx,0x8(%esp)
    3832:	89 44 24 10          	mov    %eax,0x10(%esp)
    3836:	89 74 24 0c          	mov    %esi,0xc(%esp)
    383a:	89 7c 24 04          	mov    %edi,0x4(%esp)
    383e:	8b 42 10             	mov    0x10(%edx),%eax
    3841:	89 04 24             	mov    %eax,(%esp)
    3844:	e8 87 04 00 00       	call   3cd0 <bd_read_blocks>
    3849:	8b 55 bc             	mov    -0x44(%ebp),%edx
    384c:	89 c1                	mov    %eax,%ecx
    384e:	85 c0                	test   %eax,%eax
    3850:	0f 85 92 00 00 00    	jne    38e8 <block_read_bytes_direct+0x238>
    3856:	8b 55 14             	mov    0x14(%ebp),%edx
    3859:	8b 45 c4             	mov    -0x3c(%ebp),%eax
    385c:	89 54 24 08          	mov    %edx,0x8(%esp)
    3860:	8b 55 cc             	mov    -0x34(%ebp),%edx
    3863:	8b 74 24 08          	mov    0x8(%esp),%esi
    3867:	89 44 24 08          	mov    %eax,0x8(%esp)
    386b:	8b 45 c8             	mov    -0x38(%ebp),%eax
    386e:	8b 7c 24 0c          	mov    0xc(%esp),%edi
    3872:	89 04 24             	mov    %eax,(%esp)
    3875:	c7 44 24 0c 00 00 00 	movl   $0x0,0xc(%esp)
    387c:	00 
    387d:	89 54 24 04          	mov    %edx,0x4(%esp)
    3881:	89 4d bc             	mov    %ecx,-0x44(%ebp)
    3884:	e8 57 d4 01 00       	call   20ce0 <__umoddi3>
    3889:	8b 5d d0             	mov    -0x30(%ebp),%ebx
    388c:	01 d8                	add    %ebx,%eax
    388e:	89 74 24 08          	mov    %esi,0x8(%esp)
    3892:	89 44 24 04          	mov    %eax,0x4(%esp)
    3896:	8b 45 18             	mov    0x18(%ebp),%eax
    3899:	89 04 24             	mov    %eax,(%esp)
    389c:	89 7c 24 0c          	mov    %edi,0xc(%esp)
    38a0:	e8 6b 32 00 00       	call   6b10 <memcpy>
    38a5:	8b 45 d0             	mov    -0x30(%ebp),%eax
    38a8:	89 04 24             	mov    %eax,(%esp)
    38ab:	e8 b0 ff 00 00       	call   13860 <free>
    38b0:	8b 4d bc             	mov    -0x44(%ebp),%ecx
    38b3:	83 c4 5c             	add    $0x5c,%esp
    38b6:	89 c8                	mov    %ecx,%eax
    38b8:	5b                   	pop    %ebx
    38b9:	5e                   	pop    %esi
    38ba:	5f                   	pop    %edi
    38bb:	5d                   	pop    %ebp
    38bc:	c3                   	ret    
    38bd:	8d 76 00             	lea    0x0(%esi),%esi
    38c0:	c7 04 24 40 5b 02 00 	movl   $0x25b40,(%esp)
    38c7:	e8 94 73 00 00       	call   ac60 <fibril_mutex_unlock>
    38cc:	c7 44 24 08 d3 02 00 	movl   $0x2d3,0x8(%esp)
    38d3:	00 
    38d4:	c7 44 24 04 0c 30 02 	movl   $0x2300c,0x4(%esp)
    38db:	00 
    38dc:	c7 04 24 14 30 02 00 	movl   $0x23014,(%esp)
    38e3:	e8 78 b2 01 00       	call   1eb60 <assert_abort>
    38e8:	8b 42 08             	mov    0x8(%edx),%eax
    38eb:	89 4c 24 04          	mov    %ecx,0x4(%esp)
    38ef:	89 44 24 14          	mov    %eax,0x14(%esp)
    38f3:	8b 45 c0             	mov    -0x40(%ebp),%eax
    38f6:	89 7c 24 0c          	mov    %edi,0xc(%esp)
    38fa:	89 74 24 08          	mov    %esi,0x8(%esp)
    38fe:	89 44 24 10          	mov    %eax,0x10(%esp)
    3902:	c7 04 24 5c 30 02 00 	movl   $0x2305c,(%esp)
    3909:	89 4d bc             	mov    %ecx,-0x44(%ebp)
    390c:	e8 bf b1 00 00       	call   ead0 <printf>
    3911:	e8 aa b1 01 00       	call   1eac0 <stacktrace_print>
    3916:	8b 45 d0             	mov    -0x30(%ebp),%eax
    3919:	89 04 24             	mov    %eax,(%esp)
    391c:	e8 3f ff 00 00       	call   13860 <free>
    3921:	8b 4d bc             	mov    -0x44(%ebp),%ecx
    3924:	83 c4 5c             	add    $0x5c,%esp
    3927:	89 c8                	mov    %ecx,%eax
    3929:	5b                   	pop    %ebx
    392a:	5e                   	pop    %esi
    392b:	5f                   	pop    %edi
    392c:	5d                   	pop    %ebp
    392d:	c3                   	ret    
    392e:	b9 fe ff ff ff       	mov    $0xfffffffe,%ecx
    3933:	e9 e4 fd ff ff       	jmp    371c <block_read_bytes_direct+0x6c>
    3938:	90                   	nop
    3939:	8d b4 26 00 00 00 00 	lea    0x0(%esi,%eiz,1),%esi

00003940 <block_get_toc>:
    3940:	55                   	push   %ebp
    3941:	89 e5                	mov    %esp,%ebp
    3943:	57                   	push   %edi
    3944:	56                   	push   %esi
    3945:	53                   	push   %ebx
    3946:	83 ec 1c             	sub    $0x1c,%esp
    3949:	8b 75 08             	mov    0x8(%ebp),%esi
    394c:	c7 04 24 40 5b 02 00 	movl   $0x25b40,(%esp)
    3953:	0f b6 7d 0c          	movzbl 0xc(%ebp),%edi
    3957:	e8 e4 71 00 00       	call   ab40 <fibril_mutex_lock>
    395c:	8b 1d 54 5b 02 00    	mov    0x25b54,%ebx
    3962:	81 fb 50 5b 02 00    	cmp    $0x25b50,%ebx
    3968:	75 11                	jne    397b <block_get_toc+0x3b>
    396a:	eb 64                	jmp    39d0 <block_get_toc+0x90>
    396c:	8d 74 26 00          	lea    0x0(%esi,%eiz,1),%esi
    3970:	8b 5b 04             	mov    0x4(%ebx),%ebx
    3973:	81 fb 50 5b 02 00    	cmp    $0x25b50,%ebx
    3979:	74 55                	je     39d0 <block_get_toc+0x90>
    397b:	3b 73 08             	cmp    0x8(%ebx),%esi
    397e:	75 f0                	jne    3970 <block_get_toc+0x30>
    3980:	c7 04 24 40 5b 02 00 	movl   $0x25b40,(%esp)
    3987:	e8 d4 72 00 00       	call   ac60 <fibril_mutex_unlock>
    398c:	c7 04 24 0c 00 00 00 	movl   $0xc,(%esp)
    3993:	e8 b8 fd 00 00       	call   13750 <malloc>
    3998:	89 c6                	mov    %eax,%esi
    399a:	85 c0                	test   %eax,%eax
    399c:	74 25                	je     39c3 <block_get_toc+0x83>
    399e:	81 e7 ff 00 00 00    	and    $0xff,%edi
    39a4:	c7 44 24 0c 0c 00 00 	movl   $0xc,0xc(%esp)
    39ab:	00 
    39ac:	89 44 24 08          	mov    %eax,0x8(%esp)
    39b0:	89 7c 24 04          	mov    %edi,0x4(%esp)
    39b4:	8b 43 10             	mov    0x10(%ebx),%eax
    39b7:	89 04 24             	mov    %eax,(%esp)
    39ba:	e8 c1 03 00 00       	call   3d80 <bd_read_toc>
    39bf:	85 c0                	test   %eax,%eax
    39c1:	75 35                	jne    39f8 <block_get_toc+0xb8>
    39c3:	83 c4 1c             	add    $0x1c,%esp
    39c6:	89 f0                	mov    %esi,%eax
    39c8:	5b                   	pop    %ebx
    39c9:	5e                   	pop    %esi
    39ca:	5f                   	pop    %edi
    39cb:	5d                   	pop    %ebp
    39cc:	c3                   	ret    
    39cd:	8d 76 00             	lea    0x0(%esi),%esi
    39d0:	c7 04 24 40 5b 02 00 	movl   $0x25b40,(%esp)
    39d7:	e8 84 72 00 00       	call   ac60 <fibril_mutex_unlock>
    39dc:	c7 44 24 08 4f 03 00 	movl   $0x34f,0x8(%esp)
    39e3:	00 
    39e4:	c7 44 24 04 0c 30 02 	movl   $0x2300c,0x4(%esp)
    39eb:	00 
    39ec:	c7 04 24 14 30 02 00 	movl   $0x23014,(%esp)
    39f3:	e8 68 b1 01 00       	call   1eb60 <assert_abort>
    39f8:	89 34 24             	mov    %esi,(%esp)
    39fb:	31 f6                	xor    %esi,%esi
    39fd:	e8 5e fe 00 00       	call   13860 <free>
    3a02:	eb bf                	jmp    39c3 <block_get_toc+0x83>

00003a04 <write_blocks.part.1>:
    3a04:	55                   	push   %ebp
    3a05:	89 e5                	mov    %esp,%ebp
    3a07:	83 ec 18             	sub    $0x18,%esp
    3a0a:	c7 44 24 08 85 03 00 	movl   $0x385,0x8(%esp)
    3a11:	00 
    3a12:	c7 44 24 04 0c 30 02 	movl   $0x2300c,0x4(%esp)
    3a19:	00 
    3a1a:	c7 04 24 14 30 02 00 	movl   $0x23014,(%esp)
    3a21:	e8 3a b1 01 00       	call   1eb60 <assert_abort>

00003a26 <read_blocks.part.2>:
    3a26:	55                   	push   %ebp
    3a27:	89 e5                	mov    %esp,%ebp
    3a29:	83 ec 18             	sub    $0x18,%esp
    3a2c:	c7 44 24 08 6a 03 00 	movl   $0x36a,0x8(%esp)
    3a33:	00 
    3a34:	c7 44 24 04 0c 30 02 	movl   $0x2300c,0x4(%esp)
    3a3b:	00 
    3a3c:	c7 04 24 14 30 02 00 	movl   $0x23014,(%esp)
    3a43:	e8 18 b1 01 00       	call   1eb60 <assert_abort>
    3a48:	66 90                	xchg   %ax,%ax
    3a4a:	66 90                	xchg   %ax,%ax
    3a4c:	66 90                	xchg   %ax,%ax
    3a4e:	66 90                	xchg   %ax,%ax

00003a50 <exit>:
    3a50:	55                   	push   %ebp
    3a51:	89 e5                	mov    %esp,%ebp
    3a53:	83 ec 28             	sub    $0x28,%esp
    3a56:	80 3d 90 5d 02 00 00 	cmpb   $0x0,0x25d90
    3a5d:	75 3f                	jne    3a9e <exit+0x4e>
    3a5f:	c7 44 24 18 0a 00 00 	movl   $0xa,0x18(%esp)
    3a66:	00 
    3a67:	c7 44 24 14 00 00 00 	movl   $0x0,0x14(%esp)
    3a6e:	00 
    3a6f:	c7 44 24 10 00 00 00 	movl   $0x0,0x10(%esp)
    3a76:	00 
    3a77:	c7 44 24 0c 00 00 00 	movl   $0x0,0xc(%esp)
    3a7e:	00 
    3a7f:	c7 44 24 08 00 00 00 	movl   $0x0,0x8(%esp)
    3a86:	00 
    3a87:	c7 44 24 04 00 00 00 	movl   $0x0,0x4(%esp)
    3a8e:	00 
    3a8f:	c7 04 24 00 00 00 00 	movl   $0x0,(%esp)
    3a96:	ff 15 4c 5d 02 00    	call   *0x25d4c
    3a9c:	eb fe                	jmp    3a9c <exit+0x4c>
    3a9e:	e8 cd 8e 00 00       	call   c970 <__stdio_done>
    3aa3:	8b 45 08             	mov    0x8(%ebp),%eax
    3aa6:	89 04 24             	mov    %eax,(%esp)
    3aa9:	e8 e2 89 00 00       	call   c490 <task_retval>
    3aae:	65 a1 00 00 00 00    	mov    %gs:0x0,%eax
    3ab4:	8b 40 04             	mov    0x4(%eax),%eax
    3ab7:	89 04 24             	mov    %eax,(%esp)
    3aba:	e8 c1 67 00 00       	call   a280 <fibril_teardown>
    3abf:	eb 9e                	jmp    3a5f <exit+0xf>
    3ac1:	eb 0d                	jmp    3ad0 <abort>
    3ac3:	90                   	nop
    3ac4:	90                   	nop
    3ac5:	90                   	nop
    3ac6:	90                   	nop
    3ac7:	90                   	nop
    3ac8:	90                   	nop
    3ac9:	90                   	nop
    3aca:	90                   	nop
    3acb:	90                   	nop
    3acc:	90                   	nop
    3acd:	90                   	nop
    3ace:	90                   	nop
    3acf:	90                   	nop

00003ad0 <abort>:
    3ad0:	55                   	push   %ebp
    3ad1:	89 e5                	mov    %esp,%ebp
    3ad3:	83 ec 28             	sub    $0x28,%esp
    3ad6:	c7 44 24 18 0a 00 00 	movl   $0xa,0x18(%esp)
    3add:	00 
    3ade:	c7 44 24 14 00 00 00 	movl   $0x0,0x14(%esp)
    3ae5:	00 
    3ae6:	c7 44 24 10 00 00 00 	movl   $0x0,0x10(%esp)
    3aed:	00 
    3aee:	c7 44 24 0c 00 00 00 	movl   $0x0,0xc(%esp)
    3af5:	00 
    3af6:	c7 44 24 08 00 00 00 	movl   $0x0,0x8(%esp)
    3afd:	00 
    3afe:	c7 44 24 04 00 00 00 	movl   $0x0,0x4(%esp)
    3b05:	00 
    3b06:	c7 04 24 01 00 00 00 	movl   $0x1,(%esp)
    3b0d:	ff 15 4c 5d 02 00    	call   *0x25d4c
    3b13:	eb fe                	jmp    3b13 <abort+0x43>
    3b15:	8d 74 26 00          	lea    0x0(%esi,%eiz,1),%esi
    3b19:	8d bc 27 00 00 00 00 	lea    0x0(%edi,%eiz,1),%edi

00003b20 <__main>:
    3b20:	55                   	push   %ebp
    3b21:	89 e5                	mov    %esp,%ebp
    3b23:	57                   	push   %edi
    3b24:	56                   	push   %esi
    3b25:	53                   	push   %ebx
    3b26:	83 ec 2c             	sub    $0x2c,%esp
    3b29:	8b 5d 08             	mov    0x8(%ebp),%ebx
    3b2c:	e8 1f fb 00 00       	call   13650 <__malloc_init>
    3b31:	e8 2a 1a 01 00       	call   15560 <__async_init>
    3b36:	e8 c5 66 00 00       	call   a200 <fibril_setup>
    3b3b:	85 c0                	test   %eax,%eax
    3b3d:	0f 84 82 00 00 00    	je     3bc5 <__main+0xa5>
    3b43:	c7 44 24 18 01 00 00 	movl   $0x1,0x18(%esp)
    3b4a:	00 
    3b4b:	c7 44 24 14 00 00 00 	movl   $0x0,0x14(%esp)
    3b52:	00 
    3b53:	c7 44 24 10 00 00 00 	movl   $0x0,0x10(%esp)
    3b5a:	00 
    3b5b:	c7 44 24 0c 00 00 00 	movl   $0x0,0xc(%esp)
    3b62:	00 
    3b63:	c7 44 24 08 00 00 00 	movl   $0x0,0x8(%esp)
    3b6a:	00 
    3b6b:	c7 44 24 04 00 00 00 	movl   $0x0,0x4(%esp)
    3b72:	00 
    3b73:	8b 40 30             	mov    0x30(%eax),%eax
    3b76:	89 04 24             	mov    %eax,(%esp)
    3b79:	ff 15 4c 5d 02 00    	call   *0x25d4c
    3b7f:	89 1d 80 5d 02 00    	mov    %ebx,0x25d80
    3b85:	c6 05 90 5d 02 00 01 	movb   $0x1,0x25d90
    3b8c:	85 db                	test   %ebx,%ebx
    3b8e:	74 3a                	je     3bca <__main+0xaa>
    3b90:	8b 43 10             	mov    0x10(%ebx),%eax
    3b93:	8b 73 08             	mov    0x8(%ebx),%esi
    3b96:	8b 7b 0c             	mov    0xc(%ebx),%edi
    3b99:	89 04 24             	mov    %eax,(%esp)
    3b9c:	e8 3f 8b 00 00       	call   c6e0 <__stdio_init>
    3ba1:	a1 80 5d 02 00       	mov    0x25d80,%eax
    3ba6:	8b 40 04             	mov    0x4(%eax),%eax
    3ba9:	89 04 24             	mov    %eax,(%esp)
    3bac:	e8 3f a3 01 00       	call   1def0 <chdir>
    3bb1:	89 7c 24 04          	mov    %edi,0x4(%esp)
    3bb5:	89 34 24             	mov    %esi,(%esp)
    3bb8:	e8 03 d8 ff ff       	call   13c0 <main>
    3bbd:	89 04 24             	mov    %eax,(%esp)
    3bc0:	e8 8b fe ff ff       	call   3a50 <exit>
    3bc5:	e8 06 ff ff ff       	call   3ad0 <abort>
    3bca:	c7 04 24 00 00 00 00 	movl   $0x0,(%esp)
    3bd1:	31 ff                	xor    %edi,%edi
    3bd3:	e8 08 8b 00 00       	call   c6e0 <__stdio_init>
    3bd8:	31 f6                	xor    %esi,%esi
    3bda:	eb d5                	jmp    3bb1 <__main+0x91>
    3bdc:	66 90                	xchg   %ax,%ax
    3bde:	66 90                	xchg   %ax,%ax

00003be0 <bd_cb_conn>:
    3be0:	55                   	push   %ebp
    3be1:	89 e5                	mov    %esp,%ebp
    3be3:	53                   	push   %ebx
    3be4:	83 ec 44             	sub    $0x44,%esp
    3be7:	8d 5d d4             	lea    -0x2c(%ebp),%ebx
    3bea:	eb 14                	jmp    3c00 <bd_cb_conn+0x20>
    3bec:	8d 74 26 00          	lea    0x0(%esi,%eiz,1),%esi
    3bf0:	c7 44 24 04 f5 ff ff 	movl   $0xfffffff5,0x4(%esp)
    3bf7:	ff 
    3bf8:	89 04 24             	mov    %eax,(%esp)
    3bfb:	e8 90 26 01 00       	call   16290 <async_answer_0>
    3c00:	c7 44 24 04 00 00 00 	movl   $0x0,0x4(%esp)
    3c07:	00 
    3c08:	89 1c 24             	mov    %ebx,(%esp)
    3c0b:	e8 50 10 01 00       	call   14c60 <async_get_call_timeout>
    3c10:	8b 55 d4             	mov    -0x2c(%ebp),%edx
    3c13:	85 d2                	test   %edx,%edx
    3c15:	75 d9                	jne    3bf0 <bd_cb_conn+0x10>
    3c17:	83 c4 44             	add    $0x44,%esp
    3c1a:	5b                   	pop    %ebx
    3c1b:	5d                   	pop    %ebp
    3c1c:	c3                   	ret    
    3c1d:	8d 76 00             	lea    0x0(%esi),%esi

00003c20 <bd_open>:
    3c20:	55                   	push   %ebp
    3c21:	89 e5                	mov    %esp,%ebp
    3c23:	57                   	push   %edi
    3c24:	56                   	push   %esi
    3c25:	53                   	push   %ebx
    3c26:	83 ec 3c             	sub    $0x3c,%esp
    3c29:	8b 75 08             	mov    0x8(%ebp),%esi
    3c2c:	c7 44 24 04 04 00 00 	movl   $0x4,0x4(%esp)
    3c33:	00 
    3c34:	c7 04 24 01 00 00 00 	movl   $0x1,(%esp)
    3c3b:	e8 b0 fa 00 00       	call   136f0 <calloc>
    3c40:	89 c3                	mov    %eax,%ebx
    3c42:	85 c0                	test   %eax,%eax
    3c44:	74 72                	je     3cb8 <bd_open+0x98>
    3c46:	89 30                	mov    %esi,(%eax)
    3c48:	89 34 24             	mov    %esi,(%esp)
    3c4b:	e8 40 30 01 00       	call   16c90 <async_exchange_begin>
    3c50:	89 5c 24 14          	mov    %ebx,0x14(%esp)
    3c54:	c7 44 24 10 e0 3b 00 	movl   $0x3be0,0x10(%esp)
    3c5b:	00 
    3c5c:	c7 44 24 0c 00 00 00 	movl   $0x0,0xc(%esp)
    3c63:	00 
    3c64:	c7 44 24 08 00 00 00 	movl   $0x0,0x8(%esp)
    3c6b:	00 
    3c6c:	c7 44 24 04 00 00 00 	movl   $0x0,0x4(%esp)
    3c73:	00 
    3c74:	89 04 24             	mov    %eax,(%esp)
    3c77:	89 c7                	mov    %eax,%edi
    3c79:	e8 b2 27 01 00       	call   16430 <async_connect_to_me>
    3c7e:	89 3c 24             	mov    %edi,(%esp)
    3c81:	89 45 e4             	mov    %eax,-0x1c(%ebp)
    3c84:	e8 77 33 01 00       	call   17000 <async_exchange_end>
    3c89:	8b 45 e4             	mov    -0x1c(%ebp),%eax
    3c8c:	85 c0                	test   %eax,%eax
    3c8e:	74 18                	je     3ca8 <bd_open+0x88>
    3c90:	89 1c 24             	mov    %ebx,(%esp)
    3c93:	89 45 e4             	mov    %eax,-0x1c(%ebp)
    3c96:	e8 c5 fb 00 00       	call   13860 <free>
    3c9b:	8b 45 e4             	mov    -0x1c(%ebp),%eax
    3c9e:	83 c4 3c             	add    $0x3c,%esp
    3ca1:	5b                   	pop    %ebx
    3ca2:	5e                   	pop    %esi
    3ca3:	5f                   	pop    %edi
    3ca4:	5d                   	pop    %ebp
    3ca5:	c3                   	ret    
    3ca6:	66 90                	xchg   %ax,%ax
    3ca8:	8b 55 0c             	mov    0xc(%ebp),%edx
    3cab:	89 1a                	mov    %ebx,(%edx)
    3cad:	83 c4 3c             	add    $0x3c,%esp
    3cb0:	5b                   	pop    %ebx
    3cb1:	5e                   	pop    %esi
    3cb2:	5f                   	pop    %edi
    3cb3:	5d                   	pop    %ebp
    3cb4:	c3                   	ret    
    3cb5:	8d 76 00             	lea    0x0(%esi),%esi
    3cb8:	b8 fe ff ff ff       	mov    $0xfffffffe,%eax
    3cbd:	eb df                	jmp    3c9e <bd_open+0x7e>
    3cbf:	90                   	nop

00003cc0 <bd_close>:
    3cc0:	55                   	push   %ebp
    3cc1:	89 e5                	mov    %esp,%ebp
    3cc3:	5d                   	pop    %ebp
    3cc4:	e9 97 fb 00 00       	jmp    13860 <free>
    3cc9:	8d b4 26 00 00 00 00 	lea    0x0(%esi,%eiz,1),%esi

00003cd0 <bd_read_blocks>:
    3cd0:	55                   	push   %ebp
    3cd1:	89 e5                	mov    %esp,%ebp
    3cd3:	57                   	push   %edi
    3cd4:	56                   	push   %esi
    3cd5:	53                   	push   %ebx
    3cd6:	83 ec 5c             	sub    $0x5c,%esp
    3cd9:	8b 45 08             	mov    0x8(%ebp),%eax
    3cdc:	8b 75 0c             	mov    0xc(%ebp),%esi
    3cdf:	8b 7d 10             	mov    0x10(%ebp),%edi
    3ce2:	8b 00                	mov    (%eax),%eax
    3ce4:	89 04 24             	mov    %eax,(%esp)
    3ce7:	e8 a4 2f 01 00       	call   16c90 <async_exchange_begin>
    3cec:	89 7c 24 0c          	mov    %edi,0xc(%esp)
    3cf0:	89 c3                	mov    %eax,%ebx
    3cf2:	8d 45 c4             	lea    -0x3c(%ebp),%eax
    3cf5:	89 44 24 18          	mov    %eax,0x18(%esp)
    3cf9:	8b 45 14             	mov    0x14(%ebp),%eax
    3cfc:	89 74 24 08          	mov    %esi,0x8(%esp)
    3d00:	c7 44 24 14 00 00 00 	movl   $0x0,0x14(%esp)
    3d07:	00 
    3d08:	89 44 24 10          	mov    %eax,0x10(%esp)
    3d0c:	c7 44 24 04 02 04 00 	movl   $0x402,0x4(%esp)
    3d13:	00 
    3d14:	89 1c 24             	mov    %ebx,(%esp)
    3d17:	e8 14 19 01 00       	call   15630 <async_send_fast>
    3d1c:	89 1c 24             	mov    %ebx,(%esp)
    3d1f:	89 c7                	mov    %eax,%edi
    3d21:	8b 45 1c             	mov    0x1c(%ebp),%eax
    3d24:	89 44 24 08          	mov    %eax,0x8(%esp)
    3d28:	8b 45 18             	mov    0x18(%ebp),%eax
    3d2b:	89 44 24 04          	mov    %eax,0x4(%esp)
    3d2f:	e8 2c 39 01 00       	call   17660 <async_data_read_start>
    3d34:	89 1c 24             	mov    %ebx,(%esp)
    3d37:	89 c6                	mov    %eax,%esi
    3d39:	e8 c2 32 01 00       	call   17000 <async_exchange_end>
    3d3e:	85 f6                	test   %esi,%esi
    3d40:	75 26                	jne    3d68 <bd_read_blocks+0x98>
    3d42:	8d 45 c0             	lea    -0x40(%ebp),%eax
    3d45:	89 3c 24             	mov    %edi,(%esp)
    3d48:	89 44 24 04          	mov    %eax,0x4(%esp)
    3d4c:	e8 af 1a 01 00       	call   15800 <async_wait_for>
    3d51:	8b 45 c0             	mov    -0x40(%ebp),%eax
    3d54:	85 c0                	test   %eax,%eax
    3d56:	74 02                	je     3d5a <bd_read_blocks+0x8a>
    3d58:	89 c6                	mov    %eax,%esi
    3d5a:	83 c4 5c             	add    $0x5c,%esp
    3d5d:	89 f0                	mov    %esi,%eax
    3d5f:	5b                   	pop    %ebx
    3d60:	5e                   	pop    %esi
    3d61:	5f                   	pop    %edi
    3d62:	5d                   	pop    %ebp
    3d63:	c3                   	ret    
    3d64:	8d 74 26 00          	lea    0x0(%esi,%eiz,1),%esi
    3d68:	89 3c 24             	mov    %edi,(%esp)
    3d6b:	e8 e0 1c 01 00       	call   15a50 <async_forget>
    3d70:	83 c4 5c             	add    $0x5c,%esp
    3d73:	89 f0                	mov    %esi,%eax
    3d75:	5b                   	pop    %ebx
    3d76:	5e                   	pop    %esi
    3d77:	5f                   	pop    %edi
    3d78:	5d                   	pop    %ebp
    3d79:	c3                   	ret    
    3d7a:	8d b6 00 00 00 00    	lea    0x0(%esi),%esi

00003d80 <bd_read_toc>:
    3d80:	55                   	push   %ebp
    3d81:	89 e5                	mov    %esp,%ebp
    3d83:	57                   	push   %edi
    3d84:	56                   	push   %esi
    3d85:	53                   	push   %ebx
    3d86:	83 ec 5c             	sub    $0x5c,%esp
    3d89:	8b 45 08             	mov    0x8(%ebp),%eax
    3d8c:	0f b6 75 0c          	movzbl 0xc(%ebp),%esi
    3d90:	8b 00                	mov    (%eax),%eax
    3d92:	81 e6 ff 00 00 00    	and    $0xff,%esi
    3d98:	89 04 24             	mov    %eax,(%esp)
    3d9b:	e8 f0 2e 01 00       	call   16c90 <async_exchange_begin>
    3da0:	89 74 24 08          	mov    %esi,0x8(%esp)
    3da4:	89 c3                	mov    %eax,%ebx
    3da6:	8d 45 c4             	lea    -0x3c(%ebp),%eax
    3da9:	89 44 24 18          	mov    %eax,0x18(%esp)
    3dad:	c7 44 24 14 00 00 00 	movl   $0x0,0x14(%esp)
    3db4:	00 
    3db5:	c7 44 24 10 00 00 00 	movl   $0x0,0x10(%esp)
    3dbc:	00 
    3dbd:	c7 44 24 0c 00 00 00 	movl   $0x0,0xc(%esp)
    3dc4:	00 
    3dc5:	c7 44 24 04 04 04 00 	movl   $0x404,0x4(%esp)
    3dcc:	00 
    3dcd:	89 1c 24             	mov    %ebx,(%esp)
    3dd0:	e8 5b 18 01 00       	call   15630 <async_send_fast>
    3dd5:	89 1c 24             	mov    %ebx,(%esp)
    3dd8:	89 c7                	mov    %eax,%edi
    3dda:	8b 45 14             	mov    0x14(%ebp),%eax
    3ddd:	89 44 24 08          	mov    %eax,0x8(%esp)
    3de1:	8b 45 10             	mov    0x10(%ebp),%eax
    3de4:	89 44 24 04          	mov    %eax,0x4(%esp)
    3de8:	e8 73 38 01 00       	call   17660 <async_data_read_start>
    3ded:	89 1c 24             	mov    %ebx,(%esp)
    3df0:	89 c6                	mov    %eax,%esi
    3df2:	e8 09 32 01 00       	call   17000 <async_exchange_end>
    3df7:	85 f6                	test   %esi,%esi
    3df9:	75 25                	jne    3e20 <bd_read_toc+0xa0>
    3dfb:	8d 45 c0             	lea    -0x40(%ebp),%eax
    3dfe:	89 3c 24             	mov    %edi,(%esp)
    3e01:	89 44 24 04          	mov    %eax,0x4(%esp)
    3e05:	e8 f6 19 01 00       	call   15800 <async_wait_for>
    3e0a:	8b 45 c0             	mov    -0x40(%ebp),%eax
    3e0d:	85 c0                	test   %eax,%eax
    3e0f:	74 02                	je     3e13 <bd_read_toc+0x93>
    3e11:	89 c6                	mov    %eax,%esi
    3e13:	83 c4 5c             	add    $0x5c,%esp
    3e16:	89 f0                	mov    %esi,%eax
    3e18:	5b                   	pop    %ebx
    3e19:	5e                   	pop    %esi
    3e1a:	5f                   	pop    %edi
    3e1b:	5d                   	pop    %ebp
    3e1c:	c3                   	ret    
    3e1d:	8d 76 00             	lea    0x0(%esi),%esi
    3e20:	89 3c 24             	mov    %edi,(%esp)
    3e23:	e8 28 1c 01 00       	call   15a50 <async_forget>
    3e28:	83 c4 5c             	add    $0x5c,%esp
    3e2b:	89 f0                	mov    %esi,%eax
    3e2d:	5b                   	pop    %ebx
    3e2e:	5e                   	pop    %esi
    3e2f:	5f                   	pop    %edi
    3e30:	5d                   	pop    %ebp
    3e31:	c3                   	ret    
    3e32:	8d b4 26 00 00 00 00 	lea    0x0(%esi,%eiz,1),%esi
    3e39:	8d bc 27 00 00 00 00 	lea    0x0(%edi,%eiz,1),%edi

00003e40 <bd_write_blocks>:
    3e40:	55                   	push   %ebp
    3e41:	89 e5                	mov    %esp,%ebp
    3e43:	57                   	push   %edi
    3e44:	56                   	push   %esi
    3e45:	53                   	push   %ebx
    3e46:	83 ec 5c             	sub    $0x5c,%esp
    3e49:	8b 45 08             	mov    0x8(%ebp),%eax
    3e4c:	8b 75 0c             	mov    0xc(%ebp),%esi
    3e4f:	8b 7d 10             	mov    0x10(%ebp),%edi
    3e52:	8b 00                	mov    (%eax),%eax
    3e54:	89 04 24             	mov    %eax,(%esp)
    3e57:	e8 34 2e 01 00       	call   16c90 <async_exchange_begin>
    3e5c:	89 7c 24 0c          	mov    %edi,0xc(%esp)
    3e60:	89 c3                	mov    %eax,%ebx
    3e62:	8d 45 c4             	lea    -0x3c(%ebp),%eax
    3e65:	89 44 24 18          	mov    %eax,0x18(%esp)
    3e69:	8b 45 14             	mov    0x14(%ebp),%eax
    3e6c:	89 74 24 08          	mov    %esi,0x8(%esp)
    3e70:	c7 44 24 14 00 00 00 	movl   $0x0,0x14(%esp)
    3e77:	00 
    3e78:	89 44 24 10          	mov    %eax,0x10(%esp)
    3e7c:	c7 44 24 04 03 04 00 	movl   $0x403,0x4(%esp)
    3e83:	00 
    3e84:	89 1c 24             	mov    %ebx,(%esp)
    3e87:	e8 a4 17 01 00       	call   15630 <async_send_fast>
    3e8c:	89 1c 24             	mov    %ebx,(%esp)
    3e8f:	89 c7                	mov    %eax,%edi
    3e91:	8b 45 1c             	mov    0x1c(%ebp),%eax
    3e94:	89 44 24 08          	mov    %eax,0x8(%esp)
    3e98:	8b 45 18             	mov    0x18(%ebp),%eax
    3e9b:	89 44 24 04          	mov    %eax,0x4(%esp)
    3e9f:	e8 dc 3c 01 00       	call   17b80 <async_data_write_start>
    3ea4:	89 1c 24             	mov    %ebx,(%esp)
    3ea7:	89 c6                	mov    %eax,%esi
    3ea9:	e8 52 31 01 00       	call   17000 <async_exchange_end>
    3eae:	85 f6                	test   %esi,%esi
    3eb0:	75 26                	jne    3ed8 <bd_write_blocks+0x98>
    3eb2:	8d 45 c0             	lea    -0x40(%ebp),%eax
    3eb5:	89 3c 24             	mov    %edi,(%esp)
    3eb8:	89 44 24 04          	mov    %eax,0x4(%esp)
    3ebc:	e8 3f 19 01 00       	call   15800 <async_wait_for>
    3ec1:	8b 45 c0             	mov    -0x40(%ebp),%eax
    3ec4:	85 c0                	test   %eax,%eax
    3ec6:	74 02                	je     3eca <bd_write_blocks+0x8a>
    3ec8:	89 c6                	mov    %eax,%esi
    3eca:	83 c4 5c             	add    $0x5c,%esp
    3ecd:	89 f0                	mov    %esi,%eax
    3ecf:	5b                   	pop    %ebx
    3ed0:	5e                   	pop    %esi
    3ed1:	5f                   	pop    %edi
    3ed2:	5d                   	pop    %ebp
    3ed3:	c3                   	ret    
    3ed4:	8d 74 26 00          	lea    0x0(%esi,%eiz,1),%esi
    3ed8:	89 3c 24             	mov    %edi,(%esp)
    3edb:	e8 70 1b 01 00       	call   15a50 <async_forget>
    3ee0:	83 c4 5c             	add    $0x5c,%esp
    3ee3:	89 f0                	mov    %esi,%eax
    3ee5:	5b                   	pop    %ebx
    3ee6:	5e                   	pop    %esi
    3ee7:	5f                   	pop    %edi
    3ee8:	5d                   	pop    %ebp
    3ee9:	c3                   	ret    
    3eea:	8d b6 00 00 00 00    	lea    0x0(%esi),%esi

00003ef0 <bd_get_block_size>:
    3ef0:	55                   	push   %ebp
    3ef1:	89 e5                	mov    %esp,%ebp
    3ef3:	53                   	push   %ebx
    3ef4:	83 ec 54             	sub    $0x54,%esp
    3ef7:	8b 45 08             	mov    0x8(%ebp),%eax
    3efa:	8b 00                	mov    (%eax),%eax
    3efc:	89 04 24             	mov    %eax,(%esp)
    3eff:	e8 8c 2d 01 00       	call   16c90 <async_exchange_begin>
    3f04:	c7 44 24 28 00 00 00 	movl   $0x0,0x28(%esp)
    3f0b:	00 
    3f0c:	89 c3                	mov    %eax,%ebx
    3f0e:	8d 45 f4             	lea    -0xc(%ebp),%eax
    3f11:	c7 44 24 24 00 00 00 	movl   $0x0,0x24(%esp)
    3f18:	00 
    3f19:	c7 44 24 20 00 00 00 	movl   $0x0,0x20(%esp)
    3f20:	00 
    3f21:	c7 44 24 1c 00 00 00 	movl   $0x0,0x1c(%esp)
    3f28:	00 
    3f29:	89 44 24 18          	mov    %eax,0x18(%esp)
    3f2d:	c7 44 24 14 00 00 00 	movl   $0x0,0x14(%esp)
    3f34:	00 
    3f35:	c7 44 24 10 00 00 00 	movl   $0x0,0x10(%esp)
    3f3c:	00 
    3f3d:	c7 44 24 0c 00 00 00 	movl   $0x0,0xc(%esp)
    3f44:	00 
    3f45:	c7 44 24 08 00 00 00 	movl   $0x0,0x8(%esp)
    3f4c:	00 
    3f4d:	c7 44 24 04 00 04 00 	movl   $0x400,0x4(%esp)
    3f54:	00 
    3f55:	89 1c 24             	mov    %ebx,(%esp)
    3f58:	e8 e3 1c 01 00       	call   15c40 <async_req_fast>
    3f5d:	89 1c 24             	mov    %ebx,(%esp)
    3f60:	89 45 e4             	mov    %eax,-0x1c(%ebp)
    3f63:	e8 98 30 01 00       	call   17000 <async_exchange_end>
    3f68:	8b 45 e4             	mov    -0x1c(%ebp),%eax
    3f6b:	85 c0                	test   %eax,%eax
    3f6d:	75 08                	jne    3f77 <bd_get_block_size+0x87>
    3f6f:	8b 55 0c             	mov    0xc(%ebp),%edx
    3f72:	8b 4d f4             	mov    -0xc(%ebp),%ecx
    3f75:	89 0a                	mov    %ecx,(%edx)
    3f77:	83 c4 54             	add    $0x54,%esp
    3f7a:	5b                   	pop    %ebx
    3f7b:	5d                   	pop    %ebp
    3f7c:	c3                   	ret    
    3f7d:	8d 76 00             	lea    0x0(%esi),%esi

00003f80 <bd_get_num_blocks>:
    3f80:	55                   	push   %ebp
    3f81:	89 e5                	mov    %esp,%ebp
    3f83:	57                   	push   %edi
    3f84:	56                   	push   %esi
    3f85:	53                   	push   %ebx
    3f86:	83 ec 5c             	sub    $0x5c,%esp
    3f89:	8b 45 08             	mov    0x8(%ebp),%eax
    3f8c:	8b 00                	mov    (%eax),%eax
    3f8e:	89 04 24             	mov    %eax,(%esp)
    3f91:	e8 fa 2c 01 00       	call   16c90 <async_exchange_begin>
    3f96:	c7 44 24 28 00 00 00 	movl   $0x0,0x28(%esp)
    3f9d:	00 
    3f9e:	89 c3                	mov    %eax,%ebx
    3fa0:	8d 45 e4             	lea    -0x1c(%ebp),%eax
    3fa3:	89 44 24 1c          	mov    %eax,0x1c(%esp)
    3fa7:	8d 45 e0             	lea    -0x20(%ebp),%eax
    3faa:	c7 44 24 24 00 00 00 	movl   $0x0,0x24(%esp)
    3fb1:	00 
    3fb2:	c7 44 24 20 00 00 00 	movl   $0x0,0x20(%esp)
    3fb9:	00 
    3fba:	89 44 24 18          	mov    %eax,0x18(%esp)
    3fbe:	c7 44 24 14 00 00 00 	movl   $0x0,0x14(%esp)
    3fc5:	00 
    3fc6:	c7 44 24 10 00 00 00 	movl   $0x0,0x10(%esp)
    3fcd:	00 
    3fce:	c7 44 24 0c 00 00 00 	movl   $0x0,0xc(%esp)
    3fd5:	00 
    3fd6:	c7 44 24 08 00 00 00 	movl   $0x0,0x8(%esp)
    3fdd:	00 
    3fde:	c7 44 24 04 01 04 00 	movl   $0x401,0x4(%esp)
    3fe5:	00 
    3fe6:	89 1c 24             	mov    %ebx,(%esp)
    3fe9:	e8 52 1c 01 00       	call   15c40 <async_req_fast>
    3fee:	89 1c 24             	mov    %ebx,(%esp)
    3ff1:	89 45 d4             	mov    %eax,-0x2c(%ebp)
    3ff4:	e8 07 30 01 00       	call   17000 <async_exchange_end>
    3ff9:	8b 45 d4             	mov    -0x2c(%ebp),%eax
    3ffc:	85 c0                	test   %eax,%eax
    3ffe:	75 0e                	jne    400e <bd_get_num_blocks+0x8e>
    4000:	8b 55 0c             	mov    0xc(%ebp),%edx
    4003:	8b 4d e4             	mov    -0x1c(%ebp),%ecx
    4006:	8b 75 e0             	mov    -0x20(%ebp),%esi
    4009:	89 32                	mov    %esi,(%edx)
    400b:	89 4a 04             	mov    %ecx,0x4(%edx)
    400e:	83 c4 5c             	add    $0x5c,%esp
    4011:	5b                   	pop    %ebx
    4012:	5e                   	pop    %esi
    4013:	5f                   	pop    %edi
    4014:	5d                   	pop    %ebp
    4015:	c3                   	ret    
    4016:	66 90                	xchg   %ax,%ax
    4018:	66 90                	xchg   %ax,%ax
    401a:	66 90                	xchg   %ax,%ax
    401c:	66 90                	xchg   %ax,%ax
    401e:	66 90                	xchg   %ax,%ax

00004020 <loc_cb_conn>:
    4020:	55                   	push   %ebp
    4021:	89 e5                	mov    %esp,%ebp
    4023:	56                   	push   %esi
    4024:	53                   	push   %ebx
    4025:	83 ec 50             	sub    $0x50,%esp
    4028:	8d 5d d4             	lea    -0x2c(%ebp),%ebx
    402b:	90                   	nop
    402c:	8d 74 26 00          	lea    0x0(%esi,%eiz,1),%esi
    4030:	c7 44 24 04 00 00 00 	movl   $0x0,0x4(%esp)
    4037:	00 
    4038:	89 1c 24             	mov    %ebx,(%esp)
    403b:	e8 20 0c 01 00       	call   14c60 <async_get_call_timeout>
    4040:	8b 55 d4             	mov    -0x2c(%ebp),%edx
    4043:	85 d2                	test   %edx,%edx
    4045:	74 61                	je     40a8 <loc_cb_conn+0x88>
    4047:	81 fa 00 04 00 00    	cmp    $0x400,%edx
    404d:	74 19                	je     4068 <loc_cb_conn+0x48>
    404f:	c7 44 24 04 f5 ff ff 	movl   $0xfffffff5,0x4(%esp)
    4056:	ff 
    4057:	89 04 24             	mov    %eax,(%esp)
    405a:	e8 31 22 01 00       	call   16290 <async_answer_0>
    405f:	eb cf                	jmp    4030 <loc_cb_conn+0x10>
    4061:	8d b4 26 00 00 00 00 	lea    0x0(%esi,%eiz,1),%esi
    4068:	c7 04 24 ac 5b 02 00 	movl   $0x25bac,(%esp)
    406f:	89 45 c4             	mov    %eax,-0x3c(%ebp)
    4072:	e8 c9 6a 00 00       	call   ab40 <fibril_mutex_lock>
    4077:	c7 04 24 ac 5b 02 00 	movl   $0x25bac,(%esp)
    407e:	8b 35 a4 5d 02 00    	mov    0x25da4,%esi
    4084:	e8 d7 6b 00 00       	call   ac60 <fibril_mutex_unlock>
    4089:	8b 45 c4             	mov    -0x3c(%ebp),%eax
    408c:	c7 44 24 04 00 00 00 	movl   $0x0,0x4(%esp)
    4093:	00 
    4094:	89 04 24             	mov    %eax,(%esp)
    4097:	e8 f4 21 01 00       	call   16290 <async_answer_0>
    409c:	85 f6                	test   %esi,%esi
    409e:	74 90                	je     4030 <loc_cb_conn+0x10>
    40a0:	ff d6                	call   *%esi
    40a2:	eb 8c                	jmp    4030 <loc_cb_conn+0x10>
    40a4:	8d 74 26 00          	lea    0x0(%esi,%eiz,1),%esi
    40a8:	83 c4 50             	add    $0x50,%esp
    40ab:	5b                   	pop    %ebx
    40ac:	5e                   	pop    %esi
    40ad:	5d                   	pop    %ebp
    40ae:	c3                   	ret    
    40af:	90                   	nop

000040b0 <loc_exchange_begin.part.0>:
    40b0:	55                   	push   %ebp
    40b1:	89 e5                	mov    %esp,%ebp
    40b3:	83 ec 18             	sub    $0x18,%esp
    40b6:	c7 04 24 7c 5b 02 00 	movl   $0x25b7c,(%esp)
    40bd:	e8 7e 6a 00 00       	call   ab40 <fibril_mutex_lock>
    40c2:	a1 94 5d 02 00       	mov    0x25d94,%eax
    40c7:	85 c0                	test   %eax,%eax
    40c9:	74 25                	je     40f0 <loc_exchange_begin.part.0+0x40>
    40cb:	c7 04 24 7c 5b 02 00 	movl   $0x25b7c,(%esp)
    40d2:	e8 89 6b 00 00       	call   ac60 <fibril_mutex_unlock>
    40d7:	a1 94 5d 02 00       	mov    0x25d94,%eax
    40dc:	85 c0                	test   %eax,%eax
    40de:	74 40                	je     4120 <loc_exchange_begin.part.0+0x70>
    40e0:	89 04 24             	mov    %eax,(%esp)
    40e3:	e8 a8 2b 01 00       	call   16c90 <async_exchange_begin>
    40e8:	c9                   	leave  
    40e9:	c3                   	ret    
    40ea:	8d b6 00 00 00 00    	lea    0x0(%esi),%esi
    40f0:	c7 44 24 0c 00 00 00 	movl   $0x0,0xc(%esp)
    40f7:	00 
    40f8:	c7 44 24 08 01 00 00 	movl   $0x1,0x8(%esp)
    40ff:	00 
    4100:	c7 44 24 04 6c 6f 63 	movl   $0x20636f6c,0x4(%esp)
    4107:	20 
    4108:	c7 04 24 02 00 00 00 	movl   $0x2,(%esp)
    410f:	e8 4c fe 00 00       	call   13f60 <service_connect>
    4114:	a3 94 5d 02 00       	mov    %eax,0x25d94
    4119:	eb b0                	jmp    40cb <loc_exchange_begin.part.0+0x1b>
    411b:	90                   	nop
    411c:	8d 74 26 00          	lea    0x0(%esi,%eiz,1),%esi
    4120:	31 c0                	xor    %eax,%eax
    4122:	c9                   	leave  
    4123:	c3                   	ret    
    4124:	8d b6 00 00 00 00    	lea    0x0(%esi),%esi
    412a:	8d bf 00 00 00 00    	lea    0x0(%edi),%edi

00004130 <loc_get_name_internal>:
    4130:	55                   	push   %ebp
    4131:	89 e5                	mov    %esp,%ebp
    4133:	57                   	push   %edi
    4134:	56                   	push   %esi
    4135:	53                   	push   %ebx
    4136:	81 ec 8c 01 00 00    	sub    $0x18c,%esp
    413c:	c7 01 00 00 00 00    	movl   $0x0,(%ecx)
    4142:	89 85 94 fe ff ff    	mov    %eax,-0x16c(%ebp)
    4148:	89 d7                	mov    %edx,%edi
    414a:	c7 04 24 8c 5b 02 00 	movl   $0x25b8c,(%esp)
    4151:	89 ce                	mov    %ecx,%esi
    4153:	e8 e8 69 00 00       	call   ab40 <fibril_mutex_lock>
    4158:	a1 a0 5d 02 00       	mov    0x25da0,%eax
    415d:	85 c0                	test   %eax,%eax
    415f:	75 39                	jne    419a <loc_get_name_internal+0x6a>
    4161:	c7 04 24 9c 5b 02 00 	movl   $0x25b9c,(%esp)
    4168:	8b 1d 9c 5d 02 00    	mov    0x25d9c,%ebx
    416e:	e8 cd 69 00 00       	call   ab40 <fibril_mutex_lock>
    4173:	a1 a0 5d 02 00       	mov    0x25da0,%eax
    4178:	85 c0                	test   %eax,%eax
    417a:	0f 84 40 01 00 00    	je     42c0 <loc_get_name_internal+0x190>
    4180:	c7 04 24 9c 5b 02 00 	movl   $0x25b9c,(%esp)
    4187:	e8 d4 6a 00 00       	call   ac60 <fibril_mutex_unlock>
    418c:	8b 1d a0 5d 02 00    	mov    0x25da0,%ebx
    4192:	85 db                	test   %ebx,%ebx
    4194:	0f 84 3e 01 00 00    	je     42d8 <loc_get_name_internal+0x1a8>
    419a:	c7 04 24 8c 5b 02 00 	movl   $0x25b8c,(%esp)
    41a1:	e8 ba 6a 00 00       	call   ac60 <fibril_mutex_unlock>
    41a6:	c7 04 24 9c 5b 02 00 	movl   $0x25b9c,(%esp)
    41ad:	8b 1d a0 5d 02 00    	mov    0x25da0,%ebx
    41b3:	e8 88 69 00 00       	call   ab40 <fibril_mutex_lock>
    41b8:	8b 0d 9c 5d 02 00    	mov    0x25d9c,%ecx
    41be:	85 c9                	test   %ecx,%ecx
    41c0:	0f 84 62 01 00 00    	je     4328 <loc_get_name_internal+0x1f8>
    41c6:	c7 04 24 9c 5b 02 00 	movl   $0x25b9c,(%esp)
    41cd:	e8 8e 6a 00 00       	call   ac60 <fibril_mutex_unlock>
    41d2:	a1 a0 5d 02 00       	mov    0x25da0,%eax
    41d7:	89 04 24             	mov    %eax,(%esp)
    41da:	e8 b1 2a 01 00       	call   16c90 <async_exchange_begin>
    41df:	89 7c 24 08          	mov    %edi,0x8(%esp)
    41e3:	89 c3                	mov    %eax,%ebx
    41e5:	8d 85 c4 fe ff ff    	lea    -0x13c(%ebp),%eax
    41eb:	89 44 24 18          	mov    %eax,0x18(%esp)
    41ef:	8b 85 94 fe ff ff    	mov    -0x16c(%ebp),%eax
    41f5:	c7 44 24 14 00 00 00 	movl   $0x0,0x14(%esp)
    41fc:	00 
    41fd:	c7 44 24 10 00 00 00 	movl   $0x0,0x10(%esp)
    4204:	00 
    4205:	c7 44 24 0c 00 00 00 	movl   $0x0,0xc(%esp)
    420c:	00 
    420d:	89 44 24 04          	mov    %eax,0x4(%esp)
    4211:	89 1c 24             	mov    %ebx,(%esp)
    4214:	e8 17 14 01 00       	call   15630 <async_send_fast>
    4219:	c7 44 24 08 ff 00 00 	movl   $0xff,0x8(%esp)
    4220:	00 
    4221:	89 c7                	mov    %eax,%edi
    4223:	8d 85 a0 fe ff ff    	lea    -0x160(%ebp),%eax
    4229:	89 44 24 0c          	mov    %eax,0xc(%esp)
    422d:	8d 85 e8 fe ff ff    	lea    -0x118(%ebp),%eax
    4233:	89 44 24 04          	mov    %eax,0x4(%esp)
    4237:	89 1c 24             	mov    %ebx,(%esp)
    423a:	e8 41 33 01 00       	call   17580 <async_data_read>
    423f:	8d 8d 98 fe ff ff    	lea    -0x168(%ebp),%ecx
    4245:	89 4c 24 04          	mov    %ecx,0x4(%esp)
    4249:	89 04 24             	mov    %eax,(%esp)
    424c:	e8 af 15 01 00       	call   15800 <async_wait_for>
    4251:	89 1c 24             	mov    %ebx,(%esp)
    4254:	e8 a7 2d 01 00       	call   17000 <async_exchange_end>
    4259:	8b 95 98 fe ff ff    	mov    -0x168(%ebp),%edx
    425f:	85 d2                	test   %edx,%edx
    4261:	0f 85 a1 00 00 00    	jne    4308 <loc_get_name_internal+0x1d8>
    4267:	8d 85 9c fe ff ff    	lea    -0x164(%ebp),%eax
    426d:	89 3c 24             	mov    %edi,(%esp)
    4270:	89 44 24 04          	mov    %eax,0x4(%esp)
    4274:	e8 87 15 01 00       	call   15800 <async_wait_for>
    4279:	8b 85 9c fe ff ff    	mov    -0x164(%ebp),%eax
    427f:	85 c0                	test   %eax,%eax
    4281:	75 31                	jne    42b4 <loc_get_name_internal+0x184>
    4283:	8b 85 a8 fe ff ff    	mov    -0x158(%ebp),%eax
    4289:	3d ff 00 00 00       	cmp    $0xff,%eax
    428e:	0f 87 a7 00 00 00    	ja     433b <loc_get_name_internal+0x20b>
    4294:	c6 84 05 e8 fe ff ff 	movb   $0x0,-0x118(%ebp,%eax,1)
    429b:	00 
    429c:	8d 85 e8 fe ff ff    	lea    -0x118(%ebp),%eax
    42a2:	89 04 24             	mov    %eax,(%esp)
    42a5:	e8 16 56 00 00       	call   98c0 <str_dup>
    42aa:	83 f8 01             	cmp    $0x1,%eax
    42ad:	89 06                	mov    %eax,(%esi)
    42af:	19 c0                	sbb    %eax,%eax
    42b1:	83 e0 fe             	and    $0xfffffffe,%eax
    42b4:	81 c4 8c 01 00 00    	add    $0x18c,%esp
    42ba:	5b                   	pop    %ebx
    42bb:	5e                   	pop    %esi
    42bc:	5f                   	pop    %edi
    42bd:	5d                   	pop    %ebp
    42be:	c3                   	ret    
    42bf:	90                   	nop
    42c0:	85 db                	test   %ebx,%ebx
    42c2:	0f 84 b8 fe ff ff    	je     4180 <loc_get_name_internal+0x50>
    42c8:	89 1d a0 5d 02 00    	mov    %ebx,0x25da0
    42ce:	e9 ad fe ff ff       	jmp    4180 <loc_get_name_internal+0x50>
    42d3:	90                   	nop
    42d4:	8d 74 26 00          	lea    0x0(%esi,%eiz,1),%esi
    42d8:	c7 44 24 0c 00 00 00 	movl   $0x0,0xc(%esp)
    42df:	00 
    42e0:	c7 44 24 08 02 00 00 	movl   $0x2,0x8(%esp)
    42e7:	00 
    42e8:	c7 44 24 04 6c 6f 63 	movl   $0x20636f6c,0x4(%esp)
    42ef:	20 
    42f0:	c7 04 24 02 00 00 00 	movl   $0x2,(%esp)
    42f7:	e8 e4 fc 00 00       	call   13fe0 <service_connect_blocking>
    42fc:	a3 a0 5d 02 00       	mov    %eax,0x25da0
    4301:	e9 57 fe ff ff       	jmp    415d <loc_get_name_internal+0x2d>
    4306:	66 90                	xchg   %ax,%ax
    4308:	89 3c 24             	mov    %edi,(%esp)
    430b:	e8 40 17 01 00       	call   15a50 <async_forget>
    4310:	8b 85 98 fe ff ff    	mov    -0x168(%ebp),%eax
    4316:	81 c4 8c 01 00 00    	add    $0x18c,%esp
    431c:	5b                   	pop    %ebx
    431d:	5e                   	pop    %esi
    431e:	5f                   	pop    %edi
    431f:	5d                   	pop    %ebp
    4320:	c3                   	ret    
    4321:	8d b4 26 00 00 00 00 	lea    0x0(%esi,%eiz,1),%esi
    4328:	85 db                	test   %ebx,%ebx
    432a:	0f 84 96 fe ff ff    	je     41c6 <loc_get_name_internal+0x96>
    4330:	89 1d 9c 5d 02 00    	mov    %ebx,0x25d9c
    4336:	e9 8b fe ff ff       	jmp    41c6 <loc_get_name_internal+0x96>
    433b:	c7 44 24 08 9e 01 00 	movl   $0x19e,0x8(%esp)
    4342:	00 
    4343:	c7 44 24 04 f0 30 02 	movl   $0x230f0,0x4(%esp)
    434a:	00 
    434b:	c7 04 24 fe 30 02 00 	movl   $0x230fe,(%esp)
    4352:	e8 09 a8 01 00       	call   1eb60 <assert_abort>
    4357:	89 f6                	mov    %esi,%esi
    4359:	8d bc 27 00 00 00 00 	lea    0x0(%edi,%eiz,1),%edi

00004360 <loc_get_ids_internal>:
    4360:	55                   	push   %ebp
    4361:	89 e5                	mov    %esp,%ebp
    4363:	57                   	push   %edi
    4364:	56                   	push   %esi
    4365:	53                   	push   %ebx
    4366:	83 ec 7c             	sub    $0x7c,%esp
    4369:	89 55 ac             	mov    %edx,-0x54(%ebp)
    436c:	8b 55 08             	mov    0x8(%ebp),%edx
    436f:	c7 01 00 00 00 00    	movl   $0x0,(%ecx)
    4375:	89 45 b0             	mov    %eax,-0x50(%ebp)
    4378:	89 4d a8             	mov    %ecx,-0x58(%ebp)
    437b:	c7 02 00 00 00 00    	movl   $0x0,(%edx)
    4381:	c7 04 24 8c 5b 02 00 	movl   $0x25b8c,(%esp)
    4388:	e8 b3 67 00 00       	call   ab40 <fibril_mutex_lock>
    438d:	a1 a0 5d 02 00       	mov    0x25da0,%eax
    4392:	85 c0                	test   %eax,%eax
    4394:	75 39                	jne    43cf <loc_get_ids_internal+0x6f>
    4396:	c7 04 24 9c 5b 02 00 	movl   $0x25b9c,(%esp)
    439d:	8b 1d 9c 5d 02 00    	mov    0x25d9c,%ebx
    43a3:	e8 98 67 00 00       	call   ab40 <fibril_mutex_lock>
    43a8:	8b 15 a0 5d 02 00    	mov    0x25da0,%edx
    43ae:	85 d2                	test   %edx,%edx
    43b0:	0f 84 5a 02 00 00    	je     4610 <loc_get_ids_internal+0x2b0>
    43b6:	c7 04 24 9c 5b 02 00 	movl   $0x25b9c,(%esp)
    43bd:	e8 9e 68 00 00       	call   ac60 <fibril_mutex_unlock>
    43c2:	a1 a0 5d 02 00       	mov    0x25da0,%eax
    43c7:	85 c0                	test   %eax,%eax
    43c9:	0f 84 59 02 00 00    	je     4628 <loc_get_ids_internal+0x2c8>
    43cf:	c7 04 24 8c 5b 02 00 	movl   $0x25b8c,(%esp)
    43d6:	e8 85 68 00 00       	call   ac60 <fibril_mutex_unlock>
    43db:	c7 04 24 9c 5b 02 00 	movl   $0x25b9c,(%esp)
    43e2:	8b 1d a0 5d 02 00    	mov    0x25da0,%ebx
    43e8:	e8 53 67 00 00       	call   ab40 <fibril_mutex_lock>
    43ed:	a1 9c 5d 02 00       	mov    0x25d9c,%eax
    43f2:	85 c0                	test   %eax,%eax
    43f4:	0f 84 d5 02 00 00    	je     46cf <loc_get_ids_internal+0x36f>
    43fa:	c7 04 24 9c 5b 02 00 	movl   $0x25b9c,(%esp)
    4401:	e8 5a 68 00 00       	call   ac60 <fibril_mutex_unlock>
    4406:	a1 a0 5d 02 00       	mov    0x25da0,%eax
    440b:	89 04 24             	mov    %eax,(%esp)
    440e:	e8 7d 28 01 00       	call   16c90 <async_exchange_begin>
    4413:	8b 55 ac             	mov    -0x54(%ebp),%edx
    4416:	89 c6                	mov    %eax,%esi
    4418:	8d 45 c4             	lea    -0x3c(%ebp),%eax
    441b:	89 44 24 18          	mov    %eax,0x18(%esp)
    441f:	8b 45 b0             	mov    -0x50(%ebp),%eax
    4422:	89 54 24 08          	mov    %edx,0x8(%esp)
    4426:	c7 44 24 14 00 00 00 	movl   $0x0,0x14(%esp)
    442d:	00 
    442e:	c7 44 24 10 00 00 00 	movl   $0x0,0x10(%esp)
    4435:	00 
    4436:	c7 44 24 0c 00 00 00 	movl   $0x0,0xc(%esp)
    443d:	00 
    443e:	89 44 24 04          	mov    %eax,0x4(%esp)
    4442:	89 34 24             	mov    %esi,(%esp)
    4445:	e8 e6 11 01 00       	call   15630 <async_send_fast>
    444a:	c7 44 24 08 00 00 00 	movl   $0x0,0x8(%esp)
    4451:	00 
    4452:	c7 44 24 04 00 00 00 	movl   $0x0,0x4(%esp)
    4459:	00 
    445a:	89 34 24             	mov    %esi,(%esp)
    445d:	89 c3                	mov    %eax,%ebx
    445f:	e8 fc 31 01 00       	call   17660 <async_data_read_start>
    4464:	89 34 24             	mov    %esi,(%esp)
    4467:	89 c7                	mov    %eax,%edi
    4469:	e8 92 2b 01 00       	call   17000 <async_exchange_end>
    446e:	85 ff                	test   %edi,%edi
    4470:	0f 85 3d 02 00 00    	jne    46b3 <loc_get_ids_internal+0x353>
    4476:	8d 55 c0             	lea    -0x40(%ebp),%edx
    4479:	89 1c 24             	mov    %ebx,(%esp)
    447c:	89 54 24 04          	mov    %edx,0x4(%esp)
    4480:	e8 7b 13 01 00       	call   15800 <async_wait_for>
    4485:	8b 45 c0             	mov    -0x40(%ebp),%eax
    4488:	85 c0                	test   %eax,%eax
    448a:	0f 85 72 01 00 00    	jne    4602 <loc_get_ids_internal+0x2a2>
    4490:	8b 7d c8             	mov    -0x38(%ebp),%edi
    4493:	89 3c 24             	mov    %edi,(%esp)
    4496:	e8 b5 f2 00 00       	call   13750 <malloc>
    449b:	89 c6                	mov    %eax,%esi
    449d:	85 c0                	test   %eax,%eax
    449f:	0f 85 0a 01 00 00    	jne    45af <loc_get_ids_internal+0x24f>
    44a5:	e9 1b 02 00 00       	jmp    46c5 <loc_get_ids_internal+0x365>
    44aa:	8d b6 00 00 00 00    	lea    0x0(%esi),%esi
    44b0:	c7 04 24 9c 5b 02 00 	movl   $0x25b9c,(%esp)
    44b7:	e8 a4 67 00 00       	call   ac60 <fibril_mutex_unlock>
    44bc:	a1 a0 5d 02 00       	mov    0x25da0,%eax
    44c1:	85 c0                	test   %eax,%eax
    44c3:	0f 84 8f 01 00 00    	je     4658 <loc_get_ids_internal+0x2f8>
    44c9:	c7 04 24 8c 5b 02 00 	movl   $0x25b8c,(%esp)
    44d0:	e8 8b 67 00 00       	call   ac60 <fibril_mutex_unlock>
    44d5:	c7 04 24 9c 5b 02 00 	movl   $0x25b9c,(%esp)
    44dc:	8b 1d a0 5d 02 00    	mov    0x25da0,%ebx
    44e2:	e8 59 66 00 00       	call   ab40 <fibril_mutex_lock>
    44e7:	a1 9c 5d 02 00       	mov    0x25d9c,%eax
    44ec:	85 c0                	test   %eax,%eax
    44ee:	0f 84 ac 01 00 00    	je     46a0 <loc_get_ids_internal+0x340>
    44f4:	c7 04 24 9c 5b 02 00 	movl   $0x25b9c,(%esp)
    44fb:	e8 60 67 00 00       	call   ac60 <fibril_mutex_unlock>
    4500:	a1 a0 5d 02 00       	mov    0x25da0,%eax
    4505:	89 04 24             	mov    %eax,(%esp)
    4508:	e8 83 27 01 00       	call   16c90 <async_exchange_begin>
    450d:	8b 55 ac             	mov    -0x54(%ebp),%edx
    4510:	89 c3                	mov    %eax,%ebx
    4512:	8d 45 c4             	lea    -0x3c(%ebp),%eax
    4515:	89 44 24 18          	mov    %eax,0x18(%esp)
    4519:	8b 45 b0             	mov    -0x50(%ebp),%eax
    451c:	89 54 24 08          	mov    %edx,0x8(%esp)
    4520:	c7 44 24 14 00 00 00 	movl   $0x0,0x14(%esp)
    4527:	00 
    4528:	c7 44 24 10 00 00 00 	movl   $0x0,0x10(%esp)
    452f:	00 
    4530:	c7 44 24 0c 00 00 00 	movl   $0x0,0xc(%esp)
    4537:	00 
    4538:	89 44 24 04          	mov    %eax,0x4(%esp)
    453c:	89 1c 24             	mov    %ebx,(%esp)
    453f:	e8 ec 10 01 00       	call   15630 <async_send_fast>
    4544:	89 7c 24 08          	mov    %edi,0x8(%esp)
    4548:	89 74 24 04          	mov    %esi,0x4(%esp)
    454c:	89 1c 24             	mov    %ebx,(%esp)
    454f:	89 45 b4             	mov    %eax,-0x4c(%ebp)
    4552:	e8 09 31 01 00       	call   17660 <async_data_read_start>
    4557:	89 1c 24             	mov    %ebx,(%esp)
    455a:	89 45 a4             	mov    %eax,-0x5c(%ebp)
    455d:	e8 9e 2a 01 00       	call   17000 <async_exchange_end>
    4562:	8b 45 a4             	mov    -0x5c(%ebp),%eax
    4565:	85 c0                	test   %eax,%eax
    4567:	0f 85 1b 01 00 00    	jne    4688 <loc_get_ids_internal+0x328>
    456d:	8d 55 c0             	lea    -0x40(%ebp),%edx
    4570:	89 45 a4             	mov    %eax,-0x5c(%ebp)
    4573:	89 54 24 04          	mov    %edx,0x4(%esp)
    4577:	8b 55 b4             	mov    -0x4c(%ebp),%edx
    457a:	89 14 24             	mov    %edx,(%esp)
    457d:	e8 7e 12 01 00       	call   15800 <async_wait_for>
    4582:	8b 55 c0             	mov    -0x40(%ebp),%edx
    4585:	85 d2                	test   %edx,%edx
    4587:	8b 45 a4             	mov    -0x5c(%ebp),%eax
    458a:	75 74                	jne    4600 <loc_get_ids_internal+0x2a0>
    458c:	8b 5d c8             	mov    -0x38(%ebp),%ebx
    458f:	39 df                	cmp    %ebx,%edi
    4591:	0f 83 4b 01 00 00    	jae    46e2 <loc_get_ids_internal+0x382>
    4597:	89 34 24             	mov    %esi,(%esp)
    459a:	89 5c 24 04          	mov    %ebx,0x4(%esp)
    459e:	e8 0d f5 00 00       	call   13ab0 <realloc>
    45a3:	89 df                	mov    %ebx,%edi
    45a5:	89 c6                	mov    %eax,%esi
    45a7:	85 c0                	test   %eax,%eax
    45a9:	0f 84 16 01 00 00    	je     46c5 <loc_get_ids_internal+0x365>
    45af:	c7 04 24 8c 5b 02 00 	movl   $0x25b8c,(%esp)
    45b6:	e8 85 65 00 00       	call   ab40 <fibril_mutex_lock>
    45bb:	a1 a0 5d 02 00       	mov    0x25da0,%eax
    45c0:	85 c0                	test   %eax,%eax
    45c2:	0f 85 01 ff ff ff    	jne    44c9 <loc_get_ids_internal+0x169>
    45c8:	c7 04 24 9c 5b 02 00 	movl   $0x25b9c,(%esp)
    45cf:	8b 1d 9c 5d 02 00    	mov    0x25d9c,%ebx
    45d5:	e8 66 65 00 00       	call   ab40 <fibril_mutex_lock>
    45da:	a1 a0 5d 02 00       	mov    0x25da0,%eax
    45df:	85 c0                	test   %eax,%eax
    45e1:	0f 85 c9 fe ff ff    	jne    44b0 <loc_get_ids_internal+0x150>
    45e7:	85 db                	test   %ebx,%ebx
    45e9:	0f 84 c1 fe ff ff    	je     44b0 <loc_get_ids_internal+0x150>
    45ef:	89 1d a0 5d 02 00    	mov    %ebx,0x25da0
    45f5:	e9 b6 fe ff ff       	jmp    44b0 <loc_get_ids_internal+0x150>
    45fa:	8d b6 00 00 00 00    	lea    0x0(%esi),%esi
    4600:	89 d0                	mov    %edx,%eax
    4602:	89 c7                	mov    %eax,%edi
    4604:	83 c4 7c             	add    $0x7c,%esp
    4607:	89 f8                	mov    %edi,%eax
    4609:	5b                   	pop    %ebx
    460a:	5e                   	pop    %esi
    460b:	5f                   	pop    %edi
    460c:	5d                   	pop    %ebp
    460d:	c3                   	ret    
    460e:	66 90                	xchg   %ax,%ax
    4610:	85 db                	test   %ebx,%ebx
    4612:	0f 84 9e fd ff ff    	je     43b6 <loc_get_ids_internal+0x56>
    4618:	89 1d a0 5d 02 00    	mov    %ebx,0x25da0
    461e:	e9 93 fd ff ff       	jmp    43b6 <loc_get_ids_internal+0x56>
    4623:	90                   	nop
    4624:	8d 74 26 00          	lea    0x0(%esi,%eiz,1),%esi
    4628:	c7 44 24 0c 00 00 00 	movl   $0x0,0xc(%esp)
    462f:	00 
    4630:	c7 44 24 08 02 00 00 	movl   $0x2,0x8(%esp)
    4637:	00 
    4638:	c7 44 24 04 6c 6f 63 	movl   $0x20636f6c,0x4(%esp)
    463f:	20 
    4640:	c7 04 24 02 00 00 00 	movl   $0x2,(%esp)
    4647:	e8 94 f9 00 00       	call   13fe0 <service_connect_blocking>
    464c:	a3 a0 5d 02 00       	mov    %eax,0x25da0
    4651:	e9 3c fd ff ff       	jmp    4392 <loc_get_ids_internal+0x32>
    4656:	66 90                	xchg   %ax,%ax
    4658:	c7 44 24 0c 00 00 00 	movl   $0x0,0xc(%esp)
    465f:	00 
    4660:	c7 44 24 08 02 00 00 	movl   $0x2,0x8(%esp)
    4667:	00 
    4668:	c7 44 24 04 6c 6f 63 	movl   $0x20636f6c,0x4(%esp)
    466f:	20 
    4670:	c7 04 24 02 00 00 00 	movl   $0x2,(%esp)
    4677:	e8 64 f9 00 00       	call   13fe0 <service_connect_blocking>
    467c:	a3 a0 5d 02 00       	mov    %eax,0x25da0
    4681:	e9 3a ff ff ff       	jmp    45c0 <loc_get_ids_internal+0x260>
    4686:	66 90                	xchg   %ax,%ax
    4688:	89 c7                	mov    %eax,%edi
    468a:	8b 45 b4             	mov    -0x4c(%ebp),%eax
    468d:	89 04 24             	mov    %eax,(%esp)
    4690:	e8 bb 13 01 00       	call   15a50 <async_forget>
    4695:	83 c4 7c             	add    $0x7c,%esp
    4698:	89 f8                	mov    %edi,%eax
    469a:	5b                   	pop    %ebx
    469b:	5e                   	pop    %esi
    469c:	5f                   	pop    %edi
    469d:	5d                   	pop    %ebp
    469e:	c3                   	ret    
    469f:	90                   	nop
    46a0:	85 db                	test   %ebx,%ebx
    46a2:	0f 84 4c fe ff ff    	je     44f4 <loc_get_ids_internal+0x194>
    46a8:	89 1d 9c 5d 02 00    	mov    %ebx,0x25d9c
    46ae:	e9 41 fe ff ff       	jmp    44f4 <loc_get_ids_internal+0x194>
    46b3:	89 1c 24             	mov    %ebx,(%esp)
    46b6:	e8 95 13 01 00       	call   15a50 <async_forget>
    46bb:	83 c4 7c             	add    $0x7c,%esp
    46be:	89 f8                	mov    %edi,%eax
    46c0:	5b                   	pop    %ebx
    46c1:	5e                   	pop    %esi
    46c2:	5f                   	pop    %edi
    46c3:	5d                   	pop    %ebp
    46c4:	c3                   	ret    
    46c5:	bf fe ff ff ff       	mov    $0xfffffffe,%edi
    46ca:	e9 35 ff ff ff       	jmp    4604 <loc_get_ids_internal+0x2a4>
    46cf:	85 db                	test   %ebx,%ebx
    46d1:	0f 84 23 fd ff ff    	je     43fa <loc_get_ids_internal+0x9a>
    46d7:	89 1d 9c 5d 02 00    	mov    %ebx,0x25d9c
    46dd:	e9 18 fd ff ff       	jmp    43fa <loc_get_ids_internal+0x9a>
    46e2:	89 c7                	mov    %eax,%edi
    46e4:	8b 55 08             	mov    0x8(%ebp),%edx
    46e7:	c1 eb 02             	shr    $0x2,%ebx
    46ea:	8b 45 a8             	mov    -0x58(%ebp),%eax
    46ed:	89 1a                	mov    %ebx,(%edx)
    46ef:	89 30                	mov    %esi,(%eax)
    46f1:	e9 0e ff ff ff       	jmp    4604 <loc_get_ids_internal+0x2a4>
    46f6:	8d 76 00             	lea    0x0(%esi),%esi
    46f9:	8d bc 27 00 00 00 00 	lea    0x0(%edi,%eiz,1),%edi

00004700 <loc_exchange_begin_blocking>:
    4700:	55                   	push   %ebp
    4701:	89 e5                	mov    %esp,%ebp
    4703:	53                   	push   %ebx
    4704:	83 ec 14             	sub    $0x14,%esp
    4707:	8b 45 08             	mov    0x8(%ebp),%eax
    470a:	83 f8 01             	cmp    $0x1,%eax
    470d:	74 11                	je     4720 <loc_exchange_begin_blocking+0x20>
    470f:	83 f8 02             	cmp    $0x2,%eax
    4712:	0f 84 b0 00 00 00    	je     47c8 <loc_exchange_begin_blocking+0xc8>
    4718:	83 c4 14             	add    $0x14,%esp
    471b:	31 c0                	xor    %eax,%eax
    471d:	5b                   	pop    %ebx
    471e:	5d                   	pop    %ebp
    471f:	c3                   	ret    
    4720:	c7 04 24 6c 5b 02 00 	movl   $0x25b6c,(%esp)
    4727:	e8 14 64 00 00       	call   ab40 <fibril_mutex_lock>
    472c:	a1 98 5d 02 00       	mov    0x25d98,%eax
    4731:	85 c0                	test   %eax,%eax
    4733:	75 34                	jne    4769 <loc_exchange_begin_blocking+0x69>
    4735:	c7 04 24 7c 5b 02 00 	movl   $0x25b7c,(%esp)
    473c:	8b 1d 94 5d 02 00    	mov    0x25d94,%ebx
    4742:	e8 f9 63 00 00       	call   ab40 <fibril_mutex_lock>
    4747:	a1 98 5d 02 00       	mov    0x25d98,%eax
    474c:	85 c0                	test   %eax,%eax
    474e:	74 68                	je     47b8 <loc_exchange_begin_blocking+0xb8>
    4750:	c7 04 24 7c 5b 02 00 	movl   $0x25b7c,(%esp)
    4757:	e8 04 65 00 00       	call   ac60 <fibril_mutex_unlock>
    475c:	a1 98 5d 02 00       	mov    0x25d98,%eax
    4761:	85 c0                	test   %eax,%eax
    4763:	0f 84 07 01 00 00    	je     4870 <loc_exchange_begin_blocking+0x170>
    4769:	c7 04 24 6c 5b 02 00 	movl   $0x25b6c,(%esp)
    4770:	e8 eb 64 00 00       	call   ac60 <fibril_mutex_unlock>
    4775:	c7 04 24 7c 5b 02 00 	movl   $0x25b7c,(%esp)
    477c:	8b 1d 98 5d 02 00    	mov    0x25d98,%ebx
    4782:	e8 b9 63 00 00       	call   ab40 <fibril_mutex_lock>
    4787:	a1 94 5d 02 00       	mov    0x25d94,%eax
    478c:	85 c0                	test   %eax,%eax
    478e:	0f 84 3c 01 00 00    	je     48d0 <loc_exchange_begin_blocking+0x1d0>
    4794:	c7 04 24 7c 5b 02 00 	movl   $0x25b7c,(%esp)
    479b:	e8 c0 64 00 00       	call   ac60 <fibril_mutex_unlock>
    47a0:	a1 98 5d 02 00       	mov    0x25d98,%eax
    47a5:	89 45 08             	mov    %eax,0x8(%ebp)
    47a8:	83 c4 14             	add    $0x14,%esp
    47ab:	5b                   	pop    %ebx
    47ac:	5d                   	pop    %ebp
    47ad:	e9 de 24 01 00       	jmp    16c90 <async_exchange_begin>
    47b2:	8d b6 00 00 00 00    	lea    0x0(%esi),%esi
    47b8:	85 db                	test   %ebx,%ebx
    47ba:	74 94                	je     4750 <loc_exchange_begin_blocking+0x50>
    47bc:	89 1d 98 5d 02 00    	mov    %ebx,0x25d98
    47c2:	eb 8c                	jmp    4750 <loc_exchange_begin_blocking+0x50>
    47c4:	8d 74 26 00          	lea    0x0(%esi,%eiz,1),%esi
    47c8:	c7 04 24 8c 5b 02 00 	movl   $0x25b8c,(%esp)
    47cf:	e8 6c 63 00 00       	call   ab40 <fibril_mutex_lock>
    47d4:	a1 a0 5d 02 00       	mov    0x25da0,%eax
    47d9:	85 c0                	test   %eax,%eax
    47db:	75 35                	jne    4812 <loc_exchange_begin_blocking+0x112>
    47dd:	c7 04 24 9c 5b 02 00 	movl   $0x25b9c,(%esp)
    47e4:	8b 1d 9c 5d 02 00    	mov    0x25d9c,%ebx
    47ea:	e8 51 63 00 00       	call   ab40 <fibril_mutex_lock>
    47ef:	a1 a0 5d 02 00       	mov    0x25da0,%eax
    47f4:	85 c0                	test   %eax,%eax
    47f6:	74 68                	je     4860 <loc_exchange_begin_blocking+0x160>
    47f8:	c7 04 24 9c 5b 02 00 	movl   $0x25b9c,(%esp)
    47ff:	e8 5c 64 00 00       	call   ac60 <fibril_mutex_unlock>
    4804:	8b 1d a0 5d 02 00    	mov    0x25da0,%ebx
    480a:	85 db                	test   %ebx,%ebx
    480c:	0f 84 8e 00 00 00    	je     48a0 <loc_exchange_begin_blocking+0x1a0>
    4812:	c7 04 24 8c 5b 02 00 	movl   $0x25b8c,(%esp)
    4819:	e8 42 64 00 00       	call   ac60 <fibril_mutex_unlock>
    481e:	c7 04 24 9c 5b 02 00 	movl   $0x25b9c,(%esp)
    4825:	8b 1d a0 5d 02 00    	mov    0x25da0,%ebx
    482b:	e8 10 63 00 00       	call   ab40 <fibril_mutex_lock>
    4830:	8b 0d 9c 5d 02 00    	mov    0x25d9c,%ecx
    4836:	85 c9                	test   %ecx,%ecx
    4838:	0f 84 aa 00 00 00    	je     48e8 <loc_exchange_begin_blocking+0x1e8>
    483e:	c7 04 24 9c 5b 02 00 	movl   $0x25b9c,(%esp)
    4845:	e8 16 64 00 00       	call   ac60 <fibril_mutex_unlock>
    484a:	a1 a0 5d 02 00       	mov    0x25da0,%eax
    484f:	89 45 08             	mov    %eax,0x8(%ebp)
    4852:	83 c4 14             	add    $0x14,%esp
    4855:	5b                   	pop    %ebx
    4856:	5d                   	pop    %ebp
    4857:	e9 34 24 01 00       	jmp    16c90 <async_exchange_begin>
    485c:	8d 74 26 00          	lea    0x0(%esi,%eiz,1),%esi
    4860:	85 db                	test   %ebx,%ebx
    4862:	74 94                	je     47f8 <loc_exchange_begin_blocking+0xf8>
    4864:	89 1d a0 5d 02 00    	mov    %ebx,0x25da0
    486a:	eb 8c                	jmp    47f8 <loc_exchange_begin_blocking+0xf8>
    486c:	8d 74 26 00          	lea    0x0(%esi,%eiz,1),%esi
    4870:	c7 44 24 0c 00 00 00 	movl   $0x0,0xc(%esp)
    4877:	00 
    4878:	c7 44 24 08 01 00 00 	movl   $0x1,0x8(%esp)
    487f:	00 
    4880:	c7 44 24 04 6c 6f 63 	movl   $0x20636f6c,0x4(%esp)
    4887:	20 
    4888:	c7 04 24 02 00 00 00 	movl   $0x2,(%esp)
    488f:	e8 4c f7 00 00       	call   13fe0 <service_connect_blocking>
    4894:	a3 98 5d 02 00       	mov    %eax,0x25d98
    4899:	e9 93 fe ff ff       	jmp    4731 <loc_exchange_begin_blocking+0x31>
    489e:	66 90                	xchg   %ax,%ax
    48a0:	c7 44 24 0c 00 00 00 	movl   $0x0,0xc(%esp)
    48a7:	00 
    48a8:	c7 44 24 08 02 00 00 	movl   $0x2,0x8(%esp)
    48af:	00 
    48b0:	c7 44 24 04 6c 6f 63 	movl   $0x20636f6c,0x4(%esp)
    48b7:	20 
    48b8:	c7 04 24 02 00 00 00 	movl   $0x2,(%esp)
    48bf:	e8 1c f7 00 00       	call   13fe0 <service_connect_blocking>
    48c4:	a3 a0 5d 02 00       	mov    %eax,0x25da0
    48c9:	e9 0b ff ff ff       	jmp    47d9 <loc_exchange_begin_blocking+0xd9>
    48ce:	66 90                	xchg   %ax,%ax
    48d0:	85 db                	test   %ebx,%ebx
    48d2:	0f 84 bc fe ff ff    	je     4794 <loc_exchange_begin_blocking+0x94>
    48d8:	89 1d 94 5d 02 00    	mov    %ebx,0x25d94
    48de:	e9 b1 fe ff ff       	jmp    4794 <loc_exchange_begin_blocking+0x94>
    48e3:	90                   	nop
    48e4:	8d 74 26 00          	lea    0x0(%esi,%eiz,1),%esi
    48e8:	85 db                	test   %ebx,%ebx
    48ea:	0f 84 4e ff ff ff    	je     483e <loc_exchange_begin_blocking+0x13e>
    48f0:	89 1d 9c 5d 02 00    	mov    %ebx,0x25d9c
    48f6:	e9 43 ff ff ff       	jmp    483e <loc_exchange_begin_blocking+0x13e>
    48fb:	90                   	nop
    48fc:	8d 74 26 00          	lea    0x0(%esi,%eiz,1),%esi

00004900 <loc_exchange_begin>:
    4900:	55                   	push   %ebp
    4901:	89 e5                	mov    %esp,%ebp
    4903:	83 ec 18             	sub    $0x18,%esp
    4906:	8b 45 08             	mov    0x8(%ebp),%eax
    4909:	83 f8 01             	cmp    $0x1,%eax
    490c:	74 0a                	je     4918 <loc_exchange_begin+0x18>
    490e:	83 f8 02             	cmp    $0x2,%eax
    4911:	74 3d                	je     4950 <loc_exchange_begin+0x50>
    4913:	31 c0                	xor    %eax,%eax
    4915:	c9                   	leave  
    4916:	c3                   	ret    
    4917:	90                   	nop
    4918:	c7 04 24 7c 5b 02 00 	movl   $0x25b7c,(%esp)
    491f:	e8 1c 62 00 00       	call   ab40 <fibril_mutex_lock>
    4924:	a1 94 5d 02 00       	mov    0x25d94,%eax
    4929:	85 c0                	test   %eax,%eax
    492b:	74 5b                	je     4988 <loc_exchange_begin+0x88>
    492d:	c7 04 24 7c 5b 02 00 	movl   $0x25b7c,(%esp)
    4934:	e8 27 63 00 00       	call   ac60 <fibril_mutex_unlock>
    4939:	a1 94 5d 02 00       	mov    0x25d94,%eax
    493e:	85 c0                	test   %eax,%eax
    4940:	74 d1                	je     4913 <loc_exchange_begin+0x13>
    4942:	89 45 08             	mov    %eax,0x8(%ebp)
    4945:	c9                   	leave  
    4946:	e9 45 23 01 00       	jmp    16c90 <async_exchange_begin>
    494b:	90                   	nop
    494c:	8d 74 26 00          	lea    0x0(%esi,%eiz,1),%esi
    4950:	c7 04 24 9c 5b 02 00 	movl   $0x25b9c,(%esp)
    4957:	e8 e4 61 00 00       	call   ab40 <fibril_mutex_lock>
    495c:	a1 9c 5d 02 00       	mov    0x25d9c,%eax
    4961:	85 c0                	test   %eax,%eax
    4963:	74 53                	je     49b8 <loc_exchange_begin+0xb8>
    4965:	c7 04 24 9c 5b 02 00 	movl   $0x25b9c,(%esp)
    496c:	e8 ef 62 00 00       	call   ac60 <fibril_mutex_unlock>
    4971:	a1 9c 5d 02 00       	mov    0x25d9c,%eax
    4976:	85 c0                	test   %eax,%eax
    4978:	74 99                	je     4913 <loc_exchange_begin+0x13>
    497a:	89 45 08             	mov    %eax,0x8(%ebp)
    497d:	c9                   	leave  
    497e:	e9 0d 23 01 00       	jmp    16c90 <async_exchange_begin>
    4983:	90                   	nop
    4984:	8d 74 26 00          	lea    0x0(%esi,%eiz,1),%esi
    4988:	c7 44 24 0c 00 00 00 	movl   $0x0,0xc(%esp)
    498f:	00 
    4990:	c7 44 24 08 01 00 00 	movl   $0x1,0x8(%esp)
    4997:	00 
    4998:	c7 44 24 04 6c 6f 63 	movl   $0x20636f6c,0x4(%esp)
    499f:	20 
    49a0:	c7 04 24 02 00 00 00 	movl   $0x2,(%esp)
    49a7:	e8 b4 f5 00 00       	call   13f60 <service_connect>
    49ac:	a3 94 5d 02 00       	mov    %eax,0x25d94
    49b1:	e9 77 ff ff ff       	jmp    492d <loc_exchange_begin+0x2d>
    49b6:	66 90                	xchg   %ax,%ax
    49b8:	c7 44 24 0c 00 00 00 	movl   $0x0,0xc(%esp)
    49bf:	00 
    49c0:	c7 44 24 08 02 00 00 	movl   $0x2,0x8(%esp)
    49c7:	00 
    49c8:	c7 44 24 04 6c 6f 63 	movl   $0x20636f6c,0x4(%esp)
    49cf:	20 
    49d0:	c7 04 24 02 00 00 00 	movl   $0x2,(%esp)
    49d7:	e8 84 f5 00 00       	call   13f60 <service_connect>
    49dc:	a3 9c 5d 02 00       	mov    %eax,0x25d9c
    49e1:	eb 82                	jmp    4965 <loc_exchange_begin+0x65>
    49e3:	8d b6 00 00 00 00    	lea    0x0(%esi),%esi
    49e9:	8d bc 27 00 00 00 00 	lea    0x0(%edi,%eiz,1),%edi

000049f0 <loc_exchange_end>:
    49f0:	55                   	push   %ebp
    49f1:	89 e5                	mov    %esp,%ebp
    49f3:	5d                   	pop    %ebp
    49f4:	e9 07 26 01 00       	jmp    17000 <async_exchange_end>
    49f9:	8d b4 26 00 00 00 00 	lea    0x0(%esi,%eiz,1),%esi

00004a00 <loc_server_register>:
    4a00:	55                   	push   %ebp
    4a01:	89 e5                	mov    %esp,%ebp
    4a03:	57                   	push   %edi
    4a04:	56                   	push   %esi
    4a05:	53                   	push   %ebx
    4a06:	83 ec 5c             	sub    $0x5c,%esp
    4a09:	8b 75 08             	mov    0x8(%ebp),%esi
    4a0c:	c7 04 24 6c 5b 02 00 	movl   $0x25b6c,(%esp)
    4a13:	e8 28 61 00 00       	call   ab40 <fibril_mutex_lock>
    4a18:	a1 98 5d 02 00       	mov    0x25d98,%eax
    4a1d:	85 c0                	test   %eax,%eax
    4a1f:	75 38                	jne    4a59 <loc_server_register+0x59>
    4a21:	c7 04 24 7c 5b 02 00 	movl   $0x25b7c,(%esp)
    4a28:	8b 1d 94 5d 02 00    	mov    0x25d94,%ebx
    4a2e:	e8 0d 61 00 00       	call   ab40 <fibril_mutex_lock>
    4a33:	a1 98 5d 02 00       	mov    0x25d98,%eax
    4a38:	85 c0                	test   %eax,%eax
    4a3a:	0f 84 58 01 00 00    	je     4b98 <loc_server_register+0x198>
    4a40:	c7 04 24 7c 5b 02 00 	movl   $0x25b7c,(%esp)
    4a47:	e8 14 62 00 00       	call   ac60 <fibril_mutex_unlock>
    4a4c:	a1 98 5d 02 00       	mov    0x25d98,%eax
    4a51:	85 c0                	test   %eax,%eax
    4a53:	0f 84 57 01 00 00    	je     4bb0 <loc_server_register+0x1b0>
    4a59:	c7 04 24 6c 5b 02 00 	movl   $0x25b6c,(%esp)
    4a60:	e8 fb 61 00 00       	call   ac60 <fibril_mutex_unlock>
    4a65:	c7 04 24 7c 5b 02 00 	movl   $0x25b7c,(%esp)
    4a6c:	8b 1d 98 5d 02 00    	mov    0x25d98,%ebx
    4a72:	e8 c9 60 00 00       	call   ab40 <fibril_mutex_lock>
    4a77:	8b 3d 94 5d 02 00    	mov    0x25d94,%edi
    4a7d:	85 ff                	test   %edi,%edi
    4a7f:	0f 84 73 01 00 00    	je     4bf8 <loc_server_register+0x1f8>
    4a85:	c7 04 24 7c 5b 02 00 	movl   $0x25b7c,(%esp)
    4a8c:	e8 cf 61 00 00       	call   ac60 <fibril_mutex_unlock>
    4a91:	a1 98 5d 02 00       	mov    0x25d98,%eax
    4a96:	89 04 24             	mov    %eax,(%esp)
    4a99:	e8 f2 21 01 00       	call   16c90 <async_exchange_begin>
    4a9e:	c7 44 24 14 00 00 00 	movl   $0x0,0x14(%esp)
    4aa5:	00 
    4aa6:	89 c3                	mov    %eax,%ebx
    4aa8:	8d 45 c4             	lea    -0x3c(%ebp),%eax
    4aab:	89 44 24 18          	mov    %eax,0x18(%esp)
    4aaf:	c7 44 24 10 00 00 00 	movl   $0x0,0x10(%esp)
    4ab6:	00 
    4ab7:	c7 44 24 0c 00 00 00 	movl   $0x0,0xc(%esp)
    4abe:	00 
    4abf:	c7 44 24 08 00 00 00 	movl   $0x0,0x8(%esp)
    4ac6:	00 
    4ac7:	c7 44 24 04 00 04 00 	movl   $0x400,0x4(%esp)
    4ace:	00 
    4acf:	89 1c 24             	mov    %ebx,(%esp)
    4ad2:	e8 59 0b 01 00       	call   15630 <async_send_fast>
    4ad7:	89 34 24             	mov    %esi,(%esp)
    4ada:	89 c7                	mov    %eax,%edi
    4adc:	e8 3f 2e 00 00       	call   7920 <str_size>
    4ae1:	89 74 24 04          	mov    %esi,0x4(%esp)
    4ae5:	89 44 24 08          	mov    %eax,0x8(%esp)
    4ae9:	89 1c 24             	mov    %ebx,(%esp)
    4aec:	e8 8f 30 01 00       	call   17b80 <async_data_write_start>
    4af1:	89 1c 24             	mov    %ebx,(%esp)
    4af4:	89 45 c0             	mov    %eax,-0x40(%ebp)
    4af7:	e8 04 25 01 00       	call   17000 <async_exchange_end>
    4afc:	8b 4d c0             	mov    -0x40(%ebp),%ecx
    4aff:	85 c9                	test   %ecx,%ecx
    4b01:	0f 85 d9 00 00 00    	jne    4be0 <loc_server_register+0x1e0>
    4b07:	c7 04 24 7c 5b 02 00 	movl   $0x25b7c,(%esp)
    4b0e:	e8 2d 60 00 00       	call   ab40 <fibril_mutex_lock>
    4b13:	8b 15 94 5d 02 00    	mov    0x25d94,%edx
    4b19:	85 d2                	test   %edx,%edx
    4b1b:	0f 84 ea 00 00 00    	je     4c0b <loc_server_register+0x20b>
    4b21:	c7 04 24 7c 5b 02 00 	movl   $0x25b7c,(%esp)
    4b28:	e8 33 61 00 00       	call   ac60 <fibril_mutex_unlock>
    4b2d:	a1 94 5d 02 00       	mov    0x25d94,%eax
    4b32:	85 c0                	test   %eax,%eax
    4b34:	0f 84 ff 00 00 00    	je     4c39 <loc_server_register+0x239>
    4b3a:	89 04 24             	mov    %eax,(%esp)
    4b3d:	e8 4e 21 01 00       	call   16c90 <async_exchange_begin>
    4b42:	89 c3                	mov    %eax,%ebx
    4b44:	89 1c 24             	mov    %ebx,(%esp)
    4b47:	c7 44 24 14 00 00 00 	movl   $0x0,0x14(%esp)
    4b4e:	00 
    4b4f:	c7 44 24 10 00 00 00 	movl   $0x0,0x10(%esp)
    4b56:	00 
    4b57:	c7 44 24 0c 00 00 00 	movl   $0x0,0xc(%esp)
    4b5e:	00 
    4b5f:	c7 44 24 08 00 00 00 	movl   $0x0,0x8(%esp)
    4b66:	00 
    4b67:	c7 44 24 04 00 00 00 	movl   $0x0,0x4(%esp)
    4b6e:	00 
    4b6f:	e8 bc 18 01 00       	call   16430 <async_connect_to_me>
    4b74:	89 1c 24             	mov    %ebx,(%esp)
    4b77:	e8 84 24 01 00       	call   17000 <async_exchange_end>
    4b7c:	8d 45 c0             	lea    -0x40(%ebp),%eax
    4b7f:	89 44 24 04          	mov    %eax,0x4(%esp)
    4b83:	89 3c 24             	mov    %edi,(%esp)
    4b86:	e8 75 0c 01 00       	call   15800 <async_wait_for>
    4b8b:	8b 45 c0             	mov    -0x40(%ebp),%eax
    4b8e:	83 c4 5c             	add    $0x5c,%esp
    4b91:	5b                   	pop    %ebx
    4b92:	5e                   	pop    %esi
    4b93:	5f                   	pop    %edi
    4b94:	5d                   	pop    %ebp
    4b95:	c3                   	ret    
    4b96:	66 90                	xchg   %ax,%ax
    4b98:	85 db                	test   %ebx,%ebx
    4b9a:	0f 84 a0 fe ff ff    	je     4a40 <loc_server_register+0x40>
    4ba0:	89 1d 98 5d 02 00    	mov    %ebx,0x25d98
    4ba6:	e9 95 fe ff ff       	jmp    4a40 <loc_server_register+0x40>
    4bab:	90                   	nop
    4bac:	8d 74 26 00          	lea    0x0(%esi,%eiz,1),%esi
    4bb0:	c7 44 24 0c 00 00 00 	movl   $0x0,0xc(%esp)
    4bb7:	00 
    4bb8:	c7 44 24 08 01 00 00 	movl   $0x1,0x8(%esp)
    4bbf:	00 
    4bc0:	c7 44 24 04 6c 6f 63 	movl   $0x20636f6c,0x4(%esp)
    4bc7:	20 
    4bc8:	c7 04 24 02 00 00 00 	movl   $0x2,(%esp)
    4bcf:	e8 0c f4 00 00       	call   13fe0 <service_connect_blocking>
    4bd4:	a3 98 5d 02 00       	mov    %eax,0x25d98
    4bd9:	e9 3f fe ff ff       	jmp    4a1d <loc_server_register+0x1d>
    4bde:	66 90                	xchg   %ax,%ax
    4be0:	89 3c 24             	mov    %edi,(%esp)
    4be3:	e8 68 0e 01 00       	call   15a50 <async_forget>
    4be8:	8b 45 c0             	mov    -0x40(%ebp),%eax
    4beb:	83 c4 5c             	add    $0x5c,%esp
    4bee:	5b                   	pop    %ebx
    4bef:	5e                   	pop    %esi
    4bf0:	5f                   	pop    %edi
    4bf1:	5d                   	pop    %ebp
    4bf2:	c3                   	ret    
    4bf3:	90                   	nop
    4bf4:	8d 74 26 00          	lea    0x0(%esi,%eiz,1),%esi
    4bf8:	85 db                	test   %ebx,%ebx
    4bfa:	0f 84 85 fe ff ff    	je     4a85 <loc_server_register+0x85>
    4c00:	89 1d 94 5d 02 00    	mov    %ebx,0x25d94
    4c06:	e9 7a fe ff ff       	jmp    4a85 <loc_server_register+0x85>
    4c0b:	c7 44 24 0c 00 00 00 	movl   $0x0,0xc(%esp)
    4c12:	00 
    4c13:	c7 44 24 08 01 00 00 	movl   $0x1,0x8(%esp)
    4c1a:	00 
    4c1b:	c7 44 24 04 6c 6f 63 	movl   $0x20636f6c,0x4(%esp)
    4c22:	20 
    4c23:	c7 04 24 02 00 00 00 	movl   $0x2,(%esp)
    4c2a:	e8 31 f3 00 00       	call   13f60 <service_connect>
    4c2f:	a3 94 5d 02 00       	mov    %eax,0x25d94
    4c34:	e9 e8 fe ff ff       	jmp    4b21 <loc_server_register+0x121>
    4c39:	31 db                	xor    %ebx,%ebx
    4c3b:	e9 04 ff ff ff       	jmp    4b44 <loc_server_register+0x144>

00004c40 <loc_service_register_with_iface>:
    4c40:	55                   	push   %ebp
    4c41:	89 e5                	mov    %esp,%ebp
    4c43:	57                   	push   %edi
    4c44:	56                   	push   %esi
    4c45:	53                   	push   %ebx
    4c46:	83 ec 5c             	sub    $0x5c,%esp
    4c49:	8b 75 08             	mov    0x8(%ebp),%esi
    4c4c:	c7 04 24 6c 5b 02 00 	movl   $0x25b6c,(%esp)
    4c53:	e8 e8 5e 00 00       	call   ab40 <fibril_mutex_lock>
    4c58:	a1 98 5d 02 00       	mov    0x25d98,%eax
    4c5d:	85 c0                	test   %eax,%eax
    4c5f:	75 38                	jne    4c99 <loc_service_register_with_iface+0x59>
    4c61:	c7 04 24 7c 5b 02 00 	movl   $0x25b7c,(%esp)
    4c68:	8b 1d 94 5d 02 00    	mov    0x25d94,%ebx
    4c6e:	e8 cd 5e 00 00       	call   ab40 <fibril_mutex_lock>
    4c73:	a1 98 5d 02 00       	mov    0x25d98,%eax
    4c78:	85 c0                	test   %eax,%eax
    4c7a:	0f 84 f8 00 00 00    	je     4d78 <loc_service_register_with_iface+0x138>
    4c80:	c7 04 24 7c 5b 02 00 	movl   $0x25b7c,(%esp)
    4c87:	e8 d4 5f 00 00       	call   ac60 <fibril_mutex_unlock>
    4c8c:	a1 98 5d 02 00       	mov    0x25d98,%eax
    4c91:	85 c0                	test   %eax,%eax
    4c93:	0f 84 f7 00 00 00    	je     4d90 <loc_service_register_with_iface+0x150>
    4c99:	c7 04 24 6c 5b 02 00 	movl   $0x25b6c,(%esp)
    4ca0:	e8 bb 5f 00 00       	call   ac60 <fibril_mutex_unlock>
    4ca5:	c7 04 24 7c 5b 02 00 	movl   $0x25b7c,(%esp)
    4cac:	8b 1d 98 5d 02 00    	mov    0x25d98,%ebx
    4cb2:	e8 89 5e 00 00       	call   ab40 <fibril_mutex_lock>
    4cb7:	8b 3d 94 5d 02 00    	mov    0x25d94,%edi
    4cbd:	85 ff                	test   %edi,%edi
    4cbf:	0f 84 33 01 00 00    	je     4df8 <loc_service_register_with_iface+0x1b8>
    4cc5:	c7 04 24 7c 5b 02 00 	movl   $0x25b7c,(%esp)
    4ccc:	e8 8f 5f 00 00       	call   ac60 <fibril_mutex_unlock>
    4cd1:	a1 98 5d 02 00       	mov    0x25d98,%eax
    4cd6:	89 04 24             	mov    %eax,(%esp)
    4cd9:	e8 b2 1f 01 00       	call   16c90 <async_exchange_begin>
    4cde:	c7 44 24 14 00 00 00 	movl   $0x0,0x14(%esp)
    4ce5:	00 
    4ce6:	89 c7                	mov    %eax,%edi
    4ce8:	8d 45 c4             	lea    -0x3c(%ebp),%eax
    4ceb:	89 44 24 18          	mov    %eax,0x18(%esp)
    4cef:	8b 45 10             	mov    0x10(%ebp),%eax
    4cf2:	c7 44 24 10 00 00 00 	movl   $0x0,0x10(%esp)
    4cf9:	00 
    4cfa:	c7 44 24 0c 00 00 00 	movl   $0x0,0xc(%esp)
    4d01:	00 
    4d02:	89 44 24 08          	mov    %eax,0x8(%esp)
    4d06:	c7 44 24 04 03 04 00 	movl   $0x403,0x4(%esp)
    4d0d:	00 
    4d0e:	89 3c 24             	mov    %edi,(%esp)
    4d11:	e8 1a 09 01 00       	call   15630 <async_send_fast>
    4d16:	89 34 24             	mov    %esi,(%esp)
    4d19:	89 c3                	mov    %eax,%ebx
    4d1b:	e8 00 2c 00 00       	call   7920 <str_size>
    4d20:	89 74 24 04          	mov    %esi,0x4(%esp)
    4d24:	89 44 24 08          	mov    %eax,0x8(%esp)
    4d28:	89 3c 24             	mov    %edi,(%esp)
    4d2b:	e8 50 2e 01 00       	call   17b80 <async_data_write_start>
    4d30:	89 3c 24             	mov    %edi,(%esp)
    4d33:	89 45 c0             	mov    %eax,-0x40(%ebp)
    4d36:	e8 c5 22 01 00       	call   17000 <async_exchange_end>
    4d3b:	8b 4d c0             	mov    -0x40(%ebp),%ecx
    4d3e:	85 c9                	test   %ecx,%ecx
    4d40:	0f 85 9a 00 00 00    	jne    4de0 <loc_service_register_with_iface+0x1a0>
    4d46:	8d 45 c0             	lea    -0x40(%ebp),%eax
    4d49:	89 1c 24             	mov    %ebx,(%esp)
    4d4c:	89 44 24 04          	mov    %eax,0x4(%esp)
    4d50:	e8 ab 0a 01 00       	call   15800 <async_wait_for>
    4d55:	8b 45 c0             	mov    -0x40(%ebp),%eax
    4d58:	85 c0                	test   %eax,%eax
    4d5a:	74 64                	je     4dc0 <loc_service_register_with_iface+0x180>
    4d5c:	8b 55 0c             	mov    0xc(%ebp),%edx
    4d5f:	85 d2                	test   %edx,%edx
    4d61:	74 09                	je     4d6c <loc_service_register_with_iface+0x12c>
    4d63:	8b 55 0c             	mov    0xc(%ebp),%edx
    4d66:	c7 02 ff ff ff ff    	movl   $0xffffffff,(%edx)
    4d6c:	83 c4 5c             	add    $0x5c,%esp
    4d6f:	5b                   	pop    %ebx
    4d70:	5e                   	pop    %esi
    4d71:	5f                   	pop    %edi
    4d72:	5d                   	pop    %ebp
    4d73:	c3                   	ret    
    4d74:	8d 74 26 00          	lea    0x0(%esi,%eiz,1),%esi
    4d78:	85 db                	test   %ebx,%ebx
    4d7a:	0f 84 00 ff ff ff    	je     4c80 <loc_service_register_with_iface+0x40>
    4d80:	89 1d 98 5d 02 00    	mov    %ebx,0x25d98
    4d86:	e9 f5 fe ff ff       	jmp    4c80 <loc_service_register_with_iface+0x40>
    4d8b:	90                   	nop
    4d8c:	8d 74 26 00          	lea    0x0(%esi,%eiz,1),%esi
    4d90:	c7 44 24 0c 00 00 00 	movl   $0x0,0xc(%esp)
    4d97:	00 
    4d98:	c7 44 24 08 01 00 00 	movl   $0x1,0x8(%esp)
    4d9f:	00 
    4da0:	c7 44 24 04 6c 6f 63 	movl   $0x20636f6c,0x4(%esp)
    4da7:	20 
    4da8:	c7 04 24 02 00 00 00 	movl   $0x2,(%esp)
    4daf:	e8 2c f2 00 00       	call   13fe0 <service_connect_blocking>
    4db4:	a3 98 5d 02 00       	mov    %eax,0x25d98
    4db9:	e9 9f fe ff ff       	jmp    4c5d <loc_service_register_with_iface+0x1d>
    4dbe:	66 90                	xchg   %ax,%ax
    4dc0:	8b 45 0c             	mov    0xc(%ebp),%eax
    4dc3:	85 c0                	test   %eax,%eax
    4dc5:	74 08                	je     4dcf <loc_service_register_with_iface+0x18f>
    4dc7:	8b 55 0c             	mov    0xc(%ebp),%edx
    4dca:	8b 45 c8             	mov    -0x38(%ebp),%eax
    4dcd:	89 02                	mov    %eax,(%edx)
    4dcf:	83 c4 5c             	add    $0x5c,%esp
    4dd2:	31 c0                	xor    %eax,%eax
    4dd4:	5b                   	pop    %ebx
    4dd5:	5e                   	pop    %esi
    4dd6:	5f                   	pop    %edi
    4dd7:	5d                   	pop    %ebp
    4dd8:	c3                   	ret    
    4dd9:	8d b4 26 00 00 00 00 	lea    0x0(%esi,%eiz,1),%esi
    4de0:	89 1c 24             	mov    %ebx,(%esp)
    4de3:	e8 68 0c 01 00       	call   15a50 <async_forget>
    4de8:	8b 45 c0             	mov    -0x40(%ebp),%eax
    4deb:	83 c4 5c             	add    $0x5c,%esp
    4dee:	5b                   	pop    %ebx
    4def:	5e                   	pop    %esi
    4df0:	5f                   	pop    %edi
    4df1:	5d                   	pop    %ebp
    4df2:	c3                   	ret    
    4df3:	90                   	nop
    4df4:	8d 74 26 00          	lea    0x0(%esi,%eiz,1),%esi
    4df8:	85 db                	test   %ebx,%ebx
    4dfa:	0f 84 c5 fe ff ff    	je     4cc5 <loc_service_register_with_iface+0x85>
    4e00:	89 1d 94 5d 02 00    	mov    %ebx,0x25d94
    4e06:	e9 ba fe ff ff       	jmp    4cc5 <loc_service_register_with_iface+0x85>
    4e0b:	90                   	nop
    4e0c:	8d 74 26 00          	lea    0x0(%esi,%eiz,1),%esi

00004e10 <loc_service_register>:
    4e10:	55                   	push   %ebp
    4e11:	89 e5                	mov    %esp,%ebp
    4e13:	57                   	push   %edi
    4e14:	56                   	push   %esi
    4e15:	53                   	push   %ebx
    4e16:	83 ec 5c             	sub    $0x5c,%esp
    4e19:	8b 75 08             	mov    0x8(%ebp),%esi
    4e1c:	c7 04 24 6c 5b 02 00 	movl   $0x25b6c,(%esp)
    4e23:	e8 18 5d 00 00       	call   ab40 <fibril_mutex_lock>
    4e28:	a1 98 5d 02 00       	mov    0x25d98,%eax
    4e2d:	85 c0                	test   %eax,%eax
    4e2f:	75 38                	jne    4e69 <loc_service_register+0x59>
    4e31:	c7 04 24 7c 5b 02 00 	movl   $0x25b7c,(%esp)
    4e38:	8b 1d 94 5d 02 00    	mov    0x25d94,%ebx
    4e3e:	e8 fd 5c 00 00       	call   ab40 <fibril_mutex_lock>
    4e43:	a1 98 5d 02 00       	mov    0x25d98,%eax
    4e48:	85 c0                	test   %eax,%eax
    4e4a:	0f 84 f8 00 00 00    	je     4f48 <loc_service_register+0x138>
    4e50:	c7 04 24 7c 5b 02 00 	movl   $0x25b7c,(%esp)
    4e57:	e8 04 5e 00 00       	call   ac60 <fibril_mutex_unlock>
    4e5c:	a1 98 5d 02 00       	mov    0x25d98,%eax
    4e61:	85 c0                	test   %eax,%eax
    4e63:	0f 84 f7 00 00 00    	je     4f60 <loc_service_register+0x150>
    4e69:	c7 04 24 6c 5b 02 00 	movl   $0x25b6c,(%esp)
    4e70:	e8 eb 5d 00 00       	call   ac60 <fibril_mutex_unlock>
    4e75:	c7 04 24 7c 5b 02 00 	movl   $0x25b7c,(%esp)
    4e7c:	8b 1d 98 5d 02 00    	mov    0x25d98,%ebx
    4e82:	e8 b9 5c 00 00       	call   ab40 <fibril_mutex_lock>
    4e87:	8b 3d 94 5d 02 00    	mov    0x25d94,%edi
    4e8d:	85 ff                	test   %edi,%edi
    4e8f:	0f 84 33 01 00 00    	je     4fc8 <loc_service_register+0x1b8>
    4e95:	c7 04 24 7c 5b 02 00 	movl   $0x25b7c,(%esp)
    4e9c:	e8 bf 5d 00 00       	call   ac60 <fibril_mutex_unlock>
    4ea1:	a1 98 5d 02 00       	mov    0x25d98,%eax
    4ea6:	89 04 24             	mov    %eax,(%esp)
    4ea9:	e8 e2 1d 01 00       	call   16c90 <async_exchange_begin>
    4eae:	c7 44 24 14 00 00 00 	movl   $0x0,0x14(%esp)
    4eb5:	00 
    4eb6:	89 c7                	mov    %eax,%edi
    4eb8:	8d 45 c4             	lea    -0x3c(%ebp),%eax
    4ebb:	89 44 24 18          	mov    %eax,0x18(%esp)
    4ebf:	c7 44 24 10 00 00 00 	movl   $0x0,0x10(%esp)
    4ec6:	00 
    4ec7:	c7 44 24 0c 00 00 00 	movl   $0x0,0xc(%esp)
    4ece:	00 
    4ecf:	c7 44 24 08 00 00 00 	movl   $0x0,0x8(%esp)
    4ed6:	00 
    4ed7:	c7 44 24 04 03 04 00 	movl   $0x403,0x4(%esp)
    4ede:	00 
    4edf:	89 3c 24             	mov    %edi,(%esp)
    4ee2:	e8 49 07 01 00       	call   15630 <async_send_fast>
    4ee7:	89 34 24             	mov    %esi,(%esp)
    4eea:	89 c3                	mov    %eax,%ebx
    4eec:	e8 2f 2a 00 00       	call   7920 <str_size>
    4ef1:	89 74 24 04          	mov    %esi,0x4(%esp)
    4ef5:	89 44 24 08          	mov    %eax,0x8(%esp)
    4ef9:	89 3c 24             	mov    %edi,(%esp)
    4efc:	e8 7f 2c 01 00       	call   17b80 <async_data_write_start>
    4f01:	89 3c 24             	mov    %edi,(%esp)
    4f04:	89 45 c0             	mov    %eax,-0x40(%ebp)
    4f07:	e8 f4 20 01 00       	call   17000 <async_exchange_end>
    4f0c:	8b 4d c0             	mov    -0x40(%ebp),%ecx
    4f0f:	85 c9                	test   %ecx,%ecx
    4f11:	0f 85 99 00 00 00    	jne    4fb0 <loc_service_register+0x1a0>
    4f17:	8d 45 c0             	lea    -0x40(%ebp),%eax
    4f1a:	89 1c 24             	mov    %ebx,(%esp)
    4f1d:	89 44 24 04          	mov    %eax,0x4(%esp)
    4f21:	e8 da 08 01 00       	call   15800 <async_wait_for>
    4f26:	8b 45 c0             	mov    -0x40(%ebp),%eax
    4f29:	85 c0                	test   %eax,%eax
    4f2b:	74 63                	je     4f90 <loc_service_register+0x180>
    4f2d:	8b 55 0c             	mov    0xc(%ebp),%edx
    4f30:	85 d2                	test   %edx,%edx
    4f32:	74 09                	je     4f3d <loc_service_register+0x12d>
    4f34:	8b 55 0c             	mov    0xc(%ebp),%edx
    4f37:	c7 02 ff ff ff ff    	movl   $0xffffffff,(%edx)
    4f3d:	83 c4 5c             	add    $0x5c,%esp
    4f40:	5b                   	pop    %ebx
    4f41:	5e                   	pop    %esi
    4f42:	5f                   	pop    %edi
    4f43:	5d                   	pop    %ebp
    4f44:	c3                   	ret    
    4f45:	8d 76 00             	lea    0x0(%esi),%esi
    4f48:	85 db                	test   %ebx,%ebx
    4f4a:	0f 84 00 ff ff ff    	je     4e50 <loc_service_register+0x40>
    4f50:	89 1d 98 5d 02 00    	mov    %ebx,0x25d98
    4f56:	e9 f5 fe ff ff       	jmp    4e50 <loc_service_register+0x40>
    4f5b:	90                   	nop
    4f5c:	8d 74 26 00          	lea    0x0(%esi,%eiz,1),%esi
    4f60:	c7 44 24 0c 00 00 00 	movl   $0x0,0xc(%esp)
    4f67:	00 
    4f68:	c7 44 24 08 01 00 00 	movl   $0x1,0x8(%esp)
    4f6f:	00 
    4f70:	c7 44 24 04 6c 6f 63 	movl   $0x20636f6c,0x4(%esp)
    4f77:	20 
    4f78:	c7 04 24 02 00 00 00 	movl   $0x2,(%esp)
    4f7f:	e8 5c f0 00 00       	call   13fe0 <service_connect_blocking>
    4f84:	a3 98 5d 02 00       	mov    %eax,0x25d98
    4f89:	e9 9f fe ff ff       	jmp    4e2d <loc_service_register+0x1d>
    4f8e:	66 90                	xchg   %ax,%ax
    4f90:	8b 45 0c             	mov    0xc(%ebp),%eax
    4f93:	85 c0                	test   %eax,%eax
    4f95:	74 08                	je     4f9f <loc_service_register+0x18f>
    4f97:	8b 55 0c             	mov    0xc(%ebp),%edx
    4f9a:	8b 45 c8             	mov    -0x38(%ebp),%eax
    4f9d:	89 02                	mov    %eax,(%edx)
    4f9f:	83 c4 5c             	add    $0x5c,%esp
    4fa2:	31 c0                	xor    %eax,%eax
    4fa4:	5b                   	pop    %ebx
    4fa5:	5e                   	pop    %esi
    4fa6:	5f                   	pop    %edi
    4fa7:	5d                   	pop    %ebp
    4fa8:	c3                   	ret    
    4fa9:	8d b4 26 00 00 00 00 	lea    0x0(%esi,%eiz,1),%esi
    4fb0:	89 1c 24             	mov    %ebx,(%esp)
    4fb3:	e8 98 0a 01 00       	call   15a50 <async_forget>
    4fb8:	8b 45 c0             	mov    -0x40(%ebp),%eax
    4fbb:	83 c4 5c             	add    $0x5c,%esp
    4fbe:	5b                   	pop    %ebx
    4fbf:	5e                   	pop    %esi
    4fc0:	5f                   	pop    %edi
    4fc1:	5d                   	pop    %ebp
    4fc2:	c3                   	ret    
    4fc3:	90                   	nop
    4fc4:	8d 74 26 00          	lea    0x0(%esi,%eiz,1),%esi
    4fc8:	85 db                	test   %ebx,%ebx
    4fca:	0f 84 c5 fe ff ff    	je     4e95 <loc_service_register+0x85>
    4fd0:	89 1d 94 5d 02 00    	mov    %ebx,0x25d94
    4fd6:	e9 ba fe ff ff       	jmp    4e95 <loc_service_register+0x85>
    4fdb:	90                   	nop
    4fdc:	8d 74 26 00          	lea    0x0(%esi,%eiz,1),%esi

00004fe0 <loc_service_unregister>:
    4fe0:	55                   	push   %ebp
    4fe1:	89 e5                	mov    %esp,%ebp
    4fe3:	53                   	push   %ebx
    4fe4:	83 ec 44             	sub    $0x44,%esp
    4fe7:	c7 04 24 6c 5b 02 00 	movl   $0x25b6c,(%esp)
    4fee:	e8 4d 5b 00 00       	call   ab40 <fibril_mutex_lock>
    4ff3:	a1 98 5d 02 00       	mov    0x25d98,%eax
    4ff8:	85 c0                	test   %eax,%eax
    4ffa:	75 38                	jne    5034 <loc_service_unregister+0x54>
    4ffc:	c7 04 24 7c 5b 02 00 	movl   $0x25b7c,(%esp)
    5003:	8b 1d 94 5d 02 00    	mov    0x25d94,%ebx
    5009:	e8 32 5b 00 00       	call   ab40 <fibril_mutex_lock>
    500e:	a1 98 5d 02 00       	mov    0x25d98,%eax
    5013:	85 c0                	test   %eax,%eax
    5015:	0f 84 cd 00 00 00    	je     50e8 <loc_service_unregister+0x108>
    501b:	c7 04 24 7c 5b 02 00 	movl   $0x25b7c,(%esp)
    5022:	e8 39 5c 00 00       	call   ac60 <fibril_mutex_unlock>
    5027:	a1 98 5d 02 00       	mov    0x25d98,%eax
    502c:	85 c0                	test   %eax,%eax
    502e:	0f 84 cc 00 00 00    	je     5100 <loc_service_unregister+0x120>
    5034:	c7 04 24 6c 5b 02 00 	movl   $0x25b6c,(%esp)
    503b:	e8 20 5c 00 00       	call   ac60 <fibril_mutex_unlock>
    5040:	c7 04 24 7c 5b 02 00 	movl   $0x25b7c,(%esp)
    5047:	8b 1d 98 5d 02 00    	mov    0x25d98,%ebx
    504d:	e8 ee 5a 00 00       	call   ab40 <fibril_mutex_lock>
    5052:	a1 94 5d 02 00       	mov    0x25d94,%eax
    5057:	85 c0                	test   %eax,%eax
    5059:	0f 84 d1 00 00 00    	je     5130 <loc_service_unregister+0x150>
    505f:	c7 04 24 7c 5b 02 00 	movl   $0x25b7c,(%esp)
    5066:	e8 f5 5b 00 00       	call   ac60 <fibril_mutex_unlock>
    506b:	a1 98 5d 02 00       	mov    0x25d98,%eax
    5070:	89 04 24             	mov    %eax,(%esp)
    5073:	e8 18 1c 01 00       	call   16c90 <async_exchange_begin>
    5078:	c7 44 24 28 00 00 00 	movl   $0x0,0x28(%esp)
    507f:	00 
    5080:	89 c3                	mov    %eax,%ebx
    5082:	8b 45 08             	mov    0x8(%ebp),%eax
    5085:	89 1c 24             	mov    %ebx,(%esp)
    5088:	c7 44 24 24 00 00 00 	movl   $0x0,0x24(%esp)
    508f:	00 
    5090:	c7 44 24 20 00 00 00 	movl   $0x0,0x20(%esp)
    5097:	00 
    5098:	c7 44 24 1c 00 00 00 	movl   $0x0,0x1c(%esp)
    509f:	00 
    50a0:	c7 44 24 18 00 00 00 	movl   $0x0,0x18(%esp)
    50a7:	00 
    50a8:	c7 44 24 14 00 00 00 	movl   $0x0,0x14(%esp)
    50af:	00 
    50b0:	c7 44 24 10 00 00 00 	movl   $0x0,0x10(%esp)
    50b7:	00 
    50b8:	c7 44 24 0c 00 00 00 	movl   $0x0,0xc(%esp)
    50bf:	00 
    50c0:	89 44 24 08          	mov    %eax,0x8(%esp)
    50c4:	c7 44 24 04 04 04 00 	movl   $0x404,0x4(%esp)
    50cb:	00 
    50cc:	e8 6f 0b 01 00       	call   15c40 <async_req_fast>
    50d1:	89 1c 24             	mov    %ebx,(%esp)
    50d4:	89 45 f4             	mov    %eax,-0xc(%ebp)
    50d7:	e8 24 1f 01 00       	call   17000 <async_exchange_end>
    50dc:	8b 45 f4             	mov    -0xc(%ebp),%eax
    50df:	83 c4 44             	add    $0x44,%esp
    50e2:	5b                   	pop    %ebx
    50e3:	5d                   	pop    %ebp
    50e4:	c3                   	ret    
    50e5:	8d 76 00             	lea    0x0(%esi),%esi
    50e8:	85 db                	test   %ebx,%ebx
    50ea:	0f 84 2b ff ff ff    	je     501b <loc_service_unregister+0x3b>
    50f0:	89 1d 98 5d 02 00    	mov    %ebx,0x25d98
    50f6:	e9 20 ff ff ff       	jmp    501b <loc_service_unregister+0x3b>
    50fb:	90                   	nop
    50fc:	8d 74 26 00          	lea    0x0(%esi,%eiz,1),%esi
    5100:	c7 44 24 0c 00 00 00 	movl   $0x0,0xc(%esp)
    5107:	00 
    5108:	c7 44 24 08 01 00 00 	movl   $0x1,0x8(%esp)
    510f:	00 
    5110:	c7 44 24 04 6c 6f 63 	movl   $0x20636f6c,0x4(%esp)
    5117:	20 
    5118:	c7 04 24 02 00 00 00 	movl   $0x2,(%esp)
    511f:	e8 bc ee 00 00       	call   13fe0 <service_connect_blocking>
    5124:	a3 98 5d 02 00       	mov    %eax,0x25d98
    5129:	e9 ca fe ff ff       	jmp    4ff8 <loc_service_unregister+0x18>
    512e:	66 90                	xchg   %ax,%ax
    5130:	85 db                	test   %ebx,%ebx
    5132:	0f 84 27 ff ff ff    	je     505f <loc_service_unregister+0x7f>
    5138:	89 1d 94 5d 02 00    	mov    %ebx,0x25d94
    513e:	e9 1c ff ff ff       	jmp    505f <loc_service_unregister+0x7f>
    5143:	8d b6 00 00 00 00    	lea    0x0(%esi),%esi
    5149:	8d bc 27 00 00 00 00 	lea    0x0(%edi,%eiz,1),%edi

00005150 <loc_service_get_id>:
    5150:	55                   	push   %ebp
    5151:	89 e5                	mov    %esp,%ebp
    5153:	57                   	push   %edi
    5154:	56                   	push   %esi
    5155:	53                   	push   %ebx
    5156:	83 ec 5c             	sub    $0x5c,%esp
    5159:	8b 75 10             	mov    0x10(%ebp),%esi
    515c:	8b 7d 08             	mov    0x8(%ebp),%edi
    515f:	f7 c6 01 00 00 00    	test   $0x1,%esi
    5165:	0f 84 45 01 00 00    	je     52b0 <loc_service_get_id+0x160>
    516b:	c7 04 24 8c 5b 02 00 	movl   $0x25b8c,(%esp)
    5172:	e8 c9 59 00 00       	call   ab40 <fibril_mutex_lock>
    5177:	a1 a0 5d 02 00       	mov    0x25da0,%eax
    517c:	85 c0                	test   %eax,%eax
    517e:	75 38                	jne    51b8 <loc_service_get_id+0x68>
    5180:	c7 04 24 9c 5b 02 00 	movl   $0x25b9c,(%esp)
    5187:	8b 1d 9c 5d 02 00    	mov    0x25d9c,%ebx
    518d:	e8 ae 59 00 00       	call   ab40 <fibril_mutex_lock>
    5192:	a1 a0 5d 02 00       	mov    0x25da0,%eax
    5197:	85 c0                	test   %eax,%eax
    5199:	0f 84 f9 00 00 00    	je     5298 <loc_service_get_id+0x148>
    519f:	c7 04 24 9c 5b 02 00 	movl   $0x25b9c,(%esp)
    51a6:	e8 b5 5a 00 00       	call   ac60 <fibril_mutex_unlock>
    51ab:	a1 a0 5d 02 00       	mov    0x25da0,%eax
    51b0:	85 c0                	test   %eax,%eax
    51b2:	0f 84 68 01 00 00    	je     5320 <loc_service_get_id+0x1d0>
    51b8:	c7 04 24 8c 5b 02 00 	movl   $0x25b8c,(%esp)
    51bf:	e8 9c 5a 00 00       	call   ac60 <fibril_mutex_unlock>
    51c4:	c7 04 24 9c 5b 02 00 	movl   $0x25b9c,(%esp)
    51cb:	8b 1d a0 5d 02 00    	mov    0x25da0,%ebx
    51d1:	e8 6a 59 00 00       	call   ab40 <fibril_mutex_lock>
    51d6:	a1 9c 5d 02 00       	mov    0x25d9c,%eax
    51db:	85 c0                	test   %eax,%eax
    51dd:	0f 84 85 01 00 00    	je     5368 <loc_service_get_id+0x218>
    51e3:	c7 04 24 9c 5b 02 00 	movl   $0x25b9c,(%esp)
    51ea:	e8 71 5a 00 00       	call   ac60 <fibril_mutex_unlock>
    51ef:	a1 a0 5d 02 00       	mov    0x25da0,%eax
    51f4:	89 04 24             	mov    %eax,(%esp)
    51f7:	e8 94 1a 01 00       	call   16c90 <async_exchange_begin>
    51fc:	89 c3                	mov    %eax,%ebx
    51fe:	8d 45 c4             	lea    -0x3c(%ebp),%eax
    5201:	89 74 24 08          	mov    %esi,0x8(%esp)
    5205:	89 44 24 18          	mov    %eax,0x18(%esp)
    5209:	c7 44 24 14 00 00 00 	movl   $0x0,0x14(%esp)
    5210:	00 
    5211:	c7 44 24 10 00 00 00 	movl   $0x0,0x10(%esp)
    5218:	00 
    5219:	c7 44 24 0c 00 00 00 	movl   $0x0,0xc(%esp)
    5220:	00 
    5221:	c7 44 24 04 05 04 00 	movl   $0x405,0x4(%esp)
    5228:	00 
    5229:	89 1c 24             	mov    %ebx,(%esp)
    522c:	e8 ff 03 01 00       	call   15630 <async_send_fast>
    5231:	89 3c 24             	mov    %edi,(%esp)
    5234:	89 c6                	mov    %eax,%esi
    5236:	e8 e5 26 00 00       	call   7920 <str_size>
    523b:	89 7c 24 04          	mov    %edi,0x4(%esp)
    523f:	89 44 24 08          	mov    %eax,0x8(%esp)
    5243:	89 1c 24             	mov    %ebx,(%esp)
    5246:	e8 35 29 01 00       	call   17b80 <async_data_write_start>
    524b:	89 1c 24             	mov    %ebx,(%esp)
    524e:	89 45 c0             	mov    %eax,-0x40(%ebp)
    5251:	e8 aa 1d 01 00       	call   17000 <async_exchange_end>
    5256:	8b 4d c0             	mov    -0x40(%ebp),%ecx
    5259:	85 c9                	test   %ecx,%ecx
    525b:	0f 85 ef 00 00 00    	jne    5350 <loc_service_get_id+0x200>
    5261:	8d 45 c0             	lea    -0x40(%ebp),%eax
    5264:	89 34 24             	mov    %esi,(%esp)
    5267:	89 44 24 04          	mov    %eax,0x4(%esp)
    526b:	e8 90 05 01 00       	call   15800 <async_wait_for>
    5270:	8b 45 c0             	mov    -0x40(%ebp),%eax
    5273:	85 c0                	test   %eax,%eax
    5275:	0f 84 85 00 00 00    	je     5300 <loc_service_get_id+0x1b0>
    527b:	8b 55 0c             	mov    0xc(%ebp),%edx
    527e:	85 d2                	test   %edx,%edx
    5280:	74 09                	je     528b <loc_service_get_id+0x13b>
    5282:	8b 55 0c             	mov    0xc(%ebp),%edx
    5285:	c7 02 ff ff ff ff    	movl   $0xffffffff,(%edx)
    528b:	83 c4 5c             	add    $0x5c,%esp
    528e:	5b                   	pop    %ebx
    528f:	5e                   	pop    %esi
    5290:	5f                   	pop    %edi
    5291:	5d                   	pop    %ebp
    5292:	c3                   	ret    
    5293:	90                   	nop
    5294:	8d 74 26 00          	lea    0x0(%esi,%eiz,1),%esi
    5298:	85 db                	test   %ebx,%ebx
    529a:	0f 84 ff fe ff ff    	je     519f <loc_service_get_id+0x4f>
    52a0:	89 1d a0 5d 02 00    	mov    %ebx,0x25da0
    52a6:	e9 f4 fe ff ff       	jmp    519f <loc_service_get_id+0x4f>
    52ab:	90                   	nop
    52ac:	8d 74 26 00          	lea    0x0(%esi,%eiz,1),%esi
    52b0:	c7 04 24 9c 5b 02 00 	movl   $0x25b9c,(%esp)
    52b7:	e8 84 58 00 00       	call   ab40 <fibril_mutex_lock>
    52bc:	8b 1d 9c 5d 02 00    	mov    0x25d9c,%ebx
    52c2:	85 db                	test   %ebx,%ebx
    52c4:	0f 84 b1 00 00 00    	je     537b <loc_service_get_id+0x22b>
    52ca:	c7 04 24 9c 5b 02 00 	movl   $0x25b9c,(%esp)
    52d1:	e8 8a 59 00 00       	call   ac60 <fibril_mutex_unlock>
    52d6:	a1 9c 5d 02 00       	mov    0x25d9c,%eax
    52db:	85 c0                	test   %eax,%eax
    52dd:	74 12                	je     52f1 <loc_service_get_id+0x1a1>
    52df:	89 04 24             	mov    %eax,(%esp)
    52e2:	e8 a9 19 01 00       	call   16c90 <async_exchange_begin>
    52e7:	89 c3                	mov    %eax,%ebx
    52e9:	85 c0                	test   %eax,%eax
    52eb:	0f 85 0d ff ff ff    	jne    51fe <loc_service_get_id+0xae>
    52f1:	e8 3a a2 01 00       	call   1f530 <__errno>
    52f6:	8b 00                	mov    (%eax),%eax
    52f8:	eb 91                	jmp    528b <loc_service_get_id+0x13b>
    52fa:	8d b6 00 00 00 00    	lea    0x0(%esi),%esi
    5300:	8b 45 0c             	mov    0xc(%ebp),%eax
    5303:	85 c0                	test   %eax,%eax
    5305:	74 08                	je     530f <loc_service_get_id+0x1bf>
    5307:	8b 55 0c             	mov    0xc(%ebp),%edx
    530a:	8b 45 c8             	mov    -0x38(%ebp),%eax
    530d:	89 02                	mov    %eax,(%edx)
    530f:	83 c4 5c             	add    $0x5c,%esp
    5312:	31 c0                	xor    %eax,%eax
    5314:	5b                   	pop    %ebx
    5315:	5e                   	pop    %esi
    5316:	5f                   	pop    %edi
    5317:	5d                   	pop    %ebp
    5318:	c3                   	ret    
    5319:	8d b4 26 00 00 00 00 	lea    0x0(%esi,%eiz,1),%esi
    5320:	c7 44 24 0c 00 00 00 	movl   $0x0,0xc(%esp)
    5327:	00 
    5328:	c7 44 24 08 02 00 00 	movl   $0x2,0x8(%esp)
    532f:	00 
    5330:	c7 44 24 04 6c 6f 63 	movl   $0x20636f6c,0x4(%esp)
    5337:	20 
    5338:	c7 04 24 02 00 00 00 	movl   $0x2,(%esp)
    533f:	e8 9c ec 00 00       	call   13fe0 <service_connect_blocking>
    5344:	a3 a0 5d 02 00       	mov    %eax,0x25da0
    5349:	e9 2e fe ff ff       	jmp    517c <loc_service_get_id+0x2c>
    534e:	66 90                	xchg   %ax,%ax
    5350:	89 34 24             	mov    %esi,(%esp)
    5353:	e8 f8 06 01 00       	call   15a50 <async_forget>
    5358:	8b 45 c0             	mov    -0x40(%ebp),%eax
    535b:	83 c4 5c             	add    $0x5c,%esp
    535e:	5b                   	pop    %ebx
    535f:	5e                   	pop    %esi
    5360:	5f                   	pop    %edi
    5361:	5d                   	pop    %ebp
    5362:	c3                   	ret    
    5363:	90                   	nop
    5364:	8d 74 26 00          	lea    0x0(%esi,%eiz,1),%esi
    5368:	85 db                	test   %ebx,%ebx
    536a:	0f 84 73 fe ff ff    	je     51e3 <loc_service_get_id+0x93>
    5370:	89 1d 9c 5d 02 00    	mov    %ebx,0x25d9c
    5376:	e9 68 fe ff ff       	jmp    51e3 <loc_service_get_id+0x93>
    537b:	c7 44 24 0c 00 00 00 	movl   $0x0,0xc(%esp)
    5382:	00 
    5383:	c7 44 24 08 02 00 00 	movl   $0x2,0x8(%esp)
    538a:	00 
    538b:	c7 44 24 04 6c 6f 63 	movl   $0x20636f6c,0x4(%esp)
    5392:	20 
    5393:	c7 04 24 02 00 00 00 	movl   $0x2,(%esp)
    539a:	e8 c1 eb 00 00       	call   13f60 <service_connect>
    539f:	a3 9c 5d 02 00       	mov    %eax,0x25d9c
    53a4:	e9 21 ff ff ff       	jmp    52ca <loc_service_get_id+0x17a>
    53a9:	8d b4 26 00 00 00 00 	lea    0x0(%esi,%eiz,1),%esi

000053b0 <loc_category_get_name>:
    53b0:	55                   	push   %ebp
    53b1:	b8 0b 04 00 00       	mov    $0x40b,%eax
    53b6:	89 e5                	mov    %esp,%ebp
    53b8:	8b 4d 0c             	mov    0xc(%ebp),%ecx
    53bb:	8b 55 08             	mov    0x8(%ebp),%edx
    53be:	5d                   	pop    %ebp
    53bf:	e9 6c ed ff ff       	jmp    4130 <loc_get_name_internal>
    53c4:	8d b6 00 00 00 00    	lea    0x0(%esi),%esi
    53ca:	8d bf 00 00 00 00    	lea    0x0(%edi),%edi

000053d0 <loc_service_get_name>:
    53d0:	55                   	push   %ebp
    53d1:	b8 06 04 00 00       	mov    $0x406,%eax
    53d6:	89 e5                	mov    %esp,%ebp
    53d8:	8b 4d 0c             	mov    0xc(%ebp),%ecx
    53db:	8b 55 08             	mov    0x8(%ebp),%edx
    53de:	5d                   	pop    %ebp
    53df:	e9 4c ed ff ff       	jmp    4130 <loc_get_name_internal>
