
uhcirh:     file format elf32-i386


Disassembly of section .init:

00001094 <__entry>:
    1094:	66 8c d0             	mov    %ss,%ax
    1097:	8e d8                	mov    %eax,%ds
    1099:	8e c0                	mov    %eax,%es
    109b:	8e e0                	mov    %eax,%fs
    109d:	b8 01 00 00 00       	mov    $0x1,%eax
    10a2:	0f a2                	cpuid  
    10a4:	0f ba e2 0b          	bt     $0xb,%edx
    10a8:	73 0c                	jae    10b6 <__entry+0x22>
    10aa:	8d 05 b0 ff 02 00    	lea    0x2ffb0,%eax
    10b0:	c7 00 57 77 02 00    	movl   $0x27757,(%eax)
    10b6:	6a 00                	push   $0x0
    10b8:	89 e5                	mov    %esp,%ebp
    10ba:	57                   	push   %edi
    10bb:	e8 40 bf 00 00       	call   d000 <__main>

Disassembly of section .text:

000010c0 <uhci_rh_dev_add>:
    10c0:	55                   	push   %ebp
    10c1:	89 e5                	mov    %esp,%ebp
    10c3:	57                   	push   %edi
    10c4:	56                   	push   %esi
    10c5:	53                   	push   %ebx
    10c6:	83 ec 5c             	sub    $0x5c,%esp
    10c9:	8b 5d 08             	mov    0x8(%ebp),%ebx
    10cc:	85 db                	test   %ebx,%ebx
    10ce:	0f 84 8c 02 00 00    	je     1360 <uhci_rh_dev_add+0x2a0>
    10d4:	89 1c 24             	mov    %ebx,(%esp)
    10d7:	e8 a4 6e 00 00       	call   7f80 <ddf_dev_get_handle>
    10dc:	c7 44 24 08 c2 be 02 	movl   $0x2bec2,0x8(%esp)
    10e3:	00 
    10e4:	89 44 24 0c          	mov    %eax,0xc(%esp)
    10e8:	c7 44 24 04 05 00 00 	movl   $0x5,0x4(%esp)
    10ef:	00 
    10f0:	c7 04 24 ff ff ff ff 	movl   $0xffffffff,(%esp)
    10f7:	e8 04 6b 01 00       	call   17c00 <log_msg>
    10fc:	89 1c 24             	mov    %ebx,(%esp)
    10ff:	e8 7c 6e 00 00       	call   7f80 <ddf_dev_get_handle>
    1104:	c7 44 24 08 01 00 00 	movl   $0x1,0x8(%esp)
    110b:	00 
    110c:	89 44 24 04          	mov    %eax,0x4(%esp)
    1110:	c7 04 24 02 00 00 00 	movl   $0x2,(%esp)
    1117:	e8 64 d2 00 00       	call   e380 <devman_parent_device_connect>
    111c:	89 c6                	mov    %eax,%esi
    111e:	85 c0                	test   %eax,%eax
    1120:	0f 84 42 01 00 00    	je     1268 <uhci_rh_dev_add+0x1a8>
    1126:	8d 45 c8             	lea    -0x38(%ebp),%eax
    1129:	c7 44 24 08 20 00 00 	movl   $0x20,0x8(%esp)
    1130:	00 
    1131:	c7 44 24 04 00 00 00 	movl   $0x0,0x4(%esp)
    1138:	00 
    1139:	89 04 24             	mov    %eax,(%esp)
    113c:	e8 7f e5 00 00       	call   f6c0 <memset>
    1141:	8d 55 c8             	lea    -0x38(%ebp),%edx
    1144:	89 54 24 04          	mov    %edx,0x4(%esp)
    1148:	c7 44 24 08 00 00 00 	movl   $0x0,0x8(%esp)
    114f:	00 
    1150:	89 34 24             	mov    %esi,(%esp)
    1153:	e8 98 e4 00 00       	call   f5f0 <hw_res_get_list_parsed>
    1158:	89 34 24             	mov    %esi,(%esp)
    115b:	89 c7                	mov    %eax,%edi
    115d:	e8 7e ef 01 00       	call   200e0 <async_hangup>
    1162:	85 ff                	test   %edi,%edi
    1164:	0f 85 06 01 00 00    	jne    1270 <uhci_rh_dev_add+0x1b0>
    116a:	83 7d e0 01          	cmpl   $0x1,-0x20(%ebp)
    116e:	0f 85 94 01 00 00    	jne    1308 <uhci_rh_dev_add+0x248>
    1174:	8b 45 e4             	mov    -0x1c(%ebp),%eax
    1177:	8b 10                	mov    (%eax),%edx
    1179:	8b 78 0c             	mov    0xc(%eax),%edi
    117c:	8b 45 cc             	mov    -0x34(%ebp),%eax
    117f:	89 55 c4             	mov    %edx,-0x3c(%ebp)
    1182:	89 04 24             	mov    %eax,(%esp)
    1185:	e8 26 bc 01 00       	call   1cdb0 <free>
    118a:	8b 45 e4             	mov    -0x1c(%ebp),%eax
    118d:	89 04 24             	mov    %eax,(%esp)
    1190:	e8 1b bc 01 00       	call   1cdb0 <free>
    1195:	8b 45 dc             	mov    -0x24(%ebp),%eax
    1198:	89 04 24             	mov    %eax,(%esp)
    119b:	e8 10 bc 01 00       	call   1cdb0 <free>
    11a0:	8b 45 d4             	mov    -0x2c(%ebp),%eax
    11a3:	89 04 24             	mov    %eax,(%esp)
    11a6:	e8 05 bc 01 00       	call   1cdb0 <free>
    11ab:	8d 45 c8             	lea    -0x38(%ebp),%eax
    11ae:	c7 44 24 08 20 00 00 	movl   $0x20,0x8(%esp)
    11b5:	00 
    11b6:	c7 44 24 04 00 00 00 	movl   $0x0,0x4(%esp)
    11bd:	00 
    11be:	89 04 24             	mov    %eax,(%esp)
    11c1:	e8 fa e4 00 00       	call   f6c0 <memset>
    11c6:	8b 55 c4             	mov    -0x3c(%ebp),%edx
    11c9:	89 54 24 0c          	mov    %edx,0xc(%esp)
    11cd:	89 7c 24 10          	mov    %edi,0x10(%esp)
    11d1:	c7 44 24 08 de be 02 	movl   $0x2bede,0x8(%esp)
    11d8:	00 
    11d9:	c7 44 24 04 04 00 00 	movl   $0x4,0x4(%esp)
    11e0:	00 
    11e1:	c7 04 24 ff ff ff ff 	movl   $0xffffffff,(%esp)
    11e8:	e8 13 6a 01 00       	call   17c00 <log_msg>
    11ed:	c7 44 24 04 78 00 00 	movl   $0x78,0x4(%esp)
    11f4:	00 
    11f5:	89 1c 24             	mov    %ebx,(%esp)
    11f8:	e8 e3 6c 00 00       	call   7ee0 <ddf_dev_data_alloc>
    11fd:	85 c0                	test   %eax,%eax
    11ff:	0f 84 db 00 00 00    	je     12e0 <uhci_rh_dev_add+0x220>
    1205:	8b 55 c4             	mov    -0x3c(%ebp),%edx
    1208:	89 7c 24 08          	mov    %edi,0x8(%esp)
    120c:	89 5c 24 0c          	mov    %ebx,0xc(%esp)
    1210:	89 54 24 04          	mov    %edx,0x4(%esp)
    1214:	89 04 24             	mov    %eax,(%esp)
    1217:	e8 54 0b 00 00       	call   1d70 <uhci_root_hub_init>
    121c:	89 c7                	mov    %eax,%edi
    121e:	85 c0                	test   %eax,%eax
    1220:	0f 85 82 00 00 00    	jne    12a8 <uhci_rh_dev_add+0x1e8>
    1226:	89 1c 24             	mov    %ebx,(%esp)
    1229:	e8 52 6d 00 00       	call   7f80 <ddf_dev_get_handle>
    122e:	89 1c 24             	mov    %ebx,(%esp)
    1231:	89 c6                	mov    %eax,%esi
    1233:	e8 58 6d 00 00       	call   7f90 <ddf_dev_get_name>
    1238:	89 74 24 10          	mov    %esi,0x10(%esp)
    123c:	89 44 24 0c          	mov    %eax,0xc(%esp)
    1240:	c7 44 24 08 38 bf 02 	movl   $0x2bf38,0x8(%esp)
    1247:	00 
    1248:	c7 44 24 04 03 00 00 	movl   $0x3,0x4(%esp)
    124f:	00 
    1250:	c7 04 24 ff ff ff ff 	movl   $0xffffffff,(%esp)
    1257:	e8 a4 69 01 00       	call   17c00 <log_msg>
    125c:	83 c4 5c             	add    $0x5c,%esp
    125f:	89 f8                	mov    %edi,%eax
    1261:	5b                   	pop    %ebx
    1262:	5e                   	pop    %esi
    1263:	5f                   	pop    %edi
    1264:	5d                   	pop    %ebp
    1265:	c3                   	ret    
    1266:	66 90                	xchg   %ax,%ax
    1268:	bf fe ff ff ff       	mov    $0xfffffffe,%edi
    126d:	8d 76 00             	lea    0x0(%esi),%esi
    1270:	89 3c 24             	mov    %edi,(%esp)
    1273:	e8 b8 1c 01 00       	call   12f30 <str_error>
    1278:	c7 44 24 08 5c bf 02 	movl   $0x2bf5c,0x8(%esp)
    127f:	00 
    1280:	89 44 24 0c          	mov    %eax,0xc(%esp)
    1284:	c7 44 24 04 01 00 00 	movl   $0x1,0x4(%esp)
    128b:	00 
    128c:	c7 04 24 ff ff ff ff 	movl   $0xffffffff,(%esp)
    1293:	e8 68 69 01 00       	call   17c00 <log_msg>
    1298:	83 c4 5c             	add    $0x5c,%esp
    129b:	89 f8                	mov    %edi,%eax
    129d:	5b                   	pop    %ebx
    129e:	5e                   	pop    %esi
    129f:	5f                   	pop    %edi
    12a0:	5d                   	pop    %ebp
    12a1:	c3                   	ret    
    12a2:	8d b6 00 00 00 00    	lea    0x0(%esi),%esi
    12a8:	89 3c 24             	mov    %edi,(%esp)
    12ab:	e8 80 1c 01 00       	call   12f30 <str_error>
    12b0:	89 7c 24 0c          	mov    %edi,0xc(%esp)
    12b4:	89 44 24 10          	mov    %eax,0x10(%esp)
    12b8:	c7 44 24 08 04 bf 02 	movl   $0x2bf04,0x8(%esp)
    12bf:	00 
    12c0:	c7 44 24 04 01 00 00 	movl   $0x1,0x4(%esp)
    12c7:	00 
    12c8:	c7 04 24 ff ff ff ff 	movl   $0xffffffff,(%esp)
    12cf:	e8 2c 69 01 00       	call   17c00 <log_msg>
    12d4:	83 c4 5c             	add    $0x5c,%esp
    12d7:	89 f8                	mov    %edi,%eax
    12d9:	5b                   	pop    %ebx
    12da:	5e                   	pop    %esi
    12db:	5f                   	pop    %edi
    12dc:	5d                   	pop    %ebp
    12dd:	c3                   	ret    
    12de:	66 90                	xchg   %ax,%ax
    12e0:	c7 44 24 08 84 bf 02 	movl   $0x2bf84,0x8(%esp)
    12e7:	00 
    12e8:	c7 44 24 04 01 00 00 	movl   $0x1,0x4(%esp)
    12ef:	00 
    12f0:	c7 04 24 ff ff ff ff 	movl   $0xffffffff,(%esp)
    12f7:	bf fe ff ff ff       	mov    $0xfffffffe,%edi
    12fc:	e8 ff 68 01 00       	call   17c00 <log_msg>
    1301:	e9 56 ff ff ff       	jmp    125c <uhci_rh_dev_add+0x19c>
    1306:	66 90                	xchg   %ax,%ax
    1308:	8b 45 cc             	mov    -0x34(%ebp),%eax
    130b:	bf f2 ff ff ff       	mov    $0xfffffff2,%edi
    1310:	89 04 24             	mov    %eax,(%esp)
    1313:	e8 98 ba 01 00       	call   1cdb0 <free>
    1318:	8b 45 e4             	mov    -0x1c(%ebp),%eax
    131b:	89 04 24             	mov    %eax,(%esp)
    131e:	e8 8d ba 01 00       	call   1cdb0 <free>
    1323:	8b 45 dc             	mov    -0x24(%ebp),%eax
    1326:	89 04 24             	mov    %eax,(%esp)
    1329:	e8 82 ba 01 00       	call   1cdb0 <free>
    132e:	8b 45 d4             	mov    -0x2c(%ebp),%eax
    1331:	89 04 24             	mov    %eax,(%esp)
    1334:	e8 77 ba 01 00       	call   1cdb0 <free>
    1339:	8d 45 c8             	lea    -0x38(%ebp),%eax
    133c:	c7 44 24 08 20 00 00 	movl   $0x20,0x8(%esp)
    1343:	00 
    1344:	c7 44 24 04 00 00 00 	movl   $0x0,0x4(%esp)
    134b:	00 
    134c:	89 04 24             	mov    %eax,(%esp)
    134f:	e8 6c e3 00 00       	call   f6c0 <memset>
    1354:	e9 17 ff ff ff       	jmp    1270 <uhci_rh_dev_add+0x1b0>
    1359:	8d b4 26 00 00 00 00 	lea    0x0(%esi,%eiz,1),%esi
    1360:	bf f2 ff ff ff       	mov    $0xfffffff2,%edi
    1365:	e9 f2 fe ff ff       	jmp    125c <uhci_rh_dev_add+0x19c>
    136a:	66 90                	xchg   %ax,%ax
    136c:	66 90                	xchg   %ax,%ax
    136e:	66 90                	xchg   %ax,%ax

00001370 <main>:
    1370:	55                   	push   %ebp
    1371:	89 e5                	mov    %esp,%ebp
    1373:	83 e4 f0             	and    $0xfffffff0,%esp
    1376:	83 ec 10             	sub    $0x10,%esp
    1379:	c7 04 24 ac bf 02 00 	movl   $0x2bfac,(%esp)
    1380:	e8 cb 65 01 00       	call   17950 <printf>
    1385:	c7 04 24 fb be 02 00 	movl   $0x2befb,(%esp)
    138c:	e8 9f 66 01 00       	call   17a30 <log_init>
    1391:	c7 04 24 40 fb 02 00 	movl   $0x2fb40,(%esp)
    1398:	e8 43 73 00 00       	call   86e0 <ddf_driver_main>
    139d:	c9                   	leave  
    139e:	c3                   	ret    
    139f:	90                   	nop

000013a0 <uhci_port_reset_enable>:
    13a0:	55                   	push   %ebp
    13a1:	89 e5                	mov    %esp,%ebp
    13a3:	53                   	push   %ebx
    13a4:	83 ec 24             	sub    $0x24,%esp
    13a7:	8b 5d 08             	mov    0x8(%ebp),%ebx
    13aa:	85 db                	test   %ebx,%ebx
    13ac:	0f 84 1a 01 00 00    	je     14cc <uhci_port_reset_enable+0x12c>
    13b2:	8b 03                	mov    (%ebx),%eax
    13b4:	c7 44 24 08 df bf 02 	movl   $0x2bfdf,0x8(%esp)
    13bb:	00 
    13bc:	89 44 24 0c          	mov    %eax,0xc(%esp)
    13c0:	c7 44 24 04 05 00 00 	movl   $0x5,0x4(%esp)
    13c7:	00 
    13c8:	c7 04 24 ff ff ff ff 	movl   $0xffffffff,(%esp)
    13cf:	e8 2c 68 01 00       	call   17c00 <log_msg>
    13d4:	8b 03                	mov    (%ebx),%eax
    13d6:	89 44 24 0c          	mov    %eax,0xc(%esp)
    13da:	c7 44 24 08 fc bf 02 	movl   $0x2bffc,0x8(%esp)
    13e1:	00 
    13e2:	c7 44 24 04 04 00 00 	movl   $0x4,0x4(%esp)
    13e9:	00 
    13ea:	c7 04 24 ff ff ff ff 	movl   $0xffffffff,(%esp)
    13f1:	e8 0a 68 01 00       	call   17c00 <log_msg>
    13f6:	8b 43 04             	mov    0x4(%ebx),%eax
    13f9:	89 04 24             	mov    %eax,(%esp)
    13fc:	e8 af c0 00 00       	call   d4b0 <pio_read_16>
    1401:	80 cc 02             	or     $0x2,%ah
    1404:	25 ff ff 00 00       	and    $0xffff,%eax
    1409:	89 44 24 04          	mov    %eax,0x4(%esp)
    140d:	8b 43 04             	mov    0x4(%ebx),%eax
    1410:	89 04 24             	mov    %eax,(%esp)
    1413:	e8 b8 bf 00 00       	call   d3d0 <pio_write_16>
    1418:	c7 04 24 50 c3 00 00 	movl   $0xc350,(%esp)
    141f:	e8 3c dc 01 00       	call   1f060 <async_usleep>
    1424:	8b 43 04             	mov    0x4(%ebx),%eax
    1427:	89 04 24             	mov    %eax,(%esp)
    142a:	e8 81 c0 00 00       	call   d4b0 <pio_read_16>
    142f:	25 ff fd 00 00       	and    $0xfdff,%eax
    1434:	89 44 24 04          	mov    %eax,0x4(%esp)
    1438:	8b 43 04             	mov    0x4(%ebx),%eax
    143b:	89 04 24             	mov    %eax,(%esp)
    143e:	e8 8d bf 00 00       	call   d3d0 <pio_write_16>
    1443:	90                   	nop
    1444:	8d 74 26 00          	lea    0x0(%esi,%eiz,1),%esi
    1448:	8b 43 04             	mov    0x4(%ebx),%eax
    144b:	89 04 24             	mov    %eax,(%esp)
    144e:	e8 5d c0 00 00       	call   d4b0 <pio_read_16>
    1453:	f6 c4 02             	test   $0x2,%ah
    1456:	75 f0                	jne    1448 <uhci_port_reset_enable+0xa8>
    1458:	c7 04 24 0a 00 00 00 	movl   $0xa,(%esp)
    145f:	e8 6c 2c 02 00       	call   240d0 <udelay>
    1464:	8b 43 04             	mov    0x4(%ebx),%eax
    1467:	89 04 24             	mov    %eax,(%esp)
    146a:	e8 41 c0 00 00       	call   d4b0 <pio_read_16>
    146f:	83 c8 04             	or     $0x4,%eax
    1472:	25 ff ff 00 00       	and    $0xffff,%eax
    1477:	89 44 24 04          	mov    %eax,0x4(%esp)
    147b:	8b 43 04             	mov    0x4(%ebx),%eax
    147e:	89 04 24             	mov    %eax,(%esp)
    1481:	e8 4a bf 00 00       	call   d3d0 <pio_write_16>
    1486:	66 90                	xchg   %ax,%ax
    1488:	8b 43 04             	mov    0x4(%ebx),%eax
    148b:	89 04 24             	mov    %eax,(%esp)
    148e:	e8 1d c0 00 00       	call   d4b0 <pio_read_16>
    1493:	83 e0 05             	and    $0x5,%eax
    1496:	66 48                	dec    %ax
    1498:	74 ee                	je     1488 <uhci_port_reset_enable+0xe8>
    149a:	c7 44 24 10 15 c0 02 	movl   $0x2c015,0x10(%esp)
    14a1:	00 
    14a2:	8b 03                	mov    (%ebx),%eax
    14a4:	c7 44 24 08 18 c0 02 	movl   $0x2c018,0x8(%esp)
    14ab:	00 
    14ac:	89 44 24 0c          	mov    %eax,0xc(%esp)
    14b0:	c7 44 24 04 04 00 00 	movl   $0x4,0x4(%esp)
    14b7:	00 
    14b8:	c7 04 24 ff ff ff ff 	movl   $0xffffffff,(%esp)
    14bf:	e8 3c 67 01 00       	call   17c00 <log_msg>
    14c4:	83 c4 24             	add    $0x24,%esp
    14c7:	31 c0                	xor    %eax,%eax
    14c9:	5b                   	pop    %ebx
    14ca:	5d                   	pop    %ebp
    14cb:	c3                   	ret    
    14cc:	c7 44 24 08 e0 00 00 	movl   $0xe0,0x8(%esp)
    14d3:	00 
    14d4:	c7 44 24 04 d3 bf 02 	movl   $0x2bfd3,0x4(%esp)
    14db:	00 
    14dc:	c7 04 24 da bf 02 00 	movl   $0x2bfda,(%esp)
    14e3:	e8 18 60 02 00       	call   27500 <assert_abort>
    14e8:	90                   	nop
    14e9:	8d b4 26 00 00 00 00 	lea    0x0(%esi,%eiz,1),%esi

000014f0 <uhci_port_check>:
    14f0:	55                   	push   %ebp
    14f1:	89 e5                	mov    %esp,%ebp
    14f3:	57                   	push   %edi
    14f4:	56                   	push   %esi
    14f5:	53                   	push   %ebx
    14f6:	81 ec 8c 00 00 00    	sub    $0x8c,%esp
    14fc:	8b 75 08             	mov    0x8(%ebp),%esi
    14ff:	85 f6                	test   %esi,%esi
    1501:	0f 84 64 06 00 00    	je     1b6b <uhci_port_check+0x67b>
    1507:	8d 46 10             	lea    0x10(%esi),%eax
    150a:	c7 45 d4 05 00 00 00 	movl   $0x5,-0x2c(%ebp)
    1511:	89 45 e0             	mov    %eax,-0x20(%ebp)
    1514:	8d 46 34             	lea    0x34(%esi),%eax
    1517:	89 45 dc             	mov    %eax,-0x24(%ebp)
    151a:	8d 46 30             	lea    0x30(%esi),%eax
    151d:	89 45 d8             	mov    %eax,-0x28(%ebp)
    1520:	8b 46 0c             	mov    0xc(%esi),%eax
    1523:	89 04 24             	mov    %eax,(%esp)
    1526:	e8 35 db 01 00       	call   1f060 <async_usleep>
    152b:	8b 46 04             	mov    0x4(%esi),%eax
    152e:	89 04 24             	mov    %eax,(%esp)
    1531:	e8 7a bf 00 00       	call   d4b0 <pio_read_16>
    1536:	89 c3                	mov    %eax,%ebx
    1538:	25 ff ff 00 00       	and    $0xffff,%eax
    153d:	89 45 e4             	mov    %eax,-0x1c(%ebp)
    1540:	a9 7f ff 00 00       	test   $0xff7f,%eax
    1545:	0f 85 5d 03 00 00    	jne    18a8 <uhci_port_check+0x3b8>
    154b:	89 df                	mov    %ebx,%edi
    154d:	83 e7 02             	and    $0x2,%edi
    1550:	66 85 ff             	test   %di,%di
    1553:	74 cb                	je     1520 <uhci_port_check+0x30>
    1555:	8b 45 e4             	mov    -0x1c(%ebp),%eax
    1558:	89 44 24 10          	mov    %eax,0x10(%esp)
    155c:	8b 06                	mov    (%esi),%eax
    155e:	c7 44 24 08 68 c1 02 	movl   $0x2c168,0x8(%esp)
    1565:	00 
    1566:	89 44 24 0c          	mov    %eax,0xc(%esp)
    156a:	c7 44 24 04 04 00 00 	movl   $0x4,0x4(%esp)
    1571:	00 
    1572:	c7 04 24 ff ff ff ff 	movl   $0xffffffff,(%esp)
    1579:	e8 82 66 01 00       	call   17c00 <log_msg>
    157e:	8b 45 e0             	mov    -0x20(%ebp),%eax
    1581:	89 04 24             	mov    %eax,(%esp)
    1584:	e8 77 51 00 00       	call   6700 <usb_hc_connection_open>
    1589:	89 c7                	mov    %eax,%edi
    158b:	85 c0                	test   %eax,%eax
    158d:	0f 85 dd 04 00 00    	jne    1a70 <uhci_port_check+0x580>
    1593:	8b 4e 34             	mov    0x34(%esi),%ecx
    1596:	85 c9                	test   %ecx,%ecx
    1598:	0f 84 8a 00 00 00    	je     1628 <uhci_port_check+0x138>
    159e:	8b 06                	mov    (%esi),%eax
    15a0:	c7 44 24 08 bc c0 02 	movl   $0x2c0bc,0x8(%esp)
    15a7:	00 
    15a8:	89 44 24 0c          	mov    %eax,0xc(%esp)
    15ac:	c7 44 24 04 04 00 00 	movl   $0x4,0x4(%esp)
    15b3:	00 
    15b4:	c7 04 24 ff ff ff ff 	movl   $0xffffffff,(%esp)
    15bb:	e8 40 66 01 00       	call   17c00 <log_msg>
    15c0:	8b 46 34             	mov    0x34(%esi),%eax
    15c3:	89 04 24             	mov    %eax,(%esp)
    15c6:	e8 45 6e 00 00       	call   8410 <ddf_fun_unbind>
    15cb:	85 c0                	test   %eax,%eax
    15cd:	0f 85 fd 04 00 00    	jne    1ad0 <uhci_port_check+0x5e0>
    15d3:	8b 46 34             	mov    0x34(%esi),%eax
    15d6:	89 04 24             	mov    %eax,(%esp)
    15d9:	e8 12 6c 00 00       	call   81f0 <ddf_fun_destroy>
    15de:	c7 46 34 00 00 00 00 	movl   $0x0,0x34(%esi)
    15e5:	0f bf 46 30          	movswl 0x30(%esi),%eax
    15e9:	89 44 24 04          	mov    %eax,0x4(%esp)
    15ed:	8b 45 e0             	mov    -0x20(%ebp),%eax
    15f0:	89 04 24             	mov    %eax,(%esp)
    15f3:	e8 78 57 00 00       	call   6d70 <usb_hc_release_address>
    15f8:	85 c0                	test   %eax,%eax
    15fa:	0f 85 38 05 00 00    	jne    1b38 <uhci_port_check+0x648>
    1600:	8b 06                	mov    (%esi),%eax
    1602:	66 c7 46 30 ff ff    	movw   $0xffff,0x30(%esi)
    1608:	89 44 24 0c          	mov    %eax,0xc(%esp)
    160c:	c7 44 24 08 d2 c0 02 	movl   $0x2c0d2,0x8(%esp)
    1613:	00 
    1614:	c7 44 24 04 03 00 00 	movl   $0x3,0x4(%esp)
    161b:	00 
    161c:	c7 04 24 ff ff ff ff 	movl   $0xffffffff,(%esp)
    1623:	e8 d8 65 01 00       	call   17c00 <log_msg>
    1628:	f6 c3 01             	test   $0x1,%bl
    162b:	0f 84 b0 03 00 00    	je     19e1 <uhci_port_check+0x4f1>
    1631:	8b 06                	mov    (%esi),%eax
    1633:	c7 44 24 08 f0 c0 02 	movl   $0x2c0f0,0x8(%esp)
    163a:	00 
    163b:	89 44 24 0c          	mov    %eax,0xc(%esp)
    163f:	c7 44 24 04 04 00 00 	movl   $0x4,0x4(%esp)
    1646:	00 
    1647:	c7 04 24 ff ff ff ff 	movl   $0xffffffff,(%esp)
    164e:	e8 ad 65 01 00       	call   17c00 <log_msg>
    1653:	8b 45 dc             	mov    -0x24(%ebp),%eax
    1656:	0f b6 df             	movzbl %bh,%ebx
    1659:	89 44 24 20          	mov    %eax,0x20(%esp)
    165d:	83 f3 01             	xor    $0x1,%ebx
    1660:	8b 45 d8             	mov    -0x28(%ebp),%eax
    1663:	83 e3 01             	and    $0x1,%ebx
    1666:	89 44 24 14          	mov    %eax,0x14(%esp)
    166a:	8b 45 e0             	mov    -0x20(%ebp),%eax
    166d:	c7 44 24 1c 00 00 00 	movl   $0x0,0x1c(%esp)
    1674:	00 
    1675:	c7 44 24 18 00 00 00 	movl   $0x0,0x18(%esp)
    167c:	00 
    167d:	89 74 24 10          	mov    %esi,0x10(%esp)
    1681:	c7 44 24 0c a0 13 00 	movl   $0x13a0,0xc(%esp)
    1688:	00 
    1689:	89 5c 24 08          	mov    %ebx,0x8(%esp)
    168d:	89 44 24 04          	mov    %eax,0x4(%esp)
    1691:	8b 46 2c             	mov    0x2c(%esi),%eax
    1694:	89 04 24             	mov    %eax,(%esp)
    1697:	e8 e4 08 00 00       	call   1f80 <usb_hc_new_device_wrapper>
    169c:	85 c0                	test   %eax,%eax
    169e:	0f 84 ec 03 00 00    	je     1a90 <uhci_port_check+0x5a0>
    16a4:	8b 45 dc             	mov    -0x24(%ebp),%eax
    16a7:	c7 44 24 1c 00 00 00 	movl   $0x0,0x1c(%esp)
    16ae:	00 
    16af:	89 44 24 20          	mov    %eax,0x20(%esp)
    16b3:	8b 45 d8             	mov    -0x28(%ebp),%eax
    16b6:	89 44 24 14          	mov    %eax,0x14(%esp)
    16ba:	8b 45 e0             	mov    -0x20(%ebp),%eax
    16bd:	c7 44 24 18 00 00 00 	movl   $0x0,0x18(%esp)
    16c4:	00 
    16c5:	89 74 24 10          	mov    %esi,0x10(%esp)
    16c9:	c7 44 24 0c a0 13 00 	movl   $0x13a0,0xc(%esp)
    16d0:	00 
    16d1:	89 5c 24 08          	mov    %ebx,0x8(%esp)
    16d5:	89 44 24 04          	mov    %eax,0x4(%esp)
    16d9:	8b 46 2c             	mov    0x2c(%esi),%eax
    16dc:	89 04 24             	mov    %eax,(%esp)
    16df:	e8 9c 08 00 00       	call   1f80 <usb_hc_new_device_wrapper>
    16e4:	85 c0                	test   %eax,%eax
    16e6:	0f 84 a4 03 00 00    	je     1a90 <uhci_port_check+0x5a0>
    16ec:	8b 45 dc             	mov    -0x24(%ebp),%eax
    16ef:	c7 44 24 1c 00 00 00 	movl   $0x0,0x1c(%esp)
    16f6:	00 
    16f7:	89 44 24 20          	mov    %eax,0x20(%esp)
    16fb:	8b 45 d8             	mov    -0x28(%ebp),%eax
    16fe:	89 44 24 14          	mov    %eax,0x14(%esp)
    1702:	8b 45 e0             	mov    -0x20(%ebp),%eax
    1705:	c7 44 24 18 00 00 00 	movl   $0x0,0x18(%esp)
    170c:	00 
    170d:	89 74 24 10          	mov    %esi,0x10(%esp)
    1711:	c7 44 24 0c a0 13 00 	movl   $0x13a0,0xc(%esp)
    1718:	00 
    1719:	89 5c 24 08          	mov    %ebx,0x8(%esp)
    171d:	89 44 24 04          	mov    %eax,0x4(%esp)
    1721:	8b 46 2c             	mov    0x2c(%esi),%eax
    1724:	89 04 24             	mov    %eax,(%esp)
    1727:	e8 54 08 00 00       	call   1f80 <usb_hc_new_device_wrapper>
    172c:	85 c0                	test   %eax,%eax
    172e:	0f 84 5c 03 00 00    	je     1a90 <uhci_port_check+0x5a0>
    1734:	8b 45 dc             	mov    -0x24(%ebp),%eax
    1737:	c7 44 24 1c 00 00 00 	movl   $0x0,0x1c(%esp)
    173e:	00 
    173f:	89 44 24 20          	mov    %eax,0x20(%esp)
    1743:	8b 45 d8             	mov    -0x28(%ebp),%eax
    1746:	89 44 24 14          	mov    %eax,0x14(%esp)
    174a:	8b 45 e0             	mov    -0x20(%ebp),%eax
    174d:	c7 44 24 18 00 00 00 	movl   $0x0,0x18(%esp)
    1754:	00 
    1755:	89 74 24 10          	mov    %esi,0x10(%esp)
    1759:	c7 44 24 0c a0 13 00 	movl   $0x13a0,0xc(%esp)
    1760:	00 
    1761:	89 5c 24 08          	mov    %ebx,0x8(%esp)
    1765:	89 44 24 04          	mov    %eax,0x4(%esp)
    1769:	8b 46 2c             	mov    0x2c(%esi),%eax
    176c:	89 04 24             	mov    %eax,(%esp)
    176f:	e8 0c 08 00 00       	call   1f80 <usb_hc_new_device_wrapper>
    1774:	85 c0                	test   %eax,%eax
    1776:	0f 84 14 03 00 00    	je     1a90 <uhci_port_check+0x5a0>
    177c:	8b 45 dc             	mov    -0x24(%ebp),%eax
    177f:	c7 44 24 1c 00 00 00 	movl   $0x0,0x1c(%esp)
    1786:	00 
    1787:	89 44 24 20          	mov    %eax,0x20(%esp)
    178b:	8b 45 d8             	mov    -0x28(%ebp),%eax
    178e:	89 44 24 14          	mov    %eax,0x14(%esp)
    1792:	8b 45 e0             	mov    -0x20(%ebp),%eax
    1795:	c7 44 24 18 00 00 00 	movl   $0x0,0x18(%esp)
    179c:	00 
    179d:	89 74 24 10          	mov    %esi,0x10(%esp)
    17a1:	c7 44 24 0c a0 13 00 	movl   $0x13a0,0xc(%esp)
    17a8:	00 
    17a9:	89 5c 24 08          	mov    %ebx,0x8(%esp)
    17ad:	89 44 24 04          	mov    %eax,0x4(%esp)
    17b1:	8b 46 2c             	mov    0x2c(%esi),%eax
    17b4:	89 04 24             	mov    %eax,(%esp)
    17b7:	e8 c4 07 00 00       	call   1f80 <usb_hc_new_device_wrapper>
    17bc:	85 c0                	test   %eax,%eax
    17be:	0f 84 cc 02 00 00    	je     1a90 <uhci_port_check+0x5a0>
    17c4:	8b 45 dc             	mov    -0x24(%ebp),%eax
    17c7:	89 5c 24 08          	mov    %ebx,0x8(%esp)
    17cb:	89 44 24 20          	mov    %eax,0x20(%esp)
    17cf:	8b 45 d8             	mov    -0x28(%ebp),%eax
    17d2:	89 44 24 14          	mov    %eax,0x14(%esp)
    17d6:	8b 45 e0             	mov    -0x20(%ebp),%eax
    17d9:	c7 44 24 1c 00 00 00 	movl   $0x0,0x1c(%esp)
    17e0:	00 
    17e1:	c7 44 24 18 00 00 00 	movl   $0x0,0x18(%esp)
    17e8:	00 
    17e9:	89 74 24 10          	mov    %esi,0x10(%esp)
    17ed:	c7 44 24 0c a0 13 00 	movl   $0x13a0,0xc(%esp)
    17f4:	00 
    17f5:	89 44 24 04          	mov    %eax,0x4(%esp)
    17f9:	8b 46 2c             	mov    0x2c(%esi),%eax
    17fc:	89 04 24             	mov    %eax,(%esp)
    17ff:	e8 7c 07 00 00       	call   1f80 <usb_hc_new_device_wrapper>
    1804:	89 c3                	mov    %eax,%ebx
    1806:	85 c0                	test   %eax,%eax
    1808:	0f 84 82 02 00 00    	je     1a90 <uhci_port_check+0x5a0>
    180e:	89 04 24             	mov    %eax,(%esp)
    1811:	e8 1a 17 01 00       	call   12f30 <str_error>
    1816:	89 5c 24 10          	mov    %ebx,0x10(%esp)
    181a:	89 44 24 14          	mov    %eax,0x14(%esp)
    181e:	8b 06                	mov    (%esi),%eax
    1820:	c7 44 24 08 4c c2 02 	movl   $0x2c24c,0x8(%esp)
    1827:	00 
    1828:	89 44 24 0c          	mov    %eax,0xc(%esp)
    182c:	c7 44 24 04 01 00 00 	movl   $0x1,0x4(%esp)
    1833:	00 
    1834:	c7 04 24 ff ff ff ff 	movl   $0xffffffff,(%esp)
    183b:	e8 c0 63 01 00       	call   17c00 <log_msg>
    1840:	8b 46 04             	mov    0x4(%esi),%eax
    1843:	89 04 24             	mov    %eax,(%esp)
    1846:	e8 65 bc 00 00       	call   d4b0 <pio_read_16>
    184b:	25 fb ff 00 00       	and    $0xfffb,%eax
    1850:	89 44 24 04          	mov    %eax,0x4(%esp)
    1854:	8b 46 04             	mov    0x4(%esi),%eax
    1857:	89 04 24             	mov    %eax,(%esp)
    185a:	e8 71 bb 00 00       	call   d3d0 <pio_write_16>
    185f:	90                   	nop
    1860:	8b 46 04             	mov    0x4(%esi),%eax
    1863:	89 04 24             	mov    %eax,(%esp)
    1866:	e8 45 bc 00 00       	call   d4b0 <pio_read_16>
    186b:	83 e0 05             	and    $0x5,%eax
    186e:	66 48                	dec    %ax
    1870:	74 ee                	je     1860 <uhci_port_check+0x370>
    1872:	c7 44 24 10 0a c1 02 	movl   $0x2c10a,0x10(%esp)
    1879:	00 
    187a:	8b 06                	mov    (%esi),%eax
    187c:	c7 44 24 08 18 c0 02 	movl   $0x2c018,0x8(%esp)
    1883:	00 
    1884:	89 44 24 0c          	mov    %eax,0xc(%esp)
    1888:	c7 44 24 04 04 00 00 	movl   $0x4,0x4(%esp)
    188f:	00 
    1890:	c7 04 24 ff ff ff ff 	movl   $0xffffffff,(%esp)
    1897:	e8 64 63 01 00       	call   17c00 <log_msg>
    189c:	e9 74 01 00 00       	jmp    1a15 <uhci_port_check+0x525>
    18a1:	8d b4 26 00 00 00 00 	lea    0x0(%esi,%eiz,1),%esi
    18a8:	b8 2b c0 02 00       	mov    $0x2c02b,%eax
    18ad:	f6 c3 80             	test   $0x80,%bl
    18b0:	74 05                	je     18b7 <uhci_port_check+0x3c7>
    18b2:	b8 33 c0 02 00       	mov    $0x2c033,%eax
    18b7:	c7 45 b8 2f e0 02 00 	movl   $0x2e02f,-0x48(%ebp)
    18be:	f6 c3 01             	test   $0x1,%bl
    18c1:	74 07                	je     18ca <uhci_port_check+0x3da>
    18c3:	c7 45 b8 3f c0 02 00 	movl   $0x2c03f,-0x48(%ebp)
    18ca:	89 df                	mov    %ebx,%edi
    18cc:	c7 45 bc 2f e0 02 00 	movl   $0x2e02f,-0x44(%ebp)
    18d3:	83 e7 02             	and    $0x2,%edi
    18d6:	74 07                	je     18df <uhci_port_check+0x3ef>
    18d8:	c7 45 bc 4b c0 02 00 	movl   $0x2c04b,-0x44(%ebp)
    18df:	c7 45 c0 2f e0 02 00 	movl   $0x2e02f,-0x40(%ebp)
    18e6:	f6 c3 04             	test   $0x4,%bl
    18e9:	74 07                	je     18f2 <uhci_port_check+0x402>
    18eb:	c7 45 c0 5e c0 02 00 	movl   $0x2c05e,-0x40(%ebp)
    18f2:	c7 45 c4 2f e0 02 00 	movl   $0x2e02f,-0x3c(%ebp)
    18f9:	f6 c3 08             	test   $0x8,%bl
    18fc:	74 07                	je     1905 <uhci_port_check+0x415>
    18fe:	c7 45 c4 68 c0 02 00 	movl   $0x2c068,-0x3c(%ebp)
    1905:	c7 45 c8 2f e0 02 00 	movl   $0x2e02f,-0x38(%ebp)
    190c:	f6 c7 01             	test   $0x1,%bh
    190f:	74 07                	je     1918 <uhci_port_check+0x428>
    1911:	c7 45 c8 79 c0 02 00 	movl   $0x2c079,-0x38(%ebp)
    1918:	c7 45 cc 2f e0 02 00 	movl   $0x2e02f,-0x34(%ebp)
    191f:	f6 c3 10             	test   $0x10,%bl
    1922:	74 07                	je     192b <uhci_port_check+0x43b>
    1924:	c7 45 cc 84 c0 02 00 	movl   $0x2c084,-0x34(%ebp)
    192b:	b9 2f e0 02 00       	mov    $0x2e02f,%ecx
    1930:	f6 c3 20             	test   $0x20,%bl
    1933:	74 05                	je     193a <uhci_port_check+0x44a>
    1935:	b9 8a c0 02 00       	mov    $0x2c08a,%ecx
    193a:	ba 2f e0 02 00       	mov    $0x2e02f,%edx
    193f:	f6 c7 02             	test   $0x2,%bh
    1942:	74 05                	je     1949 <uhci_port_check+0x459>
    1944:	ba 90 c0 02 00       	mov    $0x2c090,%edx
    1949:	c7 45 d0 2f e0 02 00 	movl   $0x2e02f,-0x30(%ebp)
    1950:	f6 c3 40             	test   $0x40,%bl
    1953:	74 07                	je     195c <uhci_port_check+0x46c>
    1955:	c7 45 d0 9b c0 02 00 	movl   $0x2c09b,-0x30(%ebp)
    195c:	c7 45 b4 2f e0 02 00 	movl   $0x2e02f,-0x4c(%ebp)
    1963:	f6 c7 10             	test   $0x10,%bh
    1966:	74 07                	je     196f <uhci_port_check+0x47f>
    1968:	c7 45 b4 a7 c0 02 00 	movl   $0x2c0a7,-0x4c(%ebp)
    196f:	89 44 24 3c          	mov    %eax,0x3c(%esp)
    1973:	8b 45 b8             	mov    -0x48(%ebp),%eax
    1976:	89 44 24 38          	mov    %eax,0x38(%esp)
    197a:	8b 45 bc             	mov    -0x44(%ebp),%eax
    197d:	89 44 24 34          	mov    %eax,0x34(%esp)
    1981:	8b 45 c0             	mov    -0x40(%ebp),%eax
    1984:	89 44 24 30          	mov    %eax,0x30(%esp)
    1988:	8b 45 c4             	mov    -0x3c(%ebp),%eax
    198b:	89 44 24 2c          	mov    %eax,0x2c(%esp)
    198f:	8b 45 c8             	mov    -0x38(%ebp),%eax
    1992:	89 44 24 28          	mov    %eax,0x28(%esp)
    1996:	8b 45 cc             	mov    -0x34(%ebp),%eax
    1999:	89 44 24 24          	mov    %eax,0x24(%esp)
    199d:	8b 45 d0             	mov    -0x30(%ebp),%eax
    19a0:	89 44 24 18          	mov    %eax,0x18(%esp)
    19a4:	8b 45 b4             	mov    -0x4c(%ebp),%eax
    19a7:	89 44 24 14          	mov    %eax,0x14(%esp)
    19ab:	8b 45 e4             	mov    -0x1c(%ebp),%eax
    19ae:	89 4c 24 20          	mov    %ecx,0x20(%esp)
    19b2:	89 54 24 1c          	mov    %edx,0x1c(%esp)
    19b6:	89 44 24 10          	mov    %eax,0x10(%esp)
    19ba:	8b 06                	mov    (%esi),%eax
    19bc:	c7 44 24 08 38 c1 02 	movl   $0x2c138,0x8(%esp)
    19c3:	00 
    19c4:	89 44 24 0c          	mov    %eax,0xc(%esp)
    19c8:	c7 44 24 04 05 00 00 	movl   $0x5,0x4(%esp)
    19cf:	00 
    19d0:	c7 04 24 ff ff ff ff 	movl   $0xffffffff,(%esp)
    19d7:	e8 24 62 01 00       	call   17c00 <log_msg>
    19dc:	e9 6f fb ff ff       	jmp    1550 <uhci_port_check+0x60>
    19e1:	8b 45 e4             	mov    -0x1c(%ebp),%eax
    19e4:	89 44 24 04          	mov    %eax,0x4(%esp)
    19e8:	8b 46 04             	mov    0x4(%esi),%eax
    19eb:	89 04 24             	mov    %eax,(%esp)
    19ee:	e8 dd b9 00 00       	call   d3d0 <pio_write_16>
    19f3:	8b 06                	mov    (%esi),%eax
    19f5:	89 44 24 0c          	mov    %eax,0xc(%esp)
    19f9:	c7 44 24 08 0e c1 02 	movl   $0x2c10e,0x8(%esp)
    1a00:	00 
    1a01:	c7 44 24 04 04 00 00 	movl   $0x4,0x4(%esp)
    1a08:	00 
    1a09:	c7 04 24 ff ff ff ff 	movl   $0xffffffff,(%esp)
    1a10:	e8 eb 61 01 00       	call   17c00 <log_msg>
    1a15:	8b 45 e0             	mov    -0x20(%ebp),%eax
    1a18:	89 04 24             	mov    %eax,(%esp)
    1a1b:	e8 90 4d 00 00       	call   67b0 <usb_hc_connection_close>
    1a20:	89 c7                	mov    %eax,%edi
    1a22:	85 c0                	test   %eax,%eax
    1a24:	0f 84 f6 fa ff ff    	je     1520 <uhci_port_check+0x30>
    1a2a:	89 04 24             	mov    %eax,(%esp)
    1a2d:	e8 fe 14 01 00       	call   12f30 <str_error>
    1a32:	89 44 24 10          	mov    %eax,0x10(%esp)
    1a36:	8b 06                	mov    (%esi),%eax
    1a38:	c7 44 24 08 9c c2 02 	movl   $0x2c29c,0x8(%esp)
    1a3f:	00 
    1a40:	89 44 24 0c          	mov    %eax,0xc(%esp)
    1a44:	c7 44 24 04 01 00 00 	movl   $0x1,0x4(%esp)
    1a4b:	00 
    1a4c:	c7 04 24 ff ff ff ff 	movl   $0xffffffff,(%esp)
    1a53:	e8 a8 61 01 00       	call   17c00 <log_msg>
    1a58:	8b 45 d4             	mov    -0x2c(%ebp),%eax
    1a5b:	8b 55 d4             	mov    -0x2c(%ebp),%edx
    1a5e:	48                   	dec    %eax
    1a5f:	85 d2                	test   %edx,%edx
    1a61:	0f 84 a1 00 00 00    	je     1b08 <uhci_port_check+0x618>
    1a67:	89 45 d4             	mov    %eax,-0x2c(%ebp)
    1a6a:	e9 b1 fa ff ff       	jmp    1520 <uhci_port_check+0x30>
    1a6f:	90                   	nop
    1a70:	89 04 24             	mov    %eax,(%esp)
    1a73:	e8 b8 14 01 00       	call   12f30 <str_error>
    1a78:	89 44 24 10          	mov    %eax,0x10(%esp)
    1a7c:	8b 06                	mov    (%esi),%eax
    1a7e:	c7 44 24 08 8c c1 02 	movl   $0x2c18c,0x8(%esp)
    1a85:	00 
    1a86:	89 44 24 0c          	mov    %eax,0xc(%esp)
    1a8a:	eb b8                	jmp    1a44 <uhci_port_check+0x554>
    1a8c:	8d 74 26 00          	lea    0x0(%esi,%eiz,1),%esi
    1a90:	8b 46 34             	mov    0x34(%esi),%eax
    1a93:	89 04 24             	mov    %eax,(%esp)
    1a96:	e8 c5 65 00 00       	call   8060 <ddf_fun_get_handle>
    1a9b:	89 44 24 14          	mov    %eax,0x14(%esp)
    1a9f:	0f bf 46 30          	movswl 0x30(%esi),%eax
    1aa3:	89 44 24 10          	mov    %eax,0x10(%esp)
    1aa7:	8b 06                	mov    (%esi),%eax
    1aa9:	c7 44 24 08 70 c2 02 	movl   $0x2c270,0x8(%esp)
    1ab0:	00 
    1ab1:	89 44 24 0c          	mov    %eax,0xc(%esp)
    1ab5:	c7 44 24 04 03 00 00 	movl   $0x3,0x4(%esp)
    1abc:	00 
    1abd:	c7 04 24 ff ff ff ff 	movl   $0xffffffff,(%esp)
    1ac4:	e8 37 61 01 00       	call   17c00 <log_msg>
    1ac9:	e9 47 ff ff ff       	jmp    1a15 <uhci_port_check+0x525>
    1ace:	66 90                	xchg   %ax,%ax
    1ad0:	89 04 24             	mov    %eax,(%esp)
    1ad3:	e8 58 14 01 00       	call   12f30 <str_error>
    1ad8:	89 44 24 10          	mov    %eax,0x10(%esp)
    1adc:	8b 06                	mov    (%esi),%eax
    1ade:	c7 44 24 08 e4 c1 02 	movl   $0x2c1e4,0x8(%esp)
    1ae5:	00 
    1ae6:	89 44 24 0c          	mov    %eax,0xc(%esp)
    1aea:	c7 44 24 04 01 00 00 	movl   $0x1,0x4(%esp)
    1af1:	00 
    1af2:	c7 04 24 ff ff ff ff 	movl   $0xffffffff,(%esp)
    1af9:	e8 02 61 01 00       	call   17c00 <log_msg>
    1afe:	e9 25 fb ff ff       	jmp    1628 <uhci_port_check+0x138>
    1b03:	90                   	nop
    1b04:	8d 74 26 00          	lea    0x0(%esi,%eiz,1),%esi
    1b08:	c7 44 24 08 b0 c1 02 	movl   $0x2c1b0,0x8(%esp)
    1b0f:	00 
    1b10:	c7 44 24 04 00 00 00 	movl   $0x0,0x4(%esp)
    1b17:	00 
    1b18:	c7 04 24 ff ff ff ff 	movl   $0xffffffff,(%esp)
    1b1f:	e8 dc 60 01 00       	call   17c00 <log_msg>
    1b24:	81 c4 8c 00 00 00    	add    $0x8c,%esp
    1b2a:	89 f8                	mov    %edi,%eax
    1b2c:	5b                   	pop    %ebx
    1b2d:	5e                   	pop    %esi
    1b2e:	5f                   	pop    %edi
    1b2f:	5d                   	pop    %ebp
    1b30:	c3                   	ret    
    1b31:	8d b4 26 00 00 00 00 	lea    0x0(%esi,%eiz,1),%esi
    1b38:	89 04 24             	mov    %eax,(%esp)
    1b3b:	e8 f0 13 01 00       	call   12f30 <str_error>
    1b40:	89 44 24 10          	mov    %eax,0x10(%esp)
    1b44:	8b 06                	mov    (%esi),%eax
    1b46:	c7 44 24 08 10 c2 02 	movl   $0x2c210,0x8(%esp)
    1b4d:	00 
    1b4e:	89 44 24 0c          	mov    %eax,0xc(%esp)
    1b52:	c7 44 24 04 01 00 00 	movl   $0x1,0x4(%esp)
    1b59:	00 
    1b5a:	c7 04 24 ff ff ff ff 	movl   $0xffffffff,(%esp)
    1b61:	e8 9a 60 01 00       	call   17c00 <log_msg>
    1b66:	e9 bd fa ff ff       	jmp    1628 <uhci_port_check+0x138>
    1b6b:	c7 44 24 08 98 00 00 	movl   $0x98,0x8(%esp)
    1b72:	00 
    1b73:	c7 44 24 04 d3 bf 02 	movl   $0x2bfd3,0x4(%esp)
    1b7a:	00 
    1b7b:	c7 04 24 b3 c0 02 00 	movl   $0x2c0b3,(%esp)
    1b82:	e8 79 59 02 00       	call   27500 <assert_abort>
    1b87:	89 f6                	mov    %esi,%esi
    1b89:	8d bc 27 00 00 00 00 	lea    0x0(%edi,%eiz,1),%edi

00001b90 <uhci_port_init>:
    1b90:	55                   	push   %ebp
    1b91:	89 e5                	mov    %esp,%ebp
    1b93:	57                   	push   %edi
    1b94:	56                   	push   %esi
    1b95:	53                   	push   %ebx
    1b96:	83 ec 3c             	sub    $0x3c,%esp
    1b99:	8b 5d 08             	mov    0x8(%ebp),%ebx
    1b9c:	8b 75 10             	mov    0x10(%ebp),%esi
    1b9f:	8b 7d 18             	mov    0x18(%ebp),%edi
    1ba2:	85 db                	test   %ebx,%ebx
    1ba4:	0f 84 28 01 00 00    	je     1cd2 <uhci_port_init+0x142>
    1baa:	8d 45 e4             	lea    -0x1c(%ebp),%eax
    1bad:	89 74 24 0c          	mov    %esi,0xc(%esp)
    1bb1:	89 5c 24 08          	mov    %ebx,0x8(%esp)
    1bb5:	c7 44 24 04 26 c1 02 	movl   $0x2c126,0x4(%esp)
    1bbc:	00 
    1bbd:	89 04 24             	mov    %eax,(%esp)
    1bc0:	e8 4b 38 01 00       	call   15410 <asprintf>
    1bc5:	8b 45 e4             	mov    -0x1c(%ebp),%eax
    1bc8:	85 c0                	test   %eax,%eax
    1bca:	0f 84 f8 00 00 00    	je     1cc8 <uhci_port_init+0x138>
    1bd0:	89 03                	mov    %eax,(%ebx)
    1bd2:	8b 45 0c             	mov    0xc(%ebp),%eax
    1bd5:	89 43 04             	mov    %eax,0x4(%ebx)
    1bd8:	8b 45 14             	mov    0x14(%ebp),%eax
    1bdb:	89 43 0c             	mov    %eax,0xc(%ebx)
    1bde:	8d 43 10             	lea    0x10(%ebx),%eax
    1be1:	89 73 08             	mov    %esi,0x8(%ebx)
    1be4:	c7 43 34 00 00 00 00 	movl   $0x0,0x34(%ebx)
    1beb:	66 c7 43 30 ff ff    	movw   $0xffff,0x30(%ebx)
    1bf1:	89 7b 2c             	mov    %edi,0x2c(%ebx)
    1bf4:	89 7c 24 04          	mov    %edi,0x4(%esp)
    1bf8:	89 04 24             	mov    %eax,(%esp)
    1bfb:	e8 b0 49 00 00       	call   65b0 <usb_hc_connection_initialize_from_device>
    1c00:	89 c6                	mov    %eax,%esi
    1c02:	85 c0                	test   %eax,%eax
    1c04:	75 52                	jne    1c58 <uhci_port_init+0xc8>
    1c06:	89 5c 24 04          	mov    %ebx,0x4(%esp)
    1c0a:	c7 04 24 f0 14 00 00 	movl   $0x14f0,(%esp)
    1c11:	e8 2a 18 01 00       	call   13440 <fibril_create>
    1c16:	89 43 38             	mov    %eax,0x38(%ebx)
    1c19:	85 c0                	test   %eax,%eax
    1c1b:	74 73                	je     1c90 <uhci_port_init+0x100>
    1c1d:	89 04 24             	mov    %eax,(%esp)
    1c20:	e8 5b 19 01 00       	call   13580 <fibril_add_ready>
    1c25:	8b 43 38             	mov    0x38(%ebx),%eax
    1c28:	89 44 24 10          	mov    %eax,0x10(%esp)
    1c2c:	8b 03                	mov    (%ebx),%eax
    1c2e:	c7 44 24 08 18 c3 02 	movl   $0x2c318,0x8(%esp)
    1c35:	00 
    1c36:	89 44 24 0c          	mov    %eax,0xc(%esp)
    1c3a:	c7 44 24 04 04 00 00 	movl   $0x4,0x4(%esp)
    1c41:	00 
    1c42:	c7 04 24 ff ff ff ff 	movl   $0xffffffff,(%esp)
    1c49:	e8 b2 5f 01 00       	call   17c00 <log_msg>
    1c4e:	83 c4 3c             	add    $0x3c,%esp
    1c51:	89 f0                	mov    %esi,%eax
    1c53:	5b                   	pop    %ebx
    1c54:	5e                   	pop    %esi
    1c55:	5f                   	pop    %edi
    1c56:	5d                   	pop    %ebp
    1c57:	c3                   	ret    
    1c58:	8b 03                	mov    (%ebx),%eax
    1c5a:	c7 44 24 08 c4 c2 02 	movl   $0x2c2c4,0x8(%esp)
    1c61:	00 
    1c62:	89 44 24 0c          	mov    %eax,0xc(%esp)
    1c66:	c7 44 24 04 01 00 00 	movl   $0x1,0x4(%esp)
    1c6d:	00 
    1c6e:	c7 04 24 ff ff ff ff 	movl   $0xffffffff,(%esp)
    1c75:	e8 86 5f 01 00       	call   17c00 <log_msg>
    1c7a:	8b 45 e4             	mov    -0x1c(%ebp),%eax
    1c7d:	89 04 24             	mov    %eax,(%esp)
    1c80:	e8 2b b1 01 00       	call   1cdb0 <free>
    1c85:	83 c4 3c             	add    $0x3c,%esp
    1c88:	89 f0                	mov    %esi,%eax
    1c8a:	5b                   	pop    %ebx
    1c8b:	5e                   	pop    %esi
    1c8c:	5f                   	pop    %edi
    1c8d:	5d                   	pop    %ebp
    1c8e:	c3                   	ret    
    1c8f:	90                   	nop
    1c90:	8b 03                	mov    (%ebx),%eax
    1c92:	c7 44 24 08 f0 c2 02 	movl   $0x2c2f0,0x8(%esp)
    1c99:	00 
    1c9a:	89 44 24 0c          	mov    %eax,0xc(%esp)
    1c9e:	c7 44 24 04 01 00 00 	movl   $0x1,0x4(%esp)
    1ca5:	00 
    1ca6:	c7 04 24 ff ff ff ff 	movl   $0xffffffff,(%esp)
    1cad:	be fe ff ff ff       	mov    $0xfffffffe,%esi
    1cb2:	e8 49 5f 01 00       	call   17c00 <log_msg>
    1cb7:	8b 45 e4             	mov    -0x1c(%ebp),%eax
    1cba:	89 04 24             	mov    %eax,(%esp)
    1cbd:	e8 ee b0 01 00       	call   1cdb0 <free>
    1cc2:	eb 8a                	jmp    1c4e <uhci_port_init+0xbe>
    1cc4:	8d 74 26 00          	lea    0x0(%esi,%eiz,1),%esi
    1cc8:	be fe ff ff ff       	mov    $0xfffffffe,%esi
    1ccd:	e9 7c ff ff ff       	jmp    1c4e <uhci_port_init+0xbe>
    1cd2:	c7 44 24 08 5c 00 00 	movl   $0x5c,0x8(%esp)
    1cd9:	00 
    1cda:	c7 44 24 04 d3 bf 02 	movl   $0x2bfd3,0x4(%esp)
    1ce1:	00 
    1ce2:	c7 04 24 da bf 02 00 	movl   $0x2bfda,(%esp)
    1ce9:	e8 12 58 02 00       	call   27500 <assert_abort>
    1cee:	66 90                	xchg   %ax,%ax

00001cf0 <uhci_port_fini>:
    1cf0:	55                   	push   %ebp
    1cf1:	89 e5                	mov    %esp,%ebp
    1cf3:	83 ec 18             	sub    $0x18,%esp
    1cf6:	8b 45 08             	mov    0x8(%ebp),%eax
    1cf9:	85 c0                	test   %eax,%eax
    1cfb:	74 0b                	je     1d08 <uhci_port_fini+0x18>
    1cfd:	8b 00                	mov    (%eax),%eax
    1cff:	89 45 08             	mov    %eax,0x8(%ebp)
    1d02:	c9                   	leave  
    1d03:	e9 a8 b0 01 00       	jmp    1cdb0 <free>
    1d08:	c7 44 24 08 8a 00 00 	movl   $0x8a,0x8(%esp)
    1d0f:	00 
    1d10:	c7 44 24 04 d3 bf 02 	movl   $0x2bfd3,0x4(%esp)
    1d17:	00 
    1d18:	c7 04 24 da bf 02 00 	movl   $0x2bfda,(%esp)
    1d1f:	e8 dc 57 02 00       	call   27500 <assert_abort>

00001d24 <uhci_port_read_status.part.0>:
    1d24:	55                   	push   %ebp
    1d25:	89 e5                	mov    %esp,%ebp
    1d27:	83 ec 18             	sub    $0x18,%esp
    1d2a:	c7 44 24 08 3e 00 00 	movl   $0x3e,0x8(%esp)
    1d31:	00 
    1d32:	c7 44 24 04 d3 bf 02 	movl   $0x2bfd3,0x4(%esp)
    1d39:	00 
    1d3a:	c7 04 24 da bf 02 00 	movl   $0x2bfda,(%esp)
    1d41:	e8 ba 57 02 00       	call   27500 <assert_abort>

00001d46 <uhci_port_write_status.part.1>:
    1d46:	55                   	push   %ebp
    1d47:	89 e5                	mov    %esp,%ebp
    1d49:	83 ec 18             	sub    $0x18,%esp
    1d4c:	c7 44 24 08 4a 00 00 	movl   $0x4a,0x8(%esp)
    1d53:	00 
    1d54:	c7 44 24 04 d3 bf 02 	movl   $0x2bfd3,0x4(%esp)
    1d5b:	00 
    1d5c:	c7 04 24 da bf 02 00 	movl   $0x2bfda,(%esp)
    1d63:	e8 98 57 02 00       	call   27500 <assert_abort>
    1d68:	66 90                	xchg   %ax,%ax
    1d6a:	66 90                	xchg   %ax,%ax
    1d6c:	66 90                	xchg   %ax,%ax
    1d6e:	66 90                	xchg   %ax,%ax

00001d70 <uhci_root_hub_init>:
    1d70:	55                   	push   %ebp
    1d71:	89 e5                	mov    %esp,%ebp
    1d73:	57                   	push   %edi
    1d74:	56                   	push   %esi
    1d75:	53                   	push   %ebx
    1d76:	83 ec 3c             	sub    $0x3c,%esp
    1d79:	8b 75 08             	mov    0x8(%ebp),%esi
    1d7c:	8b 45 10             	mov    0x10(%ebp),%eax
    1d7f:	8b 7d 14             	mov    0x14(%ebp),%edi
    1d82:	85 f6                	test   %esi,%esi
    1d84:	0f 84 d8 00 00 00    	je     1e62 <uhci_root_hub_init+0xf2>
    1d8a:	85 ff                	test   %edi,%edi
    1d8c:	0f 84 08 01 00 00    	je     1e9a <uhci_root_hub_init+0x12a>
    1d92:	83 f8 03             	cmp    $0x3,%eax
    1d95:	0f 86 e3 00 00 00    	jbe    1e7e <uhci_root_hub_init+0x10e>
    1d9b:	8d 55 e4             	lea    -0x1c(%ebp),%edx
    1d9e:	89 44 24 04          	mov    %eax,0x4(%esp)
    1da2:	8b 45 0c             	mov    0xc(%ebp),%eax
    1da5:	89 54 24 08          	mov    %edx,0x8(%esp)
    1da9:	89 04 24             	mov    %eax,(%esp)
    1dac:	e8 df b4 00 00       	call   d290 <pio_enable>
    1db1:	89 c3                	mov    %eax,%ebx
    1db3:	85 c0                	test   %eax,%eax
    1db5:	78 69                	js     1e20 <uhci_root_hub_init+0xb0>
    1db7:	8b 45 e4             	mov    -0x1c(%ebp),%eax
    1dba:	89 7c 24 10          	mov    %edi,0x10(%esp)
    1dbe:	c7 44 24 0c 90 d0 03 	movl   $0x3d090,0xc(%esp)
    1dc5:	00 
    1dc6:	c7 44 24 08 00 00 00 	movl   $0x0,0x8(%esp)
    1dcd:	00 
    1dce:	89 44 24 04          	mov    %eax,0x4(%esp)
    1dd2:	89 34 24             	mov    %esi,(%esp)
    1dd5:	e8 b6 fd ff ff       	call   1b90 <uhci_port_init>
    1dda:	89 c3                	mov    %eax,%ebx
    1ddc:	85 c0                	test   %eax,%eax
    1dde:	75 2f                	jne    1e0f <uhci_root_hub_init+0x9f>
    1de0:	8b 45 e4             	mov    -0x1c(%ebp),%eax
    1de3:	89 7c 24 10          	mov    %edi,0x10(%esp)
    1de7:	83 c0 02             	add    $0x2,%eax
    1dea:	c7 44 24 0c 90 d0 03 	movl   $0x3d090,0xc(%esp)
    1df1:	00 
    1df2:	89 44 24 04          	mov    %eax,0x4(%esp)
    1df6:	8d 46 3c             	lea    0x3c(%esi),%eax
    1df9:	c7 44 24 08 01 00 00 	movl   $0x1,0x8(%esp)
    1e00:	00 
    1e01:	89 04 24             	mov    %eax,(%esp)
    1e04:	e8 87 fd ff ff       	call   1b90 <uhci_port_init>
    1e09:	89 c3                	mov    %eax,%ebx
    1e0b:	85 c0                	test   %eax,%eax
    1e0d:	75 49                	jne    1e58 <uhci_root_hub_init+0xe8>
    1e0f:	83 c4 3c             	add    $0x3c,%esp
    1e12:	89 d8                	mov    %ebx,%eax
    1e14:	5b                   	pop    %ebx
    1e15:	5e                   	pop    %esi
    1e16:	5f                   	pop    %edi
    1e17:	5d                   	pop    %ebp
    1e18:	c3                   	ret    
    1e19:	8d b4 26 00 00 00 00 	lea    0x0(%esi,%eiz,1),%esi
    1e20:	89 04 24             	mov    %eax,(%esp)
    1e23:	e8 08 11 01 00       	call   12f30 <str_error>
    1e28:	89 5c 24 0c          	mov    %ebx,0xc(%esp)
    1e2c:	89 44 24 14          	mov    %eax,0x14(%esp)
    1e30:	8b 45 e4             	mov    -0x1c(%ebp),%eax
    1e33:	89 44 24 10          	mov    %eax,0x10(%esp)
    1e37:	c7 44 24 08 84 c3 02 	movl   $0x2c384,0x8(%esp)
    1e3e:	00 
    1e3f:	c7 44 24 04 01 00 00 	movl   $0x1,0x4(%esp)
    1e46:	00 
    1e47:	c7 04 24 ff ff ff ff 	movl   $0xffffffff,(%esp)
    1e4e:	e8 ad 5d 01 00       	call   17c00 <log_msg>
    1e53:	eb ba                	jmp    1e0f <uhci_root_hub_init+0x9f>
    1e55:	8d 76 00             	lea    0x0(%esi),%esi
    1e58:	89 34 24             	mov    %esi,(%esp)
    1e5b:	e8 90 fe ff ff       	call   1cf0 <uhci_port_fini>
    1e60:	eb ad                	jmp    1e0f <uhci_root_hub_init+0x9f>
    1e62:	c7 44 24 08 34 00 00 	movl   $0x34,0x8(%esp)
    1e69:	00 
    1e6a:	c7 44 24 04 3a c3 02 	movl   $0x2c33a,0x4(%esp)
    1e71:	00 
    1e72:	c7 04 24 b3 c0 02 00 	movl   $0x2c0b3,(%esp)
    1e79:	e8 82 56 02 00       	call   27500 <assert_abort>
    1e7e:	c7 44 24 08 38 00 00 	movl   $0x38,0x8(%esp)
    1e85:	00 
    1e86:	c7 44 24 04 3a c3 02 	movl   $0x2c33a,0x4(%esp)
    1e8d:	00 
    1e8e:	c7 04 24 48 c3 02 00 	movl   $0x2c348,(%esp)
    1e95:	e8 66 56 02 00       	call   27500 <assert_abort>
    1e9a:	c7 44 24 08 35 00 00 	movl   $0x35,0x8(%esp)
    1ea1:	00 
    1ea2:	c7 44 24 04 3a c3 02 	movl   $0x2c33a,0x4(%esp)
    1ea9:	00 
    1eaa:	c7 04 24 ff be 02 00 	movl   $0x2beff,(%esp)
    1eb1:	e8 4a 56 02 00       	call   27500 <assert_abort>
    1eb6:	8d 76 00             	lea    0x0(%esi),%esi
    1eb9:	8d bc 27 00 00 00 00 	lea    0x0(%edi,%eiz,1),%edi

00001ec0 <uhci_root_hub_fini>:
    1ec0:	55                   	push   %ebp
    1ec1:	89 e5                	mov    %esp,%ebp
    1ec3:	53                   	push   %ebx
    1ec4:	83 ec 14             	sub    $0x14,%esp
    1ec7:	8b 5d 08             	mov    0x8(%ebp),%ebx
    1eca:	85 db                	test   %ebx,%ebx
    1ecc:	74 18                	je     1ee6 <uhci_root_hub_fini+0x26>
    1ece:	89 1c 24             	mov    %ebx,(%esp)
    1ed1:	83 c3 3c             	add    $0x3c,%ebx
    1ed4:	e8 17 fe ff ff       	call   1cf0 <uhci_port_fini>
    1ed9:	89 5d 08             	mov    %ebx,0x8(%ebp)
    1edc:	83 c4 14             	add    $0x14,%esp
    1edf:	5b                   	pop    %ebx
    1ee0:	5d                   	pop    %ebp
    1ee1:	e9 0a fe ff ff       	jmp    1cf0 <uhci_port_fini>
    1ee6:	c7 44 24 08 58 00 00 	movl   $0x58,0x8(%esp)
    1eed:	00 
    1eee:	c7 44 24 04 3a c3 02 	movl   $0x2c33a,0x4(%esp)
    1ef5:	00 
    1ef6:	c7 04 24 b3 c0 02 00 	movl   $0x2c0b3,(%esp)
    1efd:	e8 fe 55 02 00       	call   27500 <assert_abort>
    1f02:	66 90                	xchg   %ax,%ax
    1f04:	66 90                	xchg   %ax,%ax
    1f06:	66 90                	xchg   %ax,%ax
    1f08:	66 90                	xchg   %ax,%ax
    1f0a:	66 90                	xchg   %ax,%ax
    1f0c:	66 90                	xchg   %ax,%ax
    1f0e:	66 90                	xchg   %ax,%ax

00001f10 <usb_hub_register_device>:
    1f10:	55                   	push   %ebp
    1f11:	89 e5                	mov    %esp,%ebp
    1f13:	56                   	push   %esi
    1f14:	53                   	push   %ebx
    1f15:	83 ec 10             	sub    $0x10,%esp
    1f18:	8b 75 08             	mov    0x8(%ebp),%esi
    1f1b:	8b 5d 0c             	mov    0xc(%ebp),%ebx
    1f1e:	85 f6                	test   %esi,%esi
    1f20:	74 35                	je     1f57 <usb_hub_register_device+0x47>
    1f22:	85 db                	test   %ebx,%ebx
    1f24:	74 2a                	je     1f50 <usb_hub_register_device+0x40>
    1f26:	8b 43 04             	mov    0x4(%ebx),%eax
    1f29:	85 c0                	test   %eax,%eax
    1f2b:	74 23                	je     1f50 <usb_hub_register_device+0x40>
    1f2d:	89 04 24             	mov    %eax,(%esp)
    1f30:	e8 2b 61 00 00       	call   8060 <ddf_fun_get_handle>
    1f35:	89 44 24 08          	mov    %eax,0x8(%esp)
    1f39:	0f bf 03             	movswl (%ebx),%eax
    1f3c:	89 34 24             	mov    %esi,(%esp)
    1f3f:	89 44 24 04          	mov    %eax,0x4(%esp)
    1f43:	e8 e8 4a 00 00       	call   6a30 <usb_hc_bind_address>
    1f48:	83 c4 10             	add    $0x10,%esp
    1f4b:	5b                   	pop    %ebx
    1f4c:	5e                   	pop    %esi
    1f4d:	5d                   	pop    %ebp
    1f4e:	c3                   	ret    
    1f4f:	90                   	nop
    1f50:	b8 f6 ff ff ff       	mov    $0xfffffff6,%eax
    1f55:	eb f1                	jmp    1f48 <usb_hub_register_device+0x38>
    1f57:	c7 44 24 08 3d 00 00 	movl   $0x3d,0x8(%esp)
    1f5e:	00 
    1f5f:	c7 44 24 04 bc c3 02 	movl   $0x2c3bc,0x4(%esp)
    1f66:	00 
    1f67:	c7 04 24 25 d2 02 00 	movl   $0x2d225,(%esp)
    1f6e:	e8 8d 55 02 00       	call   27500 <assert_abort>
    1f73:	8d b6 00 00 00 00    	lea    0x0(%esi),%esi
    1f79:	8d bc 27 00 00 00 00 	lea    0x0(%edi,%eiz,1),%edi

00001f80 <usb_hc_new_device_wrapper>:
    1f80:	55                   	push   %ebp
    1f81:	89 e5                	mov    %esp,%ebp
    1f83:	57                   	push   %edi
    1f84:	56                   	push   %esi
    1f85:	53                   	push   %ebx
    1f86:	83 ec 7c             	sub    $0x7c,%esp
    1f89:	8b 45 28             	mov    0x28(%ebp),%eax
    1f8c:	8b 5d 0c             	mov    0xc(%ebp),%ebx
    1f8f:	85 c0                	test   %eax,%eax
    1f91:	0f 84 b9 01 00 00    	je     2150 <usb_hc_new_device_wrapper+0x1d0>
    1f97:	85 db                	test   %ebx,%ebx
    1f99:	0f 84 b1 01 00 00    	je     2150 <usb_hc_new_device_wrapper+0x1d0>
    1f9f:	8d 75 b0             	lea    -0x50(%ebp),%esi
    1fa2:	c7 44 24 04 00 00 00 	movl   $0x0,0x4(%esp)
    1fa9:	00 
    1faa:	89 34 24             	mov    %esi,(%esp)
    1fad:	e8 ce 1e 02 00       	call   23e80 <gettimeofday>
    1fb2:	89 c2                	mov    %eax,%edx
    1fb4:	85 c0                	test   %eax,%eax
    1fb6:	74 10                	je     1fc8 <usb_hc_new_device_wrapper+0x48>
    1fb8:	83 c4 7c             	add    $0x7c,%esp
    1fbb:	89 d0                	mov    %edx,%eax
    1fbd:	5b                   	pop    %ebx
    1fbe:	5e                   	pop    %esi
    1fbf:	5f                   	pop    %edi
    1fc0:	5d                   	pop    %ebp
    1fc1:	c3                   	ret    
    1fc2:	8d b6 00 00 00 00    	lea    0x0(%esi),%esi
    1fc8:	89 1c 24             	mov    %ebx,(%esp)
    1fcb:	e8 30 47 00 00       	call   6700 <usb_hc_connection_open>
    1fd0:	89 c2                	mov    %eax,%edx
    1fd2:	85 c0                	test   %eax,%eax
    1fd4:	75 e2                	jne    1fb8 <usb_hc_new_device_wrapper+0x38>
    1fd6:	8b 45 10             	mov    0x10(%ebp),%eax
    1fd9:	c7 44 24 08 00 00 00 	movl   $0x0,0x8(%esp)
    1fe0:	00 
    1fe1:	89 44 24 0c          	mov    %eax,0xc(%esp)
    1fe5:	c7 44 24 04 00 00 00 	movl   $0x0,0x4(%esp)
    1fec:	00 
    1fed:	89 1c 24             	mov    %ebx,(%esp)
    1ff0:	e8 8b 48 00 00       	call   6880 <usb_hc_request_address>
    1ff5:	0f bf f8             	movswl %ax,%edi
    1ff8:	66 85 ff             	test   %di,%di
    1ffb:	0f 88 5f 01 00 00    	js     2160 <usb_hc_new_device_wrapper+0x1e0>
    2001:	8d 45 b8             	lea    -0x48(%ebp),%eax
    2004:	8d 4d d0             	lea    -0x30(%ebp),%ecx
    2007:	89 44 24 04          	mov    %eax,0x4(%esp)
    200b:	89 0c 24             	mov    %ecx,(%esp)
    200e:	89 5d b8             	mov    %ebx,-0x48(%ebp)
    2011:	66 c7 45 bc 00 00    	movw   $0x0,-0x44(%ebp)
    2017:	e8 c4 09 00 00       	call   29e0 <usb_pipe_initialize_default_control>
    201c:	85 c0                	test   %eax,%eax
    201e:	0f 85 44 01 00 00    	jne    2168 <usb_hc_new_device_wrapper+0x1e8>
    2024:	8b 45 10             	mov    0x10(%ebp),%eax
    2027:	c7 44 24 08 01 00 00 	movl   $0x1,0x8(%esp)
    202e:	00 
    202f:	89 44 24 0c          	mov    %eax,0xc(%esp)
    2033:	c7 44 24 04 00 00 00 	movl   $0x0,0x4(%esp)
    203a:	00 
    203b:	89 1c 24             	mov    %ebx,(%esp)
    203e:	e8 3d 48 00 00       	call   6880 <usb_hc_request_address>
    2043:	0f bf d0             	movswl %ax,%edx
    2046:	83 fa ff             	cmp    $0xffffffff,%edx
    2049:	0f 84 89 01 00 00    	je     21d8 <usb_hc_new_device_wrapper+0x258>
    204f:	85 d2                	test   %edx,%edx
    2051:	0f 88 81 00 00 00    	js     20d8 <usb_hc_new_device_wrapper+0x158>
    2057:	8d 4d d0             	lea    -0x30(%ebp),%ecx
    205a:	c7 44 24 04 00 00 00 	movl   $0x0,0x4(%esp)
    2061:	00 
    2062:	89 0c 24             	mov    %ecx,(%esp)
    2065:	e8 f6 09 00 00       	call   2a60 <usb_pipe_register>
    206a:	85 c0                	test   %eax,%eax
    206c:	0f 85 77 01 00 00    	jne    21e9 <usb_hc_new_device_wrapper+0x269>
    2072:	8d 4d c0             	lea    -0x40(%ebp),%ecx
    2075:	c7 44 24 04 00 00 00 	movl   $0x0,0x4(%esp)
    207c:	00 
    207d:	89 0c 24             	mov    %ecx,(%esp)
    2080:	89 4d a4             	mov    %ecx,-0x5c(%ebp)
    2083:	e8 f8 1d 02 00       	call   23e80 <gettimeofday>
    2088:	8b 4d a4             	mov    -0x5c(%ebp),%ecx
    208b:	89 c2                	mov    %eax,%edx
    208d:	85 c0                	test   %eax,%eax
    208f:	0f 84 5e 01 00 00    	je     21f3 <usb_hc_new_device_wrapper+0x273>
    2095:	c7 44 24 04 00 00 00 	movl   $0x0,0x4(%esp)
    209c:	00 
    209d:	89 1c 24             	mov    %ebx,(%esp)
    20a0:	89 55 a4             	mov    %edx,-0x5c(%ebp)
    20a3:	e8 c8 4c 00 00       	call   6d70 <usb_hc_release_address>
    20a8:	8b 55 a4             	mov    -0x5c(%ebp),%edx
    20ab:	85 c0                	test   %eax,%eax
    20ad:	74 29                	je     20d8 <usb_hc_new_device_wrapper+0x158>
    20af:	c7 44 24 0c ac c4 02 	movl   $0x2c4ac,0xc(%esp)
    20b6:	00 
    20b7:	c7 44 24 08 14 c4 02 	movl   $0x2c414,0x8(%esp)
    20be:	00 
    20bf:	c7 44 24 04 02 00 00 	movl   $0x2,0x4(%esp)
    20c6:	00 
    20c7:	c7 04 24 ff ff ff ff 	movl   $0xffffffff,(%esp)
    20ce:	e8 2d 5b 01 00       	call   17c00 <log_msg>
    20d3:	8b 55 a4             	mov    -0x5c(%ebp),%edx
    20d6:	66 90                	xchg   %ax,%ax
    20d8:	8d 45 d0             	lea    -0x30(%ebp),%eax
    20db:	89 55 a4             	mov    %edx,-0x5c(%ebp)
    20de:	89 04 24             	mov    %eax,(%esp)
    20e1:	e8 0a 0a 00 00       	call   2af0 <usb_pipe_unregister>
    20e6:	8b 55 a4             	mov    -0x5c(%ebp),%edx
    20e9:	85 c0                	test   %eax,%eax
    20eb:	0f 85 87 00 00 00    	jne    2178 <usb_hc_new_device_wrapper+0x1f8>
    20f1:	89 7c 24 04          	mov    %edi,0x4(%esp)
    20f5:	89 1c 24             	mov    %ebx,(%esp)
    20f8:	89 55 a4             	mov    %edx,-0x5c(%ebp)
    20fb:	e8 70 4c 00 00       	call   6d70 <usb_hc_release_address>
    2100:	8b 55 a4             	mov    -0x5c(%ebp),%edx
    2103:	85 c0                	test   %eax,%eax
    2105:	0f 85 9d 00 00 00    	jne    21a8 <usb_hc_new_device_wrapper+0x228>
    210b:	89 1c 24             	mov    %ebx,(%esp)
    210e:	89 55 a4             	mov    %edx,-0x5c(%ebp)
    2111:	e8 9a 46 00 00       	call   67b0 <usb_hc_connection_close>
    2116:	8b 55 a4             	mov    -0x5c(%ebp),%edx
    2119:	85 c0                	test   %eax,%eax
    211b:	0f 84 97 fe ff ff    	je     1fb8 <usb_hc_new_device_wrapper+0x38>
    2121:	c7 44 24 0c ac c4 02 	movl   $0x2c4ac,0xc(%esp)
    2128:	00 
    2129:	c7 44 24 08 88 c4 02 	movl   $0x2c488,0x8(%esp)
    2130:	00 
    2131:	c7 44 24 04 02 00 00 	movl   $0x2,0x4(%esp)
    2138:	00 
    2139:	c7 04 24 ff ff ff ff 	movl   $0xffffffff,(%esp)
    2140:	e8 bb 5a 01 00       	call   17c00 <log_msg>
    2145:	8b 55 a4             	mov    -0x5c(%ebp),%edx
    2148:	e9 6b fe ff ff       	jmp    1fb8 <usb_hc_new_device_wrapper+0x38>
    214d:	8d 76 00             	lea    0x0(%esi),%esi
    2150:	ba f2 ff ff ff       	mov    $0xfffffff2,%edx
    2155:	e9 5e fe ff ff       	jmp    1fb8 <usb_hc_new_device_wrapper+0x38>
    215a:	8d b6 00 00 00 00    	lea    0x0(%esi),%esi
    2160:	ba f4 ff ff ff       	mov    $0xfffffff4,%edx
    2165:	eb a4                	jmp    210b <usb_hc_new_device_wrapper+0x18b>
    2167:	90                   	nop
    2168:	ba b7 d8 ff ff       	mov    $0xffffd8b7,%edx
    216d:	e9 66 ff ff ff       	jmp    20d8 <usb_hc_new_device_wrapper+0x158>
    2172:	8d b6 00 00 00 00    	lea    0x0(%esi),%esi
    2178:	c7 44 24 0c ac c4 02 	movl   $0x2c4ac,0xc(%esp)
    217f:	00 
    2180:	c7 44 24 08 3c c4 02 	movl   $0x2c43c,0x8(%esp)
    2187:	00 
    2188:	c7 44 24 04 02 00 00 	movl   $0x2,0x4(%esp)
    218f:	00 
    2190:	c7 04 24 ff ff ff ff 	movl   $0xffffffff,(%esp)
    2197:	e8 64 5a 01 00       	call   17c00 <log_msg>
    219c:	8b 55 a4             	mov    -0x5c(%ebp),%edx
    219f:	e9 4d ff ff ff       	jmp    20f1 <usb_hc_new_device_wrapper+0x171>
    21a4:	8d 74 26 00          	lea    0x0(%esi,%eiz,1),%esi
    21a8:	89 7c 24 10          	mov    %edi,0x10(%esp)
    21ac:	c7 44 24 0c ac c4 02 	movl   $0x2c4ac,0xc(%esp)
    21b3:	00 
    21b4:	c7 44 24 08 64 c4 02 	movl   $0x2c464,0x8(%esp)
    21bb:	00 
    21bc:	c7 44 24 04 02 00 00 	movl   $0x2,0x4(%esp)
    21c3:	00 
    21c4:	c7 04 24 ff ff ff ff 	movl   $0xffffffff,(%esp)
    21cb:	e8 30 5a 01 00       	call   17c00 <log_msg>
    21d0:	8b 55 a4             	mov    -0x5c(%ebp),%edx
    21d3:	e9 33 ff ff ff       	jmp    210b <usb_hc_new_device_wrapper+0x18b>
    21d8:	c7 04 24 e0 2e 00 00 	movl   $0x2ee0,(%esp)
    21df:	e8 7c ce 01 00       	call   1f060 <async_usleep>
    21e4:	e9 3b fe ff ff       	jmp    2024 <usb_hc_new_device_wrapper+0xa4>
    21e9:	ba b7 d8 ff ff       	mov    $0xffffd8b7,%edx
    21ee:	e9 a2 fe ff ff       	jmp    2095 <usb_hc_new_device_wrapper+0x115>
    21f3:	89 74 24 04          	mov    %esi,0x4(%esp)
    21f7:	89 0c 24             	mov    %ecx,(%esp)
    21fa:	e8 11 1b 02 00       	call   23d10 <tv_sub>
    21ff:	3d 9f 86 01 00       	cmp    $0x1869f,%eax
    2204:	0f 8e 9b 00 00 00    	jle    22a5 <usb_hc_new_device_wrapper+0x325>
    220a:	8b 45 18             	mov    0x18(%ebp),%eax
    220d:	89 04 24             	mov    %eax,(%esp)
    2210:	ff 55 14             	call   *0x14(%ebp)
    2213:	89 c2                	mov    %eax,%edx
    2215:	85 c0                	test   %eax,%eax
    2217:	0f 85 78 fe ff ff    	jne    2095 <usb_hc_new_device_wrapper+0x115>
    221d:	c7 04 24 10 27 00 00 	movl   $0x2710,(%esp)
    2224:	e8 37 ce 01 00       	call   1f060 <async_usleep>
    2229:	8d 45 d0             	lea    -0x30(%ebp),%eax
    222c:	89 04 24             	mov    %eax,(%esp)
    222f:	e8 dc 0b 00 00       	call   2e10 <usb_pipe_probe_default_control>
    2234:	ba d3 fe ff ff       	mov    $0xfffffed3,%edx
    2239:	85 c0                	test   %eax,%eax
    223b:	0f 85 54 fe ff ff    	jne    2095 <usb_hc_new_device_wrapper+0x115>
    2241:	66 83 ff 7f          	cmp    $0x7f,%di
    2245:	77 54                	ja     229b <usb_hc_new_device_wrapper+0x31b>
    2247:	83 7d d0 00          	cmpl   $0x0,-0x30(%ebp)
    224b:	0f 84 44 01 00 00    	je     2395 <usb_hc_new_device_wrapper+0x415>
    2251:	89 f8                	mov    %edi,%eax
    2253:	8d 4d d0             	lea    -0x30(%ebp),%ecx
    2256:	25 ff ff 00 00       	and    $0xffff,%eax
    225b:	c7 44 24 1c 00 00 00 	movl   $0x0,0x1c(%esp)
    2262:	00 
    2263:	c7 44 24 18 00 00 00 	movl   $0x0,0x18(%esp)
    226a:	00 
    226b:	c7 44 24 14 00 00 00 	movl   $0x0,0x14(%esp)
    2272:	00 
    2273:	89 44 24 10          	mov    %eax,0x10(%esp)
    2277:	c7 44 24 0c 05 00 00 	movl   $0x5,0xc(%esp)
    227e:	00 
    227f:	c7 44 24 08 00 00 00 	movl   $0x0,0x8(%esp)
    2286:	00 
    2287:	c7 44 24 04 00 00 00 	movl   $0x0,0x4(%esp)
    228e:	00 
    228f:	89 0c 24             	mov    %ecx,(%esp)
    2292:	e8 d9 1e 00 00       	call   4170 <usb_control_request_set>
    2297:	85 c0                	test   %eax,%eax
    2299:	74 1e                	je     22b9 <usb_hc_new_device_wrapper+0x339>
    229b:	ba d3 fe ff ff       	mov    $0xfffffed3,%edx
    22a0:	e9 f0 fd ff ff       	jmp    2095 <usb_hc_new_device_wrapper+0x115>
    22a5:	ba a0 86 01 00       	mov    $0x186a0,%edx
    22aa:	29 c2                	sub    %eax,%edx
    22ac:	89 14 24             	mov    %edx,(%esp)
    22af:	e8 ac cd 01 00       	call   1f060 <async_usleep>
    22b4:	e9 51 ff ff ff       	jmp    220a <usb_hc_new_device_wrapper+0x28a>
    22b9:	8d 45 d0             	lea    -0x30(%ebp),%eax
    22bc:	89 04 24             	mov    %eax,(%esp)
    22bf:	e8 2c 08 00 00       	call   2af0 <usb_pipe_unregister>
    22c4:	85 c0                	test   %eax,%eax
    22c6:	74 1c                	je     22e4 <usb_hc_new_device_wrapper+0x364>
    22c8:	c7 44 24 08 dc c3 02 	movl   $0x2c3dc,0x8(%esp)
    22cf:	00 
    22d0:	c7 44 24 04 02 00 00 	movl   $0x2,0x4(%esp)
    22d7:	00 
    22d8:	c7 04 24 ff ff ff ff 	movl   $0xffffffff,(%esp)
    22df:	e8 1c 59 01 00       	call   17c00 <log_msg>
    22e4:	8b 45 d0             	mov    -0x30(%ebp),%eax
    22e7:	0f bf 50 04          	movswl 0x4(%eax),%edx
    22eb:	89 54 24 04          	mov    %edx,0x4(%esp)
    22ef:	8b 00                	mov    (%eax),%eax
    22f1:	89 04 24             	mov    %eax,(%esp)
    22f4:	e8 77 4a 00 00       	call   6d70 <usb_hc_release_address>
    22f9:	8b 45 d0             	mov    -0x30(%ebp),%eax
    22fc:	8d 4d d0             	lea    -0x30(%ebp),%ecx
    22ff:	66 89 78 04          	mov    %di,0x4(%eax)
    2303:	c7 44 24 04 00 00 00 	movl   $0x0,0x4(%esp)
    230a:	00 
    230b:	89 0c 24             	mov    %ecx,(%esp)
    230e:	e8 4d 07 00 00       	call   2a60 <usb_pipe_register>
    2313:	85 c0                	test   %eax,%eax
    2315:	75 84                	jne    229b <usb_hc_new_device_wrapper+0x31b>
    2317:	8d 45 ac             	lea    -0x54(%ebp),%eax
    231a:	8d 4d d0             	lea    -0x30(%ebp),%ecx
    231d:	89 44 24 10          	mov    %eax,0x10(%esp)
    2321:	8b 45 24             	mov    0x24(%ebp),%eax
    2324:	89 44 24 0c          	mov    %eax,0xc(%esp)
    2328:	8b 45 20             	mov    0x20(%ebp),%eax
    232b:	89 44 24 08          	mov    %eax,0x8(%esp)
    232f:	8b 45 08             	mov    0x8(%ebp),%eax
    2332:	89 44 24 04          	mov    %eax,0x4(%esp)
    2336:	89 0c 24             	mov    %ecx,(%esp)
    2339:	e8 b2 1b 00 00       	call   3ef0 <usb_device_register_child_in_devman>
    233e:	89 c2                	mov    %eax,%edx
    2340:	85 c0                	test   %eax,%eax
    2342:	0f 85 90 fd ff ff    	jne    20d8 <usb_hc_new_device_wrapper+0x158>
    2348:	8b 45 ac             	mov    -0x54(%ebp),%eax
    234b:	89 1c 24             	mov    %ebx,(%esp)
    234e:	89 45 cc             	mov    %eax,-0x34(%ebp)
    2351:	8d 45 c8             	lea    -0x38(%ebp),%eax
    2354:	89 44 24 04          	mov    %eax,0x4(%esp)
    2358:	66 89 7d c8          	mov    %di,-0x38(%ebp)
    235c:	e8 af fb ff ff       	call   1f10 <usb_hub_register_device>
    2361:	89 c2                	mov    %eax,%edx
    2363:	85 c0                	test   %eax,%eax
    2365:	75 19                	jne    2380 <usb_hc_new_device_wrapper+0x400>
    2367:	83 7d 1c 00          	cmpl   $0x0,0x1c(%ebp)
    236b:	74 06                	je     2373 <usb_hc_new_device_wrapper+0x3f3>
    236d:	8b 45 1c             	mov    0x1c(%ebp),%eax
    2370:	66 89 38             	mov    %di,(%eax)
    2373:	8b 4d 28             	mov    0x28(%ebp),%ecx
    2376:	8b 45 ac             	mov    -0x54(%ebp),%eax
    2379:	89 01                	mov    %eax,(%ecx)
    237b:	e9 8b fd ff ff       	jmp    210b <usb_hc_new_device_wrapper+0x18b>
    2380:	8b 45 ac             	mov    -0x54(%ebp),%eax
    2383:	89 04 24             	mov    %eax,(%esp)
    2386:	e8 65 5e 00 00       	call   81f0 <ddf_fun_destroy>
    238b:	ba c9 d8 ff ff       	mov    $0xffffd8c9,%edx
    2390:	e9 43 fd ff ff       	jmp    20d8 <usb_hc_new_device_wrapper+0x158>
    2395:	c7 44 24 08 58 00 00 	movl   $0x58,0x8(%esp)
    239c:	00 
    239d:	c7 44 24 04 bc c3 02 	movl   $0x2c3bc,0x4(%esp)
    23a4:	00 
    23a5:	c7 04 24 c6 c3 02 00 	movl   $0x2c3c6,(%esp)
    23ac:	e8 4f 51 02 00       	call   27500 <assert_abort>
    23b1:	66 90                	xchg   %ax,%ax
    23b3:	66 90                	xchg   %ax,%ax
    23b5:	66 90                	xchg   %ax,%ax
    23b7:	66 90                	xchg   %ax,%ax
    23b9:	66 90                	xchg   %ax,%ax
    23bb:	66 90                	xchg   %ax,%ax
    23bd:	66 90                	xchg   %ax,%ax
    23bf:	90                   	nop

000023c0 <usb_pipe_start_long_transfer>:
    23c0:	55                   	push   %ebp
    23c1:	89 e5                	mov    %esp,%ebp
    23c3:	83 ec 18             	sub    $0x18,%esp
    23c6:	8b 45 08             	mov    0x8(%ebp),%eax
    23c9:	85 c0                	test   %eax,%eax
    23cb:	74 15                	je     23e2 <usb_pipe_start_long_transfer+0x22>
    23cd:	8b 00                	mov    (%eax),%eax
    23cf:	85 c0                	test   %eax,%eax
    23d1:	74 47                	je     241a <usb_pipe_start_long_transfer+0x5a>
    23d3:	8b 00                	mov    (%eax),%eax
    23d5:	85 c0                	test   %eax,%eax
    23d7:	74 25                	je     23fe <usb_pipe_start_long_transfer+0x3e>
    23d9:	89 45 08             	mov    %eax,0x8(%ebp)
    23dc:	c9                   	leave  
    23dd:	e9 1e 43 00 00       	jmp    6700 <usb_hc_connection_open>
    23e2:	c7 44 24 08 33 00 00 	movl   $0x33,0x8(%esp)
    23e9:	00 
    23ea:	c7 44 24 04 c6 c4 02 	movl   $0x2c4c6,0x4(%esp)
    23f1:	00 
    23f2:	c7 04 24 ef c5 02 00 	movl   $0x2c5ef,(%esp)
    23f9:	e8 02 51 02 00       	call   27500 <assert_abort>
    23fe:	c7 44 24 08 35 00 00 	movl   $0x35,0x8(%esp)
    2405:	00 
    2406:	c7 44 24 04 c6 c4 02 	movl   $0x2c4c6,0x4(%esp)
    240d:	00 
    240e:	c7 04 24 dd c4 02 00 	movl   $0x2c4dd,(%esp)
    2415:	e8 e6 50 02 00       	call   27500 <assert_abort>
    241a:	c7 44 24 08 34 00 00 	movl   $0x34,0x8(%esp)
    2421:	00 
    2422:	c7 44 24 04 c6 c4 02 	movl   $0x2c4c6,0x4(%esp)
    2429:	00 
    242a:	c7 04 24 d2 c4 02 00 	movl   $0x2c4d2,(%esp)
    2431:	e8 ca 50 02 00       	call   27500 <assert_abort>
    2436:	8d 76 00             	lea    0x0(%esi),%esi
    2439:	8d bc 27 00 00 00 00 	lea    0x0(%edi,%eiz,1),%edi

00002440 <usb_pipe_end_long_transfer>:
    2440:	55                   	push   %ebp
    2441:	89 e5                	mov    %esp,%ebp
    2443:	83 ec 18             	sub    $0x18,%esp
    2446:	8b 45 08             	mov    0x8(%ebp),%eax
    2449:	85 c0                	test   %eax,%eax
    244b:	74 15                	je     2462 <usb_pipe_end_long_transfer+0x22>
    244d:	8b 00                	mov    (%eax),%eax
    244f:	85 c0                	test   %eax,%eax
    2451:	74 47                	je     249a <usb_pipe_end_long_transfer+0x5a>
    2453:	8b 00                	mov    (%eax),%eax
    2455:	85 c0                	test   %eax,%eax
    2457:	74 25                	je     247e <usb_pipe_end_long_transfer+0x3e>
    2459:	89 45 08             	mov    %eax,0x8(%ebp)
    245c:	c9                   	leave  
    245d:	e9 4e 43 00 00       	jmp    67b0 <usb_hc_connection_close>
    2462:	c7 44 24 08 40 00 00 	movl   $0x40,0x8(%esp)
    2469:	00 
    246a:	c7 44 24 04 c6 c4 02 	movl   $0x2c4c6,0x4(%esp)
    2471:	00 
    2472:	c7 04 24 ef c5 02 00 	movl   $0x2c5ef,(%esp)
    2479:	e8 82 50 02 00       	call   27500 <assert_abort>
    247e:	c7 44 24 08 42 00 00 	movl   $0x42,0x8(%esp)
    2485:	00 
    2486:	c7 44 24 04 c6 c4 02 	movl   $0x2c4c6,0x4(%esp)
    248d:	00 
    248e:	c7 04 24 dd c4 02 00 	movl   $0x2c4dd,(%esp)
    2495:	e8 66 50 02 00       	call   27500 <assert_abort>
    249a:	c7 44 24 08 41 00 00 	movl   $0x41,0x8(%esp)
    24a1:	00 
    24a2:	c7 44 24 04 c6 c4 02 	movl   $0x2c4c6,0x4(%esp)
    24a9:	00 
    24aa:	c7 04 24 d2 c4 02 00 	movl   $0x2c4d2,(%esp)
    24b1:	e8 4a 50 02 00       	call   27500 <assert_abort>
    24b6:	8d 76 00             	lea    0x0(%esi),%esi
    24b9:	8d bc 27 00 00 00 00 	lea    0x0(%edi,%eiz,1),%edi

000024c0 <usb_pipe_control_read>:
    24c0:	55                   	push   %ebp
    24c1:	89 e5                	mov    %esp,%ebp
    24c3:	57                   	push   %edi
    24c4:	56                   	push   %esi
    24c5:	53                   	push   %ebx
    24c6:	83 ec 3c             	sub    $0x3c,%esp
    24c9:	8b 5d 08             	mov    0x8(%ebp),%ebx
    24cc:	8b 45 0c             	mov    0xc(%ebp),%eax
    24cf:	85 db                	test   %ebx,%ebx
    24d1:	0f 84 08 01 00 00    	je     25df <usb_pipe_control_read+0x11f>
    24d7:	83 7d 10 08          	cmpl   $0x8,0x10(%ebp)
    24db:	0f 85 f7 00 00 00    	jne    25d8 <usb_pipe_control_read+0x118>
    24e1:	85 c0                	test   %eax,%eax
    24e3:	0f 84 ef 00 00 00    	je     25d8 <usb_pipe_control_read+0x118>
    24e9:	8b 75 18             	mov    0x18(%ebp),%esi
    24ec:	85 f6                	test   %esi,%esi
    24ee:	0f 84 e4 00 00 00    	je     25d8 <usb_pipe_control_read+0x118>
    24f4:	8b 4d 14             	mov    0x14(%ebp),%ecx
    24f7:	85 c9                	test   %ecx,%ecx
    24f9:	0f 84 d9 00 00 00    	je     25d8 <usb_pipe_control_read+0x118>
    24ff:	83 7b 0c 02          	cmpl   $0x2,0xc(%ebx)
    2503:	0f 85 97 00 00 00    	jne    25a0 <usb_pipe_control_read+0xe0>
    2509:	8b 53 08             	mov    0x8(%ebx),%edx
    250c:	85 d2                	test   %edx,%edx
    250e:	0f 85 8c 00 00 00    	jne    25a0 <usb_pipe_control_read+0xe0>
    2514:	89 44 24 04          	mov    %eax,0x4(%esp)
    2518:	8d 45 e0             	lea    -0x20(%ebp),%eax
    251b:	c7 44 24 08 08 00 00 	movl   $0x8,0x8(%esp)
    2522:	00 
    2523:	89 04 24             	mov    %eax,(%esp)
    2526:	e8 15 d3 00 00       	call   f840 <memcpy>
    252b:	8b 0b                	mov    (%ebx),%ecx
    252d:	c7 45 dc 00 00 00 00 	movl   $0x0,-0x24(%ebp)
    2534:	8b 45 e0             	mov    -0x20(%ebp),%eax
    2537:	8b 55 e4             	mov    -0x1c(%ebp),%edx
    253a:	85 c9                	test   %ecx,%ecx
    253c:	0f bf 73 04          	movswl 0x4(%ebx),%esi
    2540:	0f 84 b5 00 00 00    	je     25fb <usb_pipe_control_read+0x13b>
    2546:	8d 7d dc             	lea    -0x24(%ebp),%edi
    2549:	89 74 24 08          	mov    %esi,0x8(%esp)
    254d:	89 7c 24 1c          	mov    %edi,0x1c(%esp)
    2551:	8b 7d 18             	mov    0x18(%ebp),%edi
    2554:	89 7c 24 18          	mov    %edi,0x18(%esp)
    2558:	8b 7d 14             	mov    0x14(%ebp),%edi
    255b:	89 7c 24 14          	mov    %edi,0x14(%esp)
    255f:	89 44 24 0c          	mov    %eax,0xc(%esp)
    2563:	89 54 24 10          	mov    %edx,0x10(%esp)
    2567:	0f bf 41 04          	movswl 0x4(%ecx),%eax
    256b:	89 44 24 04          	mov    %eax,0x4(%esp)
    256f:	8b 01                	mov    (%ecx),%eax
    2571:	89 04 24             	mov    %eax,(%esp)
    2574:	e8 f7 4c 00 00       	call   7270 <usb_hc_read>
    2579:	89 c6                	mov    %eax,%esi
    257b:	3d d3 fe ff ff       	cmp    $0xfffffed3,%eax
    2580:	74 2e                	je     25b0 <usb_pipe_control_read+0xf0>
    2582:	85 c0                	test   %eax,%eax
    2584:	75 0f                	jne    2595 <usb_pipe_control_read+0xd5>
    2586:	8b 45 1c             	mov    0x1c(%ebp),%eax
    2589:	85 c0                	test   %eax,%eax
    258b:	74 08                	je     2595 <usb_pipe_control_read+0xd5>
    258d:	8b 55 1c             	mov    0x1c(%ebp),%edx
    2590:	8b 45 dc             	mov    -0x24(%ebp),%eax
    2593:	89 02                	mov    %eax,(%edx)
    2595:	83 c4 3c             	add    $0x3c,%esp
    2598:	89 f0                	mov    %esi,%eax
    259a:	5b                   	pop    %ebx
    259b:	5e                   	pop    %esi
    259c:	5f                   	pop    %edi
    259d:	5d                   	pop    %ebp
    259e:	c3                   	ret    
    259f:	90                   	nop
    25a0:	83 c4 3c             	add    $0x3c,%esp
    25a3:	be fa fe ff ff       	mov    $0xfffffefa,%esi
    25a8:	89 f0                	mov    %esi,%eax
    25aa:	5b                   	pop    %ebx
    25ab:	5e                   	pop    %esi
    25ac:	5f                   	pop    %edi
    25ad:	5d                   	pop    %ebp
    25ae:	c3                   	ret    
    25af:	90                   	nop
    25b0:	80 7b 14 00          	cmpb   $0x0,0x14(%ebx)
    25b4:	74 df                	je     2595 <usb_pipe_control_read+0xd5>
    25b6:	66 83 7b 04 00       	cmpw   $0x0,0x4(%ebx)
    25bb:	75 d8                	jne    2595 <usb_pipe_control_read+0xd5>
    25bd:	c6 43 14 00          	movb   $0x0,0x14(%ebx)
    25c1:	c7 44 24 04 00 00 00 	movl   $0x0,0x4(%esp)
    25c8:	00 
    25c9:	89 1c 24             	mov    %ebx,(%esp)
    25cc:	e8 9f 29 00 00       	call   4f70 <usb_request_clear_endpoint_halt>
    25d1:	c6 43 14 01          	movb   $0x1,0x14(%ebx)
    25d5:	eb be                	jmp    2595 <usb_pipe_control_read+0xd5>
    25d7:	90                   	nop
    25d8:	be f2 ff ff ff       	mov    $0xfffffff2,%esi
    25dd:	eb b6                	jmp    2595 <usb_pipe_control_read+0xd5>
    25df:	c7 44 24 08 69 00 00 	movl   $0x69,0x8(%esp)
    25e6:	00 
    25e7:	c7 44 24 04 c6 c4 02 	movl   $0x2c4c6,0x4(%esp)
    25ee:	00 
    25ef:	c7 04 24 ef c5 02 00 	movl   $0x2c5ef,(%esp)
    25f6:	e8 05 4f 02 00       	call   27500 <assert_abort>
    25fb:	c7 44 24 08 78 00 00 	movl   $0x78,0x8(%esp)
    2602:	00 
    2603:	c7 44 24 04 f8 c4 02 	movl   $0x2c4f8,0x4(%esp)
    260a:	00 
    260b:	c7 04 24 b3 c0 02 00 	movl   $0x2c0b3,(%esp)
    2612:	e8 e9 4e 02 00       	call   27500 <assert_abort>
    2617:	89 f6                	mov    %esi,%esi
    2619:	8d bc 27 00 00 00 00 	lea    0x0(%edi,%eiz,1),%edi

00002620 <usb_pipe_control_write>:
    2620:	55                   	push   %ebp
    2621:	89 e5                	mov    %esp,%ebp
    2623:	57                   	push   %edi
    2624:	56                   	push   %esi
    2625:	53                   	push   %ebx
    2626:	83 ec 3c             	sub    $0x3c,%esp
    2629:	8b 5d 08             	mov    0x8(%ebp),%ebx
    262c:	8b 45 0c             	mov    0xc(%ebp),%eax
    262f:	8b 75 18             	mov    0x18(%ebp),%esi
    2632:	85 db                	test   %ebx,%ebx
    2634:	0f 84 03 01 00 00    	je     273d <usb_pipe_control_write+0x11d>
    263a:	83 7d 10 08          	cmpl   $0x8,0x10(%ebp)
    263e:	0f 85 b4 00 00 00    	jne    26f8 <usb_pipe_control_write+0xd8>
    2644:	85 c0                	test   %eax,%eax
    2646:	0f 84 ac 00 00 00    	je     26f8 <usb_pipe_control_write+0xd8>
    264c:	85 f6                	test   %esi,%esi
    264e:	0f 85 dc 00 00 00    	jne    2730 <usb_pipe_control_write+0x110>
    2654:	85 f6                	test   %esi,%esi
    2656:	0f 84 8c 00 00 00    	je     26e8 <usb_pipe_control_write+0xc8>
    265c:	83 7b 0c 02          	cmpl   $0x2,0xc(%ebx)
    2660:	75 76                	jne    26d8 <usb_pipe_control_write+0xb8>
    2662:	8b 7b 08             	mov    0x8(%ebx),%edi
    2665:	85 ff                	test   %edi,%edi
    2667:	75 6f                	jne    26d8 <usb_pipe_control_write+0xb8>
    2669:	89 44 24 04          	mov    %eax,0x4(%esp)
    266d:	8d 45 e0             	lea    -0x20(%ebp),%eax
    2670:	c7 44 24 08 08 00 00 	movl   $0x8,0x8(%esp)
    2677:	00 
    2678:	89 04 24             	mov    %eax,(%esp)
    267b:	e8 c0 d1 00 00       	call   f840 <memcpy>
    2680:	8b 0b                	mov    (%ebx),%ecx
    2682:	8b 45 e0             	mov    -0x20(%ebp),%eax
    2685:	8b 55 e4             	mov    -0x1c(%ebp),%edx
    2688:	8b 7b 04             	mov    0x4(%ebx),%edi
    268b:	85 c9                	test   %ecx,%ecx
    268d:	0f 84 c6 00 00 00    	je     2759 <usb_pipe_control_write+0x139>
    2693:	89 74 24 18          	mov    %esi,0x18(%esp)
    2697:	89 44 24 0c          	mov    %eax,0xc(%esp)
    269b:	8b 75 14             	mov    0x14(%ebp),%esi
    269e:	89 54 24 10          	mov    %edx,0x10(%esp)
    26a2:	0f bf c7             	movswl %di,%eax
    26a5:	89 74 24 14          	mov    %esi,0x14(%esp)
    26a9:	89 44 24 08          	mov    %eax,0x8(%esp)
    26ad:	0f bf 41 04          	movswl 0x4(%ecx),%eax
    26b1:	89 44 24 04          	mov    %eax,0x4(%esp)
    26b5:	8b 01                	mov    (%ecx),%eax
    26b7:	89 04 24             	mov    %eax,(%esp)
    26ba:	e8 81 4d 00 00       	call   7440 <usb_hc_write>
    26bf:	89 c6                	mov    %eax,%esi
    26c1:	3d d3 fe ff ff       	cmp    $0xfffffed3,%eax
    26c6:	74 40                	je     2708 <usb_pipe_control_write+0xe8>
    26c8:	83 c4 3c             	add    $0x3c,%esp
    26cb:	89 f0                	mov    %esi,%eax
    26cd:	5b                   	pop    %ebx
    26ce:	5e                   	pop    %esi
    26cf:	5f                   	pop    %edi
    26d0:	5d                   	pop    %ebp
    26d1:	c3                   	ret    
    26d2:	8d b6 00 00 00 00    	lea    0x0(%esi),%esi
    26d8:	83 c4 3c             	add    $0x3c,%esp
    26db:	be fa fe ff ff       	mov    $0xfffffefa,%esi
    26e0:	89 f0                	mov    %esi,%eax
    26e2:	5b                   	pop    %ebx
    26e3:	5e                   	pop    %esi
    26e4:	5f                   	pop    %edi
    26e5:	5d                   	pop    %ebp
    26e6:	c3                   	ret    
    26e7:	90                   	nop
    26e8:	8b 55 14             	mov    0x14(%ebp),%edx
    26eb:	85 d2                	test   %edx,%edx
    26ed:	0f 84 69 ff ff ff    	je     265c <usb_pipe_control_write+0x3c>
    26f3:	90                   	nop
    26f4:	8d 74 26 00          	lea    0x0(%esi,%eiz,1),%esi
    26f8:	83 c4 3c             	add    $0x3c,%esp
    26fb:	be f2 ff ff ff       	mov    $0xfffffff2,%esi
    2700:	89 f0                	mov    %esi,%eax
    2702:	5b                   	pop    %ebx
    2703:	5e                   	pop    %esi
    2704:	5f                   	pop    %edi
    2705:	5d                   	pop    %ebp
    2706:	c3                   	ret    
    2707:	90                   	nop
    2708:	80 7b 14 00          	cmpb   $0x0,0x14(%ebx)
    270c:	74 ba                	je     26c8 <usb_pipe_control_write+0xa8>
    270e:	66 83 7b 04 00       	cmpw   $0x0,0x4(%ebx)
    2713:	75 b3                	jne    26c8 <usb_pipe_control_write+0xa8>
    2715:	c6 43 14 00          	movb   $0x0,0x14(%ebx)
    2719:	c7 44 24 04 00 00 00 	movl   $0x0,0x4(%esp)
    2720:	00 
    2721:	89 1c 24             	mov    %ebx,(%esp)
    2724:	e8 47 28 00 00       	call   4f70 <usb_request_clear_endpoint_halt>
    2729:	c6 43 14 01          	movb   $0x1,0x14(%ebx)
    272d:	eb 99                	jmp    26c8 <usb_pipe_control_write+0xa8>
    272f:	90                   	nop
    2730:	8b 4d 14             	mov    0x14(%ebp),%ecx
    2733:	85 c9                	test   %ecx,%ecx
    2735:	0f 85 19 ff ff ff    	jne    2654 <usb_pipe_control_write+0x34>
    273b:	eb bb                	jmp    26f8 <usb_pipe_control_write+0xd8>
    273d:	c7 44 24 08 99 00 00 	movl   $0x99,0x8(%esp)
    2744:	00 
    2745:	c7 44 24 04 c6 c4 02 	movl   $0x2c4c6,0x4(%esp)
    274c:	00 
    274d:	c7 04 24 ef c5 02 00 	movl   $0x2c5ef,(%esp)
    2754:	e8 a7 4d 02 00       	call   27500 <assert_abort>
    2759:	c7 44 24 08 88 00 00 	movl   $0x88,0x8(%esp)
    2760:	00 
    2761:	c7 44 24 04 f8 c4 02 	movl   $0x2c4f8,0x4(%esp)
    2768:	00 
    2769:	c7 04 24 b3 c0 02 00 	movl   $0x2c0b3,(%esp)
    2770:	e8 8b 4d 02 00       	call   27500 <assert_abort>
    2775:	8d 74 26 00          	lea    0x0(%esi,%eiz,1),%esi
    2779:	8d bc 27 00 00 00 00 	lea    0x0(%edi,%eiz,1),%edi

00002780 <usb_pipe_read>:
    2780:	55                   	push   %ebp
    2781:	89 e5                	mov    %esp,%ebp
    2783:	56                   	push   %esi
    2784:	53                   	push   %ebx
    2785:	83 ec 30             	sub    $0x30,%esp
    2788:	8b 45 08             	mov    0x8(%ebp),%eax
    278b:	8b 4d 0c             	mov    0xc(%ebp),%ecx
    278e:	8b 5d 10             	mov    0x10(%ebp),%ebx
    2791:	85 c0                	test   %eax,%eax
    2793:	0f 84 be 00 00 00    	je     2857 <usb_pipe_read+0xd7>
    2799:	85 c9                	test   %ecx,%ecx
    279b:	0f 84 af 00 00 00    	je     2850 <usb_pipe_read+0xd0>
    27a1:	85 db                	test   %ebx,%ebx
    27a3:	0f 84 a7 00 00 00    	je     2850 <usb_pipe_read+0xd0>
    27a9:	8b 70 0c             	mov    0xc(%eax),%esi
    27ac:	85 f6                	test   %esi,%esi
    27ae:	0f 85 94 00 00 00    	jne    2848 <usb_pipe_read+0xc8>
    27b4:	8b 50 08             	mov    0x8(%eax),%edx
    27b7:	85 d2                	test   %edx,%edx
    27b9:	0f 84 89 00 00 00    	je     2848 <usb_pipe_read+0xc8>
    27bf:	83 ea 02             	sub    $0x2,%edx
    27c2:	83 fa 01             	cmp    $0x1,%edx
    27c5:	77 71                	ja     2838 <usb_pipe_read+0xb8>
    27c7:	0f bf 50 04          	movswl 0x4(%eax),%edx
    27cb:	8b 00                	mov    (%eax),%eax
    27cd:	c7 45 f4 00 00 00 00 	movl   $0x0,-0xc(%ebp)
    27d4:	85 c0                	test   %eax,%eax
    27d6:	0f 84 97 00 00 00    	je     2873 <usb_pipe_read+0xf3>
    27dc:	8d 75 f4             	lea    -0xc(%ebp),%esi
    27df:	89 5c 24 18          	mov    %ebx,0x18(%esp)
    27e3:	89 74 24 1c          	mov    %esi,0x1c(%esp)
    27e7:	89 4c 24 14          	mov    %ecx,0x14(%esp)
    27eb:	c7 44 24 0c 00 00 00 	movl   $0x0,0xc(%esp)
    27f2:	00 
    27f3:	c7 44 24 10 00 00 00 	movl   $0x0,0x10(%esp)
    27fa:	00 
    27fb:	89 54 24 08          	mov    %edx,0x8(%esp)
    27ff:	0f bf 50 04          	movswl 0x4(%eax),%edx
    2803:	89 54 24 04          	mov    %edx,0x4(%esp)
    2807:	8b 00                	mov    (%eax),%eax
    2809:	89 04 24             	mov    %eax,(%esp)
    280c:	e8 5f 4a 00 00       	call   7270 <usb_hc_read>
    2811:	85 c0                	test   %eax,%eax
    2813:	74 0b                	je     2820 <usb_pipe_read+0xa0>
    2815:	83 c4 30             	add    $0x30,%esp
    2818:	5b                   	pop    %ebx
    2819:	5e                   	pop    %esi
    281a:	5d                   	pop    %ebp
    281b:	c3                   	ret    
    281c:	8d 74 26 00          	lea    0x0(%esi,%eiz,1),%esi
    2820:	8b 5d 14             	mov    0x14(%ebp),%ebx
    2823:	85 db                	test   %ebx,%ebx
    2825:	74 ee                	je     2815 <usb_pipe_read+0x95>
    2827:	8b 55 14             	mov    0x14(%ebp),%edx
    282a:	8b 45 f4             	mov    -0xc(%ebp),%eax
    282d:	89 02                	mov    %eax,(%edx)
    282f:	83 c4 30             	add    $0x30,%esp
    2832:	31 c0                	xor    %eax,%eax
    2834:	5b                   	pop    %ebx
    2835:	5e                   	pop    %esi
    2836:	5d                   	pop    %ebp
    2837:	c3                   	ret    
    2838:	83 c4 30             	add    $0x30,%esp
    283b:	b8 f5 ff ff ff       	mov    $0xfffffff5,%eax
    2840:	5b                   	pop    %ebx
    2841:	5e                   	pop    %esi
    2842:	5d                   	pop    %ebp
    2843:	c3                   	ret    
    2844:	8d 74 26 00          	lea    0x0(%esi,%eiz,1),%esi
    2848:	b8 fa fe ff ff       	mov    $0xfffffefa,%eax
    284d:	eb c6                	jmp    2815 <usb_pipe_read+0x95>
    284f:	90                   	nop
    2850:	b8 f2 ff ff ff       	mov    $0xfffffff2,%eax
    2855:	eb be                	jmp    2815 <usb_pipe_read+0x95>
    2857:	c7 44 24 08 c4 00 00 	movl   $0xc4,0x8(%esp)
    285e:	00 
    285f:	c7 44 24 04 c6 c4 02 	movl   $0x2c4c6,0x4(%esp)
    2866:	00 
    2867:	c7 04 24 ef c5 02 00 	movl   $0x2c5ef,(%esp)
    286e:	e8 8d 4c 02 00       	call   27500 <assert_abort>
    2873:	c7 44 24 08 78 00 00 	movl   $0x78,0x8(%esp)
    287a:	00 
    287b:	c7 44 24 04 f8 c4 02 	movl   $0x2c4f8,0x4(%esp)
    2882:	00 
    2883:	c7 04 24 b3 c0 02 00 	movl   $0x2c0b3,(%esp)
    288a:	e8 71 4c 02 00       	call   27500 <assert_abort>
    288f:	90                   	nop

00002890 <usb_pipe_write>:
    2890:	55                   	push   %ebp
    2891:	89 e5                	mov    %esp,%ebp
    2893:	53                   	push   %ebx
    2894:	83 ec 24             	sub    $0x24,%esp
    2897:	8b 45 08             	mov    0x8(%ebp),%eax
    289a:	8b 4d 0c             	mov    0xc(%ebp),%ecx
    289d:	8b 55 10             	mov    0x10(%ebp),%edx
    28a0:	85 c0                	test   %eax,%eax
    28a2:	0f 84 87 00 00 00    	je     292f <usb_pipe_write+0x9f>
    28a8:	85 d2                	test   %edx,%edx
    28aa:	74 7c                	je     2928 <usb_pipe_write+0x98>
    28ac:	85 c9                	test   %ecx,%ecx
    28ae:	74 78                	je     2928 <usb_pipe_write+0x98>
    28b0:	83 78 0c 01          	cmpl   $0x1,0xc(%eax)
    28b4:	75 62                	jne    2918 <usb_pipe_write+0x88>
    28b6:	8b 58 08             	mov    0x8(%eax),%ebx
    28b9:	85 db                	test   %ebx,%ebx
    28bb:	74 5b                	je     2918 <usb_pipe_write+0x88>
    28bd:	83 eb 02             	sub    $0x2,%ebx
    28c0:	83 fb 01             	cmp    $0x1,%ebx
    28c3:	77 43                	ja     2908 <usb_pipe_write+0x78>
    28c5:	0f bf 58 04          	movswl 0x4(%eax),%ebx
    28c9:	8b 00                	mov    (%eax),%eax
    28cb:	85 c0                	test   %eax,%eax
    28cd:	74 7c                	je     294b <usb_pipe_write+0xbb>
    28cf:	89 54 24 18          	mov    %edx,0x18(%esp)
    28d3:	89 4c 24 14          	mov    %ecx,0x14(%esp)
    28d7:	c7 44 24 0c 00 00 00 	movl   $0x0,0xc(%esp)
    28de:	00 
    28df:	c7 44 24 10 00 00 00 	movl   $0x0,0x10(%esp)
    28e6:	00 
    28e7:	89 5c 24 08          	mov    %ebx,0x8(%esp)
    28eb:	0f bf 50 04          	movswl 0x4(%eax),%edx
    28ef:	89 54 24 04          	mov    %edx,0x4(%esp)
    28f3:	8b 00                	mov    (%eax),%eax
    28f5:	89 04 24             	mov    %eax,(%esp)
    28f8:	e8 43 4b 00 00       	call   7440 <usb_hc_write>
    28fd:	83 c4 24             	add    $0x24,%esp
    2900:	5b                   	pop    %ebx
    2901:	5d                   	pop    %ebp
    2902:	c3                   	ret    
    2903:	90                   	nop
    2904:	8d 74 26 00          	lea    0x0(%esi,%eiz,1),%esi
    2908:	83 c4 24             	add    $0x24,%esp
    290b:	b8 f5 ff ff ff       	mov    $0xfffffff5,%eax
    2910:	5b                   	pop    %ebx
    2911:	5d                   	pop    %ebp
    2912:	c3                   	ret    
    2913:	90                   	nop
    2914:	8d 74 26 00          	lea    0x0(%esi,%eiz,1),%esi
    2918:	83 c4 24             	add    $0x24,%esp
    291b:	b8 fa fe ff ff       	mov    $0xfffffefa,%eax
    2920:	5b                   	pop    %ebx
    2921:	5d                   	pop    %ebp
    2922:	c3                   	ret    
    2923:	90                   	nop
    2924:	8d 74 26 00          	lea    0x0(%esi,%eiz,1),%esi
    2928:	b8 f2 ff ff ff       	mov    $0xfffffff2,%eax
    292d:	eb ce                	jmp    28fd <usb_pipe_write+0x6d>
    292f:	c7 44 24 08 ef 00 00 	movl   $0xef,0x8(%esp)
    2936:	00 
    2937:	c7 44 24 04 c6 c4 02 	movl   $0x2c4c6,0x4(%esp)
    293e:	00 
    293f:	c7 04 24 ef c5 02 00 	movl   $0x2c5ef,(%esp)
    2946:	e8 b5 4b 02 00       	call   27500 <assert_abort>
    294b:	c7 44 24 08 88 00 00 	movl   $0x88,0x8(%esp)
    2952:	00 
    2953:	c7 44 24 04 f8 c4 02 	movl   $0x2c4f8,0x4(%esp)
    295a:	00 
    295b:	c7 04 24 b3 c0 02 00 	movl   $0x2c0b3,(%esp)
    2962:	e8 99 4b 02 00       	call   27500 <assert_abort>
    2967:	89 f6                	mov    %esi,%esi
    2969:	8d bc 27 00 00 00 00 	lea    0x0(%edi,%eiz,1),%edi

00002970 <usb_pipe_initialize>:
    2970:	55                   	push   %ebp
    2971:	89 e5                	mov    %esp,%ebp
    2973:	83 ec 18             	sub    $0x18,%esp
    2976:	8b 45 08             	mov    0x8(%ebp),%eax
    2979:	8b 55 0c             	mov    0xc(%ebp),%edx
    297c:	8b 4d 10             	mov    0x10(%ebp),%ecx
    297f:	85 c0                	test   %eax,%eax
    2981:	74 24                	je     29a7 <usb_pipe_initialize+0x37>
    2983:	85 d2                	test   %edx,%edx
    2985:	74 3c                	je     29c3 <usb_pipe_initialize+0x53>
    2987:	89 10                	mov    %edx,(%eax)
    2989:	8b 55 14             	mov    0x14(%ebp),%edx
    298c:	89 50 08             	mov    %edx,0x8(%eax)
    298f:	8b 55 18             	mov    0x18(%ebp),%edx
    2992:	89 50 10             	mov    %edx,0x10(%eax)
    2995:	8b 55 1c             	mov    0x1c(%ebp),%edx
    2998:	66 89 48 04          	mov    %cx,0x4(%eax)
    299c:	89 50 0c             	mov    %edx,0xc(%eax)
    299f:	c6 40 14 00          	movb   $0x0,0x14(%eax)
    29a3:	31 c0                	xor    %eax,%eax
    29a5:	c9                   	leave  
    29a6:	c3                   	ret    
    29a7:	c7 44 24 08 15 01 00 	movl   $0x115,0x8(%esp)
    29ae:	00 
    29af:	c7 44 24 04 c6 c4 02 	movl   $0x2c4c6,0x4(%esp)
    29b6:	00 
    29b7:	c7 04 24 ef c5 02 00 	movl   $0x2c5ef,(%esp)
    29be:	e8 3d 4b 02 00       	call   27500 <assert_abort>
    29c3:	c7 44 24 08 16 01 00 	movl   $0x116,0x8(%esp)
    29ca:	00 
    29cb:	c7 44 24 04 c6 c4 02 	movl   $0x2c4c6,0x4(%esp)
    29d2:	00 
    29d3:	c7 04 24 25 d2 02 00 	movl   $0x2d225,(%esp)
    29da:	e8 21 4b 02 00       	call   27500 <assert_abort>
    29df:	90                   	nop

000029e0 <usb_pipe_initialize_default_control>:
    29e0:	55                   	push   %ebp
    29e1:	89 e5                	mov    %esp,%ebp
    29e3:	83 ec 18             	sub    $0x18,%esp
    29e6:	8b 45 08             	mov    0x8(%ebp),%eax
    29e9:	8b 55 0c             	mov    0xc(%ebp),%edx
    29ec:	85 c0                	test   %eax,%eax
    29ee:	74 29                	je     2a19 <usb_pipe_initialize_default_control+0x39>
    29f0:	85 d2                	test   %edx,%edx
    29f2:	74 41                	je     2a35 <usb_pipe_initialize_default_control+0x55>
    29f4:	89 10                	mov    %edx,(%eax)
    29f6:	66 c7 40 04 00 00    	movw   $0x0,0x4(%eax)
    29fc:	c7 40 08 00 00 00 00 	movl   $0x0,0x8(%eax)
    2a03:	c7 40 10 08 00 00 00 	movl   $0x8,0x10(%eax)
    2a0a:	c7 40 0c 02 00 00 00 	movl   $0x2,0xc(%eax)
    2a11:	c6 40 14 01          	movb   $0x1,0x14(%eax)
    2a15:	c9                   	leave  
    2a16:	31 c0                	xor    %eax,%eax
    2a18:	c3                   	ret    
    2a19:	c7 44 24 08 2b 01 00 	movl   $0x12b,0x8(%esp)
    2a20:	00 
    2a21:	c7 44 24 04 c6 c4 02 	movl   $0x2c4c6,0x4(%esp)
    2a28:	00 
    2a29:	c7 04 24 ef c5 02 00 	movl   $0x2c5ef,(%esp)
    2a30:	e8 cb 4a 02 00       	call   27500 <assert_abort>
    2a35:	c7 44 24 08 2c 01 00 	movl   $0x12c,0x8(%esp)
    2a3c:	00 
    2a3d:	c7 44 24 04 c6 c4 02 	movl   $0x2c4c6,0x4(%esp)
    2a44:	00 
    2a45:	c7 04 24 25 d2 02 00 	movl   $0x2d225,(%esp)
    2a4c:	e8 af 4a 02 00       	call   27500 <assert_abort>
    2a51:	eb 0d                	jmp    2a60 <usb_pipe_register>
    2a53:	90                   	nop
    2a54:	90                   	nop
    2a55:	90                   	nop
    2a56:	90                   	nop
    2a57:	90                   	nop
    2a58:	90                   	nop
    2a59:	90                   	nop
    2a5a:	90                   	nop
    2a5b:	90                   	nop
    2a5c:	90                   	nop
    2a5d:	90                   	nop
    2a5e:	90                   	nop
    2a5f:	90                   	nop

00002a60 <usb_pipe_register>:
    2a60:	55                   	push   %ebp
    2a61:	89 e5                	mov    %esp,%ebp
    2a63:	83 ec 28             	sub    $0x28,%esp
    2a66:	8b 45 08             	mov    0x8(%ebp),%eax
    2a69:	85 c0                	test   %eax,%eax
    2a6b:	74 3e                	je     2aab <usb_pipe_register+0x4b>
    2a6d:	8b 10                	mov    (%eax),%edx
    2a6f:	85 d2                	test   %edx,%edx
    2a71:	74 54                	je     2ac7 <usb_pipe_register+0x67>
    2a73:	8b 4d 0c             	mov    0xc(%ebp),%ecx
    2a76:	89 4c 24 18          	mov    %ecx,0x18(%esp)
    2a7a:	8b 48 10             	mov    0x10(%eax),%ecx
    2a7d:	89 4c 24 14          	mov    %ecx,0x14(%esp)
    2a81:	8b 48 0c             	mov    0xc(%eax),%ecx
    2a84:	89 4c 24 10          	mov    %ecx,0x10(%esp)
    2a88:	8b 48 08             	mov    0x8(%eax),%ecx
    2a8b:	89 4c 24 0c          	mov    %ecx,0xc(%esp)
    2a8f:	0f bf 40 04          	movswl 0x4(%eax),%eax
    2a93:	89 44 24 08          	mov    %eax,0x8(%esp)
    2a97:	0f bf 42 04          	movswl 0x4(%edx),%eax
    2a9b:	89 44 24 04          	mov    %eax,0x4(%esp)
    2a9f:	8b 02                	mov    (%edx),%eax
    2aa1:	89 04 24             	mov    %eax,(%esp)
    2aa4:	e8 57 44 00 00       	call   6f00 <usb_hc_register_endpoint>
    2aa9:	c9                   	leave  
    2aaa:	c3                   	ret    
    2aab:	c7 44 24 08 3e 01 00 	movl   $0x13e,0x8(%esp)
    2ab2:	00 
    2ab3:	c7 44 24 04 c6 c4 02 	movl   $0x2c4c6,0x4(%esp)
    2aba:	00 
    2abb:	c7 04 24 ef c5 02 00 	movl   $0x2c5ef,(%esp)
    2ac2:	e8 39 4a 02 00       	call   27500 <assert_abort>
    2ac7:	c7 44 24 08 3f 01 00 	movl   $0x13f,0x8(%esp)
    2ace:	00 
    2acf:	c7 44 24 04 c6 c4 02 	movl   $0x2c4c6,0x4(%esp)
    2ad6:	00 
    2ad7:	c7 04 24 d2 c4 02 00 	movl   $0x2c4d2,(%esp)
    2ade:	e8 1d 4a 02 00       	call   27500 <assert_abort>
    2ae3:	8d b6 00 00 00 00    	lea    0x0(%esi),%esi
    2ae9:	8d bc 27 00 00 00 00 	lea    0x0(%edi,%eiz,1),%edi

00002af0 <usb_pipe_unregister>:
    2af0:	55                   	push   %ebp
    2af1:	89 e5                	mov    %esp,%ebp
    2af3:	83 ec 18             	sub    $0x18,%esp
    2af6:	8b 45 08             	mov    0x8(%ebp),%eax
    2af9:	85 c0                	test   %eax,%eax
    2afb:	74 29                	je     2b26 <usb_pipe_unregister+0x36>
    2afd:	8b 10                	mov    (%eax),%edx
    2aff:	85 d2                	test   %edx,%edx
    2b01:	74 3f                	je     2b42 <usb_pipe_unregister+0x52>
    2b03:	8b 48 0c             	mov    0xc(%eax),%ecx
    2b06:	89 4c 24 0c          	mov    %ecx,0xc(%esp)
    2b0a:	0f bf 40 04          	movswl 0x4(%eax),%eax
    2b0e:	89 44 24 08          	mov    %eax,0x8(%esp)
    2b12:	0f bf 42 04          	movswl 0x4(%edx),%eax
    2b16:	89 44 24 04          	mov    %eax,0x4(%esp)
    2b1a:	8b 02                	mov    (%edx),%eax
    2b1c:	89 04 24             	mov    %eax,(%esp)
    2b1f:	e8 9c 45 00 00       	call   70c0 <usb_hc_unregister_endpoint>
    2b24:	c9                   	leave  
    2b25:	c3                   	ret    
    2b26:	c7 44 24 08 4d 01 00 	movl   $0x14d,0x8(%esp)
    2b2d:	00 
    2b2e:	c7 44 24 04 c6 c4 02 	movl   $0x2c4c6,0x4(%esp)
    2b35:	00 
    2b36:	c7 04 24 ef c5 02 00 	movl   $0x2c5ef,(%esp)
    2b3d:	e8 be 49 02 00       	call   27500 <assert_abort>
    2b42:	c7 44 24 08 4e 01 00 	movl   $0x14e,0x8(%esp)
    2b49:	00 
    2b4a:	c7 44 24 04 c6 c4 02 	movl   $0x2c4c6,0x4(%esp)
    2b51:	00 
    2b52:	c7 04 24 d2 c4 02 00 	movl   $0x2c4d2,(%esp)
    2b59:	e8 a2 49 02 00       	call   27500 <assert_abort>
    2b5e:	66 90                	xchg   %ax,%ax

00002b60 <usb_pipe_initialize_from_configuration>:
    2b60:	55                   	push   %ebp
    2b61:	89 e5                	mov    %esp,%ebp
    2b63:	57                   	push   %edi
    2b64:	56                   	push   %esi
    2b65:	53                   	push   %ebx
    2b66:	83 ec 6c             	sub    $0x6c,%esp
    2b69:	8b 4d 18             	mov    0x18(%ebp),%ecx
    2b6c:	8b 5d 14             	mov    0x14(%ebp),%ebx
    2b6f:	85 c9                	test   %ecx,%ecx
    2b71:	0f 84 7d 02 00 00    	je     2df4 <usb_pipe_initialize_from_configuration+0x294>
    2b77:	8b 55 10             	mov    0x10(%ebp),%edx
    2b7a:	85 d2                	test   %edx,%edx
    2b7c:	0f 84 68 02 00 00    	je     2dea <usb_pipe_initialize_from_configuration+0x28a>
    2b82:	83 fb 08             	cmp    $0x8,%ebx
    2b85:	0f 86 4d 02 00 00    	jbe    2dd8 <usb_pipe_initialize_from_configuration+0x278>
    2b8b:	8b 45 0c             	mov    0xc(%ebp),%eax
    2b8e:	85 c0                	test   %eax,%eax
    2b90:	74 27                	je     2bb9 <usb_pipe_initialize_from_configuration+0x59>
    2b92:	8b 75 0c             	mov    0xc(%ebp),%esi
    2b95:	8b 45 08             	mov    0x8(%ebp),%eax
    2b98:	8d 14 76             	lea    (%esi,%esi,2),%edx
    2b9b:	c1 e2 04             	shl    $0x4,%edx
    2b9e:	01 c2                	add    %eax,%edx
    2ba0:	c6 40 2c 00          	movb   $0x0,0x2c(%eax)
    2ba4:	c7 40 24 00 00 00 00 	movl   $0x0,0x24(%eax)
    2bab:	c7 40 28 00 00 00 00 	movl   $0x0,0x28(%eax)
    2bb2:	83 c0 30             	add    $0x30,%eax
    2bb5:	39 d0                	cmp    %edx,%eax
    2bb7:	75 e7                	jne    2ba0 <usb_pipe_initialize_from_configuration+0x40>
    2bb9:	8b 55 10             	mov    0x10(%ebp),%edx
    2bbc:	8d 75 dc             	lea    -0x24(%ebp),%esi
    2bbf:	8d 7d d8             	lea    -0x28(%ebp),%edi
    2bc2:	89 54 24 08          	mov    %edx,0x8(%esp)
    2bc6:	89 74 24 04          	mov    %esi,0x4(%esp)
    2bca:	89 3c 24             	mov    %edi,(%esp)
    2bcd:	c7 45 d8 40 c5 02 00 	movl   $0x2c540,-0x28(%ebp)
    2bd4:	89 55 dc             	mov    %edx,-0x24(%ebp)
    2bd7:	89 5d e0             	mov    %ebx,-0x20(%ebp)
    2bda:	89 4d e4             	mov    %ecx,-0x1c(%ebp)
    2bdd:	e8 de 24 00 00       	call   50c0 <usb_dp_get_nested_descriptor>
    2be2:	85 c0                	test   %eax,%eax
    2be4:	0f 84 f8 01 00 00    	je     2de2 <usb_pipe_initialize_from_configuration+0x282>
    2bea:	89 c6                	mov    %eax,%esi
    2bec:	8d 74 26 00          	lea    0x0(%esi,%eiz,1),%esi
    2bf0:	8d 7d dc             	lea    -0x24(%ebp),%edi
    2bf3:	8d 45 d8             	lea    -0x28(%ebp),%eax
    2bf6:	89 7c 24 04          	mov    %edi,0x4(%esp)
    2bfa:	89 74 24 08          	mov    %esi,0x8(%esp)
    2bfe:	89 04 24             	mov    %eax,(%esp)
    2c01:	e8 ba 24 00 00       	call   50c0 <usb_dp_get_nested_descriptor>
    2c06:	89 c7                	mov    %eax,%edi
    2c08:	85 c0                	test   %eax,%eax
    2c0a:	74 30                	je     2c3c <usb_pipe_initialize_from_configuration+0xdc>
    2c0c:	89 75 d0             	mov    %esi,-0x30(%ebp)
    2c0f:	90                   	nop
    2c10:	80 7f 01 05          	cmpb   $0x5,0x1(%edi)
    2c14:	74 5a                	je     2c70 <usb_pipe_initialize_from_configuration+0x110>
    2c16:	8b 45 d0             	mov    -0x30(%ebp),%eax
    2c19:	8d 55 dc             	lea    -0x24(%ebp),%edx
    2c1c:	8d 75 d8             	lea    -0x28(%ebp),%esi
    2c1f:	89 7c 24 0c          	mov    %edi,0xc(%esp)
    2c23:	89 44 24 08          	mov    %eax,0x8(%esp)
    2c27:	89 54 24 04          	mov    %edx,0x4(%esp)
    2c2b:	89 34 24             	mov    %esi,(%esp)
    2c2e:	e8 ad 26 00 00       	call   52e0 <usb_dp_get_sibling_descriptor>
    2c33:	89 c7                	mov    %eax,%edi
    2c35:	85 c0                	test   %eax,%eax
    2c37:	75 d7                	jne    2c10 <usb_pipe_initialize_from_configuration+0xb0>
    2c39:	8b 75 d0             	mov    -0x30(%ebp),%esi
    2c3c:	89 74 24 0c          	mov    %esi,0xc(%esp)
    2c40:	8b 55 10             	mov    0x10(%ebp),%edx
    2c43:	8d 75 dc             	lea    -0x24(%ebp),%esi
    2c46:	8d 7d d8             	lea    -0x28(%ebp),%edi
    2c49:	89 74 24 04          	mov    %esi,0x4(%esp)
    2c4d:	89 54 24 08          	mov    %edx,0x8(%esp)
    2c51:	89 3c 24             	mov    %edi,(%esp)
    2c54:	e8 87 26 00 00       	call   52e0 <usb_dp_get_sibling_descriptor>
    2c59:	89 c6                	mov    %eax,%esi
    2c5b:	85 c0                	test   %eax,%eax
    2c5d:	75 91                	jne    2bf0 <usb_pipe_initialize_from_configuration+0x90>
    2c5f:	31 c0                	xor    %eax,%eax
    2c61:	83 c4 6c             	add    $0x6c,%esp
    2c64:	5b                   	pop    %ebx
    2c65:	5e                   	pop    %esi
    2c66:	5f                   	pop    %edi
    2c67:	5d                   	pop    %ebp
    2c68:	c3                   	ret    
    2c69:	8d b4 26 00 00 00 00 	lea    0x0(%esi,%eiz,1),%esi
    2c70:	8b 45 e4             	mov    -0x1c(%ebp),%eax
    2c73:	8b 75 0c             	mov    0xc(%ebp),%esi
    2c76:	89 45 bc             	mov    %eax,-0x44(%ebp)
    2c79:	8b 5d 08             	mov    0x8(%ebp),%ebx
    2c7c:	0f be 47 02          	movsbl 0x2(%edi),%eax
    2c80:	88 c2                	mov    %al,%dl
    2c82:	89 c1                	mov    %eax,%ecx
    2c84:	83 e2 0f             	and    $0xf,%edx
    2c87:	31 c0                	xor    %eax,%eax
    2c89:	88 55 bb             	mov    %dl,-0x45(%ebp)
    2c8c:	8a 57 03             	mov    0x3(%edi),%dl
    2c8f:	83 e2 03             	and    $0x3,%edx
    2c92:	83 f1 ff             	xor    $0xffffffff,%ecx
    2c95:	c1 e9 1f             	shr    $0x1f,%ecx
    2c98:	89 55 c4             	mov    %edx,-0x3c(%ebp)
    2c9b:	8b 55 d0             	mov    -0x30(%ebp),%edx
    2c9e:	8a 42 05             	mov    0x5(%edx),%al
    2ca1:	89 45 c0             	mov    %eax,-0x40(%ebp)
    2ca4:	31 c0                	xor    %eax,%eax
    2ca6:	8a 42 06             	mov    0x6(%edx),%al
    2ca9:	89 45 b4             	mov    %eax,-0x4c(%ebp)
    2cac:	31 c0                	xor    %eax,%eax
    2cae:	8a 42 07             	mov    0x7(%edx),%al
    2cb1:	89 45 ac             	mov    %eax,-0x54(%ebp)
    2cb4:	31 c0                	xor    %eax,%eax
    2cb6:	8a 42 03             	mov    0x3(%edx),%al
    2cb9:	89 45 cc             	mov    %eax,-0x34(%ebp)
    2cbc:	31 c0                	xor    %eax,%eax
    2cbe:	8a 42 02             	mov    0x2(%edx),%al
    2cc1:	85 f6                	test   %esi,%esi
    2cc3:	89 45 c8             	mov    %eax,-0x38(%ebp)
    2cc6:	0f 84 4a ff ff ff    	je     2c16 <usb_pipe_initialize_from_configuration+0xb6>
    2ccc:	89 7d b0             	mov    %edi,-0x50(%ebp)
    2ccf:	eb 11                	jmp    2ce2 <usb_pipe_initialize_from_configuration+0x182>
    2cd1:	8d b4 26 00 00 00 00 	lea    0x0(%esi,%eiz,1),%esi
    2cd8:	83 c3 30             	add    $0x30,%ebx
    2cdb:	4e                   	dec    %esi
    2cdc:	0f 84 ee 00 00 00    	je     2dd0 <usb_pipe_initialize_from_configuration+0x270>
    2ce2:	8b 43 1c             	mov    0x1c(%ebx),%eax
    2ce5:	85 c0                	test   %eax,%eax
    2ce7:	0f 88 d3 00 00 00    	js     2dc0 <usb_pipe_initialize_from_configuration+0x260>
    2ced:	39 45 c8             	cmp    %eax,-0x38(%ebp)
    2cf0:	0f 94 c2             	sete   %dl
    2cf3:	81 e2 ff 00 00 00    	and    $0xff,%edx
    2cf9:	8b 43 20             	mov    0x20(%ebx),%eax
    2cfc:	85 c0                	test   %eax,%eax
    2cfe:	0f 88 ac 00 00 00    	js     2db0 <usb_pipe_initialize_from_configuration+0x250>
    2d04:	39 45 cc             	cmp    %eax,-0x34(%ebp)
    2d07:	0f 94 c0             	sete   %al
    2d0a:	25 ff 00 00 00       	and    $0xff,%eax
    2d0f:	89 45 d4             	mov    %eax,-0x2c(%ebp)
    2d12:	8b 43 18             	mov    0x18(%ebx),%eax
    2d15:	3b 48 04             	cmp    0x4(%eax),%ecx
    2d18:	75 be                	jne    2cd8 <usb_pipe_initialize_from_configuration+0x178>
    2d1a:	8b 7d c4             	mov    -0x3c(%ebp),%edi
    2d1d:	3b 38                	cmp    (%eax),%edi
    2d1f:	75 b7                	jne    2cd8 <usb_pipe_initialize_from_configuration+0x178>
    2d21:	8b 78 08             	mov    0x8(%eax),%edi
    2d24:	85 ff                	test   %edi,%edi
    2d26:	78 05                	js     2d2d <usb_pipe_initialize_from_configuration+0x1cd>
    2d28:	39 7d c0             	cmp    %edi,-0x40(%ebp)
    2d2b:	75 ab                	jne    2cd8 <usb_pipe_initialize_from_configuration+0x178>
    2d2d:	8b 78 0c             	mov    0xc(%eax),%edi
    2d30:	85 ff                	test   %edi,%edi
    2d32:	78 05                	js     2d39 <usb_pipe_initialize_from_configuration+0x1d9>
    2d34:	39 7d b4             	cmp    %edi,-0x4c(%ebp)
    2d37:	75 9f                	jne    2cd8 <usb_pipe_initialize_from_configuration+0x178>
    2d39:	8b 40 10             	mov    0x10(%eax),%eax
    2d3c:	85 c0                	test   %eax,%eax
    2d3e:	78 05                	js     2d45 <usb_pipe_initialize_from_configuration+0x1e5>
    2d40:	39 45 ac             	cmp    %eax,-0x54(%ebp)
    2d43:	75 93                	jne    2cd8 <usb_pipe_initialize_from_configuration+0x178>
    2d45:	85 55 d4             	test   %edx,-0x2c(%ebp)
    2d48:	74 8e                	je     2cd8 <usb_pipe_initialize_from_configuration+0x178>
    2d4a:	8b 7d b0             	mov    -0x50(%ebp),%edi
    2d4d:	85 db                	test   %ebx,%ebx
    2d4f:	0f 84 c1 fe ff ff    	je     2c16 <usb_pipe_initialize_from_configuration+0xb6>
    2d55:	80 7b 2c 00          	cmpb   $0x0,0x2c(%ebx)
    2d59:	0f 85 b7 fe ff ff    	jne    2c16 <usb_pipe_initialize_from_configuration+0xb6>
    2d5f:	89 4c 24 14          	mov    %ecx,0x14(%esp)
    2d63:	8b 55 bc             	mov    -0x44(%ebp),%edx
    2d66:	66 8b 47 04          	mov    0x4(%edi),%ax
    2d6a:	89 54 24 04          	mov    %edx,0x4(%esp)
    2d6e:	25 ff ff 00 00       	and    $0xffff,%eax
    2d73:	89 1c 24             	mov    %ebx,(%esp)
    2d76:	89 44 24 10          	mov    %eax,0x10(%esp)
    2d7a:	8b 45 c4             	mov    -0x3c(%ebp),%eax
    2d7d:	89 44 24 0c          	mov    %eax,0xc(%esp)
    2d81:	31 c0                	xor    %eax,%eax
    2d83:	8a 45 bb             	mov    -0x45(%ebp),%al
    2d86:	89 44 24 08          	mov    %eax,0x8(%esp)
    2d8a:	e8 e1 fb ff ff       	call   2970 <usb_pipe_initialize>
    2d8f:	85 c0                	test   %eax,%eax
    2d91:	0f 85 7f fe ff ff    	jne    2c16 <usb_pipe_initialize_from_configuration+0xb6>
    2d97:	8b 45 d0             	mov    -0x30(%ebp),%eax
    2d9a:	c6 43 2c 01          	movb   $0x1,0x2c(%ebx)
    2d9e:	89 7b 24             	mov    %edi,0x24(%ebx)
    2da1:	89 43 28             	mov    %eax,0x28(%ebx)
    2da4:	e9 6d fe ff ff       	jmp    2c16 <usb_pipe_initialize_from_configuration+0xb6>
    2da9:	8d b4 26 00 00 00 00 	lea    0x0(%esi,%eiz,1),%esi
    2db0:	c7 45 d4 01 00 00 00 	movl   $0x1,-0x2c(%ebp)
    2db7:	e9 56 ff ff ff       	jmp    2d12 <usb_pipe_initialize_from_configuration+0x1b2>
    2dbc:	8d 74 26 00          	lea    0x0(%esi,%eiz,1),%esi
    2dc0:	ba 01 00 00 00       	mov    $0x1,%edx
    2dc5:	e9 2f ff ff ff       	jmp    2cf9 <usb_pipe_initialize_from_configuration+0x199>
    2dca:	8d b6 00 00 00 00    	lea    0x0(%esi),%esi
    2dd0:	8b 7d b0             	mov    -0x50(%ebp),%edi
    2dd3:	e9 3e fe ff ff       	jmp    2c16 <usb_pipe_initialize_from_configuration+0xb6>
    2dd8:	b8 f9 fe ff ff       	mov    $0xfffffef9,%eax
    2ddd:	e9 7f fe ff ff       	jmp    2c61 <usb_pipe_initialize_from_configuration+0x101>
    2de2:	83 c8 ff             	or     $0xffffffff,%eax
    2de5:	e9 77 fe ff ff       	jmp    2c61 <usb_pipe_initialize_from_configuration+0x101>
    2dea:	b8 f6 ff ff ff       	mov    $0xfffffff6,%eax
    2def:	e9 6d fe ff ff       	jmp    2c61 <usb_pipe_initialize_from_configuration+0x101>
    2df4:	c7 44 24 08 1c 01 00 	movl   $0x11c,0x8(%esp)
    2dfb:	00 
    2dfc:	c7 44 24 04 20 c5 02 	movl   $0x2c520,0x4(%esp)
    2e03:	00 
    2e04:	c7 04 24 25 d2 02 00 	movl   $0x2d225,(%esp)
    2e0b:	e8 f0 46 02 00       	call   27500 <assert_abort>

00002e10 <usb_pipe_probe_default_control>:
    2e10:	55                   	push   %ebp
    2e11:	89 e5                	mov    %esp,%ebp
    2e13:	57                   	push   %edi
    2e14:	56                   	push   %esi
    2e15:	53                   	push   %ebx
    2e16:	83 ec 4c             	sub    $0x4c,%esp
    2e19:	8b 5d 08             	mov    0x8(%ebp),%ebx
    2e1c:	85 db                	test   %ebx,%ebx
    2e1e:	0f 84 5b 01 00 00    	je     2f7f <usb_pipe_probe_default_control+0x16f>
    2e24:	83 7b 0c 02          	cmpl   $0x2,0xc(%ebx)
    2e28:	0f 85 42 01 00 00    	jne    2f70 <usb_pipe_probe_default_control+0x160>
    2e2e:	8b 4b 08             	mov    0x8(%ebx),%ecx
    2e31:	85 c9                	test   %ecx,%ecx
    2e33:	0f 85 37 01 00 00    	jne    2f70 <usb_pipe_probe_default_control+0x160>
    2e39:	66 83 7b 04 00       	cmpw   $0x0,0x4(%ebx)
    2e3e:	0f 85 2c 01 00 00    	jne    2f70 <usb_pipe_probe_default_control+0x160>
    2e44:	89 1c 24             	mov    %ebx,(%esp)
    2e47:	8d 7d dc             	lea    -0x24(%ebp),%edi
    2e4a:	8d 75 e0             	lea    -0x20(%ebp),%esi
    2e4d:	e8 6e f5 ff ff       	call   23c0 <usb_pipe_start_long_transfer>
    2e52:	89 7c 24 20          	mov    %edi,0x20(%esp)
    2e56:	c7 44 24 1c 08 00 00 	movl   $0x8,0x1c(%esp)
    2e5d:	00 
    2e5e:	89 74 24 18          	mov    %esi,0x18(%esp)
    2e62:	c7 44 24 14 00 00 00 	movl   $0x0,0x14(%esp)
    2e69:	00 
    2e6a:	c7 44 24 10 00 00 00 	movl   $0x0,0x10(%esp)
    2e71:	00 
    2e72:	c7 44 24 0c 01 00 00 	movl   $0x1,0xc(%esp)
    2e79:	00 
    2e7a:	c7 44 24 08 00 00 00 	movl   $0x0,0x8(%esp)
    2e81:	00 
    2e82:	c7 44 24 04 00 00 00 	movl   $0x0,0x4(%esp)
    2e89:	00 
    2e8a:	89 1c 24             	mov    %ebx,(%esp)
    2e8d:	e8 9e 15 00 00       	call   4430 <usb_request_get_descriptor>
    2e92:	85 c0                	test   %eax,%eax
    2e94:	75 0a                	jne    2ea0 <usb_pipe_probe_default_control+0x90>
    2e96:	83 7d dc 08          	cmpl   $0x8,-0x24(%ebp)
    2e9a:	0f 84 b0 00 00 00    	je     2f50 <usb_pipe_probe_default_control+0x140>
    2ea0:	89 7c 24 20          	mov    %edi,0x20(%esp)
    2ea4:	c7 44 24 1c 08 00 00 	movl   $0x8,0x1c(%esp)
    2eab:	00 
    2eac:	89 74 24 18          	mov    %esi,0x18(%esp)
    2eb0:	c7 44 24 14 00 00 00 	movl   $0x0,0x14(%esp)
    2eb7:	00 
    2eb8:	c7 44 24 10 00 00 00 	movl   $0x0,0x10(%esp)
    2ebf:	00 
    2ec0:	c7 44 24 0c 01 00 00 	movl   $0x1,0xc(%esp)
    2ec7:	00 
    2ec8:	c7 44 24 08 00 00 00 	movl   $0x0,0x8(%esp)
    2ecf:	00 
    2ed0:	c7 44 24 04 00 00 00 	movl   $0x0,0x4(%esp)
    2ed7:	00 
    2ed8:	89 1c 24             	mov    %ebx,(%esp)
    2edb:	e8 50 15 00 00       	call   4430 <usb_request_get_descriptor>
    2ee0:	85 c0                	test   %eax,%eax
    2ee2:	75 06                	jne    2eea <usb_pipe_probe_default_control+0xda>
    2ee4:	83 7d dc 08          	cmpl   $0x8,-0x24(%ebp)
    2ee8:	74 66                	je     2f50 <usb_pipe_probe_default_control+0x140>
    2eea:	89 74 24 18          	mov    %esi,0x18(%esp)
    2eee:	89 7c 24 20          	mov    %edi,0x20(%esp)
    2ef2:	c7 44 24 1c 08 00 00 	movl   $0x8,0x1c(%esp)
    2ef9:	00 
    2efa:	c7 44 24 14 00 00 00 	movl   $0x0,0x14(%esp)
    2f01:	00 
    2f02:	c7 44 24 10 00 00 00 	movl   $0x0,0x10(%esp)
    2f09:	00 
    2f0a:	c7 44 24 0c 01 00 00 	movl   $0x1,0xc(%esp)
    2f11:	00 
    2f12:	c7 44 24 08 00 00 00 	movl   $0x0,0x8(%esp)
    2f19:	00 
    2f1a:	c7 44 24 04 00 00 00 	movl   $0x0,0x4(%esp)
    2f21:	00 
    2f22:	89 1c 24             	mov    %ebx,(%esp)
    2f25:	e8 06 15 00 00       	call   4430 <usb_request_get_descriptor>
    2f2a:	89 c6                	mov    %eax,%esi
    2f2c:	85 c0                	test   %eax,%eax
    2f2e:	75 0b                	jne    2f3b <usb_pipe_probe_default_control+0x12b>
    2f30:	83 7d dc 08          	cmpl   $0x8,-0x24(%ebp)
    2f34:	74 1a                	je     2f50 <usb_pipe_probe_default_control+0x140>
    2f36:	be fd ff ff ff       	mov    $0xfffffffd,%esi
    2f3b:	89 1c 24             	mov    %ebx,(%esp)
    2f3e:	e8 fd f4 ff ff       	call   2440 <usb_pipe_end_long_transfer>
    2f43:	83 c4 4c             	add    $0x4c,%esp
    2f46:	89 f0                	mov    %esi,%eax
    2f48:	5b                   	pop    %ebx
    2f49:	5e                   	pop    %esi
    2f4a:	5f                   	pop    %edi
    2f4b:	5d                   	pop    %ebp
    2f4c:	c3                   	ret    
    2f4d:	8d 76 00             	lea    0x0(%esi),%esi
    2f50:	89 1c 24             	mov    %ebx,(%esp)
    2f53:	31 f6                	xor    %esi,%esi
    2f55:	e8 e6 f4 ff ff       	call   2440 <usb_pipe_end_long_transfer>
    2f5a:	31 c0                	xor    %eax,%eax
    2f5c:	8a 45 e7             	mov    -0x19(%ebp),%al
    2f5f:	89 43 10             	mov    %eax,0x10(%ebx)
    2f62:	83 c4 4c             	add    $0x4c,%esp
    2f65:	89 f0                	mov    %esi,%eax
    2f67:	5b                   	pop    %ebx
    2f68:	5e                   	pop    %esi
    2f69:	5f                   	pop    %edi
    2f6a:	5d                   	pop    %ebp
    2f6b:	c3                   	ret    
    2f6c:	8d 74 26 00          	lea    0x0(%esi,%eiz,1),%esi
    2f70:	83 c4 4c             	add    $0x4c,%esp
    2f73:	be f2 ff ff ff       	mov    $0xfffffff2,%esi
    2f78:	89 f0                	mov    %esi,%eax
    2f7a:	5b                   	pop    %ebx
    2f7b:	5e                   	pop    %esi
    2f7c:	5f                   	pop    %edi
    2f7d:	5d                   	pop    %ebp
    2f7e:	c3                   	ret    
    2f7f:	c7 44 24 08 55 01 00 	movl   $0x155,0x8(%esp)
    2f86:	00 
    2f87:	c7 44 24 04 20 c5 02 	movl   $0x2c520,0x4(%esp)
    2f8e:	00 
    2f8f:	c7 04 24 ef c5 02 00 	movl   $0x2c5ef,(%esp)
    2f96:	e8 65 45 02 00       	call   27500 <assert_abort>
    2f9b:	66 90                	xchg   %ax,%ax
    2f9d:	66 90                	xchg   %ax,%ax
    2f9f:	90                   	nop

00002fa0 <usb_device_create_match_ids_from_interface>:
    2fa0:	55                   	push   %ebp
    2fa1:	89 e5                	mov    %esp,%ebp
    2fa3:	57                   	push   %edi
    2fa4:	56                   	push   %esi
    2fa5:	53                   	push   %ebx
    2fa6:	83 ec 5c             	sub    $0x5c,%esp
    2fa9:	8b 5d 10             	mov    0x10(%ebp),%ebx
    2fac:	8b 75 08             	mov    0x8(%ebp),%esi
    2faf:	85 db                	test   %ebx,%ebx
    2fb1:	0f 84 09 0a 00 00    	je     39c0 <usb_device_create_match_ids_from_interface+0xa20>
    2fb7:	8b 45 0c             	mov    0xc(%ebp),%eax
    2fba:	85 c0                	test   %eax,%eax
    2fbc:	0f 84 fe 09 00 00    	je     39c0 <usb_device_create_match_ids_from_interface+0xa20>
    2fc2:	8b 55 0c             	mov    0xc(%ebp),%edx
    2fc5:	8a 42 05             	mov    0x5(%edx),%al
    2fc8:	84 c0                	test   %al,%al
    2fca:	0f 84 d8 09 00 00    	je     39a8 <usb_device_create_match_ids_from_interface+0xa08>
    2fd0:	25 ff 00 00 00       	and    $0xff,%eax
    2fd5:	89 04 24             	mov    %eax,(%esp)
    2fd8:	e8 83 2d 00 00       	call   5d60 <usb_str_class>
    2fdd:	89 c7                	mov    %eax,%edi
    2fdf:	85 c0                	test   %eax,%eax
    2fe1:	0f 84 31 0a 00 00    	je     3a18 <usb_device_create_match_ids_from_interface+0xa78>
    2fe7:	85 f6                	test   %esi,%esi
    2fe9:	0f 84 c1 09 00 00    	je     39b0 <usb_device_create_match_ids_from_interface+0xa10>
    2fef:	66 8b 46 08          	mov    0x8(%esi),%ax
    2ff3:	8d 55 e4             	lea    -0x1c(%ebp),%edx
    2ff6:	66 85 c0             	test   %ax,%ax
    2ff9:	89 55 d0             	mov    %edx,-0x30(%ebp)
    2ffc:	0f 85 a6 02 00 00    	jne    32a8 <usb_device_create_match_ids_from_interface+0x308>
    3002:	8b 55 0c             	mov    0xc(%ebp),%edx
    3005:	31 c0                	xor    %eax,%eax
    3007:	8b 4d d0             	mov    -0x30(%ebp),%ecx
    300a:	c7 45 e4 00 00 00 00 	movl   $0x0,-0x1c(%ebp)
    3011:	8a 42 07             	mov    0x7(%edx),%al
    3014:	89 44 24 10          	mov    %eax,0x10(%esp)
    3018:	31 c0                	xor    %eax,%eax
    301a:	8a 42 06             	mov    0x6(%edx),%al
    301d:	89 7c 24 08          	mov    %edi,0x8(%esp)
    3021:	89 44 24 0c          	mov    %eax,0xc(%esp)
    3025:	c7 44 24 04 74 c8 02 	movl   $0x2c874,0x4(%esp)
    302c:	00 
    302d:	89 0c 24             	mov    %ecx,(%esp)
    3030:	e8 db 23 01 00       	call   15410 <asprintf>
    3035:	83 f8 00             	cmp    $0x0,%eax
    3038:	0f 8e 1a 02 00 00    	jle    3258 <usb_device_create_match_ids_from_interface+0x2b8>
    303e:	8b 55 e4             	mov    -0x1c(%ebp),%edx
    3041:	c7 04 24 10 00 00 00 	movl   $0x10,(%esp)
    3048:	89 55 cc             	mov    %edx,-0x34(%ebp)
    304b:	e8 50 9c 01 00       	call   1cca0 <malloc>
    3050:	c7 44 24 08 10 00 00 	movl   $0x10,0x8(%esp)
    3057:	00 
    3058:	89 c6                	mov    %eax,%esi
    305a:	c7 44 24 04 00 00 00 	movl   $0x0,0x4(%esp)
    3061:	00 
    3062:	89 04 24             	mov    %eax,(%esp)
    3065:	e8 56 c6 00 00       	call   f6c0 <memset>
    306a:	85 f6                	test   %esi,%esi
    306c:	8b 55 cc             	mov    -0x34(%ebp),%edx
    306f:	0f 84 81 09 00 00    	je     39f6 <usb_device_create_match_ids_from_interface+0xa56>
    3075:	89 56 08             	mov    %edx,0x8(%esi)
    3078:	8b 53 04             	mov    0x4(%ebx),%edx
    307b:	c7 46 0c a0 00 00 00 	movl   $0xa0,0xc(%esi)
    3082:	39 d3                	cmp    %edx,%ebx
    3084:	75 09                	jne    308f <usb_device_create_match_ids_from_interface+0xef>
    3086:	eb 10                	jmp    3098 <usb_device_create_match_ids_from_interface+0xf8>
    3088:	8b 52 04             	mov    0x4(%edx),%edx
    308b:	39 d3                	cmp    %edx,%ebx
    308d:	74 09                	je     3098 <usb_device_create_match_ids_from_interface+0xf8>
    308f:	81 7a 0c 9f 00 00 00 	cmpl   $0x9f,0xc(%edx)
    3096:	77 f0                	ja     3088 <usb_device_create_match_ids_from_interface+0xe8>
    3098:	8b 02                	mov    (%edx),%eax
    309a:	89 56 04             	mov    %edx,0x4(%esi)
    309d:	89 06                	mov    %eax,(%esi)
    309f:	8b 02                	mov    (%edx),%eax
    30a1:	89 32                	mov    %esi,(%edx)
    30a3:	89 70 04             	mov    %esi,0x4(%eax)
    30a6:	8b 55 0c             	mov    0xc(%ebp),%edx
    30a9:	31 c0                	xor    %eax,%eax
    30ab:	8b 4d d0             	mov    -0x30(%ebp),%ecx
    30ae:	c7 45 e4 00 00 00 00 	movl   $0x0,-0x1c(%ebp)
    30b5:	8a 42 06             	mov    0x6(%edx),%al
    30b8:	89 7c 24 08          	mov    %edi,0x8(%esp)
    30bc:	89 44 24 0c          	mov    %eax,0xc(%esp)
    30c0:	c7 44 24 04 ac c8 02 	movl   $0x2c8ac,0x4(%esp)
    30c7:	00 
    30c8:	89 0c 24             	mov    %ecx,(%esp)
    30cb:	e8 40 23 01 00       	call   15410 <asprintf>
    30d0:	83 f8 00             	cmp    $0x0,%eax
    30d3:	0f 8e c7 01 00 00    	jle    32a0 <usb_device_create_match_ids_from_interface+0x300>
    30d9:	8b 55 e4             	mov    -0x1c(%ebp),%edx
    30dc:	c7 04 24 10 00 00 00 	movl   $0x10,(%esp)
    30e3:	89 55 d4             	mov    %edx,-0x2c(%ebp)
    30e6:	e8 b5 9b 01 00       	call   1cca0 <malloc>
    30eb:	c7 44 24 08 10 00 00 	movl   $0x10,0x8(%esp)
    30f2:	00 
    30f3:	89 c6                	mov    %eax,%esi
    30f5:	c7 44 24 04 00 00 00 	movl   $0x0,0x4(%esp)
    30fc:	00 
    30fd:	89 04 24             	mov    %eax,(%esp)
    3100:	e8 bb c5 00 00       	call   f6c0 <memset>
    3105:	85 f6                	test   %esi,%esi
    3107:	0f 84 e9 08 00 00    	je     39f6 <usb_device_create_match_ids_from_interface+0xa56>
    310d:	8b 4d d4             	mov    -0x2c(%ebp),%ecx
    3110:	8b 53 04             	mov    0x4(%ebx),%edx
    3113:	89 4e 08             	mov    %ecx,0x8(%esi)
    3116:	c7 46 0c 96 00 00 00 	movl   $0x96,0xc(%esi)
    311d:	39 d3                	cmp    %edx,%ebx
    311f:	0f 85 5e 01 00 00    	jne    3283 <usb_device_create_match_ids_from_interface+0x2e3>
    3125:	8d 76 00             	lea    0x0(%esi),%esi
    3128:	8b 02                	mov    (%edx),%eax
    312a:	89 56 04             	mov    %edx,0x4(%esi)
    312d:	89 06                	mov    %eax,(%esi)
    312f:	8b 02                	mov    (%edx),%eax
    3131:	89 32                	mov    %esi,(%edx)
    3133:	89 70 04             	mov    %esi,0x4(%eax)
    3136:	8b 55 d0             	mov    -0x30(%ebp),%edx
    3139:	89 7c 24 08          	mov    %edi,0x8(%esp)
    313d:	c7 44 24 04 92 c5 02 	movl   $0x2c592,0x4(%esp)
    3144:	00 
    3145:	89 14 24             	mov    %edx,(%esp)
    3148:	c7 45 e4 00 00 00 00 	movl   $0x0,-0x1c(%ebp)
    314f:	e8 bc 22 01 00       	call   15410 <asprintf>
    3154:	83 f8 00             	cmp    $0x0,%eax
    3157:	0f 8e 3b 01 00 00    	jle    3298 <usb_device_create_match_ids_from_interface+0x2f8>
    315d:	c7 04 24 10 00 00 00 	movl   $0x10,(%esp)
    3164:	8b 75 e4             	mov    -0x1c(%ebp),%esi
    3167:	e8 34 9b 01 00       	call   1cca0 <malloc>
    316c:	c7 44 24 08 10 00 00 	movl   $0x10,0x8(%esp)
    3173:	00 
    3174:	89 c7                	mov    %eax,%edi
    3176:	c7 44 24 04 00 00 00 	movl   $0x0,0x4(%esp)
    317d:	00 
    317e:	89 04 24             	mov    %eax,(%esp)
    3181:	e8 3a c5 00 00       	call   f6c0 <memset>
    3186:	85 ff                	test   %edi,%edi
    3188:	0f 84 68 08 00 00    	je     39f6 <usb_device_create_match_ids_from_interface+0xa56>
    318e:	8b 53 04             	mov    0x4(%ebx),%edx
    3191:	89 77 08             	mov    %esi,0x8(%edi)
    3194:	c7 47 0c 8c 00 00 00 	movl   $0x8c,0xc(%edi)
    319b:	39 d3                	cmp    %edx,%ebx
    319d:	75 10                	jne    31af <usb_device_create_match_ids_from_interface+0x20f>
    319f:	eb 17                	jmp    31b8 <usb_device_create_match_ids_from_interface+0x218>
    31a1:	8d b4 26 00 00 00 00 	lea    0x0(%esi,%eiz,1),%esi
    31a8:	8b 52 04             	mov    0x4(%edx),%edx
    31ab:	39 d3                	cmp    %edx,%ebx
    31ad:	74 09                	je     31b8 <usb_device_create_match_ids_from_interface+0x218>
    31af:	81 7a 0c 8b 00 00 00 	cmpl   $0x8b,0xc(%edx)
    31b6:	77 f0                	ja     31a8 <usb_device_create_match_ids_from_interface+0x208>
    31b8:	8b 02                	mov    (%edx),%eax
    31ba:	89 57 04             	mov    %edx,0x4(%edi)
    31bd:	89 07                	mov    %eax,(%edi)
    31bf:	8b 02                	mov    (%edx),%eax
    31c1:	89 3a                	mov    %edi,(%edx)
    31c3:	89 78 04             	mov    %edi,0x4(%eax)
    31c6:	8b 4d d0             	mov    -0x30(%ebp),%ecx
    31c9:	c7 44 24 04 a9 c5 02 	movl   $0x2c5a9,0x4(%esp)
    31d0:	00 
    31d1:	89 0c 24             	mov    %ecx,(%esp)
    31d4:	c7 45 e4 00 00 00 00 	movl   $0x0,-0x1c(%ebp)
    31db:	e8 30 22 01 00       	call   15410 <asprintf>
    31e0:	83 f8 00             	cmp    $0x0,%eax
    31e3:	0f 8e 9f 07 00 00    	jle    3988 <usb_device_create_match_ids_from_interface+0x9e8>
    31e9:	c7 04 24 10 00 00 00 	movl   $0x10,(%esp)
    31f0:	8b 7d e4             	mov    -0x1c(%ebp),%edi
    31f3:	e8 a8 9a 01 00       	call   1cca0 <malloc>
    31f8:	c7 44 24 08 10 00 00 	movl   $0x10,0x8(%esp)
    31ff:	00 
    3200:	89 c6                	mov    %eax,%esi
    3202:	c7 44 24 04 00 00 00 	movl   $0x0,0x4(%esp)
    3209:	00 
    320a:	89 04 24             	mov    %eax,(%esp)
    320d:	e8 ae c4 00 00       	call   f6c0 <memset>
    3212:	85 f6                	test   %esi,%esi
    3214:	0f 84 dc 07 00 00    	je     39f6 <usb_device_create_match_ids_from_interface+0xa56>
    321a:	8b 53 04             	mov    0x4(%ebx),%edx
    321d:	89 7e 08             	mov    %edi,0x8(%esi)
    3220:	c7 46 0c 0a 00 00 00 	movl   $0xa,0xc(%esi)
    3227:	39 d3                	cmp    %edx,%ebx
    3229:	75 0c                	jne    3237 <usb_device_create_match_ids_from_interface+0x297>
    322b:	eb 10                	jmp    323d <usb_device_create_match_ids_from_interface+0x29d>
    322d:	8d 76 00             	lea    0x0(%esi),%esi
    3230:	8b 52 04             	mov    0x4(%edx),%edx
    3233:	39 d3                	cmp    %edx,%ebx
    3235:	74 06                	je     323d <usb_device_create_match_ids_from_interface+0x29d>
    3237:	83 7a 0c 09          	cmpl   $0x9,0xc(%edx)
    323b:	77 f3                	ja     3230 <usb_device_create_match_ids_from_interface+0x290>
    323d:	8b 02                	mov    (%edx),%eax
    323f:	89 56 04             	mov    %edx,0x4(%esi)
    3242:	89 06                	mov    %eax,(%esi)
    3244:	8b 02                	mov    (%edx),%eax
    3246:	89 32                	mov    %esi,(%edx)
    3248:	89 70 04             	mov    %esi,0x4(%eax)
    324b:	31 c0                	xor    %eax,%eax
    324d:	83 c4 5c             	add    $0x5c,%esp
    3250:	5b                   	pop    %ebx
    3251:	5e                   	pop    %esi
    3252:	5f                   	pop    %edi
    3253:	5d                   	pop    %ebp
    3254:	c3                   	ret    
    3255:	8d 76 00             	lea    0x0(%esi),%esi
    3258:	0f 84 48 fe ff ff    	je     30a6 <usb_device_create_match_ids_from_interface+0x106>
    325e:	8b 55 e4             	mov    -0x1c(%ebp),%edx
    3261:	89 45 cc             	mov    %eax,-0x34(%ebp)
    3264:	89 14 24             	mov    %edx,(%esp)
    3267:	e8 44 9b 01 00       	call   1cdb0 <free>
    326c:	8b 45 cc             	mov    -0x34(%ebp),%eax
    326f:	83 c4 5c             	add    $0x5c,%esp
    3272:	5b                   	pop    %ebx
    3273:	5e                   	pop    %esi
    3274:	5f                   	pop    %edi
    3275:	5d                   	pop    %ebp
    3276:	c3                   	ret    
    3277:	90                   	nop
    3278:	8b 52 04             	mov    0x4(%edx),%edx
    327b:	39 d3                	cmp    %edx,%ebx
    327d:	0f 84 a5 fe ff ff    	je     3128 <usb_device_create_match_ids_from_interface+0x188>
    3283:	81 7a 0c 95 00 00 00 	cmpl   $0x95,0xc(%edx)
    328a:	77 ec                	ja     3278 <usb_device_create_match_ids_from_interface+0x2d8>
    328c:	e9 97 fe ff ff       	jmp    3128 <usb_device_create_match_ids_from_interface+0x188>
    3291:	8d b4 26 00 00 00 00 	lea    0x0(%esi,%eiz,1),%esi
    3298:	0f 84 28 ff ff ff    	je     31c6 <usb_device_create_match_ids_from_interface+0x226>
    329e:	eb be                	jmp    325e <usb_device_create_match_ids_from_interface+0x2be>
    32a0:	0f 84 90 fe ff ff    	je     3136 <usb_device_create_match_ids_from_interface+0x196>
    32a6:	eb b6                	jmp    325e <usb_device_create_match_ids_from_interface+0x2be>
    32a8:	8b 4d 0c             	mov    0xc(%ebp),%ecx
    32ab:	31 d2                	xor    %edx,%edx
    32ad:	25 ff ff 00 00       	and    $0xffff,%eax
    32b2:	c7 45 e4 00 00 00 00 	movl   $0x0,-0x1c(%ebp)
    32b9:	8a 51 07             	mov    0x7(%ecx),%dl
    32bc:	89 54 24 20          	mov    %edx,0x20(%esp)
    32c0:	31 d2                	xor    %edx,%edx
    32c2:	8a 51 06             	mov    0x6(%ecx),%dl
    32c5:	89 7c 24 18          	mov    %edi,0x18(%esp)
    32c9:	89 54 24 1c          	mov    %edx,0x1c(%esp)
    32cd:	31 d2                	xor    %edx,%edx
    32cf:	8a 56 0c             	mov    0xc(%esi),%dl
    32d2:	89 54 24 14          	mov    %edx,0x14(%esp)
    32d6:	66 8b 4e 0c          	mov    0xc(%esi),%cx
    32da:	0f b6 d5             	movzbl %ch,%edx
    32dd:	89 54 24 10          	mov    %edx,0x10(%esp)
    32e1:	66 8b 56 0a          	mov    0xa(%esi),%dx
    32e5:	89 44 24 08          	mov    %eax,0x8(%esp)
    32e9:	81 e2 ff ff 00 00    	and    $0xffff,%edx
    32ef:	c7 44 24 04 04 c6 02 	movl   $0x2c604,0x4(%esp)
    32f6:	00 
    32f7:	89 54 24 0c          	mov    %edx,0xc(%esp)
    32fb:	8b 55 d0             	mov    -0x30(%ebp),%edx
    32fe:	89 14 24             	mov    %edx,(%esp)
    3301:	e8 0a 21 01 00       	call   15410 <asprintf>
    3306:	83 f8 00             	cmp    $0x0,%eax
    3309:	0f 8e 09 02 00 00    	jle    3518 <usb_device_create_match_ids_from_interface+0x578>
    330f:	8b 55 e4             	mov    -0x1c(%ebp),%edx
    3312:	c7 04 24 10 00 00 00 	movl   $0x10,(%esp)
    3319:	89 55 cc             	mov    %edx,-0x34(%ebp)
    331c:	e8 7f 99 01 00       	call   1cca0 <malloc>
    3321:	c7 44 24 08 10 00 00 	movl   $0x10,0x8(%esp)
    3328:	00 
    3329:	c7 44 24 04 00 00 00 	movl   $0x0,0x4(%esp)
    3330:	00 
    3331:	89 04 24             	mov    %eax,(%esp)
    3334:	89 45 c8             	mov    %eax,-0x38(%ebp)
    3337:	e8 84 c3 00 00       	call   f6c0 <memset>
    333c:	8b 4d c8             	mov    -0x38(%ebp),%ecx
    333f:	85 c9                	test   %ecx,%ecx
    3341:	8b 55 cc             	mov    -0x34(%ebp),%edx
    3344:	0f 84 ac 06 00 00    	je     39f6 <usb_device_create_match_ids_from_interface+0xa56>
    334a:	89 51 08             	mov    %edx,0x8(%ecx)
    334d:	8b 53 04             	mov    0x4(%ebx),%edx
    3350:	c7 41 0c fa 00 00 00 	movl   $0xfa,0xc(%ecx)
    3357:	39 da                	cmp    %ebx,%edx
    3359:	75 0c                	jne    3367 <usb_device_create_match_ids_from_interface+0x3c7>
    335b:	eb 13                	jmp    3370 <usb_device_create_match_ids_from_interface+0x3d0>
    335d:	8d 76 00             	lea    0x0(%esi),%esi
    3360:	8b 52 04             	mov    0x4(%edx),%edx
    3363:	39 da                	cmp    %ebx,%edx
    3365:	74 09                	je     3370 <usb_device_create_match_ids_from_interface+0x3d0>
    3367:	81 7a 0c f9 00 00 00 	cmpl   $0xf9,0xc(%edx)
    336e:	77 f0                	ja     3360 <usb_device_create_match_ids_from_interface+0x3c0>
    3370:	8b 02                	mov    (%edx),%eax
    3372:	89 51 04             	mov    %edx,0x4(%ecx)
    3375:	89 01                	mov    %eax,(%ecx)
    3377:	8b 02                	mov    (%edx),%eax
    3379:	89 0a                	mov    %ecx,(%edx)
    337b:	89 48 04             	mov    %ecx,0x4(%eax)
    337e:	8b 4d 0c             	mov    0xc(%ebp),%ecx
    3381:	31 c0                	xor    %eax,%eax
    3383:	c7 45 e4 00 00 00 00 	movl   $0x0,-0x1c(%ebp)
    338a:	8a 41 06             	mov    0x6(%ecx),%al
    338d:	89 7c 24 18          	mov    %edi,0x18(%esp)
    3391:	89 44 24 1c          	mov    %eax,0x1c(%esp)
    3395:	31 c0                	xor    %eax,%eax
    3397:	8a 46 0c             	mov    0xc(%esi),%al
    339a:	8b 4d d0             	mov    -0x30(%ebp),%ecx
    339d:	89 44 24 14          	mov    %eax,0x14(%esp)
    33a1:	66 8b 56 0c          	mov    0xc(%esi),%dx
    33a5:	0f b6 c6             	movzbl %dh,%eax
    33a8:	89 44 24 10          	mov    %eax,0x10(%esp)
    33ac:	66 8b 46 0a          	mov    0xa(%esi),%ax
    33b0:	25 ff ff 00 00       	and    $0xffff,%eax
    33b5:	89 44 24 0c          	mov    %eax,0xc(%esp)
    33b9:	66 8b 46 08          	mov    0x8(%esi),%ax
    33bd:	c7 44 24 04 68 c6 02 	movl   $0x2c668,0x4(%esp)
    33c4:	00 
    33c5:	25 ff ff 00 00       	and    $0xffff,%eax
    33ca:	89 0c 24             	mov    %ecx,(%esp)
    33cd:	89 44 24 08          	mov    %eax,0x8(%esp)
    33d1:	e8 3a 20 01 00       	call   15410 <asprintf>
    33d6:	83 f8 00             	cmp    $0x0,%eax
    33d9:	0f 8e b9 05 00 00    	jle    3998 <usb_device_create_match_ids_from_interface+0x9f8>
    33df:	8b 55 e4             	mov    -0x1c(%ebp),%edx
    33e2:	c7 04 24 10 00 00 00 	movl   $0x10,(%esp)
    33e9:	89 55 cc             	mov    %edx,-0x34(%ebp)
    33ec:	e8 af 98 01 00       	call   1cca0 <malloc>
    33f1:	c7 44 24 08 10 00 00 	movl   $0x10,0x8(%esp)
    33f8:	00 
    33f9:	c7 44 24 04 00 00 00 	movl   $0x0,0x4(%esp)
    3400:	00 
    3401:	89 04 24             	mov    %eax,(%esp)
    3404:	89 45 c8             	mov    %eax,-0x38(%ebp)
    3407:	e8 b4 c2 00 00       	call   f6c0 <memset>
    340c:	8b 4d c8             	mov    -0x38(%ebp),%ecx
    340f:	85 c9                	test   %ecx,%ecx
    3411:	8b 55 cc             	mov    -0x34(%ebp),%edx
    3414:	0f 84 dc 05 00 00    	je     39f6 <usb_device_create_match_ids_from_interface+0xa56>
    341a:	89 51 08             	mov    %edx,0x8(%ecx)
    341d:	8b 53 04             	mov    0x4(%ebx),%edx
    3420:	c7 41 0c f0 00 00 00 	movl   $0xf0,0xc(%ecx)
    3427:	39 d3                	cmp    %edx,%ebx
    3429:	75 0c                	jne    3437 <usb_device_create_match_ids_from_interface+0x497>
    342b:	eb 13                	jmp    3440 <usb_device_create_match_ids_from_interface+0x4a0>
    342d:	8d 76 00             	lea    0x0(%esi),%esi
    3430:	8b 52 04             	mov    0x4(%edx),%edx
    3433:	39 d3                	cmp    %edx,%ebx
    3435:	74 09                	je     3440 <usb_device_create_match_ids_from_interface+0x4a0>
    3437:	81 7a 0c ef 00 00 00 	cmpl   $0xef,0xc(%edx)
    343e:	77 f0                	ja     3430 <usb_device_create_match_ids_from_interface+0x490>
    3440:	8b 02                	mov    (%edx),%eax
    3442:	89 51 04             	mov    %edx,0x4(%ecx)
    3445:	89 01                	mov    %eax,(%ecx)
    3447:	8b 02                	mov    (%edx),%eax
    3449:	89 0a                	mov    %ecx,(%edx)
    344b:	89 48 04             	mov    %ecx,0x4(%eax)
    344e:	89 7c 24 18          	mov    %edi,0x18(%esp)
    3452:	31 c0                	xor    %eax,%eax
    3454:	8a 46 0c             	mov    0xc(%esi),%al
    3457:	8b 4d d0             	mov    -0x30(%ebp),%ecx
    345a:	89 44 24 14          	mov    %eax,0x14(%esp)
    345e:	c7 45 e4 00 00 00 00 	movl   $0x0,-0x1c(%ebp)
    3465:	66 8b 56 0c          	mov    0xc(%esi),%dx
    3469:	0f b6 c6             	movzbl %dh,%eax
    346c:	89 44 24 10          	mov    %eax,0x10(%esp)
    3470:	66 8b 46 0a          	mov    0xa(%esi),%ax
    3474:	25 ff ff 00 00       	and    $0xffff,%eax
    3479:	89 44 24 0c          	mov    %eax,0xc(%esp)
    347d:	66 8b 46 08          	mov    0x8(%esi),%ax
    3481:	c7 44 24 04 bc c6 02 	movl   $0x2c6bc,0x4(%esp)
    3488:	00 
    3489:	25 ff ff 00 00       	and    $0xffff,%eax
    348e:	89 0c 24             	mov    %ecx,(%esp)
    3491:	89 44 24 08          	mov    %eax,0x8(%esp)
    3495:	e8 76 1f 01 00       	call   15410 <asprintf>
    349a:	83 f8 00             	cmp    $0x0,%eax
    349d:	0f 8e 85 00 00 00    	jle    3528 <usb_device_create_match_ids_from_interface+0x588>
    34a3:	8b 55 e4             	mov    -0x1c(%ebp),%edx
    34a6:	c7 04 24 10 00 00 00 	movl   $0x10,(%esp)
    34ad:	89 55 cc             	mov    %edx,-0x34(%ebp)
    34b0:	e8 eb 97 01 00       	call   1cca0 <malloc>
    34b5:	c7 44 24 08 10 00 00 	movl   $0x10,0x8(%esp)
    34bc:	00 
    34bd:	c7 44 24 04 00 00 00 	movl   $0x0,0x4(%esp)
    34c4:	00 
    34c5:	89 04 24             	mov    %eax,(%esp)
    34c8:	89 45 c8             	mov    %eax,-0x38(%ebp)
    34cb:	e8 f0 c1 00 00       	call   f6c0 <memset>
    34d0:	8b 4d c8             	mov    -0x38(%ebp),%ecx
    34d3:	85 c9                	test   %ecx,%ecx
    34d5:	8b 55 cc             	mov    -0x34(%ebp),%edx
    34d8:	0f 84 18 05 00 00    	je     39f6 <usb_device_create_match_ids_from_interface+0xa56>
    34de:	89 51 08             	mov    %edx,0x8(%ecx)
    34e1:	8b 53 04             	mov    0x4(%ebx),%edx
    34e4:	c7 41 0c e6 00 00 00 	movl   $0xe6,0xc(%ecx)
    34eb:	39 da                	cmp    %ebx,%edx
    34ed:	75 10                	jne    34ff <usb_device_create_match_ids_from_interface+0x55f>
    34ef:	eb 17                	jmp    3508 <usb_device_create_match_ids_from_interface+0x568>
    34f1:	8d b4 26 00 00 00 00 	lea    0x0(%esi,%eiz,1),%esi
    34f8:	8b 52 04             	mov    0x4(%edx),%edx
    34fb:	39 da                	cmp    %ebx,%edx
    34fd:	74 09                	je     3508 <usb_device_create_match_ids_from_interface+0x568>
    34ff:	81 7a 0c e5 00 00 00 	cmpl   $0xe5,0xc(%edx)
    3506:	77 f0                	ja     34f8 <usb_device_create_match_ids_from_interface+0x558>
    3508:	8b 02                	mov    (%edx),%eax
    350a:	89 51 04             	mov    %edx,0x4(%ecx)
    350d:	89 01                	mov    %eax,(%ecx)
    350f:	8b 02                	mov    (%edx),%eax
    3511:	89 0a                	mov    %ecx,(%edx)
    3513:	89 48 04             	mov    %ecx,0x4(%eax)
    3516:	eb 16                	jmp    352e <usb_device_create_match_ids_from_interface+0x58e>
    3518:	0f 84 60 fe ff ff    	je     337e <usb_device_create_match_ids_from_interface+0x3de>
    351e:	e9 3b fd ff ff       	jmp    325e <usb_device_create_match_ids_from_interface+0x2be>
    3523:	90                   	nop
    3524:	8d 74 26 00          	lea    0x0(%esi,%eiz,1),%esi
    3528:	0f 85 30 fd ff ff    	jne    325e <usb_device_create_match_ids_from_interface+0x2be>
    352e:	8b 55 0c             	mov    0xc(%ebp),%edx
    3531:	31 c0                	xor    %eax,%eax
    3533:	8b 4d d0             	mov    -0x30(%ebp),%ecx
    3536:	c7 45 e4 00 00 00 00 	movl   $0x0,-0x1c(%ebp)
    353d:	8a 42 07             	mov    0x7(%edx),%al
    3540:	89 44 24 18          	mov    %eax,0x18(%esp)
    3544:	31 c0                	xor    %eax,%eax
    3546:	8a 42 06             	mov    0x6(%edx),%al
    3549:	89 7c 24 10          	mov    %edi,0x10(%esp)
    354d:	89 44 24 14          	mov    %eax,0x14(%esp)
    3551:	66 8b 46 0a          	mov    0xa(%esi),%ax
    3555:	25 ff ff 00 00       	and    $0xffff,%eax
    355a:	89 44 24 0c          	mov    %eax,0xc(%esp)
    355e:	66 8b 46 08          	mov    0x8(%esi),%ax
    3562:	c7 44 24 04 00 c7 02 	movl   $0x2c700,0x4(%esp)
    3569:	00 
    356a:	25 ff ff 00 00       	and    $0xffff,%eax
    356f:	89 0c 24             	mov    %ecx,(%esp)
    3572:	89 44 24 08          	mov    %eax,0x8(%esp)
    3576:	e8 95 1e 01 00       	call   15410 <asprintf>
    357b:	83 f8 00             	cmp    $0x0,%eax
    357e:	0f 8e f4 03 00 00    	jle    3978 <usb_device_create_match_ids_from_interface+0x9d8>
    3584:	8b 55 e4             	mov    -0x1c(%ebp),%edx
    3587:	c7 04 24 10 00 00 00 	movl   $0x10,(%esp)
    358e:	89 55 cc             	mov    %edx,-0x34(%ebp)
    3591:	e8 0a 97 01 00       	call   1cca0 <malloc>
    3596:	c7 44 24 08 10 00 00 	movl   $0x10,0x8(%esp)
    359d:	00 
    359e:	c7 44 24 04 00 00 00 	movl   $0x0,0x4(%esp)
    35a5:	00 
    35a6:	89 04 24             	mov    %eax,(%esp)
    35a9:	89 45 c8             	mov    %eax,-0x38(%ebp)
    35ac:	e8 0f c1 00 00       	call   f6c0 <memset>
    35b1:	8b 4d c8             	mov    -0x38(%ebp),%ecx
    35b4:	85 c9                	test   %ecx,%ecx
    35b6:	8b 55 cc             	mov    -0x34(%ebp),%edx
    35b9:	0f 84 37 04 00 00    	je     39f6 <usb_device_create_match_ids_from_interface+0xa56>
    35bf:	89 51 08             	mov    %edx,0x8(%ecx)
    35c2:	8b 53 04             	mov    0x4(%ebx),%edx
    35c5:	c7 41 0c dc 00 00 00 	movl   $0xdc,0xc(%ecx)
    35cc:	39 da                	cmp    %ebx,%edx
    35ce:	75 0f                	jne    35df <usb_device_create_match_ids_from_interface+0x63f>
    35d0:	eb 16                	jmp    35e8 <usb_device_create_match_ids_from_interface+0x648>
    35d2:	8d b6 00 00 00 00    	lea    0x0(%esi),%esi
    35d8:	8b 52 04             	mov    0x4(%edx),%edx
    35db:	39 da                	cmp    %ebx,%edx
    35dd:	74 09                	je     35e8 <usb_device_create_match_ids_from_interface+0x648>
    35df:	81 7a 0c db 00 00 00 	cmpl   $0xdb,0xc(%edx)
    35e6:	77 f0                	ja     35d8 <usb_device_create_match_ids_from_interface+0x638>
    35e8:	8b 02                	mov    (%edx),%eax
    35ea:	89 51 04             	mov    %edx,0x4(%ecx)
    35ed:	89 01                	mov    %eax,(%ecx)
    35ef:	8b 02                	mov    (%edx),%eax
    35f1:	89 0a                	mov    %ecx,(%edx)
    35f3:	89 48 04             	mov    %ecx,0x4(%eax)
    35f6:	8b 55 0c             	mov    0xc(%ebp),%edx
    35f9:	31 c0                	xor    %eax,%eax
    35fb:	8b 4d d0             	mov    -0x30(%ebp),%ecx
    35fe:	c7 45 e4 00 00 00 00 	movl   $0x0,-0x1c(%ebp)
    3605:	8a 42 06             	mov    0x6(%edx),%al
    3608:	89 7c 24 10          	mov    %edi,0x10(%esp)
    360c:	89 44 24 14          	mov    %eax,0x14(%esp)
    3610:	66 8b 46 0a          	mov    0xa(%esi),%ax
    3614:	25 ff ff 00 00       	and    $0xffff,%eax
    3619:	89 44 24 0c          	mov    %eax,0xc(%esp)
    361d:	66 8b 46 08          	mov    0x8(%esi),%ax
    3621:	c7 44 24 04 54 c7 02 	movl   $0x2c754,0x4(%esp)
    3628:	00 
    3629:	25 ff ff 00 00       	and    $0xffff,%eax
    362e:	89 0c 24             	mov    %ecx,(%esp)
    3631:	89 44 24 08          	mov    %eax,0x8(%esp)
    3635:	e8 d6 1d 01 00       	call   15410 <asprintf>
    363a:	83 f8 00             	cmp    $0x0,%eax
    363d:	0f 8e 87 03 00 00    	jle    39ca <usb_device_create_match_ids_from_interface+0xa2a>
    3643:	8b 55 e4             	mov    -0x1c(%ebp),%edx
    3646:	c7 04 24 10 00 00 00 	movl   $0x10,(%esp)
    364d:	89 55 cc             	mov    %edx,-0x34(%ebp)
    3650:	e8 4b 96 01 00       	call   1cca0 <malloc>
    3655:	c7 44 24 08 10 00 00 	movl   $0x10,0x8(%esp)
    365c:	00 
    365d:	c7 44 24 04 00 00 00 	movl   $0x0,0x4(%esp)
    3664:	00 
    3665:	89 04 24             	mov    %eax,(%esp)
    3668:	89 45 c8             	mov    %eax,-0x38(%ebp)
    366b:	e8 50 c0 00 00       	call   f6c0 <memset>
    3670:	8b 4d c8             	mov    -0x38(%ebp),%ecx
    3673:	85 c9                	test   %ecx,%ecx
    3675:	8b 55 cc             	mov    -0x34(%ebp),%edx
    3678:	0f 84 78 03 00 00    	je     39f6 <usb_device_create_match_ids_from_interface+0xa56>
    367e:	89 51 08             	mov    %edx,0x8(%ecx)
    3681:	8b 53 04             	mov    0x4(%ebx),%edx
    3684:	c7 41 0c d2 00 00 00 	movl   $0xd2,0xc(%ecx)
    368b:	39 da                	cmp    %ebx,%edx
    368d:	75 10                	jne    369f <usb_device_create_match_ids_from_interface+0x6ff>
    368f:	eb 17                	jmp    36a8 <usb_device_create_match_ids_from_interface+0x708>
    3691:	8d b4 26 00 00 00 00 	lea    0x0(%esi,%eiz,1),%esi
    3698:	8b 52 04             	mov    0x4(%edx),%edx
    369b:	39 da                	cmp    %ebx,%edx
    369d:	74 09                	je     36a8 <usb_device_create_match_ids_from_interface+0x708>
    369f:	81 7a 0c d1 00 00 00 	cmpl   $0xd1,0xc(%edx)
    36a6:	77 f0                	ja     3698 <usb_device_create_match_ids_from_interface+0x6f8>
    36a8:	8b 02                	mov    (%edx),%eax
    36aa:	89 51 04             	mov    %edx,0x4(%ecx)
    36ad:	89 01                	mov    %eax,(%ecx)
    36af:	8b 02                	mov    (%edx),%eax
    36b1:	89 0a                	mov    %ecx,(%edx)
    36b3:	89 48 04             	mov    %ecx,0x4(%eax)
    36b6:	89 7c 24 10          	mov    %edi,0x10(%esp)
    36ba:	8b 55 d0             	mov    -0x30(%ebp),%edx
    36bd:	66 8b 46 0a          	mov    0xa(%esi),%ax
    36c1:	c7 45 e4 00 00 00 00 	movl   $0x0,-0x1c(%ebp)
    36c8:	25 ff ff 00 00       	and    $0xffff,%eax
    36cd:	89 44 24 0c          	mov    %eax,0xc(%esp)
    36d1:	66 8b 46 08          	mov    0x8(%esi),%ax
    36d5:	c7 44 24 04 98 c7 02 	movl   $0x2c798,0x4(%esp)
    36dc:	00 
    36dd:	25 ff ff 00 00       	and    $0xffff,%eax
    36e2:	89 14 24             	mov    %edx,(%esp)
    36e5:	89 44 24 08          	mov    %eax,0x8(%esp)
    36e9:	e8 22 1d 01 00       	call   15410 <asprintf>
    36ee:	83 f8 00             	cmp    $0x0,%eax
    36f1:	0f 8e de 02 00 00    	jle    39d5 <usb_device_create_match_ids_from_interface+0xa35>
    36f7:	8b 55 e4             	mov    -0x1c(%ebp),%edx
    36fa:	c7 04 24 10 00 00 00 	movl   $0x10,(%esp)
    3701:	89 55 cc             	mov    %edx,-0x34(%ebp)
    3704:	e8 97 95 01 00       	call   1cca0 <malloc>
    3709:	c7 44 24 08 10 00 00 	movl   $0x10,0x8(%esp)
    3710:	00 
    3711:	c7 44 24 04 00 00 00 	movl   $0x0,0x4(%esp)
    3718:	00 
    3719:	89 04 24             	mov    %eax,(%esp)
    371c:	89 45 c8             	mov    %eax,-0x38(%ebp)
    371f:	e8 9c bf 00 00       	call   f6c0 <memset>
    3724:	8b 4d c8             	mov    -0x38(%ebp),%ecx
    3727:	85 c9                	test   %ecx,%ecx
    3729:	8b 55 cc             	mov    -0x34(%ebp),%edx
    372c:	0f 84 c4 02 00 00    	je     39f6 <usb_device_create_match_ids_from_interface+0xa56>
    3732:	89 51 08             	mov    %edx,0x8(%ecx)
    3735:	8b 53 04             	mov    0x4(%ebx),%edx
    3738:	c7 41 0c c8 00 00 00 	movl   $0xc8,0xc(%ecx)
    373f:	39 da                	cmp    %ebx,%edx
    3741:	75 0c                	jne    374f <usb_device_create_match_ids_from_interface+0x7af>
    3743:	eb 13                	jmp    3758 <usb_device_create_match_ids_from_interface+0x7b8>
    3745:	8d 76 00             	lea    0x0(%esi),%esi
    3748:	8b 52 04             	mov    0x4(%edx),%edx
    374b:	39 da                	cmp    %ebx,%edx
    374d:	74 09                	je     3758 <usb_device_create_match_ids_from_interface+0x7b8>
    374f:	81 7a 0c c7 00 00 00 	cmpl   $0xc7,0xc(%edx)
    3756:	77 f0                	ja     3748 <usb_device_create_match_ids_from_interface+0x7a8>
    3758:	8b 02                	mov    (%edx),%eax
    375a:	89 51 04             	mov    %edx,0x4(%ecx)
    375d:	89 01                	mov    %eax,(%ecx)
    375f:	8b 02                	mov    (%edx),%eax
    3761:	89 0a                	mov    %ecx,(%edx)
    3763:	89 48 04             	mov    %ecx,0x4(%eax)
    3766:	8b 4d 0c             	mov    0xc(%ebp),%ecx
    3769:	31 c0                	xor    %eax,%eax
    376b:	8b 55 d0             	mov    -0x30(%ebp),%edx
    376e:	c7 45 e4 00 00 00 00 	movl   $0x0,-0x1c(%ebp)
    3775:	8a 41 07             	mov    0x7(%ecx),%al
    3778:	89 44 24 14          	mov    %eax,0x14(%esp)
    377c:	31 c0                	xor    %eax,%eax
    377e:	8a 41 06             	mov    0x6(%ecx),%al
    3781:	89 7c 24 0c          	mov    %edi,0xc(%esp)
    3785:	89 44 24 10          	mov    %eax,0x10(%esp)
    3789:	66 8b 46 08          	mov    0x8(%esi),%ax
    378d:	c7 44 24 04 cc c7 02 	movl   $0x2c7cc,0x4(%esp)
    3794:	00 
    3795:	25 ff ff 00 00       	and    $0xffff,%eax
    379a:	89 14 24             	mov    %edx,(%esp)
    379d:	89 44 24 08          	mov    %eax,0x8(%esp)
    37a1:	e8 6a 1c 01 00       	call   15410 <asprintf>
    37a6:	83 f8 00             	cmp    $0x0,%eax
    37a9:	0f 8e 31 02 00 00    	jle    39e0 <usb_device_create_match_ids_from_interface+0xa40>
    37af:	8b 55 e4             	mov    -0x1c(%ebp),%edx
    37b2:	c7 04 24 10 00 00 00 	movl   $0x10,(%esp)
    37b9:	89 55 cc             	mov    %edx,-0x34(%ebp)
    37bc:	e8 df 94 01 00       	call   1cca0 <malloc>
    37c1:	c7 44 24 08 10 00 00 	movl   $0x10,0x8(%esp)
    37c8:	00 
    37c9:	c7 44 24 04 00 00 00 	movl   $0x0,0x4(%esp)
    37d0:	00 
    37d1:	89 04 24             	mov    %eax,(%esp)
    37d4:	89 45 c8             	mov    %eax,-0x38(%ebp)
    37d7:	e8 e4 be 00 00       	call   f6c0 <memset>
    37dc:	8b 4d c8             	mov    -0x38(%ebp),%ecx
    37df:	85 c9                	test   %ecx,%ecx
    37e1:	8b 55 cc             	mov    -0x34(%ebp),%edx
    37e4:	0f 84 0c 02 00 00    	je     39f6 <usb_device_create_match_ids_from_interface+0xa56>
    37ea:	89 51 08             	mov    %edx,0x8(%ecx)
    37ed:	8b 53 04             	mov    0x4(%ebx),%edx
    37f0:	c7 41 0c be 00 00 00 	movl   $0xbe,0xc(%ecx)
    37f7:	39 d3                	cmp    %edx,%ebx
    37f9:	75 0c                	jne    3807 <usb_device_create_match_ids_from_interface+0x867>
    37fb:	eb 13                	jmp    3810 <usb_device_create_match_ids_from_interface+0x870>
    37fd:	8d 76 00             	lea    0x0(%esi),%esi
    3800:	8b 52 04             	mov    0x4(%edx),%edx
    3803:	39 d3                	cmp    %edx,%ebx
    3805:	74 09                	je     3810 <usb_device_create_match_ids_from_interface+0x870>
    3807:	81 7a 0c bd 00 00 00 	cmpl   $0xbd,0xc(%edx)
    380e:	77 f0                	ja     3800 <usb_device_create_match_ids_from_interface+0x860>
    3810:	8b 02                	mov    (%edx),%eax
    3812:	89 51 04             	mov    %edx,0x4(%ecx)
    3815:	89 01                	mov    %eax,(%ecx)
    3817:	8b 02                	mov    (%edx),%eax
    3819:	89 0a                	mov    %ecx,(%edx)
    381b:	89 48 04             	mov    %ecx,0x4(%eax)
    381e:	8b 4d 0c             	mov    0xc(%ebp),%ecx
    3821:	31 c0                	xor    %eax,%eax
    3823:	8b 55 d0             	mov    -0x30(%ebp),%edx
    3826:	c7 45 e4 00 00 00 00 	movl   $0x0,-0x1c(%ebp)
    382d:	8a 41 06             	mov    0x6(%ecx),%al
    3830:	89 7c 24 0c          	mov    %edi,0xc(%esp)
    3834:	89 44 24 10          	mov    %eax,0x10(%esp)
    3838:	66 8b 46 08          	mov    0x8(%esi),%ax
    383c:	c7 44 24 04 14 c8 02 	movl   $0x2c814,0x4(%esp)
    3843:	00 
    3844:	25 ff ff 00 00       	and    $0xffff,%eax
    3849:	89 14 24             	mov    %edx,(%esp)
    384c:	89 44 24 08          	mov    %eax,0x8(%esp)
    3850:	e8 bb 1b 01 00       	call   15410 <asprintf>
    3855:	83 f8 00             	cmp    $0x0,%eax
    3858:	0f 8e 8d 01 00 00    	jle    39eb <usb_device_create_match_ids_from_interface+0xa4b>
    385e:	8b 55 e4             	mov    -0x1c(%ebp),%edx
    3861:	c7 04 24 10 00 00 00 	movl   $0x10,(%esp)
    3868:	89 55 cc             	mov    %edx,-0x34(%ebp)
    386b:	e8 30 94 01 00       	call   1cca0 <malloc>
    3870:	c7 44 24 08 10 00 00 	movl   $0x10,0x8(%esp)
    3877:	00 
    3878:	c7 44 24 04 00 00 00 	movl   $0x0,0x4(%esp)
    387f:	00 
    3880:	89 04 24             	mov    %eax,(%esp)
    3883:	89 45 c8             	mov    %eax,-0x38(%ebp)
    3886:	e8 35 be 00 00       	call   f6c0 <memset>
    388b:	8b 4d c8             	mov    -0x38(%ebp),%ecx
    388e:	85 c9                	test   %ecx,%ecx
    3890:	8b 55 cc             	mov    -0x34(%ebp),%edx
    3893:	0f 84 5d 01 00 00    	je     39f6 <usb_device_create_match_ids_from_interface+0xa56>
    3899:	89 51 08             	mov    %edx,0x8(%ecx)
    389c:	8b 53 04             	mov    0x4(%ebx),%edx
    389f:	c7 41 0c b4 00 00 00 	movl   $0xb4,0xc(%ecx)
    38a6:	39 d3                	cmp    %edx,%ebx
    38a8:	75 0d                	jne    38b7 <usb_device_create_match_ids_from_interface+0x917>
    38aa:	eb 14                	jmp    38c0 <usb_device_create_match_ids_from_interface+0x920>
    38ac:	8d 74 26 00          	lea    0x0(%esi,%eiz,1),%esi
    38b0:	8b 52 04             	mov    0x4(%edx),%edx
    38b3:	39 d3                	cmp    %edx,%ebx
    38b5:	74 09                	je     38c0 <usb_device_create_match_ids_from_interface+0x920>
    38b7:	81 7a 0c b3 00 00 00 	cmpl   $0xb3,0xc(%edx)
    38be:	77 f0                	ja     38b0 <usb_device_create_match_ids_from_interface+0x910>
    38c0:	8b 02                	mov    (%edx),%eax
    38c2:	89 51 04             	mov    %edx,0x4(%ecx)
    38c5:	89 01                	mov    %eax,(%ecx)
    38c7:	8b 02                	mov    (%edx),%eax
    38c9:	89 0a                	mov    %ecx,(%edx)
    38cb:	89 48 04             	mov    %ecx,0x4(%eax)
    38ce:	89 7c 24 0c          	mov    %edi,0xc(%esp)
    38d2:	8b 4d d0             	mov    -0x30(%ebp),%ecx
    38d5:	66 8b 46 08          	mov    0x8(%esi),%ax
    38d9:	c7 44 24 04 4c c8 02 	movl   $0x2c84c,0x4(%esp)
    38e0:	00 
    38e1:	25 ff ff 00 00       	and    $0xffff,%eax
    38e6:	89 0c 24             	mov    %ecx,(%esp)
    38e9:	89 44 24 08          	mov    %eax,0x8(%esp)
    38ed:	c7 45 e4 00 00 00 00 	movl   $0x0,-0x1c(%ebp)
    38f4:	e8 17 1b 01 00       	call   15410 <asprintf>
    38f9:	89 c6                	mov    %eax,%esi
    38fb:	83 f8 00             	cmp    $0x0,%eax
    38fe:	0f 8e fc 00 00 00    	jle    3a00 <usb_device_create_match_ids_from_interface+0xa60>
    3904:	8b 55 e4             	mov    -0x1c(%ebp),%edx
    3907:	c7 04 24 10 00 00 00 	movl   $0x10,(%esp)
    390e:	89 55 cc             	mov    %edx,-0x34(%ebp)
    3911:	e8 8a 93 01 00       	call   1cca0 <malloc>
    3916:	c7 44 24 08 10 00 00 	movl   $0x10,0x8(%esp)
    391d:	00 
    391e:	89 c6                	mov    %eax,%esi
    3920:	c7 44 24 04 00 00 00 	movl   $0x0,0x4(%esp)
    3927:	00 
    3928:	89 04 24             	mov    %eax,(%esp)
    392b:	e8 90 bd 00 00       	call   f6c0 <memset>
    3930:	85 f6                	test   %esi,%esi
    3932:	8b 55 cc             	mov    -0x34(%ebp),%edx
    3935:	0f 84 f9 00 00 00    	je     3a34 <usb_device_create_match_ids_from_interface+0xa94>
    393b:	89 56 08             	mov    %edx,0x8(%esi)
    393e:	8b 53 04             	mov    0x4(%ebx),%edx
    3941:	c7 46 0c aa 00 00 00 	movl   $0xaa,0xc(%esi)
    3948:	39 d3                	cmp    %edx,%ebx
    394a:	75 0b                	jne    3957 <usb_device_create_match_ids_from_interface+0x9b7>
    394c:	eb 12                	jmp    3960 <usb_device_create_match_ids_from_interface+0x9c0>
    394e:	66 90                	xchg   %ax,%ax
    3950:	8b 52 04             	mov    0x4(%edx),%edx
    3953:	39 d3                	cmp    %edx,%ebx
    3955:	74 09                	je     3960 <usb_device_create_match_ids_from_interface+0x9c0>
    3957:	81 7a 0c a9 00 00 00 	cmpl   $0xa9,0xc(%edx)
    395e:	77 f0                	ja     3950 <usb_device_create_match_ids_from_interface+0x9b0>
    3960:	8b 02                	mov    (%edx),%eax
    3962:	89 56 04             	mov    %edx,0x4(%esi)
    3965:	89 06                	mov    %eax,(%esi)
    3967:	8b 02                	mov    (%edx),%eax
    3969:	89 32                	mov    %esi,(%edx)
    396b:	89 70 04             	mov    %esi,0x4(%eax)
    396e:	e9 8f f6 ff ff       	jmp    3002 <usb_device_create_match_ids_from_interface+0x62>
    3973:	90                   	nop
    3974:	8d 74 26 00          	lea    0x0(%esi,%eiz,1),%esi
    3978:	0f 84 78 fc ff ff    	je     35f6 <usb_device_create_match_ids_from_interface+0x656>
    397e:	e9 db f8 ff ff       	jmp    325e <usb_device_create_match_ids_from_interface+0x2be>
    3983:	90                   	nop
    3984:	8d 74 26 00          	lea    0x0(%esi,%eiz,1),%esi
    3988:	0f 85 d0 f8 ff ff    	jne    325e <usb_device_create_match_ids_from_interface+0x2be>
    398e:	31 c0                	xor    %eax,%eax
    3990:	e9 b8 f8 ff ff       	jmp    324d <usb_device_create_match_ids_from_interface+0x2ad>
    3995:	8d 76 00             	lea    0x0(%esi),%esi
    3998:	0f 84 b0 fa ff ff    	je     344e <usb_device_create_match_ids_from_interface+0x4ae>
    399e:	e9 bb f8 ff ff       	jmp    325e <usb_device_create_match_ids_from_interface+0x2be>
    39a3:	90                   	nop
    39a4:	8d 74 26 00          	lea    0x0(%esi,%eiz,1),%esi
    39a8:	83 c8 ff             	or     $0xffffffff,%eax
    39ab:	e9 bf f8 ff ff       	jmp    326f <usb_device_create_match_ids_from_interface+0x2cf>
    39b0:	8d 4d e4             	lea    -0x1c(%ebp),%ecx
    39b3:	89 4d d0             	mov    %ecx,-0x30(%ebp)
    39b6:	e9 47 f6 ff ff       	jmp    3002 <usb_device_create_match_ids_from_interface+0x62>
    39bb:	90                   	nop
    39bc:	8d 74 26 00          	lea    0x0(%esi,%eiz,1),%esi
    39c0:	b8 f2 ff ff ff       	mov    $0xfffffff2,%eax
    39c5:	e9 a5 f8 ff ff       	jmp    326f <usb_device_create_match_ids_from_interface+0x2cf>
    39ca:	0f 84 e6 fc ff ff    	je     36b6 <usb_device_create_match_ids_from_interface+0x716>
    39d0:	e9 89 f8 ff ff       	jmp    325e <usb_device_create_match_ids_from_interface+0x2be>
    39d5:	0f 84 8b fd ff ff    	je     3766 <usb_device_create_match_ids_from_interface+0x7c6>
    39db:	e9 7e f8 ff ff       	jmp    325e <usb_device_create_match_ids_from_interface+0x2be>
    39e0:	0f 84 38 fe ff ff    	je     381e <usb_device_create_match_ids_from_interface+0x87e>
    39e6:	e9 73 f8 ff ff       	jmp    325e <usb_device_create_match_ids_from_interface+0x2be>
    39eb:	0f 84 dd fe ff ff    	je     38ce <usb_device_create_match_ids_from_interface+0x92e>
    39f1:	e9 68 f8 ff ff       	jmp    325e <usb_device_create_match_ids_from_interface+0x2be>
    39f6:	b8 fe ff ff ff       	mov    $0xfffffffe,%eax
    39fb:	e9 5e f8 ff ff       	jmp    325e <usb_device_create_match_ids_from_interface+0x2be>
    3a00:	0f 84 fc f5 ff ff    	je     3002 <usb_device_create_match_ids_from_interface+0x62>
    3a06:	8b 55 e4             	mov    -0x1c(%ebp),%edx
    3a09:	89 14 24             	mov    %edx,(%esp)
    3a0c:	e8 9f 93 01 00       	call   1cdb0 <free>
    3a11:	89 f0                	mov    %esi,%eax
    3a13:	e9 57 f8 ff ff       	jmp    326f <usb_device_create_match_ids_from_interface+0x2cf>
    3a18:	c7 44 24 08 86 00 00 	movl   $0x86,0x8(%esp)
    3a1f:	00 
    3a20:	c7 44 24 04 70 c5 02 	movl   $0x2c570,0x4(%esp)
    3a27:	00 
    3a28:	c7 04 24 80 c5 02 00 	movl   $0x2c580,(%esp)
    3a2f:	e8 cc 3a 02 00       	call   27500 <assert_abort>
    3a34:	be fe ff ff ff       	mov    $0xfffffffe,%esi
    3a39:	eb cb                	jmp    3a06 <usb_device_create_match_ids_from_interface+0xa66>
    3a3b:	90                   	nop
    3a3c:	8d 74 26 00          	lea    0x0(%esi,%eiz,1),%esi

00003a40 <usb_device_create_match_ids_from_device_descriptor>:
    3a40:	55                   	push   %ebp
    3a41:	89 e5                	mov    %esp,%ebp
    3a43:	57                   	push   %edi
    3a44:	56                   	push   %esi
    3a45:	53                   	push   %ebx
    3a46:	83 ec 5c             	sub    $0x5c,%esp
    3a49:	8b 75 08             	mov    0x8(%ebp),%esi
    3a4c:	8b 5d 0c             	mov    0xc(%ebp),%ebx
    3a4f:	66 8b 46 08          	mov    0x8(%esi),%ax
    3a53:	66 85 c0             	test   %ax,%ax
    3a56:	0f 85 34 02 00 00    	jne    3c90 <usb_device_create_match_ids_from_device_descriptor+0x250>
    3a5c:	8a 46 04             	mov    0x4(%esi),%al
    3a5f:	84 c0                	test   %al,%al
    3a61:	0f 84 39 01 00 00    	je     3ba0 <usb_device_create_match_ids_from_device_descriptor+0x160>
    3a67:	25 ff 00 00 00       	and    $0xff,%eax
    3a6c:	c7 45 dc 00 00 00 00 	movl   $0x0,-0x24(%ebp)
    3a73:	89 04 24             	mov    %eax,(%esp)
    3a76:	e8 e5 22 00 00       	call   5d60 <usb_str_class>
    3a7b:	c7 44 24 04 c8 c5 02 	movl   $0x2c5c8,0x4(%esp)
    3a82:	00 
    3a83:	89 44 24 08          	mov    %eax,0x8(%esp)
    3a87:	8d 45 dc             	lea    -0x24(%ebp),%eax
    3a8a:	89 04 24             	mov    %eax,(%esp)
    3a8d:	e8 7e 19 01 00       	call   15410 <asprintf>
    3a92:	83 f8 00             	cmp    $0x0,%eax
    3a95:	0f 8e d5 01 00 00    	jle    3c70 <usb_device_create_match_ids_from_device_descriptor+0x230>
    3a9b:	8b 7d dc             	mov    -0x24(%ebp),%edi
    3a9e:	85 db                	test   %ebx,%ebx
    3aa0:	0f 84 c2 03 00 00    	je     3e68 <usb_device_create_match_ids_from_device_descriptor+0x428>
    3aa6:	c7 04 24 10 00 00 00 	movl   $0x10,(%esp)
    3aad:	e8 ee 91 01 00       	call   1cca0 <malloc>
    3ab2:	c7 44 24 08 10 00 00 	movl   $0x10,0x8(%esp)
    3ab9:	00 
    3aba:	89 c6                	mov    %eax,%esi
    3abc:	c7 44 24 04 00 00 00 	movl   $0x0,0x4(%esp)
    3ac3:	00 
    3ac4:	89 04 24             	mov    %eax,(%esp)
    3ac7:	e8 f4 bb 00 00       	call   f6c0 <memset>
    3acc:	85 f6                	test   %esi,%esi
    3ace:	0f 84 72 03 00 00    	je     3e46 <usb_device_create_match_ids_from_device_descriptor+0x406>
    3ad4:	8b 53 04             	mov    0x4(%ebx),%edx
    3ad7:	89 7e 08             	mov    %edi,0x8(%esi)
    3ada:	c7 46 0c 32 00 00 00 	movl   $0x32,0xc(%esi)
    3ae1:	39 d3                	cmp    %edx,%ebx
    3ae3:	75 0a                	jne    3aef <usb_device_create_match_ids_from_device_descriptor+0xaf>
    3ae5:	eb 0e                	jmp    3af5 <usb_device_create_match_ids_from_device_descriptor+0xb5>
    3ae7:	90                   	nop
    3ae8:	8b 52 04             	mov    0x4(%edx),%edx
    3aeb:	39 d3                	cmp    %edx,%ebx
    3aed:	74 06                	je     3af5 <usb_device_create_match_ids_from_device_descriptor+0xb5>
    3aef:	83 7a 0c 31          	cmpl   $0x31,0xc(%edx)
    3af3:	77 f3                	ja     3ae8 <usb_device_create_match_ids_from_device_descriptor+0xa8>
    3af5:	89 56 04             	mov    %edx,0x4(%esi)
    3af8:	8b 02                	mov    (%edx),%eax
    3afa:	89 06                	mov    %eax,(%esi)
    3afc:	8b 02                	mov    (%edx),%eax
    3afe:	89 70 04             	mov    %esi,0x4(%eax)
    3b01:	89 32                	mov    %esi,(%edx)
    3b03:	8d 45 e4             	lea    -0x1c(%ebp),%eax
    3b06:	c7 44 24 04 dd c5 02 	movl   $0x2c5dd,0x4(%esp)
    3b0d:	00 
    3b0e:	89 04 24             	mov    %eax,(%esp)
    3b11:	c7 45 e4 00 00 00 00 	movl   $0x0,-0x1c(%ebp)
    3b18:	e8 f3 18 01 00       	call   15410 <asprintf>
    3b1d:	83 f8 00             	cmp    $0x0,%eax
    3b20:	0f 8e 0a 01 00 00    	jle    3c30 <usb_device_create_match_ids_from_device_descriptor+0x1f0>
    3b26:	8b 7d e4             	mov    -0x1c(%ebp),%edi
    3b29:	85 db                	test   %ebx,%ebx
    3b2b:	0f 84 37 03 00 00    	je     3e68 <usb_device_create_match_ids_from_device_descriptor+0x428>
    3b31:	c7 04 24 10 00 00 00 	movl   $0x10,(%esp)
    3b38:	e8 63 91 01 00       	call   1cca0 <malloc>
    3b3d:	c7 44 24 08 10 00 00 	movl   $0x10,0x8(%esp)
    3b44:	00 
    3b45:	89 c6                	mov    %eax,%esi
    3b47:	c7 44 24 04 00 00 00 	movl   $0x0,0x4(%esp)
    3b4e:	00 
    3b4f:	89 04 24             	mov    %eax,(%esp)
    3b52:	e8 69 bb 00 00       	call   f6c0 <memset>
    3b57:	85 f6                	test   %esi,%esi
    3b59:	0f 84 dd 02 00 00    	je     3e3c <usb_device_create_match_ids_from_device_descriptor+0x3fc>
    3b5f:	8b 53 04             	mov    0x4(%ebx),%edx
    3b62:	89 7e 08             	mov    %edi,0x8(%esi)
    3b65:	c7 46 0c 0a 00 00 00 	movl   $0xa,0xc(%esi)
    3b6c:	39 d3                	cmp    %edx,%ebx
    3b6e:	75 0f                	jne    3b7f <usb_device_create_match_ids_from_device_descriptor+0x13f>
    3b70:	eb 13                	jmp    3b85 <usb_device_create_match_ids_from_device_descriptor+0x145>
    3b72:	8d b6 00 00 00 00    	lea    0x0(%esi),%esi
    3b78:	8b 52 04             	mov    0x4(%edx),%edx
    3b7b:	39 d3                	cmp    %edx,%ebx
    3b7d:	74 06                	je     3b85 <usb_device_create_match_ids_from_device_descriptor+0x145>
    3b7f:	83 7a 0c 09          	cmpl   $0x9,0xc(%edx)
    3b83:	77 f3                	ja     3b78 <usb_device_create_match_ids_from_device_descriptor+0x138>
    3b85:	8b 02                	mov    (%edx),%eax
    3b87:	89 56 04             	mov    %edx,0x4(%esi)
    3b8a:	89 06                	mov    %eax,(%esi)
    3b8c:	8b 02                	mov    (%edx),%eax
    3b8e:	89 32                	mov    %esi,(%edx)
    3b90:	89 70 04             	mov    %esi,0x4(%eax)
    3b93:	31 c0                	xor    %eax,%eax
    3b95:	83 c4 5c             	add    $0x5c,%esp
    3b98:	5b                   	pop    %ebx
    3b99:	5e                   	pop    %esi
    3b9a:	5f                   	pop    %edi
    3b9b:	5d                   	pop    %ebp
    3b9c:	c3                   	ret    
    3b9d:	8d 76 00             	lea    0x0(%esi),%esi
    3ba0:	8d 45 e0             	lea    -0x20(%ebp),%eax
    3ba3:	c7 44 24 04 d5 c5 02 	movl   $0x2c5d5,0x4(%esp)
    3baa:	00 
    3bab:	89 04 24             	mov    %eax,(%esp)
    3bae:	c7 45 e0 00 00 00 00 	movl   $0x0,-0x20(%ebp)
    3bb5:	e8 56 18 01 00       	call   15410 <asprintf>
    3bba:	83 f8 00             	cmp    $0x0,%eax
    3bbd:	0f 8e 8d 00 00 00    	jle    3c50 <usb_device_create_match_ids_from_device_descriptor+0x210>
    3bc3:	8b 7d e0             	mov    -0x20(%ebp),%edi
    3bc6:	85 db                	test   %ebx,%ebx
    3bc8:	0f 84 9a 02 00 00    	je     3e68 <usb_device_create_match_ids_from_device_descriptor+0x428>
    3bce:	c7 04 24 10 00 00 00 	movl   $0x10,(%esp)
    3bd5:	e8 c6 90 01 00       	call   1cca0 <malloc>
    3bda:	c7 44 24 08 10 00 00 	movl   $0x10,0x8(%esp)
    3be1:	00 
    3be2:	89 c6                	mov    %eax,%esi
    3be4:	c7 44 24 04 00 00 00 	movl   $0x0,0x4(%esp)
    3beb:	00 
    3bec:	89 04 24             	mov    %eax,(%esp)
    3bef:	e8 cc ba 00 00       	call   f6c0 <memset>
    3bf4:	85 f6                	test   %esi,%esi
    3bf6:	0f 84 54 02 00 00    	je     3e50 <usb_device_create_match_ids_from_device_descriptor+0x410>
    3bfc:	8b 53 04             	mov    0x4(%ebx),%edx
    3bff:	89 7e 08             	mov    %edi,0x8(%esi)
    3c02:	c7 46 0c 32 00 00 00 	movl   $0x32,0xc(%esi)
    3c09:	39 d3                	cmp    %edx,%ebx
    3c0b:	75 16                	jne    3c23 <usb_device_create_match_ids_from_device_descriptor+0x1e3>
    3c0d:	e9 e3 fe ff ff       	jmp    3af5 <usb_device_create_match_ids_from_device_descriptor+0xb5>
    3c12:	8d b6 00 00 00 00    	lea    0x0(%esi),%esi
    3c18:	8b 52 04             	mov    0x4(%edx),%edx
    3c1b:	39 d3                	cmp    %edx,%ebx
    3c1d:	0f 84 d2 fe ff ff    	je     3af5 <usb_device_create_match_ids_from_device_descriptor+0xb5>
    3c23:	83 7a 0c 31          	cmpl   $0x31,0xc(%edx)
    3c27:	77 ef                	ja     3c18 <usb_device_create_match_ids_from_device_descriptor+0x1d8>
    3c29:	e9 c7 fe ff ff       	jmp    3af5 <usb_device_create_match_ids_from_device_descriptor+0xb5>
    3c2e:	66 90                	xchg   %ax,%ax
    3c30:	0f 84 5d ff ff ff    	je     3b93 <usb_device_create_match_ids_from_device_descriptor+0x153>
    3c36:	8b 55 e4             	mov    -0x1c(%ebp),%edx
    3c39:	89 45 c0             	mov    %eax,-0x40(%ebp)
    3c3c:	89 14 24             	mov    %edx,(%esp)
    3c3f:	e8 6c 91 01 00       	call   1cdb0 <free>
    3c44:	8b 45 c0             	mov    -0x40(%ebp),%eax
    3c47:	83 c4 5c             	add    $0x5c,%esp
    3c4a:	5b                   	pop    %ebx
    3c4b:	5e                   	pop    %esi
    3c4c:	5f                   	pop    %edi
    3c4d:	5d                   	pop    %ebp
    3c4e:	c3                   	ret    
    3c4f:	90                   	nop
    3c50:	0f 84 ad fe ff ff    	je     3b03 <usb_device_create_match_ids_from_device_descriptor+0xc3>
    3c56:	8b 55 e0             	mov    -0x20(%ebp),%edx
    3c59:	89 45 c0             	mov    %eax,-0x40(%ebp)
    3c5c:	89 14 24             	mov    %edx,(%esp)
    3c5f:	e8 4c 91 01 00       	call   1cdb0 <free>
    3c64:	8b 45 c0             	mov    -0x40(%ebp),%eax
    3c67:	e9 29 ff ff ff       	jmp    3b95 <usb_device_create_match_ids_from_device_descriptor+0x155>
    3c6c:	8d 74 26 00          	lea    0x0(%esi,%eiz,1),%esi
    3c70:	0f 84 8d fe ff ff    	je     3b03 <usb_device_create_match_ids_from_device_descriptor+0xc3>
    3c76:	8b 55 dc             	mov    -0x24(%ebp),%edx
    3c79:	89 45 c0             	mov    %eax,-0x40(%ebp)
    3c7c:	89 14 24             	mov    %edx,(%esp)
    3c7f:	e8 2c 91 01 00       	call   1cdb0 <free>
    3c84:	8b 45 c0             	mov    -0x40(%ebp),%eax
    3c87:	e9 09 ff ff ff       	jmp    3b95 <usb_device_create_match_ids_from_device_descriptor+0x155>
    3c8c:	8d 74 26 00          	lea    0x0(%esi,%eiz,1),%esi
    3c90:	31 d2                	xor    %edx,%edx
    3c92:	25 ff ff 00 00       	and    $0xffff,%eax
    3c97:	8a 56 0c             	mov    0xc(%esi),%dl
    3c9a:	c7 45 d4 00 00 00 00 	movl   $0x0,-0x2c(%ebp)
    3ca1:	89 54 24 14          	mov    %edx,0x14(%esp)
    3ca5:	66 8b 4e 0c          	mov    0xc(%esi),%cx
    3ca9:	0f b6 d5             	movzbl %ch,%edx
    3cac:	89 54 24 10          	mov    %edx,0x10(%esp)
    3cb0:	66 8b 56 0a          	mov    0xa(%esi),%dx
    3cb4:	89 44 24 08          	mov    %eax,0x8(%esp)
    3cb8:	81 e2 ff ff 00 00    	and    $0xffff,%edx
    3cbe:	8d 45 d4             	lea    -0x2c(%ebp),%eax
    3cc1:	89 54 24 0c          	mov    %edx,0xc(%esp)
    3cc5:	c7 44 24 04 d4 c8 02 	movl   $0x2c8d4,0x4(%esp)
    3ccc:	00 
    3ccd:	89 04 24             	mov    %eax,(%esp)
    3cd0:	e8 3b 17 01 00       	call   15410 <asprintf>
    3cd5:	83 f8 00             	cmp    $0x0,%eax
    3cd8:	0f 8e 22 01 00 00    	jle    3e00 <usb_device_create_match_ids_from_device_descriptor+0x3c0>
    3cde:	8b 55 d4             	mov    -0x2c(%ebp),%edx
    3ce1:	85 db                	test   %ebx,%ebx
    3ce3:	89 55 c4             	mov    %edx,-0x3c(%ebp)
    3ce6:	0f 84 7c 01 00 00    	je     3e68 <usb_device_create_match_ids_from_device_descriptor+0x428>
    3cec:	c7 04 24 10 00 00 00 	movl   $0x10,(%esp)
    3cf3:	e8 a8 8f 01 00       	call   1cca0 <malloc>
    3cf8:	c7 44 24 08 10 00 00 	movl   $0x10,0x8(%esp)
    3cff:	00 
    3d00:	89 c7                	mov    %eax,%edi
    3d02:	c7 44 24 04 00 00 00 	movl   $0x0,0x4(%esp)
    3d09:	00 
    3d0a:	89 04 24             	mov    %eax,(%esp)
    3d0d:	e8 ae b9 00 00       	call   f6c0 <memset>
    3d12:	85 ff                	test   %edi,%edi
    3d14:	0f 84 40 01 00 00    	je     3e5a <usb_device_create_match_ids_from_device_descriptor+0x41a>
    3d1a:	8b 4d c4             	mov    -0x3c(%ebp),%ecx
    3d1d:	8b 53 04             	mov    0x4(%ebx),%edx
    3d20:	89 4f 08             	mov    %ecx,0x8(%edi)
    3d23:	c7 47 0c 64 00 00 00 	movl   $0x64,0xc(%edi)
    3d2a:	39 da                	cmp    %ebx,%edx
    3d2c:	75 09                	jne    3d37 <usb_device_create_match_ids_from_device_descriptor+0x2f7>
    3d2e:	eb 0d                	jmp    3d3d <usb_device_create_match_ids_from_device_descriptor+0x2fd>
    3d30:	8b 52 04             	mov    0x4(%edx),%edx
    3d33:	39 da                	cmp    %ebx,%edx
    3d35:	74 06                	je     3d3d <usb_device_create_match_ids_from_device_descriptor+0x2fd>
    3d37:	83 7a 0c 63          	cmpl   $0x63,0xc(%edx)
    3d3b:	77 f3                	ja     3d30 <usb_device_create_match_ids_from_device_descriptor+0x2f0>
    3d3d:	8b 02                	mov    (%edx),%eax
    3d3f:	89 57 04             	mov    %edx,0x4(%edi)
    3d42:	89 07                	mov    %eax,(%edi)
    3d44:	8b 02                	mov    (%edx),%eax
    3d46:	89 3a                	mov    %edi,(%edx)
    3d48:	89 78 04             	mov    %edi,0x4(%eax)
    3d4b:	66 8b 46 0a          	mov    0xa(%esi),%ax
    3d4f:	c7 45 d8 00 00 00 00 	movl   $0x0,-0x28(%ebp)
    3d56:	25 ff ff 00 00       	and    $0xffff,%eax
    3d5b:	89 44 24 0c          	mov    %eax,0xc(%esp)
    3d5f:	66 8b 46 08          	mov    0x8(%esi),%ax
    3d63:	c7 44 24 04 04 c9 02 	movl   $0x2c904,0x4(%esp)
    3d6a:	00 
    3d6b:	25 ff ff 00 00       	and    $0xffff,%eax
    3d70:	89 44 24 08          	mov    %eax,0x8(%esp)
    3d74:	8d 45 d8             	lea    -0x28(%ebp),%eax
    3d77:	89 04 24             	mov    %eax,(%esp)
    3d7a:	e8 91 16 01 00       	call   15410 <asprintf>
    3d7f:	83 f8 00             	cmp    $0x0,%eax
    3d82:	0f 8e 98 00 00 00    	jle    3e20 <usb_device_create_match_ids_from_device_descriptor+0x3e0>
    3d88:	8b 55 d8             	mov    -0x28(%ebp),%edx
    3d8b:	85 db                	test   %ebx,%ebx
    3d8d:	0f 84 d5 00 00 00    	je     3e68 <usb_device_create_match_ids_from_device_descriptor+0x428>
    3d93:	c7 04 24 10 00 00 00 	movl   $0x10,(%esp)
    3d9a:	89 55 c0             	mov    %edx,-0x40(%ebp)
    3d9d:	e8 fe 8e 01 00       	call   1cca0 <malloc>
    3da2:	c7 44 24 08 10 00 00 	movl   $0x10,0x8(%esp)
    3da9:	00 
    3daa:	89 c7                	mov    %eax,%edi
    3dac:	c7 44 24 04 00 00 00 	movl   $0x0,0x4(%esp)
    3db3:	00 
    3db4:	89 04 24             	mov    %eax,(%esp)
    3db7:	e8 04 b9 00 00       	call   f6c0 <memset>
    3dbc:	85 ff                	test   %edi,%edi
    3dbe:	8b 55 c0             	mov    -0x40(%ebp),%edx
    3dc1:	0f 84 9a 00 00 00    	je     3e61 <usb_device_create_match_ids_from_device_descriptor+0x421>
    3dc7:	89 57 08             	mov    %edx,0x8(%edi)
    3dca:	8b 53 04             	mov    0x4(%ebx),%edx
    3dcd:	c7 47 0c 5a 00 00 00 	movl   $0x5a,0xc(%edi)
    3dd4:	39 da                	cmp    %ebx,%edx
    3dd6:	75 0f                	jne    3de7 <usb_device_create_match_ids_from_device_descriptor+0x3a7>
    3dd8:	eb 13                	jmp    3ded <usb_device_create_match_ids_from_device_descriptor+0x3ad>
    3dda:	8d b6 00 00 00 00    	lea    0x0(%esi),%esi
    3de0:	8b 52 04             	mov    0x4(%edx),%edx
    3de3:	39 da                	cmp    %ebx,%edx
    3de5:	74 06                	je     3ded <usb_device_create_match_ids_from_device_descriptor+0x3ad>
    3de7:	83 7a 0c 59          	cmpl   $0x59,0xc(%edx)
    3deb:	77 f3                	ja     3de0 <usb_device_create_match_ids_from_device_descriptor+0x3a0>
    3ded:	8b 02                	mov    (%edx),%eax
    3def:	89 57 04             	mov    %edx,0x4(%edi)
    3df2:	89 07                	mov    %eax,(%edi)
    3df4:	8b 02                	mov    (%edx),%eax
    3df6:	89 3a                	mov    %edi,(%edx)
    3df8:	89 78 04             	mov    %edi,0x4(%eax)
    3dfb:	e9 5c fc ff ff       	jmp    3a5c <usb_device_create_match_ids_from_device_descriptor+0x1c>
    3e00:	0f 84 45 ff ff ff    	je     3d4b <usb_device_create_match_ids_from_device_descriptor+0x30b>
    3e06:	8b 55 d4             	mov    -0x2c(%ebp),%edx
    3e09:	89 45 c0             	mov    %eax,-0x40(%ebp)
    3e0c:	89 14 24             	mov    %edx,(%esp)
    3e0f:	e8 9c 8f 01 00       	call   1cdb0 <free>
    3e14:	8b 45 c0             	mov    -0x40(%ebp),%eax
    3e17:	83 c4 5c             	add    $0x5c,%esp
    3e1a:	5b                   	pop    %ebx
    3e1b:	5e                   	pop    %esi
    3e1c:	5f                   	pop    %edi
    3e1d:	5d                   	pop    %ebp
    3e1e:	c3                   	ret    
    3e1f:	90                   	nop
    3e20:	0f 84 36 fc ff ff    	je     3a5c <usb_device_create_match_ids_from_device_descriptor+0x1c>
    3e26:	8b 55 d8             	mov    -0x28(%ebp),%edx
    3e29:	89 45 c0             	mov    %eax,-0x40(%ebp)
    3e2c:	89 14 24             	mov    %edx,(%esp)
    3e2f:	e8 7c 8f 01 00       	call   1cdb0 <free>
    3e34:	8b 45 c0             	mov    -0x40(%ebp),%eax
    3e37:	e9 59 fd ff ff       	jmp    3b95 <usb_device_create_match_ids_from_device_descriptor+0x155>
    3e3c:	b8 fe ff ff ff       	mov    $0xfffffffe,%eax
    3e41:	e9 f0 fd ff ff       	jmp    3c36 <usb_device_create_match_ids_from_device_descriptor+0x1f6>
    3e46:	b8 fe ff ff ff       	mov    $0xfffffffe,%eax
    3e4b:	e9 26 fe ff ff       	jmp    3c76 <usb_device_create_match_ids_from_device_descriptor+0x236>
    3e50:	b8 fe ff ff ff       	mov    $0xfffffffe,%eax
    3e55:	e9 fc fd ff ff       	jmp    3c56 <usb_device_create_match_ids_from_device_descriptor+0x216>
    3e5a:	b8 fe ff ff ff       	mov    $0xfffffffe,%eax
    3e5f:	eb a5                	jmp    3e06 <usb_device_create_match_ids_from_device_descriptor+0x3c6>
    3e61:	b8 fe ff ff ff       	mov    $0xfffffffe,%eax
    3e66:	eb be                	jmp    3e26 <usb_device_create_match_ids_from_device_descriptor+0x3e6>
    3e68:	c7 44 24 08 4d 00 00 	movl   $0x4d,0x8(%esp)
    3e6f:	00 
    3e70:	c7 44 24 04 70 c5 02 	movl   $0x2c570,0x4(%esp)
    3e77:	00 
    3e78:	c7 04 24 c0 c5 02 00 	movl   $0x2c5c0,(%esp)
    3e7f:	e8 7c 36 02 00       	call   27500 <assert_abort>
    3e84:	8d b6 00 00 00 00    	lea    0x0(%esi),%esi
    3e8a:	8d bf 00 00 00 00    	lea    0x0(%edi),%edi

00003e90 <usb_device_create_match_ids>:
    3e90:	55                   	push   %ebp
    3e91:	89 e5                	mov    %esp,%ebp
    3e93:	53                   	push   %ebx
    3e94:	83 ec 34             	sub    $0x34,%esp
    3e97:	8b 45 08             	mov    0x8(%ebp),%eax
    3e9a:	85 c0                	test   %eax,%eax
    3e9c:	74 28                	je     3ec6 <usb_device_create_match_ids+0x36>
    3e9e:	8d 5d e6             	lea    -0x1a(%ebp),%ebx
    3ea1:	89 04 24             	mov    %eax,(%esp)
    3ea4:	89 5c 24 04          	mov    %ebx,0x4(%esp)
    3ea8:	e8 a3 07 00 00       	call   4650 <usb_request_get_device_descriptor>
    3ead:	85 c0                	test   %eax,%eax
    3eaf:	75 0f                	jne    3ec0 <usb_device_create_match_ids+0x30>
    3eb1:	8b 45 0c             	mov    0xc(%ebp),%eax
    3eb4:	89 1c 24             	mov    %ebx,(%esp)
    3eb7:	89 44 24 04          	mov    %eax,0x4(%esp)
    3ebb:	e8 80 fb ff ff       	call   3a40 <usb_device_create_match_ids_from_device_descriptor>
    3ec0:	83 c4 34             	add    $0x34,%esp
    3ec3:	5b                   	pop    %ebx
    3ec4:	5d                   	pop    %ebp
    3ec5:	c3                   	ret    
    3ec6:	c7 44 24 08 1e 01 00 	movl   $0x11e,0x8(%esp)
    3ecd:	00 
    3ece:	c7 44 24 04 70 c5 02 	movl   $0x2c570,0x4(%esp)
    3ed5:	00 
    3ed6:	c7 04 24 ea c5 02 00 	movl   $0x2c5ea,(%esp)
    3edd:	e8 1e 36 02 00       	call   27500 <assert_abort>
    3ee2:	8d b4 26 00 00 00 00 	lea    0x0(%esi,%eiz,1),%esi
    3ee9:	8d bc 27 00 00 00 00 	lea    0x0(%edi,%eiz,1),%edi

00003ef0 <usb_device_register_child_in_devman>:
    3ef0:	55                   	push   %ebp
    3ef1:	89 e5                	mov    %esp,%ebp
    3ef3:	57                   	push   %edi
    3ef4:	56                   	push   %esi
    3ef5:	53                   	push   %ebx
    3ef6:	83 ec 6c             	sub    $0x6c,%esp
    3ef9:	8b 5d 18             	mov    0x18(%ebp),%ebx
    3efc:	8b 75 08             	mov    0x8(%ebp),%esi
    3eff:	8b 7d 14             	mov    0x14(%ebp),%edi
    3f02:	85 db                	test   %ebx,%ebx
    3f04:	0f 84 4e 02 00 00    	je     4158 <usb_device_register_child_in_devman+0x268>
    3f0a:	85 f6                	test   %esi,%esi
    3f0c:	0f 84 46 02 00 00    	je     4158 <usb_device_register_child_in_devman+0x268>
    3f12:	85 ff                	test   %edi,%edi
    3f14:	0f 85 c6 00 00 00    	jne    3fe0 <usb_device_register_child_in_devman+0xf0>
    3f1a:	b8 01 00 00 00       	mov    $0x1,%eax
    3f1f:	f0 0f c1 05 24 00 03 	lock xadd %eax,0x30024
    3f26:	00 
    3f27:	8b 16                	mov    (%esi),%edx
    3f29:	40                   	inc    %eax
    3f2a:	8d 5d ca             	lea    -0x36(%ebp),%ebx
    3f2d:	0f bf 52 04          	movswl 0x4(%edx),%edx
    3f31:	89 44 24 0c          	mov    %eax,0xc(%esp)
    3f35:	89 54 24 10          	mov    %edx,0x10(%esp)
    3f39:	c7 44 24 08 f4 c5 02 	movl   $0x2c5f4,0x8(%esp)
    3f40:	00 
    3f41:	c7 44 24 04 0c 00 00 	movl   $0xc,0x4(%esp)
    3f48:	00 
    3f49:	89 1c 24             	mov    %ebx,(%esp)
    3f4c:	e8 6f 41 01 00       	call   180c0 <snprintf>
    3f51:	85 c0                	test   %eax,%eax
    3f53:	78 7f                	js     3fd4 <usb_device_register_child_in_devman+0xe4>
    3f55:	8b 45 0c             	mov    0xc(%ebp),%eax
    3f58:	89 5c 24 08          	mov    %ebx,0x8(%esp)
    3f5c:	c7 44 24 04 01 00 00 	movl   $0x1,0x4(%esp)
    3f63:	00 
    3f64:	89 04 24             	mov    %eax,(%esp)
    3f67:	e8 04 41 00 00       	call   8070 <ddf_fun_create>
    3f6c:	89 c3                	mov    %eax,%ebx
    3f6e:	85 c0                	test   %eax,%eax
    3f70:	0f 84 9a 00 00 00    	je     4010 <usb_device_register_child_in_devman+0x120>
    3f76:	8b 55 10             	mov    0x10(%ebp),%edx
    3f79:	85 d2                	test   %edx,%edx
    3f7b:	0f 84 bf 01 00 00    	je     4140 <usb_device_register_child_in_devman+0x250>
    3f81:	8b 55 10             	mov    0x10(%ebp),%edx
    3f84:	89 04 24             	mov    %eax,(%esp)
    3f87:	89 54 24 04          	mov    %edx,0x4(%esp)
    3f8b:	e8 70 46 00 00       	call   8600 <ddf_fun_set_ops>
    3f90:	89 7c 24 04          	mov    %edi,0x4(%esp)
    3f94:	89 1c 24             	mov    %ebx,(%esp)
    3f97:	e8 94 3f 00 00       	call   7f30 <ddf_fun_data_implant>
    3f9c:	85 ff                	test   %edi,%edi
    3f9e:	0f 84 74 01 00 00    	je     4118 <usb_device_register_child_in_devman+0x228>
    3fa4:	8d 55 d6             	lea    -0x2a(%ebp),%edx
    3fa7:	8d 7d c0             	lea    -0x40(%ebp),%edi
    3faa:	89 54 24 04          	mov    %edx,0x4(%esp)
    3fae:	89 34 24             	mov    %esi,(%esp)
    3fb1:	89 55 b4             	mov    %edx,-0x4c(%ebp)
    3fb4:	89 7d c0             	mov    %edi,-0x40(%ebp)
    3fb7:	89 7d c4             	mov    %edi,-0x3c(%ebp)
    3fba:	e8 91 06 00 00       	call   4650 <usb_request_get_device_descriptor>
    3fbf:	8b 55 b4             	mov    -0x4c(%ebp),%edx
    3fc2:	85 c0                	test   %eax,%eax
    3fc4:	74 52                	je     4018 <usb_device_register_child_in_devman+0x128>
    3fc6:	89 1c 24             	mov    %ebx,(%esp)
    3fc9:	89 45 b4             	mov    %eax,-0x4c(%ebp)
    3fcc:	e8 1f 42 00 00       	call   81f0 <ddf_fun_destroy>
    3fd1:	8b 45 b4             	mov    -0x4c(%ebp),%eax
    3fd4:	83 c4 6c             	add    $0x6c,%esp
    3fd7:	5b                   	pop    %ebx
    3fd8:	5e                   	pop    %esi
    3fd9:	5f                   	pop    %edi
    3fda:	5d                   	pop    %ebp
    3fdb:	c3                   	ret    
    3fdc:	8d 74 26 00          	lea    0x0(%esi,%eiz,1),%esi
    3fe0:	8b 4d 10             	mov    0x10(%ebp),%ecx
    3fe3:	85 c9                	test   %ecx,%ecx
    3fe5:	0f 85 2f ff ff ff    	jne    3f1a <usb_device_register_child_in_devman+0x2a>
    3feb:	c7 44 24 08 28 c9 02 	movl   $0x2c928,0x8(%esp)
    3ff2:	00 
    3ff3:	c7 44 24 04 02 00 00 	movl   $0x2,0x4(%esp)
    3ffa:	00 
    3ffb:	c7 04 24 ff ff ff ff 	movl   $0xffffffff,(%esp)
    4002:	e8 f9 3b 01 00       	call   17c00 <log_msg>
    4007:	e9 0e ff ff ff       	jmp    3f1a <usb_device_register_child_in_devman+0x2a>
    400c:	8d 74 26 00          	lea    0x0(%esi,%eiz,1),%esi
    4010:	b8 fe ff ff ff       	mov    $0xfffffffe,%eax
    4015:	eb bd                	jmp    3fd4 <usb_device_register_child_in_devman+0xe4>
    4017:	90                   	nop
    4018:	89 7c 24 04          	mov    %edi,0x4(%esp)
    401c:	89 14 24             	mov    %edx,(%esp)
    401f:	e8 1c fa ff ff       	call   3a40 <usb_device_create_match_ids_from_device_descriptor>
    4024:	85 c0                	test   %eax,%eax
    4026:	75 9e                	jne    3fc6 <usb_device_register_child_in_devman+0xd6>
    4028:	8b 75 c4             	mov    -0x3c(%ebp),%esi
    402b:	39 fe                	cmp    %edi,%esi
    402d:	75 14                	jne    4043 <usb_device_register_child_in_devman+0x153>
    402f:	e9 c3 00 00 00       	jmp    40f7 <usb_device_register_child_in_devman+0x207>
    4034:	8d 74 26 00          	lea    0x0(%esi,%eiz,1),%esi
    4038:	8b 76 04             	mov    0x4(%esi),%esi
    403b:	39 fe                	cmp    %edi,%esi
    403d:	0f 84 ad 00 00 00    	je     40f0 <usb_device_register_child_in_devman+0x200>
    4043:	8b 46 0c             	mov    0xc(%esi),%eax
    4046:	89 44 24 08          	mov    %eax,0x8(%esp)
    404a:	8b 46 08             	mov    0x8(%esi),%eax
    404d:	89 1c 24             	mov    %ebx,(%esp)
    4050:	89 44 24 04          	mov    %eax,0x4(%esp)
    4054:	e8 d7 44 00 00       	call   8530 <ddf_fun_add_match_id>
    4059:	85 c0                	test   %eax,%eax
    405b:	74 db                	je     4038 <usb_device_register_child_in_devman+0x148>
    405d:	8b 75 c4             	mov    -0x3c(%ebp),%esi
    4060:	39 fe                	cmp    %edi,%esi
    4062:	0f 84 5e ff ff ff    	je     3fc6 <usb_device_register_child_in_devman+0xd6>
    4068:	8b 0e                	mov    (%esi),%ecx
    406a:	85 c9                	test   %ecx,%ecx
    406c:	74 0e                	je     407c <usb_device_register_child_in_devman+0x18c>
    406e:	8b 56 04             	mov    0x4(%esi),%edx
    4071:	85 d2                	test   %edx,%edx
    4073:	74 07                	je     407c <usb_device_register_child_in_devman+0x18c>
    4075:	89 0a                	mov    %ecx,(%edx)
    4077:	8b 0e                	mov    (%esi),%ecx
    4079:	89 51 04             	mov    %edx,0x4(%ecx)
    407c:	8b 56 08             	mov    0x8(%esi),%edx
    407f:	c7 06 00 00 00 00    	movl   $0x0,(%esi)
    4085:	c7 46 04 00 00 00 00 	movl   $0x0,0x4(%esi)
    408c:	85 d2                	test   %edx,%edx
    408e:	74 0e                	je     409e <usb_device_register_child_in_devman+0x1ae>
    4090:	89 14 24             	mov    %edx,(%esp)
    4093:	89 45 b4             	mov    %eax,-0x4c(%ebp)
    4096:	e8 15 8d 01 00       	call   1cdb0 <free>
    409b:	8b 45 b4             	mov    -0x4c(%ebp),%eax
    409e:	89 34 24             	mov    %esi,(%esp)
    40a1:	89 45 b4             	mov    %eax,-0x4c(%ebp)
    40a4:	e8 07 8d 01 00       	call   1cdb0 <free>
    40a9:	8b 75 c4             	mov    -0x3c(%ebp),%esi
    40ac:	39 fe                	cmp    %edi,%esi
    40ae:	8b 45 b4             	mov    -0x4c(%ebp),%eax
    40b1:	75 b5                	jne    4068 <usb_device_register_child_in_devman+0x178>
    40b3:	e9 0e ff ff ff       	jmp    3fc6 <usb_device_register_child_in_devman+0xd6>
    40b8:	8b 16                	mov    (%esi),%edx
    40ba:	85 d2                	test   %edx,%edx
    40bc:	74 0e                	je     40cc <usb_device_register_child_in_devman+0x1dc>
    40be:	8b 46 04             	mov    0x4(%esi),%eax
    40c1:	85 c0                	test   %eax,%eax
    40c3:	74 07                	je     40cc <usb_device_register_child_in_devman+0x1dc>
    40c5:	89 10                	mov    %edx,(%eax)
    40c7:	8b 16                	mov    (%esi),%edx
    40c9:	89 42 04             	mov    %eax,0x4(%edx)
    40cc:	8b 46 08             	mov    0x8(%esi),%eax
    40cf:	c7 06 00 00 00 00    	movl   $0x0,(%esi)
    40d5:	c7 46 04 00 00 00 00 	movl   $0x0,0x4(%esi)
    40dc:	85 c0                	test   %eax,%eax
    40de:	74 08                	je     40e8 <usb_device_register_child_in_devman+0x1f8>
    40e0:	89 04 24             	mov    %eax,(%esp)
    40e3:	e8 c8 8c 01 00       	call   1cdb0 <free>
    40e8:	89 34 24             	mov    %esi,(%esp)
    40eb:	e8 c0 8c 01 00       	call   1cdb0 <free>
    40f0:	8b 75 c4             	mov    -0x3c(%ebp),%esi
    40f3:	39 fe                	cmp    %edi,%esi
    40f5:	75 c1                	jne    40b8 <usb_device_register_child_in_devman+0x1c8>
    40f7:	89 1c 24             	mov    %ebx,(%esp)
    40fa:	e8 01 42 00 00       	call   8300 <ddf_fun_bind>
    40ff:	85 c0                	test   %eax,%eax
    4101:	0f 85 bf fe ff ff    	jne    3fc6 <usb_device_register_child_in_devman+0xd6>
    4107:	8b 55 18             	mov    0x18(%ebp),%edx
    410a:	89 1a                	mov    %ebx,(%edx)
    410c:	e9 c3 fe ff ff       	jmp    3fd4 <usb_device_register_child_in_devman+0xe4>
    4111:	8d b4 26 00 00 00 00 	lea    0x0(%esi,%eiz,1),%esi
    4118:	c7 44 24 04 08 00 00 	movl   $0x8,0x4(%esp)
    411f:	00 
    4120:	89 1c 24             	mov    %ebx,(%esp)
    4123:	e8 38 40 00 00       	call   8160 <ddf_fun_data_alloc>
    4128:	85 c0                	test   %eax,%eax
    412a:	74 36                	je     4162 <usb_device_register_child_in_devman+0x272>
    412c:	8b 16                	mov    (%esi),%edx
    412e:	8b 52 04             	mov    0x4(%edx),%edx
    4131:	89 58 04             	mov    %ebx,0x4(%eax)
    4134:	66 89 10             	mov    %dx,(%eax)
    4137:	e9 68 fe ff ff       	jmp    3fa4 <usb_device_register_child_in_devman+0xb4>
    413c:	8d 74 26 00          	lea    0x0(%esi,%eiz,1),%esi
    4140:	c7 44 24 04 60 fb 02 	movl   $0x2fb60,0x4(%esp)
    4147:	00 
    4148:	89 04 24             	mov    %eax,(%esp)
    414b:	e8 b0 44 00 00       	call   8600 <ddf_fun_set_ops>
    4150:	e9 3b fe ff ff       	jmp    3f90 <usb_device_register_child_in_devman+0xa0>
    4155:	8d 76 00             	lea    0x0(%esi),%esi
    4158:	b8 f2 ff ff ff       	mov    $0xfffffff2,%eax
    415d:	e9 72 fe ff ff       	jmp    3fd4 <usb_device_register_child_in_devman+0xe4>
    4162:	b8 fe ff ff ff       	mov    $0xfffffffe,%eax
    4167:	e9 5a fe ff ff       	jmp    3fc6 <usb_device_register_child_in_devman+0xd6>
    416c:	66 90                	xchg   %ax,%ax
    416e:	66 90                	xchg   %ax,%ax

00004170 <usb_control_request_set>:
    4170:	55                   	push   %ebp
    4171:	89 e5                	mov    %esp,%ebp
    4173:	57                   	push   %edi
    4174:	56                   	push   %esi
    4175:	53                   	push   %ebx
    4176:	83 ec 3c             	sub    $0x3c,%esp
    4179:	8b 7d 08             	mov    0x8(%ebp),%edi
    417c:	8b 45 24             	mov    0x24(%ebp),%eax
    417f:	8a 4d 14             	mov    0x14(%ebp),%cl
    4182:	8b 75 18             	mov    0x18(%ebp),%esi
    4185:	8b 5d 1c             	mov    0x1c(%ebp),%ebx
    4188:	85 ff                	test   %edi,%edi
    418a:	74 5b                	je     41e7 <usb_control_request_set+0x77>
    418c:	3d ff ff 00 00       	cmp    $0xffff,%eax
    4191:	77 5d                	ja     41f0 <usb_control_request_set+0x80>
    4193:	85 c0                	test   %eax,%eax
    4195:	75 49                	jne    41e0 <usb_control_request_set+0x70>
    4197:	8a 55 0c             	mov    0xc(%ebp),%dl
    419a:	66 89 45 e6          	mov    %ax,-0x1a(%ebp)
    419e:	c1 e2 05             	shl    $0x5,%edx
    41a1:	89 44 24 10          	mov    %eax,0x10(%esp)
    41a5:	8b 45 20             	mov    0x20(%ebp),%eax
    41a8:	0b 55 10             	or     0x10(%ebp),%edx
    41ab:	89 44 24 0c          	mov    %eax,0xc(%esp)
    41af:	8d 45 e0             	lea    -0x20(%ebp),%eax
    41b2:	c7 44 24 08 08 00 00 	movl   $0x8,0x8(%esp)
    41b9:	00 
    41ba:	89 44 24 04          	mov    %eax,0x4(%esp)
    41be:	89 3c 24             	mov    %edi,(%esp)
    41c1:	88 55 e0             	mov    %dl,-0x20(%ebp)
    41c4:	88 4d e1             	mov    %cl,-0x1f(%ebp)
    41c7:	66 89 75 e2          	mov    %si,-0x1e(%ebp)
    41cb:	66 89 5d e4          	mov    %bx,-0x1c(%ebp)
    41cf:	e8 4c e4 ff ff       	call   2620 <usb_pipe_control_write>
    41d4:	83 c4 3c             	add    $0x3c,%esp
    41d7:	5b                   	pop    %ebx
    41d8:	5e                   	pop    %esi
    41d9:	5f                   	pop    %edi
    41da:	5d                   	pop    %ebp
    41db:	c3                   	ret    
    41dc:	8d 74 26 00          	lea    0x0(%esi,%eiz,1),%esi
    41e0:	8b 55 20             	mov    0x20(%ebp),%edx
    41e3:	85 d2                	test   %edx,%edx
    41e5:	75 b0                	jne    4197 <usb_control_request_set+0x27>
    41e7:	b8 f6 ff ff ff       	mov    $0xfffffff6,%eax
    41ec:	eb e6                	jmp    41d4 <usb_control_request_set+0x64>
    41ee:	66 90                	xchg   %ax,%ax
    41f0:	b8 f9 fe ff ff       	mov    $0xfffffef9,%eax
    41f5:	eb dd                	jmp    41d4 <usb_control_request_set+0x64>
    41f7:	89 f6                	mov    %esi,%esi
    41f9:	8d bc 27 00 00 00 00 	lea    0x0(%edi,%eiz,1),%edi

00004200 <usb_control_request_get>:
    4200:	55                   	push   %ebp
    4201:	89 e5                	mov    %esp,%ebp
    4203:	57                   	push   %edi
    4204:	56                   	push   %esi
    4205:	53                   	push   %ebx
    4206:	83 ec 3c             	sub    $0x3c,%esp
    4209:	8b 7d 08             	mov    0x8(%ebp),%edi
    420c:	8b 55 24             	mov    0x24(%ebp),%edx
    420f:	8a 4d 14             	mov    0x14(%ebp),%cl
    4212:	8b 75 18             	mov    0x18(%ebp),%esi
    4215:	8b 5d 1c             	mov    0x1c(%ebp),%ebx
    4218:	85 ff                	test   %edi,%edi
    421a:	74 63                	je     427f <usb_control_request_get+0x7f>
    421c:	81 fa ff ff 00 00    	cmp    $0xffff,%edx
    4222:	77 64                	ja     4288 <usb_control_request_get+0x88>
    4224:	85 d2                	test   %edx,%edx
    4226:	75 50                	jne    4278 <usb_control_request_get+0x78>
    4228:	8a 45 0c             	mov    0xc(%ebp),%al
    422b:	89 54 24 10          	mov    %edx,0x10(%esp)
    422f:	c1 e0 05             	shl    $0x5,%eax
    4232:	c7 44 24 08 08 00 00 	movl   $0x8,0x8(%esp)
    4239:	00 
    423a:	0b 45 10             	or     0x10(%ebp),%eax
    423d:	89 3c 24             	mov    %edi,(%esp)
    4240:	83 c8 80             	or     $0xffffff80,%eax
    4243:	88 4d e1             	mov    %cl,-0x1f(%ebp)
    4246:	88 45 e0             	mov    %al,-0x20(%ebp)
    4249:	8b 45 28             	mov    0x28(%ebp),%eax
    424c:	89 44 24 14          	mov    %eax,0x14(%esp)
    4250:	8b 45 20             	mov    0x20(%ebp),%eax
    4253:	89 44 24 0c          	mov    %eax,0xc(%esp)
    4257:	8d 45 e0             	lea    -0x20(%ebp),%eax
    425a:	89 44 24 04          	mov    %eax,0x4(%esp)
    425e:	66 89 75 e2          	mov    %si,-0x1e(%ebp)
    4262:	66 89 5d e4          	mov    %bx,-0x1c(%ebp)
    4266:	66 89 55 e6          	mov    %dx,-0x1a(%ebp)
    426a:	e8 51 e2 ff ff       	call   24c0 <usb_pipe_control_read>
    426f:	83 c4 3c             	add    $0x3c,%esp
    4272:	5b                   	pop    %ebx
    4273:	5e                   	pop    %esi
    4274:	5f                   	pop    %edi
    4275:	5d                   	pop    %ebp
    4276:	c3                   	ret    
    4277:	90                   	nop
    4278:	8b 45 20             	mov    0x20(%ebp),%eax
    427b:	85 c0                	test   %eax,%eax
    427d:	75 a9                	jne    4228 <usb_control_request_get+0x28>
    427f:	b8 f6 ff ff ff       	mov    $0xfffffff6,%eax
    4284:	eb e9                	jmp    426f <usb_control_request_get+0x6f>
    4286:	66 90                	xchg   %ax,%ax
    4288:	b8 f9 fe ff ff       	mov    $0xfffffef9,%eax
    428d:	eb e0                	jmp    426f <usb_control_request_get+0x6f>
    428f:	90                   	nop

00004290 <usb_request_get_status>:
    4290:	55                   	push   %ebp
    4291:	89 e5                	mov    %esp,%ebp
    4293:	53                   	push   %ebx
    4294:	83 ec 34             	sub    $0x34,%esp
    4297:	8b 45 10             	mov    0x10(%ebp),%eax
    429a:	8b 55 08             	mov    0x8(%ebp),%edx
    429d:	66 85 c0             	test   %ax,%ax
    42a0:	8b 5d 14             	mov    0x14(%ebp),%ebx
    42a3:	75 73                	jne    4318 <usb_request_get_status+0x88>
    42a5:	85 db                	test   %ebx,%ebx
    42a7:	74 7f                	je     4328 <usb_request_get_status+0x98>
    42a9:	85 d2                	test   %edx,%edx
    42ab:	74 7b                	je     4328 <usb_request_get_status+0x98>
    42ad:	66 89 45 f4          	mov    %ax,-0xc(%ebp)
    42b1:	8d 45 ec             	lea    -0x14(%ebp),%eax
    42b4:	89 44 24 14          	mov    %eax,0x14(%esp)
    42b8:	8d 45 e8             	lea    -0x18(%ebp),%eax
    42bb:	8b 4d 0c             	mov    0xc(%ebp),%ecx
    42be:	89 44 24 0c          	mov    %eax,0xc(%esp)
    42c2:	8d 45 f0             	lea    -0x10(%ebp),%eax
    42c5:	80 c9 80             	or     $0x80,%cl
    42c8:	c7 44 24 10 02 00 00 	movl   $0x2,0x10(%esp)
    42cf:	00 
    42d0:	c7 44 24 08 08 00 00 	movl   $0x8,0x8(%esp)
    42d7:	00 
    42d8:	89 44 24 04          	mov    %eax,0x4(%esp)
    42dc:	89 14 24             	mov    %edx,(%esp)
    42df:	88 4d f0             	mov    %cl,-0x10(%ebp)
    42e2:	c6 45 f1 00          	movb   $0x0,-0xf(%ebp)
    42e6:	66 c7 45 f2 00 00    	movw   $0x0,-0xe(%ebp)
    42ec:	66 c7 45 f6 02 00    	movw   $0x2,-0xa(%ebp)
    42f2:	e8 c9 e1 ff ff       	call   24c0 <usb_pipe_control_read>
    42f7:	85 c0                	test   %eax,%eax
    42f9:	75 0c                	jne    4307 <usb_request_get_status+0x77>
    42fb:	83 7d ec 02          	cmpl   $0x2,-0x14(%ebp)
    42ff:	75 0f                	jne    4310 <usb_request_get_status+0x80>
    4301:	8b 55 e8             	mov    -0x18(%ebp),%edx
    4304:	66 89 13             	mov    %dx,(%ebx)
    4307:	83 c4 34             	add    $0x34,%esp
    430a:	5b                   	pop    %ebx
    430b:	5d                   	pop    %ebp
    430c:	c3                   	ret    
    430d:	8d 76 00             	lea    0x0(%esi),%esi
    4310:	b8 fd ff ff ff       	mov    $0xfffffffd,%eax
    4315:	eb f0                	jmp    4307 <usb_request_get_status+0x77>
    4317:	90                   	nop
    4318:	8b 4d 0c             	mov    0xc(%ebp),%ecx
    431b:	85 c9                	test   %ecx,%ecx
    431d:	75 86                	jne    42a5 <usb_request_get_status+0x15>
    431f:	b8 f2 ff ff ff       	mov    $0xfffffff2,%eax
    4324:	eb e1                	jmp    4307 <usb_request_get_status+0x77>
    4326:	66 90                	xchg   %ax,%ax
    4328:	b8 f6 ff ff ff       	mov    $0xfffffff6,%eax
    432d:	eb d8                	jmp    4307 <usb_request_get_status+0x77>
    432f:	90                   	nop

00004330 <usb_request_clear_feature>:
    4330:	55                   	push   %ebp
    4331:	89 e5                	mov    %esp,%ebp
    4333:	53                   	push   %ebx
    4334:	83 ec 34             	sub    $0x34,%esp
    4337:	8b 45 0c             	mov    0xc(%ebp),%eax
    433a:	8b 55 08             	mov    0x8(%ebp),%edx
    433d:	8b 5d 14             	mov    0x14(%ebp),%ebx
    4340:	8b 4d 18             	mov    0x18(%ebp),%ecx
    4343:	85 c0                	test   %eax,%eax
    4345:	75 05                	jne    434c <usb_request_clear_feature+0x1c>
    4347:	66 85 c9             	test   %cx,%cx
    434a:	75 4c                	jne    4398 <usb_request_clear_feature+0x68>
    434c:	85 d2                	test   %edx,%edx
    434e:	74 55                	je     43a5 <usb_request_clear_feature+0x75>
    4350:	c1 e0 05             	shl    $0x5,%eax
    4353:	c7 44 24 10 00 00 00 	movl   $0x0,0x10(%esp)
    435a:	00 
    435b:	0b 45 10             	or     0x10(%ebp),%eax
    435e:	c7 44 24 0c 00 00 00 	movl   $0x0,0xc(%esp)
    4365:	00 
    4366:	88 45 f0             	mov    %al,-0x10(%ebp)
    4369:	8d 45 f0             	lea    -0x10(%ebp),%eax
    436c:	c7 44 24 08 08 00 00 	movl   $0x8,0x8(%esp)
    4373:	00 
    4374:	89 44 24 04          	mov    %eax,0x4(%esp)
    4378:	89 14 24             	mov    %edx,(%esp)
    437b:	c6 45 f1 01          	movb   $0x1,-0xf(%ebp)
    437f:	66 89 5d f2          	mov    %bx,-0xe(%ebp)
    4383:	66 89 4d f4          	mov    %cx,-0xc(%ebp)
    4387:	66 c7 45 f6 00 00    	movw   $0x0,-0xa(%ebp)
    438d:	e8 8e e2 ff ff       	call   2620 <usb_pipe_control_write>
    4392:	83 c4 34             	add    $0x34,%esp
    4395:	5b                   	pop    %ebx
    4396:	5d                   	pop    %ebp
    4397:	c3                   	ret    
    4398:	83 7d 10 00          	cmpl   $0x0,0x10(%ebp)
    439c:	75 ae                	jne    434c <usb_request_clear_feature+0x1c>
    439e:	b8 f2 ff ff ff       	mov    $0xfffffff2,%eax
    43a3:	eb ed                	jmp    4392 <usb_request_clear_feature+0x62>
    43a5:	b8 f6 ff ff ff       	mov    $0xfffffff6,%eax
    43aa:	eb e6                	jmp    4392 <usb_request_clear_feature+0x62>
    43ac:	8d 74 26 00          	lea    0x0(%esi,%eiz,1),%esi

000043b0 <usb_request_set_feature>:
    43b0:	55                   	push   %ebp
    43b1:	89 e5                	mov    %esp,%ebp
    43b3:	53                   	push   %ebx
    43b4:	83 ec 34             	sub    $0x34,%esp
    43b7:	8b 45 0c             	mov    0xc(%ebp),%eax
    43ba:	8b 55 08             	mov    0x8(%ebp),%edx
    43bd:	8b 5d 14             	mov    0x14(%ebp),%ebx
    43c0:	8b 4d 18             	mov    0x18(%ebp),%ecx
    43c3:	85 c0                	test   %eax,%eax
    43c5:	75 05                	jne    43cc <usb_request_set_feature+0x1c>
    43c7:	66 85 c9             	test   %cx,%cx
    43ca:	75 4c                	jne    4418 <usb_request_set_feature+0x68>
    43cc:	85 d2                	test   %edx,%edx
    43ce:	74 55                	je     4425 <usb_request_set_feature+0x75>
    43d0:	c1 e0 05             	shl    $0x5,%eax
    43d3:	c7 44 24 10 00 00 00 	movl   $0x0,0x10(%esp)
    43da:	00 
    43db:	0b 45 10             	or     0x10(%ebp),%eax
    43de:	c7 44 24 0c 00 00 00 	movl   $0x0,0xc(%esp)
    43e5:	00 
    43e6:	88 45 f0             	mov    %al,-0x10(%ebp)
    43e9:	8d 45 f0             	lea    -0x10(%ebp),%eax
    43ec:	c7 44 24 08 08 00 00 	movl   $0x8,0x8(%esp)
    43f3:	00 
    43f4:	89 44 24 04          	mov    %eax,0x4(%esp)
    43f8:	89 14 24             	mov    %edx,(%esp)
    43fb:	c6 45 f1 03          	movb   $0x3,-0xf(%ebp)
    43ff:	66 89 5d f2          	mov    %bx,-0xe(%ebp)
    4403:	66 89 4d f4          	mov    %cx,-0xc(%ebp)
    4407:	66 c7 45 f6 00 00    	movw   $0x0,-0xa(%ebp)
    440d:	e8 0e e2 ff ff       	call   2620 <usb_pipe_control_write>
    4412:	83 c4 34             	add    $0x34,%esp
    4415:	5b                   	pop    %ebx
    4416:	5d                   	pop    %ebp
    4417:	c3                   	ret    
    4418:	83 7d 10 00          	cmpl   $0x0,0x10(%ebp)
    441c:	75 ae                	jne    43cc <usb_request_set_feature+0x1c>
    441e:	b8 f2 ff ff ff       	mov    $0xfffffff2,%eax
    4423:	eb ed                	jmp    4412 <usb_request_set_feature+0x62>
    4425:	b8 f6 ff ff ff       	mov    $0xfffffff6,%eax
    442a:	eb e6                	jmp    4412 <usb_request_set_feature+0x62>
    442c:	8d 74 26 00          	lea    0x0(%esi,%eiz,1),%esi

00004430 <usb_request_get_descriptor>:
    4430:	55                   	push   %ebp
    4431:	89 e5                	mov    %esp,%ebp
    4433:	57                   	push   %edi
    4434:	56                   	push   %esi
    4435:	53                   	push   %ebx
    4436:	83 ec 3c             	sub    $0x3c,%esp
    4439:	8b 5d 20             	mov    0x20(%ebp),%ebx
    443c:	8b 75 08             	mov    0x8(%ebp),%esi
    443f:	8b 7d 1c             	mov    0x1c(%ebp),%edi
    4442:	8b 55 24             	mov    0x24(%ebp),%edx
    4445:	8a 4d 14             	mov    0x14(%ebp),%cl
    4448:	8a 45 18             	mov    0x18(%ebp),%al
    444b:	85 db                	test   %ebx,%ebx
    444d:	74 79                	je     44c8 <usb_request_get_descriptor+0x98>
    444f:	85 d2                	test   %edx,%edx
    4451:	74 65                	je     44b8 <usb_request_get_descriptor+0x88>
    4453:	c1 e1 08             	shl    $0x8,%ecx
    4456:	25 ff 00 00 00       	and    $0xff,%eax
    445b:	09 c1                	or     %eax,%ecx
    445d:	85 f6                	test   %esi,%esi
    445f:	74 67                	je     44c8 <usb_request_get_descriptor+0x98>
    4461:	81 fa ff ff 00 00    	cmp    $0xffff,%edx
    4467:	77 57                	ja     44c0 <usb_request_get_descriptor+0x90>
    4469:	8a 45 0c             	mov    0xc(%ebp),%al
    446c:	89 54 24 10          	mov    %edx,0x10(%esp)
    4470:	c1 e0 05             	shl    $0x5,%eax
    4473:	89 5c 24 0c          	mov    %ebx,0xc(%esp)
    4477:	0b 45 10             	or     0x10(%ebp),%eax
    447a:	c7 44 24 08 08 00 00 	movl   $0x8,0x8(%esp)
    4481:	00 
    4482:	83 c8 80             	or     $0xffffff80,%eax
    4485:	89 34 24             	mov    %esi,(%esp)
    4488:	88 45 e0             	mov    %al,-0x20(%ebp)
    448b:	8b 45 28             	mov    0x28(%ebp),%eax
    448e:	89 44 24 14          	mov    %eax,0x14(%esp)
    4492:	8d 45 e0             	lea    -0x20(%ebp),%eax
    4495:	89 44 24 04          	mov    %eax,0x4(%esp)
    4499:	c6 45 e1 06          	movb   $0x6,-0x1f(%ebp)
    449d:	66 89 4d e2          	mov    %cx,-0x1e(%ebp)
    44a1:	66 89 7d e4          	mov    %di,-0x1c(%ebp)
    44a5:	66 89 55 e6          	mov    %dx,-0x1a(%ebp)
    44a9:	e8 12 e0 ff ff       	call   24c0 <usb_pipe_control_read>
    44ae:	83 c4 3c             	add    $0x3c,%esp
    44b1:	5b                   	pop    %ebx
    44b2:	5e                   	pop    %esi
    44b3:	5f                   	pop    %edi
    44b4:	5d                   	pop    %ebp
    44b5:	c3                   	ret    
    44b6:	66 90                	xchg   %ax,%ax
    44b8:	b8 f2 ff ff ff       	mov    $0xfffffff2,%eax
    44bd:	eb ef                	jmp    44ae <usb_request_get_descriptor+0x7e>
    44bf:	90                   	nop
    44c0:	b8 f9 fe ff ff       	mov    $0xfffffef9,%eax
    44c5:	eb e7                	jmp    44ae <usb_request_get_descriptor+0x7e>
    44c7:	90                   	nop
    44c8:	b8 f6 ff ff ff       	mov    $0xfffffff6,%eax
    44cd:	eb df                	jmp    44ae <usb_request_get_descriptor+0x7e>
    44cf:	90                   	nop

000044d0 <usb_request_get_descriptor_alloc>:
    44d0:	55                   	push   %ebp
    44d1:	89 e5                	mov    %esp,%ebp
    44d3:	57                   	push   %edi
    44d4:	56                   	push   %esi
    44d5:	53                   	push   %ebx
    44d6:	83 ec 5c             	sub    $0x5c,%esp
    44d9:	8b 55 20             	mov    0x20(%ebp),%edx
    44dc:	8b 7d 1c             	mov    0x1c(%ebp),%edi
    44df:	8a 4d 14             	mov    0x14(%ebp),%cl
    44e2:	8a 45 18             	mov    0x18(%ebp),%al
    44e5:	85 d2                	test   %edx,%edx
    44e7:	0f 84 3b 01 00 00    	je     4628 <usb_request_get_descriptor_alloc+0x158>
    44ed:	89 ce                	mov    %ecx,%esi
    44ef:	25 ff 00 00 00       	and    $0xff,%eax
    44f4:	c1 e6 08             	shl    $0x8,%esi
    44f7:	09 c6                	or     %eax,%esi
    44f9:	8b 45 08             	mov    0x8(%ebp),%eax
    44fc:	85 c0                	test   %eax,%eax
    44fe:	0f 84 24 01 00 00    	je     4628 <usb_request_get_descriptor_alloc+0x158>
    4504:	8a 5d 0c             	mov    0xc(%ebp),%bl
    4507:	8b 45 10             	mov    0x10(%ebp),%eax
    450a:	c1 e3 05             	shl    $0x5,%ebx
    450d:	8b 4d 08             	mov    0x8(%ebp),%ecx
    4510:	09 c3                	or     %eax,%ebx
    4512:	8d 45 d4             	lea    -0x2c(%ebp),%eax
    4515:	89 44 24 14          	mov    %eax,0x14(%esp)
    4519:	8d 45 d0             	lea    -0x30(%ebp),%eax
    451c:	89 44 24 0c          	mov    %eax,0xc(%esp)
    4520:	8d 45 d8             	lea    -0x28(%ebp),%eax
    4523:	83 cb 80             	or     $0xffffff80,%ebx
    4526:	c7 44 24 10 01 00 00 	movl   $0x1,0x10(%esp)
    452d:	00 
    452e:	c7 44 24 08 08 00 00 	movl   $0x8,0x8(%esp)
    4535:	00 
    4536:	89 44 24 04          	mov    %eax,0x4(%esp)
    453a:	89 0c 24             	mov    %ecx,(%esp)
    453d:	88 5d d8             	mov    %bl,-0x28(%ebp)
    4540:	c6 45 d9 06          	movb   $0x6,-0x27(%ebp)
    4544:	66 89 75 da          	mov    %si,-0x26(%ebp)
    4548:	66 89 7d dc          	mov    %di,-0x24(%ebp)
    454c:	66 c7 45 de 01 00    	movw   $0x1,-0x22(%ebp)
    4552:	e8 69 df ff ff       	call   24c0 <usb_pipe_control_read>
    4557:	85 c0                	test   %eax,%eax
    4559:	0f 85 9a 00 00 00    	jne    45f9 <usb_request_get_descriptor_alloc+0x129>
    455f:	83 7d d4 01          	cmpl   $0x1,-0x2c(%ebp)
    4563:	0f 85 9f 00 00 00    	jne    4608 <usb_request_get_descriptor_alloc+0x138>
    4569:	8a 4d d0             	mov    -0x30(%ebp),%cl
    456c:	88 4d c3             	mov    %cl,-0x3d(%ebp)
    456f:	81 e1 ff 00 00 00    	and    $0xff,%ecx
    4575:	89 4d c4             	mov    %ecx,-0x3c(%ebp)
    4578:	85 c9                	test   %ecx,%ecx
    457a:	0f 84 88 00 00 00    	je     4608 <usb_request_get_descriptor_alloc+0x138>
    4580:	89 0c 24             	mov    %ecx,(%esp)
    4583:	e8 18 87 01 00       	call   1cca0 <malloc>
    4588:	89 c1                	mov    %eax,%ecx
    458a:	85 c0                	test   %eax,%eax
    458c:	0f 84 ac 00 00 00    	je     463e <usb_request_get_descriptor_alloc+0x16e>
    4592:	88 5d e0             	mov    %bl,-0x20(%ebp)
    4595:	31 c0                	xor    %eax,%eax
    4597:	8d 5d d4             	lea    -0x2c(%ebp),%ebx
    459a:	8a 45 c3             	mov    -0x3d(%ebp),%al
    459d:	89 5c 24 14          	mov    %ebx,0x14(%esp)
    45a1:	8b 5d c4             	mov    -0x3c(%ebp),%ebx
    45a4:	66 89 45 e6          	mov    %ax,-0x1a(%ebp)
    45a8:	89 5c 24 10          	mov    %ebx,0x10(%esp)
    45ac:	8d 45 e0             	lea    -0x20(%ebp),%eax
    45af:	8b 5d 08             	mov    0x8(%ebp),%ebx
    45b2:	89 4c 24 0c          	mov    %ecx,0xc(%esp)
    45b6:	c7 44 24 08 08 00 00 	movl   $0x8,0x8(%esp)
    45bd:	00 
    45be:	89 44 24 04          	mov    %eax,0x4(%esp)
    45c2:	89 1c 24             	mov    %ebx,(%esp)
    45c5:	89 4d bc             	mov    %ecx,-0x44(%ebp)
    45c8:	c6 45 e1 06          	movb   $0x6,-0x1f(%ebp)
    45cc:	66 89 75 e2          	mov    %si,-0x1e(%ebp)
    45d0:	66 89 7d e4          	mov    %di,-0x1c(%ebp)
    45d4:	e8 e7 de ff ff       	call   24c0 <usb_pipe_control_read>
    45d9:	8b 4d bc             	mov    -0x44(%ebp),%ecx
    45dc:	85 c0                	test   %eax,%eax
    45de:	75 38                	jne    4618 <usb_request_get_descriptor_alloc+0x148>
    45e0:	8b 55 d4             	mov    -0x2c(%ebp),%edx
    45e3:	3b 55 c4             	cmp    -0x3c(%ebp),%edx
    45e6:	75 47                	jne    462f <usb_request_get_descriptor_alloc+0x15f>
    45e8:	8b 5d 20             	mov    0x20(%ebp),%ebx
    45eb:	89 0b                	mov    %ecx,(%ebx)
    45ed:	8b 4d 24             	mov    0x24(%ebp),%ecx
    45f0:	85 c9                	test   %ecx,%ecx
    45f2:	74 05                	je     45f9 <usb_request_get_descriptor_alloc+0x129>
    45f4:	8b 4d 24             	mov    0x24(%ebp),%ecx
    45f7:	89 11                	mov    %edx,(%ecx)
    45f9:	83 c4 5c             	add    $0x5c,%esp
    45fc:	5b                   	pop    %ebx
    45fd:	5e                   	pop    %esi
    45fe:	5f                   	pop    %edi
    45ff:	5d                   	pop    %ebp
    4600:	c3                   	ret    
    4601:	8d b4 26 00 00 00 00 	lea    0x0(%esi,%eiz,1),%esi
    4608:	83 c4 5c             	add    $0x5c,%esp
    460b:	b8 d3 fe ff ff       	mov    $0xfffffed3,%eax
    4610:	5b                   	pop    %ebx
    4611:	5e                   	pop    %esi
    4612:	5f                   	pop    %edi
    4613:	5d                   	pop    %ebp
    4614:	c3                   	ret    
    4615:	8d 76 00             	lea    0x0(%esi),%esi
    4618:	89 0c 24             	mov    %ecx,(%esp)
    461b:	89 45 bc             	mov    %eax,-0x44(%ebp)
    461e:	e8 8d 87 01 00       	call   1cdb0 <free>
    4623:	8b 45 bc             	mov    -0x44(%ebp),%eax
    4626:	eb d1                	jmp    45f9 <usb_request_get_descriptor_alloc+0x129>
    4628:	b8 f6 ff ff ff       	mov    $0xfffffff6,%eax
    462d:	eb ca                	jmp    45f9 <usb_request_get_descriptor_alloc+0x129>
    462f:	89 0c 24             	mov    %ecx,(%esp)
    4632:	e8 79 87 01 00       	call   1cdb0 <free>
    4637:	b8 d3 fe ff ff       	mov    $0xfffffed3,%eax
    463c:	eb bb                	jmp    45f9 <usb_request_get_descriptor_alloc+0x129>
    463e:	b8 fe ff ff ff       	mov    $0xfffffffe,%eax
    4643:	eb b4                	jmp    45f9 <usb_request_get_descriptor_alloc+0x129>
    4645:	8d 74 26 00          	lea    0x0(%esi,%eiz,1),%esi
    4649:	8d bc 27 00 00 00 00 	lea    0x0(%edi,%eiz,1),%edi

00004650 <usb_request_get_device_descriptor>:
    4650:	55                   	push   %ebp
    4651:	89 e5                	mov    %esp,%ebp
    4653:	57                   	push   %edi
    4654:	56                   	push   %esi
    4655:	53                   	push   %ebx
    4656:	83 ec 4c             	sub    $0x4c,%esp
    4659:	8b 75 0c             	mov    0xc(%ebp),%esi
    465c:	8b 45 08             	mov    0x8(%ebp),%eax
    465f:	85 f6                	test   %esi,%esi
    4661:	0f 84 89 00 00 00    	je     46f0 <usb_request_get_device_descriptor+0xa0>
    4667:	c7 45 c8 00 00 00 00 	movl   $0x0,-0x38(%ebp)
    466e:	85 c0                	test   %eax,%eax
    4670:	74 7e                	je     46f0 <usb_request_get_device_descriptor+0xa0>
    4672:	8d 55 c8             	lea    -0x38(%ebp),%edx
    4675:	8d 7d d6             	lea    -0x2a(%ebp),%edi
    4678:	89 54 24 14          	mov    %edx,0x14(%esp)
    467c:	8d 55 ce             	lea    -0x32(%ebp),%edx
    467f:	c7 44 24 10 12 00 00 	movl   $0x12,0x10(%esp)
    4686:	00 
    4687:	89 7c 24 0c          	mov    %edi,0xc(%esp)
    468b:	c7 44 24 08 08 00 00 	movl   $0x8,0x8(%esp)
    4692:	00 
    4693:	89 54 24 04          	mov    %edx,0x4(%esp)
    4697:	89 04 24             	mov    %eax,(%esp)
    469a:	c6 45 ce 80          	movb   $0x80,-0x32(%ebp)
    469e:	c6 45 cf 06          	movb   $0x6,-0x31(%ebp)
    46a2:	66 c7 45 d0 00 01    	movw   $0x100,-0x30(%ebp)
    46a8:	66 c7 45 d2 00 00    	movw   $0x0,-0x2e(%ebp)
    46ae:	66 c7 45 d4 12 00    	movw   $0x12,-0x2c(%ebp)
    46b4:	e8 07 de ff ff       	call   24c0 <usb_pipe_control_read>
    46b9:	89 c3                	mov    %eax,%ebx
    46bb:	85 c0                	test   %eax,%eax
    46bd:	75 1a                	jne    46d9 <usb_request_get_device_descriptor+0x89>
    46bf:	83 7d c8 11          	cmpl   $0x11,-0x38(%ebp)
    46c3:	76 23                	jbe    46e8 <usb_request_get_device_descriptor+0x98>
    46c5:	c7 44 24 08 12 00 00 	movl   $0x12,0x8(%esp)
    46cc:	00 
    46cd:	89 7c 24 04          	mov    %edi,0x4(%esp)
    46d1:	89 34 24             	mov    %esi,(%esp)
    46d4:	e8 67 b1 00 00       	call   f840 <memcpy>
    46d9:	83 c4 4c             	add    $0x4c,%esp
    46dc:	89 d8                	mov    %ebx,%eax
    46de:	5b                   	pop    %ebx
    46df:	5e                   	pop    %esi
    46e0:	5f                   	pop    %edi
    46e1:	5d                   	pop    %ebp
    46e2:	c3                   	ret    
    46e3:	90                   	nop
    46e4:	8d 74 26 00          	lea    0x0(%esi,%eiz,1),%esi
    46e8:	bb fd ff ff ff       	mov    $0xfffffffd,%ebx
    46ed:	eb ea                	jmp    46d9 <usb_request_get_device_descriptor+0x89>
    46ef:	90                   	nop
    46f0:	bb f6 ff ff ff       	mov    $0xfffffff6,%ebx
    46f5:	eb e2                	jmp    46d9 <usb_request_get_device_descriptor+0x89>
    46f7:	89 f6                	mov    %esi,%esi
    46f9:	8d bc 27 00 00 00 00 	lea    0x0(%edi,%eiz,1),%edi

00004700 <usb_request_get_bare_configuration_descriptor>:
    4700:	55                   	push   %ebp
    4701:	89 e5                	mov    %esp,%ebp
    4703:	57                   	push   %edi
    4704:	56                   	push   %esi
    4705:	53                   	push   %ebx
    4706:	83 ec 4c             	sub    $0x4c,%esp
    4709:	8b 75 10             	mov    0x10(%ebp),%esi
    470c:	8b 45 08             	mov    0x8(%ebp),%eax
    470f:	85 f6                	test   %esi,%esi
    4711:	0f 84 a0 00 00 00    	je     47b7 <usb_request_get_bare_configuration_descriptor+0xb7>
    4717:	81 7d 0c ff 00 00 00 	cmpl   $0xff,0xc(%ebp)
    471e:	0f 87 8c 00 00 00    	ja     47b0 <usb_request_get_bare_configuration_descriptor+0xb0>
    4724:	8b 55 0c             	mov    0xc(%ebp),%edx
    4727:	c7 45 d0 00 00 00 00 	movl   $0x0,-0x30(%ebp)
    472e:	80 ce 02             	or     $0x2,%dh
    4731:	85 c0                	test   %eax,%eax
    4733:	0f 84 7e 00 00 00    	je     47b7 <usb_request_get_bare_configuration_descriptor+0xb7>
    4739:	66 89 55 d9          	mov    %dx,-0x27(%ebp)
    473d:	8d 55 d0             	lea    -0x30(%ebp),%edx
    4740:	89 54 24 14          	mov    %edx,0x14(%esp)
    4744:	8d 7d df             	lea    -0x21(%ebp),%edi
    4747:	8d 55 d7             	lea    -0x29(%ebp),%edx
    474a:	c7 44 24 10 09 00 00 	movl   $0x9,0x10(%esp)
    4751:	00 
    4752:	89 7c 24 0c          	mov    %edi,0xc(%esp)
    4756:	c7 44 24 08 08 00 00 	movl   $0x8,0x8(%esp)
    475d:	00 
    475e:	89 54 24 04          	mov    %edx,0x4(%esp)
    4762:	89 04 24             	mov    %eax,(%esp)
    4765:	c6 45 d7 80          	movb   $0x80,-0x29(%ebp)
    4769:	c6 45 d8 06          	movb   $0x6,-0x28(%ebp)
    476d:	66 c7 45 db 00 00    	movw   $0x0,-0x25(%ebp)
    4773:	66 c7 45 dd 09 00    	movw   $0x9,-0x23(%ebp)
    4779:	e8 42 dd ff ff       	call   24c0 <usb_pipe_control_read>
    477e:	89 c3                	mov    %eax,%ebx
    4780:	85 c0                	test   %eax,%eax
    4782:	75 1a                	jne    479e <usb_request_get_bare_configuration_descriptor+0x9e>
    4784:	83 7d d0 08          	cmpl   $0x8,-0x30(%ebp)
    4788:	76 1e                	jbe    47a8 <usb_request_get_bare_configuration_descriptor+0xa8>
    478a:	c7 44 24 08 09 00 00 	movl   $0x9,0x8(%esp)
    4791:	00 
    4792:	89 7c 24 04          	mov    %edi,0x4(%esp)
    4796:	89 34 24             	mov    %esi,(%esp)
    4799:	e8 a2 b0 00 00       	call   f840 <memcpy>
    479e:	83 c4 4c             	add    $0x4c,%esp
    47a1:	89 d8                	mov    %ebx,%eax
    47a3:	5b                   	pop    %ebx
    47a4:	5e                   	pop    %esi
    47a5:	5f                   	pop    %edi
    47a6:	5d                   	pop    %ebp
    47a7:	c3                   	ret    
    47a8:	bb fd ff ff ff       	mov    $0xfffffffd,%ebx
    47ad:	eb ef                	jmp    479e <usb_request_get_bare_configuration_descriptor+0x9e>
    47af:	90                   	nop
    47b0:	bb f9 fe ff ff       	mov    $0xfffffef9,%ebx
    47b5:	eb e7                	jmp    479e <usb_request_get_bare_configuration_descriptor+0x9e>
    47b7:	bb f6 ff ff ff       	mov    $0xfffffff6,%ebx
    47bc:	eb e0                	jmp    479e <usb_request_get_bare_configuration_descriptor+0x9e>
    47be:	66 90                	xchg   %ax,%ax

000047c0 <usb_request_get_full_configuration_descriptor>:
    47c0:	55                   	push   %ebp
    47c1:	89 e5                	mov    %esp,%ebp
    47c3:	53                   	push   %ebx
    47c4:	83 ec 34             	sub    $0x34,%esp
    47c7:	8b 4d 08             	mov    0x8(%ebp),%ecx
    47ca:	8b 55 10             	mov    0x10(%ebp),%edx
    47cd:	8b 45 14             	mov    0x14(%ebp),%eax
    47d0:	81 7d 0c ff 00 00 00 	cmpl   $0xff,0xc(%ebp)
    47d7:	77 5f                	ja     4838 <usb_request_get_full_configuration_descriptor+0x78>
    47d9:	85 d2                	test   %edx,%edx
    47db:	74 73                	je     4850 <usb_request_get_full_configuration_descriptor+0x90>
    47dd:	85 c0                	test   %eax,%eax
    47df:	74 67                	je     4848 <usb_request_get_full_configuration_descriptor+0x88>
    47e1:	8b 5d 0c             	mov    0xc(%ebp),%ebx
    47e4:	80 cf 02             	or     $0x2,%bh
    47e7:	85 c9                	test   %ecx,%ecx
    47e9:	74 65                	je     4850 <usb_request_get_full_configuration_descriptor+0x90>
    47eb:	3d ff ff 00 00       	cmp    $0xffff,%eax
    47f0:	77 46                	ja     4838 <usb_request_get_full_configuration_descriptor+0x78>
    47f2:	66 89 5d f2          	mov    %bx,-0xe(%ebp)
    47f6:	66 89 45 f6          	mov    %ax,-0xa(%ebp)
    47fa:	8b 5d 18             	mov    0x18(%ebp),%ebx
    47fd:	89 44 24 10          	mov    %eax,0x10(%esp)
    4801:	8d 45 f0             	lea    -0x10(%ebp),%eax
    4804:	89 5c 24 14          	mov    %ebx,0x14(%esp)
    4808:	89 54 24 0c          	mov    %edx,0xc(%esp)
    480c:	c7 44 24 08 08 00 00 	movl   $0x8,0x8(%esp)
    4813:	00 
    4814:	89 44 24 04          	mov    %eax,0x4(%esp)
    4818:	89 0c 24             	mov    %ecx,(%esp)
    481b:	c6 45 f0 80          	movb   $0x80,-0x10(%ebp)
    481f:	c6 45 f1 06          	movb   $0x6,-0xf(%ebp)
    4823:	66 c7 45 f4 00 00    	movw   $0x0,-0xc(%ebp)
    4829:	e8 92 dc ff ff       	call   24c0 <usb_pipe_control_read>
    482e:	83 c4 34             	add    $0x34,%esp
    4831:	5b                   	pop    %ebx
    4832:	5d                   	pop    %ebp
    4833:	c3                   	ret    
    4834:	8d 74 26 00          	lea    0x0(%esi,%eiz,1),%esi
    4838:	83 c4 34             	add    $0x34,%esp
    483b:	b8 f9 fe ff ff       	mov    $0xfffffef9,%eax
    4840:	5b                   	pop    %ebx
    4841:	5d                   	pop    %ebp
    4842:	c3                   	ret    
    4843:	90                   	nop
    4844:	8d 74 26 00          	lea    0x0(%esi,%eiz,1),%esi
    4848:	b8 f2 ff ff ff       	mov    $0xfffffff2,%eax
    484d:	eb df                	jmp    482e <usb_request_get_full_configuration_descriptor+0x6e>
    484f:	90                   	nop
    4850:	b8 f6 ff ff ff       	mov    $0xfffffff6,%eax
    4855:	eb d7                	jmp    482e <usb_request_get_full_configuration_descriptor+0x6e>
    4857:	89 f6                	mov    %esi,%esi
    4859:	8d bc 27 00 00 00 00 	lea    0x0(%edi,%eiz,1),%edi

00004860 <usb_request_get_full_configuration_descriptor_alloc>:
    4860:	55                   	push   %ebp
    4861:	89 e5                	mov    %esp,%ebp
    4863:	57                   	push   %edi
    4864:	56                   	push   %esi
    4865:	53                   	push   %ebx
    4866:	83 ec 6c             	sub    $0x6c,%esp
    4869:	8b 45 10             	mov    0x10(%ebp),%eax
    486c:	85 c0                	test   %eax,%eax
    486e:	0f 84 74 01 00 00    	je     49e8 <usb_request_get_full_configuration_descriptor_alloc+0x188>
    4874:	81 7d 0c ff 00 00 00 	cmpl   $0xff,0xc(%ebp)
    487b:	0f 87 57 01 00 00    	ja     49d8 <usb_request_get_full_configuration_descriptor_alloc+0x178>
    4881:	8b 75 0c             	mov    0xc(%ebp),%esi
    4884:	8b 7d 08             	mov    0x8(%ebp),%edi
    4887:	81 ce 00 02 00 00    	or     $0x200,%esi
    488d:	c7 45 c0 00 00 00 00 	movl   $0x0,-0x40(%ebp)
    4894:	85 ff                	test   %edi,%edi
    4896:	0f 84 4c 01 00 00    	je     49e8 <usb_request_get_full_configuration_descriptor_alloc+0x188>
    489c:	8d 45 c4             	lea    -0x3c(%ebp),%eax
    489f:	8b 55 08             	mov    0x8(%ebp),%edx
    48a2:	8d 7d c0             	lea    -0x40(%ebp),%edi
    48a5:	8d 5d df             	lea    -0x21(%ebp),%ebx
    48a8:	89 7c 24 14          	mov    %edi,0x14(%esp)
    48ac:	c7 44 24 10 09 00 00 	movl   $0x9,0x10(%esp)
    48b3:	00 
    48b4:	89 5c 24 0c          	mov    %ebx,0xc(%esp)
    48b8:	c7 44 24 08 08 00 00 	movl   $0x8,0x8(%esp)
    48bf:	00 
    48c0:	89 44 24 04          	mov    %eax,0x4(%esp)
    48c4:	89 14 24             	mov    %edx,(%esp)
    48c7:	c6 45 c4 80          	movb   $0x80,-0x3c(%ebp)
    48cb:	c6 45 c5 06          	movb   $0x6,-0x3b(%ebp)
    48cf:	66 89 75 c6          	mov    %si,-0x3a(%ebp)
    48d3:	66 c7 45 c8 00 00    	movw   $0x0,-0x38(%ebp)
    48d9:	66 c7 45 ca 09 00    	movw   $0x9,-0x36(%ebp)
    48df:	e8 dc db ff ff       	call   24c0 <usb_pipe_control_read>
    48e4:	85 c0                	test   %eax,%eax
    48e6:	0f 85 bd 00 00 00    	jne    49a9 <usb_request_get_full_configuration_descriptor_alloc+0x149>
    48ec:	83 7d c0 08          	cmpl   $0x8,-0x40(%ebp)
    48f0:	0f 86 c2 00 00 00    	jbe    49b8 <usb_request_get_full_configuration_descriptor_alloc+0x158>
    48f6:	8d 45 d4             	lea    -0x2c(%ebp),%eax
    48f9:	c7 44 24 08 09 00 00 	movl   $0x9,0x8(%esp)
    4900:	00 
    4901:	89 5c 24 04          	mov    %ebx,0x4(%esp)
    4905:	89 04 24             	mov    %eax,(%esp)
    4908:	e8 33 af 00 00       	call   f840 <memcpy>
    490d:	80 7d d5 02          	cmpb   $0x2,-0x2b(%ebp)
    4911:	0f 85 c9 00 00 00    	jne    49e0 <usb_request_get_full_configuration_descriptor_alloc+0x180>
    4917:	66 8b 4d d6          	mov    -0x2a(%ebp),%cx
    491b:	89 cb                	mov    %ecx,%ebx
    491d:	81 e3 ff ff 00 00    	and    $0xffff,%ebx
    4923:	83 fb 08             	cmp    $0x8,%ebx
    4926:	0f 86 8c 00 00 00    	jbe    49b8 <usb_request_get_full_configuration_descriptor_alloc+0x158>
    492c:	89 1c 24             	mov    %ebx,(%esp)
    492f:	89 4d b4             	mov    %ecx,-0x4c(%ebp)
    4932:	e8 69 83 01 00       	call   1cca0 <malloc>
    4937:	8b 4d b4             	mov    -0x4c(%ebp),%ecx
    493a:	89 c2                	mov    %eax,%edx
    493c:	85 c0                	test   %eax,%eax
    493e:	0f 84 ba 00 00 00    	je     49fe <usb_request_get_full_configuration_descriptor_alloc+0x19e>
    4944:	89 44 24 0c          	mov    %eax,0xc(%esp)
    4948:	8d 45 cc             	lea    -0x34(%ebp),%eax
    494b:	89 44 24 04          	mov    %eax,0x4(%esp)
    494f:	8b 45 08             	mov    0x8(%ebp),%eax
    4952:	89 7c 24 14          	mov    %edi,0x14(%esp)
    4956:	89 5c 24 10          	mov    %ebx,0x10(%esp)
    495a:	c7 44 24 08 08 00 00 	movl   $0x8,0x8(%esp)
    4961:	00 
    4962:	89 04 24             	mov    %eax,(%esp)
    4965:	89 55 b4             	mov    %edx,-0x4c(%ebp)
    4968:	c7 45 c0 00 00 00 00 	movl   $0x0,-0x40(%ebp)
    496f:	c6 45 cc 80          	movb   $0x80,-0x34(%ebp)
    4973:	c6 45 cd 06          	movb   $0x6,-0x33(%ebp)
    4977:	66 89 75 ce          	mov    %si,-0x32(%ebp)
    497b:	66 c7 45 d0 00 00    	movw   $0x0,-0x30(%ebp)
    4981:	66 89 4d d2          	mov    %cx,-0x2e(%ebp)
    4985:	e8 36 db ff ff       	call   24c0 <usb_pipe_control_read>
    498a:	8b 55 b4             	mov    -0x4c(%ebp),%edx
    498d:	85 c0                	test   %eax,%eax
    498f:	75 37                	jne    49c8 <usb_request_get_full_configuration_descriptor_alloc+0x168>
    4991:	8b 4d c0             	mov    -0x40(%ebp),%ecx
    4994:	39 d9                	cmp    %ebx,%ecx
    4996:	75 57                	jne    49ef <usb_request_get_full_configuration_descriptor_alloc+0x18f>
    4998:	8b 5d 10             	mov    0x10(%ebp),%ebx
    499b:	89 13                	mov    %edx,(%ebx)
    499d:	8b 5d 14             	mov    0x14(%ebp),%ebx
    49a0:	85 db                	test   %ebx,%ebx
    49a2:	74 05                	je     49a9 <usb_request_get_full_configuration_descriptor_alloc+0x149>
    49a4:	8b 55 14             	mov    0x14(%ebp),%edx
    49a7:	89 0a                	mov    %ecx,(%edx)
    49a9:	83 c4 6c             	add    $0x6c,%esp
    49ac:	5b                   	pop    %ebx
    49ad:	5e                   	pop    %esi
    49ae:	5f                   	pop    %edi
    49af:	5d                   	pop    %ebp
    49b0:	c3                   	ret    
    49b1:	8d b4 26 00 00 00 00 	lea    0x0(%esi,%eiz,1),%esi
    49b8:	83 c4 6c             	add    $0x6c,%esp
    49bb:	b8 fd ff ff ff       	mov    $0xfffffffd,%eax
    49c0:	5b                   	pop    %ebx
    49c1:	5e                   	pop    %esi
    49c2:	5f                   	pop    %edi
    49c3:	5d                   	pop    %ebp
    49c4:	c3                   	ret    
    49c5:	8d 76 00             	lea    0x0(%esi),%esi
    49c8:	89 14 24             	mov    %edx,(%esp)
    49cb:	89 45 b4             	mov    %eax,-0x4c(%ebp)
    49ce:	e8 dd 83 01 00       	call   1cdb0 <free>
    49d3:	8b 45 b4             	mov    -0x4c(%ebp),%eax
    49d6:	eb d1                	jmp    49a9 <usb_request_get_full_configuration_descriptor_alloc+0x149>
    49d8:	b8 f9 fe ff ff       	mov    $0xfffffef9,%eax
    49dd:	eb ca                	jmp    49a9 <usb_request_get_full_configuration_descriptor_alloc+0x149>
    49df:	90                   	nop
    49e0:	83 c8 ff             	or     $0xffffffff,%eax
    49e3:	eb c4                	jmp    49a9 <usb_request_get_full_configuration_descriptor_alloc+0x149>
    49e5:	8d 76 00             	lea    0x0(%esi),%esi
    49e8:	b8 f6 ff ff ff       	mov    $0xfffffff6,%eax
    49ed:	eb ba                	jmp    49a9 <usb_request_get_full_configuration_descriptor_alloc+0x149>
    49ef:	89 14 24             	mov    %edx,(%esp)
    49f2:	e8 b9 83 01 00       	call   1cdb0 <free>
    49f7:	b8 fd ff ff ff       	mov    $0xfffffffd,%eax
    49fc:	eb ab                	jmp    49a9 <usb_request_get_full_configuration_descriptor_alloc+0x149>
    49fe:	b8 fe ff ff ff       	mov    $0xfffffffe,%eax
    4a03:	eb a4                	jmp    49a9 <usb_request_get_full_configuration_descriptor_alloc+0x149>
    4a05:	8d 74 26 00          	lea    0x0(%esi,%eiz,1),%esi
    4a09:	8d bc 27 00 00 00 00 	lea    0x0(%edi,%eiz,1),%edi

00004a10 <usb_request_set_descriptor>:
    4a10:	55                   	push   %ebp
    4a11:	89 e5                	mov    %esp,%ebp
    4a13:	57                   	push   %edi
    4a14:	56                   	push   %esi
    4a15:	53                   	push   %ebx
    4a16:	83 ec 3c             	sub    $0x3c,%esp
    4a19:	8b 5d 20             	mov    0x20(%ebp),%ebx
    4a1c:	8b 75 08             	mov    0x8(%ebp),%esi
    4a1f:	8b 7d 1c             	mov    0x1c(%ebp),%edi
    4a22:	8b 45 24             	mov    0x24(%ebp),%eax
    4a25:	8a 55 14             	mov    0x14(%ebp),%dl
    4a28:	8a 4d 18             	mov    0x18(%ebp),%cl
    4a2b:	85 db                	test   %ebx,%ebx
    4a2d:	74 71                	je     4aa0 <usb_request_set_descriptor+0x90>
    4a2f:	85 c0                	test   %eax,%eax
    4a31:	74 5d                	je     4a90 <usb_request_set_descriptor+0x80>
    4a33:	c1 e2 08             	shl    $0x8,%edx
    4a36:	81 e1 ff 00 00 00    	and    $0xff,%ecx
    4a3c:	09 ca                	or     %ecx,%edx
    4a3e:	85 f6                	test   %esi,%esi
    4a40:	74 5e                	je     4aa0 <usb_request_set_descriptor+0x90>
    4a42:	3d ff ff 00 00       	cmp    $0xffff,%eax
    4a47:	77 4f                	ja     4a98 <usb_request_set_descriptor+0x88>
    4a49:	8a 4d 0c             	mov    0xc(%ebp),%cl
    4a4c:	66 89 45 e6          	mov    %ax,-0x1a(%ebp)
    4a50:	c1 e1 05             	shl    $0x5,%ecx
    4a53:	89 44 24 10          	mov    %eax,0x10(%esp)
    4a57:	0b 4d 10             	or     0x10(%ebp),%ecx
    4a5a:	8d 45 e0             	lea    -0x20(%ebp),%eax
    4a5d:	89 5c 24 0c          	mov    %ebx,0xc(%esp)
    4a61:	c7 44 24 08 08 00 00 	movl   $0x8,0x8(%esp)
    4a68:	00 
    4a69:	89 44 24 04          	mov    %eax,0x4(%esp)
    4a6d:	89 34 24             	mov    %esi,(%esp)
    4a70:	88 4d e0             	mov    %cl,-0x20(%ebp)
    4a73:	c6 45 e1 07          	movb   $0x7,-0x1f(%ebp)
    4a77:	66 89 55 e2          	mov    %dx,-0x1e(%ebp)
    4a7b:	66 89 7d e4          	mov    %di,-0x1c(%ebp)
    4a7f:	e8 9c db ff ff       	call   2620 <usb_pipe_control_write>
    4a84:	83 c4 3c             	add    $0x3c,%esp
    4a87:	5b                   	pop    %ebx
    4a88:	5e                   	pop    %esi
    4a89:	5f                   	pop    %edi
    4a8a:	5d                   	pop    %ebp
    4a8b:	c3                   	ret    
    4a8c:	8d 74 26 00          	lea    0x0(%esi,%eiz,1),%esi
    4a90:	b8 f2 ff ff ff       	mov    $0xfffffff2,%eax
    4a95:	eb ed                	jmp    4a84 <usb_request_set_descriptor+0x74>
    4a97:	90                   	nop
    4a98:	b8 f9 fe ff ff       	mov    $0xfffffef9,%eax
    4a9d:	eb e5                	jmp    4a84 <usb_request_set_descriptor+0x74>
    4a9f:	90                   	nop
    4aa0:	b8 f6 ff ff ff       	mov    $0xfffffff6,%eax
    4aa5:	eb dd                	jmp    4a84 <usb_request_set_descriptor+0x74>
    4aa7:	89 f6                	mov    %esi,%esi
    4aa9:	8d bc 27 00 00 00 00 	lea    0x0(%edi,%eiz,1),%edi

00004ab0 <usb_request_get_configuration>:
    4ab0:	55                   	push   %ebp
    4ab1:	89 e5                	mov    %esp,%ebp
    4ab3:	53                   	push   %ebx
    4ab4:	83 ec 34             	sub    $0x34,%esp
    4ab7:	8b 45 08             	mov    0x8(%ebp),%eax
    4aba:	8b 5d 0c             	mov    0xc(%ebp),%ebx
    4abd:	85 c0                	test   %eax,%eax
    4abf:	74 6e                	je     4b2f <usb_request_get_configuration+0x7f>
    4ac1:	8d 55 ec             	lea    -0x14(%ebp),%edx
    4ac4:	c7 44 24 10 01 00 00 	movl   $0x1,0x10(%esp)
    4acb:	00 
    4acc:	89 54 24 14          	mov    %edx,0x14(%esp)
    4ad0:	8d 55 e8             	lea    -0x18(%ebp),%edx
    4ad3:	89 54 24 0c          	mov    %edx,0xc(%esp)
    4ad7:	8d 55 f0             	lea    -0x10(%ebp),%edx
    4ada:	c7 44 24 08 08 00 00 	movl   $0x8,0x8(%esp)
    4ae1:	00 
    4ae2:	89 54 24 04          	mov    %edx,0x4(%esp)
    4ae6:	89 04 24             	mov    %eax,(%esp)
    4ae9:	c6 45 f0 80          	movb   $0x80,-0x10(%ebp)
    4aed:	c6 45 f1 08          	movb   $0x8,-0xf(%ebp)
    4af1:	66 c7 45 f2 00 00    	movw   $0x0,-0xe(%ebp)
    4af7:	66 c7 45 f4 00 00    	movw   $0x0,-0xc(%ebp)
    4afd:	66 c7 45 f6 01 00    	movw   $0x1,-0xa(%ebp)
    4b03:	e8 b8 d9 ff ff       	call   24c0 <usb_pipe_control_read>
    4b08:	85 c0                	test   %eax,%eax
    4b0a:	75 0f                	jne    4b1b <usb_request_get_configuration+0x6b>
    4b0c:	83 7d ec 01          	cmpl   $0x1,-0x14(%ebp)
    4b10:	75 16                	jne    4b28 <usb_request_get_configuration+0x78>
    4b12:	85 db                	test   %ebx,%ebx
    4b14:	74 05                	je     4b1b <usb_request_get_configuration+0x6b>
    4b16:	8a 55 e8             	mov    -0x18(%ebp),%dl
    4b19:	88 13                	mov    %dl,(%ebx)
    4b1b:	83 c4 34             	add    $0x34,%esp
    4b1e:	5b                   	pop    %ebx
    4b1f:	5d                   	pop    %ebp
    4b20:	c3                   	ret    
    4b21:	8d b4 26 00 00 00 00 	lea    0x0(%esi,%eiz,1),%esi
    4b28:	b8 fd ff ff ff       	mov    $0xfffffffd,%eax
    4b2d:	eb ec                	jmp    4b1b <usb_request_get_configuration+0x6b>
    4b2f:	b8 f6 ff ff ff       	mov    $0xfffffff6,%eax
    4b34:	eb e5                	jmp    4b1b <usb_request_get_configuration+0x6b>
    4b36:	8d 76 00             	lea    0x0(%esi),%esi
    4b39:	8d bc 27 00 00 00 00 	lea    0x0(%edi,%eiz,1),%edi

00004b40 <usb_request_set_configuration>:
    4b40:	55                   	push   %ebp
    4b41:	31 d2                	xor    %edx,%edx
    4b43:	89 e5                	mov    %esp,%ebp
    4b45:	83 ec 38             	sub    $0x38,%esp
    4b48:	8b 45 08             	mov    0x8(%ebp),%eax
    4b4b:	8a 55 0c             	mov    0xc(%ebp),%dl
    4b4e:	85 c0                	test   %eax,%eax
    4b50:	74 41                	je     4b93 <usb_request_set_configuration+0x53>
    4b52:	66 89 55 f2          	mov    %dx,-0xe(%ebp)
    4b56:	8d 55 f0             	lea    -0x10(%ebp),%edx
    4b59:	c7 44 24 10 00 00 00 	movl   $0x0,0x10(%esp)
    4b60:	00 
    4b61:	c7 44 24 0c 00 00 00 	movl   $0x0,0xc(%esp)
    4b68:	00 
    4b69:	c7 44 24 08 08 00 00 	movl   $0x8,0x8(%esp)
    4b70:	00 
    4b71:	89 54 24 04          	mov    %edx,0x4(%esp)
    4b75:	89 04 24             	mov    %eax,(%esp)
    4b78:	c6 45 f0 00          	movb   $0x0,-0x10(%ebp)
    4b7c:	c6 45 f1 09          	movb   $0x9,-0xf(%ebp)
    4b80:	66 c7 45 f4 00 00    	movw   $0x0,-0xc(%ebp)
    4b86:	66 c7 45 f6 00 00    	movw   $0x0,-0xa(%ebp)
    4b8c:	e8 8f da ff ff       	call   2620 <usb_pipe_control_write>
    4b91:	c9                   	leave  
    4b92:	c3                   	ret    
    4b93:	b8 f6 ff ff ff       	mov    $0xfffffff6,%eax
    4b98:	c9                   	leave  
    4b99:	c3                   	ret    
    4b9a:	8d b6 00 00 00 00    	lea    0x0(%esi),%esi

00004ba0 <usb_request_get_interface>:
    4ba0:	55                   	push   %ebp
    4ba1:	31 d2                	xor    %edx,%edx
    4ba3:	89 e5                	mov    %esp,%ebp
    4ba5:	53                   	push   %ebx
    4ba6:	83 ec 34             	sub    $0x34,%esp
    4ba9:	8b 45 08             	mov    0x8(%ebp),%eax
    4bac:	8b 5d 10             	mov    0x10(%ebp),%ebx
    4baf:	8a 55 0c             	mov    0xc(%ebp),%dl
    4bb2:	85 c0                	test   %eax,%eax
    4bb4:	74 69                	je     4c1f <usb_request_get_interface+0x7f>
    4bb6:	66 89 55 f4          	mov    %dx,-0xc(%ebp)
    4bba:	8d 55 ec             	lea    -0x14(%ebp),%edx
    4bbd:	89 54 24 14          	mov    %edx,0x14(%esp)
    4bc1:	8d 55 e8             	lea    -0x18(%ebp),%edx
    4bc4:	89 54 24 0c          	mov    %edx,0xc(%esp)
    4bc8:	8d 55 f0             	lea    -0x10(%ebp),%edx
    4bcb:	c7 44 24 10 01 00 00 	movl   $0x1,0x10(%esp)
    4bd2:	00 
    4bd3:	c7 44 24 08 08 00 00 	movl   $0x8,0x8(%esp)
    4bda:	00 
    4bdb:	89 54 24 04          	mov    %edx,0x4(%esp)
    4bdf:	89 04 24             	mov    %eax,(%esp)
    4be2:	c6 45 f0 81          	movb   $0x81,-0x10(%ebp)
    4be6:	c6 45 f1 0a          	movb   $0xa,-0xf(%ebp)
    4bea:	66 c7 45 f2 00 00    	movw   $0x0,-0xe(%ebp)
    4bf0:	66 c7 45 f6 01 00    	movw   $0x1,-0xa(%ebp)
    4bf6:	e8 c5 d8 ff ff       	call   24c0 <usb_pipe_control_read>
    4bfb:	85 c0                	test   %eax,%eax
    4bfd:	75 0f                	jne    4c0e <usb_request_get_interface+0x6e>
    4bff:	83 7d ec 01          	cmpl   $0x1,-0x14(%ebp)
    4c03:	75 13                	jne    4c18 <usb_request_get_interface+0x78>
    4c05:	85 db                	test   %ebx,%ebx
    4c07:	74 05                	je     4c0e <usb_request_get_interface+0x6e>
    4c09:	8a 55 e8             	mov    -0x18(%ebp),%dl
    4c0c:	88 13                	mov    %dl,(%ebx)
    4c0e:	83 c4 34             	add    $0x34,%esp
    4c11:	5b                   	pop    %ebx
    4c12:	5d                   	pop    %ebp
    4c13:	c3                   	ret    
    4c14:	8d 74 26 00          	lea    0x0(%esi,%eiz,1),%esi
    4c18:	b8 fd ff ff ff       	mov    $0xfffffffd,%eax
    4c1d:	eb ef                	jmp    4c0e <usb_request_get_interface+0x6e>
    4c1f:	b8 f6 ff ff ff       	mov    $0xfffffff6,%eax
    4c24:	eb e8                	jmp    4c0e <usb_request_get_interface+0x6e>
    4c26:	8d 76 00             	lea    0x0(%esi),%esi
    4c29:	8d bc 27 00 00 00 00 	lea    0x0(%edi,%eiz,1),%edi

00004c30 <usb_request_set_interface>:
    4c30:	55                   	push   %ebp
    4c31:	31 c9                	xor    %ecx,%ecx
    4c33:	89 e5                	mov    %esp,%ebp
    4c35:	83 ec 38             	sub    $0x38,%esp
    4c38:	31 d2                	xor    %edx,%edx
    4c3a:	8b 45 08             	mov    0x8(%ebp),%eax
    4c3d:	8a 4d 10             	mov    0x10(%ebp),%cl
    4c40:	8a 55 0c             	mov    0xc(%ebp),%dl
    4c43:	85 c0                	test   %eax,%eax
    4c45:	74 3f                	je     4c86 <usb_request_set_interface+0x56>
    4c47:	66 89 55 f4          	mov    %dx,-0xc(%ebp)
    4c4b:	8d 55 f0             	lea    -0x10(%ebp),%edx
    4c4e:	c7 44 24 10 00 00 00 	movl   $0x0,0x10(%esp)
    4c55:	00 
    4c56:	c7 44 24 0c 00 00 00 	movl   $0x0,0xc(%esp)
    4c5d:	00 
    4c5e:	c7 44 24 08 08 00 00 	movl   $0x8,0x8(%esp)
    4c65:	00 
    4c66:	89 54 24 04          	mov    %edx,0x4(%esp)
    4c6a:	89 04 24             	mov    %eax,(%esp)
    4c6d:	c6 45 f0 01          	movb   $0x1,-0x10(%ebp)
    4c71:	c6 45 f1 0b          	movb   $0xb,-0xf(%ebp)
    4c75:	66 89 4d f2          	mov    %cx,-0xe(%ebp)
    4c79:	66 c7 45 f6 00 00    	movw   $0x0,-0xa(%ebp)
    4c7f:	e8 9c d9 ff ff       	call   2620 <usb_pipe_control_write>
    4c84:	c9                   	leave  
    4c85:	c3                   	ret    
    4c86:	b8 f6 ff ff ff       	mov    $0xfffffff6,%eax
    4c8b:	c9                   	leave  
    4c8c:	c3                   	ret    
    4c8d:	8d 76 00             	lea    0x0(%esi),%esi

00004c90 <usb_request_get_supported_languages>:
    4c90:	55                   	push   %ebp
    4c91:	89 e5                	mov    %esp,%ebp
    4c93:	57                   	push   %edi
    4c94:	56                   	push   %esi
    4c95:	53                   	push   %ebx
    4c96:	83 ec 4c             	sub    $0x4c,%esp
    4c99:	8b 55 0c             	mov    0xc(%ebp),%edx
    4c9c:	85 d2                	test   %edx,%edx
    4c9e:	0f 84 ee 00 00 00    	je     4d92 <usb_request_get_supported_languages+0x102>
    4ca4:	8b 45 10             	mov    0x10(%ebp),%eax
    4ca7:	85 c0                	test   %eax,%eax
    4ca9:	0f 84 e3 00 00 00    	je     4d92 <usb_request_get_supported_languages+0x102>
    4caf:	8d 45 e4             	lea    -0x1c(%ebp),%eax
    4cb2:	c7 44 24 14 00 00 00 	movl   $0x0,0x14(%esp)
    4cb9:	00 
    4cba:	89 44 24 1c          	mov    %eax,0x1c(%esp)
    4cbe:	8d 45 e0             	lea    -0x20(%ebp),%eax
    4cc1:	89 44 24 18          	mov    %eax,0x18(%esp)
    4cc5:	8b 45 08             	mov    0x8(%ebp),%eax
    4cc8:	c7 44 24 10 00 00 00 	movl   $0x0,0x10(%esp)
    4ccf:	00 
    4cd0:	c7 44 24 0c 03 00 00 	movl   $0x3,0xc(%esp)
    4cd7:	00 
    4cd8:	c7 44 24 08 00 00 00 	movl   $0x0,0x8(%esp)
    4cdf:	00 
    4ce0:	c7 44 24 04 00 00 00 	movl   $0x0,0x4(%esp)
    4ce7:	00 
    4ce8:	89 04 24             	mov    %eax,(%esp)
    4ceb:	c7 45 e0 00 00 00 00 	movl   $0x0,-0x20(%ebp)
    4cf2:	c7 45 e4 00 00 00 00 	movl   $0x0,-0x1c(%ebp)
    4cf9:	e8 d2 f7 ff ff       	call   44d0 <usb_request_get_descriptor_alloc>
    4cfe:	89 45 d4             	mov    %eax,-0x2c(%ebp)
    4d01:	85 c0                	test   %eax,%eax
    4d03:	0f 85 81 00 00 00    	jne    4d8a <usb_request_get_supported_languages+0xfa>
    4d09:	8b 7d e4             	mov    -0x1c(%ebp),%edi
    4d0c:	83 ff 02             	cmp    $0x2,%edi
    4d0f:	0f 86 a0 00 00 00    	jbe    4db5 <usb_request_get_supported_languages+0x125>
    4d15:	83 ef 02             	sub    $0x2,%edi
    4d18:	89 7d e4             	mov    %edi,-0x1c(%ebp)
    4d1b:	f7 c7 01 00 00 00    	test   $0x1,%edi
    4d21:	75 7b                	jne    4d9e <usb_request_get_supported_languages+0x10e>
    4d23:	d1 ef                	shr    %edi
    4d25:	8d 04 bd 00 00 00 00 	lea    0x0(,%edi,4),%eax
    4d2c:	89 04 24             	mov    %eax,(%esp)
    4d2f:	e8 6c 7f 01 00       	call   1cca0 <malloc>
    4d34:	85 c0                	test   %eax,%eax
    4d36:	0f 84 90 00 00 00    	je     4dcc <usb_request_get_supported_languages+0x13c>
    4d3c:	8b 5d e0             	mov    -0x20(%ebp),%ebx
    4d3f:	85 ff                	test   %edi,%edi
    4d41:	74 2c                	je     4d6f <usb_request_get_supported_languages+0xdf>
    4d43:	31 d2                	xor    %edx,%edx
    4d45:	89 45 cc             	mov    %eax,-0x34(%ebp)
    4d48:	31 c9                	xor    %ecx,%ecx
    4d4a:	8a 4c 53 03          	mov    0x3(%ebx,%edx,2),%cl
    4d4e:	42                   	inc    %edx
    4d4f:	c1 e1 08             	shl    $0x8,%ecx
    4d52:	8a 04 53             	mov    (%ebx,%edx,2),%al
    4d55:	25 ff 00 00 00       	and    $0xff,%eax
    4d5a:	89 c6                	mov    %eax,%esi
    4d5c:	8b 45 cc             	mov    -0x34(%ebp),%eax
    4d5f:	01 f1                	add    %esi,%ecx
    4d61:	81 e1 ff ff 00 00    	and    $0xffff,%ecx
    4d67:	39 fa                	cmp    %edi,%edx
    4d69:	89 4c 90 fc          	mov    %ecx,-0x4(%eax,%edx,4)
    4d6d:	75 d9                	jne    4d48 <usb_request_get_supported_languages+0xb8>
    4d6f:	89 1c 24             	mov    %ebx,(%esp)
    4d72:	89 45 d0             	mov    %eax,-0x30(%ebp)
    4d75:	e8 36 80 01 00       	call   1cdb0 <free>
    4d7a:	8b 55 0c             	mov    0xc(%ebp),%edx
    4d7d:	8b 45 d0             	mov    -0x30(%ebp),%eax
    4d80:	89 02                	mov    %eax,(%edx)
    4d82:	8b 55 10             	mov    0x10(%ebp),%edx
    4d85:	8b 45 d4             	mov    -0x2c(%ebp),%eax
    4d88:	89 3a                	mov    %edi,(%edx)
    4d8a:	83 c4 4c             	add    $0x4c,%esp
    4d8d:	5b                   	pop    %ebx
    4d8e:	5e                   	pop    %esi
    4d8f:	5f                   	pop    %edi
    4d90:	5d                   	pop    %ebp
    4d91:	c3                   	ret    
    4d92:	c7 45 d4 f6 ff ff ff 	movl   $0xfffffff6,-0x2c(%ebp)
    4d99:	8b 45 d4             	mov    -0x2c(%ebp),%eax
    4d9c:	eb ec                	jmp    4d8a <usb_request_get_supported_languages+0xfa>
    4d9e:	8b 45 e0             	mov    -0x20(%ebp),%eax
    4da1:	89 04 24             	mov    %eax,(%esp)
    4da4:	e8 07 80 01 00       	call   1cdb0 <free>
    4da9:	c7 45 d4 d3 fe ff ff 	movl   $0xfffffed3,-0x2c(%ebp)
    4db0:	8b 45 d4             	mov    -0x2c(%ebp),%eax
    4db3:	eb d5                	jmp    4d8a <usb_request_get_supported_languages+0xfa>
    4db5:	8b 45 e0             	mov    -0x20(%ebp),%eax
    4db8:	89 04 24             	mov    %eax,(%esp)
    4dbb:	e8 f0 7f 01 00       	call   1cdb0 <free>
    4dc0:	c7 45 d4 d2 fe ff ff 	movl   $0xfffffed2,-0x2c(%ebp)
    4dc7:	8b 45 d4             	mov    -0x2c(%ebp),%eax
    4dca:	eb be                	jmp    4d8a <usb_request_get_supported_languages+0xfa>
    4dcc:	8b 45 e0             	mov    -0x20(%ebp),%eax
    4dcf:	89 04 24             	mov    %eax,(%esp)
    4dd2:	e8 d9 7f 01 00       	call   1cdb0 <free>
    4dd7:	c7 45 d4 fe ff ff ff 	movl   $0xfffffffe,-0x2c(%ebp)
    4dde:	8b 45 d4             	mov    -0x2c(%ebp),%eax
    4de1:	eb a7                	jmp    4d8a <usb_request_get_supported_languages+0xfa>
    4de3:	8d b6 00 00 00 00    	lea    0x0(%esi),%esi
    4de9:	8d bc 27 00 00 00 00 	lea    0x0(%edi,%eiz,1),%edi

00004df0 <usb_request_get_string>:
    4df0:	55                   	push   %ebp
    4df1:	89 e5                	mov    %esp,%ebp
    4df3:	57                   	push   %edi
    4df4:	56                   	push   %esi
    4df5:	53                   	push   %ebx
    4df6:	83 ec 4c             	sub    $0x4c,%esp
    4df9:	8b 5d 14             	mov    0x14(%ebp),%ebx
    4dfc:	8b 45 0c             	mov    0xc(%ebp),%eax
    4dff:	8b 55 10             	mov    0x10(%ebp),%edx
    4e02:	85 db                	test   %ebx,%ebx
    4e04:	0f 84 58 01 00 00    	je     4f62 <usb_request_get_string+0x172>
    4e0a:	8d 48 ff             	lea    -0x1(%eax),%ecx
    4e0d:	81 f9 fe 00 00 00    	cmp    $0xfe,%ecx
    4e13:	0f 87 2f 01 00 00    	ja     4f48 <usb_request_get_string+0x158>
    4e19:	81 fa ff ff 00 00    	cmp    $0xffff,%edx
    4e1f:	0f 87 23 01 00 00    	ja     4f48 <usb_request_get_string+0x158>
    4e25:	8d 4d e4             	lea    -0x1c(%ebp),%ecx
    4e28:	89 44 24 10          	mov    %eax,0x10(%esp)
    4e2c:	89 4c 24 1c          	mov    %ecx,0x1c(%esp)
    4e30:	8b 45 08             	mov    0x8(%ebp),%eax
    4e33:	8d 4d e0             	lea    -0x20(%ebp),%ecx
    4e36:	89 54 24 14          	mov    %edx,0x14(%esp)
    4e3a:	89 4c 24 18          	mov    %ecx,0x18(%esp)
    4e3e:	c7 44 24 0c 03 00 00 	movl   $0x3,0xc(%esp)
    4e45:	00 
    4e46:	c7 44 24 08 00 00 00 	movl   $0x0,0x8(%esp)
    4e4d:	00 
    4e4e:	c7 44 24 04 00 00 00 	movl   $0x0,0x4(%esp)
    4e55:	00 
    4e56:	89 04 24             	mov    %eax,(%esp)
    4e59:	c7 45 e0 00 00 00 00 	movl   $0x0,-0x20(%ebp)
    4e60:	e8 6b f6 ff ff       	call   44d0 <usb_request_get_descriptor_alloc>
    4e65:	31 f6                	xor    %esi,%esi
    4e67:	89 c3                	mov    %eax,%ebx
    4e69:	85 c0                	test   %eax,%eax
    4e6b:	74 2b                	je     4e98 <usb_request_get_string+0xa8>
    4e6d:	8b 45 e0             	mov    -0x20(%ebp),%eax
    4e70:	85 c0                	test   %eax,%eax
