
locsrv:     file format elf32-i386


Disassembly of section .init:

00001094 <__entry>:
    1094:	66 8c d0             	mov    %ss,%ax
    1097:	8e d8                	mov    %eax,%ds
    1099:	8e c0                	mov    %eax,%es
    109b:	8e e0                	mov    %eax,%fs
    109d:	b8 01 00 00 00       	mov    $0x1,%eax
    10a2:	0f a2                	cpuid  
    10a4:	0f ba e2 0b          	bt     $0xb,%edx
    10a8:	73 0c                	jae    10b6 <__entry+0x22>
    10aa:	8d 05 94 2d 02 00    	lea    0x22d94,%eax
    10b0:	c7 00 d7 ac 01 00    	movl   $0x1acd7,(%eax)
    10b6:	6a 00                	push   $0x0
    10b8:	89 e5                	mov    %esp,%ebp
    10ba:	57                   	push   %edi
    10bb:	e8 f0 28 00 00       	call   39b0 <__main>

Disassembly of section .text:

000010c0 <categ_dir_init>:
    10c0:	55                   	push   %ebp
    10c1:	89 e5                	mov    %esp,%ebp
    10c3:	53                   	push   %ebx
    10c4:	83 ec 14             	sub    $0x14,%esp
    10c7:	8b 5d 08             	mov    0x8(%ebp),%ebx
    10ca:	89 1c 24             	mov    %ebx,(%esp)
    10cd:	e8 4e 64 00 00       	call   7520 <fibril_mutex_initialize>
    10d2:	8d 43 10             	lea    0x10(%ebx),%eax
    10d5:	89 43 10             	mov    %eax,0x10(%ebx)
    10d8:	89 43 14             	mov    %eax,0x14(%ebx)
    10db:	83 c4 14             	add    $0x14,%esp
    10de:	5b                   	pop    %ebx
    10df:	5d                   	pop    %ebp
    10e0:	c3                   	ret    
    10e1:	eb 0d                	jmp    10f0 <categ_dir_add_cat>
    10e3:	90                   	nop
    10e4:	90                   	nop
    10e5:	90                   	nop
    10e6:	90                   	nop
    10e7:	90                   	nop
    10e8:	90                   	nop
    10e9:	90                   	nop
    10ea:	90                   	nop
    10eb:	90                   	nop
    10ec:	90                   	nop
    10ed:	90                   	nop
    10ee:	90                   	nop
    10ef:	90                   	nop

000010f0 <categ_dir_add_cat>:
    10f0:	55                   	push   %ebp
    10f1:	89 e5                	mov    %esp,%ebp
    10f3:	53                   	push   %ebx
    10f4:	8b 45 08             	mov    0x8(%ebp),%eax
    10f7:	8b 55 0c             	mov    0xc(%ebp),%edx
    10fa:	8d 58 10             	lea    0x10(%eax),%ebx
    10fd:	8d 4a 18             	lea    0x18(%edx),%ecx
    1100:	89 5a 1c             	mov    %ebx,0x1c(%edx)
    1103:	8b 58 10             	mov    0x10(%eax),%ebx
    1106:	89 5a 18             	mov    %ebx,0x18(%edx)
    1109:	8b 50 10             	mov    0x10(%eax),%edx
    110c:	89 48 10             	mov    %ecx,0x10(%eax)
    110f:	89 4a 04             	mov    %ecx,0x4(%edx)
    1112:	5b                   	pop    %ebx
    1113:	5d                   	pop    %ebp
    1114:	c3                   	ret    
    1115:	8d 74 26 00          	lea    0x0(%esi,%eiz,1),%esi
    1119:	8d bc 27 00 00 00 00 	lea    0x0(%edi,%eiz,1),%edi

00001120 <categ_dir_get_categories>:
    1120:	55                   	push   %ebp
    1121:	89 e5                	mov    %esp,%ebp
    1123:	57                   	push   %edi
    1124:	56                   	push   %esi
    1125:	53                   	push   %ebx
    1126:	83 ec 1c             	sub    $0x1c,%esp
    1129:	8b 55 08             	mov    0x8(%ebp),%edx
    112c:	8b 75 0c             	mov    0xc(%ebp),%esi
    112f:	89 14 24             	mov    %edx,(%esp)
    1132:	e8 39 66 00 00       	call   7770 <fibril_mutex_is_locked>
    1137:	84 c0                	test   %al,%al
    1139:	74 58                	je     1193 <categ_dir_get_categories+0x73>
    113b:	8b 5d 08             	mov    0x8(%ebp),%ebx
    113e:	8b 7d 10             	mov    0x10(%ebp),%edi
    1141:	c1 ef 02             	shr    $0x2,%edi
    1144:	83 c3 10             	add    $0x10,%ebx
    1147:	89 1c 24             	mov    %ebx,(%esp)
    114a:	e8 21 4e 01 00       	call   15f70 <list_count>
    114f:	8b 4d 14             	mov    0x14(%ebp),%ecx
    1152:	c1 e0 02             	shl    $0x2,%eax
    1155:	f6 45 10 03          	testb  $0x3,0x10(%ebp)
    1159:	89 01                	mov    %eax,(%ecx)
    115b:	75 2f                	jne    118c <categ_dir_get_categories+0x6c>
    115d:	8b 55 08             	mov    0x8(%ebp),%edx
    1160:	31 c9                	xor    %ecx,%ecx
    1162:	8b 42 14             	mov    0x14(%edx),%eax
    1165:	39 d8                	cmp    %ebx,%eax
    1167:	74 19                	je     1182 <categ_dir_get_categories+0x62>
    1169:	8d b4 26 00 00 00 00 	lea    0x0(%esi,%eiz,1),%esi
    1170:	39 cf                	cmp    %ecx,%edi
    1172:	76 06                	jbe    117a <categ_dir_get_categories+0x5a>
    1174:	8b 50 f8             	mov    -0x8(%eax),%edx
    1177:	89 14 8e             	mov    %edx,(%esi,%ecx,4)
    117a:	8b 40 04             	mov    0x4(%eax),%eax
    117d:	41                   	inc    %ecx
    117e:	39 d8                	cmp    %ebx,%eax
    1180:	75 ee                	jne    1170 <categ_dir_get_categories+0x50>
    1182:	31 c0                	xor    %eax,%eax
    1184:	83 c4 1c             	add    $0x1c,%esp
    1187:	5b                   	pop    %ebx
    1188:	5e                   	pop    %esi
    1189:	5f                   	pop    %edi
    118a:	5d                   	pop    %ebp
    118b:	c3                   	ret    
    118c:	b8 f2 ff ff ff       	mov    $0xfffffff2,%eax
    1191:	eb f1                	jmp    1184 <categ_dir_get_categories+0x64>
    1193:	c7 44 24 08 40 00 00 	movl   $0x40,0x8(%esp)
    119a:	00 
    119b:	c7 44 24 04 62 00 02 	movl   $0x20062,0x4(%esp)
    11a2:	00 
    11a3:	c7 04 24 70 00 02 00 	movl   $0x20070,(%esp)
    11aa:	e8 a1 9a 01 00       	call   1ac50 <assert_abort>
    11af:	90                   	nop

000011b0 <category_new>:
    11b0:	55                   	push   %ebp
    11b1:	89 e5                	mov    %esp,%ebp
    11b3:	53                   	push   %ebx
    11b4:	83 ec 14             	sub    $0x14,%esp
    11b7:	c7 04 24 28 00 00 00 	movl   $0x28,(%esp)
    11be:	e8 2d f2 00 00       	call   103f0 <malloc>
    11c3:	89 c3                	mov    %eax,%ebx
    11c5:	85 c0                	test   %eax,%eax
    11c7:	74 35                	je     11fe <category_new+0x4e>
    11c9:	89 04 24             	mov    %eax,(%esp)
    11cc:	e8 4f 63 00 00       	call   7520 <fibril_mutex_initialize>
    11d1:	8b 45 08             	mov    0x8(%ebp),%eax
    11d4:	89 04 24             	mov    %eax,(%esp)
    11d7:	e8 e4 50 00 00       	call   62c0 <str_dup>
    11dc:	89 43 14             	mov    %eax,0x14(%ebx)
    11df:	e8 6c 24 00 00       	call   3650 <loc_create_id>
    11e4:	89 43 10             	mov    %eax,0x10(%ebx)
    11e7:	8d 43 20             	lea    0x20(%ebx),%eax
    11ea:	c7 43 18 00 00 00 00 	movl   $0x0,0x18(%ebx)
    11f1:	c7 43 1c 00 00 00 00 	movl   $0x0,0x1c(%ebx)
    11f8:	89 43 20             	mov    %eax,0x20(%ebx)
    11fb:	89 43 24             	mov    %eax,0x24(%ebx)
    11fe:	83 c4 14             	add    $0x14,%esp
    1201:	89 d8                	mov    %ebx,%eax
    1203:	5b                   	pop    %ebx
    1204:	5d                   	pop    %ebp
    1205:	c3                   	ret    
    1206:	8d 76 00             	lea    0x0(%esi),%esi
    1209:	8d bc 27 00 00 00 00 	lea    0x0(%edi,%eiz,1),%edi

00001210 <category_add_service>:
    1210:	55                   	push   %ebp
    1211:	89 e5                	mov    %esp,%ebp
    1213:	57                   	push   %edi
    1214:	56                   	push   %esi
    1215:	53                   	push   %ebx
    1216:	83 ec 1c             	sub    $0x1c,%esp
    1219:	8b 75 08             	mov    0x8(%ebp),%esi
    121c:	8b 5d 0c             	mov    0xc(%ebp),%ebx
    121f:	89 34 24             	mov    %esi,(%esp)
    1222:	e8 49 65 00 00       	call   7770 <fibril_mutex_is_locked>
    1227:	84 c0                	test   %al,%al
    1229:	0f 84 a7 00 00 00    	je     12d6 <category_add_service+0xc6>
    122f:	c7 04 24 a0 2b 02 00 	movl   $0x22ba0,(%esp)
    1236:	e8 35 65 00 00       	call   7770 <fibril_mutex_is_locked>
    123b:	84 c0                	test   %al,%al
    123d:	74 7b                	je     12ba <category_add_service+0xaa>
    123f:	8b 46 24             	mov    0x24(%esi),%eax
    1242:	8d 7e 20             	lea    0x20(%esi),%edi
    1245:	39 f8                	cmp    %edi,%eax
    1247:	75 0e                	jne    1257 <category_add_service+0x47>
    1249:	eb 25                	jmp    1270 <category_add_service+0x60>
    124b:	90                   	nop
    124c:	8d 74 26 00          	lea    0x0(%esi,%eiz,1),%esi
    1250:	8b 40 04             	mov    0x4(%eax),%eax
    1253:	39 f8                	cmp    %edi,%eax
    1255:	74 19                	je     1270 <category_add_service+0x60>
    1257:	39 58 14             	cmp    %ebx,0x14(%eax)
    125a:	75 f4                	jne    1250 <category_add_service+0x40>
    125c:	83 c4 1c             	add    $0x1c,%esp
    125f:	b8 fc fe ff ff       	mov    $0xfffffefc,%eax
    1264:	5b                   	pop    %ebx
    1265:	5e                   	pop    %esi
    1266:	5f                   	pop    %edi
    1267:	5d                   	pop    %ebp
    1268:	c3                   	ret    
    1269:	8d b4 26 00 00 00 00 	lea    0x0(%esi,%eiz,1),%esi
    1270:	c7 04 24 18 00 00 00 	movl   $0x18,(%esp)
    1277:	e8 74 f1 00 00       	call   103f0 <malloc>
    127c:	85 c0                	test   %eax,%eax
    127e:	74 33                	je     12b3 <category_add_service+0xa3>
    1280:	8b 56 20             	mov    0x20(%esi),%edx
    1283:	89 58 14             	mov    %ebx,0x14(%eax)
    1286:	89 70 10             	mov    %esi,0x10(%eax)
    1289:	89 10                	mov    %edx,(%eax)
    128b:	8d 4b 18             	lea    0x18(%ebx),%ecx
    128e:	89 46 20             	mov    %eax,0x20(%esi)
    1291:	89 78 04             	mov    %edi,0x4(%eax)
    1294:	89 42 04             	mov    %eax,0x4(%edx)
    1297:	89 48 0c             	mov    %ecx,0xc(%eax)
    129a:	8b 4b 18             	mov    0x18(%ebx),%ecx
    129d:	8d 50 08             	lea    0x8(%eax),%edx
    12a0:	89 48 08             	mov    %ecx,0x8(%eax)
    12a3:	89 51 04             	mov    %edx,0x4(%ecx)
    12a6:	89 53 18             	mov    %edx,0x18(%ebx)
    12a9:	31 c0                	xor    %eax,%eax
    12ab:	83 c4 1c             	add    $0x1c,%esp
    12ae:	5b                   	pop    %ebx
    12af:	5e                   	pop    %esi
    12b0:	5f                   	pop    %edi
    12b1:	5d                   	pop    %ebp
    12b2:	c3                   	ret    
    12b3:	b8 fe ff ff ff       	mov    $0xfffffffe,%eax
    12b8:	eb f1                	jmp    12ab <category_add_service+0x9b>
    12ba:	c7 44 24 08 73 00 00 	movl   $0x73,0x8(%esp)
    12c1:	00 
    12c2:	c7 44 24 04 62 00 02 	movl   $0x20062,0x4(%esp)
    12c9:	00 
    12ca:	c7 04 24 bc 00 02 00 	movl   $0x200bc,(%esp)
    12d1:	e8 7a 99 01 00       	call   1ac50 <assert_abort>
    12d6:	c7 44 24 08 72 00 00 	movl   $0x72,0x8(%esp)
    12dd:	00 
    12de:	c7 44 24 04 62 00 02 	movl   $0x20062,0x4(%esp)
    12e5:	00 
    12e6:	c7 04 24 98 00 02 00 	movl   $0x20098,(%esp)
    12ed:	e8 5e 99 01 00       	call   1ac50 <assert_abort>
    12f2:	8d b4 26 00 00 00 00 	lea    0x0(%esi,%eiz,1),%esi
    12f9:	8d bc 27 00 00 00 00 	lea    0x0(%edi,%eiz,1),%edi

00001300 <category_remove_service>:
    1300:	55                   	push   %ebp
    1301:	89 e5                	mov    %esp,%ebp
    1303:	53                   	push   %ebx
    1304:	83 ec 14             	sub    $0x14,%esp
    1307:	8b 5d 08             	mov    0x8(%ebp),%ebx
    130a:	8b 43 10             	mov    0x10(%ebx),%eax
    130d:	89 04 24             	mov    %eax,(%esp)
    1310:	e8 5b 64 00 00       	call   7770 <fibril_mutex_is_locked>
    1315:	84 c0                	test   %al,%al
    1317:	74 62                	je     137b <category_remove_service+0x7b>
    1319:	c7 04 24 a0 2b 02 00 	movl   $0x22ba0,(%esp)
    1320:	e8 4b 64 00 00       	call   7770 <fibril_mutex_is_locked>
    1325:	84 c0                	test   %al,%al
    1327:	74 6e                	je     1397 <category_remove_service+0x97>
    1329:	8b 13                	mov    (%ebx),%edx
    132b:	85 d2                	test   %edx,%edx
    132d:	74 0e                	je     133d <category_remove_service+0x3d>
    132f:	8b 43 04             	mov    0x4(%ebx),%eax
    1332:	85 c0                	test   %eax,%eax
    1334:	74 07                	je     133d <category_remove_service+0x3d>
    1336:	89 10                	mov    %edx,(%eax)
    1338:	8b 13                	mov    (%ebx),%edx
    133a:	89 42 04             	mov    %eax,0x4(%edx)
    133d:	8b 53 08             	mov    0x8(%ebx),%edx
    1340:	c7 03 00 00 00 00    	movl   $0x0,(%ebx)
    1346:	c7 43 04 00 00 00 00 	movl   $0x0,0x4(%ebx)
    134d:	85 d2                	test   %edx,%edx
    134f:	74 0f                	je     1360 <category_remove_service+0x60>
    1351:	8b 43 0c             	mov    0xc(%ebx),%eax
    1354:	85 c0                	test   %eax,%eax
    1356:	74 08                	je     1360 <category_remove_service+0x60>
    1358:	89 10                	mov    %edx,(%eax)
    135a:	8b 53 08             	mov    0x8(%ebx),%edx
    135d:	89 42 04             	mov    %eax,0x4(%edx)
    1360:	c7 43 08 00 00 00 00 	movl   $0x0,0x8(%ebx)
    1367:	c7 43 0c 00 00 00 00 	movl   $0x0,0xc(%ebx)
    136e:	89 5d 08             	mov    %ebx,0x8(%ebp)
    1371:	83 c4 14             	add    $0x14,%esp
    1374:	5b                   	pop    %ebx
    1375:	5d                   	pop    %ebp
    1376:	e9 85 f1 00 00       	jmp    10500 <free>
    137b:	c7 44 24 08 8e 00 00 	movl   $0x8e,0x8(%esp)
    1382:	00 
    1383:	c7 44 24 04 62 00 02 	movl   $0x20062,0x4(%esp)
    138a:	00 
    138b:	c7 04 24 ec 00 02 00 	movl   $0x200ec,(%esp)
    1392:	e8 b9 98 01 00       	call   1ac50 <assert_abort>
    1397:	c7 44 24 08 8f 00 00 	movl   $0x8f,0x8(%esp)
    139e:	00 
    139f:	c7 44 24 04 62 00 02 	movl   $0x20062,0x4(%esp)
    13a6:	00 
    13a7:	c7 04 24 bc 00 02 00 	movl   $0x200bc,(%esp)
    13ae:	e8 9d 98 01 00       	call   1ac50 <assert_abort>
    13b3:	8d b6 00 00 00 00    	lea    0x0(%esi),%esi
    13b9:	8d bc 27 00 00 00 00 	lea    0x0(%edi,%eiz,1),%edi

000013c0 <category_get>:
    13c0:	55                   	push   %ebp
    13c1:	89 e5                	mov    %esp,%ebp
    13c3:	56                   	push   %esi
    13c4:	53                   	push   %ebx
    13c5:	83 ec 10             	sub    $0x10,%esp
    13c8:	8b 75 08             	mov    0x8(%ebp),%esi
    13cb:	8b 5d 0c             	mov    0xc(%ebp),%ebx
    13ce:	89 34 24             	mov    %esi,(%esp)
    13d1:	e8 9a 63 00 00       	call   7770 <fibril_mutex_is_locked>
    13d6:	84 c0                	test   %al,%al
    13d8:	74 2f                	je     1409 <category_get+0x49>
    13da:	8b 56 14             	mov    0x14(%esi),%edx
    13dd:	8d 4e 10             	lea    0x10(%esi),%ecx
    13e0:	39 ca                	cmp    %ecx,%edx
    13e2:	75 0b                	jne    13ef <category_get+0x2f>
    13e4:	eb 1a                	jmp    1400 <category_get+0x40>
    13e6:	66 90                	xchg   %ax,%ax
    13e8:	8b 52 04             	mov    0x4(%edx),%edx
    13eb:	39 ca                	cmp    %ecx,%edx
    13ed:	74 11                	je     1400 <category_get+0x40>
    13ef:	8d 42 e8             	lea    -0x18(%edx),%eax
    13f2:	39 58 10             	cmp    %ebx,0x10(%eax)
    13f5:	75 f1                	jne    13e8 <category_get+0x28>
    13f7:	83 c4 10             	add    $0x10,%esp
    13fa:	5b                   	pop    %ebx
    13fb:	5e                   	pop    %esi
    13fc:	5d                   	pop    %ebp
    13fd:	c3                   	ret    
    13fe:	66 90                	xchg   %ax,%ax
    1400:	83 c4 10             	add    $0x10,%esp
    1403:	31 c0                	xor    %eax,%eax
    1405:	5b                   	pop    %ebx
    1406:	5e                   	pop    %esi
    1407:	5d                   	pop    %ebp
    1408:	c3                   	ret    
    1409:	c7 44 24 08 9a 00 00 	movl   $0x9a,0x8(%esp)
    1410:	00 
    1411:	c7 44 24 04 62 00 02 	movl   $0x20062,0x4(%esp)
    1418:	00 
    1419:	c7 04 24 70 00 02 00 	movl   $0x20070,(%esp)
    1420:	e8 2b 98 01 00       	call   1ac50 <assert_abort>
    1425:	8d 74 26 00          	lea    0x0(%esi,%eiz,1),%esi
    1429:	8d bc 27 00 00 00 00 	lea    0x0(%edi,%eiz,1),%edi

00001430 <category_find_by_name>:
    1430:	55                   	push   %ebp
    1431:	89 e5                	mov    %esp,%ebp
    1433:	57                   	push   %edi
    1434:	56                   	push   %esi
    1435:	53                   	push   %ebx
    1436:	83 ec 2c             	sub    $0x2c,%esp
    1439:	8b 75 08             	mov    0x8(%ebp),%esi
    143c:	8b 7d 0c             	mov    0xc(%ebp),%edi
    143f:	89 34 24             	mov    %esi,(%esp)
    1442:	e8 29 63 00 00       	call   7770 <fibril_mutex_is_locked>
    1447:	84 c0                	test   %al,%al
    1449:	74 49                	je     1494 <category_find_by_name+0x64>
    144b:	8b 5e 14             	mov    0x14(%esi),%ebx
    144e:	83 c6 10             	add    $0x10,%esi
    1451:	89 75 e4             	mov    %esi,-0x1c(%ebp)
    1454:	39 f3                	cmp    %esi,%ebx
    1456:	75 10                	jne    1468 <category_find_by_name+0x38>
    1458:	eb 2e                	jmp    1488 <category_find_by_name+0x58>
    145a:	8d b6 00 00 00 00    	lea    0x0(%esi),%esi
    1460:	8b 5b 04             	mov    0x4(%ebx),%ebx
    1463:	3b 5d e4             	cmp    -0x1c(%ebp),%ebx
    1466:	74 20                	je     1488 <category_find_by_name+0x58>
    1468:	8d 73 e8             	lea    -0x18(%ebx),%esi
    146b:	89 7c 24 04          	mov    %edi,0x4(%esp)
    146f:	8b 46 14             	mov    0x14(%esi),%eax
    1472:	89 04 24             	mov    %eax,(%esp)
    1475:	e8 d6 33 00 00       	call   4850 <str_cmp>
    147a:	85 c0                	test   %eax,%eax
    147c:	75 e2                	jne    1460 <category_find_by_name+0x30>
    147e:	83 c4 2c             	add    $0x2c,%esp
    1481:	89 f0                	mov    %esi,%eax
    1483:	5b                   	pop    %ebx
    1484:	5e                   	pop    %esi
    1485:	5f                   	pop    %edi
    1486:	5d                   	pop    %ebp
    1487:	c3                   	ret    
    1488:	83 c4 2c             	add    $0x2c,%esp
    148b:	31 f6                	xor    %esi,%esi
    148d:	89 f0                	mov    %esi,%eax
    148f:	5b                   	pop    %ebx
    1490:	5e                   	pop    %esi
    1491:	5f                   	pop    %edi
    1492:	5d                   	pop    %ebp
    1493:	c3                   	ret    
    1494:	c7 44 24 08 a9 00 00 	movl   $0xa9,0x8(%esp)
    149b:	00 
    149c:	c7 44 24 04 62 00 02 	movl   $0x20062,0x4(%esp)
    14a3:	00 
    14a4:	c7 04 24 70 00 02 00 	movl   $0x20070,(%esp)
    14ab:	e8 a0 97 01 00       	call   1ac50 <assert_abort>

000014b0 <category_get_services>:
    14b0:	55                   	push   %ebp
    14b1:	89 e5                	mov    %esp,%ebp
    14b3:	57                   	push   %edi
    14b4:	56                   	push   %esi
    14b5:	53                   	push   %ebx
    14b6:	83 ec 2c             	sub    $0x2c,%esp
    14b9:	8b 7d 08             	mov    0x8(%ebp),%edi
    14bc:	8b 75 0c             	mov    0xc(%ebp),%esi
    14bf:	89 3c 24             	mov    %edi,(%esp)
    14c2:	e8 a9 62 00 00       	call   7770 <fibril_mutex_is_locked>
    14c7:	84 c0                	test   %al,%al
    14c9:	74 5b                	je     1526 <category_get_services+0x76>
    14cb:	8b 55 10             	mov    0x10(%ebp),%edx
    14ce:	8d 5f 20             	lea    0x20(%edi),%ebx
    14d1:	c1 ea 02             	shr    $0x2,%edx
    14d4:	89 1c 24             	mov    %ebx,(%esp)
    14d7:	89 55 e4             	mov    %edx,-0x1c(%ebp)
    14da:	e8 91 4a 01 00       	call   15f70 <list_count>
    14df:	8b 4d 14             	mov    0x14(%ebp),%ecx
    14e2:	8b 55 e4             	mov    -0x1c(%ebp),%edx
    14e5:	c1 e0 02             	shl    $0x2,%eax
    14e8:	f6 45 10 03          	testb  $0x3,0x10(%ebp)
    14ec:	89 01                	mov    %eax,(%ecx)
    14ee:	75 2f                	jne    151f <category_get_services+0x6f>
    14f0:	8b 47 24             	mov    0x24(%edi),%eax
    14f3:	31 c9                	xor    %ecx,%ecx
    14f5:	39 d8                	cmp    %ebx,%eax
    14f7:	74 1c                	je     1515 <category_get_services+0x65>
    14f9:	8d b4 26 00 00 00 00 	lea    0x0(%esi,%eiz,1),%esi
    1500:	39 ca                	cmp    %ecx,%edx
    1502:	76 09                	jbe    150d <category_get_services+0x5d>
    1504:	8b 78 14             	mov    0x14(%eax),%edi
    1507:	8b 7f 20             	mov    0x20(%edi),%edi
    150a:	89 3c 8e             	mov    %edi,(%esi,%ecx,4)
    150d:	8b 40 04             	mov    0x4(%eax),%eax
    1510:	41                   	inc    %ecx
    1511:	39 d8                	cmp    %ebx,%eax
    1513:	75 eb                	jne    1500 <category_get_services+0x50>
    1515:	31 c0                	xor    %eax,%eax
    1517:	83 c4 2c             	add    $0x2c,%esp
    151a:	5b                   	pop    %ebx
    151b:	5e                   	pop    %esi
    151c:	5f                   	pop    %edi
    151d:	5d                   	pop    %ebp
    151e:	c3                   	ret    
    151f:	b8 f2 ff ff ff       	mov    $0xfffffff2,%eax
    1524:	eb f1                	jmp    1517 <category_get_services+0x67>
    1526:	c7 44 24 08 bc 00 00 	movl   $0xbc,0x8(%esp)
    152d:	00 
    152e:	c7 44 24 04 62 00 02 	movl   $0x20062,0x4(%esp)
    1535:	00 
    1536:	c7 04 24 98 00 02 00 	movl   $0x20098,(%esp)
    153d:	e8 0e 97 01 00       	call   1ac50 <assert_abort>
    1542:	66 90                	xchg   %ax,%ax
    1544:	66 90                	xchg   %ax,%ax
    1546:	66 90                	xchg   %ax,%ax
    1548:	66 90                	xchg   %ax,%ax
    154a:	66 90                	xchg   %ax,%ax
    154c:	66 90                	xchg   %ax,%ax
    154e:	66 90                	xchg   %ax,%ax

00001550 <loc_fqsn_split>:
    1550:	55                   	push   %ebp
    1551:	89 e5                	mov    %esp,%ebp
    1553:	57                   	push   %edi
    1554:	56                   	push   %esi
    1555:	53                   	push   %ebx
    1556:	83 ec 4c             	sub    $0x4c,%esp
    1559:	89 c6                	mov    %eax,%esi
    155b:	89 55 c8             	mov    %edx,-0x38(%ebp)
    155e:	89 4d c4             	mov    %ecx,-0x3c(%ebp)
    1561:	c7 45 e4 00 00 00 00 	movl   $0x0,-0x1c(%ebp)
    1568:	31 db                	xor    %ebx,%ebx
    156a:	c7 45 d0 00 00 00 00 	movl   $0x0,-0x30(%ebp)
    1571:	c7 45 cc 00 00 00 00 	movl   $0x0,-0x34(%ebp)
    1578:	c7 45 d4 00 00 00 00 	movl   $0x0,-0x2c(%ebp)
    157f:	8d 7d e4             	lea    -0x1c(%ebp),%edi
    1582:	8d b6 00 00 00 00    	lea    0x0(%esi),%esi
    1588:	c7 44 24 08 ff ff ff 	movl   $0xffffffff,0x8(%esp)
    158f:	ff 
    1590:	89 7c 24 04          	mov    %edi,0x4(%esp)
    1594:	89 34 24             	mov    %esi,(%esp)
    1597:	e8 44 29 00 00       	call   3ee0 <str_decode>
    159c:	85 c0                	test   %eax,%eax
    159e:	74 28                	je     15c8 <loc_fqsn_split+0x78>
    15a0:	83 f8 2f             	cmp    $0x2f,%eax
    15a3:	74 0b                	je     15b0 <loc_fqsn_split+0x60>
    15a5:	8b 45 e4             	mov    -0x1c(%ebp),%eax
    15a8:	89 c3                	mov    %eax,%ebx
    15aa:	eb dc                	jmp    1588 <loc_fqsn_split+0x38>
    15ac:	8d 74 26 00          	lea    0x0(%esi,%eiz,1),%esi
    15b0:	8b 4d d4             	mov    -0x2c(%ebp),%ecx
    15b3:	8b 55 e4             	mov    -0x1c(%ebp),%edx
    15b6:	41                   	inc    %ecx
    15b7:	89 d0                	mov    %edx,%eax
    15b9:	89 5d cc             	mov    %ebx,-0x34(%ebp)
    15bc:	89 4d d4             	mov    %ecx,-0x2c(%ebp)
    15bf:	89 55 d0             	mov    %edx,-0x30(%ebp)
    15c2:	89 c3                	mov    %eax,%ebx
    15c4:	eb c2                	jmp    1588 <loc_fqsn_split+0x38>
    15c6:	66 90                	xchg   %ax,%ax
    15c8:	83 7d d4 01          	cmpl   $0x1,-0x2c(%ebp)
    15cc:	76 0a                	jbe    15d8 <loc_fqsn_split+0x88>
    15ce:	83 c4 4c             	add    $0x4c,%esp
    15d1:	31 c0                	xor    %eax,%eax
    15d3:	5b                   	pop    %ebx
    15d4:	5e                   	pop    %esi
    15d5:	5f                   	pop    %edi
    15d6:	5d                   	pop    %ebp
    15d7:	c3                   	ret    
    15d8:	8b 55 d4             	mov    -0x2c(%ebp),%edx
    15db:	85 d2                	test   %edx,%edx
    15dd:	74 51                	je     1630 <loc_fqsn_split+0xe0>
    15df:	8b 55 cc             	mov    -0x34(%ebp),%edx
    15e2:	89 34 24             	mov    %esi,(%esp)
    15e5:	89 54 24 04          	mov    %edx,0x4(%esp)
    15e9:	e8 32 4d 00 00       	call   6320 <str_ndup>
    15ee:	8b 55 c8             	mov    -0x38(%ebp),%edx
    15f1:	85 c0                	test   %eax,%eax
    15f3:	89 02                	mov    %eax,(%edx)
    15f5:	74 d7                	je     15ce <loc_fqsn_split+0x7e>
    15f7:	8b 45 d0             	mov    -0x30(%ebp),%eax
    15fa:	01 c6                	add    %eax,%esi
    15fc:	89 34 24             	mov    %esi,(%esp)
    15ff:	e8 bc 4c 00 00       	call   62c0 <str_dup>
    1604:	8b 55 c4             	mov    -0x3c(%ebp),%edx
    1607:	85 c0                	test   %eax,%eax
    1609:	89 02                	mov    %eax,(%edx)
    160b:	74 47                	je     1654 <loc_fqsn_split+0x104>
    160d:	c7 44 24 04 91 10 02 	movl   $0x21091,0x4(%esp)
    1614:	00 
    1615:	89 04 24             	mov    %eax,(%esp)
    1618:	e8 33 32 00 00       	call   4850 <str_cmp>
    161d:	85 c0                	test   %eax,%eax
    161f:	74 26                	je     1647 <loc_fqsn_split+0xf7>
    1621:	83 c4 4c             	add    $0x4c,%esp
    1624:	b0 01                	mov    $0x1,%al
    1626:	5b                   	pop    %ebx
    1627:	5e                   	pop    %esi
    1628:	5f                   	pop    %edi
    1629:	5d                   	pop    %ebp
    162a:	c3                   	ret    
    162b:	90                   	nop
    162c:	8d 74 26 00          	lea    0x0(%esi,%eiz,1),%esi
    1630:	c7 04 24 91 10 02 00 	movl   $0x21091,(%esp)
    1637:	e8 84 4c 00 00       	call   62c0 <str_dup>
    163c:	8b 55 c8             	mov    -0x38(%ebp),%edx
    163f:	85 c0                	test   %eax,%eax
    1641:	89 02                	mov    %eax,(%edx)
    1643:	75 b7                	jne    15fc <loc_fqsn_split+0xac>
    1645:	eb 87                	jmp    15ce <loc_fqsn_split+0x7e>
    1647:	8b 55 c4             	mov    -0x3c(%ebp),%edx
    164a:	8b 02                	mov    (%edx),%eax
    164c:	89 04 24             	mov    %eax,(%esp)
    164f:	e8 ac ee 00 00       	call   10500 <free>
    1654:	8b 55 c8             	mov    -0x38(%ebp),%edx
    1657:	8b 02                	mov    (%edx),%eax
    1659:	89 04 24             	mov    %eax,(%esp)
    165c:	e8 9f ee 00 00       	call   10500 <free>
    1661:	e9 68 ff ff ff       	jmp    15ce <loc_fqsn_split+0x7e>
    1666:	8d 76 00             	lea    0x0(%esi),%esi
    1669:	8d bc 27 00 00 00 00 	lea    0x0(%edi,%eiz,1),%edi

00001670 <loc_service_get_id.isra.11>:
    1670:	55                   	push   %ebp
    1671:	89 e5                	mov    %esp,%ebp
    1673:	57                   	push   %edi
    1674:	56                   	push   %esi
    1675:	53                   	push   %ebx
    1676:	83 ec 4c             	sub    $0x4c,%esp
    1679:	89 45 d0             	mov    %eax,-0x30(%ebp)
    167c:	8d 45 dc             	lea    -0x24(%ebp),%eax
    167f:	89 55 d4             	mov    %edx,-0x2c(%ebp)
    1682:	c7 44 24 14 00 00 00 	movl   $0x0,0x14(%esp)
    1689:	00 
    168a:	c7 44 24 10 00 00 00 	movl   $0x0,0x10(%esp)
    1691:	00 
    1692:	c7 44 24 0c ff 00 00 	movl   $0xff,0xc(%esp)
    1699:	00 
    169a:	c7 44 24 08 00 00 00 	movl   $0x0,0x8(%esp)
    16a1:	00 
    16a2:	c7 44 24 04 01 00 00 	movl   $0x1,0x4(%esp)
    16a9:	00 
    16aa:	89 04 24             	mov    %eax,(%esp)
    16ad:	e8 9e 33 01 00       	call   14a50 <async_data_write_accept>
    16b2:	85 c0                	test   %eax,%eax
    16b4:	74 1a                	je     16d0 <loc_service_get_id.isra.11+0x60>
    16b6:	89 44 24 04          	mov    %eax,0x4(%esp)
    16ba:	8b 45 d0             	mov    -0x30(%ebp),%eax
    16bd:	89 04 24             	mov    %eax,(%esp)
    16c0:	e8 6b 18 01 00       	call   12f30 <async_answer_0>
    16c5:	83 c4 4c             	add    $0x4c,%esp
    16c8:	5b                   	pop    %ebx
    16c9:	5e                   	pop    %esi
    16ca:	5f                   	pop    %edi
    16cb:	5d                   	pop    %ebp
    16cc:	c3                   	ret    
    16cd:	8d 76 00             	lea    0x0(%esi),%esi
    16d0:	8d 4d e4             	lea    -0x1c(%ebp),%ecx
    16d3:	8d 55 e0             	lea    -0x20(%ebp),%edx
    16d6:	8b 45 dc             	mov    -0x24(%ebp),%eax
    16d9:	e8 72 fe ff ff       	call   1550 <loc_fqsn_split>
    16de:	84 c0                	test   %al,%al
    16e0:	8b 45 dc             	mov    -0x24(%ebp),%eax
    16e3:	89 04 24             	mov    %eax,(%esp)
    16e6:	0f 84 c0 00 00 00    	je     17ac <loc_service_get_id.isra.11+0x13c>
    16ec:	e8 0f ee 00 00       	call   10500 <free>
    16f1:	c7 04 24 a0 2b 02 00 	movl   $0x22ba0,(%esp)
    16f8:	e8 43 5e 00 00       	call   7540 <fibril_mutex_lock>
    16fd:	8d 76 00             	lea    0x0(%esi),%esi
    1700:	c7 04 24 a0 2b 02 00 	movl   $0x22ba0,(%esp)
    1707:	8b 75 e4             	mov    -0x1c(%ebp),%esi
    170a:	8b 5d e0             	mov    -0x20(%ebp),%ebx
    170d:	e8 5e 60 00 00       	call   7770 <fibril_mutex_is_locked>
    1712:	84 c0                	test   %al,%al
    1714:	0f 84 14 01 00 00    	je     182e <loc_service_get_id.isra.11+0x1be>
    171a:	8b 3d c4 2b 02 00    	mov    0x22bc4,%edi
    1720:	81 ff c0 2b 02 00    	cmp    $0x22bc0,%edi
    1726:	75 17                	jne    173f <loc_service_get_id.isra.11+0xcf>
    1728:	e9 a3 00 00 00       	jmp    17d0 <loc_service_get_id.isra.11+0x160>
    172d:	8d 76 00             	lea    0x0(%esi),%esi
    1730:	8b 7f 04             	mov    0x4(%edi),%edi
    1733:	81 ff c0 2b 02 00    	cmp    $0x22bc0,%edi
    1739:	0f 84 91 00 00 00    	je     17d0 <loc_service_get_id.isra.11+0x160>
    173f:	89 5c 24 04          	mov    %ebx,0x4(%esp)
    1743:	8b 47 24             	mov    0x24(%edi),%eax
    1746:	8b 40 0c             	mov    0xc(%eax),%eax
    1749:	89 04 24             	mov    %eax,(%esp)
    174c:	e8 ff 30 00 00       	call   4850 <str_cmp>
    1751:	85 c0                	test   %eax,%eax
    1753:	75 db                	jne    1730 <loc_service_get_id.isra.11+0xc0>
    1755:	89 74 24 04          	mov    %esi,0x4(%esp)
    1759:	8b 47 28             	mov    0x28(%edi),%eax
    175c:	89 04 24             	mov    %eax,(%esp)
    175f:	e8 ec 30 00 00       	call   4850 <str_cmp>
    1764:	85 c0                	test   %eax,%eax
    1766:	75 c8                	jne    1730 <loc_service_get_id.isra.11+0xc0>
    1768:	8b 47 20             	mov    0x20(%edi),%eax
    176b:	c7 44 24 04 00 00 00 	movl   $0x0,0x4(%esp)
    1772:	00 
    1773:	89 44 24 08          	mov    %eax,0x8(%esp)
    1777:	8b 45 d0             	mov    -0x30(%ebp),%eax
    177a:	89 04 24             	mov    %eax,(%esp)
    177d:	e8 ee 17 01 00       	call   12f70 <async_answer_1>
    1782:	c7 04 24 a0 2b 02 00 	movl   $0x22ba0,(%esp)
    1789:	e8 d2 5e 00 00       	call   7660 <fibril_mutex_unlock>
    178e:	8b 45 e0             	mov    -0x20(%ebp),%eax
    1791:	89 04 24             	mov    %eax,(%esp)
    1794:	e8 67 ed 00 00       	call   10500 <free>
    1799:	8b 45 e4             	mov    -0x1c(%ebp),%eax
    179c:	89 04 24             	mov    %eax,(%esp)
    179f:	e8 5c ed 00 00       	call   10500 <free>
    17a4:	83 c4 4c             	add    $0x4c,%esp
    17a7:	5b                   	pop    %ebx
    17a8:	5e                   	pop    %esi
    17a9:	5f                   	pop    %edi
    17aa:	5d                   	pop    %ebp
    17ab:	c3                   	ret    
    17ac:	e8 4f ed 00 00       	call   10500 <free>
    17b1:	8b 45 d0             	mov    -0x30(%ebp),%eax
    17b4:	c7 44 24 04 f2 ff ff 	movl   $0xfffffff2,0x4(%esp)
    17bb:	ff 
    17bc:	89 04 24             	mov    %eax,(%esp)
    17bf:	e8 6c 17 01 00       	call   12f30 <async_answer_0>
    17c4:	83 c4 4c             	add    $0x4c,%esp
    17c7:	5b                   	pop    %ebx
    17c8:	5e                   	pop    %esi
    17c9:	5f                   	pop    %edi
    17ca:	5d                   	pop    %ebp
    17cb:	c3                   	ret    
    17cc:	8d 74 26 00          	lea    0x0(%esi,%eiz,1),%esi
    17d0:	8b 45 d4             	mov    -0x2c(%ebp),%eax
    17d3:	f6 00 01             	testb  $0x1,(%eax)
    17d6:	74 19                	je     17f1 <loc_service_get_id.isra.11+0x181>
    17d8:	c7 44 24 04 a0 2b 02 	movl   $0x22ba0,0x4(%esp)
    17df:	00 
    17e0:	c7 04 24 00 2c 02 00 	movl   $0x22c00,(%esp)
    17e7:	e8 a4 69 00 00       	call   8190 <fibril_condvar_wait>
    17ec:	e9 0f ff ff ff       	jmp    1700 <loc_service_get_id.isra.11+0x90>
    17f1:	8b 45 d0             	mov    -0x30(%ebp),%eax
    17f4:	c7 44 24 04 ff ff ff 	movl   $0xffffffff,0x4(%esp)
    17fb:	ff 
    17fc:	89 04 24             	mov    %eax,(%esp)
    17ff:	e8 2c 17 01 00       	call   12f30 <async_answer_0>
    1804:	8b 45 e0             	mov    -0x20(%ebp),%eax
    1807:	89 04 24             	mov    %eax,(%esp)
    180a:	e8 f1 ec 00 00       	call   10500 <free>
    180f:	8b 45 e4             	mov    -0x1c(%ebp),%eax
    1812:	89 04 24             	mov    %eax,(%esp)
    1815:	e8 e6 ec 00 00       	call   10500 <free>
    181a:	c7 04 24 a0 2b 02 00 	movl   $0x22ba0,(%esp)
    1821:	e8 3a 5e 00 00       	call   7660 <fibril_mutex_unlock>
    1826:	83 c4 4c             	add    $0x4c,%esp
    1829:	5b                   	pop    %ebx
    182a:	5e                   	pop    %esi
    182b:	5f                   	pop    %edi
    182c:	5d                   	pop    %ebp
    182d:	c3                   	ret    
    182e:	c7 44 24 08 db 00 00 	movl   $0xdb,0x8(%esp)
    1835:	00 
    1836:	c7 44 24 04 16 01 02 	movl   $0x20116,0x4(%esp)
    183d:	00 
    183e:	c7 04 24 bc 00 02 00 	movl   $0x200bc,(%esp)
    1845:	e8 06 94 01 00       	call   1ac50 <assert_abort>
    184a:	8d b6 00 00 00 00    	lea    0x0(%esi),%esi

00001850 <loc_namespace_get_id.isra.12>:
    1850:	55                   	push   %ebp
    1851:	89 e5                	mov    %esp,%ebp
    1853:	57                   	push   %edi
    1854:	56                   	push   %esi
    1855:	53                   	push   %ebx
    1856:	83 ec 4c             	sub    $0x4c,%esp
    1859:	89 c6                	mov    %eax,%esi
    185b:	8d 45 e4             	lea    -0x1c(%ebp),%eax
    185e:	89 55 d4             	mov    %edx,-0x2c(%ebp)
    1861:	c7 44 24 14 00 00 00 	movl   $0x0,0x14(%esp)
    1868:	00 
    1869:	c7 44 24 10 00 00 00 	movl   $0x0,0x10(%esp)
    1870:	00 
    1871:	c7 44 24 0c ff 00 00 	movl   $0xff,0xc(%esp)
    1878:	00 
    1879:	c7 44 24 08 00 00 00 	movl   $0x0,0x8(%esp)
    1880:	00 
    1881:	c7 44 24 04 01 00 00 	movl   $0x1,0x4(%esp)
    1888:	00 
    1889:	89 04 24             	mov    %eax,(%esp)
    188c:	e8 bf 31 01 00       	call   14a50 <async_data_write_accept>
    1891:	85 c0                	test   %eax,%eax
    1893:	74 1b                	je     18b0 <loc_namespace_get_id.isra.12+0x60>
    1895:	89 44 24 04          	mov    %eax,0x4(%esp)
    1899:	89 34 24             	mov    %esi,(%esp)
    189c:	e8 8f 16 01 00       	call   12f30 <async_answer_0>
    18a1:	83 c4 4c             	add    $0x4c,%esp
    18a4:	5b                   	pop    %ebx
    18a5:	5e                   	pop    %esi
    18a6:	5f                   	pop    %edi
    18a7:	5d                   	pop    %ebp
    18a8:	c3                   	ret    
    18a9:	8d b4 26 00 00 00 00 	lea    0x0(%esi,%eiz,1),%esi
    18b0:	c7 04 24 a0 2b 02 00 	movl   $0x22ba0,(%esp)
    18b7:	e8 84 5c 00 00       	call   7540 <fibril_mutex_lock>
    18bc:	8d 74 26 00          	lea    0x0(%esi,%eiz,1),%esi
    18c0:	c7 04 24 a0 2b 02 00 	movl   $0x22ba0,(%esp)
    18c7:	8b 5d e4             	mov    -0x1c(%ebp),%ebx
    18ca:	e8 a1 5e 00 00       	call   7770 <fibril_mutex_is_locked>
    18cf:	84 c0                	test   %al,%al
    18d1:	0f 84 b6 00 00 00    	je     198d <loc_namespace_get_id.isra.12+0x13d>
    18d7:	8b 3d bc 2b 02 00    	mov    0x22bbc,%edi
    18dd:	81 ff b8 2b 02 00    	cmp    $0x22bb8,%edi
    18e3:	75 0e                	jne    18f3 <loc_namespace_get_id.isra.12+0xa3>
    18e5:	eb 59                	jmp    1940 <loc_namespace_get_id.isra.12+0xf0>
    18e7:	90                   	nop
    18e8:	8b 7f 04             	mov    0x4(%edi),%edi
    18eb:	81 ff b8 2b 02 00    	cmp    $0x22bb8,%edi
    18f1:	74 4d                	je     1940 <loc_namespace_get_id.isra.12+0xf0>
    18f3:	89 5c 24 04          	mov    %ebx,0x4(%esp)
    18f7:	8b 47 0c             	mov    0xc(%edi),%eax
    18fa:	89 04 24             	mov    %eax,(%esp)
    18fd:	e8 4e 2f 00 00       	call   4850 <str_cmp>
    1902:	85 c0                	test   %eax,%eax
    1904:	75 e2                	jne    18e8 <loc_namespace_get_id.isra.12+0x98>
    1906:	8b 47 08             	mov    0x8(%edi),%eax
    1909:	89 34 24             	mov    %esi,(%esp)
    190c:	89 44 24 08          	mov    %eax,0x8(%esp)
    1910:	c7 44 24 04 00 00 00 	movl   $0x0,0x4(%esp)
    1917:	00 
    1918:	e8 53 16 01 00       	call   12f70 <async_answer_1>
    191d:	c7 04 24 a0 2b 02 00 	movl   $0x22ba0,(%esp)
    1924:	e8 37 5d 00 00       	call   7660 <fibril_mutex_unlock>
    1929:	8b 45 e4             	mov    -0x1c(%ebp),%eax
    192c:	89 04 24             	mov    %eax,(%esp)
    192f:	e8 cc eb 00 00       	call   10500 <free>
    1934:	83 c4 4c             	add    $0x4c,%esp
    1937:	5b                   	pop    %ebx
    1938:	5e                   	pop    %esi
    1939:	5f                   	pop    %edi
    193a:	5d                   	pop    %ebp
    193b:	c3                   	ret    
    193c:	8d 74 26 00          	lea    0x0(%esi,%eiz,1),%esi
    1940:	8b 45 d4             	mov    -0x2c(%ebp),%eax
    1943:	f6 00 01             	testb  $0x1,(%eax)
    1946:	74 19                	je     1961 <loc_namespace_get_id.isra.12+0x111>
    1948:	c7 44 24 04 a0 2b 02 	movl   $0x22ba0,0x4(%esp)
    194f:	00 
    1950:	c7 04 24 00 2c 02 00 	movl   $0x22c00,(%esp)
    1957:	e8 34 68 00 00       	call   8190 <fibril_condvar_wait>
    195c:	e9 5f ff ff ff       	jmp    18c0 <loc_namespace_get_id.isra.12+0x70>
    1961:	c7 44 24 04 ff ff ff 	movl   $0xffffffff,0x4(%esp)
    1968:	ff 
    1969:	89 34 24             	mov    %esi,(%esp)
    196c:	e8 bf 15 01 00       	call   12f30 <async_answer_0>
    1971:	8b 45 e4             	mov    -0x1c(%ebp),%eax
    1974:	89 04 24             	mov    %eax,(%esp)
    1977:	e8 84 eb 00 00       	call   10500 <free>
    197c:	c7 04 24 a0 2b 02 00 	movl   $0x22ba0,(%esp)
    1983:	e8 d8 5c 00 00       	call   7660 <fibril_mutex_unlock>
    1988:	e9 14 ff ff ff       	jmp    18a1 <loc_namespace_get_id.isra.12+0x51>
    198d:	c7 44 24 08 b8 00 00 	movl   $0xb8,0x8(%esp)
    1994:	00 
    1995:	c7 44 24 04 16 01 02 	movl   $0x20116,0x4(%esp)
    199c:	00 
    199d:	c7 04 24 bc 00 02 00 	movl   $0x200bc,(%esp)
    19a4:	e8 a7 92 01 00       	call   1ac50 <assert_abort>
    19a9:	8d b4 26 00 00 00 00 	lea    0x0(%esi,%eiz,1),%esi

000019b0 <loc_service_unregister_core>:
    19b0:	55                   	push   %ebp
    19b1:	89 e5                	mov    %esp,%ebp
    19b3:	57                   	push   %edi
    19b4:	56                   	push   %esi
    19b5:	53                   	push   %ebx
    19b6:	83 ec 1c             	sub    $0x1c,%esp
    19b9:	89 c6                	mov    %eax,%esi
    19bb:	c7 04 24 a0 2b 02 00 	movl   $0x22ba0,(%esp)
    19c2:	e8 a9 5d 00 00       	call   7770 <fibril_mutex_is_locked>
    19c7:	84 c0                	test   %al,%al
    19c9:	0f 84 68 01 00 00    	je     1b37 <loc_service_unregister_core+0x187>
    19cf:	c7 04 24 44 2e 02 00 	movl   $0x22e44,(%esp)
    19d6:	e8 95 5d 00 00       	call   7770 <fibril_mutex_is_locked>
    19db:	84 c0                	test   %al,%al
    19dd:	0f 84 38 01 00 00    	je     1b1b <loc_service_unregister_core+0x16b>
    19e3:	c7 04 24 a0 2b 02 00 	movl   $0x22ba0,(%esp)
    19ea:	8b 5e 24             	mov    0x24(%esi),%ebx
    19ed:	e8 7e 5d 00 00       	call   7770 <fibril_mutex_is_locked>
    19f2:	84 c0                	test   %al,%al
    19f4:	0f 84 05 01 00 00    	je     1aff <loc_service_unregister_core+0x14f>
    19fa:	8b 43 10             	mov    0x10(%ebx),%eax
    19fd:	48                   	dec    %eax
    19fe:	89 43 10             	mov    %eax,0x10(%ebx)
    1a01:	c7 04 24 a0 2b 02 00 	movl   $0x22ba0,(%esp)
    1a08:	e8 63 5d 00 00       	call   7770 <fibril_mutex_is_locked>
    1a0d:	84 c0                	test   %al,%al
    1a0f:	0f 84 ce 00 00 00    	je     1ae3 <loc_service_unregister_core+0x133>
    1a15:	8b 7b 10             	mov    0x10(%ebx),%edi
    1a18:	85 ff                	test   %edi,%edi
    1a1a:	75 34                	jne    1a50 <loc_service_unregister_core+0xa0>
    1a1c:	8b 13                	mov    (%ebx),%edx
    1a1e:	85 d2                	test   %edx,%edx
    1a20:	74 0e                	je     1a30 <loc_service_unregister_core+0x80>
    1a22:	8b 43 04             	mov    0x4(%ebx),%eax
    1a25:	85 c0                	test   %eax,%eax
    1a27:	74 07                	je     1a30 <loc_service_unregister_core+0x80>
    1a29:	89 10                	mov    %edx,(%eax)
    1a2b:	8b 13                	mov    (%ebx),%edx
    1a2d:	89 42 04             	mov    %eax,0x4(%edx)
    1a30:	8b 43 0c             	mov    0xc(%ebx),%eax
    1a33:	c7 03 00 00 00 00    	movl   $0x0,(%ebx)
    1a39:	c7 43 04 00 00 00 00 	movl   $0x0,0x4(%ebx)
    1a40:	89 04 24             	mov    %eax,(%esp)
    1a43:	e8 b8 ea 00 00       	call   10500 <free>
    1a48:	89 1c 24             	mov    %ebx,(%esp)
    1a4b:	e8 b0 ea 00 00       	call   10500 <free>
    1a50:	8b 16                	mov    (%esi),%edx
    1a52:	85 d2                	test   %edx,%edx
    1a54:	74 0e                	je     1a64 <loc_service_unregister_core+0xb4>
    1a56:	8b 46 04             	mov    0x4(%esi),%eax
    1a59:	85 c0                	test   %eax,%eax
    1a5b:	74 07                	je     1a64 <loc_service_unregister_core+0xb4>
    1a5d:	89 10                	mov    %edx,(%eax)
    1a5f:	8b 16                	mov    (%esi),%edx
    1a61:	89 42 04             	mov    %eax,0x4(%edx)
    1a64:	8b 56 08             	mov    0x8(%esi),%edx
    1a67:	c7 06 00 00 00 00    	movl   $0x0,(%esi)
    1a6d:	c7 46 04 00 00 00 00 	movl   $0x0,0x4(%esi)
    1a74:	85 d2                	test   %edx,%edx
    1a76:	74 0f                	je     1a87 <loc_service_unregister_core+0xd7>
    1a78:	8b 46 0c             	mov    0xc(%esi),%eax
    1a7b:	85 c0                	test   %eax,%eax
    1a7d:	74 08                	je     1a87 <loc_service_unregister_core+0xd7>
    1a7f:	89 10                	mov    %edx,(%eax)
    1a81:	8b 56 08             	mov    0x8(%esi),%edx
    1a84:	89 42 04             	mov    %eax,0x4(%edx)
    1a87:	8b 5e 1c             	mov    0x1c(%esi),%ebx
    1a8a:	8d 7e 18             	lea    0x18(%esi),%edi
    1a8d:	c7 46 08 00 00 00 00 	movl   $0x0,0x8(%esi)
    1a94:	c7 46 0c 00 00 00 00 	movl   $0x0,0xc(%esi)
    1a9b:	39 fb                	cmp    %edi,%ebx
    1a9d:	74 29                	je     1ac8 <loc_service_unregister_core+0x118>
    1a9f:	90                   	nop
    1aa0:	8b 43 08             	mov    0x8(%ebx),%eax
    1aa3:	83 eb 08             	sub    $0x8,%ebx
    1aa6:	89 04 24             	mov    %eax,(%esp)
    1aa9:	e8 92 5a 00 00       	call   7540 <fibril_mutex_lock>
    1aae:	89 1c 24             	mov    %ebx,(%esp)
    1ab1:	e8 4a f8 ff ff       	call   1300 <category_remove_service>
    1ab6:	8b 43 10             	mov    0x10(%ebx),%eax
    1ab9:	89 04 24             	mov    %eax,(%esp)
    1abc:	e8 9f 5b 00 00       	call   7660 <fibril_mutex_unlock>
    1ac1:	8b 5e 1c             	mov    0x1c(%esi),%ebx
    1ac4:	39 fb                	cmp    %edi,%ebx
    1ac6:	75 d8                	jne    1aa0 <loc_service_unregister_core+0xf0>
    1ac8:	8b 46 28             	mov    0x28(%esi),%eax
    1acb:	89 04 24             	mov    %eax,(%esp)
    1ace:	e8 2d ea 00 00       	call   10500 <free>
    1ad3:	89 34 24             	mov    %esi,(%esp)
    1ad6:	e8 25 ea 00 00       	call   10500 <free>
    1adb:	83 c4 1c             	add    $0x1c,%esp
    1ade:	5b                   	pop    %ebx
    1adf:	5e                   	pop    %esi
    1ae0:	5f                   	pop    %edi
    1ae1:	5d                   	pop    %ebp
    1ae2:	c3                   	ret    
    1ae3:	c7 44 24 08 1e 01 00 	movl   $0x11e,0x8(%esp)
    1aea:	00 
    1aeb:	c7 44 24 04 16 01 02 	movl   $0x20116,0x4(%esp)
    1af2:	00 
    1af3:	c7 04 24 bc 00 02 00 	movl   $0x200bc,(%esp)
    1afa:	e8 51 91 01 00       	call   1ac50 <assert_abort>
    1aff:	c7 44 24 08 35 01 00 	movl   $0x135,0x8(%esp)
    1b06:	00 
    1b07:	c7 44 24 04 16 01 02 	movl   $0x20116,0x4(%esp)
    1b0e:	00 
    1b0f:	c7 04 24 bc 00 02 00 	movl   $0x200bc,(%esp)
    1b16:	e8 35 91 01 00       	call   1ac50 <assert_abort>
    1b1b:	c7 44 24 08 3f 01 00 	movl   $0x13f,0x8(%esp)
    1b22:	00 
    1b23:	c7 44 24 04 16 01 02 	movl   $0x20116,0x4(%esp)
    1b2a:	00 
    1b2b:	c7 04 24 c4 01 02 00 	movl   $0x201c4,(%esp)
    1b32:	e8 19 91 01 00       	call   1ac50 <assert_abort>
    1b37:	c7 44 24 08 3e 01 00 	movl   $0x13e,0x8(%esp)
    1b3e:	00 
    1b3f:	c7 44 24 04 16 01 02 	movl   $0x20116,0x4(%esp)
    1b46:	00 
    1b47:	c7 04 24 bc 00 02 00 	movl   $0x200bc,(%esp)
    1b4e:	e8 fd 90 01 00       	call   1ac50 <assert_abort>
    1b53:	8d b6 00 00 00 00    	lea    0x0(%esi),%esi
    1b59:	8d bc 27 00 00 00 00 	lea    0x0(%edi,%eiz,1),%edi

00001b60 <loc_namespace_create>:
    1b60:	55                   	push   %ebp
    1b61:	89 e5                	mov    %esp,%ebp
    1b63:	56                   	push   %esi
    1b64:	53                   	push   %ebx
    1b65:	89 c6                	mov    %eax,%esi
    1b67:	83 ec 10             	sub    $0x10,%esp
    1b6a:	c7 04 24 a0 2b 02 00 	movl   $0x22ba0,(%esp)
    1b71:	e8 fa 5b 00 00       	call   7770 <fibril_mutex_is_locked>
    1b76:	84 c0                	test   %al,%al
    1b78:	0f 84 e9 00 00 00    	je     1c67 <loc_namespace_create+0x107>
    1b7e:	c7 04 24 a0 2b 02 00 	movl   $0x22ba0,(%esp)
    1b85:	e8 e6 5b 00 00       	call   7770 <fibril_mutex_is_locked>
    1b8a:	84 c0                	test   %al,%al
    1b8c:	0f 84 b9 00 00 00    	je     1c4b <loc_namespace_create+0xeb>
    1b92:	8b 1d bc 2b 02 00    	mov    0x22bbc,%ebx
    1b98:	81 fb b8 2b 02 00    	cmp    $0x22bb8,%ebx
    1b9e:	75 13                	jne    1bb3 <loc_namespace_create+0x53>
    1ba0:	eb 2e                	jmp    1bd0 <loc_namespace_create+0x70>
    1ba2:	8d b6 00 00 00 00    	lea    0x0(%esi),%esi
    1ba8:	8b 5b 04             	mov    0x4(%ebx),%ebx
    1bab:	81 fb b8 2b 02 00    	cmp    $0x22bb8,%ebx
    1bb1:	74 1d                	je     1bd0 <loc_namespace_create+0x70>
    1bb3:	89 74 24 04          	mov    %esi,0x4(%esp)
    1bb7:	8b 43 0c             	mov    0xc(%ebx),%eax
    1bba:	89 04 24             	mov    %eax,(%esp)
    1bbd:	e8 8e 2c 00 00       	call   4850 <str_cmp>
    1bc2:	85 c0                	test   %eax,%eax
    1bc4:	75 e2                	jne    1ba8 <loc_namespace_create+0x48>
    1bc6:	83 c4 10             	add    $0x10,%esp
    1bc9:	89 d8                	mov    %ebx,%eax
    1bcb:	5b                   	pop    %ebx
    1bcc:	5e                   	pop    %esi
    1bcd:	5d                   	pop    %ebp
    1bce:	c3                   	ret    
    1bcf:	90                   	nop
    1bd0:	c7 04 24 14 00 00 00 	movl   $0x14,(%esp)
    1bd7:	e8 14 e8 00 00       	call   103f0 <malloc>
    1bdc:	89 c3                	mov    %eax,%ebx
    1bde:	85 c0                	test   %eax,%eax
    1be0:	74 e4                	je     1bc6 <loc_namespace_create+0x66>
    1be2:	89 34 24             	mov    %esi,(%esp)
    1be5:	e8 d6 46 00 00       	call   62c0 <str_dup>
    1bea:	89 43 0c             	mov    %eax,0xc(%ebx)
    1bed:	85 c0                	test   %eax,%eax
    1bef:	74 4b                	je     1c3c <loc_namespace_create+0xdc>
    1bf1:	c7 04 24 c8 2b 02 00 	movl   $0x22bc8,(%esp)
    1bf8:	e8 43 59 00 00       	call   7540 <fibril_mutex_lock>
    1bfd:	a1 40 2e 02 00       	mov    0x22e40,%eax
    1c02:	40                   	inc    %eax
    1c03:	c7 04 24 c8 2b 02 00 	movl   $0x22bc8,(%esp)
    1c0a:	a3 40 2e 02 00       	mov    %eax,0x22e40
    1c0f:	e8 4c 5a 00 00       	call   7660 <fibril_mutex_unlock>
    1c14:	a1 40 2e 02 00       	mov    0x22e40,%eax
    1c19:	c7 43 10 00 00 00 00 	movl   $0x0,0x10(%ebx)
    1c20:	89 43 08             	mov    %eax,0x8(%ebx)
    1c23:	a1 b8 2b 02 00       	mov    0x22bb8,%eax
    1c28:	c7 43 04 b8 2b 02 00 	movl   $0x22bb8,0x4(%ebx)
    1c2f:	89 03                	mov    %eax,(%ebx)
    1c31:	89 58 04             	mov    %ebx,0x4(%eax)
    1c34:	89 1d b8 2b 02 00    	mov    %ebx,0x22bb8
    1c3a:	eb 8a                	jmp    1bc6 <loc_namespace_create+0x66>
    1c3c:	89 1c 24             	mov    %ebx,(%esp)
    1c3f:	31 db                	xor    %ebx,%ebx
    1c41:	e8 ba e8 00 00       	call   10500 <free>
    1c46:	e9 7b ff ff ff       	jmp    1bc6 <loc_namespace_create+0x66>
    1c4b:	c7 44 24 08 b8 00 00 	movl   $0xb8,0x8(%esp)
    1c52:	00 
    1c53:	c7 44 24 04 16 01 02 	movl   $0x20116,0x4(%esp)
    1c5a:	00 
    1c5b:	c7 04 24 bc 00 02 00 	movl   $0x200bc,(%esp)
    1c62:	e8 e9 8f 01 00       	call   1ac50 <assert_abort>
    1c67:	c7 44 24 08 00 01 00 	movl   $0x100,0x8(%esp)
    1c6e:	00 
    1c6f:	c7 44 24 04 16 01 02 	movl   $0x20116,0x4(%esp)
    1c76:	00 
    1c77:	c7 04 24 bc 00 02 00 	movl   $0x200bc,(%esp)
    1c7e:	e8 cd 8f 01 00       	call   1ac50 <assert_abort>
    1c83:	8d b6 00 00 00 00    	lea    0x0(%esi),%esi
    1c89:	8d bc 27 00 00 00 00 	lea    0x0(%edi,%eiz,1),%edi

00001c90 <loc_connection_consumer.isra.27>:
    1c90:	55                   	push   %ebp
    1c91:	89 e5                	mov    %esp,%ebp
    1c93:	57                   	push   %edi
    1c94:	56                   	push   %esi
    1c95:	53                   	push   %ebx
    1c96:	81 ec 8c 01 00 00    	sub    $0x18c,%esp
    1c9c:	c7 44 24 04 00 00 00 	movl   $0x0,0x4(%esp)
    1ca3:	00 
    1ca4:	89 04 24             	mov    %eax,(%esp)
    1ca7:	e8 84 12 01 00       	call   12f30 <async_answer_0>
    1cac:	8d 74 26 00          	lea    0x0(%esi,%eiz,1),%esi
    1cb0:	8d 85 c4 fe ff ff    	lea    -0x13c(%ebp),%eax
    1cb6:	c7 44 24 04 00 00 00 	movl   $0x0,0x4(%esp)
    1cbd:	00 
    1cbe:	89 04 24             	mov    %eax,(%esp)
    1cc1:	e8 3a fc 00 00       	call   11900 <async_get_call_timeout>
    1cc6:	89 c3                	mov    %eax,%ebx
    1cc8:	8b 85 c4 fe ff ff    	mov    -0x13c(%ebp),%eax
    1cce:	85 c0                	test   %eax,%eax
    1cd0:	0f 84 5a 0a 00 00    	je     2730 <loc_connection_consumer.isra.27+0xaa0>
    1cd6:	2d 05 04 00 00       	sub    $0x405,%eax
    1cdb:	83 f8 0f             	cmp    $0xf,%eax
    1cde:	76 18                	jbe    1cf8 <loc_connection_consumer.isra.27+0x68>
    1ce0:	c7 44 24 04 ff ff ff 	movl   $0xffffffff,0x4(%esp)
    1ce7:	ff 
    1ce8:	89 1c 24             	mov    %ebx,(%esp)
    1ceb:	e8 40 12 01 00       	call   12f30 <async_answer_0>
    1cf0:	eb be                	jmp    1cb0 <loc_connection_consumer.isra.27+0x20>
    1cf2:	8d b6 00 00 00 00    	lea    0x0(%esi),%esi
    1cf8:	ff 24 85 10 02 02 00 	jmp    *0x20210(,%eax,4)
    1cff:	90                   	nop
    1d00:	8d 85 c0 fe ff ff    	lea    -0x140(%ebp),%eax
    1d06:	8d 95 bc fe ff ff    	lea    -0x144(%ebp),%edx
    1d0c:	89 44 24 04          	mov    %eax,0x4(%esp)
    1d10:	89 14 24             	mov    %edx,(%esp)
    1d13:	e8 88 27 01 00       	call   144a0 <async_data_read_receive>
    1d18:	84 c0                	test   %al,%al
    1d1a:	0f 84 e8 04 00 00    	je     2208 <loc_connection_consumer.isra.27+0x578>
    1d20:	8b 8d c0 fe ff ff    	mov    -0x140(%ebp),%ecx
    1d26:	be fd c0 0f fc       	mov    $0xfc0fc0fd,%esi
    1d2b:	89 c8                	mov    %ecx,%eax
    1d2d:	f7 e6                	mul    %esi
    1d2f:	89 95 94 fe ff ff    	mov    %edx,-0x16c(%ebp)
    1d35:	89 85 90 fe ff ff    	mov    %eax,-0x170(%ebp)
    1d3b:	8b 85 94 fe ff ff    	mov    -0x16c(%ebp),%eax
    1d41:	c1 e8 08             	shr    $0x8,%eax
    1d44:	89 c2                	mov    %eax,%edx
    1d46:	c1 e2 08             	shl    $0x8,%edx
    1d49:	8d 04 82             	lea    (%edx,%eax,4),%eax
    1d4c:	39 c1                	cmp    %eax,%ecx
    1d4e:	0f 85 8c 0a 00 00    	jne    27e0 <loc_connection_consumer.isra.27+0xb50>
    1d54:	c7 04 24 a0 2b 02 00 	movl   $0x22ba0,(%esp)
    1d5b:	e8 e0 57 00 00       	call   7540 <fibril_mutex_lock>
    1d60:	8b 85 c0 fe ff ff    	mov    -0x140(%ebp),%eax
    1d66:	f7 e6                	mul    %esi
    1d68:	c7 04 24 b8 2b 02 00 	movl   $0x22bb8,(%esp)
    1d6f:	89 d6                	mov    %edx,%esi
    1d71:	c1 ee 08             	shr    $0x8,%esi
    1d74:	e8 f7 41 01 00       	call   15f70 <list_count>
    1d79:	39 c6                	cmp    %eax,%esi
    1d7b:	0f 84 46 0c 00 00    	je     29c7 <loc_connection_consumer.isra.27+0xd37>
    1d81:	c7 04 24 a0 2b 02 00 	movl   $0x22ba0,(%esp)
    1d88:	e8 d3 58 00 00       	call   7660 <fibril_mutex_unlock>
    1d8d:	c7 44 24 04 f0 ff ff 	movl   $0xfffffff0,0x4(%esp)
    1d94:	ff 
    1d95:	8b 85 bc fe ff ff    	mov    -0x144(%ebp),%eax
    1d9b:	89 04 24             	mov    %eax,(%esp)
    1d9e:	e8 8d 11 01 00       	call   12f30 <async_answer_0>
    1da3:	c7 44 24 04 f0 ff ff 	movl   $0xfffffff0,0x4(%esp)
    1daa:	ff 
    1dab:	89 1c 24             	mov    %ebx,(%esp)
    1dae:	e8 7d 11 01 00       	call   12f30 <async_answer_0>
    1db3:	e9 f8 fe ff ff       	jmp    1cb0 <loc_connection_consumer.isra.27+0x20>
    1db8:	8d 95 bc fe ff ff    	lea    -0x144(%ebp),%edx
    1dbe:	8d 85 b8 fe ff ff    	lea    -0x148(%ebp),%eax
    1dc4:	89 54 24 04          	mov    %edx,0x4(%esp)
    1dc8:	89 04 24             	mov    %eax,(%esp)
    1dcb:	e8 d0 26 01 00       	call   144a0 <async_data_read_receive>
    1dd0:	84 c0                	test   %al,%al
    1dd2:	0f 84 40 09 00 00    	je     2718 <loc_connection_consumer.isra.27+0xa88>
    1dd8:	8b 85 bc fe ff ff    	mov    -0x144(%ebp),%eax
    1dde:	89 04 24             	mov    %eax,(%esp)
    1de1:	e8 0a e6 00 00       	call   103f0 <malloc>
    1de6:	89 c6                	mov    %eax,%esi
    1de8:	85 c0                	test   %eax,%eax
    1dea:	0f 84 af 0c 00 00    	je     2a9f <loc_connection_consumer.isra.27+0xe0f>
    1df0:	c7 04 24 44 2e 02 00 	movl   $0x22e44,(%esp)
    1df7:	e8 44 57 00 00       	call   7540 <fibril_mutex_lock>
    1dfc:	8d 8d c0 fe ff ff    	lea    -0x140(%ebp),%ecx
    1e02:	8b 85 bc fe ff ff    	mov    -0x144(%ebp),%eax
    1e08:	89 4c 24 0c          	mov    %ecx,0xc(%esp)
    1e0c:	89 44 24 08          	mov    %eax,0x8(%esp)
    1e10:	89 74 24 04          	mov    %esi,0x4(%esp)
    1e14:	c7 04 24 44 2e 02 00 	movl   $0x22e44,(%esp)
    1e1b:	e8 00 f3 ff ff       	call   1120 <categ_dir_get_categories>
    1e20:	c7 04 24 44 2e 02 00 	movl   $0x22e44,(%esp)
    1e27:	89 c7                	mov    %eax,%edi
    1e29:	85 c0                	test   %eax,%eax
    1e2b:	0f 84 fe 0a 00 00    	je     292f <loc_connection_consumer.isra.27+0xc9f>
    1e31:	e8 2a 58 00 00       	call   7660 <fibril_mutex_unlock>
    1e36:	8b 85 b8 fe ff ff    	mov    -0x148(%ebp),%eax
    1e3c:	89 7c 24 04          	mov    %edi,0x4(%esp)
    1e40:	89 04 24             	mov    %eax,(%esp)
    1e43:	e8 e8 10 01 00       	call   12f30 <async_answer_0>
    1e48:	89 7c 24 04          	mov    %edi,0x4(%esp)
    1e4c:	89 1c 24             	mov    %ebx,(%esp)
    1e4f:	e8 dc 10 01 00       	call   12f30 <async_answer_0>
    1e54:	e9 57 fe ff ff       	jmp    1cb0 <loc_connection_consumer.isra.27+0x20>
    1e59:	8d b4 26 00 00 00 00 	lea    0x0(%esi,%eiz,1),%esi
    1e60:	8d 85 b4 fe ff ff    	lea    -0x14c(%ebp),%eax
    1e66:	c7 44 24 14 00 00 00 	movl   $0x0,0x14(%esp)
    1e6d:	00 
    1e6e:	c7 44 24 10 00 00 00 	movl   $0x0,0x10(%esp)
    1e75:	00 
    1e76:	c7 44 24 0c ff 00 00 	movl   $0xff,0xc(%esp)
    1e7d:	00 
    1e7e:	c7 44 24 08 00 00 00 	movl   $0x0,0x8(%esp)
    1e85:	00 
    1e86:	c7 44 24 04 01 00 00 	movl   $0x1,0x4(%esp)
    1e8d:	00 
    1e8e:	89 04 24             	mov    %eax,(%esp)
    1e91:	e8 ba 2b 01 00       	call   14a50 <async_data_write_accept>
    1e96:	85 c0                	test   %eax,%eax
    1e98:	0f 85 22 09 00 00    	jne    27c0 <loc_connection_consumer.isra.27+0xb30>
    1e9e:	c7 04 24 44 2e 02 00 	movl   $0x22e44,(%esp)
    1ea5:	e8 96 56 00 00       	call   7540 <fibril_mutex_lock>
    1eaa:	8b 85 b4 fe ff ff    	mov    -0x14c(%ebp),%eax
    1eb0:	89 44 24 04          	mov    %eax,0x4(%esp)
    1eb4:	c7 04 24 44 2e 02 00 	movl   $0x22e44,(%esp)
    1ebb:	e8 70 f5 ff ff       	call   1430 <category_find_by_name>
    1ec0:	85 c0                	test   %eax,%eax
    1ec2:	0f 84 56 0c 00 00    	je     2b1e <loc_connection_consumer.isra.27+0xe8e>
    1ec8:	8b 40 10             	mov    0x10(%eax),%eax
    1ecb:	c7 44 24 04 00 00 00 	movl   $0x0,0x4(%esp)
    1ed2:	00 
    1ed3:	89 44 24 08          	mov    %eax,0x8(%esp)
    1ed7:	89 1c 24             	mov    %ebx,(%esp)
    1eda:	e8 91 10 01 00       	call   12f70 <async_answer_1>
    1edf:	c7 04 24 44 2e 02 00 	movl   $0x22e44,(%esp)
    1ee6:	e8 75 57 00 00       	call   7660 <fibril_mutex_unlock>
    1eeb:	8b 85 b4 fe ff ff    	mov    -0x14c(%ebp),%eax
    1ef1:	89 04 24             	mov    %eax,(%esp)
    1ef4:	e8 07 e6 00 00       	call   10500 <free>
    1ef9:	e9 b2 fd ff ff       	jmp    1cb0 <loc_connection_consumer.isra.27+0x20>
    1efe:	66 90                	xchg   %ax,%ax
    1f00:	c7 04 24 08 2c 02 00 	movl   $0x22c08,(%esp)
    1f07:	31 f6                	xor    %esi,%esi
    1f09:	e8 32 56 00 00       	call   7540 <fibril_mutex_lock>
    1f0e:	eb 0d                	jmp    1f1d <loc_connection_consumer.isra.27+0x28d>
    1f10:	46                   	inc    %esi
    1f11:	81 fe 00 01 00 00    	cmp    $0x100,%esi
    1f17:	0f 84 8b 09 00 00    	je     28a8 <loc_connection_consumer.isra.27+0xc18>
    1f1d:	8b 04 b5 60 2e 02 00 	mov    0x22e60(,%esi,4),%eax
    1f24:	85 c0                	test   %eax,%eax
    1f26:	75 e8                	jne    1f10 <loc_connection_consumer.isra.27+0x280>
    1f28:	8d bd e9 fe ff ff    	lea    -0x117(%ebp),%edi
    1f2e:	89 74 24 0c          	mov    %esi,0xc(%esp)
    1f32:	89 3c 24             	mov    %edi,(%esp)
    1f35:	c7 44 24 08 25 01 02 	movl   $0x20125,0x8(%esp)
    1f3c:	00 
    1f3d:	c7 44 24 04 ff 00 00 	movl   $0xff,0x4(%esp)
    1f44:	00 
    1f45:	e8 c6 98 00 00       	call   b810 <snprintf>
    1f4a:	89 3c 24             	mov    %edi,(%esp)
    1f4d:	e8 6e 43 00 00       	call   62c0 <str_dup>
    1f52:	89 c7                	mov    %eax,%edi
    1f54:	85 c0                	test   %eax,%eax
    1f56:	0f 84 4c 09 00 00    	je     28a8 <loc_connection_consumer.isra.27+0xc18>
    1f5c:	c7 04 24 34 00 00 00 	movl   $0x34,(%esp)
    1f63:	e8 88 e4 00 00       	call   103f0 <malloc>
    1f68:	85 c0                	test   %eax,%eax
    1f6a:	0f 84 38 09 00 00    	je     28a8 <loc_connection_consumer.isra.27+0xc18>
    1f70:	c7 04 24 a0 2b 02 00 	movl   $0x22ba0,(%esp)
    1f77:	89 85 a0 fe ff ff    	mov    %eax,-0x160(%ebp)
    1f7d:	e8 be 55 00 00       	call   7540 <fibril_mutex_lock>
    1f82:	b8 81 01 02 00       	mov    $0x20181,%eax
    1f87:	e8 d4 fb ff ff       	call   1b60 <loc_namespace_create>
    1f8c:	8b 95 a0 fe ff ff    	mov    -0x160(%ebp),%edx
    1f92:	89 c1                	mov    %eax,%ecx
    1f94:	85 c0                	test   %eax,%eax
    1f96:	0f 84 00 09 00 00    	je     289c <loc_connection_consumer.isra.27+0xc0c>
    1f9c:	8d 42 18             	lea    0x18(%edx),%eax
    1f9f:	c7 02 00 00 00 00    	movl   $0x0,(%edx)
    1fa5:	89 42 18             	mov    %eax,0x18(%edx)
    1fa8:	89 42 1c             	mov    %eax,0x1c(%edx)
    1fab:	c7 42 04 00 00 00 00 	movl   $0x0,0x4(%edx)
    1fb2:	c7 42 08 00 00 00 00 	movl   $0x0,0x8(%edx)
    1fb9:	c7 42 0c 00 00 00 00 	movl   $0x0,0xc(%edx)
    1fc0:	c7 04 24 c8 2b 02 00 	movl   $0x22bc8,(%esp)
    1fc7:	89 8d 9c fe ff ff    	mov    %ecx,-0x164(%ebp)
    1fcd:	89 95 a0 fe ff ff    	mov    %edx,-0x160(%ebp)
    1fd3:	e8 68 55 00 00       	call   7540 <fibril_mutex_lock>
    1fd8:	a1 40 2e 02 00       	mov    0x22e40,%eax
    1fdd:	40                   	inc    %eax
    1fde:	c7 04 24 c8 2b 02 00 	movl   $0x22bc8,(%esp)
    1fe5:	a3 40 2e 02 00       	mov    %eax,0x22e40
    1fea:	e8 71 56 00 00       	call   7660 <fibril_mutex_unlock>
    1fef:	8b 95 a0 fe ff ff    	mov    -0x160(%ebp),%edx
    1ff5:	a1 40 2e 02 00       	mov    0x22e40,%eax
    1ffa:	89 42 20             	mov    %eax,0x20(%edx)
    1ffd:	c7 42 2c 00 00 00 00 	movl   $0x0,0x2c(%edx)
    2004:	c7 04 24 a0 2b 02 00 	movl   $0x22ba0,(%esp)
    200b:	e8 60 57 00 00       	call   7770 <fibril_mutex_is_locked>
    2010:	8b 95 a0 fe ff ff    	mov    -0x160(%ebp),%edx
    2016:	84 c0                	test   %al,%al
    2018:	8b 8d 9c fe ff ff    	mov    -0x164(%ebp),%ecx
    201e:	0f 84 e0 0b 00 00    	je     2c04 <loc_connection_consumer.isra.27+0xf74>
    2024:	8b 41 10             	mov    0x10(%ecx),%eax
    2027:	89 4a 24             	mov    %ecx,0x24(%edx)
    202a:	40                   	inc    %eax
    202b:	89 41 10             	mov    %eax,0x10(%ecx)
    202e:	a1 c0 2b 02 00       	mov    0x22bc0,%eax
    2033:	8b 0d 18 2c 02 00    	mov    0x22c18,%ecx
    2039:	89 7a 28             	mov    %edi,0x28(%edx)
    203c:	c7 42 04 c0 2b 02 00 	movl   $0x22bc0,0x4(%edx)
    2043:	89 02                	mov    %eax,(%edx)
    2045:	89 50 04             	mov    %edx,0x4(%eax)
    2048:	8d 42 08             	lea    0x8(%edx),%eax
    204b:	c7 42 0c 18 2c 02 00 	movl   $0x22c18,0xc(%edx)
    2052:	89 4a 08             	mov    %ecx,0x8(%edx)
    2055:	89 41 04             	mov    %eax,0x4(%ecx)
    2058:	c7 04 24 a0 2b 02 00 	movl   $0x22ba0,(%esp)
    205f:	89 15 c0 2b 02 00    	mov    %edx,0x22bc0
    2065:	89 14 b5 60 2e 02 00 	mov    %edx,0x22e60(,%esi,4)
    206c:	a3 18 2c 02 00       	mov    %eax,0x22c18
    2071:	e8 ea 55 00 00       	call   7660 <fibril_mutex_unlock>
    2076:	c7 04 24 08 2c 02 00 	movl   $0x22c08,(%esp)
    207d:	e8 de 55 00 00       	call   7660 <fibril_mutex_unlock>
    2082:	89 74 24 08          	mov    %esi,0x8(%esp)
    2086:	c7 44 24 04 00 00 00 	movl   $0x0,0x4(%esp)
    208d:	00 
    208e:	89 1c 24             	mov    %ebx,(%esp)
    2091:	e8 da 0e 01 00       	call   12f70 <async_answer_1>
    2096:	e9 15 fc ff ff       	jmp    1cb0 <loc_connection_consumer.isra.27+0x20>
    209b:	90                   	nop
    209c:	8d 74 26 00          	lea    0x0(%esi,%eiz,1),%esi
    20a0:	c7 04 24 a0 2b 02 00 	movl   $0x22ba0,(%esp)
    20a7:	e8 94 54 00 00       	call   7540 <fibril_mutex_lock>
    20ac:	c7 04 24 a0 2b 02 00 	movl   $0x22ba0,(%esp)
    20b3:	8b b5 c8 fe ff ff    	mov    -0x138(%ebp),%esi
    20b9:	e8 b2 56 00 00       	call   7770 <fibril_mutex_is_locked>
    20be:	84 c0                	test   %al,%al
    20c0:	0f 84 76 0b 00 00    	je     2c3c <loc_connection_consumer.isra.27+0xfac>
    20c6:	a1 bc 2b 02 00       	mov    0x22bbc,%eax
    20cb:	3d b8 2b 02 00       	cmp    $0x22bb8,%eax
    20d0:	75 14                	jne    20e6 <loc_connection_consumer.isra.27+0x456>
    20d2:	e9 51 07 00 00       	jmp    2828 <loc_connection_consumer.isra.27+0xb98>
    20d7:	90                   	nop
    20d8:	8b 40 04             	mov    0x4(%eax),%eax
    20db:	3d b8 2b 02 00       	cmp    $0x22bb8,%eax
    20e0:	0f 84 42 07 00 00    	je     2828 <loc_connection_consumer.isra.27+0xb98>
    20e6:	3b 70 08             	cmp    0x8(%eax),%esi
    20e9:	75 ed                	jne    20d8 <loc_connection_consumer.isra.27+0x448>
    20eb:	c7 44 24 08 01 00 00 	movl   $0x1,0x8(%esp)
    20f2:	00 
    20f3:	c7 44 24 04 00 00 00 	movl   $0x0,0x4(%esp)
    20fa:	00 
    20fb:	89 1c 24             	mov    %ebx,(%esp)
    20fe:	e8 6d 0e 01 00       	call   12f70 <async_answer_1>
    2103:	e9 5c 01 00 00       	jmp    2264 <loc_connection_consumer.isra.27+0x5d4>
    2108:	8d 8d bc fe ff ff    	lea    -0x144(%ebp),%ecx
    210e:	8d 85 b8 fe ff ff    	lea    -0x148(%ebp),%eax
    2114:	89 4c 24 04          	mov    %ecx,0x4(%esp)
    2118:	89 04 24             	mov    %eax,(%esp)
    211b:	e8 80 23 01 00       	call   144a0 <async_data_read_receive>
    2120:	84 c0                	test   %al,%al
    2122:	0f 84 f0 05 00 00    	je     2718 <loc_connection_consumer.isra.27+0xa88>
    2128:	c7 04 24 44 2e 02 00 	movl   $0x22e44,(%esp)
    212f:	e8 0c 54 00 00       	call   7540 <fibril_mutex_lock>
    2134:	8b 85 c8 fe ff ff    	mov    -0x138(%ebp),%eax
    213a:	89 44 24 04          	mov    %eax,0x4(%esp)
    213e:	c7 04 24 44 2e 02 00 	movl   $0x22e44,(%esp)
    2145:	e8 76 f2 ff ff       	call   13c0 <category_get>
    214a:	89 c6                	mov    %eax,%esi
    214c:	85 c0                	test   %eax,%eax
    214e:	0f 84 eb 09 00 00    	je     2b3f <loc_connection_consumer.isra.27+0xeaf>
    2154:	8b 85 bc fe ff ff    	mov    -0x144(%ebp),%eax
    215a:	89 04 24             	mov    %eax,(%esp)
    215d:	e8 8e e2 00 00       	call   103f0 <malloc>
    2162:	89 c7                	mov    %eax,%edi
    2164:	85 c0                	test   %eax,%eax
    2166:	0f 84 33 09 00 00    	je     2a9f <loc_connection_consumer.isra.27+0xe0f>
    216c:	89 34 24             	mov    %esi,(%esp)
    216f:	e8 cc 53 00 00       	call   7540 <fibril_mutex_lock>
    2174:	8d 85 c0 fe ff ff    	lea    -0x140(%ebp),%eax
    217a:	89 44 24 0c          	mov    %eax,0xc(%esp)
    217e:	8b 85 bc fe ff ff    	mov    -0x144(%ebp),%eax
    2184:	89 44 24 08          	mov    %eax,0x8(%esp)
    2188:	89 7c 24 04          	mov    %edi,0x4(%esp)
    218c:	89 34 24             	mov    %esi,(%esp)
    218f:	e8 1c f3 ff ff       	call   14b0 <category_get_services>
    2194:	89 34 24             	mov    %esi,(%esp)
    2197:	85 c0                	test   %eax,%eax
    2199:	0f 84 d6 07 00 00    	je     2975 <loc_connection_consumer.isra.27+0xce5>
    219f:	89 85 a0 fe ff ff    	mov    %eax,-0x160(%ebp)
    21a5:	e8 b6 54 00 00       	call   7660 <fibril_mutex_unlock>
    21aa:	c7 04 24 44 2e 02 00 	movl   $0x22e44,(%esp)
    21b1:	e8 aa 54 00 00       	call   7660 <fibril_mutex_unlock>
    21b6:	8b 95 a0 fe ff ff    	mov    -0x160(%ebp),%edx
    21bc:	8b 85 b8 fe ff ff    	mov    -0x148(%ebp),%eax
    21c2:	89 54 24 04          	mov    %edx,0x4(%esp)
    21c6:	89 04 24             	mov    %eax,(%esp)
    21c9:	e8 62 0d 01 00       	call   12f30 <async_answer_0>
    21ce:	8b 95 a0 fe ff ff    	mov    -0x160(%ebp),%edx
    21d4:	89 54 24 04          	mov    %edx,0x4(%esp)
    21d8:	89 1c 24             	mov    %ebx,(%esp)
    21db:	e8 50 0d 01 00       	call   12f30 <async_answer_0>
    21e0:	e9 cb fa ff ff       	jmp    1cb0 <loc_connection_consumer.isra.27+0x20>
    21e5:	8d 76 00             	lea    0x0(%esi),%esi
    21e8:	8d 85 c0 fe ff ff    	lea    -0x140(%ebp),%eax
    21ee:	8d 95 bc fe ff ff    	lea    -0x144(%ebp),%edx
    21f4:	89 44 24 04          	mov    %eax,0x4(%esp)
    21f8:	89 14 24             	mov    %edx,(%esp)
    21fb:	e8 a0 22 01 00       	call   144a0 <async_data_read_receive>
    2200:	84 c0                	test   %al,%al
    2202:	0f 85 38 05 00 00    	jne    2740 <loc_connection_consumer.isra.27+0xab0>
    2208:	c7 44 24 04 fc ff ff 	movl   $0xfffffffc,0x4(%esp)
    220f:	ff 
    2210:	8b 85 bc fe ff ff    	mov    -0x144(%ebp),%eax
    2216:	89 04 24             	mov    %eax,(%esp)
    2219:	e8 12 0d 01 00       	call   12f30 <async_answer_0>
    221e:	c7 44 24 04 fc ff ff 	movl   $0xfffffffc,0x4(%esp)
    2225:	ff 
    2226:	89 1c 24             	mov    %ebx,(%esp)
    2229:	e8 02 0d 01 00       	call   12f30 <async_answer_0>
    222e:	e9 7d fa ff ff       	jmp    1cb0 <loc_connection_consumer.isra.27+0x20>
    2233:	90                   	nop
    2234:	8d 74 26 00          	lea    0x0(%esi,%eiz,1),%esi
    2238:	c7 04 24 a0 2b 02 00 	movl   $0x22ba0,(%esp)
    223f:	e8 fc 52 00 00       	call   7540 <fibril_mutex_lock>
    2244:	c7 04 24 b8 2b 02 00 	movl   $0x22bb8,(%esp)
    224b:	e8 20 3d 01 00       	call   15f70 <list_count>
    2250:	c7 44 24 04 00 00 00 	movl   $0x0,0x4(%esp)
    2257:	00 
    2258:	89 44 24 08          	mov    %eax,0x8(%esp)
    225c:	89 1c 24             	mov    %ebx,(%esp)
    225f:	e8 0c 0d 01 00       	call   12f70 <async_answer_1>
    2264:	c7 04 24 a0 2b 02 00 	movl   $0x22ba0,(%esp)
    226b:	e8 f0 53 00 00       	call   7660 <fibril_mutex_unlock>
    2270:	e9 3b fa ff ff       	jmp    1cb0 <loc_connection_consumer.isra.27+0x20>
    2275:	8d 76 00             	lea    0x0(%esi),%esi
    2278:	8b b5 c8 fe ff ff    	mov    -0x138(%ebp),%esi
    227e:	81 fe ff 00 00 00    	cmp    $0xff,%esi
    2284:	0f 87 1e 05 00 00    	ja     27a8 <loc_connection_consumer.isra.27+0xb18>
    228a:	c7 04 24 08 2c 02 00 	movl   $0x22c08,(%esp)
    2291:	e8 aa 52 00 00       	call   7540 <fibril_mutex_lock>
    2296:	8b 04 b5 60 2e 02 00 	mov    0x22e60(,%esi,4),%eax
    229d:	85 c0                	test   %eax,%eax
    229f:	0f 84 b9 08 00 00    	je     2b5e <loc_connection_consumer.isra.27+0xece>
    22a5:	c7 04 24 a0 2b 02 00 	movl   $0x22ba0,(%esp)
    22ac:	e8 8f 52 00 00       	call   7540 <fibril_mutex_lock>
    22b1:	c7 04 24 44 2e 02 00 	movl   $0x22e44,(%esp)
    22b8:	e8 83 52 00 00       	call   7540 <fibril_mutex_lock>
    22bd:	8b 04 b5 60 2e 02 00 	mov    0x22e60(,%esi,4),%eax
    22c4:	e8 e7 f6 ff ff       	call   19b0 <loc_service_unregister_core>
    22c9:	c7 04 24 44 2e 02 00 	movl   $0x22e44,(%esp)
    22d0:	e8 8b 53 00 00       	call   7660 <fibril_mutex_unlock>
    22d5:	c7 04 24 a0 2b 02 00 	movl   $0x22ba0,(%esp)
    22dc:	e8 7f 53 00 00       	call   7660 <fibril_mutex_unlock>
    22e1:	c7 04 24 08 2c 02 00 	movl   $0x22c08,(%esp)
    22e8:	c7 04 b5 60 2e 02 00 	movl   $0x0,0x22e60(,%esi,4)
    22ef:	00 00 00 00 
    22f3:	e8 68 53 00 00       	call   7660 <fibril_mutex_unlock>
    22f8:	c7 44 24 04 00 00 00 	movl   $0x0,0x4(%esp)
    22ff:	00 
    2300:	89 1c 24             	mov    %ebx,(%esp)
    2303:	e8 28 0c 01 00       	call   12f30 <async_answer_0>
    2308:	e9 a3 f9 ff ff       	jmp    1cb0 <loc_connection_consumer.isra.27+0x20>
    230d:	8d 76 00             	lea    0x0(%esi),%esi
    2310:	c7 04 24 a0 2b 02 00 	movl   $0x22ba0,(%esp)
    2317:	e8 24 52 00 00       	call   7540 <fibril_mutex_lock>
    231c:	c7 04 24 a0 2b 02 00 	movl   $0x22ba0,(%esp)
    2323:	8b b5 c8 fe ff ff    	mov    -0x138(%ebp),%esi
    2329:	e8 42 54 00 00       	call   7770 <fibril_mutex_is_locked>
    232e:	84 c0                	test   %al,%al
    2330:	0f 84 06 09 00 00    	je     2c3c <loc_connection_consumer.isra.27+0xfac>
    2336:	a1 bc 2b 02 00       	mov    0x22bbc,%eax
    233b:	3d b8 2b 02 00       	cmp    $0x22bb8,%eax
    2340:	75 14                	jne    2356 <loc_connection_consumer.isra.27+0x6c6>
    2342:	e9 c9 04 00 00       	jmp    2810 <loc_connection_consumer.isra.27+0xb80>
    2347:	90                   	nop
    2348:	8b 40 04             	mov    0x4(%eax),%eax
    234b:	3d b8 2b 02 00       	cmp    $0x22bb8,%eax
    2350:	0f 84 ba 04 00 00    	je     2810 <loc_connection_consumer.isra.27+0xb80>
    2356:	3b 70 08             	cmp    0x8(%eax),%esi
    2359:	75 ed                	jne    2348 <loc_connection_consumer.isra.27+0x6b8>
    235b:	8b 40 10             	mov    0x10(%eax),%eax
    235e:	c7 44 24 04 00 00 00 	movl   $0x0,0x4(%esp)
    2365:	00 
    2366:	89 44 24 08          	mov    %eax,0x8(%esp)
    236a:	89 1c 24             	mov    %ebx,(%esp)
    236d:	e8 fe 0b 01 00       	call   12f70 <async_answer_1>
    2372:	e9 ed fe ff ff       	jmp    2264 <loc_connection_consumer.isra.27+0x5d4>
    2377:	90                   	nop
    2378:	8d 85 b8 fe ff ff    	lea    -0x148(%ebp),%eax
    237e:	89 44 24 04          	mov    %eax,0x4(%esp)
    2382:	8d 85 b0 fe ff ff    	lea    -0x150(%ebp),%eax
    2388:	89 04 24             	mov    %eax,(%esp)
    238b:	e8 10 21 01 00       	call   144a0 <async_data_read_receive>
    2390:	84 c0                	test   %al,%al
    2392:	0f 84 f8 03 00 00    	je     2790 <loc_connection_consumer.isra.27+0xb00>
    2398:	c7 04 24 a0 2b 02 00 	movl   $0x22ba0,(%esp)
    239f:	e8 9c 51 00 00       	call   7540 <fibril_mutex_lock>
    23a4:	c7 04 24 a0 2b 02 00 	movl   $0x22ba0,(%esp)
    23ab:	8b b5 c8 fe ff ff    	mov    -0x138(%ebp),%esi
    23b1:	e8 ba 53 00 00       	call   7770 <fibril_mutex_is_locked>
    23b6:	84 c0                	test   %al,%al
    23b8:	0f 84 62 08 00 00    	je     2c20 <loc_connection_consumer.isra.27+0xf90>
    23be:	a1 c4 2b 02 00       	mov    0x22bc4,%eax
    23c3:	3d c0 2b 02 00       	cmp    $0x22bc0,%eax
    23c8:	75 14                	jne    23de <loc_connection_consumer.isra.27+0x74e>
    23ca:	e9 b1 06 00 00       	jmp    2a80 <loc_connection_consumer.isra.27+0xdf0>
    23cf:	90                   	nop
    23d0:	8b 40 04             	mov    0x4(%eax),%eax
    23d3:	3d c0 2b 02 00       	cmp    $0x22bc0,%eax
    23d8:	0f 84 a2 06 00 00    	je     2a80 <loc_connection_consumer.isra.27+0xdf0>
    23de:	3b 70 20             	cmp    0x20(%eax),%esi
    23e1:	75 ed                	jne    23d0 <loc_connection_consumer.isra.27+0x740>
    23e3:	8b 50 28             	mov    0x28(%eax),%edx
    23e6:	89 54 24 0c          	mov    %edx,0xc(%esp)
    23ea:	8b 40 24             	mov    0x24(%eax),%eax
    23ed:	8b 40 0c             	mov    0xc(%eax),%eax
    23f0:	c7 44 24 04 1f 01 02 	movl   $0x2011f,0x4(%esp)
    23f7:	00 
    23f8:	89 44 24 08          	mov    %eax,0x8(%esp)
    23fc:	8d 85 b4 fe ff ff    	lea    -0x14c(%ebp),%eax
    2402:	89 04 24             	mov    %eax,(%esp)
    2405:	e8 26 6c 00 00       	call   9030 <asprintf>
    240a:	85 c0                	test   %eax,%eax
    240c:	0f 88 f0 06 00 00    	js     2b02 <loc_connection_consumer.isra.27+0xe72>
    2412:	8b 85 b4 fe ff ff    	mov    -0x14c(%ebp),%eax
    2418:	89 04 24             	mov    %eax,(%esp)
    241b:	e8 00 1f 00 00       	call   4320 <str_size>
    2420:	3b 85 b8 fe ff ff    	cmp    -0x148(%ebp),%eax
    2426:	0f 86 aa 06 00 00    	jbe    2ad6 <loc_connection_consumer.isra.27+0xe46>
    242c:	8b 85 b4 fe ff ff    	mov    -0x14c(%ebp),%eax
    2432:	89 04 24             	mov    %eax,(%esp)
    2435:	e8 c6 e0 00 00       	call   10500 <free>
    243a:	c7 04 24 a0 2b 02 00 	movl   $0x22ba0,(%esp)
    2441:	e8 1a 52 00 00       	call   7660 <fibril_mutex_unlock>
    2446:	c7 44 24 04 f0 ff ff 	movl   $0xfffffff0,0x4(%esp)
    244d:	ff 
    244e:	8b 85 b0 fe ff ff    	mov    -0x150(%ebp),%eax
    2454:	e9 42 f9 ff ff       	jmp    1d9b <loc_connection_consumer.isra.27+0x10b>
    2459:	8d b4 26 00 00 00 00 	lea    0x0(%esi,%eiz,1),%esi
    2460:	8d 95 c8 fe ff ff    	lea    -0x138(%ebp),%edx
    2466:	89 d8                	mov    %ebx,%eax
    2468:	e8 03 f2 ff ff       	call   1670 <loc_service_get_id.isra.11>
    246d:	e9 3e f8 ff ff       	jmp    1cb0 <loc_connection_consumer.isra.27+0x20>
    2472:	8d b6 00 00 00 00    	lea    0x0(%esi),%esi
    2478:	8d 95 c0 fe ff ff    	lea    -0x140(%ebp),%edx
    247e:	8d 8d bc fe ff ff    	lea    -0x144(%ebp),%ecx
    2484:	89 54 24 04          	mov    %edx,0x4(%esp)
    2488:	89 0c 24             	mov    %ecx,(%esp)
    248b:	e8 10 20 01 00       	call   144a0 <async_data_read_receive>
    2490:	84 c0                	test   %al,%al
    2492:	0f 84 70 fd ff ff    	je     2208 <loc_connection_consumer.isra.27+0x578>
    2498:	8b 8d c0 fe ff ff    	mov    -0x140(%ebp),%ecx
    249e:	ba fd c0 0f fc       	mov    $0xfc0fc0fd,%edx
    24a3:	89 c8                	mov    %ecx,%eax
    24a5:	f7 e2                	mul    %edx
    24a7:	c1 ea 08             	shr    $0x8,%edx
    24aa:	89 d0                	mov    %edx,%eax
    24ac:	c1 e0 08             	shl    $0x8,%eax
    24af:	8d 04 90             	lea    (%eax,%edx,4),%eax
    24b2:	39 c1                	cmp    %eax,%ecx
    24b4:	0f 85 26 03 00 00    	jne    27e0 <loc_connection_consumer.isra.27+0xb50>
    24ba:	c7 04 24 a0 2b 02 00 	movl   $0x22ba0,(%esp)
    24c1:	e8 7a 50 00 00       	call   7540 <fibril_mutex_lock>
    24c6:	c7 04 24 a0 2b 02 00 	movl   $0x22ba0,(%esp)
    24cd:	8b bd c8 fe ff ff    	mov    -0x138(%ebp),%edi
    24d3:	e8 98 52 00 00       	call   7770 <fibril_mutex_is_locked>
    24d8:	84 c0                	test   %al,%al
    24da:	0f 84 5c 07 00 00    	je     2c3c <loc_connection_consumer.isra.27+0xfac>
    24e0:	8b 35 bc 2b 02 00    	mov    0x22bbc,%esi
    24e6:	81 fe b8 2b 02 00    	cmp    $0x22bb8,%esi
    24ec:	75 19                	jne    2507 <loc_connection_consumer.isra.27+0x877>
    24ee:	e9 dd 03 00 00       	jmp    28d0 <loc_connection_consumer.isra.27+0xc40>
    24f3:	90                   	nop
    24f4:	8d 74 26 00          	lea    0x0(%esi,%eiz,1),%esi
    24f8:	8b 76 04             	mov    0x4(%esi),%esi
    24fb:	81 fe b8 2b 02 00    	cmp    $0x22bb8,%esi
    2501:	0f 84 c9 03 00 00    	je     28d0 <loc_connection_consumer.isra.27+0xc40>
    2507:	3b 7e 08             	cmp    0x8(%esi),%edi
    250a:	75 ec                	jne    24f8 <loc_connection_consumer.isra.27+0x868>
    250c:	8b 8d c0 fe ff ff    	mov    -0x140(%ebp),%ecx
    2512:	ba fd c0 0f fc       	mov    $0xfc0fc0fd,%edx
    2517:	89 c8                	mov    %ecx,%eax
    2519:	f7 e2                	mul    %edx
    251b:	c1 ea 08             	shr    $0x8,%edx
    251e:	3b 56 10             	cmp    0x10(%esi),%edx
    2521:	0f 85 5a f8 ff ff    	jne    1d81 <loc_connection_consumer.isra.27+0xf1>
    2527:	89 0c 24             	mov    %ecx,(%esp)
    252a:	e8 c1 de 00 00       	call   103f0 <malloc>
    252f:	89 c2                	mov    %eax,%edx
    2531:	85 c0                	test   %eax,%eax
    2533:	0f 84 b2 06 00 00    	je     2beb <loc_connection_consumer.isra.27+0xf5b>
    2539:	8b 3d c4 2b 02 00    	mov    0x22bc4,%edi
    253f:	31 c0                	xor    %eax,%eax
    2541:	81 ff c0 2b 02 00    	cmp    $0x22bc0,%edi
    2547:	74 21                	je     256a <loc_connection_consumer.isra.27+0x8da>
    2549:	89 9d 90 fe ff ff    	mov    %ebx,-0x170(%ebp)
    254f:	90                   	nop
    2550:	39 77 24             	cmp    %esi,0x24(%edi)
    2553:	0f 84 26 06 00 00    	je     2b7f <loc_connection_consumer.isra.27+0xeef>
    2559:	8b 7f 04             	mov    0x4(%edi),%edi
    255c:	81 ff c0 2b 02 00    	cmp    $0x22bc0,%edi
    2562:	75 ec                	jne    2550 <loc_connection_consumer.isra.27+0x8c0>
    2564:	8b 9d 90 fe ff ff    	mov    -0x170(%ebp),%ebx
    256a:	8b 85 c0 fe ff ff    	mov    -0x140(%ebp),%eax
    2570:	89 54 24 04          	mov    %edx,0x4(%esp)
    2574:	89 44 24 08          	mov    %eax,0x8(%esp)
    2578:	8b 85 bc fe ff ff    	mov    -0x144(%ebp),%eax
    257e:	89 04 24             	mov    %eax,(%esp)
    2581:	89 95 a0 fe ff ff    	mov    %edx,-0x160(%ebp)
    2587:	e8 74 1f 01 00       	call   14500 <async_data_read_finalize>
    258c:	8b 95 a0 fe ff ff    	mov    -0x160(%ebp),%edx
    2592:	89 c6                	mov    %eax,%esi
    2594:	89 14 24             	mov    %edx,(%esp)
    2597:	e9 b9 04 00 00       	jmp    2a55 <loc_connection_consumer.isra.27+0xdc5>
    259c:	8d 74 26 00          	lea    0x0(%esi,%eiz,1),%esi
    25a0:	8d 95 c8 fe ff ff    	lea    -0x138(%ebp),%edx
    25a6:	89 d8                	mov    %ebx,%eax
    25a8:	e8 a3 f2 ff ff       	call   1850 <loc_namespace_get_id.isra.12>
    25ad:	e9 fe f6 ff ff       	jmp    1cb0 <loc_connection_consumer.isra.27+0x20>
    25b2:	8d b6 00 00 00 00    	lea    0x0(%esi),%esi
    25b8:	8d 95 c0 fe ff ff    	lea    -0x140(%ebp),%edx
    25be:	8d 8d bc fe ff ff    	lea    -0x144(%ebp),%ecx
    25c4:	89 54 24 04          	mov    %edx,0x4(%esp)
    25c8:	89 0c 24             	mov    %ecx,(%esp)
    25cb:	e8 d0 1e 01 00       	call   144a0 <async_data_read_receive>
    25d0:	84 c0                	test   %al,%al
    25d2:	0f 84 30 fc ff ff    	je     2208 <loc_connection_consumer.isra.27+0x578>
    25d8:	c7 04 24 a0 2b 02 00 	movl   $0x22ba0,(%esp)
    25df:	e8 5c 4f 00 00       	call   7540 <fibril_mutex_lock>
    25e4:	c7 04 24 a0 2b 02 00 	movl   $0x22ba0,(%esp)
    25eb:	8b bd c8 fe ff ff    	mov    -0x138(%ebp),%edi
    25f1:	e8 7a 51 00 00       	call   7770 <fibril_mutex_is_locked>
    25f6:	84 c0                	test   %al,%al
    25f8:	0f 84 22 06 00 00    	je     2c20 <loc_connection_consumer.isra.27+0xf90>
    25fe:	8b 35 c4 2b 02 00    	mov    0x22bc4,%esi
    2604:	81 fe c0 2b 02 00    	cmp    $0x22bc0,%esi
    260a:	75 1b                	jne    2627 <loc_connection_consumer.isra.27+0x997>
    260c:	e9 bf 02 00 00       	jmp    28d0 <loc_connection_consumer.isra.27+0xc40>
    2611:	8d b4 26 00 00 00 00 	lea    0x0(%esi,%eiz,1),%esi
    2618:	8b 76 04             	mov    0x4(%esi),%esi
    261b:	81 fe c0 2b 02 00    	cmp    $0x22bc0,%esi
    2621:	0f 84 a9 02 00 00    	je     28d0 <loc_connection_consumer.isra.27+0xc40>
    2627:	3b 7e 20             	cmp    0x20(%esi),%edi
    262a:	75 ec                	jne    2618 <loc_connection_consumer.isra.27+0x988>
    262c:	8b 46 2c             	mov    0x2c(%esi),%eax
    262f:	85 c0                	test   %eax,%eax
    2631:	0f 84 9a 01 00 00    	je     27d1 <loc_connection_consumer.isra.27+0xb41>
    2637:	8b 40 14             	mov    0x14(%eax),%eax
    263a:	89 04 24             	mov    %eax,(%esp)
    263d:	e8 de 1c 00 00       	call   4320 <str_size>
    2642:	3b 85 c0 fe ff ff    	cmp    -0x140(%ebp),%eax
    2648:	0f 87 33 f7 ff ff    	ja     1d81 <loc_connection_consumer.isra.27+0xf1>
    264e:	89 44 24 08          	mov    %eax,0x8(%esp)
    2652:	8b 46 2c             	mov    0x2c(%esi),%eax
    2655:	8b 40 14             	mov    0x14(%eax),%eax
    2658:	89 44 24 04          	mov    %eax,0x4(%esp)
    265c:	8b 85 bc fe ff ff    	mov    -0x144(%ebp),%eax
    2662:	89 04 24             	mov    %eax,(%esp)
    2665:	e8 96 1e 01 00       	call   14500 <async_data_read_finalize>
    266a:	89 c6                	mov    %eax,%esi
    266c:	c7 04 24 a0 2b 02 00 	movl   $0x22ba0,(%esp)
    2673:	e8 e8 4f 00 00       	call   7660 <fibril_mutex_unlock>
    2678:	89 74 24 04          	mov    %esi,0x4(%esp)
    267c:	89 1c 24             	mov    %ebx,(%esp)
    267f:	e8 ac 08 01 00       	call   12f30 <async_answer_0>
    2684:	e9 27 f6 ff ff       	jmp    1cb0 <loc_connection_consumer.isra.27+0x20>
    2689:	8d b4 26 00 00 00 00 	lea    0x0(%esi,%eiz,1),%esi
    2690:	c7 44 24 04 0c 00 00 	movl   $0xc,0x4(%esp)
    2697:	00 
    2698:	c7 04 24 01 00 00 00 	movl   $0x1,(%esp)
    269f:	e8 ec dc 00 00       	call   10390 <calloc>
    26a4:	89 c6                	mov    %eax,%esi
    26a6:	85 c0                	test   %eax,%eax
    26a8:	0f 84 06 02 00 00    	je     28b4 <loc_connection_consumer.isra.27+0xc24>
    26ae:	c7 04 24 02 00 00 00 	movl   $0x2,(%esp)
    26b5:	e8 16 2b 01 00       	call   151d0 <async_callback_receive>
    26ba:	85 c0                	test   %eax,%eax
    26bc:	0f 84 9d 03 00 00    	je     2a5f <loc_connection_consumer.isra.27+0xdcf>
    26c2:	89 46 08             	mov    %eax,0x8(%esi)
    26c5:	c7 06 00 00 00 00    	movl   $0x0,(%esi)
    26cb:	c7 46 04 00 00 00 00 	movl   $0x0,0x4(%esi)
    26d2:	c7 04 24 d8 2b 02 00 	movl   $0x22bd8,(%esp)
    26d9:	e8 62 4e 00 00       	call   7540 <fibril_mutex_lock>
    26de:	a1 e8 2b 02 00       	mov    0x22be8,%eax
    26e3:	c7 46 04 e8 2b 02 00 	movl   $0x22be8,0x4(%esi)
    26ea:	89 06                	mov    %eax,(%esi)
    26ec:	89 70 04             	mov    %esi,0x4(%eax)
    26ef:	c7 04 24 d8 2b 02 00 	movl   $0x22bd8,(%esp)
    26f6:	89 35 e8 2b 02 00    	mov    %esi,0x22be8
    26fc:	e8 5f 4f 00 00       	call   7660 <fibril_mutex_unlock>
    2701:	c7 44 24 04 00 00 00 	movl   $0x0,0x4(%esp)
    2708:	00 
    2709:	89 1c 24             	mov    %ebx,(%esp)
    270c:	e8 1f 08 01 00       	call   12f30 <async_answer_0>
    2711:	e9 9a f5 ff ff       	jmp    1cb0 <loc_connection_consumer.isra.27+0x20>
    2716:	66 90                	xchg   %ax,%ax
    2718:	c7 44 24 04 fc ff ff 	movl   $0xfffffffc,0x4(%esp)
    271f:	ff 
    2720:	8b 85 b8 fe ff ff    	mov    -0x148(%ebp),%eax
    2726:	e9 eb fa ff ff       	jmp    2216 <loc_connection_consumer.isra.27+0x586>
    272b:	90                   	nop
    272c:	8d 74 26 00          	lea    0x0(%esi,%eiz,1),%esi
    2730:	81 c4 8c 01 00 00    	add    $0x18c,%esp
    2736:	5b                   	pop    %ebx
    2737:	5e                   	pop    %esi
    2738:	5f                   	pop    %edi
    2739:	5d                   	pop    %ebp
    273a:	c3                   	ret    
    273b:	90                   	nop
    273c:	8d 74 26 00          	lea    0x0(%esi,%eiz,1),%esi
    2740:	c7 04 24 44 2e 02 00 	movl   $0x22e44,(%esp)
    2747:	e8 f4 4d 00 00       	call   7540 <fibril_mutex_lock>
    274c:	8b 85 c8 fe ff ff    	mov    -0x138(%ebp),%eax
    2752:	89 44 24 04          	mov    %eax,0x4(%esp)
    2756:	c7 04 24 44 2e 02 00 	movl   $0x22e44,(%esp)
    275d:	e8 5e ec ff ff       	call   13c0 <category_get>
    2762:	89 c6                	mov    %eax,%esi
    2764:	85 c0                	test   %eax,%eax
    2766:	0f 84 c7 03 00 00    	je     2b33 <loc_connection_consumer.isra.27+0xea3>
    276c:	8b 40 14             	mov    0x14(%eax),%eax
    276f:	89 04 24             	mov    %eax,(%esp)
    2772:	e8 a9 1b 00 00       	call   4320 <str_size>
    2777:	3b 85 c0 fe ff ff    	cmp    -0x140(%ebp),%eax
    277d:	0f 86 74 01 00 00    	jbe    28f7 <loc_connection_consumer.isra.27+0xc67>
    2783:	c7 04 24 44 2e 02 00 	movl   $0x22e44,(%esp)
    278a:	e9 f9 f5 ff ff       	jmp    1d88 <loc_connection_consumer.isra.27+0xf8>
    278f:	90                   	nop
    2790:	c7 44 24 04 fc ff ff 	movl   $0xfffffffc,0x4(%esp)
    2797:	ff 
    2798:	8b 85 b0 fe ff ff    	mov    -0x150(%ebp),%eax
    279e:	e9 73 fa ff ff       	jmp    2216 <loc_connection_consumer.isra.27+0x586>
    27a3:	90                   	nop
    27a4:	8d 74 26 00          	lea    0x0(%esi,%eiz,1),%esi
    27a8:	c7 44 24 04 fd ff ff 	movl   $0xfffffffd,0x4(%esp)
    27af:	ff 
    27b0:	89 1c 24             	mov    %ebx,(%esp)
    27b3:	e8 78 07 01 00       	call   12f30 <async_answer_0>
    27b8:	e9 f3 f4 ff ff       	jmp    1cb0 <loc_connection_consumer.isra.27+0x20>
    27bd:	8d 76 00             	lea    0x0(%esi),%esi
    27c0:	89 44 24 04          	mov    %eax,0x4(%esp)
    27c4:	89 1c 24             	mov    %ebx,(%esp)
    27c7:	e8 64 07 01 00       	call   12f30 <async_answer_0>
    27cc:	e9 df f4 ff ff       	jmp    1cb0 <loc_connection_consumer.isra.27+0x20>
    27d1:	c7 04 24 a0 2b 02 00 	movl   $0x22ba0,(%esp)
    27d8:	e8 83 4e 00 00       	call   7660 <fibril_mutex_unlock>
    27dd:	8d 76 00             	lea    0x0(%esi),%esi
    27e0:	8b 85 bc fe ff ff    	mov    -0x144(%ebp),%eax
    27e6:	c7 44 24 04 f2 ff ff 	movl   $0xfffffff2,0x4(%esp)
    27ed:	ff 
    27ee:	89 04 24             	mov    %eax,(%esp)
    27f1:	e8 3a 07 01 00       	call   12f30 <async_answer_0>
    27f6:	c7 44 24 04 f2 ff ff 	movl   $0xfffffff2,0x4(%esp)
    27fd:	ff 
    27fe:	89 1c 24             	mov    %ebx,(%esp)
    2801:	e8 2a 07 01 00       	call   12f30 <async_answer_0>
    2806:	e9 a5 f4 ff ff       	jmp    1cb0 <loc_connection_consumer.isra.27+0x20>
    280b:	90                   	nop
    280c:	8d 74 26 00          	lea    0x0(%esi,%eiz,1),%esi
    2810:	c7 44 24 04 f7 ff ff 	movl   $0xfffffff7,0x4(%esp)
    2817:	ff 
    2818:	89 1c 24             	mov    %ebx,(%esp)
    281b:	e8 10 07 01 00       	call   12f30 <async_answer_0>
    2820:	e9 3f fa ff ff       	jmp    2264 <loc_connection_consumer.isra.27+0x5d4>
    2825:	8d 76 00             	lea    0x0(%esi),%esi
    2828:	c7 04 24 a0 2b 02 00 	movl   $0x22ba0,(%esp)
    282f:	8b b5 c8 fe ff ff    	mov    -0x138(%ebp),%esi
    2835:	e8 36 4f 00 00       	call   7770 <fibril_mutex_is_locked>
    283a:	84 c0                	test   %al,%al
    283c:	0f 84 de 03 00 00    	je     2c20 <loc_connection_consumer.isra.27+0xf90>
    2842:	a1 c4 2b 02 00       	mov    0x22bc4,%eax
    2847:	3d c0 2b 02 00       	cmp    $0x22bc0,%eax
    284c:	75 2c                	jne    287a <loc_connection_consumer.isra.27+0xbea>
    284e:	c7 44 24 08 00 00 00 	movl   $0x0,0x8(%esp)
    2855:	00 
    2856:	c7 44 24 04 00 00 00 	movl   $0x0,0x4(%esp)
    285d:	00 
    285e:	89 1c 24             	mov    %ebx,(%esp)
    2861:	e8 0a 07 01 00       	call   12f70 <async_answer_1>
    2866:	e9 f9 f9 ff ff       	jmp    2264 <loc_connection_consumer.isra.27+0x5d4>
    286b:	90                   	nop
    286c:	8d 74 26 00          	lea    0x0(%esi,%eiz,1),%esi
    2870:	8b 40 04             	mov    0x4(%eax),%eax
    2873:	3d c0 2b 02 00       	cmp    $0x22bc0,%eax
    2878:	74 d4                	je     284e <loc_connection_consumer.isra.27+0xbbe>
    287a:	3b 70 20             	cmp    0x20(%eax),%esi
    287d:	75 f1                	jne    2870 <loc_connection_consumer.isra.27+0xbe0>
    287f:	c7 44 24 08 02 00 00 	movl   $0x2,0x8(%esp)
    2886:	00 
    2887:	c7 44 24 04 00 00 00 	movl   $0x0,0x4(%esp)
    288e:	00 
    288f:	89 1c 24             	mov    %ebx,(%esp)
    2892:	e8 d9 06 01 00       	call   12f70 <async_answer_1>
    2897:	e9 c8 f9 ff ff       	jmp    2264 <loc_connection_consumer.isra.27+0x5d4>
    289c:	c7 04 24 a0 2b 02 00 	movl   $0x22ba0,(%esp)
    28a3:	e8 98 4c 00 00       	call   7540 <fibril_mutex_lock>
    28a8:	c7 04 24 08 2c 02 00 	movl   $0x22c08,(%esp)
    28af:	e8 ac 4d 00 00       	call   7660 <fibril_mutex_unlock>
    28b4:	c7 44 24 04 fe ff ff 	movl   $0xfffffffe,0x4(%esp)
    28bb:	ff 
    28bc:	89 1c 24             	mov    %ebx,(%esp)
    28bf:	e8 6c 06 01 00       	call   12f30 <async_answer_0>
    28c4:	e9 e7 f3 ff ff       	jmp    1cb0 <loc_connection_consumer.isra.27+0x20>
    28c9:	8d b4 26 00 00 00 00 	lea    0x0(%esi,%eiz,1),%esi
    28d0:	c7 04 24 a0 2b 02 00 	movl   $0x22ba0,(%esp)
    28d7:	e8 84 4d 00 00       	call   7660 <fibril_mutex_unlock>
    28dc:	c7 44 24 04 ff ff ff 	movl   $0xffffffff,0x4(%esp)
    28e3:	ff 
    28e4:	8b 85 bc fe ff ff    	mov    -0x144(%ebp),%eax
    28ea:	89 04 24             	mov    %eax,(%esp)
    28ed:	e8 3e 06 01 00       	call   12f30 <async_answer_0>
    28f2:	e9 e9 f3 ff ff       	jmp    1ce0 <loc_connection_consumer.isra.27+0x50>
    28f7:	89 44 24 08          	mov    %eax,0x8(%esp)
    28fb:	8b 46 14             	mov    0x14(%esi),%eax
    28fe:	89 44 24 04          	mov    %eax,0x4(%esp)
    2902:	8b 85 bc fe ff ff    	mov    -0x144(%ebp),%eax
    2908:	89 04 24             	mov    %eax,(%esp)
    290b:	e8 f0 1b 01 00       	call   14500 <async_data_read_finalize>
    2910:	c7 04 24 44 2e 02 00 	movl   $0x22e44,(%esp)
    2917:	89 c6                	mov    %eax,%esi
    2919:	e8 42 4d 00 00       	call   7660 <fibril_mutex_unlock>
    291e:	89 74 24 04          	mov    %esi,0x4(%esp)
    2922:	89 1c 24             	mov    %ebx,(%esp)
    2925:	e8 06 06 01 00       	call   12f30 <async_answer_0>
    292a:	e9 81 f3 ff ff       	jmp    1cb0 <loc_connection_consumer.isra.27+0x20>
    292f:	e8 2c 4d 00 00       	call   7660 <fibril_mutex_unlock>
    2934:	8b 85 bc fe ff ff    	mov    -0x144(%ebp),%eax
    293a:	89 44 24 08          	mov    %eax,0x8(%esp)
    293e:	8b 85 b8 fe ff ff    	mov    -0x148(%ebp),%eax
    2944:	89 74 24 04          	mov    %esi,0x4(%esp)
    2948:	89 04 24             	mov    %eax,(%esp)
    294b:	e8 b0 1b 01 00       	call   14500 <async_data_read_finalize>
    2950:	89 34 24             	mov    %esi,(%esp)
    2953:	89 c7                	mov    %eax,%edi
    2955:	e8 a6 db 00 00       	call   10500 <free>
    295a:	8b 85 c0 fe ff ff    	mov    -0x140(%ebp),%eax
    2960:	89 7c 24 04          	mov    %edi,0x4(%esp)
    2964:	89 44 24 08          	mov    %eax,0x8(%esp)
    2968:	89 1c 24             	mov    %ebx,(%esp)
    296b:	e8 00 06 01 00       	call   12f70 <async_answer_1>
    2970:	e9 3b f3 ff ff       	jmp    1cb0 <loc_connection_consumer.isra.27+0x20>
    2975:	e8 e6 4c 00 00       	call   7660 <fibril_mutex_unlock>
    297a:	c7 04 24 44 2e 02 00 	movl   $0x22e44,(%esp)
    2981:	e8 da 4c 00 00       	call   7660 <fibril_mutex_unlock>
    2986:	8b 85 bc fe ff ff    	mov    -0x144(%ebp),%eax
    298c:	89 44 24 08          	mov    %eax,0x8(%esp)
    2990:	8b 85 b8 fe ff ff    	mov    -0x148(%ebp),%eax
    2996:	89 7c 24 04          	mov    %edi,0x4(%esp)
    299a:	89 04 24             	mov    %eax,(%esp)
    299d:	e8 5e 1b 01 00       	call   14500 <async_data_read_finalize>
    29a2:	89 3c 24             	mov    %edi,(%esp)
    29a5:	89 c6                	mov    %eax,%esi
    29a7:	e8 54 db 00 00       	call   10500 <free>
    29ac:	8b 85 c0 fe ff ff    	mov    -0x140(%ebp),%eax
    29b2:	89 74 24 04          	mov    %esi,0x4(%esp)
    29b6:	89 44 24 08          	mov    %eax,0x8(%esp)
    29ba:	89 1c 24             	mov    %ebx,(%esp)
    29bd:	e8 ae 05 01 00       	call   12f70 <async_answer_1>
    29c2:	e9 e9 f2 ff ff       	jmp    1cb0 <loc_connection_consumer.isra.27+0x20>
    29c7:	8b 85 c0 fe ff ff    	mov    -0x140(%ebp),%eax
    29cd:	89 04 24             	mov    %eax,(%esp)
    29d0:	e8 1b da 00 00       	call   103f0 <malloc>
    29d5:	89 85 a4 fe ff ff    	mov    %eax,-0x15c(%ebp)
    29db:	85 c0                	test   %eax,%eax
    29dd:	0f 84 e9 01 00 00    	je     2bcc <loc_connection_consumer.isra.27+0xf3c>
    29e3:	8b 35 bc 2b 02 00    	mov    0x22bbc,%esi
    29e9:	89 c7                	mov    %eax,%edi
    29eb:	81 fe b8 2b 02 00    	cmp    $0x22bb8,%esi
    29f1:	74 35                	je     2a28 <loc_connection_consumer.isra.27+0xd98>
    29f3:	90                   	nop
    29f4:	8d 74 26 00          	lea    0x0(%esi,%eiz,1),%esi
    29f8:	8b 46 08             	mov    0x8(%esi),%eax
    29fb:	89 07                	mov    %eax,(%edi)
    29fd:	8b 46 0c             	mov    0xc(%esi),%eax
    2a00:	c7 44 24 04 ff 00 00 	movl   $0xff,0x4(%esp)
    2a07:	00 
    2a08:	89 44 24 08          	mov    %eax,0x8(%esp)
    2a0c:	8d 47 04             	lea    0x4(%edi),%eax
    2a0f:	89 04 24             	mov    %eax,(%esp)
    2a12:	81 c7 04 01 00 00    	add    $0x104,%edi
    2a18:	e8 b3 24 00 00       	call   4ed0 <str_cpy>
    2a1d:	8b 76 04             	mov    0x4(%esi),%esi
    2a20:	81 fe b8 2b 02 00    	cmp    $0x22bb8,%esi
    2a26:	75 d0                	jne    29f8 <loc_connection_consumer.isra.27+0xd68>
    2a28:	8b 85 c0 fe ff ff    	mov    -0x140(%ebp),%eax
    2a2e:	89 44 24 08          	mov    %eax,0x8(%esp)
    2a32:	8b 85 a4 fe ff ff    	mov    -0x15c(%ebp),%eax
    2a38:	89 44 24 04          	mov    %eax,0x4(%esp)
    2a3c:	8b 85 bc fe ff ff    	mov    -0x144(%ebp),%eax
    2a42:	89 04 24             	mov    %eax,(%esp)
    2a45:	e8 b6 1a 01 00       	call   14500 <async_data_read_finalize>
    2a4a:	89 c6                	mov    %eax,%esi
    2a4c:	8b 85 a4 fe ff ff    	mov    -0x15c(%ebp),%eax
    2a52:	89 04 24             	mov    %eax,(%esp)
    2a55:	e8 a6 da 00 00       	call   10500 <free>
    2a5a:	e9 0d fc ff ff       	jmp    266c <loc_connection_consumer.isra.27+0x9dc>
    2a5f:	89 34 24             	mov    %esi,(%esp)
    2a62:	e8 99 da 00 00       	call   10500 <free>
    2a67:	c7 44 24 04 fe ff ff 	movl   $0xfffffffe,0x4(%esp)
    2a6e:	ff 
    2a6f:	89 1c 24             	mov    %ebx,(%esp)
    2a72:	e8 b9 04 01 00       	call   12f30 <async_answer_0>
    2a77:	e9 34 f2 ff ff       	jmp    1cb0 <loc_connection_consumer.isra.27+0x20>
    2a7c:	8d 74 26 00          	lea    0x0(%esi,%eiz,1),%esi
    2a80:	c7 04 24 a0 2b 02 00 	movl   $0x22ba0,(%esp)
    2a87:	e8 d4 4b 00 00       	call   7660 <fibril_mutex_unlock>
    2a8c:	c7 44 24 04 ff ff ff 	movl   $0xffffffff,0x4(%esp)
    2a93:	ff 
    2a94:	8b 85 b0 fe ff ff    	mov    -0x150(%ebp),%eax
    2a9a:	e9 4b fe ff ff       	jmp    28ea <loc_connection_consumer.isra.27+0xc5a>
    2a9f:	c7 04 24 44 2e 02 00 	movl   $0x22e44,(%esp)
    2aa6:	e8 b5 4b 00 00       	call   7660 <fibril_mutex_unlock>
    2aab:	c7 44 24 04 fe ff ff 	movl   $0xfffffffe,0x4(%esp)
    2ab2:	ff 
    2ab3:	8b 85 b8 fe ff ff    	mov    -0x148(%ebp),%eax
    2ab9:	89 04 24             	mov    %eax,(%esp)
    2abc:	e8 6f 04 01 00       	call   12f30 <async_answer_0>
    2ac1:	c7 44 24 04 fe ff ff 	movl   $0xfffffffe,0x4(%esp)
    2ac8:	ff 
    2ac9:	89 1c 24             	mov    %ebx,(%esp)
    2acc:	e8 5f 04 01 00       	call   12f30 <async_answer_0>
    2ad1:	e9 da f1 ff ff       	jmp    1cb0 <loc_connection_consumer.isra.27+0x20>
    2ad6:	89 44 24 08          	mov    %eax,0x8(%esp)
    2ada:	8b 85 b4 fe ff ff    	mov    -0x14c(%ebp),%eax
    2ae0:	89 44 24 04          	mov    %eax,0x4(%esp)
    2ae4:	8b 85 b0 fe ff ff    	mov    -0x150(%ebp),%eax
    2aea:	89 04 24             	mov    %eax,(%esp)
    2aed:	e8 0e 1a 01 00       	call   14500 <async_data_read_finalize>
    2af2:	89 c6                	mov    %eax,%esi
    2af4:	8b 85 b4 fe ff ff    	mov    -0x14c(%ebp),%eax
    2afa:	89 04 24             	mov    %eax,(%esp)
    2afd:	e9 53 ff ff ff       	jmp    2a55 <loc_connection_consumer.isra.27+0xdc5>
    2b02:	c7 04 24 a0 2b 02 00 	movl   $0x22ba0,(%esp)
    2b09:	e8 52 4b 00 00       	call   7660 <fibril_mutex_unlock>
    2b0e:	c7 44 24 04 fe ff ff 	movl   $0xfffffffe,0x4(%esp)
    2b15:	ff 
    2b16:	8b 85 b0 fe ff ff    	mov    -0x150(%ebp),%eax
    2b1c:	eb 9b                	jmp    2ab9 <loc_connection_consumer.isra.27+0xe29>
    2b1e:	c7 44 24 04 ff ff ff 	movl   $0xffffffff,0x4(%esp)
    2b25:	ff 
    2b26:	89 1c 24             	mov    %ebx,(%esp)
    2b29:	e8 02 04 01 00       	call   12f30 <async_answer_0>
    2b2e:	e9 ac f3 ff ff       	jmp    1edf <loc_connection_consumer.isra.27+0x24f>
    2b33:	c7 04 24 44 2e 02 00 	movl   $0x22e44,(%esp)
    2b3a:	e9 98 fd ff ff       	jmp    28d7 <loc_connection_consumer.isra.27+0xc47>
    2b3f:	c7 04 24 44 2e 02 00 	movl   $0x22e44,(%esp)
    2b46:	e8 15 4b 00 00       	call   7660 <fibril_mutex_unlock>
    2b4b:	c7 44 24 04 ff ff ff 	movl   $0xffffffff,0x4(%esp)
    2b52:	ff 
    2b53:	8b 85 b8 fe ff ff    	mov    -0x148(%ebp),%eax
    2b59:	e9 8c fd ff ff       	jmp    28ea <loc_connection_consumer.isra.27+0xc5a>
    2b5e:	c7 04 24 08 2c 02 00 	movl   $0x22c08,(%esp)
    2b65:	e8 f6 4a 00 00       	call   7660 <fibril_mutex_unlock>
    2b6a:	c7 44 24 04 ff ff ff 	movl   $0xffffffff,0x4(%esp)
    2b71:	ff 
    2b72:	89 1c 24             	mov    %ebx,(%esp)
    2b75:	e8 b6 03 01 00       	call   12f30 <async_answer_0>
    2b7a:	e9 31 f1 ff ff       	jmp    1cb0 <loc_connection_consumer.isra.27+0x20>
    2b7f:	89 c1                	mov    %eax,%ecx
    2b81:	8b 5f 20             	mov    0x20(%edi),%ebx
    2b84:	c1 e1 08             	shl    $0x8,%ecx
    2b87:	8d 0c 81             	lea    (%ecx,%eax,4),%ecx
    2b8a:	01 d1                	add    %edx,%ecx
    2b8c:	89 8d a4 fe ff ff    	mov    %ecx,-0x15c(%ebp)
    2b92:	89 19                	mov    %ebx,(%ecx)
    2b94:	8b 5f 28             	mov    0x28(%edi),%ebx
    2b97:	83 c1 04             	add    $0x4,%ecx
    2b9a:	89 5c 24 08          	mov    %ebx,0x8(%esp)
    2b9e:	c7 44 24 04 ff 00 00 	movl   $0xff,0x4(%esp)
    2ba5:	00 
    2ba6:	89 0c 24             	mov    %ecx,(%esp)
    2ba9:	89 85 9c fe ff ff    	mov    %eax,-0x164(%ebp)
    2baf:	89 95 a0 fe ff ff    	mov    %edx,-0x160(%ebp)
    2bb5:	e8 16 23 00 00       	call   4ed0 <str_cpy>
    2bba:	8b 85 9c fe ff ff    	mov    -0x164(%ebp),%eax
    2bc0:	40                   	inc    %eax
    2bc1:	8b 95 a0 fe ff ff    	mov    -0x160(%ebp),%edx
    2bc7:	e9 8d f9 ff ff       	jmp    2559 <loc_connection_consumer.isra.27+0x8c9>
    2bcc:	c7 04 24 a0 2b 02 00 	movl   $0x22ba0,(%esp)
    2bd3:	e8 88 4a 00 00       	call   7660 <fibril_mutex_unlock>
    2bd8:	c7 44 24 04 fe ff ff 	movl   $0xfffffffe,0x4(%esp)
    2bdf:	ff 
    2be0:	8b 85 bc fe ff ff    	mov    -0x144(%ebp),%eax
    2be6:	e9 ce fe ff ff       	jmp    2ab9 <loc_connection_consumer.isra.27+0xe29>
    2beb:	c7 04 24 a0 2b 02 00 	movl   $0x22ba0,(%esp)
    2bf2:	e8 69 4a 00 00       	call   7660 <fibril_mutex_unlock>
    2bf7:	c7 44 24 04 fe ff ff 	movl   $0xfffffffe,0x4(%esp)
    2bfe:	ff 
    2bff:	e9 0c f6 ff ff       	jmp    2210 <loc_connection_consumer.isra.27+0x580>
    2c04:	c7 44 24 08 2c 01 00 	movl   $0x12c,0x8(%esp)
    2c0b:	00 
    2c0c:	c7 44 24 04 16 01 02 	movl   $0x20116,0x4(%esp)
    2c13:	00 
    2c14:	c7 04 24 bc 00 02 00 	movl   $0x200bc,(%esp)
    2c1b:	e8 30 80 01 00       	call   1ac50 <assert_abort>
    2c20:	c7 44 24 08 ef 00 00 	movl   $0xef,0x8(%esp)
    2c27:	00 
    2c28:	c7 44 24 04 16 01 02 	movl   $0x20116,0x4(%esp)
    2c2f:	00 
    2c30:	c7 04 24 bc 00 02 00 	movl   $0x200bc,(%esp)
    2c37:	e8 14 80 01 00       	call   1ac50 <assert_abort>
    2c3c:	c7 44 24 08 cb 00 00 	movl   $0xcb,0x8(%esp)
    2c43:	00 
    2c44:	c7 44 24 04 16 01 02 	movl   $0x20116,0x4(%esp)
    2c4b:	00 
    2c4c:	c7 04 24 bc 00 02 00 	movl   $0x200bc,(%esp)
    2c53:	e8 f8 7f 01 00       	call   1ac50 <assert_abort>
    2c58:	90                   	nop
    2c59:	8d b4 26 00 00 00 00 	lea    0x0(%esi,%eiz,1),%esi

00002c60 <loc_connection>:
    2c60:	55                   	push   %ebp
    2c61:	89 e5                	mov    %esp,%ebp
    2c63:	57                   	push   %edi
    2c64:	56                   	push   %esi
    2c65:	53                   	push   %ebx
    2c66:	81 ec 8c 00 00 00    	sub    $0x8c,%esp
    2c6c:	8b 5d 0c             	mov    0xc(%ebp),%ebx
    2c6f:	8b 43 04             	mov    0x4(%ebx),%eax
    2c72:	83 f8 02             	cmp    $0x2,%eax
    2c75:	0f 84 4d 02 00 00    	je     2ec8 <loc_connection+0x268>
    2c7b:	83 f8 03             	cmp    $0x3,%eax
    2c7e:	0f 84 7c 01 00 00    	je     2e00 <loc_connection+0x1a0>
    2c84:	48                   	dec    %eax
    2c85:	74 21                	je     2ca8 <loc_connection+0x48>
    2c87:	8b 55 08             	mov    0x8(%ebp),%edx
    2c8a:	c7 44 24 04 ff ff ff 	movl   $0xffffffff,0x4(%esp)
    2c91:	ff 
    2c92:	89 14 24             	mov    %edx,(%esp)
    2c95:	e8 96 02 01 00       	call   12f30 <async_answer_0>
    2c9a:	81 c4 8c 00 00 00    	add    $0x8c,%esp
    2ca0:	5b                   	pop    %ebx
    2ca1:	5e                   	pop    %esi
    2ca2:	5f                   	pop    %edi
    2ca3:	5d                   	pop    %ebp
    2ca4:	c3                   	ret    
    2ca5:	8d 76 00             	lea    0x0(%esi),%esi
    2ca8:	8b 45 08             	mov    0x8(%ebp),%eax
    2cab:	c7 44 24 04 00 00 00 	movl   $0x0,0x4(%esp)
    2cb2:	00 
    2cb3:	89 04 24             	mov    %eax,(%esp)
    2cb6:	e8 75 02 01 00       	call   12f30 <async_answer_0>
    2cbb:	8d 55 c4             	lea    -0x3c(%ebp),%edx
    2cbe:	c7 44 24 04 00 00 00 	movl   $0x0,0x4(%esp)
    2cc5:	00 
    2cc6:	89 14 24             	mov    %edx,(%esp)
    2cc9:	e8 32 ec 00 00       	call   11900 <async_get_call_timeout>
    2cce:	81 7d c4 00 04 00 00 	cmpl   $0x400,-0x3c(%ebp)
    2cd5:	89 c3                	mov    %eax,%ebx
    2cd7:	0f 85 03 02 00 00    	jne    2ee0 <loc_connection+0x280>
    2cdd:	c7 04 24 28 00 00 00 	movl   $0x28,(%esp)
    2ce4:	e8 07 d7 00 00       	call   103f0 <malloc>
    2ce9:	89 45 b4             	mov    %eax,-0x4c(%ebp)
    2cec:	85 c0                	test   %eax,%eax
    2cee:	0f 84 a4 08 00 00    	je     3598 <loc_connection+0x938>
    2cf4:	83 c0 14             	add    $0x14,%eax
    2cf7:	c7 44 24 14 00 00 00 	movl   $0x0,0x14(%esp)
    2cfe:	00 
    2cff:	c7 44 24 10 00 00 00 	movl   $0x0,0x10(%esp)
    2d06:	00 
    2d07:	c7 44 24 0c ff 00 00 	movl   $0xff,0xc(%esp)
    2d0e:	00 
    2d0f:	c7 44 24 08 00 00 00 	movl   $0x0,0x8(%esp)
    2d16:	00 
    2d17:	c7 44 24 04 01 00 00 	movl   $0x1,0x4(%esp)
    2d1e:	00 
    2d1f:	89 04 24             	mov    %eax,(%esp)
    2d22:	e8 29 1d 01 00       	call   14a50 <async_data_write_accept>
    2d27:	85 c0                	test   %eax,%eax
    2d29:	0f 85 47 08 00 00    	jne    3576 <loc_connection+0x916>
    2d2f:	c7 04 24 02 00 00 00 	movl   $0x2,(%esp)
    2d36:	e8 95 24 01 00       	call   151d0 <async_callback_receive>
    2d3b:	8b 55 b4             	mov    -0x4c(%ebp),%edx
    2d3e:	85 c0                	test   %eax,%eax
    2d40:	89 42 10             	mov    %eax,0x10(%edx)
    2d43:	0f 84 64 08 00 00    	je     35ad <loc_connection+0x94d>
    2d49:	83 c2 18             	add    $0x18,%edx
    2d4c:	89 14 24             	mov    %edx,(%esp)
    2d4f:	89 55 ac             	mov    %edx,-0x54(%ebp)
    2d52:	e8 c9 47 00 00       	call   7520 <fibril_mutex_initialize>
    2d57:	8b 45 b4             	mov    -0x4c(%ebp),%eax
    2d5a:	8b 4d b4             	mov    -0x4c(%ebp),%ecx
    2d5d:	c7 00 00 00 00 00    	movl   $0x0,(%eax)
    2d63:	83 c1 08             	add    $0x8,%ecx
    2d66:	c7 40 04 00 00 00 00 	movl   $0x0,0x4(%eax)
    2d6d:	89 48 08             	mov    %ecx,0x8(%eax)
    2d70:	89 48 0c             	mov    %ecx,0xc(%eax)
    2d73:	c7 04 24 f0 2b 02 00 	movl   $0x22bf0,(%esp)
    2d7a:	89 4d b0             	mov    %ecx,-0x50(%ebp)
    2d7d:	e8 be 47 00 00       	call   7540 <fibril_mutex_lock>
    2d82:	8b 45 b4             	mov    -0x4c(%ebp),%eax
    2d85:	8b 55 b4             	mov    -0x4c(%ebp),%edx
    2d88:	c7 40 04 b0 2b 02 00 	movl   $0x22bb0,0x4(%eax)
    2d8f:	a1 b0 2b 02 00       	mov    0x22bb0,%eax
    2d94:	89 15 b0 2b 02 00    	mov    %edx,0x22bb0
    2d9a:	89 02                	mov    %eax,(%edx)
    2d9c:	89 50 04             	mov    %edx,0x4(%eax)
    2d9f:	c7 04 24 f0 2b 02 00 	movl   $0x22bf0,(%esp)
    2da6:	e8 b5 48 00 00       	call   7660 <fibril_mutex_unlock>
    2dab:	c7 44 24 04 00 00 00 	movl   $0x0,0x4(%esp)
    2db2:	00 
    2db3:	89 1c 24             	mov    %ebx,(%esp)
    2db6:	e8 75 01 01 00       	call   12f30 <async_answer_0>
    2dbb:	90                   	nop
    2dbc:	8d 74 26 00          	lea    0x0(%esi,%eiz,1),%esi
    2dc0:	8d 4d c4             	lea    -0x3c(%ebp),%ecx
    2dc3:	c7 44 24 04 00 00 00 	movl   $0x0,0x4(%esp)
    2dca:	00 
    2dcb:	89 0c 24             	mov    %ecx,(%esp)
    2dce:	e8 2d eb 00 00       	call   11900 <async_get_call_timeout>
    2dd3:	89 c3                	mov    %eax,%ebx
    2dd5:	8b 45 c4             	mov    -0x3c(%ebp),%eax
    2dd8:	85 c0                	test   %eax,%eax
    2dda:	0f 84 88 03 00 00    	je     3168 <loc_connection+0x508>
    2de0:	2d 01 04 00 00       	sub    $0x401,%eax
    2de5:	83 f8 07             	cmp    $0x7,%eax
    2de8:	0f 86 0a 01 00 00    	jbe    2ef8 <loc_connection+0x298>
    2dee:	c7 44 24 04 ff ff ff 	movl   $0xffffffff,0x4(%esp)
    2df5:	ff 
    2df6:	89 1c 24             	mov    %ebx,(%esp)
    2df9:	e8 32 01 01 00       	call   12f30 <async_answer_0>
    2dfe:	eb c0                	jmp    2dc0 <loc_connection+0x160>
    2e00:	c7 04 24 a0 2b 02 00 	movl   $0x22ba0,(%esp)
    2e07:	e8 34 47 00 00       	call   7540 <fibril_mutex_lock>
    2e0c:	8b 73 08             	mov    0x8(%ebx),%esi
    2e0f:	c7 04 24 a0 2b 02 00 	movl   $0x22ba0,(%esp)
    2e16:	e8 55 49 00 00       	call   7770 <fibril_mutex_is_locked>
    2e1b:	84 c0                	test   %al,%al
    2e1d:	0f 84 d1 07 00 00    	je     35f4 <loc_connection+0x994>
    2e23:	8b 1d c4 2b 02 00    	mov    0x22bc4,%ebx
    2e29:	81 fb c0 2b 02 00    	cmp    $0x22bc0,%ebx
    2e2f:	75 16                	jne    2e47 <loc_connection+0x1e7>
    2e31:	e9 7a 04 00 00       	jmp    32b0 <loc_connection+0x650>
    2e36:	66 90                	xchg   %ax,%ax
    2e38:	8b 5b 04             	mov    0x4(%ebx),%ebx
    2e3b:	81 fb c0 2b 02 00    	cmp    $0x22bc0,%ebx
    2e41:	0f 84 69 04 00 00    	je     32b0 <loc_connection+0x650>
    2e47:	3b 73 20             	cmp    0x20(%ebx),%esi
    2e4a:	75 ec                	jne    2e38 <loc_connection+0x1d8>
    2e4c:	8b 43 2c             	mov    0x2c(%ebx),%eax
    2e4f:	85 c0                	test   %eax,%eax
    2e51:	0f 84 59 04 00 00    	je     32b0 <loc_connection+0x650>
    2e57:	8b 40 10             	mov    0x10(%eax),%eax
    2e5a:	85 c0                	test   %eax,%eax
    2e5c:	0f 84 4e 04 00 00    	je     32b0 <loc_connection+0x650>
    2e62:	89 04 24             	mov    %eax,(%esp)
    2e65:	e8 c6 0a 01 00       	call   13930 <async_exchange_begin>
    2e6a:	89 c6                	mov    %eax,%esi
    2e6c:	8b 43 30             	mov    0x30(%ebx),%eax
    2e6f:	85 c0                	test   %eax,%eax
    2e71:	c7 44 24 14 00 00 00 	movl   $0x0,0x14(%esp)
    2e78:	00 
    2e79:	c7 44 24 10 00 00 00 	movl   $0x0,0x10(%esp)
    2e80:	00 
    2e81:	0f 85 09 04 00 00    	jne    3290 <loc_connection+0x630>
    2e87:	c7 44 24 0c 00 00 00 	movl   $0x0,0xc(%esp)
    2e8e:	00 
    2e8f:	8b 4d 08             	mov    0x8(%ebp),%ecx
    2e92:	8b 43 20             	mov    0x20(%ebx),%eax
    2e95:	89 74 24 04          	mov    %esi,0x4(%esp)
    2e99:	89 44 24 08          	mov    %eax,0x8(%esp)
    2e9d:	89 0c 24             	mov    %ecx,(%esp)
    2ea0:	e8 ab 01 01 00       	call   13050 <async_forward_fast>
    2ea5:	89 34 24             	mov    %esi,(%esp)
    2ea8:	e8 f3 0d 01 00       	call   13ca0 <async_exchange_end>
    2ead:	c7 04 24 a0 2b 02 00 	movl   $0x22ba0,(%esp)
    2eb4:	e8 a7 47 00 00       	call   7660 <fibril_mutex_unlock>
    2eb9:	81 c4 8c 00 00 00    	add    $0x8c,%esp
    2ebf:	5b                   	pop    %ebx
    2ec0:	5e                   	pop    %esi
    2ec1:	5f                   	pop    %edi
    2ec2:	5d                   	pop    %ebp
    2ec3:	c3                   	ret    
    2ec4:	8d 74 26 00          	lea    0x0(%esi,%eiz,1),%esi
    2ec8:	8b 45 08             	mov    0x8(%ebp),%eax
    2ecb:	e8 c0 ed ff ff       	call   1c90 <loc_connection_consumer.isra.27>
    2ed0:	81 c4 8c 00 00 00    	add    $0x8c,%esp
    2ed6:	5b                   	pop    %ebx
    2ed7:	5e                   	pop    %esi
    2ed8:	5f                   	pop    %edi
    2ed9:	5d                   	pop    %ebp
    2eda:	c3                   	ret    
    2edb:	90                   	nop
    2edc:	8d 74 26 00          	lea    0x0(%esi,%eiz,1),%esi
    2ee0:	c7 44 24 04 fc ff ff 	movl   $0xfffffffc,0x4(%esp)
    2ee7:	ff 
    2ee8:	89 04 24             	mov    %eax,(%esp)
    2eeb:	e8 40 00 01 00       	call   12f30 <async_answer_0>
    2ef0:	e9 a5 fd ff ff       	jmp    2c9a <loc_connection+0x3a>
    2ef5:	8d 76 00             	lea    0x0(%esi),%esi
    2ef8:	ff 24 85 50 02 02 00 	jmp    *0x20250(,%eax,4)
    2eff:	90                   	nop
    2f00:	8d 55 c8             	lea    -0x38(%ebp),%edx
    2f03:	89 d8                	mov    %ebx,%eax
    2f05:	e8 46 e9 ff ff       	call   1850 <loc_namespace_get_id.isra.12>
    2f0a:	e9 b1 fe ff ff       	jmp    2dc0 <loc_connection+0x160>
    2f0f:	90                   	nop
    2f10:	8d 55 c8             	lea    -0x38(%ebp),%edx
    2f13:	89 d8                	mov    %ebx,%eax
    2f15:	e8 56 e7 ff ff       	call   1670 <loc_service_get_id.isra.11>
    2f1a:	e9 a1 fe ff ff       	jmp    2dc0 <loc_connection+0x160>
    2f1f:	90                   	nop
    2f20:	c7 04 24 a0 2b 02 00 	movl   $0x22ba0,(%esp)
    2f27:	e8 14 46 00 00       	call   7540 <fibril_mutex_lock>
    2f2c:	c7 04 24 a0 2b 02 00 	movl   $0x22ba0,(%esp)
    2f33:	8b 7d c8             	mov    -0x38(%ebp),%edi
    2f36:	e8 35 48 00 00       	call   7770 <fibril_mutex_is_locked>
    2f3b:	84 c0                	test   %al,%al
    2f3d:	0f 84 b1 06 00 00    	je     35f4 <loc_connection+0x994>
    2f43:	8b 35 c4 2b 02 00    	mov    0x22bc4,%esi
    2f49:	81 fe c0 2b 02 00    	cmp    $0x22bc0,%esi
    2f4f:	75 16                	jne    2f67 <loc_connection+0x307>
    2f51:	e9 fe 01 00 00       	jmp    3154 <loc_connection+0x4f4>
    2f56:	66 90                	xchg   %ax,%ax
    2f58:	8b 76 04             	mov    0x4(%esi),%esi
    2f5b:	81 fe c0 2b 02 00    	cmp    $0x22bc0,%esi
    2f61:	0f 84 ed 01 00 00    	je     3154 <loc_connection+0x4f4>
    2f67:	3b 7e 20             	cmp    0x20(%esi),%edi
    2f6a:	75 ec                	jne    2f58 <loc_connection+0x2f8>
    2f6c:	c7 04 24 44 2e 02 00 	movl   $0x22e44,(%esp)
    2f73:	e8 c8 45 00 00       	call   7540 <fibril_mutex_lock>
    2f78:	89 f0                	mov    %esi,%eax
    2f7a:	e8 31 ea ff ff       	call   19b0 <loc_service_unregister_core>
    2f7f:	c7 04 24 44 2e 02 00 	movl   $0x22e44,(%esp)
    2f86:	e8 d5 46 00 00       	call   7660 <fibril_mutex_unlock>
    2f8b:	c7 04 24 a0 2b 02 00 	movl   $0x22ba0,(%esp)
    2f92:	e8 c9 46 00 00       	call   7660 <fibril_mutex_unlock>
    2f97:	c7 44 24 04 00 00 00 	movl   $0x0,0x4(%esp)
    2f9e:	00 
    2f9f:	89 1c 24             	mov    %ebx,(%esp)
    2fa2:	e8 89 ff 00 00       	call   12f30 <async_answer_0>
    2fa7:	e9 14 fe ff ff       	jmp    2dc0 <loc_connection+0x160>
    2fac:	8d 74 26 00          	lea    0x0(%esi,%eiz,1),%esi
    2fb0:	8b 55 c8             	mov    -0x38(%ebp),%edx
    2fb3:	c7 04 24 a0 2b 02 00 	movl   $0x22ba0,(%esp)
    2fba:	89 55 94             	mov    %edx,-0x6c(%ebp)
    2fbd:	8b 75 cc             	mov    -0x34(%ebp),%esi
    2fc0:	e8 7b 45 00 00       	call   7540 <fibril_mutex_lock>
    2fc5:	c7 04 24 44 2e 02 00 	movl   $0x22e44,(%esp)
    2fcc:	e8 6f 45 00 00       	call   7540 <fibril_mutex_lock>
    2fd1:	89 74 24 04          	mov    %esi,0x4(%esp)
    2fd5:	c7 04 24 44 2e 02 00 	movl   $0x22e44,(%esp)
    2fdc:	e8 df e3 ff ff       	call   13c0 <category_get>
    2fe1:	c7 04 24 a0 2b 02 00 	movl   $0x22ba0,(%esp)
    2fe8:	89 c7                	mov    %eax,%edi
    2fea:	e8 81 47 00 00       	call   7770 <fibril_mutex_is_locked>
    2fef:	8b 55 94             	mov    -0x6c(%ebp),%edx
    2ff2:	84 c0                	test   %al,%al
    2ff4:	0f 84 fa 05 00 00    	je     35f4 <loc_connection+0x994>
    2ffa:	8b 35 c4 2b 02 00    	mov    0x22bc4,%esi
    3000:	81 fe c0 2b 02 00    	cmp    $0x22bc0,%esi
    3006:	75 17                	jne    301f <loc_connection+0x3bf>
    3008:	e9 3b 01 00 00       	jmp    3148 <loc_connection+0x4e8>
    300d:	8d 76 00             	lea    0x0(%esi),%esi
    3010:	8b 76 04             	mov    0x4(%esi),%esi
    3013:	81 fe c0 2b 02 00    	cmp    $0x22bc0,%esi
    3019:	0f 84 29 01 00 00    	je     3148 <loc_connection+0x4e8>
    301f:	3b 56 20             	cmp    0x20(%esi),%edx
    3022:	75 ec                	jne    3010 <loc_connection+0x3b0>
    3024:	85 ff                	test   %edi,%edi
    3026:	0f 84 1c 01 00 00    	je     3148 <loc_connection+0x4e8>
    302c:	89 3c 24             	mov    %edi,(%esp)
    302f:	e8 0c 45 00 00       	call   7540 <fibril_mutex_lock>
    3034:	89 74 24 04          	mov    %esi,0x4(%esp)
    3038:	89 3c 24             	mov    %edi,(%esp)
    303b:	e8 d0 e1 ff ff       	call   1210 <category_add_service>
    3040:	89 3c 24             	mov    %edi,(%esp)
    3043:	89 c6                	mov    %eax,%esi
    3045:	e8 16 46 00 00       	call   7660 <fibril_mutex_unlock>
    304a:	c7 04 24 44 2e 02 00 	movl   $0x22e44,(%esp)
    3051:	e8 0a 46 00 00       	call   7660 <fibril_mutex_unlock>
    3056:	c7 04 24 a0 2b 02 00 	movl   $0x22ba0,(%esp)
    305d:	e8 fe 45 00 00       	call   7660 <fibril_mutex_unlock>
    3062:	89 1c 24             	mov    %ebx,(%esp)
    3065:	89 74 24 04          	mov    %esi,0x4(%esp)
    3069:	e8 c2 fe 00 00       	call   12f30 <async_answer_0>
    306e:	c7 04 24 d8 2b 02 00 	movl   $0x22bd8,(%esp)
    3075:	e8 c6 44 00 00       	call   7540 <fibril_mutex_lock>
    307a:	8b 1d ec 2b 02 00    	mov    0x22bec,%ebx
    3080:	81 fb e8 2b 02 00    	cmp    $0x22be8,%ebx
    3086:	74 30                	je     30b8 <loc_connection+0x458>
    3088:	8b 43 08             	mov    0x8(%ebx),%eax
    308b:	89 04 24             	mov    %eax,(%esp)
    308e:	e8 9d 08 01 00       	call   13930 <async_exchange_begin>
    3093:	c7 44 24 04 00 04 00 	movl   $0x400,0x4(%esp)
    309a:	00 
    309b:	89 c6                	mov    %eax,%esi
    309d:	89 04 24             	mov    %eax,(%esp)
    30a0:	e8 4b fc 00 00       	call   12cf0 <async_msg_0>
    30a5:	89 34 24             	mov    %esi,(%esp)
    30a8:	e8 f3 0b 01 00       	call   13ca0 <async_exchange_end>
    30ad:	8b 5b 04             	mov    0x4(%ebx),%ebx
    30b0:	81 fb e8 2b 02 00    	cmp    $0x22be8,%ebx
    30b6:	75 d0                	jne    3088 <loc_connection+0x428>
    30b8:	c7 04 24 d8 2b 02 00 	movl   $0x22bd8,(%esp)
    30bf:	e8 9c 45 00 00       	call   7660 <fibril_mutex_unlock>
    30c4:	e9 f7 fc ff ff       	jmp    2dc0 <loc_connection+0x160>
    30c9:	8d b4 26 00 00 00 00 	lea    0x0(%esi,%eiz,1),%esi
    30d0:	c7 04 24 34 00 00 00 	movl   $0x34,(%esp)
    30d7:	e8 14 d3 00 00       	call   103f0 <malloc>
    30dc:	89 c6                	mov    %eax,%esi
    30de:	85 c0                	test   %eax,%eax
    30e0:	0f 84 a2 03 00 00    	je     3488 <loc_connection+0x828>
    30e6:	8b 45 c8             	mov    -0x38(%ebp),%eax
    30e9:	89 46 30             	mov    %eax,0x30(%esi)
    30ec:	8d 45 bc             	lea    -0x44(%ebp),%eax
    30ef:	c7 44 24 14 00 00 00 	movl   $0x0,0x14(%esp)
    30f6:	00 
    30f7:	c7 44 24 10 00 00 00 	movl   $0x0,0x10(%esp)
    30fe:	00 
    30ff:	c7 44 24 0c ff 00 00 	movl   $0xff,0xc(%esp)
    3106:	00 
    3107:	c7 44 24 08 00 00 00 	movl   $0x0,0x8(%esp)
    310e:	00 
    310f:	c7 44 24 04 01 00 00 	movl   $0x1,0x4(%esp)
    3116:	00 
    3117:	89 04 24             	mov    %eax,(%esp)
    311a:	e8 31 19 01 00       	call   14a50 <async_data_write_accept>
    311f:	85 c0                	test   %eax,%eax
    3121:	0f 84 29 01 00 00    	je     3250 <loc_connection+0x5f0>
    3127:	89 34 24             	mov    %esi,(%esp)
    312a:	89 45 94             	mov    %eax,-0x6c(%ebp)
    312d:	e8 ce d3 00 00       	call   10500 <free>
    3132:	8b 45 94             	mov    -0x6c(%ebp),%eax
    3135:	89 44 24 04          	mov    %eax,0x4(%esp)
    3139:	89 1c 24             	mov    %ebx,(%esp)
    313c:	e8 ef fd 00 00       	call   12f30 <async_answer_0>
    3141:	e9 7a fc ff ff       	jmp    2dc0 <loc_connection+0x160>
    3146:	66 90                	xchg   %ax,%ax
    3148:	c7 04 24 44 2e 02 00 	movl   $0x22e44,(%esp)
    314f:	e8 0c 45 00 00       	call   7660 <fibril_mutex_unlock>
    3154:	c7 04 24 a0 2b 02 00 	movl   $0x22ba0,(%esp)
    315b:	e8 00 45 00 00       	call   7660 <fibril_mutex_unlock>
    3160:	e9 89 fc ff ff       	jmp    2dee <loc_connection+0x18e>
    3165:	8d 76 00             	lea    0x0(%esi),%esi
    3168:	c7 04 24 f0 2b 02 00 	movl   $0x22bf0,(%esp)
    316f:	e8 cc 43 00 00       	call   7540 <fibril_mutex_lock>
    3174:	8b 4d b4             	mov    -0x4c(%ebp),%ecx
    3177:	8b 41 10             	mov    0x10(%ecx),%eax
    317a:	85 c0                	test   %eax,%eax
    317c:	74 08                	je     3186 <loc_connection+0x526>
    317e:	89 04 24             	mov    %eax,(%esp)
    3181:	e8 aa 06 01 00       	call   13830 <async_hangup>
    3186:	8b 45 b4             	mov    -0x4c(%ebp),%eax
    3189:	8b 10                	mov    (%eax),%edx
    318b:	85 d2                	test   %edx,%edx
    318d:	74 10                	je     319f <loc_connection+0x53f>
    318f:	89 c1                	mov    %eax,%ecx
    3191:	8b 40 04             	mov    0x4(%eax),%eax
    3194:	85 c0                	test   %eax,%eax
    3196:	74 07                	je     319f <loc_connection+0x53f>
    3198:	89 10                	mov    %edx,(%eax)
    319a:	8b 11                	mov    (%ecx),%edx
    319c:	89 42 04             	mov    %eax,0x4(%edx)
    319f:	8b 45 b4             	mov    -0x4c(%ebp),%eax
    31a2:	c7 00 00 00 00 00    	movl   $0x0,(%eax)
    31a8:	c7 40 04 00 00 00 00 	movl   $0x0,0x4(%eax)
    31af:	c7 04 24 a0 2b 02 00 	movl   $0x22ba0,(%esp)
    31b6:	e8 85 43 00 00       	call   7540 <fibril_mutex_lock>
    31bb:	8b 55 ac             	mov    -0x54(%ebp),%edx
    31be:	89 14 24             	mov    %edx,(%esp)
    31c1:	e8 7a 43 00 00       	call   7540 <fibril_mutex_lock>
    31c6:	c7 04 24 44 2e 02 00 	movl   $0x22e44,(%esp)
    31cd:	e8 6e 43 00 00       	call   7540 <fibril_mutex_lock>
    31d2:	8b 4d b4             	mov    -0x4c(%ebp),%ecx
    31d5:	8b 41 0c             	mov    0xc(%ecx),%eax
    31d8:	3b 45 b0             	cmp    -0x50(%ebp),%eax
    31db:	74 1a                	je     31f7 <loc_connection+0x597>
    31dd:	89 cb                	mov    %ecx,%ebx
    31df:	8b 75 b0             	mov    -0x50(%ebp),%esi
    31e2:	8d b6 00 00 00 00    	lea    0x0(%esi),%esi
    31e8:	83 e8 08             	sub    $0x8,%eax
    31eb:	e8 c0 e7 ff ff       	call   19b0 <loc_service_unregister_core>
    31f0:	8b 43 0c             	mov    0xc(%ebx),%eax
    31f3:	39 f0                	cmp    %esi,%eax
    31f5:	75 f1                	jne    31e8 <loc_connection+0x588>
    31f7:	c7 04 24 44 2e 02 00 	movl   $0x22e44,(%esp)
    31fe:	e8 5d 44 00 00       	call   7660 <fibril_mutex_unlock>
    3203:	8b 45 ac             	mov    -0x54(%ebp),%eax
    3206:	89 04 24             	mov    %eax,(%esp)
    3209:	e8 52 44 00 00       	call   7660 <fibril_mutex_unlock>
    320e:	c7 04 24 a0 2b 02 00 	movl   $0x22ba0,(%esp)
    3215:	e8 46 44 00 00       	call   7660 <fibril_mutex_unlock>
    321a:	c7 04 24 f0 2b 02 00 	movl   $0x22bf0,(%esp)
    3221:	e8 3a 44 00 00       	call   7660 <fibril_mutex_unlock>
    3226:	8b 55 b4             	mov    -0x4c(%ebp),%edx
    3229:	8b 42 14             	mov    0x14(%edx),%eax
    322c:	85 c0                	test   %eax,%eax
    322e:	74 08                	je     3238 <loc_connection+0x5d8>
    3230:	89 04 24             	mov    %eax,(%esp)
    3233:	e8 c8 d2 00 00       	call   10500 <free>
    3238:	8b 45 b4             	mov    -0x4c(%ebp),%eax
    323b:	89 04 24             	mov    %eax,(%esp)
    323e:	e8 bd d2 00 00       	call   10500 <free>
    3243:	81 c4 8c 00 00 00    	add    $0x8c,%esp
    3249:	5b                   	pop    %ebx
    324a:	5e                   	pop    %esi
    324b:	5f                   	pop    %edi
    324c:	5d                   	pop    %ebp
    324d:	c3                   	ret    
    324e:	66 90                	xchg   %ax,%ax
    3250:	8d 4e 28             	lea    0x28(%esi),%ecx
    3253:	8d 55 c0             	lea    -0x40(%ebp),%edx
    3256:	8b 45 bc             	mov    -0x44(%ebp),%eax
    3259:	e8 f2 e2 ff ff       	call   1550 <loc_fqsn_split>
    325e:	84 c0                	test   %al,%al
    3260:	8b 45 bc             	mov    -0x44(%ebp),%eax
    3263:	89 04 24             	mov    %eax,(%esp)
    3266:	75 70                	jne    32d8 <loc_connection+0x678>
    3268:	e8 93 d2 00 00       	call   10500 <free>
    326d:	89 34 24             	mov    %esi,(%esp)
    3270:	e8 8b d2 00 00       	call   10500 <free>
    3275:	c7 44 24 04 f2 ff ff 	movl   $0xfffffff2,0x4(%esp)
    327c:	ff 
    327d:	89 1c 24             	mov    %ebx,(%esp)
    3280:	e8 ab fc 00 00       	call   12f30 <async_answer_0>
    3285:	e9 36 fb ff ff       	jmp    2dc0 <loc_connection+0x160>
    328a:	8d b6 00 00 00 00    	lea    0x0(%esi),%esi
    3290:	8b 53 20             	mov    0x20(%ebx),%edx
    3293:	89 44 24 08          	mov    %eax,0x8(%esp)
    3297:	8b 45 08             	mov    0x8(%ebp),%eax
    329a:	89 54 24 0c          	mov    %edx,0xc(%esp)
    329e:	89 74 24 04          	mov    %esi,0x4(%esp)
    32a2:	89 04 24             	mov    %eax,(%esp)
    32a5:	e8 a6 fd 00 00       	call   13050 <async_forward_fast>
    32aa:	e9 f6 fb ff ff       	jmp    2ea5 <loc_connection+0x245>
    32af:	90                   	nop
    32b0:	c7 04 24 a0 2b 02 00 	movl   $0x22ba0,(%esp)
    32b7:	e8 a4 43 00 00       	call   7660 <fibril_mutex_unlock>
    32bc:	8b 55 08             	mov    0x8(%ebp),%edx
    32bf:	c7 44 24 04 ff ff ff 	movl   $0xffffffff,0x4(%esp)
    32c6:	ff 
    32c7:	89 14 24             	mov    %edx,(%esp)
    32ca:	e8 61 fc 00 00       	call   12f30 <async_answer_0>
    32cf:	e9 c6 f9 ff ff       	jmp    2c9a <loc_connection+0x3a>
    32d4:	8d 74 26 00          	lea    0x0(%esi,%eiz,1),%esi
    32d8:	e8 23 d2 00 00       	call   10500 <free>
    32dd:	c7 04 24 a0 2b 02 00 	movl   $0x22ba0,(%esp)
    32e4:	e8 57 42 00 00       	call   7540 <fibril_mutex_lock>
    32e9:	8b 45 c0             	mov    -0x40(%ebp),%eax
    32ec:	e8 6f e8 ff ff       	call   1b60 <loc_namespace_create>
    32f1:	89 45 a8             	mov    %eax,-0x58(%ebp)
    32f4:	8b 45 c0             	mov    -0x40(%ebp),%eax
    32f7:	89 04 24             	mov    %eax,(%esp)
    32fa:	e8 01 d2 00 00       	call   10500 <free>
    32ff:	8b 45 a8             	mov    -0x58(%ebp),%eax
    3302:	85 c0                	test   %eax,%eax
    3304:	0f 84 5f 01 00 00    	je     3469 <loc_connection+0x809>
    330a:	8d 46 18             	lea    0x18(%esi),%eax
    330d:	8b 56 28             	mov    0x28(%esi),%edx
    3310:	89 46 18             	mov    %eax,0x18(%esi)
    3313:	89 46 1c             	mov    %eax,0x1c(%esi)
    3316:	8b 45 a8             	mov    -0x58(%ebp),%eax
    3319:	c7 06 00 00 00 00    	movl   $0x0,(%esi)
    331f:	c7 46 04 00 00 00 00 	movl   $0x0,0x4(%esi)
    3326:	c7 46 08 00 00 00 00 	movl   $0x0,0x8(%esi)
    332d:	8b 40 0c             	mov    0xc(%eax),%eax
    3330:	c7 46 0c 00 00 00 00 	movl   $0x0,0xc(%esi)
    3337:	c7 04 24 a0 2b 02 00 	movl   $0x22ba0,(%esp)
    333e:	89 55 a4             	mov    %edx,-0x5c(%ebp)
    3341:	89 45 a0             	mov    %eax,-0x60(%ebp)
    3344:	e8 27 44 00 00       	call   7770 <fibril_mutex_is_locked>
    3349:	84 c0                	test   %al,%al
    334b:	0f 84 bf 02 00 00    	je     3610 <loc_connection+0x9b0>
    3351:	8b 3d c4 2b 02 00    	mov    0x22bc4,%edi
    3357:	81 ff c0 2b 02 00    	cmp    $0x22bc0,%edi
    335d:	0f 84 43 01 00 00    	je     34a6 <loc_connection+0x846>
    3363:	89 5d 9c             	mov    %ebx,-0x64(%ebp)
    3366:	89 75 98             	mov    %esi,-0x68(%ebp)
    3369:	8b 5d a4             	mov    -0x5c(%ebp),%ebx
    336c:	89 fe                	mov    %edi,%esi
    336e:	8b 7d a0             	mov    -0x60(%ebp),%edi
    3371:	eb 14                	jmp    3387 <loc_connection+0x727>
    3373:	90                   	nop
    3374:	8d 74 26 00          	lea    0x0(%esi,%eiz,1),%esi
    3378:	8b 76 04             	mov    0x4(%esi),%esi
    337b:	81 fe c0 2b 02 00    	cmp    $0x22bc0,%esi
    3381:	0f 84 19 01 00 00    	je     34a0 <loc_connection+0x840>
    3387:	89 7c 24 04          	mov    %edi,0x4(%esp)
    338b:	8b 46 24             	mov    0x24(%esi),%eax
    338e:	8b 40 0c             	mov    0xc(%eax),%eax
    3391:	89 04 24             	mov    %eax,(%esp)
    3394:	e8 b7 14 00 00       	call   4850 <str_cmp>
    3399:	85 c0                	test   %eax,%eax
    339b:	75 db                	jne    3378 <loc_connection+0x718>
    339d:	89 5c 24 04          	mov    %ebx,0x4(%esp)
    33a1:	8b 46 28             	mov    0x28(%esi),%eax
    33a4:	89 04 24             	mov    %eax,(%esp)
    33a7:	e8 a4 14 00 00       	call   4850 <str_cmp>
    33ac:	85 c0                	test   %eax,%eax
    33ae:	75 c8                	jne    3378 <loc_connection+0x718>
    33b0:	8b 75 98             	mov    -0x68(%ebp),%esi
    33b3:	8b 4d a8             	mov    -0x58(%ebp),%ecx
    33b6:	8b 5d 9c             	mov    -0x64(%ebp),%ebx
    33b9:	8b 46 28             	mov    0x28(%esi),%eax
    33bc:	89 44 24 0c          	mov    %eax,0xc(%esp)
    33c0:	8b 41 0c             	mov    0xc(%ecx),%eax
    33c3:	c7 44 24 04 28 01 02 	movl   $0x20128,0x4(%esp)
    33ca:	00 
    33cb:	89 44 24 08          	mov    %eax,0x8(%esp)
    33cf:	c7 04 24 e8 01 02 00 	movl   $0x201e8,(%esp)
    33d6:	e8 95 81 00 00       	call   b570 <printf>
    33db:	c7 04 24 a0 2b 02 00 	movl   $0x22ba0,(%esp)
    33e2:	e8 89 43 00 00       	call   7770 <fibril_mutex_is_locked>
    33e7:	84 c0                	test   %al,%al
    33e9:	0f 84 e9 01 00 00    	je     35d8 <loc_connection+0x978>
    33ef:	8b 45 a8             	mov    -0x58(%ebp),%eax
    33f2:	8b 78 10             	mov    0x10(%eax),%edi
    33f5:	85 ff                	test   %edi,%edi
    33f7:	75 3c                	jne    3435 <loc_connection+0x7d5>
    33f9:	8b 10                	mov    (%eax),%edx
    33fb:	85 d2                	test   %edx,%edx
    33fd:	74 10                	je     340f <loc_connection+0x7af>
    33ff:	89 c1                	mov    %eax,%ecx
    3401:	8b 40 04             	mov    0x4(%eax),%eax
    3404:	85 c0                	test   %eax,%eax
    3406:	74 07                	je     340f <loc_connection+0x7af>
    3408:	89 10                	mov    %edx,(%eax)
    340a:	8b 11                	mov    (%ecx),%edx
    340c:	89 42 04             	mov    %eax,0x4(%edx)
    340f:	8b 45 a8             	mov    -0x58(%ebp),%eax
    3412:	c7 00 00 00 00 00    	movl   $0x0,(%eax)
    3418:	c7 40 04 00 00 00 00 	movl   $0x0,0x4(%eax)
    341f:	8b 40 0c             	mov    0xc(%eax),%eax
    3422:	89 04 24             	mov    %eax,(%esp)
    3425:	e8 d6 d0 00 00       	call   10500 <free>
    342a:	8b 45 a8             	mov    -0x58(%ebp),%eax
    342d:	89 04 24             	mov    %eax,(%esp)
    3430:	e8 cb d0 00 00       	call   10500 <free>
    3435:	c7 04 24 a0 2b 02 00 	movl   $0x22ba0,(%esp)
    343c:	e8 1f 42 00 00       	call   7660 <fibril_mutex_unlock>
    3441:	8b 46 28             	mov    0x28(%esi),%eax
    3444:	89 04 24             	mov    %eax,(%esp)
    3447:	e8 b4 d0 00 00       	call   10500 <free>
    344c:	89 34 24             	mov    %esi,(%esp)
    344f:	e8 ac d0 00 00       	call   10500 <free>
    3454:	c7 44 24 04 f7 ff ff 	movl   $0xfffffff7,0x4(%esp)
    345b:	ff 
    345c:	89 1c 24             	mov    %ebx,(%esp)
    345f:	e8 cc fa 00 00       	call   12f30 <async_answer_0>
    3464:	e9 57 f9 ff ff       	jmp    2dc0 <loc_connection+0x160>
    3469:	c7 04 24 a0 2b 02 00 	movl   $0x22ba0,(%esp)
    3470:	e8 eb 41 00 00       	call   7660 <fibril_mutex_unlock>
    3475:	8b 46 28             	mov    0x28(%esi),%eax
    3478:	89 04 24             	mov    %eax,(%esp)
    347b:	e8 80 d0 00 00       	call   10500 <free>
    3480:	89 34 24             	mov    %esi,(%esp)
    3483:	e8 78 d0 00 00       	call   10500 <free>
    3488:	c7 44 24 04 fe ff ff 	movl   $0xfffffffe,0x4(%esp)
    348f:	ff 
    3490:	89 1c 24             	mov    %ebx,(%esp)
    3493:	e8 98 fa 00 00       	call   12f30 <async_answer_0>
    3498:	e9 23 f9 ff ff       	jmp    2dc0 <loc_connection+0x160>
    349d:	8d 76 00             	lea    0x0(%esi),%esi
    34a0:	8b 5d 9c             	mov    -0x64(%ebp),%ebx
    34a3:	8b 75 98             	mov    -0x68(%ebp),%esi
    34a6:	c7 04 24 c8 2b 02 00 	movl   $0x22bc8,(%esp)
    34ad:	e8 8e 40 00 00       	call   7540 <fibril_mutex_lock>
    34b2:	8b 15 40 2e 02 00    	mov    0x22e40,%edx
    34b8:	42                   	inc    %edx
    34b9:	c7 04 24 c8 2b 02 00 	movl   $0x22bc8,(%esp)
    34c0:	89 15 40 2e 02 00    	mov    %edx,0x22e40
    34c6:	e8 95 41 00 00       	call   7660 <fibril_mutex_unlock>
    34cb:	a1 40 2e 02 00       	mov    0x22e40,%eax
    34d0:	89 46 20             	mov    %eax,0x20(%esi)
    34d3:	c7 04 24 a0 2b 02 00 	movl   $0x22ba0,(%esp)
    34da:	e8 91 42 00 00       	call   7770 <fibril_mutex_is_locked>
    34df:	84 c0                	test   %al,%al
    34e1:	0f 84 45 01 00 00    	je     362c <loc_connection+0x9cc>
    34e7:	8b 45 a8             	mov    -0x58(%ebp),%eax
    34ea:	8b 55 ac             	mov    -0x54(%ebp),%edx
    34ed:	89 46 24             	mov    %eax,0x24(%esi)
    34f0:	8b 48 10             	mov    0x10(%eax),%ecx
    34f3:	41                   	inc    %ecx
    34f4:	89 48 10             	mov    %ecx,0x10(%eax)
    34f7:	8b 45 b4             	mov    -0x4c(%ebp),%eax
    34fa:	89 46 2c             	mov    %eax,0x2c(%esi)
    34fd:	a1 c0 2b 02 00       	mov    0x22bc0,%eax
    3502:	c7 46 04 c0 2b 02 00 	movl   $0x22bc0,0x4(%esi)
    3509:	89 06                	mov    %eax,(%esi)
    350b:	89 70 04             	mov    %esi,0x4(%eax)
    350e:	89 14 24             	mov    %edx,(%esp)
    3511:	89 35 c0 2b 02 00    	mov    %esi,0x22bc0
    3517:	e8 24 40 00 00       	call   7540 <fibril_mutex_lock>
    351c:	8b 46 2c             	mov    0x2c(%esi),%eax
    351f:	8d 56 08             	lea    0x8(%esi),%edx
    3522:	8d 48 08             	lea    0x8(%eax),%ecx
    3525:	89 4e 0c             	mov    %ecx,0xc(%esi)
    3528:	8b 48 08             	mov    0x8(%eax),%ecx
    352b:	89 4e 08             	mov    %ecx,0x8(%esi)
    352e:	8b 48 08             	mov    0x8(%eax),%ecx
    3531:	89 50 08             	mov    %edx,0x8(%eax)
    3534:	83 c0 18             	add    $0x18,%eax
    3537:	89 51 04             	mov    %edx,0x4(%ecx)
    353a:	89 04 24             	mov    %eax,(%esp)
    353d:	e8 1e 41 00 00       	call   7660 <fibril_mutex_unlock>
    3542:	c7 04 24 00 2c 02 00 	movl   $0x22c00,(%esp)
    3549:	e8 12 4d 00 00       	call   8260 <fibril_condvar_broadcast>
    354e:	c7 04 24 a0 2b 02 00 	movl   $0x22ba0,(%esp)
    3555:	e8 06 41 00 00       	call   7660 <fibril_mutex_unlock>
    355a:	8b 46 20             	mov    0x20(%esi),%eax
    355d:	89 44 24 08          	mov    %eax,0x8(%esp)
    3561:	c7 44 24 04 00 00 00 	movl   $0x0,0x4(%esp)
    3568:	00 
    3569:	89 1c 24             	mov    %ebx,(%esp)
    356c:	e8 ff f9 00 00       	call   12f70 <async_answer_1>
    3571:	e9 4a f8 ff ff       	jmp    2dc0 <loc_connection+0x160>
    3576:	8b 4d b4             	mov    -0x4c(%ebp),%ecx
    3579:	89 45 94             	mov    %eax,-0x6c(%ebp)
    357c:	89 0c 24             	mov    %ecx,(%esp)
    357f:	e8 7c cf 00 00       	call   10500 <free>
    3584:	8b 45 94             	mov    -0x6c(%ebp),%eax
    3587:	89 44 24 04          	mov    %eax,0x4(%esp)
    358b:	89 1c 24             	mov    %ebx,(%esp)
    358e:	e8 9d f9 00 00       	call   12f30 <async_answer_0>
    3593:	e9 02 f7 ff ff       	jmp    2c9a <loc_connection+0x3a>
    3598:	c7 44 24 04 fe ff ff 	movl   $0xfffffffe,0x4(%esp)
    359f:	ff 
    35a0:	89 1c 24             	mov    %ebx,(%esp)
    35a3:	e8 88 f9 00 00       	call   12f30 <async_answer_0>
    35a8:	e9 ed f6 ff ff       	jmp    2c9a <loc_connection+0x3a>
    35ad:	8b 42 14             	mov    0x14(%edx),%eax
    35b0:	89 04 24             	mov    %eax,(%esp)
    35b3:	e8 48 cf 00 00       	call   10500 <free>
    35b8:	8b 45 b4             	mov    -0x4c(%ebp),%eax
    35bb:	89 04 24             	mov    %eax,(%esp)
    35be:	e8 3d cf 00 00       	call   10500 <free>
    35c3:	c7 44 24 04 f5 ff ff 	movl   $0xfffffff5,0x4(%esp)
    35ca:	ff 
    35cb:	89 1c 24             	mov    %ebx,(%esp)
    35ce:	e8 5d f9 00 00       	call   12f30 <async_answer_0>
    35d3:	e9 c2 f6 ff ff       	jmp    2c9a <loc_connection+0x3a>
    35d8:	c7 44 24 08 1e 01 00 	movl   $0x11e,0x8(%esp)
    35df:	00 
    35e0:	c7 44 24 04 16 01 02 	movl   $0x20116,0x4(%esp)
    35e7:	00 
    35e8:	c7 04 24 bc 00 02 00 	movl   $0x200bc,(%esp)
    35ef:	e8 5c 76 01 00       	call   1ac50 <assert_abort>
    35f4:	c7 44 24 08 ef 00 00 	movl   $0xef,0x8(%esp)
    35fb:	00 
    35fc:	c7 44 24 04 16 01 02 	movl   $0x20116,0x4(%esp)
    3603:	00 
    3604:	c7 04 24 bc 00 02 00 	movl   $0x200bc,(%esp)
    360b:	e8 40 76 01 00       	call   1ac50 <assert_abort>
    3610:	c7 44 24 08 db 00 00 	movl   $0xdb,0x8(%esp)
    3617:	00 
    3618:	c7 44 24 04 16 01 02 	movl   $0x20116,0x4(%esp)
    361f:	00 
    3620:	c7 04 24 bc 00 02 00 	movl   $0x200bc,(%esp)
    3627:	e8 24 76 01 00       	call   1ac50 <assert_abort>
    362c:	c7 44 24 08 2c 01 00 	movl   $0x12c,0x8(%esp)
    3633:	00 
    3634:	c7 44 24 04 16 01 02 	movl   $0x20116,0x4(%esp)
    363b:	00 
    363c:	c7 04 24 bc 00 02 00 	movl   $0x200bc,(%esp)
    3643:	e8 08 76 01 00       	call   1ac50 <assert_abort>
    3648:	90                   	nop
    3649:	8d b4 26 00 00 00 00 	lea    0x0(%esi,%eiz,1),%esi

00003650 <loc_create_id>:
    3650:	55                   	push   %ebp
    3651:	89 e5                	mov    %esp,%ebp
    3653:	83 ec 18             	sub    $0x18,%esp
    3656:	c7 04 24 c8 2b 02 00 	movl   $0x22bc8,(%esp)
    365d:	e8 de 3e 00 00       	call   7540 <fibril_mutex_lock>
    3662:	a1 40 2e 02 00       	mov    0x22e40,%eax
    3667:	40                   	inc    %eax
    3668:	c7 04 24 c8 2b 02 00 	movl   $0x22bc8,(%esp)
    366f:	a3 40 2e 02 00       	mov    %eax,0x22e40
    3674:	e8 e7 3f 00 00       	call   7660 <fibril_mutex_unlock>
    3679:	a1 40 2e 02 00       	mov    0x22e40,%eax
    367e:	c9                   	leave  
    367f:	c3                   	ret    

00003680 <loc_category_change_event>:
    3680:	55                   	push   %ebp
    3681:	89 e5                	mov    %esp,%ebp
    3683:	56                   	push   %esi
    3684:	53                   	push   %ebx
    3685:	83 ec 10             	sub    $0x10,%esp
    3688:	c7 04 24 d8 2b 02 00 	movl   $0x22bd8,(%esp)
    368f:	e8 ac 3e 00 00       	call   7540 <fibril_mutex_lock>
    3694:	8b 1d ec 2b 02 00    	mov    0x22bec,%ebx
    369a:	81 fb e8 2b 02 00    	cmp    $0x22be8,%ebx
    36a0:	74 36                	je     36d8 <loc_category_change_event+0x58>
    36a2:	8d b6 00 00 00 00    	lea    0x0(%esi),%esi
    36a8:	8b 43 08             	mov    0x8(%ebx),%eax
    36ab:	89 04 24             	mov    %eax,(%esp)
    36ae:	e8 7d 02 01 00       	call   13930 <async_exchange_begin>
    36b3:	c7 44 24 04 00 04 00 	movl   $0x400,0x4(%esp)
    36ba:	00 
    36bb:	89 c6                	mov    %eax,%esi
    36bd:	89 04 24             	mov    %eax,(%esp)
    36c0:	e8 2b f6 00 00       	call   12cf0 <async_msg_0>
    36c5:	89 34 24             	mov    %esi,(%esp)
    36c8:	e8 d3 05 01 00       	call   13ca0 <async_exchange_end>
    36cd:	8b 5b 04             	mov    0x4(%ebx),%ebx
    36d0:	81 fb e8 2b 02 00    	cmp    $0x22be8,%ebx
    36d6:	75 d0                	jne    36a8 <loc_category_change_event+0x28>
    36d8:	c7 04 24 d8 2b 02 00 	movl   $0x22bd8,(%esp)
    36df:	e8 7c 3f 00 00       	call   7660 <fibril_mutex_unlock>
    36e4:	83 c4 10             	add    $0x10,%esp
    36e7:	5b                   	pop    %ebx
    36e8:	5e                   	pop    %esi
    36e9:	5d                   	pop    %ebp
    36ea:	c3                   	ret    
    36eb:	66 90                	xchg   %ax,%ax
    36ed:	66 90                	xchg   %ax,%ax
    36ef:	90                   	nop

000036f0 <main>:
    36f0:	55                   	push   %ebp
    36f1:	89 e5                	mov    %esp,%ebp
    36f3:	53                   	push   %ebx
    36f4:	83 e4 f0             	and    $0xfffffff0,%esp
    36f7:	83 ec 10             	sub    $0x10,%esp
    36fa:	c7 44 24 04 28 01 02 	movl   $0x20128,0x4(%esp)
    3701:	00 
    3702:	c7 04 24 2c 01 02 00 	movl   $0x2012c,(%esp)
    3709:	e8 62 7e 00 00       	call   b570 <printf>
    370e:	31 c0                	xor    %eax,%eax
    3710:	c7 04 85 60 2e 02 00 	movl   $0x0,0x22e60(,%eax,4)
    3717:	00 00 00 00 
    371b:	40                   	inc    %eax
    371c:	3d 00 01 00 00       	cmp    $0x100,%eax
    3721:	75 ed                	jne    3710 <main+0x20>
    3723:	c7 04 24 44 2e 02 00 	movl   $0x22e44,(%esp)
    372a:	e8 91 d9 ff ff       	call   10c0 <categ_dir_init>
    372f:	c7 04 24 4a 01 02 00 	movl   $0x2014a,(%esp)
    3736:	e8 75 da ff ff       	call   11b0 <category_new>
    373b:	c7 04 24 44 2e 02 00 	movl   $0x22e44,(%esp)
    3742:	89 44 24 04          	mov    %eax,0x4(%esp)
    3746:	e8 a5 d9 ff ff       	call   10f0 <categ_dir_add_cat>
    374b:	c7 04 24 4d 01 02 00 	movl   $0x2014d,(%esp)
    3752:	e8 59 da ff ff       	call   11b0 <category_new>
    3757:	c7 04 24 44 2e 02 00 	movl   $0x22e44,(%esp)
    375e:	89 44 24 04          	mov    %eax,0x4(%esp)
    3762:	e8 89 d9 ff ff       	call   10f0 <categ_dir_add_cat>
    3767:	c7 04 24 54 01 02 00 	movl   $0x20154,(%esp)
    376e:	e8 3d da ff ff       	call   11b0 <category_new>
    3773:	c7 04 24 44 2e 02 00 	movl   $0x22e44,(%esp)
    377a:	89 44 24 04          	mov    %eax,0x4(%esp)
    377e:	e8 6d d9 ff ff       	call   10f0 <categ_dir_add_cat>
    3783:	c7 04 24 5d 01 02 00 	movl   $0x2015d,(%esp)
    378a:	e8 21 da ff ff       	call   11b0 <category_new>
    378f:	c7 04 24 44 2e 02 00 	movl   $0x22e44,(%esp)
    3796:	89 44 24 04          	mov    %eax,0x4(%esp)
    379a:	e8 51 d9 ff ff       	call   10f0 <categ_dir_add_cat>
    379f:	c7 04 24 63 01 02 00 	movl   $0x20163,(%esp)
    37a6:	e8 05 da ff ff       	call   11b0 <category_new>
    37ab:	c7 04 24 44 2e 02 00 	movl   $0x22e44,(%esp)
    37b2:	89 44 24 04          	mov    %eax,0x4(%esp)
    37b6:	e8 35 d9 ff ff       	call   10f0 <categ_dir_add_cat>
    37bb:	c7 04 24 6a 01 02 00 	movl   $0x2016a,(%esp)
    37c2:	e8 e9 d9 ff ff       	call   11b0 <category_new>
    37c7:	c7 04 24 44 2e 02 00 	movl   $0x22e44,(%esp)
    37ce:	89 44 24 04          	mov    %eax,0x4(%esp)
    37d2:	e8 19 d9 ff ff       	call   10f0 <categ_dir_add_cat>
    37d7:	c7 04 24 70 01 02 00 	movl   $0x20170,(%esp)
    37de:	e8 cd d9 ff ff       	call   11b0 <category_new>
    37e3:	c7 04 24 44 2e 02 00 	movl   $0x22e44,(%esp)
    37ea:	89 44 24 04          	mov    %eax,0x4(%esp)
    37ee:	e8 fd d8 ff ff       	call   10f0 <categ_dir_add_cat>
    37f3:	c7 04 24 76 01 02 00 	movl   $0x20176,(%esp)
    37fa:	e8 b1 d9 ff ff       	call   11b0 <category_new>
    37ff:	c7 04 24 44 2e 02 00 	movl   $0x22e44,(%esp)
    3806:	89 44 24 04          	mov    %eax,0x4(%esp)
    380a:	e8 e1 d8 ff ff       	call   10f0 <categ_dir_add_cat>
    380f:	c7 04 24 7c 01 02 00 	movl   $0x2017c,(%esp)
    3816:	e8 95 d9 ff ff       	call   11b0 <category_new>
    381b:	c7 04 24 44 2e 02 00 	movl   $0x22e44,(%esp)
    3822:	89 44 24 04          	mov    %eax,0x4(%esp)
    3826:	e8 c5 d8 ff ff       	call   10f0 <categ_dir_add_cat>
    382b:	c7 04 24 86 01 02 00 	movl   $0x20186,(%esp)
    3832:	e8 79 d9 ff ff       	call   11b0 <category_new>
    3837:	c7 04 24 44 2e 02 00 	movl   $0x22e44,(%esp)
    383e:	89 44 24 04          	mov    %eax,0x4(%esp)
    3842:	e8 a9 d8 ff ff       	call   10f0 <categ_dir_add_cat>
    3847:	c7 04 24 8e 01 02 00 	movl   $0x2018e,(%esp)
    384e:	e8 5d d9 ff ff       	call   11b0 <category_new>
    3853:	c7 04 24 44 2e 02 00 	movl   $0x22e44,(%esp)
    385a:	89 44 24 04          	mov    %eax,0x4(%esp)
    385e:	e8 8d d8 ff ff       	call   10f0 <categ_dir_add_cat>
    3863:	c7 04 24 92 01 02 00 	movl   $0x20192,(%esp)
    386a:	e8 41 d9 ff ff       	call   11b0 <category_new>
    386f:	c7 04 24 44 2e 02 00 	movl   $0x22e44,(%esp)
    3876:	89 44 24 04          	mov    %eax,0x4(%esp)
    387a:	e8 71 d8 ff ff       	call   10f0 <categ_dir_add_cat>
    387f:	c7 04 24 9d 01 02 00 	movl   $0x2019d,(%esp)
    3886:	e8 25 d9 ff ff       	call   11b0 <category_new>
    388b:	c7 04 24 44 2e 02 00 	movl   $0x22e44,(%esp)
    3892:	89 44 24 04          	mov    %eax,0x4(%esp)
    3896:	e8 55 d8 ff ff       	call   10f0 <categ_dir_add_cat>
    389b:	c7 04 24 60 2c 00 00 	movl   $0x2c60,(%esp)
    38a2:	e8 39 de 00 00       	call   116e0 <async_set_client_connection>
    38a7:	c7 04 24 6c 6f 63 20 	movl   $0x20636f6c,(%esp)
    38ae:	e8 ed d2 00 00       	call   10ba0 <service_register>
    38b3:	89 c3                	mov    %eax,%ebx
    38b5:	85 c0                	test   %eax,%eax
    38b7:	75 20                	jne    38d9 <main+0x1e9>
    38b9:	c7 44 24 04 28 01 02 	movl   $0x20128,0x4(%esp)
    38c0:	00 
    38c1:	c7 04 24 a6 01 02 00 	movl   $0x201a6,(%esp)
    38c8:	e8 a3 7c 00 00       	call   b570 <printf>
    38cd:	c7 04 24 01 00 00 00 	movl   $0x1,(%esp)
    38d4:	e8 97 34 00 00       	call   6d70 <fibril_switch>
    38d9:	89 d8                	mov    %ebx,%eax
    38db:	8b 5d fc             	mov    -0x4(%ebp),%ebx
    38de:	c9                   	leave  
    38df:	c3                   	ret    

000038e0 <exit>:
    38e0:	55                   	push   %ebp
    38e1:	89 e5                	mov    %esp,%ebp
    38e3:	83 ec 28             	sub    $0x28,%esp
    38e6:	80 3d 60 32 02 00 00 	cmpb   $0x0,0x23260
    38ed:	75 3f                	jne    392e <exit+0x4e>
    38ef:	c7 44 24 18 0a 00 00 	movl   $0xa,0x18(%esp)
    38f6:	00 
    38f7:	c7 44 24 14 00 00 00 	movl   $0x0,0x14(%esp)
    38fe:	00 
    38ff:	c7 44 24 10 00 00 00 	movl   $0x0,0x10(%esp)
    3906:	00 
    3907:	c7 44 24 0c 00 00 00 	movl   $0x0,0xc(%esp)
    390e:	00 
    390f:	c7 44 24 08 00 00 00 	movl   $0x0,0x8(%esp)
    3916:	00 
    3917:	c7 44 24 04 00 00 00 	movl   $0x0,0x4(%esp)
    391e:	00 
    391f:	c7 04 24 00 00 00 00 	movl   $0x0,(%esp)
    3926:	ff 15 94 2d 02 00    	call   *0x22d94
    392c:	eb fe                	jmp    392c <exit+0x4c>
    392e:	e8 dd 5a 00 00       	call   9410 <__stdio_done>
    3933:	8b 45 08             	mov    0x8(%ebp),%eax
    3936:	89 04 24             	mov    %eax,(%esp)
    3939:	e8 52 55 00 00       	call   8e90 <task_retval>
    393e:	65 a1 00 00 00 00    	mov    %gs:0x0,%eax
    3944:	8b 40 04             	mov    0x4(%eax),%eax
    3947:	89 04 24             	mov    %eax,(%esp)
    394a:	e8 31 33 00 00       	call   6c80 <fibril_teardown>
    394f:	eb 9e                	jmp    38ef <exit+0xf>
    3951:	eb 0d                	jmp    3960 <abort>
    3953:	90                   	nop
    3954:	90                   	nop
    3955:	90                   	nop
    3956:	90                   	nop
    3957:	90                   	nop
    3958:	90                   	nop
    3959:	90                   	nop
    395a:	90                   	nop
    395b:	90                   	nop
    395c:	90                   	nop
    395d:	90                   	nop
    395e:	90                   	nop
    395f:	90                   	nop

00003960 <abort>:
    3960:	55                   	push   %ebp
    3961:	89 e5                	mov    %esp,%ebp
    3963:	83 ec 28             	sub    $0x28,%esp
    3966:	c7 44 24 18 0a 00 00 	movl   $0xa,0x18(%esp)
    396d:	00 
    396e:	c7 44 24 14 00 00 00 	movl   $0x0,0x14(%esp)
    3975:	00 
    3976:	c7 44 24 10 00 00 00 	movl   $0x0,0x10(%esp)
    397d:	00 
    397e:	c7 44 24 0c 00 00 00 	movl   $0x0,0xc(%esp)
    3985:	00 
    3986:	c7 44 24 08 00 00 00 	movl   $0x0,0x8(%esp)
    398d:	00 
    398e:	c7 44 24 04 00 00 00 	movl   $0x0,0x4(%esp)
    3995:	00 
    3996:	c7 04 24 01 00 00 00 	movl   $0x1,(%esp)
    399d:	ff 15 94 2d 02 00    	call   *0x22d94
    39a3:	eb fe                	jmp    39a3 <abort+0x43>
    39a5:	8d 74 26 00          	lea    0x0(%esi,%eiz,1),%esi
    39a9:	8d bc 27 00 00 00 00 	lea    0x0(%edi,%eiz,1),%edi

000039b0 <__main>:
    39b0:	55                   	push   %ebp
    39b1:	89 e5                	mov    %esp,%ebp
    39b3:	57                   	push   %edi
    39b4:	56                   	push   %esi
    39b5:	53                   	push   %ebx
    39b6:	83 ec 2c             	sub    $0x2c,%esp
    39b9:	8b 5d 08             	mov    0x8(%ebp),%ebx
    39bc:	e8 2f c9 00 00       	call   102f0 <__malloc_init>
    39c1:	e8 3a e8 00 00       	call   12200 <__async_init>
    39c6:	e8 35 32 00 00       	call   6c00 <fibril_setup>
    39cb:	85 c0                	test   %eax,%eax
    39cd:	0f 84 82 00 00 00    	je     3a55 <__main+0xa5>
    39d3:	c7 44 24 18 01 00 00 	movl   $0x1,0x18(%esp)
    39da:	00 
    39db:	c7 44 24 14 00 00 00 	movl   $0x0,0x14(%esp)
    39e2:	00 
    39e3:	c7 44 24 10 00 00 00 	movl   $0x0,0x10(%esp)
    39ea:	00 
    39eb:	c7 44 24 0c 00 00 00 	movl   $0x0,0xc(%esp)
    39f2:	00 
    39f3:	c7 44 24 08 00 00 00 	movl   $0x0,0x8(%esp)
    39fa:	00 
    39fb:	c7 44 24 04 00 00 00 	movl   $0x0,0x4(%esp)
    3a02:	00 
    3a03:	8b 40 30             	mov    0x30(%eax),%eax
    3a06:	89 04 24             	mov    %eax,(%esp)
    3a09:	ff 15 94 2d 02 00    	call   *0x22d94
    3a0f:	89 1d 20 2e 02 00    	mov    %ebx,0x22e20
    3a15:	c6 05 60 32 02 00 01 	movb   $0x1,0x23260
    3a1c:	85 db                	test   %ebx,%ebx
    3a1e:	74 3a                	je     3a5a <__main+0xaa>
    3a20:	8b 43 10             	mov    0x10(%ebx),%eax
    3a23:	8b 73 08             	mov    0x8(%ebx),%esi
    3a26:	8b 7b 0c             	mov    0xc(%ebx),%edi
    3a29:	89 04 24             	mov    %eax,(%esp)
    3a2c:	e8 4f 57 00 00       	call   9180 <__stdio_init>
    3a31:	a1 20 2e 02 00       	mov    0x22e20,%eax
    3a36:	8b 40 04             	mov    0x4(%eax),%eax
    3a39:	89 04 24             	mov    %eax,(%esp)
    3a3c:	e8 9f 65 01 00       	call   19fe0 <chdir>
    3a41:	89 7c 24 04          	mov    %edi,0x4(%esp)
    3a45:	89 34 24             	mov    %esi,(%esp)
    3a48:	e8 a3 fc ff ff       	call   36f0 <main>
    3a4d:	89 04 24             	mov    %eax,(%esp)
    3a50:	e8 8b fe ff ff       	call   38e0 <exit>
    3a55:	e8 06 ff ff ff       	call   3960 <abort>
    3a5a:	c7 04 24 00 00 00 00 	movl   $0x0,(%esp)
    3a61:	31 ff                	xor    %edi,%edi
    3a63:	e8 18 57 00 00       	call   9180 <__stdio_init>
    3a68:	31 f6                	xor    %esi,%esi
    3a6a:	eb d5                	jmp    3a41 <__main+0x91>
    3a6c:	66 90                	xchg   %ax,%ax
    3a6e:	66 90                	xchg   %ax,%ax

00003a70 <_strtoul>:
    3a70:	55                   	push   %ebp
    3a71:	89 e5                	mov    %esp,%ebp
    3a73:	57                   	push   %edi
    3a74:	56                   	push   %esi
    3a75:	53                   	push   %ebx
    3a76:	83 ec 08             	sub    $0x8,%esp
    3a79:	89 45 f0             	mov    %eax,-0x10(%ebp)
    3a7c:	8a 00                	mov    (%eax),%al
    3a7e:	89 55 ec             	mov    %edx,-0x14(%ebp)
    3a81:	0f be d0             	movsbl %al,%edx
    3a84:	83 ea 09             	sub    $0x9,%edx
    3a87:	8b 5d f0             	mov    -0x10(%ebp),%ebx
    3a8a:	83 fa 17             	cmp    $0x17,%edx
    3a8d:	77 23                	ja     3ab2 <_strtoul+0x42>
    3a8f:	8b 3c 95 c0 03 02 00 	mov    0x203c0(,%edx,4),%edi
    3a96:	85 ff                	test   %edi,%edi
    3a98:	0f 84 94 01 00 00    	je     3c32 <_strtoul+0x1c2>
    3a9e:	66 90                	xchg   %ax,%ax
    3aa0:	43                   	inc    %ebx
    3aa1:	8a 03                	mov    (%ebx),%al
    3aa3:	0f be d0             	movsbl %al,%edx
    3aa6:	83 ea 09             	sub    $0x9,%edx
    3aa9:	83 fa 17             	cmp    $0x17,%edx
    3aac:	0f 86 a6 00 00 00    	jbe    3b58 <_strtoul+0xe8>
    3ab2:	3c 2d                	cmp    $0x2d,%al
    3ab4:	0f 84 1e 01 00 00    	je     3bd8 <_strtoul+0x168>
    3aba:	3c 2b                	cmp    $0x2b,%al
    3abc:	0f 94 c0             	sete   %al
    3abf:	25 ff 00 00 00       	and    $0xff,%eax
    3ac4:	01 c3                	add    %eax,%ebx
    3ac6:	85 c9                	test   %ecx,%ecx
    3ac8:	0f 84 a2 00 00 00    	je     3b70 <_strtoul+0x100>
    3ace:	83 f9 24             	cmp    $0x24,%ecx
    3ad1:	0f 8f 21 01 00 00    	jg     3bf8 <_strtoul+0x188>
    3ad7:	83 f9 01             	cmp    $0x1,%ecx
    3ada:	0f 84 18 01 00 00    	je     3bf8 <_strtoul+0x188>
    3ae0:	8a 13                	mov    (%ebx),%dl
    3ae2:	83 f9 10             	cmp    $0x10,%ecx
    3ae5:	0f 84 16 01 00 00    	je     3c01 <_strtoul+0x191>
    3aeb:	84 d2                	test   %dl,%dl
    3aed:	0f 84 2c 01 00 00    	je     3c1f <_strtoul+0x1af>
    3af3:	89 de                	mov    %ebx,%esi
    3af5:	31 c0                	xor    %eax,%eax
    3af7:	eb 4a                	jmp    3b43 <_strtoul+0xd3>
    3af9:	8d b4 26 00 00 00 00 	lea    0x0(%esi,%eiz,1),%esi
    3b00:	83 ea 57             	sub    $0x57,%edx
    3b03:	81 e2 ff 00 00 00    	and    $0xff,%edx
    3b09:	39 d1                	cmp    %edx,%ecx
    3b0b:	0f 8e 94 00 00 00    	jle    3ba5 <_strtoul+0x135>
    3b11:	0f b6 f8             	movzbl %al,%edi
    3b14:	0f af f9             	imul   %ecx,%edi
    3b17:	c1 e8 08             	shr    $0x8,%eax
    3b1a:	01 fa                	add    %edi,%edx
    3b1c:	0f af c1             	imul   %ecx,%eax
    3b1f:	89 d7                	mov    %edx,%edi
    3b21:	c1 ef 08             	shr    $0x8,%edi
    3b24:	01 f8                	add    %edi,%eax
    3b26:	3d ff ff ff 00       	cmp    $0xffffff,%eax
    3b2b:	0f 87 b7 00 00 00    	ja     3be8 <_strtoul+0x178>
    3b31:	46                   	inc    %esi
    3b32:	81 e2 ff 00 00 00    	and    $0xff,%edx
    3b38:	c1 e0 08             	shl    $0x8,%eax
    3b3b:	01 d0                	add    %edx,%eax
    3b3d:	8a 16                	mov    (%esi),%dl
    3b3f:	84 d2                	test   %dl,%dl
    3b41:	74 62                	je     3ba5 <_strtoul+0x135>
    3b43:	80 fa 60             	cmp    $0x60,%dl
    3b46:	77 b8                	ja     3b00 <_strtoul+0x90>
    3b48:	80 fa 40             	cmp    $0x40,%dl
    3b4b:	76 53                	jbe    3ba0 <_strtoul+0x130>
    3b4d:	83 ea 37             	sub    $0x37,%edx
    3b50:	eb b1                	jmp    3b03 <_strtoul+0x93>
    3b52:	8d b6 00 00 00 00    	lea    0x0(%esi),%esi
    3b58:	8b 34 95 c0 03 02 00 	mov    0x203c0(,%edx,4),%esi
    3b5f:	85 f6                	test   %esi,%esi
    3b61:	0f 85 39 ff ff ff    	jne    3aa0 <_strtoul+0x30>
    3b67:	e9 46 ff ff ff       	jmp    3ab2 <_strtoul+0x42>
    3b6c:	8d 74 26 00          	lea    0x0(%esi,%eiz,1),%esi
    3b70:	8a 13                	mov    (%ebx),%dl
    3b72:	b9 0a 00 00 00       	mov    $0xa,%ecx
    3b77:	80 fa 30             	cmp    $0x30,%dl
    3b7a:	0f 85 6b ff ff ff    	jne    3aeb <_strtoul+0x7b>
    3b80:	8a 43 01             	mov    0x1(%ebx),%al
    3b83:	83 e0 df             	and    $0xffffffdf,%eax
    3b86:	3c 58                	cmp    $0x58,%al
    3b88:	0f 85 98 00 00 00    	jne    3c26 <_strtoul+0x1b6>
    3b8e:	8a 53 02             	mov    0x2(%ebx),%dl
    3b91:	b1 10                	mov    $0x10,%cl
    3b93:	83 c3 02             	add    $0x2,%ebx
    3b96:	e9 50 ff ff ff       	jmp    3aeb <_strtoul+0x7b>
    3b9b:	90                   	nop
    3b9c:	8d 74 26 00          	lea    0x0(%esi,%eiz,1),%esi
    3ba0:	80 fa 39             	cmp    $0x39,%dl
    3ba3:	76 2b                	jbe    3bd0 <_strtoul+0x160>
    3ba5:	39 f3                	cmp    %esi,%ebx
    3ba7:	74 76                	je     3c1f <_strtoul+0x1af>
    3ba9:	8b 5d ec             	mov    -0x14(%ebp),%ebx
    3bac:	85 db                	test   %ebx,%ebx
    3bae:	74 05                	je     3bb5 <_strtoul+0x145>
    3bb0:	8b 55 ec             	mov    -0x14(%ebp),%edx
    3bb3:	89 32                	mov    %esi,(%edx)
    3bb5:	39 75 f0             	cmp    %esi,-0x10(%ebp)
    3bb8:	0f 95 c2             	setne  %dl
    3bbb:	81 e2 ff 00 00 00    	and    $0xff,%edx
    3bc1:	f7 da                	neg    %edx
    3bc3:	21 d0                	and    %edx,%eax
    3bc5:	5a                   	pop    %edx
    3bc6:	59                   	pop    %ecx
    3bc7:	5b                   	pop    %ebx
    3bc8:	5e                   	pop    %esi
    3bc9:	5f                   	pop    %edi
    3bca:	5d                   	pop    %ebp
    3bcb:	c3                   	ret    
    3bcc:	8d 74 26 00          	lea    0x0(%esi,%eiz,1),%esi
    3bd0:	83 ea 30             	sub    $0x30,%edx
    3bd3:	e9 2b ff ff ff       	jmp    3b03 <_strtoul+0x93>
    3bd8:	8b 45 08             	mov    0x8(%ebp),%eax
    3bdb:	43                   	inc    %ebx
    3bdc:	c6 00 01             	movb   $0x1,(%eax)
    3bdf:	e9 e2 fe ff ff       	jmp    3ac6 <_strtoul+0x56>
    3be4:	8d 74 26 00          	lea    0x0(%esi,%eiz,1),%esi
    3be8:	5a                   	pop    %edx
    3be9:	83 c8 ff             	or     $0xffffffff,%eax
    3bec:	59                   	pop    %ecx
    3bed:	5b                   	pop    %ebx
    3bee:	5e                   	pop    %esi
    3bef:	5f                   	pop    %edi
    3bf0:	5d                   	pop    %ebp
    3bf1:	c3                   	ret    
    3bf2:	8d b6 00 00 00 00    	lea    0x0(%esi),%esi
    3bf8:	5a                   	pop    %edx
    3bf9:	31 c0                	xor    %eax,%eax
    3bfb:	59                   	pop    %ecx
    3bfc:	5b                   	pop    %ebx
    3bfd:	5e                   	pop    %esi
    3bfe:	5f                   	pop    %edi
    3bff:	5d                   	pop    %ebp
    3c00:	c3                   	ret    
    3c01:	80 fa 30             	cmp    $0x30,%dl
    3c04:	0f 85 e1 fe ff ff    	jne    3aeb <_strtoul+0x7b>
    3c0a:	8a 43 01             	mov    0x1(%ebx),%al
    3c0d:	83 e0 df             	and    $0xffffffdf,%eax
    3c10:	3c 58                	cmp    $0x58,%al
    3c12:	75 17                	jne    3c2b <_strtoul+0x1bb>
    3c14:	8a 53 02             	mov    0x2(%ebx),%dl
    3c17:	83 c3 02             	add    $0x2,%ebx
    3c1a:	e9 cc fe ff ff       	jmp    3aeb <_strtoul+0x7b>
    3c1f:	8b 75 f0             	mov    -0x10(%ebp),%esi
    3c22:	31 c0                	xor    %eax,%eax
    3c24:	eb 83                	jmp    3ba9 <_strtoul+0x139>
    3c26:	b9 08 00 00 00       	mov    $0x8,%ecx
    3c2b:	b2 30                	mov    $0x30,%dl
    3c2d:	e9 c1 fe ff ff       	jmp    3af3 <_strtoul+0x83>
    3c32:	8b 5d f0             	mov    -0x10(%ebp),%ebx
    3c35:	e9 78 fe ff ff       	jmp    3ab2 <_strtoul+0x42>
    3c3a:	8d b6 00 00 00 00    	lea    0x0(%esi),%esi

00003c40 <str_uint>:
    3c40:	55                   	push   %ebp
    3c41:	89 e5                	mov    %esp,%ebp
    3c43:	57                   	push   %edi
    3c44:	56                   	push   %esi
    3c45:	53                   	push   %ebx
    3c46:	83 ec 3c             	sub    $0x3c,%esp
    3c49:	89 45 dc             	mov    %eax,-0x24(%ebp)
    3c4c:	89 55 d8             	mov    %edx,-0x28(%ebp)
    3c4f:	8b 75 08             	mov    0x8(%ebp),%esi
    3c52:	85 d2                	test   %edx,%edx
    3c54:	0f 84 5f 02 00 00    	je     3eb9 <str_uint+0x279>
    3c5a:	85 f6                	test   %esi,%esi
    3c5c:	0f 84 3b 02 00 00    	je     3e9d <str_uint+0x25d>
    3c62:	8b 45 0c             	mov    0xc(%ebp),%eax
    3c65:	85 c0                	test   %eax,%eax
    3c67:	0f 84 14 02 00 00    	je     3e81 <str_uint+0x241>
    3c6d:	8b 45 dc             	mov    -0x24(%ebp),%eax
    3c70:	c6 06 00             	movb   $0x0,(%esi)
    3c73:	8b 5d dc             	mov    -0x24(%ebp),%ebx
    3c76:	8a 10                	mov    (%eax),%dl
    3c78:	0f be c2             	movsbl %dl,%eax
    3c7b:	83 e8 09             	sub    $0x9,%eax
    3c7e:	83 f8 17             	cmp    $0x17,%eax
    3c81:	77 27                	ja     3caa <str_uint+0x6a>
    3c83:	8b 04 85 c0 03 02 00 	mov    0x203c0(,%eax,4),%eax
    3c8a:	85 c0                	test   %eax,%eax
    3c8c:	0f 84 e7 01 00 00    	je     3e79 <str_uint+0x239>
    3c92:	8d b6 00 00 00 00    	lea    0x0(%esi),%esi
    3c98:	43                   	inc    %ebx
    3c99:	8a 13                	mov    (%ebx),%dl
    3c9b:	0f be c2             	movsbl %dl,%eax
    3c9e:	83 e8 09             	sub    $0x9,%eax
    3ca1:	83 f8 17             	cmp    $0x17,%eax
    3ca4:	0f 86 06 01 00 00    	jbe    3db0 <str_uint+0x170>
    3caa:	80 fa 2d             	cmp    $0x2d,%dl
    3cad:	0f 84 4d 01 00 00    	je     3e00 <str_uint+0x1c0>
    3cb3:	80 fa 2b             	cmp    $0x2b,%dl
    3cb6:	0f 94 c0             	sete   %al
    3cb9:	25 ff 00 00 00       	and    $0xff,%eax
    3cbe:	01 c3                	add    %eax,%ebx
    3cc0:	85 c9                	test   %ecx,%ecx
    3cc2:	0f 85 18 01 00 00    	jne    3de0 <str_uint+0x1a0>
    3cc8:	b1 0a                	mov    $0xa,%cl
    3cca:	80 3b 30             	cmpb   $0x30,(%ebx)
    3ccd:	0f 84 3d 01 00 00    	je     3e10 <str_uint+0x1d0>
    3cd3:	8b 45 0c             	mov    0xc(%ebp),%eax
    3cd6:	c7 00 00 00 00 00    	movl   $0x0,(%eax)
    3cdc:	c7 40 04 00 00 00 00 	movl   $0x0,0x4(%eax)
    3ce3:	8a 03                	mov    (%ebx),%al
    3ce5:	84 c0                	test   %al,%al
    3ce7:	0f 84 37 01 00 00    	je     3e24 <str_uint+0x1e4>
    3ced:	8d 50 9f             	lea    -0x61(%eax),%edx
    3cf0:	c7 45 e0 00 00 00 00 	movl   $0x0,-0x20(%ebp)
    3cf7:	c7 45 e4 00 00 00 00 	movl   $0x0,-0x1c(%ebp)
    3cfe:	89 5d d4             	mov    %ebx,-0x2c(%ebp)
    3d01:	80 fa 19             	cmp    $0x19,%dl
    3d04:	77 64                	ja     3d6a <str_uint+0x12a>
    3d06:	66 90                	xchg   %ax,%ax
    3d08:	0f be f0             	movsbl %al,%esi
    3d0b:	83 ee 57             	sub    $0x57,%esi
    3d0e:	39 f1                	cmp    %esi,%ecx
    3d10:	76 6e                	jbe    3d80 <str_uint+0x140>
    3d12:	8b 45 e0             	mov    -0x20(%ebp),%eax
    3d15:	8b 7d e4             	mov    -0x1c(%ebp),%edi
    3d18:	f7 e1                	mul    %ecx
    3d1a:	0f af f9             	imul   %ecx,%edi
    3d1d:	89 45 c8             	mov    %eax,-0x38(%ebp)
    3d20:	01 fa                	add    %edi,%edx
    3d22:	31 ff                	xor    %edi,%edi
    3d24:	03 75 c8             	add    -0x38(%ebp),%esi
    3d27:	89 55 cc             	mov    %edx,-0x34(%ebp)
    3d2a:	8b 55 0c             	mov    0xc(%ebp),%edx
    3d2d:	13 7d cc             	adc    -0x34(%ebp),%edi
    3d30:	89 32                	mov    %esi,(%edx)
    3d32:	89 7a 04             	mov    %edi,0x4(%edx)
    3d35:	3b 7d e4             	cmp    -0x1c(%ebp),%edi
    3d38:	77 1b                	ja     3d55 <str_uint+0x115>
    3d3a:	73 14                	jae    3d50 <str_uint+0x110>
    3d3c:	8b 45 d8             	mov    -0x28(%ebp),%eax
    3d3f:	89 18                	mov    %ebx,(%eax)
    3d41:	b8 f0 ff ff ff       	mov    $0xfffffff0,%eax
    3d46:	83 c4 3c             	add    $0x3c,%esp
    3d49:	5b                   	pop    %ebx
    3d4a:	5e                   	pop    %esi
    3d4b:	5f                   	pop    %edi
    3d4c:	5d                   	pop    %ebp
    3d4d:	c3                   	ret    
    3d4e:	66 90                	xchg   %ax,%ax
    3d50:	3b 75 e0             	cmp    -0x20(%ebp),%esi
    3d53:	72 e7                	jb     3d3c <str_uint+0xfc>
    3d55:	43                   	inc    %ebx
    3d56:	8a 03                	mov    (%ebx),%al
    3d58:	84 c0                	test   %al,%al
    3d5a:	74 24                	je     3d80 <str_uint+0x140>
    3d5c:	8d 50 9f             	lea    -0x61(%eax),%edx
    3d5f:	89 75 e0             	mov    %esi,-0x20(%ebp)
    3d62:	89 7d e4             	mov    %edi,-0x1c(%ebp)
    3d65:	80 fa 19             	cmp    $0x19,%dl
    3d68:	76 9e                	jbe    3d08 <str_uint+0xc8>
    3d6a:	8d 50 bf             	lea    -0x41(%eax),%edx
    3d6d:	80 fa 19             	cmp    $0x19,%dl
    3d70:	77 56                	ja     3dc8 <str_uint+0x188>
    3d72:	0f be f0             	movsbl %al,%esi
    3d75:	83 ee 37             	sub    $0x37,%esi
    3d78:	39 f1                	cmp    %esi,%ecx
    3d7a:	77 96                	ja     3d12 <str_uint+0xd2>
    3d7c:	8d 74 26 00          	lea    0x0(%esi,%eiz,1),%esi
    3d80:	89 da                	mov    %ebx,%edx
    3d82:	8b 5d d4             	mov    -0x2c(%ebp),%ebx
    3d85:	39 d3                	cmp    %edx,%ebx
    3d87:	0f 84 97 00 00 00    	je     3e24 <str_uint+0x1e4>
    3d8d:	8b 45 d8             	mov    -0x28(%ebp),%eax
    3d90:	39 55 dc             	cmp    %edx,-0x24(%ebp)
    3d93:	89 10                	mov    %edx,(%eax)
    3d95:	0f 95 c0             	setne  %al
    3d98:	25 ff 00 00 00       	and    $0xff,%eax
    3d9d:	83 c4 3c             	add    $0x3c,%esp
    3da0:	48                   	dec    %eax
    3da1:	5b                   	pop    %ebx
    3da2:	83 e0 f2             	and    $0xfffffff2,%eax
    3da5:	5e                   	pop    %esi
    3da6:	5f                   	pop    %edi
    3da7:	5d                   	pop    %ebp
    3da8:	c3                   	ret    
    3da9:	8d b4 26 00 00 00 00 	lea    0x0(%esi,%eiz,1),%esi
    3db0:	8b 3c 85 c0 03 02 00 	mov    0x203c0(,%eax,4),%edi
    3db7:	85 ff                	test   %edi,%edi
    3db9:	0f 85 d9 fe ff ff    	jne    3c98 <str_uint+0x58>
    3dbf:	e9 e6 fe ff ff       	jmp    3caa <str_uint+0x6a>
    3dc4:	8d 74 26 00          	lea    0x0(%esi,%eiz,1),%esi
    3dc8:	8d 50 d0             	lea    -0x30(%eax),%edx
    3dcb:	80 fa 09             	cmp    $0x9,%dl
    3dce:	77 b0                	ja     3d80 <str_uint+0x140>
    3dd0:	0f be f0             	movsbl %al,%esi
    3dd3:	83 ee 30             	sub    $0x30,%esi
    3dd6:	e9 33 ff ff ff       	jmp    3d0e <str_uint+0xce>
    3ddb:	90                   	nop
    3ddc:	8d 74 26 00          	lea    0x0(%esi,%eiz,1),%esi
    3de0:	8d 41 fe             	lea    -0x2(%ecx),%eax
    3de3:	83 f8 22             	cmp    $0x22,%eax
    3de6:	0f 86 e7 fe ff ff    	jbe    3cd3 <str_uint+0x93>
    3dec:	8b 55 d8             	mov    -0x28(%ebp),%edx
    3def:	b8 f2 ff ff ff       	mov    $0xfffffff2,%eax
    3df4:	89 1a                	mov    %ebx,(%edx)
    3df6:	e9 4b ff ff ff       	jmp    3d46 <str_uint+0x106>
    3dfb:	90                   	nop
    3dfc:	8d 74 26 00          	lea    0x0(%esi,%eiz,1),%esi
    3e00:	c6 06 01             	movb   $0x1,(%esi)
    3e03:	43                   	inc    %ebx
    3e04:	e9 b7 fe ff ff       	jmp    3cc0 <str_uint+0x80>
    3e09:	8d b4 26 00 00 00 00 	lea    0x0(%esi,%eiz,1),%esi
    3e10:	8a 43 01             	mov    0x1(%ebx),%al
    3e13:	83 e8 42             	sub    $0x42,%eax
    3e16:	3c 36                	cmp    $0x36,%al
    3e18:	76 1f                	jbe    3e39 <str_uint+0x1f9>
    3e1a:	b9 08 00 00 00       	mov    $0x8,%ecx
    3e1f:	e9 af fe ff ff       	jmp    3cd3 <str_uint+0x93>
    3e24:	8b 55 d8             	mov    -0x28(%ebp),%edx
    3e27:	8b 45 dc             	mov    -0x24(%ebp),%eax
    3e2a:	89 02                	mov    %eax,(%edx)
    3e2c:	83 c4 3c             	add    $0x3c,%esp
    3e2f:	b8 f2 ff ff ff       	mov    $0xfffffff2,%eax
    3e34:	5b                   	pop    %ebx
    3e35:	5e                   	pop    %esi
    3e36:	5f                   	pop    %edi
    3e37:	5d                   	pop    %ebp
    3e38:	c3                   	ret    
    3e39:	25 ff 00 00 00       	and    $0xff,%eax
    3e3e:	ff 24 85 e0 02 02 00 	jmp    *0x202e0(,%eax,4)
    3e45:	83 c3 02             	add    $0x2,%ebx
    3e48:	b9 10 00 00 00       	mov    $0x10,%ecx
    3e4d:	e9 81 fe ff ff       	jmp    3cd3 <str_uint+0x93>
    3e52:	83 c3 02             	add    $0x2,%ebx
    3e55:	b9 08 00 00 00       	mov    $0x8,%ecx
    3e5a:	e9 74 fe ff ff       	jmp    3cd3 <str_uint+0x93>
    3e5f:	83 c3 02             	add    $0x2,%ebx
    3e62:	b9 0a 00 00 00       	mov    $0xa,%ecx
    3e67:	e9 67 fe ff ff       	jmp    3cd3 <str_uint+0x93>
    3e6c:	83 c3 02             	add    $0x2,%ebx
    3e6f:	b9 02 00 00 00       	mov    $0x2,%ecx
    3e74:	e9 5a fe ff ff       	jmp    3cd3 <str_uint+0x93>
    3e79:	8b 5d dc             	mov    -0x24(%ebp),%ebx
    3e7c:	e9 29 fe ff ff       	jmp    3caa <str_uint+0x6a>
    3e81:	c7 44 24 08 82 05 00 	movl   $0x582,0x8(%esp)
    3e88:	00 
    3e89:	c7 44 24 04 70 02 02 	movl   $0x20270,0x4(%esp)
    3e90:	00 
    3e91:	c7 04 24 99 02 02 00 	movl   $0x20299,(%esp)
    3e98:	e8 b3 6d 01 00       	call   1ac50 <assert_abort>
    3e9d:	c7 44 24 08 81 05 00 	movl   $0x581,0x8(%esp)
    3ea4:	00 
    3ea5:	c7 44 24 04 70 02 02 	movl   $0x20270,0x4(%esp)
    3eac:	00 
    3ead:	c7 04 24 8d 02 02 00 	movl   $0x2028d,(%esp)
    3eb4:	e8 97 6d 01 00       	call   1ac50 <assert_abort>
    3eb9:	c7 44 24 08 80 05 00 	movl   $0x580,0x8(%esp)
    3ec0:	00 
    3ec1:	c7 44 24 04 70 02 02 	movl   $0x20270,0x4(%esp)
    3ec8:	00 
    3ec9:	c7 04 24 7e 02 02 00 	movl   $0x2027e,(%esp)
    3ed0:	e8 7b 6d 01 00       	call   1ac50 <assert_abort>
    3ed5:	8d 74 26 00          	lea    0x0(%esi,%eiz,1),%esi
    3ed9:	8d bc 27 00 00 00 00 	lea    0x0(%edi,%eiz,1),%edi

00003ee0 <str_decode>:
    3ee0:	55                   	push   %ebp
    3ee1:	89 e5                	mov    %esp,%ebp
    3ee3:	57                   	push   %edi
    3ee4:	56                   	push   %esi
    3ee5:	53                   	push   %ebx
    3ee6:	83 ec 0c             	sub    $0xc,%esp
    3ee9:	8b 45 0c             	mov    0xc(%ebp),%eax
    3eec:	8b 7d 08             	mov    0x8(%ebp),%edi
    3eef:	8b 10                	mov    (%eax),%edx
    3ef1:	31 c0                	xor    %eax,%eax
    3ef3:	8d 4a 01             	lea    0x1(%edx),%ecx
    3ef6:	3b 4d 10             	cmp    0x10(%ebp),%ecx
    3ef9:	77 0d                	ja     3f08 <str_decode+0x28>
    3efb:	0f be 04 17          	movsbl (%edi,%edx,1),%eax
    3eff:	8b 5d 0c             	mov    0xc(%ebp),%ebx
    3f02:	84 c0                	test   %al,%al
    3f04:	89 0b                	mov    %ecx,(%ebx)
    3f06:	78 08                	js     3f10 <str_decode+0x30>
    3f08:	83 c4 0c             	add    $0xc,%esp
    3f0b:	5b                   	pop    %ebx
    3f0c:	5e                   	pop    %esi
    3f0d:	5f                   	pop    %edi
    3f0e:	5d                   	pop    %ebp
    3f0f:	c3                   	ret    
    3f10:	be e0 ff ff ff       	mov    $0xffffffe0,%esi
    3f15:	21 c6                	and    %eax,%esi
    3f17:	89 f3                	mov    %esi,%ebx
    3f19:	80 fb c0             	cmp    $0xc0,%bl
    3f1c:	74 32                	je     3f50 <str_decode+0x70>
    3f1e:	be f0 ff ff ff       	mov    $0xfffffff0,%esi
    3f23:	21 c6                	and    %eax,%esi
    3f25:	89 f3                	mov    %esi,%ebx
    3f27:	80 fb e0             	cmp    $0xe0,%bl
    3f2a:	0f 84 90 00 00 00    	je     3fc0 <str_decode+0xe0>
    3f30:	be f8 ff ff ff       	mov    $0xfffffff8,%esi
    3f35:	21 c6                	and    %eax,%esi
    3f37:	89 f3                	mov    %esi,%ebx
    3f39:	80 fb f0             	cmp    $0xf0,%bl
    3f3c:	0f 84 87 00 00 00    	je     3fc9 <str_decode+0xe9>
    3f42:	83 c4 0c             	add    $0xc,%esp
    3f45:	b8 3f 00 00 00       	mov    $0x3f,%eax
    3f4a:	5b                   	pop    %ebx
    3f4b:	5e                   	pop    %esi
    3f4c:	5f                   	pop    %edi
    3f4d:	5d                   	pop    %ebp
    3f4e:	c3                   	ret    
    3f4f:	90                   	nop
    3f50:	b3 1f                	mov    $0x1f,%bl
    3f52:	be 01 00 00 00       	mov    $0x1,%esi
    3f57:	01 f1                	add    %esi,%ecx
    3f59:	89 4d f0             	mov    %ecx,-0x10(%ebp)
    3f5c:	39 4d 10             	cmp    %ecx,0x10(%ebp)
    3f5f:	72 e1                	jb     3f42 <str_decode+0x62>
    3f61:	21 d8                	and    %ebx,%eax
    3f63:	8a 4c 17 01          	mov    0x1(%edi,%edx,1),%cl
    3f67:	8b 5d 0c             	mov    0xc(%ebp),%ebx
    3f6a:	be c0 ff ff ff       	mov    $0xffffffc0,%esi
    3f6f:	83 c2 02             	add    $0x2,%edx
    3f72:	21 ce                	and    %ecx,%esi
    3f74:	89 13                	mov    %edx,(%ebx)
    3f76:	89 f3                	mov    %esi,%ebx
    3f78:	25 ff 00 00 00       	and    $0xff,%eax
    3f7d:	80 fb 80             	cmp    $0x80,%bl
    3f80:	75 c0                	jne    3f42 <str_decode+0x62>
    3f82:	8b 5d 0c             	mov    0xc(%ebp),%ebx
    3f85:	89 5d e8             	mov    %ebx,-0x18(%ebp)
    3f88:	eb 1d                	jmp    3fa7 <str_decode+0xc7>
    3f8a:	8d b6 00 00 00 00    	lea    0x0(%esi),%esi
    3f90:	8a 0c 17             	mov    (%edi,%edx,1),%cl
    3f93:	8b 5d e8             	mov    -0x18(%ebp),%ebx
    3f96:	be c0 ff ff ff       	mov    $0xffffffc0,%esi
    3f9b:	42                   	inc    %edx
    3f9c:	21 ce                	and    %ecx,%esi
    3f9e:	89 13                	mov    %edx,(%ebx)
    3fa0:	89 f3                	mov    %esi,%ebx
    3fa2:	80 fb 80             	cmp    $0x80,%bl
    3fa5:	75 9b                	jne    3f42 <str_decode+0x62>
    3fa7:	89 c6                	mov    %eax,%esi
    3fa9:	89 c8                	mov    %ecx,%eax
    3fab:	c1 e6 06             	shl    $0x6,%esi
    3fae:	83 e0 3f             	and    $0x3f,%eax
    3fb1:	09 f0                	or     %esi,%eax
    3fb3:	39 55 f0             	cmp    %edx,-0x10(%ebp)
    3fb6:	75 d8                	jne    3f90 <str_decode+0xb0>
    3fb8:	e9 4b ff ff ff       	jmp    3f08 <str_decode+0x28>
    3fbd:	8d 76 00             	lea    0x0(%esi),%esi
    3fc0:	b3 0f                	mov    $0xf,%bl
    3fc2:	be 02 00 00 00       	mov    $0x2,%esi
    3fc7:	eb 8e                	jmp    3f57 <str_decode+0x77>
    3fc9:	b3 07                	mov    $0x7,%bl
    3fcb:	be 03 00 00 00       	mov    $0x3,%esi
    3fd0:	eb 85                	jmp    3f57 <str_decode+0x77>
    3fd2:	8d b4 26 00 00 00 00 	lea    0x0(%esi,%eiz,1),%esi
    3fd9:	8d bc 27 00 00 00 00 	lea    0x0(%edi,%eiz,1),%edi

00003fe0 <str_decode_reverse>:
    3fe0:	55                   	push   %ebp
    3fe1:	89 e5                	mov    %esp,%ebp
    3fe3:	57                   	push   %edi
    3fe4:	56                   	push   %esi
    3fe5:	53                   	push   %ebx
    3fe6:	50                   	push   %eax
    3fe7:	31 c0                	xor    %eax,%eax
    3fe9:	8b 7d 0c             	mov    0xc(%ebp),%edi
    3fec:	8b 1f                	mov    (%edi),%ebx
    3fee:	85 db                	test   %ebx,%ebx
    3ff0:	0f 84 24 01 00 00    	je     411a <str_decode_reverse+0x13a>
    3ff6:	8d 73 ff             	lea    -0x1(%ebx),%esi
    3ff9:	8b 55 08             	mov    0x8(%ebp),%edx
    3ffc:	89 37                	mov    %esi,(%edi)
    3ffe:	8a 14 32             	mov    (%edx,%esi,1),%dl
    4001:	88 55 f1             	mov    %dl,-0xf(%ebp)
    4004:	84 d2                	test   %dl,%dl
    4006:	0f 89 c4 01 00 00    	jns    41d0 <str_decode_reverse+0x1f0>
    400c:	88 d1                	mov    %dl,%cl
    400e:	83 e1 e0             	and    $0xffffffe0,%ecx
    4011:	88 4d f2             	mov    %cl,-0xe(%ebp)
    4014:	80 f9 c0             	cmp    $0xc0,%cl
    4017:	0f 84 d8 01 00 00    	je     41f5 <str_decode_reverse+0x215>
    401d:	88 d1                	mov    %dl,%cl
    401f:	83 e1 f0             	and    $0xfffffff0,%ecx
    4022:	80 f9 e0             	cmp    $0xe0,%cl
    4025:	0f 84 f1 01 00 00    	je     421c <str_decode_reverse+0x23c>
    402b:	88 d0                	mov    %dl,%al
    402d:	83 e0 f8             	and    $0xfffffff8,%eax
    4030:	3c f0                	cmp    $0xf0,%al
    4032:	0f 84 ee 00 00 00    	je     4126 <str_decode_reverse+0x146>
    4038:	88 d1                	mov    %dl,%cl
    403a:	83 e1 c0             	and    $0xffffffc0,%ecx
    403d:	80 f9 80             	cmp    $0x80,%cl
    4040:	0f 85 cf 00 00 00    	jne    4115 <str_decode_reverse+0x135>
    4046:	85 f6                	test   %esi,%esi
    4048:	0f 84 c7 00 00 00    	je     4115 <str_decode_reverse+0x135>
    404e:	8d 43 fe             	lea    -0x2(%ebx),%eax
    4051:	8b 4d 08             	mov    0x8(%ebp),%ecx
    4054:	89 07                	mov    %eax,(%edi)
    4056:	8a 14 01             	mov    (%ecx,%eax,1),%dl
    4059:	88 d1                	mov    %dl,%cl
    405b:	88 55 f1             	mov    %dl,-0xf(%ebp)
    405e:	83 e1 e0             	and    $0xffffffe0,%ecx
    4061:	88 4d f2             	mov    %cl,-0xe(%ebp)
    4064:	80 f9 c0             	cmp    $0xc0,%cl
    4067:	0f 84 b3 00 00 00    	je     4120 <str_decode_reverse+0x140>
    406d:	88 d1                	mov    %dl,%cl
    406f:	83 e1 f0             	and    $0xfffffff0,%ecx
    4072:	80 f9 e0             	cmp    $0xe0,%cl
    4075:	0f 84 65 01 00 00    	je     41e0 <str_decode_reverse+0x200>
    407b:	88 d1                	mov    %dl,%cl
    407d:	83 e1 f8             	and    $0xfffffff8,%ecx
    4080:	80 f9 f0             	cmp    $0xf0,%cl
    4083:	0f 84 57 01 00 00    	je     41e0 <str_decode_reverse+0x200>
    4089:	83 e2 c0             	and    $0xffffffc0,%edx
    408c:	80 fa 80             	cmp    $0x80,%dl
    408f:	0f 85 80 00 00 00    	jne    4115 <str_decode_reverse+0x135>
    4095:	85 c0                	test   %eax,%eax
    4097:	74 7c                	je     4115 <str_decode_reverse+0x135>
    4099:	8d 73 fd             	lea    -0x3(%ebx),%esi
    409c:	8b 4d 08             	mov    0x8(%ebp),%ecx
    409f:	89 37                	mov    %esi,(%edi)
    40a1:	8a 14 31             	mov    (%ecx,%esi,1),%dl
    40a4:	88 d1                	mov    %dl,%cl
    40a6:	88 55 f1             	mov    %dl,-0xf(%ebp)
    40a9:	83 e1 e0             	and    $0xffffffe0,%ecx
    40ac:	88 4d f2             	mov    %cl,-0xe(%ebp)
    40af:	80 f9 c0             	cmp    $0xc0,%cl
    40b2:	0f 84 36 01 00 00    	je     41ee <str_decode_reverse+0x20e>
    40b8:	88 d1                	mov    %dl,%cl
    40ba:	83 e1 f0             	and    $0xfffffff0,%ecx
    40bd:	80 f9 e0             	cmp    $0xe0,%cl
    40c0:	0f 84 21 01 00 00    	je     41e7 <str_decode_reverse+0x207>
    40c6:	88 d1                	mov    %dl,%cl
    40c8:	83 e1 f8             	and    $0xfffffff8,%ecx
    40cb:	80 f9 f0             	cmp    $0xf0,%cl
    40ce:	0f 84 13 01 00 00    	je     41e7 <str_decode_reverse+0x207>
    40d4:	83 e2 c0             	and    $0xffffffc0,%edx
    40d7:	80 fa 80             	cmp    $0x80,%dl
    40da:	75 39                	jne    4115 <str_decode_reverse+0x135>
    40dc:	85 f6                	test   %esi,%esi
    40de:	74 35                	je     4115 <str_decode_reverse+0x135>
    40e0:	83 eb 04             	sub    $0x4,%ebx
    40e3:	8b 45 08             	mov    0x8(%ebp),%eax
    40e6:	89 1f                	mov    %ebx,(%edi)
    40e8:	8a 14 18             	mov    (%eax,%ebx,1),%dl
    40eb:	88 d1                	mov    %dl,%cl
    40ed:	88 55 f1             	mov    %dl,-0xf(%ebp)
    40f0:	83 e1 e0             	and    $0xffffffe0,%ecx
    40f3:	88 4d f2             	mov    %cl,-0xe(%ebp)
    40f6:	80 f9 c0             	cmp    $0xc0,%cl
    40f9:	74 25                	je     4120 <str_decode_reverse+0x140>
    40fb:	88 d0                	mov    %dl,%al
    40fd:	83 e0 f0             	and    $0xfffffff0,%eax
    4100:	3c e0                	cmp    $0xe0,%al
    4102:	0f 84 d8 00 00 00    	je     41e0 <str_decode_reverse+0x200>
    4108:	88 d0                	mov    %dl,%al
    410a:	83 e0 f8             	and    $0xfffffff8,%eax
    410d:	3c f0                	cmp    $0xf0,%al
    410f:	0f 84 cb 00 00 00    	je     41e0 <str_decode_reverse+0x200>
    4115:	b8 3f 00 00 00       	mov    $0x3f,%eax
    411a:	5a                   	pop    %edx
    411b:	5b                   	pop    %ebx
    411c:	5e                   	pop    %esi
    411d:	5f                   	pop    %edi
    411e:	5d                   	pop    %ebp
    411f:	c3                   	ret    
    4120:	89 f3                	mov    %esi,%ebx
    4122:	c6 45 f2 c0          	movb   $0xc0,-0xe(%ebp)
    4126:	31 c0                	xor    %eax,%eax
    4128:	39 5d 10             	cmp    %ebx,0x10(%ebp)
    412b:	72 ed                	jb     411a <str_decode_reverse+0x13a>
    412d:	84 d2                	test   %dl,%dl
    412f:	78 69                	js     419a <str_decode_reverse+0x1ba>
    4131:	bf 7f 00 00 00       	mov    $0x7f,%edi
    4136:	31 d2                	xor    %edx,%edx
    4138:	8d 34 1a             	lea    (%edx,%ebx,1),%esi
    413b:	b8 3f 00 00 00       	mov    $0x3f,%eax
    4140:	39 75 10             	cmp    %esi,0x10(%ebp)
    4143:	72 d5                	jb     411a <str_decode_reverse+0x13a>
    4145:	8a 4d f1             	mov    -0xf(%ebp),%cl
    4148:	31 c0                	xor    %eax,%eax
    414a:	21 f9                	and    %edi,%ecx
    414c:	85 d2                	test   %edx,%edx
    414e:	88 c8                	mov    %cl,%al
    4150:	74 c8                	je     411a <str_decode_reverse+0x13a>
    4152:	8b 4d 08             	mov    0x8(%ebp),%ecx
    4155:	8d 73 01             	lea    0x1(%ebx),%esi
    4158:	8a 0c 19             	mov    (%ecx,%ebx,1),%cl
    415b:	88 4d f3             	mov    %cl,-0xd(%ebp)
    415e:	83 e1 c0             	and    $0xffffffc0,%ecx
    4161:	80 f9 80             	cmp    $0x80,%cl
    4164:	75 af                	jne    4115 <str_decode_reverse+0x135>
    4166:	8b 7d 08             	mov    0x8(%ebp),%edi
    4169:	8b 4d 08             	mov    0x8(%ebp),%ecx
    416c:	01 fb                	add    %edi,%ebx
    416e:	01 ce                	add    %ecx,%esi
    4170:	01 da                	add    %ebx,%edx
    4172:	8a 4d f3             	mov    -0xd(%ebp),%cl
    4175:	eb 0e                	jmp    4185 <str_decode_reverse+0x1a5>
    4177:	90                   	nop
    4178:	8a 0e                	mov    (%esi),%cl
    417a:	46                   	inc    %esi
    417b:	88 cb                	mov    %cl,%bl
    417d:	83 e3 c0             	and    $0xffffffc0,%ebx
    4180:	80 fb 80             	cmp    $0x80,%bl
    4183:	75 90                	jne    4115 <str_decode_reverse+0x135>
    4185:	89 c3                	mov    %eax,%ebx
    4187:	89 c8                	mov    %ecx,%eax
    4189:	c1 e3 06             	shl    $0x6,%ebx
    418c:	83 e0 3f             	and    $0x3f,%eax
    418f:	09 d8                	or     %ebx,%eax
    4191:	39 d6                	cmp    %edx,%esi
    4193:	75 e3                	jne    4178 <str_decode_reverse+0x198>
    4195:	e9 80 ff ff ff       	jmp    411a <str_decode_reverse+0x13a>
    419a:	80 7d f2 c0          	cmpb   $0xc0,-0xe(%ebp)
    419e:	74 5e                	je     41fe <str_decode_reverse+0x21e>
    41a0:	8a 45 f1             	mov    -0xf(%ebp),%al
    41a3:	83 e0 f0             	and    $0xfffffff0,%eax
    41a6:	3c e0                	cmp    $0xe0,%al
    41a8:	74 63                	je     420d <str_decode_reverse+0x22d>
    41aa:	8a 55 f1             	mov    -0xf(%ebp),%dl
    41ad:	b8 3f 00 00 00       	mov    $0x3f,%eax
    41b2:	83 e2 f8             	and    $0xfffffff8,%edx
    41b5:	80 fa f0             	cmp    $0xf0,%dl
    41b8:	0f 85 5c ff ff ff    	jne    411a <str_decode_reverse+0x13a>
    41be:	bf 07 00 00 00       	mov    $0x7,%edi
    41c3:	ba 03 00 00 00       	mov    $0x3,%edx
    41c8:	e9 6b ff ff ff       	jmp    4138 <str_decode_reverse+0x158>
    41cd:	8d 76 00             	lea    0x0(%esi),%esi
    41d0:	0f be 45 f1          	movsbl -0xf(%ebp),%eax
    41d4:	e9 41 ff ff ff       	jmp    411a <str_decode_reverse+0x13a>
    41d9:	8d b4 26 00 00 00 00 	lea    0x0(%esi,%eiz,1),%esi
    41e0:	89 f3                	mov    %esi,%ebx
    41e2:	e9 3f ff ff ff       	jmp    4126 <str_decode_reverse+0x146>
    41e7:	89 c3                	mov    %eax,%ebx
    41e9:	e9 38 ff ff ff       	jmp    4126 <str_decode_reverse+0x146>
    41ee:	89 c3                	mov    %eax,%ebx
    41f0:	e9 2d ff ff ff       	jmp    4122 <str_decode_reverse+0x142>
    41f5:	3b 5d 10             	cmp    0x10(%ebp),%ebx
    41f8:	0f 87 1c ff ff ff    	ja     411a <str_decode_reverse+0x13a>
    41fe:	bf 1f 00 00 00       	mov    $0x1f,%edi
    4203:	ba 01 00 00 00       	mov    $0x1,%edx
    4208:	e9 2b ff ff ff       	jmp    4138 <str_decode_reverse+0x158>
    420d:	bf 0f 00 00 00       	mov    $0xf,%edi
    4212:	ba 02 00 00 00       	mov    $0x2,%edx
    4217:	e9 1c ff ff ff       	jmp    4138 <str_decode_reverse+0x158>
    421c:	3b 5d 10             	cmp    0x10(%ebp),%ebx
    421f:	0f 86 7b ff ff ff    	jbe    41a0 <str_decode_reverse+0x1c0>
    4225:	e9 f0 fe ff ff       	jmp    411a <str_decode_reverse+0x13a>
    422a:	8d b6 00 00 00 00    	lea    0x0(%esi),%esi

00004230 <chr_encode>:
    4230:	55                   	push   %ebp
    4231:	89 e5                	mov    %esp,%ebp
    4233:	57                   	push   %edi
    4234:	56                   	push   %esi
    4235:	53                   	push   %ebx
    4236:	83 ec 24             	sub    $0x24,%esp
    4239:	8b 7d 10             	mov    0x10(%ebp),%edi
    423c:	8b 1f                	mov    (%edi),%ebx
    423e:	3b 5d 14             	cmp    0x14(%ebp),%ebx
    4241:	0f 83 c5 00 00 00    	jae    430c <chr_encode+0xdc>
    4247:	8b 4d 08             	mov    0x8(%ebp),%ecx
    424a:	b8 f2 ff ff ff       	mov    $0xfffffff2,%eax
    424f:	81 f9 ff ff 10 00    	cmp    $0x10ffff,%ecx
    4255:	77 34                	ja     428b <chr_encode+0x5b>
    4257:	f7 c1 80 ff ff ff    	test   $0xffffff80,%ecx
    425d:	75 39                	jne    4298 <chr_encode+0x68>
    425f:	c6 45 d0 00          	movb   $0x0,-0x30(%ebp)
    4263:	c6 45 e0 7f          	movb   $0x7f,-0x20(%ebp)
    4267:	c7 45 f0 00 00 00 00 	movl   $0x0,-0x10(%ebp)
    426e:	8b 45 e0             	mov    -0x20(%ebp),%eax
    4271:	8b 55 0c             	mov    0xc(%ebp),%edx
    4274:	21 c1                	and    %eax,%ecx
    4276:	8b 45 d0             	mov    -0x30(%ebp),%eax
    4279:	09 c1                	or     %eax,%ecx
    427b:	88 0c 1a             	mov    %cl,(%edx,%ebx,1)
    427e:	8b 55 f0             	mov    -0x10(%ebp),%edx
    4281:	8b 07                	mov    (%edi),%eax
    4283:	8d 44 02 01          	lea    0x1(%edx,%eax,1),%eax
    4287:	89 07                	mov    %eax,(%edi)
    4289:	31 c0                	xor    %eax,%eax
    428b:	83 c4 24             	add    $0x24,%esp
    428e:	5b                   	pop    %ebx
    428f:	5e                   	pop    %esi
    4290:	5f                   	pop    %edi
    4291:	5d                   	pop    %ebp
    4292:	c3                   	ret    
    4293:	90                   	nop
    4294:	8d 74 26 00          	lea    0x0(%esi,%eiz,1),%esi
    4298:	f7 c1 00 f8 ff ff    	test   $0xfffff800,%ecx
    429e:	74 58                	je     42f8 <chr_encode+0xc8>
    42a0:	89 c8                	mov    %ecx,%eax
    42a2:	25 00 00 ff ff       	and    $0xffff0000,%eax
    42a7:	83 f8 01             	cmp    $0x1,%eax
    42aa:	19 d2                	sbb    %edx,%edx
    42ac:	83 e2 f0             	and    $0xfffffff0,%edx
    42af:	83 ea 10             	sub    $0x10,%edx
    42b2:	83 f8 01             	cmp    $0x1,%eax
    42b5:	88 55 d0             	mov    %dl,-0x30(%ebp)
    42b8:	19 d2                	sbb    %edx,%edx
    42ba:	83 e2 08             	and    $0x8,%edx
    42bd:	83 c2 07             	add    $0x7,%edx
    42c0:	83 f8 01             	cmp    $0x1,%eax
    42c3:	19 c0                	sbb    %eax,%eax
    42c5:	88 55 e0             	mov    %dl,-0x20(%ebp)
    42c8:	83 c0 03             	add    $0x3,%eax
    42cb:	89 45 f0             	mov    %eax,-0x10(%ebp)
    42ce:	01 d8                	add    %ebx,%eax
    42d0:	39 45 14             	cmp    %eax,0x14(%ebp)
    42d3:	76 37                	jbe    430c <chr_encode+0xdc>
    42d5:	8b 45 f0             	mov    -0x10(%ebp),%eax
    42d8:	89 ca                	mov    %ecx,%edx
    42da:	8b 75 0c             	mov    0xc(%ebp),%esi
    42dd:	01 c6                	add    %eax,%esi
    42df:	83 e2 3f             	and    $0x3f,%edx
    42e2:	c1 e9 06             	shr    $0x6,%ecx
    42e5:	80 ca 80             	or     $0x80,%dl
    42e8:	88 14 1e             	mov    %dl,(%esi,%ebx,1)
    42eb:	48                   	dec    %eax
    42ec:	8b 1f                	mov    (%edi),%ebx
    42ee:	75 e8                	jne    42d8 <chr_encode+0xa8>
    42f0:	e9 79 ff ff ff       	jmp    426e <chr_encode+0x3e>
    42f5:	8d 76 00             	lea    0x0(%esi),%esi
    42f8:	c7 45 f0 01 00 00 00 	movl   $0x1,-0x10(%ebp)
    42ff:	c6 45 d0 c0          	movb   $0xc0,-0x30(%ebp)
    4303:	c6 45 e0 1f          	movb   $0x1f,-0x20(%ebp)
    4307:	8b 45 f0             	mov    -0x10(%ebp),%eax
    430a:	eb c2                	jmp    42ce <chr_encode+0x9e>
    430c:	b8 f0 ff ff ff       	mov    $0xfffffff0,%eax
    4311:	e9 75 ff ff ff       	jmp    428b <chr_encode+0x5b>
    4316:	8d 76 00             	lea    0x0(%esi),%esi
    4319:	8d bc 27 00 00 00 00 	lea    0x0(%edi,%eiz,1),%edi

00004320 <str_size>:
    4320:	55                   	push   %ebp
    4321:	31 c0                	xor    %eax,%eax
    4323:	89 e5                	mov    %esp,%ebp
    4325:	8b 55 08             	mov    0x8(%ebp),%edx
    4328:	80 3a 00             	cmpb   $0x0,(%edx)
    432b:	74 0a                	je     4337 <str_size+0x17>
    432d:	8d 76 00             	lea    0x0(%esi),%esi
    4330:	40                   	inc    %eax
    4331:	80 3c 02 00          	cmpb   $0x0,(%edx,%eax,1)
    4335:	75 f9                	jne    4330 <str_size+0x10>
    4337:	5d                   	pop    %ebp
    4338:	c3                   	ret    
    4339:	8d b4 26 00 00 00 00 	lea    0x0(%esi,%eiz,1),%esi

00004340 <wstr_size>:
    4340:	55                   	push   %ebp
    4341:	31 c0                	xor    %eax,%eax
    4343:	89 e5                	mov    %esp,%ebp
    4345:	8b 55 08             	mov    0x8(%ebp),%edx
    4348:	8b 0a                	mov    (%edx),%ecx
    434a:	85 c9                	test   %ecx,%ecx
    434c:	74 0d                	je     435b <wstr_size+0x1b>
    434e:	66 90                	xchg   %ax,%ax
    4350:	40                   	inc    %eax
    4351:	8b 0c 82             	mov    (%edx,%eax,4),%ecx
    4354:	85 c9                	test   %ecx,%ecx
    4356:	75 f8                	jne    4350 <wstr_size+0x10>
    4358:	c1 e0 02             	shl    $0x2,%eax
    435b:	5d                   	pop    %ebp
    435c:	c3                   	ret    
    435d:	8d 76 00             	lea    0x0(%esi),%esi

00004360 <str_lsize>:
    4360:	55                   	push   %ebp
    4361:	31 c0                	xor    %eax,%eax
    4363:	89 e5                	mov    %esp,%ebp
    4365:	57                   	push   %edi
    4366:	56                   	push   %esi
    4367:	53                   	push   %ebx
    4368:	83 ec 0c             	sub    $0xc,%esp
    436b:	8b 7d 0c             	mov    0xc(%ebp),%edi
    436e:	8b 5d 08             	mov    0x8(%ebp),%ebx
    4371:	85 ff                	test   %edi,%edi
    4373:	74 5b                	je     43d0 <str_lsize+0x70>
    4375:	c7 45 f0 00 00 00 00 	movl   $0x0,-0x10(%ebp)
    437c:	eb 17                	jmp    4395 <str_lsize+0x35>
    437e:	66 90                	xchg   %ax,%ax
    4380:	89 f8                	mov    %edi,%eax
    4382:	85 d2                	test   %edx,%edx
    4384:	74 4a                	je     43d0 <str_lsize+0x70>
    4386:	8b 75 f0             	mov    -0x10(%ebp),%esi
    4389:	8b 55 0c             	mov    0xc(%ebp),%edx
    438c:	46                   	inc    %esi
    438d:	89 75 f0             	mov    %esi,-0x10(%ebp)
    4390:	39 55 f0             	cmp    %edx,-0x10(%ebp)
    4393:	74 3b                	je     43d0 <str_lsize+0x70>
    4395:	0f be 14 03          	movsbl (%ebx,%eax,1),%edx
    4399:	8d 78 01             	lea    0x1(%eax),%edi
    439c:	84 d2                	test   %dl,%dl
    439e:	79 e0                	jns    4380 <str_lsize+0x20>
    43a0:	88 d1                	mov    %dl,%cl
    43a2:	83 e1 e0             	and    $0xffffffe0,%ecx
    43a5:	80 f9 c0             	cmp    $0xc0,%cl
    43a8:	74 2e                	je     43d8 <str_lsize+0x78>
    43aa:	88 d1                	mov    %dl,%cl
    43ac:	83 e1 f0             	and    $0xfffffff0,%ecx
    43af:	80 f9 e0             	cmp    $0xe0,%cl
    43b2:	74 7d                	je     4431 <str_lsize+0xd1>
    43b4:	88 d1                	mov    %dl,%cl
    43b6:	83 e1 f8             	and    $0xfffffff8,%ecx
    43b9:	80 f9 f0             	cmp    $0xf0,%cl
    43bc:	74 7c                	je     443a <str_lsize+0xda>
    43be:	8b 75 f0             	mov    -0x10(%ebp),%esi
    43c1:	8b 55 0c             	mov    0xc(%ebp),%edx
    43c4:	46                   	inc    %esi
    43c5:	89 f8                	mov    %edi,%eax
    43c7:	89 75 f0             	mov    %esi,-0x10(%ebp)
    43ca:	39 55 f0             	cmp    %edx,-0x10(%ebp)
    43cd:	75 c6                	jne    4395 <str_lsize+0x35>
    43cf:	90                   	nop
    43d0:	83 c4 0c             	add    $0xc,%esp
    43d3:	5b                   	pop    %ebx
    43d4:	5e                   	pop    %esi
    43d5:	5f                   	pop    %edi
    43d6:	5d                   	pop    %ebp
    43d7:	c3                   	ret    
    43d8:	b1 1f                	mov    $0x1f,%cl
    43da:	be 01 00 00 00       	mov    $0x1,%esi
    43df:	21 ca                	and    %ecx,%edx
    43e1:	8a 0c 3b             	mov    (%ebx,%edi,1),%cl
    43e4:	88 4d ee             	mov    %cl,-0x12(%ebp)
    43e7:	83 e1 c0             	and    $0xffffffc0,%ecx
    43ea:	81 e2 ff 00 00 00    	and    $0xff,%edx
    43f0:	83 c0 02             	add    $0x2,%eax
    43f3:	80 f9 80             	cmp    $0x80,%cl
    43f6:	75 8e                	jne    4386 <str_lsize+0x26>
    43f8:	01 f7                	add    %esi,%edi
    43fa:	8a 4d ee             	mov    -0x12(%ebp),%cl
    43fd:	89 5d e8             	mov    %ebx,-0x18(%ebp)
    4400:	89 d6                	mov    %edx,%esi
    4402:	89 ca                	mov    %ecx,%edx
    4404:	c1 e6 06             	shl    $0x6,%esi
    4407:	83 e2 3f             	and    $0x3f,%edx
    440a:	09 f2                	or     %esi,%edx
    440c:	8b 5d e8             	mov    -0x18(%ebp),%ebx
    440f:	39 f8                	cmp    %edi,%eax
    4411:	0f 84 6b ff ff ff    	je     4382 <str_lsize+0x22>
    4417:	8a 0c 03             	mov    (%ebx,%eax,1),%cl
    441a:	be c0 ff ff ff       	mov    $0xffffffc0,%esi
    441f:	21 ce                	and    %ecx,%esi
    4421:	40                   	inc    %eax
    4422:	89 f3                	mov    %esi,%ebx
    4424:	80 fb 80             	cmp    $0x80,%bl
    4427:	74 d7                	je     4400 <str_lsize+0xa0>
    4429:	8b 5d e8             	mov    -0x18(%ebp),%ebx
    442c:	e9 55 ff ff ff       	jmp    4386 <str_lsize+0x26>
    4431:	b1 0f                	mov    $0xf,%cl
    4433:	be 02 00 00 00       	mov    $0x2,%esi
    4438:	eb a5                	jmp    43df <str_lsize+0x7f>
    443a:	b1 07                	mov    $0x7,%cl
    443c:	be 03 00 00 00       	mov    $0x3,%esi
    4441:	eb 9c                	jmp    43df <str_lsize+0x7f>
    4443:	8d b6 00 00 00 00    	lea    0x0(%esi),%esi
    4449:	8d bc 27 00 00 00 00 	lea    0x0(%edi,%eiz,1),%edi

00004450 <str_nsize>:
    4450:	55                   	push   %ebp
    4451:	31 c0                	xor    %eax,%eax
    4453:	89 e5                	mov    %esp,%ebp
    4455:	8b 55 08             	mov    0x8(%ebp),%edx
    4458:	8b 4d 0c             	mov    0xc(%ebp),%ecx
    445b:	80 3a 00             	cmpb   $0x0,(%edx)
    445e:	74 13                	je     4473 <str_nsize+0x23>
    4460:	85 c9                	test   %ecx,%ecx
    4462:	75 08                	jne    446c <str_nsize+0x1c>
    4464:	eb 0d                	jmp    4473 <str_nsize+0x23>
    4466:	66 90                	xchg   %ax,%ax
    4468:	39 c8                	cmp    %ecx,%eax
    446a:	74 07                	je     4473 <str_nsize+0x23>
    446c:	40                   	inc    %eax
    446d:	80 3c 02 00          	cmpb   $0x0,(%edx,%eax,1)
    4471:	75 f5                	jne    4468 <str_nsize+0x18>
    4473:	5d                   	pop    %ebp
    4474:	c3                   	ret    
    4475:	8d 74 26 00          	lea    0x0(%esi,%eiz,1),%esi
    4479:	8d bc 27 00 00 00 00 	lea    0x0(%edi,%eiz,1),%edi

00004480 <wstr_nsize>:
    4480:	55                   	push   %ebp
    4481:	89 e5                	mov    %esp,%ebp
    4483:	53                   	push   %ebx
    4484:	8b 5d 0c             	mov    0xc(%ebp),%ebx
    4487:	8b 4d 08             	mov    0x8(%ebp),%ecx
    448a:	83 e3 fc             	and    $0xfffffffc,%ebx
    448d:	74 26                	je     44b5 <wstr_nsize+0x35>
    448f:	8b 01                	mov    (%ecx),%eax
    4491:	85 c0                	test   %eax,%eax
    4493:	74 20                	je     44b5 <wstr_nsize+0x35>
    4495:	31 d2                	xor    %edx,%edx
    4497:	eb 0d                	jmp    44a6 <wstr_nsize+0x26>
    4499:	8d b4 26 00 00 00 00 	lea    0x0(%esi,%eiz,1),%esi
    44a0:	83 3c 91 00          	cmpl   $0x0,(%ecx,%edx,4)
    44a4:	74 0c                	je     44b2 <wstr_nsize+0x32>
    44a6:	42                   	inc    %edx
    44a7:	8d 04 95 00 00 00 00 	lea    0x0(,%edx,4),%eax
    44ae:	39 c3                	cmp    %eax,%ebx
    44b0:	77 ee                	ja     44a0 <wstr_nsize+0x20>
    44b2:	5b                   	pop    %ebx
    44b3:	5d                   	pop    %ebp
    44b4:	c3                   	ret    
    44b5:	31 c0                	xor    %eax,%eax
    44b7:	eb f9                	jmp    44b2 <wstr_nsize+0x32>
    44b9:	8d b4 26 00 00 00 00 	lea    0x0(%esi,%eiz,1),%esi

000044c0 <wstr_lsize>:
    44c0:	55                   	push   %ebp
    44c1:	89 e5                	mov    %esp,%ebp
    44c3:	53                   	push   %ebx
    44c4:	8b 5d 0c             	mov    0xc(%ebp),%ebx
    44c7:	8b 4d 08             	mov    0x8(%ebp),%ecx
    44ca:	c1 e3 02             	shl    $0x2,%ebx
    44cd:	74 26                	je     44f5 <wstr_lsize+0x35>
    44cf:	8b 01                	mov    (%ecx),%eax
    44d1:	85 c0                	test   %eax,%eax
    44d3:	74 20                	je     44f5 <wstr_lsize+0x35>
    44d5:	31 d2                	xor    %edx,%edx
    44d7:	eb 0d                	jmp    44e6 <wstr_lsize+0x26>
    44d9:	8d b4 26 00 00 00 00 	lea    0x0(%esi,%eiz,1),%esi
    44e0:	83 3c 91 00          	cmpl   $0x0,(%ecx,%edx,4)
    44e4:	74 0c                	je     44f2 <wstr_lsize+0x32>
    44e6:	42                   	inc    %edx
    44e7:	8d 04 95 00 00 00 00 	lea    0x0(,%edx,4),%eax
    44ee:	39 c3                	cmp    %eax,%ebx
    44f0:	77 ee                	ja     44e0 <wstr_lsize+0x20>
    44f2:	5b                   	pop    %ebx
    44f3:	5d                   	pop    %ebp
    44f4:	c3                   	ret    
    44f5:	31 c0                	xor    %eax,%eax
    44f7:	eb f9                	jmp    44f2 <wstr_lsize+0x32>
    44f9:	8d b4 26 00 00 00 00 	lea    0x0(%esi,%eiz,1),%esi

00004500 <str_length>:
    4500:	55                   	push   %ebp
    4501:	89 e5                	mov    %esp,%ebp
    4503:	57                   	push   %edi
    4504:	56                   	push   %esi
    4505:	53                   	push   %ebx
    4506:	83 ec 0c             	sub    $0xc,%esp
    4509:	31 ff                	xor    %edi,%edi
    450b:	8b 5d 08             	mov    0x8(%ebp),%ebx
    450e:	c7 45 f0 00 00 00 00 	movl   $0x0,-0x10(%ebp)
    4515:	eb 0e                	jmp    4525 <str_length+0x25>
    4517:	90                   	nop
    4518:	85 c0                	test   %eax,%eax
    451a:	74 3b                	je     4557 <str_length+0x57>
    451c:	89 d7                	mov    %edx,%edi
    451e:	8b 55 f0             	mov    -0x10(%ebp),%edx
    4521:	42                   	inc    %edx
    4522:	89 55 f0             	mov    %edx,-0x10(%ebp)
    4525:	0f be 04 3b          	movsbl (%ebx,%edi,1),%eax
    4529:	8d 57 01             	lea    0x1(%edi),%edx
    452c:	84 c0                	test   %al,%al
    452e:	79 e8                	jns    4518 <str_length+0x18>
    4530:	88 c1                	mov    %al,%cl
    4532:	83 e1 e0             	and    $0xffffffe0,%ecx
    4535:	80 f9 c0             	cmp    $0xc0,%cl
    4538:	74 28                	je     4562 <str_length+0x62>
    453a:	88 c1                	mov    %al,%cl
    453c:	83 e1 f0             	and    $0xfffffff0,%ecx
    453f:	80 f9 e0             	cmp    $0xe0,%cl
    4542:	74 7d                	je     45c1 <str_length+0xc1>
    4544:	88 c1                	mov    %al,%cl
    4546:	83 e1 f8             	and    $0xfffffff8,%ecx
    4549:	80 f9 f0             	cmp    $0xf0,%cl
    454c:	75 ce                	jne    451c <str_length+0x1c>
    454e:	b1 07                	mov    $0x7,%cl
    4550:	be 03 00 00 00       	mov    $0x3,%esi
    4555:	eb 12                	jmp    4569 <str_length+0x69>
    4557:	8b 45 f0             	mov    -0x10(%ebp),%eax
    455a:	83 c4 0c             	add    $0xc,%esp
    455d:	5b                   	pop    %ebx
    455e:	5e                   	pop    %esi
    455f:	5f                   	pop    %edi
    4560:	5d                   	pop    %ebp
    4561:	c3                   	ret    
    4562:	b1 1f                	mov    $0x1f,%cl
    4564:	be 01 00 00 00       	mov    $0x1,%esi
    4569:	21 c8                	and    %ecx,%eax
    456b:	8a 0c 13             	mov    (%ebx,%edx,1),%cl
    456e:	83 c7 02             	add    $0x2,%edi
    4571:	88 4d eb             	mov    %cl,-0x15(%ebp)
    4574:	83 e1 c0             	and    $0xffffffc0,%ecx
    4577:	25 ff 00 00 00       	and    $0xff,%eax
    457c:	89 7d ec             	mov    %edi,-0x14(%ebp)
    457f:	80 f9 80             	cmp    $0x80,%cl
    4582:	75 46                	jne    45ca <str_length+0xca>
    4584:	8d 3c 32             	lea    (%edx,%esi,1),%edi
    4587:	8a 4d eb             	mov    -0x15(%ebp),%cl
    458a:	8b 55 ec             	mov    -0x14(%ebp),%edx
    458d:	89 5d ec             	mov    %ebx,-0x14(%ebp)
    4590:	89 c6                	mov    %eax,%esi
    4592:	89 c8                	mov    %ecx,%eax
    4594:	c1 e6 06             	shl    $0x6,%esi
    4597:	83 e0 3f             	and    $0x3f,%eax
    459a:	09 f0                	or     %esi,%eax
    459c:	8b 5d ec             	mov    -0x14(%ebp),%ebx
    459f:	39 fa                	cmp    %edi,%edx
    45a1:	0f 84 71 ff ff ff    	je     4518 <str_length+0x18>
    45a7:	8a 0c 13             	mov    (%ebx,%edx,1),%cl
    45aa:	be c0 ff ff ff       	mov    $0xffffffc0,%esi
    45af:	21 ce                	and    %ecx,%esi
    45b1:	42                   	inc    %edx
    45b2:	89 f3                	mov    %esi,%ebx
    45b4:	80 fb 80             	cmp    $0x80,%bl
    45b7:	74 d7                	je     4590 <str_length+0x90>
    45b9:	8b 5d ec             	mov    -0x14(%ebp),%ebx
    45bc:	e9 5b ff ff ff       	jmp    451c <str_length+0x1c>
    45c1:	b1 0f                	mov    $0xf,%cl
    45c3:	be 02 00 00 00       	mov    $0x2,%esi
    45c8:	eb 9f                	jmp    4569 <str_length+0x69>
    45ca:	89 fa                	mov    %edi,%edx
    45cc:	e9 4b ff ff ff       	jmp    451c <str_length+0x1c>
    45d1:	eb 0d                	jmp    45e0 <wstr_length>
    45d3:	90                   	nop
    45d4:	90                   	nop
    45d5:	90                   	nop
    45d6:	90                   	nop
    45d7:	90                   	nop
    45d8:	90                   	nop
    45d9:	90                   	nop
    45da:	90                   	nop
    45db:	90                   	nop
    45dc:	90                   	nop
    45dd:	90                   	nop
    45de:	90                   	nop
    45df:	90                   	nop

000045e0 <wstr_length>:
    45e0:	55                   	push   %ebp
    45e1:	31 c0                	xor    %eax,%eax
    45e3:	89 e5                	mov    %esp,%ebp
    45e5:	8b 55 08             	mov    0x8(%ebp),%edx
    45e8:	8b 0a                	mov    (%edx),%ecx
    45ea:	85 c9                	test   %ecx,%ecx
    45ec:	74 0a                	je     45f8 <wstr_length+0x18>
    45ee:	66 90                	xchg   %ax,%ax
    45f0:	40                   	inc    %eax
    45f1:	8b 0c 82             	mov    (%edx,%eax,4),%ecx
    45f4:	85 c9                	test   %ecx,%ecx
    45f6:	75 f8                	jne    45f0 <wstr_length+0x10>
    45f8:	5d                   	pop    %ebp
    45f9:	c3                   	ret    
    45fa:	8d b6 00 00 00 00    	lea    0x0(%esi),%esi

00004600 <str_nlength>:
    4600:	55                   	push   %ebp
    4601:	89 e5                	mov    %esp,%ebp
    4603:	57                   	push   %edi
    4604:	56                   	push   %esi
    4605:	53                   	push   %ebx
    4606:	57                   	push   %edi
    4607:	c7 45 f0 00 00 00 00 	movl   $0x0,-0x10(%ebp)
    460e:	8b 45 0c             	mov    0xc(%ebp),%eax
    4611:	8b 7d 08             	mov    0x8(%ebp),%edi
    4614:	85 c0                	test   %eax,%eax
    4616:	74 2c                	je     4644 <str_nlength+0x44>
    4618:	bb 01 00 00 00       	mov    $0x1,%ebx
    461d:	31 c0                	xor    %eax,%eax
    461f:	90                   	nop
    4620:	8a 04 07             	mov    (%edi,%eax,1),%al
    4623:	84 c0                	test   %al,%al
    4625:	78 79                	js     46a0 <str_nlength+0xa0>
    4627:	b2 7f                	mov    $0x7f,%dl
    4629:	31 c9                	xor    %ecx,%ecx
    462b:	8d 34 19             	lea    (%ecx,%ebx,1),%esi
    462e:	39 75 0c             	cmp    %esi,0xc(%ebp)
    4631:	73 1d                	jae    4650 <str_nlength+0x50>
    4633:	89 d8                	mov    %ebx,%eax
    4635:	8b 75 f0             	mov    -0x10(%ebp),%esi
    4638:	8d 58 01             	lea    0x1(%eax),%ebx
    463b:	46                   	inc    %esi
    463c:	39 5d 0c             	cmp    %ebx,0xc(%ebp)
    463f:	89 75 f0             	mov    %esi,-0x10(%ebp)
    4642:	73 dc                	jae    4620 <str_nlength+0x20>
    4644:	8b 45 f0             	mov    -0x10(%ebp),%eax
    4647:	5b                   	pop    %ebx
    4648:	5b                   	pop    %ebx
    4649:	5e                   	pop    %esi
    464a:	5f                   	pop    %edi
    464b:	5d                   	pop    %ebp
    464c:	c3                   	ret    
    464d:	8d 76 00             	lea    0x0(%esi),%esi
    4650:	21 c2                	and    %eax,%edx
    4652:	81 e2 ff 00 00 00    	and    $0xff,%edx
    4658:	85 c9                	test   %ecx,%ecx
    465a:	0f 84 94 00 00 00    	je     46f4 <str_nlength+0xf4>
    4660:	8a 0c 1f             	mov    (%edi,%ebx,1),%cl
    4663:	8d 43 01             	lea    0x1(%ebx),%eax
    4666:	88 cb                	mov    %cl,%bl
    4668:	83 e3 c0             	and    $0xffffffc0,%ebx
    466b:	80 fb 80             	cmp    $0x80,%bl
    466e:	74 16                	je     4686 <str_nlength+0x86>
    4670:	eb 5e                	jmp    46d0 <str_nlength+0xd0>
    4672:	8d b6 00 00 00 00    	lea    0x0(%esi),%esi
    4678:	8a 0c 07             	mov    (%edi,%eax,1),%cl
    467b:	40                   	inc    %eax
    467c:	88 cb                	mov    %cl,%bl
    467e:	83 e3 c0             	and    $0xffffffc0,%ebx
    4681:	80 fb 80             	cmp    $0x80,%bl
    4684:	75 4a                	jne    46d0 <str_nlength+0xd0>
    4686:	89 d3                	mov    %edx,%ebx
    4688:	89 ca                	mov    %ecx,%edx
    468a:	c1 e3 06             	shl    $0x6,%ebx
    468d:	83 e2 3f             	and    $0x3f,%edx
    4690:	09 da                	or     %ebx,%edx
    4692:	39 c6                	cmp    %eax,%esi
    4694:	75 e2                	jne    4678 <str_nlength+0x78>
    4696:	85 d2                	test   %edx,%edx
    4698:	75 9b                	jne    4635 <str_nlength+0x35>
    469a:	eb a8                	jmp    4644 <str_nlength+0x44>
    469c:	8d 74 26 00          	lea    0x0(%esi,%eiz,1),%esi
    46a0:	88 c2                	mov    %al,%dl
    46a2:	83 e2 e0             	and    $0xffffffe0,%edx
    46a5:	80 fa c0             	cmp    $0xc0,%dl
    46a8:	74 2e                	je     46d8 <str_nlength+0xd8>
    46aa:	88 c2                	mov    %al,%dl
    46ac:	83 e2 f0             	and    $0xfffffff0,%edx
    46af:	80 fa e0             	cmp    $0xe0,%dl
    46b2:	74 34                	je     46e8 <str_nlength+0xe8>
    46b4:	88 c2                	mov    %al,%dl
    46b6:	83 e2 f8             	and    $0xfffffff8,%edx
    46b9:	80 fa f0             	cmp    $0xf0,%dl
    46bc:	0f 85 71 ff ff ff    	jne    4633 <str_nlength+0x33>
    46c2:	b2 07                	mov    $0x7,%dl
    46c4:	b9 03 00 00 00       	mov    $0x3,%ecx
    46c9:	e9 5d ff ff ff       	jmp    462b <str_nlength+0x2b>
    46ce:	66 90                	xchg   %ax,%ax
    46d0:	89 c3                	mov    %eax,%ebx
    46d2:	e9 5c ff ff ff       	jmp    4633 <str_nlength+0x33>
    46d7:	90                   	nop
    46d8:	b2 1f                	mov    $0x1f,%dl
    46da:	b9 01 00 00 00       	mov    $0x1,%ecx
    46df:	e9 47 ff ff ff       	jmp    462b <str_nlength+0x2b>
    46e4:	8d 74 26 00          	lea    0x0(%esi,%eiz,1),%esi
    46e8:	b2 0f                	mov    $0xf,%dl
    46ea:	b9 02 00 00 00       	mov    $0x2,%ecx
    46ef:	e9 37 ff ff ff       	jmp    462b <str_nlength+0x2b>
    46f4:	89 d8                	mov    %ebx,%eax
    46f6:	eb 9e                	jmp    4696 <str_nlength+0x96>
    46f8:	90                   	nop
    46f9:	8d b4 26 00 00 00 00 	lea    0x0(%esi,%eiz,1),%esi

00004700 <wstr_nlength>:
    4700:	55                   	push   %ebp
    4701:	31 c0                	xor    %eax,%eax
    4703:	89 e5                	mov    %esp,%ebp
    4705:	53                   	push   %ebx
    4706:	8b 5d 0c             	mov    0xc(%ebp),%ebx
    4709:	8b 4d 08             	mov    0x8(%ebp),%ecx
    470c:	83 e3 fc             	and    $0xfffffffc,%ebx
    470f:	74 22                	je     4733 <wstr_nlength+0x33>
    4711:	8b 11                	mov    (%ecx),%edx
    4713:	85 d2                	test   %edx,%edx
    4715:	75 10                	jne    4727 <wstr_nlength+0x27>
    4717:	eb 1a                	jmp    4733 <wstr_nlength+0x33>
    4719:	8d b4 26 00 00 00 00 	lea    0x0(%esi,%eiz,1),%esi
    4720:	8b 14 81             	mov    (%ecx,%eax,4),%edx
    4723:	85 d2                	test   %edx,%edx
    4725:	74 0c                	je     4733 <wstr_nlength+0x33>
    4727:	40                   	inc    %eax
    4728:	8d 14 85 00 00 00 00 	lea    0x0(,%eax,4),%edx
    472f:	39 da                	cmp    %ebx,%edx
    4731:	72 ed                	jb     4720 <wstr_nlength+0x20>
    4733:	5b                   	pop    %ebx
    4734:	5d                   	pop    %ebp
    4735:	c3                   	ret    
    4736:	8d 76 00             	lea    0x0(%esi),%esi
    4739:	8d bc 27 00 00 00 00 	lea    0x0(%edi,%eiz,1),%edi

00004740 <chr_width>:
    4740:	55                   	push   %ebp
    4741:	b8 01 00 00 00       	mov    $0x1,%eax
    4746:	89 e5                	mov    %esp,%ebp
    4748:	5d                   	pop    %ebp
    4749:	c3                   	ret    
    474a:	8d b6 00 00 00 00    	lea    0x0(%esi),%esi

00004750 <str_width>:
    4750:	55                   	push   %ebp
    4751:	89 e5                	mov    %esp,%ebp
    4753:	57                   	push   %edi
    4754:	56                   	push   %esi
    4755:	53                   	push   %ebx
    4756:	83 ec 0c             	sub    $0xc,%esp
    4759:	31 ff                	xor    %edi,%edi
    475b:	8b 5d 08             	mov    0x8(%ebp),%ebx
    475e:	c7 45 f0 00 00 00 00 	movl   $0x0,-0x10(%ebp)
    4765:	eb 0e                	jmp    4775 <str_width+0x25>
    4767:	90                   	nop
    4768:	85 c0                	test   %eax,%eax
    476a:	74 3b                	je     47a7 <str_width+0x57>
    476c:	8b 4d f0             	mov    -0x10(%ebp),%ecx
    476f:	89 d7                	mov    %edx,%edi
    4771:	41                   	inc    %ecx
    4772:	89 4d f0             	mov    %ecx,-0x10(%ebp)
    4775:	0f be 04 3b          	movsbl (%ebx,%edi,1),%eax
    4779:	8d 57 01             	lea    0x1(%edi),%edx
    477c:	84 c0                	test   %al,%al
    477e:	79 e8                	jns    4768 <str_width+0x18>
    4780:	88 c1                	mov    %al,%cl
    4782:	83 e1 e0             	and    $0xffffffe0,%ecx
    4785:	80 f9 c0             	cmp    $0xc0,%cl
    4788:	74 28                	je     47b2 <str_width+0x62>
    478a:	88 c1                	mov    %al,%cl
    478c:	83 e1 f0             	and    $0xfffffff0,%ecx
    478f:	80 f9 e0             	cmp    $0xe0,%cl
    4792:	74 7d                	je     4811 <str_width+0xc1>
    4794:	88 c1                	mov    %al,%cl
    4796:	83 e1 f8             	and    $0xfffffff8,%ecx
    4799:	80 f9 f0             	cmp    $0xf0,%cl
    479c:	75 ce                	jne    476c <str_width+0x1c>
    479e:	b1 07                	mov    $0x7,%cl
    47a0:	be 03 00 00 00       	mov    $0x3,%esi
    47a5:	eb 12                	jmp    47b9 <str_width+0x69>
    47a7:	8b 45 f0             	mov    -0x10(%ebp),%eax
    47aa:	83 c4 0c             	add    $0xc,%esp
    47ad:	5b                   	pop    %ebx
    47ae:	5e                   	pop    %esi
    47af:	5f                   	pop    %edi
    47b0:	5d                   	pop    %ebp
    47b1:	c3                   	ret    
    47b2:	b1 1f                	mov    $0x1f,%cl
    47b4:	be 01 00 00 00       	mov    $0x1,%esi
    47b9:	21 c8                	and    %ecx,%eax
    47bb:	8a 0c 13             	mov    (%ebx,%edx,1),%cl
    47be:	83 c7 02             	add    $0x2,%edi
    47c1:	88 4d eb             	mov    %cl,-0x15(%ebp)
    47c4:	83 e1 c0             	and    $0xffffffc0,%ecx
    47c7:	25 ff 00 00 00       	and    $0xff,%eax
    47cc:	89 7d ec             	mov    %edi,-0x14(%ebp)
    47cf:	80 f9 80             	cmp    $0x80,%cl
    47d2:	75 46                	jne    481a <str_width+0xca>
    47d4:	8d 3c 32             	lea    (%edx,%esi,1),%edi
    47d7:	8a 4d eb             	mov    -0x15(%ebp),%cl
    47da:	8b 55 ec             	mov    -0x14(%ebp),%edx
    47dd:	89 5d ec             	mov    %ebx,-0x14(%ebp)
    47e0:	89 c6                	mov    %eax,%esi
    47e2:	89 c8                	mov    %ecx,%eax
    47e4:	c1 e6 06             	shl    $0x6,%esi
    47e7:	83 e0 3f             	and    $0x3f,%eax
    47ea:	09 f0                	or     %esi,%eax
    47ec:	8b 5d ec             	mov    -0x14(%ebp),%ebx
    47ef:	39 fa                	cmp    %edi,%edx
    47f1:	0f 84 71 ff ff ff    	je     4768 <str_width+0x18>
    47f7:	8a 0c 13             	mov    (%ebx,%edx,1),%cl
    47fa:	be c0 ff ff ff       	mov    $0xffffffc0,%esi
    47ff:	21 ce                	and    %ecx,%esi
    4801:	42                   	inc    %edx
    4802:	89 f3                	mov    %esi,%ebx
    4804:	80 fb 80             	cmp    $0x80,%bl
    4807:	74 d7                	je     47e0 <str_width+0x90>
    4809:	8b 5d ec             	mov    -0x14(%ebp),%ebx
    480c:	e9 5b ff ff ff       	jmp    476c <str_width+0x1c>
    4811:	b1 0f                	mov    $0xf,%cl
    4813:	be 02 00 00 00       	mov    $0x2,%esi
    4818:	eb 9f                	jmp    47b9 <str_width+0x69>
    481a:	89 fa                	mov    %edi,%edx
    481c:	e9 4b ff ff ff       	jmp    476c <str_width+0x1c>
    4821:	eb 0d                	jmp    4830 <ascii_check>
    4823:	90                   	nop
    4824:	90                   	nop
    4825:	90                   	nop
    4826:	90                   	nop
    4827:	90                   	nop
    4828:	90                   	nop
    4829:	90                   	nop
    482a:	90                   	nop
    482b:	90                   	nop
    482c:	90                   	nop
    482d:	90                   	nop
    482e:	90                   	nop
    482f:	90                   	nop

00004830 <ascii_check>:
    4830:	55                   	push   %ebp
    4831:	89 e5                	mov    %esp,%ebp
    4833:	83 7d 08 7f          	cmpl   $0x7f,0x8(%ebp)
    4837:	5d                   	pop    %ebp
    4838:	0f 96 c0             	setbe  %al
    483b:	c3                   	ret    
    483c:	8d 74 26 00          	lea    0x0(%esi,%eiz,1),%esi

00004840 <chr_check>:
    4840:	55                   	push   %ebp
    4841:	89 e5                	mov    %esp,%ebp
    4843:	81 7d 08 ff ff 10 00 	cmpl   $0x10ffff,0x8(%ebp)
    484a:	5d                   	pop    %ebp
    484b:	0f 96 c0             	setbe  %al
    484e:	c3                   	ret    
    484f:	90                   	nop

00004850 <str_cmp>:
    4850:	55                   	push   %ebp
    4851:	31 c9                	xor    %ecx,%ecx
    4853:	89 e5                	mov    %esp,%ebp
    4855:	57                   	push   %edi
    4856:	56                   	push   %esi
    4857:	31 f6                	xor    %esi,%esi
    4859:	53                   	push   %ebx
    485a:	89 f7                	mov    %esi,%edi
    485c:	83 ec 0c             	sub    $0xc,%esp
    485f:	eb 39                	jmp    489a <str_cmp+0x4a>
    4861:	8d b4 26 00 00 00 00 	lea    0x0(%esi,%eiz,1),%esi
    4868:	89 f1                	mov    %esi,%ecx
    486a:	8b 45 0c             	mov    0xc(%ebp),%eax
    486d:	8d 77 01             	lea    0x1(%edi),%esi
    4870:	8a 1c 38             	mov    (%eax,%edi,1),%bl
    4873:	84 db                	test   %bl,%bl
    4875:	78 69                	js     48e0 <str_cmp+0x90>
    4877:	0f be c3             	movsbl %bl,%eax
    487a:	89 f7                	mov    %esi,%edi
    487c:	39 c2                	cmp    %eax,%edx
    487e:	0f 8c 92 00 00 00    	jl     4916 <str_cmp+0xc6>
    4884:	0f 8f a2 01 00 00    	jg     4a2c <str_cmp+0x1dc>
    488a:	85 c0                	test   %eax,%eax
    488c:	0f 84 a7 01 00 00    	je     4a39 <str_cmp+0x1e9>
    4892:	85 d2                	test   %edx,%edx
    4894:	0f 84 9f 01 00 00    	je     4a39 <str_cmp+0x1e9>
    489a:	8b 45 08             	mov    0x8(%ebp),%eax
    489d:	8d 71 01             	lea    0x1(%ecx),%esi
    48a0:	0f be 14 08          	movsbl (%eax,%ecx,1),%edx
    48a4:	84 d2                	test   %dl,%dl
    48a6:	79 c0                	jns    4868 <str_cmp+0x18>
    48a8:	88 d0                	mov    %dl,%al
    48aa:	83 e0 e0             	and    $0xffffffe0,%eax
    48ad:	3c c0                	cmp    $0xc0,%al
    48af:	74 70                	je     4921 <str_cmp+0xd1>
    48b1:	88 d0                	mov    %dl,%al
    48b3:	83 e0 f0             	and    $0xfffffff0,%eax
    48b6:	3c e0                	cmp    $0xe0,%al
    48b8:	0f 84 52 01 00 00    	je     4a10 <str_cmp+0x1c0>
    48be:	88 d0                	mov    %dl,%al
    48c0:	83 e0 f8             	and    $0xfffffff8,%eax
    48c3:	3c f0                	cmp    $0xf0,%al
    48c5:	0f 84 86 01 00 00    	je     4a51 <str_cmp+0x201>
    48cb:	8b 45 0c             	mov    0xc(%ebp),%eax
    48ce:	89 f1                	mov    %esi,%ecx
    48d0:	ba 3f 00 00 00       	mov    $0x3f,%edx
    48d5:	8d 77 01             	lea    0x1(%edi),%esi
    48d8:	8a 1c 38             	mov    (%eax,%edi,1),%bl
    48db:	84 db                	test   %bl,%bl
    48dd:	79 98                	jns    4877 <str_cmp+0x27>
    48df:	90                   	nop
    48e0:	88 d8                	mov    %bl,%al
    48e2:	83 e0 e0             	and    $0xffffffe0,%eax
    48e5:	3c c0                	cmp    $0xc0,%al
    48e7:	0f 84 a0 00 00 00    	je     498d <str_cmp+0x13d>
    48ed:	88 d8                	mov    %bl,%al
    48ef:	83 e0 f0             	and    $0xfffffff0,%eax
    48f2:	3c e0                	cmp    $0xe0,%al
    48f4:	0f 84 24 01 00 00    	je     4a1e <str_cmp+0x1ce>
    48fa:	88 d8                	mov    %bl,%al
    48fc:	83 e0 f8             	and    $0xfffffff8,%eax
    48ff:	3c f0                	cmp    $0xf0,%al
    4901:	0f 84 3c 01 00 00    	je     4a43 <str_cmp+0x1f3>
    4907:	b8 3f 00 00 00       	mov    $0x3f,%eax
    490c:	89 f7                	mov    %esi,%edi
    490e:	39 c2                	cmp    %eax,%edx
    4910:	0f 8d 6e ff ff ff    	jge    4884 <str_cmp+0x34>
    4916:	83 c4 0c             	add    $0xc,%esp
    4919:	83 c8 ff             	or     $0xffffffff,%eax
    491c:	5b                   	pop    %ebx
    491d:	5e                   	pop    %esi
    491e:	5f                   	pop    %edi
    491f:	5d                   	pop    %ebp
    4920:	c3                   	ret    
    4921:	b0 1f                	mov    $0x1f,%al
    4923:	c7 45 ec 01 00 00 00 	movl   $0x1,-0x14(%ebp)
    492a:	8b 5d 08             	mov    0x8(%ebp),%ebx
    492d:	21 c2                	and    %eax,%edx
    492f:	81 e2 ff 00 00 00    	and    $0xff,%edx
    4935:	83 c1 02             	add    $0x2,%ecx
    4938:	8a 04 33             	mov    (%ebx,%esi,1),%al
    493b:	88 c3                	mov    %al,%bl
    493d:	83 e3 c0             	and    $0xffffffc0,%ebx
    4940:	80 fb 80             	cmp    $0x80,%bl
    4943:	0f 85 20 01 00 00    	jne    4a69 <str_cmp+0x219>
    4949:	8b 5d ec             	mov    -0x14(%ebp),%ebx
    494c:	89 7d f0             	mov    %edi,-0x10(%ebp)
    494f:	01 de                	add    %ebx,%esi
    4951:	8b 7d 08             	mov    0x8(%ebp),%edi
    4954:	eb 10                	jmp    4966 <str_cmp+0x116>
    4956:	66 90                	xchg   %ax,%ax
    4958:	8a 04 0f             	mov    (%edi,%ecx,1),%al
    495b:	41                   	inc    %ecx
    495c:	88 c3                	mov    %al,%bl
    495e:	83 e3 c0             	and    $0xffffffc0,%ebx
    4961:	80 fb 80             	cmp    $0x80,%bl
    4964:	75 1a                	jne    4980 <str_cmp+0x130>
    4966:	89 d3                	mov    %edx,%ebx
    4968:	89 c2                	mov    %eax,%edx
    496a:	c1 e3 06             	shl    $0x6,%ebx
    496d:	83 e2 3f             	and    $0x3f,%edx
    4970:	09 da                	or     %ebx,%edx
    4972:	39 f1                	cmp    %esi,%ecx
    4974:	75 e2                	jne    4958 <str_cmp+0x108>
    4976:	8b 7d f0             	mov    -0x10(%ebp),%edi
    4979:	e9 ec fe ff ff       	jmp    486a <str_cmp+0x1a>
    497e:	66 90                	xchg   %ax,%ax
    4980:	8b 7d f0             	mov    -0x10(%ebp),%edi
    4983:	ba 3f 00 00 00       	mov    $0x3f,%edx
    4988:	e9 dd fe ff ff       	jmp    486a <str_cmp+0x1a>
    498d:	b0 1f                	mov    $0x1f,%al
    498f:	c7 45 ec 01 00 00 00 	movl   $0x1,-0x14(%ebp)
    4996:	21 c3                	and    %eax,%ebx
    4998:	31 c0                	xor    %eax,%eax
    499a:	88 d8                	mov    %bl,%al
    499c:	8b 5d 0c             	mov    0xc(%ebp),%ebx
    499f:	83 c7 02             	add    $0x2,%edi
    49a2:	8a 1c 33             	mov    (%ebx,%esi,1),%bl
    49a5:	88 5d eb             	mov    %bl,-0x15(%ebp)
    49a8:	83 e3 c0             	and    $0xffffffc0,%ebx
    49ab:	80 fb 80             	cmp    $0x80,%bl
    49ae:	0f 85 ab 00 00 00    	jne    4a5f <str_cmp+0x20f>
    49b4:	8b 5d ec             	mov    -0x14(%ebp),%ebx
    49b7:	89 4d f0             	mov    %ecx,-0x10(%ebp)
    49ba:	01 de                	add    %ebx,%esi
    49bc:	89 55 ec             	mov    %edx,-0x14(%ebp)
    49bf:	89 f1                	mov    %esi,%ecx
    49c1:	8a 5d eb             	mov    -0x15(%ebp),%bl
    49c4:	8b 75 0c             	mov    0xc(%ebp),%esi
    49c7:	eb 15                	jmp    49de <str_cmp+0x18e>
    49c9:	8d b4 26 00 00 00 00 	lea    0x0(%esi,%eiz,1),%esi
    49d0:	8a 1c 3e             	mov    (%esi,%edi,1),%bl
    49d3:	47                   	inc    %edi
    49d4:	88 da                	mov    %bl,%dl
    49d6:	83 e2 c0             	and    $0xffffffc0,%edx
    49d9:	80 fa 80             	cmp    $0x80,%dl
    49dc:	75 22                	jne    4a00 <str_cmp+0x1b0>
    49de:	89 c2                	mov    %eax,%edx
    49e0:	89 d8                	mov    %ebx,%eax
    49e2:	c1 e2 06             	shl    $0x6,%edx
    49e5:	83 e0 3f             	and    $0x3f,%eax
    49e8:	09 d0                	or     %edx,%eax
    49ea:	39 cf                	cmp    %ecx,%edi
    49ec:	75 e2                	jne    49d0 <str_cmp+0x180>
    49ee:	8b 4d f0             	mov    -0x10(%ebp),%ecx
    49f1:	8b 55 ec             	mov    -0x14(%ebp),%edx
    49f4:	e9 83 fe ff ff       	jmp    487c <str_cmp+0x2c>
    49f9:	8d b4 26 00 00 00 00 	lea    0x0(%esi,%eiz,1),%esi
    4a00:	8b 4d f0             	mov    -0x10(%ebp),%ecx
    4a03:	8b 55 ec             	mov    -0x14(%ebp),%edx
    4a06:	b8 3f 00 00 00       	mov    $0x3f,%eax
    4a0b:	e9 6c fe ff ff       	jmp    487c <str_cmp+0x2c>
    4a10:	b0 0f                	mov    $0xf,%al
    4a12:	c7 45 ec 02 00 00 00 	movl   $0x2,-0x14(%ebp)
    4a19:	e9 0c ff ff ff       	jmp    492a <str_cmp+0xda>
    4a1e:	b0 0f                	mov    $0xf,%al
    4a20:	c7 45 ec 02 00 00 00 	movl   $0x2,-0x14(%ebp)
    4a27:	e9 6a ff ff ff       	jmp    4996 <str_cmp+0x146>
    4a2c:	83 c4 0c             	add    $0xc,%esp
    4a2f:	b8 01 00 00 00       	mov    $0x1,%eax
    4a34:	5b                   	pop    %ebx
    4a35:	5e                   	pop    %esi
    4a36:	5f                   	pop    %edi
    4a37:	5d                   	pop    %ebp
    4a38:	c3                   	ret    
    4a39:	83 c4 0c             	add    $0xc,%esp
    4a3c:	31 c0                	xor    %eax,%eax
    4a3e:	5b                   	pop    %ebx
    4a3f:	5e                   	pop    %esi
    4a40:	5f                   	pop    %edi
    4a41:	5d                   	pop    %ebp
    4a42:	c3                   	ret    
    4a43:	b0 07                	mov    $0x7,%al
    4a45:	c7 45 ec 03 00 00 00 	movl   $0x3,-0x14(%ebp)
    4a4c:	e9 45 ff ff ff       	jmp    4996 <str_cmp+0x146>
    4a51:	b0 07                	mov    $0x7,%al
    4a53:	c7 45 ec 03 00 00 00 	movl   $0x3,-0x14(%ebp)
    4a5a:	e9 cb fe ff ff       	jmp    492a <str_cmp+0xda>
    4a5f:	b8 3f 00 00 00       	mov    $0x3f,%eax
    4a64:	e9 13 fe ff ff       	jmp    487c <str_cmp+0x2c>
    4a69:	ba 3f 00 00 00       	mov    $0x3f,%edx
    4a6e:	e9 f7 fd ff ff       	jmp    486a <str_cmp+0x1a>
    4a73:	8d b6 00 00 00 00    	lea    0x0(%esi),%esi
    4a79:	8d bc 27 00 00 00 00 	lea    0x0(%edi,%eiz,1),%edi

00004a80 <str_lcmp>:
    4a80:	55                   	push   %ebp
    4a81:	89 e5                	mov    %esp,%ebp
    4a83:	57                   	push   %edi
    4a84:	56                   	push   %esi
    4a85:	53                   	push   %ebx
    4a86:	83 ec 10             	sub    $0x10,%esp
    4a89:	8b 75 10             	mov    0x10(%ebp),%esi
    4a8c:	85 f6                	test   %esi,%esi
    4a8e:	0f 84 ed 01 00 00    	je     4c81 <str_lcmp+0x201>
    4a94:	31 ff                	xor    %edi,%edi
    4a96:	31 f6                	xor    %esi,%esi
    4a98:	c7 45 f0 00 00 00 00 	movl   $0x0,-0x10(%ebp)
    4a9f:	eb 4e                	jmp    4aef <str_lcmp+0x6f>
    4aa1:	8d b4 26 00 00 00 00 	lea    0x0(%esi,%eiz,1),%esi
    4aa8:	89 de                	mov    %ebx,%esi
    4aaa:	8b 4d 0c             	mov    0xc(%ebp),%ecx
    4aad:	8d 5f 01             	lea    0x1(%edi),%ebx
    4ab0:	0f be 04 39          	movsbl (%ecx,%edi,1),%eax
    4ab4:	84 c0                	test   %al,%al
    4ab6:	0f 88 7c 00 00 00    	js     4b38 <str_lcmp+0xb8>
    4abc:	89 df                	mov    %ebx,%edi
    4abe:	39 c2                	cmp    %eax,%edx
    4ac0:	0f 8c ab 00 00 00    	jl     4b71 <str_lcmp+0xf1>
    4ac6:	0f 8f db 01 00 00    	jg     4ca7 <str_lcmp+0x227>
    4acc:	85 c0                	test   %eax,%eax
    4ace:	0f 84 ad 01 00 00    	je     4c81 <str_lcmp+0x201>
    4ad4:	85 d2                	test   %edx,%edx
    4ad6:	0f 84 a5 01 00 00    	je     4c81 <str_lcmp+0x201>
    4adc:	8b 5d f0             	mov    -0x10(%ebp),%ebx
    4adf:	8b 45 10             	mov    0x10(%ebp),%eax
    4ae2:	43                   	inc    %ebx
    4ae3:	89 5d f0             	mov    %ebx,-0x10(%ebp)
    4ae6:	39 45 f0             	cmp    %eax,-0x10(%ebp)
    4ae9:	0f 84 92 01 00 00    	je     4c81 <str_lcmp+0x201>
    4aef:	8b 45 08             	mov    0x8(%ebp),%eax
    4af2:	8d 5e 01             	lea    0x1(%esi),%ebx
    4af5:	0f be 14 30          	movsbl (%eax,%esi,1),%edx
    4af9:	84 d2                	test   %dl,%dl
    4afb:	79 ab                	jns    4aa8 <str_lcmp+0x28>
    4afd:	88 d0                	mov    %dl,%al
    4aff:	83 e0 e0             	and    $0xffffffe0,%eax
    4b02:	3c c0                	cmp    $0xc0,%al
    4b04:	74 76                	je     4b7c <str_lcmp+0xfc>
    4b06:	88 d0                	mov    %dl,%al
    4b08:	83 e0 f0             	and    $0xfffffff0,%eax
    4b0b:	3c e0                	cmp    $0xe0,%al
    4b0d:	0f 84 60 01 00 00    	je     4c73 <str_lcmp+0x1f3>
    4b13:	88 d0                	mov    %dl,%al
    4b15:	83 e0 f8             	and    $0xfffffff8,%eax
    4b18:	3c f0                	cmp    $0xf0,%al
    4b1a:	0f 84 6b 01 00 00    	je     4c8b <str_lcmp+0x20b>
    4b20:	8b 4d 0c             	mov    0xc(%ebp),%ecx
    4b23:	89 de                	mov    %ebx,%esi
    4b25:	ba 3f 00 00 00       	mov    $0x3f,%edx
    4b2a:	8d 5f 01             	lea    0x1(%edi),%ebx
    4b2d:	0f be 04 39          	movsbl (%ecx,%edi,1),%eax
    4b31:	84 c0                	test   %al,%al
    4b33:	79 87                	jns    4abc <str_lcmp+0x3c>
    4b35:	8d 76 00             	lea    0x0(%esi),%esi
    4b38:	88 c1                	mov    %al,%cl
    4b3a:	83 e1 e0             	and    $0xffffffe0,%ecx
    4b3d:	80 f9 c0             	cmp    $0xc0,%cl
    4b40:	0f 84 a7 00 00 00    	je     4bed <str_lcmp+0x16d>
    4b46:	88 c1                	mov    %al,%cl
    4b48:	83 e1 f0             	and    $0xfffffff0,%ecx
    4b4b:	80 f9 e0             	cmp    $0xe0,%cl
    4b4e:	0f 84 14 01 00 00    	je     4c68 <str_lcmp+0x1e8>
    4b54:	88 c1                	mov    %al,%cl
    4b56:	83 e1 f8             	and    $0xfffffff8,%ecx
    4b59:	80 f9 f0             	cmp    $0xf0,%cl
    4b5c:	0f 84 37 01 00 00    	je     4c99 <str_lcmp+0x219>
    4b62:	b8 3f 00 00 00       	mov    $0x3f,%eax
    4b67:	89 df                	mov    %ebx,%edi
    4b69:	39 c2                	cmp    %eax,%edx
    4b6b:	0f 8d 55 ff ff ff    	jge    4ac6 <str_lcmp+0x46>
    4b71:	83 c4 10             	add    $0x10,%esp
    4b74:	83 c8 ff             	or     $0xffffffff,%eax
    4b77:	5b                   	pop    %ebx
    4b78:	5e                   	pop    %esi
    4b79:	5f                   	pop    %edi
    4b7a:	5d                   	pop    %ebp
    4b7b:	c3                   	ret    
    4b7c:	b0 1f                	mov    $0x1f,%al
    4b7e:	c7 45 e8 01 00 00 00 	movl   $0x1,-0x18(%ebp)
    4b85:	8b 4d 08             	mov    0x8(%ebp),%ecx
    4b88:	21 c2                	and    %eax,%edx
    4b8a:	81 e2 ff 00 00 00    	and    $0xff,%edx
    4b90:	83 c6 02             	add    $0x2,%esi
    4b93:	8a 04 19             	mov    (%ecx,%ebx,1),%al
    4b96:	88 c1                	mov    %al,%cl
    4b98:	83 e1 c0             	and    $0xffffffc0,%ecx
    4b9b:	80 f9 80             	cmp    $0x80,%cl
    4b9e:	0f 85 10 01 00 00    	jne    4cb4 <str_lcmp+0x234>
    4ba4:	8b 4d e8             	mov    -0x18(%ebp),%ecx
    4ba7:	89 7d ec             	mov    %edi,-0x14(%ebp)
    4baa:	01 cb                	add    %ecx,%ebx
    4bac:	8b 7d 08             	mov    0x8(%ebp),%edi
    4baf:	eb 15                	jmp    4bc6 <str_lcmp+0x146>
    4bb1:	8d b4 26 00 00 00 00 	lea    0x0(%esi,%eiz,1),%esi
    4bb8:	8a 04 37             	mov    (%edi,%esi,1),%al
    4bbb:	46                   	inc    %esi
    4bbc:	88 c1                	mov    %al,%cl
    4bbe:	83 e1 c0             	and    $0xffffffc0,%ecx
    4bc1:	80 f9 80             	cmp    $0x80,%cl
    4bc4:	75 1a                	jne    4be0 <str_lcmp+0x160>
    4bc6:	89 d1                	mov    %edx,%ecx
    4bc8:	89 c2                	mov    %eax,%edx
    4bca:	c1 e1 06             	shl    $0x6,%ecx
    4bcd:	83 e2 3f             	and    $0x3f,%edx
    4bd0:	09 ca                	or     %ecx,%edx
    4bd2:	39 de                	cmp    %ebx,%esi
    4bd4:	75 e2                	jne    4bb8 <str_lcmp+0x138>
    4bd6:	8b 7d ec             	mov    -0x14(%ebp),%edi
    4bd9:	e9 cc fe ff ff       	jmp    4aaa <str_lcmp+0x2a>
    4bde:	66 90                	xchg   %ax,%ax
    4be0:	8b 7d ec             	mov    -0x14(%ebp),%edi
    4be3:	ba 3f 00 00 00       	mov    $0x3f,%edx
    4be8:	e9 bd fe ff ff       	jmp    4aaa <str_lcmp+0x2a>
    4bed:	b1 1f                	mov    $0x1f,%cl
    4bef:	c7 45 e8 01 00 00 00 	movl   $0x1,-0x18(%ebp)
    4bf6:	21 c8                	and    %ecx,%eax
    4bf8:	8b 4d 0c             	mov    0xc(%ebp),%ecx
    4bfb:	25 ff 00 00 00       	and    $0xff,%eax
    4c00:	83 c7 02             	add    $0x2,%edi
    4c03:	8a 0c 19             	mov    (%ecx,%ebx,1),%cl
    4c06:	88 4d e7             	mov    %cl,-0x19(%ebp)
    4c09:	83 e1 c0             	and    $0xffffffc0,%ecx
    4c0c:	80 f9 80             	cmp    $0x80,%cl
    4c0f:	0f 85 a9 00 00 00    	jne    4cbe <str_lcmp+0x23e>
    4c15:	8b 4d e8             	mov    -0x18(%ebp),%ecx
    4c18:	89 75 ec             	mov    %esi,-0x14(%ebp)
    4c1b:	01 cb                	add    %ecx,%ebx
    4c1d:	89 55 e8             	mov    %edx,-0x18(%ebp)
    4c20:	8a 4d e7             	mov    -0x19(%ebp),%cl
    4c23:	8b 75 0c             	mov    0xc(%ebp),%esi
    4c26:	eb 0e                	jmp    4c36 <str_lcmp+0x1b6>
    4c28:	8a 0c 3e             	mov    (%esi,%edi,1),%cl
    4c2b:	47                   	inc    %edi
    4c2c:	88 ca                	mov    %cl,%dl
    4c2e:	83 e2 c0             	and    $0xffffffc0,%edx
    4c31:	80 fa 80             	cmp    $0x80,%dl
    4c34:	75 22                	jne    4c58 <str_lcmp+0x1d8>
    4c36:	89 c2                	mov    %eax,%edx
    4c38:	89 c8                	mov    %ecx,%eax
    4c3a:	c1 e2 06             	shl    $0x6,%edx
    4c3d:	83 e0 3f             	and    $0x3f,%eax
    4c40:	09 d0                	or     %edx,%eax
    4c42:	39 df                	cmp    %ebx,%edi
    4c44:	75 e2                	jne    4c28 <str_lcmp+0x1a8>
    4c46:	8b 75 ec             	mov    -0x14(%ebp),%esi
    4c49:	8b 55 e8             	mov    -0x18(%ebp),%edx
    4c4c:	e9 6d fe ff ff       	jmp    4abe <str_lcmp+0x3e>
    4c51:	8d b4 26 00 00 00 00 	lea    0x0(%esi,%eiz,1),%esi
    4c58:	8b 75 ec             	mov    -0x14(%ebp),%esi
    4c5b:	8b 55 e8             	mov    -0x18(%ebp),%edx
    4c5e:	b8 3f 00 00 00       	mov    $0x3f,%eax
    4c63:	e9 56 fe ff ff       	jmp    4abe <str_lcmp+0x3e>
    4c68:	b1 0f                	mov    $0xf,%cl
    4c6a:	c7 45 e8 02 00 00 00 	movl   $0x2,-0x18(%ebp)
    4c71:	eb 83                	jmp    4bf6 <str_lcmp+0x176>
    4c73:	b0 0f                	mov    $0xf,%al
    4c75:	c7 45 e8 02 00 00 00 	movl   $0x2,-0x18(%ebp)
    4c7c:	e9 04 ff ff ff       	jmp    4b85 <str_lcmp+0x105>
    4c81:	83 c4 10             	add    $0x10,%esp
    4c84:	31 c0                	xor    %eax,%eax
    4c86:	5b                   	pop    %ebx
    4c87:	5e                   	pop    %esi
    4c88:	5f                   	pop    %edi
    4c89:	5d                   	pop    %ebp
    4c8a:	c3                   	ret    
    4c8b:	b0 07                	mov    $0x7,%al
    4c8d:	c7 45 e8 03 00 00 00 	movl   $0x3,-0x18(%ebp)
    4c94:	e9 ec fe ff ff       	jmp    4b85 <str_lcmp+0x105>
    4c99:	b1 07                	mov    $0x7,%cl
    4c9b:	c7 45 e8 03 00 00 00 	movl   $0x3,-0x18(%ebp)
    4ca2:	e9 4f ff ff ff       	jmp    4bf6 <str_lcmp+0x176>
    4ca7:	83 c4 10             	add    $0x10,%esp
    4caa:	b8 01 00 00 00       	mov    $0x1,%eax
    4caf:	5b                   	pop    %ebx
    4cb0:	5e                   	pop    %esi
    4cb1:	5f                   	pop    %edi
    4cb2:	5d                   	pop    %ebp
    4cb3:	c3                   	ret    
    4cb4:	ba 3f 00 00 00       	mov    $0x3f,%edx
    4cb9:	e9 ec fd ff ff       	jmp    4aaa <str_lcmp+0x2a>
    4cbe:	b8 3f 00 00 00       	mov    $0x3f,%eax
    4cc3:	e9 f6 fd ff ff       	jmp    4abe <str_lcmp+0x3e>
    4cc8:	90                   	nop
    4cc9:	8d b4 26 00 00 00 00 	lea    0x0(%esi,%eiz,1),%esi

00004cd0 <str_test_prefix>:
    4cd0:	55                   	push   %ebp
    4cd1:	31 c9                	xor    %ecx,%ecx
    4cd3:	89 e5                	mov    %esp,%ebp
    4cd5:	57                   	push   %edi
    4cd6:	56                   	push   %esi
    4cd7:	31 f6                	xor    %esi,%esi
    4cd9:	53                   	push   %ebx
    4cda:	89 f7                	mov    %esi,%edi
    4cdc:	83 ec 0c             	sub    $0xc,%esp
    4cdf:	eb 27                	jmp    4d08 <str_test_prefix+0x38>
    4ce1:	8d b4 26 00 00 00 00 	lea    0x0(%esi,%eiz,1),%esi
    4ce8:	89 f1                	mov    %esi,%ecx
    4cea:	8b 45 0c             	mov    0xc(%ebp),%eax
    4ced:	8d 77 01             	lea    0x1(%edi),%esi
    4cf0:	8a 1c 38             	mov    (%eax,%edi,1),%bl
    4cf3:	84 db                	test   %bl,%bl
    4cf5:	78 59                	js     4d50 <str_test_prefix+0x80>
    4cf7:	0f be c3             	movsbl %bl,%eax
    4cfa:	89 f7                	mov    %esi,%edi
    4cfc:	85 c0                	test   %eax,%eax
    4cfe:	0f 84 68 01 00 00    	je     4e6c <str_test_prefix+0x19c>
    4d04:	39 c2                	cmp    %eax,%edx
    4d06:	75 7a                	jne    4d82 <str_test_prefix+0xb2>
    4d08:	8b 45 08             	mov    0x8(%ebp),%eax
    4d0b:	8d 71 01             	lea    0x1(%ecx),%esi
    4d0e:	0f be 14 08          	movsbl (%eax,%ecx,1),%edx
    4d12:	84 d2                	test   %dl,%dl
    4d14:	79 d2                	jns    4ce8 <str_test_prefix+0x18>
    4d16:	88 d0                	mov    %dl,%al
    4d18:	83 e0 e0             	and    $0xffffffe0,%eax
    4d1b:	3c c0                	cmp    $0xc0,%al
    4d1d:	74 6d                	je     4d8c <str_test_prefix+0xbc>
    4d1f:	88 d0                	mov    %dl,%al
    4d21:	83 e0 f0             	and    $0xfffffff0,%eax
    4d24:	3c e0                	cmp    $0xe0,%al
    4d26:	0f 84 57 01 00 00    	je     4e83 <str_test_prefix+0x1b3>
    4d2c:	88 d0                	mov    %dl,%al
    4d2e:	83 e0 f8             	and    $0xfffffff8,%eax
    4d31:	3c f0                	cmp    $0xf0,%al
    4d33:	0f 84 66 01 00 00    	je     4e9f <str_test_prefix+0x1cf>
    4d39:	8b 45 0c             	mov    0xc(%ebp),%eax
    4d3c:	89 f1                	mov    %esi,%ecx
    4d3e:	ba 3f 00 00 00       	mov    $0x3f,%edx
    4d43:	8d 77 01             	lea    0x1(%edi),%esi
    4d46:	8a 1c 38             	mov    (%eax,%edi,1),%bl
    4d49:	84 db                	test   %bl,%bl
    4d4b:	79 aa                	jns    4cf7 <str_test_prefix+0x27>
    4d4d:	8d 76 00             	lea    0x0(%esi),%esi
    4d50:	88 d8                	mov    %bl,%al
    4d52:	83 e0 e0             	and    $0xffffffe0,%eax
    4d55:	3c c0                	cmp    $0xc0,%al
    4d57:	0f 84 a0 00 00 00    	je     4dfd <str_test_prefix+0x12d>
    4d5d:	88 d8                	mov    %bl,%al
    4d5f:	83 e0 f0             	and    $0xfffffff0,%eax
    4d62:	3c e0                	cmp    $0xe0,%al
    4d64:	0f 84 27 01 00 00    	je     4e91 <str_test_prefix+0x1c1>
    4d6a:	88 d8                	mov    %bl,%al
    4d6c:	83 e0 f8             	and    $0xfffffff8,%eax
    4d6f:	3c f0                	cmp    $0xf0,%al
    4d71:	0f 84 36 01 00 00    	je     4ead <str_test_prefix+0x1dd>
    4d77:	89 f7                	mov    %esi,%edi
    4d79:	b8 3f 00 00 00       	mov    $0x3f,%eax
    4d7e:	39 c2                	cmp    %eax,%edx
    4d80:	74 86                	je     4d08 <str_test_prefix+0x38>
    4d82:	83 c4 0c             	add    $0xc,%esp
    4d85:	31 c0                	xor    %eax,%eax
    4d87:	5b                   	pop    %ebx
    4d88:	5e                   	pop    %esi
    4d89:	5f                   	pop    %edi
    4d8a:	5d                   	pop    %ebp
    4d8b:	c3                   	ret    
    4d8c:	b0 1f                	mov    $0x1f,%al
    4d8e:	c7 45 ec 01 00 00 00 	movl   $0x1,-0x14(%ebp)
    4d95:	8b 5d 08             	mov    0x8(%ebp),%ebx
    4d98:	21 c2                	and    %eax,%edx
    4d9a:	81 e2 ff 00 00 00    	and    $0xff,%edx
    4da0:	83 c1 02             	add    $0x2,%ecx
    4da3:	8a 04 33             	mov    (%ebx,%esi,1),%al
    4da6:	88 c3                	mov    %al,%bl
    4da8:	83 e3 c0             	and    $0xffffffc0,%ebx
    4dab:	80 fb 80             	cmp    $0x80,%bl
    4dae:	0f 85 07 01 00 00    	jne    4ebb <str_test_prefix+0x1eb>
    4db4:	8b 5d ec             	mov    -0x14(%ebp),%ebx
    4db7:	89 7d f0             	mov    %edi,-0x10(%ebp)
    4dba:	01 de                	add    %ebx,%esi
    4dbc:	8b 7d 08             	mov    0x8(%ebp),%edi
    4dbf:	eb 15                	jmp    4dd6 <str_test_prefix+0x106>
    4dc1:	8d b4 26 00 00 00 00 	lea    0x0(%esi,%eiz,1),%esi
    4dc8:	8a 04 0f             	mov    (%edi,%ecx,1),%al
    4dcb:	41                   	inc    %ecx
    4dcc:	88 c3                	mov    %al,%bl
    4dce:	83 e3 c0             	and    $0xffffffc0,%ebx
    4dd1:	80 fb 80             	cmp    $0x80,%bl
    4dd4:	75 1a                	jne    4df0 <str_test_prefix+0x120>
    4dd6:	89 d3                	mov    %edx,%ebx
    4dd8:	89 c2                	mov    %eax,%edx
    4dda:	c1 e3 06             	shl    $0x6,%ebx
    4ddd:	83 e2 3f             	and    $0x3f,%edx
    4de0:	09 da                	or     %ebx,%edx
    4de2:	39 f1                	cmp    %esi,%ecx
    4de4:	75 e2                	jne    4dc8 <str_test_prefix+0xf8>
    4de6:	8b 7d f0             	mov    -0x10(%ebp),%edi
    4de9:	e9 fc fe ff ff       	jmp    4cea <str_test_prefix+0x1a>
    4dee:	66 90                	xchg   %ax,%ax
    4df0:	8b 7d f0             	mov    -0x10(%ebp),%edi
    4df3:	ba 3f 00 00 00       	mov    $0x3f,%edx
    4df8:	e9 ed fe ff ff       	jmp    4cea <str_test_prefix+0x1a>
    4dfd:	b0 1f                	mov    $0x1f,%al
    4dff:	c7 45 ec 01 00 00 00 	movl   $0x1,-0x14(%ebp)
    4e06:	21 c3                	and    %eax,%ebx
    4e08:	31 c0                	xor    %eax,%eax
    4e0a:	88 d8                	mov    %bl,%al
    4e0c:	8b 5d 0c             	mov    0xc(%ebp),%ebx
    4e0f:	83 c7 02             	add    $0x2,%edi
    4e12:	8a 1c 33             	mov    (%ebx,%esi,1),%bl
    4e15:	88 5d eb             	mov    %bl,-0x15(%ebp)
    4e18:	83 e3 c0             	and    $0xffffffc0,%ebx
    4e1b:	80 fb 80             	cmp    $0x80,%bl
    4e1e:	0f 85 55 ff ff ff    	jne    4d79 <str_test_prefix+0xa9>
    4e24:	8b 5d ec             	mov    -0x14(%ebp),%ebx
    4e27:	89 4d f0             	mov    %ecx,-0x10(%ebp)
    4e2a:	01 de                	add    %ebx,%esi
    4e2c:	89 55 ec             	mov    %edx,-0x14(%ebp)
    4e2f:	89 f1                	mov    %esi,%ecx
    4e31:	8a 5d eb             	mov    -0x15(%ebp),%bl
    4e34:	8b 75 0c             	mov    0xc(%ebp),%esi
    4e37:	eb 15                	jmp    4e4e <str_test_prefix+0x17e>
    4e39:	8d b4 26 00 00 00 00 	lea    0x0(%esi,%eiz,1),%esi
    4e40:	8a 1c 3e             	mov    (%esi,%edi,1),%bl
    4e43:	47                   	inc    %edi
    4e44:	88 da                	mov    %bl,%dl
    4e46:	83 e2 c0             	and    $0xffffffc0,%edx
    4e49:	80 fa 80             	cmp    $0x80,%dl
    4e4c:	75 2a                	jne    4e78 <str_test_prefix+0x1a8>
    4e4e:	89 c2                	mov    %eax,%edx
    4e50:	89 d8                	mov    %ebx,%eax
    4e52:	c1 e2 06             	shl    $0x6,%edx
    4e55:	83 e0 3f             	and    $0x3f,%eax
    4e58:	09 d0                	or     %edx,%eax
    4e5a:	39 cf                	cmp    %ecx,%edi
    4e5c:	75 e2                	jne    4e40 <str_test_prefix+0x170>
    4e5e:	8b 4d f0             	mov    -0x10(%ebp),%ecx
    4e61:	8b 55 ec             	mov    -0x14(%ebp),%edx
    4e64:	85 c0                	test   %eax,%eax
    4e66:	0f 85 98 fe ff ff    	jne    4d04 <str_test_prefix+0x34>
    4e6c:	83 c4 0c             	add    $0xc,%esp
    4e6f:	b0 01                	mov    $0x1,%al
    4e71:	5b                   	pop    %ebx
    4e72:	5e                   	pop    %esi
    4e73:	5f                   	pop    %edi
    4e74:	5d                   	pop    %ebp
    4e75:	c3                   	ret    
    4e76:	66 90                	xchg   %ax,%ax
    4e78:	8b 4d f0             	mov    -0x10(%ebp),%ecx
    4e7b:	8b 55 ec             	mov    -0x14(%ebp),%edx
    4e7e:	e9 f6 fe ff ff       	jmp    4d79 <str_test_prefix+0xa9>
    4e83:	b0 0f                	mov    $0xf,%al
    4e85:	c7 45 ec 02 00 00 00 	movl   $0x2,-0x14(%ebp)
    4e8c:	e9 04 ff ff ff       	jmp    4d95 <str_test_prefix+0xc5>
    4e91:	b0 0f                	mov    $0xf,%al
    4e93:	c7 45 ec 02 00 00 00 	movl   $0x2,-0x14(%ebp)
    4e9a:	e9 67 ff ff ff       	jmp    4e06 <str_test_prefix+0x136>
    4e9f:	b0 07                	mov    $0x7,%al
    4ea1:	c7 45 ec 03 00 00 00 	movl   $0x3,-0x14(%ebp)
    4ea8:	e9 e8 fe ff ff       	jmp    4d95 <str_test_prefix+0xc5>
    4ead:	b0 07                	mov    $0x7,%al
    4eaf:	c7 45 ec 03 00 00 00 	movl   $0x3,-0x14(%ebp)
    4eb6:	e9 4b ff ff ff       	jmp    4e06 <str_test_prefix+0x136>
    4ebb:	ba 3f 00 00 00       	mov    $0x3f,%edx
    4ec0:	e9 25 fe ff ff       	jmp    4cea <str_test_prefix+0x1a>
    4ec5:	8d 74 26 00          	lea    0x0(%esi,%eiz,1),%esi
    4ec9:	8d bc 27 00 00 00 00 	lea    0x0(%edi,%eiz,1),%edi

00004ed0 <str_cpy>:
    4ed0:	55                   	push   %ebp
    4ed1:	89 e5                	mov    %esp,%ebp
    4ed3:	57                   	push   %edi
    4ed4:	56                   	push   %esi
    4ed5:	53                   	push   %ebx
    4ed6:	83 ec 4c             	sub    $0x4c,%esp
    4ed9:	8b 45 0c             	mov    0xc(%ebp),%eax
    4edc:	8b 7d 10             	mov    0x10(%ebp),%edi
    4edf:	85 c0                	test   %eax,%eax
    4ee1:	0f 84 ae 01 00 00    	je     5095 <str_cpy+0x1c5>
    4ee7:	31 f6                	xor    %esi,%esi
    4ee9:	48                   	dec    %eax
    4eea:	c7 45 e4 00 00 00 00 	movl   $0x0,-0x1c(%ebp)
    4ef1:	89 45 e0             	mov    %eax,-0x20(%ebp)
    4ef4:	0f be 0c 37          	movsbl (%edi,%esi,1),%ecx
    4ef8:	8d 56 01             	lea    0x1(%esi),%edx
    4efb:	84 c9                	test   %cl,%cl
    4efd:	78 5e                	js     4f5d <str_cpy+0x8d>
    4eff:	90                   	nop
    4f00:	89 d6                	mov    %edx,%esi
    4f02:	85 c9                	test   %ecx,%ecx
    4f04:	0f 84 8e 00 00 00    	je     4f98 <str_cpy+0xc8>
    4f0a:	8b 45 e4             	mov    -0x1c(%ebp),%eax
    4f0d:	39 45 e0             	cmp    %eax,-0x20(%ebp)
    4f10:	0f 86 82 00 00 00    	jbe    4f98 <str_cpy+0xc8>
    4f16:	81 f9 ff ff 10 00    	cmp    $0x10ffff,%ecx
    4f1c:	77 7a                	ja     4f98 <str_cpy+0xc8>
    4f1e:	f7 c1 80 ff ff ff    	test   $0xffffff80,%ecx
    4f24:	0f 85 86 00 00 00    	jne    4fb0 <str_cpy+0xe0>
    4f2a:	8b 45 e4             	mov    -0x1c(%ebp),%eax
    4f2d:	c6 45 b8 00          	movb   $0x0,-0x48(%ebp)
    4f31:	89 45 dc             	mov    %eax,-0x24(%ebp)
    4f34:	c6 45 c8 7f          	movb   $0x7f,-0x38(%ebp)
    4f38:	8b 45 c8             	mov    -0x38(%ebp),%eax
    4f3b:	8b 55 08             	mov    0x8(%ebp),%edx
    4f3e:	21 c1                	and    %eax,%ecx
    4f40:	8b 45 b8             	mov    -0x48(%ebp),%eax
    4f43:	09 c1                	or     %eax,%ecx
    4f45:	8b 45 e4             	mov    -0x1c(%ebp),%eax
    4f48:	8b 5d dc             	mov    -0x24(%ebp),%ebx
    4f4b:	88 0c 02             	mov    %cl,(%edx,%eax,1)
    4f4e:	43                   	inc    %ebx
    4f4f:	0f be 0c 37          	movsbl (%edi,%esi,1),%ecx
    4f53:	89 5d e4             	mov    %ebx,-0x1c(%ebp)
    4f56:	8d 56 01             	lea    0x1(%esi),%edx
    4f59:	84 c9                	test   %cl,%cl
    4f5b:	79 a3                	jns    4f00 <str_cpy+0x30>
    4f5d:	88 c8                	mov    %cl,%al
    4f5f:	83 e0 e0             	and    $0xffffffe0,%eax
    4f62:	3c c0                	cmp    $0xc0,%al
    4f64:	0f 84 bd 00 00 00    	je     5027 <str_cpy+0x157>
    4f6a:	88 c8                	mov    %cl,%al
    4f6c:	83 e0 f0             	and    $0xfffffff0,%eax
    4f6f:	3c e0                	cmp    $0xe0,%al
    4f71:	0f 84 08 01 00 00    	je     507f <str_cpy+0x1af>
    4f77:	88 c8                	mov    %cl,%al
    4f79:	83 e0 f8             	and    $0xfffffff8,%eax
    4f7c:	3c f0                	cmp    $0xf0,%al
    4f7e:	0f 84 06 01 00 00    	je     508a <str_cpy+0x1ba>
    4f84:	89 d6                	mov    %edx,%esi
    4f86:	8b 45 e4             	mov    -0x1c(%ebp),%eax
    4f89:	b9 3f 00 00 00       	mov    $0x3f,%ecx
    4f8e:	39 45 e0             	cmp    %eax,-0x20(%ebp)
    4f91:	0f 87 7f ff ff ff    	ja     4f16 <str_cpy+0x46>
    4f97:	90                   	nop
    4f98:	8b 5d 08             	mov    0x8(%ebp),%ebx
    4f9b:	8b 55 e4             	mov    -0x1c(%ebp),%edx
    4f9e:	c6 04 13 00          	movb   $0x0,(%ebx,%edx,1)
    4fa2:	83 c4 4c             	add    $0x4c,%esp
    4fa5:	5b                   	pop    %ebx
    4fa6:	5e                   	pop    %esi
    4fa7:	5f                   	pop    %edi
    4fa8:	5d                   	pop    %ebp
    4fa9:	c3                   	ret    
    4faa:	8d b6 00 00 00 00    	lea    0x0(%esi),%esi
    4fb0:	f7 c1 00 f8 ff ff    	test   $0xfffff800,%ecx
    4fb6:	74 60                	je     5018 <str_cpy+0x148>
    4fb8:	89 c8                	mov    %ecx,%eax
    4fba:	25 00 00 ff ff       	and    $0xffff0000,%eax
    4fbf:	83 f8 01             	cmp    $0x1,%eax
    4fc2:	19 d2                	sbb    %edx,%edx
    4fc4:	83 e2 f0             	and    $0xfffffff0,%edx
    4fc7:	83 ea 10             	sub    $0x10,%edx
    4fca:	83 f8 01             	cmp    $0x1,%eax
    4fcd:	19 db                	sbb    %ebx,%ebx
    4fcf:	88 55 b8             	mov    %dl,-0x48(%ebp)
    4fd2:	83 e3 08             	and    $0x8,%ebx
    4fd5:	83 c3 07             	add    $0x7,%ebx
    4fd8:	83 f8 01             	cmp    $0x1,%eax
    4fdb:	19 c0                	sbb    %eax,%eax
    4fdd:	88 5d c8             	mov    %bl,-0x38(%ebp)
    4fe0:	83 c0 03             	add    $0x3,%eax
    4fe3:	8b 55 e4             	mov    -0x1c(%ebp),%edx
    4fe6:	01 c2                	add    %eax,%edx
    4fe8:	89 55 dc             	mov    %edx,-0x24(%ebp)
