
sata_bd:     file format elf32-i386


Disassembly of section .init:

00001094 <__entry>:
    1094:	66 8c d0             	mov    %ss,%ax
    1097:	8e d8                	mov    %eax,%ds
    1099:	8e c0                	mov    %eax,%es
    109b:	8e e0                	mov    %eax,%fs
    109d:	b8 01 00 00 00       	mov    $0x1,%eax
    10a2:	0f a2                	cpuid  
    10a4:	0f ba e2 0b          	bt     $0xb,%edx
    10a8:	73 0c                	jae    10b6 <__entry+0x22>
    10aa:	8d 05 34 2e 02 00    	lea    0x22e34,%eax
    10b0:	c7 00 17 d7 01 00    	movl   $0x1d717,(%eax)
    10b6:	6a 00                	push   $0x0
    10b8:	89 e5                	mov    %esp,%ebp
    10ba:	57                   	push   %edi
    10bb:	e8 b0 05 00 00       	call   1670 <__main>

Disassembly of section .text:

000010c0 <sata_bd_open>:
    10c0:	55                   	push   %ebp
    10c1:	31 c0                	xor    %eax,%eax
    10c3:	89 e5                	mov    %esp,%ebp
    10c5:	5d                   	pop    %ebp
    10c6:	c3                   	ret    
    10c7:	89 f6                	mov    %esi,%esi
    10c9:	8d bc 27 00 00 00 00 	lea    0x0(%edi,%eiz,1),%edi

000010d0 <sata_bd_close>:
    10d0:	55                   	push   %ebp
    10d1:	31 c0                	xor    %eax,%eax
    10d3:	89 e5                	mov    %esp,%ebp
    10d5:	5d                   	pop    %ebp
    10d6:	c3                   	ret    
    10d7:	89 f6                	mov    %esi,%esi
    10d9:	8d bc 27 00 00 00 00 	lea    0x0(%edi,%eiz,1),%edi

000010e0 <sata_bd_get_block_size>:
    10e0:	55                   	push   %ebp
    10e1:	89 e5                	mov    %esp,%ebp
    10e3:	8b 45 08             	mov    0x8(%ebp),%eax
    10e6:	8b 00                	mov    (%eax),%eax
    10e8:	8b 40 04             	mov    0x4(%eax),%eax
    10eb:	8b 90 14 01 00 00    	mov    0x114(%eax),%edx
    10f1:	8b 45 0c             	mov    0xc(%ebp),%eax
    10f4:	89 10                	mov    %edx,(%eax)
    10f6:	31 c0                	xor    %eax,%eax
    10f8:	5d                   	pop    %ebp
    10f9:	c3                   	ret    
    10fa:	8d b6 00 00 00 00    	lea    0x0(%esi),%esi

00001100 <sata_bd_get_num_blocks>:
    1100:	55                   	push   %ebp
    1101:	89 e5                	mov    %esp,%ebp
    1103:	8b 45 08             	mov    0x8(%ebp),%eax
    1106:	8b 4d 0c             	mov    0xc(%ebp),%ecx
    1109:	8b 00                	mov    (%eax),%eax
    110b:	8b 40 04             	mov    0x4(%eax),%eax
    110e:	8b 90 10 01 00 00    	mov    0x110(%eax),%edx
    1114:	8b 80 0c 01 00 00    	mov    0x10c(%eax),%eax
    111a:	89 01                	mov    %eax,(%ecx)
    111c:	89 51 04             	mov    %edx,0x4(%ecx)
    111f:	31 c0                	xor    %eax,%eax
    1121:	5d                   	pop    %ebp
    1122:	c3                   	ret    
    1123:	8d b6 00 00 00 00    	lea    0x0(%esi),%esi
    1129:	8d bc 27 00 00 00 00 	lea    0x0(%edi,%eiz,1),%edi

00001130 <scan_device_tree>:
    1130:	55                   	push   %ebp
    1131:	89 e5                	mov    %esp,%ebp
    1133:	56                   	push   %esi
    1134:	53                   	push   %ebx
    1135:	89 c6                	mov    %eax,%esi
    1137:	83 ec 30             	sub    $0x30,%esp
    113a:	a1 a0 4e 03 00       	mov    0x34ea0,%eax
    113f:	89 34 24             	mov    %esi,(%esp)
    1142:	8d 1c c0             	lea    (%eax,%eax,8),%ebx
    1145:	c1 e3 05             	shl    $0x5,%ebx
    1148:	8d 83 a0 2e 02 00    	lea    0x22ea0(%ebx),%eax
    114e:	89 44 24 04          	mov    %eax,0x4(%esp)
    1152:	e8 c9 26 00 00       	call   3820 <ahci_get_sess>
    1157:	89 83 a4 2f 02 00    	mov    %eax,0x22fa4(%ebx)
    115d:	a1 a0 4e 03 00       	mov    0x34ea0,%eax
    1162:	8d 04 c0             	lea    (%eax,%eax,8),%eax
    1165:	c1 e0 05             	shl    $0x5,%eax
    1168:	8b 90 a4 2f 02 00    	mov    0x22fa4(%eax),%edx
    116e:	85 d2                	test   %edx,%edx
    1170:	0f 84 d9 00 00 00    	je     124f <scan_device_tree+0x11f>
    1176:	05 a4 2e 02 00       	add    $0x22ea4,%eax
    117b:	89 14 24             	mov    %edx,(%esp)
    117e:	89 44 24 08          	mov    %eax,0x8(%esp)
    1182:	c7 44 24 04 00 01 00 	movl   $0x100,0x4(%esp)
    1189:	00 
    118a:	e8 41 27 00 00       	call   38d0 <ahci_get_sata_device_name>
    118f:	a1 a0 4e 03 00       	mov    0x34ea0,%eax
    1194:	8d 04 c0             	lea    (%eax,%eax,8),%eax
    1197:	c1 e0 05             	shl    $0x5,%eax
    119a:	8d 90 b4 2f 02 00    	lea    0x22fb4(%eax),%edx
    11a0:	8b 80 a4 2f 02 00    	mov    0x22fa4(%eax),%eax
    11a6:	89 54 24 04          	mov    %edx,0x4(%esp)
    11aa:	89 04 24             	mov    %eax,(%esp)
    11ad:	e8 4e 28 00 00       	call   3a00 <ahci_get_block_size>
    11b2:	a1 a0 4e 03 00       	mov    0x34ea0,%eax
    11b7:	8d 04 c0             	lea    (%eax,%eax,8),%eax
    11ba:	c1 e0 05             	shl    $0x5,%eax
    11bd:	8d 90 ac 2f 02 00    	lea    0x22fac(%eax),%edx
    11c3:	8b 80 a4 2f 02 00    	mov    0x22fa4(%eax),%eax
    11c9:	89 54 24 04          	mov    %edx,0x4(%esp)
    11cd:	89 04 24             	mov    %eax,(%esp)
    11d0:	e8 8b 27 00 00       	call   3960 <ahci_get_num_blocks>
    11d5:	a1 a0 4e 03 00       	mov    0x34ea0,%eax
    11da:	8d 04 c0             	lea    (%eax,%eax,8),%eax
    11dd:	c1 e0 05             	shl    $0x5,%eax
    11e0:	05 b8 2f 02 00       	add    $0x22fb8,%eax
    11e5:	89 04 24             	mov    %eax,(%esp)
    11e8:	e8 43 05 00 00       	call   1730 <bd_srvs_init>
    11ed:	a1 a0 4e 03 00       	mov    0x34ea0,%eax
    11f2:	8d 14 c0             	lea    (%eax,%eax,8),%edx
    11f5:	c7 04 24 34 01 02 00 	movl   $0x20134,(%esp)
    11fc:	c1 e2 05             	shl    $0x5,%edx
    11ff:	8b 82 b4 2f 02 00    	mov    0x22fb4(%edx),%eax
    1205:	8d 8a a0 2e 02 00    	lea    0x22ea0(%edx),%ecx
    120b:	89 44 24 10          	mov    %eax,0x10(%esp)
    120f:	8b 82 ac 2f 02 00    	mov    0x22fac(%edx),%eax
    1215:	89 8a bc 2f 02 00    	mov    %ecx,0x22fbc(%edx)
    121b:	89 44 24 0c          	mov    %eax,0xc(%esp)
    121f:	8d 8a a4 2e 02 00    	lea    0x22ea4(%edx),%ecx
    1225:	8b 82 a0 2e 02 00    	mov    0x22ea0(%edx),%eax
    122b:	89 4c 24 08          	mov    %ecx,0x8(%esp)
    122f:	89 44 24 04          	mov    %eax,0x4(%esp)
    1233:	c7 82 b8 2f 02 00 00 	movl   $0x22c00,0x22fb8(%edx)
    123a:	2c 02 00 
    123d:	e8 6e cd 00 00       	call   dfb0 <printf>
    1242:	8b 15 a0 4e 03 00    	mov    0x34ea0,%edx
    1248:	42                   	inc    %edx
    1249:	89 15 a0 4e 03 00    	mov    %edx,0x34ea0
    124f:	8d 45 ec             	lea    -0x14(%ebp),%eax
    1252:	89 34 24             	mov    %esi,(%esp)
    1255:	89 44 24 04          	mov    %eax,0x4(%esp)
    1259:	e8 62 20 00 00       	call   32c0 <devman_fun_get_child>
    125e:	89 c6                	mov    %eax,%esi
    1260:	83 f8 ff             	cmp    $0xffffffff,%eax
    1263:	74 7b                	je     12e0 <scan_device_tree+0x1b0>
    1265:	85 c0                	test   %eax,%eax
    1267:	75 57                	jne    12c0 <scan_device_tree+0x190>
    1269:	8d 45 f4             	lea    -0xc(%ebp),%eax
    126c:	89 44 24 08          	mov    %eax,0x8(%esp)
    1270:	8d 45 f0             	lea    -0x10(%ebp),%eax
    1273:	89 44 24 04          	mov    %eax,0x4(%esp)
    1277:	8b 45 ec             	mov    -0x14(%ebp),%eax
    127a:	89 04 24             	mov    %eax,(%esp)
    127d:	e8 2e 21 00 00       	call   33b0 <devman_dev_get_functions>
    1282:	89 c6                	mov    %eax,%esi
    1284:	85 c0                	test   %eax,%eax
    1286:	75 68                	jne    12f0 <scan_device_tree+0x1c0>
    1288:	8b 45 f4             	mov    -0xc(%ebp),%eax
    128b:	31 db                	xor    %ebx,%ebx
    128d:	85 c0                	test   %eax,%eax
    128f:	74 18                	je     12a9 <scan_device_tree+0x179>
    1291:	8d b4 26 00 00 00 00 	lea    0x0(%esi,%eiz,1),%esi
    1298:	8b 45 f0             	mov    -0x10(%ebp),%eax
    129b:	8b 04 98             	mov    (%eax,%ebx,4),%eax
    129e:	43                   	inc    %ebx
    129f:	e8 8c fe ff ff       	call   1130 <scan_device_tree>
    12a4:	39 5d f4             	cmp    %ebx,-0xc(%ebp)
    12a7:	77 ef                	ja     1298 <scan_device_tree+0x168>
    12a9:	8b 45 f0             	mov    -0x10(%ebp),%eax
    12ac:	89 04 24             	mov    %eax,(%esp)
    12af:	e8 8c 1c 01 00       	call   12f40 <free>
    12b4:	83 c4 30             	add    $0x30,%esp
    12b7:	89 f0                	mov    %esi,%eax
    12b9:	5b                   	pop    %ebx
    12ba:	5e                   	pop    %esi
    12bb:	5d                   	pop    %ebp
    12bc:	c3                   	ret    
    12bd:	8d 76 00             	lea    0x0(%esi),%esi
    12c0:	c7 44 24 04 74 02 02 	movl   $0x20274,0x4(%esp)
    12c7:	00 
    12c8:	c7 04 24 64 01 02 00 	movl   $0x20164,(%esp)
    12cf:	e8 dc cc 00 00       	call   dfb0 <printf>
    12d4:	83 c4 30             	add    $0x30,%esp
    12d7:	89 f0                	mov    %esi,%eax
    12d9:	5b                   	pop    %ebx
    12da:	5e                   	pop    %esi
    12db:	5d                   	pop    %ebp
    12dc:	c3                   	ret    
    12dd:	8d 76 00             	lea    0x0(%esi),%esi
    12e0:	83 c4 30             	add    $0x30,%esp
    12e3:	31 f6                	xor    %esi,%esi
    12e5:	89 f0                	mov    %esi,%eax
    12e7:	5b                   	pop    %ebx
    12e8:	5e                   	pop    %esi
    12e9:	5d                   	pop    %ebp
    12ea:	c3                   	ret    
    12eb:	90                   	nop
    12ec:	8d 74 26 00          	lea    0x0(%esi,%eiz,1),%esi
    12f0:	c7 44 24 04 74 02 02 	movl   $0x20274,0x4(%esp)
    12f7:	00 
    12f8:	c7 04 24 9c 01 02 00 	movl   $0x2019c,(%esp)
    12ff:	e8 ac cc 00 00       	call   dfb0 <printf>
    1304:	83 c4 30             	add    $0x30,%esp
    1307:	89 f0                	mov    %esi,%eax
    1309:	5b                   	pop    %ebx
    130a:	5e                   	pop    %esi
    130b:	5d                   	pop    %ebp
    130c:	c3                   	ret    
    130d:	8d 76 00             	lea    0x0(%esi),%esi

00001310 <sata_bd_write_blocks>:
    1310:	55                   	push   %ebp
    1311:	89 e5                	mov    %esp,%ebp
    1313:	57                   	push   %edi
    1314:	56                   	push   %esi
    1315:	53                   	push   %ebx
    1316:	8b 4d 08             	mov    0x8(%ebp),%ecx
    1319:	8b 5d 14             	mov    0x14(%ebp),%ebx
    131c:	8b 09                	mov    (%ecx),%ecx
    131e:	8b 49 04             	mov    0x4(%ecx),%ecx
    1321:	8b b1 14 01 00 00    	mov    0x114(%ecx),%esi
    1327:	0f af f3             	imul   %ebx,%esi
    132a:	3b 75 1c             	cmp    0x1c(%ebp),%esi
    132d:	77 19                	ja     1348 <sata_bd_write_blocks+0x38>
    132f:	8b 81 04 01 00 00    	mov    0x104(%ecx),%eax
    1335:	5b                   	pop    %ebx
    1336:	89 45 08             	mov    %eax,0x8(%ebp)
    1339:	5e                   	pop    %esi
    133a:	5f                   	pop    %edi
    133b:	5d                   	pop    %ebp
    133c:	e9 ff 27 00 00       	jmp    3b40 <ahci_write_blocks>
    1341:	8d b4 26 00 00 00 00 	lea    0x0(%esi,%eiz,1),%esi
    1348:	5b                   	pop    %ebx
    1349:	b8 f2 ff ff ff       	mov    $0xfffffff2,%eax
    134e:	5e                   	pop    %esi
    134f:	5f                   	pop    %edi
    1350:	5d                   	pop    %ebp
    1351:	c3                   	ret    
    1352:	8d b4 26 00 00 00 00 	lea    0x0(%esi,%eiz,1),%esi
    1359:	8d bc 27 00 00 00 00 	lea    0x0(%edi,%eiz,1),%edi

00001360 <sata_bd_read_blocks>:
    1360:	55                   	push   %ebp
    1361:	89 e5                	mov    %esp,%ebp
    1363:	57                   	push   %edi
    1364:	56                   	push   %esi
    1365:	53                   	push   %ebx
    1366:	8b 4d 08             	mov    0x8(%ebp),%ecx
    1369:	8b 5d 14             	mov    0x14(%ebp),%ebx
    136c:	8b 09                	mov    (%ecx),%ecx
    136e:	8b 49 04             	mov    0x4(%ecx),%ecx
    1371:	8b b1 14 01 00 00    	mov    0x114(%ecx),%esi
    1377:	0f af f3             	imul   %ebx,%esi
    137a:	3b 75 1c             	cmp    0x1c(%ebp),%esi
    137d:	77 19                	ja     1398 <sata_bd_read_blocks+0x38>
    137f:	8b 81 04 01 00 00    	mov    0x104(%ecx),%eax
    1385:	5b                   	pop    %ebx
    1386:	89 45 08             	mov    %eax,0x8(%ebp)
    1389:	5e                   	pop    %esi
    138a:	5f                   	pop    %edi
    138b:	5d                   	pop    %ebp
    138c:	e9 0f 27 00 00       	jmp    3aa0 <ahci_read_blocks>
    1391:	8d b4 26 00 00 00 00 	lea    0x0(%esi,%eiz,1),%esi
    1398:	5b                   	pop    %ebx
    1399:	b8 f2 ff ff ff       	mov    $0xfffffff2,%eax
    139e:	5e                   	pop    %esi
    139f:	5f                   	pop    %edi
    13a0:	5d                   	pop    %ebp
    13a1:	c3                   	ret    
    13a2:	8d b4 26 00 00 00 00 	lea    0x0(%esi,%eiz,1),%esi
    13a9:	8d bc 27 00 00 00 00 	lea    0x0(%edi,%eiz,1),%edi

000013b0 <sata_bd_connection>:
    13b0:	55                   	push   %ebp
    13b1:	ba a8 2f 02 00       	mov    $0x22fa8,%edx
    13b6:	89 e5                	mov    %esp,%ebp
    13b8:	57                   	push   %edi
    13b9:	56                   	push   %esi
    13ba:	53                   	push   %ebx
    13bb:	83 ec 1c             	sub    $0x1c,%esp
    13be:	83 cb ff             	or     $0xffffffff,%ebx
    13c1:	8b 7d 0c             	mov    0xc(%ebp),%edi
    13c4:	8b 45 08             	mov    0x8(%ebp),%eax
    13c7:	89 45 e4             	mov    %eax,-0x1c(%ebp)
    13ca:	31 c0                	xor    %eax,%eax
    13cc:	8b 77 04             	mov    0x4(%edi),%esi
    13cf:	eb 19                	jmp    13ea <sata_bd_connection+0x3a>
    13d1:	8d b4 26 00 00 00 00 	lea    0x0(%esi,%eiz,1),%esi
    13d8:	89 d9                	mov    %ebx,%ecx
    13da:	40                   	inc    %eax
    13db:	81 c2 20 01 00 00    	add    $0x120,%edx
    13e1:	89 cb                	mov    %ecx,%ebx
    13e3:	3d 00 01 00 00       	cmp    $0x100,%eax
    13e8:	74 16                	je     1400 <sata_bd_connection+0x50>
    13ea:	3b 32                	cmp    (%edx),%esi
    13ec:	75 ea                	jne    13d8 <sata_bd_connection+0x28>
    13ee:	89 c1                	mov    %eax,%ecx
    13f0:	40                   	inc    %eax
    13f1:	81 c2 20 01 00 00    	add    $0x120,%edx
    13f7:	89 cb                	mov    %ecx,%ebx
    13f9:	3d 00 01 00 00       	cmp    $0x100,%eax
    13fe:	75 ea                	jne    13ea <sata_bd_connection+0x3a>
    1400:	83 f9 ff             	cmp    $0xffffffff,%ecx
    1403:	74 23                	je     1428 <sata_bd_connection+0x78>
    1405:	8d 04 c9             	lea    (%ecx,%ecx,8),%eax
    1408:	89 7d 0c             	mov    %edi,0xc(%ebp)
    140b:	c1 e0 05             	shl    $0x5,%eax
    140e:	05 b8 2f 02 00       	add    $0x22fb8,%eax
    1413:	89 45 10             	mov    %eax,0x10(%ebp)
    1416:	8b 45 e4             	mov    -0x1c(%ebp),%eax
    1419:	89 45 08             	mov    %eax,0x8(%ebp)
    141c:	83 c4 1c             	add    $0x1c,%esp
    141f:	5b                   	pop    %ebx
    1420:	5e                   	pop    %esi
    1421:	5f                   	pop    %edi
    1422:	5d                   	pop    %ebp
    1423:	e9 28 03 00 00       	jmp    1750 <bd_conn>
    1428:	8b 45 e4             	mov    -0x1c(%ebp),%eax
    142b:	c7 45 0c f2 ff ff ff 	movl   $0xfffffff2,0xc(%ebp)
    1432:	89 45 08             	mov    %eax,0x8(%ebp)
    1435:	83 c4 1c             	add    $0x1c,%esp
    1438:	5b                   	pop    %ebx
    1439:	5e                   	pop    %esi
    143a:	5f                   	pop    %edi
    143b:	5d                   	pop    %ebp
    143c:	e9 2f 45 01 00       	jmp    15970 <async_answer_0>
    1441:	66 90                	xchg   %ax,%ax
    1443:	66 90                	xchg   %ax,%ax
    1445:	66 90                	xchg   %ax,%ax
    1447:	66 90                	xchg   %ax,%ax
    1449:	66 90                	xchg   %ax,%ax
    144b:	66 90                	xchg   %ax,%ax
    144d:	66 90                	xchg   %ax,%ax
    144f:	90                   	nop

00001450 <main>:
    1450:	55                   	push   %ebp
    1451:	89 e5                	mov    %esp,%ebp
    1453:	57                   	push   %edi
    1454:	56                   	push   %esi
    1455:	53                   	push   %ebx
    1456:	83 e4 f0             	and    $0xfffffff0,%esp
    1459:	81 ec 40 04 00 00    	sub    $0x440,%esp
    145f:	c7 04 24 b0 13 00 00 	movl   $0x13b0,(%esp)
    1466:	e8 b5 2c 01 00       	call   14120 <async_set_client_connection>
    146b:	c7 04 24 78 02 02 00 	movl   $0x20278,(%esp)
    1472:	e8 49 31 00 00       	call   45c0 <loc_server_register>
    1477:	85 c0                	test   %eax,%eax
    1479:	0f 88 f3 00 00 00    	js     1572 <main+0x122>
    147f:	8d 44 24 3c          	lea    0x3c(%esp),%eax
    1483:	c7 44 24 08 00 00 00 	movl   $0x0,0x8(%esp)
    148a:	00 
    148b:	89 44 24 04          	mov    %eax,0x4(%esp)
    148f:	c7 04 24 80 02 02 00 	movl   $0x20280,(%esp)
    1496:	c7 05 a0 4e 03 00 00 	movl   $0x0,0x34ea0
    149d:	00 00 00 
    14a0:	e8 4b 14 00 00       	call   28f0 <devman_fun_get_handle>
    14a5:	85 c0                	test   %eax,%eax
    14a7:	0f 85 db 00 00 00    	jne    1588 <main+0x138>
    14ad:	8b 44 24 3c          	mov    0x3c(%esp),%eax
    14b1:	e8 7a fc ff ff       	call   1130 <scan_device_tree>
    14b6:	8b 0d a0 4e 03 00    	mov    0x34ea0,%ecx
    14bc:	85 c9                	test   %ecx,%ecx
    14be:	0f 8e 86 00 00 00    	jle    154a <main+0xfa>
    14c4:	bf a0 2e 02 00       	mov    $0x22ea0,%edi
    14c9:	31 db                	xor    %ebx,%ebx
    14cb:	8d 74 24 40          	lea    0x40(%esp),%esi
    14cf:	eb 16                	jmp    14e7 <main+0x97>
    14d1:	8d b4 26 00 00 00 00 	lea    0x0(%esi,%eiz,1),%esi
    14d8:	43                   	inc    %ebx
    14d9:	81 c7 20 01 00 00    	add    $0x120,%edi
    14df:	39 1d a0 4e 03 00    	cmp    %ebx,0x34ea0
    14e5:	7e 63                	jle    154a <main+0xfa>
    14e7:	8b 07                	mov    (%edi),%eax
    14e9:	c7 44 24 0c 7d 02 02 	movl   $0x2027d,0xc(%esp)
    14f0:	00 
    14f1:	89 44 24 10          	mov    %eax,0x10(%esp)
    14f5:	c7 44 24 08 82 02 02 	movl   $0x20282,0x8(%esp)
    14fc:	00 
    14fd:	c7 44 24 04 00 04 00 	movl   $0x400,0x4(%esp)
    1504:	00 
    1505:	89 34 24             	mov    %esi,(%esp)
    1508:	e8 43 cd 00 00       	call   e250 <snprintf>
    150d:	8d 04 db             	lea    (%ebx,%ebx,8),%eax
    1510:	c1 e0 05             	shl    $0x5,%eax
    1513:	89 34 24             	mov    %esi,(%esp)
    1516:	05 a8 2f 02 00       	add    $0x22fa8,%eax
    151b:	89 44 24 04          	mov    %eax,0x4(%esp)
    151f:	e8 ac 34 00 00       	call   49d0 <loc_service_register>
    1524:	85 c0                	test   %eax,%eax
    1526:	74 b0                	je     14d8 <main+0x88>
    1528:	89 74 24 04          	mov    %esi,0x4(%esp)
    152c:	c7 04 24 4c 02 02 00 	movl   $0x2024c,(%esp)
    1533:	89 44 24 2c          	mov    %eax,0x2c(%esp)
    1537:	e8 74 ca 00 00       	call   dfb0 <printf>
    153c:	8b 54 24 2c          	mov    0x2c(%esp),%edx
    1540:	8d 65 f4             	lea    -0xc(%ebp),%esp
    1543:	89 d0                	mov    %edx,%eax
    1545:	5b                   	pop    %ebx
    1546:	5e                   	pop    %esi
    1547:	5f                   	pop    %edi
    1548:	5d                   	pop    %ebp
    1549:	c3                   	ret    
    154a:	c7 04 24 2c 02 02 00 	movl   $0x2022c,(%esp)
    1551:	e8 5a ca 00 00       	call   dfb0 <printf>
    1556:	c7 04 24 00 00 00 00 	movl   $0x0,(%esp)
    155d:	e8 0e a4 00 00       	call   b970 <task_retval>
    1562:	c7 04 24 01 00 00 00 	movl   $0x1,(%esp)
    1569:	e8 e2 82 00 00       	call   9850 <fibril_switch>
    156e:	31 d2                	xor    %edx,%edx
    1570:	eb ce                	jmp    1540 <main+0xf0>
    1572:	c7 04 24 d8 01 02 00 	movl   $0x201d8,(%esp)
    1579:	89 44 24 2c          	mov    %eax,0x2c(%esp)
    157d:	e8 2e ca 00 00       	call   dfb0 <printf>
    1582:	8b 54 24 2c          	mov    0x2c(%esp),%edx
    1586:	eb b8                	jmp    1540 <main+0xf0>
    1588:	c7 04 24 00 02 02 00 	movl   $0x20200,(%esp)
    158f:	e8 1c ca 00 00       	call   dfb0 <printf>
    1594:	ba f7 fe ff ff       	mov    $0xfffffef7,%edx
    1599:	eb a5                	jmp    1540 <main+0xf0>
    159b:	66 90                	xchg   %ax,%ax
    159d:	66 90                	xchg   %ax,%ax
    159f:	90                   	nop

000015a0 <exit>:
    15a0:	55                   	push   %ebp
    15a1:	89 e5                	mov    %esp,%ebp
    15a3:	83 ec 28             	sub    $0x28,%esp
    15a6:	80 3d a4 4e 03 00 00 	cmpb   $0x0,0x34ea4
    15ad:	75 3f                	jne    15ee <exit+0x4e>
    15af:	c7 44 24 18 0a 00 00 	movl   $0xa,0x18(%esp)
    15b6:	00 
    15b7:	c7 44 24 14 00 00 00 	movl   $0x0,0x14(%esp)
    15be:	00 
    15bf:	c7 44 24 10 00 00 00 	movl   $0x0,0x10(%esp)
    15c6:	00 
    15c7:	c7 44 24 0c 00 00 00 	movl   $0x0,0xc(%esp)
    15ce:	00 
    15cf:	c7 44 24 08 00 00 00 	movl   $0x0,0x8(%esp)
    15d6:	00 
    15d7:	c7 44 24 04 00 00 00 	movl   $0x0,0x4(%esp)
    15de:	00 
    15df:	c7 04 24 00 00 00 00 	movl   $0x0,(%esp)
    15e6:	ff 15 34 2e 02 00    	call   *0x22e34
    15ec:	eb fe                	jmp    15ec <exit+0x4c>
    15ee:	e8 5d a8 00 00       	call   be50 <__stdio_done>
    15f3:	8b 45 08             	mov    0x8(%ebp),%eax
    15f6:	89 04 24             	mov    %eax,(%esp)
    15f9:	e8 72 a3 00 00       	call   b970 <task_retval>
    15fe:	65 a1 00 00 00 00    	mov    %gs:0x0,%eax
    1604:	8b 40 04             	mov    0x4(%eax),%eax
    1607:	89 04 24             	mov    %eax,(%esp)
    160a:	e8 51 81 00 00       	call   9760 <fibril_teardown>
    160f:	eb 9e                	jmp    15af <exit+0xf>
    1611:	eb 0d                	jmp    1620 <abort>
    1613:	90                   	nop
    1614:	90                   	nop
    1615:	90                   	nop
    1616:	90                   	nop
    1617:	90                   	nop
    1618:	90                   	nop
    1619:	90                   	nop
    161a:	90                   	nop
    161b:	90                   	nop
    161c:	90                   	nop
    161d:	90                   	nop
    161e:	90                   	nop
    161f:	90                   	nop

00001620 <abort>:
    1620:	55                   	push   %ebp
    1621:	89 e5                	mov    %esp,%ebp
    1623:	83 ec 28             	sub    $0x28,%esp
    1626:	c7 44 24 18 0a 00 00 	movl   $0xa,0x18(%esp)
    162d:	00 
    162e:	c7 44 24 14 00 00 00 	movl   $0x0,0x14(%esp)
    1635:	00 
    1636:	c7 44 24 10 00 00 00 	movl   $0x0,0x10(%esp)
    163d:	00 
    163e:	c7 44 24 0c 00 00 00 	movl   $0x0,0xc(%esp)
    1645:	00 
    1646:	c7 44 24 08 00 00 00 	movl   $0x0,0x8(%esp)
    164d:	00 
    164e:	c7 44 24 04 00 00 00 	movl   $0x0,0x4(%esp)
    1655:	00 
    1656:	c7 04 24 01 00 00 00 	movl   $0x1,(%esp)
    165d:	ff 15 34 2e 02 00    	call   *0x22e34
    1663:	eb fe                	jmp    1663 <abort+0x43>
    1665:	8d 74 26 00          	lea    0x0(%esi,%eiz,1),%esi
    1669:	8d bc 27 00 00 00 00 	lea    0x0(%edi,%eiz,1),%edi

00001670 <__main>:
    1670:	55                   	push   %ebp
    1671:	89 e5                	mov    %esp,%ebp
    1673:	57                   	push   %edi
    1674:	56                   	push   %esi
    1675:	53                   	push   %ebx
    1676:	83 ec 2c             	sub    $0x2c,%esp
    1679:	8b 5d 08             	mov    0x8(%ebp),%ebx
    167c:	e8 af 16 01 00       	call   12d30 <__malloc_init>
    1681:	e8 ba 35 01 00       	call   14c40 <__async_init>
    1686:	e8 55 80 00 00       	call   96e0 <fibril_setup>
    168b:	85 c0                	test   %eax,%eax
    168d:	0f 84 82 00 00 00    	je     1715 <__main+0xa5>
    1693:	c7 44 24 18 01 00 00 	movl   $0x1,0x18(%esp)
    169a:	00 
    169b:	c7 44 24 14 00 00 00 	movl   $0x0,0x14(%esp)
    16a2:	00 
    16a3:	c7 44 24 10 00 00 00 	movl   $0x0,0x10(%esp)
    16aa:	00 
    16ab:	c7 44 24 0c 00 00 00 	movl   $0x0,0xc(%esp)
    16b2:	00 
    16b3:	c7 44 24 08 00 00 00 	movl   $0x0,0x8(%esp)
    16ba:	00 
    16bb:	c7 44 24 04 00 00 00 	movl   $0x0,0x4(%esp)
    16c2:	00 
    16c3:	8b 40 30             	mov    0x30(%eax),%eax
    16c6:	89 04 24             	mov    %eax,(%esp)
    16c9:	ff 15 34 2e 02 00    	call   *0x22e34
    16cf:	89 1d 80 2e 02 00    	mov    %ebx,0x22e80
    16d5:	c6 05 a4 4e 03 00 01 	movb   $0x1,0x34ea4
    16dc:	85 db                	test   %ebx,%ebx
    16de:	74 3a                	je     171a <__main+0xaa>
    16e0:	8b 43 10             	mov    0x10(%ebx),%eax
    16e3:	8b 73 08             	mov    0x8(%ebx),%esi
    16e6:	8b 7b 0c             	mov    0xc(%ebx),%edi
    16e9:	89 04 24             	mov    %eax,(%esp)
    16ec:	e8 cf a4 00 00       	call   bbc0 <__stdio_init>
    16f1:	a1 80 2e 02 00       	mov    0x22e80,%eax
    16f6:	8b 40 04             	mov    0x4(%eax),%eax
    16f9:	89 04 24             	mov    %eax,(%esp)
    16fc:	e8 1f b3 01 00       	call   1ca20 <chdir>
    1701:	89 7c 24 04          	mov    %edi,0x4(%esp)
    1705:	89 34 24             	mov    %esi,(%esp)
    1708:	e8 43 fd ff ff       	call   1450 <main>
    170d:	89 04 24             	mov    %eax,(%esp)
    1710:	e8 8b fe ff ff       	call   15a0 <exit>
    1715:	e8 06 ff ff ff       	call   1620 <abort>
    171a:	c7 04 24 00 00 00 00 	movl   $0x0,(%esp)
    1721:	31 ff                	xor    %edi,%edi
    1723:	e8 98 a4 00 00       	call   bbc0 <__stdio_init>
    1728:	31 f6                	xor    %esi,%esi
    172a:	eb d5                	jmp    1701 <__main+0x91>
    172c:	66 90                	xchg   %ax,%ax
    172e:	66 90                	xchg   %ax,%ax

00001730 <bd_srvs_init>:
    1730:	55                   	push   %ebp
    1731:	89 e5                	mov    %esp,%ebp
    1733:	8b 45 08             	mov    0x8(%ebp),%eax
    1736:	c7 00 00 00 00 00    	movl   $0x0,(%eax)
    173c:	c7 40 04 00 00 00 00 	movl   $0x0,0x4(%eax)
    1743:	5d                   	pop    %ebp
    1744:	c3                   	ret    
    1745:	8d 74 26 00          	lea    0x0(%esi,%eiz,1),%esi
    1749:	8d bc 27 00 00 00 00 	lea    0x0(%edi,%eiz,1),%edi

00001750 <bd_conn>:
    1750:	55                   	push   %ebp
    1751:	89 e5                	mov    %esp,%ebp
    1753:	57                   	push   %edi
    1754:	56                   	push   %esi
    1755:	53                   	push   %ebx
    1756:	83 ec 7c             	sub    $0x7c,%esp
    1759:	8b 45 08             	mov    0x8(%ebp),%eax
    175c:	c7 44 24 04 00 00 00 	movl   $0x0,0x4(%esp)
    1763:	00 
    1764:	89 04 24             	mov    %eax,(%esp)
    1767:	e8 04 42 01 00       	call   15970 <async_answer_0>
    176c:	c7 44 24 04 04 00 00 	movl   $0x4,0x4(%esp)
    1773:	00 
    1774:	c7 04 24 01 00 00 00 	movl   $0x1,(%esp)
    177b:	e8 50 16 01 00       	call   12dd0 <calloc>
    1780:	89 c7                	mov    %eax,%edi
    1782:	85 c0                	test   %eax,%eax
    1784:	0f 84 ec 02 00 00    	je     1a76 <bd_conn+0x326>
    178a:	8b 55 10             	mov    0x10(%ebp),%edx
    178d:	89 10                	mov    %edx,(%eax)
    178f:	c7 04 24 02 00 00 00 	movl   $0x2,(%esp)
    1796:	e8 75 64 01 00       	call   17c10 <async_callback_receive>
    179b:	85 c0                	test   %eax,%eax
    179d:	0f 84 d3 02 00 00    	je     1a76 <bd_conn+0x326>
    17a3:	8b 4d 10             	mov    0x10(%ebp),%ecx
    17a6:	89 47 04             	mov    %eax,0x4(%edi)
    17a9:	8b 01                	mov    (%ecx),%eax
    17ab:	89 7c 24 04          	mov    %edi,0x4(%esp)
    17af:	89 0c 24             	mov    %ecx,(%esp)
    17b2:	ff 10                	call   *(%eax)
    17b4:	85 c0                	test   %eax,%eax
    17b6:	0f 85 c4 02 00 00    	jne    1a80 <bd_conn+0x330>
    17bc:	8d 5d c4             	lea    -0x3c(%ebp),%ebx
    17bf:	90                   	nop
    17c0:	c7 44 24 04 00 00 00 	movl   $0x0,0x4(%esp)
    17c7:	00 
    17c8:	89 1c 24             	mov    %ebx,(%esp)
    17cb:	e8 70 2b 01 00       	call   14340 <async_get_call_timeout>
    17d0:	89 c6                	mov    %eax,%esi
    17d2:	8b 45 c4             	mov    -0x3c(%ebp),%eax
    17d5:	85 c0                	test   %eax,%eax
    17d7:	0f 84 ab 02 00 00    	je     1a88 <bd_conn+0x338>
    17dd:	2d 00 04 00 00       	sub    $0x400,%eax
    17e2:	83 f8 04             	cmp    $0x4,%eax
    17e5:	76 19                	jbe    1800 <bd_conn+0xb0>
    17e7:	c7 44 24 04 f2 ff ff 	movl   $0xfffffff2,0x4(%esp)
    17ee:	ff 
    17ef:	89 34 24             	mov    %esi,(%esp)
    17f2:	e8 79 41 01 00       	call   15970 <async_answer_0>
    17f7:	eb c7                	jmp    17c0 <bd_conn+0x70>
    17f9:	8d b4 26 00 00 00 00 	lea    0x0(%esi,%eiz,1),%esi
    1800:	ff 24 85 88 02 02 00 	jmp    *0x20288(,%eax,4)
    1807:	90                   	nop
    1808:	8b 4d cc             	mov    -0x34(%ebp),%ecx
    180b:	8b 55 c8             	mov    -0x38(%ebp),%edx
    180e:	89 4d a0             	mov    %ecx,-0x60(%ebp)
    1811:	8d 45 b0             	lea    -0x50(%ebp),%eax
    1814:	8d 4d b4             	lea    -0x4c(%ebp),%ecx
    1817:	89 55 a4             	mov    %edx,-0x5c(%ebp)
    181a:	89 4c 24 14          	mov    %ecx,0x14(%esp)
    181e:	8b 55 d0             	mov    -0x30(%ebp),%edx
    1821:	c7 44 24 10 00 00 00 	movl   $0x0,0x10(%esp)
    1828:	00 
    1829:	c7 44 24 0c 00 00 00 	movl   $0x0,0xc(%esp)
    1830:	00 
    1831:	c7 44 24 08 00 00 00 	movl   $0x0,0x8(%esp)
    1838:	00 
    1839:	c7 44 24 04 00 00 00 	movl   $0x0,0x4(%esp)
    1840:	00 
    1841:	89 04 24             	mov    %eax,(%esp)
    1844:	89 55 9c             	mov    %edx,-0x64(%ebp)
    1847:	e8 44 5c 01 00       	call   17490 <async_data_write_accept>
    184c:	85 c0                	test   %eax,%eax
    184e:	75 48                	jne    1898 <bd_conn+0x148>
    1850:	8b 07                	mov    (%edi),%eax
    1852:	8b 00                	mov    (%eax),%eax
    1854:	8b 40 10             	mov    0x10(%eax),%eax
    1857:	85 c0                	test   %eax,%eax
    1859:	0f 84 61 02 00 00    	je     1ac0 <bd_conn+0x370>
    185f:	8b 55 b4             	mov    -0x4c(%ebp),%edx
    1862:	8b 4d a4             	mov    -0x5c(%ebp),%ecx
    1865:	89 54 24 14          	mov    %edx,0x14(%esp)
    1869:	8b 55 b0             	mov    -0x50(%ebp),%edx
    186c:	89 54 24 10          	mov    %edx,0x10(%esp)
    1870:	8b 55 9c             	mov    -0x64(%ebp),%edx
    1873:	89 54 24 0c          	mov    %edx,0xc(%esp)
    1877:	8b 55 a0             	mov    -0x60(%ebp),%edx
    187a:	89 4c 24 04          	mov    %ecx,0x4(%esp)
    187e:	89 54 24 08          	mov    %edx,0x8(%esp)
    1882:	89 3c 24             	mov    %edi,(%esp)
    1885:	ff d0                	call   *%eax
    1887:	8b 55 b0             	mov    -0x50(%ebp),%edx
    188a:	89 14 24             	mov    %edx,(%esp)
    188d:	89 45 98             	mov    %eax,-0x68(%ebp)
    1890:	e8 ab 16 01 00       	call   12f40 <free>
    1895:	8b 45 98             	mov    -0x68(%ebp),%eax
    1898:	89 44 24 04          	mov    %eax,0x4(%esp)
    189c:	89 34 24             	mov    %esi,(%esp)
    189f:	e8 cc 40 01 00       	call   15970 <async_answer_0>
    18a4:	e9 17 ff ff ff       	jmp    17c0 <bd_conn+0x70>
    18a9:	8d b4 26 00 00 00 00 	lea    0x0(%esi,%eiz,1),%esi
    18b0:	8d 45 ac             	lea    -0x54(%ebp),%eax
    18b3:	8b 4d c8             	mov    -0x38(%ebp),%ecx
    18b6:	89 44 24 04          	mov    %eax,0x4(%esp)
    18ba:	8d 45 b4             	lea    -0x4c(%ebp),%eax
    18bd:	89 4d a4             	mov    %ecx,-0x5c(%ebp)
    18c0:	8b 55 cc             	mov    -0x34(%ebp),%edx
    18c3:	8b 4d d0             	mov    -0x30(%ebp),%ecx
    18c6:	89 04 24             	mov    %eax,(%esp)
    18c9:	89 55 a0             	mov    %edx,-0x60(%ebp)
    18cc:	89 4d 9c             	mov    %ecx,-0x64(%ebp)
    18cf:	e8 0c 56 01 00       	call   16ee0 <async_data_read_receive>
    18d4:	84 c0                	test   %al,%al
    18d6:	0f 84 0b ff ff ff    	je     17e7 <bd_conn+0x97>
    18dc:	8b 45 ac             	mov    -0x54(%ebp),%eax
    18df:	89 04 24             	mov    %eax,(%esp)
    18e2:	e8 49 15 01 00       	call   12e30 <malloc>
    18e7:	89 c2                	mov    %eax,%edx
    18e9:	85 c0                	test   %eax,%eax
    18eb:	0f 84 5d 01 00 00    	je     1a4e <bd_conn+0x2fe>
    18f1:	8b 07                	mov    (%edi),%eax
    18f3:	8b 00                	mov    (%eax),%eax
    18f5:	8b 40 08             	mov    0x8(%eax),%eax
    18f8:	85 c0                	test   %eax,%eax
    18fa:	0f 84 d8 01 00 00    	je     1ad8 <bd_conn+0x388>
    1900:	8b 4d ac             	mov    -0x54(%ebp),%ecx
    1903:	89 54 24 10          	mov    %edx,0x10(%esp)
    1907:	89 4c 24 14          	mov    %ecx,0x14(%esp)
    190b:	8b 4d 9c             	mov    -0x64(%ebp),%ecx
    190e:	89 4c 24 0c          	mov    %ecx,0xc(%esp)
    1912:	8b 4d a4             	mov    -0x5c(%ebp),%ecx
    1915:	89 4c 24 04          	mov    %ecx,0x4(%esp)
    1919:	8b 4d a0             	mov    -0x60(%ebp),%ecx
    191c:	89 55 98             	mov    %edx,-0x68(%ebp)
    191f:	89 4c 24 08          	mov    %ecx,0x8(%esp)
    1923:	89 3c 24             	mov    %edi,(%esp)
    1926:	ff d0                	call   *%eax
    1928:	8b 55 98             	mov    -0x68(%ebp),%edx
    192b:	85 c0                	test   %eax,%eax
    192d:	0f 85 1b 01 00 00    	jne    1a4e <bd_conn+0x2fe>
    1933:	8b 45 ac             	mov    -0x54(%ebp),%eax
    1936:	89 54 24 04          	mov    %edx,0x4(%esp)
    193a:	89 44 24 08          	mov    %eax,0x8(%esp)
    193e:	8b 45 b4             	mov    -0x4c(%ebp),%eax
    1941:	89 04 24             	mov    %eax,(%esp)
    1944:	89 55 98             	mov    %edx,-0x68(%ebp)
    1947:	e8 f4 55 01 00       	call   16f40 <async_data_read_finalize>
    194c:	8b 55 98             	mov    -0x68(%ebp),%edx
    194f:	89 14 24             	mov    %edx,(%esp)
    1952:	e8 e9 15 01 00       	call   12f40 <free>
    1957:	c7 44 24 04 00 00 00 	movl   $0x0,0x4(%esp)
    195e:	00 
    195f:	89 34 24             	mov    %esi,(%esp)
    1962:	e8 09 40 01 00       	call   15970 <async_answer_0>
    1967:	e9 54 fe ff ff       	jmp    17c0 <bd_conn+0x70>
    196c:	8d 74 26 00          	lea    0x0(%esi,%eiz,1),%esi
    1970:	8b 07                	mov    (%edi),%eax
    1972:	8b 00                	mov    (%eax),%eax
    1974:	8b 40 18             	mov    0x18(%eax),%eax
    1977:	85 c0                	test   %eax,%eax
    1979:	0f 84 41 01 00 00    	je     1ac0 <bd_conn+0x370>
    197f:	8d 55 b8             	lea    -0x48(%ebp),%edx
    1982:	89 3c 24             	mov    %edi,(%esp)
    1985:	89 54 24 04          	mov    %edx,0x4(%esp)
    1989:	ff d0                	call   *%eax
    198b:	8b 55 bc             	mov    -0x44(%ebp),%edx
    198e:	89 54 24 0c          	mov    %edx,0xc(%esp)
    1992:	8b 55 b8             	mov    -0x48(%ebp),%edx
    1995:	89 54 24 08          	mov    %edx,0x8(%esp)
    1999:	89 44 24 04          	mov    %eax,0x4(%esp)
    199d:	89 34 24             	mov    %esi,(%esp)
    19a0:	e8 4b 40 01 00       	call   159f0 <async_answer_2>
    19a5:	e9 16 fe ff ff       	jmp    17c0 <bd_conn+0x70>
    19aa:	8d b6 00 00 00 00    	lea    0x0(%esi),%esi
    19b0:	8b 07                	mov    (%edi),%eax
    19b2:	8b 00                	mov    (%eax),%eax
    19b4:	8b 40 14             	mov    0x14(%eax),%eax
    19b7:	85 c0                	test   %eax,%eax
    19b9:	0f 84 01 01 00 00    	je     1ac0 <bd_conn+0x370>
    19bf:	8d 4d b4             	lea    -0x4c(%ebp),%ecx
    19c2:	89 3c 24             	mov    %edi,(%esp)
    19c5:	89 4c 24 04          	mov    %ecx,0x4(%esp)
    19c9:	ff d0                	call   *%eax
    19cb:	8b 55 b4             	mov    -0x4c(%ebp),%edx
    19ce:	89 54 24 08          	mov    %edx,0x8(%esp)
    19d2:	89 44 24 04          	mov    %eax,0x4(%esp)
    19d6:	89 34 24             	mov    %esi,(%esp)
    19d9:	e8 d2 3f 01 00       	call   159b0 <async_answer_1>
    19de:	e9 dd fd ff ff       	jmp    17c0 <bd_conn+0x70>
    19e3:	90                   	nop
    19e4:	8d 74 26 00          	lea    0x0(%esi,%eiz,1),%esi
    19e8:	8d 45 ac             	lea    -0x54(%ebp),%eax
    19eb:	8d 4d b4             	lea    -0x4c(%ebp),%ecx
    19ee:	8b 55 c8             	mov    -0x38(%ebp),%edx
    19f1:	89 44 24 04          	mov    %eax,0x4(%esp)
    19f5:	89 0c 24             	mov    %ecx,(%esp)
    19f8:	89 55 a4             	mov    %edx,-0x5c(%ebp)
    19fb:	e8 e0 54 01 00       	call   16ee0 <async_data_read_receive>
    1a00:	84 c0                	test   %al,%al
    1a02:	0f 84 df fd ff ff    	je     17e7 <bd_conn+0x97>
    1a08:	8b 45 ac             	mov    -0x54(%ebp),%eax
    1a0b:	89 04 24             	mov    %eax,(%esp)
    1a0e:	e8 1d 14 01 00       	call   12e30 <malloc>
    1a13:	89 c2                	mov    %eax,%edx
    1a15:	85 c0                	test   %eax,%eax
    1a17:	74 35                	je     1a4e <bd_conn+0x2fe>
    1a19:	8b 07                	mov    (%edi),%eax
    1a1b:	8b 00                	mov    (%eax),%eax
    1a1d:	8b 40 0c             	mov    0xc(%eax),%eax
    1a20:	85 c0                	test   %eax,%eax
    1a22:	0f 84 b0 00 00 00    	je     1ad8 <bd_conn+0x388>
    1a28:	8b 4d ac             	mov    -0x54(%ebp),%ecx
    1a2b:	89 54 24 08          	mov    %edx,0x8(%esp)
    1a2f:	89 4c 24 0c          	mov    %ecx,0xc(%esp)
    1a33:	89 55 98             	mov    %edx,-0x68(%ebp)
    1a36:	0f b6 4d a4          	movzbl -0x5c(%ebp),%ecx
    1a3a:	89 3c 24             	mov    %edi,(%esp)
    1a3d:	89 4c 24 04          	mov    %ecx,0x4(%esp)
    1a41:	ff d0                	call   *%eax
    1a43:	8b 55 98             	mov    -0x68(%ebp),%edx
    1a46:	85 c0                	test   %eax,%eax
    1a48:	0f 84 e5 fe ff ff    	je     1933 <bd_conn+0x1e3>
    1a4e:	8b 45 b4             	mov    -0x4c(%ebp),%eax
    1a51:	c7 44 24 04 fe ff ff 	movl   $0xfffffffe,0x4(%esp)
    1a58:	ff 
    1a59:	89 04 24             	mov    %eax,(%esp)
    1a5c:	e8 0f 3f 01 00       	call   15970 <async_answer_0>
    1a61:	c7 44 24 04 fe ff ff 	movl   $0xfffffffe,0x4(%esp)
    1a68:	ff 
    1a69:	89 34 24             	mov    %esi,(%esp)
    1a6c:	e8 ff 3e 01 00       	call   15970 <async_answer_0>
    1a71:	e9 4a fd ff ff       	jmp    17c0 <bd_conn+0x70>
    1a76:	b8 fe ff ff ff       	mov    $0xfffffffe,%eax
    1a7b:	90                   	nop
    1a7c:	8d 74 26 00          	lea    0x0(%esi,%eiz,1),%esi
    1a80:	83 c4 7c             	add    $0x7c,%esp
    1a83:	5b                   	pop    %ebx
    1a84:	5e                   	pop    %esi
    1a85:	5f                   	pop    %edi
    1a86:	5d                   	pop    %ebp
    1a87:	c3                   	ret    
    1a88:	89 34 24             	mov    %esi,(%esp)
    1a8b:	c7 44 24 04 00 00 00 	movl   $0x0,0x4(%esp)
    1a92:	00 
    1a93:	e8 d8 3e 01 00       	call   15970 <async_answer_0>
    1a98:	8b 55 10             	mov    0x10(%ebp),%edx
    1a9b:	8b 02                	mov    (%edx),%eax
    1a9d:	89 3c 24             	mov    %edi,(%esp)
    1aa0:	ff 50 04             	call   *0x4(%eax)
    1aa3:	89 3c 24             	mov    %edi,(%esp)
    1aa6:	89 45 98             	mov    %eax,-0x68(%ebp)
    1aa9:	e8 92 14 01 00       	call   12f40 <free>
    1aae:	8b 45 98             	mov    -0x68(%ebp),%eax
    1ab1:	83 c4 7c             	add    $0x7c,%esp
    1ab4:	5b                   	pop    %ebx
    1ab5:	5e                   	pop    %esi
    1ab6:	5f                   	pop    %edi
    1ab7:	5d                   	pop    %ebp
    1ab8:	c3                   	ret    
    1ab9:	8d b4 26 00 00 00 00 	lea    0x0(%esi,%eiz,1),%esi
    1ac0:	c7 44 24 04 f5 ff ff 	movl   $0xfffffff5,0x4(%esp)
    1ac7:	ff 
    1ac8:	89 34 24             	mov    %esi,(%esp)
    1acb:	e8 a0 3e 01 00       	call   15970 <async_answer_0>
    1ad0:	e9 eb fc ff ff       	jmp    17c0 <bd_conn+0x70>
    1ad5:	8d 76 00             	lea    0x0(%esi),%esi
    1ad8:	8b 45 b4             	mov    -0x4c(%ebp),%eax
    1adb:	c7 44 24 04 f5 ff ff 	movl   $0xfffffff5,0x4(%esp)
    1ae2:	ff 
    1ae3:	89 04 24             	mov    %eax,(%esp)
    1ae6:	e8 85 3e 01 00       	call   15970 <async_answer_0>
    1aeb:	c7 44 24 04 f5 ff ff 	movl   $0xfffffff5,0x4(%esp)
    1af2:	ff 
    1af3:	89 34 24             	mov    %esi,(%esp)
    1af6:	e8 75 3e 01 00       	call   15970 <async_answer_0>
    1afb:	e9 c0 fc ff ff       	jmp    17c0 <bd_conn+0x70>

00001b00 <devman_exchange_begin.part.0>:
    1b00:	55                   	push   %ebp
    1b01:	89 e5                	mov    %esp,%ebp
    1b03:	83 ec 18             	sub    $0x18,%esp
    1b06:	c7 04 24 2c 2c 02 00 	movl   $0x22c2c,(%esp)
    1b0d:	e8 0e 85 00 00       	call   a020 <fibril_mutex_lock>
    1b12:	a1 a8 4e 03 00       	mov    0x34ea8,%eax
    1b17:	85 c0                	test   %eax,%eax
    1b19:	74 25                	je     1b40 <devman_exchange_begin.part.0+0x40>
    1b1b:	c7 04 24 2c 2c 02 00 	movl   $0x22c2c,(%esp)
    1b22:	e8 19 86 00 00       	call   a140 <fibril_mutex_unlock>
    1b27:	a1 a8 4e 03 00       	mov    0x34ea8,%eax
    1b2c:	85 c0                	test   %eax,%eax
    1b2e:	74 40                	je     1b70 <devman_exchange_begin.part.0+0x70>
    1b30:	89 04 24             	mov    %eax,(%esp)
    1b33:	e8 38 48 01 00       	call   16370 <async_exchange_begin>
    1b38:	c9                   	leave  
    1b39:	c3                   	ret    
    1b3a:	8d b6 00 00 00 00    	lea    0x0(%esi),%esi
    1b40:	c7 44 24 0c 00 00 00 	movl   $0x0,0xc(%esp)
    1b47:	00 
    1b48:	c7 44 24 08 01 00 00 	movl   $0x1,0x8(%esp)
    1b4f:	00 
    1b50:	c7 44 24 04 64 65 76 	movl   $0x6e766564,0x4(%esp)
    1b57:	6e 
    1b58:	c7 04 24 01 00 00 00 	movl   $0x1,(%esp)
    1b5f:	e8 dc 1a 01 00       	call   13640 <service_connect>
    1b64:	a3 a8 4e 03 00       	mov    %eax,0x34ea8
    1b69:	eb b0                	jmp    1b1b <devman_exchange_begin.part.0+0x1b>
    1b6b:	90                   	nop
    1b6c:	8d 74 26 00          	lea    0x0(%esi,%eiz,1),%esi
    1b70:	31 c0                	xor    %eax,%eax
    1b72:	c9                   	leave  
    1b73:	c3                   	ret    
    1b74:	8d b6 00 00 00 00    	lea    0x0(%esi),%esi
    1b7a:	8d bf 00 00 00 00    	lea    0x0(%edi),%edi

00001b80 <devman_exchange_begin_blocking>:
    1b80:	55                   	push   %ebp
    1b81:	89 e5                	mov    %esp,%ebp
    1b83:	53                   	push   %ebx
    1b84:	83 ec 14             	sub    $0x14,%esp
    1b87:	8b 45 08             	mov    0x8(%ebp),%eax
    1b8a:	83 f8 01             	cmp    $0x1,%eax
    1b8d:	74 11                	je     1ba0 <devman_exchange_begin_blocking+0x20>
    1b8f:	83 f8 02             	cmp    $0x2,%eax
    1b92:	0f 84 b0 00 00 00    	je     1c48 <devman_exchange_begin_blocking+0xc8>
    1b98:	83 c4 14             	add    $0x14,%esp
    1b9b:	31 c0                	xor    %eax,%eax
    1b9d:	5b                   	pop    %ebx
    1b9e:	5d                   	pop    %ebp
    1b9f:	c3                   	ret    
    1ba0:	c7 04 24 1c 2c 02 00 	movl   $0x22c1c,(%esp)
    1ba7:	e8 74 84 00 00       	call   a020 <fibril_mutex_lock>
    1bac:	a1 ac 4e 03 00       	mov    0x34eac,%eax
    1bb1:	85 c0                	test   %eax,%eax
    1bb3:	75 34                	jne    1be9 <devman_exchange_begin_blocking+0x69>
    1bb5:	c7 04 24 2c 2c 02 00 	movl   $0x22c2c,(%esp)
    1bbc:	8b 1d a8 4e 03 00    	mov    0x34ea8,%ebx
    1bc2:	e8 59 84 00 00       	call   a020 <fibril_mutex_lock>
    1bc7:	a1 ac 4e 03 00       	mov    0x34eac,%eax
    1bcc:	85 c0                	test   %eax,%eax
    1bce:	74 68                	je     1c38 <devman_exchange_begin_blocking+0xb8>
    1bd0:	c7 04 24 2c 2c 02 00 	movl   $0x22c2c,(%esp)
    1bd7:	e8 64 85 00 00       	call   a140 <fibril_mutex_unlock>
    1bdc:	a1 ac 4e 03 00       	mov    0x34eac,%eax
    1be1:	85 c0                	test   %eax,%eax
    1be3:	0f 84 07 01 00 00    	je     1cf0 <devman_exchange_begin_blocking+0x170>
    1be9:	c7 04 24 1c 2c 02 00 	movl   $0x22c1c,(%esp)
    1bf0:	e8 4b 85 00 00       	call   a140 <fibril_mutex_unlock>
    1bf5:	c7 04 24 2c 2c 02 00 	movl   $0x22c2c,(%esp)
    1bfc:	8b 1d ac 4e 03 00    	mov    0x34eac,%ebx
    1c02:	e8 19 84 00 00       	call   a020 <fibril_mutex_lock>
    1c07:	a1 a8 4e 03 00       	mov    0x34ea8,%eax
    1c0c:	85 c0                	test   %eax,%eax
    1c0e:	0f 84 3c 01 00 00    	je     1d50 <devman_exchange_begin_blocking+0x1d0>
    1c14:	c7 04 24 2c 2c 02 00 	movl   $0x22c2c,(%esp)
    1c1b:	e8 20 85 00 00       	call   a140 <fibril_mutex_unlock>
    1c20:	a1 ac 4e 03 00       	mov    0x34eac,%eax
    1c25:	89 45 08             	mov    %eax,0x8(%ebp)
    1c28:	83 c4 14             	add    $0x14,%esp
    1c2b:	5b                   	pop    %ebx
    1c2c:	5d                   	pop    %ebp
    1c2d:	e9 3e 47 01 00       	jmp    16370 <async_exchange_begin>
    1c32:	8d b6 00 00 00 00    	lea    0x0(%esi),%esi
    1c38:	85 db                	test   %ebx,%ebx
    1c3a:	74 94                	je     1bd0 <devman_exchange_begin_blocking+0x50>
    1c3c:	89 1d ac 4e 03 00    	mov    %ebx,0x34eac
    1c42:	eb 8c                	jmp    1bd0 <devman_exchange_begin_blocking+0x50>
    1c44:	8d 74 26 00          	lea    0x0(%esi,%eiz,1),%esi
    1c48:	c7 04 24 3c 2c 02 00 	movl   $0x22c3c,(%esp)
    1c4f:	e8 cc 83 00 00       	call   a020 <fibril_mutex_lock>
    1c54:	a1 b4 4e 03 00       	mov    0x34eb4,%eax
    1c59:	85 c0                	test   %eax,%eax
    1c5b:	75 35                	jne    1c92 <devman_exchange_begin_blocking+0x112>
    1c5d:	c7 04 24 4c 2c 02 00 	movl   $0x22c4c,(%esp)
    1c64:	8b 1d b0 4e 03 00    	mov    0x34eb0,%ebx
    1c6a:	e8 b1 83 00 00       	call   a020 <fibril_mutex_lock>
    1c6f:	a1 b4 4e 03 00       	mov    0x34eb4,%eax
    1c74:	85 c0                	test   %eax,%eax
    1c76:	74 68                	je     1ce0 <devman_exchange_begin_blocking+0x160>
    1c78:	c7 04 24 4c 2c 02 00 	movl   $0x22c4c,(%esp)
    1c7f:	e8 bc 84 00 00       	call   a140 <fibril_mutex_unlock>
    1c84:	8b 0d b4 4e 03 00    	mov    0x34eb4,%ecx
    1c8a:	85 c9                	test   %ecx,%ecx
    1c8c:	0f 84 8e 00 00 00    	je     1d20 <devman_exchange_begin_blocking+0x1a0>
    1c92:	c7 04 24 3c 2c 02 00 	movl   $0x22c3c,(%esp)
    1c99:	e8 a2 84 00 00       	call   a140 <fibril_mutex_unlock>
    1c9e:	c7 04 24 4c 2c 02 00 	movl   $0x22c4c,(%esp)
    1ca5:	8b 1d b4 4e 03 00    	mov    0x34eb4,%ebx
    1cab:	e8 70 83 00 00       	call   a020 <fibril_mutex_lock>
    1cb0:	8b 15 b0 4e 03 00    	mov    0x34eb0,%edx
    1cb6:	85 d2                	test   %edx,%edx
    1cb8:	0f 84 aa 00 00 00    	je     1d68 <devman_exchange_begin_blocking+0x1e8>
    1cbe:	c7 04 24 4c 2c 02 00 	movl   $0x22c4c,(%esp)
    1cc5:	e8 76 84 00 00       	call   a140 <fibril_mutex_unlock>
    1cca:	a1 b4 4e 03 00       	mov    0x34eb4,%eax
    1ccf:	89 45 08             	mov    %eax,0x8(%ebp)
    1cd2:	83 c4 14             	add    $0x14,%esp
    1cd5:	5b                   	pop    %ebx
    1cd6:	5d                   	pop    %ebp
    1cd7:	e9 94 46 01 00       	jmp    16370 <async_exchange_begin>
    1cdc:	8d 74 26 00          	lea    0x0(%esi,%eiz,1),%esi
    1ce0:	85 db                	test   %ebx,%ebx
    1ce2:	74 94                	je     1c78 <devman_exchange_begin_blocking+0xf8>
    1ce4:	89 1d b4 4e 03 00    	mov    %ebx,0x34eb4
    1cea:	eb 8c                	jmp    1c78 <devman_exchange_begin_blocking+0xf8>
    1cec:	8d 74 26 00          	lea    0x0(%esi,%eiz,1),%esi
    1cf0:	c7 44 24 0c 00 00 00 	movl   $0x0,0xc(%esp)
    1cf7:	00 
    1cf8:	c7 44 24 08 01 00 00 	movl   $0x1,0x8(%esp)
    1cff:	00 
    1d00:	c7 44 24 04 64 65 76 	movl   $0x6e766564,0x4(%esp)
    1d07:	6e 
    1d08:	c7 04 24 01 00 00 00 	movl   $0x1,(%esp)
    1d0f:	e8 ac 19 01 00       	call   136c0 <service_connect_blocking>
    1d14:	a3 ac 4e 03 00       	mov    %eax,0x34eac
    1d19:	e9 93 fe ff ff       	jmp    1bb1 <devman_exchange_begin_blocking+0x31>
    1d1e:	66 90                	xchg   %ax,%ax
    1d20:	c7 44 24 0c 00 00 00 	movl   $0x0,0xc(%esp)
    1d27:	00 
    1d28:	c7 44 24 08 02 00 00 	movl   $0x2,0x8(%esp)
    1d2f:	00 
    1d30:	c7 44 24 04 64 65 76 	movl   $0x6e766564,0x4(%esp)
    1d37:	6e 
    1d38:	c7 04 24 02 00 00 00 	movl   $0x2,(%esp)
    1d3f:	e8 7c 19 01 00       	call   136c0 <service_connect_blocking>
    1d44:	a3 b4 4e 03 00       	mov    %eax,0x34eb4
    1d49:	e9 0b ff ff ff       	jmp    1c59 <devman_exchange_begin_blocking+0xd9>
    1d4e:	66 90                	xchg   %ax,%ax
    1d50:	85 db                	test   %ebx,%ebx
    1d52:	0f 84 bc fe ff ff    	je     1c14 <devman_exchange_begin_blocking+0x94>
    1d58:	89 1d a8 4e 03 00    	mov    %ebx,0x34ea8
    1d5e:	e9 b1 fe ff ff       	jmp    1c14 <devman_exchange_begin_blocking+0x94>
    1d63:	90                   	nop
    1d64:	8d 74 26 00          	lea    0x0(%esi,%eiz,1),%esi
    1d68:	85 db                	test   %ebx,%ebx
    1d6a:	0f 84 4e ff ff ff    	je     1cbe <devman_exchange_begin_blocking+0x13e>
    1d70:	89 1d b0 4e 03 00    	mov    %ebx,0x34eb0
    1d76:	e9 43 ff ff ff       	jmp    1cbe <devman_exchange_begin_blocking+0x13e>
    1d7b:	90                   	nop
    1d7c:	8d 74 26 00          	lea    0x0(%esi,%eiz,1),%esi

00001d80 <devman_exchange_begin>:
    1d80:	55                   	push   %ebp
    1d81:	89 e5                	mov    %esp,%ebp
    1d83:	83 ec 18             	sub    $0x18,%esp
    1d86:	8b 45 08             	mov    0x8(%ebp),%eax
    1d89:	83 f8 01             	cmp    $0x1,%eax
    1d8c:	74 0a                	je     1d98 <devman_exchange_begin+0x18>
    1d8e:	83 f8 02             	cmp    $0x2,%eax
    1d91:	74 3d                	je     1dd0 <devman_exchange_begin+0x50>
    1d93:	31 c0                	xor    %eax,%eax
    1d95:	c9                   	leave  
    1d96:	c3                   	ret    
    1d97:	90                   	nop
    1d98:	c7 04 24 2c 2c 02 00 	movl   $0x22c2c,(%esp)
    1d9f:	e8 7c 82 00 00       	call   a020 <fibril_mutex_lock>
    1da4:	a1 a8 4e 03 00       	mov    0x34ea8,%eax
    1da9:	85 c0                	test   %eax,%eax
    1dab:	74 5b                	je     1e08 <devman_exchange_begin+0x88>
    1dad:	c7 04 24 2c 2c 02 00 	movl   $0x22c2c,(%esp)
    1db4:	e8 87 83 00 00       	call   a140 <fibril_mutex_unlock>
    1db9:	a1 a8 4e 03 00       	mov    0x34ea8,%eax
    1dbe:	85 c0                	test   %eax,%eax
    1dc0:	74 d1                	je     1d93 <devman_exchange_begin+0x13>
    1dc2:	89 45 08             	mov    %eax,0x8(%ebp)
    1dc5:	c9                   	leave  
    1dc6:	e9 a5 45 01 00       	jmp    16370 <async_exchange_begin>
    1dcb:	90                   	nop
    1dcc:	8d 74 26 00          	lea    0x0(%esi,%eiz,1),%esi
    1dd0:	c7 04 24 4c 2c 02 00 	movl   $0x22c4c,(%esp)
    1dd7:	e8 44 82 00 00       	call   a020 <fibril_mutex_lock>
    1ddc:	a1 b0 4e 03 00       	mov    0x34eb0,%eax
    1de1:	85 c0                	test   %eax,%eax
    1de3:	74 53                	je     1e38 <devman_exchange_begin+0xb8>
    1de5:	c7 04 24 4c 2c 02 00 	movl   $0x22c4c,(%esp)
    1dec:	e8 4f 83 00 00       	call   a140 <fibril_mutex_unlock>
    1df1:	a1 b0 4e 03 00       	mov    0x34eb0,%eax
    1df6:	85 c0                	test   %eax,%eax
    1df8:	74 99                	je     1d93 <devman_exchange_begin+0x13>
    1dfa:	89 45 08             	mov    %eax,0x8(%ebp)
    1dfd:	c9                   	leave  
    1dfe:	e9 6d 45 01 00       	jmp    16370 <async_exchange_begin>
    1e03:	90                   	nop
    1e04:	8d 74 26 00          	lea    0x0(%esi,%eiz,1),%esi
    1e08:	c7 44 24 0c 00 00 00 	movl   $0x0,0xc(%esp)
    1e0f:	00 
    1e10:	c7 44 24 08 01 00 00 	movl   $0x1,0x8(%esp)
    1e17:	00 
    1e18:	c7 44 24 04 64 65 76 	movl   $0x6e766564,0x4(%esp)
    1e1f:	6e 
    1e20:	c7 04 24 01 00 00 00 	movl   $0x1,(%esp)
    1e27:	e8 14 18 01 00       	call   13640 <service_connect>
    1e2c:	a3 a8 4e 03 00       	mov    %eax,0x34ea8
    1e31:	e9 77 ff ff ff       	jmp    1dad <devman_exchange_begin+0x2d>
    1e36:	66 90                	xchg   %ax,%ax
    1e38:	c7 44 24 0c 00 00 00 	movl   $0x0,0xc(%esp)
    1e3f:	00 
    1e40:	c7 44 24 08 02 00 00 	movl   $0x2,0x8(%esp)
    1e47:	00 
    1e48:	c7 44 24 04 64 65 76 	movl   $0x6e766564,0x4(%esp)
    1e4f:	6e 
    1e50:	c7 04 24 02 00 00 00 	movl   $0x2,(%esp)
    1e57:	e8 e4 17 01 00       	call   13640 <service_connect>
    1e5c:	a3 b0 4e 03 00       	mov    %eax,0x34eb0
    1e61:	eb 82                	jmp    1de5 <devman_exchange_begin+0x65>
    1e63:	8d b6 00 00 00 00    	lea    0x0(%esi),%esi
    1e69:	8d bc 27 00 00 00 00 	lea    0x0(%edi,%eiz,1),%edi

00001e70 <devman_exchange_end>:
    1e70:	55                   	push   %ebp
    1e71:	89 e5                	mov    %esp,%ebp
    1e73:	5d                   	pop    %ebp
    1e74:	e9 67 48 01 00       	jmp    166e0 <async_exchange_end>
    1e79:	8d b4 26 00 00 00 00 	lea    0x0(%esi,%eiz,1),%esi

00001e80 <devman_driver_register>:
    1e80:	55                   	push   %ebp
    1e81:	89 e5                	mov    %esp,%ebp
    1e83:	57                   	push   %edi
    1e84:	56                   	push   %esi
    1e85:	53                   	push   %ebx
    1e86:	83 ec 5c             	sub    $0x5c,%esp
    1e89:	8b 75 08             	mov    0x8(%ebp),%esi
    1e8c:	c7 04 24 1c 2c 02 00 	movl   $0x22c1c,(%esp)
    1e93:	e8 88 81 00 00       	call   a020 <fibril_mutex_lock>
    1e98:	a1 ac 4e 03 00       	mov    0x34eac,%eax
    1e9d:	85 c0                	test   %eax,%eax
    1e9f:	75 38                	jne    1ed9 <devman_driver_register+0x59>
    1ea1:	c7 04 24 2c 2c 02 00 	movl   $0x22c2c,(%esp)
    1ea8:	8b 1d a8 4e 03 00    	mov    0x34ea8,%ebx
    1eae:	e8 6d 81 00 00       	call   a020 <fibril_mutex_lock>
    1eb3:	a1 ac 4e 03 00       	mov    0x34eac,%eax
    1eb8:	85 c0                	test   %eax,%eax
    1eba:	0f 84 58 01 00 00    	je     2018 <devman_driver_register+0x198>
    1ec0:	c7 04 24 2c 2c 02 00 	movl   $0x22c2c,(%esp)
    1ec7:	e8 74 82 00 00       	call   a140 <fibril_mutex_unlock>
    1ecc:	a1 ac 4e 03 00       	mov    0x34eac,%eax
    1ed1:	85 c0                	test   %eax,%eax
    1ed3:	0f 84 57 01 00 00    	je     2030 <devman_driver_register+0x1b0>
    1ed9:	c7 04 24 1c 2c 02 00 	movl   $0x22c1c,(%esp)
    1ee0:	e8 5b 82 00 00       	call   a140 <fibril_mutex_unlock>
    1ee5:	c7 04 24 2c 2c 02 00 	movl   $0x22c2c,(%esp)
    1eec:	8b 1d ac 4e 03 00    	mov    0x34eac,%ebx
    1ef2:	e8 29 81 00 00       	call   a020 <fibril_mutex_lock>
    1ef7:	8b 3d a8 4e 03 00    	mov    0x34ea8,%edi
    1efd:	85 ff                	test   %edi,%edi
    1eff:	0f 84 73 01 00 00    	je     2078 <devman_driver_register+0x1f8>
    1f05:	c7 04 24 2c 2c 02 00 	movl   $0x22c2c,(%esp)
    1f0c:	e8 2f 82 00 00       	call   a140 <fibril_mutex_unlock>
    1f11:	a1 ac 4e 03 00       	mov    0x34eac,%eax
    1f16:	89 04 24             	mov    %eax,(%esp)
    1f19:	e8 52 44 01 00       	call   16370 <async_exchange_begin>
    1f1e:	c7 44 24 14 00 00 00 	movl   $0x0,0x14(%esp)
    1f25:	00 
    1f26:	89 c3                	mov    %eax,%ebx
    1f28:	8d 45 c4             	lea    -0x3c(%ebp),%eax
    1f2b:	89 44 24 18          	mov    %eax,0x18(%esp)
    1f2f:	c7 44 24 10 00 00 00 	movl   $0x0,0x10(%esp)
    1f36:	00 
    1f37:	c7 44 24 0c 00 00 00 	movl   $0x0,0xc(%esp)
    1f3e:	00 
    1f3f:	c7 44 24 08 00 00 00 	movl   $0x0,0x8(%esp)
    1f46:	00 
    1f47:	c7 44 24 04 00 04 00 	movl   $0x400,0x4(%esp)
    1f4e:	00 
    1f4f:	89 1c 24             	mov    %ebx,(%esp)
    1f52:	e8 b9 2d 01 00       	call   14d10 <async_send_fast>
    1f57:	89 34 24             	mov    %esi,(%esp)
    1f5a:	89 c7                	mov    %eax,%edi
    1f5c:	e8 9f 4e 00 00       	call   6e00 <str_size>
    1f61:	89 74 24 04          	mov    %esi,0x4(%esp)
    1f65:	89 44 24 08          	mov    %eax,0x8(%esp)
    1f69:	89 1c 24             	mov    %ebx,(%esp)
    1f6c:	e8 ef 52 01 00       	call   17260 <async_data_write_start>
    1f71:	89 1c 24             	mov    %ebx,(%esp)
    1f74:	89 45 c0             	mov    %eax,-0x40(%ebp)
    1f77:	e8 64 47 01 00       	call   166e0 <async_exchange_end>
    1f7c:	8b 4d c0             	mov    -0x40(%ebp),%ecx
    1f7f:	85 c9                	test   %ecx,%ecx
    1f81:	0f 85 d9 00 00 00    	jne    2060 <devman_driver_register+0x1e0>
    1f87:	c7 04 24 2c 2c 02 00 	movl   $0x22c2c,(%esp)
    1f8e:	e8 8d 80 00 00       	call   a020 <fibril_mutex_lock>
    1f93:	8b 15 a8 4e 03 00    	mov    0x34ea8,%edx
    1f99:	85 d2                	test   %edx,%edx
    1f9b:	0f 84 ea 00 00 00    	je     208b <devman_driver_register+0x20b>
    1fa1:	c7 04 24 2c 2c 02 00 	movl   $0x22c2c,(%esp)
    1fa8:	e8 93 81 00 00       	call   a140 <fibril_mutex_unlock>
    1fad:	a1 a8 4e 03 00       	mov    0x34ea8,%eax
    1fb2:	85 c0                	test   %eax,%eax
    1fb4:	0f 84 ff 00 00 00    	je     20b9 <devman_driver_register+0x239>
    1fba:	89 04 24             	mov    %eax,(%esp)
    1fbd:	e8 ae 43 01 00       	call   16370 <async_exchange_begin>
    1fc2:	89 c3                	mov    %eax,%ebx
    1fc4:	89 1c 24             	mov    %ebx,(%esp)
    1fc7:	c7 44 24 14 00 00 00 	movl   $0x0,0x14(%esp)
    1fce:	00 
    1fcf:	c7 44 24 10 00 00 00 	movl   $0x0,0x10(%esp)
    1fd6:	00 
    1fd7:	c7 44 24 0c 00 00 00 	movl   $0x0,0xc(%esp)
    1fde:	00 
    1fdf:	c7 44 24 08 00 00 00 	movl   $0x0,0x8(%esp)
    1fe6:	00 
    1fe7:	c7 44 24 04 00 00 00 	movl   $0x0,0x4(%esp)
    1fee:	00 
    1fef:	e8 1c 3b 01 00       	call   15b10 <async_connect_to_me>
    1ff4:	89 1c 24             	mov    %ebx,(%esp)
    1ff7:	e8 e4 46 01 00       	call   166e0 <async_exchange_end>
    1ffc:	8d 45 c0             	lea    -0x40(%ebp),%eax
    1fff:	89 44 24 04          	mov    %eax,0x4(%esp)
    2003:	89 3c 24             	mov    %edi,(%esp)
    2006:	e8 d5 2e 01 00       	call   14ee0 <async_wait_for>
    200b:	8b 45 c0             	mov    -0x40(%ebp),%eax
    200e:	83 c4 5c             	add    $0x5c,%esp
    2011:	5b                   	pop    %ebx
    2012:	5e                   	pop    %esi
    2013:	5f                   	pop    %edi
    2014:	5d                   	pop    %ebp
    2015:	c3                   	ret    
    2016:	66 90                	xchg   %ax,%ax
    2018:	85 db                	test   %ebx,%ebx
    201a:	0f 84 a0 fe ff ff    	je     1ec0 <devman_driver_register+0x40>
    2020:	89 1d ac 4e 03 00    	mov    %ebx,0x34eac
    2026:	e9 95 fe ff ff       	jmp    1ec0 <devman_driver_register+0x40>
    202b:	90                   	nop
    202c:	8d 74 26 00          	lea    0x0(%esi,%eiz,1),%esi
    2030:	c7 44 24 0c 00 00 00 	movl   $0x0,0xc(%esp)
    2037:	00 
    2038:	c7 44 24 08 01 00 00 	movl   $0x1,0x8(%esp)
    203f:	00 
    2040:	c7 44 24 04 64 65 76 	movl   $0x6e766564,0x4(%esp)
    2047:	6e 
    2048:	c7 04 24 01 00 00 00 	movl   $0x1,(%esp)
    204f:	e8 6c 16 01 00       	call   136c0 <service_connect_blocking>
    2054:	a3 ac 4e 03 00       	mov    %eax,0x34eac
    2059:	e9 3f fe ff ff       	jmp    1e9d <devman_driver_register+0x1d>
    205e:	66 90                	xchg   %ax,%ax
    2060:	89 3c 24             	mov    %edi,(%esp)
    2063:	e8 c8 30 01 00       	call   15130 <async_forget>
    2068:	8b 45 c0             	mov    -0x40(%ebp),%eax
    206b:	83 c4 5c             	add    $0x5c,%esp
    206e:	5b                   	pop    %ebx
    206f:	5e                   	pop    %esi
    2070:	5f                   	pop    %edi
    2071:	5d                   	pop    %ebp
    2072:	c3                   	ret    
    2073:	90                   	nop
    2074:	8d 74 26 00          	lea    0x0(%esi,%eiz,1),%esi
    2078:	85 db                	test   %ebx,%ebx
    207a:	0f 84 85 fe ff ff    	je     1f05 <devman_driver_register+0x85>
    2080:	89 1d a8 4e 03 00    	mov    %ebx,0x34ea8
    2086:	e9 7a fe ff ff       	jmp    1f05 <devman_driver_register+0x85>
    208b:	c7 44 24 0c 00 00 00 	movl   $0x0,0xc(%esp)
    2092:	00 
    2093:	c7 44 24 08 01 00 00 	movl   $0x1,0x8(%esp)
    209a:	00 
    209b:	c7 44 24 04 64 65 76 	movl   $0x6e766564,0x4(%esp)
    20a2:	6e 
    20a3:	c7 04 24 01 00 00 00 	movl   $0x1,(%esp)
    20aa:	e8 91 15 01 00       	call   13640 <service_connect>
    20af:	a3 a8 4e 03 00       	mov    %eax,0x34ea8
    20b4:	e9 e8 fe ff ff       	jmp    1fa1 <devman_driver_register+0x121>
    20b9:	31 db                	xor    %ebx,%ebx
    20bb:	e9 04 ff ff ff       	jmp    1fc4 <devman_driver_register+0x144>

000020c0 <devman_add_function>:
    20c0:	55                   	push   %ebp
    20c1:	89 e5                	mov    %esp,%ebp
    20c3:	57                   	push   %edi
    20c4:	56                   	push   %esi
    20c5:	53                   	push   %ebx
    20c6:	81 ec 8c 00 00 00    	sub    $0x8c,%esp
    20cc:	8b 55 10             	mov    0x10(%ebp),%edx
    20cf:	8b 75 08             	mov    0x8(%ebp),%esi
    20d2:	89 14 24             	mov    %edx,(%esp)
    20d5:	e8 d6 68 01 00       	call   189b0 <list_count>
    20da:	c7 04 24 1c 2c 02 00 	movl   $0x22c1c,(%esp)
    20e1:	89 c7                	mov    %eax,%edi
    20e3:	e8 38 7f 00 00       	call   a020 <fibril_mutex_lock>
    20e8:	a1 ac 4e 03 00       	mov    0x34eac,%eax
    20ed:	85 c0                	test   %eax,%eax
    20ef:	75 38                	jne    2129 <devman_add_function+0x69>
    20f1:	c7 04 24 2c 2c 02 00 	movl   $0x22c2c,(%esp)
    20f8:	8b 1d a8 4e 03 00    	mov    0x34ea8,%ebx
    20fe:	e8 1d 7f 00 00       	call   a020 <fibril_mutex_lock>
    2103:	a1 ac 4e 03 00       	mov    0x34eac,%eax
    2108:	85 c0                	test   %eax,%eax
    210a:	0f 84 80 01 00 00    	je     2290 <devman_add_function+0x1d0>
    2110:	c7 04 24 2c 2c 02 00 	movl   $0x22c2c,(%esp)
    2117:	e8 24 80 00 00       	call   a140 <fibril_mutex_unlock>
    211c:	a1 ac 4e 03 00       	mov    0x34eac,%eax
    2121:	85 c0                	test   %eax,%eax
    2123:	0f 84 7f 01 00 00    	je     22a8 <devman_add_function+0x1e8>
    2129:	c7 04 24 1c 2c 02 00 	movl   $0x22c1c,(%esp)
    2130:	e8 0b 80 00 00       	call   a140 <fibril_mutex_unlock>
    2135:	c7 04 24 2c 2c 02 00 	movl   $0x22c2c,(%esp)
    213c:	8b 1d ac 4e 03 00    	mov    0x34eac,%ebx
    2142:	e8 d9 7e 00 00       	call   a020 <fibril_mutex_lock>
    2147:	a1 a8 4e 03 00       	mov    0x34ea8,%eax
    214c:	85 c0                	test   %eax,%eax
    214e:	0f 84 ec 01 00 00    	je     2340 <devman_add_function+0x280>
    2154:	c7 04 24 2c 2c 02 00 	movl   $0x22c2c,(%esp)
    215b:	e8 e0 7f 00 00       	call   a140 <fibril_mutex_unlock>
    2160:	a1 ac 4e 03 00       	mov    0x34eac,%eax
    2165:	89 04 24             	mov    %eax,(%esp)
    2168:	e8 03 42 01 00       	call   16370 <async_exchange_begin>
    216d:	c7 44 24 14 00 00 00 	movl   $0x0,0x14(%esp)
    2174:	00 
    2175:	89 c3                	mov    %eax,%ebx
    2177:	8d 45 a0             	lea    -0x60(%ebp),%eax
    217a:	89 44 24 18          	mov    %eax,0x18(%esp)
    217e:	8b 45 14             	mov    0x14(%ebp),%eax
    2181:	89 44 24 0c          	mov    %eax,0xc(%esp)
    2185:	8b 45 0c             	mov    0xc(%ebp),%eax
    2188:	89 7c 24 10          	mov    %edi,0x10(%esp)
    218c:	89 44 24 08          	mov    %eax,0x8(%esp)
    2190:	c7 44 24 04 01 04 00 	movl   $0x401,0x4(%esp)
    2197:	00 
    2198:	89 1c 24             	mov    %ebx,(%esp)
    219b:	e8 70 2b 01 00       	call   14d10 <async_send_fast>
    21a0:	89 34 24             	mov    %esi,(%esp)
    21a3:	89 45 90             	mov    %eax,-0x70(%ebp)
    21a6:	e8 55 4c 00 00       	call   6e00 <str_size>
    21ab:	89 74 24 04          	mov    %esi,0x4(%esp)
    21af:	89 44 24 08          	mov    %eax,0x8(%esp)
    21b3:	89 1c 24             	mov    %ebx,(%esp)
    21b6:	e8 a5 50 01 00       	call   17260 <async_data_write_start>
    21bb:	89 45 9c             	mov    %eax,-0x64(%ebp)
    21be:	85 c0                	test   %eax,%eax
    21c0:	0f 85 12 01 00 00    	jne    22d8 <devman_add_function+0x218>
    21c6:	8b 55 10             	mov    0x10(%ebp),%edx
    21c9:	8b 7a 04             	mov    0x4(%edx),%edi
    21cc:	39 d7                	cmp    %edx,%edi
    21ce:	75 31                	jne    2201 <devman_add_function+0x141>
    21d0:	e9 24 01 00 00       	jmp    22f9 <devman_add_function+0x239>
    21d5:	8d 76 00             	lea    0x0(%esi),%esi
    21d8:	8d 55 9c             	lea    -0x64(%ebp),%edx
    21db:	89 34 24             	mov    %esi,(%esp)
    21de:	89 54 24 04          	mov    %edx,0x4(%esp)
    21e2:	89 55 94             	mov    %edx,-0x6c(%ebp)
    21e5:	e8 f6 2c 01 00       	call   14ee0 <async_wait_for>
    21ea:	8b 75 9c             	mov    -0x64(%ebp),%esi
    21ed:	85 f6                	test   %esi,%esi
    21ef:	0f 85 e3 00 00 00    	jne    22d8 <devman_add_function+0x218>
    21f5:	8b 7f 04             	mov    0x4(%edi),%edi
    21f8:	3b 7d 10             	cmp    0x10(%ebp),%edi
    21fb:	0f 84 ff 00 00 00    	je     2300 <devman_add_function+0x240>
    2201:	8d 45 c4             	lea    -0x3c(%ebp),%eax
    2204:	c7 44 24 14 00 00 00 	movl   $0x0,0x14(%esp)
    220b:	00 
    220c:	89 44 24 18          	mov    %eax,0x18(%esp)
    2210:	c7 44 24 10 00 00 00 	movl   $0x0,0x10(%esp)
    2217:	00 
    2218:	c7 44 24 0c 00 00 00 	movl   $0x0,0xc(%esp)
    221f:	00 
    2220:	8b 47 0c             	mov    0xc(%edi),%eax
    2223:	c7 44 24 04 02 04 00 	movl   $0x402,0x4(%esp)
    222a:	00 
    222b:	89 44 24 08          	mov    %eax,0x8(%esp)
    222f:	89 1c 24             	mov    %ebx,(%esp)
    2232:	e8 d9 2a 01 00       	call   14d10 <async_send_fast>
    2237:	89 c6                	mov    %eax,%esi
    2239:	8b 47 08             	mov    0x8(%edi),%eax
    223c:	89 04 24             	mov    %eax,(%esp)
    223f:	e8 bc 4b 00 00       	call   6e00 <str_size>
    2244:	89 44 24 08          	mov    %eax,0x8(%esp)
    2248:	8b 47 08             	mov    0x8(%edi),%eax
    224b:	89 1c 24             	mov    %ebx,(%esp)
    224e:	89 44 24 04          	mov    %eax,0x4(%esp)
    2252:	e8 09 50 01 00       	call   17260 <async_data_write_start>
    2257:	89 45 9c             	mov    %eax,-0x64(%ebp)
    225a:	85 c0                	test   %eax,%eax
    225c:	0f 84 76 ff ff ff    	je     21d8 <devman_add_function+0x118>
    2262:	89 1c 24             	mov    %ebx,(%esp)
    2265:	e8 76 44 01 00       	call   166e0 <async_exchange_end>
    226a:	89 34 24             	mov    %esi,(%esp)
    226d:	e8 be 2e 01 00       	call   15130 <async_forget>
    2272:	8b 45 90             	mov    -0x70(%ebp),%eax
    2275:	89 04 24             	mov    %eax,(%esp)
    2278:	e8 b3 2e 01 00       	call   15130 <async_forget>
    227d:	8b 45 9c             	mov    -0x64(%ebp),%eax
    2280:	81 c4 8c 00 00 00    	add    $0x8c,%esp
    2286:	5b                   	pop    %ebx
    2287:	5e                   	pop    %esi
    2288:	5f                   	pop    %edi
    2289:	5d                   	pop    %ebp
    228a:	c3                   	ret    
    228b:	90                   	nop
    228c:	8d 74 26 00          	lea    0x0(%esi,%eiz,1),%esi
    2290:	85 db                	test   %ebx,%ebx
    2292:	0f 84 78 fe ff ff    	je     2110 <devman_add_function+0x50>
    2298:	89 1d ac 4e 03 00    	mov    %ebx,0x34eac
    229e:	e9 6d fe ff ff       	jmp    2110 <devman_add_function+0x50>
    22a3:	90                   	nop
    22a4:	8d 74 26 00          	lea    0x0(%esi,%eiz,1),%esi
    22a8:	c7 44 24 0c 00 00 00 	movl   $0x0,0xc(%esp)
    22af:	00 
    22b0:	c7 44 24 08 01 00 00 	movl   $0x1,0x8(%esp)
    22b7:	00 
    22b8:	c7 44 24 04 64 65 76 	movl   $0x6e766564,0x4(%esp)
    22bf:	6e 
    22c0:	c7 04 24 01 00 00 00 	movl   $0x1,(%esp)
    22c7:	e8 f4 13 01 00       	call   136c0 <service_connect_blocking>
    22cc:	a3 ac 4e 03 00       	mov    %eax,0x34eac
    22d1:	e9 17 fe ff ff       	jmp    20ed <devman_add_function+0x2d>
    22d6:	66 90                	xchg   %ax,%ax
    22d8:	89 1c 24             	mov    %ebx,(%esp)
    22db:	e8 00 44 01 00       	call   166e0 <async_exchange_end>
    22e0:	8b 45 90             	mov    -0x70(%ebp),%eax
    22e3:	89 04 24             	mov    %eax,(%esp)
    22e6:	e8 45 2e 01 00       	call   15130 <async_forget>
    22eb:	8b 45 9c             	mov    -0x64(%ebp),%eax
    22ee:	81 c4 8c 00 00 00    	add    $0x8c,%esp
    22f4:	5b                   	pop    %ebx
    22f5:	5e                   	pop    %esi
    22f6:	5f                   	pop    %edi
    22f7:	5d                   	pop    %ebp
    22f8:	c3                   	ret    
    22f9:	8d 4d 9c             	lea    -0x64(%ebp),%ecx
    22fc:	89 4d 94             	mov    %ecx,-0x6c(%ebp)
    22ff:	90                   	nop
    2300:	89 1c 24             	mov    %ebx,(%esp)
    2303:	e8 d8 43 01 00       	call   166e0 <async_exchange_end>
    2308:	8b 45 90             	mov    -0x70(%ebp),%eax
    230b:	8b 55 94             	mov    -0x6c(%ebp),%edx
    230e:	89 04 24             	mov    %eax,(%esp)
    2311:	89 54 24 04          	mov    %edx,0x4(%esp)
    2315:	e8 c6 2b 01 00       	call   14ee0 <async_wait_for>
    231a:	8b 45 9c             	mov    -0x64(%ebp),%eax
    231d:	85 c0                	test   %eax,%eax
    231f:	75 32                	jne    2353 <devman_add_function+0x293>
    2321:	8b 4d 18             	mov    0x18(%ebp),%ecx
    2324:	85 c9                	test   %ecx,%ecx
    2326:	0f 84 54 ff ff ff    	je     2280 <devman_add_function+0x1c0>
    232c:	8b 4d 18             	mov    0x18(%ebp),%ecx
    232f:	8b 55 a4             	mov    -0x5c(%ebp),%edx
    2332:	89 11                	mov    %edx,(%ecx)
    2334:	81 c4 8c 00 00 00    	add    $0x8c,%esp
    233a:	5b                   	pop    %ebx
    233b:	5e                   	pop    %esi
    233c:	5f                   	pop    %edi
    233d:	5d                   	pop    %ebp
    233e:	c3                   	ret    
    233f:	90                   	nop
    2340:	85 db                	test   %ebx,%ebx
    2342:	0f 84 0c fe ff ff    	je     2154 <devman_add_function+0x94>
    2348:	89 1d a8 4e 03 00    	mov    %ebx,0x34ea8
    234e:	e9 01 fe ff ff       	jmp    2154 <devman_add_function+0x94>
    2353:	8b 55 18             	mov    0x18(%ebp),%edx
    2356:	85 d2                	test   %edx,%edx
    2358:	0f 84 22 ff ff ff    	je     2280 <devman_add_function+0x1c0>
    235e:	8b 55 18             	mov    0x18(%ebp),%edx
    2361:	c7 02 ff ff ff ff    	movl   $0xffffffff,(%edx)
    2367:	81 c4 8c 00 00 00    	add    $0x8c,%esp
    236d:	5b                   	pop    %ebx
    236e:	5e                   	pop    %esi
    236f:	5f                   	pop    %edi
    2370:	5d                   	pop    %ebp
    2371:	c3                   	ret    
    2372:	8d b4 26 00 00 00 00 	lea    0x0(%esi,%eiz,1),%esi
    2379:	8d bc 27 00 00 00 00 	lea    0x0(%edi,%eiz,1),%edi

00002380 <devman_add_device_to_category>:
    2380:	55                   	push   %ebp
    2381:	89 e5                	mov    %esp,%ebp
    2383:	57                   	push   %edi
    2384:	56                   	push   %esi
    2385:	53                   	push   %ebx
    2386:	83 ec 5c             	sub    $0x5c,%esp
    2389:	8b 75 0c             	mov    0xc(%ebp),%esi
    238c:	c7 04 24 1c 2c 02 00 	movl   $0x22c1c,(%esp)
    2393:	e8 88 7c 00 00       	call   a020 <fibril_mutex_lock>
    2398:	a1 ac 4e 03 00       	mov    0x34eac,%eax
    239d:	85 c0                	test   %eax,%eax
    239f:	75 39                	jne    23da <devman_add_device_to_category+0x5a>
    23a1:	c7 04 24 2c 2c 02 00 	movl   $0x22c2c,(%esp)
    23a8:	8b 1d a8 4e 03 00    	mov    0x34ea8,%ebx
    23ae:	e8 6d 7c 00 00       	call   a020 <fibril_mutex_lock>
    23b3:	8b 15 ac 4e 03 00    	mov    0x34eac,%edx
    23b9:	85 d2                	test   %edx,%edx
    23bb:	0f 84 df 00 00 00    	je     24a0 <devman_add_device_to_category+0x120>
    23c1:	c7 04 24 2c 2c 02 00 	movl   $0x22c2c,(%esp)
    23c8:	e8 73 7d 00 00       	call   a140 <fibril_mutex_unlock>
    23cd:	a1 ac 4e 03 00       	mov    0x34eac,%eax
    23d2:	85 c0                	test   %eax,%eax
    23d4:	0f 84 de 00 00 00    	je     24b8 <devman_add_device_to_category+0x138>
    23da:	c7 04 24 1c 2c 02 00 	movl   $0x22c1c,(%esp)
    23e1:	e8 5a 7d 00 00       	call   a140 <fibril_mutex_unlock>
    23e6:	c7 04 24 2c 2c 02 00 	movl   $0x22c2c,(%esp)
    23ed:	8b 1d ac 4e 03 00    	mov    0x34eac,%ebx
    23f3:	e8 28 7c 00 00       	call   a020 <fibril_mutex_lock>
    23f8:	a1 a8 4e 03 00       	mov    0x34ea8,%eax
    23fd:	85 c0                	test   %eax,%eax
    23ff:	0f 84 fb 00 00 00    	je     2500 <devman_add_device_to_category+0x180>
    2405:	c7 04 24 2c 2c 02 00 	movl   $0x22c2c,(%esp)
    240c:	e8 2f 7d 00 00       	call   a140 <fibril_mutex_unlock>
    2411:	a1 ac 4e 03 00       	mov    0x34eac,%eax
    2416:	89 04 24             	mov    %eax,(%esp)
    2419:	e8 52 3f 01 00       	call   16370 <async_exchange_begin>
    241e:	c7 44 24 14 00 00 00 	movl   $0x0,0x14(%esp)
    2425:	00 
    2426:	89 c3                	mov    %eax,%ebx
    2428:	8d 45 c4             	lea    -0x3c(%ebp),%eax
    242b:	89 44 24 18          	mov    %eax,0x18(%esp)
    242f:	8b 45 08             	mov    0x8(%ebp),%eax
    2432:	c7 44 24 10 00 00 00 	movl   $0x0,0x10(%esp)
    2439:	00 
    243a:	c7 44 24 0c 00 00 00 	movl   $0x0,0xc(%esp)
    2441:	00 
    2442:	89 44 24 08          	mov    %eax,0x8(%esp)
    2446:	c7 44 24 04 03 04 00 	movl   $0x403,0x4(%esp)
    244d:	00 
    244e:	89 1c 24             	mov    %ebx,(%esp)
    2451:	e8 ba 28 01 00       	call   14d10 <async_send_fast>
    2456:	89 34 24             	mov    %esi,(%esp)
    2459:	89 c7                	mov    %eax,%edi
    245b:	e8 a0 49 00 00       	call   6e00 <str_size>
    2460:	89 74 24 04          	mov    %esi,0x4(%esp)
    2464:	89 44 24 08          	mov    %eax,0x8(%esp)
    2468:	89 1c 24             	mov    %ebx,(%esp)
    246b:	e8 f0 4d 01 00       	call   17260 <async_data_write_start>
    2470:	89 1c 24             	mov    %ebx,(%esp)
    2473:	89 45 c0             	mov    %eax,-0x40(%ebp)
    2476:	e8 65 42 01 00       	call   166e0 <async_exchange_end>
    247b:	8b 45 c0             	mov    -0x40(%ebp),%eax
    247e:	85 c0                	test   %eax,%eax
    2480:	75 66                	jne    24e8 <devman_add_device_to_category+0x168>
    2482:	8d 45 c0             	lea    -0x40(%ebp),%eax
    2485:	89 3c 24             	mov    %edi,(%esp)
    2488:	89 44 24 04          	mov    %eax,0x4(%esp)
    248c:	e8 4f 2a 01 00       	call   14ee0 <async_wait_for>
    2491:	8b 45 c0             	mov    -0x40(%ebp),%eax
    2494:	83 c4 5c             	add    $0x5c,%esp
    2497:	5b                   	pop    %ebx
    2498:	5e                   	pop    %esi
    2499:	5f                   	pop    %edi
    249a:	5d                   	pop    %ebp
    249b:	c3                   	ret    
    249c:	8d 74 26 00          	lea    0x0(%esi,%eiz,1),%esi
    24a0:	85 db                	test   %ebx,%ebx
    24a2:	0f 84 19 ff ff ff    	je     23c1 <devman_add_device_to_category+0x41>
    24a8:	89 1d ac 4e 03 00    	mov    %ebx,0x34eac
    24ae:	e9 0e ff ff ff       	jmp    23c1 <devman_add_device_to_category+0x41>
    24b3:	90                   	nop
    24b4:	8d 74 26 00          	lea    0x0(%esi,%eiz,1),%esi
    24b8:	c7 44 24 0c 00 00 00 	movl   $0x0,0xc(%esp)
    24bf:	00 
    24c0:	c7 44 24 08 01 00 00 	movl   $0x1,0x8(%esp)
    24c7:	00 
    24c8:	c7 44 24 04 64 65 76 	movl   $0x6e766564,0x4(%esp)
    24cf:	6e 
    24d0:	c7 04 24 01 00 00 00 	movl   $0x1,(%esp)
    24d7:	e8 e4 11 01 00       	call   136c0 <service_connect_blocking>
    24dc:	a3 ac 4e 03 00       	mov    %eax,0x34eac
    24e1:	e9 b7 fe ff ff       	jmp    239d <devman_add_device_to_category+0x1d>
    24e6:	66 90                	xchg   %ax,%ax
    24e8:	89 3c 24             	mov    %edi,(%esp)
    24eb:	e8 40 2c 01 00       	call   15130 <async_forget>
    24f0:	8b 45 c0             	mov    -0x40(%ebp),%eax
    24f3:	83 c4 5c             	add    $0x5c,%esp
    24f6:	5b                   	pop    %ebx
    24f7:	5e                   	pop    %esi
    24f8:	5f                   	pop    %edi
    24f9:	5d                   	pop    %ebp
    24fa:	c3                   	ret    
    24fb:	90                   	nop
    24fc:	8d 74 26 00          	lea    0x0(%esi,%eiz,1),%esi
    2500:	85 db                	test   %ebx,%ebx
    2502:	0f 84 fd fe ff ff    	je     2405 <devman_add_device_to_category+0x85>
    2508:	89 1d a8 4e 03 00    	mov    %ebx,0x34ea8
    250e:	e9 f2 fe ff ff       	jmp    2405 <devman_add_device_to_category+0x85>
    2513:	8d b6 00 00 00 00    	lea    0x0(%esi),%esi
    2519:	8d bc 27 00 00 00 00 	lea    0x0(%edi,%eiz,1),%edi

00002520 <devman_device_connect>:
    2520:	55                   	push   %ebp
    2521:	89 e5                	mov    %esp,%ebp
    2523:	83 ec 18             	sub    $0x18,%esp
    2526:	8b 45 08             	mov    0x8(%ebp),%eax
    2529:	8b 55 0c             	mov    0xc(%ebp),%edx
    252c:	f6 45 10 01          	testb  $0x1,0x10(%ebp)
    2530:	89 54 24 0c          	mov    %edx,0xc(%esp)
    2534:	c7 44 24 08 03 00 00 	movl   $0x3,0x8(%esp)
    253b:	00 
    253c:	c7 44 24 04 64 65 76 	movl   $0x6e766564,0x4(%esp)
    2543:	6e 
    2544:	89 04 24             	mov    %eax,(%esp)
    2547:	75 07                	jne    2550 <devman_device_connect+0x30>
    2549:	e8 f2 10 01 00       	call   13640 <service_connect>
    254e:	c9                   	leave  
    254f:	c3                   	ret    
    2550:	e8 6b 11 01 00       	call   136c0 <service_connect_blocking>
    2555:	c9                   	leave  
    2556:	c3                   	ret    
    2557:	89 f6                	mov    %esi,%esi
    2559:	8d bc 27 00 00 00 00 	lea    0x0(%edi,%eiz,1),%edi

00002560 <devman_remove_function>:
    2560:	55                   	push   %ebp
    2561:	89 e5                	mov    %esp,%ebp
    2563:	53                   	push   %ebx
    2564:	83 ec 44             	sub    $0x44,%esp
    2567:	c7 04 24 1c 2c 02 00 	movl   $0x22c1c,(%esp)
    256e:	e8 ad 7a 00 00       	call   a020 <fibril_mutex_lock>
    2573:	a1 ac 4e 03 00       	mov    0x34eac,%eax
    2578:	85 c0                	test   %eax,%eax
    257a:	75 39                	jne    25b5 <devman_remove_function+0x55>
    257c:	c7 04 24 2c 2c 02 00 	movl   $0x22c2c,(%esp)
    2583:	8b 1d a8 4e 03 00    	mov    0x34ea8,%ebx
    2589:	e8 92 7a 00 00       	call   a020 <fibril_mutex_lock>
    258e:	a1 ac 4e 03 00       	mov    0x34eac,%eax
    2593:	85 c0                	test   %eax,%eax
    2595:	0f 84 cd 00 00 00    	je     2668 <devman_remove_function+0x108>
    259b:	c7 04 24 2c 2c 02 00 	movl   $0x22c2c,(%esp)
    25a2:	e8 99 7b 00 00       	call   a140 <fibril_mutex_unlock>
    25a7:	8b 1d ac 4e 03 00    	mov    0x34eac,%ebx
    25ad:	85 db                	test   %ebx,%ebx
    25af:	0f 84 cb 00 00 00    	je     2680 <devman_remove_function+0x120>
    25b5:	c7 04 24 1c 2c 02 00 	movl   $0x22c1c,(%esp)
    25bc:	e8 7f 7b 00 00       	call   a140 <fibril_mutex_unlock>
    25c1:	c7 04 24 2c 2c 02 00 	movl   $0x22c2c,(%esp)
    25c8:	8b 1d ac 4e 03 00    	mov    0x34eac,%ebx
    25ce:	e8 4d 7a 00 00       	call   a020 <fibril_mutex_lock>
    25d3:	8b 0d a8 4e 03 00    	mov    0x34ea8,%ecx
    25d9:	85 c9                	test   %ecx,%ecx
    25db:	0f 84 cf 00 00 00    	je     26b0 <devman_remove_function+0x150>
    25e1:	c7 04 24 2c 2c 02 00 	movl   $0x22c2c,(%esp)
    25e8:	e8 53 7b 00 00       	call   a140 <fibril_mutex_unlock>
    25ed:	a1 ac 4e 03 00       	mov    0x34eac,%eax
    25f2:	89 04 24             	mov    %eax,(%esp)
    25f5:	e8 76 3d 01 00       	call   16370 <async_exchange_begin>
    25fa:	c7 44 24 28 00 00 00 	movl   $0x0,0x28(%esp)
    2601:	00 
    2602:	89 c3                	mov    %eax,%ebx
    2604:	8b 45 08             	mov    0x8(%ebp),%eax
    2607:	89 1c 24             	mov    %ebx,(%esp)
    260a:	c7 44 24 24 00 00 00 	movl   $0x0,0x24(%esp)
    2611:	00 
    2612:	c7 44 24 20 00 00 00 	movl   $0x0,0x20(%esp)
    2619:	00 
    261a:	c7 44 24 1c 00 00 00 	movl   $0x0,0x1c(%esp)
    2621:	00 
    2622:	c7 44 24 18 00 00 00 	movl   $0x0,0x18(%esp)
    2629:	00 
    262a:	c7 44 24 14 00 00 00 	movl   $0x0,0x14(%esp)
    2631:	00 
    2632:	c7 44 24 10 00 00 00 	movl   $0x0,0x10(%esp)
    2639:	00 
    263a:	c7 44 24 0c 00 00 00 	movl   $0x0,0xc(%esp)
    2641:	00 
    2642:	89 44 24 08          	mov    %eax,0x8(%esp)
    2646:	c7 44 24 04 06 04 00 	movl   $0x406,0x4(%esp)
    264d:	00 
    264e:	e8 cd 2c 01 00       	call   15320 <async_req_fast>
    2653:	89 1c 24             	mov    %ebx,(%esp)
    2656:	89 45 f4             	mov    %eax,-0xc(%ebp)
    2659:	e8 82 40 01 00       	call   166e0 <async_exchange_end>
    265e:	8b 45 f4             	mov    -0xc(%ebp),%eax
    2661:	83 c4 44             	add    $0x44,%esp
    2664:	5b                   	pop    %ebx
    2665:	5d                   	pop    %ebp
    2666:	c3                   	ret    
    2667:	90                   	nop
    2668:	85 db                	test   %ebx,%ebx
    266a:	0f 84 2b ff ff ff    	je     259b <devman_remove_function+0x3b>
    2670:	89 1d ac 4e 03 00    	mov    %ebx,0x34eac
    2676:	e9 20 ff ff ff       	jmp    259b <devman_remove_function+0x3b>
    267b:	90                   	nop
    267c:	8d 74 26 00          	lea    0x0(%esi,%eiz,1),%esi
    2680:	c7 44 24 0c 00 00 00 	movl   $0x0,0xc(%esp)
    2687:	00 
    2688:	c7 44 24 08 01 00 00 	movl   $0x1,0x8(%esp)
    268f:	00 
    2690:	c7 44 24 04 64 65 76 	movl   $0x6e766564,0x4(%esp)
    2697:	6e 
    2698:	c7 04 24 01 00 00 00 	movl   $0x1,(%esp)
    269f:	e8 1c 10 01 00       	call   136c0 <service_connect_blocking>
    26a4:	a3 ac 4e 03 00       	mov    %eax,0x34eac
    26a9:	e9 ca fe ff ff       	jmp    2578 <devman_remove_function+0x18>
    26ae:	66 90                	xchg   %ax,%ax
    26b0:	85 db                	test   %ebx,%ebx
    26b2:	0f 84 29 ff ff ff    	je     25e1 <devman_remove_function+0x81>
    26b8:	89 1d a8 4e 03 00    	mov    %ebx,0x34ea8
    26be:	e9 1e ff ff ff       	jmp    25e1 <devman_remove_function+0x81>
    26c3:	8d b6 00 00 00 00    	lea    0x0(%esi),%esi
    26c9:	8d bc 27 00 00 00 00 	lea    0x0(%edi,%eiz,1),%edi

000026d0 <devman_drv_fun_online>:
    26d0:	55                   	push   %ebp
    26d1:	89 e5                	mov    %esp,%ebp
    26d3:	56                   	push   %esi
    26d4:	53                   	push   %ebx
    26d5:	83 ec 30             	sub    $0x30,%esp
    26d8:	c7 04 24 2c 2c 02 00 	movl   $0x22c2c,(%esp)
    26df:	e8 3c 79 00 00       	call   a020 <fibril_mutex_lock>
    26e4:	a1 a8 4e 03 00       	mov    0x34ea8,%eax
    26e9:	85 c0                	test   %eax,%eax
    26eb:	0f 84 97 00 00 00    	je     2788 <devman_drv_fun_online+0xb8>
    26f1:	c7 04 24 2c 2c 02 00 	movl   $0x22c2c,(%esp)
    26f8:	e8 43 7a 00 00       	call   a140 <fibril_mutex_unlock>
    26fd:	a1 a8 4e 03 00       	mov    0x34ea8,%eax
    2702:	85 c0                	test   %eax,%eax
    2704:	0f 84 ae 00 00 00    	je     27b8 <devman_drv_fun_online+0xe8>
    270a:	89 04 24             	mov    %eax,(%esp)
    270d:	e8 5e 3c 01 00       	call   16370 <async_exchange_begin>
    2712:	89 c3                	mov    %eax,%ebx
    2714:	85 c0                	test   %eax,%eax
    2716:	0f 84 9c 00 00 00    	je     27b8 <devman_drv_fun_online+0xe8>
    271c:	8b 45 08             	mov    0x8(%ebp),%eax
    271f:	c7 44 24 28 00 00 00 	movl   $0x0,0x28(%esp)
    2726:	00 
    2727:	c7 44 24 24 00 00 00 	movl   $0x0,0x24(%esp)
    272e:	00 
    272f:	c7 44 24 20 00 00 00 	movl   $0x0,0x20(%esp)
    2736:	00 
    2737:	c7 44 24 1c 00 00 00 	movl   $0x0,0x1c(%esp)
    273e:	00 
    273f:	c7 44 24 18 00 00 00 	movl   $0x0,0x18(%esp)
    2746:	00 
    2747:	c7 44 24 14 00 00 00 	movl   $0x0,0x14(%esp)
    274e:	00 
    274f:	c7 44 24 10 00 00 00 	movl   $0x0,0x10(%esp)
    2756:	00 
    2757:	c7 44 24 0c 00 00 00 	movl   $0x0,0xc(%esp)
    275e:	00 
    275f:	89 44 24 08          	mov    %eax,0x8(%esp)
    2763:	c7 44 24 04 04 04 00 	movl   $0x404,0x4(%esp)
    276a:	00 
    276b:	89 1c 24             	mov    %ebx,(%esp)
    276e:	e8 ad 2b 01 00       	call   15320 <async_req_fast>
    2773:	89 1c 24             	mov    %ebx,(%esp)
    2776:	89 c6                	mov    %eax,%esi
    2778:	e8 63 3f 01 00       	call   166e0 <async_exchange_end>
    277d:	89 f0                	mov    %esi,%eax
    277f:	83 c4 30             	add    $0x30,%esp
    2782:	5b                   	pop    %ebx
    2783:	5e                   	pop    %esi
    2784:	5d                   	pop    %ebp
    2785:	c3                   	ret    
    2786:	66 90                	xchg   %ax,%ax
    2788:	c7 44 24 0c 00 00 00 	movl   $0x0,0xc(%esp)
    278f:	00 
    2790:	c7 44 24 08 01 00 00 	movl   $0x1,0x8(%esp)
    2797:	00 
    2798:	c7 44 24 04 64 65 76 	movl   $0x6e766564,0x4(%esp)
    279f:	6e 
    27a0:	c7 04 24 01 00 00 00 	movl   $0x1,(%esp)
    27a7:	e8 94 0e 01 00       	call   13640 <service_connect>
    27ac:	a3 a8 4e 03 00       	mov    %eax,0x34ea8
    27b1:	e9 3b ff ff ff       	jmp    26f1 <devman_drv_fun_online+0x21>
    27b6:	66 90                	xchg   %ax,%ax
    27b8:	b8 fe ff ff ff       	mov    $0xfffffffe,%eax
    27bd:	eb c0                	jmp    277f <devman_drv_fun_online+0xaf>
    27bf:	90                   	nop

000027c0 <devman_drv_fun_offline>:
    27c0:	55                   	push   %ebp
    27c1:	89 e5                	mov    %esp,%ebp
    27c3:	56                   	push   %esi
    27c4:	53                   	push   %ebx
    27c5:	83 ec 30             	sub    $0x30,%esp
    27c8:	c7 04 24 2c 2c 02 00 	movl   $0x22c2c,(%esp)
    27cf:	e8 4c 78 00 00       	call   a020 <fibril_mutex_lock>
    27d4:	a1 a8 4e 03 00       	mov    0x34ea8,%eax
    27d9:	85 c0                	test   %eax,%eax
    27db:	0f 84 97 00 00 00    	je     2878 <devman_drv_fun_offline+0xb8>
    27e1:	c7 04 24 2c 2c 02 00 	movl   $0x22c2c,(%esp)
    27e8:	e8 53 79 00 00       	call   a140 <fibril_mutex_unlock>
    27ed:	a1 a8 4e 03 00       	mov    0x34ea8,%eax
    27f2:	85 c0                	test   %eax,%eax
    27f4:	0f 84 ae 00 00 00    	je     28a8 <devman_drv_fun_offline+0xe8>
    27fa:	89 04 24             	mov    %eax,(%esp)
    27fd:	e8 6e 3b 01 00       	call   16370 <async_exchange_begin>
    2802:	89 c3                	mov    %eax,%ebx
    2804:	85 c0                	test   %eax,%eax
    2806:	0f 84 9c 00 00 00    	je     28a8 <devman_drv_fun_offline+0xe8>
    280c:	8b 45 08             	mov    0x8(%ebp),%eax
    280f:	c7 44 24 28 00 00 00 	movl   $0x0,0x28(%esp)
    2816:	00 
    2817:	c7 44 24 24 00 00 00 	movl   $0x0,0x24(%esp)
    281e:	00 
    281f:	c7 44 24 20 00 00 00 	movl   $0x0,0x20(%esp)
    2826:	00 
    2827:	c7 44 24 1c 00 00 00 	movl   $0x0,0x1c(%esp)
    282e:	00 
    282f:	c7 44 24 18 00 00 00 	movl   $0x0,0x18(%esp)
    2836:	00 
    2837:	c7 44 24 14 00 00 00 	movl   $0x0,0x14(%esp)
    283e:	00 
    283f:	c7 44 24 10 00 00 00 	movl   $0x0,0x10(%esp)
    2846:	00 
    2847:	c7 44 24 0c 00 00 00 	movl   $0x0,0xc(%esp)
    284e:	00 
    284f:	89 44 24 08          	mov    %eax,0x8(%esp)
    2853:	c7 44 24 04 05 04 00 	movl   $0x405,0x4(%esp)
    285a:	00 
    285b:	89 1c 24             	mov    %ebx,(%esp)
    285e:	e8 bd 2a 01 00       	call   15320 <async_req_fast>
    2863:	89 1c 24             	mov    %ebx,(%esp)
    2866:	89 c6                	mov    %eax,%esi
    2868:	e8 73 3e 01 00       	call   166e0 <async_exchange_end>
    286d:	89 f0                	mov    %esi,%eax
    286f:	83 c4 30             	add    $0x30,%esp
    2872:	5b                   	pop    %ebx
    2873:	5e                   	pop    %esi
    2874:	5d                   	pop    %ebp
    2875:	c3                   	ret    
    2876:	66 90                	xchg   %ax,%ax
    2878:	c7 44 24 0c 00 00 00 	movl   $0x0,0xc(%esp)
    287f:	00 
    2880:	c7 44 24 08 01 00 00 	movl   $0x1,0x8(%esp)
    2887:	00 
    2888:	c7 44 24 04 64 65 76 	movl   $0x6e766564,0x4(%esp)
    288f:	6e 
    2890:	c7 04 24 01 00 00 00 	movl   $0x1,(%esp)
    2897:	e8 a4 0d 01 00       	call   13640 <service_connect>
    289c:	a3 a8 4e 03 00       	mov    %eax,0x34ea8
    28a1:	e9 3b ff ff ff       	jmp    27e1 <devman_drv_fun_offline+0x21>
    28a6:	66 90                	xchg   %ax,%ax
    28a8:	b8 fe ff ff ff       	mov    $0xfffffffe,%eax
    28ad:	eb c0                	jmp    286f <devman_drv_fun_offline+0xaf>
    28af:	90                   	nop

000028b0 <devman_parent_device_connect>:
    28b0:	55                   	push   %ebp
    28b1:	89 e5                	mov    %esp,%ebp
    28b3:	83 ec 18             	sub    $0x18,%esp
    28b6:	8b 45 08             	mov    0x8(%ebp),%eax
    28b9:	8b 55 0c             	mov    0xc(%ebp),%edx
    28bc:	f6 45 10 01          	testb  $0x1,0x10(%ebp)
    28c0:	89 54 24 0c          	mov    %edx,0xc(%esp)
    28c4:	c7 44 24 08 05 00 00 	movl   $0x5,0x8(%esp)
    28cb:	00 
    28cc:	c7 44 24 04 64 65 76 	movl   $0x6e766564,0x4(%esp)
    28d3:	6e 
    28d4:	89 04 24             	mov    %eax,(%esp)
    28d7:	75 07                	jne    28e0 <devman_parent_device_connect+0x30>
    28d9:	e8 62 0d 01 00       	call   13640 <service_connect>
    28de:	c9                   	leave  
    28df:	c3                   	ret    
    28e0:	e8 db 0d 01 00       	call   136c0 <service_connect_blocking>
    28e5:	c9                   	leave  
    28e6:	c3                   	ret    
    28e7:	89 f6                	mov    %esi,%esi
    28e9:	8d bc 27 00 00 00 00 	lea    0x0(%edi,%eiz,1),%edi

000028f0 <devman_fun_get_handle>:
    28f0:	55                   	push   %ebp
    28f1:	89 e5                	mov    %esp,%ebp
    28f3:	57                   	push   %edi
    28f4:	56                   	push   %esi
    28f5:	53                   	push   %ebx
    28f6:	83 ec 5c             	sub    $0x5c,%esp
    28f9:	8b 75 10             	mov    0x10(%ebp),%esi
    28fc:	8b 7d 08             	mov    0x8(%ebp),%edi
    28ff:	f7 c6 01 00 00 00    	test   $0x1,%esi
    2905:	0f 84 3d 01 00 00    	je     2a48 <devman_fun_get_handle+0x158>
    290b:	c7 04 24 3c 2c 02 00 	movl   $0x22c3c,(%esp)
    2912:	e8 09 77 00 00       	call   a020 <fibril_mutex_lock>
    2917:	a1 b4 4e 03 00       	mov    0x34eb4,%eax
    291c:	85 c0                	test   %eax,%eax
    291e:	75 38                	jne    2958 <devman_fun_get_handle+0x68>
    2920:	c7 04 24 4c 2c 02 00 	movl   $0x22c4c,(%esp)
    2927:	8b 1d b0 4e 03 00    	mov    0x34eb0,%ebx
    292d:	e8 ee 76 00 00       	call   a020 <fibril_mutex_lock>
    2932:	a1 b4 4e 03 00       	mov    0x34eb4,%eax
    2937:	85 c0                	test   %eax,%eax
    2939:	0f 84 f1 00 00 00    	je     2a30 <devman_fun_get_handle+0x140>
    293f:	c7 04 24 4c 2c 02 00 	movl   $0x22c4c,(%esp)
    2946:	e8 f5 77 00 00       	call   a140 <fibril_mutex_unlock>
    294b:	a1 b4 4e 03 00       	mov    0x34eb4,%eax
    2950:	85 c0                	test   %eax,%eax
    2952:	0f 84 58 01 00 00    	je     2ab0 <devman_fun_get_handle+0x1c0>
    2958:	c7 04 24 3c 2c 02 00 	movl   $0x22c3c,(%esp)
    295f:	e8 dc 77 00 00       	call   a140 <fibril_mutex_unlock>
    2964:	c7 04 24 4c 2c 02 00 	movl   $0x22c4c,(%esp)
    296b:	8b 1d b4 4e 03 00    	mov    0x34eb4,%ebx
    2971:	e8 aa 76 00 00       	call   a020 <fibril_mutex_lock>
    2976:	a1 b0 4e 03 00       	mov    0x34eb0,%eax
    297b:	85 c0                	test   %eax,%eax
    297d:	0f 84 75 01 00 00    	je     2af8 <devman_fun_get_handle+0x208>
    2983:	c7 04 24 4c 2c 02 00 	movl   $0x22c4c,(%esp)
    298a:	e8 b1 77 00 00       	call   a140 <fibril_mutex_unlock>
    298f:	a1 b4 4e 03 00       	mov    0x34eb4,%eax
    2994:	89 04 24             	mov    %eax,(%esp)
    2997:	e8 d4 39 01 00       	call   16370 <async_exchange_begin>
    299c:	89 c3                	mov    %eax,%ebx
    299e:	8d 45 c4             	lea    -0x3c(%ebp),%eax
    29a1:	89 74 24 08          	mov    %esi,0x8(%esp)
    29a5:	89 44 24 18          	mov    %eax,0x18(%esp)
    29a9:	c7 44 24 14 00 00 00 	movl   $0x0,0x14(%esp)
    29b0:	00 
    29b1:	c7 44 24 10 00 00 00 	movl   $0x0,0x10(%esp)
    29b8:	00 
    29b9:	c7 44 24 0c 00 00 00 	movl   $0x0,0xc(%esp)
    29c0:	00 
    29c1:	c7 44 24 04 00 04 00 	movl   $0x400,0x4(%esp)
    29c8:	00 
    29c9:	89 1c 24             	mov    %ebx,(%esp)
    29cc:	e8 3f 23 01 00       	call   14d10 <async_send_fast>
    29d1:	89 3c 24             	mov    %edi,(%esp)
    29d4:	89 c6                	mov    %eax,%esi
    29d6:	e8 25 44 00 00       	call   6e00 <str_size>
    29db:	89 7c 24 04          	mov    %edi,0x4(%esp)
    29df:	89 44 24 08          	mov    %eax,0x8(%esp)
    29e3:	89 1c 24             	mov    %ebx,(%esp)
    29e6:	e8 75 48 01 00       	call   17260 <async_data_write_start>
    29eb:	89 1c 24             	mov    %ebx,(%esp)
    29ee:	89 45 c0             	mov    %eax,-0x40(%ebp)
    29f1:	e8 ea 3c 01 00       	call   166e0 <async_exchange_end>
    29f6:	8b 4d c0             	mov    -0x40(%ebp),%ecx
    29f9:	85 c9                	test   %ecx,%ecx
    29fb:	0f 85 df 00 00 00    	jne    2ae0 <devman_fun_get_handle+0x1f0>
    2a01:	8d 45 c0             	lea    -0x40(%ebp),%eax
    2a04:	89 34 24             	mov    %esi,(%esp)
    2a07:	89 44 24 04          	mov    %eax,0x4(%esp)
    2a0b:	e8 d0 24 01 00       	call   14ee0 <async_wait_for>
    2a10:	8b 45 c0             	mov    -0x40(%ebp),%eax
    2a13:	85 c0                	test   %eax,%eax
    2a15:	74 79                	je     2a90 <devman_fun_get_handle+0x1a0>
    2a17:	8b 55 0c             	mov    0xc(%ebp),%edx
    2a1a:	85 d2                	test   %edx,%edx
    2a1c:	74 09                	je     2a27 <devman_fun_get_handle+0x137>
    2a1e:	8b 55 0c             	mov    0xc(%ebp),%edx
    2a21:	c7 02 ff ff ff ff    	movl   $0xffffffff,(%edx)
    2a27:	83 c4 5c             	add    $0x5c,%esp
    2a2a:	5b                   	pop    %ebx
    2a2b:	5e                   	pop    %esi
    2a2c:	5f                   	pop    %edi
    2a2d:	5d                   	pop    %ebp
    2a2e:	c3                   	ret    
    2a2f:	90                   	nop
    2a30:	85 db                	test   %ebx,%ebx
    2a32:	0f 84 07 ff ff ff    	je     293f <devman_fun_get_handle+0x4f>
    2a38:	89 1d b4 4e 03 00    	mov    %ebx,0x34eb4
    2a3e:	e9 fc fe ff ff       	jmp    293f <devman_fun_get_handle+0x4f>
    2a43:	90                   	nop
    2a44:	8d 74 26 00          	lea    0x0(%esi,%eiz,1),%esi
    2a48:	c7 04 24 4c 2c 02 00 	movl   $0x22c4c,(%esp)
    2a4f:	e8 cc 75 00 00       	call   a020 <fibril_mutex_lock>
    2a54:	8b 1d b0 4e 03 00    	mov    0x34eb0,%ebx
    2a5a:	85 db                	test   %ebx,%ebx
    2a5c:	0f 84 a9 00 00 00    	je     2b0b <devman_fun_get_handle+0x21b>
    2a62:	c7 04 24 4c 2c 02 00 	movl   $0x22c4c,(%esp)
    2a69:	e8 d2 76 00 00       	call   a140 <fibril_mutex_unlock>
    2a6e:	a1 b0 4e 03 00       	mov    0x34eb0,%eax
    2a73:	85 c0                	test   %eax,%eax
    2a75:	74 12                	je     2a89 <devman_fun_get_handle+0x199>
    2a77:	89 04 24             	mov    %eax,(%esp)
    2a7a:	e8 f1 38 01 00       	call   16370 <async_exchange_begin>
    2a7f:	89 c3                	mov    %eax,%ebx
    2a81:	85 c0                	test   %eax,%eax
    2a83:	0f 85 15 ff ff ff    	jne    299e <devman_fun_get_handle+0xae>
    2a89:	b8 fe ff ff ff       	mov    $0xfffffffe,%eax
    2a8e:	eb 97                	jmp    2a27 <devman_fun_get_handle+0x137>
    2a90:	8b 45 0c             	mov    0xc(%ebp),%eax
    2a93:	85 c0                	test   %eax,%eax
    2a95:	74 08                	je     2a9f <devman_fun_get_handle+0x1af>
    2a97:	8b 55 0c             	mov    0xc(%ebp),%edx
    2a9a:	8b 45 c8             	mov    -0x38(%ebp),%eax
    2a9d:	89 02                	mov    %eax,(%edx)
    2a9f:	83 c4 5c             	add    $0x5c,%esp
    2aa2:	31 c0                	xor    %eax,%eax
    2aa4:	5b                   	pop    %ebx
    2aa5:	5e                   	pop    %esi
    2aa6:	5f                   	pop    %edi
    2aa7:	5d                   	pop    %ebp
    2aa8:	c3                   	ret    
    2aa9:	8d b4 26 00 00 00 00 	lea    0x0(%esi,%eiz,1),%esi
    2ab0:	c7 44 24 0c 00 00 00 	movl   $0x0,0xc(%esp)
    2ab7:	00 
    2ab8:	c7 44 24 08 02 00 00 	movl   $0x2,0x8(%esp)
    2abf:	00 
    2ac0:	c7 44 24 04 64 65 76 	movl   $0x6e766564,0x4(%esp)
    2ac7:	6e 
    2ac8:	c7 04 24 02 00 00 00 	movl   $0x2,(%esp)
    2acf:	e8 ec 0b 01 00       	call   136c0 <service_connect_blocking>
    2ad4:	a3 b4 4e 03 00       	mov    %eax,0x34eb4
    2ad9:	e9 3e fe ff ff       	jmp    291c <devman_fun_get_handle+0x2c>
    2ade:	66 90                	xchg   %ax,%ax
    2ae0:	89 34 24             	mov    %esi,(%esp)
    2ae3:	e8 48 26 01 00       	call   15130 <async_forget>
    2ae8:	8b 45 c0             	mov    -0x40(%ebp),%eax
    2aeb:	83 c4 5c             	add    $0x5c,%esp
    2aee:	5b                   	pop    %ebx
    2aef:	5e                   	pop    %esi
    2af0:	5f                   	pop    %edi
    2af1:	5d                   	pop    %ebp
    2af2:	c3                   	ret    
    2af3:	90                   	nop
    2af4:	8d 74 26 00          	lea    0x0(%esi,%eiz,1),%esi
    2af8:	85 db                	test   %ebx,%ebx
    2afa:	0f 84 83 fe ff ff    	je     2983 <devman_fun_get_handle+0x93>
    2b00:	89 1d b0 4e 03 00    	mov    %ebx,0x34eb0
    2b06:	e9 78 fe ff ff       	jmp    2983 <devman_fun_get_handle+0x93>
    2b0b:	c7 44 24 0c 00 00 00 	movl   $0x0,0xc(%esp)
    2b12:	00 
    2b13:	c7 44 24 08 02 00 00 	movl   $0x2,0x8(%esp)
    2b1a:	00 
    2b1b:	c7 44 24 04 64 65 76 	movl   $0x6e766564,0x4(%esp)
    2b22:	6e 
    2b23:	c7 04 24 02 00 00 00 	movl   $0x2,(%esp)
    2b2a:	e8 11 0b 01 00       	call   13640 <service_connect>
    2b2f:	a3 b0 4e 03 00       	mov    %eax,0x34eb0
    2b34:	e9 29 ff ff ff       	jmp    2a62 <devman_fun_get_handle+0x172>
    2b39:	8d b4 26 00 00 00 00 	lea    0x0(%esi,%eiz,1),%esi

00002b40 <devman_fun_get_path>:
    2b40:	55                   	push   %ebp
    2b41:	89 e5                	mov    %esp,%ebp
    2b43:	57                   	push   %edi
    2b44:	56                   	push   %esi
    2b45:	53                   	push   %ebx
    2b46:	83 ec 7c             	sub    $0x7c,%esp
    2b49:	c7 04 24 3c 2c 02 00 	movl   $0x22c3c,(%esp)
    2b50:	e8 cb 74 00 00       	call   a020 <fibril_mutex_lock>
    2b55:	a1 b4 4e 03 00       	mov    0x34eb4,%eax
    2b5a:	85 c0                	test   %eax,%eax
    2b5c:	75 39                	jne    2b97 <devman_fun_get_path+0x57>
    2b5e:	c7 04 24 4c 2c 02 00 	movl   $0x22c4c,(%esp)
    2b65:	8b 1d b0 4e 03 00    	mov    0x34eb0,%ebx
    2b6b:	e8 b0 74 00 00       	call   a020 <fibril_mutex_lock>
    2b70:	8b 15 b4 4e 03 00    	mov    0x34eb4,%edx
    2b76:	85 d2                	test   %edx,%edx
    2b78:	0f 84 0a 01 00 00    	je     2c88 <devman_fun_get_path+0x148>
    2b7e:	c7 04 24 4c 2c 02 00 	movl   $0x22c4c,(%esp)
    2b85:	e8 b6 75 00 00       	call   a140 <fibril_mutex_unlock>
    2b8a:	a1 b4 4e 03 00       	mov    0x34eb4,%eax
    2b8f:	85 c0                	test   %eax,%eax
    2b91:	0f 84 09 01 00 00    	je     2ca0 <devman_fun_get_path+0x160>
    2b97:	c7 04 24 3c 2c 02 00 	movl   $0x22c3c,(%esp)
    2b9e:	e8 9d 75 00 00       	call   a140 <fibril_mutex_unlock>
    2ba3:	c7 04 24 4c 2c 02 00 	movl   $0x22c4c,(%esp)
    2baa:	8b 1d b4 4e 03 00    	mov    0x34eb4,%ebx
    2bb0:	e8 6b 74 00 00       	call   a020 <fibril_mutex_lock>
    2bb5:	a1 b0 4e 03 00       	mov    0x34eb0,%eax
    2bba:	85 c0                	test   %eax,%eax
    2bbc:	0f 84 26 01 00 00    	je     2ce8 <devman_fun_get_path+0x1a8>
    2bc2:	c7 04 24 4c 2c 02 00 	movl   $0x22c4c,(%esp)
    2bc9:	e8 72 75 00 00       	call   a140 <fibril_mutex_unlock>
    2bce:	a1 b4 4e 03 00       	mov    0x34eb4,%eax
    2bd3:	89 04 24             	mov    %eax,(%esp)
    2bd6:	e8 95 37 01 00       	call   16370 <async_exchange_begin>
    2bdb:	c7 44 24 14 00 00 00 	movl   $0x0,0x14(%esp)
    2be2:	00 
    2be3:	89 c6                	mov    %eax,%esi
    2be5:	8d 45 c4             	lea    -0x3c(%ebp),%eax
    2be8:	89 44 24 18          	mov    %eax,0x18(%esp)
    2bec:	8b 45 08             	mov    0x8(%ebp),%eax
    2bef:	c7 44 24 10 00 00 00 	movl   $0x0,0x10(%esp)
    2bf6:	00 
    2bf7:	c7 44 24 0c 00 00 00 	movl   $0x0,0xc(%esp)
    2bfe:	00 
    2bff:	89 44 24 08          	mov    %eax,0x8(%esp)
    2c03:	c7 44 24 04 07 04 00 	movl   $0x407,0x4(%esp)
    2c0a:	00 
    2c0b:	89 34 24             	mov    %esi,(%esp)
    2c0e:	e8 fd 20 01 00       	call   14d10 <async_send_fast>
    2c13:	8b 5d 10             	mov    0x10(%ebp),%ebx
    2c16:	8b 55 0c             	mov    0xc(%ebp),%edx
    2c19:	4b                   	dec    %ebx
    2c1a:	89 c7                	mov    %eax,%edi
    2c1c:	8d 45 a0             	lea    -0x60(%ebp),%eax
    2c1f:	89 54 24 04          	mov    %edx,0x4(%esp)
    2c23:	89 44 24 0c          	mov    %eax,0xc(%esp)
    2c27:	89 5c 24 08          	mov    %ebx,0x8(%esp)
    2c2b:	89 34 24             	mov    %esi,(%esp)
    2c2e:	e8 2d 40 01 00       	call   16c60 <async_data_read>
    2c33:	8d 4d 98             	lea    -0x68(%ebp),%ecx
    2c36:	89 04 24             	mov    %eax,(%esp)
    2c39:	89 4c 24 04          	mov    %ecx,0x4(%esp)
    2c3d:	e8 9e 22 01 00       	call   14ee0 <async_wait_for>
    2c42:	89 34 24             	mov    %esi,(%esp)
    2c45:	e8 96 3a 01 00       	call   166e0 <async_exchange_end>
    2c4a:	8b 45 98             	mov    -0x68(%ebp),%eax
    2c4d:	85 c0                	test   %eax,%eax
    2c4f:	75 7f                	jne    2cd0 <devman_fun_get_path+0x190>
    2c51:	8d 45 9c             	lea    -0x64(%ebp),%eax
    2c54:	89 3c 24             	mov    %edi,(%esp)
    2c57:	89 44 24 04          	mov    %eax,0x4(%esp)
    2c5b:	e8 80 22 01 00       	call   14ee0 <async_wait_for>
    2c60:	8b 45 9c             	mov    -0x64(%ebp),%eax
    2c63:	85 c0                	test   %eax,%eax
    2c65:	75 14                	jne    2c7b <devman_fun_get_path+0x13b>
    2c67:	8b 45 a8             	mov    -0x58(%ebp),%eax
    2c6a:	39 c3                	cmp    %eax,%ebx
    2c6c:	0f 82 89 00 00 00    	jb     2cfb <devman_fun_get_path+0x1bb>
    2c72:	8b 55 0c             	mov    0xc(%ebp),%edx
    2c75:	c6 04 02 00          	movb   $0x0,(%edx,%eax,1)
    2c79:	31 c0                	xor    %eax,%eax
    2c7b:	83 c4 7c             	add    $0x7c,%esp
    2c7e:	5b                   	pop    %ebx
    2c7f:	5e                   	pop    %esi
    2c80:	5f                   	pop    %edi
    2c81:	5d                   	pop    %ebp
    2c82:	c3                   	ret    
    2c83:	90                   	nop
    2c84:	8d 74 26 00          	lea    0x0(%esi,%eiz,1),%esi
    2c88:	85 db                	test   %ebx,%ebx
    2c8a:	0f 84 ee fe ff ff    	je     2b7e <devman_fun_get_path+0x3e>
    2c90:	89 1d b4 4e 03 00    	mov    %ebx,0x34eb4
    2c96:	e9 e3 fe ff ff       	jmp    2b7e <devman_fun_get_path+0x3e>
    2c9b:	90                   	nop
    2c9c:	8d 74 26 00          	lea    0x0(%esi,%eiz,1),%esi
    2ca0:	c7 44 24 0c 00 00 00 	movl   $0x0,0xc(%esp)
    2ca7:	00 
    2ca8:	c7 44 24 08 02 00 00 	movl   $0x2,0x8(%esp)
    2caf:	00 
    2cb0:	c7 44 24 04 64 65 76 	movl   $0x6e766564,0x4(%esp)
    2cb7:	6e 
    2cb8:	c7 04 24 02 00 00 00 	movl   $0x2,(%esp)
    2cbf:	e8 fc 09 01 00       	call   136c0 <service_connect_blocking>
    2cc4:	a3 b4 4e 03 00       	mov    %eax,0x34eb4
    2cc9:	e9 8c fe ff ff       	jmp    2b5a <devman_fun_get_path+0x1a>
    2cce:	66 90                	xchg   %ax,%ax
    2cd0:	89 3c 24             	mov    %edi,(%esp)
    2cd3:	e8 58 24 01 00       	call   15130 <async_forget>
    2cd8:	8b 45 98             	mov    -0x68(%ebp),%eax
    2cdb:	83 c4 7c             	add    $0x7c,%esp
    2cde:	5b                   	pop    %ebx
    2cdf:	5e                   	pop    %esi
    2ce0:	5f                   	pop    %edi
    2ce1:	5d                   	pop    %ebp
    2ce2:	c3                   	ret    
    2ce3:	90                   	nop
    2ce4:	8d 74 26 00          	lea    0x0(%esi,%eiz,1),%esi
    2ce8:	85 db                	test   %ebx,%ebx
    2cea:	0f 84 d2 fe ff ff    	je     2bc2 <devman_fun_get_path+0x82>
    2cf0:	89 1d b0 4e 03 00    	mov    %ebx,0x34eb0
    2cf6:	e9 c7 fe ff ff       	jmp    2bc2 <devman_fun_get_path+0x82>
    2cfb:	c7 44 24 08 b5 01 00 	movl   $0x1b5,0x8(%esp)
    2d02:	00 
    2d03:	c7 44 24 04 9c 02 02 	movl   $0x2029c,0x4(%esp)
    2d0a:	00 
    2d0b:	c7 04 24 ad 02 02 00 	movl   $0x202ad,(%esp)
    2d12:	e8 79 a9 01 00       	call   1d690 <assert_abort>
    2d17:	89 f6                	mov    %esi,%esi
    2d19:	8d bc 27 00 00 00 00 	lea    0x0(%edi,%eiz,1),%edi

00002d20 <devman_fun_get_name>:
    2d20:	55                   	push   %ebp
    2d21:	89 e5                	mov    %esp,%ebp
    2d23:	57                   	push   %edi
    2d24:	56                   	push   %esi
    2d25:	53                   	push   %ebx
    2d26:	83 ec 7c             	sub    $0x7c,%esp
    2d29:	c7 04 24 3c 2c 02 00 	movl   $0x22c3c,(%esp)
    2d30:	e8 eb 72 00 00       	call   a020 <fibril_mutex_lock>
    2d35:	a1 b4 4e 03 00       	mov    0x34eb4,%eax
    2d3a:	85 c0                	test   %eax,%eax
    2d3c:	75 39                	jne    2d77 <devman_fun_get_name+0x57>
    2d3e:	c7 04 24 4c 2c 02 00 	movl   $0x22c4c,(%esp)
    2d45:	8b 1d b0 4e 03 00    	mov    0x34eb0,%ebx
    2d4b:	e8 d0 72 00 00       	call   a020 <fibril_mutex_lock>
    2d50:	a1 b4 4e 03 00       	mov    0x34eb4,%eax
    2d55:	85 c0                	test   %eax,%eax
    2d57:	0f 84 0b 01 00 00    	je     2e68 <devman_fun_get_name+0x148>
    2d5d:	c7 04 24 4c 2c 02 00 	movl   $0x22c4c,(%esp)
    2d64:	e8 d7 73 00 00       	call   a140 <fibril_mutex_unlock>
    2d69:	8b 3d b4 4e 03 00    	mov    0x34eb4,%edi
    2d6f:	85 ff                	test   %edi,%edi
    2d71:	0f 84 09 01 00 00    	je     2e80 <devman_fun_get_name+0x160>
    2d77:	c7 04 24 3c 2c 02 00 	movl   $0x22c3c,(%esp)
    2d7e:	e8 bd 73 00 00       	call   a140 <fibril_mutex_unlock>
    2d83:	c7 04 24 4c 2c 02 00 	movl   $0x22c4c,(%esp)
    2d8a:	8b 1d b4 4e 03 00    	mov    0x34eb4,%ebx
    2d90:	e8 8b 72 00 00       	call   a020 <fibril_mutex_lock>
    2d95:	8b 35 b0 4e 03 00    	mov    0x34eb0,%esi
    2d9b:	85 f6                	test   %esi,%esi
    2d9d:	0f 84 25 01 00 00    	je     2ec8 <devman_fun_get_name+0x1a8>
    2da3:	c7 04 24 4c 2c 02 00 	movl   $0x22c4c,(%esp)
    2daa:	e8 91 73 00 00       	call   a140 <fibril_mutex_unlock>
    2daf:	a1 b4 4e 03 00       	mov    0x34eb4,%eax
    2db4:	89 04 24             	mov    %eax,(%esp)
    2db7:	e8 b4 35 01 00       	call   16370 <async_exchange_begin>
    2dbc:	c7 44 24 14 00 00 00 	movl   $0x0,0x14(%esp)
    2dc3:	00 
    2dc4:	89 c6                	mov    %eax,%esi
    2dc6:	8d 45 c4             	lea    -0x3c(%ebp),%eax
    2dc9:	89 44 24 18          	mov    %eax,0x18(%esp)
    2dcd:	8b 45 08             	mov    0x8(%ebp),%eax
    2dd0:	c7 44 24 10 00 00 00 	movl   $0x0,0x10(%esp)
    2dd7:	00 
    2dd8:	c7 44 24 0c 00 00 00 	movl   $0x0,0xc(%esp)
    2ddf:	00 
    2de0:	89 44 24 08          	mov    %eax,0x8(%esp)
    2de4:	c7 44 24 04 03 04 00 	movl   $0x403,0x4(%esp)
    2deb:	00 
    2dec:	89 34 24             	mov    %esi,(%esp)
    2def:	e8 1c 1f 01 00       	call   14d10 <async_send_fast>
    2df4:	8b 5d 10             	mov    0x10(%ebp),%ebx
    2df7:	8b 55 0c             	mov    0xc(%ebp),%edx
    2dfa:	4b                   	dec    %ebx
    2dfb:	89 c7                	mov    %eax,%edi
    2dfd:	8d 45 a0             	lea    -0x60(%ebp),%eax
    2e00:	89 54 24 04          	mov    %edx,0x4(%esp)
    2e04:	89 44 24 0c          	mov    %eax,0xc(%esp)
    2e08:	89 5c 24 08          	mov    %ebx,0x8(%esp)
    2e0c:	89 34 24             	mov    %esi,(%esp)
    2e0f:	e8 4c 3e 01 00       	call   16c60 <async_data_read>
    2e14:	8d 4d 98             	lea    -0x68(%ebp),%ecx
    2e17:	89 4c 24 04          	mov    %ecx,0x4(%esp)
    2e1b:	89 04 24             	mov    %eax,(%esp)
    2e1e:	e8 bd 20 01 00       	call   14ee0 <async_wait_for>
    2e23:	89 34 24             	mov    %esi,(%esp)
    2e26:	e8 b5 38 01 00       	call   166e0 <async_exchange_end>
    2e2b:	8b 4d 98             	mov    -0x68(%ebp),%ecx
    2e2e:	85 c9                	test   %ecx,%ecx
    2e30:	75 7e                	jne    2eb0 <devman_fun_get_name+0x190>
    2e32:	8d 45 9c             	lea    -0x64(%ebp),%eax
    2e35:	89 3c 24             	mov    %edi,(%esp)
    2e38:	89 44 24 04          	mov    %eax,0x4(%esp)
    2e3c:	e8 9f 20 01 00       	call   14ee0 <async_wait_for>
    2e41:	8b 45 9c             	mov    -0x64(%ebp),%eax
    2e44:	85 c0                	test   %eax,%eax
    2e46:	75 14                	jne    2e5c <devman_fun_get_name+0x13c>
    2e48:	8b 45 a8             	mov    -0x58(%ebp),%eax
    2e4b:	39 c3                	cmp    %eax,%ebx
    2e4d:	0f 82 88 00 00 00    	jb     2edb <devman_fun_get_name+0x1bb>
    2e53:	8b 55 0c             	mov    0xc(%ebp),%edx
    2e56:	c6 04 02 00          	movb   $0x0,(%edx,%eax,1)
    2e5a:	31 c0                	xor    %eax,%eax
    2e5c:	83 c4 7c             	add    $0x7c,%esp
    2e5f:	5b                   	pop    %ebx
    2e60:	5e                   	pop    %esi
    2e61:	5f                   	pop    %edi
    2e62:	5d                   	pop    %ebp
    2e63:	c3                   	ret    
    2e64:	8d 74 26 00          	lea    0x0(%esi,%eiz,1),%esi
    2e68:	85 db                	test   %ebx,%ebx
    2e6a:	0f 84 ed fe ff ff    	je     2d5d <devman_fun_get_name+0x3d>
    2e70:	89 1d b4 4e 03 00    	mov    %ebx,0x34eb4
    2e76:	e9 e2 fe ff ff       	jmp    2d5d <devman_fun_get_name+0x3d>
    2e7b:	90                   	nop
    2e7c:	8d 74 26 00          	lea    0x0(%esi,%eiz,1),%esi
    2e80:	c7 44 24 0c 00 00 00 	movl   $0x0,0xc(%esp)
    2e87:	00 
    2e88:	c7 44 24 08 02 00 00 	movl   $0x2,0x8(%esp)
    2e8f:	00 
    2e90:	c7 44 24 04 64 65 76 	movl   $0x6e766564,0x4(%esp)
    2e97:	6e 
    2e98:	c7 04 24 02 00 00 00 	movl   $0x2,(%esp)
    2e9f:	e8 1c 08 01 00       	call   136c0 <service_connect_blocking>
    2ea4:	a3 b4 4e 03 00       	mov    %eax,0x34eb4
    2ea9:	e9 8c fe ff ff       	jmp    2d3a <devman_fun_get_name+0x1a>
    2eae:	66 90                	xchg   %ax,%ax
    2eb0:	89 3c 24             	mov    %edi,(%esp)
    2eb3:	e8 78 22 01 00       	call   15130 <async_forget>
    2eb8:	8b 45 98             	mov    -0x68(%ebp),%eax
    2ebb:	83 c4 7c             	add    $0x7c,%esp
    2ebe:	5b                   	pop    %ebx
    2ebf:	5e                   	pop    %esi
    2ec0:	5f                   	pop    %edi
    2ec1:	5d                   	pop    %ebp
    2ec2:	c3                   	ret    
    2ec3:	90                   	nop
    2ec4:	8d 74 26 00          	lea    0x0(%esi,%eiz,1),%esi
    2ec8:	85 db                	test   %ebx,%ebx
    2eca:	0f 84 d3 fe ff ff    	je     2da3 <devman_fun_get_name+0x83>
    2ed0:	89 1d b0 4e 03 00    	mov    %ebx,0x34eb0
    2ed6:	e9 c8 fe ff ff       	jmp    2da3 <devman_fun_get_name+0x83>
    2edb:	c7 44 24 08 b5 01 00 	movl   $0x1b5,0x8(%esp)
    2ee2:	00 
    2ee3:	c7 44 24 04 9c 02 02 	movl   $0x2029c,0x4(%esp)
    2eea:	00 
    2eeb:	c7 04 24 ad 02 02 00 	movl   $0x202ad,(%esp)
    2ef2:	e8 99 a7 01 00       	call   1d690 <assert_abort>
    2ef7:	89 f6                	mov    %esi,%esi
    2ef9:	8d bc 27 00 00 00 00 	lea    0x0(%edi,%eiz,1),%edi

00002f00 <devman_fun_get_driver_name>:
    2f00:	55                   	push   %ebp
    2f01:	89 e5                	mov    %esp,%ebp
    2f03:	57                   	push   %edi
    2f04:	56                   	push   %esi
    2f05:	53                   	push   %ebx
    2f06:	83 ec 7c             	sub    $0x7c,%esp
    2f09:	c7 04 24 3c 2c 02 00 	movl   $0x22c3c,(%esp)
    2f10:	e8 0b 71 00 00       	call   a020 <fibril_mutex_lock>
    2f15:	a1 b4 4e 03 00       	mov    0x34eb4,%eax
    2f1a:	85 c0                	test   %eax,%eax
    2f1c:	75 38                	jne    2f56 <devman_fun_get_driver_name+0x56>
    2f1e:	c7 04 24 4c 2c 02 00 	movl   $0x22c4c,(%esp)
    2f25:	8b 1d b0 4e 03 00    	mov    0x34eb0,%ebx
    2f2b:	e8 f0 70 00 00       	call   a020 <fibril_mutex_lock>
    2f30:	a1 b4 4e 03 00       	mov    0x34eb4,%eax
    2f35:	85 c0                	test   %eax,%eax
    2f37:	0f 84 0b 01 00 00    	je     3048 <devman_fun_get_driver_name+0x148>
    2f3d:	c7 04 24 4c 2c 02 00 	movl   $0x22c4c,(%esp)
    2f44:	e8 f7 71 00 00       	call   a140 <fibril_mutex_unlock>
    2f49:	a1 b4 4e 03 00       	mov    0x34eb4,%eax
    2f4e:	85 c0                	test   %eax,%eax
    2f50:	0f 84 0a 01 00 00    	je     3060 <devman_fun_get_driver_name+0x160>
    2f56:	c7 04 24 3c 2c 02 00 	movl   $0x22c3c,(%esp)
    2f5d:	e8 de 71 00 00       	call   a140 <fibril_mutex_unlock>
    2f62:	c7 04 24 4c 2c 02 00 	movl   $0x22c4c,(%esp)
    2f69:	8b 1d b4 4e 03 00    	mov    0x34eb4,%ebx
    2f6f:	e8 ac 70 00 00       	call   a020 <fibril_mutex_lock>
    2f74:	a1 b0 4e 03 00       	mov    0x34eb0,%eax
    2f79:	85 c0                	test   %eax,%eax
    2f7b:	0f 84 27 01 00 00    	je     30a8 <devman_fun_get_driver_name+0x1a8>
    2f81:	c7 04 24 4c 2c 02 00 	movl   $0x22c4c,(%esp)
    2f88:	e8 b3 71 00 00       	call   a140 <fibril_mutex_unlock>
    2f8d:	a1 b4 4e 03 00       	mov    0x34eb4,%eax
    2f92:	89 04 24             	mov    %eax,(%esp)
    2f95:	e8 d6 33 01 00       	call   16370 <async_exchange_begin>
    2f9a:	c7 44 24 14 00 00 00 	movl   $0x0,0x14(%esp)
    2fa1:	00 
    2fa2:	89 c6                	mov    %eax,%esi
    2fa4:	8d 45 c4             	lea    -0x3c(%ebp),%eax
    2fa7:	89 44 24 18          	mov    %eax,0x18(%esp)
    2fab:	8b 45 08             	mov    0x8(%ebp),%eax
    2fae:	c7 44 24 10 00 00 00 	movl   $0x0,0x10(%esp)
    2fb5:	00 
    2fb6:	c7 44 24 0c 00 00 00 	movl   $0x0,0xc(%esp)
    2fbd:	00 
    2fbe:	89 44 24 08          	mov    %eax,0x8(%esp)
    2fc2:	c7 44 24 04 04 04 00 	movl   $0x404,0x4(%esp)
    2fc9:	00 
    2fca:	89 34 24             	mov    %esi,(%esp)
    2fcd:	e8 3e 1d 01 00       	call   14d10 <async_send_fast>
    2fd2:	8b 5d 10             	mov    0x10(%ebp),%ebx
    2fd5:	8b 55 0c             	mov    0xc(%ebp),%edx
    2fd8:	4b                   	dec    %ebx
    2fd9:	89 c7                	mov    %eax,%edi
    2fdb:	8d 45 a0             	lea    -0x60(%ebp),%eax
    2fde:	89 54 24 04          	mov    %edx,0x4(%esp)
    2fe2:	89 44 24 0c          	mov    %eax,0xc(%esp)
    2fe6:	89 5c 24 08          	mov    %ebx,0x8(%esp)
    2fea:	89 34 24             	mov    %esi,(%esp)
    2fed:	e8 6e 3c 01 00       	call   16c60 <async_data_read>
    2ff2:	8d 4d 98             	lea    -0x68(%ebp),%ecx
    2ff5:	89 04 24             	mov    %eax,(%esp)
    2ff8:	89 4c 24 04          	mov    %ecx,0x4(%esp)
    2ffc:	e8 df 1e 01 00       	call   14ee0 <async_wait_for>
    3001:	89 34 24             	mov    %esi,(%esp)
    3004:	e8 d7 36 01 00       	call   166e0 <async_exchange_end>
    3009:	8b 45 98             	mov    -0x68(%ebp),%eax
    300c:	85 c0                	test   %eax,%eax
    300e:	0f 85 7c 00 00 00    	jne    3090 <devman_fun_get_driver_name+0x190>
    3014:	8d 45 9c             	lea    -0x64(%ebp),%eax
    3017:	89 3c 24             	mov    %edi,(%esp)
    301a:	89 44 24 04          	mov    %eax,0x4(%esp)
    301e:	e8 bd 1e 01 00       	call   14ee0 <async_wait_for>
    3023:	8b 45 9c             	mov    -0x64(%ebp),%eax
    3026:	85 c0                	test   %eax,%eax
    3028:	75 14                	jne    303e <devman_fun_get_driver_name+0x13e>
    302a:	8b 45 a8             	mov    -0x58(%ebp),%eax
    302d:	39 c3                	cmp    %eax,%ebx
    302f:	0f 82 86 00 00 00    	jb     30bb <devman_fun_get_driver_name+0x1bb>
    3035:	8b 55 0c             	mov    0xc(%ebp),%edx
    3038:	c6 04 02 00          	movb   $0x0,(%edx,%eax,1)
    303c:	31 c0                	xor    %eax,%eax
    303e:	83 c4 7c             	add    $0x7c,%esp
    3041:	5b                   	pop    %ebx
    3042:	5e                   	pop    %esi
    3043:	5f                   	pop    %edi
    3044:	5d                   	pop    %ebp
    3045:	c3                   	ret    
    3046:	66 90                	xchg   %ax,%ax
    3048:	85 db                	test   %ebx,%ebx
    304a:	0f 84 ed fe ff ff    	je     2f3d <devman_fun_get_driver_name+0x3d>
    3050:	89 1d b4 4e 03 00    	mov    %ebx,0x34eb4
    3056:	e9 e2 fe ff ff       	jmp    2f3d <devman_fun_get_driver_name+0x3d>
    305b:	90                   	nop
    305c:	8d 74 26 00          	lea    0x0(%esi,%eiz,1),%esi
    3060:	c7 44 24 0c 00 00 00 	movl   $0x0,0xc(%esp)
    3067:	00 
    3068:	c7 44 24 08 02 00 00 	movl   $0x2,0x8(%esp)
    306f:	00 
    3070:	c7 44 24 04 64 65 76 	movl   $0x6e766564,0x4(%esp)
    3077:	6e 
    3078:	c7 04 24 02 00 00 00 	movl   $0x2,(%esp)
    307f:	e8 3c 06 01 00       	call   136c0 <service_connect_blocking>
    3084:	a3 b4 4e 03 00       	mov    %eax,0x34eb4
    3089:	e9 8c fe ff ff       	jmp    2f1a <devman_fun_get_driver_name+0x1a>
    308e:	66 90                	xchg   %ax,%ax
    3090:	89 3c 24             	mov    %edi,(%esp)
    3093:	e8 98 20 01 00       	call   15130 <async_forget>
    3098:	8b 45 98             	mov    -0x68(%ebp),%eax
    309b:	83 c4 7c             	add    $0x7c,%esp
    309e:	5b                   	pop    %ebx
    309f:	5e                   	pop    %esi
    30a0:	5f                   	pop    %edi
    30a1:	5d                   	pop    %ebp
    30a2:	c3                   	ret    
    30a3:	90                   	nop
    30a4:	8d 74 26 00          	lea    0x0(%esi,%eiz,1),%esi
    30a8:	85 db                	test   %ebx,%ebx
    30aa:	0f 84 d1 fe ff ff    	je     2f81 <devman_fun_get_driver_name+0x81>
    30b0:	89 1d b0 4e 03 00    	mov    %ebx,0x34eb0
    30b6:	e9 c6 fe ff ff       	jmp    2f81 <devman_fun_get_driver_name+0x81>
    30bb:	c7 44 24 08 b5 01 00 	movl   $0x1b5,0x8(%esp)
    30c2:	00 
    30c3:	c7 44 24 04 9c 02 02 	movl   $0x2029c,0x4(%esp)
    30ca:	00 
    30cb:	c7 04 24 ad 02 02 00 	movl   $0x202ad,(%esp)
    30d2:	e8 b9 a5 01 00       	call   1d690 <assert_abort>
    30d7:	89 f6                	mov    %esi,%esi
    30d9:	8d bc 27 00 00 00 00 	lea    0x0(%edi,%eiz,1),%edi

000030e0 <devman_fun_online>:
    30e0:	55                   	push   %ebp
    30e1:	89 e5                	mov    %esp,%ebp
    30e3:	56                   	push   %esi
    30e4:	53                   	push   %ebx
    30e5:	83 ec 30             	sub    $0x30,%esp
    30e8:	c7 04 24 4c 2c 02 00 	movl   $0x22c4c,(%esp)
    30ef:	e8 2c 6f 00 00       	call   a020 <fibril_mutex_lock>
    30f4:	a1 b0 4e 03 00       	mov    0x34eb0,%eax
    30f9:	85 c0                	test   %eax,%eax
    30fb:	0f 84 97 00 00 00    	je     3198 <devman_fun_online+0xb8>
    3101:	c7 04 24 4c 2c 02 00 	movl   $0x22c4c,(%esp)
    3108:	e8 33 70 00 00       	call   a140 <fibril_mutex_unlock>
    310d:	a1 b0 4e 03 00       	mov    0x34eb0,%eax
    3112:	85 c0                	test   %eax,%eax
    3114:	0f 84 ae 00 00 00    	je     31c8 <devman_fun_online+0xe8>
    311a:	89 04 24             	mov    %eax,(%esp)
    311d:	e8 4e 32 01 00       	call   16370 <async_exchange_begin>
    3122:	89 c3                	mov    %eax,%ebx
    3124:	85 c0                	test   %eax,%eax
    3126:	0f 84 9c 00 00 00    	je     31c8 <devman_fun_online+0xe8>
    312c:	8b 45 08             	mov    0x8(%ebp),%eax
    312f:	c7 44 24 28 00 00 00 	movl   $0x0,0x28(%esp)
    3136:	00 
    3137:	c7 44 24 24 00 00 00 	movl   $0x0,0x24(%esp)
    313e:	00 
    313f:	c7 44 24 20 00 00 00 	movl   $0x0,0x20(%esp)
    3146:	00 
    3147:	c7 44 24 1c 00 00 00 	movl   $0x0,0x1c(%esp)
    314e:	00 
    314f:	c7 44 24 18 00 00 00 	movl   $0x0,0x18(%esp)
    3156:	00 
    3157:	c7 44 24 14 00 00 00 	movl   $0x0,0x14(%esp)
    315e:	00 
    315f:	c7 44 24 10 00 00 00 	movl   $0x0,0x10(%esp)
    3166:	00 
    3167:	c7 44 24 0c 00 00 00 	movl   $0x0,0xc(%esp)
    316e:	00 
    316f:	89 44 24 08          	mov    %eax,0x8(%esp)
    3173:	c7 44 24 04 05 04 00 	movl   $0x405,0x4(%esp)
    317a:	00 
    317b:	89 1c 24             	mov    %ebx,(%esp)
    317e:	e8 9d 21 01 00       	call   15320 <async_req_fast>
    3183:	89 1c 24             	mov    %ebx,(%esp)
    3186:	89 c6                	mov    %eax,%esi
    3188:	e8 53 35 01 00       	call   166e0 <async_exchange_end>
    318d:	89 f0                	mov    %esi,%eax
    318f:	83 c4 30             	add    $0x30,%esp
    3192:	5b                   	pop    %ebx
    3193:	5e                   	pop    %esi
    3194:	5d                   	pop    %ebp
    3195:	c3                   	ret    
    3196:	66 90                	xchg   %ax,%ax
    3198:	c7 44 24 0c 00 00 00 	movl   $0x0,0xc(%esp)
    319f:	00 
    31a0:	c7 44 24 08 02 00 00 	movl   $0x2,0x8(%esp)
    31a7:	00 
    31a8:	c7 44 24 04 64 65 76 	movl   $0x6e766564,0x4(%esp)
    31af:	6e 
    31b0:	c7 04 24 02 00 00 00 	movl   $0x2,(%esp)
    31b7:	e8 84 04 01 00       	call   13640 <service_connect>
    31bc:	a3 b0 4e 03 00       	mov    %eax,0x34eb0
    31c1:	e9 3b ff ff ff       	jmp    3101 <devman_fun_online+0x21>
    31c6:	66 90                	xchg   %ax,%ax
    31c8:	b8 fe ff ff ff       	mov    $0xfffffffe,%eax
    31cd:	eb c0                	jmp    318f <devman_fun_online+0xaf>
    31cf:	90                   	nop

000031d0 <devman_fun_offline>:
    31d0:	55                   	push   %ebp
    31d1:	89 e5                	mov    %esp,%ebp
    31d3:	56                   	push   %esi
    31d4:	53                   	push   %ebx
    31d5:	83 ec 30             	sub    $0x30,%esp
    31d8:	c7 04 24 4c 2c 02 00 	movl   $0x22c4c,(%esp)
    31df:	e8 3c 6e 00 00       	call   a020 <fibril_mutex_lock>
    31e4:	8b 15 b0 4e 03 00    	mov    0x34eb0,%edx
    31ea:	85 d2                	test   %edx,%edx
    31ec:	0f 84 96 00 00 00    	je     3288 <devman_fun_offline+0xb8>
    31f2:	c7 04 24 4c 2c 02 00 	movl   $0x22c4c,(%esp)
    31f9:	e8 42 6f 00 00       	call   a140 <fibril_mutex_unlock>
    31fe:	a1 b0 4e 03 00       	mov    0x34eb0,%eax
    3203:	85 c0                	test   %eax,%eax
    3205:	0f 84 ad 00 00 00    	je     32b8 <devman_fun_offline+0xe8>
    320b:	89 04 24             	mov    %eax,(%esp)
    320e:	e8 5d 31 01 00       	call   16370 <async_exchange_begin>
    3213:	89 c3                	mov    %eax,%ebx
    3215:	85 c0                	test   %eax,%eax
    3217:	0f 84 9b 00 00 00    	je     32b8 <devman_fun_offline+0xe8>
    321d:	8b 45 08             	mov    0x8(%ebp),%eax
    3220:	c7 44 24 28 00 00 00 	movl   $0x0,0x28(%esp)
    3227:	00 
    3228:	c7 44 24 24 00 00 00 	movl   $0x0,0x24(%esp)
    322f:	00 
    3230:	c7 44 24 20 00 00 00 	movl   $0x0,0x20(%esp)
    3237:	00 
    3238:	c7 44 24 1c 00 00 00 	movl   $0x0,0x1c(%esp)
    323f:	00 
    3240:	c7 44 24 18 00 00 00 	movl   $0x0,0x18(%esp)
    3247:	00 
    3248:	c7 44 24 14 00 00 00 	movl   $0x0,0x14(%esp)
    324f:	00 
    3250:	c7 44 24 10 00 00 00 	movl   $0x0,0x10(%esp)
    3257:	00 
    3258:	c7 44 24 0c 00 00 00 	movl   $0x0,0xc(%esp)
    325f:	00 
    3260:	89 44 24 08          	mov    %eax,0x8(%esp)
    3264:	c7 44 24 04 06 04 00 	movl   $0x406,0x4(%esp)
    326b:	00 
    326c:	89 1c 24             	mov    %ebx,(%esp)
    326f:	e8 ac 20 01 00       	call   15320 <async_req_fast>
    3274:	89 1c 24             	mov    %ebx,(%esp)
    3277:	89 c6                	mov    %eax,%esi
    3279:	e8 62 34 01 00       	call   166e0 <async_exchange_end>
    327e:	89 f0                	mov    %esi,%eax
    3280:	83 c4 30             	add    $0x30,%esp
    3283:	5b                   	pop    %ebx
    3284:	5e                   	pop    %esi
    3285:	5d                   	pop    %ebp
    3286:	c3                   	ret    
    3287:	90                   	nop
    3288:	c7 44 24 0c 00 00 00 	movl   $0x0,0xc(%esp)
    328f:	00 
    3290:	c7 44 24 08 02 00 00 	movl   $0x2,0x8(%esp)
    3297:	00 
    3298:	c7 44 24 04 64 65 76 	movl   $0x6e766564,0x4(%esp)
    329f:	6e 
    32a0:	c7 04 24 02 00 00 00 	movl   $0x2,(%esp)
    32a7:	e8 94 03 01 00       	call   13640 <service_connect>
    32ac:	a3 b0 4e 03 00       	mov    %eax,0x34eb0
    32b1:	e9 3c ff ff ff       	jmp    31f2 <devman_fun_offline+0x22>
    32b6:	66 90                	xchg   %ax,%ax
    32b8:	b8 fe ff ff ff       	mov    $0xfffffffe,%eax
    32bd:	eb c1                	jmp    3280 <devman_fun_offline+0xb0>
    32bf:	90                   	nop

000032c0 <devman_fun_get_child>:
    32c0:	55                   	push   %ebp
    32c1:	89 e5                	mov    %esp,%ebp
    32c3:	56                   	push   %esi
    32c4:	53                   	push   %ebx
    32c5:	83 ec 30             	sub    $0x30,%esp
    32c8:	c7 04 24 4c 2c 02 00 	movl   $0x22c4c,(%esp)
    32cf:	e8 4c 6d 00 00       	call   a020 <fibril_mutex_lock>
    32d4:	8b 0d b0 4e 03 00    	mov    0x34eb0,%ecx
    32da:	85 c9                	test   %ecx,%ecx
    32dc:	0f 84 96 00 00 00    	je     3378 <devman_fun_get_child+0xb8>
    32e2:	c7 04 24 4c 2c 02 00 	movl   $0x22c4c,(%esp)
    32e9:	e8 52 6e 00 00       	call   a140 <fibril_mutex_unlock>
    32ee:	a1 b0 4e 03 00       	mov    0x34eb0,%eax
    32f3:	85 c0                	test   %eax,%eax
    32f5:	0f 84 ad 00 00 00    	je     33a8 <devman_fun_get_child+0xe8>
    32fb:	89 04 24             	mov    %eax,(%esp)
    32fe:	e8 6d 30 01 00       	call   16370 <async_exchange_begin>
    3303:	89 c3                	mov    %eax,%ebx
    3305:	85 c0                	test   %eax,%eax
    3307:	0f 84 9b 00 00 00    	je     33a8 <devman_fun_get_child+0xe8>
    330d:	8b 45 0c             	mov    0xc(%ebp),%eax
    3310:	c7 44 24 28 00 00 00 	movl   $0x0,0x28(%esp)
    3317:	00 
    3318:	89 44 24 18          	mov    %eax,0x18(%esp)
    331c:	8b 45 08             	mov    0x8(%ebp),%eax
    331f:	c7 44 24 24 00 00 00 	movl   $0x0,0x24(%esp)
    3326:	00 
    3327:	c7 44 24 20 00 00 00 	movl   $0x0,0x20(%esp)
    332e:	00 
    332f:	c7 44 24 1c 00 00 00 	movl   $0x0,0x1c(%esp)
    3336:	00 
    3337:	c7 44 24 14 00 00 00 	movl   $0x0,0x14(%esp)
    333e:	00 
    333f:	c7 44 24 10 00 00 00 	movl   $0x0,0x10(%esp)
    3346:	00 
    3347:	c7 44 24 0c 00 00 00 	movl   $0x0,0xc(%esp)
    334e:	00 
    334f:	89 44 24 08          	mov    %eax,0x8(%esp)
    3353:	c7 44 24 04 02 04 00 	movl   $0x402,0x4(%esp)
    335a:	00 
    335b:	89 1c 24             	mov    %ebx,(%esp)
    335e:	e8 bd 1f 01 00       	call   15320 <async_req_fast>
    3363:	89 1c 24             	mov    %ebx,(%esp)
    3366:	89 c6                	mov    %eax,%esi
    3368:	e8 73 33 01 00       	call   166e0 <async_exchange_end>
    336d:	89 f0                	mov    %esi,%eax
    336f:	83 c4 30             	add    $0x30,%esp
    3372:	5b                   	pop    %ebx
    3373:	5e                   	pop    %esi
    3374:	5d                   	pop    %ebp
    3375:	c3                   	ret    
    3376:	66 90                	xchg   %ax,%ax
    3378:	c7 44 24 0c 00 00 00 	movl   $0x0,0xc(%esp)
    337f:	00 
    3380:	c7 44 24 08 02 00 00 	movl   $0x2,0x8(%esp)
    3387:	00 
    3388:	c7 44 24 04 64 65 76 	movl   $0x6e766564,0x4(%esp)
    338f:	6e 
    3390:	c7 04 24 02 00 00 00 	movl   $0x2,(%esp)
    3397:	e8 a4 02 01 00       	call   13640 <service_connect>
    339c:	a3 b0 4e 03 00       	mov    %eax,0x34eb0
    33a1:	e9 3c ff ff ff       	jmp    32e2 <devman_fun_get_child+0x22>
    33a6:	66 90                	xchg   %ax,%ax
    33a8:	b8 fe ff ff ff       	mov    $0xfffffffe,%eax
    33ad:	eb c0                	jmp    336f <devman_fun_get_child+0xaf>
    33af:	90                   	nop

000033b0 <devman_dev_get_functions>:
    33b0:	55                   	push   %ebp
    33b1:	89 e5                	mov    %esp,%ebp
    33b3:	57                   	push   %edi
    33b4:	56                   	push   %esi
    33b5:	53                   	push   %ebx
    33b6:	83 ec 6c             	sub    $0x6c,%esp
    33b9:	8b 55 0c             	mov    0xc(%ebp),%edx
    33bc:	c7 02 00 00 00 00    	movl   $0x0,(%edx)
    33c2:	c7 04 24 3c 2c 02 00 	movl   $0x22c3c,(%esp)
    33c9:	e8 52 6c 00 00       	call   a020 <fibril_mutex_lock>
    33ce:	a1 b4 4e 03 00       	mov    0x34eb4,%eax
    33d3:	85 c0                	test   %eax,%eax
    33d5:	75 38                	jne    340f <devman_dev_get_functions+0x5f>
    33d7:	c7 04 24 4c 2c 02 00 	movl   $0x22c4c,(%esp)
    33de:	8b 1d b0 4e 03 00    	mov    0x34eb0,%ebx
    33e4:	e8 37 6c 00 00       	call   a020 <fibril_mutex_lock>
    33e9:	a1 b4 4e 03 00       	mov    0x34eb4,%eax
    33ee:	85 c0                	test   %eax,%eax
    33f0:	0f 84 4a 02 00 00    	je     3640 <devman_dev_get_functions+0x290>
    33f6:	c7 04 24 4c 2c 02 00 	movl   $0x22c4c,(%esp)
    33fd:	e8 3e 6d 00 00       	call   a140 <fibril_mutex_unlock>
    3402:	a1 b4 4e 03 00       	mov    0x34eb4,%eax
    3407:	85 c0                	test   %eax,%eax
    3409:	0f 84 49 02 00 00    	je     3658 <devman_dev_get_functions+0x2a8>
    340f:	c7 04 24 3c 2c 02 00 	movl   $0x22c3c,(%esp)
    3416:	e8 25 6d 00 00       	call   a140 <fibril_mutex_unlock>
    341b:	c7 04 24 4c 2c 02 00 	movl   $0x22c4c,(%esp)
    3422:	8b 1d b4 4e 03 00    	mov    0x34eb4,%ebx
    3428:	e8 f3 6b 00 00       	call   a020 <fibril_mutex_lock>
    342d:	a1 b0 4e 03 00       	mov    0x34eb0,%eax
    3432:	85 c0                	test   %eax,%eax
    3434:	0f 84 c5 02 00 00    	je     36ff <devman_dev_get_functions+0x34f>
    343a:	c7 04 24 4c 2c 02 00 	movl   $0x22c4c,(%esp)
    3441:	e8 fa 6c 00 00       	call   a140 <fibril_mutex_unlock>
    3446:	a1 b4 4e 03 00       	mov    0x34eb4,%eax
    344b:	89 04 24             	mov    %eax,(%esp)
    344e:	e8 1d 2f 01 00       	call   16370 <async_exchange_begin>
    3453:	8b 55 08             	mov    0x8(%ebp),%edx
    3456:	89 c6                	mov    %eax,%esi
    3458:	8d 45 c4             	lea    -0x3c(%ebp),%eax
    345b:	89 54 24 08          	mov    %edx,0x8(%esp)
    345f:	89 44 24 18          	mov    %eax,0x18(%esp)
    3463:	c7 44 24 14 00 00 00 	movl   $0x0,0x14(%esp)
    346a:	00 
    346b:	c7 44 24 10 00 00 00 	movl   $0x0,0x10(%esp)
    3472:	00 
    3473:	c7 44 24 0c 00 00 00 	movl   $0x0,0xc(%esp)
    347a:	00 
    347b:	c7 44 24 04 01 04 00 	movl   $0x401,0x4(%esp)
    3482:	00 
    3483:	89 34 24             	mov    %esi,(%esp)
    3486:	e8 85 18 01 00       	call   14d10 <async_send_fast>
    348b:	c7 44 24 08 00 00 00 	movl   $0x0,0x8(%esp)
    3492:	00 
    3493:	c7 44 24 04 00 00 00 	movl   $0x0,0x4(%esp)
    349a:	00 
    349b:	89 34 24             	mov    %esi,(%esp)
    349e:	89 c7                	mov    %eax,%edi
    34a0:	e8 9b 38 01 00       	call   16d40 <async_data_read_start>
    34a5:	89 34 24             	mov    %esi,(%esp)
    34a8:	89 c3                	mov    %eax,%ebx
    34aa:	e8 31 32 01 00       	call   166e0 <async_exchange_end>
    34af:	85 db                	test   %ebx,%ebx
    34b1:	0f 85 2c 02 00 00    	jne    36e3 <devman_dev_get_functions+0x333>
    34b7:	8d 45 c0             	lea    -0x40(%ebp),%eax
    34ba:	89 3c 24             	mov    %edi,(%esp)
    34bd:	89 44 24 04          	mov    %eax,0x4(%esp)
    34c1:	e8 1a 1a 01 00       	call   14ee0 <async_wait_for>
    34c6:	8b 45 c0             	mov    -0x40(%ebp),%eax
    34c9:	85 c0                	test   %eax,%eax
    34cb:	0f 85 61 01 00 00    	jne    3632 <devman_dev_get_functions+0x282>
    34d1:	8b 75 c8             	mov    -0x38(%ebp),%esi
    34d4:	e9 f9 00 00 00       	jmp    35d2 <devman_dev_get_functions+0x222>
    34d9:	8d b4 26 00 00 00 00 	lea    0x0(%esi,%eiz,1),%esi
    34e0:	c7 04 24 4c 2c 02 00 	movl   $0x22c4c,(%esp)
    34e7:	e8 54 6c 00 00       	call   a140 <fibril_mutex_unlock>
    34ec:	a1 b4 4e 03 00       	mov    0x34eb4,%eax
    34f1:	85 c0                	test   %eax,%eax
    34f3:	0f 84 8f 01 00 00    	je     3688 <devman_dev_get_functions+0x2d8>
    34f9:	c7 04 24 3c 2c 02 00 	movl   $0x22c3c,(%esp)
    3500:	e8 3b 6c 00 00       	call   a140 <fibril_mutex_unlock>
    3505:	c7 04 24 4c 2c 02 00 	movl   $0x22c4c,(%esp)
    350c:	8b 1d b4 4e 03 00    	mov    0x34eb4,%ebx
    3512:	e8 09 6b 00 00       	call   a020 <fibril_mutex_lock>
    3517:	a1 b0 4e 03 00       	mov    0x34eb0,%eax
    351c:	85 c0                	test   %eax,%eax
    351e:	0f 84 ac 01 00 00    	je     36d0 <devman_dev_get_functions+0x320>
    3524:	c7 04 24 4c 2c 02 00 	movl   $0x22c4c,(%esp)
    352b:	e8 10 6c 00 00       	call   a140 <fibril_mutex_unlock>
    3530:	a1 b4 4e 03 00       	mov    0x34eb4,%eax
    3535:	89 04 24             	mov    %eax,(%esp)
    3538:	e8 33 2e 01 00       	call   16370 <async_exchange_begin>
    353d:	8d 55 c4             	lea    -0x3c(%ebp),%edx
    3540:	89 54 24 18          	mov    %edx,0x18(%esp)
    3544:	8b 55 08             	mov    0x8(%ebp),%edx
    3547:	89 54 24 08          	mov    %edx,0x8(%esp)
    354b:	c7 44 24 14 00 00 00 	movl   $0x0,0x14(%esp)
    3552:	00 
    3553:	c7 44 24 10 00 00 00 	movl   $0x0,0x10(%esp)
    355a:	00 
    355b:	c7 44 24 0c 00 00 00 	movl   $0x0,0xc(%esp)
    3562:	00 
    3563:	c7 44 24 04 01 04 00 	movl   $0x401,0x4(%esp)
    356a:	00 
    356b:	89 04 24             	mov    %eax,(%esp)
    356e:	89 c3                	mov    %eax,%ebx
    3570:	e8 9b 17 01 00       	call   14d10 <async_send_fast>
    3575:	89 74 24 08          	mov    %esi,0x8(%esp)
    3579:	89 7c 24 04          	mov    %edi,0x4(%esp)
    357d:	89 1c 24             	mov    %ebx,(%esp)
    3580:	89 45 b4             	mov    %eax,-0x4c(%ebp)
    3583:	e8 b8 37 01 00       	call   16d40 <async_data_read_start>
    3588:	89 1c 24             	mov    %ebx,(%esp)
    358b:	89 45 b0             	mov    %eax,-0x50(%ebp)
    358e:	e8 4d 31 01 00       	call   166e0 <async_exchange_end>
    3593:	8b 45 b0             	mov    -0x50(%ebp),%eax
    3596:	85 c0                	test   %eax,%eax
    3598:	0f 85 1a 01 00 00    	jne    36b8 <devman_dev_get_functions+0x308>
    359e:	8d 55 c0             	lea    -0x40(%ebp),%edx
    35a1:	89 45 b0             	mov    %eax,-0x50(%ebp)
    35a4:	89 54 24 04          	mov    %edx,0x4(%esp)
    35a8:	8b 55 b4             	mov    -0x4c(%ebp),%edx
    35ab:	89 14 24             	mov    %edx,(%esp)
    35ae:	e8 2d 19 01 00       	call   14ee0 <async_wait_for>
    35b3:	8b 55 c0             	mov    -0x40(%ebp),%edx
    35b6:	85 d2                	test   %edx,%edx
    35b8:	8b 45 b0             	mov    -0x50(%ebp),%eax
    35bb:	75 73                	jne    3630 <devman_dev_get_functions+0x280>
    35bd:	8b 55 c8             	mov    -0x38(%ebp),%edx
    35c0:	39 d6                	cmp    %edx,%esi
    35c2:	0f 83 4a 01 00 00    	jae    3712 <devman_dev_get_functions+0x362>
    35c8:	89 3c 24             	mov    %edi,(%esp)
    35cb:	01 f6                	add    %esi,%esi
    35cd:	e8 6e f9 00 00       	call   12f40 <free>
    35d2:	89 34 24             	mov    %esi,(%esp)
    35d5:	e8 56 f8 00 00       	call   12e30 <malloc>
    35da:	89 c7                	mov    %eax,%edi
    35dc:	85 c0                	test   %eax,%eax
    35de:	0f 84 11 01 00 00    	je     36f5 <devman_dev_get_functions+0x345>
    35e4:	c7 04 24 3c 2c 02 00 	movl   $0x22c3c,(%esp)
    35eb:	e8 30 6a 00 00       	call   a020 <fibril_mutex_lock>
    35f0:	a1 b4 4e 03 00       	mov    0x34eb4,%eax
    35f5:	85 c0                	test   %eax,%eax
    35f7:	0f 85 fc fe ff ff    	jne    34f9 <devman_dev_get_functions+0x149>
    35fd:	c7 04 24 4c 2c 02 00 	movl   $0x22c4c,(%esp)
    3604:	8b 1d b0 4e 03 00    	mov    0x34eb0,%ebx
    360a:	e8 11 6a 00 00       	call   a020 <fibril_mutex_lock>
    360f:	a1 b4 4e 03 00       	mov    0x34eb4,%eax
    3614:	85 c0                	test   %eax,%eax
    3616:	0f 85 c4 fe ff ff    	jne    34e0 <devman_dev_get_functions+0x130>
    361c:	85 db                	test   %ebx,%ebx
    361e:	0f 84 bc fe ff ff    	je     34e0 <devman_dev_get_functions+0x130>
    3624:	89 1d b4 4e 03 00    	mov    %ebx,0x34eb4
    362a:	e9 b1 fe ff ff       	jmp    34e0 <devman_dev_get_functions+0x130>
    362f:	90                   	nop
    3630:	89 d0                	mov    %edx,%eax
    3632:	89 c3                	mov    %eax,%ebx
    3634:	83 c4 6c             	add    $0x6c,%esp
    3637:	89 d8                	mov    %ebx,%eax
    3639:	5b                   	pop    %ebx
    363a:	5e                   	pop    %esi
    363b:	5f                   	pop    %edi
    363c:	5d                   	pop    %ebp
    363d:	c3                   	ret    
    363e:	66 90                	xchg   %ax,%ax
    3640:	85 db                	test   %ebx,%ebx
    3642:	0f 84 ae fd ff ff    	je     33f6 <devman_dev_get_functions+0x46>
    3648:	89 1d b4 4e 03 00    	mov    %ebx,0x34eb4
    364e:	e9 a3 fd ff ff       	jmp    33f6 <devman_dev_get_functions+0x46>
    3653:	90                   	nop
    3654:	8d 74 26 00          	lea    0x0(%esi,%eiz,1),%esi
    3658:	c7 44 24 0c 00 00 00 	movl   $0x0,0xc(%esp)
    365f:	00 
    3660:	c7 44 24 08 02 00 00 	movl   $0x2,0x8(%esp)
    3667:	00 
    3668:	c7 44 24 04 64 65 76 	movl   $0x6e766564,0x4(%esp)
    366f:	6e 
    3670:	c7 04 24 02 00 00 00 	movl   $0x2,(%esp)
    3677:	e8 44 00 01 00       	call   136c0 <service_connect_blocking>
    367c:	a3 b4 4e 03 00       	mov    %eax,0x34eb4
    3681:	e9 4d fd ff ff       	jmp    33d3 <devman_dev_get_functions+0x23>
    3686:	66 90                	xchg   %ax,%ax
    3688:	c7 44 24 0c 00 00 00 	movl   $0x0,0xc(%esp)
    368f:	00 
    3690:	c7 44 24 08 02 00 00 	movl   $0x2,0x8(%esp)
    3697:	00 
    3698:	c7 44 24 04 64 65 76 	movl   $0x6e766564,0x4(%esp)
    369f:	6e 
    36a0:	c7 04 24 02 00 00 00 	movl   $0x2,(%esp)
    36a7:	e8 14 00 01 00       	call   136c0 <service_connect_blocking>
    36ac:	a3 b4 4e 03 00       	mov    %eax,0x34eb4
    36b1:	e9 3f ff ff ff       	jmp    35f5 <devman_dev_get_functions+0x245>
    36b6:	66 90                	xchg   %ax,%ax
    36b8:	89 c3                	mov    %eax,%ebx
    36ba:	8b 45 b4             	mov    -0x4c(%ebp),%eax
    36bd:	89 04 24             	mov    %eax,(%esp)
    36c0:	e8 6b 1a 01 00       	call   15130 <async_forget>
    36c5:	83 c4 6c             	add    $0x6c,%esp
    36c8:	89 d8                	mov    %ebx,%eax
    36ca:	5b                   	pop    %ebx
    36cb:	5e                   	pop    %esi
    36cc:	5f                   	pop    %edi
    36cd:	5d                   	pop    %ebp
    36ce:	c3                   	ret    
    36cf:	90                   	nop
    36d0:	85 db                	test   %ebx,%ebx
    36d2:	0f 84 4c fe ff ff    	je     3524 <devman_dev_get_functions+0x174>
    36d8:	89 1d b0 4e 03 00    	mov    %ebx,0x34eb0
    36de:	e9 41 fe ff ff       	jmp    3524 <devman_dev_get_functions+0x174>
    36e3:	89 3c 24             	mov    %edi,(%esp)
    36e6:	e8 45 1a 01 00       	call   15130 <async_forget>
    36eb:	83 c4 6c             	add    $0x6c,%esp
    36ee:	89 d8                	mov    %ebx,%eax
    36f0:	5b                   	pop    %ebx
    36f1:	5e                   	pop    %esi
    36f2:	5f                   	pop    %edi
    36f3:	5d                   	pop    %ebp
    36f4:	c3                   	ret    
    36f5:	bb fe ff ff ff       	mov    $0xfffffffe,%ebx
    36fa:	e9 35 ff ff ff       	jmp    3634 <devman_dev_get_functions+0x284>
    36ff:	85 db                	test   %ebx,%ebx
    3701:	0f 84 33 fd ff ff    	je     343a <devman_dev_get_functions+0x8a>
    3707:	89 1d b0 4e 03 00    	mov    %ebx,0x34eb0
    370d:	e9 28 fd ff ff       	jmp    343a <devman_dev_get_functions+0x8a>
    3712:	89 c3                	mov    %eax,%ebx
    3714:	89 d0                	mov    %edx,%eax
    3716:	c1 e8 02             	shr    $0x2,%eax
    3719:	8b 55 10             	mov    0x10(%ebp),%edx
    371c:	89 02                	mov    %eax,(%edx)
    371e:	8b 55 0c             	mov    0xc(%ebp),%edx
    3721:	89 3a                	mov    %edi,(%edx)
    3723:	e9 0c ff ff ff       	jmp    3634 <devman_dev_get_functions+0x284>
    3728:	90                   	nop
    3729:	8d b4 26 00 00 00 00 	lea    0x0(%esi,%eiz,1),%esi

00003730 <devman_fun_sid_to_handle>:
    3730:	55                   	push   %ebp
    3731:	89 e5                	mov    %esp,%ebp
    3733:	56                   	push   %esi
    3734:	53                   	push   %ebx
    3735:	83 ec 30             	sub    $0x30,%esp
    3738:	c7 04 24 4c 2c 02 00 	movl   $0x22c4c,(%esp)
    373f:	e8 dc 68 00 00       	call   a020 <fibril_mutex_lock>
    3744:	8b 15 b0 4e 03 00    	mov    0x34eb0,%edx
    374a:	85 d2                	test   %edx,%edx
    374c:	0f 84 96 00 00 00    	je     37e8 <devman_fun_sid_to_handle+0xb8>
    3752:	c7 04 24 4c 2c 02 00 	movl   $0x22c4c,(%esp)
    3759:	e8 e2 69 00 00       	call   a140 <fibril_mutex_unlock>
    375e:	a1 b0 4e 03 00       	mov    0x34eb0,%eax
    3763:	85 c0                	test   %eax,%eax
    3765:	0f 84 ad 00 00 00    	je     3818 <devman_fun_sid_to_handle+0xe8>
    376b:	89 04 24             	mov    %eax,(%esp)
    376e:	e8 fd 2b 01 00       	call   16370 <async_exchange_begin>
    3773:	89 c3                	mov    %eax,%ebx
    3775:	85 c0                	test   %eax,%eax
    3777:	0f 84 9b 00 00 00    	je     3818 <devman_fun_sid_to_handle+0xe8>
    377d:	8b 45 0c             	mov    0xc(%ebp),%eax
    3780:	c7 44 24 28 00 00 00 	movl   $0x0,0x28(%esp)
    3787:	00 
    3788:	89 44 24 18          	mov    %eax,0x18(%esp)
    378c:	8b 45 08             	mov    0x8(%ebp),%eax
    378f:	c7 44 24 24 00 00 00 	movl   $0x0,0x24(%esp)
    3796:	00 
    3797:	c7 44 24 20 00 00 00 	movl   $0x0,0x20(%esp)
    379e:	00 
    379f:	c7 44 24 1c 00 00 00 	movl   $0x0,0x1c(%esp)
    37a6:	00 
    37a7:	c7 44 24 14 00 00 00 	movl   $0x0,0x14(%esp)
    37ae:	00 
    37af:	c7 44 24 10 00 00 00 	movl   $0x0,0x10(%esp)
    37b6:	00 
    37b7:	c7 44 24 0c 00 00 00 	movl   $0x0,0xc(%esp)
    37be:	00 
    37bf:	89 44 24 08          	mov    %eax,0x8(%esp)
    37c3:	c7 44 24 04 08 04 00 	movl   $0x408,0x4(%esp)
    37ca:	00 
    37cb:	89 1c 24             	mov    %ebx,(%esp)
    37ce:	e8 4d 1b 01 00       	call   15320 <async_req_fast>
    37d3:	89 1c 24             	mov    %ebx,(%esp)
    37d6:	89 c6                	mov    %eax,%esi
    37d8:	e8 03 2f 01 00       	call   166e0 <async_exchange_end>
    37dd:	89 f0                	mov    %esi,%eax
    37df:	83 c4 30             	add    $0x30,%esp
    37e2:	5b                   	pop    %ebx
    37e3:	5e                   	pop    %esi
    37e4:	5d                   	pop    %ebp
    37e5:	c3                   	ret    
    37e6:	66 90                	xchg   %ax,%ax
    37e8:	c7 44 24 0c 00 00 00 	movl   $0x0,0xc(%esp)
    37ef:	00 
    37f0:	c7 44 24 08 02 00 00 	movl   $0x2,0x8(%esp)
    37f7:	00 
    37f8:	c7 44 24 04 64 65 76 	movl   $0x6e766564,0x4(%esp)
    37ff:	6e 
    3800:	c7 04 24 02 00 00 00 	movl   $0x2,(%esp)
    3807:	e8 34 fe 00 00       	call   13640 <service_connect>
    380c:	a3 b0 4e 03 00       	mov    %eax,0x34eb0
    3811:	e9 3c ff ff ff       	jmp    3752 <devman_fun_sid_to_handle+0x22>
    3816:	66 90                	xchg   %ax,%ax
    3818:	b8 fe ff ff ff       	mov    $0xfffffffe,%eax
    381d:	eb c0                	jmp    37df <devman_fun_sid_to_handle+0xaf>
    381f:	90                   	nop

00003820 <ahci_get_sess>:
    3820:	55                   	push   %ebp
    3821:	89 e5                	mov    %esp,%ebp
    3823:	57                   	push   %edi
    3824:	56                   	push   %esi
    3825:	53                   	push   %ebx
    3826:	81 ec 1c 04 00 00    	sub    $0x41c,%esp
    382c:	8d 9d e8 fb ff ff    	lea    -0x418(%ebp),%ebx
    3832:	8b 7d 0c             	mov    0xc(%ebp),%edi
    3835:	8b 75 08             	mov    0x8(%ebp),%esi
    3838:	c7 07 00 00 00 00    	movl   $0x0,(%edi)
    383e:	c7 44 24 08 00 04 00 	movl   $0x400,0x8(%esp)
    3845:	00 
    3846:	89 5c 24 04          	mov    %ebx,0x4(%esp)
    384a:	89 34 24             	mov    %esi,(%esp)
    384d:	e8 ce f4 ff ff       	call   2d20 <devman_fun_get_name>
    3852:	85 c0                	test   %eax,%eax
    3854:	75 62                	jne    38b8 <ahci_get_sess+0x98>
    3856:	89 1c 24             	mov    %ebx,(%esp)
    3859:	e8 a2 35 00 00       	call   6e00 <str_size>
    385e:	83 f8 05             	cmp    $0x5,%eax
    3861:	76 55                	jbe    38b8 <ahci_get_sess+0x98>
    3863:	c7 44 24 08 05 00 00 	movl   $0x5,0x8(%esp)
    386a:	00 
    386b:	c7 44 24 04 c6 02 02 	movl   $0x202c6,0x4(%esp)
    3872:	00 
    3873:	89 1c 24             	mov    %ebx,(%esp)
    3876:	e8 e5 3c 00 00       	call   7560 <str_lcmp>
    387b:	85 c0                	test   %eax,%eax
    387d:	75 39                	jne    38b8 <ahci_get_sess+0x98>
    387f:	89 74 24 04          	mov    %esi,0x4(%esp)
    3883:	c7 44 24 08 01 00 00 	movl   $0x1,0x8(%esp)
    388a:	00 
    388b:	c7 04 24 01 00 00 00 	movl   $0x1,(%esp)
    3892:	e8 89 ec ff ff       	call   2520 <devman_device_connect>
    3897:	89 c6                	mov    %eax,%esi
    3899:	85 c0                	test   %eax,%eax
    389b:	74 1b                	je     38b8 <ahci_get_sess+0x98>
    389d:	89 1c 24             	mov    %ebx,(%esp)
    38a0:	e8 fb 54 00 00       	call   8da0 <str_dup>
    38a5:	89 07                	mov    %eax,(%edi)
    38a7:	81 c4 1c 04 00 00    	add    $0x41c,%esp
    38ad:	89 f0                	mov    %esi,%eax
    38af:	5b                   	pop    %ebx
    38b0:	5e                   	pop    %esi
    38b1:	5f                   	pop    %edi
    38b2:	5d                   	pop    %ebp
    38b3:	c3                   	ret    
    38b4:	8d 74 26 00          	lea    0x0(%esi,%eiz,1),%esi
    38b8:	81 c4 1c 04 00 00    	add    $0x41c,%esp
    38be:	31 f6                	xor    %esi,%esi
    38c0:	89 f0                	mov    %esi,%eax
    38c2:	5b                   	pop    %ebx
    38c3:	5e                   	pop    %esi
    38c4:	5f                   	pop    %edi
    38c5:	5d                   	pop    %ebp
    38c6:	c3                   	ret    
    38c7:	89 f6                	mov    %esi,%esi
    38c9:	8d bc 27 00 00 00 00 	lea    0x0(%edi,%eiz,1),%edi

000038d0 <ahci_get_sata_device_name>:
    38d0:	55                   	push   %ebp
    38d1:	89 e5                	mov    %esp,%ebp
    38d3:	57                   	push   %edi
    38d4:	56                   	push   %esi
    38d5:	53                   	push   %ebx
    38d6:	83 ec 3c             	sub    $0x3c,%esp
    38d9:	8b 45 08             	mov    0x8(%ebp),%eax
    38dc:	8b 75 0c             	mov    0xc(%ebp),%esi
    38df:	89 04 24             	mov    %eax,(%esp)
    38e2:	e8 89 2a 01 00       	call   16370 <async_exchange_begin>
    38e7:	89 c3                	mov    %eax,%ebx
    38e9:	85 c0                	test   %eax,%eax
    38eb:	74 63                	je     3950 <ahci_get_sata_device_name+0x80>
    38ed:	c7 44 24 18 00 00 00 	movl   $0x0,0x18(%esp)
    38f4:	00 
    38f5:	c7 44 24 14 00 00 00 	movl   $0x0,0x14(%esp)
    38fc:	00 
    38fd:	c7 44 24 10 00 00 00 	movl   $0x0,0x10(%esp)
    3904:	00 
    3905:	89 74 24 0c          	mov    %esi,0xc(%esp)
    3909:	c7 44 24 08 00 00 00 	movl   $0x0,0x8(%esp)
    3910:	00 
    3911:	c7 44 24 04 0a 04 00 	movl   $0x40a,0x4(%esp)
    3918:	00 
    3919:	89 04 24             	mov    %eax,(%esp)
    391c:	e8 ef 13 01 00       	call   14d10 <async_send_fast>
    3921:	89 74 24 08          	mov    %esi,0x8(%esp)
    3925:	89 c7                	mov    %eax,%edi
    3927:	8b 45 10             	mov    0x10(%ebp),%eax
    392a:	89 44 24 04          	mov    %eax,0x4(%esp)
    392e:	89 1c 24             	mov    %ebx,(%esp)
    3931:	e8 0a 34 01 00       	call   16d40 <async_data_read_start>
    3936:	8d 45 e4             	lea    -0x1c(%ebp),%eax
    3939:	89 44 24 04          	mov    %eax,0x4(%esp)
    393d:	89 3c 24             	mov    %edi,(%esp)
    3940:	e8 9b 15 01 00       	call   14ee0 <async_wait_for>
    3945:	8b 45 e4             	mov    -0x1c(%ebp),%eax
    3948:	83 c4 3c             	add    $0x3c,%esp
    394b:	5b                   	pop    %ebx
    394c:	5e                   	pop    %esi
    394d:	5f                   	pop    %edi
    394e:	5d                   	pop    %ebp
    394f:	c3                   	ret    
    3950:	b8 f2 ff ff ff       	mov    $0xfffffff2,%eax
    3955:	eb f1                	jmp    3948 <ahci_get_sata_device_name+0x78>
    3957:	89 f6                	mov    %esi,%esi
    3959:	8d bc 27 00 00 00 00 	lea    0x0(%edi,%eiz,1),%edi

00003960 <ahci_get_num_blocks>:
    3960:	55                   	push   %ebp
    3961:	89 e5                	mov    %esp,%ebp
    3963:	57                   	push   %edi
    3964:	56                   	push   %esi
    3965:	53                   	push   %ebx
    3966:	83 ec 5c             	sub    $0x5c,%esp
    3969:	8b 45 08             	mov    0x8(%ebp),%eax
    396c:	89 04 24             	mov    %eax,(%esp)
    396f:	e8 fc 29 01 00       	call   16370 <async_exchange_begin>
    3974:	89 c3                	mov    %eax,%ebx
    3976:	85 c0                	test   %eax,%eax
    3978:	74 7e                	je     39f8 <ahci_get_num_blocks+0x98>
    397a:	8d 45 e4             	lea    -0x1c(%ebp),%eax
    397d:	c7 44 24 28 00 00 00 	movl   $0x0,0x28(%esp)
    3984:	00 
    3985:	89 44 24 1c          	mov    %eax,0x1c(%esp)
    3989:	8d 45 e0             	lea    -0x20(%ebp),%eax
    398c:	c7 44 24 24 00 00 00 	movl   $0x0,0x24(%esp)
    3993:	00 
    3994:	c7 44 24 20 00 00 00 	movl   $0x0,0x20(%esp)
    399b:	00 
    399c:	89 44 24 18          	mov    %eax,0x18(%esp)
    39a0:	c7 44 24 14 00 00 00 	movl   $0x0,0x14(%esp)
    39a7:	00 
    39a8:	c7 44 24 10 00 00 00 	movl   $0x0,0x10(%esp)
    39af:	00 
    39b0:	c7 44 24 0c 00 00 00 	movl   $0x0,0xc(%esp)
    39b7:	00 
    39b8:	c7 44 24 08 01 00 00 	movl   $0x1,0x8(%esp)
    39bf:	00 
    39c0:	c7 44 24 04 0a 04 00 	movl   $0x40a,0x4(%esp)
    39c7:	00 
    39c8:	89 1c 24             	mov    %ebx,(%esp)
    39cb:	e8 50 19 01 00       	call   15320 <async_req_fast>
    39d0:	89 1c 24             	mov    %ebx,(%esp)
    39d3:	89 45 d4             	mov    %eax,-0x2c(%ebp)
    39d6:	e8 05 2d 01 00       	call   166e0 <async_exchange_end>
    39db:	8b 45 d4             	mov    -0x2c(%ebp),%eax
    39de:	85 c0                	test   %eax,%eax
    39e0:	75 0e                	jne    39f0 <ahci_get_num_blocks+0x90>
    39e2:	8b 55 0c             	mov    0xc(%ebp),%edx
    39e5:	8b 4d e0             	mov    -0x20(%ebp),%ecx
    39e8:	8b 75 e4             	mov    -0x1c(%ebp),%esi
    39eb:	89 32                	mov    %esi,(%edx)
    39ed:	89 4a 04             	mov    %ecx,0x4(%edx)
    39f0:	83 c4 5c             	add    $0x5c,%esp
    39f3:	5b                   	pop    %ebx
    39f4:	5e                   	pop    %esi
    39f5:	5f                   	pop    %edi
    39f6:	5d                   	pop    %ebp
    39f7:	c3                   	ret    
    39f8:	b8 f2 ff ff ff       	mov    $0xfffffff2,%eax
    39fd:	eb f1                	jmp    39f0 <ahci_get_num_blocks+0x90>
    39ff:	90                   	nop

00003a00 <ahci_get_block_size>:
    3a00:	55                   	push   %ebp
    3a01:	89 e5                	mov    %esp,%ebp
    3a03:	53                   	push   %ebx
    3a04:	83 ec 54             	sub    $0x54,%esp
    3a07:	8b 45 08             	mov    0x8(%ebp),%eax
    3a0a:	89 04 24             	mov    %eax,(%esp)
    3a0d:	e8 5e 29 01 00       	call   16370 <async_exchange_begin>
    3a12:	89 c3                	mov    %eax,%ebx
    3a14:	85 c0                	test   %eax,%eax
    3a16:	74 78                	je     3a90 <ahci_get_block_size+0x90>
    3a18:	8d 45 f4             	lea    -0xc(%ebp),%eax
    3a1b:	c7 44 24 28 00 00 00 	movl   $0x0,0x28(%esp)
    3a22:	00 
    3a23:	c7 44 24 24 00 00 00 	movl   $0x0,0x24(%esp)
    3a2a:	00 
    3a2b:	c7 44 24 20 00 00 00 	movl   $0x0,0x20(%esp)
    3a32:	00 
    3a33:	c7 44 24 1c 00 00 00 	movl   $0x0,0x1c(%esp)
    3a3a:	00 
    3a3b:	89 44 24 18          	mov    %eax,0x18(%esp)
    3a3f:	c7 44 24 14 00 00 00 	movl   $0x0,0x14(%esp)
    3a46:	00 
    3a47:	c7 44 24 10 00 00 00 	movl   $0x0,0x10(%esp)
    3a4e:	00 
    3a4f:	c7 44 24 0c 00 00 00 	movl   $0x0,0xc(%esp)
    3a56:	00 
    3a57:	c7 44 24 08 02 00 00 	movl   $0x2,0x8(%esp)
    3a5e:	00 
    3a5f:	c7 44 24 04 0a 04 00 	movl   $0x40a,0x4(%esp)
    3a66:	00 
    3a67:	89 1c 24             	mov    %ebx,(%esp)
    3a6a:	e8 b1 18 01 00       	call   15320 <async_req_fast>
    3a6f:	89 1c 24             	mov    %ebx,(%esp)
    3a72:	89 45 e4             	mov    %eax,-0x1c(%ebp)
    3a75:	e8 66 2c 01 00       	call   166e0 <async_exchange_end>
    3a7a:	8b 45 e4             	mov    -0x1c(%ebp),%eax
    3a7d:	85 c0                	test   %eax,%eax
    3a7f:	75 08                	jne    3a89 <ahci_get_block_size+0x89>
    3a81:	8b 55 0c             	mov    0xc(%ebp),%edx
    3a84:	8b 4d f4             	mov    -0xc(%ebp),%ecx
    3a87:	89 0a                	mov    %ecx,(%edx)
    3a89:	83 c4 54             	add    $0x54,%esp
    3a8c:	5b                   	pop    %ebx
    3a8d:	5d                   	pop    %ebp
    3a8e:	c3                   	ret    
    3a8f:	90                   	nop
    3a90:	b8 f2 ff ff ff       	mov    $0xfffffff2,%eax
    3a95:	eb f2                	jmp    3a89 <ahci_get_block_size+0x89>
    3a97:	89 f6                	mov    %esi,%esi
    3a99:	8d bc 27 00 00 00 00 	lea    0x0(%edi,%eiz,1),%edi

00003aa0 <ahci_read_blocks>:
    3aa0:	55                   	push   %ebp
    3aa1:	89 e5                	mov    %esp,%ebp
    3aa3:	56                   	push   %esi
    3aa4:	53                   	push   %ebx
    3aa5:	83 ec 30             	sub    $0x30,%esp
    3aa8:	8b 45 08             	mov    0x8(%ebp),%eax
    3aab:	8b 75 0c             	mov    0xc(%ebp),%esi
    3aae:	89 04 24             	mov    %eax,(%esp)
    3ab1:	e8 ba 28 01 00       	call   16370 <async_exchange_begin>
    3ab6:	89 c3                	mov    %eax,%ebx
    3ab8:	85 c0                	test   %eax,%eax
    3aba:	74 74                	je     3b30 <ahci_read_blocks+0x90>
    3abc:	8b 45 14             	mov    0x14(%ebp),%eax
    3abf:	89 74 24 10          	mov    %esi,0x10(%esp)
    3ac3:	c7 44 24 18 00 00 00 	movl   $0x0,0x18(%esp)
    3aca:	00 
    3acb:	89 44 24 14          	mov    %eax,0x14(%esp)
    3acf:	c7 44 24 0c 00 00 00 	movl   $0x0,0xc(%esp)
    3ad6:	00 
    3ad7:	c7 44 24 08 03 00 00 	movl   $0x3,0x8(%esp)
    3ade:	00 
    3adf:	c7 44 24 04 0a 04 00 	movl   $0x40a,0x4(%esp)
    3ae6:	00 
    3ae7:	89 1c 24             	mov    %ebx,(%esp)
    3aea:	e8 21 12 01 00       	call   14d10 <async_send_fast>
    3aef:	c7 44 24 08 03 00 00 	movl   $0x3,0x8(%esp)
    3af6:	00 
    3af7:	89 c6                	mov    %eax,%esi
    3af9:	8b 45 18             	mov    0x18(%ebp),%eax
    3afc:	89 44 24 04          	mov    %eax,0x4(%esp)
    3b00:	89 1c 24             	mov    %ebx,(%esp)
    3b03:	e8 d8 2e 01 00       	call   169e0 <async_share_out_start>
    3b08:	89 1c 24             	mov    %ebx,(%esp)
    3b0b:	e8 d0 2b 01 00       	call   166e0 <async_exchange_end>
    3b10:	8d 45 f4             	lea    -0xc(%ebp),%eax
    3b13:	89 44 24 04          	mov    %eax,0x4(%esp)
    3b17:	89 34 24             	mov    %esi,(%esp)
    3b1a:	e8 c1 13 01 00       	call   14ee0 <async_wait_for>
    3b1f:	8b 45 f4             	mov    -0xc(%ebp),%eax
    3b22:	83 c4 30             	add    $0x30,%esp
    3b25:	5b                   	pop    %ebx
    3b26:	5e                   	pop    %esi
    3b27:	5d                   	pop    %ebp
    3b28:	c3                   	ret    
    3b29:	8d b4 26 00 00 00 00 	lea    0x0(%esi,%eiz,1),%esi
    3b30:	b8 f2 ff ff ff       	mov    $0xfffffff2,%eax
    3b35:	eb eb                	jmp    3b22 <ahci_read_blocks+0x82>
    3b37:	89 f6                	mov    %esi,%esi
    3b39:	8d bc 27 00 00 00 00 	lea    0x0(%edi,%eiz,1),%edi

00003b40 <ahci_write_blocks>:
    3b40:	55                   	push   %ebp
    3b41:	89 e5                	mov    %esp,%ebp
    3b43:	56                   	push   %esi
    3b44:	53                   	push   %ebx
    3b45:	83 ec 30             	sub    $0x30,%esp
    3b48:	8b 45 08             	mov    0x8(%ebp),%eax
    3b4b:	8b 75 0c             	mov    0xc(%ebp),%esi
    3b4e:	89 04 24             	mov    %eax,(%esp)
    3b51:	e8 1a 28 01 00       	call   16370 <async_exchange_begin>
    3b56:	89 c3                	mov    %eax,%ebx
    3b58:	85 c0                	test   %eax,%eax
    3b5a:	74 74                	je     3bd0 <ahci_write_blocks+0x90>
    3b5c:	8b 45 14             	mov    0x14(%ebp),%eax
    3b5f:	89 74 24 10          	mov    %esi,0x10(%esp)
    3b63:	c7 44 24 18 00 00 00 	movl   $0x0,0x18(%esp)
    3b6a:	00 
    3b6b:	89 44 24 14          	mov    %eax,0x14(%esp)
    3b6f:	c7 44 24 0c 00 00 00 	movl   $0x0,0xc(%esp)
    3b76:	00 
    3b77:	c7 44 24 08 04 00 00 	movl   $0x4,0x8(%esp)
    3b7e:	00 
    3b7f:	c7 44 24 04 0a 04 00 	movl   $0x40a,0x4(%esp)
    3b86:	00 
    3b87:	89 1c 24             	mov    %ebx,(%esp)
    3b8a:	e8 81 11 01 00       	call   14d10 <async_send_fast>
    3b8f:	c7 44 24 08 03 00 00 	movl   $0x3,0x8(%esp)
    3b96:	00 
    3b97:	89 c6                	mov    %eax,%esi
    3b99:	8b 45 18             	mov    0x18(%ebp),%eax
    3b9c:	89 44 24 04          	mov    %eax,0x4(%esp)
    3ba0:	89 1c 24             	mov    %ebx,(%esp)
    3ba3:	e8 38 2e 01 00       	call   169e0 <async_share_out_start>
    3ba8:	89 1c 24             	mov    %ebx,(%esp)
    3bab:	e8 30 2b 01 00       	call   166e0 <async_exchange_end>
    3bb0:	8d 45 f4             	lea    -0xc(%ebp),%eax
    3bb3:	89 44 24 04          	mov    %eax,0x4(%esp)
    3bb7:	89 34 24             	mov    %esi,(%esp)
    3bba:	e8 21 13 01 00       	call   14ee0 <async_wait_for>
    3bbf:	8b 45 f4             	mov    -0xc(%ebp),%eax
    3bc2:	83 c4 30             	add    $0x30,%esp
    3bc5:	5b                   	pop    %ebx
    3bc6:	5e                   	pop    %esi
    3bc7:	5d                   	pop    %ebp
    3bc8:	c3                   	ret    
    3bc9:	8d b4 26 00 00 00 00 	lea    0x0(%esi,%eiz,1),%esi
    3bd0:	b8 f2 ff ff ff       	mov    $0xfffffff2,%eax
    3bd5:	eb eb                	jmp    3bc2 <ahci_write_blocks+0x82>
    3bd7:	66 90                	xchg   %ax,%ax
    3bd9:	66 90                	xchg   %ax,%ax
    3bdb:	66 90                	xchg   %ax,%ax
    3bdd:	66 90                	xchg   %ax,%ax
    3bdf:	90                   	nop

00003be0 <loc_cb_conn>:
    3be0:	55                   	push   %ebp
    3be1:	89 e5                	mov    %esp,%ebp
    3be3:	56                   	push   %esi
    3be4:	53                   	push   %ebx
    3be5:	83 ec 50             	sub    $0x50,%esp
    3be8:	8d 5d d4             	lea    -0x2c(%ebp),%ebx
    3beb:	90                   	nop
    3bec:	8d 74 26 00          	lea    0x0(%esi,%eiz,1),%esi
    3bf0:	c7 44 24 04 00 00 00 	movl   $0x0,0x4(%esp)
    3bf7:	00 
    3bf8:	89 1c 24             	mov    %ebx,(%esp)
    3bfb:	e8 40 07 01 00       	call   14340 <async_get_call_timeout>
    3c00:	8b 55 d4             	mov    -0x2c(%ebp),%edx
    3c03:	85 d2                	test   %edx,%edx
    3c05:	74 61                	je     3c68 <loc_cb_conn+0x88>
    3c07:	81 fa 00 04 00 00    	cmp    $0x400,%edx
    3c0d:	74 19                	je     3c28 <loc_cb_conn+0x48>
    3c0f:	c7 44 24 04 f5 ff ff 	movl   $0xfffffff5,0x4(%esp)
    3c16:	ff 
    3c17:	89 04 24             	mov    %eax,(%esp)
    3c1a:	e8 51 1d 01 00       	call   15970 <async_answer_0>
    3c1f:	eb cf                	jmp    3bf0 <loc_cb_conn+0x10>
    3c21:	8d b4 26 00 00 00 00 	lea    0x0(%esi,%eiz,1),%esi
    3c28:	c7 04 24 9c 2c 02 00 	movl   $0x22c9c,(%esp)
    3c2f:	89 45 c4             	mov    %eax,-0x3c(%ebp)
    3c32:	e8 e9 63 00 00       	call   a020 <fibril_mutex_lock>
    3c37:	c7 04 24 9c 2c 02 00 	movl   $0x22c9c,(%esp)
    3c3e:	8b 35 c8 4e 03 00    	mov    0x34ec8,%esi
    3c44:	e8 f7 64 00 00       	call   a140 <fibril_mutex_unlock>
    3c49:	8b 45 c4             	mov    -0x3c(%ebp),%eax
    3c4c:	c7 44 24 04 00 00 00 	movl   $0x0,0x4(%esp)
    3c53:	00 
    3c54:	89 04 24             	mov    %eax,(%esp)
    3c57:	e8 14 1d 01 00       	call   15970 <async_answer_0>
    3c5c:	85 f6                	test   %esi,%esi
    3c5e:	74 90                	je     3bf0 <loc_cb_conn+0x10>
    3c60:	ff d6                	call   *%esi
    3c62:	eb 8c                	jmp    3bf0 <loc_cb_conn+0x10>
    3c64:	8d 74 26 00          	lea    0x0(%esi,%eiz,1),%esi
    3c68:	83 c4 50             	add    $0x50,%esp
    3c6b:	5b                   	pop    %ebx
    3c6c:	5e                   	pop    %esi
    3c6d:	5d                   	pop    %ebp
    3c6e:	c3                   	ret    
    3c6f:	90                   	nop

00003c70 <loc_exchange_begin.part.0>:
    3c70:	55                   	push   %ebp
    3c71:	89 e5                	mov    %esp,%ebp
    3c73:	83 ec 18             	sub    $0x18,%esp
    3c76:	c7 04 24 6c 2c 02 00 	movl   $0x22c6c,(%esp)
    3c7d:	e8 9e 63 00 00       	call   a020 <fibril_mutex_lock>
    3c82:	a1 b8 4e 03 00       	mov    0x34eb8,%eax
    3c87:	85 c0                	test   %eax,%eax
    3c89:	74 25                	je     3cb0 <loc_exchange_begin.part.0+0x40>
    3c8b:	c7 04 24 6c 2c 02 00 	movl   $0x22c6c,(%esp)
    3c92:	e8 a9 64 00 00       	call   a140 <fibril_mutex_unlock>
    3c97:	a1 b8 4e 03 00       	mov    0x34eb8,%eax
    3c9c:	85 c0                	test   %eax,%eax
    3c9e:	74 40                	je     3ce0 <loc_exchange_begin.part.0+0x70>
    3ca0:	89 04 24             	mov    %eax,(%esp)
    3ca3:	e8 c8 26 01 00       	call   16370 <async_exchange_begin>
    3ca8:	c9                   	leave  
    3ca9:	c3                   	ret    
    3caa:	8d b6 00 00 00 00    	lea    0x0(%esi),%esi
    3cb0:	c7 44 24 0c 00 00 00 	movl   $0x0,0xc(%esp)
    3cb7:	00 
    3cb8:	c7 44 24 08 01 00 00 	movl   $0x1,0x8(%esp)
    3cbf:	00 
    3cc0:	c7 44 24 04 6c 6f 63 	movl   $0x20636f6c,0x4(%esp)
    3cc7:	20 
    3cc8:	c7 04 24 02 00 00 00 	movl   $0x2,(%esp)
    3ccf:	e8 6c f9 00 00       	call   13640 <service_connect>
    3cd4:	a3 b8 4e 03 00       	mov    %eax,0x34eb8
    3cd9:	eb b0                	jmp    3c8b <loc_exchange_begin.part.0+0x1b>
    3cdb:	90                   	nop
    3cdc:	8d 74 26 00          	lea    0x0(%esi,%eiz,1),%esi
    3ce0:	31 c0                	xor    %eax,%eax
    3ce2:	c9                   	leave  
    3ce3:	c3                   	ret    
    3ce4:	8d b6 00 00 00 00    	lea    0x0(%esi),%esi
    3cea:	8d bf 00 00 00 00    	lea    0x0(%edi),%edi

00003cf0 <loc_get_name_internal>:
    3cf0:	55                   	push   %ebp
    3cf1:	89 e5                	mov    %esp,%ebp
    3cf3:	57                   	push   %edi
    3cf4:	56                   	push   %esi
    3cf5:	53                   	push   %ebx
    3cf6:	81 ec 8c 01 00 00    	sub    $0x18c,%esp
    3cfc:	c7 01 00 00 00 00    	movl   $0x0,(%ecx)
    3d02:	89 85 94 fe ff ff    	mov    %eax,-0x16c(%ebp)
    3d08:	89 d7                	mov    %edx,%edi
    3d0a:	c7 04 24 7c 2c 02 00 	movl   $0x22c7c,(%esp)
    3d11:	89 ce                	mov    %ecx,%esi
    3d13:	e8 08 63 00 00       	call   a020 <fibril_mutex_lock>
    3d18:	a1 c4 4e 03 00       	mov    0x34ec4,%eax
    3d1d:	85 c0                	test   %eax,%eax
    3d1f:	75 39                	jne    3d5a <loc_get_name_internal+0x6a>
    3d21:	c7 04 24 8c 2c 02 00 	movl   $0x22c8c,(%esp)
    3d28:	8b 1d c0 4e 03 00    	mov    0x34ec0,%ebx
    3d2e:	e8 ed 62 00 00       	call   a020 <fibril_mutex_lock>
    3d33:	a1 c4 4e 03 00       	mov    0x34ec4,%eax
    3d38:	85 c0                	test   %eax,%eax
    3d3a:	0f 84 40 01 00 00    	je     3e80 <loc_get_name_internal+0x190>
    3d40:	c7 04 24 8c 2c 02 00 	movl   $0x22c8c,(%esp)
    3d47:	e8 f4 63 00 00       	call   a140 <fibril_mutex_unlock>
    3d4c:	8b 1d c4 4e 03 00    	mov    0x34ec4,%ebx
    3d52:	85 db                	test   %ebx,%ebx
    3d54:	0f 84 3e 01 00 00    	je     3e98 <loc_get_name_internal+0x1a8>
    3d5a:	c7 04 24 7c 2c 02 00 	movl   $0x22c7c,(%esp)
    3d61:	e8 da 63 00 00       	call   a140 <fibril_mutex_unlock>
    3d66:	c7 04 24 8c 2c 02 00 	movl   $0x22c8c,(%esp)
    3d6d:	8b 1d c4 4e 03 00    	mov    0x34ec4,%ebx
    3d73:	e8 a8 62 00 00       	call   a020 <fibril_mutex_lock>
    3d78:	8b 0d c0 4e 03 00    	mov    0x34ec0,%ecx
    3d7e:	85 c9                	test   %ecx,%ecx
    3d80:	0f 84 62 01 00 00    	je     3ee8 <loc_get_name_internal+0x1f8>
    3d86:	c7 04 24 8c 2c 02 00 	movl   $0x22c8c,(%esp)
    3d8d:	e8 ae 63 00 00       	call   a140 <fibril_mutex_unlock>
    3d92:	a1 c4 4e 03 00       	mov    0x34ec4,%eax
    3d97:	89 04 24             	mov    %eax,(%esp)
    3d9a:	e8 d1 25 01 00       	call   16370 <async_exchange_begin>
    3d9f:	89 7c 24 08          	mov    %edi,0x8(%esp)
    3da3:	89 c3                	mov    %eax,%ebx
    3da5:	8d 85 c4 fe ff ff    	lea    -0x13c(%ebp),%eax
    3dab:	89 44 24 18          	mov    %eax,0x18(%esp)
    3daf:	8b 85 94 fe ff ff    	mov    -0x16c(%ebp),%eax
    3db5:	c7 44 24 14 00 00 00 	movl   $0x0,0x14(%esp)
    3dbc:	00 
    3dbd:	c7 44 24 10 00 00 00 	movl   $0x0,0x10(%esp)
    3dc4:	00 
    3dc5:	c7 44 24 0c 00 00 00 	movl   $0x0,0xc(%esp)
    3dcc:	00 
    3dcd:	89 44 24 04          	mov    %eax,0x4(%esp)
    3dd1:	89 1c 24             	mov    %ebx,(%esp)
    3dd4:	e8 37 0f 01 00       	call   14d10 <async_send_fast>
    3dd9:	c7 44 24 08 ff 00 00 	movl   $0xff,0x8(%esp)
    3de0:	00 
    3de1:	89 c7                	mov    %eax,%edi
    3de3:	8d 85 a0 fe ff ff    	lea    -0x160(%ebp),%eax
    3de9:	89 44 24 0c          	mov    %eax,0xc(%esp)
    3ded:	8d 85 e8 fe ff ff    	lea    -0x118(%ebp),%eax
    3df3:	89 44 24 04          	mov    %eax,0x4(%esp)
    3df7:	89 1c 24             	mov    %ebx,(%esp)
    3dfa:	e8 61 2e 01 00       	call   16c60 <async_data_read>
    3dff:	8d 8d 98 fe ff ff    	lea    -0x168(%ebp),%ecx
    3e05:	89 4c 24 04          	mov    %ecx,0x4(%esp)
    3e09:	89 04 24             	mov    %eax,(%esp)
    3e0c:	e8 cf 10 01 00       	call   14ee0 <async_wait_for>
    3e11:	89 1c 24             	mov    %ebx,(%esp)
    3e14:	e8 c7 28 01 00       	call   166e0 <async_exchange_end>
    3e19:	8b 95 98 fe ff ff    	mov    -0x168(%ebp),%edx
    3e1f:	85 d2                	test   %edx,%edx
    3e21:	0f 85 a1 00 00 00    	jne    3ec8 <loc_get_name_internal+0x1d8>
    3e27:	8d 85 9c fe ff ff    	lea    -0x164(%ebp),%eax
    3e2d:	89 3c 24             	mov    %edi,(%esp)
    3e30:	89 44 24 04          	mov    %eax,0x4(%esp)
    3e34:	e8 a7 10 01 00       	call   14ee0 <async_wait_for>
    3e39:	8b 85 9c fe ff ff    	mov    -0x164(%ebp),%eax
    3e3f:	85 c0                	test   %eax,%eax
    3e41:	75 31                	jne    3e74 <loc_get_name_internal+0x184>
    3e43:	8b 85 a8 fe ff ff    	mov    -0x158(%ebp),%eax
    3e49:	3d ff 00 00 00       	cmp    $0xff,%eax
    3e4e:	0f 87 a7 00 00 00    	ja     3efb <loc_get_name_internal+0x20b>
    3e54:	c6 84 05 e8 fe ff ff 	movb   $0x0,-0x118(%ebp,%eax,1)
    3e5b:	00 
    3e5c:	8d 85 e8 fe ff ff    	lea    -0x118(%ebp),%eax
    3e62:	89 04 24             	mov    %eax,(%esp)
    3e65:	e8 36 4f 00 00       	call   8da0 <str_dup>
    3e6a:	83 f8 01             	cmp    $0x1,%eax
    3e6d:	89 06                	mov    %eax,(%esi)
    3e6f:	19 c0                	sbb    %eax,%eax
    3e71:	83 e0 fe             	and    $0xfffffffe,%eax
    3e74:	81 c4 8c 01 00 00    	add    $0x18c,%esp
    3e7a:	5b                   	pop    %ebx
    3e7b:	5e                   	pop    %esi
    3e7c:	5f                   	pop    %edi
    3e7d:	5d                   	pop    %ebp
    3e7e:	c3                   	ret    
    3e7f:	90                   	nop
    3e80:	85 db                	test   %ebx,%ebx
    3e82:	0f 84 b8 fe ff ff    	je     3d40 <loc_get_name_internal+0x50>
    3e88:	89 1d c4 4e 03 00    	mov    %ebx,0x34ec4
    3e8e:	e9 ad fe ff ff       	jmp    3d40 <loc_get_name_internal+0x50>
    3e93:	90                   	nop
    3e94:	8d 74 26 00          	lea    0x0(%esi,%eiz,1),%esi
    3e98:	c7 44 24 0c 00 00 00 	movl   $0x0,0xc(%esp)
    3e9f:	00 
    3ea0:	c7 44 24 08 02 00 00 	movl   $0x2,0x8(%esp)
    3ea7:	00 
    3ea8:	c7 44 24 04 6c 6f 63 	movl   $0x20636f6c,0x4(%esp)
    3eaf:	20 
    3eb0:	c7 04 24 02 00 00 00 	movl   $0x2,(%esp)
    3eb7:	e8 04 f8 00 00       	call   136c0 <service_connect_blocking>
    3ebc:	a3 c4 4e 03 00       	mov    %eax,0x34ec4
    3ec1:	e9 57 fe ff ff       	jmp    3d1d <loc_get_name_internal+0x2d>
    3ec6:	66 90                	xchg   %ax,%ax
    3ec8:	89 3c 24             	mov    %edi,(%esp)
    3ecb:	e8 60 12 01 00       	call   15130 <async_forget>
    3ed0:	8b 85 98 fe ff ff    	mov    -0x168(%ebp),%eax
    3ed6:	81 c4 8c 01 00 00    	add    $0x18c,%esp
    3edc:	5b                   	pop    %ebx
    3edd:	5e                   	pop    %esi
    3ede:	5f                   	pop    %edi
    3edf:	5d                   	pop    %ebp
    3ee0:	c3                   	ret    
    3ee1:	8d b4 26 00 00 00 00 	lea    0x0(%esi,%eiz,1),%esi
    3ee8:	85 db                	test   %ebx,%ebx
    3eea:	0f 84 96 fe ff ff    	je     3d86 <loc_get_name_internal+0x96>
    3ef0:	89 1d c0 4e 03 00    	mov    %ebx,0x34ec0
    3ef6:	e9 8b fe ff ff       	jmp    3d86 <loc_get_name_internal+0x96>
    3efb:	c7 44 24 08 9e 01 00 	movl   $0x19e,0x8(%esp)
    3f02:	00 
    3f03:	c7 44 24 04 cc 02 02 	movl   $0x202cc,0x4(%esp)
    3f0a:	00 
    3f0b:	c7 04 24 da 02 02 00 	movl   $0x202da,(%esp)
    3f12:	e8 79 97 01 00       	call   1d690 <assert_abort>
    3f17:	89 f6                	mov    %esi,%esi
    3f19:	8d bc 27 00 00 00 00 	lea    0x0(%edi,%eiz,1),%edi

00003f20 <loc_get_ids_internal>:
    3f20:	55                   	push   %ebp
    3f21:	89 e5                	mov    %esp,%ebp
    3f23:	57                   	push   %edi
    3f24:	56                   	push   %esi
    3f25:	53                   	push   %ebx
    3f26:	83 ec 7c             	sub    $0x7c,%esp
    3f29:	89 55 ac             	mov    %edx,-0x54(%ebp)
    3f2c:	8b 55 08             	mov    0x8(%ebp),%edx
    3f2f:	c7 01 00 00 00 00    	movl   $0x0,(%ecx)
    3f35:	89 45 b0             	mov    %eax,-0x50(%ebp)
    3f38:	89 4d a8             	mov    %ecx,-0x58(%ebp)
    3f3b:	c7 02 00 00 00 00    	movl   $0x0,(%edx)
    3f41:	c7 04 24 7c 2c 02 00 	movl   $0x22c7c,(%esp)
    3f48:	e8 d3 60 00 00       	call   a020 <fibril_mutex_lock>
    3f4d:	a1 c4 4e 03 00       	mov    0x34ec4,%eax
    3f52:	85 c0                	test   %eax,%eax
    3f54:	75 39                	jne    3f8f <loc_get_ids_internal+0x6f>
    3f56:	c7 04 24 8c 2c 02 00 	movl   $0x22c8c,(%esp)
    3f5d:	8b 1d c0 4e 03 00    	mov    0x34ec0,%ebx
    3f63:	e8 b8 60 00 00       	call   a020 <fibril_mutex_lock>
    3f68:	8b 15 c4 4e 03 00    	mov    0x34ec4,%edx
    3f6e:	85 d2                	test   %edx,%edx
    3f70:	0f 84 5a 02 00 00    	je     41d0 <loc_get_ids_internal+0x2b0>
    3f76:	c7 04 24 8c 2c 02 00 	movl   $0x22c8c,(%esp)
    3f7d:	e8 be 61 00 00       	call   a140 <fibril_mutex_unlock>
    3f82:	a1 c4 4e 03 00       	mov    0x34ec4,%eax
    3f87:	85 c0                	test   %eax,%eax
    3f89:	0f 84 59 02 00 00    	je     41e8 <loc_get_ids_internal+0x2c8>
    3f8f:	c7 04 24 7c 2c 02 00 	movl   $0x22c7c,(%esp)
    3f96:	e8 a5 61 00 00       	call   a140 <fibril_mutex_unlock>
    3f9b:	c7 04 24 8c 2c 02 00 	movl   $0x22c8c,(%esp)
    3fa2:	8b 1d c4 4e 03 00    	mov    0x34ec4,%ebx
    3fa8:	e8 73 60 00 00       	call   a020 <fibril_mutex_lock>
    3fad:	a1 c0 4e 03 00       	mov    0x34ec0,%eax
    3fb2:	85 c0                	test   %eax,%eax
    3fb4:	0f 84 d5 02 00 00    	je     428f <loc_get_ids_internal+0x36f>
    3fba:	c7 04 24 8c 2c 02 00 	movl   $0x22c8c,(%esp)
    3fc1:	e8 7a 61 00 00       	call   a140 <fibril_mutex_unlock>
    3fc6:	a1 c4 4e 03 00       	mov    0x34ec4,%eax
    3fcb:	89 04 24             	mov    %eax,(%esp)
    3fce:	e8 9d 23 01 00       	call   16370 <async_exchange_begin>
    3fd3:	8b 55 ac             	mov    -0x54(%ebp),%edx
    3fd6:	89 c6                	mov    %eax,%esi
    3fd8:	8d 45 c4             	lea    -0x3c(%ebp),%eax
    3fdb:	89 44 24 18          	mov    %eax,0x18(%esp)
    3fdf:	8b 45 b0             	mov    -0x50(%ebp),%eax
    3fe2:	89 54 24 08          	mov    %edx,0x8(%esp)
    3fe6:	c7 44 24 14 00 00 00 	movl   $0x0,0x14(%esp)
    3fed:	00 
    3fee:	c7 44 24 10 00 00 00 	movl   $0x0,0x10(%esp)
    3ff5:	00 
    3ff6:	c7 44 24 0c 00 00 00 	movl   $0x0,0xc(%esp)
    3ffd:	00 
    3ffe:	89 44 24 04          	mov    %eax,0x4(%esp)
    4002:	89 34 24             	mov    %esi,(%esp)
    4005:	e8 06 0d 01 00       	call   14d10 <async_send_fast>
    400a:	c7 44 24 08 00 00 00 	movl   $0x0,0x8(%esp)
    4011:	00 
    4012:	c7 44 24 04 00 00 00 	movl   $0x0,0x4(%esp)
    4019:	00 
    401a:	89 34 24             	mov    %esi,(%esp)
    401d:	89 c3                	mov    %eax,%ebx
    401f:	e8 1c 2d 01 00       	call   16d40 <async_data_read_start>
    4024:	89 34 24             	mov    %esi,(%esp)
    4027:	89 c7                	mov    %eax,%edi
    4029:	e8 b2 26 01 00       	call   166e0 <async_exchange_end>
    402e:	85 ff                	test   %edi,%edi
    4030:	0f 85 3d 02 00 00    	jne    4273 <loc_get_ids_internal+0x353>
    4036:	8d 55 c0             	lea    -0x40(%ebp),%edx
    4039:	89 1c 24             	mov    %ebx,(%esp)
    403c:	89 54 24 04          	mov    %edx,0x4(%esp)
    4040:	e8 9b 0e 01 00       	call   14ee0 <async_wait_for>
    4045:	8b 45 c0             	mov    -0x40(%ebp),%eax
    4048:	85 c0                	test   %eax,%eax
    404a:	0f 85 72 01 00 00    	jne    41c2 <loc_get_ids_internal+0x2a2>
    4050:	8b 7d c8             	mov    -0x38(%ebp),%edi
    4053:	89 3c 24             	mov    %edi,(%esp)
    4056:	e8 d5 ed 00 00       	call   12e30 <malloc>
    405b:	89 c6                	mov    %eax,%esi
    405d:	85 c0                	test   %eax,%eax
    405f:	0f 85 0a 01 00 00    	jne    416f <loc_get_ids_internal+0x24f>
    4065:	e9 1b 02 00 00       	jmp    4285 <loc_get_ids_internal+0x365>
    406a:	8d b6 00 00 00 00    	lea    0x0(%esi),%esi
    4070:	c7 04 24 8c 2c 02 00 	movl   $0x22c8c,(%esp)
    4077:	e8 c4 60 00 00       	call   a140 <fibril_mutex_unlock>
    407c:	a1 c4 4e 03 00       	mov    0x34ec4,%eax
    4081:	85 c0                	test   %eax,%eax
    4083:	0f 84 8f 01 00 00    	je     4218 <loc_get_ids_internal+0x2f8>
    4089:	c7 04 24 7c 2c 02 00 	movl   $0x22c7c,(%esp)
    4090:	e8 ab 60 00 00       	call   a140 <fibril_mutex_unlock>
    4095:	c7 04 24 8c 2c 02 00 	movl   $0x22c8c,(%esp)
    409c:	8b 1d c4 4e 03 00    	mov    0x34ec4,%ebx
    40a2:	e8 79 5f 00 00       	call   a020 <fibril_mutex_lock>
    40a7:	a1 c0 4e 03 00       	mov    0x34ec0,%eax
    40ac:	85 c0                	test   %eax,%eax
    40ae:	0f 84 ac 01 00 00    	je     4260 <loc_get_ids_internal+0x340>
    40b4:	c7 04 24 8c 2c 02 00 	movl   $0x22c8c,(%esp)
    40bb:	e8 80 60 00 00       	call   a140 <fibril_mutex_unlock>
    40c0:	a1 c4 4e 03 00       	mov    0x34ec4,%eax
    40c5:	89 04 24             	mov    %eax,(%esp)
    40c8:	e8 a3 22 01 00       	call   16370 <async_exchange_begin>
    40cd:	8b 55 ac             	mov    -0x54(%ebp),%edx
    40d0:	89 c3                	mov    %eax,%ebx
    40d2:	8d 45 c4             	lea    -0x3c(%ebp),%eax
    40d5:	89 44 24 18          	mov    %eax,0x18(%esp)
    40d9:	8b 45 b0             	mov    -0x50(%ebp),%eax
    40dc:	89 54 24 08          	mov    %edx,0x8(%esp)
    40e0:	c7 44 24 14 00 00 00 	movl   $0x0,0x14(%esp)
    40e7:	00 
    40e8:	c7 44 24 10 00 00 00 	movl   $0x0,0x10(%esp)
    40ef:	00 
    40f0:	c7 44 24 0c 00 00 00 	movl   $0x0,0xc(%esp)
    40f7:	00 
    40f8:	89 44 24 04          	mov    %eax,0x4(%esp)
    40fc:	89 1c 24             	mov    %ebx,(%esp)
    40ff:	e8 0c 0c 01 00       	call   14d10 <async_send_fast>
    4104:	89 7c 24 08          	mov    %edi,0x8(%esp)
    4108:	89 74 24 04          	mov    %esi,0x4(%esp)
    410c:	89 1c 24             	mov    %ebx,(%esp)
    410f:	89 45 b4             	mov    %eax,-0x4c(%ebp)
    4112:	e8 29 2c 01 00       	call   16d40 <async_data_read_start>
    4117:	89 1c 24             	mov    %ebx,(%esp)
    411a:	89 45 a4             	mov    %eax,-0x5c(%ebp)
    411d:	e8 be 25 01 00       	call   166e0 <async_exchange_end>
    4122:	8b 45 a4             	mov    -0x5c(%ebp),%eax
    4125:	85 c0                	test   %eax,%eax
    4127:	0f 85 1b 01 00 00    	jne    4248 <loc_get_ids_internal+0x328>
    412d:	8d 55 c0             	lea    -0x40(%ebp),%edx
    4130:	89 45 a4             	mov    %eax,-0x5c(%ebp)
    4133:	89 54 24 04          	mov    %edx,0x4(%esp)
    4137:	8b 55 b4             	mov    -0x4c(%ebp),%edx
    413a:	89 14 24             	mov    %edx,(%esp)
    413d:	e8 9e 0d 01 00       	call   14ee0 <async_wait_for>
    4142:	8b 55 c0             	mov    -0x40(%ebp),%edx
    4145:	85 d2                	test   %edx,%edx
    4147:	8b 45 a4             	mov    -0x5c(%ebp),%eax
    414a:	75 74                	jne    41c0 <loc_get_ids_internal+0x2a0>
    414c:	8b 5d c8             	mov    -0x38(%ebp),%ebx
    414f:	39 df                	cmp    %ebx,%edi
    4151:	0f 83 4b 01 00 00    	jae    42a2 <loc_get_ids_internal+0x382>
    4157:	89 34 24             	mov    %esi,(%esp)
    415a:	89 5c 24 04          	mov    %ebx,0x4(%esp)
    415e:	e8 2d f0 00 00       	call   13190 <realloc>
    4163:	89 df                	mov    %ebx,%edi
    4165:	89 c6                	mov    %eax,%esi
    4167:	85 c0                	test   %eax,%eax
    4169:	0f 84 16 01 00 00    	je     4285 <loc_get_ids_internal+0x365>
    416f:	c7 04 24 7c 2c 02 00 	movl   $0x22c7c,(%esp)
    4176:	e8 a5 5e 00 00       	call   a020 <fibril_mutex_lock>
    417b:	a1 c4 4e 03 00       	mov    0x34ec4,%eax
    4180:	85 c0                	test   %eax,%eax
    4182:	0f 85 01 ff ff ff    	jne    4089 <loc_get_ids_internal+0x169>
    4188:	c7 04 24 8c 2c 02 00 	movl   $0x22c8c,(%esp)
    418f:	8b 1d c0 4e 03 00    	mov    0x34ec0,%ebx
    4195:	e8 86 5e 00 00       	call   a020 <fibril_mutex_lock>
    419a:	a1 c4 4e 03 00       	mov    0x34ec4,%eax
    419f:	85 c0                	test   %eax,%eax
    41a1:	0f 85 c9 fe ff ff    	jne    4070 <loc_get_ids_internal+0x150>
    41a7:	85 db                	test   %ebx,%ebx
    41a9:	0f 84 c1 fe ff ff    	je     4070 <loc_get_ids_internal+0x150>
    41af:	89 1d c4 4e 03 00    	mov    %ebx,0x34ec4
    41b5:	e9 b6 fe ff ff       	jmp    4070 <loc_get_ids_internal+0x150>
    41ba:	8d b6 00 00 00 00    	lea    0x0(%esi),%esi
    41c0:	89 d0                	mov    %edx,%eax
    41c2:	89 c7                	mov    %eax,%edi
    41c4:	83 c4 7c             	add    $0x7c,%esp
    41c7:	89 f8                	mov    %edi,%eax
    41c9:	5b                   	pop    %ebx
    41ca:	5e                   	pop    %esi
    41cb:	5f                   	pop    %edi
    41cc:	5d                   	pop    %ebp
    41cd:	c3                   	ret    
    41ce:	66 90                	xchg   %ax,%ax
    41d0:	85 db                	test   %ebx,%ebx
    41d2:	0f 84 9e fd ff ff    	je     3f76 <loc_get_ids_internal+0x56>
    41d8:	89 1d c4 4e 03 00    	mov    %ebx,0x34ec4
    41de:	e9 93 fd ff ff       	jmp    3f76 <loc_get_ids_internal+0x56>
    41e3:	90                   	nop
    41e4:	8d 74 26 00          	lea    0x0(%esi,%eiz,1),%esi
    41e8:	c7 44 24 0c 00 00 00 	movl   $0x0,0xc(%esp)
    41ef:	00 
    41f0:	c7 44 24 08 02 00 00 	movl   $0x2,0x8(%esp)
    41f7:	00 
    41f8:	c7 44 24 04 6c 6f 63 	movl   $0x20636f6c,0x4(%esp)
    41ff:	20 
    4200:	c7 04 24 02 00 00 00 	movl   $0x2,(%esp)
    4207:	e8 b4 f4 00 00       	call   136c0 <service_connect_blocking>
    420c:	a3 c4 4e 03 00       	mov    %eax,0x34ec4
    4211:	e9 3c fd ff ff       	jmp    3f52 <loc_get_ids_internal+0x32>
    4216:	66 90                	xchg   %ax,%ax
    4218:	c7 44 24 0c 00 00 00 	movl   $0x0,0xc(%esp)
    421f:	00 
    4220:	c7 44 24 08 02 00 00 	movl   $0x2,0x8(%esp)
    4227:	00 
    4228:	c7 44 24 04 6c 6f 63 	movl   $0x20636f6c,0x4(%esp)
    422f:	20 
    4230:	c7 04 24 02 00 00 00 	movl   $0x2,(%esp)
    4237:	e8 84 f4 00 00       	call   136c0 <service_connect_blocking>
    423c:	a3 c4 4e 03 00       	mov    %eax,0x34ec4
    4241:	e9 3a ff ff ff       	jmp    4180 <loc_get_ids_internal+0x260>
    4246:	66 90                	xchg   %ax,%ax
    4248:	89 c7                	mov    %eax,%edi
    424a:	8b 45 b4             	mov    -0x4c(%ebp),%eax
    424d:	89 04 24             	mov    %eax,(%esp)
    4250:	e8 db 0e 01 00       	call   15130 <async_forget>
    4255:	83 c4 7c             	add    $0x7c,%esp
    4258:	89 f8                	mov    %edi,%eax
    425a:	5b                   	pop    %ebx
    425b:	5e                   	pop    %esi
    425c:	5f                   	pop    %edi
    425d:	5d                   	pop    %ebp
    425e:	c3                   	ret    
    425f:	90                   	nop
    4260:	85 db                	test   %ebx,%ebx
    4262:	0f 84 4c fe ff ff    	je     40b4 <loc_get_ids_internal+0x194>
    4268:	89 1d c0 4e 03 00    	mov    %ebx,0x34ec0
    426e:	e9 41 fe ff ff       	jmp    40b4 <loc_get_ids_internal+0x194>
    4273:	89 1c 24             	mov    %ebx,(%esp)
    4276:	e8 b5 0e 01 00       	call   15130 <async_forget>
    427b:	83 c4 7c             	add    $0x7c,%esp
    427e:	89 f8                	mov    %edi,%eax
    4280:	5b                   	pop    %ebx
    4281:	5e                   	pop    %esi
    4282:	5f                   	pop    %edi
    4283:	5d                   	pop    %ebp
    4284:	c3                   	ret    
    4285:	bf fe ff ff ff       	mov    $0xfffffffe,%edi
    428a:	e9 35 ff ff ff       	jmp    41c4 <loc_get_ids_internal+0x2a4>
    428f:	85 db                	test   %ebx,%ebx
    4291:	0f 84 23 fd ff ff    	je     3fba <loc_get_ids_internal+0x9a>
    4297:	89 1d c0 4e 03 00    	mov    %ebx,0x34ec0
    429d:	e9 18 fd ff ff       	jmp    3fba <loc_get_ids_internal+0x9a>
    42a2:	89 c7                	mov    %eax,%edi
    42a4:	8b 55 08             	mov    0x8(%ebp),%edx
    42a7:	c1 eb 02             	shr    $0x2,%ebx
    42aa:	8b 45 a8             	mov    -0x58(%ebp),%eax
    42ad:	89 1a                	mov    %ebx,(%edx)
    42af:	89 30                	mov    %esi,(%eax)
    42b1:	e9 0e ff ff ff       	jmp    41c4 <loc_get_ids_internal+0x2a4>
    42b6:	8d 76 00             	lea    0x0(%esi),%esi
    42b9:	8d bc 27 00 00 00 00 	lea    0x0(%edi,%eiz,1),%edi

000042c0 <loc_exchange_begin_blocking>:
    42c0:	55                   	push   %ebp
    42c1:	89 e5                	mov    %esp,%ebp
    42c3:	53                   	push   %ebx
    42c4:	83 ec 14             	sub    $0x14,%esp
    42c7:	8b 45 08             	mov    0x8(%ebp),%eax
    42ca:	83 f8 01             	cmp    $0x1,%eax
    42cd:	74 11                	je     42e0 <loc_exchange_begin_blocking+0x20>
    42cf:	83 f8 02             	cmp    $0x2,%eax
    42d2:	0f 84 b0 00 00 00    	je     4388 <loc_exchange_begin_blocking+0xc8>
    42d8:	83 c4 14             	add    $0x14,%esp
    42db:	31 c0                	xor    %eax,%eax
    42dd:	5b                   	pop    %ebx
    42de:	5d                   	pop    %ebp
    42df:	c3                   	ret    
    42e0:	c7 04 24 5c 2c 02 00 	movl   $0x22c5c,(%esp)
    42e7:	e8 34 5d 00 00       	call   a020 <fibril_mutex_lock>
    42ec:	a1 bc 4e 03 00       	mov    0x34ebc,%eax
    42f1:	85 c0                	test   %eax,%eax
    42f3:	75 34                	jne    4329 <loc_exchange_begin_blocking+0x69>
    42f5:	c7 04 24 6c 2c 02 00 	movl   $0x22c6c,(%esp)
    42fc:	8b 1d b8 4e 03 00    	mov    0x34eb8,%ebx
    4302:	e8 19 5d 00 00       	call   a020 <fibril_mutex_lock>
    4307:	a1 bc 4e 03 00       	mov    0x34ebc,%eax
    430c:	85 c0                	test   %eax,%eax
    430e:	74 68                	je     4378 <loc_exchange_begin_blocking+0xb8>
    4310:	c7 04 24 6c 2c 02 00 	movl   $0x22c6c,(%esp)
    4317:	e8 24 5e 00 00       	call   a140 <fibril_mutex_unlock>
    431c:	a1 bc 4e 03 00       	mov    0x34ebc,%eax
    4321:	85 c0                	test   %eax,%eax
    4323:	0f 84 07 01 00 00    	je     4430 <loc_exchange_begin_blocking+0x170>
    4329:	c7 04 24 5c 2c 02 00 	movl   $0x22c5c,(%esp)
    4330:	e8 0b 5e 00 00       	call   a140 <fibril_mutex_unlock>
    4335:	c7 04 24 6c 2c 02 00 	movl   $0x22c6c,(%esp)
    433c:	8b 1d bc 4e 03 00    	mov    0x34ebc,%ebx
    4342:	e8 d9 5c 00 00       	call   a020 <fibril_mutex_lock>
    4347:	a1 b8 4e 03 00       	mov    0x34eb8,%eax
    434c:	85 c0                	test   %eax,%eax
    434e:	0f 84 3c 01 00 00    	je     4490 <loc_exchange_begin_blocking+0x1d0>
    4354:	c7 04 24 6c 2c 02 00 	movl   $0x22c6c,(%esp)
    435b:	e8 e0 5d 00 00       	call   a140 <fibril_mutex_unlock>
    4360:	a1 bc 4e 03 00       	mov    0x34ebc,%eax
    4365:	89 45 08             	mov    %eax,0x8(%ebp)
    4368:	83 c4 14             	add    $0x14,%esp
    436b:	5b                   	pop    %ebx
    436c:	5d                   	pop    %ebp
    436d:	e9 fe 1f 01 00       	jmp    16370 <async_exchange_begin>
    4372:	8d b6 00 00 00 00    	lea    0x0(%esi),%esi
    4378:	85 db                	test   %ebx,%ebx
    437a:	74 94                	je     4310 <loc_exchange_begin_blocking+0x50>
    437c:	89 1d bc 4e 03 00    	mov    %ebx,0x34ebc
    4382:	eb 8c                	jmp    4310 <loc_exchange_begin_blocking+0x50>
    4384:	8d 74 26 00          	lea    0x0(%esi,%eiz,1),%esi
    4388:	c7 04 24 7c 2c 02 00 	movl   $0x22c7c,(%esp)
    438f:	e8 8c 5c 00 00       	call   a020 <fibril_mutex_lock>
    4394:	a1 c4 4e 03 00       	mov    0x34ec4,%eax
    4399:	85 c0                	test   %eax,%eax
    439b:	75 35                	jne    43d2 <loc_exchange_begin_blocking+0x112>
    439d:	c7 04 24 8c 2c 02 00 	movl   $0x22c8c,(%esp)
    43a4:	8b 1d c0 4e 03 00    	mov    0x34ec0,%ebx
    43aa:	e8 71 5c 00 00       	call   a020 <fibril_mutex_lock>
    43af:	a1 c4 4e 03 00       	mov    0x34ec4,%eax
    43b4:	85 c0                	test   %eax,%eax
    43b6:	74 68                	je     4420 <loc_exchange_begin_blocking+0x160>
    43b8:	c7 04 24 8c 2c 02 00 	movl   $0x22c8c,(%esp)
    43bf:	e8 7c 5d 00 00       	call   a140 <fibril_mutex_unlock>
    43c4:	8b 1d c4 4e 03 00    	mov    0x34ec4,%ebx
    43ca:	85 db                	test   %ebx,%ebx
    43cc:	0f 84 8e 00 00 00    	je     4460 <loc_exchange_begin_blocking+0x1a0>
    43d2:	c7 04 24 7c 2c 02 00 	movl   $0x22c7c,(%esp)
    43d9:	e8 62 5d 00 00       	call   a140 <fibril_mutex_unlock>
    43de:	c7 04 24 8c 2c 02 00 	movl   $0x22c8c,(%esp)
    43e5:	8b 1d c4 4e 03 00    	mov    0x34ec4,%ebx
    43eb:	e8 30 5c 00 00       	call   a020 <fibril_mutex_lock>
    43f0:	8b 0d c0 4e 03 00    	mov    0x34ec0,%ecx
    43f6:	85 c9                	test   %ecx,%ecx
    43f8:	0f 84 aa 00 00 00    	je     44a8 <loc_exchange_begin_blocking+0x1e8>
    43fe:	c7 04 24 8c 2c 02 00 	movl   $0x22c8c,(%esp)
    4405:	e8 36 5d 00 00       	call   a140 <fibril_mutex_unlock>
    440a:	a1 c4 4e 03 00       	mov    0x34ec4,%eax
    440f:	89 45 08             	mov    %eax,0x8(%ebp)
    4412:	83 c4 14             	add    $0x14,%esp
    4415:	5b                   	pop    %ebx
    4416:	5d                   	pop    %ebp
    4417:	e9 54 1f 01 00       	jmp    16370 <async_exchange_begin>
    441c:	8d 74 26 00          	lea    0x0(%esi,%eiz,1),%esi
    4420:	85 db                	test   %ebx,%ebx
    4422:	74 94                	je     43b8 <loc_exchange_begin_blocking+0xf8>
    4424:	89 1d c4 4e 03 00    	mov    %ebx,0x34ec4
    442a:	eb 8c                	jmp    43b8 <loc_exchange_begin_blocking+0xf8>
    442c:	8d 74 26 00          	lea    0x0(%esi,%eiz,1),%esi
    4430:	c7 44 24 0c 00 00 00 	movl   $0x0,0xc(%esp)
    4437:	00 
    4438:	c7 44 24 08 01 00 00 	movl   $0x1,0x8(%esp)
    443f:	00 
    4440:	c7 44 24 04 6c 6f 63 	movl   $0x20636f6c,0x4(%esp)
    4447:	20 
    4448:	c7 04 24 02 00 00 00 	movl   $0x2,(%esp)
    444f:	e8 6c f2 00 00       	call   136c0 <service_connect_blocking>
    4454:	a3 bc 4e 03 00       	mov    %eax,0x34ebc
    4459:	e9 93 fe ff ff       	jmp    42f1 <loc_exchange_begin_blocking+0x31>
    445e:	66 90                	xchg   %ax,%ax
    4460:	c7 44 24 0c 00 00 00 	movl   $0x0,0xc(%esp)
    4467:	00 
    4468:	c7 44 24 08 02 00 00 	movl   $0x2,0x8(%esp)
    446f:	00 
    4470:	c7 44 24 04 6c 6f 63 	movl   $0x20636f6c,0x4(%esp)
    4477:	20 
    4478:	c7 04 24 02 00 00 00 	movl   $0x2,(%esp)
    447f:	e8 3c f2 00 00       	call   136c0 <service_connect_blocking>
    4484:	a3 c4 4e 03 00       	mov    %eax,0x34ec4
    4489:	e9 0b ff ff ff       	jmp    4399 <loc_exchange_begin_blocking+0xd9>
    448e:	66 90                	xchg   %ax,%ax
    4490:	85 db                	test   %ebx,%ebx
    4492:	0f 84 bc fe ff ff    	je     4354 <loc_exchange_begin_blocking+0x94>
    4498:	89 1d b8 4e 03 00    	mov    %ebx,0x34eb8
    449e:	e9 b1 fe ff ff       	jmp    4354 <loc_exchange_begin_blocking+0x94>
    44a3:	90                   	nop
    44a4:	8d 74 26 00          	lea    0x0(%esi,%eiz,1),%esi
    44a8:	85 db                	test   %ebx,%ebx
    44aa:	0f 84 4e ff ff ff    	je     43fe <loc_exchange_begin_blocking+0x13e>
    44b0:	89 1d c0 4e 03 00    	mov    %ebx,0x34ec0
    44b6:	e9 43 ff ff ff       	jmp    43fe <loc_exchange_begin_blocking+0x13e>
    44bb:	90                   	nop
    44bc:	8d 74 26 00          	lea    0x0(%esi,%eiz,1),%esi

000044c0 <loc_exchange_begin>:
    44c0:	55                   	push   %ebp
    44c1:	89 e5                	mov    %esp,%ebp
    44c3:	83 ec 18             	sub    $0x18,%esp
    44c6:	8b 45 08             	mov    0x8(%ebp),%eax
    44c9:	83 f8 01             	cmp    $0x1,%eax
    44cc:	74 0a                	je     44d8 <loc_exchange_begin+0x18>
    44ce:	83 f8 02             	cmp    $0x2,%eax
    44d1:	74 3d                	je     4510 <loc_exchange_begin+0x50>
    44d3:	31 c0                	xor    %eax,%eax
    44d5:	c9                   	leave  
    44d6:	c3                   	ret    
    44d7:	90                   	nop
    44d8:	c7 04 24 6c 2c 02 00 	movl   $0x22c6c,(%esp)
    44df:	e8 3c 5b 00 00       	call   a020 <fibril_mutex_lock>
    44e4:	a1 b8 4e 03 00       	mov    0x34eb8,%eax
    44e9:	85 c0                	test   %eax,%eax
    44eb:	74 5b                	je     4548 <loc_exchange_begin+0x88>
    44ed:	c7 04 24 6c 2c 02 00 	movl   $0x22c6c,(%esp)
    44f4:	e8 47 5c 00 00       	call   a140 <fibril_mutex_unlock>
    44f9:	a1 b8 4e 03 00       	mov    0x34eb8,%eax
    44fe:	85 c0                	test   %eax,%eax
    4500:	74 d1                	je     44d3 <loc_exchange_begin+0x13>
    4502:	89 45 08             	mov    %eax,0x8(%ebp)
    4505:	c9                   	leave  
    4506:	e9 65 1e 01 00       	jmp    16370 <async_exchange_begin>
    450b:	90                   	nop
    450c:	8d 74 26 00          	lea    0x0(%esi,%eiz,1),%esi
    4510:	c7 04 24 8c 2c 02 00 	movl   $0x22c8c,(%esp)
    4517:	e8 04 5b 00 00       	call   a020 <fibril_mutex_lock>
    451c:	a1 c0 4e 03 00       	mov    0x34ec0,%eax
    4521:	85 c0                	test   %eax,%eax
    4523:	74 53                	je     4578 <loc_exchange_begin+0xb8>
    4525:	c7 04 24 8c 2c 02 00 	movl   $0x22c8c,(%esp)
    452c:	e8 0f 5c 00 00       	call   a140 <fibril_mutex_unlock>
    4531:	a1 c0 4e 03 00       	mov    0x34ec0,%eax
    4536:	85 c0                	test   %eax,%eax
    4538:	74 99                	je     44d3 <loc_exchange_begin+0x13>
    453a:	89 45 08             	mov    %eax,0x8(%ebp)
    453d:	c9                   	leave  
    453e:	e9 2d 1e 01 00       	jmp    16370 <async_exchange_begin>
    4543:	90                   	nop
    4544:	8d 74 26 00          	lea    0x0(%esi,%eiz,1),%esi
    4548:	c7 44 24 0c 00 00 00 	movl   $0x0,0xc(%esp)
    454f:	00 
    4550:	c7 44 24 08 01 00 00 	movl   $0x1,0x8(%esp)
    4557:	00 
    4558:	c7 44 24 04 6c 6f 63 	movl   $0x20636f6c,0x4(%esp)
    455f:	20 
    4560:	c7 04 24 02 00 00 00 	movl   $0x2,(%esp)
    4567:	e8 d4 f0 00 00       	call   13640 <service_connect>
    456c:	a3 b8 4e 03 00       	mov    %eax,0x34eb8
    4571:	e9 77 ff ff ff       	jmp    44ed <loc_exchange_begin+0x2d>
    4576:	66 90                	xchg   %ax,%ax
    4578:	c7 44 24 0c 00 00 00 	movl   $0x0,0xc(%esp)
    457f:	00 
    4580:	c7 44 24 08 02 00 00 	movl   $0x2,0x8(%esp)
    4587:	00 
    4588:	c7 44 24 04 6c 6f 63 	movl   $0x20636f6c,0x4(%esp)
    458f:	20 
    4590:	c7 04 24 02 00 00 00 	movl   $0x2,(%esp)
    4597:	e8 a4 f0 00 00       	call   13640 <service_connect>
    459c:	a3 c0 4e 03 00       	mov    %eax,0x34ec0
    45a1:	eb 82                	jmp    4525 <loc_exchange_begin+0x65>
    45a3:	8d b6 00 00 00 00    	lea    0x0(%esi),%esi
    45a9:	8d bc 27 00 00 00 00 	lea    0x0(%edi,%eiz,1),%edi

000045b0 <loc_exchange_end>:
    45b0:	55                   	push   %ebp
    45b1:	89 e5                	mov    %esp,%ebp
    45b3:	5d                   	pop    %ebp
    45b4:	e9 27 21 01 00       	jmp    166e0 <async_exchange_end>
    45b9:	8d b4 26 00 00 00 00 	lea    0x0(%esi,%eiz,1),%esi

000045c0 <loc_server_register>:
    45c0:	55                   	push   %ebp
    45c1:	89 e5                	mov    %esp,%ebp
    45c3:	57                   	push   %edi
    45c4:	56                   	push   %esi
    45c5:	53                   	push   %ebx
    45c6:	83 ec 5c             	sub    $0x5c,%esp
    45c9:	8b 75 08             	mov    0x8(%ebp),%esi
    45cc:	c7 04 24 5c 2c 02 00 	movl   $0x22c5c,(%esp)
    45d3:	e8 48 5a 00 00       	call   a020 <fibril_mutex_lock>
    45d8:	a1 bc 4e 03 00       	mov    0x34ebc,%eax
    45dd:	85 c0                	test   %eax,%eax
    45df:	75 38                	jne    4619 <loc_server_register+0x59>
    45e1:	c7 04 24 6c 2c 02 00 	movl   $0x22c6c,(%esp)
    45e8:	8b 1d b8 4e 03 00    	mov    0x34eb8,%ebx
    45ee:	e8 2d 5a 00 00       	call   a020 <fibril_mutex_lock>
    45f3:	a1 bc 4e 03 00       	mov    0x34ebc,%eax
    45f8:	85 c0                	test   %eax,%eax
    45fa:	0f 84 58 01 00 00    	je     4758 <loc_server_register+0x198>
    4600:	c7 04 24 6c 2c 02 00 	movl   $0x22c6c,(%esp)
    4607:	e8 34 5b 00 00       	call   a140 <fibril_mutex_unlock>
    460c:	a1 bc 4e 03 00       	mov    0x34ebc,%eax
    4611:	85 c0                	test   %eax,%eax
    4613:	0f 84 57 01 00 00    	je     4770 <loc_server_register+0x1b0>
    4619:	c7 04 24 5c 2c 02 00 	movl   $0x22c5c,(%esp)
    4620:	e8 1b 5b 00 00       	call   a140 <fibril_mutex_unlock>
    4625:	c7 04 24 6c 2c 02 00 	movl   $0x22c6c,(%esp)
    462c:	8b 1d bc 4e 03 00    	mov    0x34ebc,%ebx
    4632:	e8 e9 59 00 00       	call   a020 <fibril_mutex_lock>
    4637:	8b 3d b8 4e 03 00    	mov    0x34eb8,%edi
    463d:	85 ff                	test   %edi,%edi
    463f:	0f 84 73 01 00 00    	je     47b8 <loc_server_register+0x1f8>
    4645:	c7 04 24 6c 2c 02 00 	movl   $0x22c6c,(%esp)
    464c:	e8 ef 5a 00 00       	call   a140 <fibril_mutex_unlock>
    4651:	a1 bc 4e 03 00       	mov    0x34ebc,%eax
    4656:	89 04 24             	mov    %eax,(%esp)
    4659:	e8 12 1d 01 00       	call   16370 <async_exchange_begin>
    465e:	c7 44 24 14 00 00 00 	movl   $0x0,0x14(%esp)
    4665:	00 
    4666:	89 c3                	mov    %eax,%ebx
    4668:	8d 45 c4             	lea    -0x3c(%ebp),%eax
    466b:	89 44 24 18          	mov    %eax,0x18(%esp)
    466f:	c7 44 24 10 00 00 00 	movl   $0x0,0x10(%esp)
    4676:	00 
    4677:	c7 44 24 0c 00 00 00 	movl   $0x0,0xc(%esp)
    467e:	00 
    467f:	c7 44 24 08 00 00 00 	movl   $0x0,0x8(%esp)
    4686:	00 
    4687:	c7 44 24 04 00 04 00 	movl   $0x400,0x4(%esp)
    468e:	00 
    468f:	89 1c 24             	mov    %ebx,(%esp)
    4692:	e8 79 06 01 00       	call   14d10 <async_send_fast>
    4697:	89 34 24             	mov    %esi,(%esp)
    469a:	89 c7                	mov    %eax,%edi
    469c:	e8 5f 27 00 00       	call   6e00 <str_size>
    46a1:	89 74 24 04          	mov    %esi,0x4(%esp)
    46a5:	89 44 24 08          	mov    %eax,0x8(%esp)
    46a9:	89 1c 24             	mov    %ebx,(%esp)
    46ac:	e8 af 2b 01 00       	call   17260 <async_data_write_start>
    46b1:	89 1c 24             	mov    %ebx,(%esp)
    46b4:	89 45 c0             	mov    %eax,-0x40(%ebp)
    46b7:	e8 24 20 01 00       	call   166e0 <async_exchange_end>
    46bc:	8b 4d c0             	mov    -0x40(%ebp),%ecx
    46bf:	85 c9                	test   %ecx,%ecx
    46c1:	0f 85 d9 00 00 00    	jne    47a0 <loc_server_register+0x1e0>
    46c7:	c7 04 24 6c 2c 02 00 	movl   $0x22c6c,(%esp)
    46ce:	e8 4d 59 00 00       	call   a020 <fibril_mutex_lock>
    46d3:	8b 15 b8 4e 03 00    	mov    0x34eb8,%edx
    46d9:	85 d2                	test   %edx,%edx
    46db:	0f 84 ea 00 00 00    	je     47cb <loc_server_register+0x20b>
    46e1:	c7 04 24 6c 2c 02 00 	movl   $0x22c6c,(%esp)
    46e8:	e8 53 5a 00 00       	call   a140 <fibril_mutex_unlock>
    46ed:	a1 b8 4e 03 00       	mov    0x34eb8,%eax
    46f2:	85 c0                	test   %eax,%eax
    46f4:	0f 84 ff 00 00 00    	je     47f9 <loc_server_register+0x239>
    46fa:	89 04 24             	mov    %eax,(%esp)
    46fd:	e8 6e 1c 01 00       	call   16370 <async_exchange_begin>
    4702:	89 c3                	mov    %eax,%ebx
    4704:	89 1c 24             	mov    %ebx,(%esp)
    4707:	c7 44 24 14 00 00 00 	movl   $0x0,0x14(%esp)
    470e:	00 
    470f:	c7 44 24 10 00 00 00 	movl   $0x0,0x10(%esp)
    4716:	00 
    4717:	c7 44 24 0c 00 00 00 	movl   $0x0,0xc(%esp)
    471e:	00 
    471f:	c7 44 24 08 00 00 00 	movl   $0x0,0x8(%esp)
    4726:	00 
    4727:	c7 44 24 04 00 00 00 	movl   $0x0,0x4(%esp)
    472e:	00 
    472f:	e8 dc 13 01 00       	call   15b10 <async_connect_to_me>
    4734:	89 1c 24             	mov    %ebx,(%esp)
    4737:	e8 a4 1f 01 00       	call   166e0 <async_exchange_end>
    473c:	8d 45 c0             	lea    -0x40(%ebp),%eax
    473f:	89 44 24 04          	mov    %eax,0x4(%esp)
    4743:	89 3c 24             	mov    %edi,(%esp)
    4746:	e8 95 07 01 00       	call   14ee0 <async_wait_for>
    474b:	8b 45 c0             	mov    -0x40(%ebp),%eax
    474e:	83 c4 5c             	add    $0x5c,%esp
    4751:	5b                   	pop    %ebx
    4752:	5e                   	pop    %esi
    4753:	5f                   	pop    %edi
    4754:	5d                   	pop    %ebp
    4755:	c3                   	ret    
    4756:	66 90                	xchg   %ax,%ax
    4758:	85 db                	test   %ebx,%ebx
    475a:	0f 84 a0 fe ff ff    	je     4600 <loc_server_register+0x40>
    4760:	89 1d bc 4e 03 00    	mov    %ebx,0x34ebc
    4766:	e9 95 fe ff ff       	jmp    4600 <loc_server_register+0x40>
    476b:	90                   	nop
    476c:	8d 74 26 00          	lea    0x0(%esi,%eiz,1),%esi
    4770:	c7 44 24 0c 00 00 00 	movl   $0x0,0xc(%esp)
    4777:	00 
    4778:	c7 44 24 08 01 00 00 	movl   $0x1,0x8(%esp)
    477f:	00 
    4780:	c7 44 24 04 6c 6f 63 	movl   $0x20636f6c,0x4(%esp)
    4787:	20 
    4788:	c7 04 24 02 00 00 00 	movl   $0x2,(%esp)
    478f:	e8 2c ef 00 00       	call   136c0 <service_connect_blocking>
    4794:	a3 bc 4e 03 00       	mov    %eax,0x34ebc
    4799:	e9 3f fe ff ff       	jmp    45dd <loc_server_register+0x1d>
    479e:	66 90                	xchg   %ax,%ax
    47a0:	89 3c 24             	mov    %edi,(%esp)
    47a3:	e8 88 09 01 00       	call   15130 <async_forget>
    47a8:	8b 45 c0             	mov    -0x40(%ebp),%eax
    47ab:	83 c4 5c             	add    $0x5c,%esp
    47ae:	5b                   	pop    %ebx
    47af:	5e                   	pop    %esi
    47b0:	5f                   	pop    %edi
    47b1:	5d                   	pop    %ebp
    47b2:	c3                   	ret    
    47b3:	90                   	nop
    47b4:	8d 74 26 00          	lea    0x0(%esi,%eiz,1),%esi
    47b8:	85 db                	test   %ebx,%ebx
    47ba:	0f 84 85 fe ff ff    	je     4645 <loc_server_register+0x85>
    47c0:	89 1d b8 4e 03 00    	mov    %ebx,0x34eb8
    47c6:	e9 7a fe ff ff       	jmp    4645 <loc_server_register+0x85>
    47cb:	c7 44 24 0c 00 00 00 	movl   $0x0,0xc(%esp)
    47d2:	00 
    47d3:	c7 44 24 08 01 00 00 	movl   $0x1,0x8(%esp)
    47da:	00 
    47db:	c7 44 24 04 6c 6f 63 	movl   $0x20636f6c,0x4(%esp)
    47e2:	20 
    47e3:	c7 04 24 02 00 00 00 	movl   $0x2,(%esp)
    47ea:	e8 51 ee 00 00       	call   13640 <service_connect>
    47ef:	a3 b8 4e 03 00       	mov    %eax,0x34eb8
    47f4:	e9 e8 fe ff ff       	jmp    46e1 <loc_server_register+0x121>
    47f9:	31 db                	xor    %ebx,%ebx
    47fb:	e9 04 ff ff ff       	jmp    4704 <loc_server_register+0x144>

00004800 <loc_service_register_with_iface>:
    4800:	55                   	push   %ebp
    4801:	89 e5                	mov    %esp,%ebp
    4803:	57                   	push   %edi
    4804:	56                   	push   %esi
    4805:	53                   	push   %ebx
    4806:	83 ec 5c             	sub    $0x5c,%esp
    4809:	8b 75 08             	mov    0x8(%ebp),%esi
    480c:	c7 04 24 5c 2c 02 00 	movl   $0x22c5c,(%esp)
    4813:	e8 08 58 00 00       	call   a020 <fibril_mutex_lock>
    4818:	a1 bc 4e 03 00       	mov    0x34ebc,%eax
    481d:	85 c0                	test   %eax,%eax
    481f:	75 38                	jne    4859 <loc_service_register_with_iface+0x59>
    4821:	c7 04 24 6c 2c 02 00 	movl   $0x22c6c,(%esp)
    4828:	8b 1d b8 4e 03 00    	mov    0x34eb8,%ebx
    482e:	e8 ed 57 00 00       	call   a020 <fibril_mutex_lock>
    4833:	a1 bc 4e 03 00       	mov    0x34ebc,%eax
    4838:	85 c0                	test   %eax,%eax
    483a:	0f 84 f8 00 00 00    	je     4938 <loc_service_register_with_iface+0x138>
    4840:	c7 04 24 6c 2c 02 00 	movl   $0x22c6c,(%esp)
    4847:	e8 f4 58 00 00       	call   a140 <fibril_mutex_unlock>
    484c:	a1 bc 4e 03 00       	mov    0x34ebc,%eax
    4851:	85 c0                	test   %eax,%eax
    4853:	0f 84 f7 00 00 00    	je     4950 <loc_service_register_with_iface+0x150>
    4859:	c7 04 24 5c 2c 02 00 	movl   $0x22c5c,(%esp)
    4860:	e8 db 58 00 00       	call   a140 <fibril_mutex_unlock>
    4865:	c7 04 24 6c 2c 02 00 	movl   $0x22c6c,(%esp)
    486c:	8b 1d bc 4e 03 00    	mov    0x34ebc,%ebx
    4872:	e8 a9 57 00 00       	call   a020 <fibril_mutex_lock>
    4877:	8b 3d b8 4e 03 00    	mov    0x34eb8,%edi
    487d:	85 ff                	test   %edi,%edi
    487f:	0f 84 33 01 00 00    	je     49b8 <loc_service_register_with_iface+0x1b8>
    4885:	c7 04 24 6c 2c 02 00 	movl   $0x22c6c,(%esp)
    488c:	e8 af 58 00 00       	call   a140 <fibril_mutex_unlock>
    4891:	a1 bc 4e 03 00       	mov    0x34ebc,%eax
    4896:	89 04 24             	mov    %eax,(%esp)
    4899:	e8 d2 1a 01 00       	call   16370 <async_exchange_begin>
    489e:	c7 44 24 14 00 00 00 	movl   $0x0,0x14(%esp)
    48a5:	00 
    48a6:	89 c7                	mov    %eax,%edi
    48a8:	8d 45 c4             	lea    -0x3c(%ebp),%eax
    48ab:	89 44 24 18          	mov    %eax,0x18(%esp)
    48af:	8b 45 10             	mov    0x10(%ebp),%eax
    48b2:	c7 44 24 10 00 00 00 	movl   $0x0,0x10(%esp)
    48b9:	00 
    48ba:	c7 44 24 0c 00 00 00 	movl   $0x0,0xc(%esp)
    48c1:	00 
    48c2:	89 44 24 08          	mov    %eax,0x8(%esp)
    48c6:	c7 44 24 04 03 04 00 	movl   $0x403,0x4(%esp)
    48cd:	00 
    48ce:	89 3c 24             	mov    %edi,(%esp)
    48d1:	e8 3a 04 01 00       	call   14d10 <async_send_fast>
    48d6:	89 34 24             	mov    %esi,(%esp)
    48d9:	89 c3                	mov    %eax,%ebx
    48db:	e8 20 25 00 00       	call   6e00 <str_size>
    48e0:	89 74 24 04          	mov    %esi,0x4(%esp)
    48e4:	89 44 24 08          	mov    %eax,0x8(%esp)
    48e8:	89 3c 24             	mov    %edi,(%esp)
    48eb:	e8 70 29 01 00       	call   17260 <async_data_write_start>
    48f0:	89 3c 24             	mov    %edi,(%esp)
    48f3:	89 45 c0             	mov    %eax,-0x40(%ebp)
    48f6:	e8 e5 1d 01 00       	call   166e0 <async_exchange_end>
    48fb:	8b 4d c0             	mov    -0x40(%ebp),%ecx
    48fe:	85 c9                	test   %ecx,%ecx
    4900:	0f 85 9a 00 00 00    	jne    49a0 <loc_service_register_with_iface+0x1a0>
    4906:	8d 45 c0             	lea    -0x40(%ebp),%eax
    4909:	89 1c 24             	mov    %ebx,(%esp)
    490c:	89 44 24 04          	mov    %eax,0x4(%esp)
    4910:	e8 cb 05 01 00       	call   14ee0 <async_wait_for>
    4915:	8b 45 c0             	mov    -0x40(%ebp),%eax
    4918:	85 c0                	test   %eax,%eax
    491a:	74 64                	je     4980 <loc_service_register_with_iface+0x180>
    491c:	8b 55 0c             	mov    0xc(%ebp),%edx
    491f:	85 d2                	test   %edx,%edx
    4921:	74 09                	je     492c <loc_service_register_with_iface+0x12c>
    4923:	8b 55 0c             	mov    0xc(%ebp),%edx
    4926:	c7 02 ff ff ff ff    	movl   $0xffffffff,(%edx)
    492c:	83 c4 5c             	add    $0x5c,%esp
    492f:	5b                   	pop    %ebx
    4930:	5e                   	pop    %esi
    4931:	5f                   	pop    %edi
    4932:	5d                   	pop    %ebp
    4933:	c3                   	ret    
    4934:	8d 74 26 00          	lea    0x0(%esi,%eiz,1),%esi
    4938:	85 db                	test   %ebx,%ebx
    493a:	0f 84 00 ff ff ff    	je     4840 <loc_service_register_with_iface+0x40>
    4940:	89 1d bc 4e 03 00    	mov    %ebx,0x34ebc
    4946:	e9 f5 fe ff ff       	jmp    4840 <loc_service_register_with_iface+0x40>
    494b:	90                   	nop
    494c:	8d 74 26 00          	lea    0x0(%esi,%eiz,1),%esi
    4950:	c7 44 24 0c 00 00 00 	movl   $0x0,0xc(%esp)
    4957:	00 
    4958:	c7 44 24 08 01 00 00 	movl   $0x1,0x8(%esp)
    495f:	00 
    4960:	c7 44 24 04 6c 6f 63 	movl   $0x20636f6c,0x4(%esp)
    4967:	20 
    4968:	c7 04 24 02 00 00 00 	movl   $0x2,(%esp)
    496f:	e8 4c ed 00 00       	call   136c0 <service_connect_blocking>
    4974:	a3 bc 4e 03 00       	mov    %eax,0x34ebc
    4979:	e9 9f fe ff ff       	jmp    481d <loc_service_register_with_iface+0x1d>
    497e:	66 90                	xchg   %ax,%ax
    4980:	8b 45 0c             	mov    0xc(%ebp),%eax
    4983:	85 c0                	test   %eax,%eax
    4985:	74 08                	je     498f <loc_service_register_with_iface+0x18f>
    4987:	8b 55 0c             	mov    0xc(%ebp),%edx
    498a:	8b 45 c8             	mov    -0x38(%ebp),%eax
    498d:	89 02                	mov    %eax,(%edx)
    498f:	83 c4 5c             	add    $0x5c,%esp
    4992:	31 c0                	xor    %eax,%eax
    4994:	5b                   	pop    %ebx
    4995:	5e                   	pop    %esi
    4996:	5f                   	pop    %edi
    4997:	5d                   	pop    %ebp
    4998:	c3                   	ret    
    4999:	8d b4 26 00 00 00 00 	lea    0x0(%esi,%eiz,1),%esi
    49a0:	89 1c 24             	mov    %ebx,(%esp)
    49a3:	e8 88 07 01 00       	call   15130 <async_forget>
    49a8:	8b 45 c0             	mov    -0x40(%ebp),%eax
    49ab:	83 c4 5c             	add    $0x5c,%esp
    49ae:	5b                   	pop    %ebx
    49af:	5e                   	pop    %esi
    49b0:	5f                   	pop    %edi
    49b1:	5d                   	pop    %ebp
    49b2:	c3                   	ret    
    49b3:	90                   	nop
    49b4:	8d 74 26 00          	lea    0x0(%esi,%eiz,1),%esi
    49b8:	85 db                	test   %ebx,%ebx
    49ba:	0f 84 c5 fe ff ff    	je     4885 <loc_service_register_with_iface+0x85>
    49c0:	89 1d b8 4e 03 00    	mov    %ebx,0x34eb8
    49c6:	e9 ba fe ff ff       	jmp    4885 <loc_service_register_with_iface+0x85>
    49cb:	90                   	nop
    49cc:	8d 74 26 00          	lea    0x0(%esi,%eiz,1),%esi

000049d0 <loc_service_register>:
    49d0:	55                   	push   %ebp
    49d1:	89 e5                	mov    %esp,%ebp
    49d3:	57                   	push   %edi
    49d4:	56                   	push   %esi
    49d5:	53                   	push   %ebx
    49d6:	83 ec 5c             	sub    $0x5c,%esp
    49d9:	8b 75 08             	mov    0x8(%ebp),%esi
    49dc:	c7 04 24 5c 2c 02 00 	movl   $0x22c5c,(%esp)
    49e3:	e8 38 56 00 00       	call   a020 <fibril_mutex_lock>
    49e8:	a1 bc 4e 03 00       	mov    0x34ebc,%eax
    49ed:	85 c0                	test   %eax,%eax
    49ef:	75 38                	jne    4a29 <loc_service_register+0x59>
    49f1:	c7 04 24 6c 2c 02 00 	movl   $0x22c6c,(%esp)
    49f8:	8b 1d b8 4e 03 00    	mov    0x34eb8,%ebx
    49fe:	e8 1d 56 00 00       	call   a020 <fibril_mutex_lock>
    4a03:	a1 bc 4e 03 00       	mov    0x34ebc,%eax
    4a08:	85 c0                	test   %eax,%eax
    4a0a:	0f 84 f8 00 00 00    	je     4b08 <loc_service_register+0x138>
    4a10:	c7 04 24 6c 2c 02 00 	movl   $0x22c6c,(%esp)
    4a17:	e8 24 57 00 00       	call   a140 <fibril_mutex_unlock>
    4a1c:	a1 bc 4e 03 00       	mov    0x34ebc,%eax
    4a21:	85 c0                	test   %eax,%eax
    4a23:	0f 84 f7 00 00 00    	je     4b20 <loc_service_register+0x150>
    4a29:	c7 04 24 5c 2c 02 00 	movl   $0x22c5c,(%esp)
    4a30:	e8 0b 57 00 00       	call   a140 <fibril_mutex_unlock>
    4a35:	c7 04 24 6c 2c 02 00 	movl   $0x22c6c,(%esp)
    4a3c:	8b 1d bc 4e 03 00    	mov    0x34ebc,%ebx
    4a42:	e8 d9 55 00 00       	call   a020 <fibril_mutex_lock>
    4a47:	8b 3d b8 4e 03 00    	mov    0x34eb8,%edi
    4a4d:	85 ff                	test   %edi,%edi
    4a4f:	0f 84 33 01 00 00    	je     4b88 <loc_service_register+0x1b8>
    4a55:	c7 04 24 6c 2c 02 00 	movl   $0x22c6c,(%esp)
    4a5c:	e8 df 56 00 00       	call   a140 <fibril_mutex_unlock>
    4a61:	a1 bc 4e 03 00       	mov    0x34ebc,%eax
    4a66:	89 04 24             	mov    %eax,(%esp)
    4a69:	e8 02 19 01 00       	call   16370 <async_exchange_begin>
    4a6e:	c7 44 24 14 00 00 00 	movl   $0x0,0x14(%esp)
    4a75:	00 
    4a76:	89 c7                	mov    %eax,%edi
    4a78:	8d 45 c4             	lea    -0x3c(%ebp),%eax
    4a7b:	89 44 24 18          	mov    %eax,0x18(%esp)
    4a7f:	c7 44 24 10 00 00 00 	movl   $0x0,0x10(%esp)
    4a86:	00 
    4a87:	c7 44 24 0c 00 00 00 	movl   $0x0,0xc(%esp)
    4a8e:	00 
    4a8f:	c7 44 24 08 00 00 00 	movl   $0x0,0x8(%esp)
    4a96:	00 
    4a97:	c7 44 24 04 03 04 00 	movl   $0x403,0x4(%esp)
    4a9e:	00 
    4a9f:	89 3c 24             	mov    %edi,(%esp)
    4aa2:	e8 69 02 01 00       	call   14d10 <async_send_fast>
    4aa7:	89 34 24             	mov    %esi,(%esp)
    4aaa:	89 c3                	mov    %eax,%ebx
    4aac:	e8 4f 23 00 00       	call   6e00 <str_size>
    4ab1:	89 74 24 04          	mov    %esi,0x4(%esp)
    4ab5:	89 44 24 08          	mov    %eax,0x8(%esp)
    4ab9:	89 3c 24             	mov    %edi,(%esp)
    4abc:	e8 9f 27 01 00       	call   17260 <async_data_write_start>
    4ac1:	89 3c 24             	mov    %edi,(%esp)
    4ac4:	89 45 c0             	mov    %eax,-0x40(%ebp)
    4ac7:	e8 14 1c 01 00       	call   166e0 <async_exchange_end>
    4acc:	8b 4d c0             	mov    -0x40(%ebp),%ecx
    4acf:	85 c9                	test   %ecx,%ecx
    4ad1:	0f 85 99 00 00 00    	jne    4b70 <loc_service_register+0x1a0>
    4ad7:	8d 45 c0             	lea    -0x40(%ebp),%eax
    4ada:	89 1c 24             	mov    %ebx,(%esp)
    4add:	89 44 24 04          	mov    %eax,0x4(%esp)
    4ae1:	e8 fa 03 01 00       	call   14ee0 <async_wait_for>
    4ae6:	8b 45 c0             	mov    -0x40(%ebp),%eax
    4ae9:	85 c0                	test   %eax,%eax
    4aeb:	74 63                	je     4b50 <loc_service_register+0x180>
    4aed:	8b 55 0c             	mov    0xc(%ebp),%edx
    4af0:	85 d2                	test   %edx,%edx
    4af2:	74 09                	je     4afd <loc_service_register+0x12d>
    4af4:	8b 55 0c             	mov    0xc(%ebp),%edx
    4af7:	c7 02 ff ff ff ff    	movl   $0xffffffff,(%edx)
    4afd:	83 c4 5c             	add    $0x5c,%esp
    4b00:	5b                   	pop    %ebx
    4b01:	5e                   	pop    %esi
    4b02:	5f                   	pop    %edi
    4b03:	5d                   	pop    %ebp
    4b04:	c3                   	ret    
    4b05:	8d 76 00             	lea    0x0(%esi),%esi
    4b08:	85 db                	test   %ebx,%ebx
    4b0a:	0f 84 00 ff ff ff    	je     4a10 <loc_service_register+0x40>
    4b10:	89 1d bc 4e 03 00    	mov    %ebx,0x34ebc
    4b16:	e9 f5 fe ff ff       	jmp    4a10 <loc_service_register+0x40>
    4b1b:	90                   	nop
    4b1c:	8d 74 26 00          	lea    0x0(%esi,%eiz,1),%esi
    4b20:	c7 44 24 0c 00 00 00 	movl   $0x0,0xc(%esp)
    4b27:	00 
    4b28:	c7 44 24 08 01 00 00 	movl   $0x1,0x8(%esp)
    4b2f:	00 
    4b30:	c7 44 24 04 6c 6f 63 	movl   $0x20636f6c,0x4(%esp)
    4b37:	20 
    4b38:	c7 04 24 02 00 00 00 	movl   $0x2,(%esp)
    4b3f:	e8 7c eb 00 00       	call   136c0 <service_connect_blocking>
    4b44:	a3 bc 4e 03 00       	mov    %eax,0x34ebc
    4b49:	e9 9f fe ff ff       	jmp    49ed <loc_service_register+0x1d>
    4b4e:	66 90                	xchg   %ax,%ax
    4b50:	8b 45 0c             	mov    0xc(%ebp),%eax
    4b53:	85 c0                	test   %eax,%eax
    4b55:	74 08                	je     4b5f <loc_service_register+0x18f>
    4b57:	8b 55 0c             	mov    0xc(%ebp),%edx
    4b5a:	8b 45 c8             	mov    -0x38(%ebp),%eax
    4b5d:	89 02                	mov    %eax,(%edx)
    4b5f:	83 c4 5c             	add    $0x5c,%esp
    4b62:	31 c0                	xor    %eax,%eax
    4b64:	5b                   	pop    %ebx
    4b65:	5e                   	pop    %esi
    4b66:	5f                   	pop    %edi
    4b67:	5d                   	pop    %ebp
    4b68:	c3                   	ret    
    4b69:	8d b4 26 00 00 00 00 	lea    0x0(%esi,%eiz,1),%esi
    4b70:	89 1c 24             	mov    %ebx,(%esp)
    4b73:	e8 b8 05 01 00       	call   15130 <async_forget>
    4b78:	8b 45 c0             	mov    -0x40(%ebp),%eax
    4b7b:	83 c4 5c             	add    $0x5c,%esp
    4b7e:	5b                   	pop    %ebx
    4b7f:	5e                   	pop    %esi
    4b80:	5f                   	pop    %edi
    4b81:	5d                   	pop    %ebp
    4b82:	c3                   	ret    
    4b83:	90                   	nop
    4b84:	8d 74 26 00          	lea    0x0(%esi,%eiz,1),%esi
    4b88:	85 db                	test   %ebx,%ebx
    4b8a:	0f 84 c5 fe ff ff    	je     4a55 <loc_service_register+0x85>
    4b90:	89 1d b8 4e 03 00    	mov    %ebx,0x34eb8
    4b96:	e9 ba fe ff ff       	jmp    4a55 <loc_service_register+0x85>
    4b9b:	90                   	nop
    4b9c:	8d 74 26 00          	lea    0x0(%esi,%eiz,1),%esi

00004ba0 <loc_service_unregister>:
    4ba0:	55                   	push   %ebp
    4ba1:	89 e5                	mov    %esp,%ebp
    4ba3:	53                   	push   %ebx
    4ba4:	83 ec 44             	sub    $0x44,%esp
    4ba7:	c7 04 24 5c 2c 02 00 	movl   $0x22c5c,(%esp)
    4bae:	e8 6d 54 00 00       	call   a020 <fibril_mutex_lock>
    4bb3:	a1 bc 4e 03 00       	mov    0x34ebc,%eax
    4bb8:	85 c0                	test   %eax,%eax
    4bba:	75 38                	jne    4bf4 <loc_service_unregister+0x54>
    4bbc:	c7 04 24 6c 2c 02 00 	movl   $0x22c6c,(%esp)
    4bc3:	8b 1d b8 4e 03 00    	mov    0x34eb8,%ebx
    4bc9:	e8 52 54 00 00       	call   a020 <fibril_mutex_lock>
    4bce:	a1 bc 4e 03 00       	mov    0x34ebc,%eax
    4bd3:	85 c0                	test   %eax,%eax
    4bd5:	0f 84 cd 00 00 00    	je     4ca8 <loc_service_unregister+0x108>
    4bdb:	c7 04 24 6c 2c 02 00 	movl   $0x22c6c,(%esp)
    4be2:	e8 59 55 00 00       	call   a140 <fibril_mutex_unlock>
    4be7:	a1 bc 4e 03 00       	mov    0x34ebc,%eax
    4bec:	85 c0                	test   %eax,%eax
    4bee:	0f 84 cc 00 00 00    	je     4cc0 <loc_service_unregister+0x120>
    4bf4:	c7 04 24 5c 2c 02 00 	movl   $0x22c5c,(%esp)
    4bfb:	e8 40 55 00 00       	call   a140 <fibril_mutex_unlock>
    4c00:	c7 04 24 6c 2c 02 00 	movl   $0x22c6c,(%esp)
    4c07:	8b 1d bc 4e 03 00    	mov    0x34ebc,%ebx
    4c0d:	e8 0e 54 00 00       	call   a020 <fibril_mutex_lock>
    4c12:	a1 b8 4e 03 00       	mov    0x34eb8,%eax
    4c17:	85 c0                	test   %eax,%eax
    4c19:	0f 84 d1 00 00 00    	je     4cf0 <loc_service_unregister+0x150>
    4c1f:	c7 04 24 6c 2c 02 00 	movl   $0x22c6c,(%esp)
    4c26:	e8 15 55 00 00       	call   a140 <fibril_mutex_unlock>
    4c2b:	a1 bc 4e 03 00       	mov    0x34ebc,%eax
    4c30:	89 04 24             	mov    %eax,(%esp)
    4c33:	e8 38 17 01 00       	call   16370 <async_exchange_begin>
    4c38:	c7 44 24 28 00 00 00 	movl   $0x0,0x28(%esp)
    4c3f:	00 
    4c40:	89 c3                	mov    %eax,%ebx
    4c42:	8b 45 08             	mov    0x8(%ebp),%eax
    4c45:	89 1c 24             	mov    %ebx,(%esp)
    4c48:	c7 44 24 24 00 00 00 	movl   $0x0,0x24(%esp)
    4c4f:	00 
    4c50:	c7 44 24 20 00 00 00 	movl   $0x0,0x20(%esp)
    4c57:	00 
    4c58:	c7 44 24 1c 00 00 00 	movl   $0x0,0x1c(%esp)
    4c5f:	00 
    4c60:	c7 44 24 18 00 00 00 	movl   $0x0,0x18(%esp)
    4c67:	00 
    4c68:	c7 44 24 14 00 00 00 	movl   $0x0,0x14(%esp)
    4c6f:	00 
    4c70:	c7 44 24 10 00 00 00 	movl   $0x0,0x10(%esp)
    4c77:	00 
    4c78:	c7 44 24 0c 00 00 00 	movl   $0x0,0xc(%esp)
    4c7f:	00 
    4c80:	89 44 24 08          	mov    %eax,0x8(%esp)
    4c84:	c7 44 24 04 04 04 00 	movl   $0x404,0x4(%esp)
    4c8b:	00 
    4c8c:	e8 8f 06 01 00       	call   15320 <async_req_fast>
    4c91:	89 1c 24             	mov    %ebx,(%esp)
    4c94:	89 45 f4             	mov    %eax,-0xc(%ebp)
    4c97:	e8 44 1a 01 00       	call   166e0 <async_exchange_end>
    4c9c:	8b 45 f4             	mov    -0xc(%ebp),%eax
    4c9f:	83 c4 44             	add    $0x44,%esp
    4ca2:	5b                   	pop    %ebx
    4ca3:	5d                   	pop    %ebp
    4ca4:	c3                   	ret    
    4ca5:	8d 76 00             	lea    0x0(%esi),%esi
    4ca8:	85 db                	test   %ebx,%ebx
    4caa:	0f 84 2b ff ff ff    	je     4bdb <loc_service_unregister+0x3b>
    4cb0:	89 1d bc 4e 03 00    	mov    %ebx,0x34ebc
    4cb6:	e9 20 ff ff ff       	jmp    4bdb <loc_service_unregister+0x3b>
    4cbb:	90                   	nop
    4cbc:	8d 74 26 00          	lea    0x0(%esi,%eiz,1),%esi
    4cc0:	c7 44 24 0c 00 00 00 	movl   $0x0,0xc(%esp)
    4cc7:	00 
    4cc8:	c7 44 24 08 01 00 00 	movl   $0x1,0x8(%esp)
    4ccf:	00 
    4cd0:	c7 44 24 04 6c 6f 63 	movl   $0x20636f6c,0x4(%esp)
    4cd7:	20 
    4cd8:	c7 04 24 02 00 00 00 	movl   $0x2,(%esp)
    4cdf:	e8 dc e9 00 00       	call   136c0 <service_connect_blocking>
    4ce4:	a3 bc 4e 03 00       	mov    %eax,0x34ebc
    4ce9:	e9 ca fe ff ff       	jmp    4bb8 <loc_service_unregister+0x18>
    4cee:	66 90                	xchg   %ax,%ax
    4cf0:	85 db                	test   %ebx,%ebx
    4cf2:	0f 84 27 ff ff ff    	je     4c1f <loc_service_unregister+0x7f>
    4cf8:	89 1d b8 4e 03 00    	mov    %ebx,0x34eb8
    4cfe:	e9 1c ff ff ff       	jmp    4c1f <loc_service_unregister+0x7f>
    4d03:	8d b6 00 00 00 00    	lea    0x0(%esi),%esi
    4d09:	8d bc 27 00 00 00 00 	lea    0x0(%edi,%eiz,1),%edi

00004d10 <loc_service_get_id>:
    4d10:	55                   	push   %ebp
    4d11:	89 e5                	mov    %esp,%ebp
    4d13:	57                   	push   %edi
    4d14:	56                   	push   %esi
    4d15:	53                   	push   %ebx
    4d16:	83 ec 5c             	sub    $0x5c,%esp
    4d19:	8b 75 10             	mov    0x10(%ebp),%esi
    4d1c:	8b 7d 08             	mov    0x8(%ebp),%edi
    4d1f:	f7 c6 01 00 00 00    	test   $0x1,%esi
    4d25:	0f 84 45 01 00 00    	je     4e70 <loc_service_get_id+0x160>
    4d2b:	c7 04 24 7c 2c 02 00 	movl   $0x22c7c,(%esp)
    4d32:	e8 e9 52 00 00       	call   a020 <fibril_mutex_lock>
    4d37:	a1 c4 4e 03 00       	mov    0x34ec4,%eax
    4d3c:	85 c0                	test   %eax,%eax
    4d3e:	75 38                	jne    4d78 <loc_service_get_id+0x68>
    4d40:	c7 04 24 8c 2c 02 00 	movl   $0x22c8c,(%esp)
    4d47:	8b 1d c0 4e 03 00    	mov    0x34ec0,%ebx
    4d4d:	e8 ce 52 00 00       	call   a020 <fibril_mutex_lock>
    4d52:	a1 c4 4e 03 00       	mov    0x34ec4,%eax
    4d57:	85 c0                	test   %eax,%eax
    4d59:	0f 84 f9 00 00 00    	je     4e58 <loc_service_get_id+0x148>
    4d5f:	c7 04 24 8c 2c 02 00 	movl   $0x22c8c,(%esp)
    4d66:	e8 d5 53 00 00       	call   a140 <fibril_mutex_unlock>
    4d6b:	a1 c4 4e 03 00       	mov    0x34ec4,%eax
    4d70:	85 c0                	test   %eax,%eax
    4d72:	0f 84 68 01 00 00    	je     4ee0 <loc_service_get_id+0x1d0>
    4d78:	c7 04 24 7c 2c 02 00 	movl   $0x22c7c,(%esp)
    4d7f:	e8 bc 53 00 00       	call   a140 <fibril_mutex_unlock>
    4d84:	c7 04 24 8c 2c 02 00 	movl   $0x22c8c,(%esp)
    4d8b:	8b 1d c4 4e 03 00    	mov    0x34ec4,%ebx
    4d91:	e8 8a 52 00 00       	call   a020 <fibril_mutex_lock>
    4d96:	a1 c0 4e 03 00       	mov    0x34ec0,%eax
    4d9b:	85 c0                	test   %eax,%eax
    4d9d:	0f 84 85 01 00 00    	je     4f28 <loc_service_get_id+0x218>
    4da3:	c7 04 24 8c 2c 02 00 	movl   $0x22c8c,(%esp)
    4daa:	e8 91 53 00 00       	call   a140 <fibril_mutex_unlock>
    4daf:	a1 c4 4e 03 00       	mov    0x34ec4,%eax
    4db4:	89 04 24             	mov    %eax,(%esp)
    4db7:	e8 b4 15 01 00       	call   16370 <async_exchange_begin>
    4dbc:	89 c3                	mov    %eax,%ebx
    4dbe:	8d 45 c4             	lea    -0x3c(%ebp),%eax
    4dc1:	89 74 24 08          	mov    %esi,0x8(%esp)
    4dc5:	89 44 24 18          	mov    %eax,0x18(%esp)
    4dc9:	c7 44 24 14 00 00 00 	movl   $0x0,0x14(%esp)
    4dd0:	00 
    4dd1:	c7 44 24 10 00 00 00 	movl   $0x0,0x10(%esp)
    4dd8:	00 
    4dd9:	c7 44 24 0c 00 00 00 	movl   $0x0,0xc(%esp)
    4de0:	00 
    4de1:	c7 44 24 04 05 04 00 	movl   $0x405,0x4(%esp)
    4de8:	00 
    4de9:	89 1c 24             	mov    %ebx,(%esp)
    4dec:	e8 1f ff 00 00       	call   14d10 <async_send_fast>
    4df1:	89 3c 24             	mov    %edi,(%esp)
    4df4:	89 c6                	mov    %eax,%esi
    4df6:	e8 05 20 00 00       	call   6e00 <str_size>
    4dfb:	89 7c 24 04          	mov    %edi,0x4(%esp)
    4dff:	89 44 24 08          	mov    %eax,0x8(%esp)
    4e03:	89 1c 24             	mov    %ebx,(%esp)
    4e06:	e8 55 24 01 00       	call   17260 <async_data_write_start>
    4e0b:	89 1c 24             	mov    %ebx,(%esp)
    4e0e:	89 45 c0             	mov    %eax,-0x40(%ebp)
    4e11:	e8 ca 18 01 00       	call   166e0 <async_exchange_end>
    4e16:	8b 4d c0             	mov    -0x40(%ebp),%ecx
    4e19:	85 c9                	test   %ecx,%ecx
    4e1b:	0f 85 ef 00 00 00    	jne    4f10 <loc_service_get_id+0x200>
    4e21:	8d 45 c0             	lea    -0x40(%ebp),%eax
    4e24:	89 34 24             	mov    %esi,(%esp)
    4e27:	89 44 24 04          	mov    %eax,0x4(%esp)
    4e2b:	e8 b0 00 01 00       	call   14ee0 <async_wait_for>
    4e30:	8b 45 c0             	mov    -0x40(%ebp),%eax
    4e33:	85 c0                	test   %eax,%eax
    4e35:	0f 84 85 00 00 00    	je     4ec0 <loc_service_get_id+0x1b0>
    4e3b:	8b 55 0c             	mov    0xc(%ebp),%edx
    4e3e:	85 d2                	test   %edx,%edx
    4e40:	74 09                	je     4e4b <loc_service_get_id+0x13b>
    4e42:	8b 55 0c             	mov    0xc(%ebp),%edx
    4e45:	c7 02 ff ff ff ff    	movl   $0xffffffff,(%edx)
    4e4b:	83 c4 5c             	add    $0x5c,%esp
    4e4e:	5b                   	pop    %ebx
    4e4f:	5e                   	pop    %esi
    4e50:	5f                   	pop    %edi
    4e51:	5d                   	pop    %ebp
    4e52:	c3                   	ret    
    4e53:	90                   	nop
    4e54:	8d 74 26 00          	lea    0x0(%esi,%eiz,1),%esi
    4e58:	85 db                	test   %ebx,%ebx
    4e5a:	0f 84 ff fe ff ff    	je     4d5f <loc_service_get_id+0x4f>
    4e60:	89 1d c4 4e 03 00    	mov    %ebx,0x34ec4
    4e66:	e9 f4 fe ff ff       	jmp    4d5f <loc_service_get_id+0x4f>
    4e6b:	90                   	nop
    4e6c:	8d 74 26 00          	lea    0x0(%esi,%eiz,1),%esi
    4e70:	c7 04 24 8c 2c 02 00 	movl   $0x22c8c,(%esp)
    4e77:	e8 a4 51 00 00       	call   a020 <fibril_mutex_lock>
    4e7c:	8b 1d c0 4e 03 00    	mov    0x34ec0,%ebx
    4e82:	85 db                	test   %ebx,%ebx
    4e84:	0f 84 b1 00 00 00    	je     4f3b <loc_service_get_id+0x22b>
    4e8a:	c7 04 24 8c 2c 02 00 	movl   $0x22c8c,(%esp)
    4e91:	e8 aa 52 00 00       	call   a140 <fibril_mutex_unlock>
    4e96:	a1 c0 4e 03 00       	mov    0x34ec0,%eax
    4e9b:	85 c0                	test   %eax,%eax
    4e9d:	74 12                	je     4eb1 <loc_service_get_id+0x1a1>
    4e9f:	89 04 24             	mov    %eax,(%esp)
    4ea2:	e8 c9 14 01 00       	call   16370 <async_exchange_begin>
    4ea7:	89 c3                	mov    %eax,%ebx
    4ea9:	85 c0                	test   %eax,%eax
    4eab:	0f 85 0d ff ff ff    	jne    4dbe <loc_service_get_id+0xae>
    4eb1:	e8 aa 91 01 00       	call   1e060 <__errno>
    4eb6:	8b 00                	mov    (%eax),%eax
    4eb8:	eb 91                	jmp    4e4b <loc_service_get_id+0x13b>
    4eba:	8d b6 00 00 00 00    	lea    0x0(%esi),%esi
    4ec0:	8b 45 0c             	mov    0xc(%ebp),%eax
    4ec3:	85 c0                	test   %eax,%eax
    4ec5:	74 08                	je     4ecf <loc_service_get_id+0x1bf>
    4ec7:	8b 55 0c             	mov    0xc(%ebp),%edx
    4eca:	8b 45 c8             	mov    -0x38(%ebp),%eax
    4ecd:	89 02                	mov    %eax,(%edx)
    4ecf:	83 c4 5c             	add    $0x5c,%esp
    4ed2:	31 c0                	xor    %eax,%eax
    4ed4:	5b                   	pop    %ebx
    4ed5:	5e                   	pop    %esi
    4ed6:	5f                   	pop    %edi
    4ed7:	5d                   	pop    %ebp
    4ed8:	c3                   	ret    
    4ed9:	8d b4 26 00 00 00 00 	lea    0x0(%esi,%eiz,1),%esi
    4ee0:	c7 44 24 0c 00 00 00 	movl   $0x0,0xc(%esp)
    4ee7:	00 
    4ee8:	c7 44 24 08 02 00 00 	movl   $0x2,0x8(%esp)
    4eef:	00 
    4ef0:	c7 44 24 04 6c 6f 63 	movl   $0x20636f6c,0x4(%esp)
    4ef7:	20 
    4ef8:	c7 04 24 02 00 00 00 	movl   $0x2,(%esp)
    4eff:	e8 bc e7 00 00       	call   136c0 <service_connect_blocking>
    4f04:	a3 c4 4e 03 00       	mov    %eax,0x34ec4
    4f09:	e9 2e fe ff ff       	jmp    4d3c <loc_service_get_id+0x2c>
    4f0e:	66 90                	xchg   %ax,%ax
    4f10:	89 34 24             	mov    %esi,(%esp)
    4f13:	e8 18 02 01 00       	call   15130 <async_forget>
    4f18:	8b 45 c0             	mov    -0x40(%ebp),%eax
    4f1b:	83 c4 5c             	add    $0x5c,%esp
    4f1e:	5b                   	pop    %ebx
    4f1f:	5e                   	pop    %esi
    4f20:	5f                   	pop    %edi
    4f21:	5d                   	pop    %ebp
    4f22:	c3                   	ret    
    4f23:	90                   	nop
    4f24:	8d 74 26 00          	lea    0x0(%esi,%eiz,1),%esi
    4f28:	85 db                	test   %ebx,%ebx
    4f2a:	0f 84 73 fe ff ff    	je     4da3 <loc_service_get_id+0x93>
    4f30:	89 1d c0 4e 03 00    	mov    %ebx,0x34ec0
    4f36:	e9 68 fe ff ff       	jmp    4da3 <loc_service_get_id+0x93>
    4f3b:	c7 44 24 0c 00 00 00 	movl   $0x0,0xc(%esp)
    4f42:	00 
    4f43:	c7 44 24 08 02 00 00 	movl   $0x2,0x8(%esp)
    4f4a:	00 
    4f4b:	c7 44 24 04 6c 6f 63 	movl   $0x20636f6c,0x4(%esp)
    4f52:	20 
    4f53:	c7 04 24 02 00 00 00 	movl   $0x2,(%esp)
    4f5a:	e8 e1 e6 00 00       	call   13640 <service_connect>
    4f5f:	a3 c0 4e 03 00       	mov    %eax,0x34ec0
    4f64:	e9 21 ff ff ff       	jmp    4e8a <loc_service_get_id+0x17a>
    4f69:	8d b4 26 00 00 00 00 	lea    0x0(%esi,%eiz,1),%esi

00004f70 <loc_category_get_name>:
    4f70:	55                   	push   %ebp
    4f71:	b8 0b 04 00 00       	mov    $0x40b,%eax
    4f76:	89 e5                	mov    %esp,%ebp
    4f78:	8b 4d 0c             	mov    0xc(%ebp),%ecx
    4f7b:	8b 55 08             	mov    0x8(%ebp),%edx
    4f7e:	5d                   	pop    %ebp
    4f7f:	e9 6c ed ff ff       	jmp    3cf0 <loc_get_name_internal>
    4f84:	8d b6 00 00 00 00    	lea    0x0(%esi),%esi
    4f8a:	8d bf 00 00 00 00    	lea    0x0(%edi),%edi

00004f90 <loc_service_get_name>:
    4f90:	55                   	push   %ebp
    4f91:	b8 06 04 00 00       	mov    $0x406,%eax
    4f96:	89 e5                	mov    %esp,%ebp
    4f98:	8b 4d 0c             	mov    0xc(%ebp),%ecx
    4f9b:	8b 55 08             	mov    0x8(%ebp),%edx
    4f9e:	5d                   	pop    %ebp
    4f9f:	e9 4c ed ff ff       	jmp    3cf0 <loc_get_name_internal>
    4fa4:	8d b6 00 00 00 00    	lea    0x0(%esi),%esi
    4faa:	8d bf 00 00 00 00    	lea    0x0(%edi),%edi

00004fb0 <loc_service_get_server_name>:
    4fb0:	55                   	push   %ebp
    4fb1:	b8 07 04 00 00       	mov    $0x407,%eax
    4fb6:	89 e5                	mov    %esp,%ebp
    4fb8:	8b 4d 0c             	mov    0xc(%ebp),%ecx
    4fbb:	8b 55 08             	mov    0x8(%ebp),%edx
    4fbe:	5d                   	pop    %ebp
    4fbf:	e9 2c ed ff ff       	jmp    3cf0 <loc_get_name_internal>
    4fc4:	8d b6 00 00 00 00    	lea    0x0(%esi),%esi
    4fca:	8d bf 00 00 00 00    	lea    0x0(%edi),%edi

00004fd0 <loc_namespace_get_id>:
    4fd0:	55                   	push   %ebp
    4fd1:	89 e5                	mov    %esp,%ebp
    4fd3:	57                   	push   %edi
    4fd4:	56                   	push   %esi
    4fd5:	53                   	push   %ebx
    4fd6:	83 ec 5c             	sub    $0x5c,%esp
    4fd9:	8b 75 10             	mov    0x10(%ebp),%esi
    4fdc:	8b 7d 08             	mov    0x8(%ebp),%edi
    4fdf:	f7 c6 01 00 00 00    	test   $0x1,%esi
    4fe5:	0f 84 45 01 00 00    	je     5130 <loc_namespace_get_id+0x160>
    4feb:	c7 04 24 7c 2c 02 00 	movl   $0x22c7c,(%esp)
    4ff2:	e8 29 50 00 00       	call   a020 <fibril_mutex_lock>
    4ff7:	a1 c4 4e 03 00       	mov    0x34ec4,%eax
    4ffc:	85 c0                	test   %eax,%eax
    4ffe:	75 38                	jne    5038 <loc_namespace_get_id+0x68>
    5000:	c7 04 24 8c 2c 02 00 	movl   $0x22c8c,(%esp)
    5007:	8b 1d c0 4e 03 00    	mov    0x34ec0,%ebx
    500d:	e8 0e 50 00 00       	call   a020 <fibril_mutex_lock>
    5012:	a1 c4 4e 03 00       	mov    0x34ec4,%eax
    5017:	85 c0                	test   %eax,%eax
    5019:	0f 84 f9 00 00 00    	je     5118 <loc_namespace_get_id+0x148>
    501f:	c7 04 24 8c 2c 02 00 	movl   $0x22c8c,(%esp)
    5026:	e8 15 51 00 00       	call   a140 <fibril_mutex_unlock>
    502b:	a1 c4 4e 03 00       	mov    0x34ec4,%eax
    5030:	85 c0                	test   %eax,%eax
    5032:	0f 84 68 01 00 00    	je     51a0 <loc_namespace_get_id+0x1d0>
    5038:	c7 04 24 7c 2c 02 00 	movl   $0x22c7c,(%esp)
    503f:	e8 fc 50 00 00       	call   a140 <fibril_mutex_unlock>
    5044:	c7 04 24 8c 2c 02 00 	movl   $0x22c8c,(%esp)
    504b:	8b 1d c4 4e 03 00    	mov    0x34ec4,%ebx
    5051:	e8 ca 4f 00 00       	call   a020 <fibril_mutex_lock>
    5056:	a1 c0 4e 03 00       	mov    0x34ec0,%eax
    505b:	85 c0                	test   %eax,%eax
    505d:	0f 84 85 01 00 00    	je     51e8 <loc_namespace_get_id+0x218>
    5063:	c7 04 24 8c 2c 02 00 	movl   $0x22c8c,(%esp)
    506a:	e8 d1 50 00 00       	call   a140 <fibril_mutex_unlock>
    506f:	a1 c4 4e 03 00       	mov    0x34ec4,%eax
    5074:	89 04 24             	mov    %eax,(%esp)
    5077:	e8 f4 12 01 00       	call   16370 <async_exchange_begin>
    507c:	89 c3                	mov    %eax,%ebx
    507e:	8d 45 c4             	lea    -0x3c(%ebp),%eax
    5081:	89 74 24 08          	mov    %esi,0x8(%esp)
    5085:	89 44 24 18          	mov    %eax,0x18(%esp)
    5089:	c7 44 24 14 00 00 00 	movl   $0x0,0x14(%esp)
    5090:	00 
    5091:	c7 44 24 10 00 00 00 	movl   $0x0,0x10(%esp)
    5098:	00 
    5099:	c7 44 24 0c 00 00 00 	movl   $0x0,0xc(%esp)
    50a0:	00 
    50a1:	c7 44 24 04 08 04 00 	movl   $0x408,0x4(%esp)
    50a8:	00 
    50a9:	89 1c 24             	mov    %ebx,(%esp)
    50ac:	e8 5f fc 00 00       	call   14d10 <async_send_fast>
    50b1:	89 3c 24             	mov    %edi,(%esp)
    50b4:	89 c6                	mov    %eax,%esi
    50b6:	e8 45 1d 00 00       	call   6e00 <str_size>
    50bb:	89 7c 24 04          	mov    %edi,0x4(%esp)
    50bf:	89 44 24 08          	mov    %eax,0x8(%esp)
    50c3:	89 1c 24             	mov    %ebx,(%esp)
    50c6:	e8 95 21 01 00       	call   17260 <async_data_write_start>
    50cb:	89 1c 24             	mov    %ebx,(%esp)
    50ce:	89 45 c0             	mov    %eax,-0x40(%ebp)
    50d1:	e8 0a 16 01 00       	call   166e0 <async_exchange_end>
    50d6:	8b 4d c0             	mov    -0x40(%ebp),%ecx
    50d9:	85 c9                	test   %ecx,%ecx
    50db:	0f 85 ef 00 00 00    	jne    51d0 <loc_namespace_get_id+0x200>
    50e1:	8d 45 c0             	lea    -0x40(%ebp),%eax
    50e4:	89 34 24             	mov    %esi,(%esp)
    50e7:	89 44 24 04          	mov    %eax,0x4(%esp)
    50eb:	e8 f0 fd 00 00       	call   14ee0 <async_wait_for>
    50f0:	8b 45 c0             	mov    -0x40(%ebp),%eax
    50f3:	85 c0                	test   %eax,%eax
    50f5:	0f 84 85 00 00 00    	je     5180 <loc_namespace_get_id+0x1b0>
    50fb:	8b 55 0c             	mov    0xc(%ebp),%edx
    50fe:	85 d2                	test   %edx,%edx
    5100:	74 09                	je     510b <loc_namespace_get_id+0x13b>
    5102:	8b 55 0c             	mov    0xc(%ebp),%edx
    5105:	c7 02 ff ff ff ff    	movl   $0xffffffff,(%edx)
    510b:	83 c4 5c             	add    $0x5c,%esp
    510e:	5b                   	pop    %ebx
    510f:	5e                   	pop    %esi
    5110:	5f                   	pop    %edi
    5111:	5d                   	pop    %ebp
    5112:	c3                   	ret    
    5113:	90                   	nop
    5114:	8d 74 26 00          	lea    0x0(%esi,%eiz,1),%esi
    5118:	85 db                	test   %ebx,%ebx
    511a:	0f 84 ff fe ff ff    	je     501f <loc_namespace_get_id+0x4f>
    5120:	89 1d c4 4e 03 00    	mov    %ebx,0x34ec4
    5126:	e9 f4 fe ff ff       	jmp    501f <loc_namespace_get_id+0x4f>
    512b:	90                   	nop
    512c:	8d 74 26 00          	lea    0x0(%esi,%eiz,1),%esi
    5130:	c7 04 24 8c 2c 02 00 	movl   $0x22c8c,(%esp)
    5137:	e8 e4 4e 00 00       	call   a020 <fibril_mutex_lock>
    513c:	8b 1d c0 4e 03 00    	mov    0x34ec0,%ebx
    5142:	85 db                	test   %ebx,%ebx
    5144:	0f 84 b1 00 00 00    	je     51fb <loc_namespace_get_id+0x22b>
    514a:	c7 04 24 8c 2c 02 00 	movl   $0x22c8c,(%esp)
    5151:	e8 ea 4f 00 00       	call   a140 <fibril_mutex_unlock>
    5156:	a1 c0 4e 03 00       	mov    0x34ec0,%eax
    515b:	85 c0                	test   %eax,%eax
    515d:	74 12                	je     5171 <loc_namespace_get_id+0x1a1>
    515f:	89 04 24             	mov    %eax,(%esp)
    5162:	e8 09 12 01 00       	call   16370 <async_exchange_begin>
    5167:	89 c3                	mov    %eax,%ebx
    5169:	85 c0                	test   %eax,%eax
    516b:	0f 85 0d ff ff ff    	jne    507e <loc_namespace_get_id+0xae>
    5171:	e8 ea 8e 01 00       	call   1e060 <__errno>
    5176:	8b 00                	mov    (%eax),%eax
    5178:	eb 91                	jmp    510b <loc_namespace_get_id+0x13b>
    517a:	8d b6 00 00 00 00    	lea    0x0(%esi),%esi
    5180:	8b 45 0c             	mov    0xc(%ebp),%eax
    5183:	85 c0                	test   %eax,%eax
    5185:	74 08                	je     518f <loc_namespace_get_id+0x1bf>
    5187:	8b 55 0c             	mov    0xc(%ebp),%edx
    518a:	8b 45 c8             	mov    -0x38(%ebp),%eax
    518d:	89 02                	mov    %eax,(%edx)
    518f:	83 c4 5c             	add    $0x5c,%esp
    5192:	31 c0                	xor    %eax,%eax
    5194:	5b                   	pop    %ebx
    5195:	5e                   	pop    %esi
    5196:	5f                   	pop    %edi
    5197:	5d                   	pop    %ebp
    5198:	c3                   	ret    
    5199:	8d b4 26 00 00 00 00 	lea    0x0(%esi,%eiz,1),%esi
    51a0:	c7 44 24 0c 00 00 00 	movl   $0x0,0xc(%esp)
    51a7:	00 
    51a8:	c7 44 24 08 02 00 00 	movl   $0x2,0x8(%esp)
    51af:	00 
    51b0:	c7 44 24 04 6c 6f 63 	movl   $0x20636f6c,0x4(%esp)
    51b7:	20 
    51b8:	c7 04 24 02 00 00 00 	movl   $0x2,(%esp)
    51bf:	e8 fc e4 00 00       	call   136c0 <service_connect_blocking>
    51c4:	a3 c4 4e 03 00       	mov    %eax,0x34ec4
    51c9:	e9 2e fe ff ff       	jmp    4ffc <loc_namespace_get_id+0x2c>
    51ce:	66 90                	xchg   %ax,%ax
    51d0:	89 34 24             	mov    %esi,(%esp)
    51d3:	e8 58 ff 00 00       	call   15130 <async_forget>
    51d8:	8b 45 c0             	mov    -0x40(%ebp),%eax
    51db:	83 c4 5c             	add    $0x5c,%esp
    51de:	5b                   	pop    %ebx
    51df:	5e                   	pop    %esi
    51e0:	5f                   	pop    %edi
    51e1:	5d                   	pop    %ebp
    51e2:	c3                   	ret    
    51e3:	90                   	nop
    51e4:	8d 74 26 00          	lea    0x0(%esi,%eiz,1),%esi
    51e8:	85 db                	test   %ebx,%ebx
    51ea:	0f 84 73 fe ff ff    	je     5063 <loc_namespace_get_id+0x93>
    51f0:	89 1d c0 4e 03 00    	mov    %ebx,0x34ec0
    51f6:	e9 68 fe ff ff       	jmp    5063 <loc_namespace_get_id+0x93>
    51fb:	c7 44 24 0c 00 00 00 	movl   $0x0,0xc(%esp)
    5202:	00 
    5203:	c7 44 24 08 02 00 00 	movl   $0x2,0x8(%esp)
    520a:	00 
    520b:	c7 44 24 04 6c 6f 63 	movl   $0x20636f6c,0x4(%esp)
    5212:	20 
    5213:	c7 04 24 02 00 00 00 	movl   $0x2,(%esp)
    521a:	e8 21 e4 00 00       	call   13640 <service_connect>
    521f:	a3 c0 4e 03 00       	mov    %eax,0x34ec0
    5224:	e9 21 ff ff ff       	jmp    514a <loc_namespace_get_id+0x17a>
    5229:	8d b4 26 00 00 00 00 	lea    0x0(%esi,%eiz,1),%esi

00005230 <loc_category_get_id>:
    5230:	55                   	push   %ebp
    5231:	89 e5                	mov    %esp,%ebp
    5233:	57                   	push   %edi
    5234:	56                   	push   %esi
    5235:	53                   	push   %ebx
    5236:	83 ec 5c             	sub    $0x5c,%esp
    5239:	8b 75 08             	mov    0x8(%ebp),%esi
    523c:	f6 45 10 01          	testb  $0x1,0x10(%ebp)
    5240:	0f 84 4a 01 00 00    	je     5390 <loc_category_get_id+0x160>
    5246:	c7 04 24 7c 2c 02 00 	movl   $0x22c7c,(%esp)
    524d:	e8 ce 4d 00 00       	call   a020 <fibril_mutex_lock>
    5252:	a1 c4 4e 03 00       	mov    0x34ec4,%eax
    5257:	85 c0                	test   %eax,%eax
    5259:	75 38                	jne    5293 <loc_category_get_id+0x63>
    525b:	c7 04 24 8c 2c 02 00 	movl   $0x22c8c,(%esp)
    5262:	8b 1d c0 4e 03 00    	mov    0x34ec0,%ebx
    5268:	e8 b3 4d 00 00       	call   a020 <fibril_mutex_lock>
    526d:	a1 c4 4e 03 00       	mov    0x34ec4,%eax
    5272:	85 c0                	test   %eax,%eax
    5274:	0f 84 fe 00 00 00    	je     5378 <loc_category_get_id+0x148>
    527a:	c7 04 24 8c 2c 02 00 	movl   $0x22c8c,(%esp)
    5281:	e8 ba 4e 00 00       	call   a140 <fibril_mutex_unlock>
    5286:	a1 c4 4e 03 00       	mov    0x34ec4,%eax
    528b:	85 c0                	test   %eax,%eax
    528d:	0f 84 6d 01 00 00    	je     5400 <loc_category_get_id+0x1d0>
    5293:	c7 04 24 7c 2c 02 00 	movl   $0x22c7c,(%esp)
    529a:	e8 a1 4e 00 00       	call   a140 <fibril_mutex_unlock>
    529f:	c7 04 24 8c 2c 02 00 	movl   $0x22c8c,(%esp)
    52a6:	8b 1d c4 4e 03 00    	mov    0x34ec4,%ebx
    52ac:	e8 6f 4d 00 00       	call   a020 <fibril_mutex_lock>
    52b1:	8b 3d c0 4e 03 00    	mov    0x34ec0,%edi
    52b7:	85 ff                	test   %edi,%edi
    52b9:	0f 84 89 01 00 00    	je     5448 <loc_category_get_id+0x218>
    52bf:	c7 04 24 8c 2c 02 00 	movl   $0x22c8c,(%esp)
    52c6:	e8 75 4e 00 00       	call   a140 <fibril_mutex_unlock>
    52cb:	a1 c4 4e 03 00       	mov    0x34ec4,%eax
    52d0:	89 04 24             	mov    %eax,(%esp)
    52d3:	e8 98 10 01 00       	call   16370 <async_exchange_begin>
    52d8:	89 c3                	mov    %eax,%ebx
    52da:	8d 45 c4             	lea    -0x3c(%ebp),%eax
    52dd:	c7 44 24 14 00 00 00 	movl   $0x0,0x14(%esp)
    52e4:	00 
    52e5:	89 44 24 18          	mov    %eax,0x18(%esp)
    52e9:	c7 44 24 10 00 00 00 	movl   $0x0,0x10(%esp)
    52f0:	00 
    52f1:	c7 44 24 0c 00 00 00 	movl   $0x0,0xc(%esp)
    52f8:	00 
    52f9:	c7 44 24 08 00 00 00 	movl   $0x0,0x8(%esp)
    5300:	00 
    5301:	c7 44 24 04 0a 04 00 	movl   $0x40a,0x4(%esp)
    5308:	00 
    5309:	89 1c 24             	mov    %ebx,(%esp)
    530c:	e8 ff f9 00 00       	call   14d10 <async_send_fast>
    5311:	89 34 24             	mov    %esi,(%esp)
    5314:	89 c7                	mov    %eax,%edi
    5316:	e8 e5 1a 00 00       	call   6e00 <str_size>
    531b:	89 74 24 04          	mov    %esi,0x4(%esp)
    531f:	89 44 24 08          	mov    %eax,0x8(%esp)
    5323:	89 1c 24             	mov    %ebx,(%esp)
    5326:	e8 35 1f 01 00       	call   17260 <async_data_write_start>
    532b:	89 1c 24             	mov    %ebx,(%esp)
    532e:	89 45 c0             	mov    %eax,-0x40(%ebp)
    5331:	e8 aa 13 01 00       	call   166e0 <async_exchange_end>
    5336:	8b 4d c0             	mov    -0x40(%ebp),%ecx
    5339:	85 c9                	test   %ecx,%ecx
    533b:	0f 85 ef 00 00 00    	jne    5430 <loc_category_get_id+0x200>
    5341:	8d 45 c0             	lea    -0x40(%ebp),%eax
    5344:	89 3c 24             	mov    %edi,(%esp)
    5347:	89 44 24 04          	mov    %eax,0x4(%esp)
    534b:	e8 90 fb 00 00       	call   14ee0 <async_wait_for>
    5350:	8b 45 c0             	mov    -0x40(%ebp),%eax
    5353:	85 c0                	test   %eax,%eax
    5355:	0f 84 85 00 00 00    	je     53e0 <loc_category_get_id+0x1b0>
    535b:	8b 55 0c             	mov    0xc(%ebp),%edx
    535e:	85 d2                	test   %edx,%edx
    5360:	74 09                	je     536b <loc_category_get_id+0x13b>
    5362:	8b 55 0c             	mov    0xc(%ebp),%edx
    5365:	c7 02 ff ff ff ff    	movl   $0xffffffff,(%edx)
    536b:	83 c4 5c             	add    $0x5c,%esp
    536e:	5b                   	pop    %ebx
    536f:	5e                   	pop    %esi
    5370:	5f                   	pop    %edi
    5371:	5d                   	pop    %ebp
    5372:	c3                   	ret    
    5373:	90                   	nop
    5374:	8d 74 26 00          	lea    0x0(%esi,%eiz,1),%esi
    5378:	85 db                	test   %ebx,%ebx
    537a:	0f 84 fa fe ff ff    	je     527a <loc_category_get_id+0x4a>
    5380:	89 1d c4 4e 03 00    	mov    %ebx,0x34ec4
    5386:	e9 ef fe ff ff       	jmp    527a <loc_category_get_id+0x4a>
    538b:	90                   	nop
    538c:	8d 74 26 00          	lea    0x0(%esi,%eiz,1),%esi
    5390:	c7 04 24 8c 2c 02 00 	movl   $0x22c8c,(%esp)
    5397:	e8 84 4c 00 00       	call   a020 <fibril_mutex_lock>
    539c:	8b 1d c0 4e 03 00    	mov    0x34ec0,%ebx
    53a2:	85 db                	test   %ebx,%ebx
    53a4:	0f 84 b1 00 00 00    	je     545b <loc_category_get_id+0x22b>
    53aa:	c7 04 24 8c 2c 02 00 	movl   $0x22c8c,(%esp)
    53b1:	e8 8a 4d 00 00       	call   a140 <fibril_mutex_unlock>
    53b6:	a1 c0 4e 03 00       	mov    0x34ec0,%eax
    53bb:	85 c0                	test   %eax,%eax
    53bd:	74 12                	je     53d1 <loc_category_get_id+0x1a1>
    53bf:	89 04 24             	mov    %eax,(%esp)
    53c2:	e8 a9 0f 01 00       	call   16370 <async_exchange_begin>
    53c7:	89 c3                	mov    %eax,%ebx
    53c9:	85 c0                	test   %eax,%eax
    53cb:	0f 85 09 ff ff ff    	jne    52da <loc_category_get_id+0xaa>
    53d1:	e8 8a 8c 01 00       	call   1e060 <__errno>
    53d6:	8b 00                	mov    (%eax),%eax
    53d8:	eb 91                	jmp    536b <loc_category_get_id+0x13b>
    53da:	8d b6 00 00 00 00    	lea    0x0(%esi),%esi
    53e0:	8b 45 0c             	mov    0xc(%ebp),%eax
    53e3:	85 c0                	test   %eax,%eax
    53e5:	74 08                	je     53ef <loc_category_get_id+0x1bf>
    53e7:	8b 55 0c             	mov    0xc(%ebp),%edx
    53ea:	8b 45 c8             	mov    -0x38(%ebp),%eax
    53ed:	89 02                	mov    %eax,(%edx)
    53ef:	83 c4 5c             	add    $0x5c,%esp
    53f2:	31 c0                	xor    %eax,%eax
    53f4:	5b                   	pop    %ebx
    53f5:	5e                   	pop    %esi
    53f6:	5f                   	pop    %edi
    53f7:	5d                   	pop    %ebp
    53f8:	c3                   	ret    
    53f9:	8d b4 26 00 00 00 00 	lea    0x0(%esi,%eiz,1),%esi
    5400:	c7 44 24 0c 00 00 00 	movl   $0x0,0xc(%esp)
    5407:	00 
    5408:	c7 44 24 08 02 00 00 	movl   $0x2,0x8(%esp)
    540f:	00 
    5410:	c7 44 24 04 6c 6f 63 	movl   $0x20636f6c,0x4(%esp)
    5417:	20 
    5418:	c7 04 24 02 00 00 00 	movl   $0x2,(%esp)
    541f:	e8 9c e2 00 00       	call   136c0 <service_connect_blocking>
    5424:	a3 c4 4e 03 00       	mov    %eax,0x34ec4
    5429:	e9 29 fe ff ff       	jmp    5257 <loc_category_get_id+0x27>
    542e:	66 90                	xchg   %ax,%ax
    5430:	89 3c 24             	mov    %edi,(%esp)
    5433:	e8 f8 fc 00 00       	call   15130 <async_forget>
    5438:	8b 45 c0             	mov    -0x40(%ebp),%eax
    543b:	83 c4 5c             	add    $0x5c,%esp
    543e:	5b                   	pop    %ebx
    543f:	5e                   	pop    %esi
    5440:	5f                   	pop    %edi
    5441:	5d                   	pop    %ebp
    5442:	c3                   	ret    
    5443:	90                   	nop
    5444:	8d 74 26 00          	lea    0x0(%esi,%eiz,1),%esi
    5448:	85 db                	test   %ebx,%ebx
    544a:	0f 84 6f fe ff ff    	je     52bf <loc_category_get_id+0x8f>
    5450:	89 1d c0 4e 03 00    	mov    %ebx,0x34ec0
    5456:	e9 64 fe ff ff       	jmp    52bf <loc_category_get_id+0x8f>
    545b:	c7 44 24 0c 00 00 00 	movl   $0x0,0xc(%esp)
    5462:	00 
    5463:	c7 44 24 08 02 00 00 	movl   $0x2,0x8(%esp)
    546a:	00 
    546b:	c7 44 24 04 6c 6f 63 	movl   $0x20636f6c,0x4(%esp)
    5472:	20 
    5473:	c7 04 24 02 00 00 00 	movl   $0x2,(%esp)
    547a:	e8 c1 e1 00 00       	call   13640 <service_connect>
    547f:	a3 c0 4e 03 00       	mov    %eax,0x34ec0
    5484:	e9 21 ff ff ff       	jmp    53aa <loc_category_get_id+0x17a>
    5489:	8d b4 26 00 00 00 00 	lea    0x0(%esi,%eiz,1),%esi

00005490 <loc_id_probe>:
    5490:	55                   	push   %ebp
    5491:	89 e5                	mov    %esp,%ebp
    5493:	56                   	push   %esi
    5494:	53                   	push   %ebx
    5495:	83 ec 40             	sub    $0x40,%esp
    5498:	c7 04 24 7c 2c 02 00 	movl   $0x22c7c,(%esp)
    549f:	e8 7c 4b 00 00       	call   a020 <fibril_mutex_lock>
    54a4:	a1 c4 4e 03 00       	mov    0x34ec4,%eax
    54a9:	85 c0                	test   %eax,%eax
    54ab:	75 38                	jne    54e5 <loc_id_probe+0x55>
    54ad:	c7 04 24 8c 2c 02 00 	movl   $0x22c8c,(%esp)
    54b4:	8b 1d c0 4e 03 00    	mov    0x34ec0,%ebx
    54ba:	e8 61 4b 00 00       	call   a020 <fibril_mutex_lock>
    54bf:	a1 c4 4e 03 00       	mov    0x34ec4,%eax
    54c4:	85 c0                	test   %eax,%eax
    54c6:	0f 84 d4 00 00 00    	je     55a0 <loc_id_probe+0x110>
    54cc:	c7 04 24 8c 2c 02 00 	movl   $0x22c8c,(%esp)
    54d3:	e8 68 4c 00 00       	call   a140 <fibril_mutex_unlock>
    54d8:	a1 c4 4e 03 00       	mov    0x34ec4,%eax
    54dd:	85 c0                	test   %eax,%eax
    54df:	0f 84 d3 00 00 00    	je     55b8 <loc_id_probe+0x128>
    54e5:	c7 04 24 7c 2c 02 00 	movl   $0x22c7c,(%esp)
    54ec:	e8 4f 4c 00 00       	call   a140 <fibril_mutex_unlock>
    54f1:	c7 04 24 8c 2c 02 00 	movl   $0x22c8c,(%esp)
    54f8:	8b 1d c4 4e 03 00    	mov    0x34ec4,%ebx
    54fe:	e8 1d 4b 00 00       	call   a020 <fibril_mutex_lock>
    5503:	a1 c0 4e 03 00       	mov    0x34ec0,%eax
    5508:	85 c0                	test   %eax,%eax
    550a:	0f 84 d8 00 00 00    	je     55e8 <loc_id_probe+0x158>
    5510:	c7 04 24 8c 2c 02 00 	movl   $0x22c8c,(%esp)
    5517:	e8 24 4c 00 00       	call   a140 <fibril_mutex_unlock>
    551c:	a1 c4 4e 03 00       	mov    0x34ec4,%eax
    5521:	89 04 24             	mov    %eax,(%esp)
    5524:	e8 47 0e 01 00       	call   16370 <async_exchange_begin>
    5529:	c7 44 24 28 00 00 00 	movl   $0x0,0x28(%esp)
    5530:	00 
    5531:	89 c3                	mov    %eax,%ebx
    5533:	8d 45 f4             	lea    -0xc(%ebp),%eax
    5536:	89 44 24 18          	mov    %eax,0x18(%esp)
    553a:	8b 45 08             	mov    0x8(%ebp),%eax
    553d:	c7 44 24 24 00 00 00 	movl   $0x0,0x24(%esp)
    5544:	00 
    5545:	c7 44 24 20 00 00 00 	movl   $0x0,0x20(%esp)
    554c:	00 
    554d:	c7 44 24 1c 00 00 00 	movl   $0x0,0x1c(%esp)
    5554:	00 
    5555:	c7 44 24 14 00 00 00 	movl   $0x0,0x14(%esp)
    555c:	00 
    555d:	c7 44 24 10 00 00 00 	movl   $0x0,0x10(%esp)
    5564:	00 
    5565:	c7 44 24 0c 00 00 00 	movl   $0x0,0xc(%esp)
    556c:	00 
    556d:	89 44 24 08          	mov    %eax,0x8(%esp)
    5571:	c7 44 24 04 0d 04 00 	movl   $0x40d,0x4(%esp)
    5578:	00 
    5579:	89 1c 24             	mov    %ebx,(%esp)
    557c:	e8 9f fd 00 00       	call   15320 <async_req_fast>
    5581:	89 1c 24             	mov    %ebx,(%esp)
    5584:	89 c6                	mov    %eax,%esi
