
output:     file format elf32-i386


Disassembly of section .init:

00001094 <__entry>:
    1094:	66 8c d0             	mov    %ss,%ax
    1097:	8e d8                	mov    %eax,%ds
    1099:	8e c0                	mov    %eax,%es
    109b:	8e e0                	mov    %eax,%fs
    109d:	b8 01 00 00 00       	mov    $0x1,%eax
    10a2:	0f a2                	cpuid  
    10a4:	0f ba e2 0b          	bt     $0xb,%edx
    10a8:	73 0c                	jae    10b6 <__entry+0x22>
    10aa:	8d 05 d0 29 02 00    	lea    0x229d0,%eax
    10b0:	c7 00 d7 dd 01 00    	movl   $0x1ddd7,(%eax)
    10b6:	6a 00                	push   $0x0
    10b8:	89 e5                	mov    %esp,%ebp
    10ba:	57                   	push   %edi
    10bb:	e8 d0 1c 00 00       	call   2d90 <__main>

Disassembly of section .text:

000010c0 <serial_get_caps>:
    10c0:	55                   	push   %ebp
    10c1:	b8 03 00 00 00       	mov    $0x3,%eax
    10c6:	89 e5                	mov    %esp,%ebp
    10c8:	5d                   	pop    %ebp
    10c9:	c3                   	ret    
    10ca:	8d b6 00 00 00 00    	lea    0x0(%esi),%esi

000010d0 <serial_char_update>:
    10d0:	55                   	push   %ebp
    10d1:	31 d2                	xor    %edx,%edx
    10d3:	89 e5                	mov    %esp,%ebp
    10d5:	57                   	push   %edi
    10d6:	56                   	push   %esi
    10d7:	53                   	push   %ebx
    10d8:	83 ec 2c             	sub    $0x2c,%esp
    10db:	8b 45 08             	mov    0x8(%ebp),%eax
    10de:	8b 7d 10             	mov    0x10(%ebp),%edi
    10e1:	8b 75 0c             	mov    0xc(%ebp),%esi
    10e4:	8b 48 20             	mov    0x20(%eax),%ecx
    10e7:	8b 58 40             	mov    0x40(%eax),%ebx
    10ea:	8b 41 2c             	mov    0x2c(%ecx),%eax
    10ed:	01 f8                	add    %edi,%eax
    10ef:	f7 71 0c             	divl   0xc(%ecx)
    10f2:	8b 41 08             	mov    0x8(%ecx),%eax
    10f5:	89 7c 24 08          	mov    %edi,0x8(%esp)
    10f9:	0f af d0             	imul   %eax,%edx
    10fc:	01 f2                	add    %esi,%edx
    10fe:	89 1c 24             	mov    %ebx,(%esp)
    1101:	8d 04 52             	lea    (%edx,%edx,2),%eax
    1104:	8d 74 c1 30          	lea    0x30(%ecx,%eax,8),%esi
    1108:	8b 45 0c             	mov    0xc(%ebp),%eax
    110b:	89 44 24 04          	mov    %eax,0x4(%esp)
    110f:	e8 ec 09 00 00       	call   1b00 <vt100_goto>
    1114:	8b 56 04             	mov    0x4(%esi),%edx
    1117:	89 54 24 04          	mov    %edx,0x4(%esp)
    111b:	8b 56 08             	mov    0x8(%esi),%edx
    111e:	89 54 24 08          	mov    %edx,0x8(%esp)
    1122:	8b 56 0c             	mov    0xc(%esi),%edx
    1125:	89 54 24 0c          	mov    %edx,0xc(%esp)
    1129:	8b 56 10             	mov    0x10(%esi),%edx
    112c:	89 1c 24             	mov    %ebx,(%esp)
    112f:	89 54 24 10          	mov    %edx,0x10(%esp)
    1133:	e8 38 0a 00 00       	call   1b70 <vt100_set_attr>
    1138:	8b 06                	mov    (%esi),%eax
    113a:	89 45 0c             	mov    %eax,0xc(%ebp)
    113d:	89 5d 08             	mov    %ebx,0x8(%ebp)
    1140:	83 c4 2c             	add    $0x2c,%esp
    1143:	5b                   	pop    %ebx
    1144:	5e                   	pop    %esi
    1145:	5f                   	pop    %edi
    1146:	5d                   	pop    %ebp
    1147:	e9 d4 0d 00 00       	jmp    1f20 <vt100_putchar>
    114c:	8d 74 26 00          	lea    0x0(%esi,%eiz,1),%esi

00001150 <serial_cursor_update>:
    1150:	55                   	push   %ebp
    1151:	89 e5                	mov    %esp,%ebp
    1153:	56                   	push   %esi
    1154:	53                   	push   %ebx
    1155:	83 ec 10             	sub    $0x10,%esp
    1158:	8b 45 08             	mov    0x8(%ebp),%eax
    115b:	0f b6 75 1c          	movzbl 0x1c(%ebp),%esi
    115f:	8b 58 40             	mov    0x40(%eax),%ebx
    1162:	8b 45 18             	mov    0x18(%ebp),%eax
    1165:	89 44 24 08          	mov    %eax,0x8(%esp)
    1169:	8b 45 14             	mov    0x14(%ebp),%eax
    116c:	89 44 24 04          	mov    %eax,0x4(%esp)
    1170:	89 1c 24             	mov    %ebx,(%esp)
    1173:	e8 88 09 00 00       	call   1b00 <vt100_goto>
    1178:	89 f0                	mov    %esi,%eax
    117a:	25 ff 00 00 00       	and    $0xff,%eax
    117f:	89 5d 08             	mov    %ebx,0x8(%ebp)
    1182:	89 45 0c             	mov    %eax,0xc(%ebp)
    1185:	83 c4 10             	add    $0x10,%esp
    1188:	5b                   	pop    %ebx
    1189:	5e                   	pop    %esi
    118a:	5d                   	pop    %ebp
    118b:	e9 60 0d 00 00       	jmp    1ef0 <vt100_cursor_visibility>

00001190 <serial_get_dimensions>:
    1190:	55                   	push   %ebp
    1191:	89 e5                	mov    %esp,%ebp
    1193:	8b 45 08             	mov    0x8(%ebp),%eax
    1196:	8b 40 40             	mov    0x40(%eax),%eax
    1199:	89 45 08             	mov    %eax,0x8(%ebp)
    119c:	5d                   	pop    %ebp
    119d:	e9 1e 09 00 00       	jmp    1ac0 <vt100_get_dimensions>
    11a2:	8d b4 26 00 00 00 00 	lea    0x0(%esi,%eiz,1),%esi
    11a9:	8d bc 27 00 00 00 00 	lea    0x0(%edi,%eiz,1),%edi

000011b0 <serial_claim>:
    11b0:	55                   	push   %ebp
    11b1:	89 e5                	mov    %esp,%ebp
    11b3:	8b 45 08             	mov    0x8(%ebp),%eax
    11b6:	8b 40 40             	mov    0x40(%eax),%eax
    11b9:	89 45 08             	mov    %eax,0x8(%ebp)
    11bc:	5d                   	pop    %ebp
    11bd:	e9 2e 09 00 00       	jmp    1af0 <vt100_claim>
    11c2:	8d b4 26 00 00 00 00 	lea    0x0(%esi,%eiz,1),%esi
    11c9:	8d bc 27 00 00 00 00 	lea    0x0(%edi,%eiz,1),%edi

000011d0 <serial_yield>:
    11d0:	55                   	push   %ebp
    11d1:	89 e5                	mov    %esp,%ebp
    11d3:	8b 45 08             	mov    0x8(%ebp),%eax
    11d6:	8b 40 40             	mov    0x40(%eax),%eax
    11d9:	89 45 08             	mov    %eax,0x8(%ebp)
    11dc:	5d                   	pop    %ebp
    11dd:	e9 fe 08 00 00       	jmp    1ae0 <vt100_yield>
    11e2:	8d b4 26 00 00 00 00 	lea    0x0(%esi,%eiz,1),%esi
    11e9:	8d bc 27 00 00 00 00 	lea    0x0(%edi,%eiz,1),%edi

000011f0 <serial_init>:
    11f0:	55                   	push   %ebp
    11f1:	89 e5                	mov    %esp,%ebp
    11f3:	53                   	push   %ebx
    11f4:	83 ec 14             	sub    $0x14,%esp
    11f7:	8b 45 0c             	mov    0xc(%ebp),%eax
    11fa:	89 44 24 0c          	mov    %eax,0xc(%esp)
    11fe:	8b 45 08             	mov    0x8(%ebp),%eax
    1201:	89 44 24 08          	mov    %eax,0x8(%esp)
    1205:	c7 44 24 04 18 00 00 	movl   $0x18,0x4(%esp)
    120c:	00 
    120d:	c7 04 24 50 00 00 00 	movl   $0x50,(%esp)
    1214:	e8 a7 07 00 00       	call   19c0 <vt100_state_create>
    1219:	89 c3                	mov    %eax,%ebx
    121b:	85 c0                	test   %eax,%eax
    121d:	74 21                	je     1240 <serial_init+0x50>
    121f:	89 44 24 04          	mov    %eax,0x4(%esp)
    1223:	c7 04 24 a0 27 02 00 	movl   $0x227a0,(%esp)
    122a:	e8 c1 18 00 00       	call   2af0 <outdev_register>
    122f:	85 c0                	test   %eax,%eax
    1231:	74 14                	je     1247 <serial_init+0x57>
    1233:	31 c0                	xor    %eax,%eax
    1235:	83 c4 14             	add    $0x14,%esp
    1238:	5b                   	pop    %ebx
    1239:	5d                   	pop    %ebp
    123a:	c3                   	ret    
    123b:	90                   	nop
    123c:	8d 74 26 00          	lea    0x0(%esi,%eiz,1),%esi
    1240:	b8 fe ff ff ff       	mov    $0xfffffffe,%eax
    1245:	eb ee                	jmp    1235 <serial_init+0x45>
    1247:	89 1c 24             	mov    %ebx,(%esp)
    124a:	e8 61 08 00 00       	call   1ab0 <vt100_state_destroy>
    124f:	b8 fe ff ff ff       	mov    $0xfffffffe,%eax
    1254:	eb df                	jmp    1235 <serial_init+0x45>
    1256:	66 90                	xchg   %ax,%ax
    1258:	66 90                	xchg   %ax,%ax
    125a:	66 90                	xchg   %ax,%ax
    125c:	66 90                	xchg   %ax,%ax
    125e:	66 90                	xchg   %ax,%ax

00001260 <ega_yield>:
    1260:	55                   	push   %ebp
    1261:	31 c0                	xor    %eax,%eax
    1263:	89 e5                	mov    %esp,%ebp
    1265:	5d                   	pop    %ebp
    1266:	c3                   	ret    
    1267:	89 f6                	mov    %esi,%esi
    1269:	8d bc 27 00 00 00 00 	lea    0x0(%edi,%eiz,1),%edi

00001270 <ega_claim>:
    1270:	55                   	push   %ebp
    1271:	31 c0                	xor    %eax,%eax
    1273:	89 e5                	mov    %esp,%ebp
    1275:	5d                   	pop    %ebp
    1276:	c3                   	ret    
    1277:	89 f6                	mov    %esi,%esi
    1279:	8d bc 27 00 00 00 00 	lea    0x0(%edi,%eiz,1),%edi

00001280 <ega_get_dimensions>:
    1280:	55                   	push   %ebp
    1281:	8b 15 f0 29 02 00    	mov    0x229f0,%edx
    1287:	89 e5                	mov    %esp,%ebp
    1289:	8b 45 0c             	mov    0xc(%ebp),%eax
    128c:	89 10                	mov    %edx,(%eax)
    128e:	8b 45 10             	mov    0x10(%ebp),%eax
    1291:	8b 15 f4 29 02 00    	mov    0x229f4,%edx
    1297:	89 10                	mov    %edx,(%eax)
    1299:	5d                   	pop    %ebp
    129a:	c3                   	ret    
    129b:	90                   	nop
    129c:	8d 74 26 00          	lea    0x0(%esi,%eiz,1),%esi

000012a0 <ega_get_caps>:
    12a0:	55                   	push   %ebp
    12a1:	b8 03 00 00 00       	mov    $0x3,%eax
    12a6:	89 e5                	mov    %esp,%ebp
    12a8:	5d                   	pop    %ebp
    12a9:	c3                   	ret    
    12aa:	8d b6 00 00 00 00    	lea    0x0(%esi),%esi

000012b0 <ega_char_update>:
    12b0:	55                   	push   %ebp
    12b1:	31 d2                	xor    %edx,%edx
    12b3:	89 e5                	mov    %esp,%ebp
    12b5:	57                   	push   %edi
    12b6:	56                   	push   %esi
    12b7:	53                   	push   %ebx
    12b8:	83 ec 1c             	sub    $0x1c,%esp
    12bb:	8b 45 08             	mov    0x8(%ebp),%eax
    12be:	8b 75 10             	mov    0x10(%ebp),%esi
    12c1:	8b 7d 0c             	mov    0xc(%ebp),%edi
    12c4:	8b 48 20             	mov    0x20(%eax),%ecx
    12c7:	8b 41 2c             	mov    0x2c(%ecx),%eax
    12ca:	8b 59 08             	mov    0x8(%ecx),%ebx
    12cd:	01 f0                	add    %esi,%eax
    12cf:	f7 71 0c             	divl   0xc(%ecx)
    12d2:	0f af d3             	imul   %ebx,%edx
    12d5:	01 fa                	add    %edi,%edx
    12d7:	8d 04 52             	lea    (%edx,%edx,2),%eax
    12da:	8d 5c c1 30          	lea    0x30(%ecx,%eax,8),%ebx
    12de:	8b 03                	mov    (%ebx),%eax
    12e0:	89 04 24             	mov    %eax,(%esp)
    12e3:	e8 38 59 00 00       	call   6c20 <ascii_check>
    12e8:	b2 3f                	mov    $0x3f,%dl
    12ea:	84 c0                	test   %al,%al
    12ec:	74 02                	je     12f0 <ega_char_update+0x40>
    12ee:	8a 13                	mov    (%ebx),%dl
    12f0:	8b 43 08             	mov    0x8(%ebx),%eax
    12f3:	8b 4b 0c             	mov    0xc(%ebx),%ecx
    12f6:	8b 7b 10             	mov    0x10(%ebx),%edi
    12f9:	8b 5b 04             	mov    0x4(%ebx),%ebx
    12fc:	83 fb 01             	cmp    $0x1,%ebx
    12ff:	74 6f                	je     1370 <ega_char_update+0xc0>
    1301:	73 55                	jae    1358 <ega_char_update+0xa8>
    1303:	8a 1d f8 29 02 00    	mov    0x229f8,%bl
    1309:	83 f8 01             	cmp    $0x1,%eax
    130c:	74 7a                	je     1388 <ega_char_update+0xd8>
    130e:	72 12                	jb     1322 <ega_char_update+0x72>
    1310:	83 f8 02             	cmp    $0x2,%eax
    1313:	74 52                	je     1367 <ega_char_update+0xb7>
    1315:	83 f8 03             	cmp    $0x3,%eax
    1318:	74 76                	je     1390 <ega_char_update+0xe0>
    131a:	8d b6 00 00 00 00    	lea    0x0(%esi),%esi
    1320:	31 db                	xor    %ebx,%ebx
    1322:	8b 0d f0 29 02 00    	mov    0x229f0,%ecx
    1328:	8b 45 0c             	mov    0xc(%ebp),%eax
    132b:	0f af ce             	imul   %esi,%ecx
    132e:	01 c1                	add    %eax,%ecx
    1330:	a1 00 2a 02 00       	mov    0x22a00,%eax
    1335:	88 14 48             	mov    %dl,(%eax,%ecx,2)
    1338:	8b 4d 0c             	mov    0xc(%ebp),%ecx
    133b:	8b 15 f0 29 02 00    	mov    0x229f0,%edx
    1341:	a1 00 2a 02 00       	mov    0x22a00,%eax
    1346:	0f af f2             	imul   %edx,%esi
    1349:	01 ce                	add    %ecx,%esi
    134b:	88 5c 70 01          	mov    %bl,0x1(%eax,%esi,2)
    134f:	83 c4 1c             	add    $0x1c,%esp
    1352:	5b                   	pop    %ebx
    1353:	5e                   	pop    %esi
    1354:	5f                   	pop    %edi
    1355:	5d                   	pop    %ebp
    1356:	c3                   	ret    
    1357:	90                   	nop
    1358:	83 fb 02             	cmp    $0x2,%ebx
    135b:	75 c3                	jne    1320 <ega_char_update+0x70>
    135d:	8a 1d f8 29 02 00    	mov    0x229f8,%bl
    1363:	39 c1                	cmp    %eax,%ecx
    1365:	76 bb                	jbe    1322 <ega_char_update+0x72>
    1367:	8a 1d f9 29 02 00    	mov    0x229f9,%bl
    136d:	eb b3                	jmp    1322 <ega_char_update+0x72>
    136f:	90                   	nop
    1370:	83 e0 07             	and    $0x7,%eax
    1373:	83 e1 07             	and    $0x7,%ecx
    1376:	88 c3                	mov    %al,%bl
    1378:	c1 e3 04             	shl    $0x4,%ebx
    137b:	09 cb                	or     %ecx,%ebx
    137d:	83 e7 08             	and    $0x8,%edi
    1380:	74 a0                	je     1322 <ega_char_update+0x72>
    1382:	83 cb 08             	or     $0x8,%ebx
    1385:	eb 9b                	jmp    1322 <ega_char_update+0x72>
    1387:	90                   	nop
    1388:	83 cb 04             	or     $0x4,%ebx
    138b:	eb 95                	jmp    1322 <ega_char_update+0x72>
    138d:	8d 76 00             	lea    0x0(%esi),%esi
    1390:	8a 1d f9 29 02 00    	mov    0x229f9,%bl
    1396:	83 cb 40             	or     $0x40,%ebx
    1399:	eb 87                	jmp    1322 <ega_char_update+0x72>
    139b:	90                   	nop
    139c:	8d 74 26 00          	lea    0x0(%esi,%eiz,1),%esi

000013a0 <ega_cursor_update>:
    13a0:	55                   	push   %ebp
    13a1:	89 e5                	mov    %esp,%ebp
    13a3:	53                   	push   %ebx
    13a4:	83 ec 24             	sub    $0x24,%esp
    13a7:	8b 45 18             	mov    0x18(%ebp),%eax
    13aa:	8b 1d f0 29 02 00    	mov    0x229f0,%ebx
    13b0:	0f af d8             	imul   %eax,%ebx
    13b3:	8b 45 14             	mov    0x14(%ebp),%eax
    13b6:	8a 55 1c             	mov    0x1c(%ebp),%dl
    13b9:	01 c3                	add    %eax,%ebx
    13bb:	c7 44 24 04 0e 00 00 	movl   $0xe,0x4(%esp)
    13c2:	00 
    13c3:	c7 04 24 d4 03 00 00 	movl   $0x3d4,(%esp)
    13ca:	88 55 f4             	mov    %dl,-0xc(%ebp)
    13cd:	e8 3e 1d 00 00       	call   3110 <pio_write_8>
    13d2:	c7 04 24 d5 03 00 00 	movl   $0x3d5,(%esp)
    13d9:	0f b6 c7             	movzbl %bh,%eax
    13dc:	89 44 24 04          	mov    %eax,0x4(%esp)
    13e0:	81 e3 ff 00 00 00    	and    $0xff,%ebx
    13e6:	e8 25 1d 00 00       	call   3110 <pio_write_8>
    13eb:	c7 44 24 04 0f 00 00 	movl   $0xf,0x4(%esp)
    13f2:	00 
    13f3:	c7 04 24 d4 03 00 00 	movl   $0x3d4,(%esp)
    13fa:	e8 11 1d 00 00       	call   3110 <pio_write_8>
    13ff:	89 5c 24 04          	mov    %ebx,0x4(%esp)
    1403:	c7 04 24 d5 03 00 00 	movl   $0x3d5,(%esp)
    140a:	e8 01 1d 00 00       	call   3110 <pio_write_8>
    140f:	c7 44 24 04 0a 00 00 	movl   $0xa,0x4(%esp)
    1416:	00 
    1417:	c7 04 24 d4 03 00 00 	movl   $0x3d4,(%esp)
    141e:	e8 ed 1c 00 00       	call   3110 <pio_write_8>
    1423:	c7 04 24 d5 03 00 00 	movl   $0x3d5,(%esp)
    142a:	e8 d1 1d 00 00       	call   3200 <pio_read_8>
    142f:	c7 44 24 04 0a 00 00 	movl   $0xa,0x4(%esp)
    1436:	00 
    1437:	c7 04 24 d4 03 00 00 	movl   $0x3d4,(%esp)
    143e:	88 c3                	mov    %al,%bl
    1440:	e8 cb 1c 00 00       	call   3110 <pio_write_8>
    1445:	8a 55 f4             	mov    -0xc(%ebp),%dl
    1448:	84 d2                	test   %dl,%dl
    144a:	75 24                	jne    1470 <ega_cursor_update+0xd0>
    144c:	83 cb 20             	or     $0x20,%ebx
    144f:	81 e3 ff 00 00 00    	and    $0xff,%ebx
    1455:	89 5d 0c             	mov    %ebx,0xc(%ebp)
    1458:	c7 45 08 d5 03 00 00 	movl   $0x3d5,0x8(%ebp)
    145f:	83 c4 24             	add    $0x24,%esp
    1462:	5b                   	pop    %ebx
    1463:	5d                   	pop    %ebp
    1464:	e9 a7 1c 00 00       	jmp    3110 <pio_write_8>
    1469:	8d b4 26 00 00 00 00 	lea    0x0(%esi,%eiz,1),%esi
    1470:	81 e3 df 00 00 00    	and    $0xdf,%ebx
    1476:	eb dd                	jmp    1455 <ega_cursor_update+0xb5>
    1478:	90                   	nop
    1479:	8d b4 26 00 00 00 00 	lea    0x0(%esi,%eiz,1),%esi

00001480 <ega_init>:
    1480:	55                   	push   %ebp
    1481:	89 e5                	mov    %esp,%ebp
    1483:	53                   	push   %ebx
    1484:	83 ec 24             	sub    $0x24,%esp
    1487:	83 cb ff             	or     $0xffffffff,%ebx
    148a:	8d 45 e8             	lea    -0x18(%ebp),%eax
    148d:	89 44 24 04          	mov    %eax,0x4(%esp)
    1491:	c7 04 24 12 fc 01 00 	movl   $0x1fc12,(%esp)
    1498:	e8 83 24 01 00       	call   13920 <sysinfo_get_value>
    149d:	85 c0                	test   %eax,%eax
    149f:	75 5f                	jne    1500 <ega_init+0x80>
    14a1:	8b 4d e8             	mov    -0x18(%ebp),%ecx
    14a4:	85 c9                	test   %ecx,%ecx
    14a6:	74 58                	je     1500 <ega_init+0x80>
    14a8:	8d 45 ec             	lea    -0x14(%ebp),%eax
    14ab:	c7 04 24 15 fc 01 00 	movl   $0x1fc15,(%esp)
    14b2:	89 44 24 04          	mov    %eax,0x4(%esp)
    14b6:	b3 f2                	mov    $0xf2,%bl
    14b8:	e8 63 24 01 00       	call   13920 <sysinfo_get_value>
    14bd:	85 c0                	test   %eax,%eax
    14bf:	75 3f                	jne    1500 <ega_init+0x80>
    14c1:	83 7d ec 02          	cmpl   $0x2,-0x14(%ebp)
    14c5:	75 39                	jne    1500 <ega_init+0x80>
    14c7:	8d 45 f0             	lea    -0x10(%ebp),%eax
    14ca:	c7 04 24 1d fc 01 00 	movl   $0x1fc1d,(%esp)
    14d1:	89 44 24 04          	mov    %eax,0x4(%esp)
    14d5:	e8 46 24 01 00       	call   13920 <sysinfo_get_value>
    14da:	89 c3                	mov    %eax,%ebx
    14dc:	85 c0                	test   %eax,%eax
    14de:	75 20                	jne    1500 <ega_init+0x80>
    14e0:	c7 44 24 04 f0 29 02 	movl   $0x229f0,0x4(%esp)
    14e7:	00 
    14e8:	c7 04 24 31 fc 01 00 	movl   $0x1fc31,(%esp)
    14ef:	e8 2c 24 01 00       	call   13920 <sysinfo_get_value>
    14f4:	89 c3                	mov    %eax,%ebx
    14f6:	85 c0                	test   %eax,%eax
    14f8:	74 0e                	je     1508 <ega_init+0x88>
    14fa:	8d b6 00 00 00 00    	lea    0x0(%esi),%esi
    1500:	83 c4 24             	add    $0x24,%esp
    1503:	89 d8                	mov    %ebx,%eax
    1505:	5b                   	pop    %ebx
    1506:	5d                   	pop    %ebp
    1507:	c3                   	ret    
    1508:	c7 44 24 04 f4 29 02 	movl   $0x229f4,0x4(%esp)
    150f:	00 
    1510:	c7 04 24 3a fc 01 00 	movl   $0x1fc3a,(%esp)
    1517:	e8 04 24 01 00       	call   13920 <sysinfo_get_value>
    151c:	89 c3                	mov    %eax,%ebx
    151e:	85 c0                	test   %eax,%eax
    1520:	75 de                	jne    1500 <ega_init+0x80>
    1522:	c7 44 24 08 00 00 00 	movl   $0x0,0x8(%esp)
    1529:	00 
    152a:	c7 44 24 04 02 00 00 	movl   $0x2,0x4(%esp)
    1531:	00 
    1532:	c7 04 24 d4 03 00 00 	movl   $0x3d4,(%esp)
    1539:	e8 e2 1a 00 00       	call   3020 <pio_enable>
    153e:	89 c3                	mov    %eax,%ebx
    1540:	85 c0                	test   %eax,%eax
    1542:	75 bc                	jne    1500 <ega_init+0x80>
    1544:	a1 f4 29 02 00       	mov    0x229f4,%eax
    1549:	8b 15 f0 29 02 00    	mov    0x229f0,%edx
    154f:	0f af c2             	imul   %edx,%eax
    1552:	01 c0                	add    %eax,%eax
    1554:	c7 44 24 0c 00 2a 02 	movl   $0x22a00,0xc(%esp)
    155b:	00 
    155c:	a3 fc 29 02 00       	mov    %eax,0x229fc
    1561:	05 ff 0f 00 00       	add    $0xfff,%eax
    1566:	c1 f8 0c             	sar    $0xc,%eax
    1569:	c7 44 24 08 03 00 00 	movl   $0x3,0x8(%esp)
    1570:	00 
    1571:	89 44 24 04          	mov    %eax,0x4(%esp)
    1575:	8b 45 f0             	mov    -0x10(%ebp),%eax
    1578:	89 04 24             	mov    %eax,(%esp)
    157b:	e8 20 19 00 00       	call   2ea0 <physmem_map>
    1580:	89 c3                	mov    %eax,%ebx
    1582:	85 c0                	test   %eax,%eax
    1584:	0f 85 76 ff ff ff    	jne    1500 <ega_init+0x80>
    158a:	8d 45 f4             	lea    -0xc(%ebp),%eax
    158d:	c7 04 24 44 fc 01 00 	movl   $0x1fc44,(%esp)
    1594:	89 44 24 04          	mov    %eax,0x4(%esp)
    1598:	e8 83 23 01 00       	call   13920 <sysinfo_get_value>
    159d:	85 c0                	test   %eax,%eax
    159f:	75 57                	jne    15f8 <ega_init+0x178>
    15a1:	8b 45 f4             	mov    -0xc(%ebp),%eax
    15a4:	c6 05 f8 29 02 00 f0 	movb   $0xf0,0x229f8
    15ab:	c6 05 f9 29 02 00 0f 	movb   $0xf,0x229f9
    15b2:	85 c0                	test   %eax,%eax
    15b4:	74 0e                	je     15c4 <ega_init+0x144>
    15b6:	c6 05 f8 29 02 00 70 	movb   $0x70,0x229f8
    15bd:	c6 05 f9 29 02 00 07 	movb   $0x7,0x229f9
    15c4:	c7 44 24 04 f0 29 02 	movl   $0x229f0,0x4(%esp)
    15cb:	00 
    15cc:	c7 04 24 b8 27 02 00 	movl   $0x227b8,(%esp)
    15d3:	e8 18 15 00 00       	call   2af0 <outdev_register>
    15d8:	85 c0                	test   %eax,%eax
    15da:	0f 85 20 ff ff ff    	jne    1500 <ega_init+0x80>
    15e0:	a1 00 2a 02 00       	mov    0x22a00,%eax
    15e5:	bb f2 ff ff ff       	mov    $0xfffffff2,%ebx
    15ea:	89 04 24             	mov    %eax,(%esp)
    15ed:	e8 0e 1e 00 00       	call   3400 <as_area_destroy>
    15f2:	e9 09 ff ff ff       	jmp    1500 <ega_init+0x80>
    15f7:	90                   	nop
    15f8:	c7 45 f4 00 00 00 00 	movl   $0x0,-0xc(%ebp)
    15ff:	c6 05 f8 29 02 00 f0 	movb   $0xf0,0x229f8
    1606:	c6 05 f9 29 02 00 0f 	movb   $0xf,0x229f9
    160d:	eb b5                	jmp    15c4 <ega_init+0x144>
    160f:	90                   	nop

00001610 <kchar_control_puts>:
    1610:	55                   	push   %ebp
    1611:	89 e5                	mov    %esp,%ebp
    1613:	8b 55 08             	mov    0x8(%ebp),%edx
    1616:	8a 02                	mov    (%edx),%al
    1618:	84 c0                	test   %al,%al
    161a:	74 13                	je     162f <kchar_control_puts+0x1f>
    161c:	8d 74 26 00          	lea    0x0(%esi,%eiz,1),%esi
    1620:	8b 0d 04 2a 02 00    	mov    0x22a04,%ecx
    1626:	42                   	inc    %edx
    1627:	88 01                	mov    %al,(%ecx)
    1629:	8a 02                	mov    (%edx),%al
    162b:	84 c0                	test   %al,%al
    162d:	75 f1                	jne    1620 <kchar_control_puts+0x10>
    162f:	5d                   	pop    %ebp
    1630:	c3                   	ret    
    1631:	eb 0d                	jmp    1640 <kchar_putchar>
    1633:	90                   	nop
    1634:	90                   	nop
    1635:	90                   	nop
    1636:	90                   	nop
    1637:	90                   	nop
    1638:	90                   	nop
    1639:	90                   	nop
    163a:	90                   	nop
    163b:	90                   	nop
    163c:	90                   	nop
    163d:	90                   	nop
    163e:	90                   	nop
    163f:	90                   	nop

00001640 <kchar_putchar>:
    1640:	55                   	push   %ebp
    1641:	89 e5                	mov    %esp,%ebp
    1643:	53                   	push   %ebx
    1644:	83 ec 14             	sub    $0x14,%esp
    1647:	8b 5d 08             	mov    0x8(%ebp),%ebx
    164a:	89 1c 24             	mov    %ebx,(%esp)
    164d:	e8 ce 55 00 00       	call   6c20 <ascii_check>
    1652:	84 c0                	test   %al,%al
    1654:	a1 04 2a 02 00       	mov    0x22a04,%eax
    1659:	75 0d                	jne    1668 <kchar_putchar+0x28>
    165b:	c6 00 3f             	movb   $0x3f,(%eax)
    165e:	83 c4 14             	add    $0x14,%esp
    1661:	5b                   	pop    %ebx
    1662:	5d                   	pop    %ebp
    1663:	c3                   	ret    
    1664:	8d 74 26 00          	lea    0x0(%esi,%eiz,1),%esi
    1668:	88 18                	mov    %bl,(%eax)
    166a:	83 c4 14             	add    $0x14,%esp
    166d:	5b                   	pop    %ebx
    166e:	5d                   	pop    %ebp
    166f:	c3                   	ret    

00001670 <kchar_init>:
    1670:	55                   	push   %ebp
    1671:	89 e5                	mov    %esp,%ebp
    1673:	83 ec 28             	sub    $0x28,%esp
    1676:	8d 45 ec             	lea    -0x14(%ebp),%eax
    1679:	c7 04 24 12 fc 01 00 	movl   $0x1fc12,(%esp)
    1680:	89 44 24 04          	mov    %eax,0x4(%esp)
    1684:	e8 97 22 01 00       	call   13920 <sysinfo_get_value>
    1689:	83 ca ff             	or     $0xffffffff,%edx
    168c:	85 c0                	test   %eax,%eax
    168e:	75 70                	jne    1700 <kchar_init+0x90>
    1690:	8b 45 ec             	mov    -0x14(%ebp),%eax
    1693:	85 c0                	test   %eax,%eax
    1695:	74 69                	je     1700 <kchar_init+0x90>
    1697:	8d 45 f0             	lea    -0x10(%ebp),%eax
    169a:	c7 04 24 15 fc 01 00 	movl   $0x1fc15,(%esp)
    16a1:	89 44 24 04          	mov    %eax,0x4(%esp)
    16a5:	e8 76 22 01 00       	call   13920 <sysinfo_get_value>
    16aa:	ba f2 ff ff ff       	mov    $0xfffffff2,%edx
    16af:	85 c0                	test   %eax,%eax
    16b1:	75 4d                	jne    1700 <kchar_init+0x90>
    16b3:	83 7d f0 03          	cmpl   $0x3,-0x10(%ebp)
    16b7:	75 47                	jne    1700 <kchar_init+0x90>
    16b9:	8d 45 f4             	lea    -0xc(%ebp),%eax
    16bc:	c7 04 24 1d fc 01 00 	movl   $0x1fc1d,(%esp)
    16c3:	89 44 24 04          	mov    %eax,0x4(%esp)
    16c7:	e8 54 22 01 00       	call   13920 <sysinfo_get_value>
    16cc:	89 c2                	mov    %eax,%edx
    16ce:	85 c0                	test   %eax,%eax
    16d0:	75 2e                	jne    1700 <kchar_init+0x90>
    16d2:	8b 45 f4             	mov    -0xc(%ebp),%eax
    16d5:	c7 44 24 0c 04 2a 02 	movl   $0x22a04,0xc(%esp)
    16dc:	00 
    16dd:	c7 44 24 08 03 00 00 	movl   $0x3,0x8(%esp)
    16e4:	00 
    16e5:	c7 44 24 04 01 00 00 	movl   $0x1,0x4(%esp)
    16ec:	00 
    16ed:	89 04 24             	mov    %eax,(%esp)
    16f0:	e8 ab 17 00 00       	call   2ea0 <physmem_map>
    16f5:	89 c2                	mov    %eax,%edx
    16f7:	85 c0                	test   %eax,%eax
    16f9:	74 0d                	je     1708 <kchar_init+0x98>
    16fb:	90                   	nop
    16fc:	8d 74 26 00          	lea    0x0(%esi,%eiz,1),%esi
    1700:	89 d0                	mov    %edx,%eax
    1702:	c9                   	leave  
    1703:	c3                   	ret    
    1704:	8d 74 26 00          	lea    0x0(%esi,%eiz,1),%esi
    1708:	c7 44 24 04 10 16 00 	movl   $0x1610,0x4(%esp)
    170f:	00 
    1710:	c7 04 24 40 16 00 00 	movl   $0x1640,(%esp)
    1717:	e8 d4 fa ff ff       	call   11f0 <serial_init>
    171c:	c9                   	leave  
    171d:	89 c2                	mov    %eax,%edx
    171f:	89 d0                	mov    %edx,%eax
    1721:	c3                   	ret    
    1722:	66 90                	xchg   %ax,%ax
    1724:	66 90                	xchg   %ax,%ax
    1726:	66 90                	xchg   %ax,%ax
    1728:	66 90                	xchg   %ax,%ax
    172a:	66 90                	xchg   %ax,%ax
    172c:	66 90                	xchg   %ax,%ax
    172e:	66 90                	xchg   %ax,%ax

00001730 <niagara_control_puts>:
    1730:	55                   	push   %ebp
    1731:	89 e5                	mov    %esp,%ebp
    1733:	57                   	push   %edi
    1734:	56                   	push   %esi
    1735:	53                   	push   %ebx
    1736:	83 ec 2c             	sub    $0x2c,%esp
    1739:	8b 45 08             	mov    0x8(%ebp),%eax
    173c:	8a 00                	mov    (%eax),%al
    173e:	88 45 e7             	mov    %al,-0x19(%ebp)
    1741:	84 c0                	test   %al,%al
    1743:	0f 84 92 00 00 00    	je     17db <niagara_control_puts+0xab>
    1749:	8b 1d 08 2a 02 00    	mov    0x22a08,%ebx
    174f:	90                   	nop
    1750:	8b 45 08             	mov    0x8(%ebp),%eax
    1753:	40                   	inc    %eax
    1754:	89 45 08             	mov    %eax,0x8(%ebp)
    1757:	90                   	nop
    1758:	8b 73 08             	mov    0x8(%ebx),%esi
    175b:	8b 7b 0c             	mov    0xc(%ebx),%edi
    175e:	8b 03                	mov    (%ebx),%eax
    1760:	8b 53 04             	mov    0x4(%ebx),%edx
    1763:	05 ef 0f 00 00       	add    $0xfef,%eax
    1768:	c7 44 24 08 f0 0f 00 	movl   $0xff0,0x8(%esp)
    176f:	00 
    1770:	83 d2 00             	adc    $0x0,%edx
    1773:	c7 44 24 0c 00 00 00 	movl   $0x0,0xc(%esp)
    177a:	00 
    177b:	89 04 24             	mov    %eax,(%esp)
    177e:	89 54 24 04          	mov    %edx,0x4(%esp)
    1782:	e8 49 e0 01 00       	call   1f7d0 <__umoddi3>
    1787:	31 fa                	xor    %edi,%edx
    1789:	31 f0                	xor    %esi,%eax
    178b:	09 c2                	or     %eax,%edx
    178d:	74 c9                	je     1758 <niagara_control_puts+0x28>
    178f:	8b 43 08             	mov    0x8(%ebx),%eax
    1792:	8b 53 0c             	mov    0xc(%ebx),%edx
    1795:	01 d8                	add    %ebx,%eax
    1797:	8a 55 e7             	mov    -0x19(%ebp),%dl
    179a:	88 50 10             	mov    %dl,0x10(%eax)
    179d:	8b 43 08             	mov    0x8(%ebx),%eax
    17a0:	8b 53 0c             	mov    0xc(%ebx),%edx
    17a3:	83 c0 01             	add    $0x1,%eax
    17a6:	c7 44 24 08 f0 0f 00 	movl   $0xff0,0x8(%esp)
    17ad:	00 
    17ae:	83 d2 00             	adc    $0x0,%edx
    17b1:	c7 44 24 0c 00 00 00 	movl   $0x0,0xc(%esp)
    17b8:	00 
    17b9:	89 04 24             	mov    %eax,(%esp)
    17bc:	89 54 24 04          	mov    %edx,0x4(%esp)
    17c0:	e8 0b e0 01 00       	call   1f7d0 <__umoddi3>
    17c5:	89 43 08             	mov    %eax,0x8(%ebx)
    17c8:	8b 45 08             	mov    0x8(%ebp),%eax
    17cb:	89 53 0c             	mov    %edx,0xc(%ebx)
    17ce:	8a 00                	mov    (%eax),%al
    17d0:	88 45 e7             	mov    %al,-0x19(%ebp)
    17d3:	84 c0                	test   %al,%al
    17d5:	0f 85 75 ff ff ff    	jne    1750 <niagara_control_puts+0x20>
    17db:	83 c4 2c             	add    $0x2c,%esp
    17de:	5b                   	pop    %ebx
    17df:	5e                   	pop    %esi
    17e0:	5f                   	pop    %edi
    17e1:	5d                   	pop    %ebp
    17e2:	c3                   	ret    
    17e3:	8d b6 00 00 00 00    	lea    0x0(%esi),%esi
    17e9:	8d bc 27 00 00 00 00 	lea    0x0(%edi,%eiz,1),%edi

000017f0 <niagara_putchar>:
    17f0:	55                   	push   %ebp
    17f1:	89 e5                	mov    %esp,%ebp
    17f3:	57                   	push   %edi
    17f4:	56                   	push   %esi
    17f5:	53                   	push   %ebx
    17f6:	83 ec 2c             	sub    $0x2c,%esp
    17f9:	8b 75 08             	mov    0x8(%ebp),%esi
    17fc:	89 34 24             	mov    %esi,(%esp)
    17ff:	e8 1c 54 00 00       	call   6c20 <ascii_check>
    1804:	8b 1d 08 2a 02 00    	mov    0x22a08,%ebx
    180a:	84 c0                	test   %al,%al
    180c:	0f 85 86 00 00 00    	jne    1898 <niagara_putchar+0xa8>
    1812:	8d b6 00 00 00 00    	lea    0x0(%esi),%esi
    1818:	8b 73 08             	mov    0x8(%ebx),%esi
    181b:	8b 7b 0c             	mov    0xc(%ebx),%edi
    181e:	8b 03                	mov    (%ebx),%eax
    1820:	8b 53 04             	mov    0x4(%ebx),%edx
    1823:	05 ef 0f 00 00       	add    $0xfef,%eax
    1828:	c7 44 24 08 f0 0f 00 	movl   $0xff0,0x8(%esp)
    182f:	00 
    1830:	83 d2 00             	adc    $0x0,%edx
    1833:	c7 44 24 0c 00 00 00 	movl   $0x0,0xc(%esp)
    183a:	00 
    183b:	89 04 24             	mov    %eax,(%esp)
    183e:	89 54 24 04          	mov    %edx,0x4(%esp)
    1842:	e8 89 df 01 00       	call   1f7d0 <__umoddi3>
    1847:	31 fa                	xor    %edi,%edx
    1849:	31 f0                	xor    %esi,%eax
    184b:	09 c2                	or     %eax,%edx
    184d:	74 c9                	je     1818 <niagara_putchar+0x28>
    184f:	8b 43 08             	mov    0x8(%ebx),%eax
    1852:	8b 53 0c             	mov    0xc(%ebx),%edx
    1855:	01 d8                	add    %ebx,%eax
    1857:	c6 40 10 3f          	movb   $0x3f,0x10(%eax)
    185b:	8b 43 08             	mov    0x8(%ebx),%eax
    185e:	8b 53 0c             	mov    0xc(%ebx),%edx
    1861:	83 c0 01             	add    $0x1,%eax
    1864:	c7 44 24 08 f0 0f 00 	movl   $0xff0,0x8(%esp)
    186b:	00 
    186c:	83 d2 00             	adc    $0x0,%edx
    186f:	c7 44 24 0c 00 00 00 	movl   $0x0,0xc(%esp)
    1876:	00 
    1877:	89 04 24             	mov    %eax,(%esp)
    187a:	89 54 24 04          	mov    %edx,0x4(%esp)
    187e:	e8 4d df 01 00       	call   1f7d0 <__umoddi3>
    1883:	89 43 08             	mov    %eax,0x8(%ebx)
    1886:	89 53 0c             	mov    %edx,0xc(%ebx)
    1889:	83 c4 2c             	add    $0x2c,%esp
    188c:	5b                   	pop    %ebx
    188d:	5e                   	pop    %esi
    188e:	5f                   	pop    %edi
    188f:	5d                   	pop    %ebp
    1890:	c3                   	ret    
    1891:	8d b4 26 00 00 00 00 	lea    0x0(%esi,%eiz,1),%esi
    1898:	89 f0                	mov    %esi,%eax
    189a:	88 45 e7             	mov    %al,-0x19(%ebp)
    189d:	8d 76 00             	lea    0x0(%esi),%esi
    18a0:	8b 73 08             	mov    0x8(%ebx),%esi
    18a3:	8b 7b 0c             	mov    0xc(%ebx),%edi
    18a6:	8b 03                	mov    (%ebx),%eax
    18a8:	8b 53 04             	mov    0x4(%ebx),%edx
    18ab:	05 ef 0f 00 00       	add    $0xfef,%eax
    18b0:	c7 44 24 08 f0 0f 00 	movl   $0xff0,0x8(%esp)
    18b7:	00 
    18b8:	83 d2 00             	adc    $0x0,%edx
    18bb:	c7 44 24 0c 00 00 00 	movl   $0x0,0xc(%esp)
    18c2:	00 
    18c3:	89 04 24             	mov    %eax,(%esp)
    18c6:	89 54 24 04          	mov    %edx,0x4(%esp)
    18ca:	e8 01 df 01 00       	call   1f7d0 <__umoddi3>
    18cf:	31 fa                	xor    %edi,%edx
    18d1:	31 f0                	xor    %esi,%eax
    18d3:	09 c2                	or     %eax,%edx
    18d5:	74 c9                	je     18a0 <niagara_putchar+0xb0>
    18d7:	8b 43 08             	mov    0x8(%ebx),%eax
    18da:	8b 53 0c             	mov    0xc(%ebx),%edx
    18dd:	01 d8                	add    %ebx,%eax
    18df:	8a 55 e7             	mov    -0x19(%ebp),%dl
    18e2:	88 50 10             	mov    %dl,0x10(%eax)
    18e5:	e9 71 ff ff ff       	jmp    185b <niagara_putchar+0x6b>
    18ea:	8d b6 00 00 00 00    	lea    0x0(%esi),%esi

000018f0 <niagara_init>:
    18f0:	55                   	push   %ebp
    18f1:	89 e5                	mov    %esp,%ebp
    18f3:	83 ec 28             	sub    $0x28,%esp
    18f6:	8d 45 ec             	lea    -0x14(%ebp),%eax
    18f9:	c7 04 24 12 fc 01 00 	movl   $0x1fc12,(%esp)
    1900:	89 44 24 04          	mov    %eax,0x4(%esp)
    1904:	e8 17 20 01 00       	call   13920 <sysinfo_get_value>
    1909:	83 ca ff             	or     $0xffffffff,%edx
    190c:	85 c0                	test   %eax,%eax
    190e:	75 70                	jne    1980 <niagara_init+0x90>
    1910:	8b 4d ec             	mov    -0x14(%ebp),%ecx
    1913:	85 c9                	test   %ecx,%ecx
    1915:	74 69                	je     1980 <niagara_init+0x90>
    1917:	8d 45 f0             	lea    -0x10(%ebp),%eax
    191a:	c7 04 24 15 fc 01 00 	movl   $0x1fc15,(%esp)
    1921:	89 44 24 04          	mov    %eax,0x4(%esp)
    1925:	e8 f6 1f 01 00       	call   13920 <sysinfo_get_value>
    192a:	ba f2 ff ff ff       	mov    $0xfffffff2,%edx
    192f:	85 c0                	test   %eax,%eax
    1931:	75 4d                	jne    1980 <niagara_init+0x90>
    1933:	83 7d f0 05          	cmpl   $0x5,-0x10(%ebp)
    1937:	75 47                	jne    1980 <niagara_init+0x90>
    1939:	8d 45 f4             	lea    -0xc(%ebp),%eax
    193c:	c7 04 24 50 fc 01 00 	movl   $0x1fc50,(%esp)
    1943:	89 44 24 04          	mov    %eax,0x4(%esp)
    1947:	e8 d4 1f 01 00       	call   13920 <sysinfo_get_value>
    194c:	89 c2                	mov    %eax,%edx
    194e:	85 c0                	test   %eax,%eax
    1950:	75 2e                	jne    1980 <niagara_init+0x90>
    1952:	8b 45 f4             	mov    -0xc(%ebp),%eax
    1955:	c7 44 24 0c 08 2a 02 	movl   $0x22a08,0xc(%esp)
    195c:	00 
    195d:	c7 44 24 08 03 00 00 	movl   $0x3,0x8(%esp)
    1964:	00 
    1965:	c7 44 24 04 01 00 00 	movl   $0x1,0x4(%esp)
    196c:	00 
    196d:	89 04 24             	mov    %eax,(%esp)
    1970:	e8 2b 15 00 00       	call   2ea0 <physmem_map>
    1975:	89 c2                	mov    %eax,%edx
    1977:	85 c0                	test   %eax,%eax
    1979:	74 0d                	je     1988 <niagara_init+0x98>
    197b:	90                   	nop
    197c:	8d 74 26 00          	lea    0x0(%esi,%eiz,1),%esi
    1980:	89 d0                	mov    %edx,%eax
    1982:	c9                   	leave  
    1983:	c3                   	ret    
    1984:	8d 74 26 00          	lea    0x0(%esi,%eiz,1),%esi
    1988:	c7 44 24 04 30 17 00 	movl   $0x1730,0x4(%esp)
    198f:	00 
    1990:	c7 04 24 f0 17 00 00 	movl   $0x17f0,(%esp)
    1997:	e8 54 f8 ff ff       	call   11f0 <serial_init>
    199c:	c9                   	leave  
    199d:	89 c2                	mov    %eax,%edx
    199f:	89 d0                	mov    %edx,%eax
    19a1:	c3                   	ret    
    19a2:	66 90                	xchg   %ax,%ax
    19a4:	66 90                	xchg   %ax,%ax
    19a6:	66 90                	xchg   %ax,%ax
    19a8:	66 90                	xchg   %ax,%ax
    19aa:	66 90                	xchg   %ax,%ax
    19ac:	66 90                	xchg   %ax,%ax
    19ae:	66 90                	xchg   %ax,%ax

000019b0 <ski_init>:
    19b0:	55                   	push   %ebp
    19b1:	83 c8 ff             	or     $0xffffffff,%eax
    19b4:	89 e5                	mov    %esp,%ebp
    19b6:	5d                   	pop    %ebp
    19b7:	c3                   	ret    
    19b8:	66 90                	xchg   %ax,%ax
    19ba:	66 90                	xchg   %ax,%ax
    19bc:	66 90                	xchg   %ax,%ax
    19be:	66 90                	xchg   %ax,%ax

000019c0 <vt100_state_create>:
    19c0:	55                   	push   %ebp
    19c1:	89 e5                	mov    %esp,%ebp
    19c3:	56                   	push   %esi
    19c4:	53                   	push   %ebx
    19c5:	83 ec 30             	sub    $0x30,%esp
    19c8:	c7 04 24 28 00 00 00 	movl   $0x28,(%esp)
    19cf:	e8 5c 16 01 00       	call   13030 <malloc>
    19d4:	89 c3                	mov    %eax,%ebx
    19d6:	85 c0                	test   %eax,%eax
    19d8:	0f 84 bc 00 00 00    	je     1a9a <vt100_state_create+0xda>
    19de:	8b 45 10             	mov    0x10(%ebp),%eax
    19e1:	8d 75 e4             	lea    -0x1c(%ebp),%esi
    19e4:	89 43 20             	mov    %eax,0x20(%ebx)
    19e7:	8b 45 14             	mov    0x14(%ebp),%eax
    19ea:	89 43 24             	mov    %eax,0x24(%ebx)
    19ed:	8b 45 08             	mov    0x8(%ebp),%eax
    19f0:	89 03                	mov    %eax,(%ebx)
    19f2:	c7 44 24 0c 00 00 00 	movl   $0x0,0xc(%esp)
    19f9:	00 
    19fa:	8b 45 0c             	mov    0xc(%ebp),%eax
    19fd:	c7 44 24 08 67 fc 01 	movl   $0x1fc67,0x8(%esp)
    1a04:	00 
    1a05:	c7 44 24 04 14 00 00 	movl   $0x14,0x4(%esp)
    1a0c:	00 
    1a0d:	89 34 24             	mov    %esi,(%esp)
    1a10:	89 43 04             	mov    %eax,0x4(%ebx)
    1a13:	c7 43 08 ff ff ff ff 	movl   $0xffffffff,0x8(%ebx)
    1a1a:	c7 43 0c ff ff ff ff 	movl   $0xffffffff,0xc(%ebx)
    1a21:	c7 43 10 00 00 00 00 	movl   $0x0,0x10(%ebx)
    1a28:	c7 43 14 00 00 00 00 	movl   $0x0,0x14(%ebx)
    1a2f:	e8 1c ca 00 00       	call   e450 <snprintf>
    1a34:	89 34 24             	mov    %esi,(%esp)
    1a37:	ff 53 24             	call   *0x24(%ebx)
    1a3a:	c7 44 24 0c 1e 00 00 	movl   $0x1e,0xc(%esp)
    1a41:	00 
    1a42:	c7 44 24 08 67 fc 01 	movl   $0x1fc67,0x8(%esp)
    1a49:	00 
    1a4a:	c7 44 24 04 14 00 00 	movl   $0x14,0x4(%esp)
    1a51:	00 
    1a52:	89 34 24             	mov    %esi,(%esp)
    1a55:	e8 f6 c9 00 00       	call   e450 <snprintf>
    1a5a:	89 34 24             	mov    %esi,(%esp)
    1a5d:	ff 53 24             	call   *0x24(%ebx)
    1a60:	c7 44 24 0c 2f 00 00 	movl   $0x2f,0xc(%esp)
    1a67:	00 
    1a68:	c7 44 24 08 67 fc 01 	movl   $0x1fc67,0x8(%esp)
    1a6f:	00 
    1a70:	c7 44 24 04 14 00 00 	movl   $0x14,0x4(%esp)
    1a77:	00 
    1a78:	89 34 24             	mov    %esi,(%esp)
    1a7b:	e8 d0 c9 00 00       	call   e450 <snprintf>
    1a80:	89 34 24             	mov    %esi,(%esp)
    1a83:	ff 53 24             	call   *0x24(%ebx)
    1a86:	c7 04 24 6d fc 01 00 	movl   $0x1fc6d,(%esp)
    1a8d:	ff 53 24             	call   *0x24(%ebx)
    1a90:	c7 04 24 72 fc 01 00 	movl   $0x1fc72,(%esp)
    1a97:	ff 53 24             	call   *0x24(%ebx)
    1a9a:	83 c4 30             	add    $0x30,%esp
    1a9d:	89 d8                	mov    %ebx,%eax
    1a9f:	5b                   	pop    %ebx
    1aa0:	5e                   	pop    %esi
    1aa1:	5d                   	pop    %ebp
    1aa2:	c3                   	ret    
    1aa3:	8d b6 00 00 00 00    	lea    0x0(%esi),%esi
    1aa9:	8d bc 27 00 00 00 00 	lea    0x0(%edi,%eiz,1),%edi

00001ab0 <vt100_state_destroy>:
    1ab0:	55                   	push   %ebp
    1ab1:	89 e5                	mov    %esp,%ebp
    1ab3:	5d                   	pop    %ebp
    1ab4:	e9 87 16 01 00       	jmp    13140 <free>
    1ab9:	8d b4 26 00 00 00 00 	lea    0x0(%esi,%eiz,1),%esi

00001ac0 <vt100_get_dimensions>:
    1ac0:	55                   	push   %ebp
    1ac1:	89 e5                	mov    %esp,%ebp
    1ac3:	8b 45 08             	mov    0x8(%ebp),%eax
    1ac6:	8b 55 0c             	mov    0xc(%ebp),%edx
    1ac9:	8b 08                	mov    (%eax),%ecx
    1acb:	89 0a                	mov    %ecx,(%edx)
    1acd:	8b 50 04             	mov    0x4(%eax),%edx
    1ad0:	8b 45 10             	mov    0x10(%ebp),%eax
    1ad3:	89 10                	mov    %edx,(%eax)
    1ad5:	5d                   	pop    %ebp
    1ad6:	c3                   	ret    
    1ad7:	89 f6                	mov    %esi,%esi
    1ad9:	8d bc 27 00 00 00 00 	lea    0x0(%edi,%eiz,1),%edi

00001ae0 <vt100_yield>:
    1ae0:	55                   	push   %ebp
    1ae1:	31 c0                	xor    %eax,%eax
    1ae3:	89 e5                	mov    %esp,%ebp
    1ae5:	5d                   	pop    %ebp
    1ae6:	c3                   	ret    
    1ae7:	89 f6                	mov    %esi,%esi
    1ae9:	8d bc 27 00 00 00 00 	lea    0x0(%edi,%eiz,1),%edi

00001af0 <vt100_claim>:
    1af0:	55                   	push   %ebp
    1af1:	31 c0                	xor    %eax,%eax
    1af3:	89 e5                	mov    %esp,%ebp
    1af5:	5d                   	pop    %ebp
    1af6:	c3                   	ret    
    1af7:	89 f6                	mov    %esi,%esi
    1af9:	8d bc 27 00 00 00 00 	lea    0x0(%edi,%eiz,1),%edi

00001b00 <vt100_goto>:
    1b00:	55                   	push   %ebp
    1b01:	89 e5                	mov    %esp,%ebp
    1b03:	57                   	push   %edi
    1b04:	56                   	push   %esi
    1b05:	53                   	push   %ebx
    1b06:	83 ec 4c             	sub    $0x4c,%esp
    1b09:	8b 5d 08             	mov    0x8(%ebp),%ebx
    1b0c:	8b 75 0c             	mov    0xc(%ebp),%esi
    1b0f:	39 33                	cmp    %esi,(%ebx)
    1b11:	76 46                	jbe    1b59 <vt100_goto+0x59>
    1b13:	8b 45 10             	mov    0x10(%ebp),%eax
    1b16:	39 43 04             	cmp    %eax,0x4(%ebx)
    1b19:	76 3e                	jbe    1b59 <vt100_goto+0x59>
    1b1b:	39 73 08             	cmp    %esi,0x8(%ebx)
    1b1e:	74 48                	je     1b68 <vt100_goto+0x68>
    1b20:	8d 46 01             	lea    0x1(%esi),%eax
    1b23:	8d 7d d4             	lea    -0x2c(%ebp),%edi
    1b26:	89 44 24 10          	mov    %eax,0x10(%esp)
    1b2a:	8b 45 10             	mov    0x10(%ebp),%eax
    1b2d:	40                   	inc    %eax
    1b2e:	c7 44 24 08 79 fc 01 	movl   $0x1fc79,0x8(%esp)
    1b35:	00 
    1b36:	89 44 24 0c          	mov    %eax,0xc(%esp)
    1b3a:	c7 44 24 04 14 00 00 	movl   $0x14,0x4(%esp)
    1b41:	00 
    1b42:	89 3c 24             	mov    %edi,(%esp)
    1b45:	e8 06 c9 00 00       	call   e450 <snprintf>
    1b4a:	89 3c 24             	mov    %edi,(%esp)
    1b4d:	ff 53 24             	call   *0x24(%ebx)
    1b50:	8b 45 10             	mov    0x10(%ebp),%eax
    1b53:	89 73 08             	mov    %esi,0x8(%ebx)
    1b56:	89 43 0c             	mov    %eax,0xc(%ebx)
    1b59:	83 c4 4c             	add    $0x4c,%esp
    1b5c:	5b                   	pop    %ebx
    1b5d:	5e                   	pop    %esi
    1b5e:	5f                   	pop    %edi
    1b5f:	5d                   	pop    %ebp
    1b60:	c3                   	ret    
    1b61:	8d b4 26 00 00 00 00 	lea    0x0(%esi,%eiz,1),%esi
    1b68:	39 43 0c             	cmp    %eax,0xc(%ebx)
    1b6b:	75 b3                	jne    1b20 <vt100_goto+0x20>
    1b6d:	eb ea                	jmp    1b59 <vt100_goto+0x59>
    1b6f:	90                   	nop

00001b70 <vt100_set_attr>:
    1b70:	55                   	push   %ebp
    1b71:	89 e5                	mov    %esp,%ebp
    1b73:	57                   	push   %edi
    1b74:	56                   	push   %esi
    1b75:	53                   	push   %ebx
    1b76:	83 ec 4c             	sub    $0x4c,%esp
    1b79:	8b 5d 08             	mov    0x8(%ebp),%ebx
    1b7c:	8b 45 14             	mov    0x14(%ebp),%eax
    1b7f:	8b 75 0c             	mov    0xc(%ebp),%esi
    1b82:	89 45 c4             	mov    %eax,-0x3c(%ebp)
    1b85:	8b 45 18             	mov    0x18(%ebp),%eax
    1b88:	8b 55 10             	mov    0x10(%ebp),%edx
    1b8b:	89 45 c0             	mov    %eax,-0x40(%ebp)
    1b8e:	8b 4b 18             	mov    0x18(%ebx),%ecx
    1b91:	8b 43 14             	mov    0x14(%ebx),%eax
    1b94:	8b 7b 1c             	mov    0x1c(%ebx),%edi
    1b97:	39 73 10             	cmp    %esi,0x10(%ebx)
    1b9a:	0f 84 90 00 00 00    	je     1c30 <vt100_set_attr+0xc0>
    1ba0:	83 fe 01             	cmp    $0x1,%esi
    1ba3:	0f 84 d7 00 00 00    	je     1c80 <vt100_set_attr+0x110>
    1ba9:	0f 83 a1 00 00 00    	jae    1c50 <vt100_set_attr+0xe0>
    1baf:	83 fa 01             	cmp    $0x1,%edx
    1bb2:	0f 84 78 02 00 00    	je     1e30 <vt100_set_attr+0x2c0>
    1bb8:	0f 82 ea 01 00 00    	jb     1da8 <vt100_set_attr+0x238>
    1bbe:	83 fa 02             	cmp    $0x2,%edx
    1bc1:	0f 84 ee 02 00 00    	je     1eb5 <vt100_set_attr+0x345>
    1bc7:	83 fa 03             	cmp    $0x3,%edx
    1bca:	0f 85 89 00 00 00    	jne    1c59 <vt100_set_attr+0xe9>
    1bd0:	8d 7d d4             	lea    -0x2c(%ebp),%edi
    1bd3:	c7 44 24 0c 00 00 00 	movl   $0x0,0xc(%esp)
    1bda:	00 
    1bdb:	c7 44 24 08 67 fc 01 	movl   $0x1fc67,0x8(%esp)
    1be2:	00 
    1be3:	c7 44 24 04 14 00 00 	movl   $0x14,0x4(%esp)
    1bea:	00 
    1beb:	89 3c 24             	mov    %edi,(%esp)
    1bee:	89 55 bc             	mov    %edx,-0x44(%ebp)
    1bf1:	e8 5a c8 00 00       	call   e450 <snprintf>
    1bf6:	89 3c 24             	mov    %edi,(%esp)
    1bf9:	ff 53 24             	call   *0x24(%ebx)
    1bfc:	c7 44 24 0c 29 00 00 	movl   $0x29,0xc(%esp)
    1c03:	00 
    1c04:	c7 44 24 08 67 fc 01 	movl   $0x1fc67,0x8(%esp)
    1c0b:	00 
    1c0c:	c7 44 24 04 14 00 00 	movl   $0x14,0x4(%esp)
    1c13:	00 
    1c14:	89 3c 24             	mov    %edi,(%esp)
    1c17:	e8 34 c8 00 00       	call   e450 <snprintf>
    1c1c:	89 3c 24             	mov    %edi,(%esp)
    1c1f:	ff 53 24             	call   *0x24(%ebx)
    1c22:	c7 44 24 0c 25 00 00 	movl   $0x25,0xc(%esp)
    1c29:	00 
    1c2a:	e9 52 01 00 00       	jmp    1d81 <vt100_set_attr+0x211>
    1c2f:	90                   	nop
    1c30:	83 fe 01             	cmp    $0x1,%esi
    1c33:	74 43                	je     1c78 <vt100_set_attr+0x108>
    1c35:	0f 83 f5 00 00 00    	jae    1d30 <vt100_set_attr+0x1c0>
    1c3b:	39 d0                	cmp    %edx,%eax
    1c3d:	0f 94 c0             	sete   %al
    1c40:	84 c0                	test   %al,%al
    1c42:	0f 84 58 ff ff ff    	je     1ba0 <vt100_set_attr+0x30>
    1c48:	83 c4 4c             	add    $0x4c,%esp
    1c4b:	5b                   	pop    %ebx
    1c4c:	5e                   	pop    %esi
    1c4d:	5f                   	pop    %edi
    1c4e:	5d                   	pop    %ebp
    1c4f:	c3                   	ret    
    1c50:	83 fe 02             	cmp    $0x2,%esi
    1c53:	0f 84 e8 00 00 00    	je     1d41 <vt100_set_attr+0x1d1>
    1c59:	8b 45 c4             	mov    -0x3c(%ebp),%eax
    1c5c:	89 73 10             	mov    %esi,0x10(%ebx)
    1c5f:	89 43 18             	mov    %eax,0x18(%ebx)
    1c62:	8b 45 c0             	mov    -0x40(%ebp),%eax
    1c65:	89 53 14             	mov    %edx,0x14(%ebx)
    1c68:	89 43 1c             	mov    %eax,0x1c(%ebx)
    1c6b:	83 c4 4c             	add    $0x4c,%esp
    1c6e:	5b                   	pop    %ebx
    1c6f:	5e                   	pop    %esi
    1c70:	5f                   	pop    %edi
    1c71:	5d                   	pop    %ebp
    1c72:	c3                   	ret    
    1c73:	90                   	nop
    1c74:	8d 74 26 00          	lea    0x0(%esi,%eiz,1),%esi
    1c78:	39 d0                	cmp    %edx,%eax
    1c7a:	0f 84 88 01 00 00    	je     1e08 <vt100_set_attr+0x298>
    1c80:	8d 7d d4             	lea    -0x2c(%ebp),%edi
    1c83:	c7 44 24 0c 00 00 00 	movl   $0x0,0xc(%esp)
    1c8a:	00 
    1c8b:	c7 44 24 08 67 fc 01 	movl   $0x1fc67,0x8(%esp)
    1c92:	00 
    1c93:	c7 44 24 04 14 00 00 	movl   $0x14,0x4(%esp)
    1c9a:	00 
    1c9b:	89 3c 24             	mov    %edi,(%esp)
    1c9e:	89 55 bc             	mov    %edx,-0x44(%ebp)
    1ca1:	e8 aa c7 00 00       	call   e450 <snprintf>
    1ca6:	89 3c 24             	mov    %edi,(%esp)
    1ca9:	ff 53 24             	call   *0x24(%ebx)
    1cac:	8b 55 bc             	mov    -0x44(%ebp),%edx
    1caf:	89 d0                	mov    %edx,%eax
    1cb1:	c7 44 24 08 67 fc 01 	movl   $0x1fc67,0x8(%esp)
    1cb8:	00 
    1cb9:	83 e0 07             	and    $0x7,%eax
    1cbc:	c7 44 24 04 14 00 00 	movl   $0x14,0x4(%esp)
    1cc3:	00 
    1cc4:	89 3c 24             	mov    %edi,(%esp)
    1cc7:	8b 04 85 a0 fc 01 00 	mov    0x1fca0(,%eax,4),%eax
    1cce:	83 c0 28             	add    $0x28,%eax
    1cd1:	89 44 24 0c          	mov    %eax,0xc(%esp)
    1cd5:	e8 76 c7 00 00       	call   e450 <snprintf>
    1cda:	89 3c 24             	mov    %edi,(%esp)
    1cdd:	ff 53 24             	call   *0x24(%ebx)
    1ce0:	8b 45 c4             	mov    -0x3c(%ebp),%eax
    1ce3:	83 e0 07             	and    $0x7,%eax
    1ce6:	c7 44 24 08 67 fc 01 	movl   $0x1fc67,0x8(%esp)
    1ced:	00 
    1cee:	c7 44 24 04 14 00 00 	movl   $0x14,0x4(%esp)
    1cf5:	00 
    1cf6:	89 3c 24             	mov    %edi,(%esp)
    1cf9:	8b 04 85 a0 fc 01 00 	mov    0x1fca0(,%eax,4),%eax
    1d00:	83 c0 1e             	add    $0x1e,%eax
    1d03:	89 44 24 0c          	mov    %eax,0xc(%esp)
    1d07:	e8 44 c7 00 00       	call   e450 <snprintf>
    1d0c:	89 3c 24             	mov    %edi,(%esp)
    1d0f:	ff 53 24             	call   *0x24(%ebx)
    1d12:	f6 45 c0 08          	testb  $0x8,-0x40(%ebp)
    1d16:	8b 55 bc             	mov    -0x44(%ebp),%edx
    1d19:	0f 84 3a ff ff ff    	je     1c59 <vt100_set_attr+0xe9>
    1d1f:	c7 44 24 0c 01 00 00 	movl   $0x1,0xc(%esp)
    1d26:	00 
    1d27:	eb 58                	jmp    1d81 <vt100_set_attr+0x211>
    1d29:	8d b4 26 00 00 00 00 	lea    0x0(%esi,%eiz,1),%esi
    1d30:	83 fe 02             	cmp    $0x2,%esi
    1d33:	0f 85 67 fe ff ff    	jne    1ba0 <vt100_set_attr+0x30>
    1d39:	39 d0                	cmp    %edx,%eax
    1d3b:	0f 84 df 00 00 00    	je     1e20 <vt100_set_attr+0x2b0>
    1d41:	8d 7d d4             	lea    -0x2c(%ebp),%edi
    1d44:	c7 44 24 0c 00 00 00 	movl   $0x0,0xc(%esp)
    1d4b:	00 
    1d4c:	c7 44 24 08 67 fc 01 	movl   $0x1fc67,0x8(%esp)
    1d53:	00 
    1d54:	c7 44 24 04 14 00 00 	movl   $0x14,0x4(%esp)
    1d5b:	00 
    1d5c:	89 3c 24             	mov    %edi,(%esp)
    1d5f:	89 55 bc             	mov    %edx,-0x44(%ebp)
    1d62:	e8 e9 c6 00 00       	call   e450 <snprintf>
    1d67:	89 3c 24             	mov    %edi,(%esp)
    1d6a:	ff 53 24             	call   *0x24(%ebx)
    1d6d:	8b 55 bc             	mov    -0x44(%ebp),%edx
    1d70:	3b 55 c4             	cmp    -0x3c(%ebp),%edx
    1d73:	0f 87 e0 fe ff ff    	ja     1c59 <vt100_set_attr+0xe9>
    1d79:	c7 44 24 0c 07 00 00 	movl   $0x7,0xc(%esp)
    1d80:	00 
    1d81:	c7 44 24 08 67 fc 01 	movl   $0x1fc67,0x8(%esp)
    1d88:	00 
    1d89:	c7 44 24 04 14 00 00 	movl   $0x14,0x4(%esp)
    1d90:	00 
    1d91:	89 3c 24             	mov    %edi,(%esp)
    1d94:	e8 b7 c6 00 00       	call   e450 <snprintf>
    1d99:	89 3c 24             	mov    %edi,(%esp)
    1d9c:	ff 53 24             	call   *0x24(%ebx)
    1d9f:	8b 55 bc             	mov    -0x44(%ebp),%edx
    1da2:	e9 b2 fe ff ff       	jmp    1c59 <vt100_set_attr+0xe9>
    1da7:	90                   	nop
    1da8:	8d 7d d4             	lea    -0x2c(%ebp),%edi
    1dab:	c7 44 24 0c 00 00 00 	movl   $0x0,0xc(%esp)
    1db2:	00 
    1db3:	c7 44 24 08 67 fc 01 	movl   $0x1fc67,0x8(%esp)
    1dba:	00 
    1dbb:	c7 44 24 04 14 00 00 	movl   $0x14,0x4(%esp)
    1dc2:	00 
    1dc3:	89 3c 24             	mov    %edi,(%esp)
    1dc6:	89 55 bc             	mov    %edx,-0x44(%ebp)
    1dc9:	e8 82 c6 00 00       	call   e450 <snprintf>
    1dce:	89 3c 24             	mov    %edi,(%esp)
    1dd1:	ff 53 24             	call   *0x24(%ebx)
    1dd4:	c7 44 24 0c 2f 00 00 	movl   $0x2f,0xc(%esp)
    1ddb:	00 
    1ddc:	c7 44 24 08 67 fc 01 	movl   $0x1fc67,0x8(%esp)
    1de3:	00 
    1de4:	c7 44 24 04 14 00 00 	movl   $0x14,0x4(%esp)
    1deb:	00 
    1dec:	89 3c 24             	mov    %edi,(%esp)
    1def:	e8 5c c6 00 00       	call   e450 <snprintf>
    1df4:	89 3c 24             	mov    %edi,(%esp)
    1df7:	ff 53 24             	call   *0x24(%ebx)
    1dfa:	c7 44 24 0c 1e 00 00 	movl   $0x1e,0xc(%esp)
    1e01:	00 
    1e02:	e9 7a ff ff ff       	jmp    1d81 <vt100_set_attr+0x211>
    1e07:	90                   	nop
    1e08:	3b 4d c4             	cmp    -0x3c(%ebp),%ecx
    1e0b:	0f 85 6f fe ff ff    	jne    1c80 <vt100_set_attr+0x110>
    1e11:	3b 7d c0             	cmp    -0x40(%ebp),%edi
    1e14:	0f 94 c0             	sete   %al
    1e17:	e9 24 fe ff ff       	jmp    1c40 <vt100_set_attr+0xd0>
    1e1c:	8d 74 26 00          	lea    0x0(%esi,%eiz,1),%esi
    1e20:	3b 4d c4             	cmp    -0x3c(%ebp),%ecx
    1e23:	0f 94 c0             	sete   %al
    1e26:	e9 15 fe ff ff       	jmp    1c40 <vt100_set_attr+0xd0>
    1e2b:	90                   	nop
    1e2c:	8d 74 26 00          	lea    0x0(%esi,%eiz,1),%esi
    1e30:	8d 7d d4             	lea    -0x2c(%ebp),%edi
    1e33:	c7 44 24 0c 00 00 00 	movl   $0x0,0xc(%esp)
    1e3a:	00 
    1e3b:	c7 44 24 08 67 fc 01 	movl   $0x1fc67,0x8(%esp)
    1e42:	00 
    1e43:	c7 44 24 04 14 00 00 	movl   $0x14,0x4(%esp)
    1e4a:	00 
    1e4b:	89 3c 24             	mov    %edi,(%esp)
    1e4e:	89 55 bc             	mov    %edx,-0x44(%ebp)
    1e51:	e8 fa c5 00 00       	call   e450 <snprintf>
    1e56:	89 3c 24             	mov    %edi,(%esp)
    1e59:	ff 53 24             	call   *0x24(%ebx)
    1e5c:	c7 44 24 0c 2f 00 00 	movl   $0x2f,0xc(%esp)
    1e63:	00 
    1e64:	c7 44 24 08 67 fc 01 	movl   $0x1fc67,0x8(%esp)
    1e6b:	00 
    1e6c:	c7 44 24 04 14 00 00 	movl   $0x14,0x4(%esp)
    1e73:	00 
    1e74:	89 3c 24             	mov    %edi,(%esp)
    1e77:	e8 d4 c5 00 00       	call   e450 <snprintf>
    1e7c:	89 3c 24             	mov    %edi,(%esp)
    1e7f:	ff 53 24             	call   *0x24(%ebx)
    1e82:	c7 44 24 0c 1f 00 00 	movl   $0x1f,0xc(%esp)
    1e89:	00 
    1e8a:	c7 44 24 08 67 fc 01 	movl   $0x1fc67,0x8(%esp)
    1e91:	00 
    1e92:	c7 44 24 04 14 00 00 	movl   $0x14,0x4(%esp)
    1e99:	00 
    1e9a:	89 3c 24             	mov    %edi,(%esp)
    1e9d:	e8 ae c5 00 00       	call   e450 <snprintf>
    1ea2:	89 3c 24             	mov    %edi,(%esp)
    1ea5:	ff 53 24             	call   *0x24(%ebx)
    1ea8:	c7 44 24 0c 01 00 00 	movl   $0x1,0xc(%esp)
    1eaf:	00 
    1eb0:	e9 cc fe ff ff       	jmp    1d81 <vt100_set_attr+0x211>
    1eb5:	8d 7d d4             	lea    -0x2c(%ebp),%edi
    1eb8:	c7 44 24 0c 00 00 00 	movl   $0x0,0xc(%esp)
    1ebf:	00 
    1ec0:	c7 44 24 08 67 fc 01 	movl   $0x1fc67,0x8(%esp)
    1ec7:	00 
    1ec8:	c7 44 24 04 14 00 00 	movl   $0x14,0x4(%esp)
    1ecf:	00 
    1ed0:	89 3c 24             	mov    %edi,(%esp)
    1ed3:	89 55 bc             	mov    %edx,-0x44(%ebp)
    1ed6:	e8 75 c5 00 00       	call   e450 <snprintf>
    1edb:	89 3c 24             	mov    %edi,(%esp)
    1ede:	ff 53 24             	call   *0x24(%ebx)
    1ee1:	c7 44 24 0c 28 00 00 	movl   $0x28,0xc(%esp)
    1ee8:	00 
    1ee9:	e9 16 fd ff ff       	jmp    1c04 <vt100_set_attr+0x94>
    1eee:	66 90                	xchg   %ax,%ax

00001ef0 <vt100_cursor_visibility>:
    1ef0:	55                   	push   %ebp
    1ef1:	89 e5                	mov    %esp,%ebp
    1ef3:	8b 45 08             	mov    0x8(%ebp),%eax
    1ef6:	80 7d 0c 00          	cmpb   $0x0,0xc(%ebp)
    1efa:	75 14                	jne    1f10 <vt100_cursor_visibility+0x20>
    1efc:	c7 45 08 72 fc 01 00 	movl   $0x1fc72,0x8(%ebp)
    1f03:	5d                   	pop    %ebp
    1f04:	8b 40 24             	mov    0x24(%eax),%eax
    1f07:	ff e0                	jmp    *%eax
    1f09:	8d b4 26 00 00 00 00 	lea    0x0(%esi,%eiz,1),%esi
    1f10:	c7 45 08 82 fc 01 00 	movl   $0x1fc82,0x8(%ebp)
    1f17:	5d                   	pop    %ebp
    1f18:	8b 40 24             	mov    0x24(%eax),%eax
    1f1b:	ff e0                	jmp    *%eax
    1f1d:	8d 76 00             	lea    0x0(%esi),%esi

00001f20 <vt100_putchar>:
    1f20:	55                   	push   %ebp
    1f21:	89 e5                	mov    %esp,%ebp
    1f23:	53                   	push   %ebx
    1f24:	83 ec 14             	sub    $0x14,%esp
    1f27:	8b 5d 08             	mov    0x8(%ebp),%ebx
    1f2a:	8b 45 0c             	mov    0xc(%ebp),%eax
    1f2d:	85 c0                	test   %eax,%eax
    1f2f:	8b 53 20             	mov    0x20(%ebx),%edx
    1f32:	75 02                	jne    1f36 <vt100_putchar+0x16>
    1f34:	b0 20                	mov    $0x20,%al
    1f36:	89 04 24             	mov    %eax,(%esp)
    1f39:	ff d2                	call   *%edx
    1f3b:	8b 43 08             	mov    0x8(%ebx),%eax
    1f3e:	40                   	inc    %eax
    1f3f:	8b 0b                	mov    (%ebx),%ecx
    1f41:	89 43 08             	mov    %eax,0x8(%ebx)
    1f44:	39 c8                	cmp    %ecx,%eax
    1f46:	72 0f                	jb     1f57 <vt100_putchar+0x37>
    1f48:	31 d2                	xor    %edx,%edx
    1f4a:	f7 f1                	div    %ecx
    1f4c:	8b 4b 0c             	mov    0xc(%ebx),%ecx
    1f4f:	89 53 08             	mov    %edx,0x8(%ebx)
    1f52:	01 c1                	add    %eax,%ecx
    1f54:	89 4b 0c             	mov    %ecx,0xc(%ebx)
    1f57:	83 c4 14             	add    $0x14,%esp
    1f5a:	5b                   	pop    %ebx
    1f5b:	5d                   	pop    %ebp
    1f5c:	c3                   	ret    
    1f5d:	66 90                	xchg   %ax,%ax
    1f5f:	90                   	nop

00001f60 <srv_update_scroll>:
    1f60:	55                   	push   %ebp
    1f61:	89 e5                	mov    %esp,%ebp
    1f63:	57                   	push   %edi
    1f64:	56                   	push   %esi
    1f65:	53                   	push   %ebx
    1f66:	83 ec 4c             	sub    $0x4c,%esp
    1f69:	89 c7                	mov    %eax,%edi
    1f6b:	8b 40 3c             	mov    0x3c(%eax),%eax
    1f6e:	85 c0                	test   %eax,%eax
    1f70:	0f 84 d2 01 00 00    	je     2148 <srv_update_scroll+0x1e8>
    1f76:	89 14 24             	mov    %edx,(%esp)
    1f79:	89 d3                	mov    %edx,%ebx
    1f7b:	e8 30 ba 00 00       	call   d9b0 <chargrid_get_top_row>
    1f80:	39 47 24             	cmp    %eax,0x24(%edi)
    1f83:	0f 84 b5 01 00 00    	je     213e <srv_update_scroll+0x1de>
    1f89:	89 47 24             	mov    %eax,0x24(%edi)
    1f8c:	8b 47 0c             	mov    0xc(%edi),%eax
    1f8f:	85 c0                	test   %eax,%eax
    1f91:	0f 84 52 01 00 00    	je     20e9 <srv_update_scroll+0x189>
    1f97:	8b 57 08             	mov    0x8(%edi),%edx
    1f9a:	c7 45 e0 00 00 00 00 	movl   $0x0,-0x20(%ebp)
    1fa1:	89 55 dc             	mov    %edx,-0x24(%ebp)
    1fa4:	89 de                	mov    %ebx,%esi
    1fa6:	66 90                	xchg   %ax,%ax
    1fa8:	8b 55 dc             	mov    -0x24(%ebp),%edx
    1fab:	c7 45 e4 00 00 00 00 	movl   $0x0,-0x1c(%ebp)
    1fb2:	85 d2                	test   %edx,%edx
    1fb4:	0f 85 8a 00 00 00    	jne    2044 <srv_update_scroll+0xe4>
    1fba:	e9 1a 01 00 00       	jmp    20d9 <srv_update_scroll+0x179>
    1fbf:	90                   	nop
    1fc0:	89 10                	mov    %edx,(%eax)
    1fc2:	c6 45 c3 01          	movb   $0x1,-0x3d(%ebp)
    1fc6:	8b 59 08             	mov    0x8(%ecx),%ebx
    1fc9:	8b 51 04             	mov    0x4(%ecx),%edx
    1fcc:	89 5d d8             	mov    %ebx,-0x28(%ebp)
    1fcf:	8b 59 0c             	mov    0xc(%ecx),%ebx
    1fd2:	89 5d d0             	mov    %ebx,-0x30(%ebp)
    1fd5:	8b 59 10             	mov    0x10(%ecx),%ebx
    1fd8:	89 5d c8             	mov    %ebx,-0x38(%ebp)
    1fdb:	8b 58 08             	mov    0x8(%eax),%ebx
    1fde:	89 5d d4             	mov    %ebx,-0x2c(%ebp)
    1fe1:	8b 58 0c             	mov    0xc(%eax),%ebx
    1fe4:	89 5d cc             	mov    %ebx,-0x34(%ebp)
    1fe7:	8b 58 10             	mov    0x10(%eax),%ebx
    1fea:	89 5d c4             	mov    %ebx,-0x3c(%ebp)
    1fed:	3b 50 04             	cmp    0x4(%eax),%edx
    1ff0:	0f 84 a2 00 00 00    	je     2098 <srv_update_scroll+0x138>
    1ff6:	8b 51 04             	mov    0x4(%ecx),%edx
    1ff9:	89 50 04             	mov    %edx,0x4(%eax)
    1ffc:	8b 51 08             	mov    0x8(%ecx),%edx
    1fff:	89 50 08             	mov    %edx,0x8(%eax)
    2002:	8b 51 0c             	mov    0xc(%ecx),%edx
    2005:	89 50 0c             	mov    %edx,0xc(%eax)
    2008:	8b 51 10             	mov    0x10(%ecx),%edx
    200b:	89 50 10             	mov    %edx,0x10(%eax)
    200e:	8b 41 14             	mov    0x14(%ecx),%eax
    2011:	83 e0 fe             	and    $0xfffffffe,%eax
    2014:	89 41 14             	mov    %eax,0x14(%ecx)
    2017:	8b 5d e0             	mov    -0x20(%ebp),%ebx
    201a:	89 3c 24             	mov    %edi,(%esp)
    201d:	89 5c 24 08          	mov    %ebx,0x8(%esp)
    2021:	8b 5d e4             	mov    -0x1c(%ebp),%ebx
    2024:	89 5c 24 04          	mov    %ebx,0x4(%esp)
    2028:	ff 57 3c             	call   *0x3c(%edi)
    202b:	8b 5f 08             	mov    0x8(%edi),%ebx
    202e:	89 5d dc             	mov    %ebx,-0x24(%ebp)
    2031:	8b 5d e4             	mov    -0x1c(%ebp),%ebx
    2034:	43                   	inc    %ebx
    2035:	89 5d e4             	mov    %ebx,-0x1c(%ebp)
    2038:	8b 5d e4             	mov    -0x1c(%ebp),%ebx
    203b:	39 5d dc             	cmp    %ebx,-0x24(%ebp)
    203e:	0f 86 92 00 00 00    	jbe    20d6 <srv_update_scroll+0x176>
    2044:	8b 56 2c             	mov    0x2c(%esi),%edx
    2047:	8b 45 e0             	mov    -0x20(%ebp),%eax
    204a:	01 d0                	add    %edx,%eax
    204c:	31 d2                	xor    %edx,%edx
    204e:	f7 76 0c             	divl   0xc(%esi)
    2051:	8b 4e 08             	mov    0x8(%esi),%ecx
    2054:	8b 5d e4             	mov    -0x1c(%ebp),%ebx
    2057:	0f af d1             	imul   %ecx,%edx
    205a:	01 da                	add    %ebx,%edx
    205c:	8b 5f 20             	mov    0x20(%edi),%ebx
    205f:	8d 04 52             	lea    (%edx,%edx,2),%eax
    2062:	8b 53 2c             	mov    0x2c(%ebx),%edx
    2065:	8d 4c c6 30          	lea    0x30(%esi,%eax,8),%ecx
    2069:	8b 45 e0             	mov    -0x20(%ebp),%eax
    206c:	01 d0                	add    %edx,%eax
    206e:	31 d2                	xor    %edx,%edx
    2070:	f7 73 0c             	divl   0xc(%ebx)
    2073:	8b 43 08             	mov    0x8(%ebx),%eax
    2076:	0f af d0             	imul   %eax,%edx
    2079:	8b 45 e4             	mov    -0x1c(%ebp),%eax
    207c:	01 c2                	add    %eax,%edx
    207e:	8d 04 52             	lea    (%edx,%edx,2),%eax
    2081:	8b 11                	mov    (%ecx),%edx
    2083:	8d 44 c3 30          	lea    0x30(%ebx,%eax,8),%eax
    2087:	3b 10                	cmp    (%eax),%edx
    2089:	0f 85 31 ff ff ff    	jne    1fc0 <srv_update_scroll+0x60>
    208f:	c6 45 c3 00          	movb   $0x0,-0x3d(%ebp)
    2093:	e9 2e ff ff ff       	jmp    1fc6 <srv_update_scroll+0x66>
    2098:	83 fa 01             	cmp    $0x1,%edx
    209b:	74 7b                	je     2118 <srv_update_scroll+0x1b8>
    209d:	73 59                	jae    20f8 <srv_update_scroll+0x198>
    209f:	8b 55 d4             	mov    -0x2c(%ebp),%edx
    20a2:	39 55 d8             	cmp    %edx,-0x28(%ebp)
    20a5:	0f 94 c2             	sete   %dl
    20a8:	84 d2                	test   %dl,%dl
    20aa:	0f 84 46 ff ff ff    	je     1ff6 <srv_update_scroll+0x96>
    20b0:	8b 41 14             	mov    0x14(%ecx),%eax
    20b3:	83 e0 fe             	and    $0xfffffffe,%eax
    20b6:	89 41 14             	mov    %eax,0x14(%ecx)
    20b9:	80 7d c3 00          	cmpb   $0x0,-0x3d(%ebp)
    20bd:	0f 85 54 ff ff ff    	jne    2017 <srv_update_scroll+0xb7>
    20c3:	8b 5d e4             	mov    -0x1c(%ebp),%ebx
    20c6:	43                   	inc    %ebx
    20c7:	89 5d e4             	mov    %ebx,-0x1c(%ebp)
    20ca:	8b 5d e4             	mov    -0x1c(%ebp),%ebx
    20cd:	39 5d dc             	cmp    %ebx,-0x24(%ebp)
    20d0:	0f 87 6e ff ff ff    	ja     2044 <srv_update_scroll+0xe4>
    20d6:	8b 47 0c             	mov    0xc(%edi),%eax
    20d9:	8b 4d e0             	mov    -0x20(%ebp),%ecx
    20dc:	41                   	inc    %ecx
    20dd:	89 4d e0             	mov    %ecx,-0x20(%ebp)
    20e0:	39 45 e0             	cmp    %eax,-0x20(%ebp)
    20e3:	0f 82 bf fe ff ff    	jb     1fa8 <srv_update_scroll+0x48>
    20e9:	83 c4 4c             	add    $0x4c,%esp
    20ec:	b0 01                	mov    $0x1,%al
    20ee:	5b                   	pop    %ebx
    20ef:	5e                   	pop    %esi
    20f0:	5f                   	pop    %edi
    20f1:	5d                   	pop    %ebp
    20f2:	c3                   	ret    
    20f3:	90                   	nop
    20f4:	8d 74 26 00          	lea    0x0(%esi,%eiz,1),%esi
    20f8:	83 fa 02             	cmp    $0x2,%edx
    20fb:	0f 85 f5 fe ff ff    	jne    1ff6 <srv_update_scroll+0x96>
    2101:	8b 55 d4             	mov    -0x2c(%ebp),%edx
    2104:	39 55 d8             	cmp    %edx,-0x28(%ebp)
    2107:	0f 85 e9 fe ff ff    	jne    1ff6 <srv_update_scroll+0x96>
    210d:	8b 5d cc             	mov    -0x34(%ebp),%ebx
    2110:	39 5d d0             	cmp    %ebx,-0x30(%ebp)
    2113:	0f 94 c2             	sete   %dl
    2116:	eb 90                	jmp    20a8 <srv_update_scroll+0x148>
    2118:	8b 5d d4             	mov    -0x2c(%ebp),%ebx
    211b:	39 5d d8             	cmp    %ebx,-0x28(%ebp)
    211e:	0f 85 d2 fe ff ff    	jne    1ff6 <srv_update_scroll+0x96>
    2124:	8b 55 cc             	mov    -0x34(%ebp),%edx
    2127:	39 55 d0             	cmp    %edx,-0x30(%ebp)
    212a:	0f 85 c6 fe ff ff    	jne    1ff6 <srv_update_scroll+0x96>
    2130:	8b 5d c4             	mov    -0x3c(%ebp),%ebx
    2133:	39 5d c8             	cmp    %ebx,-0x38(%ebp)
    2136:	0f 94 c2             	sete   %dl
    2139:	e9 6a ff ff ff       	jmp    20a8 <srv_update_scroll+0x148>
    213e:	83 c4 4c             	add    $0x4c,%esp
    2141:	31 c0                	xor    %eax,%eax
    2143:	5b                   	pop    %ebx
    2144:	5e                   	pop    %esi
    2145:	5f                   	pop    %edi
    2146:	5d                   	pop    %ebp
    2147:	c3                   	ret    
    2148:	c7 44 24 08 1a 01 00 	movl   $0x11a,0x8(%esp)
    214f:	00 
    2150:	c7 44 24 04 c0 fc 01 	movl   $0x1fcc0,0x4(%esp)
    2157:	00 
    2158:	c7 04 24 c9 fc 01 00 	movl   $0x1fcc9,(%esp)
    215f:	e8 1c ba 01 00       	call   1db80 <assert_abort>
    2164:	8d b6 00 00 00 00    	lea    0x0(%esi),%esi
    216a:	8d bf 00 00 00 00    	lea    0x0(%edi),%edi

00002170 <client_connection>:
    2170:	55                   	push   %ebp
    2171:	89 e5                	mov    %esp,%ebp
    2173:	57                   	push   %edi
    2174:	56                   	push   %esi
    2175:	53                   	push   %ebx
    2176:	81 ec 9c 00 00 00    	sub    $0x9c,%esp
    217c:	8b 45 08             	mov    0x8(%ebp),%eax
    217f:	c7 44 24 04 00 00 00 	movl   $0x0,0x4(%esp)
    2186:	00 
    2187:	89 04 24             	mov    %eax,(%esp)
    218a:	e8 51 3d 01 00       	call   15ee0 <async_answer_0>
    218f:	90                   	nop
    2190:	8d 45 c4             	lea    -0x3c(%ebp),%eax
    2193:	c7 44 24 04 00 00 00 	movl   $0x0,0x4(%esp)
    219a:	00 
    219b:	89 04 24             	mov    %eax,(%esp)
    219e:	e8 0d 27 01 00       	call   148b0 <async_get_call_timeout>
    21a3:	89 85 7c ff ff ff    	mov    %eax,-0x84(%ebp)
    21a9:	8b 45 c4             	mov    -0x3c(%ebp),%eax
    21ac:	85 c0                	test   %eax,%eax
    21ae:	0f 84 45 07 00 00    	je     28f9 <client_connection+0x789>
    21b4:	2d 00 04 00 00       	sub    $0x400,%eax
    21b9:	83 f8 0b             	cmp    $0xb,%eax
    21bc:	76 18                	jbe    21d6 <client_connection+0x66>
    21be:	8b 85 7c ff ff ff    	mov    -0x84(%ebp),%eax
    21c4:	c7 44 24 04 f2 ff ff 	movl   $0xfffffff2,0x4(%esp)
    21cb:	ff 
    21cc:	89 04 24             	mov    %eax,(%esp)
    21cf:	e8 0c 3d 01 00       	call   15ee0 <async_answer_0>
    21d4:	eb ba                	jmp    2190 <client_connection+0x20>
    21d6:	ff 24 85 94 fd 01 00 	jmp    *0x1fd94(,%eax,4)
    21dd:	a1 dc 27 02 00       	mov    0x227dc,%eax
    21e2:	8b 55 c8             	mov    -0x38(%ebp),%edx
    21e5:	3d d8 27 02 00       	cmp    $0x227d8,%eax
    21ea:	75 1a                	jne    2206 <client_connection+0x96>
    21ec:	e9 a6 08 00 00       	jmp    2a97 <client_connection+0x927>
    21f1:	8d b4 26 00 00 00 00 	lea    0x0(%esi,%eiz,1),%esi
    21f8:	8b 40 04             	mov    0x4(%eax),%eax
    21fb:	3d d8 27 02 00       	cmp    $0x227d8,%eax
    2200:	0f 84 91 08 00 00    	je     2a97 <client_connection+0x927>
    2206:	39 d0                	cmp    %edx,%eax
    2208:	75 ee                	jne    21f8 <client_connection+0x88>
    220a:	85 c0                	test   %eax,%eax
    220c:	0f 84 85 08 00 00    	je     2a97 <client_connection+0x927>
    2212:	8b 1d d4 27 02 00    	mov    0x227d4,%ebx
    2218:	8b 78 10             	mov    0x10(%eax),%edi
    221b:	89 5d 9c             	mov    %ebx,-0x64(%ebp)
    221e:	81 fb d0 27 02 00    	cmp    $0x227d0,%ebx
    2224:	0f 84 6d 01 00 00    	je     2397 <client_connection+0x227>
    222a:	8d b6 00 00 00 00    	lea    0x0(%esi),%esi
    2230:	8b 5b 3c             	mov    0x3c(%ebx),%ebx
    2233:	85 db                	test   %ebx,%ebx
    2235:	0f 84 77 08 00 00    	je     2ab2 <client_connection+0x942>
    223b:	89 fa                	mov    %edi,%edx
    223d:	8b 45 9c             	mov    -0x64(%ebp),%eax
    2240:	e8 1b fd ff ff       	call   1f60 <srv_update_scroll>
    2245:	84 c0                	test   %al,%al
    2247:	0f 85 47 07 00 00    	jne    2994 <client_connection+0x824>
    224d:	8b 5d 9c             	mov    -0x64(%ebp),%ebx
    2250:	8b 43 0c             	mov    0xc(%ebx),%eax
    2253:	85 c0                	test   %eax,%eax
    2255:	0f 84 39 07 00 00    	je     2994 <client_connection+0x824>
    225b:	8b 5b 08             	mov    0x8(%ebx),%ebx
    225e:	c7 45 a0 00 00 00 00 	movl   $0x0,-0x60(%ebp)
    2265:	89 5d 90             	mov    %ebx,-0x70(%ebp)
    2268:	8b 55 90             	mov    -0x70(%ebp),%edx
    226b:	31 f6                	xor    %esi,%esi
    226d:	85 d2                	test   %edx,%edx
    226f:	0f 84 0f 07 00 00    	je     2984 <client_connection+0x814>
    2275:	89 f0                	mov    %esi,%eax
    2277:	89 fe                	mov    %edi,%esi
    2279:	89 c7                	mov    %eax,%edi
    227b:	e9 7e 00 00 00       	jmp    22fe <client_connection+0x18e>
    2280:	89 10                	mov    %edx,(%eax)
    2282:	c6 85 7b ff ff ff 01 	movb   $0x1,-0x85(%ebp)
    2289:	8b 59 08             	mov    0x8(%ecx),%ebx
    228c:	8b 51 04             	mov    0x4(%ecx),%edx
    228f:	89 5d 98             	mov    %ebx,-0x68(%ebp)
    2292:	8b 59 0c             	mov    0xc(%ecx),%ebx
    2295:	89 5d 8c             	mov    %ebx,-0x74(%ebp)
    2298:	8b 59 10             	mov    0x10(%ecx),%ebx
    229b:	89 5d 84             	mov    %ebx,-0x7c(%ebp)
    229e:	8b 58 08             	mov    0x8(%eax),%ebx
    22a1:	89 5d 94             	mov    %ebx,-0x6c(%ebp)
    22a4:	8b 58 0c             	mov    0xc(%eax),%ebx
    22a7:	89 5d 88             	mov    %ebx,-0x78(%ebp)
    22aa:	8b 58 10             	mov    0x10(%eax),%ebx
    22ad:	89 5d 80             	mov    %ebx,-0x80(%ebp)
    22b0:	3b 50 04             	cmp    0x4(%eax),%edx
    22b3:	0f 84 87 06 00 00    	je     2940 <client_connection+0x7d0>
    22b9:	8b 51 04             	mov    0x4(%ecx),%edx
    22bc:	89 50 04             	mov    %edx,0x4(%eax)
    22bf:	8b 51 08             	mov    0x8(%ecx),%edx
    22c2:	89 50 08             	mov    %edx,0x8(%eax)
    22c5:	8b 51 0c             	mov    0xc(%ecx),%edx
    22c8:	89 50 0c             	mov    %edx,0xc(%eax)
    22cb:	8b 51 10             	mov    0x10(%ecx),%edx
    22ce:	89 50 10             	mov    %edx,0x10(%eax)
    22d1:	8b 45 a4             	mov    -0x5c(%ebp),%eax
    22d4:	83 e0 fe             	and    $0xfffffffe,%eax
    22d7:	89 41 14             	mov    %eax,0x14(%ecx)
    22da:	8b 5d a0             	mov    -0x60(%ebp),%ebx
    22dd:	89 7c 24 04          	mov    %edi,0x4(%esp)
    22e1:	89 5c 24 08          	mov    %ebx,0x8(%esp)
    22e5:	8b 5d 9c             	mov    -0x64(%ebp),%ebx
    22e8:	89 1c 24             	mov    %ebx,(%esp)
    22eb:	ff 53 3c             	call   *0x3c(%ebx)
    22ee:	8b 5b 08             	mov    0x8(%ebx),%ebx
    22f1:	89 5d 90             	mov    %ebx,-0x70(%ebp)
    22f4:	47                   	inc    %edi
    22f5:	3b 7d 90             	cmp    -0x70(%ebp),%edi
    22f8:	0f 83 7e 06 00 00    	jae    297c <client_connection+0x80c>
    22fe:	8b 56 2c             	mov    0x2c(%esi),%edx
    2301:	8b 45 a0             	mov    -0x60(%ebp),%eax
    2304:	01 d0                	add    %edx,%eax
    2306:	31 d2                	xor    %edx,%edx
    2308:	f7 76 0c             	divl   0xc(%esi)
    230b:	8b 4e 08             	mov    0x8(%esi),%ecx
    230e:	0f af d1             	imul   %ecx,%edx
    2311:	01 fa                	add    %edi,%edx
    2313:	8d 04 52             	lea    (%edx,%edx,2),%eax
    2316:	8d 4c c6 30          	lea    0x30(%esi,%eax,8),%ecx
    231a:	8b 45 9c             	mov    -0x64(%ebp),%eax
    231d:	8b 58 20             	mov    0x20(%eax),%ebx
    2320:	8b 53 0c             	mov    0xc(%ebx),%edx
    2323:	8b 43 2c             	mov    0x2c(%ebx),%eax
    2326:	89 55 98             	mov    %edx,-0x68(%ebp)
    2329:	8b 53 08             	mov    0x8(%ebx),%edx
    232c:	89 55 94             	mov    %edx,-0x6c(%ebp)
    232f:	8b 51 14             	mov    0x14(%ecx),%edx
    2332:	89 55 a4             	mov    %edx,-0x5c(%ebp)
    2335:	83 e2 01             	and    $0x1,%edx
    2338:	74 ba                	je     22f4 <client_connection+0x184>
    233a:	8b 55 a0             	mov    -0x60(%ebp),%edx
    233d:	01 d0                	add    %edx,%eax
    233f:	31 d2                	xor    %edx,%edx
    2341:	f7 75 98             	divl   -0x68(%ebp)
    2344:	8b 45 94             	mov    -0x6c(%ebp),%eax
    2347:	0f af d0             	imul   %eax,%edx
    234a:	01 fa                	add    %edi,%edx
    234c:	8d 04 52             	lea    (%edx,%edx,2),%eax
    234f:	8b 11                	mov    (%ecx),%edx
    2351:	8d 44 c3 30          	lea    0x30(%ebx,%eax,8),%eax
    2355:	3b 10                	cmp    (%eax),%edx
    2357:	0f 85 23 ff ff ff    	jne    2280 <client_connection+0x110>
    235d:	c6 85 7b ff ff ff 00 	movb   $0x0,-0x85(%ebp)
    2364:	e9 20 ff ff ff       	jmp    2289 <client_connection+0x119>
    2369:	a1 d4 27 02 00       	mov    0x227d4,%eax
    236e:	3d d0 27 02 00       	cmp    $0x227d0,%eax
    2373:	74 22                	je     2397 <client_connection+0x227>
    2375:	8b 4d c8             	mov    -0x38(%ebp),%ecx
    2378:	8b 55 cc             	mov    -0x34(%ebp),%edx
    237b:	90                   	nop
    237c:	8d 74 26 00          	lea    0x0(%esi,%eiz,1),%esi
    2380:	c7 40 10 02 00 00 00 	movl   $0x2,0x10(%eax)
    2387:	89 48 14             	mov    %ecx,0x14(%eax)
    238a:	89 50 18             	mov    %edx,0x18(%eax)
    238d:	8b 40 04             	mov    0x4(%eax),%eax
    2390:	3d d0 27 02 00       	cmp    $0x227d0,%eax
    2395:	75 e9                	jne    2380 <client_connection+0x210>
    2397:	8b 85 7c ff ff ff    	mov    -0x84(%ebp),%eax
    239d:	c7 44 24 04 00 00 00 	movl   $0x0,0x4(%esp)
    23a4:	00 
    23a5:	89 04 24             	mov    %eax,(%esp)
    23a8:	e8 33 3b 01 00       	call   15ee0 <async_answer_0>
    23ad:	e9 de fd ff ff       	jmp    2190 <client_connection+0x20>
    23b2:	a1 d4 27 02 00       	mov    0x227d4,%eax
    23b7:	3d d0 27 02 00       	cmp    $0x227d0,%eax
    23bc:	74 d9                	je     2397 <client_connection+0x227>
    23be:	8b 5d d0             	mov    -0x30(%ebp),%ebx
    23c1:	8b 4d c8             	mov    -0x38(%ebp),%ecx
    23c4:	8b 55 cc             	mov    -0x34(%ebp),%edx
    23c7:	90                   	nop
    23c8:	c7 40 10 01 00 00 00 	movl   $0x1,0x10(%eax)
    23cf:	89 48 14             	mov    %ecx,0x14(%eax)
    23d2:	89 50 18             	mov    %edx,0x18(%eax)
    23d5:	89 58 1c             	mov    %ebx,0x1c(%eax)
    23d8:	8b 40 04             	mov    0x4(%eax),%eax
    23db:	3d d0 27 02 00       	cmp    $0x227d0,%eax
    23e0:	75 e6                	jne    23c8 <client_connection+0x258>
    23e2:	eb b3                	jmp    2397 <client_connection+0x227>
    23e4:	a1 d4 27 02 00       	mov    0x227d4,%eax
    23e9:	3d d0 27 02 00       	cmp    $0x227d0,%eax
    23ee:	74 a7                	je     2397 <client_connection+0x227>
    23f0:	8b 55 c8             	mov    -0x38(%ebp),%edx
    23f3:	90                   	nop
    23f4:	8d 74 26 00          	lea    0x0(%esi,%eiz,1),%esi
    23f8:	c7 40 10 00 00 00 00 	movl   $0x0,0x10(%eax)
    23ff:	89 50 14             	mov    %edx,0x14(%eax)
    2402:	8b 40 04             	mov    0x4(%eax),%eax
    2405:	3d d0 27 02 00       	cmp    $0x227d0,%eax
    240a:	75 ec                	jne    23f8 <client_connection+0x288>
    240c:	eb 89                	jmp    2397 <client_connection+0x227>
    240e:	a1 dc 27 02 00       	mov    0x227dc,%eax
    2413:	8b 55 c8             	mov    -0x38(%ebp),%edx
    2416:	3d d8 27 02 00       	cmp    $0x227d8,%eax
    241b:	75 19                	jne    2436 <client_connection+0x2c6>
    241d:	e9 75 06 00 00       	jmp    2a97 <client_connection+0x927>
    2422:	8d b6 00 00 00 00    	lea    0x0(%esi),%esi
    2428:	8b 40 04             	mov    0x4(%eax),%eax
    242b:	3d d8 27 02 00       	cmp    $0x227d8,%eax
    2430:	0f 84 61 06 00 00    	je     2a97 <client_connection+0x927>
    2436:	39 d0                	cmp    %edx,%eax
    2438:	75 ee                	jne    2428 <client_connection+0x2b8>
    243a:	85 c0                	test   %eax,%eax
    243c:	0f 84 55 06 00 00    	je     2a97 <client_connection+0x927>
    2442:	8b 70 10             	mov    0x10(%eax),%esi
    2445:	89 34 24             	mov    %esi,(%esp)
    2448:	e8 c3 ba 00 00       	call   df10 <chargrid_get_cursor_visibility>
    244d:	8d 55 b8             	lea    -0x48(%ebp),%edx
    2450:	88 c3                	mov    %al,%bl
    2452:	8d 45 b4             	lea    -0x4c(%ebp),%eax
    2455:	89 54 24 08          	mov    %edx,0x8(%esp)
    2459:	89 44 24 04          	mov    %eax,0x4(%esp)
    245d:	89 34 24             	mov    %esi,(%esp)
    2460:	e8 4b ba 00 00       	call   deb0 <chargrid_get_cursor>
    2465:	8b 3d d4 27 02 00    	mov    0x227d4,%edi
    246b:	81 ff d0 27 02 00    	cmp    $0x227d0,%edi
    2471:	0f 84 20 ff ff ff    	je     2397 <client_connection+0x227>
    2477:	8b 47 38             	mov    0x38(%edi),%eax
    247a:	85 c0                	test   %eax,%eax
    247c:	0f 84 4c 06 00 00    	je     2ace <client_connection+0x95e>
    2482:	81 e3 ff 00 00 00    	and    $0xff,%ebx
    2488:	8d 75 c0             	lea    -0x40(%ebp),%esi
    248b:	eb 0e                	jmp    249b <client_connection+0x32b>
    248d:	8d 76 00             	lea    0x0(%esi),%esi
    2490:	8b 47 38             	mov    0x38(%edi),%eax
    2493:	85 c0                	test   %eax,%eax
    2495:	0f 84 33 06 00 00    	je     2ace <client_connection+0x95e>
    249b:	8d 55 bc             	lea    -0x44(%ebp),%edx
    249e:	89 74 24 08          	mov    %esi,0x8(%esp)
    24a2:	89 54 24 04          	mov    %edx,0x4(%esp)
    24a6:	8b 47 20             	mov    0x20(%edi),%eax
    24a9:	89 04 24             	mov    %eax,(%esp)
    24ac:	e8 ff b9 00 00       	call   deb0 <chargrid_get_cursor>
    24b1:	8b 45 b8             	mov    -0x48(%ebp),%eax
    24b4:	89 44 24 08          	mov    %eax,0x8(%esp)
    24b8:	8b 45 b4             	mov    -0x4c(%ebp),%eax
    24bb:	89 44 24 04          	mov    %eax,0x4(%esp)
    24bf:	8b 47 20             	mov    0x20(%edi),%eax
    24c2:	89 04 24             	mov    %eax,(%esp)
    24c5:	e8 b6 b9 00 00       	call   de80 <chargrid_set_cursor>
    24ca:	89 5c 24 04          	mov    %ebx,0x4(%esp)
    24ce:	8b 47 20             	mov    0x20(%edi),%eax
    24d1:	89 04 24             	mov    %eax,(%esp)
    24d4:	e8 c7 b9 00 00       	call   dea0 <chargrid_set_cursor_visibility>
    24d9:	8b 45 b8             	mov    -0x48(%ebp),%eax
    24dc:	89 44 24 10          	mov    %eax,0x10(%esp)
    24e0:	8b 45 b4             	mov    -0x4c(%ebp),%eax
    24e3:	89 44 24 0c          	mov    %eax,0xc(%esp)
    24e7:	8b 45 c0             	mov    -0x40(%ebp),%eax
    24ea:	89 44 24 08          	mov    %eax,0x8(%esp)
    24ee:	8b 45 bc             	mov    -0x44(%ebp),%eax
    24f1:	89 3c 24             	mov    %edi,(%esp)
    24f4:	89 5c 24 14          	mov    %ebx,0x14(%esp)
    24f8:	89 44 24 04          	mov    %eax,0x4(%esp)
    24fc:	ff 57 38             	call   *0x38(%edi)
    24ff:	8b 7f 04             	mov    0x4(%edi),%edi
    2502:	81 ff d0 27 02 00    	cmp    $0x227d0,%edi
    2508:	75 86                	jne    2490 <client_connection+0x320>
    250a:	e9 88 fe ff ff       	jmp    2397 <client_connection+0x227>
    250f:	8b 1d dc 27 02 00    	mov    0x227dc,%ebx
    2515:	8b 45 c8             	mov    -0x38(%ebp),%eax
    2518:	81 fb d8 27 02 00    	cmp    $0x227d8,%ebx
    251e:	75 17                	jne    2537 <client_connection+0x3c7>
    2520:	e9 72 05 00 00       	jmp    2a97 <client_connection+0x927>
    2525:	8d 76 00             	lea    0x0(%esi),%esi
    2528:	8b 5b 04             	mov    0x4(%ebx),%ebx
    252b:	81 fb d8 27 02 00    	cmp    $0x227d8,%ebx
    2531:	0f 84 60 05 00 00    	je     2a97 <client_connection+0x927>
    2537:	39 c3                	cmp    %eax,%ebx
    2539:	75 ed                	jne    2528 <client_connection+0x3b8>
    253b:	85 db                	test   %ebx,%ebx
    253d:	0f 84 54 05 00 00    	je     2a97 <client_connection+0x927>
    2543:	8b 13                	mov    (%ebx),%edx
    2545:	85 d2                	test   %edx,%edx
    2547:	74 0e                	je     2557 <client_connection+0x3e7>
    2549:	8b 43 04             	mov    0x4(%ebx),%eax
    254c:	85 c0                	test   %eax,%eax
    254e:	74 07                	je     2557 <client_connection+0x3e7>
    2550:	89 10                	mov    %edx,(%eax)
    2552:	8b 13                	mov    (%ebx),%edx
    2554:	89 42 04             	mov    %eax,0x4(%edx)
    2557:	8b 43 10             	mov    0x10(%ebx),%eax
    255a:	c7 03 00 00 00 00    	movl   $0x0,(%ebx)
    2560:	c7 43 04 00 00 00 00 	movl   $0x0,0x4(%ebx)
    2567:	89 04 24             	mov    %eax,(%esp)
    256a:	e8 91 0e 00 00       	call   3400 <as_area_destroy>
    256f:	89 1c 24             	mov    %ebx,(%esp)
    2572:	e8 c9 0b 01 00       	call   13140 <free>
    2577:	8b 85 7c ff ff ff    	mov    -0x84(%ebp),%eax
    257d:	c7 44 24 04 00 00 00 	movl   $0x0,0x4(%esp)
    2584:	00 
    2585:	89 04 24             	mov    %eax,(%esp)
    2588:	e8 53 39 01 00       	call   15ee0 <async_answer_0>
    258d:	e9 fe fb ff ff       	jmp    2190 <client_connection+0x20>
    2592:	c7 04 24 14 00 00 00 	movl   $0x14,(%esp)
    2599:	e8 92 0a 01 00       	call   13030 <malloc>
    259e:	89 c3                	mov    %eax,%ebx
    25a0:	85 c0                	test   %eax,%eax
    25a2:	0f 84 56 04 00 00    	je     29fe <client_connection+0x88e>
    25a8:	c7 00 00 00 00 00    	movl   $0x0,(%eax)
    25ae:	c7 40 04 00 00 00 00 	movl   $0x0,0x4(%eax)
    25b5:	8d 40 0c             	lea    0xc(%eax),%eax
    25b8:	8d 75 c0             	lea    -0x40(%ebp),%esi
    25bb:	89 44 24 08          	mov    %eax,0x8(%esp)
    25bf:	8d 43 08             	lea    0x8(%ebx),%eax
    25c2:	89 44 24 04          	mov    %eax,0x4(%esp)
    25c6:	89 34 24             	mov    %esi,(%esp)
    25c9:	e8 22 4b 01 00       	call   170f0 <async_share_out_receive>
    25ce:	84 c0                	test   %al,%al
    25d0:	0f 84 44 03 00 00    	je     291a <client_connection+0x7aa>
    25d6:	8d 43 10             	lea    0x10(%ebx),%eax
    25d9:	89 44 24 04          	mov    %eax,0x4(%esp)
    25dd:	8b 45 c0             	mov    -0x40(%ebp),%eax
    25e0:	89 04 24             	mov    %eax,(%esp)
    25e3:	e8 a8 4b 01 00       	call   17190 <async_share_out_finalize>
    25e8:	85 c0                	test   %eax,%eax
    25ea:	0f 85 06 04 00 00    	jne    29f6 <client_connection+0x886>
    25f0:	83 7b 10 ff          	cmpl   $0xffffffff,0x10(%ebx)
    25f4:	0f 84 fc 03 00 00    	je     29f6 <client_connection+0x886>
    25fa:	a1 d8 27 02 00       	mov    0x227d8,%eax
    25ff:	c7 43 04 d8 27 02 00 	movl   $0x227d8,0x4(%ebx)
    2606:	89 03                	mov    %eax,(%ebx)
    2608:	89 1d d8 27 02 00    	mov    %ebx,0x227d8
    260e:	89 58 04             	mov    %ebx,0x4(%eax)
    2611:	8b 85 7c ff ff ff    	mov    -0x84(%ebp),%eax
    2617:	89 5c 24 08          	mov    %ebx,0x8(%esp)
    261b:	c7 44 24 04 00 00 00 	movl   $0x0,0x4(%esp)
    2622:	00 
    2623:	89 04 24             	mov    %eax,(%esp)
    2626:	e8 f5 38 01 00       	call   15f20 <async_answer_1>
    262b:	e9 60 fb ff ff       	jmp    2190 <client_connection+0x20>
    2630:	8b 1d d4 27 02 00    	mov    0x227d4,%ebx
    2636:	81 fb d0 27 02 00    	cmp    $0x227d0,%ebx
    263c:	0f 84 4e 04 00 00    	je     2a90 <client_connection+0x920>
    2642:	8b 43 34             	mov    0x34(%ebx),%eax
    2645:	85 c0                	test   %eax,%eax
    2647:	0f 84 e8 03 00 00    	je     2a35 <client_connection+0x8c5>
    264d:	31 f6                	xor    %esi,%esi
    264f:	eb 12                	jmp    2663 <client_connection+0x4f3>
    2651:	8d b4 26 00 00 00 00 	lea    0x0(%esi,%eiz,1),%esi
    2658:	8b 43 34             	mov    0x34(%ebx),%eax
    265b:	85 c0                	test   %eax,%eax
    265d:	0f 84 d2 03 00 00    	je     2a35 <client_connection+0x8c5>
    2663:	89 1c 24             	mov    %ebx,(%esp)
    2666:	ff d0                	call   *%eax
    2668:	8b 5b 04             	mov    0x4(%ebx),%ebx
    266b:	09 c6                	or     %eax,%esi
    266d:	81 fb d0 27 02 00    	cmp    $0x227d0,%ebx
    2673:	75 e3                	jne    2658 <client_connection+0x4e8>
    2675:	8b 85 7c ff ff ff    	mov    -0x84(%ebp),%eax
    267b:	89 74 24 08          	mov    %esi,0x8(%esp)
    267f:	c7 44 24 04 00 00 00 	movl   $0x0,0x4(%esp)
    2686:	00 
    2687:	89 04 24             	mov    %eax,(%esp)
    268a:	e8 91 38 01 00       	call   15f20 <async_answer_1>
    268f:	e9 fc fa ff ff       	jmp    2190 <client_connection+0x20>
    2694:	a1 d4 27 02 00       	mov    0x227d4,%eax
    2699:	bb 80 00 00 00       	mov    $0x80,%ebx
    269e:	b9 80 00 00 00       	mov    $0x80,%ecx
    26a3:	3d d0 27 02 00       	cmp    $0x227d0,%eax
    26a8:	74 22                	je     26cc <client_connection+0x55c>
    26aa:	8d b6 00 00 00 00    	lea    0x0(%esi),%esi
    26b0:	8b 50 08             	mov    0x8(%eax),%edx
    26b3:	39 d1                	cmp    %edx,%ecx
    26b5:	76 02                	jbe    26b9 <client_connection+0x549>
    26b7:	89 d1                	mov    %edx,%ecx
    26b9:	8b 50 0c             	mov    0xc(%eax),%edx
    26bc:	39 d3                	cmp    %edx,%ebx
    26be:	76 02                	jbe    26c2 <client_connection+0x552>
    26c0:	89 d3                	mov    %edx,%ebx
    26c2:	8b 40 04             	mov    0x4(%eax),%eax
    26c5:	3d d0 27 02 00       	cmp    $0x227d0,%eax
    26ca:	75 e4                	jne    26b0 <client_connection+0x540>
    26cc:	8b 85 7c ff ff ff    	mov    -0x84(%ebp),%eax
    26d2:	89 5c 24 0c          	mov    %ebx,0xc(%esp)
    26d6:	89 4c 24 08          	mov    %ecx,0x8(%esp)
    26da:	c7 44 24 04 00 00 00 	movl   $0x0,0x4(%esp)
    26e1:	00 
    26e2:	89 04 24             	mov    %eax,(%esp)
    26e5:	e8 76 38 01 00       	call   15f60 <async_answer_2>
    26ea:	e9 a1 fa ff ff       	jmp    2190 <client_connection+0x20>
    26ef:	8b 1d d4 27 02 00    	mov    0x227d4,%ebx
    26f5:	81 fb d0 27 02 00    	cmp    $0x227d0,%ebx
    26fb:	0f 84 50 03 00 00    	je     2a51 <client_connection+0x8e1>
    2701:	8b 43 2c             	mov    0x2c(%ebx),%eax
    2704:	85 c0                	test   %eax,%eax
    2706:	0f 84 4c 03 00 00    	je     2a58 <client_connection+0x8e8>
    270c:	31 f6                	xor    %esi,%esi
    270e:	eb 0b                	jmp    271b <client_connection+0x5ab>
    2710:	8b 43 2c             	mov    0x2c(%ebx),%eax
    2713:	85 c0                	test   %eax,%eax
    2715:	0f 84 3d 03 00 00    	je     2a58 <client_connection+0x8e8>
    271b:	89 1c 24             	mov    %ebx,(%esp)
    271e:	ff d0                	call   *%eax
    2720:	85 c0                	test   %eax,%eax
    2722:	74 02                	je     2726 <client_connection+0x5b6>
    2724:	89 c6                	mov    %eax,%esi
    2726:	8b 5b 04             	mov    0x4(%ebx),%ebx
    2729:	81 fb d0 27 02 00    	cmp    $0x227d0,%ebx
    272f:	75 df                	jne    2710 <client_connection+0x5a0>
    2731:	8b 85 7c ff ff ff    	mov    -0x84(%ebp),%eax
    2737:	89 74 24 04          	mov    %esi,0x4(%esp)
    273b:	89 04 24             	mov    %eax,(%esp)
    273e:	e8 9d 37 01 00       	call   15ee0 <async_answer_0>
    2743:	e9 48 fa ff ff       	jmp    2190 <client_connection+0x20>
    2748:	8b 1d d4 27 02 00    	mov    0x227d4,%ebx
    274e:	81 fb d0 27 02 00    	cmp    $0x227d0,%ebx
    2754:	0f 84 f7 02 00 00    	je     2a51 <client_connection+0x8e1>
    275a:	8b 43 28             	mov    0x28(%ebx),%eax
    275d:	85 c0                	test   %eax,%eax
    275f:	0f 84 0f 03 00 00    	je     2a74 <client_connection+0x904>
    2765:	31 f6                	xor    %esi,%esi
    2767:	eb 12                	jmp    277b <client_connection+0x60b>
    2769:	8d b4 26 00 00 00 00 	lea    0x0(%esi,%eiz,1),%esi
    2770:	8b 43 28             	mov    0x28(%ebx),%eax
    2773:	85 c0                	test   %eax,%eax
    2775:	0f 84 f9 02 00 00    	je     2a74 <client_connection+0x904>
    277b:	89 1c 24             	mov    %ebx,(%esp)
    277e:	ff d0                	call   *%eax
    2780:	85 c0                	test   %eax,%eax
    2782:	74 02                	je     2786 <client_connection+0x616>
    2784:	89 c6                	mov    %eax,%esi
    2786:	8b 5b 04             	mov    0x4(%ebx),%ebx
    2789:	81 fb d0 27 02 00    	cmp    $0x227d0,%ebx
    278f:	75 df                	jne    2770 <client_connection+0x600>
    2791:	eb 9e                	jmp    2731 <client_connection+0x5c1>
    2793:	a1 dc 27 02 00       	mov    0x227dc,%eax
    2798:	8b 55 c8             	mov    -0x38(%ebp),%edx
    279b:	3d d8 27 02 00       	cmp    $0x227d8,%eax
    27a0:	75 14                	jne    27b6 <client_connection+0x646>
    27a2:	e9 f0 02 00 00       	jmp    2a97 <client_connection+0x927>
    27a7:	90                   	nop
    27a8:	8b 40 04             	mov    0x4(%eax),%eax
    27ab:	3d d8 27 02 00       	cmp    $0x227d8,%eax
    27b0:	0f 84 e1 02 00 00    	je     2a97 <client_connection+0x927>
    27b6:	39 d0                	cmp    %edx,%eax
    27b8:	75 ee                	jne    27a8 <client_connection+0x638>
    27ba:	85 c0                	test   %eax,%eax
    27bc:	0f 84 d5 02 00 00    	je     2a97 <client_connection+0x927>
    27c2:	8b 3d d4 27 02 00    	mov    0x227d4,%edi
    27c8:	8b 70 10             	mov    0x10(%eax),%esi
    27cb:	81 ff d0 27 02 00    	cmp    $0x227d0,%edi
    27d1:	0f 84 c0 fb ff ff    	je     2397 <client_connection+0x227>
    27d7:	90                   	nop
    27d8:	8b 5f 3c             	mov    0x3c(%edi),%ebx
    27db:	85 db                	test   %ebx,%ebx
    27dd:	0f 84 36 02 00 00    	je     2a19 <client_connection+0x8a9>
    27e3:	89 f2                	mov    %esi,%edx
    27e5:	89 f8                	mov    %edi,%eax
    27e7:	e8 74 f7 ff ff       	call   1f60 <srv_update_scroll>
    27ec:	84 c0                	test   %al,%al
    27ee:	0f 85 f1 00 00 00    	jne    28e5 <client_connection+0x775>
    27f4:	8b 5d cc             	mov    -0x34(%ebp),%ebx
    27f7:	8b 45 d8             	mov    -0x28(%ebp),%eax
    27fa:	89 5d 90             	mov    %ebx,-0x70(%ebp)
    27fd:	8b 5d d0             	mov    -0x30(%ebp),%ebx
    2800:	89 5d a0             	mov    %ebx,-0x60(%ebp)
    2803:	8b 5d d4             	mov    -0x2c(%ebp),%ebx
    2806:	89 5d 98             	mov    %ebx,-0x68(%ebp)
    2809:	85 c0                	test   %eax,%eax
    280b:	0f 84 d4 00 00 00    	je     28e5 <client_connection+0x775>
    2811:	8b 55 a0             	mov    -0x60(%ebp),%edx
    2814:	8b 4d 90             	mov    -0x70(%ebp),%ecx
    2817:	01 d0                	add    %edx,%eax
    2819:	01 cb                	add    %ecx,%ebx
    281b:	89 45 94             	mov    %eax,-0x6c(%ebp)
    281e:	89 5d 9c             	mov    %ebx,-0x64(%ebp)
    2821:	8d b4 26 00 00 00 00 	lea    0x0(%esi,%eiz,1),%esi
    2828:	8b 45 98             	mov    -0x68(%ebp),%eax
    282b:	85 c0                	test   %eax,%eax
    282d:	0f 84 9f 00 00 00    	je     28d2 <client_connection+0x762>
    2833:	8b 5d 90             	mov    -0x70(%ebp),%ebx
    2836:	89 5d 88             	mov    %ebx,-0x78(%ebp)
    2839:	8d b4 26 00 00 00 00 	lea    0x0(%esi,%eiz,1),%esi
    2840:	8b 56 2c             	mov    0x2c(%esi),%edx
    2843:	8b 45 a0             	mov    -0x60(%ebp),%eax
    2846:	01 d0                	add    %edx,%eax
    2848:	31 d2                	xor    %edx,%edx
    284a:	f7 76 0c             	divl   0xc(%esi)
    284d:	8b 4e 08             	mov    0x8(%esi),%ecx
    2850:	8b 5d 88             	mov    -0x78(%ebp),%ebx
    2853:	0f af d1             	imul   %ecx,%edx
    2856:	01 da                	add    %ebx,%edx
    2858:	8b 5f 20             	mov    0x20(%edi),%ebx
    285b:	8d 04 52             	lea    (%edx,%edx,2),%eax
    285e:	8b 53 2c             	mov    0x2c(%ebx),%edx
    2861:	8d 4c c6 30          	lea    0x30(%esi,%eax,8),%ecx
    2865:	8b 45 a0             	mov    -0x60(%ebp),%eax
    2868:	01 d0                	add    %edx,%eax
    286a:	31 d2                	xor    %edx,%edx
    286c:	89 45 a4             	mov    %eax,-0x5c(%ebp)
    286f:	f7 73 0c             	divl   0xc(%ebx)
    2872:	8b 43 08             	mov    0x8(%ebx),%eax
    2875:	0f af d0             	imul   %eax,%edx
    2878:	89 55 8c             	mov    %edx,-0x74(%ebp)
    287b:	8b 55 88             	mov    -0x78(%ebp),%edx
    287e:	8b 45 8c             	mov    -0x74(%ebp),%eax
    2881:	01 c2                	add    %eax,%edx
    2883:	8d 04 52             	lea    (%edx,%edx,2),%eax
    2886:	8b 11                	mov    (%ecx),%edx
    2888:	8d 44 c3 30          	lea    0x30(%ebx,%eax,8),%eax
    288c:	8b 5d a0             	mov    -0x60(%ebp),%ebx
    288f:	89 10                	mov    %edx,(%eax)
    2891:	8b 51 04             	mov    0x4(%ecx),%edx
    2894:	89 50 04             	mov    %edx,0x4(%eax)
    2897:	8b 51 08             	mov    0x8(%ecx),%edx
    289a:	89 50 08             	mov    %edx,0x8(%eax)
    289d:	8b 51 0c             	mov    0xc(%ecx),%edx
    28a0:	89 50 0c             	mov    %edx,0xc(%eax)
    28a3:	8b 51 10             	mov    0x10(%ecx),%edx
    28a6:	89 50 10             	mov    %edx,0x10(%eax)
    28a9:	8b 41 14             	mov    0x14(%ecx),%eax
    28ac:	83 e0 fe             	and    $0xfffffffe,%eax
    28af:	89 41 14             	mov    %eax,0x14(%ecx)
    28b2:	89 5c 24 08          	mov    %ebx,0x8(%esp)
    28b6:	8b 5d 88             	mov    -0x78(%ebp),%ebx
    28b9:	89 3c 24             	mov    %edi,(%esp)
    28bc:	89 5c 24 04          	mov    %ebx,0x4(%esp)
    28c0:	43                   	inc    %ebx
    28c1:	ff 57 3c             	call   *0x3c(%edi)
    28c4:	8b 45 9c             	mov    -0x64(%ebp),%eax
    28c7:	89 5d 88             	mov    %ebx,-0x78(%ebp)
    28ca:	39 c3                	cmp    %eax,%ebx
    28cc:	0f 85 6e ff ff ff    	jne    2840 <client_connection+0x6d0>
    28d2:	8b 45 a0             	mov    -0x60(%ebp),%eax
    28d5:	8b 5d 94             	mov    -0x6c(%ebp),%ebx
    28d8:	40                   	inc    %eax
    28d9:	89 45 a0             	mov    %eax,-0x60(%ebp)
    28dc:	39 5d a0             	cmp    %ebx,-0x60(%ebp)
    28df:	0f 85 43 ff ff ff    	jne    2828 <client_connection+0x6b8>
    28e5:	8b 7f 04             	mov    0x4(%edi),%edi
    28e8:	81 ff d0 27 02 00    	cmp    $0x227d0,%edi
    28ee:	0f 85 e4 fe ff ff    	jne    27d8 <client_connection+0x668>
    28f4:	e9 9e fa ff ff       	jmp    2397 <client_connection+0x227>
    28f9:	8b 85 7c ff ff ff    	mov    -0x84(%ebp),%eax
    28ff:	c7 44 24 04 00 00 00 	movl   $0x0,0x4(%esp)
    2906:	00 
    2907:	89 04 24             	mov    %eax,(%esp)
    290a:	e8 d1 35 01 00       	call   15ee0 <async_answer_0>
    290f:	81 c4 9c 00 00 00    	add    $0x9c,%esp
    2915:	5b                   	pop    %ebx
    2916:	5e                   	pop    %esi
    2917:	5f                   	pop    %edi
    2918:	5d                   	pop    %ebp
    2919:	c3                   	ret    
    291a:	89 1c 24             	mov    %ebx,(%esp)
    291d:	e8 1e 08 01 00       	call   13140 <free>
    2922:	8b 85 7c ff ff ff    	mov    -0x84(%ebp),%eax
    2928:	c7 44 24 04 f2 ff ff 	movl   $0xfffffff2,0x4(%esp)
    292f:	ff 
    2930:	89 04 24             	mov    %eax,(%esp)
    2933:	e8 a8 35 01 00       	call   15ee0 <async_answer_0>
    2938:	e9 53 f8 ff ff       	jmp    2190 <client_connection+0x20>
    293d:	8d 76 00             	lea    0x0(%esi),%esi
    2940:	83 fa 01             	cmp    $0x1,%edx
    2943:	0f 84 87 00 00 00    	je     29d0 <client_connection+0x860>
    2949:	73 65                	jae    29b0 <client_connection+0x840>
    294b:	8b 55 94             	mov    -0x6c(%ebp),%edx
    294e:	39 55 98             	cmp    %edx,-0x68(%ebp)
    2951:	0f 94 c2             	sete   %dl
    2954:	84 d2                	test   %dl,%dl
    2956:	0f 84 5d f9 ff ff    	je     22b9 <client_connection+0x149>
    295c:	8b 45 a4             	mov    -0x5c(%ebp),%eax
    295f:	83 e0 fe             	and    $0xfffffffe,%eax
    2962:	89 41 14             	mov    %eax,0x14(%ecx)
    2965:	80 bd 7b ff ff ff 00 	cmpb   $0x0,-0x85(%ebp)
    296c:	0f 85 68 f9 ff ff    	jne    22da <client_connection+0x16a>
    2972:	47                   	inc    %edi
    2973:	3b 7d 90             	cmp    -0x70(%ebp),%edi
    2976:	0f 82 82 f9 ff ff    	jb     22fe <client_connection+0x18e>
    297c:	8b 5d 9c             	mov    -0x64(%ebp),%ebx
    297f:	89 f7                	mov    %esi,%edi
    2981:	8b 43 0c             	mov    0xc(%ebx),%eax
    2984:	8b 4d a0             	mov    -0x60(%ebp),%ecx
    2987:	41                   	inc    %ecx
    2988:	89 4d a0             	mov    %ecx,-0x60(%ebp)
    298b:	3b 45 a0             	cmp    -0x60(%ebp),%eax
    298e:	0f 87 d4 f8 ff ff    	ja     2268 <client_connection+0xf8>
    2994:	8b 5d 9c             	mov    -0x64(%ebp),%ebx
    2997:	8b 5b 04             	mov    0x4(%ebx),%ebx
    299a:	89 5d 9c             	mov    %ebx,-0x64(%ebp)
    299d:	81 fb d0 27 02 00    	cmp    $0x227d0,%ebx
    29a3:	0f 85 87 f8 ff ff    	jne    2230 <client_connection+0xc0>
    29a9:	e9 e9 f9 ff ff       	jmp    2397 <client_connection+0x227>
    29ae:	66 90                	xchg   %ax,%ax
    29b0:	83 fa 02             	cmp    $0x2,%edx
    29b3:	0f 85 00 f9 ff ff    	jne    22b9 <client_connection+0x149>
    29b9:	8b 55 94             	mov    -0x6c(%ebp),%edx
    29bc:	39 55 98             	cmp    %edx,-0x68(%ebp)
    29bf:	0f 85 f4 f8 ff ff    	jne    22b9 <client_connection+0x149>
    29c5:	8b 5d 88             	mov    -0x78(%ebp),%ebx
    29c8:	39 5d 8c             	cmp    %ebx,-0x74(%ebp)
    29cb:	0f 94 c2             	sete   %dl
    29ce:	eb 84                	jmp    2954 <client_connection+0x7e4>
    29d0:	8b 5d 94             	mov    -0x6c(%ebp),%ebx
    29d3:	39 5d 98             	cmp    %ebx,-0x68(%ebp)
    29d6:	0f 85 dd f8 ff ff    	jne    22b9 <client_connection+0x149>
    29dc:	8b 55 88             	mov    -0x78(%ebp),%edx
    29df:	39 55 8c             	cmp    %edx,-0x74(%ebp)
    29e2:	0f 85 d1 f8 ff ff    	jne    22b9 <client_connection+0x149>
    29e8:	8b 5d 80             	mov    -0x80(%ebp),%ebx
    29eb:	39 5d 84             	cmp    %ebx,-0x7c(%ebp)
    29ee:	0f 94 c2             	sete   %dl
    29f1:	e9 5e ff ff ff       	jmp    2954 <client_connection+0x7e4>
    29f6:	89 1c 24             	mov    %ebx,(%esp)
    29f9:	e8 42 07 01 00       	call   13140 <free>
    29fe:	8b 85 7c ff ff ff    	mov    -0x84(%ebp),%eax
    2a04:	c7 44 24 04 fe ff ff 	movl   $0xfffffffe,0x4(%esp)
    2a0b:	ff 
    2a0c:	89 04 24             	mov    %eax,(%esp)
    2a0f:	e8 cc 34 01 00       	call   15ee0 <async_answer_0>
    2a14:	e9 77 f7 ff ff       	jmp    2190 <client_connection+0x20>
    2a19:	c7 44 24 08 7b 01 00 	movl   $0x17b,0x8(%esp)
    2a20:	00 
    2a21:	c7 44 24 04 c0 fc 01 	movl   $0x1fcc0,0x4(%esp)
    2a28:	00 
    2a29:	c7 04 24 c9 fc 01 00 	movl   $0x1fcc9,(%esp)
    2a30:	e8 4b b1 01 00       	call   1db80 <assert_abort>
    2a35:	c7 44 24 08 88 00 00 	movl   $0x88,0x8(%esp)
    2a3c:	00 
    2a3d:	c7 44 24 04 c0 fc 01 	movl   $0x1fcc0,0x4(%esp)
    2a44:	00 
    2a45:	c7 04 24 fc fc 01 00 	movl   $0x1fcfc,(%esp)
    2a4c:	e8 2f b1 01 00       	call   1db80 <assert_abort>
    2a51:	31 f6                	xor    %esi,%esi
    2a53:	e9 d9 fc ff ff       	jmp    2731 <client_connection+0x5c1>
    2a58:	c7 44 24 08 68 00 00 	movl   $0x68,0x8(%esp)
    2a5f:	00 
    2a60:	c7 44 24 04 c0 fc 01 	movl   $0x1fcc0,0x4(%esp)
    2a67:	00 
    2a68:	c7 04 24 ed fc 01 00 	movl   $0x1fced,(%esp)
    2a6f:	e8 0c b1 01 00       	call   1db80 <assert_abort>
    2a74:	c7 44 24 08 57 00 00 	movl   $0x57,0x8(%esp)
    2a7b:	00 
    2a7c:	c7 44 24 04 c0 fc 01 	movl   $0x1fcc0,0x4(%esp)
    2a83:	00 
    2a84:	c7 04 24 de fc 01 00 	movl   $0x1fcde,(%esp)
    2a8b:	e8 f0 b0 01 00       	call   1db80 <assert_abort>
    2a90:	31 f6                	xor    %esi,%esi
    2a92:	e9 de fb ff ff       	jmp    2675 <client_connection+0x505>
    2a97:	8b 85 7c ff ff ff    	mov    -0x84(%ebp),%eax
    2a9d:	c7 44 24 04 ff ff ff 	movl   $0xffffffff,0x4(%esp)
    2aa4:	ff 
    2aa5:	89 04 24             	mov    %eax,(%esp)
    2aa8:	e8 33 34 01 00       	call   15ee0 <async_answer_0>
    2aad:	e9 de f6 ff ff       	jmp    2190 <client_connection+0x20>
    2ab2:	c7 44 24 08 4a 01 00 	movl   $0x14a,0x8(%esp)
    2ab9:	00 
    2aba:	c7 44 24 04 c0 fc 01 	movl   $0x1fcc0,0x4(%esp)
    2ac1:	00 
    2ac2:	c7 04 24 c9 fc 01 00 	movl   $0x1fcc9,(%esp)
    2ac9:	e8 b2 b0 01 00       	call   1db80 <assert_abort>
    2ace:	c7 44 24 08 dd 00 00 	movl   $0xdd,0x8(%esp)
    2ad5:	00 
    2ad6:	c7 44 24 04 c0 fc 01 	movl   $0x1fcc0,0x4(%esp)
    2add:	00 
    2ade:	c7 04 24 0e fd 01 00 	movl   $0x1fd0e,(%esp)
    2ae5:	e8 96 b0 01 00       	call   1db80 <assert_abort>
    2aea:	8d b6 00 00 00 00    	lea    0x0(%esi),%esi

00002af0 <outdev_register>:
    2af0:	55                   	push   %ebp
    2af1:	89 e5                	mov    %esp,%ebp
    2af3:	57                   	push   %edi
    2af4:	56                   	push   %esi
    2af5:	53                   	push   %ebx
    2af6:	83 ec 1c             	sub    $0x1c,%esp
    2af9:	8b 45 08             	mov    0x8(%ebp),%eax
    2afc:	8b 40 08             	mov    0x8(%eax),%eax
    2aff:	85 c0                	test   %eax,%eax
    2b01:	0f 84 97 00 00 00    	je     2b9e <outdev_register+0xae>
    2b07:	c7 04 24 44 00 00 00 	movl   $0x44,(%esp)
    2b0e:	e8 1d 05 01 00       	call   13030 <malloc>
    2b13:	89 c3                	mov    %eax,%ebx
    2b15:	85 c0                	test   %eax,%eax
    2b17:	74 6f                	je     2b88 <outdev_register+0x98>
    2b19:	c7 00 00 00 00 00    	movl   $0x0,(%eax)
    2b1f:	c7 40 04 00 00 00 00 	movl   $0x0,0x4(%eax)
    2b26:	8d 78 28             	lea    0x28(%eax),%edi
    2b29:	8b 75 08             	mov    0x8(%ebp),%esi
    2b2c:	b9 06 00 00 00       	mov    $0x6,%ecx
    2b31:	f3 a5                	rep movsl %ds:(%esi),%es:(%edi)
    2b33:	8b 45 0c             	mov    0xc(%ebp),%eax
    2b36:	89 43 40             	mov    %eax,0x40(%ebx)
    2b39:	8d 43 0c             	lea    0xc(%ebx),%eax
    2b3c:	89 44 24 08          	mov    %eax,0x8(%esp)
    2b40:	8d 43 08             	lea    0x8(%ebx),%eax
    2b43:	89 44 24 04          	mov    %eax,0x4(%esp)
    2b47:	8b 45 08             	mov    0x8(%ebp),%eax
    2b4a:	89 1c 24             	mov    %ebx,(%esp)
    2b4d:	ff 50 08             	call   *0x8(%eax)
    2b50:	c7 44 24 08 00 00 00 	movl   $0x0,0x8(%esp)
    2b57:	00 
    2b58:	8b 43 0c             	mov    0xc(%ebx),%eax
    2b5b:	89 44 24 04          	mov    %eax,0x4(%esp)
    2b5f:	8b 43 08             	mov    0x8(%ebx),%eax
    2b62:	89 04 24             	mov    %eax,(%esp)
    2b65:	e8 26 ad 00 00       	call   d890 <chargrid_create>
    2b6a:	89 43 20             	mov    %eax,0x20(%ebx)
    2b6d:	85 c0                	test   %eax,%eax
    2b6f:	74 21                	je     2b92 <outdev_register+0xa2>
    2b71:	a1 d0 27 02 00       	mov    0x227d0,%eax
    2b76:	c7 43 04 d0 27 02 00 	movl   $0x227d0,0x4(%ebx)
    2b7d:	89 03                	mov    %eax,(%ebx)
    2b7f:	89 1d d0 27 02 00    	mov    %ebx,0x227d0
    2b85:	89 58 04             	mov    %ebx,0x4(%eax)
    2b88:	83 c4 1c             	add    $0x1c,%esp
    2b8b:	89 d8                	mov    %ebx,%eax
    2b8d:	5b                   	pop    %ebx
    2b8e:	5e                   	pop    %esi
    2b8f:	5f                   	pop    %edi
    2b90:	5d                   	pop    %ebp
    2b91:	c3                   	ret    
    2b92:	89 1c 24             	mov    %ebx,(%esp)
    2b95:	31 db                	xor    %ebx,%ebx
    2b97:	e8 a4 05 01 00       	call   13140 <free>
    2b9c:	eb ea                	jmp    2b88 <outdev_register+0x98>
    2b9e:	c7 44 24 08 39 00 00 	movl   $0x39,0x8(%esp)
    2ba5:	00 
    2ba6:	c7 44 24 04 c0 fc 01 	movl   $0x1fcc0,0x4(%esp)
    2bad:	00 
    2bae:	c7 04 24 25 fd 01 00 	movl   $0x1fd25,(%esp)
    2bb5:	e8 c6 af 01 00       	call   1db80 <assert_abort>
    2bba:	66 90                	xchg   %ax,%ax
    2bbc:	66 90                	xchg   %ax,%ax
    2bbe:	66 90                	xchg   %ax,%ax

00002bc0 <main>:
    2bc0:	55                   	push   %ebp
    2bc1:	89 e5                	mov    %esp,%ebp
    2bc3:	56                   	push   %esi
    2bc4:	53                   	push   %ebx
    2bc5:	83 e4 f0             	and    $0xfffffff0,%esp
    2bc8:	83 ec 20             	sub    $0x20,%esp
    2bcb:	8b 75 0c             	mov    0xc(%ebp),%esi
    2bce:	83 7d 08 01          	cmpl   $0x1,0x8(%ebp)
    2bd2:	0f 8e c7 00 00 00    	jle    2c9f <main+0xdf>
    2bd8:	c7 44 24 04 53 fd 01 	movl   $0x1fd53,0x4(%esp)
    2bdf:	00 
    2be0:	c7 04 24 5a fd 01 00 	movl   $0x1fd5a,(%esp)
    2be7:	e8 c4 b5 00 00       	call   e1b0 <printf>
    2bec:	c7 04 24 70 21 00 00 	movl   $0x2170,(%esp)
    2bf3:	e8 98 1a 01 00       	call   14690 <async_set_client_connection>
    2bf8:	c7 04 24 53 fd 01 00 	movl   $0x1fd53,(%esp)
    2bff:	e8 cc 12 00 00       	call   3ed0 <loc_server_register>
    2c04:	89 c3                	mov    %eax,%ebx
    2c06:	85 c0                	test   %eax,%eax
    2c08:	75 62                	jne    2c6c <main+0xac>
    2c0a:	8d 44 24 1c          	lea    0x1c(%esp),%eax
    2c0e:	89 44 24 04          	mov    %eax,0x4(%esp)
    2c12:	8b 46 04             	mov    0x4(%esi),%eax
    2c15:	89 04 24             	mov    %eax,(%esp)
    2c18:	e8 c3 16 00 00       	call   42e0 <loc_service_register>
    2c1d:	89 c3                	mov    %eax,%ebx
    2c1f:	85 c0                	test   %eax,%eax
    2c21:	75 5f                	jne    2c82 <main+0xc2>
    2c23:	e8 58 e8 ff ff       	call   1480 <ega_init>
    2c28:	e8 43 ea ff ff       	call   1670 <kchar_init>
    2c2d:	e8 be ec ff ff       	call   18f0 <niagara_init>
    2c32:	e8 79 ed ff ff       	call   19b0 <ski_init>
    2c37:	c7 44 24 04 53 fd 01 	movl   $0x1fd53,0x4(%esp)
    2c3e:	00 
    2c3f:	c7 04 24 76 fd 01 00 	movl   $0x1fd76,(%esp)
    2c46:	e8 65 b5 00 00       	call   e1b0 <printf>
    2c4b:	c7 04 24 00 00 00 00 	movl   $0x0,(%esp)
    2c52:	e8 29 86 00 00       	call   b280 <task_retval>
    2c57:	c7 04 24 01 00 00 00 	movl   $0x1,(%esp)
    2c5e:	e8 fd 64 00 00       	call   9160 <fibril_switch>
    2c63:	8d 65 f8             	lea    -0x8(%ebp),%esp
    2c66:	89 d8                	mov    %ebx,%eax
    2c68:	5b                   	pop    %ebx
    2c69:	5e                   	pop    %esi
    2c6a:	5d                   	pop    %ebp
    2c6b:	c3                   	ret    
    2c6c:	c7 44 24 04 53 fd 01 	movl   $0x1fd53,0x4(%esp)
    2c73:	00 
    2c74:	c7 04 24 c4 fd 01 00 	movl   $0x1fdc4,(%esp)
    2c7b:	e8 30 b5 00 00       	call   e1b0 <printf>
    2c80:	eb e1                	jmp    2c63 <main+0xa3>
    2c82:	8b 46 04             	mov    0x4(%esi),%eax
    2c85:	c7 44 24 04 53 fd 01 	movl   $0x1fd53,0x4(%esp)
    2c8c:	00 
    2c8d:	89 44 24 08          	mov    %eax,0x8(%esp)
    2c91:	c7 04 24 e4 fd 01 00 	movl   $0x1fde4,(%esp)
    2c98:	e8 13 b5 00 00       	call   e1b0 <printf>
    2c9d:	eb c4                	jmp    2c63 <main+0xa3>
    2c9f:	8b 06                	mov    (%esi),%eax
    2ca1:	c7 04 24 39 fd 01 00 	movl   $0x1fd39,(%esp)
    2ca8:	89 44 24 04          	mov    %eax,0x4(%esp)
    2cac:	bb 01 00 00 00       	mov    $0x1,%ebx
    2cb1:	e8 fa b4 00 00       	call   e1b0 <printf>
    2cb6:	eb ab                	jmp    2c63 <main+0xa3>
    2cb8:	66 90                	xchg   %ax,%ax
    2cba:	66 90                	xchg   %ax,%ax
    2cbc:	66 90                	xchg   %ax,%ax
    2cbe:	66 90                	xchg   %ax,%ax

00002cc0 <exit>:
    2cc0:	55                   	push   %ebp
    2cc1:	89 e5                	mov    %esp,%ebp
    2cc3:	83 ec 28             	sub    $0x28,%esp
    2cc6:	80 3d 0c 2a 02 00 00 	cmpb   $0x0,0x22a0c
    2ccd:	75 3f                	jne    2d0e <exit+0x4e>
    2ccf:	c7 44 24 18 0a 00 00 	movl   $0xa,0x18(%esp)
    2cd6:	00 
    2cd7:	c7 44 24 14 00 00 00 	movl   $0x0,0x14(%esp)
    2cde:	00 
    2cdf:	c7 44 24 10 00 00 00 	movl   $0x0,0x10(%esp)
    2ce6:	00 
    2ce7:	c7 44 24 0c 00 00 00 	movl   $0x0,0xc(%esp)
    2cee:	00 
    2cef:	c7 44 24 08 00 00 00 	movl   $0x0,0x8(%esp)
    2cf6:	00 
    2cf7:	c7 44 24 04 00 00 00 	movl   $0x0,0x4(%esp)
    2cfe:	00 
    2cff:	c7 04 24 00 00 00 00 	movl   $0x0,(%esp)
    2d06:	ff 15 d0 29 02 00    	call   *0x229d0
    2d0c:	eb fe                	jmp    2d0c <exit+0x4c>
    2d0e:	e8 4d 8a 00 00       	call   b760 <__stdio_done>
    2d13:	8b 45 08             	mov    0x8(%ebp),%eax
    2d16:	89 04 24             	mov    %eax,(%esp)
    2d19:	e8 62 85 00 00       	call   b280 <task_retval>
    2d1e:	65 a1 00 00 00 00    	mov    %gs:0x0,%eax
    2d24:	8b 40 04             	mov    0x4(%eax),%eax
    2d27:	89 04 24             	mov    %eax,(%esp)
    2d2a:	e8 41 63 00 00       	call   9070 <fibril_teardown>
    2d2f:	eb 9e                	jmp    2ccf <exit+0xf>
    2d31:	eb 0d                	jmp    2d40 <abort>
    2d33:	90                   	nop
    2d34:	90                   	nop
    2d35:	90                   	nop
    2d36:	90                   	nop
    2d37:	90                   	nop
    2d38:	90                   	nop
    2d39:	90                   	nop
    2d3a:	90                   	nop
    2d3b:	90                   	nop
    2d3c:	90                   	nop
    2d3d:	90                   	nop
    2d3e:	90                   	nop
    2d3f:	90                   	nop

00002d40 <abort>:
    2d40:	55                   	push   %ebp
    2d41:	89 e5                	mov    %esp,%ebp
    2d43:	83 ec 28             	sub    $0x28,%esp
    2d46:	c7 44 24 18 0a 00 00 	movl   $0xa,0x18(%esp)
    2d4d:	00 
    2d4e:	c7 44 24 14 00 00 00 	movl   $0x0,0x14(%esp)
    2d55:	00 
    2d56:	c7 44 24 10 00 00 00 	movl   $0x0,0x10(%esp)
    2d5d:	00 
    2d5e:	c7 44 24 0c 00 00 00 	movl   $0x0,0xc(%esp)
    2d65:	00 
    2d66:	c7 44 24 08 00 00 00 	movl   $0x0,0x8(%esp)
    2d6d:	00 
    2d6e:	c7 44 24 04 00 00 00 	movl   $0x0,0x4(%esp)
    2d75:	00 
    2d76:	c7 04 24 01 00 00 00 	movl   $0x1,(%esp)
    2d7d:	ff 15 d0 29 02 00    	call   *0x229d0
    2d83:	eb fe                	jmp    2d83 <abort+0x43>
    2d85:	8d 74 26 00          	lea    0x0(%esi,%eiz,1),%esi
    2d89:	8d bc 27 00 00 00 00 	lea    0x0(%edi,%eiz,1),%edi

00002d90 <__main>:
    2d90:	55                   	push   %ebp
    2d91:	89 e5                	mov    %esp,%ebp
    2d93:	57                   	push   %edi
    2d94:	56                   	push   %esi
    2d95:	53                   	push   %ebx
    2d96:	83 ec 2c             	sub    $0x2c,%esp
    2d99:	8b 5d 08             	mov    0x8(%ebp),%ebx
    2d9c:	e8 8f 01 01 00       	call   12f30 <__malloc_init>
    2da1:	e8 0a 24 01 00       	call   151b0 <__async_init>
    2da6:	e8 45 62 00 00       	call   8ff0 <fibril_setup>
    2dab:	85 c0                	test   %eax,%eax
    2dad:	0f 84 82 00 00 00    	je     2e35 <__main+0xa5>
    2db3:	c7 44 24 18 01 00 00 	movl   $0x1,0x18(%esp)
    2dba:	00 
    2dbb:	c7 44 24 14 00 00 00 	movl   $0x0,0x14(%esp)
    2dc2:	00 
    2dc3:	c7 44 24 10 00 00 00 	movl   $0x0,0x10(%esp)
    2dca:	00 
    2dcb:	c7 44 24 0c 00 00 00 	movl   $0x0,0xc(%esp)
    2dd2:	00 
    2dd3:	c7 44 24 08 00 00 00 	movl   $0x0,0x8(%esp)
    2dda:	00 
    2ddb:	c7 44 24 04 00 00 00 	movl   $0x0,0x4(%esp)
    2de2:	00 
    2de3:	8b 40 30             	mov    0x30(%eax),%eax
    2de6:	89 04 24             	mov    %eax,(%esp)
    2de9:	ff 15 d0 29 02 00    	call   *0x229d0
    2def:	89 1d e8 29 02 00    	mov    %ebx,0x229e8
    2df5:	c6 05 0c 2a 02 00 01 	movb   $0x1,0x22a0c
    2dfc:	85 db                	test   %ebx,%ebx
    2dfe:	74 3a                	je     2e3a <__main+0xaa>
    2e00:	8b 43 10             	mov    0x10(%ebx),%eax
    2e03:	8b 73 08             	mov    0x8(%ebx),%esi
    2e06:	8b 7b 0c             	mov    0xc(%ebx),%edi
    2e09:	89 04 24             	mov    %eax,(%esp)
    2e0c:	e8 bf 86 00 00       	call   b4d0 <__stdio_init>
    2e11:	a1 e8 29 02 00       	mov    0x229e8,%eax
    2e16:	8b 40 04             	mov    0x4(%eax),%eax
    2e19:	89 04 24             	mov    %eax,(%esp)
    2e1c:	e8 ef a0 01 00       	call   1cf10 <chdir>
    2e21:	89 7c 24 04          	mov    %edi,0x4(%esp)
    2e25:	89 34 24             	mov    %esi,(%esp)
    2e28:	e8 93 fd ff ff       	call   2bc0 <main>
    2e2d:	89 04 24             	mov    %eax,(%esp)
    2e30:	e8 8b fe ff ff       	call   2cc0 <exit>
    2e35:	e8 06 ff ff ff       	call   2d40 <abort>
    2e3a:	c7 04 24 00 00 00 00 	movl   $0x0,(%esp)
    2e41:	31 ff                	xor    %edi,%edi
    2e43:	e8 88 86 00 00       	call   b4d0 <__stdio_init>
    2e48:	31 f6                	xor    %esi,%esi
    2e4a:	eb d5                	jmp    2e21 <__main+0x91>
    2e4c:	66 90                	xchg   %ax,%ax
    2e4e:	66 90                	xchg   %ax,%ax

00002e50 <device_assign_devno>:
    2e50:	55                   	push   %ebp
    2e51:	89 e5                	mov    %esp,%ebp
    2e53:	83 ec 28             	sub    $0x28,%esp
    2e56:	c7 44 24 18 22 00 00 	movl   $0x22,0x18(%esp)
    2e5d:	00 
    2e5e:	c7 44 24 14 00 00 00 	movl   $0x0,0x14(%esp)
    2e65:	00 
    2e66:	c7 44 24 10 00 00 00 	movl   $0x0,0x10(%esp)
    2e6d:	00 
    2e6e:	c7 44 24 0c 00 00 00 	movl   $0x0,0xc(%esp)
    2e75:	00 
    2e76:	c7 44 24 08 00 00 00 	movl   $0x0,0x8(%esp)
    2e7d:	00 
    2e7e:	c7 44 24 04 00 00 00 	movl   $0x0,0x4(%esp)
    2e85:	00 
    2e86:	c7 04 24 00 00 00 00 	movl   $0x0,(%esp)
    2e8d:	ff 15 d0 29 02 00    	call   *0x229d0
    2e93:	c9                   	leave  
    2e94:	c3                   	ret    
    2e95:	8d 74 26 00          	lea    0x0(%esi,%eiz,1),%esi
    2e99:	8d bc 27 00 00 00 00 	lea    0x0(%edi,%eiz,1),%edi

00002ea0 <physmem_map>:
    2ea0:	55                   	push   %ebp
    2ea1:	89 e5                	mov    %esp,%ebp
    2ea3:	83 ec 28             	sub    $0x28,%esp
    2ea6:	8b 45 14             	mov    0x14(%ebp),%eax
    2ea9:	c7 44 24 18 23 00 00 	movl   $0x23,0x18(%esp)
    2eb0:	00 
    2eb1:	89 44 24 0c          	mov    %eax,0xc(%esp)
    2eb5:	8b 45 10             	mov    0x10(%ebp),%eax
    2eb8:	89 44 24 08          	mov    %eax,0x8(%esp)
    2ebc:	8b 45 0c             	mov    0xc(%ebp),%eax
    2ebf:	89 44 24 04          	mov    %eax,0x4(%esp)
    2ec3:	8b 45 08             	mov    0x8(%ebp),%eax
    2ec6:	c7 44 24 14 00 00 00 	movl   $0x0,0x14(%esp)
    2ecd:	00 
    2ece:	c7 44 24 10 94 10 00 	movl   $0x1094,0x10(%esp)
    2ed5:	00 
    2ed6:	89 04 24             	mov    %eax,(%esp)
    2ed9:	e8 d2 ae 01 00       	call   1ddb0 <__syscall_slow>
    2ede:	c9                   	leave  
    2edf:	c3                   	ret    

00002ee0 <dmamem_map>:
    2ee0:	55                   	push   %ebp
    2ee1:	89 e5                	mov    %esp,%ebp
    2ee3:	83 ec 28             	sub    $0x28,%esp
    2ee6:	8b 45 14             	mov    0x14(%ebp),%eax
    2ee9:	8b 55 08             	mov    0x8(%ebp),%edx
    2eec:	83 e0 fe             	and    $0xfffffffe,%eax
    2eef:	89 54 24 10          	mov    %edx,0x10(%esp)
    2ef3:	89 44 24 08          	mov    %eax,0x8(%esp)
    2ef7:	8b 45 10             	mov    0x10(%ebp),%eax
    2efa:	8b 55 18             	mov    0x18(%ebp),%edx
    2efd:	89 44 24 04          	mov    %eax,0x4(%esp)
    2f01:	8b 45 0c             	mov    0xc(%ebp),%eax
    2f04:	c7 44 24 18 25 00 00 	movl   $0x25,0x18(%esp)
    2f0b:	00 
    2f0c:	c7 44 24 14 00 00 00 	movl   $0x0,0x14(%esp)
    2f13:	00 
    2f14:	89 54 24 0c          	mov    %edx,0xc(%esp)
    2f18:	89 04 24             	mov    %eax,(%esp)
    2f1b:	e8 90 ae 01 00       	call   1ddb0 <__syscall_slow>
    2f20:	c9                   	leave  
    2f21:	c3                   	ret    
    2f22:	8d b4 26 00 00 00 00 	lea    0x0(%esi,%eiz,1),%esi
    2f29:	8d bc 27 00 00 00 00 	lea    0x0(%edi,%eiz,1),%edi

00002f30 <dmamem_map_anonymous>:
    2f30:	55                   	push   %ebp
    2f31:	89 e5                	mov    %esp,%ebp
    2f33:	83 ec 28             	sub    $0x28,%esp
    2f36:	8b 45 10             	mov    0x10(%ebp),%eax
    2f39:	8b 55 18             	mov    0x18(%ebp),%edx
    2f3c:	83 c8 01             	or     $0x1,%eax
    2f3f:	89 54 24 10          	mov    %edx,0x10(%esp)
    2f43:	89 44 24 08          	mov    %eax,0x8(%esp)
    2f47:	8b 45 0c             	mov    0xc(%ebp),%eax
    2f4a:	8b 55 14             	mov    0x14(%ebp),%edx
    2f4d:	89 44 24 04          	mov    %eax,0x4(%esp)
    2f51:	8b 45 08             	mov    0x8(%ebp),%eax
    2f54:	c7 44 24 18 25 00 00 	movl   $0x25,0x18(%esp)
    2f5b:	00 
    2f5c:	c7 44 24 14 94 10 00 	movl   $0x1094,0x14(%esp)
    2f63:	00 
    2f64:	89 54 24 0c          	mov    %edx,0xc(%esp)
    2f68:	89 04 24             	mov    %eax,(%esp)
    2f6b:	e8 40 ae 01 00       	call   1ddb0 <__syscall_slow>
    2f70:	c9                   	leave  
    2f71:	c3                   	ret    
    2f72:	8d b4 26 00 00 00 00 	lea    0x0(%esi,%eiz,1),%esi
    2f79:	8d bc 27 00 00 00 00 	lea    0x0(%edi,%eiz,1),%edi

00002f80 <dmamem_unmap>:
    2f80:	55                   	push   %ebp
    2f81:	89 e5                	mov    %esp,%ebp
    2f83:	83 ec 28             	sub    $0x28,%esp
    2f86:	8b 45 0c             	mov    0xc(%ebp),%eax
    2f89:	c7 44 24 18 26 00 00 	movl   $0x26,0x18(%esp)
    2f90:	00 
    2f91:	89 44 24 04          	mov    %eax,0x4(%esp)
    2f95:	8b 45 08             	mov    0x8(%ebp),%eax
    2f98:	c7 44 24 14 00 00 00 	movl   $0x0,0x14(%esp)
    2f9f:	00 
    2fa0:	c7 44 24 10 00 00 00 	movl   $0x0,0x10(%esp)
    2fa7:	00 
    2fa8:	c7 44 24 0c 00 00 00 	movl   $0x0,0xc(%esp)
    2faf:	00 
    2fb0:	c7 44 24 08 00 00 00 	movl   $0x0,0x8(%esp)
    2fb7:	00 
    2fb8:	89 04 24             	mov    %eax,(%esp)
    2fbb:	ff 15 d0 29 02 00    	call   *0x229d0
    2fc1:	c9                   	leave  
    2fc2:	c3                   	ret    
    2fc3:	8d b6 00 00 00 00    	lea    0x0(%esi),%esi
    2fc9:	8d bc 27 00 00 00 00 	lea    0x0(%edi,%eiz,1),%edi

00002fd0 <dmamem_unmap_anonymous>:
    2fd0:	55                   	push   %ebp
    2fd1:	89 e5                	mov    %esp,%ebp
    2fd3:	83 ec 28             	sub    $0x28,%esp
    2fd6:	8b 45 08             	mov    0x8(%ebp),%eax
    2fd9:	c7 44 24 18 26 00 00 	movl   $0x26,0x18(%esp)
    2fe0:	00 
    2fe1:	c7 44 24 14 00 00 00 	movl   $0x0,0x14(%esp)
    2fe8:	00 
    2fe9:	c7 44 24 10 00 00 00 	movl   $0x0,0x10(%esp)
    2ff0:	00 
    2ff1:	c7 44 24 0c 00 00 00 	movl   $0x0,0xc(%esp)
    2ff8:	00 
    2ff9:	c7 44 24 08 01 00 00 	movl   $0x1,0x8(%esp)
    3000:	00 
    3001:	c7 44 24 04 00 00 00 	movl   $0x0,0x4(%esp)
    3008:	00 
    3009:	89 04 24             	mov    %eax,(%esp)
    300c:	ff 15 d0 29 02 00    	call   *0x229d0
    3012:	c9                   	leave  
    3013:	c3                   	ret    
    3014:	8d b6 00 00 00 00    	lea    0x0(%esi),%esi
    301a:	8d bf 00 00 00 00    	lea    0x0(%edi),%edi

00003020 <pio_enable>:
    3020:	55                   	push   %ebp
    3021:	89 e5                	mov    %esp,%ebp
    3023:	56                   	push   %esi
    3024:	53                   	push   %ebx
    3025:	83 ec 40             	sub    $0x40,%esp
    3028:	8b 5d 08             	mov    0x8(%ebp),%ebx
    302b:	8b 75 10             	mov    0x10(%ebp),%esi
    302e:	81 fb ff ff 00 00    	cmp    $0xffff,%ebx
    3034:	77 62                	ja     3098 <pio_enable+0x78>
    3036:	85 f6                	test   %esi,%esi
    3038:	74 02                	je     303c <pio_enable+0x1c>
    303a:	89 1e                	mov    %ebx,(%esi)
    303c:	e8 af 7c 00 00       	call   acf0 <task_get_id>
    3041:	89 5d f0             	mov    %ebx,-0x10(%ebp)
    3044:	89 45 e8             	mov    %eax,-0x18(%ebp)
    3047:	8b 45 0c             	mov    0xc(%ebp),%eax
    304a:	89 45 f4             	mov    %eax,-0xc(%ebp)
    304d:	8d 45 e8             	lea    -0x18(%ebp),%eax
    3050:	89 55 ec             	mov    %edx,-0x14(%ebp)
    3053:	c7 44 24 18 27 00 00 	movl   $0x27,0x18(%esp)
    305a:	00 
    305b:	c7 44 24 14 00 00 00 	movl   $0x0,0x14(%esp)
    3062:	00 
    3063:	c7 44 24 10 00 00 00 	movl   $0x0,0x10(%esp)
    306a:	00 
    306b:	c7 44 24 0c 00 00 00 	movl   $0x0,0xc(%esp)
    3072:	00 
    3073:	c7 44 24 08 00 00 00 	movl   $0x0,0x8(%esp)
    307a:	00 
    307b:	c7 44 24 04 00 00 00 	movl   $0x0,0x4(%esp)
    3082:	00 
    3083:	89 04 24             	mov    %eax,(%esp)
    3086:	ff 15 d0 29 02 00    	call   *0x229d0
    308c:	83 c4 40             	add    $0x40,%esp
    308f:	5b                   	pop    %ebx
    3090:	5e                   	pop    %esi
    3091:	5d                   	pop    %ebp
    3092:	c3                   	ret    
    3093:	90                   	nop
    3094:	8d 74 26 00          	lea    0x0(%esi,%eiz,1),%esi
    3098:	85 f6                	test   %esi,%esi
    309a:	74 5e                	je     30fa <pio_enable+0xda>
    309c:	89 d8                	mov    %ebx,%eax
    309e:	8b 4d 0c             	mov    0xc(%ebp),%ecx
    30a1:	25 00 f0 ff ff       	and    $0xfffff000,%eax
    30a6:	31 d2                	xor    %edx,%edx
    30a8:	29 c3                	sub    %eax,%ebx
    30aa:	01 d9                	add    %ebx,%ecx
    30ac:	74 07                	je     30b5 <pio_enable+0x95>
    30ae:	8d 51 ff             	lea    -0x1(%ecx),%edx
    30b1:	c1 ea 0c             	shr    $0xc,%edx
    30b4:	42                   	inc    %edx
    30b5:	8d 4d e4             	lea    -0x1c(%ebp),%ecx
    30b8:	c7 44 24 18 23 00 00 	movl   $0x23,0x18(%esp)
    30bf:	00 
    30c0:	c7 44 24 14 00 00 00 	movl   $0x0,0x14(%esp)
    30c7:	00 
    30c8:	c7 44 24 10 94 10 00 	movl   $0x1094,0x10(%esp)
    30cf:	00 
    30d0:	89 4c 24 0c          	mov    %ecx,0xc(%esp)
    30d4:	c7 44 24 08 03 00 00 	movl   $0x3,0x8(%esp)
    30db:	00 
    30dc:	89 54 24 04          	mov    %edx,0x4(%esp)
    30e0:	89 04 24             	mov    %eax,(%esp)
    30e3:	e8 c8 ac 01 00       	call   1ddb0 <__syscall_slow>
    30e8:	85 c0                	test   %eax,%eax
    30ea:	75 a0                	jne    308c <pio_enable+0x6c>
    30ec:	8b 55 e4             	mov    -0x1c(%ebp),%edx
    30ef:	01 d3                	add    %edx,%ebx
    30f1:	89 1e                	mov    %ebx,(%esi)
    30f3:	83 c4 40             	add    $0x40,%esp
    30f6:	5b                   	pop    %ebx
    30f7:	5e                   	pop    %esi
    30f8:	5d                   	pop    %ebp
    30f9:	c3                   	ret    
    30fa:	b8 f2 ff ff ff       	mov    $0xfffffff2,%eax
    30ff:	eb 8b                	jmp    308c <pio_enable+0x6c>
    3101:	eb 0d                	jmp    3110 <pio_write_8>
    3103:	90                   	nop
    3104:	90                   	nop
    3105:	90                   	nop
    3106:	90                   	nop
    3107:	90                   	nop
    3108:	90                   	nop
    3109:	90                   	nop
    310a:	90                   	nop
    310b:	90                   	nop
    310c:	90                   	nop
    310d:	90                   	nop
    310e:	90                   	nop
    310f:	90                   	nop

00003110 <pio_write_8>:
    3110:	55                   	push   %ebp
    3111:	89 e5                	mov    %esp,%ebp
    3113:	57                   	push   %edi
    3114:	56                   	push   %esi
    3115:	53                   	push   %ebx
    3116:	83 ec 1c             	sub    $0x1c,%esp
    3119:	8b 75 0c             	mov    0xc(%ebp),%esi
    311c:	8b 5d 08             	mov    0x8(%ebp),%ebx
    311f:	89 f0                	mov    %esi,%eax
    3121:	c7 44 24 08 01 00 00 	movl   $0x1,0x8(%esp)
    3128:	00 
    3129:	25 ff 00 00 00       	and    $0xff,%eax
    312e:	89 1c 24             	mov    %ebx,(%esp)
    3131:	89 44 24 04          	mov    %eax,0x4(%esp)
    3135:	e8 a6 aa 01 00       	call   1dbe0 <pio_trace_log>
    313a:	81 fb ff ff 00 00    	cmp    $0xffff,%ebx
    3140:	76 0e                	jbe    3150 <pio_write_8+0x40>
    3142:	89 f0                	mov    %esi,%eax
    3144:	88 03                	mov    %al,(%ebx)
    3146:	83 c4 1c             	add    $0x1c,%esp
    3149:	5b                   	pop    %ebx
    314a:	5e                   	pop    %esi
    314b:	5f                   	pop    %edi
    314c:	5d                   	pop    %ebp
    314d:	c3                   	ret    
    314e:	66 90                	xchg   %ax,%ax
    3150:	89 f0                	mov    %esi,%eax
    3152:	89 da                	mov    %ebx,%edx
    3154:	ee                   	out    %al,(%dx)
    3155:	83 c4 1c             	add    $0x1c,%esp
    3158:	5b                   	pop    %ebx
    3159:	5e                   	pop    %esi
    315a:	5f                   	pop    %edi
    315b:	5d                   	pop    %ebp
    315c:	c3                   	ret    
    315d:	8d 76 00             	lea    0x0(%esi),%esi

00003160 <pio_write_16>:
    3160:	55                   	push   %ebp
    3161:	89 e5                	mov    %esp,%ebp
    3163:	57                   	push   %edi
    3164:	56                   	push   %esi
    3165:	53                   	push   %ebx
    3166:	83 ec 1c             	sub    $0x1c,%esp
    3169:	8b 75 0c             	mov    0xc(%ebp),%esi
    316c:	8b 5d 08             	mov    0x8(%ebp),%ebx
    316f:	89 f0                	mov    %esi,%eax
    3171:	c7 44 24 08 01 00 00 	movl   $0x1,0x8(%esp)
    3178:	00 
    3179:	25 ff ff 00 00       	and    $0xffff,%eax
    317e:	89 1c 24             	mov    %ebx,(%esp)
    3181:	89 44 24 04          	mov    %eax,0x4(%esp)
    3185:	e8 56 aa 01 00       	call   1dbe0 <pio_trace_log>
    318a:	81 fb ff ff 00 00    	cmp    $0xffff,%ebx
    3190:	76 0e                	jbe    31a0 <pio_write_16+0x40>
    3192:	66 89 33             	mov    %si,(%ebx)
    3195:	83 c4 1c             	add    $0x1c,%esp
    3198:	5b                   	pop    %ebx
    3199:	5e                   	pop    %esi
    319a:	5f                   	pop    %edi
    319b:	5d                   	pop    %ebp
    319c:	c3                   	ret    
    319d:	8d 76 00             	lea    0x0(%esi),%esi
    31a0:	89 f0                	mov    %esi,%eax
    31a2:	89 da                	mov    %ebx,%edx
    31a4:	66 ef                	out    %ax,(%dx)
    31a6:	83 c4 1c             	add    $0x1c,%esp
    31a9:	5b                   	pop    %ebx
    31aa:	5e                   	pop    %esi
    31ab:	5f                   	pop    %edi
    31ac:	5d                   	pop    %ebp
    31ad:	c3                   	ret    
    31ae:	66 90                	xchg   %ax,%ax

000031b0 <pio_write_32>:
    31b0:	55                   	push   %ebp
    31b1:	89 e5                	mov    %esp,%ebp
    31b3:	56                   	push   %esi
    31b4:	53                   	push   %ebx
    31b5:	83 ec 10             	sub    $0x10,%esp
    31b8:	8b 5d 08             	mov    0x8(%ebp),%ebx
    31bb:	8b 75 0c             	mov    0xc(%ebp),%esi
    31be:	c7 44 24 08 01 00 00 	movl   $0x1,0x8(%esp)
    31c5:	00 
    31c6:	89 74 24 04          	mov    %esi,0x4(%esp)
    31ca:	89 1c 24             	mov    %ebx,(%esp)
    31cd:	e8 0e aa 01 00       	call   1dbe0 <pio_trace_log>
    31d2:	81 fb ff ff 00 00    	cmp    $0xffff,%ebx
    31d8:	76 0e                	jbe    31e8 <pio_write_32+0x38>
    31da:	89 33                	mov    %esi,(%ebx)
    31dc:	83 c4 10             	add    $0x10,%esp
    31df:	5b                   	pop    %ebx
    31e0:	5e                   	pop    %esi
    31e1:	5d                   	pop    %ebp
    31e2:	c3                   	ret    
    31e3:	90                   	nop
    31e4:	8d 74 26 00          	lea    0x0(%esi,%eiz,1),%esi
    31e8:	89 f0                	mov    %esi,%eax
    31ea:	89 da                	mov    %ebx,%edx
    31ec:	ef                   	out    %eax,(%dx)
    31ed:	83 c4 10             	add    $0x10,%esp
    31f0:	5b                   	pop    %ebx
    31f1:	5e                   	pop    %esi
    31f2:	5d                   	pop    %ebp
    31f3:	c3                   	ret    
    31f4:	8d b6 00 00 00 00    	lea    0x0(%esi),%esi
    31fa:	8d bf 00 00 00 00    	lea    0x0(%edi),%edi

00003200 <pio_read_8>:
    3200:	55                   	push   %ebp
    3201:	89 e5                	mov    %esp,%ebp
    3203:	53                   	push   %ebx
    3204:	83 ec 14             	sub    $0x14,%esp
    3207:	8b 55 08             	mov    0x8(%ebp),%edx
    320a:	81 fa ff ff 00 00    	cmp    $0xffff,%edx
    3210:	76 26                	jbe    3238 <pio_read_8+0x38>
    3212:	8a 1a                	mov    (%edx),%bl
    3214:	31 c0                	xor    %eax,%eax
    3216:	c7 44 24 08 00 00 00 	movl   $0x0,0x8(%esp)
    321d:	00 
    321e:	88 d8                	mov    %bl,%al
    3220:	89 14 24             	mov    %edx,(%esp)
    3223:	89 44 24 04          	mov    %eax,0x4(%esp)
    3227:	e8 b4 a9 01 00       	call   1dbe0 <pio_trace_log>
    322c:	83 c4 14             	add    $0x14,%esp
    322f:	88 d8                	mov    %bl,%al
    3231:	5b                   	pop    %ebx
    3232:	5d                   	pop    %ebp
    3233:	c3                   	ret    
    3234:	8d 74 26 00          	lea    0x0(%esi,%eiz,1),%esi
    3238:	ec                   	in     (%dx),%al
    3239:	88 c3                	mov    %al,%bl
    323b:	eb d7                	jmp    3214 <pio_read_8+0x14>
    323d:	8d 76 00             	lea    0x0(%esi),%esi

00003240 <pio_read_16>:
    3240:	55                   	push   %ebp
    3241:	89 e5                	mov    %esp,%ebp
    3243:	53                   	push   %ebx
    3244:	83 ec 14             	sub    $0x14,%esp
    3247:	8b 55 08             	mov    0x8(%ebp),%edx
    324a:	81 fa ff ff 00 00    	cmp    $0xffff,%edx
    3250:	76 26                	jbe    3278 <pio_read_16+0x38>
    3252:	66 8b 1a             	mov    (%edx),%bx
    3255:	89 d8                	mov    %ebx,%eax
    3257:	c7 44 24 08 00 00 00 	movl   $0x0,0x8(%esp)
    325e:	00 
    325f:	25 ff ff 00 00       	and    $0xffff,%eax
    3264:	89 14 24             	mov    %edx,(%esp)
    3267:	89 44 24 04          	mov    %eax,0x4(%esp)
    326b:	e8 70 a9 01 00       	call   1dbe0 <pio_trace_log>
    3270:	83 c4 14             	add    $0x14,%esp
    3273:	89 d8                	mov    %ebx,%eax
    3275:	5b                   	pop    %ebx
    3276:	5d                   	pop    %ebp
    3277:	c3                   	ret    
    3278:	66 ed                	in     (%dx),%ax
    327a:	89 c3                	mov    %eax,%ebx
    327c:	eb d7                	jmp    3255 <pio_read_16+0x15>
    327e:	66 90                	xchg   %ax,%ax

00003280 <pio_read_32>:
    3280:	55                   	push   %ebp
    3281:	89 e5                	mov    %esp,%ebp
    3283:	53                   	push   %ebx
    3284:	83 ec 14             	sub    $0x14,%esp
    3287:	8b 55 08             	mov    0x8(%ebp),%edx
    328a:	81 fa ff ff 00 00    	cmp    $0xffff,%edx
    3290:	76 1e                	jbe    32b0 <pio_read_32+0x30>
    3292:	8b 1a                	mov    (%edx),%ebx
    3294:	89 5c 24 04          	mov    %ebx,0x4(%esp)
    3298:	c7 44 24 08 00 00 00 	movl   $0x0,0x8(%esp)
    329f:	00 
    32a0:	89 14 24             	mov    %edx,(%esp)
    32a3:	e8 38 a9 01 00       	call   1dbe0 <pio_trace_log>
    32a8:	83 c4 14             	add    $0x14,%esp
    32ab:	89 d8                	mov    %ebx,%eax
    32ad:	5b                   	pop    %ebx
    32ae:	5d                   	pop    %ebp
    32af:	c3                   	ret    
    32b0:	ed                   	in     (%dx),%eax
    32b1:	89 c3                	mov    %eax,%ebx
    32b3:	eb df                	jmp    3294 <pio_read_32+0x14>
    32b5:	8d 74 26 00          	lea    0x0(%esi,%eiz,1),%esi
    32b9:	8d bc 27 00 00 00 00 	lea    0x0(%edi,%eiz,1),%edi

000032c0 <irq_register>:
    32c0:	55                   	push   %ebp
    32c1:	89 e5                	mov    %esp,%ebp
    32c3:	83 ec 28             	sub    $0x28,%esp
    32c6:	8b 45 14             	mov    0x14(%ebp),%eax
    32c9:	c7 44 24 18 29 00 00 	movl   $0x29,0x18(%esp)
    32d0:	00 
    32d1:	89 44 24 0c          	mov    %eax,0xc(%esp)
    32d5:	8b 45 10             	mov    0x10(%ebp),%eax
    32d8:	89 44 24 08          	mov    %eax,0x8(%esp)
    32dc:	8b 45 0c             	mov    0xc(%ebp),%eax
    32df:	89 44 24 04          	mov    %eax,0x4(%esp)
    32e3:	8b 45 08             	mov    0x8(%ebp),%eax
    32e6:	c7 44 24 14 00 00 00 	movl   $0x0,0x14(%esp)
    32ed:	00 
    32ee:	c7 44 24 10 00 00 00 	movl   $0x0,0x10(%esp)
    32f5:	00 
    32f6:	89 04 24             	mov    %eax,(%esp)
    32f9:	ff 15 d0 29 02 00    	call   *0x229d0
    32ff:	c9                   	leave  
    3300:	c3                   	ret    
    3301:	eb 0d                	jmp    3310 <irq_unregister>
    3303:	90                   	nop
    3304:	90                   	nop
    3305:	90                   	nop
    3306:	90                   	nop
    3307:	90                   	nop
    3308:	90                   	nop
    3309:	90                   	nop
    330a:	90                   	nop
    330b:	90                   	nop
    330c:	90                   	nop
    330d:	90                   	nop
    330e:	90                   	nop
    330f:	90                   	nop

00003310 <irq_unregister>:
    3310:	55                   	push   %ebp
    3311:	89 e5                	mov    %esp,%ebp
    3313:	83 ec 28             	sub    $0x28,%esp
    3316:	8b 45 0c             	mov    0xc(%ebp),%eax
    3319:	c7 44 24 18 2a 00 00 	movl   $0x2a,0x18(%esp)
    3320:	00 
    3321:	89 44 24 04          	mov    %eax,0x4(%esp)
    3325:	8b 45 08             	mov    0x8(%ebp),%eax
    3328:	c7 44 24 14 00 00 00 	movl   $0x0,0x14(%esp)
    332f:	00 
    3330:	c7 44 24 10 00 00 00 	movl   $0x0,0x10(%esp)
    3337:	00 
    3338:	c7 44 24 0c 00 00 00 	movl   $0x0,0xc(%esp)
    333f:	00 
    3340:	c7 44 24 08 00 00 00 	movl   $0x0,0x8(%esp)
    3347:	00 
    3348:	89 04 24             	mov    %eax,(%esp)
    334b:	ff 15 d0 29 02 00    	call   *0x229d0
    3351:	c9                   	leave  
    3352:	c3                   	ret    
    3353:	66 90                	xchg   %ax,%ax
    3355:	66 90                	xchg   %ax,%ax
    3357:	66 90                	xchg   %ax,%ax
    3359:	66 90                	xchg   %ax,%ax
    335b:	66 90                	xchg   %ax,%ax
    335d:	66 90                	xchg   %ax,%ax
    335f:	90                   	nop

00003360 <as_area_create>:
    3360:	55                   	push   %ebp
    3361:	89 e5                	mov    %esp,%ebp
    3363:	83 ec 28             	sub    $0x28,%esp
    3366:	8b 45 10             	mov    0x10(%ebp),%eax
    3369:	c7 44 24 18 0f 00 00 	movl   $0xf,0x18(%esp)
    3370:	00 
    3371:	89 44 24 08          	mov    %eax,0x8(%esp)
    3375:	8b 45 0c             	mov    0xc(%ebp),%eax
    3378:	89 44 24 04          	mov    %eax,0x4(%esp)
    337c:	8b 45 08             	mov    0x8(%ebp),%eax
    337f:	c7 44 24 14 00 00 00 	movl   $0x0,0x14(%esp)
    3386:	00 
    3387:	c7 44 24 10 00 00 00 	movl   $0x0,0x10(%esp)
    338e:	00 
    338f:	c7 44 24 0c 94 10 00 	movl   $0x1094,0xc(%esp)
    3396:	00 
    3397:	89 04 24             	mov    %eax,(%esp)
    339a:	ff 15 d0 29 02 00    	call   *0x229d0
    33a0:	c9                   	leave  
    33a1:	c3                   	ret    
    33a2:	8d b4 26 00 00 00 00 	lea    0x0(%esi,%eiz,1),%esi
    33a9:	8d bc 27 00 00 00 00 	lea    0x0(%edi,%eiz,1),%edi

000033b0 <as_area_resize>:
    33b0:	55                   	push   %ebp
    33b1:	89 e5                	mov    %esp,%ebp
    33b3:	83 ec 28             	sub    $0x28,%esp
    33b6:	8b 45 10             	mov    0x10(%ebp),%eax
    33b9:	c7 44 24 18 10 00 00 	movl   $0x10,0x18(%esp)
    33c0:	00 
    33c1:	89 44 24 08          	mov    %eax,0x8(%esp)
    33c5:	8b 45 0c             	mov    0xc(%ebp),%eax
    33c8:	89 44 24 04          	mov    %eax,0x4(%esp)
    33cc:	8b 45 08             	mov    0x8(%ebp),%eax
    33cf:	c7 44 24 14 00 00 00 	movl   $0x0,0x14(%esp)
    33d6:	00 
    33d7:	c7 44 24 10 00 00 00 	movl   $0x0,0x10(%esp)
    33de:	00 
    33df:	c7 44 24 0c 00 00 00 	movl   $0x0,0xc(%esp)
    33e6:	00 
    33e7:	89 04 24             	mov    %eax,(%esp)
    33ea:	ff 15 d0 29 02 00    	call   *0x229d0
    33f0:	c9                   	leave  
    33f1:	c3                   	ret    
    33f2:	8d b4 26 00 00 00 00 	lea    0x0(%esi,%eiz,1),%esi
    33f9:	8d bc 27 00 00 00 00 	lea    0x0(%edi,%eiz,1),%edi

00003400 <as_area_destroy>:
    3400:	55                   	push   %ebp
    3401:	89 e5                	mov    %esp,%ebp
    3403:	83 ec 28             	sub    $0x28,%esp
    3406:	8b 45 08             	mov    0x8(%ebp),%eax
    3409:	c7 44 24 18 12 00 00 	movl   $0x12,0x18(%esp)
    3410:	00 
    3411:	c7 44 24 14 00 00 00 	movl   $0x0,0x14(%esp)
    3418:	00 
    3419:	c7 44 24 10 00 00 00 	movl   $0x0,0x10(%esp)
    3420:	00 
    3421:	c7 44 24 0c 00 00 00 	movl   $0x0,0xc(%esp)
    3428:	00 
    3429:	c7 44 24 08 00 00 00 	movl   $0x0,0x8(%esp)
    3430:	00 
    3431:	c7 44 24 04 00 00 00 	movl   $0x0,0x4(%esp)
    3438:	00 
    3439:	89 04 24             	mov    %eax,(%esp)
    343c:	ff 15 d0 29 02 00    	call   *0x229d0
    3442:	c9                   	leave  
    3443:	c3                   	ret    
    3444:	8d b6 00 00 00 00    	lea    0x0(%esi),%esi
    344a:	8d bf 00 00 00 00    	lea    0x0(%edi),%edi

00003450 <as_area_change_flags>:
    3450:	55                   	push   %ebp
    3451:	89 e5                	mov    %esp,%ebp
    3453:	83 ec 28             	sub    $0x28,%esp
    3456:	8b 45 0c             	mov    0xc(%ebp),%eax
    3459:	c7 44 24 18 11 00 00 	movl   $0x11,0x18(%esp)
    3460:	00 
    3461:	89 44 24 04          	mov    %eax,0x4(%esp)
    3465:	8b 45 08             	mov    0x8(%ebp),%eax
    3468:	c7 44 24 14 00 00 00 	movl   $0x0,0x14(%esp)
    346f:	00 
    3470:	c7 44 24 10 00 00 00 	movl   $0x0,0x10(%esp)
    3477:	00 
    3478:	c7 44 24 0c 00 00 00 	movl   $0x0,0xc(%esp)
    347f:	00 
    3480:	c7 44 24 08 00 00 00 	movl   $0x0,0x8(%esp)
    3487:	00 
    3488:	89 04 24             	mov    %eax,(%esp)
    348b:	ff 15 d0 29 02 00    	call   *0x229d0
    3491:	c9                   	leave  
    3492:	c3                   	ret    
    3493:	8d b6 00 00 00 00    	lea    0x0(%esi),%esi
    3499:	8d bc 27 00 00 00 00 	lea    0x0(%edi,%eiz,1),%edi

000034a0 <as_get_physical_mapping>:
    34a0:	55                   	push   %ebp
    34a1:	89 e5                	mov    %esp,%ebp
    34a3:	83 ec 28             	sub    $0x28,%esp
    34a6:	8b 45 0c             	mov    0xc(%ebp),%eax
    34a9:	c7 44 24 18 13 00 00 	movl   $0x13,0x18(%esp)
    34b0:	00 
    34b1:	89 44 24 04          	mov    %eax,0x4(%esp)
    34b5:	8b 45 08             	mov    0x8(%ebp),%eax
    34b8:	c7 44 24 14 00 00 00 	movl   $0x0,0x14(%esp)
    34bf:	00 
    34c0:	c7 44 24 10 00 00 00 	movl   $0x0,0x10(%esp)
    34c7:	00 
    34c8:	c7 44 24 0c 00 00 00 	movl   $0x0,0xc(%esp)
    34cf:	00 
    34d0:	c7 44 24 08 00 00 00 	movl   $0x0,0x8(%esp)
    34d7:	00 
    34d8:	89 04 24             	mov    %eax,(%esp)
    34db:	ff 15 d0 29 02 00    	call   *0x229d0
    34e1:	c9                   	leave  
    34e2:	c3                   	ret    
    34e3:	66 90                	xchg   %ax,%ax
    34e5:	66 90                	xchg   %ax,%ax
    34e7:	66 90                	xchg   %ax,%ax
    34e9:	66 90                	xchg   %ax,%ax
    34eb:	66 90                	xchg   %ax,%ax
    34ed:	66 90                	xchg   %ax,%ax
    34ef:	90                   	nop

000034f0 <loc_cb_conn>:
    34f0:	55                   	push   %ebp
    34f1:	89 e5                	mov    %esp,%ebp
    34f3:	56                   	push   %esi
    34f4:	53                   	push   %ebx
    34f5:	83 ec 50             	sub    $0x50,%esp
    34f8:	8d 5d d4             	lea    -0x2c(%ebp),%ebx
    34fb:	90                   	nop
    34fc:	8d 74 26 00          	lea    0x0(%esi,%eiz,1),%esi
    3500:	c7 44 24 04 00 00 00 	movl   $0x0,0x4(%esp)
    3507:	00 
    3508:	89 1c 24             	mov    %ebx,(%esp)
    350b:	e8 a0 13 01 00       	call   148b0 <async_get_call_timeout>
    3510:	8b 55 d4             	mov    -0x2c(%ebp),%edx
    3513:	85 d2                	test   %edx,%edx
    3515:	74 61                	je     3578 <loc_cb_conn+0x88>
    3517:	81 fa 00 04 00 00    	cmp    $0x400,%edx
    351d:	74 19                	je     3538 <loc_cb_conn+0x48>
    351f:	c7 44 24 04 f5 ff ff 	movl   $0xfffffff5,0x4(%esp)
    3526:	ff 
    3527:	89 04 24             	mov    %eax,(%esp)
    352a:	e8 b1 29 01 00       	call   15ee0 <async_answer_0>
    352f:	eb cf                	jmp    3500 <loc_cb_conn+0x10>
    3531:	8d b4 26 00 00 00 00 	lea    0x0(%esi,%eiz,1),%esi
    3538:	c7 04 24 20 28 02 00 	movl   $0x22820,(%esp)
    353f:	89 45 c4             	mov    %eax,-0x3c(%ebp)
    3542:	e8 e9 63 00 00       	call   9930 <fibril_mutex_lock>
    3547:	c7 04 24 20 28 02 00 	movl   $0x22820,(%esp)
    354e:	8b 35 20 2a 02 00    	mov    0x22a20,%esi
    3554:	e8 f7 64 00 00       	call   9a50 <fibril_mutex_unlock>
    3559:	8b 45 c4             	mov    -0x3c(%ebp),%eax
    355c:	c7 44 24 04 00 00 00 	movl   $0x0,0x4(%esp)
    3563:	00 
    3564:	89 04 24             	mov    %eax,(%esp)
    3567:	e8 74 29 01 00       	call   15ee0 <async_answer_0>
    356c:	85 f6                	test   %esi,%esi
    356e:	74 90                	je     3500 <loc_cb_conn+0x10>
    3570:	ff d6                	call   *%esi
    3572:	eb 8c                	jmp    3500 <loc_cb_conn+0x10>
    3574:	8d 74 26 00          	lea    0x0(%esi,%eiz,1),%esi
    3578:	83 c4 50             	add    $0x50,%esp
    357b:	5b                   	pop    %ebx
    357c:	5e                   	pop    %esi
    357d:	5d                   	pop    %ebp
    357e:	c3                   	ret    
    357f:	90                   	nop

00003580 <loc_exchange_begin.part.0>:
    3580:	55                   	push   %ebp
    3581:	89 e5                	mov    %esp,%ebp
    3583:	83 ec 18             	sub    $0x18,%esp
    3586:	c7 04 24 f0 27 02 00 	movl   $0x227f0,(%esp)
    358d:	e8 9e 63 00 00       	call   9930 <fibril_mutex_lock>
    3592:	a1 10 2a 02 00       	mov    0x22a10,%eax
    3597:	85 c0                	test   %eax,%eax
    3599:	74 25                	je     35c0 <loc_exchange_begin.part.0+0x40>
    359b:	c7 04 24 f0 27 02 00 	movl   $0x227f0,(%esp)
    35a2:	e8 a9 64 00 00       	call   9a50 <fibril_mutex_unlock>
    35a7:	a1 10 2a 02 00       	mov    0x22a10,%eax
    35ac:	85 c0                	test   %eax,%eax
    35ae:	74 40                	je     35f0 <loc_exchange_begin.part.0+0x70>
    35b0:	89 04 24             	mov    %eax,(%esp)
    35b3:	e8 28 33 01 00       	call   168e0 <async_exchange_begin>
    35b8:	c9                   	leave  
    35b9:	c3                   	ret    
    35ba:	8d b6 00 00 00 00    	lea    0x0(%esi),%esi
    35c0:	c7 44 24 0c 00 00 00 	movl   $0x0,0xc(%esp)
    35c7:	00 
    35c8:	c7 44 24 08 01 00 00 	movl   $0x1,0x8(%esp)
    35cf:	00 
    35d0:	c7 44 24 04 6c 6f 63 	movl   $0x20636f6c,0x4(%esp)
    35d7:	20 
    35d8:	c7 04 24 02 00 00 00 	movl   $0x2,(%esp)
    35df:	e8 cc 05 01 00       	call   13bb0 <service_connect>
    35e4:	a3 10 2a 02 00       	mov    %eax,0x22a10
    35e9:	eb b0                	jmp    359b <loc_exchange_begin.part.0+0x1b>
    35eb:	90                   	nop
    35ec:	8d 74 26 00          	lea    0x0(%esi,%eiz,1),%esi
    35f0:	31 c0                	xor    %eax,%eax
    35f2:	c9                   	leave  
    35f3:	c3                   	ret    
    35f4:	8d b6 00 00 00 00    	lea    0x0(%esi),%esi
    35fa:	8d bf 00 00 00 00    	lea    0x0(%edi),%edi

00003600 <loc_get_name_internal>:
    3600:	55                   	push   %ebp
    3601:	89 e5                	mov    %esp,%ebp
    3603:	57                   	push   %edi
    3604:	56                   	push   %esi
    3605:	53                   	push   %ebx
    3606:	81 ec 8c 01 00 00    	sub    $0x18c,%esp
    360c:	c7 01 00 00 00 00    	movl   $0x0,(%ecx)
    3612:	89 85 94 fe ff ff    	mov    %eax,-0x16c(%ebp)
    3618:	89 d7                	mov    %edx,%edi
    361a:	c7 04 24 00 28 02 00 	movl   $0x22800,(%esp)
    3621:	89 ce                	mov    %ecx,%esi
    3623:	e8 08 63 00 00       	call   9930 <fibril_mutex_lock>
    3628:	a1 1c 2a 02 00       	mov    0x22a1c,%eax
    362d:	85 c0                	test   %eax,%eax
    362f:	75 39                	jne    366a <loc_get_name_internal+0x6a>
    3631:	c7 04 24 10 28 02 00 	movl   $0x22810,(%esp)
    3638:	8b 1d 18 2a 02 00    	mov    0x22a18,%ebx
    363e:	e8 ed 62 00 00       	call   9930 <fibril_mutex_lock>
    3643:	a1 1c 2a 02 00       	mov    0x22a1c,%eax
    3648:	85 c0                	test   %eax,%eax
    364a:	0f 84 40 01 00 00    	je     3790 <loc_get_name_internal+0x190>
    3650:	c7 04 24 10 28 02 00 	movl   $0x22810,(%esp)
    3657:	e8 f4 63 00 00       	call   9a50 <fibril_mutex_unlock>
    365c:	8b 1d 1c 2a 02 00    	mov    0x22a1c,%ebx
    3662:	85 db                	test   %ebx,%ebx
    3664:	0f 84 3e 01 00 00    	je     37a8 <loc_get_name_internal+0x1a8>
    366a:	c7 04 24 00 28 02 00 	movl   $0x22800,(%esp)
    3671:	e8 da 63 00 00       	call   9a50 <fibril_mutex_unlock>
    3676:	c7 04 24 10 28 02 00 	movl   $0x22810,(%esp)
    367d:	8b 1d 1c 2a 02 00    	mov    0x22a1c,%ebx
    3683:	e8 a8 62 00 00       	call   9930 <fibril_mutex_lock>
    3688:	8b 0d 18 2a 02 00    	mov    0x22a18,%ecx
    368e:	85 c9                	test   %ecx,%ecx
    3690:	0f 84 62 01 00 00    	je     37f8 <loc_get_name_internal+0x1f8>
    3696:	c7 04 24 10 28 02 00 	movl   $0x22810,(%esp)
    369d:	e8 ae 63 00 00       	call   9a50 <fibril_mutex_unlock>
    36a2:	a1 1c 2a 02 00       	mov    0x22a1c,%eax
    36a7:	89 04 24             	mov    %eax,(%esp)
    36aa:	e8 31 32 01 00       	call   168e0 <async_exchange_begin>
    36af:	89 7c 24 08          	mov    %edi,0x8(%esp)
    36b3:	89 c3                	mov    %eax,%ebx
    36b5:	8d 85 c4 fe ff ff    	lea    -0x13c(%ebp),%eax
    36bb:	89 44 24 18          	mov    %eax,0x18(%esp)
    36bf:	8b 85 94 fe ff ff    	mov    -0x16c(%ebp),%eax
    36c5:	c7 44 24 14 00 00 00 	movl   $0x0,0x14(%esp)
    36cc:	00 
    36cd:	c7 44 24 10 00 00 00 	movl   $0x0,0x10(%esp)
    36d4:	00 
    36d5:	c7 44 24 0c 00 00 00 	movl   $0x0,0xc(%esp)
    36dc:	00 
    36dd:	89 44 24 04          	mov    %eax,0x4(%esp)
    36e1:	89 1c 24             	mov    %ebx,(%esp)
    36e4:	e8 97 1b 01 00       	call   15280 <async_send_fast>
    36e9:	c7 44 24 08 ff 00 00 	movl   $0xff,0x8(%esp)
    36f0:	00 
    36f1:	89 c7                	mov    %eax,%edi
    36f3:	8d 85 a0 fe ff ff    	lea    -0x160(%ebp),%eax
    36f9:	89 44 24 0c          	mov    %eax,0xc(%esp)
    36fd:	8d 85 e8 fe ff ff    	lea    -0x118(%ebp),%eax
    3703:	89 44 24 04          	mov    %eax,0x4(%esp)
    3707:	89 1c 24             	mov    %ebx,(%esp)
    370a:	e8 c1 3a 01 00       	call   171d0 <async_data_read>
    370f:	8d 8d 98 fe ff ff    	lea    -0x168(%ebp),%ecx
    3715:	89 4c 24 04          	mov    %ecx,0x4(%esp)
    3719:	89 04 24             	mov    %eax,(%esp)
    371c:	e8 2f 1d 01 00       	call   15450 <async_wait_for>
    3721:	89 1c 24             	mov    %ebx,(%esp)
    3724:	e8 27 35 01 00       	call   16c50 <async_exchange_end>
    3729:	8b 95 98 fe ff ff    	mov    -0x168(%ebp),%edx
    372f:	85 d2                	test   %edx,%edx
    3731:	0f 85 a1 00 00 00    	jne    37d8 <loc_get_name_internal+0x1d8>
    3737:	8d 85 9c fe ff ff    	lea    -0x164(%ebp),%eax
    373d:	89 3c 24             	mov    %edi,(%esp)
    3740:	89 44 24 04          	mov    %eax,0x4(%esp)
    3744:	e8 07 1d 01 00       	call   15450 <async_wait_for>
    3749:	8b 85 9c fe ff ff    	mov    -0x164(%ebp),%eax
    374f:	85 c0                	test   %eax,%eax
    3751:	75 31                	jne    3784 <loc_get_name_internal+0x184>
    3753:	8b 85 a8 fe ff ff    	mov    -0x158(%ebp),%eax
    3759:	3d ff 00 00 00       	cmp    $0xff,%eax
    375e:	0f 87 a7 00 00 00    	ja     380b <loc_get_name_internal+0x20b>
    3764:	c6 84 05 e8 fe ff ff 	movb   $0x0,-0x118(%ebp,%eax,1)
    376b:	00 
    376c:	8d 85 e8 fe ff ff    	lea    -0x118(%ebp),%eax
    3772:	89 04 24             	mov    %eax,(%esp)
    3775:	e8 36 4f 00 00       	call   86b0 <str_dup>
    377a:	83 f8 01             	cmp    $0x1,%eax
    377d:	89 06                	mov    %eax,(%esi)
    377f:	19 c0                	sbb    %eax,%eax
    3781:	83 e0 fe             	and    $0xfffffffe,%eax
    3784:	81 c4 8c 01 00 00    	add    $0x18c,%esp
    378a:	5b                   	pop    %ebx
    378b:	5e                   	pop    %esi
    378c:	5f                   	pop    %edi
    378d:	5d                   	pop    %ebp
    378e:	c3                   	ret    
    378f:	90                   	nop
    3790:	85 db                	test   %ebx,%ebx
    3792:	0f 84 b8 fe ff ff    	je     3650 <loc_get_name_internal+0x50>
    3798:	89 1d 1c 2a 02 00    	mov    %ebx,0x22a1c
    379e:	e9 ad fe ff ff       	jmp    3650 <loc_get_name_internal+0x50>
    37a3:	90                   	nop
    37a4:	8d 74 26 00          	lea    0x0(%esi,%eiz,1),%esi
    37a8:	c7 44 24 0c 00 00 00 	movl   $0x0,0xc(%esp)
    37af:	00 
    37b0:	c7 44 24 08 02 00 00 	movl   $0x2,0x8(%esp)
    37b7:	00 
    37b8:	c7 44 24 04 6c 6f 63 	movl   $0x20636f6c,0x4(%esp)
    37bf:	20 
    37c0:	c7 04 24 02 00 00 00 	movl   $0x2,(%esp)
    37c7:	e8 64 04 01 00       	call   13c30 <service_connect_blocking>
    37cc:	a3 1c 2a 02 00       	mov    %eax,0x22a1c
    37d1:	e9 57 fe ff ff       	jmp    362d <loc_get_name_internal+0x2d>
    37d6:	66 90                	xchg   %ax,%ax
    37d8:	89 3c 24             	mov    %edi,(%esp)
    37db:	e8 c0 1e 01 00       	call   156a0 <async_forget>
    37e0:	8b 85 98 fe ff ff    	mov    -0x168(%ebp),%eax
    37e6:	81 c4 8c 01 00 00    	add    $0x18c,%esp
    37ec:	5b                   	pop    %ebx
    37ed:	5e                   	pop    %esi
    37ee:	5f                   	pop    %edi
    37ef:	5d                   	pop    %ebp
    37f0:	c3                   	ret    
    37f1:	8d b4 26 00 00 00 00 	lea    0x0(%esi,%eiz,1),%esi
    37f8:	85 db                	test   %ebx,%ebx
    37fa:	0f 84 96 fe ff ff    	je     3696 <loc_get_name_internal+0x96>
    3800:	89 1d 18 2a 02 00    	mov    %ebx,0x22a18
    3806:	e9 8b fe ff ff       	jmp    3696 <loc_get_name_internal+0x96>
    380b:	c7 44 24 08 9e 01 00 	movl   $0x19e,0x8(%esp)
    3812:	00 
    3813:	c7 44 24 04 07 fe 01 	movl   $0x1fe07,0x4(%esp)
    381a:	00 
    381b:	c7 04 24 15 fe 01 00 	movl   $0x1fe15,(%esp)
    3822:	e8 59 a3 01 00       	call   1db80 <assert_abort>
    3827:	89 f6                	mov    %esi,%esi
    3829:	8d bc 27 00 00 00 00 	lea    0x0(%edi,%eiz,1),%edi

00003830 <loc_get_ids_internal>:
    3830:	55                   	push   %ebp
    3831:	89 e5                	mov    %esp,%ebp
    3833:	57                   	push   %edi
    3834:	56                   	push   %esi
    3835:	53                   	push   %ebx
    3836:	83 ec 7c             	sub    $0x7c,%esp
    3839:	89 55 ac             	mov    %edx,-0x54(%ebp)
    383c:	8b 55 08             	mov    0x8(%ebp),%edx
    383f:	c7 01 00 00 00 00    	movl   $0x0,(%ecx)
    3845:	89 45 b0             	mov    %eax,-0x50(%ebp)
    3848:	89 4d a8             	mov    %ecx,-0x58(%ebp)
    384b:	c7 02 00 00 00 00    	movl   $0x0,(%edx)
    3851:	c7 04 24 00 28 02 00 	movl   $0x22800,(%esp)
    3858:	e8 d3 60 00 00       	call   9930 <fibril_mutex_lock>
    385d:	a1 1c 2a 02 00       	mov    0x22a1c,%eax
    3862:	85 c0                	test   %eax,%eax
    3864:	75 39                	jne    389f <loc_get_ids_internal+0x6f>
    3866:	c7 04 24 10 28 02 00 	movl   $0x22810,(%esp)
    386d:	8b 1d 18 2a 02 00    	mov    0x22a18,%ebx
    3873:	e8 b8 60 00 00       	call   9930 <fibril_mutex_lock>
    3878:	8b 15 1c 2a 02 00    	mov    0x22a1c,%edx
    387e:	85 d2                	test   %edx,%edx
    3880:	0f 84 5a 02 00 00    	je     3ae0 <loc_get_ids_internal+0x2b0>
    3886:	c7 04 24 10 28 02 00 	movl   $0x22810,(%esp)
    388d:	e8 be 61 00 00       	call   9a50 <fibril_mutex_unlock>
    3892:	a1 1c 2a 02 00       	mov    0x22a1c,%eax
    3897:	85 c0                	test   %eax,%eax
    3899:	0f 84 59 02 00 00    	je     3af8 <loc_get_ids_internal+0x2c8>
    389f:	c7 04 24 00 28 02 00 	movl   $0x22800,(%esp)
    38a6:	e8 a5 61 00 00       	call   9a50 <fibril_mutex_unlock>
    38ab:	c7 04 24 10 28 02 00 	movl   $0x22810,(%esp)
    38b2:	8b 1d 1c 2a 02 00    	mov    0x22a1c,%ebx
    38b8:	e8 73 60 00 00       	call   9930 <fibril_mutex_lock>
    38bd:	a1 18 2a 02 00       	mov    0x22a18,%eax
    38c2:	85 c0                	test   %eax,%eax
    38c4:	0f 84 d5 02 00 00    	je     3b9f <loc_get_ids_internal+0x36f>
    38ca:	c7 04 24 10 28 02 00 	movl   $0x22810,(%esp)
    38d1:	e8 7a 61 00 00       	call   9a50 <fibril_mutex_unlock>
    38d6:	a1 1c 2a 02 00       	mov    0x22a1c,%eax
    38db:	89 04 24             	mov    %eax,(%esp)
    38de:	e8 fd 2f 01 00       	call   168e0 <async_exchange_begin>
    38e3:	8b 55 ac             	mov    -0x54(%ebp),%edx
    38e6:	89 c6                	mov    %eax,%esi
    38e8:	8d 45 c4             	lea    -0x3c(%ebp),%eax
    38eb:	89 44 24 18          	mov    %eax,0x18(%esp)
    38ef:	8b 45 b0             	mov    -0x50(%ebp),%eax
    38f2:	89 54 24 08          	mov    %edx,0x8(%esp)
    38f6:	c7 44 24 14 00 00 00 	movl   $0x0,0x14(%esp)
    38fd:	00 
    38fe:	c7 44 24 10 00 00 00 	movl   $0x0,0x10(%esp)
    3905:	00 
    3906:	c7 44 24 0c 00 00 00 	movl   $0x0,0xc(%esp)
    390d:	00 
    390e:	89 44 24 04          	mov    %eax,0x4(%esp)
    3912:	89 34 24             	mov    %esi,(%esp)
    3915:	e8 66 19 01 00       	call   15280 <async_send_fast>
    391a:	c7 44 24 08 00 00 00 	movl   $0x0,0x8(%esp)
    3921:	00 
    3922:	c7 44 24 04 00 00 00 	movl   $0x0,0x4(%esp)
    3929:	00 
    392a:	89 34 24             	mov    %esi,(%esp)
    392d:	89 c3                	mov    %eax,%ebx
    392f:	e8 7c 39 01 00       	call   172b0 <async_data_read_start>
    3934:	89 34 24             	mov    %esi,(%esp)
    3937:	89 c7                	mov    %eax,%edi
    3939:	e8 12 33 01 00       	call   16c50 <async_exchange_end>
    393e:	85 ff                	test   %edi,%edi
    3940:	0f 85 3d 02 00 00    	jne    3b83 <loc_get_ids_internal+0x353>
    3946:	8d 55 c0             	lea    -0x40(%ebp),%edx
    3949:	89 1c 24             	mov    %ebx,(%esp)
    394c:	89 54 24 04          	mov    %edx,0x4(%esp)
    3950:	e8 fb 1a 01 00       	call   15450 <async_wait_for>
    3955:	8b 45 c0             	mov    -0x40(%ebp),%eax
    3958:	85 c0                	test   %eax,%eax
    395a:	0f 85 72 01 00 00    	jne    3ad2 <loc_get_ids_internal+0x2a2>
    3960:	8b 7d c8             	mov    -0x38(%ebp),%edi
    3963:	89 3c 24             	mov    %edi,(%esp)
    3966:	e8 c5 f6 00 00       	call   13030 <malloc>
    396b:	89 c6                	mov    %eax,%esi
    396d:	85 c0                	test   %eax,%eax
    396f:	0f 85 0a 01 00 00    	jne    3a7f <loc_get_ids_internal+0x24f>
    3975:	e9 1b 02 00 00       	jmp    3b95 <loc_get_ids_internal+0x365>
    397a:	8d b6 00 00 00 00    	lea    0x0(%esi),%esi
    3980:	c7 04 24 10 28 02 00 	movl   $0x22810,(%esp)
    3987:	e8 c4 60 00 00       	call   9a50 <fibril_mutex_unlock>
    398c:	a1 1c 2a 02 00       	mov    0x22a1c,%eax
    3991:	85 c0                	test   %eax,%eax
    3993:	0f 84 8f 01 00 00    	je     3b28 <loc_get_ids_internal+0x2f8>
    3999:	c7 04 24 00 28 02 00 	movl   $0x22800,(%esp)
    39a0:	e8 ab 60 00 00       	call   9a50 <fibril_mutex_unlock>
    39a5:	c7 04 24 10 28 02 00 	movl   $0x22810,(%esp)
    39ac:	8b 1d 1c 2a 02 00    	mov    0x22a1c,%ebx
    39b2:	e8 79 5f 00 00       	call   9930 <fibril_mutex_lock>
    39b7:	a1 18 2a 02 00       	mov    0x22a18,%eax
    39bc:	85 c0                	test   %eax,%eax
    39be:	0f 84 ac 01 00 00    	je     3b70 <loc_get_ids_internal+0x340>
    39c4:	c7 04 24 10 28 02 00 	movl   $0x22810,(%esp)
    39cb:	e8 80 60 00 00       	call   9a50 <fibril_mutex_unlock>
    39d0:	a1 1c 2a 02 00       	mov    0x22a1c,%eax
    39d5:	89 04 24             	mov    %eax,(%esp)
    39d8:	e8 03 2f 01 00       	call   168e0 <async_exchange_begin>
    39dd:	8b 55 ac             	mov    -0x54(%ebp),%edx
    39e0:	89 c3                	mov    %eax,%ebx
    39e2:	8d 45 c4             	lea    -0x3c(%ebp),%eax
    39e5:	89 44 24 18          	mov    %eax,0x18(%esp)
    39e9:	8b 45 b0             	mov    -0x50(%ebp),%eax
    39ec:	89 54 24 08          	mov    %edx,0x8(%esp)
    39f0:	c7 44 24 14 00 00 00 	movl   $0x0,0x14(%esp)
    39f7:	00 
    39f8:	c7 44 24 10 00 00 00 	movl   $0x0,0x10(%esp)
    39ff:	00 
    3a00:	c7 44 24 0c 00 00 00 	movl   $0x0,0xc(%esp)
    3a07:	00 
    3a08:	89 44 24 04          	mov    %eax,0x4(%esp)
    3a0c:	89 1c 24             	mov    %ebx,(%esp)
    3a0f:	e8 6c 18 01 00       	call   15280 <async_send_fast>
    3a14:	89 7c 24 08          	mov    %edi,0x8(%esp)
    3a18:	89 74 24 04          	mov    %esi,0x4(%esp)
    3a1c:	89 1c 24             	mov    %ebx,(%esp)
    3a1f:	89 45 b4             	mov    %eax,-0x4c(%ebp)
    3a22:	e8 89 38 01 00       	call   172b0 <async_data_read_start>
    3a27:	89 1c 24             	mov    %ebx,(%esp)
    3a2a:	89 45 a4             	mov    %eax,-0x5c(%ebp)
    3a2d:	e8 1e 32 01 00       	call   16c50 <async_exchange_end>
    3a32:	8b 45 a4             	mov    -0x5c(%ebp),%eax
    3a35:	85 c0                	test   %eax,%eax
    3a37:	0f 85 1b 01 00 00    	jne    3b58 <loc_get_ids_internal+0x328>
    3a3d:	8d 55 c0             	lea    -0x40(%ebp),%edx
    3a40:	89 45 a4             	mov    %eax,-0x5c(%ebp)
    3a43:	89 54 24 04          	mov    %edx,0x4(%esp)
    3a47:	8b 55 b4             	mov    -0x4c(%ebp),%edx
    3a4a:	89 14 24             	mov    %edx,(%esp)
    3a4d:	e8 fe 19 01 00       	call   15450 <async_wait_for>
    3a52:	8b 55 c0             	mov    -0x40(%ebp),%edx
    3a55:	85 d2                	test   %edx,%edx
    3a57:	8b 45 a4             	mov    -0x5c(%ebp),%eax
    3a5a:	75 74                	jne    3ad0 <loc_get_ids_internal+0x2a0>
    3a5c:	8b 5d c8             	mov    -0x38(%ebp),%ebx
    3a5f:	39 df                	cmp    %ebx,%edi
    3a61:	0f 83 4b 01 00 00    	jae    3bb2 <loc_get_ids_internal+0x382>
    3a67:	89 34 24             	mov    %esi,(%esp)
    3a6a:	89 5c 24 04          	mov    %ebx,0x4(%esp)
    3a6e:	e8 1d f9 00 00       	call   13390 <realloc>
    3a73:	89 df                	mov    %ebx,%edi
    3a75:	89 c6                	mov    %eax,%esi
    3a77:	85 c0                	test   %eax,%eax
    3a79:	0f 84 16 01 00 00    	je     3b95 <loc_get_ids_internal+0x365>
    3a7f:	c7 04 24 00 28 02 00 	movl   $0x22800,(%esp)
    3a86:	e8 a5 5e 00 00       	call   9930 <fibril_mutex_lock>
    3a8b:	a1 1c 2a 02 00       	mov    0x22a1c,%eax
    3a90:	85 c0                	test   %eax,%eax
    3a92:	0f 85 01 ff ff ff    	jne    3999 <loc_get_ids_internal+0x169>
    3a98:	c7 04 24 10 28 02 00 	movl   $0x22810,(%esp)
    3a9f:	8b 1d 18 2a 02 00    	mov    0x22a18,%ebx
    3aa5:	e8 86 5e 00 00       	call   9930 <fibril_mutex_lock>
    3aaa:	a1 1c 2a 02 00       	mov    0x22a1c,%eax
    3aaf:	85 c0                	test   %eax,%eax
    3ab1:	0f 85 c9 fe ff ff    	jne    3980 <loc_get_ids_internal+0x150>
    3ab7:	85 db                	test   %ebx,%ebx
    3ab9:	0f 84 c1 fe ff ff    	je     3980 <loc_get_ids_internal+0x150>
    3abf:	89 1d 1c 2a 02 00    	mov    %ebx,0x22a1c
    3ac5:	e9 b6 fe ff ff       	jmp    3980 <loc_get_ids_internal+0x150>
    3aca:	8d b6 00 00 00 00    	lea    0x0(%esi),%esi
    3ad0:	89 d0                	mov    %edx,%eax
    3ad2:	89 c7                	mov    %eax,%edi
    3ad4:	83 c4 7c             	add    $0x7c,%esp
    3ad7:	89 f8                	mov    %edi,%eax
    3ad9:	5b                   	pop    %ebx
    3ada:	5e                   	pop    %esi
    3adb:	5f                   	pop    %edi
    3adc:	5d                   	pop    %ebp
    3add:	c3                   	ret    
    3ade:	66 90                	xchg   %ax,%ax
    3ae0:	85 db                	test   %ebx,%ebx
    3ae2:	0f 84 9e fd ff ff    	je     3886 <loc_get_ids_internal+0x56>
    3ae8:	89 1d 1c 2a 02 00    	mov    %ebx,0x22a1c
    3aee:	e9 93 fd ff ff       	jmp    3886 <loc_get_ids_internal+0x56>
    3af3:	90                   	nop
    3af4:	8d 74 26 00          	lea    0x0(%esi,%eiz,1),%esi
    3af8:	c7 44 24 0c 00 00 00 	movl   $0x0,0xc(%esp)
    3aff:	00 
    3b00:	c7 44 24 08 02 00 00 	movl   $0x2,0x8(%esp)
    3b07:	00 
    3b08:	c7 44 24 04 6c 6f 63 	movl   $0x20636f6c,0x4(%esp)
    3b0f:	20 
    3b10:	c7 04 24 02 00 00 00 	movl   $0x2,(%esp)
    3b17:	e8 14 01 01 00       	call   13c30 <service_connect_blocking>
    3b1c:	a3 1c 2a 02 00       	mov    %eax,0x22a1c
    3b21:	e9 3c fd ff ff       	jmp    3862 <loc_get_ids_internal+0x32>
    3b26:	66 90                	xchg   %ax,%ax
    3b28:	c7 44 24 0c 00 00 00 	movl   $0x0,0xc(%esp)
    3b2f:	00 
    3b30:	c7 44 24 08 02 00 00 	movl   $0x2,0x8(%esp)
    3b37:	00 
    3b38:	c7 44 24 04 6c 6f 63 	movl   $0x20636f6c,0x4(%esp)
    3b3f:	20 
    3b40:	c7 04 24 02 00 00 00 	movl   $0x2,(%esp)
    3b47:	e8 e4 00 01 00       	call   13c30 <service_connect_blocking>
    3b4c:	a3 1c 2a 02 00       	mov    %eax,0x22a1c
    3b51:	e9 3a ff ff ff       	jmp    3a90 <loc_get_ids_internal+0x260>
    3b56:	66 90                	xchg   %ax,%ax
    3b58:	89 c7                	mov    %eax,%edi
    3b5a:	8b 45 b4             	mov    -0x4c(%ebp),%eax
    3b5d:	89 04 24             	mov    %eax,(%esp)
    3b60:	e8 3b 1b 01 00       	call   156a0 <async_forget>
    3b65:	83 c4 7c             	add    $0x7c,%esp
    3b68:	89 f8                	mov    %edi,%eax
    3b6a:	5b                   	pop    %ebx
    3b6b:	5e                   	pop    %esi
    3b6c:	5f                   	pop    %edi
    3b6d:	5d                   	pop    %ebp
    3b6e:	c3                   	ret    
    3b6f:	90                   	nop
    3b70:	85 db                	test   %ebx,%ebx
    3b72:	0f 84 4c fe ff ff    	je     39c4 <loc_get_ids_internal+0x194>
    3b78:	89 1d 18 2a 02 00    	mov    %ebx,0x22a18
    3b7e:	e9 41 fe ff ff       	jmp    39c4 <loc_get_ids_internal+0x194>
    3b83:	89 1c 24             	mov    %ebx,(%esp)
    3b86:	e8 15 1b 01 00       	call   156a0 <async_forget>
    3b8b:	83 c4 7c             	add    $0x7c,%esp
    3b8e:	89 f8                	mov    %edi,%eax
    3b90:	5b                   	pop    %ebx
    3b91:	5e                   	pop    %esi
    3b92:	5f                   	pop    %edi
    3b93:	5d                   	pop    %ebp
    3b94:	c3                   	ret    
    3b95:	bf fe ff ff ff       	mov    $0xfffffffe,%edi
    3b9a:	e9 35 ff ff ff       	jmp    3ad4 <loc_get_ids_internal+0x2a4>
    3b9f:	85 db                	test   %ebx,%ebx
    3ba1:	0f 84 23 fd ff ff    	je     38ca <loc_get_ids_internal+0x9a>
    3ba7:	89 1d 18 2a 02 00    	mov    %ebx,0x22a18
    3bad:	e9 18 fd ff ff       	jmp    38ca <loc_get_ids_internal+0x9a>
    3bb2:	89 c7                	mov    %eax,%edi
    3bb4:	8b 55 08             	mov    0x8(%ebp),%edx
    3bb7:	c1 eb 02             	shr    $0x2,%ebx
    3bba:	8b 45 a8             	mov    -0x58(%ebp),%eax
    3bbd:	89 1a                	mov    %ebx,(%edx)
    3bbf:	89 30                	mov    %esi,(%eax)
    3bc1:	e9 0e ff ff ff       	jmp    3ad4 <loc_get_ids_internal+0x2a4>
    3bc6:	8d 76 00             	lea    0x0(%esi),%esi
    3bc9:	8d bc 27 00 00 00 00 	lea    0x0(%edi,%eiz,1),%edi

00003bd0 <loc_exchange_begin_blocking>:
    3bd0:	55                   	push   %ebp
    3bd1:	89 e5                	mov    %esp,%ebp
    3bd3:	53                   	push   %ebx
    3bd4:	83 ec 14             	sub    $0x14,%esp
    3bd7:	8b 45 08             	mov    0x8(%ebp),%eax
    3bda:	83 f8 01             	cmp    $0x1,%eax
    3bdd:	74 11                	je     3bf0 <loc_exchange_begin_blocking+0x20>
    3bdf:	83 f8 02             	cmp    $0x2,%eax
    3be2:	0f 84 b0 00 00 00    	je     3c98 <loc_exchange_begin_blocking+0xc8>
    3be8:	83 c4 14             	add    $0x14,%esp
    3beb:	31 c0                	xor    %eax,%eax
    3bed:	5b                   	pop    %ebx
    3bee:	5d                   	pop    %ebp
    3bef:	c3                   	ret    
    3bf0:	c7 04 24 e0 27 02 00 	movl   $0x227e0,(%esp)
    3bf7:	e8 34 5d 00 00       	call   9930 <fibril_mutex_lock>
    3bfc:	a1 14 2a 02 00       	mov    0x22a14,%eax
    3c01:	85 c0                	test   %eax,%eax
    3c03:	75 34                	jne    3c39 <loc_exchange_begin_blocking+0x69>
    3c05:	c7 04 24 f0 27 02 00 	movl   $0x227f0,(%esp)
    3c0c:	8b 1d 10 2a 02 00    	mov    0x22a10,%ebx
    3c12:	e8 19 5d 00 00       	call   9930 <fibril_mutex_lock>
    3c17:	a1 14 2a 02 00       	mov    0x22a14,%eax
    3c1c:	85 c0                	test   %eax,%eax
    3c1e:	74 68                	je     3c88 <loc_exchange_begin_blocking+0xb8>
    3c20:	c7 04 24 f0 27 02 00 	movl   $0x227f0,(%esp)
    3c27:	e8 24 5e 00 00       	call   9a50 <fibril_mutex_unlock>
    3c2c:	a1 14 2a 02 00       	mov    0x22a14,%eax
    3c31:	85 c0                	test   %eax,%eax
    3c33:	0f 84 07 01 00 00    	je     3d40 <loc_exchange_begin_blocking+0x170>
    3c39:	c7 04 24 e0 27 02 00 	movl   $0x227e0,(%esp)
    3c40:	e8 0b 5e 00 00       	call   9a50 <fibril_mutex_unlock>
    3c45:	c7 04 24 f0 27 02 00 	movl   $0x227f0,(%esp)
    3c4c:	8b 1d 14 2a 02 00    	mov    0x22a14,%ebx
    3c52:	e8 d9 5c 00 00       	call   9930 <fibril_mutex_lock>
    3c57:	a1 10 2a 02 00       	mov    0x22a10,%eax
    3c5c:	85 c0                	test   %eax,%eax
    3c5e:	0f 84 3c 01 00 00    	je     3da0 <loc_exchange_begin_blocking+0x1d0>
    3c64:	c7 04 24 f0 27 02 00 	movl   $0x227f0,(%esp)
    3c6b:	e8 e0 5d 00 00       	call   9a50 <fibril_mutex_unlock>
    3c70:	a1 14 2a 02 00       	mov    0x22a14,%eax
    3c75:	89 45 08             	mov    %eax,0x8(%ebp)
    3c78:	83 c4 14             	add    $0x14,%esp
    3c7b:	5b                   	pop    %ebx
    3c7c:	5d                   	pop    %ebp
    3c7d:	e9 5e 2c 01 00       	jmp    168e0 <async_exchange_begin>
    3c82:	8d b6 00 00 00 00    	lea    0x0(%esi),%esi
    3c88:	85 db                	test   %ebx,%ebx
    3c8a:	74 94                	je     3c20 <loc_exchange_begin_blocking+0x50>
    3c8c:	89 1d 14 2a 02 00    	mov    %ebx,0x22a14
    3c92:	eb 8c                	jmp    3c20 <loc_exchange_begin_blocking+0x50>
    3c94:	8d 74 26 00          	lea    0x0(%esi,%eiz,1),%esi
    3c98:	c7 04 24 00 28 02 00 	movl   $0x22800,(%esp)
    3c9f:	e8 8c 5c 00 00       	call   9930 <fibril_mutex_lock>
    3ca4:	a1 1c 2a 02 00       	mov    0x22a1c,%eax
    3ca9:	85 c0                	test   %eax,%eax
    3cab:	75 35                	jne    3ce2 <loc_exchange_begin_blocking+0x112>
    3cad:	c7 04 24 10 28 02 00 	movl   $0x22810,(%esp)
    3cb4:	8b 1d 18 2a 02 00    	mov    0x22a18,%ebx
    3cba:	e8 71 5c 00 00       	call   9930 <fibril_mutex_lock>
    3cbf:	a1 1c 2a 02 00       	mov    0x22a1c,%eax
    3cc4:	85 c0                	test   %eax,%eax
    3cc6:	74 68                	je     3d30 <loc_exchange_begin_blocking+0x160>
    3cc8:	c7 04 24 10 28 02 00 	movl   $0x22810,(%esp)
    3ccf:	e8 7c 5d 00 00       	call   9a50 <fibril_mutex_unlock>
    3cd4:	8b 1d 1c 2a 02 00    	mov    0x22a1c,%ebx
    3cda:	85 db                	test   %ebx,%ebx
    3cdc:	0f 84 8e 00 00 00    	je     3d70 <loc_exchange_begin_blocking+0x1a0>
    3ce2:	c7 04 24 00 28 02 00 	movl   $0x22800,(%esp)
    3ce9:	e8 62 5d 00 00       	call   9a50 <fibril_mutex_unlock>
    3cee:	c7 04 24 10 28 02 00 	movl   $0x22810,(%esp)
    3cf5:	8b 1d 1c 2a 02 00    	mov    0x22a1c,%ebx
    3cfb:	e8 30 5c 00 00       	call   9930 <fibril_mutex_lock>
    3d00:	8b 0d 18 2a 02 00    	mov    0x22a18,%ecx
    3d06:	85 c9                	test   %ecx,%ecx
    3d08:	0f 84 aa 00 00 00    	je     3db8 <loc_exchange_begin_blocking+0x1e8>
    3d0e:	c7 04 24 10 28 02 00 	movl   $0x22810,(%esp)
    3d15:	e8 36 5d 00 00       	call   9a50 <fibril_mutex_unlock>
    3d1a:	a1 1c 2a 02 00       	mov    0x22a1c,%eax
    3d1f:	89 45 08             	mov    %eax,0x8(%ebp)
    3d22:	83 c4 14             	add    $0x14,%esp
    3d25:	5b                   	pop    %ebx
    3d26:	5d                   	pop    %ebp
    3d27:	e9 b4 2b 01 00       	jmp    168e0 <async_exchange_begin>
    3d2c:	8d 74 26 00          	lea    0x0(%esi,%eiz,1),%esi
    3d30:	85 db                	test   %ebx,%ebx
    3d32:	74 94                	je     3cc8 <loc_exchange_begin_blocking+0xf8>
    3d34:	89 1d 1c 2a 02 00    	mov    %ebx,0x22a1c
    3d3a:	eb 8c                	jmp    3cc8 <loc_exchange_begin_blocking+0xf8>
    3d3c:	8d 74 26 00          	lea    0x0(%esi,%eiz,1),%esi
    3d40:	c7 44 24 0c 00 00 00 	movl   $0x0,0xc(%esp)
    3d47:	00 
    3d48:	c7 44 24 08 01 00 00 	movl   $0x1,0x8(%esp)
    3d4f:	00 
    3d50:	c7 44 24 04 6c 6f 63 	movl   $0x20636f6c,0x4(%esp)
    3d57:	20 
    3d58:	c7 04 24 02 00 00 00 	movl   $0x2,(%esp)
    3d5f:	e8 cc fe 00 00       	call   13c30 <service_connect_blocking>
    3d64:	a3 14 2a 02 00       	mov    %eax,0x22a14
    3d69:	e9 93 fe ff ff       	jmp    3c01 <loc_exchange_begin_blocking+0x31>
    3d6e:	66 90                	xchg   %ax,%ax
    3d70:	c7 44 24 0c 00 00 00 	movl   $0x0,0xc(%esp)
    3d77:	00 
    3d78:	c7 44 24 08 02 00 00 	movl   $0x2,0x8(%esp)
    3d7f:	00 
    3d80:	c7 44 24 04 6c 6f 63 	movl   $0x20636f6c,0x4(%esp)
    3d87:	20 
    3d88:	c7 04 24 02 00 00 00 	movl   $0x2,(%esp)
    3d8f:	e8 9c fe 00 00       	call   13c30 <service_connect_blocking>
    3d94:	a3 1c 2a 02 00       	mov    %eax,0x22a1c
    3d99:	e9 0b ff ff ff       	jmp    3ca9 <loc_exchange_begin_blocking+0xd9>
    3d9e:	66 90                	xchg   %ax,%ax
    3da0:	85 db                	test   %ebx,%ebx
    3da2:	0f 84 bc fe ff ff    	je     3c64 <loc_exchange_begin_blocking+0x94>
    3da8:	89 1d 10 2a 02 00    	mov    %ebx,0x22a10
    3dae:	e9 b1 fe ff ff       	jmp    3c64 <loc_exchange_begin_blocking+0x94>
    3db3:	90                   	nop
    3db4:	8d 74 26 00          	lea    0x0(%esi,%eiz,1),%esi
    3db8:	85 db                	test   %ebx,%ebx
    3dba:	0f 84 4e ff ff ff    	je     3d0e <loc_exchange_begin_blocking+0x13e>
    3dc0:	89 1d 18 2a 02 00    	mov    %ebx,0x22a18
    3dc6:	e9 43 ff ff ff       	jmp    3d0e <loc_exchange_begin_blocking+0x13e>
    3dcb:	90                   	nop
    3dcc:	8d 74 26 00          	lea    0x0(%esi,%eiz,1),%esi

00003dd0 <loc_exchange_begin>:
    3dd0:	55                   	push   %ebp
    3dd1:	89 e5                	mov    %esp,%ebp
    3dd3:	83 ec 18             	sub    $0x18,%esp
    3dd6:	8b 45 08             	mov    0x8(%ebp),%eax
    3dd9:	83 f8 01             	cmp    $0x1,%eax
    3ddc:	74 0a                	je     3de8 <loc_exchange_begin+0x18>
    3dde:	83 f8 02             	cmp    $0x2,%eax
    3de1:	74 3d                	je     3e20 <loc_exchange_begin+0x50>
    3de3:	31 c0                	xor    %eax,%eax
    3de5:	c9                   	leave  
    3de6:	c3                   	ret    
    3de7:	90                   	nop
    3de8:	c7 04 24 f0 27 02 00 	movl   $0x227f0,(%esp)
    3def:	e8 3c 5b 00 00       	call   9930 <fibril_mutex_lock>
    3df4:	a1 10 2a 02 00       	mov    0x22a10,%eax
    3df9:	85 c0                	test   %eax,%eax
    3dfb:	74 5b                	je     3e58 <loc_exchange_begin+0x88>
    3dfd:	c7 04 24 f0 27 02 00 	movl   $0x227f0,(%esp)
    3e04:	e8 47 5c 00 00       	call   9a50 <fibril_mutex_unlock>
    3e09:	a1 10 2a 02 00       	mov    0x22a10,%eax
    3e0e:	85 c0                	test   %eax,%eax
    3e10:	74 d1                	je     3de3 <loc_exchange_begin+0x13>
    3e12:	89 45 08             	mov    %eax,0x8(%ebp)
    3e15:	c9                   	leave  
    3e16:	e9 c5 2a 01 00       	jmp    168e0 <async_exchange_begin>
    3e1b:	90                   	nop
    3e1c:	8d 74 26 00          	lea    0x0(%esi,%eiz,1),%esi
    3e20:	c7 04 24 10 28 02 00 	movl   $0x22810,(%esp)
    3e27:	e8 04 5b 00 00       	call   9930 <fibril_mutex_lock>
    3e2c:	a1 18 2a 02 00       	mov    0x22a18,%eax
    3e31:	85 c0                	test   %eax,%eax
    3e33:	74 53                	je     3e88 <loc_exchange_begin+0xb8>
    3e35:	c7 04 24 10 28 02 00 	movl   $0x22810,(%esp)
    3e3c:	e8 0f 5c 00 00       	call   9a50 <fibril_mutex_unlock>
    3e41:	a1 18 2a 02 00       	mov    0x22a18,%eax
    3e46:	85 c0                	test   %eax,%eax
    3e48:	74 99                	je     3de3 <loc_exchange_begin+0x13>
    3e4a:	89 45 08             	mov    %eax,0x8(%ebp)
    3e4d:	c9                   	leave  
    3e4e:	e9 8d 2a 01 00       	jmp    168e0 <async_exchange_begin>
    3e53:	90                   	nop
    3e54:	8d 74 26 00          	lea    0x0(%esi,%eiz,1),%esi
    3e58:	c7 44 24 0c 00 00 00 	movl   $0x0,0xc(%esp)
    3e5f:	00 
    3e60:	c7 44 24 08 01 00 00 	movl   $0x1,0x8(%esp)
    3e67:	00 
    3e68:	c7 44 24 04 6c 6f 63 	movl   $0x20636f6c,0x4(%esp)
    3e6f:	20 
    3e70:	c7 04 24 02 00 00 00 	movl   $0x2,(%esp)
    3e77:	e8 34 fd 00 00       	call   13bb0 <service_connect>
    3e7c:	a3 10 2a 02 00       	mov    %eax,0x22a10
    3e81:	e9 77 ff ff ff       	jmp    3dfd <loc_exchange_begin+0x2d>
    3e86:	66 90                	xchg   %ax,%ax
    3e88:	c7 44 24 0c 00 00 00 	movl   $0x0,0xc(%esp)
    3e8f:	00 
    3e90:	c7 44 24 08 02 00 00 	movl   $0x2,0x8(%esp)
    3e97:	00 
    3e98:	c7 44 24 04 6c 6f 63 	movl   $0x20636f6c,0x4(%esp)
    3e9f:	20 
    3ea0:	c7 04 24 02 00 00 00 	movl   $0x2,(%esp)
    3ea7:	e8 04 fd 00 00       	call   13bb0 <service_connect>
    3eac:	a3 18 2a 02 00       	mov    %eax,0x22a18
    3eb1:	eb 82                	jmp    3e35 <loc_exchange_begin+0x65>
    3eb3:	8d b6 00 00 00 00    	lea    0x0(%esi),%esi
    3eb9:	8d bc 27 00 00 00 00 	lea    0x0(%edi,%eiz,1),%edi

00003ec0 <loc_exchange_end>:
    3ec0:	55                   	push   %ebp
    3ec1:	89 e5                	mov    %esp,%ebp
    3ec3:	5d                   	pop    %ebp
    3ec4:	e9 87 2d 01 00       	jmp    16c50 <async_exchange_end>
    3ec9:	8d b4 26 00 00 00 00 	lea    0x0(%esi,%eiz,1),%esi

00003ed0 <loc_server_register>:
    3ed0:	55                   	push   %ebp
    3ed1:	89 e5                	mov    %esp,%ebp
    3ed3:	57                   	push   %edi
    3ed4:	56                   	push   %esi
    3ed5:	53                   	push   %ebx
    3ed6:	83 ec 5c             	sub    $0x5c,%esp
    3ed9:	8b 75 08             	mov    0x8(%ebp),%esi
    3edc:	c7 04 24 e0 27 02 00 	movl   $0x227e0,(%esp)
    3ee3:	e8 48 5a 00 00       	call   9930 <fibril_mutex_lock>
    3ee8:	a1 14 2a 02 00       	mov    0x22a14,%eax
    3eed:	85 c0                	test   %eax,%eax
    3eef:	75 38                	jne    3f29 <loc_server_register+0x59>
    3ef1:	c7 04 24 f0 27 02 00 	movl   $0x227f0,(%esp)
    3ef8:	8b 1d 10 2a 02 00    	mov    0x22a10,%ebx
    3efe:	e8 2d 5a 00 00       	call   9930 <fibril_mutex_lock>
    3f03:	a1 14 2a 02 00       	mov    0x22a14,%eax
    3f08:	85 c0                	test   %eax,%eax
    3f0a:	0f 84 58 01 00 00    	je     4068 <loc_server_register+0x198>
    3f10:	c7 04 24 f0 27 02 00 	movl   $0x227f0,(%esp)
    3f17:	e8 34 5b 00 00       	call   9a50 <fibril_mutex_unlock>
    3f1c:	a1 14 2a 02 00       	mov    0x22a14,%eax
    3f21:	85 c0                	test   %eax,%eax
    3f23:	0f 84 57 01 00 00    	je     4080 <loc_server_register+0x1b0>
    3f29:	c7 04 24 e0 27 02 00 	movl   $0x227e0,(%esp)
    3f30:	e8 1b 5b 00 00       	call   9a50 <fibril_mutex_unlock>
    3f35:	c7 04 24 f0 27 02 00 	movl   $0x227f0,(%esp)
    3f3c:	8b 1d 14 2a 02 00    	mov    0x22a14,%ebx
    3f42:	e8 e9 59 00 00       	call   9930 <fibril_mutex_lock>
    3f47:	8b 3d 10 2a 02 00    	mov    0x22a10,%edi
    3f4d:	85 ff                	test   %edi,%edi
    3f4f:	0f 84 73 01 00 00    	je     40c8 <loc_server_register+0x1f8>
    3f55:	c7 04 24 f0 27 02 00 	movl   $0x227f0,(%esp)
    3f5c:	e8 ef 5a 00 00       	call   9a50 <fibril_mutex_unlock>
    3f61:	a1 14 2a 02 00       	mov    0x22a14,%eax
    3f66:	89 04 24             	mov    %eax,(%esp)
    3f69:	e8 72 29 01 00       	call   168e0 <async_exchange_begin>
    3f6e:	c7 44 24 14 00 00 00 	movl   $0x0,0x14(%esp)
    3f75:	00 
    3f76:	89 c3                	mov    %eax,%ebx
    3f78:	8d 45 c4             	lea    -0x3c(%ebp),%eax
    3f7b:	89 44 24 18          	mov    %eax,0x18(%esp)
    3f7f:	c7 44 24 10 00 00 00 	movl   $0x0,0x10(%esp)
    3f86:	00 
    3f87:	c7 44 24 0c 00 00 00 	movl   $0x0,0xc(%esp)
    3f8e:	00 
    3f8f:	c7 44 24 08 00 00 00 	movl   $0x0,0x8(%esp)
    3f96:	00 
    3f97:	c7 44 24 04 00 04 00 	movl   $0x400,0x4(%esp)
    3f9e:	00 
    3f9f:	89 1c 24             	mov    %ebx,(%esp)
    3fa2:	e8 d9 12 01 00       	call   15280 <async_send_fast>
    3fa7:	89 34 24             	mov    %esi,(%esp)
    3faa:	89 c7                	mov    %eax,%edi
    3fac:	e8 5f 27 00 00       	call   6710 <str_size>
    3fb1:	89 74 24 04          	mov    %esi,0x4(%esp)
    3fb5:	89 44 24 08          	mov    %eax,0x8(%esp)
    3fb9:	89 1c 24             	mov    %ebx,(%esp)
    3fbc:	e8 0f 38 01 00       	call   177d0 <async_data_write_start>
    3fc1:	89 1c 24             	mov    %ebx,(%esp)
    3fc4:	89 45 c0             	mov    %eax,-0x40(%ebp)
    3fc7:	e8 84 2c 01 00       	call   16c50 <async_exchange_end>
    3fcc:	8b 4d c0             	mov    -0x40(%ebp),%ecx
    3fcf:	85 c9                	test   %ecx,%ecx
    3fd1:	0f 85 d9 00 00 00    	jne    40b0 <loc_server_register+0x1e0>
    3fd7:	c7 04 24 f0 27 02 00 	movl   $0x227f0,(%esp)
    3fde:	e8 4d 59 00 00       	call   9930 <fibril_mutex_lock>
    3fe3:	8b 15 10 2a 02 00    	mov    0x22a10,%edx
    3fe9:	85 d2                	test   %edx,%edx
    3feb:	0f 84 ea 00 00 00    	je     40db <loc_server_register+0x20b>
    3ff1:	c7 04 24 f0 27 02 00 	movl   $0x227f0,(%esp)
    3ff8:	e8 53 5a 00 00       	call   9a50 <fibril_mutex_unlock>
    3ffd:	a1 10 2a 02 00       	mov    0x22a10,%eax
    4002:	85 c0                	test   %eax,%eax
    4004:	0f 84 ff 00 00 00    	je     4109 <loc_server_register+0x239>
    400a:	89 04 24             	mov    %eax,(%esp)
    400d:	e8 ce 28 01 00       	call   168e0 <async_exchange_begin>
    4012:	89 c3                	mov    %eax,%ebx
    4014:	89 1c 24             	mov    %ebx,(%esp)
    4017:	c7 44 24 14 00 00 00 	movl   $0x0,0x14(%esp)
    401e:	00 
    401f:	c7 44 24 10 00 00 00 	movl   $0x0,0x10(%esp)
    4026:	00 
    4027:	c7 44 24 0c 00 00 00 	movl   $0x0,0xc(%esp)
    402e:	00 
    402f:	c7 44 24 08 00 00 00 	movl   $0x0,0x8(%esp)
    4036:	00 
    4037:	c7 44 24 04 00 00 00 	movl   $0x0,0x4(%esp)
    403e:	00 
    403f:	e8 3c 20 01 00       	call   16080 <async_connect_to_me>
    4044:	89 1c 24             	mov    %ebx,(%esp)
    4047:	e8 04 2c 01 00       	call   16c50 <async_exchange_end>
    404c:	8d 45 c0             	lea    -0x40(%ebp),%eax
    404f:	89 44 24 04          	mov    %eax,0x4(%esp)
    4053:	89 3c 24             	mov    %edi,(%esp)
    4056:	e8 f5 13 01 00       	call   15450 <async_wait_for>
    405b:	8b 45 c0             	mov    -0x40(%ebp),%eax
    405e:	83 c4 5c             	add    $0x5c,%esp
    4061:	5b                   	pop    %ebx
    4062:	5e                   	pop    %esi
    4063:	5f                   	pop    %edi
    4064:	5d                   	pop    %ebp
    4065:	c3                   	ret    
    4066:	66 90                	xchg   %ax,%ax
    4068:	85 db                	test   %ebx,%ebx
    406a:	0f 84 a0 fe ff ff    	je     3f10 <loc_server_register+0x40>
    4070:	89 1d 14 2a 02 00    	mov    %ebx,0x22a14
    4076:	e9 95 fe ff ff       	jmp    3f10 <loc_server_register+0x40>
    407b:	90                   	nop
    407c:	8d 74 26 00          	lea    0x0(%esi,%eiz,1),%esi
    4080:	c7 44 24 0c 00 00 00 	movl   $0x0,0xc(%esp)
    4087:	00 
    4088:	c7 44 24 08 01 00 00 	movl   $0x1,0x8(%esp)
    408f:	00 
    4090:	c7 44 24 04 6c 6f 63 	movl   $0x20636f6c,0x4(%esp)
    4097:	20 
    4098:	c7 04 24 02 00 00 00 	movl   $0x2,(%esp)
    409f:	e8 8c fb 00 00       	call   13c30 <service_connect_blocking>
    40a4:	a3 14 2a 02 00       	mov    %eax,0x22a14
    40a9:	e9 3f fe ff ff       	jmp    3eed <loc_server_register+0x1d>
    40ae:	66 90                	xchg   %ax,%ax
    40b0:	89 3c 24             	mov    %edi,(%esp)
    40b3:	e8 e8 15 01 00       	call   156a0 <async_forget>
    40b8:	8b 45 c0             	mov    -0x40(%ebp),%eax
    40bb:	83 c4 5c             	add    $0x5c,%esp
    40be:	5b                   	pop    %ebx
    40bf:	5e                   	pop    %esi
    40c0:	5f                   	pop    %edi
    40c1:	5d                   	pop    %ebp
    40c2:	c3                   	ret    
    40c3:	90                   	nop
    40c4:	8d 74 26 00          	lea    0x0(%esi,%eiz,1),%esi
    40c8:	85 db                	test   %ebx,%ebx
    40ca:	0f 84 85 fe ff ff    	je     3f55 <loc_server_register+0x85>
    40d0:	89 1d 10 2a 02 00    	mov    %ebx,0x22a10
    40d6:	e9 7a fe ff ff       	jmp    3f55 <loc_server_register+0x85>
    40db:	c7 44 24 0c 00 00 00 	movl   $0x0,0xc(%esp)
    40e2:	00 
    40e3:	c7 44 24 08 01 00 00 	movl   $0x1,0x8(%esp)
    40ea:	00 
    40eb:	c7 44 24 04 6c 6f 63 	movl   $0x20636f6c,0x4(%esp)
    40f2:	20 
    40f3:	c7 04 24 02 00 00 00 	movl   $0x2,(%esp)
    40fa:	e8 b1 fa 00 00       	call   13bb0 <service_connect>
    40ff:	a3 10 2a 02 00       	mov    %eax,0x22a10
    4104:	e9 e8 fe ff ff       	jmp    3ff1 <loc_server_register+0x121>
    4109:	31 db                	xor    %ebx,%ebx
    410b:	e9 04 ff ff ff       	jmp    4014 <loc_server_register+0x144>

00004110 <loc_service_register_with_iface>:
    4110:	55                   	push   %ebp
    4111:	89 e5                	mov    %esp,%ebp
    4113:	57                   	push   %edi
    4114:	56                   	push   %esi
    4115:	53                   	push   %ebx
    4116:	83 ec 5c             	sub    $0x5c,%esp
    4119:	8b 75 08             	mov    0x8(%ebp),%esi
    411c:	c7 04 24 e0 27 02 00 	movl   $0x227e0,(%esp)
    4123:	e8 08 58 00 00       	call   9930 <fibril_mutex_lock>
    4128:	a1 14 2a 02 00       	mov    0x22a14,%eax
    412d:	85 c0                	test   %eax,%eax
    412f:	75 38                	jne    4169 <loc_service_register_with_iface+0x59>
    4131:	c7 04 24 f0 27 02 00 	movl   $0x227f0,(%esp)
    4138:	8b 1d 10 2a 02 00    	mov    0x22a10,%ebx
    413e:	e8 ed 57 00 00       	call   9930 <fibril_mutex_lock>
    4143:	a1 14 2a 02 00       	mov    0x22a14,%eax
    4148:	85 c0                	test   %eax,%eax
    414a:	0f 84 f8 00 00 00    	je     4248 <loc_service_register_with_iface+0x138>
    4150:	c7 04 24 f0 27 02 00 	movl   $0x227f0,(%esp)
    4157:	e8 f4 58 00 00       	call   9a50 <fibril_mutex_unlock>
    415c:	a1 14 2a 02 00       	mov    0x22a14,%eax
    4161:	85 c0                	test   %eax,%eax
    4163:	0f 84 f7 00 00 00    	je     4260 <loc_service_register_with_iface+0x150>
    4169:	c7 04 24 e0 27 02 00 	movl   $0x227e0,(%esp)
    4170:	e8 db 58 00 00       	call   9a50 <fibril_mutex_unlock>
    4175:	c7 04 24 f0 27 02 00 	movl   $0x227f0,(%esp)
    417c:	8b 1d 14 2a 02 00    	mov    0x22a14,%ebx
    4182:	e8 a9 57 00 00       	call   9930 <fibril_mutex_lock>
    4187:	8b 3d 10 2a 02 00    	mov    0x22a10,%edi
    418d:	85 ff                	test   %edi,%edi
    418f:	0f 84 33 01 00 00    	je     42c8 <loc_service_register_with_iface+0x1b8>
    4195:	c7 04 24 f0 27 02 00 	movl   $0x227f0,(%esp)
    419c:	e8 af 58 00 00       	call   9a50 <fibril_mutex_unlock>
    41a1:	a1 14 2a 02 00       	mov    0x22a14,%eax
    41a6:	89 04 24             	mov    %eax,(%esp)
    41a9:	e8 32 27 01 00       	call   168e0 <async_exchange_begin>
    41ae:	c7 44 24 14 00 00 00 	movl   $0x0,0x14(%esp)
    41b5:	00 
    41b6:	89 c7                	mov    %eax,%edi
    41b8:	8d 45 c4             	lea    -0x3c(%ebp),%eax
    41bb:	89 44 24 18          	mov    %eax,0x18(%esp)
    41bf:	8b 45 10             	mov    0x10(%ebp),%eax
    41c2:	c7 44 24 10 00 00 00 	movl   $0x0,0x10(%esp)
    41c9:	00 
    41ca:	c7 44 24 0c 00 00 00 	movl   $0x0,0xc(%esp)
    41d1:	00 
    41d2:	89 44 24 08          	mov    %eax,0x8(%esp)
    41d6:	c7 44 24 04 03 04 00 	movl   $0x403,0x4(%esp)
    41dd:	00 
    41de:	89 3c 24             	mov    %edi,(%esp)
    41e1:	e8 9a 10 01 00       	call   15280 <async_send_fast>
    41e6:	89 34 24             	mov    %esi,(%esp)
    41e9:	89 c3                	mov    %eax,%ebx
    41eb:	e8 20 25 00 00       	call   6710 <str_size>
    41f0:	89 74 24 04          	mov    %esi,0x4(%esp)
    41f4:	89 44 24 08          	mov    %eax,0x8(%esp)
    41f8:	89 3c 24             	mov    %edi,(%esp)
    41fb:	e8 d0 35 01 00       	call   177d0 <async_data_write_start>
    4200:	89 3c 24             	mov    %edi,(%esp)
    4203:	89 45 c0             	mov    %eax,-0x40(%ebp)
    4206:	e8 45 2a 01 00       	call   16c50 <async_exchange_end>
    420b:	8b 4d c0             	mov    -0x40(%ebp),%ecx
    420e:	85 c9                	test   %ecx,%ecx
    4210:	0f 85 9a 00 00 00    	jne    42b0 <loc_service_register_with_iface+0x1a0>
    4216:	8d 45 c0             	lea    -0x40(%ebp),%eax
    4219:	89 1c 24             	mov    %ebx,(%esp)
    421c:	89 44 24 04          	mov    %eax,0x4(%esp)
    4220:	e8 2b 12 01 00       	call   15450 <async_wait_for>
    4225:	8b 45 c0             	mov    -0x40(%ebp),%eax
    4228:	85 c0                	test   %eax,%eax
    422a:	74 64                	je     4290 <loc_service_register_with_iface+0x180>
    422c:	8b 55 0c             	mov    0xc(%ebp),%edx
    422f:	85 d2                	test   %edx,%edx
    4231:	74 09                	je     423c <loc_service_register_with_iface+0x12c>
    4233:	8b 55 0c             	mov    0xc(%ebp),%edx
    4236:	c7 02 ff ff ff ff    	movl   $0xffffffff,(%edx)
    423c:	83 c4 5c             	add    $0x5c,%esp
    423f:	5b                   	pop    %ebx
    4240:	5e                   	pop    %esi
    4241:	5f                   	pop    %edi
    4242:	5d                   	pop    %ebp
    4243:	c3                   	ret    
    4244:	8d 74 26 00          	lea    0x0(%esi,%eiz,1),%esi
    4248:	85 db                	test   %ebx,%ebx
    424a:	0f 84 00 ff ff ff    	je     4150 <loc_service_register_with_iface+0x40>
    4250:	89 1d 14 2a 02 00    	mov    %ebx,0x22a14
    4256:	e9 f5 fe ff ff       	jmp    4150 <loc_service_register_with_iface+0x40>
    425b:	90                   	nop
    425c:	8d 74 26 00          	lea    0x0(%esi,%eiz,1),%esi
    4260:	c7 44 24 0c 00 00 00 	movl   $0x0,0xc(%esp)
    4267:	00 
    4268:	c7 44 24 08 01 00 00 	movl   $0x1,0x8(%esp)
    426f:	00 
    4270:	c7 44 24 04 6c 6f 63 	movl   $0x20636f6c,0x4(%esp)
    4277:	20 
    4278:	c7 04 24 02 00 00 00 	movl   $0x2,(%esp)
    427f:	e8 ac f9 00 00       	call   13c30 <service_connect_blocking>
    4284:	a3 14 2a 02 00       	mov    %eax,0x22a14
    4289:	e9 9f fe ff ff       	jmp    412d <loc_service_register_with_iface+0x1d>
    428e:	66 90                	xchg   %ax,%ax
    4290:	8b 45 0c             	mov    0xc(%ebp),%eax
    4293:	85 c0                	test   %eax,%eax
    4295:	74 08                	je     429f <loc_service_register_with_iface+0x18f>
    4297:	8b 55 0c             	mov    0xc(%ebp),%edx
    429a:	8b 45 c8             	mov    -0x38(%ebp),%eax
    429d:	89 02                	mov    %eax,(%edx)
    429f:	83 c4 5c             	add    $0x5c,%esp
    42a2:	31 c0                	xor    %eax,%eax
    42a4:	5b                   	pop    %ebx
    42a5:	5e                   	pop    %esi
    42a6:	5f                   	pop    %edi
    42a7:	5d                   	pop    %ebp
    42a8:	c3                   	ret    
    42a9:	8d b4 26 00 00 00 00 	lea    0x0(%esi,%eiz,1),%esi
    42b0:	89 1c 24             	mov    %ebx,(%esp)
    42b3:	e8 e8 13 01 00       	call   156a0 <async_forget>
    42b8:	8b 45 c0             	mov    -0x40(%ebp),%eax
    42bb:	83 c4 5c             	add    $0x5c,%esp
    42be:	5b                   	pop    %ebx
    42bf:	5e                   	pop    %esi
    42c0:	5f                   	pop    %edi
    42c1:	5d                   	pop    %ebp
    42c2:	c3                   	ret    
    42c3:	90                   	nop
    42c4:	8d 74 26 00          	lea    0x0(%esi,%eiz,1),%esi
    42c8:	85 db                	test   %ebx,%ebx
    42ca:	0f 84 c5 fe ff ff    	je     4195 <loc_service_register_with_iface+0x85>
    42d0:	89 1d 10 2a 02 00    	mov    %ebx,0x22a10
    42d6:	e9 ba fe ff ff       	jmp    4195 <loc_service_register_with_iface+0x85>
    42db:	90                   	nop
    42dc:	8d 74 26 00          	lea    0x0(%esi,%eiz,1),%esi

000042e0 <loc_service_register>:
    42e0:	55                   	push   %ebp
    42e1:	89 e5                	mov    %esp,%ebp
    42e3:	57                   	push   %edi
    42e4:	56                   	push   %esi
    42e5:	53                   	push   %ebx
    42e6:	83 ec 5c             	sub    $0x5c,%esp
    42e9:	8b 75 08             	mov    0x8(%ebp),%esi
    42ec:	c7 04 24 e0 27 02 00 	movl   $0x227e0,(%esp)
    42f3:	e8 38 56 00 00       	call   9930 <fibril_mutex_lock>
    42f8:	a1 14 2a 02 00       	mov    0x22a14,%eax
    42fd:	85 c0                	test   %eax,%eax
    42ff:	75 38                	jne    4339 <loc_service_register+0x59>
    4301:	c7 04 24 f0 27 02 00 	movl   $0x227f0,(%esp)
    4308:	8b 1d 10 2a 02 00    	mov    0x22a10,%ebx
    430e:	e8 1d 56 00 00       	call   9930 <fibril_mutex_lock>
    4313:	a1 14 2a 02 00       	mov    0x22a14,%eax
    4318:	85 c0                	test   %eax,%eax
    431a:	0f 84 f8 00 00 00    	je     4418 <loc_service_register+0x138>
    4320:	c7 04 24 f0 27 02 00 	movl   $0x227f0,(%esp)
    4327:	e8 24 57 00 00       	call   9a50 <fibril_mutex_unlock>
    432c:	a1 14 2a 02 00       	mov    0x22a14,%eax
    4331:	85 c0                	test   %eax,%eax
    4333:	0f 84 f7 00 00 00    	je     4430 <loc_service_register+0x150>
    4339:	c7 04 24 e0 27 02 00 	movl   $0x227e0,(%esp)
    4340:	e8 0b 57 00 00       	call   9a50 <fibril_mutex_unlock>
    4345:	c7 04 24 f0 27 02 00 	movl   $0x227f0,(%esp)
    434c:	8b 1d 14 2a 02 00    	mov    0x22a14,%ebx
    4352:	e8 d9 55 00 00       	call   9930 <fibril_mutex_lock>
    4357:	8b 3d 10 2a 02 00    	mov    0x22a10,%edi
    435d:	85 ff                	test   %edi,%edi
    435f:	0f 84 33 01 00 00    	je     4498 <loc_service_register+0x1b8>
    4365:	c7 04 24 f0 27 02 00 	movl   $0x227f0,(%esp)
    436c:	e8 df 56 00 00       	call   9a50 <fibril_mutex_unlock>
    4371:	a1 14 2a 02 00       	mov    0x22a14,%eax
    4376:	89 04 24             	mov    %eax,(%esp)
    4379:	e8 62 25 01 00       	call   168e0 <async_exchange_begin>
    437e:	c7 44 24 14 00 00 00 	movl   $0x0,0x14(%esp)
    4385:	00 
    4386:	89 c7                	mov    %eax,%edi
    4388:	8d 45 c4             	lea    -0x3c(%ebp),%eax
    438b:	89 44 24 18          	mov    %eax,0x18(%esp)
    438f:	c7 44 24 10 00 00 00 	movl   $0x0,0x10(%esp)
    4396:	00 
    4397:	c7 44 24 0c 00 00 00 	movl   $0x0,0xc(%esp)
    439e:	00 
    439f:	c7 44 24 08 00 00 00 	movl   $0x0,0x8(%esp)
    43a6:	00 
    43a7:	c7 44 24 04 03 04 00 	movl   $0x403,0x4(%esp)
    43ae:	00 
    43af:	89 3c 24             	mov    %edi,(%esp)
    43b2:	e8 c9 0e 01 00       	call   15280 <async_send_fast>
    43b7:	89 34 24             	mov    %esi,(%esp)
    43ba:	89 c3                	mov    %eax,%ebx
    43bc:	e8 4f 23 00 00       	call   6710 <str_size>
    43c1:	89 74 24 04          	mov    %esi,0x4(%esp)
    43c5:	89 44 24 08          	mov    %eax,0x8(%esp)
    43c9:	89 3c 24             	mov    %edi,(%esp)
    43cc:	e8 ff 33 01 00       	call   177d0 <async_data_write_start>
    43d1:	89 3c 24             	mov    %edi,(%esp)
    43d4:	89 45 c0             	mov    %eax,-0x40(%ebp)
    43d7:	e8 74 28 01 00       	call   16c50 <async_exchange_end>
    43dc:	8b 4d c0             	mov    -0x40(%ebp),%ecx
    43df:	85 c9                	test   %ecx,%ecx
    43e1:	0f 85 99 00 00 00    	jne    4480 <loc_service_register+0x1a0>
    43e7:	8d 45 c0             	lea    -0x40(%ebp),%eax
    43ea:	89 1c 24             	mov    %ebx,(%esp)
    43ed:	89 44 24 04          	mov    %eax,0x4(%esp)
    43f1:	e8 5a 10 01 00       	call   15450 <async_wait_for>
    43f6:	8b 45 c0             	mov    -0x40(%ebp),%eax
    43f9:	85 c0                	test   %eax,%eax
    43fb:	74 63                	je     4460 <loc_service_register+0x180>
    43fd:	8b 55 0c             	mov    0xc(%ebp),%edx
    4400:	85 d2                	test   %edx,%edx
    4402:	74 09                	je     440d <loc_service_register+0x12d>
    4404:	8b 55 0c             	mov    0xc(%ebp),%edx
    4407:	c7 02 ff ff ff ff    	movl   $0xffffffff,(%edx)
    440d:	83 c4 5c             	add    $0x5c,%esp
    4410:	5b                   	pop    %ebx
    4411:	5e                   	pop    %esi
    4412:	5f                   	pop    %edi
    4413:	5d                   	pop    %ebp
    4414:	c3                   	ret    
    4415:	8d 76 00             	lea    0x0(%esi),%esi
    4418:	85 db                	test   %ebx,%ebx
    441a:	0f 84 00 ff ff ff    	je     4320 <loc_service_register+0x40>
    4420:	89 1d 14 2a 02 00    	mov    %ebx,0x22a14
    4426:	e9 f5 fe ff ff       	jmp    4320 <loc_service_register+0x40>
    442b:	90                   	nop
    442c:	8d 74 26 00          	lea    0x0(%esi,%eiz,1),%esi
    4430:	c7 44 24 0c 00 00 00 	movl   $0x0,0xc(%esp)
    4437:	00 
    4438:	c7 44 24 08 01 00 00 	movl   $0x1,0x8(%esp)
    443f:	00 
    4440:	c7 44 24 04 6c 6f 63 	movl   $0x20636f6c,0x4(%esp)
    4447:	20 
    4448:	c7 04 24 02 00 00 00 	movl   $0x2,(%esp)
    444f:	e8 dc f7 00 00       	call   13c30 <service_connect_blocking>
    4454:	a3 14 2a 02 00       	mov    %eax,0x22a14
    4459:	e9 9f fe ff ff       	jmp    42fd <loc_service_register+0x1d>
    445e:	66 90                	xchg   %ax,%ax
    4460:	8b 45 0c             	mov    0xc(%ebp),%eax
    4463:	85 c0                	test   %eax,%eax
    4465:	74 08                	je     446f <loc_service_register+0x18f>
    4467:	8b 55 0c             	mov    0xc(%ebp),%edx
    446a:	8b 45 c8             	mov    -0x38(%ebp),%eax
    446d:	89 02                	mov    %eax,(%edx)
    446f:	83 c4 5c             	add    $0x5c,%esp
    4472:	31 c0                	xor    %eax,%eax
    4474:	5b                   	pop    %ebx
    4475:	5e                   	pop    %esi
    4476:	5f                   	pop    %edi
    4477:	5d                   	pop    %ebp
    4478:	c3                   	ret    
    4479:	8d b4 26 00 00 00 00 	lea    0x0(%esi,%eiz,1),%esi
    4480:	89 1c 24             	mov    %ebx,(%esp)
    4483:	e8 18 12 01 00       	call   156a0 <async_forget>
    4488:	8b 45 c0             	mov    -0x40(%ebp),%eax
    448b:	83 c4 5c             	add    $0x5c,%esp
    448e:	5b                   	pop    %ebx
    448f:	5e                   	pop    %esi
    4490:	5f                   	pop    %edi
    4491:	5d                   	pop    %ebp
    4492:	c3                   	ret    
    4493:	90                   	nop
    4494:	8d 74 26 00          	lea    0x0(%esi,%eiz,1),%esi
    4498:	85 db                	test   %ebx,%ebx
    449a:	0f 84 c5 fe ff ff    	je     4365 <loc_service_register+0x85>
    44a0:	89 1d 10 2a 02 00    	mov    %ebx,0x22a10
    44a6:	e9 ba fe ff ff       	jmp    4365 <loc_service_register+0x85>
    44ab:	90                   	nop
    44ac:	8d 74 26 00          	lea    0x0(%esi,%eiz,1),%esi

000044b0 <loc_service_unregister>:
    44b0:	55                   	push   %ebp
    44b1:	89 e5                	mov    %esp,%ebp
    44b3:	53                   	push   %ebx
    44b4:	83 ec 44             	sub    $0x44,%esp
    44b7:	c7 04 24 e0 27 02 00 	movl   $0x227e0,(%esp)
    44be:	e8 6d 54 00 00       	call   9930 <fibril_mutex_lock>
    44c3:	a1 14 2a 02 00       	mov    0x22a14,%eax
    44c8:	85 c0                	test   %eax,%eax
    44ca:	75 38                	jne    4504 <loc_service_unregister+0x54>
    44cc:	c7 04 24 f0 27 02 00 	movl   $0x227f0,(%esp)
    44d3:	8b 1d 10 2a 02 00    	mov    0x22a10,%ebx
    44d9:	e8 52 54 00 00       	call   9930 <fibril_mutex_lock>
    44de:	a1 14 2a 02 00       	mov    0x22a14,%eax
    44e3:	85 c0                	test   %eax,%eax
    44e5:	0f 84 cd 00 00 00    	je     45b8 <loc_service_unregister+0x108>
    44eb:	c7 04 24 f0 27 02 00 	movl   $0x227f0,(%esp)
    44f2:	e8 59 55 00 00       	call   9a50 <fibril_mutex_unlock>
    44f7:	a1 14 2a 02 00       	mov    0x22a14,%eax
    44fc:	85 c0                	test   %eax,%eax
    44fe:	0f 84 cc 00 00 00    	je     45d0 <loc_service_unregister+0x120>
    4504:	c7 04 24 e0 27 02 00 	movl   $0x227e0,(%esp)
    450b:	e8 40 55 00 00       	call   9a50 <fibril_mutex_unlock>
    4510:	c7 04 24 f0 27 02 00 	movl   $0x227f0,(%esp)
    4517:	8b 1d 14 2a 02 00    	mov    0x22a14,%ebx
    451d:	e8 0e 54 00 00       	call   9930 <fibril_mutex_lock>
    4522:	a1 10 2a 02 00       	mov    0x22a10,%eax
    4527:	85 c0                	test   %eax,%eax
    4529:	0f 84 d1 00 00 00    	je     4600 <loc_service_unregister+0x150>
    452f:	c7 04 24 f0 27 02 00 	movl   $0x227f0,(%esp)
    4536:	e8 15 55 00 00       	call   9a50 <fibril_mutex_unlock>
    453b:	a1 14 2a 02 00       	mov    0x22a14,%eax
    4540:	89 04 24             	mov    %eax,(%esp)
    4543:	e8 98 23 01 00       	call   168e0 <async_exchange_begin>
    4548:	c7 44 24 28 00 00 00 	movl   $0x0,0x28(%esp)
    454f:	00 
    4550:	89 c3                	mov    %eax,%ebx
    4552:	8b 45 08             	mov    0x8(%ebp),%eax
    4555:	89 1c 24             	mov    %ebx,(%esp)
    4558:	c7 44 24 24 00 00 00 	movl   $0x0,0x24(%esp)
    455f:	00 
    4560:	c7 44 24 20 00 00 00 	movl   $0x0,0x20(%esp)
    4567:	00 
    4568:	c7 44 24 1c 00 00 00 	movl   $0x0,0x1c(%esp)
    456f:	00 
    4570:	c7 44 24 18 00 00 00 	movl   $0x0,0x18(%esp)
    4577:	00 
    4578:	c7 44 24 14 00 00 00 	movl   $0x0,0x14(%esp)
    457f:	00 
    4580:	c7 44 24 10 00 00 00 	movl   $0x0,0x10(%esp)
    4587:	00 
    4588:	c7 44 24 0c 00 00 00 	movl   $0x0,0xc(%esp)
    458f:	00 
    4590:	89 44 24 08          	mov    %eax,0x8(%esp)
    4594:	c7 44 24 04 04 04 00 	movl   $0x404,0x4(%esp)
    459b:	00 
    459c:	e8 ef 12 01 00       	call   15890 <async_req_fast>
    45a1:	89 1c 24             	mov    %ebx,(%esp)
    45a4:	89 45 f4             	mov    %eax,-0xc(%ebp)
    45a7:	e8 a4 26 01 00       	call   16c50 <async_exchange_end>
    45ac:	8b 45 f4             	mov    -0xc(%ebp),%eax
    45af:	83 c4 44             	add    $0x44,%esp
    45b2:	5b                   	pop    %ebx
    45b3:	5d                   	pop    %ebp
    45b4:	c3                   	ret    
    45b5:	8d 76 00             	lea    0x0(%esi),%esi
    45b8:	85 db                	test   %ebx,%ebx
    45ba:	0f 84 2b ff ff ff    	je     44eb <loc_service_unregister+0x3b>
    45c0:	89 1d 14 2a 02 00    	mov    %ebx,0x22a14
    45c6:	e9 20 ff ff ff       	jmp    44eb <loc_service_unregister+0x3b>
    45cb:	90                   	nop
    45cc:	8d 74 26 00          	lea    0x0(%esi,%eiz,1),%esi
    45d0:	c7 44 24 0c 00 00 00 	movl   $0x0,0xc(%esp)
    45d7:	00 
    45d8:	c7 44 24 08 01 00 00 	movl   $0x1,0x8(%esp)
    45df:	00 
    45e0:	c7 44 24 04 6c 6f 63 	movl   $0x20636f6c,0x4(%esp)
    45e7:	20 
    45e8:	c7 04 24 02 00 00 00 	movl   $0x2,(%esp)
    45ef:	e8 3c f6 00 00       	call   13c30 <service_connect_blocking>
    45f4:	a3 14 2a 02 00       	mov    %eax,0x22a14
    45f9:	e9 ca fe ff ff       	jmp    44c8 <loc_service_unregister+0x18>
    45fe:	66 90                	xchg   %ax,%ax
    4600:	85 db                	test   %ebx,%ebx
    4602:	0f 84 27 ff ff ff    	je     452f <loc_service_unregister+0x7f>
    4608:	89 1d 10 2a 02 00    	mov    %ebx,0x22a10
    460e:	e9 1c ff ff ff       	jmp    452f <loc_service_unregister+0x7f>
    4613:	8d b6 00 00 00 00    	lea    0x0(%esi),%esi
    4619:	8d bc 27 00 00 00 00 	lea    0x0(%edi,%eiz,1),%edi

00004620 <loc_service_get_id>:
    4620:	55                   	push   %ebp
    4621:	89 e5                	mov    %esp,%ebp
    4623:	57                   	push   %edi
    4624:	56                   	push   %esi
    4625:	53                   	push   %ebx
    4626:	83 ec 5c             	sub    $0x5c,%esp
    4629:	8b 75 10             	mov    0x10(%ebp),%esi
    462c:	8b 7d 08             	mov    0x8(%ebp),%edi
    462f:	f7 c6 01 00 00 00    	test   $0x1,%esi
    4635:	0f 84 45 01 00 00    	je     4780 <loc_service_get_id+0x160>
    463b:	c7 04 24 00 28 02 00 	movl   $0x22800,(%esp)
    4642:	e8 e9 52 00 00       	call   9930 <fibril_mutex_lock>
    4647:	a1 1c 2a 02 00       	mov    0x22a1c,%eax
    464c:	85 c0                	test   %eax,%eax
    464e:	75 38                	jne    4688 <loc_service_get_id+0x68>
    4650:	c7 04 24 10 28 02 00 	movl   $0x22810,(%esp)
    4657:	8b 1d 18 2a 02 00    	mov    0x22a18,%ebx
    465d:	e8 ce 52 00 00       	call   9930 <fibril_mutex_lock>
    4662:	a1 1c 2a 02 00       	mov    0x22a1c,%eax
    4667:	85 c0                	test   %eax,%eax
    4669:	0f 84 f9 00 00 00    	je     4768 <loc_service_get_id+0x148>
    466f:	c7 04 24 10 28 02 00 	movl   $0x22810,(%esp)
    4676:	e8 d5 53 00 00       	call   9a50 <fibril_mutex_unlock>
    467b:	a1 1c 2a 02 00       	mov    0x22a1c,%eax
    4680:	85 c0                	test   %eax,%eax
    4682:	0f 84 68 01 00 00    	je     47f0 <loc_service_get_id+0x1d0>
    4688:	c7 04 24 00 28 02 00 	movl   $0x22800,(%esp)
    468f:	e8 bc 53 00 00       	call   9a50 <fibril_mutex_unlock>
    4694:	c7 04 24 10 28 02 00 	movl   $0x22810,(%esp)
    469b:	8b 1d 1c 2a 02 00    	mov    0x22a1c,%ebx
    46a1:	e8 8a 52 00 00       	call   9930 <fibril_mutex_lock>
    46a6:	a1 18 2a 02 00       	mov    0x22a18,%eax
    46ab:	85 c0                	test   %eax,%eax
    46ad:	0f 84 85 01 00 00    	je     4838 <loc_service_get_id+0x218>
    46b3:	c7 04 24 10 28 02 00 	movl   $0x22810,(%esp)
    46ba:	e8 91 53 00 00       	call   9a50 <fibril_mutex_unlock>
    46bf:	a1 1c 2a 02 00       	mov    0x22a1c,%eax
    46c4:	89 04 24             	mov    %eax,(%esp)
    46c7:	e8 14 22 01 00       	call   168e0 <async_exchange_begin>
    46cc:	89 c3                	mov    %eax,%ebx
    46ce:	8d 45 c4             	lea    -0x3c(%ebp),%eax
    46d1:	89 74 24 08          	mov    %esi,0x8(%esp)
    46d5:	89 44 24 18          	mov    %eax,0x18(%esp)
    46d9:	c7 44 24 14 00 00 00 	movl   $0x0,0x14(%esp)
    46e0:	00 
    46e1:	c7 44 24 10 00 00 00 	movl   $0x0,0x10(%esp)
    46e8:	00 
    46e9:	c7 44 24 0c 00 00 00 	movl   $0x0,0xc(%esp)
    46f0:	00 
    46f1:	c7 44 24 04 05 04 00 	movl   $0x405,0x4(%esp)
    46f8:	00 
    46f9:	89 1c 24             	mov    %ebx,(%esp)
    46fc:	e8 7f 0b 01 00       	call   15280 <async_send_fast>
    4701:	89 3c 24             	mov    %edi,(%esp)
    4704:	89 c6                	mov    %eax,%esi
    4706:	e8 05 20 00 00       	call   6710 <str_size>
    470b:	89 7c 24 04          	mov    %edi,0x4(%esp)
    470f:	89 44 24 08          	mov    %eax,0x8(%esp)
    4713:	89 1c 24             	mov    %ebx,(%esp)
    4716:	e8 b5 30 01 00       	call   177d0 <async_data_write_start>
    471b:	89 1c 24             	mov    %ebx,(%esp)
    471e:	89 45 c0             	mov    %eax,-0x40(%ebp)
    4721:	e8 2a 25 01 00       	call   16c50 <async_exchange_end>
    4726:	8b 4d c0             	mov    -0x40(%ebp),%ecx
    4729:	85 c9                	test   %ecx,%ecx
    472b:	0f 85 ef 00 00 00    	jne    4820 <loc_service_get_id+0x200>
    4731:	8d 45 c0             	lea    -0x40(%ebp),%eax
    4734:	89 34 24             	mov    %esi,(%esp)
    4737:	89 44 24 04          	mov    %eax,0x4(%esp)
    473b:	e8 10 0d 01 00       	call   15450 <async_wait_for>
    4740:	8b 45 c0             	mov    -0x40(%ebp),%eax
    4743:	85 c0                	test   %eax,%eax
    4745:	0f 84 85 00 00 00    	je     47d0 <loc_service_get_id+0x1b0>
    474b:	8b 55 0c             	mov    0xc(%ebp),%edx
    474e:	85 d2                	test   %edx,%edx
    4750:	74 09                	je     475b <loc_service_get_id+0x13b>
    4752:	8b 55 0c             	mov    0xc(%ebp),%edx
    4755:	c7 02 ff ff ff ff    	movl   $0xffffffff,(%edx)
    475b:	83 c4 5c             	add    $0x5c,%esp
    475e:	5b                   	pop    %ebx
    475f:	5e                   	pop    %esi
    4760:	5f                   	pop    %edi
    4761:	5d                   	pop    %ebp
    4762:	c3                   	ret    
    4763:	90                   	nop
    4764:	8d 74 26 00          	lea    0x0(%esi,%eiz,1),%esi
    4768:	85 db                	test   %ebx,%ebx
    476a:	0f 84 ff fe ff ff    	je     466f <loc_service_get_id+0x4f>
    4770:	89 1d 1c 2a 02 00    	mov    %ebx,0x22a1c
    4776:	e9 f4 fe ff ff       	jmp    466f <loc_service_get_id+0x4f>
    477b:	90                   	nop
    477c:	8d 74 26 00          	lea    0x0(%esi,%eiz,1),%esi
    4780:	c7 04 24 10 28 02 00 	movl   $0x22810,(%esp)
    4787:	e8 a4 51 00 00       	call   9930 <fibril_mutex_lock>
    478c:	8b 1d 18 2a 02 00    	mov    0x22a18,%ebx
    4792:	85 db                	test   %ebx,%ebx
    4794:	0f 84 b1 00 00 00    	je     484b <loc_service_get_id+0x22b>
    479a:	c7 04 24 10 28 02 00 	movl   $0x22810,(%esp)
    47a1:	e8 aa 52 00 00       	call   9a50 <fibril_mutex_unlock>
    47a6:	a1 18 2a 02 00       	mov    0x22a18,%eax
    47ab:	85 c0                	test   %eax,%eax
    47ad:	74 12                	je     47c1 <loc_service_get_id+0x1a1>
    47af:	89 04 24             	mov    %eax,(%esp)
    47b2:	e8 29 21 01 00       	call   168e0 <async_exchange_begin>
    47b7:	89 c3                	mov    %eax,%ebx
    47b9:	85 c0                	test   %eax,%eax
    47bb:	0f 85 0d ff ff ff    	jne    46ce <loc_service_get_id+0xae>
    47c1:	e8 ba 98 01 00       	call   1e080 <__errno>
    47c6:	8b 00                	mov    (%eax),%eax
    47c8:	eb 91                	jmp    475b <loc_service_get_id+0x13b>
    47ca:	8d b6 00 00 00 00    	lea    0x0(%esi),%esi
    47d0:	8b 45 0c             	mov    0xc(%ebp),%eax
    47d3:	85 c0                	test   %eax,%eax
    47d5:	74 08                	je     47df <loc_service_get_id+0x1bf>
    47d7:	8b 55 0c             	mov    0xc(%ebp),%edx
    47da:	8b 45 c8             	mov    -0x38(%ebp),%eax
    47dd:	89 02                	mov    %eax,(%edx)
    47df:	83 c4 5c             	add    $0x5c,%esp
    47e2:	31 c0                	xor    %eax,%eax
    47e4:	5b                   	pop    %ebx
    47e5:	5e                   	pop    %esi
    47e6:	5f                   	pop    %edi
    47e7:	5d                   	pop    %ebp
    47e8:	c3                   	ret    
    47e9:	8d b4 26 00 00 00 00 	lea    0x0(%esi,%eiz,1),%esi
    47f0:	c7 44 24 0c 00 00 00 	movl   $0x0,0xc(%esp)
    47f7:	00 
    47f8:	c7 44 24 08 02 00 00 	movl   $0x2,0x8(%esp)
    47ff:	00 
    4800:	c7 44 24 04 6c 6f 63 	movl   $0x20636f6c,0x4(%esp)
    4807:	20 
    4808:	c7 04 24 02 00 00 00 	movl   $0x2,(%esp)
    480f:	e8 1c f4 00 00       	call   13c30 <service_connect_blocking>
    4814:	a3 1c 2a 02 00       	mov    %eax,0x22a1c
    4819:	e9 2e fe ff ff       	jmp    464c <loc_service_get_id+0x2c>
    481e:	66 90                	xchg   %ax,%ax
    4820:	89 34 24             	mov    %esi,(%esp)
    4823:	e8 78 0e 01 00       	call   156a0 <async_forget>
    4828:	8b 45 c0             	mov    -0x40(%ebp),%eax
    482b:	83 c4 5c             	add    $0x5c,%esp
    482e:	5b                   	pop    %ebx
    482f:	5e                   	pop    %esi
    4830:	5f                   	pop    %edi
    4831:	5d                   	pop    %ebp
    4832:	c3                   	ret    
    4833:	90                   	nop
    4834:	8d 74 26 00          	lea    0x0(%esi,%eiz,1),%esi
    4838:	85 db                	test   %ebx,%ebx
    483a:	0f 84 73 fe ff ff    	je     46b3 <loc_service_get_id+0x93>
    4840:	89 1d 18 2a 02 00    	mov    %ebx,0x22a18
    4846:	e9 68 fe ff ff       	jmp    46b3 <loc_service_get_id+0x93>
    484b:	c7 44 24 0c 00 00 00 	movl   $0x0,0xc(%esp)
    4852:	00 
    4853:	c7 44 24 08 02 00 00 	movl   $0x2,0x8(%esp)
    485a:	00 
    485b:	c7 44 24 04 6c 6f 63 	movl   $0x20636f6c,0x4(%esp)
    4862:	20 
    4863:	c7 04 24 02 00 00 00 	movl   $0x2,(%esp)
    486a:	e8 41 f3 00 00       	call   13bb0 <service_connect>
    486f:	a3 18 2a 02 00       	mov    %eax,0x22a18
    4874:	e9 21 ff ff ff       	jmp    479a <loc_service_get_id+0x17a>
    4879:	8d b4 26 00 00 00 00 	lea    0x0(%esi,%eiz,1),%esi

00004880 <loc_category_get_name>:
    4880:	55                   	push   %ebp
    4881:	b8 0b 04 00 00       	mov    $0x40b,%eax
    4886:	89 e5                	mov    %esp,%ebp
    4888:	8b 4d 0c             	mov    0xc(%ebp),%ecx
    488b:	8b 55 08             	mov    0x8(%ebp),%edx
    488e:	5d                   	pop    %ebp
    488f:	e9 6c ed ff ff       	jmp    3600 <loc_get_name_internal>
    4894:	8d b6 00 00 00 00    	lea    0x0(%esi),%esi
    489a:	8d bf 00 00 00 00    	lea    0x0(%edi),%edi

000048a0 <loc_service_get_name>:
    48a0:	55                   	push   %ebp
    48a1:	b8 06 04 00 00       	mov    $0x406,%eax
    48a6:	89 e5                	mov    %esp,%ebp
    48a8:	8b 4d 0c             	mov    0xc(%ebp),%ecx
    48ab:	8b 55 08             	mov    0x8(%ebp),%edx
    48ae:	5d                   	pop    %ebp
    48af:	e9 4c ed ff ff       	jmp    3600 <loc_get_name_internal>
    48b4:	8d b6 00 00 00 00    	lea    0x0(%esi),%esi
    48ba:	8d bf 00 00 00 00    	lea    0x0(%edi),%edi

000048c0 <loc_service_get_server_name>:
    48c0:	55                   	push   %ebp
    48c1:	b8 07 04 00 00       	mov    $0x407,%eax
    48c6:	89 e5                	mov    %esp,%ebp
    48c8:	8b 4d 0c             	mov    0xc(%ebp),%ecx
    48cb:	8b 55 08             	mov    0x8(%ebp),%edx
    48ce:	5d                   	pop    %ebp
    48cf:	e9 2c ed ff ff       	jmp    3600 <loc_get_name_internal>
    48d4:	8d b6 00 00 00 00    	lea    0x0(%esi),%esi
    48da:	8d bf 00 00 00 00    	lea    0x0(%edi),%edi

000048e0 <loc_namespace_get_id>:
    48e0:	55                   	push   %ebp
    48e1:	89 e5                	mov    %esp,%ebp
    48e3:	57                   	push   %edi
    48e4:	56                   	push   %esi
    48e5:	53                   	push   %ebx
    48e6:	83 ec 5c             	sub    $0x5c,%esp
    48e9:	8b 75 10             	mov    0x10(%ebp),%esi
    48ec:	8b 7d 08             	mov    0x8(%ebp),%edi
    48ef:	f7 c6 01 00 00 00    	test   $0x1,%esi
    48f5:	0f 84 45 01 00 00    	je     4a40 <loc_namespace_get_id+0x160>
    48fb:	c7 04 24 00 28 02 00 	movl   $0x22800,(%esp)
    4902:	e8 29 50 00 00       	call   9930 <fibril_mutex_lock>
    4907:	a1 1c 2a 02 00       	mov    0x22a1c,%eax
    490c:	85 c0                	test   %eax,%eax
    490e:	75 38                	jne    4948 <loc_namespace_get_id+0x68>
    4910:	c7 04 24 10 28 02 00 	movl   $0x22810,(%esp)
    4917:	8b 1d 18 2a 02 00    	mov    0x22a18,%ebx
    491d:	e8 0e 50 00 00       	call   9930 <fibril_mutex_lock>
    4922:	a1 1c 2a 02 00       	mov    0x22a1c,%eax
    4927:	85 c0                	test   %eax,%eax
    4929:	0f 84 f9 00 00 00    	je     4a28 <loc_namespace_get_id+0x148>
    492f:	c7 04 24 10 28 02 00 	movl   $0x22810,(%esp)
    4936:	e8 15 51 00 00       	call   9a50 <fibril_mutex_unlock>
    493b:	a1 1c 2a 02 00       	mov    0x22a1c,%eax
    4940:	85 c0                	test   %eax,%eax
    4942:	0f 84 68 01 00 00    	je     4ab0 <loc_namespace_get_id+0x1d0>
    4948:	c7 04 24 00 28 02 00 	movl   $0x22800,(%esp)
    494f:	e8 fc 50 00 00       	call   9a50 <fibril_mutex_unlock>
    4954:	c7 04 24 10 28 02 00 	movl   $0x22810,(%esp)
    495b:	8b 1d 1c 2a 02 00    	mov    0x22a1c,%ebx
    4961:	e8 ca 4f 00 00       	call   9930 <fibril_mutex_lock>
    4966:	a1 18 2a 02 00       	mov    0x22a18,%eax
    496b:	85 c0                	test   %eax,%eax
    496d:	0f 84 85 01 00 00    	je     4af8 <loc_namespace_get_id+0x218>
    4973:	c7 04 24 10 28 02 00 	movl   $0x22810,(%esp)
    497a:	e8 d1 50 00 00       	call   9a50 <fibril_mutex_unlock>
    497f:	a1 1c 2a 02 00       	mov    0x22a1c,%eax
    4984:	89 04 24             	mov    %eax,(%esp)
    4987:	e8 54 1f 01 00       	call   168e0 <async_exchange_begin>
    498c:	89 c3                	mov    %eax,%ebx
    498e:	8d 45 c4             	lea    -0x3c(%ebp),%eax
    4991:	89 74 24 08          	mov    %esi,0x8(%esp)
    4995:	89 44 24 18          	mov    %eax,0x18(%esp)
    4999:	c7 44 24 14 00 00 00 	movl   $0x0,0x14(%esp)
    49a0:	00 
    49a1:	c7 44 24 10 00 00 00 	movl   $0x0,0x10(%esp)
    49a8:	00 
    49a9:	c7 44 24 0c 00 00 00 	movl   $0x0,0xc(%esp)
    49b0:	00 
    49b1:	c7 44 24 04 08 04 00 	movl   $0x408,0x4(%esp)
    49b8:	00 
    49b9:	89 1c 24             	mov    %ebx,(%esp)
    49bc:	e8 bf 08 01 00       	call   15280 <async_send_fast>
    49c1:	89 3c 24             	mov    %edi,(%esp)
    49c4:	89 c6                	mov    %eax,%esi
    49c6:	e8 45 1d 00 00       	call   6710 <str_size>
    49cb:	89 7c 24 04          	mov    %edi,0x4(%esp)
    49cf:	89 44 24 08          	mov    %eax,0x8(%esp)
    49d3:	89 1c 24             	mov    %ebx,(%esp)
    49d6:	e8 f5 2d 01 00       	call   177d0 <async_data_write_start>
    49db:	89 1c 24             	mov    %ebx,(%esp)
    49de:	89 45 c0             	mov    %eax,-0x40(%ebp)
    49e1:	e8 6a 22 01 00       	call   16c50 <async_exchange_end>
    49e6:	8b 4d c0             	mov    -0x40(%ebp),%ecx
    49e9:	85 c9                	test   %ecx,%ecx
    49eb:	0f 85 ef 00 00 00    	jne    4ae0 <loc_namespace_get_id+0x200>
    49f1:	8d 45 c0             	lea    -0x40(%ebp),%eax
    49f4:	89 34 24             	mov    %esi,(%esp)
    49f7:	89 44 24 04          	mov    %eax,0x4(%esp)
    49fb:	e8 50 0a 01 00       	call   15450 <async_wait_for>
    4a00:	8b 45 c0             	mov    -0x40(%ebp),%eax
    4a03:	85 c0                	test   %eax,%eax
    4a05:	0f 84 85 00 00 00    	je     4a90 <loc_namespace_get_id+0x1b0>
    4a0b:	8b 55 0c             	mov    0xc(%ebp),%edx
    4a0e:	85 d2                	test   %edx,%edx
    4a10:	74 09                	je     4a1b <loc_namespace_get_id+0x13b>
    4a12:	8b 55 0c             	mov    0xc(%ebp),%edx
    4a15:	c7 02 ff ff ff ff    	movl   $0xffffffff,(%edx)
    4a1b:	83 c4 5c             	add    $0x5c,%esp
    4a1e:	5b                   	pop    %ebx
    4a1f:	5e                   	pop    %esi
    4a20:	5f                   	pop    %edi
    4a21:	5d                   	pop    %ebp
    4a22:	c3                   	ret    
    4a23:	90                   	nop
    4a24:	8d 74 26 00          	lea    0x0(%esi,%eiz,1),%esi
    4a28:	85 db                	test   %ebx,%ebx
    4a2a:	0f 84 ff fe ff ff    	je     492f <loc_namespace_get_id+0x4f>
    4a30:	89 1d 1c 2a 02 00    	mov    %ebx,0x22a1c
    4a36:	e9 f4 fe ff ff       	jmp    492f <loc_namespace_get_id+0x4f>
    4a3b:	90                   	nop
    4a3c:	8d 74 26 00          	lea    0x0(%esi,%eiz,1),%esi
    4a40:	c7 04 24 10 28 02 00 	movl   $0x22810,(%esp)
    4a47:	e8 e4 4e 00 00       	call   9930 <fibril_mutex_lock>
    4a4c:	8b 1d 18 2a 02 00    	mov    0x22a18,%ebx
    4a52:	85 db                	test   %ebx,%ebx
    4a54:	0f 84 b1 00 00 00    	je     4b0b <loc_namespace_get_id+0x22b>
    4a5a:	c7 04 24 10 28 02 00 	movl   $0x22810,(%esp)
    4a61:	e8 ea 4f 00 00       	call   9a50 <fibril_mutex_unlock>
    4a66:	a1 18 2a 02 00       	mov    0x22a18,%eax
    4a6b:	85 c0                	test   %eax,%eax
    4a6d:	74 12                	je     4a81 <loc_namespace_get_id+0x1a1>
    4a6f:	89 04 24             	mov    %eax,(%esp)
    4a72:	e8 69 1e 01 00       	call   168e0 <async_exchange_begin>
    4a77:	89 c3                	mov    %eax,%ebx
    4a79:	85 c0                	test   %eax,%eax
    4a7b:	0f 85 0d ff ff ff    	jne    498e <loc_namespace_get_id+0xae>
    4a81:	e8 fa 95 01 00       	call   1e080 <__errno>
    4a86:	8b 00                	mov    (%eax),%eax
    4a88:	eb 91                	jmp    4a1b <loc_namespace_get_id+0x13b>
    4a8a:	8d b6 00 00 00 00    	lea    0x0(%esi),%esi
    4a90:	8b 45 0c             	mov    0xc(%ebp),%eax
    4a93:	85 c0                	test   %eax,%eax
    4a95:	74 08                	je     4a9f <loc_namespace_get_id+0x1bf>
    4a97:	8b 55 0c             	mov    0xc(%ebp),%edx
    4a9a:	8b 45 c8             	mov    -0x38(%ebp),%eax
    4a9d:	89 02                	mov    %eax,(%edx)
    4a9f:	83 c4 5c             	add    $0x5c,%esp
    4aa2:	31 c0                	xor    %eax,%eax
    4aa4:	5b                   	pop    %ebx
    4aa5:	5e                   	pop    %esi
    4aa6:	5f                   	pop    %edi
    4aa7:	5d                   	pop    %ebp
    4aa8:	c3                   	ret    
    4aa9:	8d b4 26 00 00 00 00 	lea    0x0(%esi,%eiz,1),%esi
    4ab0:	c7 44 24 0c 00 00 00 	movl   $0x0,0xc(%esp)
    4ab7:	00 
    4ab8:	c7 44 24 08 02 00 00 	movl   $0x2,0x8(%esp)
    4abf:	00 
    4ac0:	c7 44 24 04 6c 6f 63 	movl   $0x20636f6c,0x4(%esp)
    4ac7:	20 
    4ac8:	c7 04 24 02 00 00 00 	movl   $0x2,(%esp)
    4acf:	e8 5c f1 00 00       	call   13c30 <service_connect_blocking>
    4ad4:	a3 1c 2a 02 00       	mov    %eax,0x22a1c
    4ad9:	e9 2e fe ff ff       	jmp    490c <loc_namespace_get_id+0x2c>
    4ade:	66 90                	xchg   %ax,%ax
    4ae0:	89 34 24             	mov    %esi,(%esp)
    4ae3:	e8 b8 0b 01 00       	call   156a0 <async_forget>
    4ae8:	8b 45 c0             	mov    -0x40(%ebp),%eax
    4aeb:	83 c4 5c             	add    $0x5c,%esp
    4aee:	5b                   	pop    %ebx
    4aef:	5e                   	pop    %esi
    4af0:	5f                   	pop    %edi
    4af1:	5d                   	pop    %ebp
    4af2:	c3                   	ret    
    4af3:	90                   	nop
    4af4:	8d 74 26 00          	lea    0x0(%esi,%eiz,1),%esi
    4af8:	85 db                	test   %ebx,%ebx
    4afa:	0f 84 73 fe ff ff    	je     4973 <loc_namespace_get_id+0x93>
    4b00:	89 1d 18 2a 02 00    	mov    %ebx,0x22a18
    4b06:	e9 68 fe ff ff       	jmp    4973 <loc_namespace_get_id+0x93>
    4b0b:	c7 44 24 0c 00 00 00 	movl   $0x0,0xc(%esp)
    4b12:	00 
    4b13:	c7 44 24 08 02 00 00 	movl   $0x2,0x8(%esp)
    4b1a:	00 
    4b1b:	c7 44 24 04 6c 6f 63 	movl   $0x20636f6c,0x4(%esp)
    4b22:	20 
    4b23:	c7 04 24 02 00 00 00 	movl   $0x2,(%esp)
    4b2a:	e8 81 f0 00 00       	call   13bb0 <service_connect>
    4b2f:	a3 18 2a 02 00       	mov    %eax,0x22a18
    4b34:	e9 21 ff ff ff       	jmp    4a5a <loc_namespace_get_id+0x17a>
    4b39:	8d b4 26 00 00 00 00 	lea    0x0(%esi,%eiz,1),%esi

00004b40 <loc_category_get_id>:
    4b40:	55                   	push   %ebp
    4b41:	89 e5                	mov    %esp,%ebp
    4b43:	57                   	push   %edi
    4b44:	56                   	push   %esi
    4b45:	53                   	push   %ebx
    4b46:	83 ec 5c             	sub    $0x5c,%esp
    4b49:	8b 75 08             	mov    0x8(%ebp),%esi
    4b4c:	f6 45 10 01          	testb  $0x1,0x10(%ebp)
    4b50:	0f 84 4a 01 00 00    	je     4ca0 <loc_category_get_id+0x160>
    4b56:	c7 04 24 00 28 02 00 	movl   $0x22800,(%esp)
    4b5d:	e8 ce 4d 00 00       	call   9930 <fibril_mutex_lock>
    4b62:	a1 1c 2a 02 00       	mov    0x22a1c,%eax
    4b67:	85 c0                	test   %eax,%eax
    4b69:	75 38                	jne    4ba3 <loc_category_get_id+0x63>
    4b6b:	c7 04 24 10 28 02 00 	movl   $0x22810,(%esp)
    4b72:	8b 1d 18 2a 02 00    	mov    0x22a18,%ebx
    4b78:	e8 b3 4d 00 00       	call   9930 <fibril_mutex_lock>
    4b7d:	a1 1c 2a 02 00       	mov    0x22a1c,%eax
    4b82:	85 c0                	test   %eax,%eax
    4b84:	0f 84 fe 00 00 00    	je     4c88 <loc_category_get_id+0x148>
    4b8a:	c7 04 24 10 28 02 00 	movl   $0x22810,(%esp)
    4b91:	e8 ba 4e 00 00       	call   9a50 <fibril_mutex_unlock>
    4b96:	a1 1c 2a 02 00       	mov    0x22a1c,%eax
    4b9b:	85 c0                	test   %eax,%eax
    4b9d:	0f 84 6d 01 00 00    	je     4d10 <loc_category_get_id+0x1d0>
    4ba3:	c7 04 24 00 28 02 00 	movl   $0x22800,(%esp)
    4baa:	e8 a1 4e 00 00       	call   9a50 <fibril_mutex_unlock>
    4baf:	c7 04 24 10 28 02 00 	movl   $0x22810,(%esp)
    4bb6:	8b 1d 1c 2a 02 00    	mov    0x22a1c,%ebx
    4bbc:	e8 6f 4d 00 00       	call   9930 <fibril_mutex_lock>
    4bc1:	8b 3d 18 2a 02 00    	mov    0x22a18,%edi
    4bc7:	85 ff                	test   %edi,%edi
    4bc9:	0f 84 89 01 00 00    	je     4d58 <loc_category_get_id+0x218>
    4bcf:	c7 04 24 10 28 02 00 	movl   $0x22810,(%esp)
    4bd6:	e8 75 4e 00 00       	call   9a50 <fibril_mutex_unlock>
    4bdb:	a1 1c 2a 02 00       	mov    0x22a1c,%eax
    4be0:	89 04 24             	mov    %eax,(%esp)
    4be3:	e8 f8 1c 01 00       	call   168e0 <async_exchange_begin>
    4be8:	89 c3                	mov    %eax,%ebx
    4bea:	8d 45 c4             	lea    -0x3c(%ebp),%eax
    4bed:	c7 44 24 14 00 00 00 	movl   $0x0,0x14(%esp)
    4bf4:	00 
    4bf5:	89 44 24 18          	mov    %eax,0x18(%esp)
    4bf9:	c7 44 24 10 00 00 00 	movl   $0x0,0x10(%esp)
    4c00:	00 
    4c01:	c7 44 24 0c 00 00 00 	movl   $0x0,0xc(%esp)
    4c08:	00 
    4c09:	c7 44 24 08 00 00 00 	movl   $0x0,0x8(%esp)
    4c10:	00 
    4c11:	c7 44 24 04 0a 04 00 	movl   $0x40a,0x4(%esp)
    4c18:	00 
    4c19:	89 1c 24             	mov    %ebx,(%esp)
    4c1c:	e8 5f 06 01 00       	call   15280 <async_send_fast>
    4c21:	89 34 24             	mov    %esi,(%esp)
    4c24:	89 c7                	mov    %eax,%edi
    4c26:	e8 e5 1a 00 00       	call   6710 <str_size>
    4c2b:	89 74 24 04          	mov    %esi,0x4(%esp)
    4c2f:	89 44 24 08          	mov    %eax,0x8(%esp)
    4c33:	89 1c 24             	mov    %ebx,(%esp)
    4c36:	e8 95 2b 01 00       	call   177d0 <async_data_write_start>
    4c3b:	89 1c 24             	mov    %ebx,(%esp)
    4c3e:	89 45 c0             	mov    %eax,-0x40(%ebp)
    4c41:	e8 0a 20 01 00       	call   16c50 <async_exchange_end>
    4c46:	8b 4d c0             	mov    -0x40(%ebp),%ecx
    4c49:	85 c9                	test   %ecx,%ecx
    4c4b:	0f 85 ef 00 00 00    	jne    4d40 <loc_category_get_id+0x200>
    4c51:	8d 45 c0             	lea    -0x40(%ebp),%eax
    4c54:	89 3c 24             	mov    %edi,(%esp)
    4c57:	89 44 24 04          	mov    %eax,0x4(%esp)
    4c5b:	e8 f0 07 01 00       	call   15450 <async_wait_for>
    4c60:	8b 45 c0             	mov    -0x40(%ebp),%eax
    4c63:	85 c0                	test   %eax,%eax
    4c65:	0f 84 85 00 00 00    	je     4cf0 <loc_category_get_id+0x1b0>
    4c6b:	8b 55 0c             	mov    0xc(%ebp),%edx
    4c6e:	85 d2                	test   %edx,%edx
    4c70:	74 09                	je     4c7b <loc_category_get_id+0x13b>
    4c72:	8b 55 0c             	mov    0xc(%ebp),%edx
    4c75:	c7 02 ff ff ff ff    	movl   $0xffffffff,(%edx)
    4c7b:	83 c4 5c             	add    $0x5c,%esp
    4c7e:	5b                   	pop    %ebx
    4c7f:	5e                   	pop    %esi
    4c80:	5f                   	pop    %edi
    4c81:	5d                   	pop    %ebp
    4c82:	c3                   	ret    
    4c83:	90                   	nop
    4c84:	8d 74 26 00          	lea    0x0(%esi,%eiz,1),%esi
    4c88:	85 db                	test   %ebx,%ebx
    4c8a:	0f 84 fa fe ff ff    	je     4b8a <loc_category_get_id+0x4a>
    4c90:	89 1d 1c 2a 02 00    	mov    %ebx,0x22a1c
    4c96:	e9 ef fe ff ff       	jmp    4b8a <loc_category_get_id+0x4a>
    4c9b:	90                   	nop
    4c9c:	8d 74 26 00          	lea    0x0(%esi,%eiz,1),%esi
    4ca0:	c7 04 24 10 28 02 00 	movl   $0x22810,(%esp)
    4ca7:	e8 84 4c 00 00       	call   9930 <fibril_mutex_lock>
    4cac:	8b 1d 18 2a 02 00    	mov    0x22a18,%ebx
    4cb2:	85 db                	test   %ebx,%ebx
    4cb4:	0f 84 b1 00 00 00    	je     4d6b <loc_category_get_id+0x22b>
    4cba:	c7 04 24 10 28 02 00 	movl   $0x22810,(%esp)
    4cc1:	e8 8a 4d 00 00       	call   9a50 <fibril_mutex_unlock>
    4cc6:	a1 18 2a 02 00       	mov    0x22a18,%eax
    4ccb:	85 c0                	test   %eax,%eax
    4ccd:	74 12                	je     4ce1 <loc_category_get_id+0x1a1>
    4ccf:	89 04 24             	mov    %eax,(%esp)
    4cd2:	e8 09 1c 01 00       	call   168e0 <async_exchange_begin>
    4cd7:	89 c3                	mov    %eax,%ebx
    4cd9:	85 c0                	test   %eax,%eax
    4cdb:	0f 85 09 ff ff ff    	jne    4bea <loc_category_get_id+0xaa>
    4ce1:	e8 9a 93 01 00       	call   1e080 <__errno>
    4ce6:	8b 00                	mov    (%eax),%eax
    4ce8:	eb 91                	jmp    4c7b <loc_category_get_id+0x13b>
    4cea:	8d b6 00 00 00 00    	lea    0x0(%esi),%esi
    4cf0:	8b 45 0c             	mov    0xc(%ebp),%eax
    4cf3:	85 c0                	test   %eax,%eax
    4cf5:	74 08                	je     4cff <loc_category_get_id+0x1bf>
    4cf7:	8b 55 0c             	mov    0xc(%ebp),%edx
    4cfa:	8b 45 c8             	mov    -0x38(%ebp),%eax
    4cfd:	89 02                	mov    %eax,(%edx)
    4cff:	83 c4 5c             	add    $0x5c,%esp
    4d02:	31 c0                	xor    %eax,%eax
    4d04:	5b                   	pop    %ebx
    4d05:	5e                   	pop    %esi
    4d06:	5f                   	pop    %edi
    4d07:	5d                   	pop    %ebp
    4d08:	c3                   	ret    
    4d09:	8d b4 26 00 00 00 00 	lea    0x0(%esi,%eiz,1),%esi
    4d10:	c7 44 24 0c 00 00 00 	movl   $0x0,0xc(%esp)
    4d17:	00 
    4d18:	c7 44 24 08 02 00 00 	movl   $0x2,0x8(%esp)
    4d1f:	00 
    4d20:	c7 44 24 04 6c 6f 63 	movl   $0x20636f6c,0x4(%esp)
    4d27:	20 
    4d28:	c7 04 24 02 00 00 00 	movl   $0x2,(%esp)
    4d2f:	e8 fc ee 00 00       	call   13c30 <service_connect_blocking>
    4d34:	a3 1c 2a 02 00       	mov    %eax,0x22a1c
    4d39:	e9 29 fe ff ff       	jmp    4b67 <loc_category_get_id+0x27>
    4d3e:	66 90                	xchg   %ax,%ax
    4d40:	89 3c 24             	mov    %edi,(%esp)
    4d43:	e8 58 09 01 00       	call   156a0 <async_forget>
    4d48:	8b 45 c0             	mov    -0x40(%ebp),%eax
    4d4b:	83 c4 5c             	add    $0x5c,%esp
    4d4e:	5b                   	pop    %ebx
    4d4f:	5e                   	pop    %esi
    4d50:	5f                   	pop    %edi
    4d51:	5d                   	pop    %ebp
    4d52:	c3                   	ret    
    4d53:	90                   	nop
    4d54:	8d 74 26 00          	lea    0x0(%esi,%eiz,1),%esi
    4d58:	85 db                	test   %ebx,%ebx
    4d5a:	0f 84 6f fe ff ff    	je     4bcf <loc_category_get_id+0x8f>
    4d60:	89 1d 18 2a 02 00    	mov    %ebx,0x22a18
    4d66:	e9 64 fe ff ff       	jmp    4bcf <loc_category_get_id+0x8f>
    4d6b:	c7 44 24 0c 00 00 00 	movl   $0x0,0xc(%esp)
    4d72:	00 
    4d73:	c7 44 24 08 02 00 00 	movl   $0x2,0x8(%esp)
    4d7a:	00 
    4d7b:	c7 44 24 04 6c 6f 63 	movl   $0x20636f6c,0x4(%esp)
    4d82:	20 
    4d83:	c7 04 24 02 00 00 00 	movl   $0x2,(%esp)
    4d8a:	e8 21 ee 00 00       	call   13bb0 <service_connect>
    4d8f:	a3 18 2a 02 00       	mov    %eax,0x22a18
    4d94:	e9 21 ff ff ff       	jmp    4cba <loc_category_get_id+0x17a>
    4d99:	8d b4 26 00 00 00 00 	lea    0x0(%esi,%eiz,1),%esi

00004da0 <loc_id_probe>:
    4da0:	55                   	push   %ebp
    4da1:	89 e5                	mov    %esp,%ebp
    4da3:	56                   	push   %esi
    4da4:	53                   	push   %ebx
    4da5:	83 ec 40             	sub    $0x40,%esp
    4da8:	c7 04 24 00 28 02 00 	movl   $0x22800,(%esp)
    4daf:	e8 7c 4b 00 00       	call   9930 <fibril_mutex_lock>
    4db4:	a1 1c 2a 02 00       	mov    0x22a1c,%eax
    4db9:	85 c0                	test   %eax,%eax
    4dbb:	75 38                	jne    4df5 <loc_id_probe+0x55>
    4dbd:	c7 04 24 10 28 02 00 	movl   $0x22810,(%esp)
    4dc4:	8b 1d 18 2a 02 00    	mov    0x22a18,%ebx
    4dca:	e8 61 4b 00 00       	call   9930 <fibril_mutex_lock>
    4dcf:	a1 1c 2a 02 00       	mov    0x22a1c,%eax
    4dd4:	85 c0                	test   %eax,%eax
    4dd6:	0f 84 d4 00 00 00    	je     4eb0 <loc_id_probe+0x110>
    4ddc:	c7 04 24 10 28 02 00 	movl   $0x22810,(%esp)
    4de3:	e8 68 4c 00 00       	call   9a50 <fibril_mutex_unlock>
    4de8:	a1 1c 2a 02 00       	mov    0x22a1c,%eax
    4ded:	85 c0                	test   %eax,%eax
    4def:	0f 84 d3 00 00 00    	je     4ec8 <loc_id_probe+0x128>
    4df5:	c7 04 24 00 28 02 00 	movl   $0x22800,(%esp)
    4dfc:	e8 4f 4c 00 00       	call   9a50 <fibril_mutex_unlock>
    4e01:	c7 04 24 10 28 02 00 	movl   $0x22810,(%esp)
    4e08:	8b 1d 1c 2a 02 00    	mov    0x22a1c,%ebx
    4e0e:	e8 1d 4b 00 00       	call   9930 <fibril_mutex_lock>
    4e13:	a1 18 2a 02 00       	mov    0x22a18,%eax
    4e18:	85 c0                	test   %eax,%eax
    4e1a:	0f 84 d8 00 00 00    	je     4ef8 <loc_id_probe+0x158>
    4e20:	c7 04 24 10 28 02 00 	movl   $0x22810,(%esp)
    4e27:	e8 24 4c 00 00       	call   9a50 <fibril_mutex_unlock>
    4e2c:	a1 1c 2a 02 00       	mov    0x22a1c,%eax
    4e31:	89 04 24             	mov    %eax,(%esp)
    4e34:	e8 a7 1a 01 00       	call   168e0 <async_exchange_begin>
    4e39:	c7 44 24 28 00 00 00 	movl   $0x0,0x28(%esp)
    4e40:	00 
    4e41:	89 c3                	mov    %eax,%ebx
    4e43:	8d 45 f4             	lea    -0xc(%ebp),%eax
    4e46:	89 44 24 18          	mov    %eax,0x18(%esp)
    4e4a:	8b 45 08             	mov    0x8(%ebp),%eax
    4e4d:	c7 44 24 24 00 00 00 	movl   $0x0,0x24(%esp)
    4e54:	00 
    4e55:	c7 44 24 20 00 00 00 	movl   $0x0,0x20(%esp)
    4e5c:	00 
    4e5d:	c7 44 24 1c 00 00 00 	movl   $0x0,0x1c(%esp)
    4e64:	00 
    4e65:	c7 44 24 14 00 00 00 	movl   $0x0,0x14(%esp)
    4e6c:	00 
    4e6d:	c7 44 24 10 00 00 00 	movl   $0x0,0x10(%esp)
    4e74:	00 
    4e75:	c7 44 24 0c 00 00 00 	movl   $0x0,0xc(%esp)
    4e7c:	00 
    4e7d:	89 44 24 08          	mov    %eax,0x8(%esp)
    4e81:	c7 44 24 04 0d 04 00 	movl   $0x40d,0x4(%esp)
    4e88:	00 
    4e89:	89 1c 24             	mov    %ebx,(%esp)
    4e8c:	e8 ff 09 01 00       	call   15890 <async_req_fast>
    4e91:	89 1c 24             	mov    %ebx,(%esp)
    4e94:	89 c6                	mov    %eax,%esi
    4e96:	e8 b5 1d 01 00       	call   16c50 <async_exchange_end>
    4e9b:	31 c0                	xor    %eax,%eax
    4e9d:	85 f6                	test   %esi,%esi
    4e9f:	75 03                	jne    4ea4 <loc_id_probe+0x104>
    4ea1:	8b 45 f4             	mov    -0xc(%ebp),%eax
    4ea4:	83 c4 40             	add    $0x40,%esp
    4ea7:	5b                   	pop    %ebx
    4ea8:	5e                   	pop    %esi
    4ea9:	5d                   	pop    %ebp
    4eaa:	c3                   	ret    
    4eab:	90                   	nop
    4eac:	8d 74 26 00          	lea    0x0(%esi,%eiz,1),%esi
    4eb0:	85 db                	test   %ebx,%ebx
    4eb2:	0f 84 24 ff ff ff    	je     4ddc <loc_id_probe+0x3c>
    4eb8:	89 1d 1c 2a 02 00    	mov    %ebx,0x22a1c
    4ebe:	e9 19 ff ff ff       	jmp    4ddc <loc_id_probe+0x3c>
    4ec3:	90                   	nop
    4ec4:	8d 74 26 00          	lea    0x0(%esi,%eiz,1),%esi
    4ec8:	c7 44 24 0c 00 00 00 	movl   $0x0,0xc(%esp)
    4ecf:	00 
    4ed0:	c7 44 24 08 02 00 00 	movl   $0x2,0x8(%esp)
    4ed7:	00 
    4ed8:	c7 44 24 04 6c 6f 63 	movl   $0x20636f6c,0x4(%esp)
    4edf:	20 
    4ee0:	c7 04 24 02 00 00 00 	movl   $0x2,(%esp)
    4ee7:	e8 44 ed 00 00       	call   13c30 <service_connect_blocking>
    4eec:	a3 1c 2a 02 00       	mov    %eax,0x22a1c
    4ef1:	e9 c3 fe ff ff       	jmp    4db9 <loc_id_probe+0x19>
    4ef6:	66 90                	xchg   %ax,%ax
    4ef8:	85 db                	test   %ebx,%ebx
    4efa:	0f 84 20 ff ff ff    	je     4e20 <loc_id_probe+0x80>
    4f00:	89 1d 18 2a 02 00    	mov    %ebx,0x22a18
    4f06:	e9 15 ff ff ff       	jmp    4e20 <loc_id_probe+0x80>
    4f0b:	90                   	nop
    4f0c:	8d 74 26 00          	lea    0x0(%esi,%eiz,1),%esi

00004f10 <loc_service_connect>:
    4f10:	55                   	push   %ebp
    4f11:	89 e5                	mov    %esp,%ebp
    4f13:	83 ec 18             	sub    $0x18,%esp
    4f16:	8b 45 08             	mov    0x8(%ebp),%eax
    4f19:	8b 55 0c             	mov    0xc(%ebp),%edx
    4f1c:	f6 45 10 01          	testb  $0x1,0x10(%ebp)
    4f20:	89 54 24 0c          	mov    %edx,0xc(%esp)
    4f24:	c7 44 24 08 03 00 00 	movl   $0x3,0x8(%esp)
    4f2b:	00 
    4f2c:	c7 44 24 04 6c 6f 63 	movl   $0x20636f6c,0x4(%esp)
    4f33:	20 
    4f34:	89 04 24             	mov    %eax,(%esp)
    4f37:	75 07                	jne    4f40 <loc_service_connect+0x30>
    4f39:	e8 72 ec 00 00       	call   13bb0 <service_connect>
    4f3e:	c9                   	leave  
    4f3f:	c3                   	ret    
    4f40:	e8 eb ec 00 00       	call   13c30 <service_connect_blocking>
    4f45:	c9                   	leave  
    4f46:	c3                   	ret    
    4f47:	89 f6                	mov    %esi,%esi
    4f49:	8d bc 27 00 00 00 00 	lea    0x0(%edi,%eiz,1),%edi

00004f50 <loc_null_create>:
    4f50:	55                   	push   %ebp
    4f51:	89 e5                	mov    %esp,%ebp
    4f53:	56                   	push   %esi
    4f54:	53                   	push   %ebx
    4f55:	83 ec 40             	sub    $0x40,%esp
    4f58:	c7 04 24 00 28 02 00 	movl   $0x22800,(%esp)
    4f5f:	e8 cc 49 00 00       	call   9930 <fibril_mutex_lock>
    4f64:	a1 1c 2a 02 00       	mov    0x22a1c,%eax
    4f69:	85 c0                	test   %eax,%eax
    4f6b:	75 3a                	jne    4fa7 <loc_null_create+0x57>
    4f6d:	c7 04 24 10 28 02 00 	movl   $0x22810,(%esp)
    4f74:	8b 1d 18 2a 02 00    	mov    0x22a18,%ebx
    4f7a:	e8 b1 49 00 00       	call   9930 <fibril_mutex_lock>
    4f7f:	8b 0d 1c 2a 02 00    	mov    0x22a1c,%ecx
    4f85:	85 c9                	test   %ecx,%ecx
    4f87:	0f 84 d3 00 00 00    	je     5060 <loc_null_create+0x110>
    4f8d:	c7 04 24 10 28 02 00 	movl   $0x22810,(%esp)
    4f94:	e8 b7 4a 00 00       	call   9a50 <fibril_mutex_unlock>
    4f99:	8b 15 1c 2a 02 00    	mov    0x22a1c,%edx
    4f9f:	85 d2                	test   %edx,%edx
    4fa1:	0f 84 d1 00 00 00    	je     5078 <loc_null_create+0x128>
    4fa7:	c7 04 24 00 28 02 00 	movl   $0x22800,(%esp)
    4fae:	e8 9d 4a 00 00       	call   9a50 <fibril_mutex_unlock>
    4fb3:	c7 04 24 10 28 02 00 	movl   $0x22810,(%esp)
    4fba:	8b 1d 1c 2a 02 00    	mov    0x22a1c,%ebx
    4fc0:	e8 6b 49 00 00       	call   9930 <fibril_mutex_lock>
    4fc5:	a1 18 2a 02 00       	mov    0x22a18,%eax
    4fca:	85 c0                	test   %eax,%eax
    4fcc:	0f 84 d6 00 00 00    	je     50a8 <loc_null_create+0x158>
    4fd2:	c7 04 24 10 28 02 00 	movl   $0x22810,(%esp)
    4fd9:	e8 72 4a 00 00       	call   9a50 <fibril_mutex_unlock>
    4fde:	a1 1c 2a 02 00       	mov    0x22a1c,%eax
    4fe3:	89 04 24             	mov    %eax,(%esp)
    4fe6:	e8 f5 18 01 00       	call   168e0 <async_exchange_begin>
    4feb:	c7 44 24 28 00 00 00 	movl   $0x0,0x28(%esp)
    4ff2:	00 
    4ff3:	89 c3                	mov    %eax,%ebx
    4ff5:	8d 45 f4             	lea    -0xc(%ebp),%eax
    4ff8:	c7 44 24 24 00 00 00 	movl   $0x0,0x24(%esp)
    4fff:	00 
    5000:	c7 44 24 20 00 00 00 	movl   $0x0,0x20(%esp)
    5007:	00 
    5008:	c7 44 24 1c 00 00 00 	movl   $0x0,0x1c(%esp)
    500f:	00 
    5010:	89 44 24 18          	mov    %eax,0x18(%esp)
    5014:	c7 44 24 14 00 00 00 	movl   $0x0,0x14(%esp)
    501b:	00 
    501c:	c7 44 24 10 00 00 00 	movl   $0x0,0x10(%esp)
    5023:	00 
    5024:	c7 44 24 0c 00 00 00 	movl   $0x0,0xc(%esp)
    502b:	00 
    502c:	c7 44 24 08 00 00 00 	movl   $0x0,0x8(%esp)
    5033:	00 
    5034:	c7 44 24 04 0e 04 00 	movl   $0x40e,0x4(%esp)
    503b:	00 
    503c:	89 1c 24             	mov    %ebx,(%esp)
    503f:	e8 4c 08 01 00       	call   15890 <async_req_fast>
    5044:	89 1c 24             	mov    %ebx,(%esp)
    5047:	89 c6                	mov    %eax,%esi
    5049:	e8 02 1c 01 00       	call   16c50 <async_exchange_end>
    504e:	85 f6                	test   %esi,%esi
    5050:	75 69                	jne    50bb <loc_null_create+0x16b>
    5052:	8b 45 f4             	mov    -0xc(%ebp),%eax
    5055:	83 c4 40             	add    $0x40,%esp
    5058:	5b                   	pop    %ebx
    5059:	5e                   	pop    %esi
    505a:	5d                   	pop    %ebp
    505b:	c3                   	ret    
    505c:	8d 74 26 00          	lea    0x0(%esi,%eiz,1),%esi
    5060:	85 db                	test   %ebx,%ebx
    5062:	0f 84 25 ff ff ff    	je     4f8d <loc_null_create+0x3d>
    5068:	89 1d 1c 2a 02 00    	mov    %ebx,0x22a1c
    506e:	e9 1a ff ff ff       	jmp    4f8d <loc_null_create+0x3d>
    5073:	90                   	nop
    5074:	8d 74 26 00          	lea    0x0(%esi,%eiz,1),%esi
    5078:	c7 44 24 0c 00 00 00 	movl   $0x0,0xc(%esp)
    507f:	00 
    5080:	c7 44 24 08 02 00 00 	movl   $0x2,0x8(%esp)
    5087:	00 
    5088:	c7 44 24 04 6c 6f 63 	movl   $0x20636f6c,0x4(%esp)
    508f:	20 
    5090:	c7 04 24 02 00 00 00 	movl   $0x2,(%esp)
    5097:	e8 94 eb 00 00       	call   13c30 <service_connect_blocking>
    509c:	a3 1c 2a 02 00       	mov    %eax,0x22a1c
    50a1:	e9 c3 fe ff ff       	jmp    4f69 <loc_null_create+0x19>
    50a6:	66 90                	xchg   %ax,%ax
    50a8:	85 db                	test   %ebx,%ebx
    50aa:	0f 84 22 ff ff ff    	je     4fd2 <loc_null_create+0x82>
    50b0:	89 1d 18 2a 02 00    	mov    %ebx,0x22a18
    50b6:	e9 17 ff ff ff       	jmp    4fd2 <loc_null_create+0x82>
    50bb:	83 c8 ff             	or     $0xffffffff,%eax
    50be:	eb 95                	jmp    5055 <loc_null_create+0x105>

000050c0 <loc_null_destroy>:
    50c0:	55                   	push   %ebp
    50c1:	89 e5                	mov    %esp,%ebp
    50c3:	56                   	push   %esi
    50c4:	53                   	push   %ebx
    50c5:	83 ec 30             	sub    $0x30,%esp
    50c8:	8b 75 08             	mov    0x8(%ebp),%esi
    50cb:	c7 04 24 00 28 02 00 	movl   $0x22800,(%esp)
    50d2:	e8 59 48 00 00       	call   9930 <fibril_mutex_lock>
    50d7:	a1 1c 2a 02 00       	mov    0x22a1c,%eax
    50dc:	85 c0                	test   %eax,%eax
    50de:	75 38                	jne    5118 <loc_null_destroy+0x58>
    50e0:	c7 04 24 10 28 02 00 	movl   $0x22810,(%esp)
    50e7:	8b 1d 18 2a 02 00    	mov    0x22a18,%ebx
    50ed:	e8 3e 48 00 00       	call   9930 <fibril_mutex_lock>
    50f2:	a1 1c 2a 02 00       	mov    0x22a1c,%eax
    50f7:	85 c0                	test   %eax,%eax
    50f9:	0f 84 c1 00 00 00    	je     51c0 <loc_null_destroy+0x100>
    50ff:	c7 04 24 10 28 02 00 	movl   $0x22810,(%esp)
    5106:	e8 45 49 00 00       	call   9a50 <fibril_mutex_unlock>
    510b:	a1 1c 2a 02 00       	mov    0x22a1c,%eax
    5110:	85 c0                	test   %eax,%eax
    5112:	0f 84 c0 00 00 00    	je     51d8 <loc_null_destroy+0x118>
    5118:	c7 04 24 00 28 02 00 	movl   $0x22800,(%esp)
    511f:	e8 2c 49 00 00       	call   9a50 <fibril_mutex_unlock>
    5124:	c7 04 24 10 28 02 00 	movl   $0x22810,(%esp)
    512b:	8b 1d 1c 2a 02 00    	mov    0x22a1c,%ebx
    5131:	e8 fa 47 00 00       	call   9930 <fibril_mutex_lock>
    5136:	a1 18 2a 02 00       	mov    0x22a18,%eax
    513b:	85 c0                	test   %eax,%eax
    513d:	0f 84 c5 00 00 00    	je     5208 <loc_null_destroy+0x148>
    5143:	c7 04 24 10 28 02 00 	movl   $0x22810,(%esp)
    514a:	e8 01 49 00 00       	call   9a50 <fibril_mutex_unlock>
    514f:	a1 1c 2a 02 00       	mov    0x22a1c,%eax
    5154:	89 04 24             	mov    %eax,(%esp)
    5157:	e8 84 17 01 00       	call   168e0 <async_exchange_begin>
    515c:	89 74 24 08          	mov    %esi,0x8(%esp)
    5160:	c7 44 24 28 00 00 00 	movl   $0x0,0x28(%esp)
    5167:	00 
    5168:	c7 44 24 24 00 00 00 	movl   $0x0,0x24(%esp)
    516f:	00 
    5170:	c7 44 24 20 00 00 00 	movl   $0x0,0x20(%esp)
    5177:	00 
    5178:	c7 44 24 1c 00 00 00 	movl   $0x0,0x1c(%esp)
    517f:	00 
    5180:	c7 44 24 18 00 00 00 	movl   $0x0,0x18(%esp)
    5187:	00 
    5188:	c7 44 24 14 00 00 00 	movl   $0x0,0x14(%esp)
    518f:	00 
    5190:	c7 44 24 10 00 00 00 	movl   $0x0,0x10(%esp)
    5197:	00 
    5198:	c7 44 24 0c 00 00 00 	movl   $0x0,0xc(%esp)
    519f:	00 
    51a0:	c7 44 24 04 0f 04 00 	movl   $0x40f,0x4(%esp)
    51a7:	00 
    51a8:	89 04 24             	mov    %eax,(%esp)
    51ab:	89 c3                	mov    %eax,%ebx
    51ad:	e8 de 06 01 00       	call   15890 <async_req_fast>
    51b2:	89 5d 08             	mov    %ebx,0x8(%ebp)
    51b5:	83 c4 30             	add    $0x30,%esp
    51b8:	5b                   	pop    %ebx
    51b9:	5e                   	pop    %esi
    51ba:	5d                   	pop    %ebp
    51bb:	e9 90 1a 01 00       	jmp    16c50 <async_exchange_end>
    51c0:	85 db                	test   %ebx,%ebx
    51c2:	0f 84 37 ff ff ff    	je     50ff <loc_null_destroy+0x3f>
    51c8:	89 1d 1c 2a 02 00    	mov    %ebx,0x22a1c
    51ce:	e9 2c ff ff ff       	jmp    50ff <loc_null_destroy+0x3f>
    51d3:	90                   	nop
    51d4:	8d 74 26 00          	lea    0x0(%esi,%eiz,1),%esi
    51d8:	c7 44 24 0c 00 00 00 	movl   $0x0,0xc(%esp)
    51df:	00 
    51e0:	c7 44 24 08 02 00 00 	movl   $0x2,0x8(%esp)
    51e7:	00 
    51e8:	c7 44 24 04 6c 6f 63 	movl   $0x20636f6c,0x4(%esp)
    51ef:	20 
    51f0:	c7 04 24 02 00 00 00 	movl   $0x2,(%esp)
    51f7:	e8 34 ea 00 00       	call   13c30 <service_connect_blocking>
    51fc:	a3 1c 2a 02 00       	mov    %eax,0x22a1c
    5201:	e9 d6 fe ff ff       	jmp    50dc <loc_null_destroy+0x1c>
    5206:	66 90                	xchg   %ax,%ax
    5208:	85 db                	test   %ebx,%ebx
    520a:	0f 84 33 ff ff ff    	je     5143 <loc_null_destroy+0x83>
    5210:	89 1d 18 2a 02 00    	mov    %ebx,0x22a18
    5216:	e9 28 ff ff ff       	jmp    5143 <loc_null_destroy+0x83>
    521b:	90                   	nop
    521c:	8d 74 26 00          	lea    0x0(%esi,%eiz,1),%esi

00005220 <loc_service_add_to_cat>:
    5220:	55                   	push   %ebp
    5221:	89 e5                	mov    %esp,%ebp
    5223:	53                   	push   %ebx
    5224:	83 ec 44             	sub    $0x44,%esp
    5227:	c7 04 24 e0 27 02 00 	movl   $0x227e0,(%esp)
    522e:	e8 fd 46 00 00       	call   9930 <fibril_mutex_lock>
    5233:	a1 14 2a 02 00       	mov    0x22a14,%eax
    5238:	85 c0                	test   %eax,%eax
    523a:	75 38                	jne    5274 <loc_service_add_to_cat+0x54>
    523c:	c7 04 24 f0 27 02 00 	movl   $0x227f0,(%esp)
    5243:	8b 1d 10 2a 02 00    	mov    0x22a10,%ebx
    5249:	e8 e2 46 00 00       	call   9930 <fibril_mutex_lock>
    524e:	a1 14 2a 02 00       	mov    0x22a14,%eax
    5253:	85 c0                	test   %eax,%eax
    5255:	0f 84 cd 00 00 00    	je     5328 <loc_service_add_to_cat+0x108>
    525b:	c7 04 24 f0 27 02 00 	movl   $0x227f0,(%esp)
    5262:	e8 e9 47 00 00       	call   9a50 <fibril_mutex_unlock>
    5267:	a1 14 2a 02 00       	mov    0x22a14,%eax
    526c:	85 c0                	test   %eax,%eax
    526e:	0f 84 cc 00 00 00    	je     5340 <loc_service_add_to_cat+0x120>
    5274:	c7 04 24 e0 27 02 00 	movl   $0x227e0,(%esp)
    527b:	e8 d0 47 00 00       	call   9a50 <fibril_mutex_unlock>
    5280:	c7 04 24 f0 27 02 00 	movl   $0x227f0,(%esp)
    5287:	8b 1d 14 2a 02 00    	mov    0x22a14,%ebx
    528d:	e8 9e 46 00 00       	call   9930 <fibril_mutex_lock>
    5292:	a1 10 2a 02 00       	mov    0x22a10,%eax
    5297:	85 c0                	test   %eax,%eax
    5299:	0f 84 d1 00 00 00    	je     5370 <loc_service_add_to_cat+0x150>
    529f:	c7 04 24 f0 27 02 00 	movl   $0x227f0,(%esp)
    52a6:	e8 a5 47 00 00       	call   9a50 <fibril_mutex_unlock>
    52ab:	a1 14 2a 02 00       	mov    0x22a14,%eax
    52b0:	89 04 24             	mov    %eax,(%esp)
    52b3:	e8 28 16 01 00       	call   168e0 <async_exchange_begin>
    52b8:	c7 44 24 28 00 00 00 	movl   $0x0,0x28(%esp)
    52bf:	00 
    52c0:	89 c3                	mov    %eax,%ebx
    52c2:	8b 45 0c             	mov    0xc(%ebp),%eax
    52c5:	89 44 24 0c          	mov    %eax,0xc(%esp)
    52c9:	8b 45 08             	mov    0x8(%ebp),%eax
    52cc:	89 1c 24             	mov    %ebx,(%esp)
    52cf:	c7 44 24 24 00 00 00 	movl   $0x0,0x24(%esp)
    52d6:	00 
    52d7:	c7 44 24 20 00 00 00 	movl   $0x0,0x20(%esp)
    52de:	00 
    52df:	c7 44 24 1c 00 00 00 	movl   $0x0,0x1c(%esp)
    52e6:	00 
    52e7:	c7 44 24 18 00 00 00 	movl   $0x0,0x18(%esp)
    52ee:	00 
    52ef:	c7 44 24 14 00 00 00 	movl   $0x0,0x14(%esp)
    52f6:	00 
    52f7:	c7 44 24 10 00 00 00 	movl   $0x0,0x10(%esp)
    52fe:	00 
    52ff:	89 44 24 08          	mov    %eax,0x8(%esp)
    5303:	c7 44 24 04 02 04 00 	movl   $0x402,0x4(%esp)
    530a:	00 
    530b:	e8 80 05 01 00       	call   15890 <async_req_fast>
    5310:	89 1c 24             	mov    %ebx,(%esp)
    5313:	89 45 f4             	mov    %eax,-0xc(%ebp)
