
inet:     file format elf32-i386


Disassembly of section .init:

00001094 <__entry>:
    1094:	66 8c d0             	mov    %ss,%ax
    1097:	8e d8                	mov    %eax,%ds
    1099:	8e c0                	mov    %eax,%es
    109b:	8e e0                	mov    %eax,%fs
    109d:	b8 01 00 00 00       	mov    $0x1,%eax
    10a2:	0f a2                	cpuid  
    10a4:	0f ba e2 0b          	bt     $0xb,%edx
    10a8:	73 0c                	jae    10b6 <__entry+0x22>
    10aa:	8d 05 f4 1e 02 00    	lea    0x21ef4,%eax
    10b0:	c7 00 27 c3 01 00    	movl   $0x1c327,(%eax)
    10b6:	6a 00                	push   $0x0
    10b8:	89 e5                	mov    %esp,%ebp
    10ba:	57                   	push   %edi
    10bb:	e8 10 0b 00 00       	call   1bd0 <__main>

Disassembly of section .text:

000010c0 <print_syntax>:
    10c0:	55                   	push   %ebp
    10c1:	89 e5                	mov    %esp,%ebp
    10c3:	83 ec 18             	sub    $0x18,%esp
    10c6:	c7 04 24 42 ed 01 00 	movl   $0x1ed42,(%esp)
    10cd:	e8 6e bb 00 00       	call   cc40 <printf>
    10d2:	c7 04 24 5c ee 01 00 	movl   $0x1ee5c,(%esp)
    10d9:	e8 62 bb 00 00       	call   cc40 <printf>
    10de:	c7 04 24 94 ee 01 00 	movl   $0x1ee94,(%esp)
    10e5:	e8 56 bb 00 00       	call   cc40 <printf>
    10ea:	c7 04 24 bc ee 01 00 	movl   $0x1eebc,(%esp)
    10f1:	e8 4a bb 00 00       	call   cc40 <printf>
    10f6:	c7 04 24 4b ed 01 00 	movl   $0x1ed4b,(%esp)
    10fd:	e8 3e bb 00 00       	call   cc40 <printf>
    1102:	c9                   	leave  
    1103:	c3                   	ret    
    1104:	8d b6 00 00 00 00    	lea    0x0(%esi),%esi
    110a:	8d bf 00 00 00 00    	lea    0x0(%edi),%edi

00001110 <naddr_parse>:
    1110:	55                   	push   %ebp
    1111:	89 e5                	mov    %esp,%ebp
    1113:	56                   	push   %esi
    1114:	53                   	push   %ebx
    1115:	89 d6                	mov    %edx,%esi
    1117:	83 ec 30             	sub    $0x30,%esp
    111a:	8d 5d e4             	lea    -0x1c(%ebp),%ebx
    111d:	89 45 e4             	mov    %eax,-0x1c(%ebp)
    1120:	c7 44 24 08 0a 00 00 	movl   $0xa,0x8(%esp)
    1127:	00 
    1128:	89 5c 24 04          	mov    %ebx,0x4(%esp)
    112c:	89 04 24             	mov    %eax,(%esp)
    112f:	e8 ec 5d 00 00       	call   6f20 <strtoul>
    1134:	89 45 e8             	mov    %eax,-0x18(%ebp)
    1137:	8b 45 e4             	mov    -0x1c(%ebp),%eax
    113a:	80 38 2e             	cmpb   $0x2e,(%eax)
    113d:	0f 85 eb 00 00 00    	jne    122e <naddr_parse+0x11e>
    1143:	40                   	inc    %eax
    1144:	c7 44 24 08 0a 00 00 	movl   $0xa,0x8(%esp)
    114b:	00 
    114c:	89 5c 24 04          	mov    %ebx,0x4(%esp)
    1150:	89 04 24             	mov    %eax,(%esp)
    1153:	89 45 e4             	mov    %eax,-0x1c(%ebp)
    1156:	e8 c5 5d 00 00       	call   6f20 <strtoul>
    115b:	89 45 ec             	mov    %eax,-0x14(%ebp)
    115e:	8b 45 e4             	mov    -0x1c(%ebp),%eax
    1161:	80 38 2e             	cmpb   $0x2e,(%eax)
    1164:	0f 85 c4 00 00 00    	jne    122e <naddr_parse+0x11e>
    116a:	40                   	inc    %eax
    116b:	c7 44 24 08 0a 00 00 	movl   $0xa,0x8(%esp)
    1172:	00 
    1173:	89 5c 24 04          	mov    %ebx,0x4(%esp)
    1177:	89 04 24             	mov    %eax,(%esp)
    117a:	89 45 e4             	mov    %eax,-0x1c(%ebp)
    117d:	e8 9e 5d 00 00       	call   6f20 <strtoul>
    1182:	89 45 f0             	mov    %eax,-0x10(%ebp)
    1185:	8b 45 e4             	mov    -0x1c(%ebp),%eax
    1188:	80 38 2e             	cmpb   $0x2e,(%eax)
    118b:	0f 85 9d 00 00 00    	jne    122e <naddr_parse+0x11e>
    1191:	40                   	inc    %eax
    1192:	c7 44 24 08 0a 00 00 	movl   $0xa,0x8(%esp)
    1199:	00 
    119a:	89 5c 24 04          	mov    %ebx,0x4(%esp)
    119e:	89 04 24             	mov    %eax,(%esp)
    11a1:	89 45 e4             	mov    %eax,-0x1c(%ebp)
    11a4:	e8 77 5d 00 00       	call   6f20 <strtoul>
    11a9:	89 45 f4             	mov    %eax,-0xc(%ebp)
    11ac:	8b 45 e4             	mov    -0x1c(%ebp),%eax
    11af:	80 38 2f             	cmpb   $0x2f,(%eax)
    11b2:	75 7a                	jne    122e <naddr_parse+0x11e>
    11b4:	40                   	inc    %eax
    11b5:	c7 44 24 08 0a 00 00 	movl   $0xa,0x8(%esp)
    11bc:	00 
    11bd:	89 5c 24 04          	mov    %ebx,0x4(%esp)
    11c1:	89 04 24             	mov    %eax,(%esp)
    11c4:	89 45 e4             	mov    %eax,-0x1c(%ebp)
    11c7:	e8 54 5d 00 00       	call   6f20 <strtoul>
    11cc:	8b 55 e4             	mov    -0x1c(%ebp),%edx
    11cf:	80 3a 00             	cmpb   $0x0,(%edx)
    11d2:	75 5a                	jne    122e <naddr_parse+0x11e>
    11d4:	8b 55 e8             	mov    -0x18(%ebp),%edx
    11d7:	c7 06 00 00 00 00    	movl   $0x0,(%esi)
    11dd:	81 fa ff 00 00 00    	cmp    $0xff,%edx
    11e3:	77 49                	ja     122e <naddr_parse+0x11e>
    11e5:	8b 4d ec             	mov    -0x14(%ebp),%ecx
    11e8:	89 16                	mov    %edx,(%esi)
    11ea:	81 f9 ff 00 00 00    	cmp    $0xff,%ecx
    11f0:	77 3c                	ja     122e <naddr_parse+0x11e>
    11f2:	c1 e2 08             	shl    $0x8,%edx
    11f5:	09 ca                	or     %ecx,%edx
    11f7:	8b 4d f0             	mov    -0x10(%ebp),%ecx
    11fa:	89 16                	mov    %edx,(%esi)
    11fc:	81 f9 ff 00 00 00    	cmp    $0xff,%ecx
    1202:	77 2a                	ja     122e <naddr_parse+0x11e>
    1204:	c1 e2 08             	shl    $0x8,%edx
    1207:	09 ca                	or     %ecx,%edx
    1209:	8b 4d f4             	mov    -0xc(%ebp),%ecx
    120c:	89 16                	mov    %edx,(%esi)
    120e:	81 f9 ff 00 00 00    	cmp    $0xff,%ecx
    1214:	77 18                	ja     122e <naddr_parse+0x11e>
    1216:	c1 e2 08             	shl    $0x8,%edx
    1219:	09 ca                	or     %ecx,%edx
    121b:	83 f8 1f             	cmp    $0x1f,%eax
    121e:	89 16                	mov    %edx,(%esi)
    1220:	77 0c                	ja     122e <naddr_parse+0x11e>
    1222:	89 46 04             	mov    %eax,0x4(%esi)
    1225:	31 c0                	xor    %eax,%eax
    1227:	83 c4 30             	add    $0x30,%esp
    122a:	5b                   	pop    %ebx
    122b:	5e                   	pop    %esi
    122c:	5d                   	pop    %ebp
    122d:	c3                   	ret    
    122e:	b8 f2 ff ff ff       	mov    $0xfffffff2,%eax
    1233:	eb f2                	jmp    1227 <naddr_parse+0x117>
    1235:	66 90                	xchg   %ax,%ax
    1237:	66 90                	xchg   %ax,%ax
    1239:	66 90                	xchg   %ax,%ax
    123b:	66 90                	xchg   %ax,%ax
    123d:	66 90                	xchg   %ax,%ax
    123f:	90                   	nop

00001240 <main>:
    1240:	55                   	push   %ebp
    1241:	89 e5                	mov    %esp,%ebp
    1243:	57                   	push   %edi
    1244:	56                   	push   %esi
    1245:	53                   	push   %ebx
    1246:	83 e4 f0             	and    $0xfffffff0,%esp
    1249:	81 ec 90 00 00 00    	sub    $0x90,%esp
    124f:	8b 5d 0c             	mov    0xc(%ebp),%ebx
    1252:	e8 d9 8b 00 00       	call   9e30 <inetcfg_init>
    1257:	85 c0                	test   %eax,%eax
    1259:	0f 85 cd 02 00 00    	jne    152c <main+0x2ec>
    125f:	83 7d 08 01          	cmpl   $0x1,0x8(%ebp)
    1263:	0f 8e db 01 00 00    	jle    1444 <main+0x204>
    1269:	c7 44 24 04 a6 ed 01 	movl   $0x1eda6,0x4(%esp)
    1270:	00 
    1271:	8b 43 04             	mov    0x4(%ebx),%eax
    1274:	89 04 24             	mov    %eax,(%esp)
    1277:	e8 64 41 00 00       	call   53e0 <str_cmp>
    127c:	85 c0                	test   %eax,%eax
    127e:	0f 85 88 00 00 00    	jne    130c <main+0xcc>
    1284:	8b 45 08             	mov    0x8(%ebp),%eax
    1287:	83 e8 02             	sub    $0x2,%eax
    128a:	83 f8 02             	cmp    $0x2,%eax
    128d:	0f 8e 84 07 00 00    	jle    1a17 <main+0x7d7>
    1293:	83 f8 03             	cmp    $0x3,%eax
    1296:	0f 85 fb 06 00 00    	jne    1997 <main+0x757>
    129c:	8b 7b 0c             	mov    0xc(%ebx),%edi
    129f:	8d 44 24 40          	lea    0x40(%esp),%eax
    12a3:	8b 73 08             	mov    0x8(%ebx),%esi
    12a6:	8b 5b 10             	mov    0x10(%ebx),%ebx
    12a9:	c7 44 24 08 00 00 00 	movl   $0x0,0x8(%esp)
    12b0:	00 
    12b1:	89 44 24 04          	mov    %eax,0x4(%esp)
    12b5:	89 3c 24             	mov    %edi,(%esp)
    12b8:	e8 03 1b 00 00       	call   2dc0 <loc_service_get_id>
    12bd:	85 c0                	test   %eax,%eax
    12bf:	0f 85 0b 07 00 00    	jne    19d0 <main+0x790>
    12c5:	8d 54 24 58          	lea    0x58(%esp),%edx
    12c9:	89 f0                	mov    %esi,%eax
    12cb:	e8 40 fe ff ff       	call   1110 <naddr_parse>
    12d0:	85 c0                	test   %eax,%eax
    12d2:	0f 85 11 07 00 00    	jne    19e9 <main+0x7a9>
    12d8:	8d 44 24 4c          	lea    0x4c(%esp),%eax
    12dc:	89 1c 24             	mov    %ebx,(%esp)
    12df:	89 44 24 0c          	mov    %eax,0xc(%esp)
    12e3:	8b 44 24 40          	mov    0x40(%esp),%eax
    12e7:	89 44 24 08          	mov    %eax,0x8(%esp)
    12eb:	8d 44 24 58          	lea    0x58(%esp),%eax
    12ef:	89 44 24 04          	mov    %eax,0x4(%esp)
    12f3:	e8 b8 8b 00 00       	call   9eb0 <inetcfg_addr_create_static>
    12f8:	89 c2                	mov    %eax,%edx
    12fa:	31 c0                	xor    %eax,%eax
    12fc:	85 d2                	test   %edx,%edx
    12fe:	0f 85 8d 07 00 00    	jne    1a91 <main+0x851>
    1304:	8d 65 f4             	lea    -0xc(%ebp),%esp
    1307:	5b                   	pop    %ebx
    1308:	5e                   	pop    %esi
    1309:	5f                   	pop    %edi
    130a:	5d                   	pop    %ebp
    130b:	c3                   	ret    
    130c:	c7 44 24 04 e2 ed 01 	movl   $0x1ede2,0x4(%esp)
    1313:	00 
    1314:	8b 43 04             	mov    0x4(%ebx),%eax
    1317:	89 04 24             	mov    %eax,(%esp)
    131a:	e8 c1 40 00 00       	call   53e0 <str_cmp>
    131f:	85 c0                	test   %eax,%eax
    1321:	0f 84 1f 02 00 00    	je     1546 <main+0x306>
    1327:	c7 44 24 04 e9 ed 01 	movl   $0x1ede9,0x4(%esp)
    132e:	00 
    132f:	8b 43 04             	mov    0x4(%ebx),%eax
    1332:	89 04 24             	mov    %eax,(%esp)
    1335:	e8 a6 40 00 00       	call   53e0 <str_cmp>
    133a:	85 c0                	test   %eax,%eax
    133c:	0f 85 85 05 00 00    	jne    18c7 <main+0x687>
    1342:	8b 45 08             	mov    0x8(%ebp),%eax
    1345:	83 e8 02             	sub    $0x2,%eax
    1348:	83 f8 02             	cmp    $0x2,%eax
    134b:	0f 8e c6 06 00 00    	jle    1a17 <main+0x7d7>
    1351:	83 f8 03             	cmp    $0x3,%eax
    1354:	0f 85 3d 06 00 00    	jne    1997 <main+0x757>
    135a:	8b 7b 08             	mov    0x8(%ebx),%edi
    135d:	8b 73 0c             	mov    0xc(%ebx),%esi
    1360:	8d 54 24 58          	lea    0x58(%esp),%edx
    1364:	8b 5b 10             	mov    0x10(%ebx),%ebx
    1367:	89 f8                	mov    %edi,%eax
    1369:	89 5c 24 2c          	mov    %ebx,0x2c(%esp)
    136d:	e8 9e fd ff ff       	call   1110 <naddr_parse>
    1372:	85 c0                	test   %eax,%eax
    1374:	0f 85 38 07 00 00    	jne    1ab2 <main+0x872>
    137a:	89 74 24 48          	mov    %esi,0x48(%esp)
    137e:	31 db                	xor    %ebx,%ebx
    1380:	8d 7c 24 48          	lea    0x48(%esp),%edi
    1384:	8b 44 24 48          	mov    0x48(%esp),%eax
    1388:	c7 44 24 08 0a 00 00 	movl   $0xa,0x8(%esp)
    138f:	00 
    1390:	89 7c 24 04          	mov    %edi,0x4(%esp)
    1394:	89 04 24             	mov    %eax,(%esp)
    1397:	e8 84 5b 00 00       	call   6f20 <strtoul>
    139c:	89 84 9c 80 00 00 00 	mov    %eax,0x80(%esp,%ebx,4)
    13a3:	8b 44 24 48          	mov    0x48(%esp),%eax
    13a7:	80 38 2e             	cmpb   $0x2e,(%eax)
    13aa:	0f 85 0b 06 00 00    	jne    19bb <main+0x77b>
    13b0:	40                   	inc    %eax
    13b1:	43                   	inc    %ebx
    13b2:	89 44 24 48          	mov    %eax,0x48(%esp)
    13b6:	83 fb 03             	cmp    $0x3,%ebx
    13b9:	75 c9                	jne    1384 <main+0x144>
    13bb:	c7 44 24 08 0a 00 00 	movl   $0xa,0x8(%esp)
    13c2:	00 
    13c3:	89 7c 24 04          	mov    %edi,0x4(%esp)
    13c7:	89 04 24             	mov    %eax,(%esp)
    13ca:	e8 51 5b 00 00       	call   6f20 <strtoul>
    13cf:	89 84 24 8c 00 00 00 	mov    %eax,0x8c(%esp)
    13d6:	8b 44 24 48          	mov    0x48(%esp),%eax
    13da:	80 38 00             	cmpb   $0x0,(%eax)
    13dd:	0f 85 d8 05 00 00    	jne    19bb <main+0x77b>
    13e3:	c7 44 24 44 00 00 00 	movl   $0x0,0x44(%esp)
    13ea:	00 
    13eb:	31 c0                	xor    %eax,%eax
    13ed:	31 d2                	xor    %edx,%edx
    13ef:	8b 8c 94 80 00 00 00 	mov    0x80(%esp,%edx,4),%ecx
    13f6:	81 f9 ff 00 00 00    	cmp    $0xff,%ecx
    13fc:	0f 87 b5 05 00 00    	ja     19b7 <main+0x777>
    1402:	c1 e0 08             	shl    $0x8,%eax
    1405:	42                   	inc    %edx
    1406:	09 c8                	or     %ecx,%eax
    1408:	83 fa 04             	cmp    $0x4,%edx
    140b:	75 e2                	jne    13ef <main+0x1af>
    140d:	89 44 24 44          	mov    %eax,0x44(%esp)
    1411:	8d 44 24 4c          	lea    0x4c(%esp),%eax
    1415:	89 44 24 0c          	mov    %eax,0xc(%esp)
    1419:	8d 44 24 44          	lea    0x44(%esp),%eax
    141d:	89 44 24 08          	mov    %eax,0x8(%esp)
    1421:	8d 44 24 58          	lea    0x58(%esp),%eax
    1425:	89 44 24 04          	mov    %eax,0x4(%esp)
    1429:	8b 44 24 2c          	mov    0x2c(%esp),%eax
    142d:	89 04 24             	mov    %eax,(%esp)
    1430:	e8 5b 8f 00 00       	call   a390 <inetcfg_sroute_create>
    1435:	85 c0                	test   %eax,%eax
    1437:	0f 85 a3 06 00 00    	jne    1ae0 <main+0x8a0>
    143d:	31 c0                	xor    %eax,%eax
    143f:	e9 c0 fe ff ff       	jmp    1304 <main+0xc4>
    1444:	8d 44 24 4c          	lea    0x4c(%esp),%eax
    1448:	89 44 24 04          	mov    %eax,0x4(%esp)
    144c:	8d 44 24 3c          	lea    0x3c(%esp),%eax
    1450:	89 04 24             	mov    %eax,(%esp)
    1453:	e8 a8 8d 00 00       	call   a200 <inetcfg_get_addr_list>
    1458:	85 c0                	test   %eax,%eax
    145a:	0f 85 75 01 00 00    	jne    15d5 <main+0x395>
    1460:	c7 04 24 66 ed 01 00 	movl   $0x1ed66,(%esp)
    1467:	e8 d4 b7 00 00       	call   cc40 <printf>
    146c:	83 7c 24 4c 00       	cmpl   $0x0,0x4c(%esp)
    1471:	0f 85 fe 04 00 00    	jne    1975 <main+0x735>
    1477:	31 db                	xor    %ebx,%ebx
    1479:	c7 44 24 48 00 00 00 	movl   $0x0,0x48(%esp)
    1480:	00 
    1481:	c7 44 24 50 00 00 00 	movl   $0x0,0x50(%esp)
    1488:	00 
    1489:	c7 44 24 6c 00 00 00 	movl   $0x0,0x6c(%esp)
    1490:	00 
    1491:	8d 74 24 60          	lea    0x60(%esp),%esi
    1495:	83 7c 24 4c 00       	cmpl   $0x0,0x4c(%esp)
    149a:	75 38                	jne    14d4 <main+0x294>
    149c:	e9 e5 04 00 00       	jmp    1986 <main+0x746>
    14a1:	8d b4 26 00 00 00 00 	lea    0x0(%esi,%eiz,1),%esi
    14a8:	8b 44 24 3c          	mov    0x3c(%esp),%eax
    14ac:	8b 04 38             	mov    (%eax,%edi,1),%eax
    14af:	c7 04 24 88 ef 01 00 	movl   $0x1ef88,(%esp)
    14b6:	89 44 24 04          	mov    %eax,0x4(%esp)
    14ba:	e8 81 b7 00 00       	call   cc40 <printf>
    14bf:	c7 44 24 6c 00 00 00 	movl   $0x0,0x6c(%esp)
    14c6:	00 
    14c7:	43                   	inc    %ebx
    14c8:	8b 44 24 4c          	mov    0x4c(%esp),%eax
    14cc:	39 c3                	cmp    %eax,%ebx
    14ce:	0f 83 d0 01 00 00    	jae    16a4 <main+0x464>
    14d4:	8b 44 24 3c          	mov    0x3c(%esp),%eax
    14d8:	8d 3c 9d 00 00 00 00 	lea    0x0(,%ebx,4),%edi
    14df:	89 74 24 04          	mov    %esi,0x4(%esp)
    14e3:	8b 04 38             	mov    (%eax,%edi,1),%eax
    14e6:	89 04 24             	mov    %eax,(%esp)
    14e9:	e8 12 8b 00 00       	call   a000 <inetcfg_addr_get>
    14ee:	85 c0                	test   %eax,%eax
    14f0:	75 b6                	jne    14a8 <main+0x268>
    14f2:	8d 44 24 50          	lea    0x50(%esp),%eax
    14f6:	89 44 24 04          	mov    %eax,0x4(%esp)
    14fa:	8b 44 24 68          	mov    0x68(%esp),%eax
    14fe:	89 04 24             	mov    %eax,(%esp)
    1501:	e8 5a 8d 00 00       	call   a260 <inetcfg_link_get>
    1506:	85 c0                	test   %eax,%eax
    1508:	0f 84 dd 00 00 00    	je     15eb <main+0x3ab>
    150e:	8b 44 24 68          	mov    0x68(%esp),%eax
    1512:	c7 04 24 b4 ef 01 00 	movl   $0x1efb4,(%esp)
    1519:	89 44 24 04          	mov    %eax,0x4(%esp)
    151d:	e8 1e b7 00 00       	call   cc40 <printf>
    1522:	c7 44 24 50 00 00 00 	movl   $0x0,0x50(%esp)
    1529:	00 
    152a:	eb 9b                	jmp    14c7 <main+0x287>
    152c:	89 44 24 04          	mov    %eax,0x4(%esp)
    1530:	c7 04 24 fc ee 01 00 	movl   $0x1eefc,(%esp)
    1537:	e8 04 b7 00 00       	call   cc40 <printf>
    153c:	b8 01 00 00 00       	mov    $0x1,%eax
    1541:	e9 be fd ff ff       	jmp    1304 <main+0xc4>
    1546:	8b 45 08             	mov    0x8(%ebp),%eax
    1549:	83 e8 02             	sub    $0x2,%eax
    154c:	83 f8 01             	cmp    $0x1,%eax
    154f:	0f 8e c2 04 00 00    	jle    1a17 <main+0x7d7>
    1555:	83 f8 02             	cmp    $0x2,%eax
    1558:	0f 85 39 04 00 00    	jne    1997 <main+0x757>
    155e:	8b 73 08             	mov    0x8(%ebx),%esi
    1561:	8d 44 24 40          	lea    0x40(%esp),%eax
    1565:	8b 5b 0c             	mov    0xc(%ebx),%ebx
    1568:	c7 44 24 08 00 00 00 	movl   $0x0,0x8(%esp)
    156f:	00 
    1570:	89 44 24 04          	mov    %eax,0x4(%esp)
    1574:	89 34 24             	mov    %esi,(%esp)
    1577:	e8 44 18 00 00       	call   2dc0 <loc_service_get_id>
    157c:	85 c0                	test   %eax,%eax
    157e:	0f 85 db 04 00 00    	jne    1a5f <main+0x81f>
    1584:	8d 44 24 4c          	lea    0x4c(%esp),%eax
    1588:	89 1c 24             	mov    %ebx,(%esp)
    158b:	89 44 24 08          	mov    %eax,0x8(%esp)
    158f:	8b 44 24 40          	mov    0x40(%esp),%eax
    1593:	89 44 24 04          	mov    %eax,0x4(%esp)
    1597:	e8 a4 8b 00 00       	call   a140 <inetcfg_addr_get_id>
    159c:	85 c0                	test   %eax,%eax
    159e:	0f 85 d4 04 00 00    	jne    1a78 <main+0x838>
    15a4:	8b 44 24 4c          	mov    0x4c(%esp),%eax
    15a8:	89 04 24             	mov    %eax,(%esp)
    15ab:	e8 c0 89 00 00       	call   9f70 <inetcfg_addr_delete>
    15b0:	89 c2                	mov    %eax,%edx
    15b2:	31 c0                	xor    %eax,%eax
    15b4:	85 d2                	test   %edx,%edx
    15b6:	0f 84 48 fd ff ff    	je     1304 <main+0xc4>
    15bc:	89 54 24 08          	mov    %edx,0x8(%esp)
    15c0:	89 5c 24 04          	mov    %ebx,0x4(%esp)
    15c4:	c7 04 24 e0 f0 01 00 	movl   $0x1f0e0,(%esp)
    15cb:	e8 70 b6 00 00       	call   cc40 <printf>
    15d0:	e9 63 03 00 00       	jmp    1938 <main+0x6f8>
    15d5:	c7 04 24 30 ef 01 00 	movl   $0x1ef30,(%esp)
    15dc:	e8 5f b6 00 00       	call   cc40 <printf>
    15e1:	b8 01 00 00 00       	mov    $0x1,%eax
    15e6:	e9 19 fd ff ff       	jmp    1304 <main+0xc4>
    15eb:	8b 44 24 60          	mov    0x60(%esp),%eax
    15ef:	8b 54 24 64          	mov    0x64(%esp),%edx
    15f3:	89 54 24 18          	mov    %edx,0x18(%esp)
    15f7:	c7 44 24 04 87 ed 01 	movl   $0x1ed87,0x4(%esp)
    15fe:	00 
    15ff:	0f b6 d0             	movzbl %al,%edx
    1602:	89 54 24 14          	mov    %edx,0x14(%esp)
    1606:	0f b6 d4             	movzbl %ah,%edx
    1609:	89 54 24 10          	mov    %edx,0x10(%esp)
    160d:	89 c2                	mov    %eax,%edx
    160f:	c1 ea 10             	shr    $0x10,%edx
    1612:	c1 e8 18             	shr    $0x18,%eax
    1615:	81 e2 ff 00 00 00    	and    $0xff,%edx
    161b:	89 44 24 08          	mov    %eax,0x8(%esp)
    161f:	8d 44 24 48          	lea    0x48(%esp),%eax
    1623:	89 54 24 0c          	mov    %edx,0xc(%esp)
    1627:	89 04 24             	mov    %eax,(%esp)
    162a:	e8 d1 90 00 00       	call   a700 <asprintf>
    162f:	85 c0                	test   %eax,%eax
    1631:	0f 88 c7 03 00 00    	js     19fe <main+0x7be>
    1637:	8b 44 24 54          	mov    0x54(%esp),%eax
    163b:	c7 04 24 2f ee 01 00 	movl   $0x1ee2f,(%esp)
    1642:	89 44 24 10          	mov    %eax,0x10(%esp)
    1646:	8b 44 24 6c          	mov    0x6c(%esp),%eax
    164a:	89 44 24 0c          	mov    %eax,0xc(%esp)
    164e:	8b 44 24 50          	mov    0x50(%esp),%eax
    1652:	89 44 24 08          	mov    %eax,0x8(%esp)
    1656:	8b 44 24 48          	mov    0x48(%esp),%eax
    165a:	89 44 24 04          	mov    %eax,0x4(%esp)
    165e:	e8 dd b5 00 00       	call   cc40 <printf>
    1663:	8b 44 24 6c          	mov    0x6c(%esp),%eax
    1667:	89 04 24             	mov    %eax,(%esp)
    166a:	e8 61 05 01 00       	call   11bd0 <free>
    166f:	8b 44 24 50          	mov    0x50(%esp),%eax
    1673:	89 04 24             	mov    %eax,(%esp)
    1676:	e8 55 05 01 00       	call   11bd0 <free>
    167b:	8b 44 24 48          	mov    0x48(%esp),%eax
    167f:	89 04 24             	mov    %eax,(%esp)
    1682:	e8 49 05 01 00       	call   11bd0 <free>
    1687:	c7 44 24 48 00 00 00 	movl   $0x0,0x48(%esp)
    168e:	00 
    168f:	c7 44 24 50 00 00 00 	movl   $0x0,0x50(%esp)
    1696:	00 
    1697:	c7 44 24 6c 00 00 00 	movl   $0x0,0x6c(%esp)
    169e:	00 
    169f:	e9 23 fe ff ff       	jmp    14c7 <main+0x287>
    16a4:	85 c0                	test   %eax,%eax
    16a6:	0f 84 da 02 00 00    	je     1986 <main+0x746>
    16ac:	8b 44 24 6c          	mov    0x6c(%esp),%eax
    16b0:	85 c0                	test   %eax,%eax
    16b2:	74 08                	je     16bc <main+0x47c>
    16b4:	89 04 24             	mov    %eax,(%esp)
    16b7:	e8 14 05 01 00       	call   11bd0 <free>
    16bc:	8b 44 24 50          	mov    0x50(%esp),%eax
    16c0:	85 c0                	test   %eax,%eax
    16c2:	74 08                	je     16cc <main+0x48c>
    16c4:	89 04 24             	mov    %eax,(%esp)
    16c7:	e8 04 05 01 00       	call   11bd0 <free>
    16cc:	8b 44 24 48          	mov    0x48(%esp),%eax
    16d0:	85 c0                	test   %eax,%eax
    16d2:	74 08                	je     16dc <main+0x49c>
    16d4:	89 04 24             	mov    %eax,(%esp)
    16d7:	e8 f4 04 01 00       	call   11bd0 <free>
    16dc:	8b 44 24 3c          	mov    0x3c(%esp),%eax
    16e0:	89 04 24             	mov    %eax,(%esp)
    16e3:	e8 e8 04 01 00       	call   11bd0 <free>
    16e8:	8d 44 24 4c          	lea    0x4c(%esp),%eax
    16ec:	89 44 24 04          	mov    %eax,0x4(%esp)
    16f0:	8d 44 24 38          	lea    0x38(%esp),%eax
    16f4:	89 04 24             	mov    %eax,(%esp)
    16f7:	e8 44 8b 00 00       	call   a240 <inetcfg_get_sroute_list>
    16fc:	85 c0                	test   %eax,%eax
    16fe:	0f 85 d1 fe ff ff    	jne    15d5 <main+0x395>
    1704:	c7 04 24 96 ed 01 00 	movl   $0x1ed96,(%esp)
    170b:	e8 30 b5 00 00       	call   cc40 <printf>
    1710:	83 7c 24 4c 00       	cmpl   $0x0,0x4c(%esp)
    1715:	0f 85 49 02 00 00    	jne    1964 <main+0x724>
    171b:	31 db                	xor    %ebx,%ebx
    171d:	c7 44 24 48 00 00 00 	movl   $0x0,0x48(%esp)
    1724:	00 
    1725:	c7 44 24 3c 00 00 00 	movl   $0x0,0x3c(%esp)
    172c:	00 
    172d:	c7 44 24 7c 00 00 00 	movl   $0x0,0x7c(%esp)
    1734:	00 
    1735:	8d 74 24 70          	lea    0x70(%esp),%esi
    1739:	8d 7c 24 48          	lea    0x48(%esp),%edi
    173d:	83 7c 24 4c 00       	cmpl   $0x0,0x4c(%esp)
    1742:	75 7b                	jne    17bf <main+0x57f>
    1744:	c7 04 24 7d ed 01 00 	movl   $0x1ed7d,(%esp)
    174b:	e8 f0 b4 00 00       	call   cc40 <printf>
    1750:	8b 44 24 7c          	mov    0x7c(%esp),%eax
    1754:	85 c0                	test   %eax,%eax
    1756:	74 08                	je     1760 <main+0x520>
    1758:	89 04 24             	mov    %eax,(%esp)
    175b:	e8 70 04 01 00       	call   11bd0 <free>
    1760:	8b 44 24 3c          	mov    0x3c(%esp),%eax
    1764:	85 c0                	test   %eax,%eax
    1766:	74 08                	je     1770 <main+0x530>
    1768:	89 04 24             	mov    %eax,(%esp)
    176b:	e8 60 04 01 00       	call   11bd0 <free>
    1770:	8b 44 24 48          	mov    0x48(%esp),%eax
    1774:	85 c0                	test   %eax,%eax
    1776:	74 08                	je     1780 <main+0x540>
    1778:	89 04 24             	mov    %eax,(%esp)
    177b:	e8 50 04 01 00       	call   11bd0 <free>
    1780:	8b 44 24 38          	mov    0x38(%esp),%eax
    1784:	89 04 24             	mov    %eax,(%esp)
    1787:	e8 44 04 01 00       	call   11bd0 <free>
    178c:	31 c0                	xor    %eax,%eax
    178e:	e9 71 fb ff ff       	jmp    1304 <main+0xc4>
    1793:	8b 44 24 38          	mov    0x38(%esp),%eax
    1797:	8b 04 98             	mov    (%eax,%ebx,4),%eax
    179a:	c7 04 24 0c f0 01 00 	movl   $0x1f00c,(%esp)
    17a1:	89 44 24 04          	mov    %eax,0x4(%esp)
    17a5:	e8 96 b4 00 00       	call   cc40 <printf>
    17aa:	c7 44 24 7c 00 00 00 	movl   $0x0,0x7c(%esp)
    17b1:	00 
    17b2:	43                   	inc    %ebx
    17b3:	8b 44 24 4c          	mov    0x4c(%esp),%eax
    17b7:	39 c3                	cmp    %eax,%ebx
    17b9:	0f 83 eb 01 00 00    	jae    19aa <main+0x76a>
    17bf:	8b 44 24 38          	mov    0x38(%esp),%eax
    17c3:	89 74 24 04          	mov    %esi,0x4(%esp)
    17c7:	8b 04 98             	mov    (%eax,%ebx,4),%eax
    17ca:	89 04 24             	mov    %eax,(%esp)
    17cd:	e8 0e 8d 00 00       	call   a4e0 <inetcfg_sroute_get>
    17d2:	85 c0                	test   %eax,%eax
    17d4:	75 bd                	jne    1793 <main+0x553>
    17d6:	8b 44 24 70          	mov    0x70(%esp),%eax
    17da:	8b 54 24 74          	mov    0x74(%esp),%edx
    17de:	89 54 24 18          	mov    %edx,0x18(%esp)
    17e2:	c7 44 24 04 87 ed 01 	movl   $0x1ed87,0x4(%esp)
    17e9:	00 
    17ea:	0f b6 d0             	movzbl %al,%edx
    17ed:	89 54 24 14          	mov    %edx,0x14(%esp)
    17f1:	0f b6 d4             	movzbl %ah,%edx
    17f4:	89 54 24 10          	mov    %edx,0x10(%esp)
    17f8:	89 c2                	mov    %eax,%edx
    17fa:	c1 ea 10             	shr    $0x10,%edx
    17fd:	c1 e8 18             	shr    $0x18,%eax
    1800:	81 e2 ff 00 00 00    	and    $0xff,%edx
    1806:	89 44 24 08          	mov    %eax,0x8(%esp)
    180a:	8d 44 24 3c          	lea    0x3c(%esp),%eax
    180e:	89 54 24 0c          	mov    %edx,0xc(%esp)
    1812:	89 04 24             	mov    %eax,(%esp)
    1815:	e8 e6 8e 00 00       	call   a700 <asprintf>
    181a:	85 c0                	test   %eax,%eax
    181c:	0f 88 0b 02 00 00    	js     1a2d <main+0x7ed>
    1822:	8b 44 24 78          	mov    0x78(%esp),%eax
    1826:	c7 44 24 04 41 ee 01 	movl   $0x1ee41,0x4(%esp)
    182d:	00 
    182e:	0f b6 d0             	movzbl %al,%edx
    1831:	89 54 24 14          	mov    %edx,0x14(%esp)
    1835:	89 3c 24             	mov    %edi,(%esp)
    1838:	0f b6 d4             	movzbl %ah,%edx
    183b:	89 54 24 10          	mov    %edx,0x10(%esp)
    183f:	89 c2                	mov    %eax,%edx
    1841:	c1 ea 10             	shr    $0x10,%edx
    1844:	c1 e8 18             	shr    $0x18,%eax
    1847:	81 e2 ff 00 00 00    	and    $0xff,%edx
    184d:	89 54 24 0c          	mov    %edx,0xc(%esp)
    1851:	89 44 24 08          	mov    %eax,0x8(%esp)
    1855:	e8 a6 8e 00 00       	call   a700 <asprintf>
    185a:	85 c0                	test   %eax,%eax
    185c:	0f 88 e4 01 00 00    	js     1a46 <main+0x806>
    1862:	8b 44 24 7c          	mov    0x7c(%esp),%eax
    1866:	c7 04 24 4d ee 01 00 	movl   $0x1ee4d,(%esp)
    186d:	89 44 24 0c          	mov    %eax,0xc(%esp)
    1871:	8b 44 24 48          	mov    0x48(%esp),%eax
    1875:	89 44 24 08          	mov    %eax,0x8(%esp)
    1879:	8b 44 24 3c          	mov    0x3c(%esp),%eax
    187d:	89 44 24 04          	mov    %eax,0x4(%esp)
    1881:	e8 ba b3 00 00       	call   cc40 <printf>
    1886:	8b 44 24 7c          	mov    0x7c(%esp),%eax
    188a:	89 04 24             	mov    %eax,(%esp)
    188d:	e8 3e 03 01 00       	call   11bd0 <free>
    1892:	8b 44 24 3c          	mov    0x3c(%esp),%eax
    1896:	89 04 24             	mov    %eax,(%esp)
    1899:	e8 32 03 01 00       	call   11bd0 <free>
    189e:	8b 44 24 48          	mov    0x48(%esp),%eax
    18a2:	89 04 24             	mov    %eax,(%esp)
    18a5:	e8 26 03 01 00       	call   11bd0 <free>
    18aa:	c7 44 24 3c 00 00 00 	movl   $0x0,0x3c(%esp)
    18b1:	00 
    18b2:	c7 44 24 7c 00 00 00 	movl   $0x0,0x7c(%esp)
    18b9:	00 
    18ba:	c7 44 24 48 00 00 00 	movl   $0x0,0x48(%esp)
    18c1:	00 
    18c2:	e9 eb fe ff ff       	jmp    17b2 <main+0x572>
    18c7:	c7 44 24 04 f0 ed 01 	movl   $0x1edf0,0x4(%esp)
    18ce:	00 
    18cf:	8b 43 04             	mov    0x4(%ebx),%eax
    18d2:	89 04 24             	mov    %eax,(%esp)
    18d5:	e8 06 3b 00 00       	call   53e0 <str_cmp>
    18da:	85 c0                	test   %eax,%eax
    18dc:	75 64                	jne    1942 <main+0x702>
    18de:	8b 45 08             	mov    0x8(%ebp),%eax
    18e1:	83 e8 02             	sub    $0x2,%eax
    18e4:	0f 84 2d 01 00 00    	je     1a17 <main+0x7d7>
    18ea:	48                   	dec    %eax
    18eb:	0f 85 a6 00 00 00    	jne    1997 <main+0x757>
    18f1:	8b 5b 08             	mov    0x8(%ebx),%ebx
    18f4:	8d 44 24 4c          	lea    0x4c(%esp),%eax
    18f8:	89 44 24 04          	mov    %eax,0x4(%esp)
    18fc:	89 1c 24             	mov    %ebx,(%esp)
    18ff:	e8 1c 8d 00 00       	call   a620 <inetcfg_sroute_get_id>
    1904:	85 c0                	test   %eax,%eax
    1906:	0f 85 bb 01 00 00    	jne    1ac7 <main+0x887>
    190c:	8b 44 24 4c          	mov    0x4c(%esp),%eax
    1910:	89 04 24             	mov    %eax,(%esp)
    1913:	e8 38 8b 00 00       	call   a450 <inetcfg_sroute_delete>
    1918:	89 c2                	mov    %eax,%edx
    191a:	31 c0                	xor    %eax,%eax
    191c:	85 d2                	test   %edx,%edx
    191e:	0f 84 e0 f9 ff ff    	je     1304 <main+0xc4>
    1924:	89 54 24 08          	mov    %edx,0x8(%esp)
    1928:	89 5c 24 04          	mov    %ebx,0x4(%esp)
    192c:	c7 04 24 68 f1 01 00 	movl   $0x1f168,(%esp)
    1933:	e8 08 b3 00 00       	call   cc40 <printf>
    1938:	b8 01 00 00 00       	mov    $0x1,%eax
    193d:	e9 c2 f9 ff ff       	jmp    1304 <main+0xc4>
    1942:	8b 43 04             	mov    0x4(%ebx),%eax
    1945:	c7 04 24 f7 ed 01 00 	movl   $0x1edf7,(%esp)
    194c:	89 44 24 04          	mov    %eax,0x4(%esp)
    1950:	e8 eb b2 00 00       	call   cc40 <printf>
    1955:	e8 66 f7 ff ff       	call   10c0 <print_syntax>
    195a:	b8 01 00 00 00       	mov    $0x1,%eax
    195f:	e9 a0 f9 ff ff       	jmp    1304 <main+0xc4>
    1964:	c7 04 24 dc ef 01 00 	movl   $0x1efdc,(%esp)
    196b:	e8 d0 b2 00 00       	call   cc40 <printf>
    1970:	e9 a6 fd ff ff       	jmp    171b <main+0x4db>
    1975:	c7 04 24 54 ef 01 00 	movl   $0x1ef54,(%esp)
    197c:	e8 bf b2 00 00       	call   cc40 <printf>
    1981:	e9 f1 fa ff ff       	jmp    1477 <main+0x237>
    1986:	c7 04 24 7d ed 01 00 	movl   $0x1ed7d,(%esp)
    198d:	e8 ae b2 00 00       	call   cc40 <printf>
    1992:	e9 15 fd ff ff       	jmp    16ac <main+0x46c>
    1997:	c7 04 24 c7 ed 01 00 	movl   $0x1edc7,(%esp)
    199e:	e8 9d b2 00 00       	call   cc40 <printf>
    19a3:	e8 18 f7 ff ff       	call   10c0 <print_syntax>
    19a8:	eb 8e                	jmp    1938 <main+0x6f8>
    19aa:	85 c0                	test   %eax,%eax
    19ac:	0f 85 9e fd ff ff    	jne    1750 <main+0x510>
    19b2:	e9 8d fd ff ff       	jmp    1744 <main+0x504>
    19b7:	89 44 24 44          	mov    %eax,0x44(%esp)
    19bb:	89 74 24 04          	mov    %esi,0x4(%esp)
    19bf:	c7 04 24 98 f1 01 00 	movl   $0x1f198,(%esp)
    19c6:	e8 75 b2 00 00       	call   cc40 <printf>
    19cb:	e9 68 ff ff ff       	jmp    1938 <main+0x6f8>
    19d0:	89 44 24 08          	mov    %eax,0x8(%esp)
    19d4:	89 7c 24 04          	mov    %edi,0x4(%esp)
    19d8:	c7 04 24 3c f0 01 00 	movl   $0x1f03c,(%esp)
    19df:	e8 5c b2 00 00       	call   cc40 <printf>
    19e4:	e9 4f ff ff ff       	jmp    1938 <main+0x6f8>
    19e9:	89 74 24 04          	mov    %esi,0x4(%esp)
    19ed:	c7 04 24 60 f0 01 00 	movl   $0x1f060,(%esp)
    19f4:	e8 47 b2 00 00       	call   cc40 <printf>
    19f9:	e9 3a ff ff ff       	jmp    1938 <main+0x6f8>
    19fe:	c7 04 24 14 ee 01 00 	movl   $0x1ee14,(%esp)
    1a05:	e8 36 b2 00 00       	call   cc40 <printf>
    1a0a:	c7 44 24 48 00 00 00 	movl   $0x0,0x48(%esp)
    1a11:	00 
    1a12:	e9 95 fc ff ff       	jmp    16ac <main+0x46c>
    1a17:	c7 04 24 ad ed 01 00 	movl   $0x1edad,(%esp)
    1a1e:	e8 1d b2 00 00       	call   cc40 <printf>
    1a23:	e8 98 f6 ff ff       	call   10c0 <print_syntax>
    1a28:	e9 0b ff ff ff       	jmp    1938 <main+0x6f8>
    1a2d:	c7 04 24 14 ee 01 00 	movl   $0x1ee14,(%esp)
    1a34:	e8 07 b2 00 00       	call   cc40 <printf>
    1a39:	c7 44 24 3c 00 00 00 	movl   $0x0,0x3c(%esp)
    1a40:	00 
    1a41:	e9 0a fd ff ff       	jmp    1750 <main+0x510>
    1a46:	c7 04 24 14 ee 01 00 	movl   $0x1ee14,(%esp)
    1a4d:	e8 ee b1 00 00       	call   cc40 <printf>
    1a52:	c7 44 24 48 00 00 00 	movl   $0x0,0x48(%esp)
    1a59:	00 
    1a5a:	e9 f1 fc ff ff       	jmp    1750 <main+0x510>
    1a5f:	89 44 24 08          	mov    %eax,0x8(%esp)
    1a63:	89 74 24 04          	mov    %esi,0x4(%esp)
    1a67:	c7 04 24 3c f0 01 00 	movl   $0x1f03c,(%esp)
    1a6e:	e8 cd b1 00 00       	call   cc40 <printf>
    1a73:	e9 c0 fe ff ff       	jmp    1938 <main+0x6f8>
    1a78:	89 44 24 08          	mov    %eax,0x8(%esp)
    1a7c:	89 5c 24 04          	mov    %ebx,0x4(%esp)
    1a80:	c7 04 24 bc f0 01 00 	movl   $0x1f0bc,(%esp)
    1a87:	e8 b4 b1 00 00       	call   cc40 <printf>
    1a8c:	e9 a7 fe ff ff       	jmp    1938 <main+0x6f8>
    1a91:	89 14 24             	mov    %edx,(%esp)
    1a94:	e8 f7 5c 00 00       	call   7790 <str_error>
    1a99:	89 5c 24 04          	mov    %ebx,0x4(%esp)
    1a9d:	89 44 24 08          	mov    %eax,0x8(%esp)
    1aa1:	c7 04 24 8c f0 01 00 	movl   $0x1f08c,(%esp)
    1aa8:	e8 93 b1 00 00       	call   cc40 <printf>
    1aad:	e9 86 fe ff ff       	jmp    1938 <main+0x6f8>
    1ab2:	89 7c 24 04          	mov    %edi,0x4(%esp)
    1ab6:	c7 04 24 60 f0 01 00 	movl   $0x1f060,(%esp)
    1abd:	e8 7e b1 00 00       	call   cc40 <printf>
    1ac2:	e9 71 fe ff ff       	jmp    1938 <main+0x6f8>
    1ac7:	89 44 24 08          	mov    %eax,0x8(%esp)
    1acb:	89 5c 24 04          	mov    %ebx,0x4(%esp)
    1acf:	c7 04 24 3c f1 01 00 	movl   $0x1f13c,(%esp)
    1ad6:	e8 65 b1 00 00       	call   cc40 <printf>
    1adb:	e9 58 fe ff ff       	jmp    1938 <main+0x6f8>
    1ae0:	89 44 24 08          	mov    %eax,0x8(%esp)
    1ae4:	8b 44 24 2c          	mov    0x2c(%esp),%eax
    1ae8:	89 44 24 04          	mov    %eax,0x4(%esp)
    1aec:	c7 04 24 0c f1 01 00 	movl   $0x1f10c,(%esp)
    1af3:	e8 48 b1 00 00       	call   cc40 <printf>
    1af8:	e9 3b fe ff ff       	jmp    1938 <main+0x6f8>
    1afd:	66 90                	xchg   %ax,%ax
    1aff:	90                   	nop

00001b00 <exit>:
    1b00:	55                   	push   %ebp
    1b01:	89 e5                	mov    %esp,%ebp
    1b03:	83 ec 28             	sub    $0x28,%esp
    1b06:	80 3d 30 1f 02 00 00 	cmpb   $0x0,0x21f30
    1b0d:	75 3f                	jne    1b4e <exit+0x4e>
    1b0f:	c7 44 24 18 0a 00 00 	movl   $0xa,0x18(%esp)
    1b16:	00 
    1b17:	c7 44 24 14 00 00 00 	movl   $0x0,0x14(%esp)
    1b1e:	00 
    1b1f:	c7 44 24 10 00 00 00 	movl   $0x0,0x10(%esp)
    1b26:	00 
    1b27:	c7 44 24 0c 00 00 00 	movl   $0x0,0xc(%esp)
    1b2e:	00 
    1b2f:	c7 44 24 08 00 00 00 	movl   $0x0,0x8(%esp)
    1b36:	00 
    1b37:	c7 44 24 04 00 00 00 	movl   $0x0,0x4(%esp)
    1b3e:	00 
    1b3f:	c7 04 24 00 00 00 00 	movl   $0x0,(%esp)
    1b46:	ff 15 f4 1e 02 00    	call   *0x21ef4
    1b4c:	eb fe                	jmp    1b4c <exit+0x4c>
    1b4e:	e8 8d 8f 00 00       	call   aae0 <__stdio_done>
    1b53:	8b 45 08             	mov    0x8(%ebp),%eax
    1b56:	89 04 24             	mov    %eax,(%esp)
    1b59:	e8 72 7f 00 00       	call   9ad0 <task_retval>
    1b5e:	65 a1 00 00 00 00    	mov    %gs:0x0,%eax
    1b64:	8b 40 04             	mov    0x4(%eax),%eax
    1b67:	89 04 24             	mov    %eax,(%esp)
    1b6a:	e8 51 5d 00 00       	call   78c0 <fibril_teardown>
    1b6f:	eb 9e                	jmp    1b0f <exit+0xf>
    1b71:	eb 0d                	jmp    1b80 <abort>
    1b73:	90                   	nop
    1b74:	90                   	nop
    1b75:	90                   	nop
    1b76:	90                   	nop
    1b77:	90                   	nop
    1b78:	90                   	nop
    1b79:	90                   	nop
    1b7a:	90                   	nop
    1b7b:	90                   	nop
    1b7c:	90                   	nop
    1b7d:	90                   	nop
    1b7e:	90                   	nop
    1b7f:	90                   	nop

00001b80 <abort>:
    1b80:	55                   	push   %ebp
    1b81:	89 e5                	mov    %esp,%ebp
    1b83:	83 ec 28             	sub    $0x28,%esp
    1b86:	c7 44 24 18 0a 00 00 	movl   $0xa,0x18(%esp)
    1b8d:	00 
    1b8e:	c7 44 24 14 00 00 00 	movl   $0x0,0x14(%esp)
    1b95:	00 
    1b96:	c7 44 24 10 00 00 00 	movl   $0x0,0x10(%esp)
    1b9d:	00 
    1b9e:	c7 44 24 0c 00 00 00 	movl   $0x0,0xc(%esp)
    1ba5:	00 
    1ba6:	c7 44 24 08 00 00 00 	movl   $0x0,0x8(%esp)
    1bad:	00 
    1bae:	c7 44 24 04 00 00 00 	movl   $0x0,0x4(%esp)
    1bb5:	00 
    1bb6:	c7 04 24 01 00 00 00 	movl   $0x1,(%esp)
    1bbd:	ff 15 f4 1e 02 00    	call   *0x21ef4
    1bc3:	eb fe                	jmp    1bc3 <abort+0x43>
    1bc5:	8d 74 26 00          	lea    0x0(%esi,%eiz,1),%esi
    1bc9:	8d bc 27 00 00 00 00 	lea    0x0(%edi,%eiz,1),%edi

00001bd0 <__main>:
    1bd0:	55                   	push   %ebp
    1bd1:	89 e5                	mov    %esp,%ebp
    1bd3:	57                   	push   %edi
    1bd4:	56                   	push   %esi
    1bd5:	53                   	push   %ebx
    1bd6:	83 ec 2c             	sub    $0x2c,%esp
    1bd9:	8b 5d 08             	mov    0x8(%ebp),%ebx
    1bdc:	e8 df fd 00 00       	call   119c0 <__malloc_init>
    1be1:	e8 ea 1c 01 00       	call   138d0 <__async_init>
    1be6:	e8 55 5c 00 00       	call   7840 <fibril_setup>
    1beb:	85 c0                	test   %eax,%eax
    1bed:	0f 84 82 00 00 00    	je     1c75 <__main+0xa5>
    1bf3:	c7 44 24 18 01 00 00 	movl   $0x1,0x18(%esp)
    1bfa:	00 
    1bfb:	c7 44 24 14 00 00 00 	movl   $0x0,0x14(%esp)
    1c02:	00 
    1c03:	c7 44 24 10 00 00 00 	movl   $0x0,0x10(%esp)
    1c0a:	00 
    1c0b:	c7 44 24 0c 00 00 00 	movl   $0x0,0xc(%esp)
    1c12:	00 
    1c13:	c7 44 24 08 00 00 00 	movl   $0x0,0x8(%esp)
    1c1a:	00 
    1c1b:	c7 44 24 04 00 00 00 	movl   $0x0,0x4(%esp)
    1c22:	00 
    1c23:	8b 40 30             	mov    0x30(%eax),%eax
    1c26:	89 04 24             	mov    %eax,(%esp)
    1c29:	ff 15 f4 1e 02 00    	call   *0x21ef4
    1c2f:	89 1d 28 1f 02 00    	mov    %ebx,0x21f28
    1c35:	c6 05 30 1f 02 00 01 	movb   $0x1,0x21f30
    1c3c:	85 db                	test   %ebx,%ebx
    1c3e:	74 3a                	je     1c7a <__main+0xaa>
    1c40:	8b 43 10             	mov    0x10(%ebx),%eax
    1c43:	8b 73 08             	mov    0x8(%ebx),%esi
    1c46:	8b 7b 0c             	mov    0xc(%ebx),%edi
    1c49:	89 04 24             	mov    %eax,(%esp)
    1c4c:	e8 ff 8b 00 00       	call   a850 <__stdio_init>
    1c51:	a1 28 1f 02 00       	mov    0x21f28,%eax
    1c56:	8b 40 04             	mov    0x4(%eax),%eax
    1c59:	89 04 24             	mov    %eax,(%esp)
    1c5c:	e8 cf 99 01 00       	call   1b630 <chdir>
    1c61:	89 7c 24 04          	mov    %edi,0x4(%esp)
    1c65:	89 34 24             	mov    %esi,(%esp)
    1c68:	e8 d3 f5 ff ff       	call   1240 <main>
    1c6d:	89 04 24             	mov    %eax,(%esp)
    1c70:	e8 8b fe ff ff       	call   1b00 <exit>
    1c75:	e8 06 ff ff ff       	call   1b80 <abort>
    1c7a:	c7 04 24 00 00 00 00 	movl   $0x0,(%esp)
    1c81:	31 ff                	xor    %edi,%edi
    1c83:	e8 c8 8b 00 00       	call   a850 <__stdio_init>
    1c88:	31 f6                	xor    %esi,%esi
    1c8a:	eb d5                	jmp    1c61 <__main+0x91>
    1c8c:	66 90                	xchg   %ax,%ax
    1c8e:	66 90                	xchg   %ax,%ax

00001c90 <loc_cb_conn>:
    1c90:	55                   	push   %ebp
    1c91:	89 e5                	mov    %esp,%ebp
    1c93:	56                   	push   %esi
    1c94:	53                   	push   %ebx
    1c95:	83 ec 50             	sub    $0x50,%esp
    1c98:	8d 5d d4             	lea    -0x2c(%ebp),%ebx
    1c9b:	90                   	nop
    1c9c:	8d 74 26 00          	lea    0x0(%esi,%eiz,1),%esi
    1ca0:	c7 44 24 04 00 00 00 	movl   $0x0,0x4(%esp)
    1ca7:	00 
    1ca8:	89 1c 24             	mov    %ebx,(%esp)
    1cab:	e8 20 13 01 00       	call   12fd0 <async_get_call_timeout>
    1cb0:	8b 55 d4             	mov    -0x2c(%ebp),%edx
    1cb3:	85 d2                	test   %edx,%edx
    1cb5:	74 61                	je     1d18 <loc_cb_conn+0x88>
    1cb7:	81 fa 00 04 00 00    	cmp    $0x400,%edx
    1cbd:	74 19                	je     1cd8 <loc_cb_conn+0x48>
    1cbf:	c7 44 24 04 f5 ff ff 	movl   $0xfffffff5,0x4(%esp)
    1cc6:	ff 
    1cc7:	89 04 24             	mov    %eax,(%esp)
    1cca:	e8 31 29 01 00       	call   14600 <async_answer_0>
    1ccf:	eb cf                	jmp    1ca0 <loc_cb_conn+0x10>
    1cd1:	8d b4 26 00 00 00 00 	lea    0x0(%esi,%eiz,1),%esi
    1cd8:	c7 04 24 60 1d 02 00 	movl   $0x21d60,(%esp)
    1cdf:	89 45 c4             	mov    %eax,-0x3c(%ebp)
    1ce2:	e8 99 64 00 00       	call   8180 <fibril_mutex_lock>
    1ce7:	c7 04 24 60 1d 02 00 	movl   $0x21d60,(%esp)
    1cee:	8b 35 44 1f 02 00    	mov    0x21f44,%esi
    1cf4:	e8 a7 65 00 00       	call   82a0 <fibril_mutex_unlock>
    1cf9:	8b 45 c4             	mov    -0x3c(%ebp),%eax
    1cfc:	c7 44 24 04 00 00 00 	movl   $0x0,0x4(%esp)
    1d03:	00 
    1d04:	89 04 24             	mov    %eax,(%esp)
    1d07:	e8 f4 28 01 00       	call   14600 <async_answer_0>
    1d0c:	85 f6                	test   %esi,%esi
    1d0e:	74 90                	je     1ca0 <loc_cb_conn+0x10>
    1d10:	ff d6                	call   *%esi
    1d12:	eb 8c                	jmp    1ca0 <loc_cb_conn+0x10>
    1d14:	8d 74 26 00          	lea    0x0(%esi,%eiz,1),%esi
    1d18:	83 c4 50             	add    $0x50,%esp
    1d1b:	5b                   	pop    %ebx
    1d1c:	5e                   	pop    %esi
    1d1d:	5d                   	pop    %ebp
    1d1e:	c3                   	ret    
    1d1f:	90                   	nop

00001d20 <loc_exchange_begin.part.0>:
    1d20:	55                   	push   %ebp
    1d21:	89 e5                	mov    %esp,%ebp
    1d23:	83 ec 18             	sub    $0x18,%esp
    1d26:	c7 04 24 30 1d 02 00 	movl   $0x21d30,(%esp)
    1d2d:	e8 4e 64 00 00       	call   8180 <fibril_mutex_lock>
    1d32:	a1 34 1f 02 00       	mov    0x21f34,%eax
    1d37:	85 c0                	test   %eax,%eax
    1d39:	74 25                	je     1d60 <loc_exchange_begin.part.0+0x40>
    1d3b:	c7 04 24 30 1d 02 00 	movl   $0x21d30,(%esp)
    1d42:	e8 59 65 00 00       	call   82a0 <fibril_mutex_unlock>
    1d47:	a1 34 1f 02 00       	mov    0x21f34,%eax
    1d4c:	85 c0                	test   %eax,%eax
    1d4e:	74 40                	je     1d90 <loc_exchange_begin.part.0+0x70>
    1d50:	89 04 24             	mov    %eax,(%esp)
    1d53:	e8 a8 32 01 00       	call   15000 <async_exchange_begin>
    1d58:	c9                   	leave  
    1d59:	c3                   	ret    
    1d5a:	8d b6 00 00 00 00    	lea    0x0(%esi),%esi
    1d60:	c7 44 24 0c 00 00 00 	movl   $0x0,0xc(%esp)
    1d67:	00 
    1d68:	c7 44 24 08 01 00 00 	movl   $0x1,0x8(%esp)
    1d6f:	00 
    1d70:	c7 44 24 04 6c 6f 63 	movl   $0x20636f6c,0x4(%esp)
    1d77:	20 
    1d78:	c7 04 24 02 00 00 00 	movl   $0x2,(%esp)
    1d7f:	e8 4c 05 01 00       	call   122d0 <service_connect>
    1d84:	a3 34 1f 02 00       	mov    %eax,0x21f34
    1d89:	eb b0                	jmp    1d3b <loc_exchange_begin.part.0+0x1b>
    1d8b:	90                   	nop
    1d8c:	8d 74 26 00          	lea    0x0(%esi,%eiz,1),%esi
    1d90:	31 c0                	xor    %eax,%eax
    1d92:	c9                   	leave  
    1d93:	c3                   	ret    
    1d94:	8d b6 00 00 00 00    	lea    0x0(%esi),%esi
    1d9a:	8d bf 00 00 00 00    	lea    0x0(%edi),%edi

00001da0 <loc_get_name_internal>:
    1da0:	55                   	push   %ebp
    1da1:	89 e5                	mov    %esp,%ebp
    1da3:	57                   	push   %edi
    1da4:	56                   	push   %esi
    1da5:	53                   	push   %ebx
    1da6:	81 ec 8c 01 00 00    	sub    $0x18c,%esp
    1dac:	c7 01 00 00 00 00    	movl   $0x0,(%ecx)
    1db2:	89 85 94 fe ff ff    	mov    %eax,-0x16c(%ebp)
    1db8:	89 d7                	mov    %edx,%edi
    1dba:	c7 04 24 40 1d 02 00 	movl   $0x21d40,(%esp)
    1dc1:	89 ce                	mov    %ecx,%esi
    1dc3:	e8 b8 63 00 00       	call   8180 <fibril_mutex_lock>
    1dc8:	a1 40 1f 02 00       	mov    0x21f40,%eax
    1dcd:	85 c0                	test   %eax,%eax
    1dcf:	75 39                	jne    1e0a <loc_get_name_internal+0x6a>
    1dd1:	c7 04 24 50 1d 02 00 	movl   $0x21d50,(%esp)
    1dd8:	8b 1d 3c 1f 02 00    	mov    0x21f3c,%ebx
    1dde:	e8 9d 63 00 00       	call   8180 <fibril_mutex_lock>
    1de3:	a1 40 1f 02 00       	mov    0x21f40,%eax
    1de8:	85 c0                	test   %eax,%eax
    1dea:	0f 84 40 01 00 00    	je     1f30 <loc_get_name_internal+0x190>
    1df0:	c7 04 24 50 1d 02 00 	movl   $0x21d50,(%esp)
    1df7:	e8 a4 64 00 00       	call   82a0 <fibril_mutex_unlock>
    1dfc:	8b 1d 40 1f 02 00    	mov    0x21f40,%ebx
    1e02:	85 db                	test   %ebx,%ebx
    1e04:	0f 84 3e 01 00 00    	je     1f48 <loc_get_name_internal+0x1a8>
    1e0a:	c7 04 24 40 1d 02 00 	movl   $0x21d40,(%esp)
    1e11:	e8 8a 64 00 00       	call   82a0 <fibril_mutex_unlock>
    1e16:	c7 04 24 50 1d 02 00 	movl   $0x21d50,(%esp)
    1e1d:	8b 1d 40 1f 02 00    	mov    0x21f40,%ebx
    1e23:	e8 58 63 00 00       	call   8180 <fibril_mutex_lock>
    1e28:	8b 0d 3c 1f 02 00    	mov    0x21f3c,%ecx
    1e2e:	85 c9                	test   %ecx,%ecx
    1e30:	0f 84 62 01 00 00    	je     1f98 <loc_get_name_internal+0x1f8>
    1e36:	c7 04 24 50 1d 02 00 	movl   $0x21d50,(%esp)
    1e3d:	e8 5e 64 00 00       	call   82a0 <fibril_mutex_unlock>
    1e42:	a1 40 1f 02 00       	mov    0x21f40,%eax
    1e47:	89 04 24             	mov    %eax,(%esp)
    1e4a:	e8 b1 31 01 00       	call   15000 <async_exchange_begin>
    1e4f:	89 7c 24 08          	mov    %edi,0x8(%esp)
    1e53:	89 c3                	mov    %eax,%ebx
    1e55:	8d 85 c4 fe ff ff    	lea    -0x13c(%ebp),%eax
    1e5b:	89 44 24 18          	mov    %eax,0x18(%esp)
    1e5f:	8b 85 94 fe ff ff    	mov    -0x16c(%ebp),%eax
    1e65:	c7 44 24 14 00 00 00 	movl   $0x0,0x14(%esp)
    1e6c:	00 
    1e6d:	c7 44 24 10 00 00 00 	movl   $0x0,0x10(%esp)
    1e74:	00 
    1e75:	c7 44 24 0c 00 00 00 	movl   $0x0,0xc(%esp)
    1e7c:	00 
    1e7d:	89 44 24 04          	mov    %eax,0x4(%esp)
    1e81:	89 1c 24             	mov    %ebx,(%esp)
    1e84:	e8 17 1b 01 00       	call   139a0 <async_send_fast>
    1e89:	c7 44 24 08 ff 00 00 	movl   $0xff,0x8(%esp)
    1e90:	00 
    1e91:	89 c7                	mov    %eax,%edi
    1e93:	8d 85 a0 fe ff ff    	lea    -0x160(%ebp),%eax
    1e99:	89 44 24 0c          	mov    %eax,0xc(%esp)
    1e9d:	8d 85 e8 fe ff ff    	lea    -0x118(%ebp),%eax
    1ea3:	89 44 24 04          	mov    %eax,0x4(%esp)
    1ea7:	89 1c 24             	mov    %ebx,(%esp)
    1eaa:	e8 41 3a 01 00       	call   158f0 <async_data_read>
    1eaf:	8d 8d 98 fe ff ff    	lea    -0x168(%ebp),%ecx
    1eb5:	89 4c 24 04          	mov    %ecx,0x4(%esp)
    1eb9:	89 04 24             	mov    %eax,(%esp)
    1ebc:	e8 af 1c 01 00       	call   13b70 <async_wait_for>
    1ec1:	89 1c 24             	mov    %ebx,(%esp)
    1ec4:	e8 a7 34 01 00       	call   15370 <async_exchange_end>
    1ec9:	8b 95 98 fe ff ff    	mov    -0x168(%ebp),%edx
    1ecf:	85 d2                	test   %edx,%edx
    1ed1:	0f 85 a1 00 00 00    	jne    1f78 <loc_get_name_internal+0x1d8>
    1ed7:	8d 85 9c fe ff ff    	lea    -0x164(%ebp),%eax
    1edd:	89 3c 24             	mov    %edi,(%esp)
    1ee0:	89 44 24 04          	mov    %eax,0x4(%esp)
    1ee4:	e8 87 1c 01 00       	call   13b70 <async_wait_for>
    1ee9:	8b 85 9c fe ff ff    	mov    -0x164(%ebp),%eax
    1eef:	85 c0                	test   %eax,%eax
    1ef1:	75 31                	jne    1f24 <loc_get_name_internal+0x184>
    1ef3:	8b 85 a8 fe ff ff    	mov    -0x158(%ebp),%eax
    1ef9:	3d ff 00 00 00       	cmp    $0xff,%eax
    1efe:	0f 87 a7 00 00 00    	ja     1fab <loc_get_name_internal+0x20b>
    1f04:	c6 84 05 e8 fe ff ff 	movb   $0x0,-0x118(%ebp,%eax,1)
    1f0b:	00 
    1f0c:	8d 85 e8 fe ff ff    	lea    -0x118(%ebp),%eax
    1f12:	89 04 24             	mov    %eax,(%esp)
    1f15:	e8 36 4f 00 00       	call   6e50 <str_dup>
    1f1a:	83 f8 01             	cmp    $0x1,%eax
    1f1d:	89 06                	mov    %eax,(%esi)
    1f1f:	19 c0                	sbb    %eax,%eax
    1f21:	83 e0 fe             	and    $0xfffffffe,%eax
    1f24:	81 c4 8c 01 00 00    	add    $0x18c,%esp
    1f2a:	5b                   	pop    %ebx
    1f2b:	5e                   	pop    %esi
    1f2c:	5f                   	pop    %edi
    1f2d:	5d                   	pop    %ebp
    1f2e:	c3                   	ret    
    1f2f:	90                   	nop
    1f30:	85 db                	test   %ebx,%ebx
    1f32:	0f 84 b8 fe ff ff    	je     1df0 <loc_get_name_internal+0x50>
    1f38:	89 1d 40 1f 02 00    	mov    %ebx,0x21f40
    1f3e:	e9 ad fe ff ff       	jmp    1df0 <loc_get_name_internal+0x50>
    1f43:	90                   	nop
    1f44:	8d 74 26 00          	lea    0x0(%esi,%eiz,1),%esi
    1f48:	c7 44 24 0c 00 00 00 	movl   $0x0,0xc(%esp)
    1f4f:	00 
    1f50:	c7 44 24 08 02 00 00 	movl   $0x2,0x8(%esp)
    1f57:	00 
    1f58:	c7 44 24 04 6c 6f 63 	movl   $0x20636f6c,0x4(%esp)
    1f5f:	20 
    1f60:	c7 04 24 02 00 00 00 	movl   $0x2,(%esp)
    1f67:	e8 e4 03 01 00       	call   12350 <service_connect_blocking>
    1f6c:	a3 40 1f 02 00       	mov    %eax,0x21f40
    1f71:	e9 57 fe ff ff       	jmp    1dcd <loc_get_name_internal+0x2d>
    1f76:	66 90                	xchg   %ax,%ax
    1f78:	89 3c 24             	mov    %edi,(%esp)
    1f7b:	e8 40 1e 01 00       	call   13dc0 <async_forget>
    1f80:	8b 85 98 fe ff ff    	mov    -0x168(%ebp),%eax
    1f86:	81 c4 8c 01 00 00    	add    $0x18c,%esp
    1f8c:	5b                   	pop    %ebx
    1f8d:	5e                   	pop    %esi
    1f8e:	5f                   	pop    %edi
    1f8f:	5d                   	pop    %ebp
    1f90:	c3                   	ret    
    1f91:	8d b4 26 00 00 00 00 	lea    0x0(%esi,%eiz,1),%esi
    1f98:	85 db                	test   %ebx,%ebx
    1f9a:	0f 84 96 fe ff ff    	je     1e36 <loc_get_name_internal+0x96>
    1fa0:	89 1d 3c 1f 02 00    	mov    %ebx,0x21f3c
    1fa6:	e9 8b fe ff ff       	jmp    1e36 <loc_get_name_internal+0x96>
    1fab:	c7 44 24 08 9e 01 00 	movl   $0x19e,0x8(%esp)
    1fb2:	00 
    1fb3:	c7 44 24 04 bc f1 01 	movl   $0x1f1bc,0x4(%esp)
    1fba:	00 
    1fbb:	c7 04 24 ca f1 01 00 	movl   $0x1f1ca,(%esp)
    1fc2:	e8 d9 a2 01 00       	call   1c2a0 <assert_abort>
    1fc7:	89 f6                	mov    %esi,%esi
    1fc9:	8d bc 27 00 00 00 00 	lea    0x0(%edi,%eiz,1),%edi

00001fd0 <loc_get_ids_internal>:
    1fd0:	55                   	push   %ebp
    1fd1:	89 e5                	mov    %esp,%ebp
    1fd3:	57                   	push   %edi
    1fd4:	56                   	push   %esi
    1fd5:	53                   	push   %ebx
    1fd6:	83 ec 7c             	sub    $0x7c,%esp
    1fd9:	89 55 ac             	mov    %edx,-0x54(%ebp)
    1fdc:	8b 55 08             	mov    0x8(%ebp),%edx
    1fdf:	c7 01 00 00 00 00    	movl   $0x0,(%ecx)
    1fe5:	89 45 b0             	mov    %eax,-0x50(%ebp)
    1fe8:	89 4d a8             	mov    %ecx,-0x58(%ebp)
    1feb:	c7 02 00 00 00 00    	movl   $0x0,(%edx)
    1ff1:	c7 04 24 40 1d 02 00 	movl   $0x21d40,(%esp)
    1ff8:	e8 83 61 00 00       	call   8180 <fibril_mutex_lock>
    1ffd:	a1 40 1f 02 00       	mov    0x21f40,%eax
    2002:	85 c0                	test   %eax,%eax
    2004:	75 39                	jne    203f <loc_get_ids_internal+0x6f>
    2006:	c7 04 24 50 1d 02 00 	movl   $0x21d50,(%esp)
    200d:	8b 1d 3c 1f 02 00    	mov    0x21f3c,%ebx
    2013:	e8 68 61 00 00       	call   8180 <fibril_mutex_lock>
    2018:	8b 15 40 1f 02 00    	mov    0x21f40,%edx
    201e:	85 d2                	test   %edx,%edx
    2020:	0f 84 5a 02 00 00    	je     2280 <loc_get_ids_internal+0x2b0>
    2026:	c7 04 24 50 1d 02 00 	movl   $0x21d50,(%esp)
    202d:	e8 6e 62 00 00       	call   82a0 <fibril_mutex_unlock>
    2032:	a1 40 1f 02 00       	mov    0x21f40,%eax
    2037:	85 c0                	test   %eax,%eax
    2039:	0f 84 59 02 00 00    	je     2298 <loc_get_ids_internal+0x2c8>
    203f:	c7 04 24 40 1d 02 00 	movl   $0x21d40,(%esp)
    2046:	e8 55 62 00 00       	call   82a0 <fibril_mutex_unlock>
    204b:	c7 04 24 50 1d 02 00 	movl   $0x21d50,(%esp)
    2052:	8b 1d 40 1f 02 00    	mov    0x21f40,%ebx
    2058:	e8 23 61 00 00       	call   8180 <fibril_mutex_lock>
    205d:	a1 3c 1f 02 00       	mov    0x21f3c,%eax
    2062:	85 c0                	test   %eax,%eax
    2064:	0f 84 d5 02 00 00    	je     233f <loc_get_ids_internal+0x36f>
    206a:	c7 04 24 50 1d 02 00 	movl   $0x21d50,(%esp)
    2071:	e8 2a 62 00 00       	call   82a0 <fibril_mutex_unlock>
    2076:	a1 40 1f 02 00       	mov    0x21f40,%eax
    207b:	89 04 24             	mov    %eax,(%esp)
    207e:	e8 7d 2f 01 00       	call   15000 <async_exchange_begin>
    2083:	8b 55 ac             	mov    -0x54(%ebp),%edx
    2086:	89 c6                	mov    %eax,%esi
    2088:	8d 45 c4             	lea    -0x3c(%ebp),%eax
    208b:	89 44 24 18          	mov    %eax,0x18(%esp)
    208f:	8b 45 b0             	mov    -0x50(%ebp),%eax
    2092:	89 54 24 08          	mov    %edx,0x8(%esp)
    2096:	c7 44 24 14 00 00 00 	movl   $0x0,0x14(%esp)
    209d:	00 
    209e:	c7 44 24 10 00 00 00 	movl   $0x0,0x10(%esp)
    20a5:	00 
    20a6:	c7 44 24 0c 00 00 00 	movl   $0x0,0xc(%esp)
    20ad:	00 
    20ae:	89 44 24 04          	mov    %eax,0x4(%esp)
    20b2:	89 34 24             	mov    %esi,(%esp)
    20b5:	e8 e6 18 01 00       	call   139a0 <async_send_fast>
    20ba:	c7 44 24 08 00 00 00 	movl   $0x0,0x8(%esp)
    20c1:	00 
    20c2:	c7 44 24 04 00 00 00 	movl   $0x0,0x4(%esp)
    20c9:	00 
    20ca:	89 34 24             	mov    %esi,(%esp)
    20cd:	89 c3                	mov    %eax,%ebx
    20cf:	e8 fc 38 01 00       	call   159d0 <async_data_read_start>
    20d4:	89 34 24             	mov    %esi,(%esp)
    20d7:	89 c7                	mov    %eax,%edi
    20d9:	e8 92 32 01 00       	call   15370 <async_exchange_end>
    20de:	85 ff                	test   %edi,%edi
    20e0:	0f 85 3d 02 00 00    	jne    2323 <loc_get_ids_internal+0x353>
    20e6:	8d 55 c0             	lea    -0x40(%ebp),%edx
    20e9:	89 1c 24             	mov    %ebx,(%esp)
    20ec:	89 54 24 04          	mov    %edx,0x4(%esp)
    20f0:	e8 7b 1a 01 00       	call   13b70 <async_wait_for>
    20f5:	8b 45 c0             	mov    -0x40(%ebp),%eax
    20f8:	85 c0                	test   %eax,%eax
    20fa:	0f 85 72 01 00 00    	jne    2272 <loc_get_ids_internal+0x2a2>
    2100:	8b 7d c8             	mov    -0x38(%ebp),%edi
    2103:	89 3c 24             	mov    %edi,(%esp)
    2106:	e8 b5 f9 00 00       	call   11ac0 <malloc>
    210b:	89 c6                	mov    %eax,%esi
    210d:	85 c0                	test   %eax,%eax
    210f:	0f 85 0a 01 00 00    	jne    221f <loc_get_ids_internal+0x24f>
    2115:	e9 1b 02 00 00       	jmp    2335 <loc_get_ids_internal+0x365>
    211a:	8d b6 00 00 00 00    	lea    0x0(%esi),%esi
    2120:	c7 04 24 50 1d 02 00 	movl   $0x21d50,(%esp)
    2127:	e8 74 61 00 00       	call   82a0 <fibril_mutex_unlock>
    212c:	a1 40 1f 02 00       	mov    0x21f40,%eax
    2131:	85 c0                	test   %eax,%eax
    2133:	0f 84 8f 01 00 00    	je     22c8 <loc_get_ids_internal+0x2f8>
    2139:	c7 04 24 40 1d 02 00 	movl   $0x21d40,(%esp)
    2140:	e8 5b 61 00 00       	call   82a0 <fibril_mutex_unlock>
    2145:	c7 04 24 50 1d 02 00 	movl   $0x21d50,(%esp)
    214c:	8b 1d 40 1f 02 00    	mov    0x21f40,%ebx
    2152:	e8 29 60 00 00       	call   8180 <fibril_mutex_lock>
    2157:	a1 3c 1f 02 00       	mov    0x21f3c,%eax
    215c:	85 c0                	test   %eax,%eax
    215e:	0f 84 ac 01 00 00    	je     2310 <loc_get_ids_internal+0x340>
    2164:	c7 04 24 50 1d 02 00 	movl   $0x21d50,(%esp)
    216b:	e8 30 61 00 00       	call   82a0 <fibril_mutex_unlock>
    2170:	a1 40 1f 02 00       	mov    0x21f40,%eax
    2175:	89 04 24             	mov    %eax,(%esp)
    2178:	e8 83 2e 01 00       	call   15000 <async_exchange_begin>
    217d:	8b 55 ac             	mov    -0x54(%ebp),%edx
    2180:	89 c3                	mov    %eax,%ebx
    2182:	8d 45 c4             	lea    -0x3c(%ebp),%eax
    2185:	89 44 24 18          	mov    %eax,0x18(%esp)
    2189:	8b 45 b0             	mov    -0x50(%ebp),%eax
    218c:	89 54 24 08          	mov    %edx,0x8(%esp)
    2190:	c7 44 24 14 00 00 00 	movl   $0x0,0x14(%esp)
    2197:	00 
    2198:	c7 44 24 10 00 00 00 	movl   $0x0,0x10(%esp)
    219f:	00 
    21a0:	c7 44 24 0c 00 00 00 	movl   $0x0,0xc(%esp)
    21a7:	00 
    21a8:	89 44 24 04          	mov    %eax,0x4(%esp)
    21ac:	89 1c 24             	mov    %ebx,(%esp)
    21af:	e8 ec 17 01 00       	call   139a0 <async_send_fast>
    21b4:	89 7c 24 08          	mov    %edi,0x8(%esp)
    21b8:	89 74 24 04          	mov    %esi,0x4(%esp)
    21bc:	89 1c 24             	mov    %ebx,(%esp)
    21bf:	89 45 b4             	mov    %eax,-0x4c(%ebp)
    21c2:	e8 09 38 01 00       	call   159d0 <async_data_read_start>
    21c7:	89 1c 24             	mov    %ebx,(%esp)
    21ca:	89 45 a4             	mov    %eax,-0x5c(%ebp)
    21cd:	e8 9e 31 01 00       	call   15370 <async_exchange_end>
    21d2:	8b 45 a4             	mov    -0x5c(%ebp),%eax
    21d5:	85 c0                	test   %eax,%eax
    21d7:	0f 85 1b 01 00 00    	jne    22f8 <loc_get_ids_internal+0x328>
    21dd:	8d 55 c0             	lea    -0x40(%ebp),%edx
    21e0:	89 45 a4             	mov    %eax,-0x5c(%ebp)
    21e3:	89 54 24 04          	mov    %edx,0x4(%esp)
    21e7:	8b 55 b4             	mov    -0x4c(%ebp),%edx
    21ea:	89 14 24             	mov    %edx,(%esp)
    21ed:	e8 7e 19 01 00       	call   13b70 <async_wait_for>
    21f2:	8b 55 c0             	mov    -0x40(%ebp),%edx
    21f5:	85 d2                	test   %edx,%edx
    21f7:	8b 45 a4             	mov    -0x5c(%ebp),%eax
    21fa:	75 74                	jne    2270 <loc_get_ids_internal+0x2a0>
    21fc:	8b 5d c8             	mov    -0x38(%ebp),%ebx
    21ff:	39 df                	cmp    %ebx,%edi
    2201:	0f 83 4b 01 00 00    	jae    2352 <loc_get_ids_internal+0x382>
    2207:	89 34 24             	mov    %esi,(%esp)
    220a:	89 5c 24 04          	mov    %ebx,0x4(%esp)
    220e:	e8 0d fc 00 00       	call   11e20 <realloc>
    2213:	89 df                	mov    %ebx,%edi
    2215:	89 c6                	mov    %eax,%esi
    2217:	85 c0                	test   %eax,%eax
    2219:	0f 84 16 01 00 00    	je     2335 <loc_get_ids_internal+0x365>
    221f:	c7 04 24 40 1d 02 00 	movl   $0x21d40,(%esp)
    2226:	e8 55 5f 00 00       	call   8180 <fibril_mutex_lock>
    222b:	a1 40 1f 02 00       	mov    0x21f40,%eax
    2230:	85 c0                	test   %eax,%eax
    2232:	0f 85 01 ff ff ff    	jne    2139 <loc_get_ids_internal+0x169>
    2238:	c7 04 24 50 1d 02 00 	movl   $0x21d50,(%esp)
    223f:	8b 1d 3c 1f 02 00    	mov    0x21f3c,%ebx
    2245:	e8 36 5f 00 00       	call   8180 <fibril_mutex_lock>
    224a:	a1 40 1f 02 00       	mov    0x21f40,%eax
    224f:	85 c0                	test   %eax,%eax
    2251:	0f 85 c9 fe ff ff    	jne    2120 <loc_get_ids_internal+0x150>
    2257:	85 db                	test   %ebx,%ebx
    2259:	0f 84 c1 fe ff ff    	je     2120 <loc_get_ids_internal+0x150>
    225f:	89 1d 40 1f 02 00    	mov    %ebx,0x21f40
    2265:	e9 b6 fe ff ff       	jmp    2120 <loc_get_ids_internal+0x150>
    226a:	8d b6 00 00 00 00    	lea    0x0(%esi),%esi
    2270:	89 d0                	mov    %edx,%eax
    2272:	89 c7                	mov    %eax,%edi
    2274:	83 c4 7c             	add    $0x7c,%esp
    2277:	89 f8                	mov    %edi,%eax
    2279:	5b                   	pop    %ebx
    227a:	5e                   	pop    %esi
    227b:	5f                   	pop    %edi
    227c:	5d                   	pop    %ebp
    227d:	c3                   	ret    
    227e:	66 90                	xchg   %ax,%ax
    2280:	85 db                	test   %ebx,%ebx
    2282:	0f 84 9e fd ff ff    	je     2026 <loc_get_ids_internal+0x56>
    2288:	89 1d 40 1f 02 00    	mov    %ebx,0x21f40
    228e:	e9 93 fd ff ff       	jmp    2026 <loc_get_ids_internal+0x56>
    2293:	90                   	nop
    2294:	8d 74 26 00          	lea    0x0(%esi,%eiz,1),%esi
    2298:	c7 44 24 0c 00 00 00 	movl   $0x0,0xc(%esp)
    229f:	00 
    22a0:	c7 44 24 08 02 00 00 	movl   $0x2,0x8(%esp)
    22a7:	00 
    22a8:	c7 44 24 04 6c 6f 63 	movl   $0x20636f6c,0x4(%esp)
    22af:	20 
    22b0:	c7 04 24 02 00 00 00 	movl   $0x2,(%esp)
    22b7:	e8 94 00 01 00       	call   12350 <service_connect_blocking>
    22bc:	a3 40 1f 02 00       	mov    %eax,0x21f40
    22c1:	e9 3c fd ff ff       	jmp    2002 <loc_get_ids_internal+0x32>
    22c6:	66 90                	xchg   %ax,%ax
    22c8:	c7 44 24 0c 00 00 00 	movl   $0x0,0xc(%esp)
    22cf:	00 
    22d0:	c7 44 24 08 02 00 00 	movl   $0x2,0x8(%esp)
    22d7:	00 
    22d8:	c7 44 24 04 6c 6f 63 	movl   $0x20636f6c,0x4(%esp)
    22df:	20 
    22e0:	c7 04 24 02 00 00 00 	movl   $0x2,(%esp)
    22e7:	e8 64 00 01 00       	call   12350 <service_connect_blocking>
    22ec:	a3 40 1f 02 00       	mov    %eax,0x21f40
    22f1:	e9 3a ff ff ff       	jmp    2230 <loc_get_ids_internal+0x260>
    22f6:	66 90                	xchg   %ax,%ax
    22f8:	89 c7                	mov    %eax,%edi
    22fa:	8b 45 b4             	mov    -0x4c(%ebp),%eax
    22fd:	89 04 24             	mov    %eax,(%esp)
    2300:	e8 bb 1a 01 00       	call   13dc0 <async_forget>
    2305:	83 c4 7c             	add    $0x7c,%esp
    2308:	89 f8                	mov    %edi,%eax
    230a:	5b                   	pop    %ebx
    230b:	5e                   	pop    %esi
    230c:	5f                   	pop    %edi
    230d:	5d                   	pop    %ebp
    230e:	c3                   	ret    
    230f:	90                   	nop
    2310:	85 db                	test   %ebx,%ebx
    2312:	0f 84 4c fe ff ff    	je     2164 <loc_get_ids_internal+0x194>
    2318:	89 1d 3c 1f 02 00    	mov    %ebx,0x21f3c
    231e:	e9 41 fe ff ff       	jmp    2164 <loc_get_ids_internal+0x194>
    2323:	89 1c 24             	mov    %ebx,(%esp)
    2326:	e8 95 1a 01 00       	call   13dc0 <async_forget>
    232b:	83 c4 7c             	add    $0x7c,%esp
    232e:	89 f8                	mov    %edi,%eax
    2330:	5b                   	pop    %ebx
    2331:	5e                   	pop    %esi
    2332:	5f                   	pop    %edi
    2333:	5d                   	pop    %ebp
    2334:	c3                   	ret    
    2335:	bf fe ff ff ff       	mov    $0xfffffffe,%edi
    233a:	e9 35 ff ff ff       	jmp    2274 <loc_get_ids_internal+0x2a4>
    233f:	85 db                	test   %ebx,%ebx
    2341:	0f 84 23 fd ff ff    	je     206a <loc_get_ids_internal+0x9a>
    2347:	89 1d 3c 1f 02 00    	mov    %ebx,0x21f3c
    234d:	e9 18 fd ff ff       	jmp    206a <loc_get_ids_internal+0x9a>
    2352:	89 c7                	mov    %eax,%edi
    2354:	8b 55 08             	mov    0x8(%ebp),%edx
    2357:	c1 eb 02             	shr    $0x2,%ebx
    235a:	8b 45 a8             	mov    -0x58(%ebp),%eax
    235d:	89 1a                	mov    %ebx,(%edx)
    235f:	89 30                	mov    %esi,(%eax)
    2361:	e9 0e ff ff ff       	jmp    2274 <loc_get_ids_internal+0x2a4>
    2366:	8d 76 00             	lea    0x0(%esi),%esi
    2369:	8d bc 27 00 00 00 00 	lea    0x0(%edi,%eiz,1),%edi

00002370 <loc_exchange_begin_blocking>:
    2370:	55                   	push   %ebp
    2371:	89 e5                	mov    %esp,%ebp
    2373:	53                   	push   %ebx
    2374:	83 ec 14             	sub    $0x14,%esp
    2377:	8b 45 08             	mov    0x8(%ebp),%eax
    237a:	83 f8 01             	cmp    $0x1,%eax
    237d:	74 11                	je     2390 <loc_exchange_begin_blocking+0x20>
    237f:	83 f8 02             	cmp    $0x2,%eax
    2382:	0f 84 b0 00 00 00    	je     2438 <loc_exchange_begin_blocking+0xc8>
    2388:	83 c4 14             	add    $0x14,%esp
    238b:	31 c0                	xor    %eax,%eax
    238d:	5b                   	pop    %ebx
    238e:	5d                   	pop    %ebp
    238f:	c3                   	ret    
    2390:	c7 04 24 20 1d 02 00 	movl   $0x21d20,(%esp)
    2397:	e8 e4 5d 00 00       	call   8180 <fibril_mutex_lock>
    239c:	a1 38 1f 02 00       	mov    0x21f38,%eax
    23a1:	85 c0                	test   %eax,%eax
    23a3:	75 34                	jne    23d9 <loc_exchange_begin_blocking+0x69>
    23a5:	c7 04 24 30 1d 02 00 	movl   $0x21d30,(%esp)
    23ac:	8b 1d 34 1f 02 00    	mov    0x21f34,%ebx
    23b2:	e8 c9 5d 00 00       	call   8180 <fibril_mutex_lock>
    23b7:	a1 38 1f 02 00       	mov    0x21f38,%eax
    23bc:	85 c0                	test   %eax,%eax
    23be:	74 68                	je     2428 <loc_exchange_begin_blocking+0xb8>
    23c0:	c7 04 24 30 1d 02 00 	movl   $0x21d30,(%esp)
    23c7:	e8 d4 5e 00 00       	call   82a0 <fibril_mutex_unlock>
    23cc:	a1 38 1f 02 00       	mov    0x21f38,%eax
    23d1:	85 c0                	test   %eax,%eax
    23d3:	0f 84 07 01 00 00    	je     24e0 <loc_exchange_begin_blocking+0x170>
    23d9:	c7 04 24 20 1d 02 00 	movl   $0x21d20,(%esp)
    23e0:	e8 bb 5e 00 00       	call   82a0 <fibril_mutex_unlock>
    23e5:	c7 04 24 30 1d 02 00 	movl   $0x21d30,(%esp)
    23ec:	8b 1d 38 1f 02 00    	mov    0x21f38,%ebx
    23f2:	e8 89 5d 00 00       	call   8180 <fibril_mutex_lock>
    23f7:	a1 34 1f 02 00       	mov    0x21f34,%eax
    23fc:	85 c0                	test   %eax,%eax
    23fe:	0f 84 3c 01 00 00    	je     2540 <loc_exchange_begin_blocking+0x1d0>
    2404:	c7 04 24 30 1d 02 00 	movl   $0x21d30,(%esp)
    240b:	e8 90 5e 00 00       	call   82a0 <fibril_mutex_unlock>
    2410:	a1 38 1f 02 00       	mov    0x21f38,%eax
    2415:	89 45 08             	mov    %eax,0x8(%ebp)
    2418:	83 c4 14             	add    $0x14,%esp
    241b:	5b                   	pop    %ebx
    241c:	5d                   	pop    %ebp
    241d:	e9 de 2b 01 00       	jmp    15000 <async_exchange_begin>
    2422:	8d b6 00 00 00 00    	lea    0x0(%esi),%esi
    2428:	85 db                	test   %ebx,%ebx
    242a:	74 94                	je     23c0 <loc_exchange_begin_blocking+0x50>
    242c:	89 1d 38 1f 02 00    	mov    %ebx,0x21f38
    2432:	eb 8c                	jmp    23c0 <loc_exchange_begin_blocking+0x50>
    2434:	8d 74 26 00          	lea    0x0(%esi,%eiz,1),%esi
    2438:	c7 04 24 40 1d 02 00 	movl   $0x21d40,(%esp)
    243f:	e8 3c 5d 00 00       	call   8180 <fibril_mutex_lock>
    2444:	a1 40 1f 02 00       	mov    0x21f40,%eax
    2449:	85 c0                	test   %eax,%eax
    244b:	75 35                	jne    2482 <loc_exchange_begin_blocking+0x112>
    244d:	c7 04 24 50 1d 02 00 	movl   $0x21d50,(%esp)
    2454:	8b 1d 3c 1f 02 00    	mov    0x21f3c,%ebx
    245a:	e8 21 5d 00 00       	call   8180 <fibril_mutex_lock>
    245f:	a1 40 1f 02 00       	mov    0x21f40,%eax
    2464:	85 c0                	test   %eax,%eax
    2466:	74 68                	je     24d0 <loc_exchange_begin_blocking+0x160>
    2468:	c7 04 24 50 1d 02 00 	movl   $0x21d50,(%esp)
    246f:	e8 2c 5e 00 00       	call   82a0 <fibril_mutex_unlock>
    2474:	8b 1d 40 1f 02 00    	mov    0x21f40,%ebx
    247a:	85 db                	test   %ebx,%ebx
    247c:	0f 84 8e 00 00 00    	je     2510 <loc_exchange_begin_blocking+0x1a0>
    2482:	c7 04 24 40 1d 02 00 	movl   $0x21d40,(%esp)
    2489:	e8 12 5e 00 00       	call   82a0 <fibril_mutex_unlock>
    248e:	c7 04 24 50 1d 02 00 	movl   $0x21d50,(%esp)
    2495:	8b 1d 40 1f 02 00    	mov    0x21f40,%ebx
    249b:	e8 e0 5c 00 00       	call   8180 <fibril_mutex_lock>
    24a0:	8b 0d 3c 1f 02 00    	mov    0x21f3c,%ecx
    24a6:	85 c9                	test   %ecx,%ecx
    24a8:	0f 84 aa 00 00 00    	je     2558 <loc_exchange_begin_blocking+0x1e8>
    24ae:	c7 04 24 50 1d 02 00 	movl   $0x21d50,(%esp)
    24b5:	e8 e6 5d 00 00       	call   82a0 <fibril_mutex_unlock>
    24ba:	a1 40 1f 02 00       	mov    0x21f40,%eax
    24bf:	89 45 08             	mov    %eax,0x8(%ebp)
    24c2:	83 c4 14             	add    $0x14,%esp
    24c5:	5b                   	pop    %ebx
    24c6:	5d                   	pop    %ebp
    24c7:	e9 34 2b 01 00       	jmp    15000 <async_exchange_begin>
    24cc:	8d 74 26 00          	lea    0x0(%esi,%eiz,1),%esi
    24d0:	85 db                	test   %ebx,%ebx
    24d2:	74 94                	je     2468 <loc_exchange_begin_blocking+0xf8>
    24d4:	89 1d 40 1f 02 00    	mov    %ebx,0x21f40
    24da:	eb 8c                	jmp    2468 <loc_exchange_begin_blocking+0xf8>
    24dc:	8d 74 26 00          	lea    0x0(%esi,%eiz,1),%esi
    24e0:	c7 44 24 0c 00 00 00 	movl   $0x0,0xc(%esp)
    24e7:	00 
    24e8:	c7 44 24 08 01 00 00 	movl   $0x1,0x8(%esp)
    24ef:	00 
    24f0:	c7 44 24 04 6c 6f 63 	movl   $0x20636f6c,0x4(%esp)
    24f7:	20 
    24f8:	c7 04 24 02 00 00 00 	movl   $0x2,(%esp)
    24ff:	e8 4c fe 00 00       	call   12350 <service_connect_blocking>
    2504:	a3 38 1f 02 00       	mov    %eax,0x21f38
    2509:	e9 93 fe ff ff       	jmp    23a1 <loc_exchange_begin_blocking+0x31>
    250e:	66 90                	xchg   %ax,%ax
    2510:	c7 44 24 0c 00 00 00 	movl   $0x0,0xc(%esp)
    2517:	00 
    2518:	c7 44 24 08 02 00 00 	movl   $0x2,0x8(%esp)
    251f:	00 
    2520:	c7 44 24 04 6c 6f 63 	movl   $0x20636f6c,0x4(%esp)
    2527:	20 
    2528:	c7 04 24 02 00 00 00 	movl   $0x2,(%esp)
    252f:	e8 1c fe 00 00       	call   12350 <service_connect_blocking>
    2534:	a3 40 1f 02 00       	mov    %eax,0x21f40
    2539:	e9 0b ff ff ff       	jmp    2449 <loc_exchange_begin_blocking+0xd9>
    253e:	66 90                	xchg   %ax,%ax
    2540:	85 db                	test   %ebx,%ebx
    2542:	0f 84 bc fe ff ff    	je     2404 <loc_exchange_begin_blocking+0x94>
    2548:	89 1d 34 1f 02 00    	mov    %ebx,0x21f34
    254e:	e9 b1 fe ff ff       	jmp    2404 <loc_exchange_begin_blocking+0x94>
    2553:	90                   	nop
    2554:	8d 74 26 00          	lea    0x0(%esi,%eiz,1),%esi
    2558:	85 db                	test   %ebx,%ebx
    255a:	0f 84 4e ff ff ff    	je     24ae <loc_exchange_begin_blocking+0x13e>
    2560:	89 1d 3c 1f 02 00    	mov    %ebx,0x21f3c
    2566:	e9 43 ff ff ff       	jmp    24ae <loc_exchange_begin_blocking+0x13e>
    256b:	90                   	nop
    256c:	8d 74 26 00          	lea    0x0(%esi,%eiz,1),%esi

00002570 <loc_exchange_begin>:
    2570:	55                   	push   %ebp
    2571:	89 e5                	mov    %esp,%ebp
    2573:	83 ec 18             	sub    $0x18,%esp
    2576:	8b 45 08             	mov    0x8(%ebp),%eax
    2579:	83 f8 01             	cmp    $0x1,%eax
    257c:	74 0a                	je     2588 <loc_exchange_begin+0x18>
    257e:	83 f8 02             	cmp    $0x2,%eax
    2581:	74 3d                	je     25c0 <loc_exchange_begin+0x50>
    2583:	31 c0                	xor    %eax,%eax
    2585:	c9                   	leave  
    2586:	c3                   	ret    
    2587:	90                   	nop
    2588:	c7 04 24 30 1d 02 00 	movl   $0x21d30,(%esp)
    258f:	e8 ec 5b 00 00       	call   8180 <fibril_mutex_lock>
    2594:	a1 34 1f 02 00       	mov    0x21f34,%eax
    2599:	85 c0                	test   %eax,%eax
    259b:	74 5b                	je     25f8 <loc_exchange_begin+0x88>
    259d:	c7 04 24 30 1d 02 00 	movl   $0x21d30,(%esp)
    25a4:	e8 f7 5c 00 00       	call   82a0 <fibril_mutex_unlock>
    25a9:	a1 34 1f 02 00       	mov    0x21f34,%eax
    25ae:	85 c0                	test   %eax,%eax
    25b0:	74 d1                	je     2583 <loc_exchange_begin+0x13>
    25b2:	89 45 08             	mov    %eax,0x8(%ebp)
    25b5:	c9                   	leave  
    25b6:	e9 45 2a 01 00       	jmp    15000 <async_exchange_begin>
    25bb:	90                   	nop
    25bc:	8d 74 26 00          	lea    0x0(%esi,%eiz,1),%esi
    25c0:	c7 04 24 50 1d 02 00 	movl   $0x21d50,(%esp)
    25c7:	e8 b4 5b 00 00       	call   8180 <fibril_mutex_lock>
    25cc:	a1 3c 1f 02 00       	mov    0x21f3c,%eax
    25d1:	85 c0                	test   %eax,%eax
    25d3:	74 53                	je     2628 <loc_exchange_begin+0xb8>
    25d5:	c7 04 24 50 1d 02 00 	movl   $0x21d50,(%esp)
    25dc:	e8 bf 5c 00 00       	call   82a0 <fibril_mutex_unlock>
    25e1:	a1 3c 1f 02 00       	mov    0x21f3c,%eax
    25e6:	85 c0                	test   %eax,%eax
    25e8:	74 99                	je     2583 <loc_exchange_begin+0x13>
    25ea:	89 45 08             	mov    %eax,0x8(%ebp)
    25ed:	c9                   	leave  
    25ee:	e9 0d 2a 01 00       	jmp    15000 <async_exchange_begin>
    25f3:	90                   	nop
    25f4:	8d 74 26 00          	lea    0x0(%esi,%eiz,1),%esi
    25f8:	c7 44 24 0c 00 00 00 	movl   $0x0,0xc(%esp)
    25ff:	00 
    2600:	c7 44 24 08 01 00 00 	movl   $0x1,0x8(%esp)
    2607:	00 
    2608:	c7 44 24 04 6c 6f 63 	movl   $0x20636f6c,0x4(%esp)
    260f:	20 
    2610:	c7 04 24 02 00 00 00 	movl   $0x2,(%esp)
    2617:	e8 b4 fc 00 00       	call   122d0 <service_connect>
    261c:	a3 34 1f 02 00       	mov    %eax,0x21f34
    2621:	e9 77 ff ff ff       	jmp    259d <loc_exchange_begin+0x2d>
    2626:	66 90                	xchg   %ax,%ax
    2628:	c7 44 24 0c 00 00 00 	movl   $0x0,0xc(%esp)
    262f:	00 
    2630:	c7 44 24 08 02 00 00 	movl   $0x2,0x8(%esp)
    2637:	00 
    2638:	c7 44 24 04 6c 6f 63 	movl   $0x20636f6c,0x4(%esp)
    263f:	20 
    2640:	c7 04 24 02 00 00 00 	movl   $0x2,(%esp)
    2647:	e8 84 fc 00 00       	call   122d0 <service_connect>
    264c:	a3 3c 1f 02 00       	mov    %eax,0x21f3c
    2651:	eb 82                	jmp    25d5 <loc_exchange_begin+0x65>
    2653:	8d b6 00 00 00 00    	lea    0x0(%esi),%esi
    2659:	8d bc 27 00 00 00 00 	lea    0x0(%edi,%eiz,1),%edi

00002660 <loc_exchange_end>:
    2660:	55                   	push   %ebp
    2661:	89 e5                	mov    %esp,%ebp
    2663:	5d                   	pop    %ebp
    2664:	e9 07 2d 01 00       	jmp    15370 <async_exchange_end>
    2669:	8d b4 26 00 00 00 00 	lea    0x0(%esi,%eiz,1),%esi

00002670 <loc_server_register>:
    2670:	55                   	push   %ebp
    2671:	89 e5                	mov    %esp,%ebp
    2673:	57                   	push   %edi
    2674:	56                   	push   %esi
    2675:	53                   	push   %ebx
    2676:	83 ec 5c             	sub    $0x5c,%esp
    2679:	8b 75 08             	mov    0x8(%ebp),%esi
    267c:	c7 04 24 20 1d 02 00 	movl   $0x21d20,(%esp)
    2683:	e8 f8 5a 00 00       	call   8180 <fibril_mutex_lock>
    2688:	a1 38 1f 02 00       	mov    0x21f38,%eax
    268d:	85 c0                	test   %eax,%eax
    268f:	75 38                	jne    26c9 <loc_server_register+0x59>
    2691:	c7 04 24 30 1d 02 00 	movl   $0x21d30,(%esp)
    2698:	8b 1d 34 1f 02 00    	mov    0x21f34,%ebx
    269e:	e8 dd 5a 00 00       	call   8180 <fibril_mutex_lock>
    26a3:	a1 38 1f 02 00       	mov    0x21f38,%eax
    26a8:	85 c0                	test   %eax,%eax
    26aa:	0f 84 58 01 00 00    	je     2808 <loc_server_register+0x198>
    26b0:	c7 04 24 30 1d 02 00 	movl   $0x21d30,(%esp)
    26b7:	e8 e4 5b 00 00       	call   82a0 <fibril_mutex_unlock>
    26bc:	a1 38 1f 02 00       	mov    0x21f38,%eax
    26c1:	85 c0                	test   %eax,%eax
    26c3:	0f 84 57 01 00 00    	je     2820 <loc_server_register+0x1b0>
    26c9:	c7 04 24 20 1d 02 00 	movl   $0x21d20,(%esp)
    26d0:	e8 cb 5b 00 00       	call   82a0 <fibril_mutex_unlock>
    26d5:	c7 04 24 30 1d 02 00 	movl   $0x21d30,(%esp)
    26dc:	8b 1d 38 1f 02 00    	mov    0x21f38,%ebx
    26e2:	e8 99 5a 00 00       	call   8180 <fibril_mutex_lock>
    26e7:	8b 3d 34 1f 02 00    	mov    0x21f34,%edi
    26ed:	85 ff                	test   %edi,%edi
    26ef:	0f 84 73 01 00 00    	je     2868 <loc_server_register+0x1f8>
    26f5:	c7 04 24 30 1d 02 00 	movl   $0x21d30,(%esp)
    26fc:	e8 9f 5b 00 00       	call   82a0 <fibril_mutex_unlock>
    2701:	a1 38 1f 02 00       	mov    0x21f38,%eax
    2706:	89 04 24             	mov    %eax,(%esp)
    2709:	e8 f2 28 01 00       	call   15000 <async_exchange_begin>
    270e:	c7 44 24 14 00 00 00 	movl   $0x0,0x14(%esp)
    2715:	00 
    2716:	89 c3                	mov    %eax,%ebx
    2718:	8d 45 c4             	lea    -0x3c(%ebp),%eax
    271b:	89 44 24 18          	mov    %eax,0x18(%esp)
    271f:	c7 44 24 10 00 00 00 	movl   $0x0,0x10(%esp)
    2726:	00 
    2727:	c7 44 24 0c 00 00 00 	movl   $0x0,0xc(%esp)
    272e:	00 
    272f:	c7 44 24 08 00 00 00 	movl   $0x0,0x8(%esp)
    2736:	00 
    2737:	c7 44 24 04 00 04 00 	movl   $0x400,0x4(%esp)
    273e:	00 
    273f:	89 1c 24             	mov    %ebx,(%esp)
    2742:	e8 59 12 01 00       	call   139a0 <async_send_fast>
    2747:	89 34 24             	mov    %esi,(%esp)
    274a:	89 c7                	mov    %eax,%edi
    274c:	e8 5f 27 00 00       	call   4eb0 <str_size>
    2751:	89 74 24 04          	mov    %esi,0x4(%esp)
    2755:	89 44 24 08          	mov    %eax,0x8(%esp)
    2759:	89 1c 24             	mov    %ebx,(%esp)
    275c:	e8 8f 37 01 00       	call   15ef0 <async_data_write_start>
    2761:	89 1c 24             	mov    %ebx,(%esp)
    2764:	89 45 c0             	mov    %eax,-0x40(%ebp)
    2767:	e8 04 2c 01 00       	call   15370 <async_exchange_end>
    276c:	8b 4d c0             	mov    -0x40(%ebp),%ecx
    276f:	85 c9                	test   %ecx,%ecx
    2771:	0f 85 d9 00 00 00    	jne    2850 <loc_server_register+0x1e0>
    2777:	c7 04 24 30 1d 02 00 	movl   $0x21d30,(%esp)
    277e:	e8 fd 59 00 00       	call   8180 <fibril_mutex_lock>
    2783:	8b 15 34 1f 02 00    	mov    0x21f34,%edx
    2789:	85 d2                	test   %edx,%edx
    278b:	0f 84 ea 00 00 00    	je     287b <loc_server_register+0x20b>
    2791:	c7 04 24 30 1d 02 00 	movl   $0x21d30,(%esp)
    2798:	e8 03 5b 00 00       	call   82a0 <fibril_mutex_unlock>
    279d:	a1 34 1f 02 00       	mov    0x21f34,%eax
    27a2:	85 c0                	test   %eax,%eax
    27a4:	0f 84 ff 00 00 00    	je     28a9 <loc_server_register+0x239>
    27aa:	89 04 24             	mov    %eax,(%esp)
    27ad:	e8 4e 28 01 00       	call   15000 <async_exchange_begin>
    27b2:	89 c3                	mov    %eax,%ebx
    27b4:	89 1c 24             	mov    %ebx,(%esp)
    27b7:	c7 44 24 14 00 00 00 	movl   $0x0,0x14(%esp)
    27be:	00 
    27bf:	c7 44 24 10 00 00 00 	movl   $0x0,0x10(%esp)
    27c6:	00 
    27c7:	c7 44 24 0c 00 00 00 	movl   $0x0,0xc(%esp)
    27ce:	00 
    27cf:	c7 44 24 08 00 00 00 	movl   $0x0,0x8(%esp)
    27d6:	00 
    27d7:	c7 44 24 04 00 00 00 	movl   $0x0,0x4(%esp)
    27de:	00 
    27df:	e8 bc 1f 01 00       	call   147a0 <async_connect_to_me>
    27e4:	89 1c 24             	mov    %ebx,(%esp)
    27e7:	e8 84 2b 01 00       	call   15370 <async_exchange_end>
    27ec:	8d 45 c0             	lea    -0x40(%ebp),%eax
    27ef:	89 44 24 04          	mov    %eax,0x4(%esp)
    27f3:	89 3c 24             	mov    %edi,(%esp)
    27f6:	e8 75 13 01 00       	call   13b70 <async_wait_for>
    27fb:	8b 45 c0             	mov    -0x40(%ebp),%eax
    27fe:	83 c4 5c             	add    $0x5c,%esp
    2801:	5b                   	pop    %ebx
    2802:	5e                   	pop    %esi
    2803:	5f                   	pop    %edi
    2804:	5d                   	pop    %ebp
    2805:	c3                   	ret    
    2806:	66 90                	xchg   %ax,%ax
    2808:	85 db                	test   %ebx,%ebx
    280a:	0f 84 a0 fe ff ff    	je     26b0 <loc_server_register+0x40>
    2810:	89 1d 38 1f 02 00    	mov    %ebx,0x21f38
    2816:	e9 95 fe ff ff       	jmp    26b0 <loc_server_register+0x40>
    281b:	90                   	nop
    281c:	8d 74 26 00          	lea    0x0(%esi,%eiz,1),%esi
    2820:	c7 44 24 0c 00 00 00 	movl   $0x0,0xc(%esp)
    2827:	00 
    2828:	c7 44 24 08 01 00 00 	movl   $0x1,0x8(%esp)
    282f:	00 
    2830:	c7 44 24 04 6c 6f 63 	movl   $0x20636f6c,0x4(%esp)
    2837:	20 
    2838:	c7 04 24 02 00 00 00 	movl   $0x2,(%esp)
    283f:	e8 0c fb 00 00       	call   12350 <service_connect_blocking>
    2844:	a3 38 1f 02 00       	mov    %eax,0x21f38
    2849:	e9 3f fe ff ff       	jmp    268d <loc_server_register+0x1d>
    284e:	66 90                	xchg   %ax,%ax
    2850:	89 3c 24             	mov    %edi,(%esp)
    2853:	e8 68 15 01 00       	call   13dc0 <async_forget>
    2858:	8b 45 c0             	mov    -0x40(%ebp),%eax
    285b:	83 c4 5c             	add    $0x5c,%esp
    285e:	5b                   	pop    %ebx
    285f:	5e                   	pop    %esi
    2860:	5f                   	pop    %edi
    2861:	5d                   	pop    %ebp
    2862:	c3                   	ret    
    2863:	90                   	nop
    2864:	8d 74 26 00          	lea    0x0(%esi,%eiz,1),%esi
    2868:	85 db                	test   %ebx,%ebx
    286a:	0f 84 85 fe ff ff    	je     26f5 <loc_server_register+0x85>
    2870:	89 1d 34 1f 02 00    	mov    %ebx,0x21f34
    2876:	e9 7a fe ff ff       	jmp    26f5 <loc_server_register+0x85>
    287b:	c7 44 24 0c 00 00 00 	movl   $0x0,0xc(%esp)
    2882:	00 
    2883:	c7 44 24 08 01 00 00 	movl   $0x1,0x8(%esp)
    288a:	00 
    288b:	c7 44 24 04 6c 6f 63 	movl   $0x20636f6c,0x4(%esp)
    2892:	20 
    2893:	c7 04 24 02 00 00 00 	movl   $0x2,(%esp)
    289a:	e8 31 fa 00 00       	call   122d0 <service_connect>
    289f:	a3 34 1f 02 00       	mov    %eax,0x21f34
    28a4:	e9 e8 fe ff ff       	jmp    2791 <loc_server_register+0x121>
    28a9:	31 db                	xor    %ebx,%ebx
    28ab:	e9 04 ff ff ff       	jmp    27b4 <loc_server_register+0x144>

000028b0 <loc_service_register_with_iface>:
    28b0:	55                   	push   %ebp
    28b1:	89 e5                	mov    %esp,%ebp
    28b3:	57                   	push   %edi
    28b4:	56                   	push   %esi
    28b5:	53                   	push   %ebx
    28b6:	83 ec 5c             	sub    $0x5c,%esp
    28b9:	8b 75 08             	mov    0x8(%ebp),%esi
    28bc:	c7 04 24 20 1d 02 00 	movl   $0x21d20,(%esp)
    28c3:	e8 b8 58 00 00       	call   8180 <fibril_mutex_lock>
    28c8:	a1 38 1f 02 00       	mov    0x21f38,%eax
    28cd:	85 c0                	test   %eax,%eax
    28cf:	75 38                	jne    2909 <loc_service_register_with_iface+0x59>
    28d1:	c7 04 24 30 1d 02 00 	movl   $0x21d30,(%esp)
    28d8:	8b 1d 34 1f 02 00    	mov    0x21f34,%ebx
    28de:	e8 9d 58 00 00       	call   8180 <fibril_mutex_lock>
    28e3:	a1 38 1f 02 00       	mov    0x21f38,%eax
    28e8:	85 c0                	test   %eax,%eax
    28ea:	0f 84 f8 00 00 00    	je     29e8 <loc_service_register_with_iface+0x138>
    28f0:	c7 04 24 30 1d 02 00 	movl   $0x21d30,(%esp)
    28f7:	e8 a4 59 00 00       	call   82a0 <fibril_mutex_unlock>
    28fc:	a1 38 1f 02 00       	mov    0x21f38,%eax
    2901:	85 c0                	test   %eax,%eax
    2903:	0f 84 f7 00 00 00    	je     2a00 <loc_service_register_with_iface+0x150>
    2909:	c7 04 24 20 1d 02 00 	movl   $0x21d20,(%esp)
    2910:	e8 8b 59 00 00       	call   82a0 <fibril_mutex_unlock>
    2915:	c7 04 24 30 1d 02 00 	movl   $0x21d30,(%esp)
    291c:	8b 1d 38 1f 02 00    	mov    0x21f38,%ebx
    2922:	e8 59 58 00 00       	call   8180 <fibril_mutex_lock>
    2927:	8b 3d 34 1f 02 00    	mov    0x21f34,%edi
    292d:	85 ff                	test   %edi,%edi
    292f:	0f 84 33 01 00 00    	je     2a68 <loc_service_register_with_iface+0x1b8>
    2935:	c7 04 24 30 1d 02 00 	movl   $0x21d30,(%esp)
    293c:	e8 5f 59 00 00       	call   82a0 <fibril_mutex_unlock>
    2941:	a1 38 1f 02 00       	mov    0x21f38,%eax
    2946:	89 04 24             	mov    %eax,(%esp)
    2949:	e8 b2 26 01 00       	call   15000 <async_exchange_begin>
    294e:	c7 44 24 14 00 00 00 	movl   $0x0,0x14(%esp)
    2955:	00 
    2956:	89 c7                	mov    %eax,%edi
    2958:	8d 45 c4             	lea    -0x3c(%ebp),%eax
    295b:	89 44 24 18          	mov    %eax,0x18(%esp)
    295f:	8b 45 10             	mov    0x10(%ebp),%eax
    2962:	c7 44 24 10 00 00 00 	movl   $0x0,0x10(%esp)
    2969:	00 
    296a:	c7 44 24 0c 00 00 00 	movl   $0x0,0xc(%esp)
    2971:	00 
    2972:	89 44 24 08          	mov    %eax,0x8(%esp)
    2976:	c7 44 24 04 03 04 00 	movl   $0x403,0x4(%esp)
    297d:	00 
    297e:	89 3c 24             	mov    %edi,(%esp)
    2981:	e8 1a 10 01 00       	call   139a0 <async_send_fast>
    2986:	89 34 24             	mov    %esi,(%esp)
    2989:	89 c3                	mov    %eax,%ebx
    298b:	e8 20 25 00 00       	call   4eb0 <str_size>
    2990:	89 74 24 04          	mov    %esi,0x4(%esp)
    2994:	89 44 24 08          	mov    %eax,0x8(%esp)
    2998:	89 3c 24             	mov    %edi,(%esp)
    299b:	e8 50 35 01 00       	call   15ef0 <async_data_write_start>
    29a0:	89 3c 24             	mov    %edi,(%esp)
    29a3:	89 45 c0             	mov    %eax,-0x40(%ebp)
    29a6:	e8 c5 29 01 00       	call   15370 <async_exchange_end>
    29ab:	8b 4d c0             	mov    -0x40(%ebp),%ecx
    29ae:	85 c9                	test   %ecx,%ecx
    29b0:	0f 85 9a 00 00 00    	jne    2a50 <loc_service_register_with_iface+0x1a0>
    29b6:	8d 45 c0             	lea    -0x40(%ebp),%eax
    29b9:	89 1c 24             	mov    %ebx,(%esp)
    29bc:	89 44 24 04          	mov    %eax,0x4(%esp)
    29c0:	e8 ab 11 01 00       	call   13b70 <async_wait_for>
    29c5:	8b 45 c0             	mov    -0x40(%ebp),%eax
    29c8:	85 c0                	test   %eax,%eax
    29ca:	74 64                	je     2a30 <loc_service_register_with_iface+0x180>
    29cc:	8b 55 0c             	mov    0xc(%ebp),%edx
    29cf:	85 d2                	test   %edx,%edx
    29d1:	74 09                	je     29dc <loc_service_register_with_iface+0x12c>
    29d3:	8b 55 0c             	mov    0xc(%ebp),%edx
    29d6:	c7 02 ff ff ff ff    	movl   $0xffffffff,(%edx)
    29dc:	83 c4 5c             	add    $0x5c,%esp
    29df:	5b                   	pop    %ebx
    29e0:	5e                   	pop    %esi
    29e1:	5f                   	pop    %edi
    29e2:	5d                   	pop    %ebp
    29e3:	c3                   	ret    
    29e4:	8d 74 26 00          	lea    0x0(%esi,%eiz,1),%esi
    29e8:	85 db                	test   %ebx,%ebx
    29ea:	0f 84 00 ff ff ff    	je     28f0 <loc_service_register_with_iface+0x40>
    29f0:	89 1d 38 1f 02 00    	mov    %ebx,0x21f38
    29f6:	e9 f5 fe ff ff       	jmp    28f0 <loc_service_register_with_iface+0x40>
    29fb:	90                   	nop
    29fc:	8d 74 26 00          	lea    0x0(%esi,%eiz,1),%esi
    2a00:	c7 44 24 0c 00 00 00 	movl   $0x0,0xc(%esp)
    2a07:	00 
    2a08:	c7 44 24 08 01 00 00 	movl   $0x1,0x8(%esp)
    2a0f:	00 
    2a10:	c7 44 24 04 6c 6f 63 	movl   $0x20636f6c,0x4(%esp)
    2a17:	20 
    2a18:	c7 04 24 02 00 00 00 	movl   $0x2,(%esp)
    2a1f:	e8 2c f9 00 00       	call   12350 <service_connect_blocking>
    2a24:	a3 38 1f 02 00       	mov    %eax,0x21f38
    2a29:	e9 9f fe ff ff       	jmp    28cd <loc_service_register_with_iface+0x1d>
    2a2e:	66 90                	xchg   %ax,%ax
    2a30:	8b 45 0c             	mov    0xc(%ebp),%eax
    2a33:	85 c0                	test   %eax,%eax
    2a35:	74 08                	je     2a3f <loc_service_register_with_iface+0x18f>
    2a37:	8b 55 0c             	mov    0xc(%ebp),%edx
    2a3a:	8b 45 c8             	mov    -0x38(%ebp),%eax
    2a3d:	89 02                	mov    %eax,(%edx)
    2a3f:	83 c4 5c             	add    $0x5c,%esp
    2a42:	31 c0                	xor    %eax,%eax
    2a44:	5b                   	pop    %ebx
    2a45:	5e                   	pop    %esi
    2a46:	5f                   	pop    %edi
    2a47:	5d                   	pop    %ebp
    2a48:	c3                   	ret    
    2a49:	8d b4 26 00 00 00 00 	lea    0x0(%esi,%eiz,1),%esi
    2a50:	89 1c 24             	mov    %ebx,(%esp)
    2a53:	e8 68 13 01 00       	call   13dc0 <async_forget>
    2a58:	8b 45 c0             	mov    -0x40(%ebp),%eax
    2a5b:	83 c4 5c             	add    $0x5c,%esp
    2a5e:	5b                   	pop    %ebx
    2a5f:	5e                   	pop    %esi
    2a60:	5f                   	pop    %edi
    2a61:	5d                   	pop    %ebp
    2a62:	c3                   	ret    
    2a63:	90                   	nop
    2a64:	8d 74 26 00          	lea    0x0(%esi,%eiz,1),%esi
    2a68:	85 db                	test   %ebx,%ebx
    2a6a:	0f 84 c5 fe ff ff    	je     2935 <loc_service_register_with_iface+0x85>
    2a70:	89 1d 34 1f 02 00    	mov    %ebx,0x21f34
    2a76:	e9 ba fe ff ff       	jmp    2935 <loc_service_register_with_iface+0x85>
    2a7b:	90                   	nop
    2a7c:	8d 74 26 00          	lea    0x0(%esi,%eiz,1),%esi

00002a80 <loc_service_register>:
    2a80:	55                   	push   %ebp
    2a81:	89 e5                	mov    %esp,%ebp
    2a83:	57                   	push   %edi
    2a84:	56                   	push   %esi
    2a85:	53                   	push   %ebx
    2a86:	83 ec 5c             	sub    $0x5c,%esp
    2a89:	8b 75 08             	mov    0x8(%ebp),%esi
    2a8c:	c7 04 24 20 1d 02 00 	movl   $0x21d20,(%esp)
    2a93:	e8 e8 56 00 00       	call   8180 <fibril_mutex_lock>
    2a98:	a1 38 1f 02 00       	mov    0x21f38,%eax
    2a9d:	85 c0                	test   %eax,%eax
    2a9f:	75 38                	jne    2ad9 <loc_service_register+0x59>
    2aa1:	c7 04 24 30 1d 02 00 	movl   $0x21d30,(%esp)
    2aa8:	8b 1d 34 1f 02 00    	mov    0x21f34,%ebx
    2aae:	e8 cd 56 00 00       	call   8180 <fibril_mutex_lock>
    2ab3:	a1 38 1f 02 00       	mov    0x21f38,%eax
    2ab8:	85 c0                	test   %eax,%eax
    2aba:	0f 84 f8 00 00 00    	je     2bb8 <loc_service_register+0x138>
    2ac0:	c7 04 24 30 1d 02 00 	movl   $0x21d30,(%esp)
    2ac7:	e8 d4 57 00 00       	call   82a0 <fibril_mutex_unlock>
    2acc:	a1 38 1f 02 00       	mov    0x21f38,%eax
    2ad1:	85 c0                	test   %eax,%eax
    2ad3:	0f 84 f7 00 00 00    	je     2bd0 <loc_service_register+0x150>
    2ad9:	c7 04 24 20 1d 02 00 	movl   $0x21d20,(%esp)
    2ae0:	e8 bb 57 00 00       	call   82a0 <fibril_mutex_unlock>
    2ae5:	c7 04 24 30 1d 02 00 	movl   $0x21d30,(%esp)
    2aec:	8b 1d 38 1f 02 00    	mov    0x21f38,%ebx
    2af2:	e8 89 56 00 00       	call   8180 <fibril_mutex_lock>
    2af7:	8b 3d 34 1f 02 00    	mov    0x21f34,%edi
    2afd:	85 ff                	test   %edi,%edi
    2aff:	0f 84 33 01 00 00    	je     2c38 <loc_service_register+0x1b8>
    2b05:	c7 04 24 30 1d 02 00 	movl   $0x21d30,(%esp)
    2b0c:	e8 8f 57 00 00       	call   82a0 <fibril_mutex_unlock>
    2b11:	a1 38 1f 02 00       	mov    0x21f38,%eax
    2b16:	89 04 24             	mov    %eax,(%esp)
    2b19:	e8 e2 24 01 00       	call   15000 <async_exchange_begin>
    2b1e:	c7 44 24 14 00 00 00 	movl   $0x0,0x14(%esp)
    2b25:	00 
    2b26:	89 c7                	mov    %eax,%edi
    2b28:	8d 45 c4             	lea    -0x3c(%ebp),%eax
    2b2b:	89 44 24 18          	mov    %eax,0x18(%esp)
    2b2f:	c7 44 24 10 00 00 00 	movl   $0x0,0x10(%esp)
    2b36:	00 
    2b37:	c7 44 24 0c 00 00 00 	movl   $0x0,0xc(%esp)
    2b3e:	00 
    2b3f:	c7 44 24 08 00 00 00 	movl   $0x0,0x8(%esp)
    2b46:	00 
    2b47:	c7 44 24 04 03 04 00 	movl   $0x403,0x4(%esp)
    2b4e:	00 
    2b4f:	89 3c 24             	mov    %edi,(%esp)
    2b52:	e8 49 0e 01 00       	call   139a0 <async_send_fast>
    2b57:	89 34 24             	mov    %esi,(%esp)
    2b5a:	89 c3                	mov    %eax,%ebx
    2b5c:	e8 4f 23 00 00       	call   4eb0 <str_size>
    2b61:	89 74 24 04          	mov    %esi,0x4(%esp)
    2b65:	89 44 24 08          	mov    %eax,0x8(%esp)
    2b69:	89 3c 24             	mov    %edi,(%esp)
    2b6c:	e8 7f 33 01 00       	call   15ef0 <async_data_write_start>
    2b71:	89 3c 24             	mov    %edi,(%esp)
    2b74:	89 45 c0             	mov    %eax,-0x40(%ebp)
    2b77:	e8 f4 27 01 00       	call   15370 <async_exchange_end>
    2b7c:	8b 4d c0             	mov    -0x40(%ebp),%ecx
    2b7f:	85 c9                	test   %ecx,%ecx
    2b81:	0f 85 99 00 00 00    	jne    2c20 <loc_service_register+0x1a0>
    2b87:	8d 45 c0             	lea    -0x40(%ebp),%eax
    2b8a:	89 1c 24             	mov    %ebx,(%esp)
    2b8d:	89 44 24 04          	mov    %eax,0x4(%esp)
    2b91:	e8 da 0f 01 00       	call   13b70 <async_wait_for>
    2b96:	8b 45 c0             	mov    -0x40(%ebp),%eax
    2b99:	85 c0                	test   %eax,%eax
    2b9b:	74 63                	je     2c00 <loc_service_register+0x180>
    2b9d:	8b 55 0c             	mov    0xc(%ebp),%edx
    2ba0:	85 d2                	test   %edx,%edx
    2ba2:	74 09                	je     2bad <loc_service_register+0x12d>
    2ba4:	8b 55 0c             	mov    0xc(%ebp),%edx
    2ba7:	c7 02 ff ff ff ff    	movl   $0xffffffff,(%edx)
    2bad:	83 c4 5c             	add    $0x5c,%esp
    2bb0:	5b                   	pop    %ebx
    2bb1:	5e                   	pop    %esi
    2bb2:	5f                   	pop    %edi
    2bb3:	5d                   	pop    %ebp
    2bb4:	c3                   	ret    
    2bb5:	8d 76 00             	lea    0x0(%esi),%esi
    2bb8:	85 db                	test   %ebx,%ebx
    2bba:	0f 84 00 ff ff ff    	je     2ac0 <loc_service_register+0x40>
    2bc0:	89 1d 38 1f 02 00    	mov    %ebx,0x21f38
    2bc6:	e9 f5 fe ff ff       	jmp    2ac0 <loc_service_register+0x40>
    2bcb:	90                   	nop
    2bcc:	8d 74 26 00          	lea    0x0(%esi,%eiz,1),%esi
    2bd0:	c7 44 24 0c 00 00 00 	movl   $0x0,0xc(%esp)
    2bd7:	00 
    2bd8:	c7 44 24 08 01 00 00 	movl   $0x1,0x8(%esp)
    2bdf:	00 
    2be0:	c7 44 24 04 6c 6f 63 	movl   $0x20636f6c,0x4(%esp)
    2be7:	20 
    2be8:	c7 04 24 02 00 00 00 	movl   $0x2,(%esp)
    2bef:	e8 5c f7 00 00       	call   12350 <service_connect_blocking>
    2bf4:	a3 38 1f 02 00       	mov    %eax,0x21f38
    2bf9:	e9 9f fe ff ff       	jmp    2a9d <loc_service_register+0x1d>
    2bfe:	66 90                	xchg   %ax,%ax
    2c00:	8b 45 0c             	mov    0xc(%ebp),%eax
    2c03:	85 c0                	test   %eax,%eax
    2c05:	74 08                	je     2c0f <loc_service_register+0x18f>
    2c07:	8b 55 0c             	mov    0xc(%ebp),%edx
    2c0a:	8b 45 c8             	mov    -0x38(%ebp),%eax
    2c0d:	89 02                	mov    %eax,(%edx)
    2c0f:	83 c4 5c             	add    $0x5c,%esp
    2c12:	31 c0                	xor    %eax,%eax
    2c14:	5b                   	pop    %ebx
    2c15:	5e                   	pop    %esi
    2c16:	5f                   	pop    %edi
    2c17:	5d                   	pop    %ebp
    2c18:	c3                   	ret    
    2c19:	8d b4 26 00 00 00 00 	lea    0x0(%esi,%eiz,1),%esi
    2c20:	89 1c 24             	mov    %ebx,(%esp)
    2c23:	e8 98 11 01 00       	call   13dc0 <async_forget>
    2c28:	8b 45 c0             	mov    -0x40(%ebp),%eax
    2c2b:	83 c4 5c             	add    $0x5c,%esp
    2c2e:	5b                   	pop    %ebx
    2c2f:	5e                   	pop    %esi
    2c30:	5f                   	pop    %edi
    2c31:	5d                   	pop    %ebp
    2c32:	c3                   	ret    
    2c33:	90                   	nop
    2c34:	8d 74 26 00          	lea    0x0(%esi,%eiz,1),%esi
    2c38:	85 db                	test   %ebx,%ebx
    2c3a:	0f 84 c5 fe ff ff    	je     2b05 <loc_service_register+0x85>
    2c40:	89 1d 34 1f 02 00    	mov    %ebx,0x21f34
    2c46:	e9 ba fe ff ff       	jmp    2b05 <loc_service_register+0x85>
    2c4b:	90                   	nop
    2c4c:	8d 74 26 00          	lea    0x0(%esi,%eiz,1),%esi

00002c50 <loc_service_unregister>:
    2c50:	55                   	push   %ebp
    2c51:	89 e5                	mov    %esp,%ebp
    2c53:	53                   	push   %ebx
    2c54:	83 ec 44             	sub    $0x44,%esp
    2c57:	c7 04 24 20 1d 02 00 	movl   $0x21d20,(%esp)
    2c5e:	e8 1d 55 00 00       	call   8180 <fibril_mutex_lock>
    2c63:	a1 38 1f 02 00       	mov    0x21f38,%eax
    2c68:	85 c0                	test   %eax,%eax
    2c6a:	75 38                	jne    2ca4 <loc_service_unregister+0x54>
    2c6c:	c7 04 24 30 1d 02 00 	movl   $0x21d30,(%esp)
    2c73:	8b 1d 34 1f 02 00    	mov    0x21f34,%ebx
    2c79:	e8 02 55 00 00       	call   8180 <fibril_mutex_lock>
    2c7e:	a1 38 1f 02 00       	mov    0x21f38,%eax
    2c83:	85 c0                	test   %eax,%eax
    2c85:	0f 84 cd 00 00 00    	je     2d58 <loc_service_unregister+0x108>
    2c8b:	c7 04 24 30 1d 02 00 	movl   $0x21d30,(%esp)
    2c92:	e8 09 56 00 00       	call   82a0 <fibril_mutex_unlock>
    2c97:	a1 38 1f 02 00       	mov    0x21f38,%eax
    2c9c:	85 c0                	test   %eax,%eax
    2c9e:	0f 84 cc 00 00 00    	je     2d70 <loc_service_unregister+0x120>
    2ca4:	c7 04 24 20 1d 02 00 	movl   $0x21d20,(%esp)
    2cab:	e8 f0 55 00 00       	call   82a0 <fibril_mutex_unlock>
    2cb0:	c7 04 24 30 1d 02 00 	movl   $0x21d30,(%esp)
    2cb7:	8b 1d 38 1f 02 00    	mov    0x21f38,%ebx
    2cbd:	e8 be 54 00 00       	call   8180 <fibril_mutex_lock>
    2cc2:	a1 34 1f 02 00       	mov    0x21f34,%eax
    2cc7:	85 c0                	test   %eax,%eax
    2cc9:	0f 84 d1 00 00 00    	je     2da0 <loc_service_unregister+0x150>
    2ccf:	c7 04 24 30 1d 02 00 	movl   $0x21d30,(%esp)
    2cd6:	e8 c5 55 00 00       	call   82a0 <fibril_mutex_unlock>
    2cdb:	a1 38 1f 02 00       	mov    0x21f38,%eax
    2ce0:	89 04 24             	mov    %eax,(%esp)
    2ce3:	e8 18 23 01 00       	call   15000 <async_exchange_begin>
    2ce8:	c7 44 24 28 00 00 00 	movl   $0x0,0x28(%esp)
    2cef:	00 
    2cf0:	89 c3                	mov    %eax,%ebx
    2cf2:	8b 45 08             	mov    0x8(%ebp),%eax
    2cf5:	89 1c 24             	mov    %ebx,(%esp)
    2cf8:	c7 44 24 24 00 00 00 	movl   $0x0,0x24(%esp)
    2cff:	00 
    2d00:	c7 44 24 20 00 00 00 	movl   $0x0,0x20(%esp)
    2d07:	00 
    2d08:	c7 44 24 1c 00 00 00 	movl   $0x0,0x1c(%esp)
    2d0f:	00 
    2d10:	c7 44 24 18 00 00 00 	movl   $0x0,0x18(%esp)
    2d17:	00 
    2d18:	c7 44 24 14 00 00 00 	movl   $0x0,0x14(%esp)
    2d1f:	00 
    2d20:	c7 44 24 10 00 00 00 	movl   $0x0,0x10(%esp)
    2d27:	00 
    2d28:	c7 44 24 0c 00 00 00 	movl   $0x0,0xc(%esp)
    2d2f:	00 
    2d30:	89 44 24 08          	mov    %eax,0x8(%esp)
    2d34:	c7 44 24 04 04 04 00 	movl   $0x404,0x4(%esp)
    2d3b:	00 
    2d3c:	e8 6f 12 01 00       	call   13fb0 <async_req_fast>
    2d41:	89 1c 24             	mov    %ebx,(%esp)
    2d44:	89 45 f4             	mov    %eax,-0xc(%ebp)
    2d47:	e8 24 26 01 00       	call   15370 <async_exchange_end>
    2d4c:	8b 45 f4             	mov    -0xc(%ebp),%eax
    2d4f:	83 c4 44             	add    $0x44,%esp
    2d52:	5b                   	pop    %ebx
    2d53:	5d                   	pop    %ebp
    2d54:	c3                   	ret    
    2d55:	8d 76 00             	lea    0x0(%esi),%esi
    2d58:	85 db                	test   %ebx,%ebx
    2d5a:	0f 84 2b ff ff ff    	je     2c8b <loc_service_unregister+0x3b>
    2d60:	89 1d 38 1f 02 00    	mov    %ebx,0x21f38
    2d66:	e9 20 ff ff ff       	jmp    2c8b <loc_service_unregister+0x3b>
    2d6b:	90                   	nop
    2d6c:	8d 74 26 00          	lea    0x0(%esi,%eiz,1),%esi
    2d70:	c7 44 24 0c 00 00 00 	movl   $0x0,0xc(%esp)
    2d77:	00 
    2d78:	c7 44 24 08 01 00 00 	movl   $0x1,0x8(%esp)
    2d7f:	00 
    2d80:	c7 44 24 04 6c 6f 63 	movl   $0x20636f6c,0x4(%esp)
    2d87:	20 
    2d88:	c7 04 24 02 00 00 00 	movl   $0x2,(%esp)
    2d8f:	e8 bc f5 00 00       	call   12350 <service_connect_blocking>
    2d94:	a3 38 1f 02 00       	mov    %eax,0x21f38
    2d99:	e9 ca fe ff ff       	jmp    2c68 <loc_service_unregister+0x18>
    2d9e:	66 90                	xchg   %ax,%ax
    2da0:	85 db                	test   %ebx,%ebx
    2da2:	0f 84 27 ff ff ff    	je     2ccf <loc_service_unregister+0x7f>
    2da8:	89 1d 34 1f 02 00    	mov    %ebx,0x21f34
    2dae:	e9 1c ff ff ff       	jmp    2ccf <loc_service_unregister+0x7f>
    2db3:	8d b6 00 00 00 00    	lea    0x0(%esi),%esi
    2db9:	8d bc 27 00 00 00 00 	lea    0x0(%edi,%eiz,1),%edi

00002dc0 <loc_service_get_id>:
    2dc0:	55                   	push   %ebp
    2dc1:	89 e5                	mov    %esp,%ebp
    2dc3:	57                   	push   %edi
    2dc4:	56                   	push   %esi
    2dc5:	53                   	push   %ebx
    2dc6:	83 ec 5c             	sub    $0x5c,%esp
    2dc9:	8b 75 10             	mov    0x10(%ebp),%esi
    2dcc:	8b 7d 08             	mov    0x8(%ebp),%edi
    2dcf:	f7 c6 01 00 00 00    	test   $0x1,%esi
    2dd5:	0f 84 45 01 00 00    	je     2f20 <loc_service_get_id+0x160>
    2ddb:	c7 04 24 40 1d 02 00 	movl   $0x21d40,(%esp)
    2de2:	e8 99 53 00 00       	call   8180 <fibril_mutex_lock>
    2de7:	a1 40 1f 02 00       	mov    0x21f40,%eax
    2dec:	85 c0                	test   %eax,%eax
    2dee:	75 38                	jne    2e28 <loc_service_get_id+0x68>
    2df0:	c7 04 24 50 1d 02 00 	movl   $0x21d50,(%esp)
    2df7:	8b 1d 3c 1f 02 00    	mov    0x21f3c,%ebx
    2dfd:	e8 7e 53 00 00       	call   8180 <fibril_mutex_lock>
    2e02:	a1 40 1f 02 00       	mov    0x21f40,%eax
    2e07:	85 c0                	test   %eax,%eax
    2e09:	0f 84 f9 00 00 00    	je     2f08 <loc_service_get_id+0x148>
    2e0f:	c7 04 24 50 1d 02 00 	movl   $0x21d50,(%esp)
    2e16:	e8 85 54 00 00       	call   82a0 <fibril_mutex_unlock>
    2e1b:	a1 40 1f 02 00       	mov    0x21f40,%eax
    2e20:	85 c0                	test   %eax,%eax
    2e22:	0f 84 68 01 00 00    	je     2f90 <loc_service_get_id+0x1d0>
    2e28:	c7 04 24 40 1d 02 00 	movl   $0x21d40,(%esp)
    2e2f:	e8 6c 54 00 00       	call   82a0 <fibril_mutex_unlock>
    2e34:	c7 04 24 50 1d 02 00 	movl   $0x21d50,(%esp)
    2e3b:	8b 1d 40 1f 02 00    	mov    0x21f40,%ebx
    2e41:	e8 3a 53 00 00       	call   8180 <fibril_mutex_lock>
    2e46:	a1 3c 1f 02 00       	mov    0x21f3c,%eax
    2e4b:	85 c0                	test   %eax,%eax
    2e4d:	0f 84 85 01 00 00    	je     2fd8 <loc_service_get_id+0x218>
    2e53:	c7 04 24 50 1d 02 00 	movl   $0x21d50,(%esp)
    2e5a:	e8 41 54 00 00       	call   82a0 <fibril_mutex_unlock>
    2e5f:	a1 40 1f 02 00       	mov    0x21f40,%eax
    2e64:	89 04 24             	mov    %eax,(%esp)
    2e67:	e8 94 21 01 00       	call   15000 <async_exchange_begin>
    2e6c:	89 c3                	mov    %eax,%ebx
    2e6e:	8d 45 c4             	lea    -0x3c(%ebp),%eax
    2e71:	89 74 24 08          	mov    %esi,0x8(%esp)
    2e75:	89 44 24 18          	mov    %eax,0x18(%esp)
    2e79:	c7 44 24 14 00 00 00 	movl   $0x0,0x14(%esp)
    2e80:	00 
    2e81:	c7 44 24 10 00 00 00 	movl   $0x0,0x10(%esp)
    2e88:	00 
    2e89:	c7 44 24 0c 00 00 00 	movl   $0x0,0xc(%esp)
    2e90:	00 
    2e91:	c7 44 24 04 05 04 00 	movl   $0x405,0x4(%esp)
    2e98:	00 
    2e99:	89 1c 24             	mov    %ebx,(%esp)
    2e9c:	e8 ff 0a 01 00       	call   139a0 <async_send_fast>
    2ea1:	89 3c 24             	mov    %edi,(%esp)
    2ea4:	89 c6                	mov    %eax,%esi
    2ea6:	e8 05 20 00 00       	call   4eb0 <str_size>
    2eab:	89 7c 24 04          	mov    %edi,0x4(%esp)
    2eaf:	89 44 24 08          	mov    %eax,0x8(%esp)
    2eb3:	89 1c 24             	mov    %ebx,(%esp)
    2eb6:	e8 35 30 01 00       	call   15ef0 <async_data_write_start>
    2ebb:	89 1c 24             	mov    %ebx,(%esp)
    2ebe:	89 45 c0             	mov    %eax,-0x40(%ebp)
    2ec1:	e8 aa 24 01 00       	call   15370 <async_exchange_end>
    2ec6:	8b 4d c0             	mov    -0x40(%ebp),%ecx
    2ec9:	85 c9                	test   %ecx,%ecx
    2ecb:	0f 85 ef 00 00 00    	jne    2fc0 <loc_service_get_id+0x200>
    2ed1:	8d 45 c0             	lea    -0x40(%ebp),%eax
    2ed4:	89 34 24             	mov    %esi,(%esp)
    2ed7:	89 44 24 04          	mov    %eax,0x4(%esp)
    2edb:	e8 90 0c 01 00       	call   13b70 <async_wait_for>
    2ee0:	8b 45 c0             	mov    -0x40(%ebp),%eax
    2ee3:	85 c0                	test   %eax,%eax
    2ee5:	0f 84 85 00 00 00    	je     2f70 <loc_service_get_id+0x1b0>
    2eeb:	8b 55 0c             	mov    0xc(%ebp),%edx
    2eee:	85 d2                	test   %edx,%edx
    2ef0:	74 09                	je     2efb <loc_service_get_id+0x13b>
    2ef2:	8b 55 0c             	mov    0xc(%ebp),%edx
    2ef5:	c7 02 ff ff ff ff    	movl   $0xffffffff,(%edx)
    2efb:	83 c4 5c             	add    $0x5c,%esp
    2efe:	5b                   	pop    %ebx
    2eff:	5e                   	pop    %esi
    2f00:	5f                   	pop    %edi
    2f01:	5d                   	pop    %ebp
    2f02:	c3                   	ret    
    2f03:	90                   	nop
    2f04:	8d 74 26 00          	lea    0x0(%esi,%eiz,1),%esi
    2f08:	85 db                	test   %ebx,%ebx
    2f0a:	0f 84 ff fe ff ff    	je     2e0f <loc_service_get_id+0x4f>
    2f10:	89 1d 40 1f 02 00    	mov    %ebx,0x21f40
    2f16:	e9 f4 fe ff ff       	jmp    2e0f <loc_service_get_id+0x4f>
    2f1b:	90                   	nop
    2f1c:	8d 74 26 00          	lea    0x0(%esi,%eiz,1),%esi
    2f20:	c7 04 24 50 1d 02 00 	movl   $0x21d50,(%esp)
    2f27:	e8 54 52 00 00       	call   8180 <fibril_mutex_lock>
    2f2c:	8b 1d 3c 1f 02 00    	mov    0x21f3c,%ebx
    2f32:	85 db                	test   %ebx,%ebx
    2f34:	0f 84 b1 00 00 00    	je     2feb <loc_service_get_id+0x22b>
    2f3a:	c7 04 24 50 1d 02 00 	movl   $0x21d50,(%esp)
    2f41:	e8 5a 53 00 00       	call   82a0 <fibril_mutex_unlock>
    2f46:	a1 3c 1f 02 00       	mov    0x21f3c,%eax
    2f4b:	85 c0                	test   %eax,%eax
    2f4d:	74 12                	je     2f61 <loc_service_get_id+0x1a1>
    2f4f:	89 04 24             	mov    %eax,(%esp)
    2f52:	e8 a9 20 01 00       	call   15000 <async_exchange_begin>
    2f57:	89 c3                	mov    %eax,%ebx
    2f59:	85 c0                	test   %eax,%eax
    2f5b:	0f 85 0d ff ff ff    	jne    2e6e <loc_service_get_id+0xae>
    2f61:	e8 0a 9d 01 00       	call   1cc70 <__errno>
    2f66:	8b 00                	mov    (%eax),%eax
    2f68:	eb 91                	jmp    2efb <loc_service_get_id+0x13b>
    2f6a:	8d b6 00 00 00 00    	lea    0x0(%esi),%esi
    2f70:	8b 45 0c             	mov    0xc(%ebp),%eax
    2f73:	85 c0                	test   %eax,%eax
    2f75:	74 08                	je     2f7f <loc_service_get_id+0x1bf>
    2f77:	8b 55 0c             	mov    0xc(%ebp),%edx
    2f7a:	8b 45 c8             	mov    -0x38(%ebp),%eax
    2f7d:	89 02                	mov    %eax,(%edx)
    2f7f:	83 c4 5c             	add    $0x5c,%esp
    2f82:	31 c0                	xor    %eax,%eax
    2f84:	5b                   	pop    %ebx
    2f85:	5e                   	pop    %esi
    2f86:	5f                   	pop    %edi
    2f87:	5d                   	pop    %ebp
    2f88:	c3                   	ret    
    2f89:	8d b4 26 00 00 00 00 	lea    0x0(%esi,%eiz,1),%esi
    2f90:	c7 44 24 0c 00 00 00 	movl   $0x0,0xc(%esp)
    2f97:	00 
    2f98:	c7 44 24 08 02 00 00 	movl   $0x2,0x8(%esp)
    2f9f:	00 
    2fa0:	c7 44 24 04 6c 6f 63 	movl   $0x20636f6c,0x4(%esp)
    2fa7:	20 
    2fa8:	c7 04 24 02 00 00 00 	movl   $0x2,(%esp)
    2faf:	e8 9c f3 00 00       	call   12350 <service_connect_blocking>
    2fb4:	a3 40 1f 02 00       	mov    %eax,0x21f40
    2fb9:	e9 2e fe ff ff       	jmp    2dec <loc_service_get_id+0x2c>
    2fbe:	66 90                	xchg   %ax,%ax
    2fc0:	89 34 24             	mov    %esi,(%esp)
    2fc3:	e8 f8 0d 01 00       	call   13dc0 <async_forget>
    2fc8:	8b 45 c0             	mov    -0x40(%ebp),%eax
    2fcb:	83 c4 5c             	add    $0x5c,%esp
    2fce:	5b                   	pop    %ebx
    2fcf:	5e                   	pop    %esi
    2fd0:	5f                   	pop    %edi
    2fd1:	5d                   	pop    %ebp
    2fd2:	c3                   	ret    
    2fd3:	90                   	nop
    2fd4:	8d 74 26 00          	lea    0x0(%esi,%eiz,1),%esi
    2fd8:	85 db                	test   %ebx,%ebx
    2fda:	0f 84 73 fe ff ff    	je     2e53 <loc_service_get_id+0x93>
    2fe0:	89 1d 3c 1f 02 00    	mov    %ebx,0x21f3c
    2fe6:	e9 68 fe ff ff       	jmp    2e53 <loc_service_get_id+0x93>
    2feb:	c7 44 24 0c 00 00 00 	movl   $0x0,0xc(%esp)
    2ff2:	00 
    2ff3:	c7 44 24 08 02 00 00 	movl   $0x2,0x8(%esp)
    2ffa:	00 
    2ffb:	c7 44 24 04 6c 6f 63 	movl   $0x20636f6c,0x4(%esp)
    3002:	20 
    3003:	c7 04 24 02 00 00 00 	movl   $0x2,(%esp)
    300a:	e8 c1 f2 00 00       	call   122d0 <service_connect>
    300f:	a3 3c 1f 02 00       	mov    %eax,0x21f3c
    3014:	e9 21 ff ff ff       	jmp    2f3a <loc_service_get_id+0x17a>
    3019:	8d b4 26 00 00 00 00 	lea    0x0(%esi,%eiz,1),%esi

00003020 <loc_category_get_name>:
    3020:	55                   	push   %ebp
    3021:	b8 0b 04 00 00       	mov    $0x40b,%eax
    3026:	89 e5                	mov    %esp,%ebp
    3028:	8b 4d 0c             	mov    0xc(%ebp),%ecx
    302b:	8b 55 08             	mov    0x8(%ebp),%edx
    302e:	5d                   	pop    %ebp
    302f:	e9 6c ed ff ff       	jmp    1da0 <loc_get_name_internal>
    3034:	8d b6 00 00 00 00    	lea    0x0(%esi),%esi
    303a:	8d bf 00 00 00 00    	lea    0x0(%edi),%edi

00003040 <loc_service_get_name>:
    3040:	55                   	push   %ebp
    3041:	b8 06 04 00 00       	mov    $0x406,%eax
    3046:	89 e5                	mov    %esp,%ebp
    3048:	8b 4d 0c             	mov    0xc(%ebp),%ecx
    304b:	8b 55 08             	mov    0x8(%ebp),%edx
    304e:	5d                   	pop    %ebp
    304f:	e9 4c ed ff ff       	jmp    1da0 <loc_get_name_internal>
    3054:	8d b6 00 00 00 00    	lea    0x0(%esi),%esi
    305a:	8d bf 00 00 00 00    	lea    0x0(%edi),%edi

00003060 <loc_service_get_server_name>:
    3060:	55                   	push   %ebp
    3061:	b8 07 04 00 00       	mov    $0x407,%eax
    3066:	89 e5                	mov    %esp,%ebp
    3068:	8b 4d 0c             	mov    0xc(%ebp),%ecx
    306b:	8b 55 08             	mov    0x8(%ebp),%edx
    306e:	5d                   	pop    %ebp
    306f:	e9 2c ed ff ff       	jmp    1da0 <loc_get_name_internal>
    3074:	8d b6 00 00 00 00    	lea    0x0(%esi),%esi
    307a:	8d bf 00 00 00 00    	lea    0x0(%edi),%edi

00003080 <loc_namespace_get_id>:
    3080:	55                   	push   %ebp
    3081:	89 e5                	mov    %esp,%ebp
    3083:	57                   	push   %edi
    3084:	56                   	push   %esi
    3085:	53                   	push   %ebx
    3086:	83 ec 5c             	sub    $0x5c,%esp
    3089:	8b 75 10             	mov    0x10(%ebp),%esi
    308c:	8b 7d 08             	mov    0x8(%ebp),%edi
    308f:	f7 c6 01 00 00 00    	test   $0x1,%esi
    3095:	0f 84 45 01 00 00    	je     31e0 <loc_namespace_get_id+0x160>
    309b:	c7 04 24 40 1d 02 00 	movl   $0x21d40,(%esp)
    30a2:	e8 d9 50 00 00       	call   8180 <fibril_mutex_lock>
    30a7:	a1 40 1f 02 00       	mov    0x21f40,%eax
    30ac:	85 c0                	test   %eax,%eax
    30ae:	75 38                	jne    30e8 <loc_namespace_get_id+0x68>
    30b0:	c7 04 24 50 1d 02 00 	movl   $0x21d50,(%esp)
    30b7:	8b 1d 3c 1f 02 00    	mov    0x21f3c,%ebx
    30bd:	e8 be 50 00 00       	call   8180 <fibril_mutex_lock>
    30c2:	a1 40 1f 02 00       	mov    0x21f40,%eax
    30c7:	85 c0                	test   %eax,%eax
    30c9:	0f 84 f9 00 00 00    	je     31c8 <loc_namespace_get_id+0x148>
    30cf:	c7 04 24 50 1d 02 00 	movl   $0x21d50,(%esp)
    30d6:	e8 c5 51 00 00       	call   82a0 <fibril_mutex_unlock>
    30db:	a1 40 1f 02 00       	mov    0x21f40,%eax
    30e0:	85 c0                	test   %eax,%eax
    30e2:	0f 84 68 01 00 00    	je     3250 <loc_namespace_get_id+0x1d0>
    30e8:	c7 04 24 40 1d 02 00 	movl   $0x21d40,(%esp)
    30ef:	e8 ac 51 00 00       	call   82a0 <fibril_mutex_unlock>
    30f4:	c7 04 24 50 1d 02 00 	movl   $0x21d50,(%esp)
    30fb:	8b 1d 40 1f 02 00    	mov    0x21f40,%ebx
    3101:	e8 7a 50 00 00       	call   8180 <fibril_mutex_lock>
    3106:	a1 3c 1f 02 00       	mov    0x21f3c,%eax
    310b:	85 c0                	test   %eax,%eax
    310d:	0f 84 85 01 00 00    	je     3298 <loc_namespace_get_id+0x218>
    3113:	c7 04 24 50 1d 02 00 	movl   $0x21d50,(%esp)
    311a:	e8 81 51 00 00       	call   82a0 <fibril_mutex_unlock>
    311f:	a1 40 1f 02 00       	mov    0x21f40,%eax
    3124:	89 04 24             	mov    %eax,(%esp)
    3127:	e8 d4 1e 01 00       	call   15000 <async_exchange_begin>
    312c:	89 c3                	mov    %eax,%ebx
    312e:	8d 45 c4             	lea    -0x3c(%ebp),%eax
    3131:	89 74 24 08          	mov    %esi,0x8(%esp)
    3135:	89 44 24 18          	mov    %eax,0x18(%esp)
    3139:	c7 44 24 14 00 00 00 	movl   $0x0,0x14(%esp)
    3140:	00 
    3141:	c7 44 24 10 00 00 00 	movl   $0x0,0x10(%esp)
    3148:	00 
    3149:	c7 44 24 0c 00 00 00 	movl   $0x0,0xc(%esp)
    3150:	00 
    3151:	c7 44 24 04 08 04 00 	movl   $0x408,0x4(%esp)
    3158:	00 
    3159:	89 1c 24             	mov    %ebx,(%esp)
    315c:	e8 3f 08 01 00       	call   139a0 <async_send_fast>
    3161:	89 3c 24             	mov    %edi,(%esp)
    3164:	89 c6                	mov    %eax,%esi
    3166:	e8 45 1d 00 00       	call   4eb0 <str_size>
    316b:	89 7c 24 04          	mov    %edi,0x4(%esp)
    316f:	89 44 24 08          	mov    %eax,0x8(%esp)
    3173:	89 1c 24             	mov    %ebx,(%esp)
    3176:	e8 75 2d 01 00       	call   15ef0 <async_data_write_start>
    317b:	89 1c 24             	mov    %ebx,(%esp)
    317e:	89 45 c0             	mov    %eax,-0x40(%ebp)
    3181:	e8 ea 21 01 00       	call   15370 <async_exchange_end>
    3186:	8b 4d c0             	mov    -0x40(%ebp),%ecx
    3189:	85 c9                	test   %ecx,%ecx
    318b:	0f 85 ef 00 00 00    	jne    3280 <loc_namespace_get_id+0x200>
    3191:	8d 45 c0             	lea    -0x40(%ebp),%eax
    3194:	89 34 24             	mov    %esi,(%esp)
    3197:	89 44 24 04          	mov    %eax,0x4(%esp)
    319b:	e8 d0 09 01 00       	call   13b70 <async_wait_for>
    31a0:	8b 45 c0             	mov    -0x40(%ebp),%eax
    31a3:	85 c0                	test   %eax,%eax
    31a5:	0f 84 85 00 00 00    	je     3230 <loc_namespace_get_id+0x1b0>
    31ab:	8b 55 0c             	mov    0xc(%ebp),%edx
    31ae:	85 d2                	test   %edx,%edx
    31b0:	74 09                	je     31bb <loc_namespace_get_id+0x13b>
    31b2:	8b 55 0c             	mov    0xc(%ebp),%edx
    31b5:	c7 02 ff ff ff ff    	movl   $0xffffffff,(%edx)
    31bb:	83 c4 5c             	add    $0x5c,%esp
    31be:	5b                   	pop    %ebx
    31bf:	5e                   	pop    %esi
    31c0:	5f                   	pop    %edi
    31c1:	5d                   	pop    %ebp
    31c2:	c3                   	ret    
    31c3:	90                   	nop
    31c4:	8d 74 26 00          	lea    0x0(%esi,%eiz,1),%esi
    31c8:	85 db                	test   %ebx,%ebx
    31ca:	0f 84 ff fe ff ff    	je     30cf <loc_namespace_get_id+0x4f>
    31d0:	89 1d 40 1f 02 00    	mov    %ebx,0x21f40
    31d6:	e9 f4 fe ff ff       	jmp    30cf <loc_namespace_get_id+0x4f>
    31db:	90                   	nop
    31dc:	8d 74 26 00          	lea    0x0(%esi,%eiz,1),%esi
    31e0:	c7 04 24 50 1d 02 00 	movl   $0x21d50,(%esp)
    31e7:	e8 94 4f 00 00       	call   8180 <fibril_mutex_lock>
    31ec:	8b 1d 3c 1f 02 00    	mov    0x21f3c,%ebx
    31f2:	85 db                	test   %ebx,%ebx
    31f4:	0f 84 b1 00 00 00    	je     32ab <loc_namespace_get_id+0x22b>
    31fa:	c7 04 24 50 1d 02 00 	movl   $0x21d50,(%esp)
    3201:	e8 9a 50 00 00       	call   82a0 <fibril_mutex_unlock>
    3206:	a1 3c 1f 02 00       	mov    0x21f3c,%eax
    320b:	85 c0                	test   %eax,%eax
    320d:	74 12                	je     3221 <loc_namespace_get_id+0x1a1>
    320f:	89 04 24             	mov    %eax,(%esp)
    3212:	e8 e9 1d 01 00       	call   15000 <async_exchange_begin>
    3217:	89 c3                	mov    %eax,%ebx
    3219:	85 c0                	test   %eax,%eax
    321b:	0f 85 0d ff ff ff    	jne    312e <loc_namespace_get_id+0xae>
    3221:	e8 4a 9a 01 00       	call   1cc70 <__errno>
    3226:	8b 00                	mov    (%eax),%eax
    3228:	eb 91                	jmp    31bb <loc_namespace_get_id+0x13b>
    322a:	8d b6 00 00 00 00    	lea    0x0(%esi),%esi
    3230:	8b 45 0c             	mov    0xc(%ebp),%eax
    3233:	85 c0                	test   %eax,%eax
    3235:	74 08                	je     323f <loc_namespace_get_id+0x1bf>
    3237:	8b 55 0c             	mov    0xc(%ebp),%edx
    323a:	8b 45 c8             	mov    -0x38(%ebp),%eax
    323d:	89 02                	mov    %eax,(%edx)
    323f:	83 c4 5c             	add    $0x5c,%esp
    3242:	31 c0                	xor    %eax,%eax
    3244:	5b                   	pop    %ebx
    3245:	5e                   	pop    %esi
    3246:	5f                   	pop    %edi
    3247:	5d                   	pop    %ebp
    3248:	c3                   	ret    
    3249:	8d b4 26 00 00 00 00 	lea    0x0(%esi,%eiz,1),%esi
    3250:	c7 44 24 0c 00 00 00 	movl   $0x0,0xc(%esp)
    3257:	00 
    3258:	c7 44 24 08 02 00 00 	movl   $0x2,0x8(%esp)
    325f:	00 
    3260:	c7 44 24 04 6c 6f 63 	movl   $0x20636f6c,0x4(%esp)
    3267:	20 
    3268:	c7 04 24 02 00 00 00 	movl   $0x2,(%esp)
    326f:	e8 dc f0 00 00       	call   12350 <service_connect_blocking>
    3274:	a3 40 1f 02 00       	mov    %eax,0x21f40
    3279:	e9 2e fe ff ff       	jmp    30ac <loc_namespace_get_id+0x2c>
    327e:	66 90                	xchg   %ax,%ax
    3280:	89 34 24             	mov    %esi,(%esp)
    3283:	e8 38 0b 01 00       	call   13dc0 <async_forget>
    3288:	8b 45 c0             	mov    -0x40(%ebp),%eax
    328b:	83 c4 5c             	add    $0x5c,%esp
    328e:	5b                   	pop    %ebx
    328f:	5e                   	pop    %esi
    3290:	5f                   	pop    %edi
    3291:	5d                   	pop    %ebp
    3292:	c3                   	ret    
    3293:	90                   	nop
    3294:	8d 74 26 00          	lea    0x0(%esi,%eiz,1),%esi
    3298:	85 db                	test   %ebx,%ebx
    329a:	0f 84 73 fe ff ff    	je     3113 <loc_namespace_get_id+0x93>
    32a0:	89 1d 3c 1f 02 00    	mov    %ebx,0x21f3c
    32a6:	e9 68 fe ff ff       	jmp    3113 <loc_namespace_get_id+0x93>
    32ab:	c7 44 24 0c 00 00 00 	movl   $0x0,0xc(%esp)
    32b2:	00 
    32b3:	c7 44 24 08 02 00 00 	movl   $0x2,0x8(%esp)
    32ba:	00 
    32bb:	c7 44 24 04 6c 6f 63 	movl   $0x20636f6c,0x4(%esp)
    32c2:	20 
    32c3:	c7 04 24 02 00 00 00 	movl   $0x2,(%esp)
    32ca:	e8 01 f0 00 00       	call   122d0 <service_connect>
    32cf:	a3 3c 1f 02 00       	mov    %eax,0x21f3c
    32d4:	e9 21 ff ff ff       	jmp    31fa <loc_namespace_get_id+0x17a>
    32d9:	8d b4 26 00 00 00 00 	lea    0x0(%esi,%eiz,1),%esi

000032e0 <loc_category_get_id>:
    32e0:	55                   	push   %ebp
    32e1:	89 e5                	mov    %esp,%ebp
    32e3:	57                   	push   %edi
    32e4:	56                   	push   %esi
    32e5:	53                   	push   %ebx
    32e6:	83 ec 5c             	sub    $0x5c,%esp
    32e9:	8b 75 08             	mov    0x8(%ebp),%esi
    32ec:	f6 45 10 01          	testb  $0x1,0x10(%ebp)
    32f0:	0f 84 4a 01 00 00    	je     3440 <loc_category_get_id+0x160>
    32f6:	c7 04 24 40 1d 02 00 	movl   $0x21d40,(%esp)
    32fd:	e8 7e 4e 00 00       	call   8180 <fibril_mutex_lock>
    3302:	a1 40 1f 02 00       	mov    0x21f40,%eax
    3307:	85 c0                	test   %eax,%eax
    3309:	75 38                	jne    3343 <loc_category_get_id+0x63>
    330b:	c7 04 24 50 1d 02 00 	movl   $0x21d50,(%esp)
    3312:	8b 1d 3c 1f 02 00    	mov    0x21f3c,%ebx
    3318:	e8 63 4e 00 00       	call   8180 <fibril_mutex_lock>
    331d:	a1 40 1f 02 00       	mov    0x21f40,%eax
    3322:	85 c0                	test   %eax,%eax
    3324:	0f 84 fe 00 00 00    	je     3428 <loc_category_get_id+0x148>
    332a:	c7 04 24 50 1d 02 00 	movl   $0x21d50,(%esp)
    3331:	e8 6a 4f 00 00       	call   82a0 <fibril_mutex_unlock>
    3336:	a1 40 1f 02 00       	mov    0x21f40,%eax
    333b:	85 c0                	test   %eax,%eax
    333d:	0f 84 6d 01 00 00    	je     34b0 <loc_category_get_id+0x1d0>
    3343:	c7 04 24 40 1d 02 00 	movl   $0x21d40,(%esp)
    334a:	e8 51 4f 00 00       	call   82a0 <fibril_mutex_unlock>
    334f:	c7 04 24 50 1d 02 00 	movl   $0x21d50,(%esp)
    3356:	8b 1d 40 1f 02 00    	mov    0x21f40,%ebx
    335c:	e8 1f 4e 00 00       	call   8180 <fibril_mutex_lock>
    3361:	8b 3d 3c 1f 02 00    	mov    0x21f3c,%edi
    3367:	85 ff                	test   %edi,%edi
    3369:	0f 84 89 01 00 00    	je     34f8 <loc_category_get_id+0x218>
    336f:	c7 04 24 50 1d 02 00 	movl   $0x21d50,(%esp)
    3376:	e8 25 4f 00 00       	call   82a0 <fibril_mutex_unlock>
    337b:	a1 40 1f 02 00       	mov    0x21f40,%eax
    3380:	89 04 24             	mov    %eax,(%esp)
    3383:	e8 78 1c 01 00       	call   15000 <async_exchange_begin>
    3388:	89 c3                	mov    %eax,%ebx
    338a:	8d 45 c4             	lea    -0x3c(%ebp),%eax
    338d:	c7 44 24 14 00 00 00 	movl   $0x0,0x14(%esp)
    3394:	00 
    3395:	89 44 24 18          	mov    %eax,0x18(%esp)
    3399:	c7 44 24 10 00 00 00 	movl   $0x0,0x10(%esp)
    33a0:	00 
    33a1:	c7 44 24 0c 00 00 00 	movl   $0x0,0xc(%esp)
    33a8:	00 
    33a9:	c7 44 24 08 00 00 00 	movl   $0x0,0x8(%esp)
    33b0:	00 
    33b1:	c7 44 24 04 0a 04 00 	movl   $0x40a,0x4(%esp)
    33b8:	00 
    33b9:	89 1c 24             	mov    %ebx,(%esp)
    33bc:	e8 df 05 01 00       	call   139a0 <async_send_fast>
    33c1:	89 34 24             	mov    %esi,(%esp)
    33c4:	89 c7                	mov    %eax,%edi
    33c6:	e8 e5 1a 00 00       	call   4eb0 <str_size>
    33cb:	89 74 24 04          	mov    %esi,0x4(%esp)
    33cf:	89 44 24 08          	mov    %eax,0x8(%esp)
    33d3:	89 1c 24             	mov    %ebx,(%esp)
    33d6:	e8 15 2b 01 00       	call   15ef0 <async_data_write_start>
    33db:	89 1c 24             	mov    %ebx,(%esp)
    33de:	89 45 c0             	mov    %eax,-0x40(%ebp)
    33e1:	e8 8a 1f 01 00       	call   15370 <async_exchange_end>
    33e6:	8b 4d c0             	mov    -0x40(%ebp),%ecx
    33e9:	85 c9                	test   %ecx,%ecx
    33eb:	0f 85 ef 00 00 00    	jne    34e0 <loc_category_get_id+0x200>
    33f1:	8d 45 c0             	lea    -0x40(%ebp),%eax
    33f4:	89 3c 24             	mov    %edi,(%esp)
    33f7:	89 44 24 04          	mov    %eax,0x4(%esp)
    33fb:	e8 70 07 01 00       	call   13b70 <async_wait_for>
    3400:	8b 45 c0             	mov    -0x40(%ebp),%eax
    3403:	85 c0                	test   %eax,%eax
    3405:	0f 84 85 00 00 00    	je     3490 <loc_category_get_id+0x1b0>
    340b:	8b 55 0c             	mov    0xc(%ebp),%edx
    340e:	85 d2                	test   %edx,%edx
    3410:	74 09                	je     341b <loc_category_get_id+0x13b>
    3412:	8b 55 0c             	mov    0xc(%ebp),%edx
    3415:	c7 02 ff ff ff ff    	movl   $0xffffffff,(%edx)
    341b:	83 c4 5c             	add    $0x5c,%esp
    341e:	5b                   	pop    %ebx
    341f:	5e                   	pop    %esi
    3420:	5f                   	pop    %edi
    3421:	5d                   	pop    %ebp
    3422:	c3                   	ret    
    3423:	90                   	nop
    3424:	8d 74 26 00          	lea    0x0(%esi,%eiz,1),%esi
    3428:	85 db                	test   %ebx,%ebx
    342a:	0f 84 fa fe ff ff    	je     332a <loc_category_get_id+0x4a>
    3430:	89 1d 40 1f 02 00    	mov    %ebx,0x21f40
    3436:	e9 ef fe ff ff       	jmp    332a <loc_category_get_id+0x4a>
    343b:	90                   	nop
    343c:	8d 74 26 00          	lea    0x0(%esi,%eiz,1),%esi
    3440:	c7 04 24 50 1d 02 00 	movl   $0x21d50,(%esp)
    3447:	e8 34 4d 00 00       	call   8180 <fibril_mutex_lock>
    344c:	8b 1d 3c 1f 02 00    	mov    0x21f3c,%ebx
    3452:	85 db                	test   %ebx,%ebx
    3454:	0f 84 b1 00 00 00    	je     350b <loc_category_get_id+0x22b>
    345a:	c7 04 24 50 1d 02 00 	movl   $0x21d50,(%esp)
    3461:	e8 3a 4e 00 00       	call   82a0 <fibril_mutex_unlock>
    3466:	a1 3c 1f 02 00       	mov    0x21f3c,%eax
    346b:	85 c0                	test   %eax,%eax
    346d:	74 12                	je     3481 <loc_category_get_id+0x1a1>
    346f:	89 04 24             	mov    %eax,(%esp)
    3472:	e8 89 1b 01 00       	call   15000 <async_exchange_begin>
    3477:	89 c3                	mov    %eax,%ebx
    3479:	85 c0                	test   %eax,%eax
    347b:	0f 85 09 ff ff ff    	jne    338a <loc_category_get_id+0xaa>
    3481:	e8 ea 97 01 00       	call   1cc70 <__errno>
    3486:	8b 00                	mov    (%eax),%eax
    3488:	eb 91                	jmp    341b <loc_category_get_id+0x13b>
    348a:	8d b6 00 00 00 00    	lea    0x0(%esi),%esi
    3490:	8b 45 0c             	mov    0xc(%ebp),%eax
    3493:	85 c0                	test   %eax,%eax
    3495:	74 08                	je     349f <loc_category_get_id+0x1bf>
    3497:	8b 55 0c             	mov    0xc(%ebp),%edx
    349a:	8b 45 c8             	mov    -0x38(%ebp),%eax
    349d:	89 02                	mov    %eax,(%edx)
    349f:	83 c4 5c             	add    $0x5c,%esp
    34a2:	31 c0                	xor    %eax,%eax
    34a4:	5b                   	pop    %ebx
    34a5:	5e                   	pop    %esi
    34a6:	5f                   	pop    %edi
    34a7:	5d                   	pop    %ebp
    34a8:	c3                   	ret    
    34a9:	8d b4 26 00 00 00 00 	lea    0x0(%esi,%eiz,1),%esi
    34b0:	c7 44 24 0c 00 00 00 	movl   $0x0,0xc(%esp)
    34b7:	00 
    34b8:	c7 44 24 08 02 00 00 	movl   $0x2,0x8(%esp)
    34bf:	00 
    34c0:	c7 44 24 04 6c 6f 63 	movl   $0x20636f6c,0x4(%esp)
    34c7:	20 
    34c8:	c7 04 24 02 00 00 00 	movl   $0x2,(%esp)
    34cf:	e8 7c ee 00 00       	call   12350 <service_connect_blocking>
    34d4:	a3 40 1f 02 00       	mov    %eax,0x21f40
    34d9:	e9 29 fe ff ff       	jmp    3307 <loc_category_get_id+0x27>
    34de:	66 90                	xchg   %ax,%ax
    34e0:	89 3c 24             	mov    %edi,(%esp)
    34e3:	e8 d8 08 01 00       	call   13dc0 <async_forget>
    34e8:	8b 45 c0             	mov    -0x40(%ebp),%eax
    34eb:	83 c4 5c             	add    $0x5c,%esp
    34ee:	5b                   	pop    %ebx
    34ef:	5e                   	pop    %esi
    34f0:	5f                   	pop    %edi
    34f1:	5d                   	pop    %ebp
    34f2:	c3                   	ret    
    34f3:	90                   	nop
    34f4:	8d 74 26 00          	lea    0x0(%esi,%eiz,1),%esi
    34f8:	85 db                	test   %ebx,%ebx
    34fa:	0f 84 6f fe ff ff    	je     336f <loc_category_get_id+0x8f>
    3500:	89 1d 3c 1f 02 00    	mov    %ebx,0x21f3c
    3506:	e9 64 fe ff ff       	jmp    336f <loc_category_get_id+0x8f>
    350b:	c7 44 24 0c 00 00 00 	movl   $0x0,0xc(%esp)
    3512:	00 
    3513:	c7 44 24 08 02 00 00 	movl   $0x2,0x8(%esp)
    351a:	00 
    351b:	c7 44 24 04 6c 6f 63 	movl   $0x20636f6c,0x4(%esp)
    3522:	20 
    3523:	c7 04 24 02 00 00 00 	movl   $0x2,(%esp)
    352a:	e8 a1 ed 00 00       	call   122d0 <service_connect>
    352f:	a3 3c 1f 02 00       	mov    %eax,0x21f3c
    3534:	e9 21 ff ff ff       	jmp    345a <loc_category_get_id+0x17a>
    3539:	8d b4 26 00 00 00 00 	lea    0x0(%esi,%eiz,1),%esi

00003540 <loc_id_probe>:
    3540:	55                   	push   %ebp
    3541:	89 e5                	mov    %esp,%ebp
    3543:	56                   	push   %esi
    3544:	53                   	push   %ebx
    3545:	83 ec 40             	sub    $0x40,%esp
    3548:	c7 04 24 40 1d 02 00 	movl   $0x21d40,(%esp)
    354f:	e8 2c 4c 00 00       	call   8180 <fibril_mutex_lock>
    3554:	a1 40 1f 02 00       	mov    0x21f40,%eax
    3559:	85 c0                	test   %eax,%eax
    355b:	75 38                	jne    3595 <loc_id_probe+0x55>
    355d:	c7 04 24 50 1d 02 00 	movl   $0x21d50,(%esp)
    3564:	8b 1d 3c 1f 02 00    	mov    0x21f3c,%ebx
    356a:	e8 11 4c 00 00       	call   8180 <fibril_mutex_lock>
    356f:	a1 40 1f 02 00       	mov    0x21f40,%eax
    3574:	85 c0                	test   %eax,%eax
    3576:	0f 84 d4 00 00 00    	je     3650 <loc_id_probe+0x110>
    357c:	c7 04 24 50 1d 02 00 	movl   $0x21d50,(%esp)
    3583:	e8 18 4d 00 00       	call   82a0 <fibril_mutex_unlock>
    3588:	a1 40 1f 02 00       	mov    0x21f40,%eax
    358d:	85 c0                	test   %eax,%eax
    358f:	0f 84 d3 00 00 00    	je     3668 <loc_id_probe+0x128>
    3595:	c7 04 24 40 1d 02 00 	movl   $0x21d40,(%esp)
    359c:	e8 ff 4c 00 00       	call   82a0 <fibril_mutex_unlock>
    35a1:	c7 04 24 50 1d 02 00 	movl   $0x21d50,(%esp)
    35a8:	8b 1d 40 1f 02 00    	mov    0x21f40,%ebx
    35ae:	e8 cd 4b 00 00       	call   8180 <fibril_mutex_lock>
    35b3:	a1 3c 1f 02 00       	mov    0x21f3c,%eax
    35b8:	85 c0                	test   %eax,%eax
    35ba:	0f 84 d8 00 00 00    	je     3698 <loc_id_probe+0x158>
    35c0:	c7 04 24 50 1d 02 00 	movl   $0x21d50,(%esp)
    35c7:	e8 d4 4c 00 00       	call   82a0 <fibril_mutex_unlock>
    35cc:	a1 40 1f 02 00       	mov    0x21f40,%eax
    35d1:	89 04 24             	mov    %eax,(%esp)
    35d4:	e8 27 1a 01 00       	call   15000 <async_exchange_begin>
    35d9:	c7 44 24 28 00 00 00 	movl   $0x0,0x28(%esp)
    35e0:	00 
    35e1:	89 c3                	mov    %eax,%ebx
    35e3:	8d 45 f4             	lea    -0xc(%ebp),%eax
    35e6:	89 44 24 18          	mov    %eax,0x18(%esp)
    35ea:	8b 45 08             	mov    0x8(%ebp),%eax
    35ed:	c7 44 24 24 00 00 00 	movl   $0x0,0x24(%esp)
    35f4:	00 
    35f5:	c7 44 24 20 00 00 00 	movl   $0x0,0x20(%esp)
    35fc:	00 
    35fd:	c7 44 24 1c 00 00 00 	movl   $0x0,0x1c(%esp)
    3604:	00 
    3605:	c7 44 24 14 00 00 00 	movl   $0x0,0x14(%esp)
    360c:	00 
    360d:	c7 44 24 10 00 00 00 	movl   $0x0,0x10(%esp)
    3614:	00 
    3615:	c7 44 24 0c 00 00 00 	movl   $0x0,0xc(%esp)
    361c:	00 
    361d:	89 44 24 08          	mov    %eax,0x8(%esp)
    3621:	c7 44 24 04 0d 04 00 	movl   $0x40d,0x4(%esp)
    3628:	00 
    3629:	89 1c 24             	mov    %ebx,(%esp)
    362c:	e8 7f 09 01 00       	call   13fb0 <async_req_fast>
    3631:	89 1c 24             	mov    %ebx,(%esp)
    3634:	89 c6                	mov    %eax,%esi
    3636:	e8 35 1d 01 00       	call   15370 <async_exchange_end>
    363b:	31 c0                	xor    %eax,%eax
    363d:	85 f6                	test   %esi,%esi
    363f:	75 03                	jne    3644 <loc_id_probe+0x104>
    3641:	8b 45 f4             	mov    -0xc(%ebp),%eax
    3644:	83 c4 40             	add    $0x40,%esp
    3647:	5b                   	pop    %ebx
    3648:	5e                   	pop    %esi
    3649:	5d                   	pop    %ebp
    364a:	c3                   	ret    
    364b:	90                   	nop
    364c:	8d 74 26 00          	lea    0x0(%esi,%eiz,1),%esi
    3650:	85 db                	test   %ebx,%ebx
    3652:	0f 84 24 ff ff ff    	je     357c <loc_id_probe+0x3c>
    3658:	89 1d 40 1f 02 00    	mov    %ebx,0x21f40
    365e:	e9 19 ff ff ff       	jmp    357c <loc_id_probe+0x3c>
    3663:	90                   	nop
    3664:	8d 74 26 00          	lea    0x0(%esi,%eiz,1),%esi
    3668:	c7 44 24 0c 00 00 00 	movl   $0x0,0xc(%esp)
    366f:	00 
    3670:	c7 44 24 08 02 00 00 	movl   $0x2,0x8(%esp)
    3677:	00 
    3678:	c7 44 24 04 6c 6f 63 	movl   $0x20636f6c,0x4(%esp)
    367f:	20 
    3680:	c7 04 24 02 00 00 00 	movl   $0x2,(%esp)
    3687:	e8 c4 ec 00 00       	call   12350 <service_connect_blocking>
    368c:	a3 40 1f 02 00       	mov    %eax,0x21f40
    3691:	e9 c3 fe ff ff       	jmp    3559 <loc_id_probe+0x19>
    3696:	66 90                	xchg   %ax,%ax
    3698:	85 db                	test   %ebx,%ebx
    369a:	0f 84 20 ff ff ff    	je     35c0 <loc_id_probe+0x80>
    36a0:	89 1d 3c 1f 02 00    	mov    %ebx,0x21f3c
    36a6:	e9 15 ff ff ff       	jmp    35c0 <loc_id_probe+0x80>
    36ab:	90                   	nop
    36ac:	8d 74 26 00          	lea    0x0(%esi,%eiz,1),%esi

000036b0 <loc_service_connect>:
    36b0:	55                   	push   %ebp
    36b1:	89 e5                	mov    %esp,%ebp
    36b3:	83 ec 18             	sub    $0x18,%esp
    36b6:	8b 45 08             	mov    0x8(%ebp),%eax
    36b9:	8b 55 0c             	mov    0xc(%ebp),%edx
    36bc:	f6 45 10 01          	testb  $0x1,0x10(%ebp)
    36c0:	89 54 24 0c          	mov    %edx,0xc(%esp)
    36c4:	c7 44 24 08 03 00 00 	movl   $0x3,0x8(%esp)
    36cb:	00 
    36cc:	c7 44 24 04 6c 6f 63 	movl   $0x20636f6c,0x4(%esp)
    36d3:	20 
    36d4:	89 04 24             	mov    %eax,(%esp)
    36d7:	75 07                	jne    36e0 <loc_service_connect+0x30>
    36d9:	e8 f2 eb 00 00       	call   122d0 <service_connect>
    36de:	c9                   	leave  
    36df:	c3                   	ret    
    36e0:	e8 6b ec 00 00       	call   12350 <service_connect_blocking>
    36e5:	c9                   	leave  
    36e6:	c3                   	ret    
    36e7:	89 f6                	mov    %esi,%esi
    36e9:	8d bc 27 00 00 00 00 	lea    0x0(%edi,%eiz,1),%edi

000036f0 <loc_null_create>:
    36f0:	55                   	push   %ebp
    36f1:	89 e5                	mov    %esp,%ebp
    36f3:	56                   	push   %esi
    36f4:	53                   	push   %ebx
    36f5:	83 ec 40             	sub    $0x40,%esp
    36f8:	c7 04 24 40 1d 02 00 	movl   $0x21d40,(%esp)
    36ff:	e8 7c 4a 00 00       	call   8180 <fibril_mutex_lock>
    3704:	a1 40 1f 02 00       	mov    0x21f40,%eax
    3709:	85 c0                	test   %eax,%eax
    370b:	75 3a                	jne    3747 <loc_null_create+0x57>
    370d:	c7 04 24 50 1d 02 00 	movl   $0x21d50,(%esp)
    3714:	8b 1d 3c 1f 02 00    	mov    0x21f3c,%ebx
    371a:	e8 61 4a 00 00       	call   8180 <fibril_mutex_lock>
    371f:	8b 0d 40 1f 02 00    	mov    0x21f40,%ecx
    3725:	85 c9                	test   %ecx,%ecx
    3727:	0f 84 d3 00 00 00    	je     3800 <loc_null_create+0x110>
    372d:	c7 04 24 50 1d 02 00 	movl   $0x21d50,(%esp)
    3734:	e8 67 4b 00 00       	call   82a0 <fibril_mutex_unlock>
    3739:	8b 15 40 1f 02 00    	mov    0x21f40,%edx
    373f:	85 d2                	test   %edx,%edx
    3741:	0f 84 d1 00 00 00    	je     3818 <loc_null_create+0x128>
    3747:	c7 04 24 40 1d 02 00 	movl   $0x21d40,(%esp)
    374e:	e8 4d 4b 00 00       	call   82a0 <fibril_mutex_unlock>
    3753:	c7 04 24 50 1d 02 00 	movl   $0x21d50,(%esp)
    375a:	8b 1d 40 1f 02 00    	mov    0x21f40,%ebx
    3760:	e8 1b 4a 00 00       	call   8180 <fibril_mutex_lock>
    3765:	a1 3c 1f 02 00       	mov    0x21f3c,%eax
    376a:	85 c0                	test   %eax,%eax
    376c:	0f 84 d6 00 00 00    	je     3848 <loc_null_create+0x158>
    3772:	c7 04 24 50 1d 02 00 	movl   $0x21d50,(%esp)
    3779:	e8 22 4b 00 00       	call   82a0 <fibril_mutex_unlock>
    377e:	a1 40 1f 02 00       	mov    0x21f40,%eax
    3783:	89 04 24             	mov    %eax,(%esp)
    3786:	e8 75 18 01 00       	call   15000 <async_exchange_begin>
    378b:	c7 44 24 28 00 00 00 	movl   $0x0,0x28(%esp)
    3792:	00 
    3793:	89 c3                	mov    %eax,%ebx
    3795:	8d 45 f4             	lea    -0xc(%ebp),%eax
    3798:	c7 44 24 24 00 00 00 	movl   $0x0,0x24(%esp)
    379f:	00 
    37a0:	c7 44 24 20 00 00 00 	movl   $0x0,0x20(%esp)
    37a7:	00 
    37a8:	c7 44 24 1c 00 00 00 	movl   $0x0,0x1c(%esp)
    37af:	00 
    37b0:	89 44 24 18          	mov    %eax,0x18(%esp)
    37b4:	c7 44 24 14 00 00 00 	movl   $0x0,0x14(%esp)
    37bb:	00 
    37bc:	c7 44 24 10 00 00 00 	movl   $0x0,0x10(%esp)
    37c3:	00 
    37c4:	c7 44 24 0c 00 00 00 	movl   $0x0,0xc(%esp)
    37cb:	00 
    37cc:	c7 44 24 08 00 00 00 	movl   $0x0,0x8(%esp)
    37d3:	00 
    37d4:	c7 44 24 04 0e 04 00 	movl   $0x40e,0x4(%esp)
    37db:	00 
    37dc:	89 1c 24             	mov    %ebx,(%esp)
    37df:	e8 cc 07 01 00       	call   13fb0 <async_req_fast>
    37e4:	89 1c 24             	mov    %ebx,(%esp)
    37e7:	89 c6                	mov    %eax,%esi
    37e9:	e8 82 1b 01 00       	call   15370 <async_exchange_end>
    37ee:	85 f6                	test   %esi,%esi
    37f0:	75 69                	jne    385b <loc_null_create+0x16b>
    37f2:	8b 45 f4             	mov    -0xc(%ebp),%eax
    37f5:	83 c4 40             	add    $0x40,%esp
    37f8:	5b                   	pop    %ebx
    37f9:	5e                   	pop    %esi
    37fa:	5d                   	pop    %ebp
    37fb:	c3                   	ret    
    37fc:	8d 74 26 00          	lea    0x0(%esi,%eiz,1),%esi
    3800:	85 db                	test   %ebx,%ebx
    3802:	0f 84 25 ff ff ff    	je     372d <loc_null_create+0x3d>
    3808:	89 1d 40 1f 02 00    	mov    %ebx,0x21f40
    380e:	e9 1a ff ff ff       	jmp    372d <loc_null_create+0x3d>
    3813:	90                   	nop
    3814:	8d 74 26 00          	lea    0x0(%esi,%eiz,1),%esi
    3818:	c7 44 24 0c 00 00 00 	movl   $0x0,0xc(%esp)
    381f:	00 
    3820:	c7 44 24 08 02 00 00 	movl   $0x2,0x8(%esp)
    3827:	00 
    3828:	c7 44 24 04 6c 6f 63 	movl   $0x20636f6c,0x4(%esp)
    382f:	20 
    3830:	c7 04 24 02 00 00 00 	movl   $0x2,(%esp)
    3837:	e8 14 eb 00 00       	call   12350 <service_connect_blocking>
    383c:	a3 40 1f 02 00       	mov    %eax,0x21f40
    3841:	e9 c3 fe ff ff       	jmp    3709 <loc_null_create+0x19>
    3846:	66 90                	xchg   %ax,%ax
    3848:	85 db                	test   %ebx,%ebx
    384a:	0f 84 22 ff ff ff    	je     3772 <loc_null_create+0x82>
    3850:	89 1d 3c 1f 02 00    	mov    %ebx,0x21f3c
    3856:	e9 17 ff ff ff       	jmp    3772 <loc_null_create+0x82>
    385b:	83 c8 ff             	or     $0xffffffff,%eax
    385e:	eb 95                	jmp    37f5 <loc_null_create+0x105>

00003860 <loc_null_destroy>:
    3860:	55                   	push   %ebp
    3861:	89 e5                	mov    %esp,%ebp
    3863:	56                   	push   %esi
    3864:	53                   	push   %ebx
    3865:	83 ec 30             	sub    $0x30,%esp
    3868:	8b 75 08             	mov    0x8(%ebp),%esi
    386b:	c7 04 24 40 1d 02 00 	movl   $0x21d40,(%esp)
    3872:	e8 09 49 00 00       	call   8180 <fibril_mutex_lock>
    3877:	a1 40 1f 02 00       	mov    0x21f40,%eax
    387c:	85 c0                	test   %eax,%eax
    387e:	75 38                	jne    38b8 <loc_null_destroy+0x58>
    3880:	c7 04 24 50 1d 02 00 	movl   $0x21d50,(%esp)
    3887:	8b 1d 3c 1f 02 00    	mov    0x21f3c,%ebx
    388d:	e8 ee 48 00 00       	call   8180 <fibril_mutex_lock>
    3892:	a1 40 1f 02 00       	mov    0x21f40,%eax
    3897:	85 c0                	test   %eax,%eax
    3899:	0f 84 c1 00 00 00    	je     3960 <loc_null_destroy+0x100>
    389f:	c7 04 24 50 1d 02 00 	movl   $0x21d50,(%esp)
    38a6:	e8 f5 49 00 00       	call   82a0 <fibril_mutex_unlock>
    38ab:	a1 40 1f 02 00       	mov    0x21f40,%eax
    38b0:	85 c0                	test   %eax,%eax
    38b2:	0f 84 c0 00 00 00    	je     3978 <loc_null_destroy+0x118>
    38b8:	c7 04 24 40 1d 02 00 	movl   $0x21d40,(%esp)
    38bf:	e8 dc 49 00 00       	call   82a0 <fibril_mutex_unlock>
    38c4:	c7 04 24 50 1d 02 00 	movl   $0x21d50,(%esp)
    38cb:	8b 1d 40 1f 02 00    	mov    0x21f40,%ebx
    38d1:	e8 aa 48 00 00       	call   8180 <fibril_mutex_lock>
    38d6:	a1 3c 1f 02 00       	mov    0x21f3c,%eax
    38db:	85 c0                	test   %eax,%eax
    38dd:	0f 84 c5 00 00 00    	je     39a8 <loc_null_destroy+0x148>
    38e3:	c7 04 24 50 1d 02 00 	movl   $0x21d50,(%esp)
    38ea:	e8 b1 49 00 00       	call   82a0 <fibril_mutex_unlock>
    38ef:	a1 40 1f 02 00       	mov    0x21f40,%eax
    38f4:	89 04 24             	mov    %eax,(%esp)
    38f7:	e8 04 17 01 00       	call   15000 <async_exchange_begin>
    38fc:	89 74 24 08          	mov    %esi,0x8(%esp)
    3900:	c7 44 24 28 00 00 00 	movl   $0x0,0x28(%esp)
    3907:	00 
    3908:	c7 44 24 24 00 00 00 	movl   $0x0,0x24(%esp)
    390f:	00 
    3910:	c7 44 24 20 00 00 00 	movl   $0x0,0x20(%esp)
    3917:	00 
    3918:	c7 44 24 1c 00 00 00 	movl   $0x0,0x1c(%esp)
    391f:	00 
    3920:	c7 44 24 18 00 00 00 	movl   $0x0,0x18(%esp)
    3927:	00 
    3928:	c7 44 24 14 00 00 00 	movl   $0x0,0x14(%esp)
    392f:	00 
    3930:	c7 44 24 10 00 00 00 	movl   $0x0,0x10(%esp)
    3937:	00 
    3938:	c7 44 24 0c 00 00 00 	movl   $0x0,0xc(%esp)
    393f:	00 
    3940:	c7 44 24 04 0f 04 00 	movl   $0x40f,0x4(%esp)
    3947:	00 
    3948:	89 04 24             	mov    %eax,(%esp)
    394b:	89 c3                	mov    %eax,%ebx
    394d:	e8 5e 06 01 00       	call   13fb0 <async_req_fast>
    3952:	89 5d 08             	mov    %ebx,0x8(%ebp)
    3955:	83 c4 30             	add    $0x30,%esp
    3958:	5b                   	pop    %ebx
    3959:	5e                   	pop    %esi
    395a:	5d                   	pop    %ebp
    395b:	e9 10 1a 01 00       	jmp    15370 <async_exchange_end>
    3960:	85 db                	test   %ebx,%ebx
    3962:	0f 84 37 ff ff ff    	je     389f <loc_null_destroy+0x3f>
    3968:	89 1d 40 1f 02 00    	mov    %ebx,0x21f40
    396e:	e9 2c ff ff ff       	jmp    389f <loc_null_destroy+0x3f>
    3973:	90                   	nop
    3974:	8d 74 26 00          	lea    0x0(%esi,%eiz,1),%esi
    3978:	c7 44 24 0c 00 00 00 	movl   $0x0,0xc(%esp)
    397f:	00 
    3980:	c7 44 24 08 02 00 00 	movl   $0x2,0x8(%esp)
    3987:	00 
    3988:	c7 44 24 04 6c 6f 63 	movl   $0x20636f6c,0x4(%esp)
    398f:	20 
    3990:	c7 04 24 02 00 00 00 	movl   $0x2,(%esp)
    3997:	e8 b4 e9 00 00       	call   12350 <service_connect_blocking>
    399c:	a3 40 1f 02 00       	mov    %eax,0x21f40
    39a1:	e9 d6 fe ff ff       	jmp    387c <loc_null_destroy+0x1c>
    39a6:	66 90                	xchg   %ax,%ax
    39a8:	85 db                	test   %ebx,%ebx
    39aa:	0f 84 33 ff ff ff    	je     38e3 <loc_null_destroy+0x83>
    39b0:	89 1d 3c 1f 02 00    	mov    %ebx,0x21f3c
    39b6:	e9 28 ff ff ff       	jmp    38e3 <loc_null_destroy+0x83>
    39bb:	90                   	nop
    39bc:	8d 74 26 00          	lea    0x0(%esi,%eiz,1),%esi

000039c0 <loc_service_add_to_cat>:
    39c0:	55                   	push   %ebp
    39c1:	89 e5                	mov    %esp,%ebp
    39c3:	53                   	push   %ebx
    39c4:	83 ec 44             	sub    $0x44,%esp
    39c7:	c7 04 24 20 1d 02 00 	movl   $0x21d20,(%esp)
    39ce:	e8 ad 47 00 00       	call   8180 <fibril_mutex_lock>
    39d3:	a1 38 1f 02 00       	mov    0x21f38,%eax
    39d8:	85 c0                	test   %eax,%eax
    39da:	75 38                	jne    3a14 <loc_service_add_to_cat+0x54>
    39dc:	c7 04 24 30 1d 02 00 	movl   $0x21d30,(%esp)
    39e3:	8b 1d 34 1f 02 00    	mov    0x21f34,%ebx
    39e9:	e8 92 47 00 00       	call   8180 <fibril_mutex_lock>
    39ee:	a1 38 1f 02 00       	mov    0x21f38,%eax
    39f3:	85 c0                	test   %eax,%eax
    39f5:	0f 84 cd 00 00 00    	je     3ac8 <loc_service_add_to_cat+0x108>
    39fb:	c7 04 24 30 1d 02 00 	movl   $0x21d30,(%esp)
    3a02:	e8 99 48 00 00       	call   82a0 <fibril_mutex_unlock>
    3a07:	a1 38 1f 02 00       	mov    0x21f38,%eax
    3a0c:	85 c0                	test   %eax,%eax
    3a0e:	0f 84 cc 00 00 00    	je     3ae0 <loc_service_add_to_cat+0x120>
    3a14:	c7 04 24 20 1d 02 00 	movl   $0x21d20,(%esp)
    3a1b:	e8 80 48 00 00       	call   82a0 <fibril_mutex_unlock>
    3a20:	c7 04 24 30 1d 02 00 	movl   $0x21d30,(%esp)
    3a27:	8b 1d 38 1f 02 00    	mov    0x21f38,%ebx
    3a2d:	e8 4e 47 00 00       	call   8180 <fibril_mutex_lock>
    3a32:	a1 34 1f 02 00       	mov    0x21f34,%eax
    3a37:	85 c0                	test   %eax,%eax
    3a39:	0f 84 d1 00 00 00    	je     3b10 <loc_service_add_to_cat+0x150>
    3a3f:	c7 04 24 30 1d 02 00 	movl   $0x21d30,(%esp)
    3a46:	e8 55 48 00 00       	call   82a0 <fibril_mutex_unlock>
    3a4b:	a1 38 1f 02 00       	mov    0x21f38,%eax
    3a50:	89 04 24             	mov    %eax,(%esp)
    3a53:	e8 a8 15 01 00       	call   15000 <async_exchange_begin>
    3a58:	c7 44 24 28 00 00 00 	movl   $0x0,0x28(%esp)
    3a5f:	00 
    3a60:	89 c3                	mov    %eax,%ebx
    3a62:	8b 45 0c             	mov    0xc(%ebp),%eax
    3a65:	89 44 24 0c          	mov    %eax,0xc(%esp)
    3a69:	8b 45 08             	mov    0x8(%ebp),%eax
    3a6c:	89 1c 24             	mov    %ebx,(%esp)
    3a6f:	c7 44 24 24 00 00 00 	movl   $0x0,0x24(%esp)
    3a76:	00 
    3a77:	c7 44 24 20 00 00 00 	movl   $0x0,0x20(%esp)
    3a7e:	00 
    3a7f:	c7 44 24 1c 00 00 00 	movl   $0x0,0x1c(%esp)
    3a86:	00 
    3a87:	c7 44 24 18 00 00 00 	movl   $0x0,0x18(%esp)
    3a8e:	00 
    3a8f:	c7 44 24 14 00 00 00 	movl   $0x0,0x14(%esp)
    3a96:	00 
    3a97:	c7 44 24 10 00 00 00 	movl   $0x0,0x10(%esp)
    3a9e:	00 
    3a9f:	89 44 24 08          	mov    %eax,0x8(%esp)
    3aa3:	c7 44 24 04 02 04 00 	movl   $0x402,0x4(%esp)
    3aaa:	00 
    3aab:	e8 00 05 01 00       	call   13fb0 <async_req_fast>
    3ab0:	89 1c 24             	mov    %ebx,(%esp)
    3ab3:	89 45 f4             	mov    %eax,-0xc(%ebp)
    3ab6:	e8 b5 18 01 00       	call   15370 <async_exchange_end>
    3abb:	8b 45 f4             	mov    -0xc(%ebp),%eax
    3abe:	83 c4 44             	add    $0x44,%esp
    3ac1:	5b                   	pop    %ebx
    3ac2:	5d                   	pop    %ebp
    3ac3:	c3                   	ret    
    3ac4:	8d 74 26 00          	lea    0x0(%esi,%eiz,1),%esi
    3ac8:	85 db                	test   %ebx,%ebx
    3aca:	0f 84 2b ff ff ff    	je     39fb <loc_service_add_to_cat+0x3b>
    3ad0:	89 1d 38 1f 02 00    	mov    %ebx,0x21f38
    3ad6:	e9 20 ff ff ff       	jmp    39fb <loc_service_add_to_cat+0x3b>
    3adb:	90                   	nop
    3adc:	8d 74 26 00          	lea    0x0(%esi,%eiz,1),%esi
    3ae0:	c7 44 24 0c 00 00 00 	movl   $0x0,0xc(%esp)
    3ae7:	00 
    3ae8:	c7 44 24 08 01 00 00 	movl   $0x1,0x8(%esp)
    3aef:	00 
    3af0:	c7 44 24 04 6c 6f 63 	movl   $0x20636f6c,0x4(%esp)
    3af7:	20 
    3af8:	c7 04 24 02 00 00 00 	movl   $0x2,(%esp)
    3aff:	e8 4c e8 00 00       	call   12350 <service_connect_blocking>
    3b04:	a3 38 1f 02 00       	mov    %eax,0x21f38
    3b09:	e9 ca fe ff ff       	jmp    39d8 <loc_service_add_to_cat+0x18>
    3b0e:	66 90                	xchg   %ax,%ax
    3b10:	85 db                	test   %ebx,%ebx
    3b12:	0f 84 27 ff ff ff    	je     3a3f <loc_service_add_to_cat+0x7f>
    3b18:	89 1d 34 1f 02 00    	mov    %ebx,0x21f34
    3b1e:	e9 1c ff ff ff       	jmp    3a3f <loc_service_add_to_cat+0x7f>
    3b23:	8d b6 00 00 00 00    	lea    0x0(%esi),%esi
    3b29:	8d bc 27 00 00 00 00 	lea    0x0(%edi,%eiz,1),%edi

00003b30 <loc_count_namespaces>:
    3b30:	55                   	push   %ebp
    3b31:	89 e5                	mov    %esp,%ebp
    3b33:	56                   	push   %esi
    3b34:	53                   	push   %ebx
    3b35:	83 ec 40             	sub    $0x40,%esp
    3b38:	c7 04 24 40 1d 02 00 	movl   $0x21d40,(%esp)
    3b3f:	e8 3c 46 00 00       	call   8180 <fibril_mutex_lock>
    3b44:	a1 40 1f 02 00       	mov    0x21f40,%eax
    3b49:	85 c0                	test   %eax,%eax
    3b4b:	75 3a                	jne    3b87 <loc_count_namespaces+0x57>
    3b4d:	c7 04 24 50 1d 02 00 	movl   $0x21d50,(%esp)
    3b54:	8b 1d 3c 1f 02 00    	mov    0x21f3c,%ebx
    3b5a:	e8 21 46 00 00       	call   8180 <fibril_mutex_lock>
    3b5f:	8b 35 40 1f 02 00    	mov    0x21f40,%esi
    3b65:	85 f6                	test   %esi,%esi
    3b67:	0f 84 d3 00 00 00    	je     3c40 <loc_count_namespaces+0x110>
    3b6d:	c7 04 24 50 1d 02 00 	movl   $0x21d50,(%esp)
    3b74:	e8 27 47 00 00       	call   82a0 <fibril_mutex_unlock>
    3b79:	8b 0d 40 1f 02 00    	mov    0x21f40,%ecx
    3b7f:	85 c9                	test   %ecx,%ecx
    3b81:	0f 84 d1 00 00 00    	je     3c58 <loc_count_namespaces+0x128>
    3b87:	c7 04 24 40 1d 02 00 	movl   $0x21d40,(%esp)
    3b8e:	e8 0d 47 00 00       	call   82a0 <fibril_mutex_unlock>
    3b93:	c7 04 24 50 1d 02 00 	movl   $0x21d50,(%esp)
    3b9a:	8b 1d 40 1f 02 00    	mov    0x21f40,%ebx
    3ba0:	e8 db 45 00 00       	call   8180 <fibril_mutex_lock>
    3ba5:	8b 15 3c 1f 02 00    	mov    0x21f3c,%edx
    3bab:	85 d2                	test   %edx,%edx
    3bad:	0f 84 d5 00 00 00    	je     3c88 <loc_count_namespaces+0x158>
    3bb3:	c7 04 24 50 1d 02 00 	movl   $0x21d50,(%esp)
    3bba:	31 f6                	xor    %esi,%esi
    3bbc:	e8 df 46 00 00       	call   82a0 <fibril_mutex_unlock>
    3bc1:	a1 40 1f 02 00       	mov    0x21f40,%eax
    3bc6:	89 04 24             	mov    %eax,(%esp)
    3bc9:	e8 32 14 01 00       	call   15000 <async_exchange_begin>
    3bce:	c7 44 24 28 00 00 00 	movl   $0x0,0x28(%esp)
    3bd5:	00 
    3bd6:	89 c3                	mov    %eax,%ebx
    3bd8:	8d 45 f4             	lea    -0xc(%ebp),%eax
    3bdb:	c7 44 24 24 00 00 00 	movl   $0x0,0x24(%esp)
    3be2:	00 
    3be3:	c7 44 24 20 00 00 00 	movl   $0x0,0x20(%esp)
    3bea:	00 
    3beb:	c7 44 24 1c 00 00 00 	movl   $0x0,0x1c(%esp)
    3bf2:	00 
    3bf3:	89 44 24 18          	mov    %eax,0x18(%esp)
    3bf7:	c7 44 24 14 00 00 00 	movl   $0x0,0x14(%esp)
    3bfe:	00 
    3bff:	c7 44 24 10 00 00 00 	movl   $0x0,0x10(%esp)
    3c06:	00 
    3c07:	c7 44 24 0c 00 00 00 	movl   $0x0,0xc(%esp)
    3c0e:	00 
    3c0f:	c7 44 24 08 00 00 00 	movl   $0x0,0x8(%esp)
    3c16:	00 
    3c17:	c7 44 24 04 10 04 00 	movl   $0x410,0x4(%esp)
    3c1e:	00 
    3c1f:	89 1c 24             	mov    %ebx,(%esp)
    3c22:	e8 89 03 01 00       	call   13fb0 <async_req_fast>
    3c27:	85 c0                	test   %eax,%eax
    3c29:	75 03                	jne    3c2e <loc_count_namespaces+0xfe>
    3c2b:	8b 75 f4             	mov    -0xc(%ebp),%esi
    3c2e:	89 1c 24             	mov    %ebx,(%esp)
    3c31:	e8 3a 17 01 00       	call   15370 <async_exchange_end>
    3c36:	83 c4 40             	add    $0x40,%esp
    3c39:	89 f0                	mov    %esi,%eax
    3c3b:	5b                   	pop    %ebx
    3c3c:	5e                   	pop    %esi
    3c3d:	5d                   	pop    %ebp
    3c3e:	c3                   	ret    
    3c3f:	90                   	nop
    3c40:	85 db                	test   %ebx,%ebx
    3c42:	0f 84 25 ff ff ff    	je     3b6d <loc_count_namespaces+0x3d>
    3c48:	89 1d 40 1f 02 00    	mov    %ebx,0x21f40
    3c4e:	e9 1a ff ff ff       	jmp    3b6d <loc_count_namespaces+0x3d>
    3c53:	90                   	nop
    3c54:	8d 74 26 00          	lea    0x0(%esi,%eiz,1),%esi
    3c58:	c7 44 24 0c 00 00 00 	movl   $0x0,0xc(%esp)
    3c5f:	00 
    3c60:	c7 44 24 08 02 00 00 	movl   $0x2,0x8(%esp)
    3c67:	00 
    3c68:	c7 44 24 04 6c 6f 63 	movl   $0x20636f6c,0x4(%esp)
    3c6f:	20 
    3c70:	c7 04 24 02 00 00 00 	movl   $0x2,(%esp)
    3c77:	e8 d4 e6 00 00       	call   12350 <service_connect_blocking>
    3c7c:	a3 40 1f 02 00       	mov    %eax,0x21f40
    3c81:	e9 c3 fe ff ff       	jmp    3b49 <loc_count_namespaces+0x19>
    3c86:	66 90                	xchg   %ax,%ax
    3c88:	85 db                	test   %ebx,%ebx
    3c8a:	0f 84 23 ff ff ff    	je     3bb3 <loc_count_namespaces+0x83>
    3c90:	89 1d 3c 1f 02 00    	mov    %ebx,0x21f3c
    3c96:	e9 18 ff ff ff       	jmp    3bb3 <loc_count_namespaces+0x83>
    3c9b:	90                   	nop
    3c9c:	8d 74 26 00          	lea    0x0(%esi,%eiz,1),%esi

00003ca0 <loc_count_services>:
    3ca0:	55                   	push   %ebp
    3ca1:	89 e5                	mov    %esp,%ebp
    3ca3:	56                   	push   %esi
    3ca4:	53                   	push   %ebx
    3ca5:	83 ec 40             	sub    $0x40,%esp
    3ca8:	c7 04 24 40 1d 02 00 	movl   $0x21d40,(%esp)
    3caf:	e8 cc 44 00 00       	call   8180 <fibril_mutex_lock>
    3cb4:	a1 40 1f 02 00       	mov    0x21f40,%eax
    3cb9:	85 c0                	test   %eax,%eax
    3cbb:	75 38                	jne    3cf5 <loc_count_services+0x55>
    3cbd:	c7 04 24 50 1d 02 00 	movl   $0x21d50,(%esp)
    3cc4:	8b 1d 3c 1f 02 00    	mov    0x21f3c,%ebx
    3cca:	e8 b1 44 00 00       	call   8180 <fibril_mutex_lock>
    3ccf:	a1 40 1f 02 00       	mov    0x21f40,%eax
    3cd4:	85 c0                	test   %eax,%eax
    3cd6:	0f 84 d4 00 00 00    	je     3db0 <loc_count_services+0x110>
    3cdc:	c7 04 24 50 1d 02 00 	movl   $0x21d50,(%esp)
    3ce3:	e8 b8 45 00 00       	call   82a0 <fibril_mutex_unlock>
    3ce8:	a1 40 1f 02 00       	mov    0x21f40,%eax
    3ced:	85 c0                	test   %eax,%eax
    3cef:	0f 84 d3 00 00 00    	je     3dc8 <loc_count_services+0x128>
    3cf5:	c7 04 24 40 1d 02 00 	movl   $0x21d40,(%esp)
    3cfc:	e8 9f 45 00 00       	call   82a0 <fibril_mutex_unlock>
    3d01:	c7 04 24 50 1d 02 00 	movl   $0x21d50,(%esp)
    3d08:	8b 1d 40 1f 02 00    	mov    0x21f40,%ebx
    3d0e:	e8 6d 44 00 00       	call   8180 <fibril_mutex_lock>
    3d13:	a1 3c 1f 02 00       	mov    0x21f3c,%eax
    3d18:	85 c0                	test   %eax,%eax
    3d1a:	0f 84 d8 00 00 00    	je     3df8 <loc_count_services+0x158>
    3d20:	c7 04 24 50 1d 02 00 	movl   $0x21d50,(%esp)
    3d27:	31 f6                	xor    %esi,%esi
    3d29:	e8 72 45 00 00       	call   82a0 <fibril_mutex_unlock>
    3d2e:	a1 40 1f 02 00       	mov    0x21f40,%eax
    3d33:	89 04 24             	mov    %eax,(%esp)
    3d36:	e8 c5 12 01 00       	call   15000 <async_exchange_begin>
    3d3b:	c7 44 24 28 00 00 00 	movl   $0x0,0x28(%esp)
    3d42:	00 
    3d43:	89 c3                	mov    %eax,%ebx
    3d45:	8d 45 f4             	lea    -0xc(%ebp),%eax
    3d48:	89 44 24 18          	mov    %eax,0x18(%esp)
    3d4c:	8b 45 08             	mov    0x8(%ebp),%eax
    3d4f:	c7 44 24 24 00 00 00 	movl   $0x0,0x24(%esp)
    3d56:	00 
    3d57:	c7 44 24 20 00 00 00 	movl   $0x0,0x20(%esp)
    3d5e:	00 
    3d5f:	c7 44 24 1c 00 00 00 	movl   $0x0,0x1c(%esp)
    3d66:	00 
    3d67:	c7 44 24 14 00 00 00 	movl   $0x0,0x14(%esp)
    3d6e:	00 
    3d6f:	c7 44 24 10 00 00 00 	movl   $0x0,0x10(%esp)
    3d76:	00 
    3d77:	c7 44 24 0c 00 00 00 	movl   $0x0,0xc(%esp)
    3d7e:	00 
    3d7f:	89 44 24 08          	mov    %eax,0x8(%esp)
    3d83:	c7 44 24 04 11 04 00 	movl   $0x411,0x4(%esp)
    3d8a:	00 
    3d8b:	89 1c 24             	mov    %ebx,(%esp)
    3d8e:	e8 1d 02 01 00       	call   13fb0 <async_req_fast>
    3d93:	85 c0                	test   %eax,%eax
    3d95:	75 03                	jne    3d9a <loc_count_services+0xfa>
    3d97:	8b 75 f4             	mov    -0xc(%ebp),%esi
    3d9a:	89 1c 24             	mov    %ebx,(%esp)
    3d9d:	e8 ce 15 01 00       	call   15370 <async_exchange_end>
    3da2:	83 c4 40             	add    $0x40,%esp
    3da5:	89 f0                	mov    %esi,%eax
    3da7:	5b                   	pop    %ebx
    3da8:	5e                   	pop    %esi
    3da9:	5d                   	pop    %ebp
    3daa:	c3                   	ret    
    3dab:	90                   	nop
    3dac:	8d 74 26 00          	lea    0x0(%esi,%eiz,1),%esi
    3db0:	85 db                	test   %ebx,%ebx
    3db2:	0f 84 24 ff ff ff    	je     3cdc <loc_count_services+0x3c>
    3db8:	89 1d 40 1f 02 00    	mov    %ebx,0x21f40
    3dbe:	e9 19 ff ff ff       	jmp    3cdc <loc_count_services+0x3c>
    3dc3:	90                   	nop
    3dc4:	8d 74 26 00          	lea    0x0(%esi,%eiz,1),%esi
    3dc8:	c7 44 24 0c 00 00 00 	movl   $0x0,0xc(%esp)
    3dcf:	00 
    3dd0:	c7 44 24 08 02 00 00 	movl   $0x2,0x8(%esp)
    3dd7:	00 
    3dd8:	c7 44 24 04 6c 6f 63 	movl   $0x20636f6c,0x4(%esp)
    3ddf:	20 
    3de0:	c7 04 24 02 00 00 00 	movl   $0x2,(%esp)
    3de7:	e8 64 e5 00 00       	call   12350 <service_connect_blocking>
    3dec:	a3 40 1f 02 00       	mov    %eax,0x21f40
    3df1:	e9 c3 fe ff ff       	jmp    3cb9 <loc_count_services+0x19>
    3df6:	66 90                	xchg   %ax,%ax
    3df8:	85 db                	test   %ebx,%ebx
    3dfa:	0f 84 20 ff ff ff    	je     3d20 <loc_count_services+0x80>
    3e00:	89 1d 3c 1f 02 00    	mov    %ebx,0x21f3c
    3e06:	e9 15 ff ff ff       	jmp    3d20 <loc_count_services+0x80>
    3e0b:	90                   	nop
    3e0c:	8d 74 26 00          	lea    0x0(%esi,%eiz,1),%esi

00003e10 <loc_get_namespaces>:
    3e10:	55                   	push   %ebp
    3e11:	89 e5                	mov    %esp,%ebp
    3e13:	57                   	push   %edi
    3e14:	56                   	push   %esi
    3e15:	53                   	push   %ebx
    3e16:	83 ec 7c             	sub    $0x7c,%esp
    3e19:	c7 04 24 40 1d 02 00 	movl   $0x21d40,(%esp)
    3e20:	e8 5b 43 00 00       	call   8180 <fibril_mutex_lock>
    3e25:	a1 40 1f 02 00       	mov    0x21f40,%eax
    3e2a:	85 c0                	test   %eax,%eax
    3e2c:	75 3a                	jne    3e68 <loc_get_namespaces+0x58>
    3e2e:	c7 04 24 50 1d 02 00 	movl   $0x21d50,(%esp)
    3e35:	8b 1d 3c 1f 02 00    	mov    0x21f3c,%ebx
    3e3b:	e8 40 43 00 00       	call   8180 <fibril_mutex_lock>
    3e40:	8b 0d 40 1f 02 00    	mov    0x21f40,%ecx
    3e46:	85 c9                	test   %ecx,%ecx
    3e48:	0f 84 da 01 00 00    	je     4028 <loc_get_namespaces+0x218>
    3e4e:	c7 04 24 50 1d 02 00 	movl   $0x21d50,(%esp)
    3e55:	e8 46 44 00 00       	call   82a0 <fibril_mutex_unlock>
    3e5a:	8b 15 40 1f 02 00    	mov    0x21f40,%edx
    3e60:	85 d2                	test   %edx,%edx
    3e62:	0f 84 d8 01 00 00    	je     4040 <loc_get_namespaces+0x230>
    3e68:	c7 04 24 40 1d 02 00 	movl   $0x21d40,(%esp)
    3e6f:	e8 2c 44 00 00       	call   82a0 <fibril_mutex_unlock>
    3e74:	c7 04 24 50 1d 02 00 	movl   $0x21d50,(%esp)
    3e7b:	8b 1d 40 1f 02 00    	mov    0x21f40,%ebx
    3e81:	e8 fa 42 00 00       	call   8180 <fibril_mutex_lock>
    3e86:	a1 3c 1f 02 00       	mov    0x21f3c,%eax
    3e8b:	85 c0                	test   %eax,%eax
    3e8d:	0f 84 fd 01 00 00    	je     4090 <loc_get_namespaces+0x280>
    3e93:	c7 04 24 50 1d 02 00 	movl   $0x21d50,(%esp)
    3e9a:	e8 01 44 00 00       	call   82a0 <fibril_mutex_unlock>
    3e9f:	a1 40 1f 02 00       	mov    0x21f40,%eax
    3ea4:	89 04 24             	mov    %eax,(%esp)
    3ea7:	e8 54 11 01 00       	call   15000 <async_exchange_begin>
    3eac:	c7 44 24 28 00 00 00 	movl   $0x0,0x28(%esp)
    3eb3:	00 
    3eb4:	89 c6                	mov    %eax,%esi
    3eb6:	8d 45 c0             	lea    -0x40(%ebp),%eax
    3eb9:	c7 44 24 24 00 00 00 	movl   $0x0,0x24(%esp)
    3ec0:	00 
    3ec1:	c7 44 24 20 00 00 00 	movl   $0x0,0x20(%esp)
    3ec8:	00 
    3ec9:	c7 44 24 1c 00 00 00 	movl   $0x0,0x1c(%esp)
    3ed0:	00 
    3ed1:	89 44 24 18          	mov    %eax,0x18(%esp)
    3ed5:	c7 44 24 14 00 00 00 	movl   $0x0,0x14(%esp)
    3edc:	00 
    3edd:	c7 44 24 10 00 00 00 	movl   $0x0,0x10(%esp)
    3ee4:	00 
    3ee5:	c7 44 24 0c 00 00 00 	movl   $0x0,0xc(%esp)
    3eec:	00 
    3eed:	c7 44 24 08 00 00 00 	movl   $0x0,0x8(%esp)
    3ef4:	00 
    3ef5:	c7 44 24 04 10 04 00 	movl   $0x410,0x4(%esp)
    3efc:	00 
    3efd:	89 34 24             	mov    %esi,(%esp)
    3f00:	e8 ab 00 01 00       	call   13fb0 <async_req_fast>
    3f05:	85 c0                	test   %eax,%eax
    3f07:	0f 85 03 01 00 00    	jne    4010 <loc_get_namespaces+0x200>
    3f0d:	8b 5d c0             	mov    -0x40(%ebp),%ebx
    3f10:	89 34 24             	mov    %esi,(%esp)
    3f13:	e8 58 14 01 00       	call   15370 <async_exchange_end>
    3f18:	85 db                	test   %ebx,%ebx
    3f1a:	0f 84 f8 00 00 00    	je     4018 <loc_get_namespaces+0x208>
    3f20:	c7 44 24 04 04 01 00 	movl   $0x104,0x4(%esp)
    3f27:	00 
    3f28:	89 1c 24             	mov    %ebx,(%esp)
    3f2b:	e8 30 db 00 00       	call   11a60 <calloc>
    3f30:	89 c7                	mov    %eax,%edi
    3f32:	85 c0                	test   %eax,%eax
    3f34:	0f 84 de 00 00 00    	je     4018 <loc_get_namespaces+0x208>
    3f3a:	c7 04 24 50 1d 02 00 	movl   $0x21d50,(%esp)
    3f41:	e8 3a 42 00 00       	call   8180 <fibril_mutex_lock>
    3f46:	a1 3c 1f 02 00       	mov    0x21f3c,%eax
    3f4b:	85 c0                	test   %eax,%eax
    3f4d:	0f 84 5d 01 00 00    	je     40b0 <loc_get_namespaces+0x2a0>
    3f53:	c7 04 24 50 1d 02 00 	movl   $0x21d50,(%esp)
    3f5a:	e8 41 43 00 00       	call   82a0 <fibril_mutex_unlock>
    3f5f:	a1 3c 1f 02 00       	mov    0x21f3c,%eax
    3f64:	85 c0                	test   %eax,%eax
    3f66:	0f 84 72 01 00 00    	je     40de <loc_get_namespaces+0x2ce>
    3f6c:	89 04 24             	mov    %eax,(%esp)
    3f6f:	e8 8c 10 01 00       	call   15000 <async_exchange_begin>
    3f74:	89 c6                	mov    %eax,%esi
    3f76:	8d 45 c4             	lea    -0x3c(%ebp),%eax
    3f79:	c7 44 24 14 00 00 00 	movl   $0x0,0x14(%esp)
    3f80:	00 
    3f81:	89 44 24 18          	mov    %eax,0x18(%esp)
    3f85:	c7 44 24 10 00 00 00 	movl   $0x0,0x10(%esp)
    3f8c:	00 
    3f8d:	c7 44 24 0c 00 00 00 	movl   $0x0,0xc(%esp)
    3f94:	00 
    3f95:	c7 44 24 08 00 00 00 	movl   $0x0,0x8(%esp)
    3f9c:	00 
    3f9d:	c7 44 24 04 13 04 00 	movl   $0x413,0x4(%esp)
    3fa4:	00 
    3fa5:	89 34 24             	mov    %esi,(%esp)
    3fa8:	e8 f3 f9 00 00       	call   139a0 <async_send_fast>
    3fad:	89 7c 24 04          	mov    %edi,0x4(%esp)
    3fb1:	89 45 b4             	mov    %eax,-0x4c(%ebp)
    3fb4:	89 d8                	mov    %ebx,%eax
    3fb6:	c1 e0 08             	shl    $0x8,%eax
    3fb9:	89 34 24             	mov    %esi,(%esp)
    3fbc:	8d 04 98             	lea    (%eax,%ebx,4),%eax
    3fbf:	89 44 24 08          	mov    %eax,0x8(%esp)
    3fc3:	e8 08 1a 01 00       	call   159d0 <async_data_read_start>
    3fc8:	89 34 24             	mov    %esi,(%esp)
    3fcb:	89 45 b0             	mov    %eax,-0x50(%ebp)
    3fce:	e8 9d 13 01 00       	call   15370 <async_exchange_end>
    3fd3:	8b 45 b0             	mov    -0x50(%ebp),%eax
    3fd6:	83 f8 f0             	cmp    $0xfffffff0,%eax
    3fd9:	0f 84 c4 00 00 00    	je     40a3 <loc_get_namespaces+0x293>
    3fdf:	85 c0                	test   %eax,%eax
    3fe1:	0f 85 89 00 00 00    	jne    4070 <loc_get_namespaces+0x260>
    3fe7:	8d 45 c0             	lea    -0x40(%ebp),%eax
    3fea:	89 44 24 04          	mov    %eax,0x4(%esp)
    3fee:	8b 45 b4             	mov    -0x4c(%ebp),%eax
    3ff1:	89 04 24             	mov    %eax,(%esp)
    3ff4:	e8 77 fb 00 00       	call   13b70 <async_wait_for>
    3ff9:	8b 45 c0             	mov    -0x40(%ebp),%eax
    3ffc:	85 c0                	test   %eax,%eax
    3ffe:	75 18                	jne    4018 <loc_get_namespaces+0x208>
    4000:	8b 45 08             	mov    0x8(%ebp),%eax
    4003:	89 38                	mov    %edi,(%eax)
    4005:	83 c4 7c             	add    $0x7c,%esp
    4008:	89 d8                	mov    %ebx,%eax
    400a:	5b                   	pop    %ebx
    400b:	5e                   	pop    %esi
    400c:	5f                   	pop    %edi
    400d:	5d                   	pop    %ebp
    400e:	c3                   	ret    
    400f:	90                   	nop
    4010:	89 34 24             	mov    %esi,(%esp)
    4013:	e8 58 13 01 00       	call   15370 <async_exchange_end>
    4018:	83 c4 7c             	add    $0x7c,%esp
    401b:	31 db                	xor    %ebx,%ebx
    401d:	89 d8                	mov    %ebx,%eax
    401f:	5b                   	pop    %ebx
    4020:	5e                   	pop    %esi
    4021:	5f                   	pop    %edi
    4022:	5d                   	pop    %ebp
    4023:	c3                   	ret    
    4024:	8d 74 26 00          	lea    0x0(%esi,%eiz,1),%esi
    4028:	85 db                	test   %ebx,%ebx
    402a:	0f 84 1e fe ff ff    	je     3e4e <loc_get_namespaces+0x3e>
    4030:	89 1d 40 1f 02 00    	mov    %ebx,0x21f40
    4036:	e9 13 fe ff ff       	jmp    3e4e <loc_get_namespaces+0x3e>
    403b:	90                   	nop
    403c:	8d 74 26 00          	lea    0x0(%esi,%eiz,1),%esi
    4040:	c7 44 24 0c 00 00 00 	movl   $0x0,0xc(%esp)
    4047:	00 
    4048:	c7 44 24 08 02 00 00 	movl   $0x2,0x8(%esp)
    404f:	00 
    4050:	c7 44 24 04 6c 6f 63 	movl   $0x20636f6c,0x4(%esp)
    4057:	20 
    4058:	c7 04 24 02 00 00 00 	movl   $0x2,(%esp)
    405f:	e8 ec e2 00 00       	call   12350 <service_connect_blocking>
    4064:	a3 40 1f 02 00       	mov    %eax,0x21f40
    4069:	e9 bc fd ff ff       	jmp    3e2a <loc_get_namespaces+0x1a>
    406e:	66 90                	xchg   %ax,%ax
    4070:	8b 45 b4             	mov    -0x4c(%ebp),%eax
    4073:	31 db                	xor    %ebx,%ebx
    4075:	89 04 24             	mov    %eax,(%esp)
    4078:	e8 43 fd 00 00       	call   13dc0 <async_forget>
    407d:	89 3c 24             	mov    %edi,(%esp)
    4080:	e8 4b db 00 00       	call   11bd0 <free>
    4085:	83 c4 7c             	add    $0x7c,%esp
    4088:	89 d8                	mov    %ebx,%eax
    408a:	5b                   	pop    %ebx
    408b:	5e                   	pop    %esi
    408c:	5f                   	pop    %edi
    408d:	5d                   	pop    %ebp
    408e:	c3                   	ret    
    408f:	90                   	nop
    4090:	85 db                	test   %ebx,%ebx
    4092:	0f 84 fb fd ff ff    	je     3e93 <loc_get_namespaces+0x83>
    4098:	89 1d 3c 1f 02 00    	mov    %ebx,0x21f3c
    409e:	e9 f0 fd ff ff       	jmp    3e93 <loc_get_namespaces+0x83>
    40a3:	89 3c 24             	mov    %edi,(%esp)
    40a6:	e8 25 db 00 00       	call   11bd0 <free>
    40ab:	e9 69 fd ff ff       	jmp    3e19 <loc_get_namespaces+0x9>
    40b0:	c7 44 24 0c 00 00 00 	movl   $0x0,0xc(%esp)
    40b7:	00 
    40b8:	c7 44 24 08 02 00 00 	movl   $0x2,0x8(%esp)
    40bf:	00 
    40c0:	c7 44 24 04 6c 6f 63 	movl   $0x20636f6c,0x4(%esp)
    40c7:	20 
    40c8:	c7 04 24 02 00 00 00 	movl   $0x2,(%esp)
    40cf:	e8 fc e1 00 00       	call   122d0 <service_connect>
    40d4:	a3 3c 1f 02 00       	mov    %eax,0x21f3c
    40d9:	e9 75 fe ff ff       	jmp    3f53 <loc_get_namespaces+0x143>
    40de:	31 f6                	xor    %esi,%esi
    40e0:	e9 91 fe ff ff       	jmp    3f76 <loc_get_namespaces+0x166>
    40e5:	8d 74 26 00          	lea    0x0(%esi,%eiz,1),%esi
    40e9:	8d bc 27 00 00 00 00 	lea    0x0(%edi,%eiz,1),%edi

000040f0 <loc_get_services>:
    40f0:	55                   	push   %ebp
    40f1:	89 e5                	mov    %esp,%ebp
    40f3:	57                   	push   %edi
    40f4:	56                   	push   %esi
    40f5:	53                   	push   %ebx
    40f6:	83 ec 7c             	sub    $0x7c,%esp
    40f9:	c7 04 24 40 1d 02 00 	movl   $0x21d40,(%esp)
    4100:	e8 7b 40 00 00       	call   8180 <fibril_mutex_lock>
    4105:	a1 40 1f 02 00       	mov    0x21f40,%eax
    410a:	85 c0                	test   %eax,%eax
    410c:	75 38                	jne    4146 <loc_get_services+0x56>
    410e:	c7 04 24 50 1d 02 00 	movl   $0x21d50,(%esp)
    4115:	8b 1d 3c 1f 02 00    	mov    0x21f3c,%ebx
    411b:	e8 60 40 00 00       	call   8180 <fibril_mutex_lock>
    4120:	a1 40 1f 02 00       	mov    0x21f40,%eax
    4125:	85 c0                	test   %eax,%eax
    4127:	0f 84 db 01 00 00    	je     4308 <loc_get_services+0x218>
    412d:	c7 04 24 50 1d 02 00 	movl   $0x21d50,(%esp)
    4134:	e8 67 41 00 00       	call   82a0 <fibril_mutex_unlock>
    4139:	a1 40 1f 02 00       	mov    0x21f40,%eax
    413e:	85 c0                	test   %eax,%eax
    4140:	0f 84 da 01 00 00    	je     4320 <loc_get_services+0x230>
    4146:	c7 04 24 40 1d 02 00 	movl   $0x21d40,(%esp)
    414d:	e8 4e 41 00 00       	call   82a0 <fibril_mutex_unlock>
    4152:	c7 04 24 50 1d 02 00 	movl   $0x21d50,(%esp)
    4159:	8b 1d 40 1f 02 00    	mov    0x21f40,%ebx
    415f:	e8 1c 40 00 00       	call   8180 <fibril_mutex_lock>
    4164:	a1 3c 1f 02 00       	mov    0x21f3c,%eax
    4169:	85 c0                	test   %eax,%eax
    416b:	0f 84 ff 01 00 00    	je     4370 <loc_get_services+0x280>
    4171:	c7 04 24 50 1d 02 00 	movl   $0x21d50,(%esp)
    4178:	e8 23 41 00 00       	call   82a0 <fibril_mutex_unlock>
    417d:	a1 40 1f 02 00       	mov    0x21f40,%eax
    4182:	89 04 24             	mov    %eax,(%esp)
    4185:	e8 76 0e 01 00       	call   15000 <async_exchange_begin>
    418a:	c7 44 24 28 00 00 00 	movl   $0x0,0x28(%esp)
    4191:	00 
    4192:	89 c6                	mov    %eax,%esi
    4194:	8d 45 c0             	lea    -0x40(%ebp),%eax
    4197:	89 44 24 18          	mov    %eax,0x18(%esp)
    419b:	8b 45 08             	mov    0x8(%ebp),%eax
    419e:	c7 44 24 24 00 00 00 	movl   $0x0,0x24(%esp)
    41a5:	00 
    41a6:	c7 44 24 20 00 00 00 	movl   $0x0,0x20(%esp)
    41ad:	00 
    41ae:	c7 44 24 1c 00 00 00 	movl   $0x0,0x1c(%esp)
    41b5:	00 
    41b6:	c7 44 24 14 00 00 00 	movl   $0x0,0x14(%esp)
    41bd:	00 
    41be:	c7 44 24 10 00 00 00 	movl   $0x0,0x10(%esp)
    41c5:	00 
    41c6:	c7 44 24 0c 00 00 00 	movl   $0x0,0xc(%esp)
    41cd:	00 
    41ce:	89 44 24 08          	mov    %eax,0x8(%esp)
    41d2:	c7 44 24 04 11 04 00 	movl   $0x411,0x4(%esp)
    41d9:	00 
    41da:	89 34 24             	mov    %esi,(%esp)
    41dd:	e8 ce fd 00 00       	call   13fb0 <async_req_fast>
    41e2:	85 c0                	test   %eax,%eax
    41e4:	0f 85 06 01 00 00    	jne    42f0 <loc_get_services+0x200>
    41ea:	8b 5d c0             	mov    -0x40(%ebp),%ebx
    41ed:	89 34 24             	mov    %esi,(%esp)
    41f0:	e8 7b 11 01 00       	call   15370 <async_exchange_end>
    41f5:	85 db                	test   %ebx,%ebx
    41f7:	0f 84 fb 00 00 00    	je     42f8 <loc_get_services+0x208>
    41fd:	c7 44 24 04 04 01 00 	movl   $0x104,0x4(%esp)
    4204:	00 
    4205:	89 1c 24             	mov    %ebx,(%esp)
    4208:	e8 53 d8 00 00       	call   11a60 <calloc>
    420d:	89 c7                	mov    %eax,%edi
    420f:	85 c0                	test   %eax,%eax
    4211:	0f 84 e1 00 00 00    	je     42f8 <loc_get_services+0x208>
    4217:	c7 04 24 50 1d 02 00 	movl   $0x21d50,(%esp)
    421e:	e8 5d 3f 00 00       	call   8180 <fibril_mutex_lock>
    4223:	a1 3c 1f 02 00       	mov    0x21f3c,%eax
    4228:	85 c0                	test   %eax,%eax
    422a:	0f 84 60 01 00 00    	je     4390 <loc_get_services+0x2a0>
    4230:	c7 04 24 50 1d 02 00 	movl   $0x21d50,(%esp)
    4237:	e8 64 40 00 00       	call   82a0 <fibril_mutex_unlock>
    423c:	a1 3c 1f 02 00       	mov    0x21f3c,%eax
    4241:	85 c0                	test   %eax,%eax
    4243:	0f 84 75 01 00 00    	je     43be <loc_get_services+0x2ce>
    4249:	89 04 24             	mov    %eax,(%esp)
    424c:	e8 af 0d 01 00       	call   15000 <async_exchange_begin>
    4251:	89 c6                	mov    %eax,%esi
    4253:	8d 45 c4             	lea    -0x3c(%ebp),%eax
    4256:	c7 44 24 14 00 00 00 	movl   $0x0,0x14(%esp)
    425d:	00 
    425e:	89 44 24 18          	mov    %eax,0x18(%esp)
    4262:	8b 45 08             	mov    0x8(%ebp),%eax
    4265:	c7 44 24 10 00 00 00 	movl   $0x0,0x10(%esp)
    426c:	00 
    426d:	c7 44 24 0c 00 00 00 	movl   $0x0,0xc(%esp)
    4274:	00 
    4275:	89 44 24 08          	mov    %eax,0x8(%esp)
    4279:	c7 44 24 04 14 04 00 	movl   $0x414,0x4(%esp)
    4280:	00 
    4281:	89 34 24             	mov    %esi,(%esp)
    4284:	e8 17 f7 00 00       	call   139a0 <async_send_fast>
    4289:	89 7c 24 04          	mov    %edi,0x4(%esp)
    428d:	89 45 b4             	mov    %eax,-0x4c(%ebp)
    4290:	89 d8                	mov    %ebx,%eax
    4292:	c1 e0 08             	shl    $0x8,%eax
    4295:	89 34 24             	mov    %esi,(%esp)
    4298:	8d 04 98             	lea    (%eax,%ebx,4),%eax
    429b:	89 44 24 08          	mov    %eax,0x8(%esp)
    429f:	e8 2c 17 01 00       	call   159d0 <async_data_read_start>
    42a4:	89 34 24             	mov    %esi,(%esp)
    42a7:	89 45 b0             	mov    %eax,-0x50(%ebp)
    42aa:	e8 c1 10 01 00       	call   15370 <async_exchange_end>
    42af:	8b 45 b0             	mov    -0x50(%ebp),%eax
    42b2:	83 f8 f0             	cmp    $0xfffffff0,%eax
    42b5:	0f 84 c8 00 00 00    	je     4383 <loc_get_services+0x293>
    42bb:	85 c0                	test   %eax,%eax
    42bd:	0f 85 8d 00 00 00    	jne    4350 <loc_get_services+0x260>
    42c3:	8d 45 c0             	lea    -0x40(%ebp),%eax
    42c6:	89 44 24 04          	mov    %eax,0x4(%esp)
    42ca:	8b 45 b4             	mov    -0x4c(%ebp),%eax
    42cd:	89 04 24             	mov    %eax,(%esp)
    42d0:	e8 9b f8 00 00       	call   13b70 <async_wait_for>
    42d5:	8b 75 c0             	mov    -0x40(%ebp),%esi
    42d8:	85 f6                	test   %esi,%esi
    42da:	75 1c                	jne    42f8 <loc_get_services+0x208>
    42dc:	8b 45 0c             	mov    0xc(%ebp),%eax
    42df:	89 38                	mov    %edi,(%eax)
    42e1:	83 c4 7c             	add    $0x7c,%esp
    42e4:	89 d8                	mov    %ebx,%eax
    42e6:	5b                   	pop    %ebx
    42e7:	5e                   	pop    %esi
    42e8:	5f                   	pop    %edi
    42e9:	5d                   	pop    %ebp
    42ea:	c3                   	ret    
    42eb:	90                   	nop
    42ec:	8d 74 26 00          	lea    0x0(%esi,%eiz,1),%esi
    42f0:	89 34 24             	mov    %esi,(%esp)
    42f3:	e8 78 10 01 00       	call   15370 <async_exchange_end>
    42f8:	83 c4 7c             	add    $0x7c,%esp
    42fb:	31 db                	xor    %ebx,%ebx
    42fd:	89 d8                	mov    %ebx,%eax
    42ff:	5b                   	pop    %ebx
    4300:	5e                   	pop    %esi
    4301:	5f                   	pop    %edi
    4302:	5d                   	pop    %ebp
    4303:	c3                   	ret    
    4304:	8d 74 26 00          	lea    0x0(%esi,%eiz,1),%esi
    4308:	85 db                	test   %ebx,%ebx
    430a:	0f 84 1d fe ff ff    	je     412d <loc_get_services+0x3d>
    4310:	89 1d 40 1f 02 00    	mov    %ebx,0x21f40
    4316:	e9 12 fe ff ff       	jmp    412d <loc_get_services+0x3d>
    431b:	90                   	nop
    431c:	8d 74 26 00          	lea    0x0(%esi,%eiz,1),%esi
    4320:	c7 44 24 0c 00 00 00 	movl   $0x0,0xc(%esp)
    4327:	00 
    4328:	c7 44 24 08 02 00 00 	movl   $0x2,0x8(%esp)
    432f:	00 
    4330:	c7 44 24 04 6c 6f 63 	movl   $0x20636f6c,0x4(%esp)
    4337:	20 
    4338:	c7 04 24 02 00 00 00 	movl   $0x2,(%esp)
    433f:	e8 0c e0 00 00       	call   12350 <service_connect_blocking>
    4344:	a3 40 1f 02 00       	mov    %eax,0x21f40
    4349:	e9 bc fd ff ff       	jmp    410a <loc_get_services+0x1a>
    434e:	66 90                	xchg   %ax,%ax
    4350:	8b 45 b4             	mov    -0x4c(%ebp),%eax
    4353:	31 db                	xor    %ebx,%ebx
    4355:	89 04 24             	mov    %eax,(%esp)
    4358:	e8 63 fa 00 00       	call   13dc0 <async_forget>
    435d:	89 3c 24             	mov    %edi,(%esp)
    4360:	e8 6b d8 00 00       	call   11bd0 <free>
    4365:	83 c4 7c             	add    $0x7c,%esp
    4368:	89 d8                	mov    %ebx,%eax
    436a:	5b                   	pop    %ebx
    436b:	5e                   	pop    %esi
    436c:	5f                   	pop    %edi
    436d:	5d                   	pop    %ebp
    436e:	c3                   	ret    
    436f:	90                   	nop
    4370:	85 db                	test   %ebx,%ebx
    4372:	0f 84 f9 fd ff ff    	je     4171 <loc_get_services+0x81>
    4378:	89 1d 3c 1f 02 00    	mov    %ebx,0x21f3c
    437e:	e9 ee fd ff ff       	jmp    4171 <loc_get_services+0x81>
    4383:	89 3c 24             	mov    %edi,(%esp)
    4386:	e8 45 d8 00 00       	call   11bd0 <free>
    438b:	e9 69 fd ff ff       	jmp    40f9 <loc_get_services+0x9>
    4390:	c7 44 24 0c 00 00 00 	movl   $0x0,0xc(%esp)
    4397:	00 
    4398:	c7 44 24 08 02 00 00 	movl   $0x2,0x8(%esp)
    439f:	00 
    43a0:	c7 44 24 04 6c 6f 63 	movl   $0x20636f6c,0x4(%esp)
    43a7:	20 
    43a8:	c7 04 24 02 00 00 00 	movl   $0x2,(%esp)
    43af:	e8 1c df 00 00       	call   122d0 <service_connect>
    43b4:	a3 3c 1f 02 00       	mov    %eax,0x21f3c
    43b9:	e9 72 fe ff ff       	jmp    4230 <loc_get_services+0x140>
    43be:	31 f6                	xor    %esi,%esi
    43c0:	e9 8e fe ff ff       	jmp    4253 <loc_get_services+0x163>
    43c5:	8d 74 26 00          	lea    0x0(%esi,%eiz,1),%esi
    43c9:	8d bc 27 00 00 00 00 	lea    0x0(%edi,%eiz,1),%edi

000043d0 <loc_category_get_svcs>:
    43d0:	55                   	push   %ebp
    43d1:	89 e5                	mov    %esp,%ebp
    43d3:	8b 45 10             	mov    0x10(%ebp),%eax
    43d6:	8b 55 08             	mov    0x8(%ebp),%edx
    43d9:	8b 4d 0c             	mov    0xc(%ebp),%ecx
    43dc:	89 45 08             	mov    %eax,0x8(%ebp)
    43df:	b8 0c 04 00 00       	mov    $0x40c,%eax
    43e4:	5d                   	pop    %ebp
    43e5:	e9 e6 db ff ff       	jmp    1fd0 <loc_get_ids_internal>
    43ea:	8d b6 00 00 00 00    	lea    0x0(%esi),%esi

000043f0 <loc_get_categories>:
    43f0:	55                   	push   %ebp
    43f1:	31 d2                	xor    %edx,%edx
    43f3:	89 e5                	mov    %esp,%ebp
    43f5:	8b 45 0c             	mov    0xc(%ebp),%eax
    43f8:	8b 4d 08             	mov    0x8(%ebp),%ecx
    43fb:	89 45 08             	mov    %eax,0x8(%ebp)
    43fe:	b8 12 04 00 00       	mov    $0x412,%eax
    4403:	5d                   	pop    %ebp
    4404:	e9 c7 db ff ff       	jmp    1fd0 <loc_get_ids_internal>
    4409:	8d b4 26 00 00 00 00 	lea    0x0(%esi,%eiz,1),%esi

00004410 <loc_register_cat_change_cb>:
    4410:	55                   	push   %ebp
    4411:	89 e5                	mov    %esp,%ebp
    4413:	57                   	push   %edi
    4414:	56                   	push   %esi
    4415:	53                   	push   %ebx
    4416:	83 ec 5c             	sub    $0x5c,%esp
    4419:	c7 04 24 60 1d 02 00 	movl   $0x21d60,(%esp)
    4420:	e8 5b 3d 00 00       	call   8180 <fibril_mutex_lock>
    4425:	80 3d 48 1f 02 00 00 	cmpb   $0x0,0x21f48
    442c:	74 22                	je     4450 <loc_register_cat_change_cb+0x40>
    442e:	8b 45 08             	mov    0x8(%ebp),%eax
    4431:	c7 04 24 60 1d 02 00 	movl   $0x21d60,(%esp)
    4438:	a3 44 1f 02 00       	mov    %eax,0x21f44
    443d:	e8 5e 3e 00 00       	call   82a0 <fibril_mutex_unlock>
    4442:	83 c4 5c             	add    $0x5c,%esp
    4445:	31 c0                	xor    %eax,%eax
    4447:	5b                   	pop    %ebx
    4448:	5e                   	pop    %esi
    4449:	5f                   	pop    %edi
    444a:	5d                   	pop    %ebp
    444b:	c3                   	ret    
    444c:	8d 74 26 00          	lea    0x0(%esi,%eiz,1),%esi
    4450:	c7 04 24 40 1d 02 00 	movl   $0x21d40,(%esp)
    4457:	e8 24 3d 00 00       	call   8180 <fibril_mutex_lock>
    445c:	a1 40 1f 02 00       	mov    0x21f40,%eax
    4461:	85 c0                	test   %eax,%eax
    4463:	75 3a                	jne    449f <loc_register_cat_change_cb+0x8f>
    4465:	c7 04 24 50 1d 02 00 	movl   $0x21d50,(%esp)
    446c:	8b 1d 3c 1f 02 00    	mov    0x21f3c,%ebx
    4472:	e8 09 3d 00 00       	call   8180 <fibril_mutex_lock>
    4477:	8b 0d 40 1f 02 00    	mov    0x21f40,%ecx
    447d:	85 c9                	test   %ecx,%ecx
    447f:	0f 84 f3 00 00 00    	je     4578 <loc_register_cat_change_cb+0x168>
    4485:	c7 04 24 50 1d 02 00 	movl   $0x21d50,(%esp)
    448c:	e8 0f 3e 00 00       	call   82a0 <fibril_mutex_unlock>
    4491:	8b 15 40 1f 02 00    	mov    0x21f40,%edx
    4497:	85 d2                	test   %edx,%edx
    4499:	0f 84 f1 00 00 00    	je     4590 <loc_register_cat_change_cb+0x180>
    449f:	c7 04 24 40 1d 02 00 	movl   $0x21d40,(%esp)
    44a6:	e8 f5 3d 00 00       	call   82a0 <fibril_mutex_unlock>
    44ab:	c7 04 24 50 1d 02 00 	movl   $0x21d50,(%esp)
    44b2:	8b 1d 40 1f 02 00    	mov    0x21f40,%ebx
    44b8:	e8 c3 3c 00 00       	call   8180 <fibril_mutex_lock>
    44bd:	a1 3c 1f 02 00       	mov    0x21f3c,%eax
    44c2:	85 c0                	test   %eax,%eax
    44c4:	0f 84 1e 01 00 00    	je     45e8 <loc_register_cat_change_cb+0x1d8>
    44ca:	c7 04 24 50 1d 02 00 	movl   $0x21d50,(%esp)
    44d1:	e8 ca 3d 00 00       	call   82a0 <fibril_mutex_unlock>
    44d6:	a1 40 1f 02 00       	mov    0x21f40,%eax
    44db:	89 04 24             	mov    %eax,(%esp)
    44de:	e8 1d 0b 01 00       	call   15000 <async_exchange_begin>
    44e3:	c7 44 24 14 00 00 00 	movl   $0x0,0x14(%esp)
    44ea:	00 
    44eb:	89 c3                	mov    %eax,%ebx
    44ed:	8d 45 c4             	lea    -0x3c(%ebp),%eax
    44f0:	89 44 24 18          	mov    %eax,0x18(%esp)
    44f4:	c7 44 24 10 00 00 00 	movl   $0x0,0x10(%esp)
    44fb:	00 
    44fc:	c7 44 24 0c 00 00 00 	movl   $0x0,0xc(%esp)
    4503:	00 
    4504:	c7 44 24 08 00 00 00 	movl   $0x0,0x8(%esp)
    450b:	00 
    450c:	c7 44 24 04 09 04 00 	movl   $0x409,0x4(%esp)
    4513:	00 
    4514:	89 1c 24             	mov    %ebx,(%esp)
    4517:	e8 84 f4 00 00       	call   139a0 <async_send_fast>
    451c:	c7 44 24 14 00 00 00 	movl   $0x0,0x14(%esp)
    4523:	00 
    4524:	c7 44 24 10 90 1c 00 	movl   $0x1c90,0x10(%esp)
    452b:	00 
    452c:	c7 44 24 0c 00 00 00 	movl   $0x0,0xc(%esp)
    4533:	00 
    4534:	c7 44 24 08 00 00 00 	movl   $0x0,0x8(%esp)
    453b:	00 
    453c:	c7 44 24 04 00 00 00 	movl   $0x0,0x4(%esp)
    4543:	00 
    4544:	89 1c 24             	mov    %ebx,(%esp)
    4547:	89 c7                	mov    %eax,%edi
    4549:	e8 52 02 01 00       	call   147a0 <async_connect_to_me>
    454e:	89 1c 24             	mov    %ebx,(%esp)
    4551:	89 c6                	mov    %eax,%esi
    4553:	e8 18 0e 01 00       	call   15370 <async_exchange_end>
    4558:	85 f6                	test   %esi,%esi
    455a:	74 64                	je     45c0 <loc_register_cat_change_cb+0x1b0>
    455c:	c7 04 24 60 1d 02 00 	movl   $0x21d60,(%esp)
    4563:	e8 38 3d 00 00       	call   82a0 <fibril_mutex_unlock>
    4568:	83 c4 5c             	add    $0x5c,%esp
    456b:	b8 f7 fe ff ff       	mov    $0xfffffef7,%eax
    4570:	5b                   	pop    %ebx
    4571:	5e                   	pop    %esi
    4572:	5f                   	pop    %edi
    4573:	5d                   	pop    %ebp
    4574:	c3                   	ret    
    4575:	8d 76 00             	lea    0x0(%esi),%esi
    4578:	85 db                	test   %ebx,%ebx
    457a:	0f 84 05 ff ff ff    	je     4485 <loc_register_cat_change_cb+0x75>
    4580:	89 1d 40 1f 02 00    	mov    %ebx,0x21f40
    4586:	e9 fa fe ff ff       	jmp    4485 <loc_register_cat_change_cb+0x75>
    458b:	90                   	nop
    458c:	8d 74 26 00          	lea    0x0(%esi,%eiz,1),%esi
    4590:	c7 44 24 0c 00 00 00 	movl   $0x0,0xc(%esp)
    4597:	00 
    4598:	c7 44 24 08 02 00 00 	movl   $0x2,0x8(%esp)
    459f:	00 
    45a0:	c7 44 24 04 6c 6f 63 	movl   $0x20636f6c,0x4(%esp)
    45a7:	20 
    45a8:	c7 04 24 02 00 00 00 	movl   $0x2,(%esp)
    45af:	e8 9c dd 00 00       	call   12350 <service_connect_blocking>
    45b4:	a3 40 1f 02 00       	mov    %eax,0x21f40
    45b9:	e9 a3 fe ff ff       	jmp    4461 <loc_register_cat_change_cb+0x51>
    45be:	66 90                	xchg   %ax,%ax
    45c0:	8d 45 c0             	lea    -0x40(%ebp),%eax
    45c3:	89 3c 24             	mov    %edi,(%esp)
    45c6:	89 44 24 04          	mov    %eax,0x4(%esp)
    45ca:	e8 a1 f5 00 00       	call   13b70 <async_wait_for>
    45cf:	8b 45 c0             	mov    -0x40(%ebp),%eax
    45d2:	85 c0                	test   %eax,%eax
    45d4:	75 86                	jne    455c <loc_register_cat_change_cb+0x14c>
    45d6:	c6 05 48 1f 02 00 01 	movb   $0x1,0x21f48
    45dd:	e9 4c fe ff ff       	jmp    442e <loc_register_cat_change_cb+0x1e>
    45e2:	8d b6 00 00 00 00    	lea    0x0(%esi),%esi
    45e8:	85 db                	test   %ebx,%ebx
    45ea:	0f 84 da fe ff ff    	je     44ca <loc_register_cat_change_cb+0xba>
    45f0:	89 1d 3c 1f 02 00    	mov    %ebx,0x21f3c
    45f6:	e9 cf fe ff ff       	jmp    44ca <loc_register_cat_change_cb+0xba>
    45fb:	66 90                	xchg   %ax,%ax
    45fd:	66 90                	xchg   %ax,%ax
    45ff:	90                   	nop

00004600 <_strtoul>:
    4600:	55                   	push   %ebp
    4601:	89 e5                	mov    %esp,%ebp
    4603:	57                   	push   %edi
    4604:	56                   	push   %esi
    4605:	53                   	push   %ebx
    4606:	83 ec 08             	sub    $0x8,%esp
    4609:	89 45 f0             	mov    %eax,-0x10(%ebp)
    460c:	8a 00                	mov    (%eax),%al
    460e:	89 55 ec             	mov    %edx,-0x14(%ebp)
    4611:	0f be d0             	movsbl %al,%edx
    4614:	83 ea 09             	sub    $0x9,%edx
    4617:	8b 5d f0             	mov    -0x10(%ebp),%ebx
    461a:	83 fa 17             	cmp    $0x17,%edx
    461d:	77 23                	ja     4642 <_strtoul+0x42>
    461f:	8b 3c 95 20 f3 01 00 	mov    0x1f320(,%edx,4),%edi
    4626:	85 ff                	test   %edi,%edi
    4628:	0f 84 94 01 00 00    	je     47c2 <_strtoul+0x1c2>
    462e:	66 90                	xchg   %ax,%ax
    4630:	43                   	inc    %ebx
    4631:	8a 03                	mov    (%ebx),%al
    4633:	0f be d0             	movsbl %al,%edx
    4636:	83 ea 09             	sub    $0x9,%edx
    4639:	83 fa 17             	cmp    $0x17,%edx
    463c:	0f 86 a6 00 00 00    	jbe    46e8 <_strtoul+0xe8>
    4642:	3c 2d                	cmp    $0x2d,%al
    4644:	0f 84 1e 01 00 00    	je     4768 <_strtoul+0x168>
    464a:	3c 2b                	cmp    $0x2b,%al
    464c:	0f 94 c0             	sete   %al
    464f:	25 ff 00 00 00       	and    $0xff,%eax
    4654:	01 c3                	add    %eax,%ebx
    4656:	85 c9                	test   %ecx,%ecx
    4658:	0f 84 a2 00 00 00    	je     4700 <_strtoul+0x100>
    465e:	83 f9 24             	cmp    $0x24,%ecx
    4661:	0f 8f 21 01 00 00    	jg     4788 <_strtoul+0x188>
    4667:	83 f9 01             	cmp    $0x1,%ecx
    466a:	0f 84 18 01 00 00    	je     4788 <_strtoul+0x188>
    4670:	8a 13                	mov    (%ebx),%dl
    4672:	83 f9 10             	cmp    $0x10,%ecx
    4675:	0f 84 16 01 00 00    	je     4791 <_strtoul+0x191>
    467b:	84 d2                	test   %dl,%dl
    467d:	0f 84 2c 01 00 00    	je     47af <_strtoul+0x1af>
    4683:	89 de                	mov    %ebx,%esi
    4685:	31 c0                	xor    %eax,%eax
    4687:	eb 4a                	jmp    46d3 <_strtoul+0xd3>
    4689:	8d b4 26 00 00 00 00 	lea    0x0(%esi,%eiz,1),%esi
    4690:	83 ea 57             	sub    $0x57,%edx
    4693:	81 e2 ff 00 00 00    	and    $0xff,%edx
    4699:	39 d1                	cmp    %edx,%ecx
    469b:	0f 8e 94 00 00 00    	jle    4735 <_strtoul+0x135>
    46a1:	0f b6 f8             	movzbl %al,%edi
    46a4:	0f af f9             	imul   %ecx,%edi
    46a7:	c1 e8 08             	shr    $0x8,%eax
    46aa:	01 fa                	add    %edi,%edx
    46ac:	0f af c1             	imul   %ecx,%eax
    46af:	89 d7                	mov    %edx,%edi
    46b1:	c1 ef 08             	shr    $0x8,%edi
    46b4:	01 f8                	add    %edi,%eax
    46b6:	3d ff ff ff 00       	cmp    $0xffffff,%eax
    46bb:	0f 87 b7 00 00 00    	ja     4778 <_strtoul+0x178>
    46c1:	46                   	inc    %esi
    46c2:	81 e2 ff 00 00 00    	and    $0xff,%edx
    46c8:	c1 e0 08             	shl    $0x8,%eax
    46cb:	01 d0                	add    %edx,%eax
    46cd:	8a 16                	mov    (%esi),%dl
    46cf:	84 d2                	test   %dl,%dl
    46d1:	74 62                	je     4735 <_strtoul+0x135>
    46d3:	80 fa 60             	cmp    $0x60,%dl
    46d6:	77 b8                	ja     4690 <_strtoul+0x90>
    46d8:	80 fa 40             	cmp    $0x40,%dl
    46db:	76 53                	jbe    4730 <_strtoul+0x130>
    46dd:	83 ea 37             	sub    $0x37,%edx
    46e0:	eb b1                	jmp    4693 <_strtoul+0x93>
    46e2:	8d b6 00 00 00 00    	lea    0x0(%esi),%esi
    46e8:	8b 34 95 20 f3 01 00 	mov    0x1f320(,%edx,4),%esi
    46ef:	85 f6                	test   %esi,%esi
    46f1:	0f 85 39 ff ff ff    	jne    4630 <_strtoul+0x30>
    46f7:	e9 46 ff ff ff       	jmp    4642 <_strtoul+0x42>
    46fc:	8d 74 26 00          	lea    0x0(%esi,%eiz,1),%esi
    4700:	8a 13                	mov    (%ebx),%dl
    4702:	b9 0a 00 00 00       	mov    $0xa,%ecx
    4707:	80 fa 30             	cmp    $0x30,%dl
    470a:	0f 85 6b ff ff ff    	jne    467b <_strtoul+0x7b>
    4710:	8a 43 01             	mov    0x1(%ebx),%al
    4713:	83 e0 df             	and    $0xffffffdf,%eax
    4716:	3c 58                	cmp    $0x58,%al
    4718:	0f 85 98 00 00 00    	jne    47b6 <_strtoul+0x1b6>
    471e:	8a 53 02             	mov    0x2(%ebx),%dl
    4721:	b1 10                	mov    $0x10,%cl
    4723:	83 c3 02             	add    $0x2,%ebx
    4726:	e9 50 ff ff ff       	jmp    467b <_strtoul+0x7b>
    472b:	90                   	nop
    472c:	8d 74 26 00          	lea    0x0(%esi,%eiz,1),%esi
    4730:	80 fa 39             	cmp    $0x39,%dl
    4733:	76 2b                	jbe    4760 <_strtoul+0x160>
    4735:	39 f3                	cmp    %esi,%ebx
    4737:	74 76                	je     47af <_strtoul+0x1af>
    4739:	8b 5d ec             	mov    -0x14(%ebp),%ebx
    473c:	85 db                	test   %ebx,%ebx
    473e:	74 05                	je     4745 <_strtoul+0x145>
    4740:	8b 55 ec             	mov    -0x14(%ebp),%edx
    4743:	89 32                	mov    %esi,(%edx)
    4745:	39 75 f0             	cmp    %esi,-0x10(%ebp)
    4748:	0f 95 c2             	setne  %dl
    474b:	81 e2 ff 00 00 00    	and    $0xff,%edx
    4751:	f7 da                	neg    %edx
    4753:	21 d0                	and    %edx,%eax
    4755:	5a                   	pop    %edx
    4756:	59                   	pop    %ecx
    4757:	5b                   	pop    %ebx
    4758:	5e                   	pop    %esi
    4759:	5f                   	pop    %edi
    475a:	5d                   	pop    %ebp
    475b:	c3                   	ret    
    475c:	8d 74 26 00          	lea    0x0(%esi,%eiz,1),%esi
    4760:	83 ea 30             	sub    $0x30,%edx
    4763:	e9 2b ff ff ff       	jmp    4693 <_strtoul+0x93>
    4768:	8b 45 08             	mov    0x8(%ebp),%eax
    476b:	43                   	inc    %ebx
    476c:	c6 00 01             	movb   $0x1,(%eax)
    476f:	e9 e2 fe ff ff       	jmp    4656 <_strtoul+0x56>
    4774:	8d 74 26 00          	lea    0x0(%esi,%eiz,1),%esi
    4778:	5a                   	pop    %edx
    4779:	83 c8 ff             	or     $0xffffffff,%eax
    477c:	59                   	pop    %ecx
    477d:	5b                   	pop    %ebx
    477e:	5e                   	pop    %esi
    477f:	5f                   	pop    %edi
    4780:	5d                   	pop    %ebp
    4781:	c3                   	ret    
    4782:	8d b6 00 00 00 00    	lea    0x0(%esi),%esi
    4788:	5a                   	pop    %edx
    4789:	31 c0                	xor    %eax,%eax
    478b:	59                   	pop    %ecx
    478c:	5b                   	pop    %ebx
    478d:	5e                   	pop    %esi
    478e:	5f                   	pop    %edi
    478f:	5d                   	pop    %ebp
    4790:	c3                   	ret    
    4791:	80 fa 30             	cmp    $0x30,%dl
    4794:	0f 85 e1 fe ff ff    	jne    467b <_strtoul+0x7b>
    479a:	8a 43 01             	mov    0x1(%ebx),%al
    479d:	83 e0 df             	and    $0xffffffdf,%eax
    47a0:	3c 58                	cmp    $0x58,%al
    47a2:	75 17                	jne    47bb <_strtoul+0x1bb>
    47a4:	8a 53 02             	mov    0x2(%ebx),%dl
    47a7:	83 c3 02             	add    $0x2,%ebx
    47aa:	e9 cc fe ff ff       	jmp    467b <_strtoul+0x7b>
    47af:	8b 75 f0             	mov    -0x10(%ebp),%esi
    47b2:	31 c0                	xor    %eax,%eax
    47b4:	eb 83                	jmp    4739 <_strtoul+0x139>
    47b6:	b9 08 00 00 00       	mov    $0x8,%ecx
    47bb:	b2 30                	mov    $0x30,%dl
    47bd:	e9 c1 fe ff ff       	jmp    4683 <_strtoul+0x83>
    47c2:	8b 5d f0             	mov    -0x10(%ebp),%ebx
    47c5:	e9 78 fe ff ff       	jmp    4642 <_strtoul+0x42>
    47ca:	8d b6 00 00 00 00    	lea    0x0(%esi),%esi

000047d0 <str_uint>:
    47d0:	55                   	push   %ebp
    47d1:	89 e5                	mov    %esp,%ebp
    47d3:	57                   	push   %edi
    47d4:	56                   	push   %esi
    47d5:	53                   	push   %ebx
    47d6:	83 ec 3c             	sub    $0x3c,%esp
    47d9:	89 45 dc             	mov    %eax,-0x24(%ebp)
    47dc:	89 55 d8             	mov    %edx,-0x28(%ebp)
    47df:	8b 75 08             	mov    0x8(%ebp),%esi
    47e2:	85 d2                	test   %edx,%edx
    47e4:	0f 84 5f 02 00 00    	je     4a49 <str_uint+0x279>
    47ea:	85 f6                	test   %esi,%esi
    47ec:	0f 84 3b 02 00 00    	je     4a2d <str_uint+0x25d>
    47f2:	8b 45 0c             	mov    0xc(%ebp),%eax
    47f5:	85 c0                	test   %eax,%eax
    47f7:	0f 84 14 02 00 00    	je     4a11 <str_uint+0x241>
    47fd:	8b 45 dc             	mov    -0x24(%ebp),%eax
    4800:	c6 06 00             	movb   $0x0,(%esi)
    4803:	8b 5d dc             	mov    -0x24(%ebp),%ebx
    4806:	8a 10                	mov    (%eax),%dl
    4808:	0f be c2             	movsbl %dl,%eax
    480b:	83 e8 09             	sub    $0x9,%eax
    480e:	83 f8 17             	cmp    $0x17,%eax
    4811:	77 27                	ja     483a <str_uint+0x6a>
    4813:	8b 04 85 20 f3 01 00 	mov    0x1f320(,%eax,4),%eax
    481a:	85 c0                	test   %eax,%eax
    481c:	0f 84 e7 01 00 00    	je     4a09 <str_uint+0x239>
    4822:	8d b6 00 00 00 00    	lea    0x0(%esi),%esi
    4828:	43                   	inc    %ebx
    4829:	8a 13                	mov    (%ebx),%dl
    482b:	0f be c2             	movsbl %dl,%eax
    482e:	83 e8 09             	sub    $0x9,%eax
    4831:	83 f8 17             	cmp    $0x17,%eax
    4834:	0f 86 06 01 00 00    	jbe    4940 <str_uint+0x170>
    483a:	80 fa 2d             	cmp    $0x2d,%dl
    483d:	0f 84 4d 01 00 00    	je     4990 <str_uint+0x1c0>
    4843:	80 fa 2b             	cmp    $0x2b,%dl
    4846:	0f 94 c0             	sete   %al
    4849:	25 ff 00 00 00       	and    $0xff,%eax
    484e:	01 c3                	add    %eax,%ebx
    4850:	85 c9                	test   %ecx,%ecx
    4852:	0f 85 18 01 00 00    	jne    4970 <str_uint+0x1a0>
    4858:	b1 0a                	mov    $0xa,%cl
    485a:	80 3b 30             	cmpb   $0x30,(%ebx)
    485d:	0f 84 3d 01 00 00    	je     49a0 <str_uint+0x1d0>
    4863:	8b 45 0c             	mov    0xc(%ebp),%eax
    4866:	c7 00 00 00 00 00    	movl   $0x0,(%eax)
    486c:	c7 40 04 00 00 00 00 	movl   $0x0,0x4(%eax)
    4873:	8a 03                	mov    (%ebx),%al
    4875:	84 c0                	test   %al,%al
    4877:	0f 84 37 01 00 00    	je     49b4 <str_uint+0x1e4>
    487d:	8d 50 9f             	lea    -0x61(%eax),%edx
    4880:	c7 45 e0 00 00 00 00 	movl   $0x0,-0x20(%ebp)
    4887:	c7 45 e4 00 00 00 00 	movl   $0x0,-0x1c(%ebp)
    488e:	89 5d d4             	mov    %ebx,-0x2c(%ebp)
    4891:	80 fa 19             	cmp    $0x19,%dl
    4894:	77 64                	ja     48fa <str_uint+0x12a>
    4896:	66 90                	xchg   %ax,%ax
    4898:	0f be f0             	movsbl %al,%esi
    489b:	83 ee 57             	sub    $0x57,%esi
    489e:	39 f1                	cmp    %esi,%ecx
    48a0:	76 6e                	jbe    4910 <str_uint+0x140>
    48a2:	8b 45 e0             	mov    -0x20(%ebp),%eax
    48a5:	8b 7d e4             	mov    -0x1c(%ebp),%edi
    48a8:	f7 e1                	mul    %ecx
    48aa:	0f af f9             	imul   %ecx,%edi
    48ad:	89 45 c8             	mov    %eax,-0x38(%ebp)
    48b0:	01 fa                	add    %edi,%edx
    48b2:	31 ff                	xor    %edi,%edi
    48b4:	03 75 c8             	add    -0x38(%ebp),%esi
    48b7:	89 55 cc             	mov    %edx,-0x34(%ebp)
    48ba:	8b 55 0c             	mov    0xc(%ebp),%edx
    48bd:	13 7d cc             	adc    -0x34(%ebp),%edi
    48c0:	89 32                	mov    %esi,(%edx)
    48c2:	89 7a 04             	mov    %edi,0x4(%edx)
    48c5:	3b 7d e4             	cmp    -0x1c(%ebp),%edi
    48c8:	77 1b                	ja     48e5 <str_uint+0x115>
    48ca:	73 14                	jae    48e0 <str_uint+0x110>
    48cc:	8b 45 d8             	mov    -0x28(%ebp),%eax
    48cf:	89 18                	mov    %ebx,(%eax)
    48d1:	b8 f0 ff ff ff       	mov    $0xfffffff0,%eax
    48d6:	83 c4 3c             	add    $0x3c,%esp
    48d9:	5b                   	pop    %ebx
    48da:	5e                   	pop    %esi
    48db:	5f                   	pop    %edi
    48dc:	5d                   	pop    %ebp
    48dd:	c3                   	ret    
    48de:	66 90                	xchg   %ax,%ax
    48e0:	3b 75 e0             	cmp    -0x20(%ebp),%esi
    48e3:	72 e7                	jb     48cc <str_uint+0xfc>
    48e5:	43                   	inc    %ebx
    48e6:	8a 03                	mov    (%ebx),%al
    48e8:	84 c0                	test   %al,%al
    48ea:	74 24                	je     4910 <str_uint+0x140>
    48ec:	8d 50 9f             	lea    -0x61(%eax),%edx
    48ef:	89 75 e0             	mov    %esi,-0x20(%ebp)
    48f2:	89 7d e4             	mov    %edi,-0x1c(%ebp)
    48f5:	80 fa 19             	cmp    $0x19,%dl
    48f8:	76 9e                	jbe    4898 <str_uint+0xc8>
    48fa:	8d 50 bf             	lea    -0x41(%eax),%edx
    48fd:	80 fa 19             	cmp    $0x19,%dl
    4900:	77 56                	ja     4958 <str_uint+0x188>
    4902:	0f be f0             	movsbl %al,%esi
    4905:	83 ee 37             	sub    $0x37,%esi
    4908:	39 f1                	cmp    %esi,%ecx
    490a:	77 96                	ja     48a2 <str_uint+0xd2>
    490c:	8d 74 26 00          	lea    0x0(%esi,%eiz,1),%esi
    4910:	89 da                	mov    %ebx,%edx
    4912:	8b 5d d4             	mov    -0x2c(%ebp),%ebx
    4915:	39 d3                	cmp    %edx,%ebx
    4917:	0f 84 97 00 00 00    	je     49b4 <str_uint+0x1e4>
    491d:	8b 45 d8             	mov    -0x28(%ebp),%eax
    4920:	39 55 dc             	cmp    %edx,-0x24(%ebp)
    4923:	89 10                	mov    %edx,(%eax)
    4925:	0f 95 c0             	setne  %al
    4928:	25 ff 00 00 00       	and    $0xff,%eax
    492d:	83 c4 3c             	add    $0x3c,%esp
    4930:	48                   	dec    %eax
    4931:	5b                   	pop    %ebx
    4932:	83 e0 f2             	and    $0xfffffff2,%eax
    4935:	5e                   	pop    %esi
    4936:	5f                   	pop    %edi
    4937:	5d                   	pop    %ebp
    4938:	c3                   	ret    
    4939:	8d b4 26 00 00 00 00 	lea    0x0(%esi,%eiz,1),%esi
    4940:	8b 3c 85 20 f3 01 00 	mov    0x1f320(,%eax,4),%edi
    4947:	85 ff                	test   %edi,%edi
    4949:	0f 85 d9 fe ff ff    	jne    4828 <str_uint+0x58>
    494f:	e9 e6 fe ff ff       	jmp    483a <str_uint+0x6a>
    4954:	8d 74 26 00          	lea    0x0(%esi,%eiz,1),%esi
    4958:	8d 50 d0             	lea    -0x30(%eax),%edx
    495b:	80 fa 09             	cmp    $0x9,%dl
    495e:	77 b0                	ja     4910 <str_uint+0x140>
    4960:	0f be f0             	movsbl %al,%esi
    4963:	83 ee 30             	sub    $0x30,%esi
    4966:	e9 33 ff ff ff       	jmp    489e <str_uint+0xce>
    496b:	90                   	nop
    496c:	8d 74 26 00          	lea    0x0(%esi,%eiz,1),%esi
    4970:	8d 41 fe             	lea    -0x2(%ecx),%eax
    4973:	83 f8 22             	cmp    $0x22,%eax
    4976:	0f 86 e7 fe ff ff    	jbe    4863 <str_uint+0x93>
    497c:	8b 55 d8             	mov    -0x28(%ebp),%edx
    497f:	b8 f2 ff ff ff       	mov    $0xfffffff2,%eax
    4984:	89 1a                	mov    %ebx,(%edx)
    4986:	e9 4b ff ff ff       	jmp    48d6 <str_uint+0x106>
    498b:	90                   	nop
    498c:	8d 74 26 00          	lea    0x0(%esi,%eiz,1),%esi
    4990:	c6 06 01             	movb   $0x1,(%esi)
    4993:	43                   	inc    %ebx
    4994:	e9 b7 fe ff ff       	jmp    4850 <str_uint+0x80>
    4999:	8d b4 26 00 00 00 00 	lea    0x0(%esi,%eiz,1),%esi
    49a0:	8a 43 01             	mov    0x1(%ebx),%al
    49a3:	83 e8 42             	sub    $0x42,%eax
    49a6:	3c 36                	cmp    $0x36,%al
    49a8:	76 1f                	jbe    49c9 <str_uint+0x1f9>
    49aa:	b9 08 00 00 00       	mov    $0x8,%ecx
    49af:	e9 af fe ff ff       	jmp    4863 <str_uint+0x93>
    49b4:	8b 55 d8             	mov    -0x28(%ebp),%edx
    49b7:	8b 45 dc             	mov    -0x24(%ebp),%eax
    49ba:	89 02                	mov    %eax,(%edx)
    49bc:	83 c4 3c             	add    $0x3c,%esp
    49bf:	b8 f2 ff ff ff       	mov    $0xfffffff2,%eax
    49c4:	5b                   	pop    %ebx
    49c5:	5e                   	pop    %esi
    49c6:	5f                   	pop    %edi
    49c7:	5d                   	pop    %ebp
    49c8:	c3                   	ret    
    49c9:	25 ff 00 00 00       	and    $0xff,%eax
    49ce:	ff 24 85 40 f2 01 00 	jmp    *0x1f240(,%eax,4)
    49d5:	83 c3 02             	add    $0x2,%ebx
    49d8:	b9 10 00 00 00       	mov    $0x10,%ecx
    49dd:	e9 81 fe ff ff       	jmp    4863 <str_uint+0x93>
    49e2:	83 c3 02             	add    $0x2,%ebx
    49e5:	b9 08 00 00 00       	mov    $0x8,%ecx
    49ea:	e9 74 fe ff ff       	jmp    4863 <str_uint+0x93>
    49ef:	83 c3 02             	add    $0x2,%ebx
    49f2:	b9 0a 00 00 00       	mov    $0xa,%ecx
    49f7:	e9 67 fe ff ff       	jmp    4863 <str_uint+0x93>
    49fc:	83 c3 02             	add    $0x2,%ebx
    49ff:	b9 02 00 00 00       	mov    $0x2,%ecx
    4a04:	e9 5a fe ff ff       	jmp    4863 <str_uint+0x93>
    4a09:	8b 5d dc             	mov    -0x24(%ebp),%ebx
    4a0c:	e9 29 fe ff ff       	jmp    483a <str_uint+0x6a>
    4a11:	c7 44 24 08 82 05 00 	movl   $0x582,0x8(%esp)
    4a18:	00 
    4a19:	c7 44 24 04 e6 f1 01 	movl   $0x1f1e6,0x4(%esp)
    4a20:	00 
    4a21:	c7 04 24 0f f2 01 00 	movl   $0x1f20f,(%esp)
    4a28:	e8 73 78 01 00       	call   1c2a0 <assert_abort>
    4a2d:	c7 44 24 08 81 05 00 	movl   $0x581,0x8(%esp)
    4a34:	00 
    4a35:	c7 44 24 04 e6 f1 01 	movl   $0x1f1e6,0x4(%esp)
    4a3c:	00 
    4a3d:	c7 04 24 03 f2 01 00 	movl   $0x1f203,(%esp)
    4a44:	e8 57 78 01 00       	call   1c2a0 <assert_abort>
    4a49:	c7 44 24 08 80 05 00 	movl   $0x580,0x8(%esp)
    4a50:	00 
    4a51:	c7 44 24 04 e6 f1 01 	movl   $0x1f1e6,0x4(%esp)
    4a58:	00 
    4a59:	c7 04 24 f4 f1 01 00 	movl   $0x1f1f4,(%esp)
    4a60:	e8 3b 78 01 00       	call   1c2a0 <assert_abort>
    4a65:	8d 74 26 00          	lea    0x0(%esi,%eiz,1),%esi
    4a69:	8d bc 27 00 00 00 00 	lea    0x0(%edi,%eiz,1),%edi

00004a70 <str_decode>:
    4a70:	55                   	push   %ebp
    4a71:	89 e5                	mov    %esp,%ebp
    4a73:	57                   	push   %edi
    4a74:	56                   	push   %esi
    4a75:	53                   	push   %ebx
    4a76:	83 ec 0c             	sub    $0xc,%esp
    4a79:	8b 45 0c             	mov    0xc(%ebp),%eax
    4a7c:	8b 7d 08             	mov    0x8(%ebp),%edi
    4a7f:	8b 10                	mov    (%eax),%edx
    4a81:	31 c0                	xor    %eax,%eax
    4a83:	8d 4a 01             	lea    0x1(%edx),%ecx
    4a86:	3b 4d 10             	cmp    0x10(%ebp),%ecx
    4a89:	77 0d                	ja     4a98 <str_decode+0x28>
    4a8b:	0f be 04 17          	movsbl (%edi,%edx,1),%eax
    4a8f:	8b 5d 0c             	mov    0xc(%ebp),%ebx
    4a92:	84 c0                	test   %al,%al
    4a94:	89 0b                	mov    %ecx,(%ebx)
    4a96:	78 08                	js     4aa0 <str_decode+0x30>
    4a98:	83 c4 0c             	add    $0xc,%esp
    4a9b:	5b                   	pop    %ebx
    4a9c:	5e                   	pop    %esi
    4a9d:	5f                   	pop    %edi
    4a9e:	5d                   	pop    %ebp
    4a9f:	c3                   	ret    
    4aa0:	be e0 ff ff ff       	mov    $0xffffffe0,%esi
    4aa5:	21 c6                	and    %eax,%esi
    4aa7:	89 f3                	mov    %esi,%ebx
    4aa9:	80 fb c0             	cmp    $0xc0,%bl
    4aac:	74 32                	je     4ae0 <str_decode+0x70>
    4aae:	be f0 ff ff ff       	mov    $0xfffffff0,%esi
    4ab3:	21 c6                	and    %eax,%esi
    4ab5:	89 f3                	mov    %esi,%ebx
    4ab7:	80 fb e0             	cmp    $0xe0,%bl
    4aba:	0f 84 90 00 00 00    	je     4b50 <str_decode+0xe0>
    4ac0:	be f8 ff ff ff       	mov    $0xfffffff8,%esi
    4ac5:	21 c6                	and    %eax,%esi
    4ac7:	89 f3                	mov    %esi,%ebx
    4ac9:	80 fb f0             	cmp    $0xf0,%bl
    4acc:	0f 84 87 00 00 00    	je     4b59 <str_decode+0xe9>
    4ad2:	83 c4 0c             	add    $0xc,%esp
    4ad5:	b8 3f 00 00 00       	mov    $0x3f,%eax
    4ada:	5b                   	pop    %ebx
    4adb:	5e                   	pop    %esi
    4adc:	5f                   	pop    %edi
    4add:	5d                   	pop    %ebp
    4ade:	c3                   	ret    
    4adf:	90                   	nop
    4ae0:	b3 1f                	mov    $0x1f,%bl
    4ae2:	be 01 00 00 00       	mov    $0x1,%esi
    4ae7:	01 f1                	add    %esi,%ecx
    4ae9:	89 4d f0             	mov    %ecx,-0x10(%ebp)
    4aec:	39 4d 10             	cmp    %ecx,0x10(%ebp)
    4aef:	72 e1                	jb     4ad2 <str_decode+0x62>
    4af1:	21 d8                	and    %ebx,%eax
    4af3:	8a 4c 17 01          	mov    0x1(%edi,%edx,1),%cl
    4af7:	8b 5d 0c             	mov    0xc(%ebp),%ebx
    4afa:	be c0 ff ff ff       	mov    $0xffffffc0,%esi
    4aff:	83 c2 02             	add    $0x2,%edx
    4b02:	21 ce                	and    %ecx,%esi
    4b04:	89 13                	mov    %edx,(%ebx)
    4b06:	89 f3                	mov    %esi,%ebx
    4b08:	25 ff 00 00 00       	and    $0xff,%eax
    4b0d:	80 fb 80             	cmp    $0x80,%bl
    4b10:	75 c0                	jne    4ad2 <str_decode+0x62>
    4b12:	8b 5d 0c             	mov    0xc(%ebp),%ebx
    4b15:	89 5d e8             	mov    %ebx,-0x18(%ebp)
    4b18:	eb 1d                	jmp    4b37 <str_decode+0xc7>
    4b1a:	8d b6 00 00 00 00    	lea    0x0(%esi),%esi
    4b20:	8a 0c 17             	mov    (%edi,%edx,1),%cl
    4b23:	8b 5d e8             	mov    -0x18(%ebp),%ebx
    4b26:	be c0 ff ff ff       	mov    $0xffffffc0,%esi
    4b2b:	42                   	inc    %edx
    4b2c:	21 ce                	and    %ecx,%esi
    4b2e:	89 13                	mov    %edx,(%ebx)
    4b30:	89 f3                	mov    %esi,%ebx
    4b32:	80 fb 80             	cmp    $0x80,%bl
    4b35:	75 9b                	jne    4ad2 <str_decode+0x62>
    4b37:	89 c6                	mov    %eax,%esi
    4b39:	89 c8                	mov    %ecx,%eax
    4b3b:	c1 e6 06             	shl    $0x6,%esi
    4b3e:	83 e0 3f             	and    $0x3f,%eax
    4b41:	09 f0                	or     %esi,%eax
    4b43:	39 55 f0             	cmp    %edx,-0x10(%ebp)
    4b46:	75 d8                	jne    4b20 <str_decode+0xb0>
    4b48:	e9 4b ff ff ff       	jmp    4a98 <str_decode+0x28>
    4b4d:	8d 76 00             	lea    0x0(%esi),%esi
    4b50:	b3 0f                	mov    $0xf,%bl
    4b52:	be 02 00 00 00       	mov    $0x2,%esi
    4b57:	eb 8e                	jmp    4ae7 <str_decode+0x77>
    4b59:	b3 07                	mov    $0x7,%bl
    4b5b:	be 03 00 00 00       	mov    $0x3,%esi
    4b60:	eb 85                	jmp    4ae7 <str_decode+0x77>
    4b62:	8d b4 26 00 00 00 00 	lea    0x0(%esi,%eiz,1),%esi
    4b69:	8d bc 27 00 00 00 00 	lea    0x0(%edi,%eiz,1),%edi

00004b70 <str_decode_reverse>:
    4b70:	55                   	push   %ebp
    4b71:	89 e5                	mov    %esp,%ebp
    4b73:	57                   	push   %edi
    4b74:	56                   	push   %esi
    4b75:	53                   	push   %ebx
    4b76:	50                   	push   %eax
    4b77:	31 c0                	xor    %eax,%eax
    4b79:	8b 7d 0c             	mov    0xc(%ebp),%edi
    4b7c:	8b 1f                	mov    (%edi),%ebx
    4b7e:	85 db                	test   %ebx,%ebx
    4b80:	0f 84 24 01 00 00    	je     4caa <str_decode_reverse+0x13a>
    4b86:	8d 73 ff             	lea    -0x1(%ebx),%esi
    4b89:	8b 55 08             	mov    0x8(%ebp),%edx
    4b8c:	89 37                	mov    %esi,(%edi)
    4b8e:	8a 14 32             	mov    (%edx,%esi,1),%dl
    4b91:	88 55 f1             	mov    %dl,-0xf(%ebp)
    4b94:	84 d2                	test   %dl,%dl
    4b96:	0f 89 c4 01 00 00    	jns    4d60 <str_decode_reverse+0x1f0>
    4b9c:	88 d1                	mov    %dl,%cl
    4b9e:	83 e1 e0             	and    $0xffffffe0,%ecx
    4ba1:	88 4d f2             	mov    %cl,-0xe(%ebp)
    4ba4:	80 f9 c0             	cmp    $0xc0,%cl
    4ba7:	0f 84 d8 01 00 00    	je     4d85 <str_decode_reverse+0x215>
    4bad:	88 d1                	mov    %dl,%cl
    4baf:	83 e1 f0             	and    $0xfffffff0,%ecx
    4bb2:	80 f9 e0             	cmp    $0xe0,%cl
    4bb5:	0f 84 f1 01 00 00    	je     4dac <str_decode_reverse+0x23c>
    4bbb:	88 d0                	mov    %dl,%al
    4bbd:	83 e0 f8             	and    $0xfffffff8,%eax
    4bc0:	3c f0                	cmp    $0xf0,%al
    4bc2:	0f 84 ee 00 00 00    	je     4cb6 <str_decode_reverse+0x146>
    4bc8:	88 d1                	mov    %dl,%cl
    4bca:	83 e1 c0             	and    $0xffffffc0,%ecx
    4bcd:	80 f9 80             	cmp    $0x80,%cl
    4bd0:	0f 85 cf 00 00 00    	jne    4ca5 <str_decode_reverse+0x135>
    4bd6:	85 f6                	test   %esi,%esi
    4bd8:	0f 84 c7 00 00 00    	je     4ca5 <str_decode_reverse+0x135>
    4bde:	8d 43 fe             	lea    -0x2(%ebx),%eax
    4be1:	8b 4d 08             	mov    0x8(%ebp),%ecx
    4be4:	89 07                	mov    %eax,(%edi)
    4be6:	8a 14 01             	mov    (%ecx,%eax,1),%dl
    4be9:	88 d1                	mov    %dl,%cl
    4beb:	88 55 f1             	mov    %dl,-0xf(%ebp)
    4bee:	83 e1 e0             	and    $0xffffffe0,%ecx
    4bf1:	88 4d f2             	mov    %cl,-0xe(%ebp)
    4bf4:	80 f9 c0             	cmp    $0xc0,%cl
    4bf7:	0f 84 b3 00 00 00    	je     4cb0 <str_decode_reverse+0x140>
    4bfd:	88 d1                	mov    %dl,%cl
    4bff:	83 e1 f0             	and    $0xfffffff0,%ecx
    4c02:	80 f9 e0             	cmp    $0xe0,%cl
    4c05:	0f 84 65 01 00 00    	je     4d70 <str_decode_reverse+0x200>
    4c0b:	88 d1                	mov    %dl,%cl
    4c0d:	83 e1 f8             	and    $0xfffffff8,%ecx
    4c10:	80 f9 f0             	cmp    $0xf0,%cl
    4c13:	0f 84 57 01 00 00    	je     4d70 <str_decode_reverse+0x200>
    4c19:	83 e2 c0             	and    $0xffffffc0,%edx
    4c1c:	80 fa 80             	cmp    $0x80,%dl
    4c1f:	0f 85 80 00 00 00    	jne    4ca5 <str_decode_reverse+0x135>
    4c25:	85 c0                	test   %eax,%eax
    4c27:	74 7c                	je     4ca5 <str_decode_reverse+0x135>
    4c29:	8d 73 fd             	lea    -0x3(%ebx),%esi
    4c2c:	8b 4d 08             	mov    0x8(%ebp),%ecx
    4c2f:	89 37                	mov    %esi,(%edi)
    4c31:	8a 14 31             	mov    (%ecx,%esi,1),%dl
    4c34:	88 d1                	mov    %dl,%cl
    4c36:	88 55 f1             	mov    %dl,-0xf(%ebp)
    4c39:	83 e1 e0             	and    $0xffffffe0,%ecx
    4c3c:	88 4d f2             	mov    %cl,-0xe(%ebp)
    4c3f:	80 f9 c0             	cmp    $0xc0,%cl
    4c42:	0f 84 36 01 00 00    	je     4d7e <str_decode_reverse+0x20e>
    4c48:	88 d1                	mov    %dl,%cl
    4c4a:	83 e1 f0             	and    $0xfffffff0,%ecx
    4c4d:	80 f9 e0             	cmp    $0xe0,%cl
    4c50:	0f 84 21 01 00 00    	je     4d77 <str_decode_reverse+0x207>
    4c56:	88 d1                	mov    %dl,%cl
    4c58:	83 e1 f8             	and    $0xfffffff8,%ecx
    4c5b:	80 f9 f0             	cmp    $0xf0,%cl
    4c5e:	0f 84 13 01 00 00    	je     4d77 <str_decode_reverse+0x207>
    4c64:	83 e2 c0             	and    $0xffffffc0,%edx
    4c67:	80 fa 80             	cmp    $0x80,%dl
    4c6a:	75 39                	jne    4ca5 <str_decode_reverse+0x135>
    4c6c:	85 f6                	test   %esi,%esi
    4c6e:	74 35                	je     4ca5 <str_decode_reverse+0x135>
    4c70:	83 eb 04             	sub    $0x4,%ebx
    4c73:	8b 45 08             	mov    0x8(%ebp),%eax
    4c76:	89 1f                	mov    %ebx,(%edi)
    4c78:	8a 14 18             	mov    (%eax,%ebx,1),%dl
    4c7b:	88 d1                	mov    %dl,%cl
    4c7d:	88 55 f1             	mov    %dl,-0xf(%ebp)
    4c80:	83 e1 e0             	and    $0xffffffe0,%ecx
    4c83:	88 4d f2             	mov    %cl,-0xe(%ebp)
    4c86:	80 f9 c0             	cmp    $0xc0,%cl
    4c89:	74 25                	je     4cb0 <str_decode_reverse+0x140>
    4c8b:	88 d0                	mov    %dl,%al
    4c8d:	83 e0 f0             	and    $0xfffffff0,%eax
    4c90:	3c e0                	cmp    $0xe0,%al
    4c92:	0f 84 d8 00 00 00    	je     4d70 <str_decode_reverse+0x200>
    4c98:	88 d0                	mov    %dl,%al
    4c9a:	83 e0 f8             	and    $0xfffffff8,%eax
    4c9d:	3c f0                	cmp    $0xf0,%al
    4c9f:	0f 84 cb 00 00 00    	je     4d70 <str_decode_reverse+0x200>
    4ca5:	b8 3f 00 00 00       	mov    $0x3f,%eax
    4caa:	5a                   	pop    %edx
    4cab:	5b                   	pop    %ebx
    4cac:	5e                   	pop    %esi
    4cad:	5f                   	pop    %edi
    4cae:	5d                   	pop    %ebp
    4caf:	c3                   	ret    
    4cb0:	89 f3                	mov    %esi,%ebx
    4cb2:	c6 45 f2 c0          	movb   $0xc0,-0xe(%ebp)
    4cb6:	31 c0                	xor    %eax,%eax
    4cb8:	39 5d 10             	cmp    %ebx,0x10(%ebp)
    4cbb:	72 ed                	jb     4caa <str_decode_reverse+0x13a>
    4cbd:	84 d2                	test   %dl,%dl
    4cbf:	78 69                	js     4d2a <str_decode_reverse+0x1ba>
    4cc1:	bf 7f 00 00 00       	mov    $0x7f,%edi
    4cc6:	31 d2                	xor    %edx,%edx
    4cc8:	8d 34 1a             	lea    (%edx,%ebx,1),%esi
    4ccb:	b8 3f 00 00 00       	mov    $0x3f,%eax
    4cd0:	39 75 10             	cmp    %esi,0x10(%ebp)
    4cd3:	72 d5                	jb     4caa <str_decode_reverse+0x13a>
    4cd5:	8a 4d f1             	mov    -0xf(%ebp),%cl
    4cd8:	31 c0                	xor    %eax,%eax
    4cda:	21 f9                	and    %edi,%ecx
    4cdc:	85 d2                	test   %edx,%edx
    4cde:	88 c8                	mov    %cl,%al
    4ce0:	74 c8                	je     4caa <str_decode_reverse+0x13a>
    4ce2:	8b 4d 08             	mov    0x8(%ebp),%ecx
    4ce5:	8d 73 01             	lea    0x1(%ebx),%esi
    4ce8:	8a 0c 19             	mov    (%ecx,%ebx,1),%cl
    4ceb:	88 4d f3             	mov    %cl,-0xd(%ebp)
    4cee:	83 e1 c0             	and    $0xffffffc0,%ecx
    4cf1:	80 f9 80             	cmp    $0x80,%cl
    4cf4:	75 af                	jne    4ca5 <str_decode_reverse+0x135>
    4cf6:	8b 7d 08             	mov    0x8(%ebp),%edi
    4cf9:	8b 4d 08             	mov    0x8(%ebp),%ecx
    4cfc:	01 fb                	add    %edi,%ebx
    4cfe:	01 ce                	add    %ecx,%esi
    4d00:	01 da                	add    %ebx,%edx
    4d02:	8a 4d f3             	mov    -0xd(%ebp),%cl
    4d05:	eb 0e                	jmp    4d15 <str_decode_reverse+0x1a5>
    4d07:	90                   	nop
    4d08:	8a 0e                	mov    (%esi),%cl
    4d0a:	46                   	inc    %esi
    4d0b:	88 cb                	mov    %cl,%bl
    4d0d:	83 e3 c0             	and    $0xffffffc0,%ebx
    4d10:	80 fb 80             	cmp    $0x80,%bl
    4d13:	75 90                	jne    4ca5 <str_decode_reverse+0x135>
    4d15:	89 c3                	mov    %eax,%ebx
    4d17:	89 c8                	mov    %ecx,%eax
    4d19:	c1 e3 06             	shl    $0x6,%ebx
    4d1c:	83 e0 3f             	and    $0x3f,%eax
    4d1f:	09 d8                	or     %ebx,%eax
    4d21:	39 d6                	cmp    %edx,%esi
    4d23:	75 e3                	jne    4d08 <str_decode_reverse+0x198>
    4d25:	e9 80 ff ff ff       	jmp    4caa <str_decode_reverse+0x13a>
    4d2a:	80 7d f2 c0          	cmpb   $0xc0,-0xe(%ebp)
    4d2e:	74 5e                	je     4d8e <str_decode_reverse+0x21e>
    4d30:	8a 45 f1             	mov    -0xf(%ebp),%al
    4d33:	83 e0 f0             	and    $0xfffffff0,%eax
    4d36:	3c e0                	cmp    $0xe0,%al
    4d38:	74 63                	je     4d9d <str_decode_reverse+0x22d>
    4d3a:	8a 55 f1             	mov    -0xf(%ebp),%dl
    4d3d:	b8 3f 00 00 00       	mov    $0x3f,%eax
    4d42:	83 e2 f8             	and    $0xfffffff8,%edx
    4d45:	80 fa f0             	cmp    $0xf0,%dl
    4d48:	0f 85 5c ff ff ff    	jne    4caa <str_decode_reverse+0x13a>
    4d4e:	bf 07 00 00 00       	mov    $0x7,%edi
    4d53:	ba 03 00 00 00       	mov    $0x3,%edx
    4d58:	e9 6b ff ff ff       	jmp    4cc8 <str_decode_reverse+0x158>
    4d5d:	8d 76 00             	lea    0x0(%esi),%esi
    4d60:	0f be 45 f1          	movsbl -0xf(%ebp),%eax
    4d64:	e9 41 ff ff ff       	jmp    4caa <str_decode_reverse+0x13a>
    4d69:	8d b4 26 00 00 00 00 	lea    0x0(%esi,%eiz,1),%esi
    4d70:	89 f3                	mov    %esi,%ebx
    4d72:	e9 3f ff ff ff       	jmp    4cb6 <str_decode_reverse+0x146>
    4d77:	89 c3                	mov    %eax,%ebx
    4d79:	e9 38 ff ff ff       	jmp    4cb6 <str_decode_reverse+0x146>
    4d7e:	89 c3                	mov    %eax,%ebx
    4d80:	e9 2d ff ff ff       	jmp    4cb2 <str_decode_reverse+0x142>
    4d85:	3b 5d 10             	cmp    0x10(%ebp),%ebx
    4d88:	0f 87 1c ff ff ff    	ja     4caa <str_decode_reverse+0x13a>
    4d8e:	bf 1f 00 00 00       	mov    $0x1f,%edi
    4d93:	ba 01 00 00 00       	mov    $0x1,%edx
    4d98:	e9 2b ff ff ff       	jmp    4cc8 <str_decode_reverse+0x158>
    4d9d:	bf 0f 00 00 00       	mov    $0xf,%edi
    4da2:	ba 02 00 00 00       	mov    $0x2,%edx
    4da7:	e9 1c ff ff ff       	jmp    4cc8 <str_decode_reverse+0x158>
    4dac:	3b 5d 10             	cmp    0x10(%ebp),%ebx
    4daf:	0f 86 7b ff ff ff    	jbe    4d30 <str_decode_reverse+0x1c0>
    4db5:	e9 f0 fe ff ff       	jmp    4caa <str_decode_reverse+0x13a>
    4dba:	8d b6 00 00 00 00    	lea    0x0(%esi),%esi

00004dc0 <chr_encode>:
    4dc0:	55                   	push   %ebp
    4dc1:	89 e5                	mov    %esp,%ebp
    4dc3:	57                   	push   %edi
    4dc4:	56                   	push   %esi
    4dc5:	53                   	push   %ebx
    4dc6:	83 ec 24             	sub    $0x24,%esp
    4dc9:	8b 7d 10             	mov    0x10(%ebp),%edi
    4dcc:	8b 1f                	mov    (%edi),%ebx
    4dce:	3b 5d 14             	cmp    0x14(%ebp),%ebx
    4dd1:	0f 83 c5 00 00 00    	jae    4e9c <chr_encode+0xdc>
    4dd7:	8b 4d 08             	mov    0x8(%ebp),%ecx
    4dda:	b8 f2 ff ff ff       	mov    $0xfffffff2,%eax
    4ddf:	81 f9 ff ff 10 00    	cmp    $0x10ffff,%ecx
    4de5:	77 34                	ja     4e1b <chr_encode+0x5b>
    4de7:	f7 c1 80 ff ff ff    	test   $0xffffff80,%ecx
    4ded:	75 39                	jne    4e28 <chr_encode+0x68>
    4def:	c6 45 d0 00          	movb   $0x0,-0x30(%ebp)
    4df3:	c6 45 e0 7f          	movb   $0x7f,-0x20(%ebp)
    4df7:	c7 45 f0 00 00 00 00 	movl   $0x0,-0x10(%ebp)
    4dfe:	8b 45 e0             	mov    -0x20(%ebp),%eax
    4e01:	8b 55 0c             	mov    0xc(%ebp),%edx
    4e04:	21 c1                	and    %eax,%ecx
    4e06:	8b 45 d0             	mov    -0x30(%ebp),%eax
    4e09:	09 c1                	or     %eax,%ecx
    4e0b:	88 0c 1a             	mov    %cl,(%edx,%ebx,1)
    4e0e:	8b 55 f0             	mov    -0x10(%ebp),%edx
    4e11:	8b 07                	mov    (%edi),%eax
    4e13:	8d 44 02 01          	lea    0x1(%edx,%eax,1),%eax
    4e17:	89 07                	mov    %eax,(%edi)
    4e19:	31 c0                	xor    %eax,%eax
    4e1b:	83 c4 24             	add    $0x24,%esp
    4e1e:	5b                   	pop    %ebx
    4e1f:	5e                   	pop    %esi
    4e20:	5f                   	pop    %edi
    4e21:	5d                   	pop    %ebp
    4e22:	c3                   	ret    
    4e23:	90                   	nop
    4e24:	8d 74 26 00          	lea    0x0(%esi,%eiz,1),%esi
    4e28:	f7 c1 00 f8 ff ff    	test   $0xfffff800,%ecx
    4e2e:	74 58                	je     4e88 <chr_encode+0xc8>
    4e30:	89 c8                	mov    %ecx,%eax
    4e32:	25 00 00 ff ff       	and    $0xffff0000,%eax
    4e37:	83 f8 01             	cmp    $0x1,%eax
    4e3a:	19 d2                	sbb    %edx,%edx
    4e3c:	83 e2 f0             	and    $0xfffffff0,%edx
    4e3f:	83 ea 10             	sub    $0x10,%edx
    4e42:	83 f8 01             	cmp    $0x1,%eax
    4e45:	88 55 d0             	mov    %dl,-0x30(%ebp)
    4e48:	19 d2                	sbb    %edx,%edx
    4e4a:	83 e2 08             	and    $0x8,%edx
    4e4d:	83 c2 07             	add    $0x7,%edx
    4e50:	83 f8 01             	cmp    $0x1,%eax
    4e53:	19 c0                	sbb    %eax,%eax
    4e55:	88 55 e0             	mov    %dl,-0x20(%ebp)
    4e58:	83 c0 03             	add    $0x3,%eax
    4e5b:	89 45 f0             	mov    %eax,-0x10(%ebp)
    4e5e:	01 d8                	add    %ebx,%eax
    4e60:	39 45 14             	cmp    %eax,0x14(%ebp)
    4e63:	76 37                	jbe    4e9c <chr_encode+0xdc>
    4e65:	8b 45 f0             	mov    -0x10(%ebp),%eax
    4e68:	89 ca                	mov    %ecx,%edx
    4e6a:	8b 75 0c             	mov    0xc(%ebp),%esi
    4e6d:	01 c6                	add    %eax,%esi
    4e6f:	83 e2 3f             	and    $0x3f,%edx
    4e72:	c1 e9 06             	shr    $0x6,%ecx
    4e75:	80 ca 80             	or     $0x80,%dl
    4e78:	88 14 1e             	mov    %dl,(%esi,%ebx,1)
    4e7b:	48                   	dec    %eax
    4e7c:	8b 1f                	mov    (%edi),%ebx
    4e7e:	75 e8                	jne    4e68 <chr_encode+0xa8>
    4e80:	e9 79 ff ff ff       	jmp    4dfe <chr_encode+0x3e>
    4e85:	8d 76 00             	lea    0x0(%esi),%esi
    4e88:	c7 45 f0 01 00 00 00 	movl   $0x1,-0x10(%ebp)
    4e8f:	c6 45 d0 c0          	movb   $0xc0,-0x30(%ebp)
    4e93:	c6 45 e0 1f          	movb   $0x1f,-0x20(%ebp)
    4e97:	8b 45 f0             	mov    -0x10(%ebp),%eax
    4e9a:	eb c2                	jmp    4e5e <chr_encode+0x9e>
    4e9c:	b8 f0 ff ff ff       	mov    $0xfffffff0,%eax
    4ea1:	e9 75 ff ff ff       	jmp    4e1b <chr_encode+0x5b>
    4ea6:	8d 76 00             	lea    0x0(%esi),%esi
    4ea9:	8d bc 27 00 00 00 00 	lea    0x0(%edi,%eiz,1),%edi

00004eb0 <str_size>:
    4eb0:	55                   	push   %ebp
    4eb1:	31 c0                	xor    %eax,%eax
    4eb3:	89 e5                	mov    %esp,%ebp
    4eb5:	8b 55 08             	mov    0x8(%ebp),%edx
    4eb8:	80 3a 00             	cmpb   $0x0,(%edx)
    4ebb:	74 0a                	je     4ec7 <str_size+0x17>
    4ebd:	8d 76 00             	lea    0x0(%esi),%esi
    4ec0:	40                   	inc    %eax
    4ec1:	80 3c 02 00          	cmpb   $0x0,(%edx,%eax,1)
    4ec5:	75 f9                	jne    4ec0 <str_size+0x10>
    4ec7:	5d                   	pop    %ebp
    4ec8:	c3                   	ret    
    4ec9:	8d b4 26 00 00 00 00 	lea    0x0(%esi,%eiz,1),%esi

00004ed0 <wstr_size>:
    4ed0:	55                   	push   %ebp
    4ed1:	31 c0                	xor    %eax,%eax
    4ed3:	89 e5                	mov    %esp,%ebp
    4ed5:	8b 55 08             	mov    0x8(%ebp),%edx
    4ed8:	8b 0a                	mov    (%edx),%ecx
    4eda:	85 c9                	test   %ecx,%ecx
    4edc:	74 0d                	je     4eeb <wstr_size+0x1b>
    4ede:	66 90                	xchg   %ax,%ax
    4ee0:	40                   	inc    %eax
    4ee1:	8b 0c 82             	mov    (%edx,%eax,4),%ecx
    4ee4:	85 c9                	test   %ecx,%ecx
    4ee6:	75 f8                	jne    4ee0 <wstr_size+0x10>
    4ee8:	c1 e0 02             	shl    $0x2,%eax
    4eeb:	5d                   	pop    %ebp
    4eec:	c3                   	ret    
    4eed:	8d 76 00             	lea    0x0(%esi),%esi

00004ef0 <str_lsize>:
    4ef0:	55                   	push   %ebp
    4ef1:	31 c0                	xor    %eax,%eax
    4ef3:	89 e5                	mov    %esp,%ebp
    4ef5:	57                   	push   %edi
    4ef6:	56                   	push   %esi
    4ef7:	53                   	push   %ebx
    4ef8:	83 ec 0c             	sub    $0xc,%esp
    4efb:	8b 7d 0c             	mov    0xc(%ebp),%edi
    4efe:	8b 5d 08             	mov    0x8(%ebp),%ebx
    4f01:	85 ff                	test   %edi,%edi
    4f03:	74 5b                	je     4f60 <str_lsize+0x70>
    4f05:	c7 45 f0 00 00 00 00 	movl   $0x0,-0x10(%ebp)
    4f0c:	eb 17                	jmp    4f25 <str_lsize+0x35>
    4f0e:	66 90                	xchg   %ax,%ax
    4f10:	89 f8                	mov    %edi,%eax
    4f12:	85 d2                	test   %edx,%edx
    4f14:	74 4a                	je     4f60 <str_lsize+0x70>
    4f16:	8b 75 f0             	mov    -0x10(%ebp),%esi
    4f19:	8b 55 0c             	mov    0xc(%ebp),%edx
    4f1c:	46                   	inc    %esi
    4f1d:	89 75 f0             	mov    %esi,-0x10(%ebp)
    4f20:	39 55 f0             	cmp    %edx,-0x10(%ebp)
    4f23:	74 3b                	je     4f60 <str_lsize+0x70>
    4f25:	0f be 14 03          	movsbl (%ebx,%eax,1),%edx
    4f29:	8d 78 01             	lea    0x1(%eax),%edi
    4f2c:	84 d2                	test   %dl,%dl
    4f2e:	79 e0                	jns    4f10 <str_lsize+0x20>
    4f30:	88 d1                	mov    %dl,%cl
    4f32:	83 e1 e0             	and    $0xffffffe0,%ecx
    4f35:	80 f9 c0             	cmp    $0xc0,%cl
    4f38:	74 2e                	je     4f68 <str_lsize+0x78>
    4f3a:	88 d1                	mov    %dl,%cl
    4f3c:	83 e1 f0             	and    $0xfffffff0,%ecx
    4f3f:	80 f9 e0             	cmp    $0xe0,%cl
    4f42:	74 7d                	je     4fc1 <str_lsize+0xd1>
    4f44:	88 d1                	mov    %dl,%cl
    4f46:	83 e1 f8             	and    $0xfffffff8,%ecx
    4f49:	80 f9 f0             	cmp    $0xf0,%cl
    4f4c:	74 7c                	je     4fca <str_lsize+0xda>
    4f4e:	8b 75 f0             	mov    -0x10(%ebp),%esi
    4f51:	8b 55 0c             	mov    0xc(%ebp),%edx
    4f54:	46                   	inc    %esi
    4f55:	89 f8                	mov    %edi,%eax
    4f57:	89 75 f0             	mov    %esi,-0x10(%ebp)
    4f5a:	39 55 f0             	cmp    %edx,-0x10(%ebp)
    4f5d:	75 c6                	jne    4f25 <str_lsize+0x35>
    4f5f:	90                   	nop
    4f60:	83 c4 0c             	add    $0xc,%esp
    4f63:	5b                   	pop    %ebx
    4f64:	5e                   	pop    %esi
    4f65:	5f                   	pop    %edi
    4f66:	5d                   	pop    %ebp
    4f67:	c3                   	ret    
    4f68:	b1 1f                	mov    $0x1f,%cl
    4f6a:	be 01 00 00 00       	mov    $0x1,%esi
    4f6f:	21 ca                	and    %ecx,%edx
    4f71:	8a 0c 3b             	mov    (%ebx,%edi,1),%cl
    4f74:	88 4d ee             	mov    %cl,-0x12(%ebp)
    4f77:	83 e1 c0             	and    $0xffffffc0,%ecx
    4f7a:	81 e2 ff 00 00 00    	and    $0xff,%edx
    4f80:	83 c0 02             	add    $0x2,%eax
    4f83:	80 f9 80             	cmp    $0x80,%cl
    4f86:	75 8e                	jne    4f16 <str_lsize+0x26>
    4f88:	01 f7                	add    %esi,%edi
    4f8a:	8a 4d ee             	mov    -0x12(%ebp),%cl
    4f8d:	89 5d e8             	mov    %ebx,-0x18(%ebp)
    4f90:	89 d6                	mov    %edx,%esi
    4f92:	89 ca                	mov    %ecx,%edx
    4f94:	c1 e6 06             	shl    $0x6,%esi
    4f97:	83 e2 3f             	and    $0x3f,%edx
    4f9a:	09 f2                	or     %esi,%edx
    4f9c:	8b 5d e8             	mov    -0x18(%ebp),%ebx
    4f9f:	39 f8                	cmp    %edi,%eax
    4fa1:	0f 84 6b ff ff ff    	je     4f12 <str_lsize+0x22>
    4fa7:	8a 0c 03             	mov    (%ebx,%eax,1),%cl
    4faa:	be c0 ff ff ff       	mov    $0xffffffc0,%esi
    4faf:	21 ce                	and    %ecx,%esi
    4fb1:	40                   	inc    %eax
    4fb2:	89 f3                	mov    %esi,%ebx
    4fb4:	80 fb 80             	cmp    $0x80,%bl
    4fb7:	74 d7                	je     4f90 <str_lsize+0xa0>
    4fb9:	8b 5d e8             	mov    -0x18(%ebp),%ebx
    4fbc:	e9 55 ff ff ff       	jmp    4f16 <str_lsize+0x26>
    4fc1:	b1 0f                	mov    $0xf,%cl
    4fc3:	be 02 00 00 00       	mov    $0x2,%esi
    4fc8:	eb a5                	jmp    4f6f <str_lsize+0x7f>
    4fca:	b1 07                	mov    $0x7,%cl
    4fcc:	be 03 00 00 00       	mov    $0x3,%esi
    4fd1:	eb 9c                	jmp    4f6f <str_lsize+0x7f>
    4fd3:	8d b6 00 00 00 00    	lea    0x0(%esi),%esi
    4fd9:	8d bc 27 00 00 00 00 	lea    0x0(%edi,%eiz,1),%edi

00004fe0 <str_nsize>:
    4fe0:	55                   	push   %ebp
    4fe1:	31 c0                	xor    %eax,%eax
    4fe3:	89 e5                	mov    %esp,%ebp
    4fe5:	8b 55 08             	mov    0x8(%ebp),%edx
    4fe8:	8b 4d 0c             	mov    0xc(%ebp),%ecx
    4feb:	80 3a 00             	cmpb   $0x0,(%edx)
    4fee:	74 13                	je     5003 <str_nsize+0x23>
    4ff0:	85 c9                	test   %ecx,%ecx
    4ff2:	75 08                	jne    4ffc <str_nsize+0x1c>
    4ff4:	eb 0d                	jmp    5003 <str_nsize+0x23>
    4ff6:	66 90                	xchg   %ax,%ax
    4ff8:	39 c8                	cmp    %ecx,%eax
    4ffa:	74 07                	je     5003 <str_nsize+0x23>
    4ffc:	40                   	inc    %eax
    4ffd:	80 3c 02 00          	cmpb   $0x0,(%edx,%eax,1)
    5001:	75 f5                	jne    4ff8 <str_nsize+0x18>
    5003:	5d                   	pop    %ebp
    5004:	c3                   	ret    
    5005:	8d 74 26 00          	lea    0x0(%esi,%eiz,1),%esi
    5009:	8d bc 27 00 00 00 00 	lea    0x0(%edi,%eiz,1),%edi

00005010 <wstr_nsize>:
    5010:	55                   	push   %ebp
    5011:	89 e5                	mov    %esp,%ebp
    5013:	53                   	push   %ebx
    5014:	8b 5d 0c             	mov    0xc(%ebp),%ebx
    5017:	8b 4d 08             	mov    0x8(%ebp),%ecx
    501a:	83 e3 fc             	and    $0xfffffffc,%ebx
    501d:	74 26                	je     5045 <wstr_nsize+0x35>
    501f:	8b 01                	mov    (%ecx),%eax
    5021:	85 c0                	test   %eax,%eax
    5023:	74 20                	je     5045 <wstr_nsize+0x35>
    5025:	31 d2                	xor    %edx,%edx
    5027:	eb 0d                	jmp    5036 <wstr_nsize+0x26>
    5029:	8d b4 26 00 00 00 00 	lea    0x0(%esi,%eiz,1),%esi
    5030:	83 3c 91 00          	cmpl   $0x0,(%ecx,%edx,4)
    5034:	74 0c                	je     5042 <wstr_nsize+0x32>
    5036:	42                   	inc    %edx
    5037:	8d 04 95 00 00 00 00 	lea    0x0(,%edx,4),%eax
    503e:	39 c3                	cmp    %eax,%ebx
    5040:	77 ee                	ja     5030 <wstr_nsize+0x20>
    5042:	5b                   	pop    %ebx
    5043:	5d                   	pop    %ebp
    5044:	c3                   	ret    
    5045:	31 c0                	xor    %eax,%eax
    5047:	eb f9                	jmp    5042 <wstr_nsize+0x32>
    5049:	8d b4 26 00 00 00 00 	lea    0x0(%esi,%eiz,1),%esi

00005050 <wstr_lsize>:
    5050:	55                   	push   %ebp
    5051:	89 e5                	mov    %esp,%ebp
    5053:	53                   	push   %ebx
    5054:	8b 5d 0c             	mov    0xc(%ebp),%ebx
    5057:	8b 4d 08             	mov    0x8(%ebp),%ecx
    505a:	c1 e3 02             	shl    $0x2,%ebx
    505d:	74 26                	je     5085 <wstr_lsize+0x35>
    505f:	8b 01                	mov    (%ecx),%eax
    5061:	85 c0                	test   %eax,%eax
    5063:	74 20                	je     5085 <wstr_lsize+0x35>
    5065:	31 d2                	xor    %edx,%edx
    5067:	eb 0d                	jmp    5076 <wstr_lsize+0x26>
    5069:	8d b4 26 00 00 00 00 	lea    0x0(%esi,%eiz,1),%esi
    5070:	83 3c 91 00          	cmpl   $0x0,(%ecx,%edx,4)
    5074:	74 0c                	je     5082 <wstr_lsize+0x32>
    5076:	42                   	inc    %edx
    5077:	8d 04 95 00 00 00 00 	lea    0x0(,%edx,4),%eax
    507e:	39 c3                	cmp    %eax,%ebx
    5080:	77 ee                	ja     5070 <wstr_lsize+0x20>
    5082:	5b                   	pop    %ebx
    5083:	5d                   	pop    %ebp
    5084:	c3                   	ret    
    5085:	31 c0                	xor    %eax,%eax
    5087:	eb f9                	jmp    5082 <wstr_lsize+0x32>
    5089:	8d b4 26 00 00 00 00 	lea    0x0(%esi,%eiz,1),%esi

00005090 <str_length>:
    5090:	55                   	push   %ebp
    5091:	89 e5                	mov    %esp,%ebp
    5093:	57                   	push   %edi
    5094:	56                   	push   %esi
    5095:	53                   	push   %ebx
    5096:	83 ec 0c             	sub    $0xc,%esp
    5099:	31 ff                	xor    %edi,%edi
    509b:	8b 5d 08             	mov    0x8(%ebp),%ebx
    509e:	c7 45 f0 00 00 00 00 	movl   $0x0,-0x10(%ebp)
    50a5:	eb 0e                	jmp    50b5 <str_length+0x25>
    50a7:	90                   	nop
    50a8:	85 c0                	test   %eax,%eax
    50aa:	74 3b                	je     50e7 <str_length+0x57>
    50ac:	89 d7                	mov    %edx,%edi
    50ae:	8b 55 f0             	mov    -0x10(%ebp),%edx
    50b1:	42                   	inc    %edx
    50b2:	89 55 f0             	mov    %edx,-0x10(%ebp)
    50b5:	0f be 04 3b          	movsbl (%ebx,%edi,1),%eax
    50b9:	8d 57 01             	lea    0x1(%edi),%edx
    50bc:	84 c0                	test   %al,%al
    50be:	79 e8                	jns    50a8 <str_length+0x18>
    50c0:	88 c1                	mov    %al,%cl
    50c2:	83 e1 e0             	and    $0xffffffe0,%ecx
    50c5:	80 f9 c0             	cmp    $0xc0,%cl
    50c8:	74 28                	je     50f2 <str_length+0x62>
    50ca:	88 c1                	mov    %al,%cl
    50cc:	83 e1 f0             	and    $0xfffffff0,%ecx
    50cf:	80 f9 e0             	cmp    $0xe0,%cl
    50d2:	74 7d                	je     5151 <str_length+0xc1>
    50d4:	88 c1                	mov    %al,%cl
    50d6:	83 e1 f8             	and    $0xfffffff8,%ecx
    50d9:	80 f9 f0             	cmp    $0xf0,%cl
    50dc:	75 ce                	jne    50ac <str_length+0x1c>
    50de:	b1 07                	mov    $0x7,%cl
    50e0:	be 03 00 00 00       	mov    $0x3,%esi
    50e5:	eb 12                	jmp    50f9 <str_length+0x69>
    50e7:	8b 45 f0             	mov    -0x10(%ebp),%eax
    50ea:	83 c4 0c             	add    $0xc,%esp
    50ed:	5b                   	pop    %ebx
    50ee:	5e                   	pop    %esi
    50ef:	5f                   	pop    %edi
    50f0:	5d                   	pop    %ebp
    50f1:	c3                   	ret    
    50f2:	b1 1f                	mov    $0x1f,%cl
    50f4:	be 01 00 00 00       	mov    $0x1,%esi
    50f9:	21 c8                	and    %ecx,%eax
    50fb:	8a 0c 13             	mov    (%ebx,%edx,1),%cl
    50fe:	83 c7 02             	add    $0x2,%edi
    5101:	88 4d eb             	mov    %cl,-0x15(%ebp)
    5104:	83 e1 c0             	and    $0xffffffc0,%ecx
    5107:	25 ff 00 00 00       	and    $0xff,%eax
    510c:	89 7d ec             	mov    %edi,-0x14(%ebp)
    510f:	80 f9 80             	cmp    $0x80,%cl
    5112:	75 46                	jne    515a <str_length+0xca>
    5114:	8d 3c 32             	lea    (%edx,%esi,1),%edi
    5117:	8a 4d eb             	mov    -0x15(%ebp),%cl
    511a:	8b 55 ec             	mov    -0x14(%ebp),%edx
    511d:	89 5d ec             	mov    %ebx,-0x14(%ebp)
    5120:	89 c6                	mov    %eax,%esi
    5122:	89 c8                	mov    %ecx,%eax
    5124:	c1 e6 06             	shl    $0x6,%esi
    5127:	83 e0 3f             	and    $0x3f,%eax
    512a:	09 f0                	or     %esi,%eax
    512c:	8b 5d ec             	mov    -0x14(%ebp),%ebx
    512f:	39 fa                	cmp    %edi,%edx
    5131:	0f 84 71 ff ff ff    	je     50a8 <str_length+0x18>
    5137:	8a 0c 13             	mov    (%ebx,%edx,1),%cl
    513a:	be c0 ff ff ff       	mov    $0xffffffc0,%esi
    513f:	21 ce                	and    %ecx,%esi
    5141:	42                   	inc    %edx
    5142:	89 f3                	mov    %esi,%ebx
    5144:	80 fb 80             	cmp    $0x80,%bl
    5147:	74 d7                	je     5120 <str_length+0x90>
    5149:	8b 5d ec             	mov    -0x14(%ebp),%ebx
    514c:	e9 5b ff ff ff       	jmp    50ac <str_length+0x1c>
    5151:	b1 0f                	mov    $0xf,%cl
    5153:	be 02 00 00 00       	mov    $0x2,%esi
    5158:	eb 9f                	jmp    50f9 <str_length+0x69>
    515a:	89 fa                	mov    %edi,%edx
    515c:	e9 4b ff ff ff       	jmp    50ac <str_length+0x1c>
    5161:	eb 0d                	jmp    5170 <wstr_length>
    5163:	90                   	nop
    5164:	90                   	nop
    5165:	90                   	nop
    5166:	90                   	nop
    5167:	90                   	nop
    5168:	90                   	nop
    5169:	90                   	nop
    516a:	90                   	nop
    516b:	90                   	nop
    516c:	90                   	nop
    516d:	90                   	nop
    516e:	90                   	nop
    516f:	90                   	nop

00005170 <wstr_length>:
    5170:	55                   	push   %ebp
    5171:	31 c0                	xor    %eax,%eax
    5173:	89 e5                	mov    %esp,%ebp
    5175:	8b 55 08             	mov    0x8(%ebp),%edx
    5178:	8b 0a                	mov    (%edx),%ecx
    517a:	85 c9                	test   %ecx,%ecx
    517c:	74 0a                	je     5188 <wstr_length+0x18>
    517e:	66 90                	xchg   %ax,%ax
    5180:	40                   	inc    %eax
    5181:	8b 0c 82             	mov    (%edx,%eax,4),%ecx
    5184:	85 c9                	test   %ecx,%ecx
    5186:	75 f8                	jne    5180 <wstr_length+0x10>
    5188:	5d                   	pop    %ebp
    5189:	c3                   	ret    
    518a:	8d b6 00 00 00 00    	lea    0x0(%esi),%esi

00005190 <str_nlength>:
    5190:	55                   	push   %ebp
    5191:	89 e5                	mov    %esp,%ebp
    5193:	57                   	push   %edi
    5194:	56                   	push   %esi
    5195:	53                   	push   %ebx
    5196:	57                   	push   %edi
    5197:	c7 45 f0 00 00 00 00 	movl   $0x0,-0x10(%ebp)
    519e:	8b 45 0c             	mov    0xc(%ebp),%eax
    51a1:	8b 7d 08             	mov    0x8(%ebp),%edi
    51a4:	85 c0                	test   %eax,%eax
    51a6:	74 2c                	je     51d4 <str_nlength+0x44>
    51a8:	bb 01 00 00 00       	mov    $0x1,%ebx
    51ad:	31 c0                	xor    %eax,%eax
    51af:	90                   	nop
    51b0:	8a 04 07             	mov    (%edi,%eax,1),%al
    51b3:	84 c0                	test   %al,%al
    51b5:	78 79                	js     5230 <str_nlength+0xa0>
    51b7:	b2 7f                	mov    $0x7f,%dl
    51b9:	31 c9                	xor    %ecx,%ecx
    51bb:	8d 34 19             	lea    (%ecx,%ebx,1),%esi
    51be:	39 75 0c             	cmp    %esi,0xc(%ebp)
    51c1:	73 1d                	jae    51e0 <str_nlength+0x50>
    51c3:	89 d8                	mov    %ebx,%eax
    51c5:	8b 75 f0             	mov    -0x10(%ebp),%esi
    51c8:	8d 58 01             	lea    0x1(%eax),%ebx
    51cb:	46                   	inc    %esi
    51cc:	39 5d 0c             	cmp    %ebx,0xc(%ebp)
    51cf:	89 75 f0             	mov    %esi,-0x10(%ebp)
    51d2:	73 dc                	jae    51b0 <str_nlength+0x20>
    51d4:	8b 45 f0             	mov    -0x10(%ebp),%eax
    51d7:	5b                   	pop    %ebx
    51d8:	5b                   	pop    %ebx
    51d9:	5e                   	pop    %esi
    51da:	5f                   	pop    %edi
    51db:	5d                   	pop    %ebp
    51dc:	c3                   	ret    
    51dd:	8d 76 00             	lea    0x0(%esi),%esi
    51e0:	21 c2                	and    %eax,%edx
    51e2:	81 e2 ff 00 00 00    	and    $0xff,%edx
    51e8:	85 c9                	test   %ecx,%ecx
    51ea:	0f 84 94 00 00 00    	je     5284 <str_nlength+0xf4>
    51f0:	8a 0c 1f             	mov    (%edi,%ebx,1),%cl
    51f3:	8d 43 01             	lea    0x1(%ebx),%eax
    51f6:	88 cb                	mov    %cl,%bl
    51f8:	83 e3 c0             	and    $0xffffffc0,%ebx
    51fb:	80 fb 80             	cmp    $0x80,%bl
    51fe:	74 16                	je     5216 <str_nlength+0x86>
    5200:	eb 5e                	jmp    5260 <str_nlength+0xd0>
    5202:	8d b6 00 00 00 00    	lea    0x0(%esi),%esi
    5208:	8a 0c 07             	mov    (%edi,%eax,1),%cl
    520b:	40                   	inc    %eax
    520c:	88 cb                	mov    %cl,%bl
    520e:	83 e3 c0             	and    $0xffffffc0,%ebx
    5211:	80 fb 80             	cmp    $0x80,%bl
    5214:	75 4a                	jne    5260 <str_nlength+0xd0>
    5216:	89 d3                	mov    %edx,%ebx
    5218:	89 ca                	mov    %ecx,%edx
    521a:	c1 e3 06             	shl    $0x6,%ebx
    521d:	83 e2 3f             	and    $0x3f,%edx
    5220:	09 da                	or     %ebx,%edx
    5222:	39 c6                	cmp    %eax,%esi
    5224:	75 e2                	jne    5208 <str_nlength+0x78>
    5226:	85 d2                	test   %edx,%edx
    5228:	75 9b                	jne    51c5 <str_nlength+0x35>
    522a:	eb a8                	jmp    51d4 <str_nlength+0x44>
    522c:	8d 74 26 00          	lea    0x0(%esi,%eiz,1),%esi
    5230:	88 c2                	mov    %al,%dl
    5232:	83 e2 e0             	and    $0xffffffe0,%edx
    5235:	80 fa c0             	cmp    $0xc0,%dl
    5238:	74 2e                	je     5268 <str_nlength+0xd8>
    523a:	88 c2                	mov    %al,%dl
    523c:	83 e2 f0             	and    $0xfffffff0,%edx
    523f:	80 fa e0             	cmp    $0xe0,%dl
    5242:	74 34                	je     5278 <str_nlength+0xe8>
    5244:	88 c2                	mov    %al,%dl
    5246:	83 e2 f8             	and    $0xfffffff8,%edx
    5249:	80 fa f0             	cmp    $0xf0,%dl
    524c:	0f 85 71 ff ff ff    	jne    51c3 <str_nlength+0x33>
    5252:	b2 07                	mov    $0x7,%dl
    5254:	b9 03 00 00 00       	mov    $0x3,%ecx
    5259:	e9 5d ff ff ff       	jmp    51bb <str_nlength+0x2b>
    525e:	66 90                	xchg   %ax,%ax
    5260:	89 c3                	mov    %eax,%ebx
    5262:	e9 5c ff ff ff       	jmp    51c3 <str_nlength+0x33>
    5267:	90                   	nop
    5268:	b2 1f                	mov    $0x1f,%dl
    526a:	b9 01 00 00 00       	mov    $0x1,%ecx
    526f:	e9 47 ff ff ff       	jmp    51bb <str_nlength+0x2b>
    5274:	8d 74 26 00          	lea    0x0(%esi,%eiz,1),%esi
    5278:	b2 0f                	mov    $0xf,%dl
    527a:	b9 02 00 00 00       	mov    $0x2,%ecx
    527f:	e9 37 ff ff ff       	jmp    51bb <str_nlength+0x2b>
    5284:	89 d8                	mov    %ebx,%eax
    5286:	eb 9e                	jmp    5226 <str_nlength+0x96>
    5288:	90                   	nop
    5289:	8d b4 26 00 00 00 00 	lea    0x0(%esi,%eiz,1),%esi

00005290 <wstr_nlength>:
    5290:	55                   	push   %ebp
    5291:	31 c0                	xor    %eax,%eax
    5293:	89 e5                	mov    %esp,%ebp
    5295:	53                   	push   %ebx
    5296:	8b 5d 0c             	mov    0xc(%ebp),%ebx
    5299:	8b 4d 08             	mov    0x8(%ebp),%ecx
    529c:	83 e3 fc             	and    $0xfffffffc,%ebx
    529f:	74 22                	je     52c3 <wstr_nlength+0x33>
    52a1:	8b 11                	mov    (%ecx),%edx
    52a3:	85 d2                	test   %edx,%edx
    52a5:	75 10                	jne    52b7 <wstr_nlength+0x27>
    52a7:	eb 1a                	jmp    52c3 <wstr_nlength+0x33>
    52a9:	8d b4 26 00 00 00 00 	lea    0x0(%esi,%eiz,1),%esi
    52b0:	8b 14 81             	mov    (%ecx,%eax,4),%edx
    52b3:	85 d2                	test   %edx,%edx
    52b5:	74 0c                	je     52c3 <wstr_nlength+0x33>
    52b7:	40                   	inc    %eax
    52b8:	8d 14 85 00 00 00 00 	lea    0x0(,%eax,4),%edx
    52bf:	39 da                	cmp    %ebx,%edx
    52c1:	72 ed                	jb     52b0 <wstr_nlength+0x20>
    52c3:	5b                   	pop    %ebx
    52c4:	5d                   	pop    %ebp
    52c5:	c3                   	ret    
    52c6:	8d 76 00             	lea    0x0(%esi),%esi
    52c9:	8d bc 27 00 00 00 00 	lea    0x0(%edi,%eiz,1),%edi

000052d0 <chr_width>:
    52d0:	55                   	push   %ebp
    52d1:	b8 01 00 00 00       	mov    $0x1,%eax
    52d6:	89 e5                	mov    %esp,%ebp
    52d8:	5d                   	pop    %ebp
    52d9:	c3                   	ret    
    52da:	8d b6 00 00 00 00    	lea    0x0(%esi),%esi

000052e0 <str_width>:
    52e0:	55                   	push   %ebp
    52e1:	89 e5                	mov    %esp,%ebp
    52e3:	57                   	push   %edi
    52e4:	56                   	push   %esi
    52e5:	53                   	push   %ebx
    52e6:	83 ec 0c             	sub    $0xc,%esp
    52e9:	31 ff                	xor    %edi,%edi
    52eb:	8b 5d 08             	mov    0x8(%ebp),%ebx
    52ee:	c7 45 f0 00 00 00 00 	movl   $0x0,-0x10(%ebp)
    52f5:	eb 0e                	jmp    5305 <str_width+0x25>
    52f7:	90                   	nop
    52f8:	85 c0                	test   %eax,%eax
    52fa:	74 3b                	je     5337 <str_width+0x57>
    52fc:	8b 4d f0             	mov    -0x10(%ebp),%ecx
    52ff:	89 d7                	mov    %edx,%edi
    5301:	41                   	inc    %ecx
    5302:	89 4d f0             	mov    %ecx,-0x10(%ebp)
    5305:	0f be 04 3b          	movsbl (%ebx,%edi,1),%eax
    5309:	8d 57 01             	lea    0x1(%edi),%edx
    530c:	84 c0                	test   %al,%al
    530e:	79 e8                	jns    52f8 <str_width+0x18>
    5310:	88 c1                	mov    %al,%cl
    5312:	83 e1 e0             	and    $0xffffffe0,%ecx
    5315:	80 f9 c0             	cmp    $0xc0,%cl
    5318:	74 28                	je     5342 <str_width+0x62>
    531a:	88 c1                	mov    %al,%cl
    531c:	83 e1 f0             	and    $0xfffffff0,%ecx
    531f:	80 f9 e0             	cmp    $0xe0,%cl
    5322:	74 7d                	je     53a1 <str_width+0xc1>
    5324:	88 c1                	mov    %al,%cl
    5326:	83 e1 f8             	and    $0xfffffff8,%ecx
    5329:	80 f9 f0             	cmp    $0xf0,%cl
    532c:	75 ce                	jne    52fc <str_width+0x1c>
    532e:	b1 07                	mov    $0x7,%cl
    5330:	be 03 00 00 00       	mov    $0x3,%esi
    5335:	eb 12                	jmp    5349 <str_width+0x69>
    5337:	8b 45 f0             	mov    -0x10(%ebp),%eax
    533a:	83 c4 0c             	add    $0xc,%esp
    533d:	5b                   	pop    %ebx
    533e:	5e                   	pop    %esi
    533f:	5f                   	pop    %edi
    5340:	5d                   	pop    %ebp
    5341:	c3                   	ret    
    5342:	b1 1f                	mov    $0x1f,%cl
    5344:	be 01 00 00 00       	mov    $0x1,%esi
    5349:	21 c8                	and    %ecx,%eax
    534b:	8a 0c 13             	mov    (%ebx,%edx,1),%cl
    534e:	83 c7 02             	add    $0x2,%edi
    5351:	88 4d eb             	mov    %cl,-0x15(%ebp)
    5354:	83 e1 c0             	and    $0xffffffc0,%ecx
    5357:	25 ff 00 00 00       	and    $0xff,%eax
    535c:	89 7d ec             	mov    %edi,-0x14(%ebp)
    535f:	80 f9 80             	cmp    $0x80,%cl
    5362:	75 46                	jne    53aa <str_width+0xca>
    5364:	8d 3c 32             	lea    (%edx,%esi,1),%edi
    5367:	8a 4d eb             	mov    -0x15(%ebp),%cl
    536a:	8b 55 ec             	mov    -0x14(%ebp),%edx
    536d:	89 5d ec             	mov    %ebx,-0x14(%ebp)
    5370:	89 c6                	mov    %eax,%esi
    5372:	89 c8                	mov    %ecx,%eax
    5374:	c1 e6 06             	shl    $0x6,%esi
    5377:	83 e0 3f             	and    $0x3f,%eax
    537a:	09 f0                	or     %esi,%eax
    537c:	8b 5d ec             	mov    -0x14(%ebp),%ebx
    537f:	39 fa                	cmp    %edi,%edx
    5381:	0f 84 71 ff ff ff    	je     52f8 <str_width+0x18>
    5387:	8a 0c 13             	mov    (%ebx,%edx,1),%cl
    538a:	be c0 ff ff ff       	mov    $0xffffffc0,%esi
    538f:	21 ce                	and    %ecx,%esi
    5391:	42                   	inc    %edx
    5392:	89 f3                	mov    %esi,%ebx
    5394:	80 fb 80             	cmp    $0x80,%bl
    5397:	74 d7                	je     5370 <str_width+0x90>
    5399:	8b 5d ec             	mov    -0x14(%ebp),%ebx
    539c:	e9 5b ff ff ff       	jmp    52fc <str_width+0x1c>
    53a1:	b1 0f                	mov    $0xf,%cl
    53a3:	be 02 00 00 00       	mov    $0x2,%esi
    53a8:	eb 9f                	jmp    5349 <str_width+0x69>
    53aa:	89 fa                	mov    %edi,%edx
    53ac:	e9 4b ff ff ff       	jmp    52fc <str_width+0x1c>
    53b1:	eb 0d                	jmp    53c0 <ascii_check>
    53b3:	90                   	nop
    53b4:	90                   	nop
    53b5:	90                   	nop
    53b6:	90                   	nop
    53b7:	90                   	nop
    53b8:	90                   	nop
