
sbi:     file format elf32-i386


Disassembly of section .init:

00001094 <__entry>:
    1094:	66 8c d0             	mov    %ss,%ax
    1097:	8e d8                	mov    %eax,%ds
    1099:	8e c0                	mov    %eax,%es
    109b:	8e e0                	mov    %eax,%fs
    109d:	b8 01 00 00 00       	mov    $0x1,%eax
    10a2:	0f a2                	cpuid  
    10a4:	0f ba e2 0b          	bt     $0xb,%edx
    10a8:	73 0c                	jae    10b6 <__entry+0x22>
    10aa:	8d 05 f4 06 04 00    	lea    0x406f4,%eax
    10b0:	c7 00 77 47 03 00    	movl   $0x34777,(%eax)
    10b6:	6a 00                	push   $0x0
    10b8:	89 e5                	mov    %esp,%ebp
    10ba:	57                   	push   %edi
    10bb:	e8 b0 ac 01 00       	call   1bd70 <__main>

Disassembly of section .text:

000010c0 <bi_boxed_bind>:
    10c0:	55                   	push   %ebp
    10c1:	89 e5                	mov    %esp,%ebp
    10c3:	53                   	push   %ebx
    10c4:	83 ec 14             	sub    $0x14,%esp
    10c7:	8b 5d 08             	mov    0x8(%ebp),%ebx
    10ca:	89 1c 24             	mov    %ebx,(%esp)
    10cd:	c7 44 24 04 22 94 03 	movl   $0x39422,0x4(%esp)
    10d4:	00 
    10d5:	e8 56 2b 00 00       	call   3c30 <builtin_find_lvl0>
    10da:	89 43 08             	mov    %eax,0x8(%ebx)
    10dd:	89 1c 24             	mov    %ebx,(%esp)
    10e0:	c7 44 24 04 27 94 03 	movl   $0x39427,0x4(%esp)
    10e7:	00 
    10e8:	e8 43 2b 00 00       	call   3c30 <builtin_find_lvl0>
    10ed:	89 43 0c             	mov    %eax,0xc(%ebx)
    10f0:	89 1c 24             	mov    %ebx,(%esp)
    10f3:	c7 44 24 04 2c 94 03 	movl   $0x3942c,0x4(%esp)
    10fa:	00 
    10fb:	e8 30 2b 00 00       	call   3c30 <builtin_find_lvl0>
    1100:	89 43 10             	mov    %eax,0x10(%ebx)
    1103:	89 1c 24             	mov    %ebx,(%esp)
    1106:	c7 44 24 04 30 94 03 	movl   $0x39430,0x4(%esp)
    110d:	00 
    110e:	e8 1d 2b 00 00       	call   3c30 <builtin_find_lvl0>
    1113:	89 43 14             	mov    %eax,0x14(%ebx)
    1116:	83 c4 14             	add    $0x14,%esp
    1119:	5b                   	pop    %ebx
    111a:	5d                   	pop    %ebp
    111b:	c3                   	ret    
    111c:	66 90                	xchg   %ax,%ax
    111e:	66 90                	xchg   %ax,%ax

00001120 <bi_error_declare>:
    1120:	55                   	push   %ebp
    1121:	89 e5                	mov    %esp,%ebp
    1123:	83 ec 18             	sub    $0x18,%esp
    1126:	8b 45 08             	mov    0x8(%ebp),%eax
    1129:	c7 44 24 04 38 94 03 	movl   $0x39438,0x4(%esp)
    1130:	00 
    1131:	89 04 24             	mov    %eax,(%esp)
    1134:	e8 97 2a 00 00       	call   3bd0 <builtin_code_snippet>
    1139:	c9                   	leave  
    113a:	c3                   	ret    
    113b:	90                   	nop
    113c:	8d 74 26 00          	lea    0x0(%esi,%eiz,1),%esi

00001140 <bi_error_bind>:
    1140:	55                   	push   %ebp
    1141:	89 e5                	mov    %esp,%ebp
    1143:	53                   	push   %ebx
    1144:	83 ec 14             	sub    $0x14,%esp
    1147:	8b 5d 08             	mov    0x8(%ebp),%ebx
    114a:	c7 44 24 08 bf 94 03 	movl   $0x394bf,0x8(%esp)
    1151:	00 
    1152:	c7 44 24 04 cb 94 03 	movl   $0x394cb,0x4(%esp)
    1159:	00 
    115a:	89 1c 24             	mov    %ebx,(%esp)
    115d:	e8 2e 2b 00 00       	call   3c90 <builtin_find_lvl1>
    1162:	89 04 24             	mov    %eax,(%esp)
    1165:	e8 16 7c 01 00       	call   18d80 <symbol_to_csi>
    116a:	89 43 1c             	mov    %eax,0x1c(%ebx)
    116d:	85 c0                	test   %eax,%eax
    116f:	74 2d                	je     119e <bi_error_bind+0x5e>
    1171:	c7 44 24 08 06 95 03 	movl   $0x39506,0x8(%esp)
    1178:	00 
    1179:	c7 44 24 04 cb 94 03 	movl   $0x394cb,0x4(%esp)
    1180:	00 
    1181:	89 1c 24             	mov    %ebx,(%esp)
    1184:	e8 07 2b 00 00       	call   3c90 <builtin_find_lvl1>
    1189:	89 04 24             	mov    %eax,(%esp)
    118c:	e8 ef 7b 01 00       	call   18d80 <symbol_to_csi>
    1191:	89 43 18             	mov    %eax,0x18(%ebx)
    1194:	85 c0                	test   %eax,%eax
    1196:	74 22                	je     11ba <bi_error_bind+0x7a>
    1198:	83 c4 14             	add    $0x14,%esp
    119b:	5b                   	pop    %ebx
    119c:	5d                   	pop    %ebp
    119d:	c3                   	ret    
    119e:	c7 44 24 08 4a 00 00 	movl   $0x4a,0x8(%esp)
    11a5:	00 
    11a6:	c7 44 24 04 d1 94 03 	movl   $0x394d1,0x4(%esp)
    11ad:	00 
    11ae:	c7 04 24 e8 94 03 00 	movl   $0x394e8,(%esp)
    11b5:	e8 36 35 03 00       	call   346f0 <assert_abort>
    11ba:	c7 44 24 08 4e 00 00 	movl   $0x4e,0x8(%esp)
    11c1:	00 
    11c2:	c7 44 24 04 d1 94 03 	movl   $0x394d1,0x4(%esp)
    11c9:	00 
    11ca:	c7 04 24 a0 94 03 00 	movl   $0x394a0,(%esp)
    11d1:	e8 1a 35 03 00       	call   346f0 <assert_abort>
    11d6:	66 90                	xchg   %ax,%ax
    11d8:	66 90                	xchg   %ax,%ax
    11da:	66 90                	xchg   %ax,%ax
    11dc:	66 90                	xchg   %ax,%ax
    11de:	66 90                	xchg   %ax,%ax

000011e0 <bi_char_get_as_string>:
    11e0:	55                   	push   %ebp
    11e1:	89 e5                	mov    %esp,%ebp
    11e3:	53                   	push   %ebx
    11e4:	83 ec 24             	sub    $0x24,%esp
    11e7:	8b 5d 08             	mov    0x8(%ebp),%ebx
    11ea:	c7 44 24 04 13 95 03 	movl   $0x39513,0x4(%esp)
    11f1:	00 
    11f2:	89 1c 24             	mov    %ebx,(%esp)
    11f5:	e8 b6 2c 00 00       	call   3eb0 <builtin_get_self_mbr_var>
    11fa:	83 38 01             	cmpl   $0x1,(%eax)
    11fd:	75 57                	jne    1256 <bi_char_get_as_string+0x76>
    11ff:	8d 55 f4             	lea    -0xc(%ebp),%edx
    1202:	89 54 24 04          	mov    %edx,0x4(%esp)
    1206:	8b 40 04             	mov    0x4(%eax),%eax
    1209:	89 04 24             	mov    %eax,(%esp)
    120c:	e8 cf 1e 00 00       	call   30e0 <bigint_get_value_int>
    1211:	85 c0                	test   %eax,%eax
    1213:	75 23                	jne    1238 <bi_char_get_as_string+0x58>
    1215:	8b 45 f4             	mov    -0xc(%ebp),%eax
    1218:	89 04 24             	mov    %eax,(%esp)
    121b:	e8 10 11 00 00       	call   2330 <os_chr_to_astr>
    1220:	89 1c 24             	mov    %ebx,(%esp)
    1223:	89 44 24 04          	mov    %eax,0x4(%esp)
    1227:	e8 04 2d 00 00       	call   3f30 <builtin_return_string>
    122c:	83 c4 24             	add    $0x24,%esp
    122f:	5b                   	pop    %ebx
    1230:	5d                   	pop    %ebp
    1231:	c3                   	ret    
    1232:	8d b6 00 00 00 00    	lea    0x0(%esi),%esi
    1238:	c7 04 24 7e 95 03 00 	movl   $0x3957e,(%esp)
    123f:	e8 5c 10 00 00       	call   22a0 <os_str_dup>
    1244:	89 1c 24             	mov    %ebx,(%esp)
    1247:	89 44 24 04          	mov    %eax,0x4(%esp)
    124b:	e8 e0 2c 00 00       	call   3f30 <builtin_return_string>
    1250:	83 c4 24             	add    $0x24,%esp
    1253:	5b                   	pop    %ebx
    1254:	5d                   	pop    %ebp
    1255:	c3                   	ret    
    1256:	c7 44 24 08 52 00 00 	movl   $0x52,0x8(%esp)
    125d:	00 
    125e:	c7 44 24 04 19 95 03 	movl   $0x39519,0x4(%esp)
    1265:	00 
    1266:	c7 04 24 2f 95 03 00 	movl   $0x3952f,(%esp)
    126d:	e8 7e 34 03 00       	call   346f0 <assert_abort>
    1272:	8d b4 26 00 00 00 00 	lea    0x0(%esi,%eiz,1),%esi
    1279:	8d bc 27 00 00 00 00 	lea    0x0(%edi,%eiz,1),%edi

00001280 <bi_char_declare>:
    1280:	55                   	push   %ebp
    1281:	89 e5                	mov    %esp,%ebp
    1283:	5d                   	pop    %ebp
    1284:	c3                   	ret    
    1285:	8d 74 26 00          	lea    0x0(%esi,%eiz,1),%esi
    1289:	8d bc 27 00 00 00 00 	lea    0x0(%edi,%eiz,1),%edi

00001290 <bi_char_bind>:
    1290:	55                   	push   %ebp
    1291:	89 e5                	mov    %esp,%ebp
    1293:	83 ec 18             	sub    $0x18,%esp
    1296:	8b 45 08             	mov    0x8(%ebp),%eax
    1299:	c7 44 24 0c e0 11 00 	movl   $0x11e0,0xc(%esp)
    12a0:	00 
    12a1:	c7 44 24 08 4d 95 03 	movl   $0x3954d,0x8(%esp)
    12a8:	00 
    12a9:	c7 44 24 04 27 94 03 	movl   $0x39427,0x4(%esp)
    12b0:	00 
    12b1:	89 04 24             	mov    %eax,(%esp)
    12b4:	e8 a7 2a 00 00       	call   3d60 <builtin_fun_bind>
    12b9:	c9                   	leave  
    12ba:	c3                   	ret    
    12bb:	66 90                	xchg   %ax,%ax
    12bd:	66 90                	xchg   %ax,%ax
    12bf:	90                   	nop

000012c0 <bi_console_write>:
    12c0:	55                   	push   %ebp
    12c1:	89 e5                	mov    %esp,%ebp
    12c3:	83 ec 28             	sub    $0x28,%esp
    12c6:	c7 04 24 5b 95 03 00 	movl   $0x3955b,(%esp)
    12cd:	e8 1e 38 01 00       	call   14af0 <strtab_get_sid>
    12d2:	89 44 24 04          	mov    %eax,0x4(%esp)
    12d6:	8b 45 08             	mov    0x8(%ebp),%eax
    12d9:	89 04 24             	mov    %eax,(%esp)
    12dc:	e8 bf c1 00 00       	call   d4a0 <run_local_vars_lookup>
    12e1:	85 c0                	test   %eax,%eax
    12e3:	0f 84 b5 00 00 00    	je     139e <bi_console_write+0xde>
    12e9:	8b 10                	mov    (%eax),%edx
    12eb:	83 fa 01             	cmp    $0x1,%edx
    12ee:	74 70                	je     1360 <bi_console_write+0xa0>
    12f0:	73 2e                	jae    1320 <bi_console_write+0x60>
    12f2:	8b 50 04             	mov    0x4(%eax),%edx
    12f5:	b8 7a 9d 03 00       	mov    $0x39d7a,%eax
    12fa:	8b 12                	mov    (%edx),%edx
    12fc:	85 d2                	test   %edx,%edx
    12fe:	74 08                	je     1308 <bi_console_write+0x48>
    1300:	b8 f4 a8 03 00       	mov    $0x3a8f4,%eax
    1305:	8d 76 00             	lea    0x0(%esi),%esi
    1308:	89 44 24 04          	mov    %eax,0x4(%esp)
    130c:	c7 04 24 5c ab 03 00 	movl   $0x3ab5c,(%esp)
    1313:	e8 58 31 02 00       	call   24470 <printf>
    1318:	c9                   	leave  
    1319:	c3                   	ret    
    131a:	8d b6 00 00 00 00    	lea    0x0(%esi),%esi
    1320:	83 fa 02             	cmp    $0x2,%edx
    1323:	74 2b                	je     1350 <bi_console_write+0x90>
    1325:	83 fa 03             	cmp    $0x3,%edx
    1328:	74 1e                	je     1348 <bi_console_write+0x88>
    132a:	c7 04 24 94 95 03 00 	movl   $0x39594,(%esp)
    1331:	e8 3a 31 02 00       	call   24470 <printf>
    1336:	c7 04 24 01 00 00 00 	movl   $0x1,(%esp)
    133d:	e8 5e a9 01 00       	call   1bca0 <exit>
    1342:	8d b6 00 00 00 00    	lea    0x0(%esi),%esi
    1348:	8b 40 04             	mov    0x4(%eax),%eax
    134b:	8b 00                	mov    (%eax),%eax
    134d:	eb b9                	jmp    1308 <bi_console_write+0x48>
    134f:	90                   	nop
    1350:	8b 40 04             	mov    0x4(%eax),%eax
    1353:	89 04 24             	mov    %eax,(%esp)
    1356:	e8 85 26 00 00       	call   39e0 <bigint_print>
    135b:	c9                   	leave  
    135c:	c3                   	ret    
    135d:	8d 76 00             	lea    0x0(%esi),%esi
    1360:	8d 55 f4             	lea    -0xc(%ebp),%edx
    1363:	89 54 24 04          	mov    %edx,0x4(%esp)
    1367:	8b 40 04             	mov    0x4(%eax),%eax
    136a:	89 04 24             	mov    %eax,(%esp)
    136d:	e8 6e 1d 00 00       	call   30e0 <bigint_get_value_int>
    1372:	85 c0                	test   %eax,%eax
    1374:	75 1a                	jne    1390 <bi_console_write+0xd0>
    1376:	8b 45 f4             	mov    -0xc(%ebp),%eax
    1379:	c7 04 24 78 95 03 00 	movl   $0x39578,(%esp)
    1380:	89 44 24 04          	mov    %eax,0x4(%esp)
    1384:	e8 e7 30 02 00       	call   24470 <printf>
    1389:	c9                   	leave  
    138a:	c3                   	ret    
    138b:	90                   	nop
    138c:	8d 74 26 00          	lea    0x0(%esi,%eiz,1),%esi
    1390:	c7 04 24 7c 95 03 00 	movl   $0x3957c,(%esp)
    1397:	e8 d4 30 02 00       	call   24470 <printf>
    139c:	c9                   	leave  
    139d:	c3                   	ret    
    139e:	c7 44 24 08 73 00 00 	movl   $0x73,0x8(%esp)
    13a5:	00 
    13a6:	c7 44 24 04 5f 95 03 	movl   $0x3955f,0x4(%esp)
    13ad:	00 
    13ae:	c7 04 24 97 bc 03 00 	movl   $0x3bc97,(%esp)
    13b5:	e8 36 33 03 00       	call   346f0 <assert_abort>
    13ba:	8d b6 00 00 00 00    	lea    0x0(%esi),%esi

000013c0 <bi_console_writeline>:
    13c0:	55                   	push   %ebp
    13c1:	89 e5                	mov    %esp,%ebp
    13c3:	83 ec 18             	sub    $0x18,%esp
    13c6:	8b 45 08             	mov    0x8(%ebp),%eax
    13c9:	89 04 24             	mov    %eax,(%esp)
    13cc:	e8 ef fe ff ff       	call   12c0 <bi_console_write>
    13d1:	c7 45 08 0a 00 00 00 	movl   $0xa,0x8(%ebp)
    13d8:	c9                   	leave  
    13d9:	e9 d2 2d 02 00       	jmp    241b0 <putchar>
    13de:	66 90                	xchg   %ax,%ax

000013e0 <bi_console_declare>:
    13e0:	55                   	push   %ebp
    13e1:	89 e5                	mov    %esp,%ebp
    13e3:	56                   	push   %esi
    13e4:	53                   	push   %ebx
    13e5:	83 ec 10             	sub    $0x10,%esp
    13e8:	e8 b3 31 01 00       	call   145a0 <stree_ident_new>
    13ed:	c7 04 24 80 95 03 00 	movl   $0x39580,(%esp)
    13f4:	89 c6                	mov    %eax,%esi
    13f6:	e8 f5 36 01 00       	call   14af0 <strtab_get_sid>
    13fb:	89 06                	mov    %eax,(%esi)
    13fd:	c7 04 24 00 00 00 00 	movl   $0x0,(%esp)
    1404:	e8 17 27 01 00       	call   13b20 <stree_csi_new>
    1409:	89 c3                	mov    %eax,%ebx
    140b:	89 70 04             	mov    %esi,0x4(%eax)
    140e:	8d 40 08             	lea    0x8(%eax),%eax
    1411:	89 04 24             	mov    %eax,(%esp)
    1414:	e8 07 40 00 00       	call   5420 <list_init>
    1419:	8d 43 38             	lea    0x38(%ebx),%eax
    141c:	89 04 24             	mov    %eax,(%esp)
    141f:	e8 fc 3f 00 00       	call   5420 <list_init>
    1424:	c7 04 24 00 00 00 00 	movl   $0x0,(%esp)
    142b:	e8 b0 26 01 00       	call   13ae0 <stree_modm_new>
    1430:	89 c6                	mov    %eax,%esi
    1432:	89 58 04             	mov    %ebx,0x4(%eax)
    1435:	c7 04 24 00 00 00 00 	movl   $0x0,(%esp)
    143c:	e8 9f 33 01 00       	call   147e0 <stree_symbol_new>
    1441:	89 58 04             	mov    %ebx,0x4(%eax)
    1444:	c7 40 08 00 00 00 00 	movl   $0x0,0x8(%eax)
    144b:	89 43 14             	mov    %eax,0x14(%ebx)
    144e:	8b 45 08             	mov    0x8(%ebp),%eax
    1451:	89 74 24 04          	mov    %esi,0x4(%esp)
    1455:	8b 00                	mov    (%eax),%eax
    1457:	8b 00                	mov    (%eax),%eax
    1459:	89 04 24             	mov    %eax,(%esp)
    145c:	e8 2f 40 00 00       	call   5490 <sbi_list_append>
    1461:	89 1c 24             	mov    %ebx,(%esp)
    1464:	c7 44 24 04 eb 97 03 	movl   $0x397eb,0x4(%esp)
    146b:	00 
    146c:	e8 1f 2b 00 00       	call   3f90 <builtin_declare_fun>
    1471:	c7 44 24 04 5b 95 03 	movl   $0x3955b,0x4(%esp)
    1478:	00 
    1479:	89 04 24             	mov    %eax,(%esp)
    147c:	e8 bf 2b 00 00       	call   4040 <builtin_fun_add_arg>
    1481:	89 1c 24             	mov    %ebx,(%esp)
    1484:	c7 44 24 04 88 95 03 	movl   $0x39588,0x4(%esp)
    148b:	00 
    148c:	e8 ff 2a 00 00       	call   3f90 <builtin_declare_fun>
    1491:	c7 44 24 04 5b 95 03 	movl   $0x3955b,0x4(%esp)
    1498:	00 
    1499:	89 04 24             	mov    %eax,(%esp)
    149c:	e8 9f 2b 00 00       	call   4040 <builtin_fun_add_arg>
    14a1:	83 c4 10             	add    $0x10,%esp
    14a4:	5b                   	pop    %ebx
    14a5:	5e                   	pop    %esi
    14a6:	5d                   	pop    %ebp
    14a7:	c3                   	ret    
    14a8:	90                   	nop
    14a9:	8d b4 26 00 00 00 00 	lea    0x0(%esi,%eiz,1),%esi

000014b0 <bi_console_bind>:
    14b0:	55                   	push   %ebp
    14b1:	89 e5                	mov    %esp,%ebp
    14b3:	53                   	push   %ebx
    14b4:	83 ec 14             	sub    $0x14,%esp
    14b7:	8b 5d 08             	mov    0x8(%ebp),%ebx
    14ba:	89 1c 24             	mov    %ebx,(%esp)
    14bd:	c7 44 24 0c c0 12 00 	movl   $0x12c0,0xc(%esp)
    14c4:	00 
    14c5:	c7 44 24 08 eb 97 03 	movl   $0x397eb,0x8(%esp)
    14cc:	00 
    14cd:	c7 44 24 04 80 95 03 	movl   $0x39580,0x4(%esp)
    14d4:	00 
    14d5:	e8 86 28 00 00       	call   3d60 <builtin_fun_bind>
    14da:	89 1c 24             	mov    %ebx,(%esp)
    14dd:	c7 44 24 0c c0 13 00 	movl   $0x13c0,0xc(%esp)
    14e4:	00 
    14e5:	c7 44 24 08 88 95 03 	movl   $0x39588,0x8(%esp)
    14ec:	00 
    14ed:	c7 44 24 04 80 95 03 	movl   $0x39580,0x4(%esp)
    14f4:	00 
    14f5:	e8 66 28 00 00       	call   3d60 <builtin_fun_bind>
    14fa:	83 c4 14             	add    $0x14,%esp
    14fd:	5b                   	pop    %ebx
    14fe:	5d                   	pop    %ebp
    14ff:	c3                   	ret    

00001500 <bi_int_get_as_string>:
    1500:	55                   	push   %ebp
    1501:	89 e5                	mov    %esp,%ebp
    1503:	53                   	push   %ebx
    1504:	83 ec 24             	sub    $0x24,%esp
    1507:	8b 5d 08             	mov    0x8(%ebp),%ebx
    150a:	c7 44 24 04 13 95 03 	movl   $0x39513,0x4(%esp)
    1511:	00 
    1512:	89 1c 24             	mov    %ebx,(%esp)
    1515:	e8 96 29 00 00       	call   3eb0 <builtin_get_self_mbr_var>
    151a:	83 38 02             	cmpl   $0x2,(%eax)
    151d:	75 27                	jne    1546 <bi_int_get_as_string+0x46>
    151f:	8d 55 f4             	lea    -0xc(%ebp),%edx
    1522:	89 54 24 04          	mov    %edx,0x4(%esp)
    1526:	8b 40 04             	mov    0x4(%eax),%eax
    1529:	89 04 24             	mov    %eax,(%esp)
    152c:	e8 8f 21 00 00       	call   36c0 <bigint_get_as_string>
    1531:	8b 45 f4             	mov    -0xc(%ebp),%eax
    1534:	89 1c 24             	mov    %ebx,(%esp)
    1537:	89 44 24 04          	mov    %eax,0x4(%esp)
    153b:	e8 f0 29 00 00       	call   3f30 <builtin_return_string>
    1540:	83 c4 24             	add    $0x24,%esp
    1543:	5b                   	pop    %ebx
    1544:	5d                   	pop    %ebp
    1545:	c3                   	ret    
    1546:	c7 44 24 08 4d 00 00 	movl   $0x4d,0x8(%esp)
    154d:	00 
    154e:	c7 44 24 04 c3 95 03 	movl   $0x395c3,0x4(%esp)
    1555:	00 
    1556:	c7 04 24 d8 95 03 00 	movl   $0x395d8,(%esp)
    155d:	e8 8e 31 03 00       	call   346f0 <assert_abort>
    1562:	8d b4 26 00 00 00 00 	lea    0x0(%esi,%eiz,1),%esi
    1569:	8d bc 27 00 00 00 00 	lea    0x0(%edi,%eiz,1),%edi

00001570 <bi_int_declare>:
    1570:	55                   	push   %ebp
    1571:	89 e5                	mov    %esp,%ebp
    1573:	5d                   	pop    %ebp
    1574:	c3                   	ret    
    1575:	8d 74 26 00          	lea    0x0(%esi,%eiz,1),%esi
    1579:	8d bc 27 00 00 00 00 	lea    0x0(%edi,%eiz,1),%edi

00001580 <bi_int_bind>:
    1580:	55                   	push   %ebp
    1581:	89 e5                	mov    %esp,%ebp
    1583:	83 ec 18             	sub    $0x18,%esp
    1586:	8b 45 08             	mov    0x8(%ebp),%eax
    1589:	c7 44 24 0c 00 15 00 	movl   $0x1500,0xc(%esp)
    1590:	00 
    1591:	c7 44 24 08 4d 95 03 	movl   $0x3954d,0x8(%esp)
    1598:	00 
    1599:	c7 44 24 04 2c 94 03 	movl   $0x3942c,0x4(%esp)
    15a0:	00 
    15a1:	89 04 24             	mov    %eax,(%esp)
    15a4:	e8 b7 27 00 00       	call   3d60 <builtin_fun_bind>
    15a9:	c9                   	leave  
    15aa:	c3                   	ret    
    15ab:	66 90                	xchg   %ax,%ax
    15ad:	66 90                	xchg   %ax,%ax
    15af:	90                   	nop

000015b0 <bi_task_exec>:
    15b0:	55                   	push   %ebp
    15b1:	89 e5                	mov    %esp,%ebp
    15b3:	57                   	push   %edi
    15b4:	56                   	push   %esi
    15b5:	53                   	push   %ebx
    15b6:	83 ec 2c             	sub    $0x2c,%esp
    15b9:	c7 04 24 f5 95 03 00 	movl   $0x395f5,(%esp)
    15c0:	e8 2b 35 01 00       	call   14af0 <strtab_get_sid>
    15c5:	89 44 24 04          	mov    %eax,0x4(%esp)
    15c9:	8b 45 08             	mov    0x8(%ebp),%eax
    15cc:	89 04 24             	mov    %eax,(%esp)
    15cf:	e8 cc be 00 00       	call   d4a0 <run_local_vars_lookup>
    15d4:	85 c0                	test   %eax,%eax
    15d6:	0f 84 48 01 00 00    	je     1724 <bi_task_exec+0x174>
    15dc:	83 38 04             	cmpl   $0x4,(%eax)
    15df:	0f 85 23 01 00 00    	jne    1708 <bi_task_exec+0x158>
    15e5:	8b 40 04             	mov    0x4(%eax),%eax
    15e8:	8b 00                	mov    (%eax),%eax
    15ea:	83 38 07             	cmpl   $0x7,(%eax)
    15ed:	0f 85 f9 00 00 00    	jne    16ec <bi_task_exec+0x13c>
    15f3:	8b 78 04             	mov    0x4(%eax),%edi
    15f6:	83 3f 01             	cmpl   $0x1,(%edi)
    15f9:	0f 85 d1 00 00 00    	jne    16d0 <bi_task_exec+0x120>
    15ff:	8b 47 04             	mov    0x4(%edi),%eax
    1602:	8b 00                	mov    (%eax),%eax
    1604:	89 45 e4             	mov    %eax,-0x1c(%ebp)
    1607:	85 c0                	test   %eax,%eax
    1609:	0f 84 a9 00 00 00    	je     16b8 <bi_task_exec+0x108>
    160f:	40                   	inc    %eax
    1610:	c7 44 24 04 04 00 00 	movl   $0x4,0x4(%esp)
    1617:	00 
    1618:	89 04 24             	mov    %eax,(%esp)
    161b:	e8 a0 84 02 00       	call   29ac0 <calloc>
    1620:	85 c0                	test   %eax,%eax
    1622:	74 7c                	je     16a0 <bi_task_exec+0xf0>
    1624:	8b 55 e4             	mov    -0x1c(%ebp),%edx
    1627:	85 d2                	test   %edx,%edx
    1629:	7e 37                	jle    1662 <bi_task_exec+0xb2>
    162b:	8b 57 08             	mov    0x8(%edi),%edx
    162e:	8b 0a                	mov    (%edx),%ecx
    1630:	8b 31                	mov    (%ecx),%esi
    1632:	83 fe 03             	cmp    $0x3,%esi
    1635:	75 4d                	jne    1684 <bi_task_exec+0xd4>
    1637:	31 db                	xor    %ebx,%ebx
    1639:	31 d2                	xor    %edx,%edx
    163b:	eb 17                	jmp    1654 <bi_task_exec+0xa4>
    163d:	8d 76 00             	lea    0x0(%esi),%esi
    1640:	8d 1c 95 00 00 00 00 	lea    0x0(,%edx,4),%ebx
    1647:	8b 4f 08             	mov    0x8(%edi),%ecx
    164a:	8b 0c 19             	mov    (%ecx,%ebx,1),%ecx
    164d:	8b 31                	mov    (%ecx),%esi
    164f:	83 fe 03             	cmp    $0x3,%esi
    1652:	75 30                	jne    1684 <bi_task_exec+0xd4>
    1654:	8b 49 04             	mov    0x4(%ecx),%ecx
    1657:	42                   	inc    %edx
    1658:	3b 55 e4             	cmp    -0x1c(%ebp),%edx
    165b:	8b 09                	mov    (%ecx),%ecx
    165d:	89 0c 18             	mov    %ecx,(%eax,%ebx,1)
    1660:	75 de                	jne    1640 <bi_task_exec+0x90>
    1662:	8b 55 e4             	mov    -0x1c(%ebp),%edx
    1665:	c7 04 90 00 00 00 00 	movl   $0x0,(%eax,%edx,4)
    166c:	89 04 24             	mov    %eax,(%esp)
    166f:	e8 8c 0e 00 00       	call   2500 <os_exec>
    1674:	85 c0                	test   %eax,%eax
    1676:	0f 85 c4 00 00 00    	jne    1740 <bi_task_exec+0x190>
    167c:	83 c4 2c             	add    $0x2c,%esp
    167f:	5b                   	pop    %ebx
    1680:	5e                   	pop    %esi
    1681:	5f                   	pop    %edi
    1682:	5d                   	pop    %ebp
    1683:	c3                   	ret    
    1684:	89 74 24 04          	mov    %esi,0x4(%esp)
    1688:	c7 04 24 bc 96 03 00 	movl   $0x396bc,(%esp)
    168f:	e8 dc 2d 02 00       	call   24470 <printf>
    1694:	c7 04 24 01 00 00 00 	movl   $0x1,(%esp)
    169b:	e8 00 a6 01 00       	call   1bca0 <exit>
    16a0:	c7 04 24 48 96 03 00 	movl   $0x39648,(%esp)
    16a7:	e8 c4 2d 02 00       	call   24470 <printf>
    16ac:	c7 04 24 01 00 00 00 	movl   $0x1,(%esp)
    16b3:	e8 e8 a5 01 00       	call   1bca0 <exit>
    16b8:	c7 04 24 84 96 03 00 	movl   $0x39684,(%esp)
    16bf:	e8 ac 2d 02 00       	call   24470 <printf>
    16c4:	c7 04 24 01 00 00 00 	movl   $0x1,(%esp)
    16cb:	e8 d0 a5 01 00       	call   1bca0 <exit>
    16d0:	c7 44 24 08 5b 00 00 	movl   $0x5b,0x8(%esp)
    16d7:	00 
    16d8:	c7 44 24 04 fa 95 03 	movl   $0x395fa,0x4(%esp)
    16df:	00 
    16e0:	c7 04 24 37 96 03 00 	movl   $0x39637,(%esp)
    16e7:	e8 04 30 03 00       	call   346f0 <assert_abort>
    16ec:	c7 44 24 08 58 00 00 	movl   $0x58,0x8(%esp)
    16f3:	00 
    16f4:	c7 44 24 04 fa 95 03 	movl   $0x395fa,0x4(%esp)
    16fb:	00 
    16fc:	c7 04 24 23 96 03 00 	movl   $0x39623,(%esp)
    1703:	e8 e8 2f 03 00       	call   346f0 <assert_abort>
    1708:	c7 44 24 08 55 00 00 	movl   $0x55,0x8(%esp)
    170f:	00 
    1710:	c7 44 24 04 fa 95 03 	movl   $0x395fa,0x4(%esp)
    1717:	00 
    1718:	c7 04 24 10 96 03 00 	movl   $0x39610,(%esp)
    171f:	e8 cc 2f 03 00       	call   346f0 <assert_abort>
    1724:	c7 44 24 08 54 00 00 	movl   $0x54,0x8(%esp)
    172b:	00 
    172c:	c7 44 24 04 fa 95 03 	movl   $0x395fa,0x4(%esp)
    1733:	00 
    1734:	c7 04 24 f5 95 03 00 	movl   $0x395f5,(%esp)
    173b:	e8 b0 2f 03 00       	call   346f0 <assert_abort>
    1740:	c7 04 24 63 96 03 00 	movl   $0x39663,(%esp)
    1747:	e8 24 2d 02 00       	call   24470 <printf>
    174c:	c7 04 24 01 00 00 00 	movl   $0x1,(%esp)
    1753:	e8 48 a5 01 00       	call   1bca0 <exit>
    1758:	90                   	nop
    1759:	8d b4 26 00 00 00 00 	lea    0x0(%esi,%eiz,1),%esi

00001760 <bi_task_declare>:
    1760:	55                   	push   %ebp
    1761:	89 e5                	mov    %esp,%ebp
    1763:	83 ec 18             	sub    $0x18,%esp
    1766:	8b 45 08             	mov    0x8(%ebp),%eax
    1769:	c7 44 24 04 fc 96 03 	movl   $0x396fc,0x4(%esp)
    1770:	00 
    1771:	89 04 24             	mov    %eax,(%esp)
    1774:	e8 57 24 00 00       	call   3bd0 <builtin_code_snippet>
    1779:	c9                   	leave  
    177a:	c3                   	ret    
    177b:	90                   	nop
    177c:	8d 74 26 00          	lea    0x0(%esi,%eiz,1),%esi

00001780 <bi_task_bind>:
    1780:	55                   	push   %ebp
    1781:	89 e5                	mov    %esp,%ebp
    1783:	83 ec 18             	sub    $0x18,%esp
    1786:	8b 45 08             	mov    0x8(%ebp),%eax
    1789:	c7 44 24 0c b0 15 00 	movl   $0x15b0,0xc(%esp)
    1790:	00 
    1791:	c7 44 24 08 78 96 03 	movl   $0x39678,0x8(%esp)
    1798:	00 
    1799:	c7 44 24 04 7d 96 03 	movl   $0x3967d,0x4(%esp)
    17a0:	00 
    17a1:	89 04 24             	mov    %eax,(%esp)
    17a4:	e8 b7 25 00 00       	call   3d60 <builtin_fun_bind>
    17a9:	c9                   	leave  
    17aa:	c3                   	ret    
    17ab:	66 90                	xchg   %ax,%ax
    17ad:	66 90                	xchg   %ax,%ax
    17af:	90                   	nop

000017b0 <bi_textfile_is_eof>:
    17b0:	55                   	push   %ebp
    17b1:	89 e5                	mov    %esp,%ebp
    17b3:	57                   	push   %edi
    17b4:	56                   	push   %esi
    17b5:	53                   	push   %ebx
    17b6:	83 ec 1c             	sub    $0x1c,%esp
    17b9:	8b 5d 08             	mov    0x8(%ebp),%ebx
    17bc:	c7 44 24 04 5c dd 03 	movl   $0x3dd5c,0x4(%esp)
    17c3:	00 
    17c4:	89 1c 24             	mov    %ebx,(%esp)
    17c7:	e8 e4 26 00 00       	call   3eb0 <builtin_get_self_mbr_var>
    17cc:	83 38 09             	cmpl   $0x9,(%eax)
    17cf:	75 64                	jne    1835 <bi_textfile_is_eof+0x85>
    17d1:	8b 40 04             	mov    0x4(%eax),%eax
    17d4:	8b 00                	mov    (%eax),%eax
    17d6:	85 c0                	test   %eax,%eax
    17d8:	74 77                	je     1851 <bi_textfile_is_eof+0xa1>
    17da:	89 04 24             	mov    %eax,(%esp)
    17dd:	e8 8e 2b 02 00       	call   24370 <feof>
    17e2:	89 c6                	mov    %eax,%esi
    17e4:	e8 77 ae 00 00       	call   c660 <rdata_bool_new>
    17e9:	85 f6                	test   %esi,%esi
    17eb:	89 c7                	mov    %eax,%edi
    17ed:	0f 95 c0             	setne  %al
    17f0:	25 ff 00 00 00       	and    $0xff,%eax
    17f5:	89 07                	mov    %eax,(%edi)
    17f7:	c7 04 24 00 00 00 00 	movl   $0x0,(%esp)
    17fe:	e8 bd ac 00 00       	call   c4c0 <rdata_var_new>
    1803:	89 c6                	mov    %eax,%esi
    1805:	89 78 04             	mov    %edi,0x4(%eax)
    1808:	e8 83 ac 00 00       	call   c490 <rdata_value_new>
    180d:	89 c7                	mov    %eax,%edi
    180f:	89 30                	mov    %esi,(%eax)
    1811:	c7 04 24 01 00 00 00 	movl   $0x1,(%esp)
    1818:	e8 f3 aa 00 00       	call   c310 <rdata_item_new>
    181d:	89 c6                	mov    %eax,%esi
    181f:	89 78 04             	mov    %edi,0x4(%eax)
    1822:	89 1c 24             	mov    %ebx,(%esp)
    1825:	e8 e6 bc 00 00       	call   d510 <run_get_current_proc_ar>
    182a:	89 70 14             	mov    %esi,0x14(%eax)
    182d:	83 c4 1c             	add    $0x1c,%esp
    1830:	5b                   	pop    %ebx
    1831:	5e                   	pop    %esi
    1832:	5f                   	pop    %edi
    1833:	5d                   	pop    %ebp
    1834:	c3                   	ret    
    1835:	c7 44 24 08 62 01 00 	movl   $0x162,0x8(%esp)
    183c:	00 
    183d:	c7 44 24 04 43 97 03 	movl   $0x39743,0x4(%esp)
    1844:	00 
    1845:	c7 04 24 5d 97 03 00 	movl   $0x3975d,(%esp)
    184c:	e8 9f 2e 03 00       	call   346f0 <assert_abort>
    1851:	c7 04 24 08 98 03 00 	movl   $0x39808,(%esp)
    1858:	e8 13 2c 02 00       	call   24470 <printf>
    185d:	c7 04 24 01 00 00 00 	movl   $0x1,(%esp)
    1864:	e8 37 a4 01 00       	call   1bca0 <exit>
    1869:	8d b4 26 00 00 00 00 	lea    0x0(%esi,%eiz,1),%esi

00001870 <bi_textfile_writeline>:
    1870:	55                   	push   %ebp
    1871:	89 e5                	mov    %esp,%ebp
    1873:	56                   	push   %esi
    1874:	53                   	push   %ebx
    1875:	83 ec 10             	sub    $0x10,%esp
    1878:	8b 5d 08             	mov    0x8(%ebp),%ebx
    187b:	c7 04 24 7b 97 03 00 	movl   $0x3977b,(%esp)
    1882:	e8 69 32 01 00       	call   14af0 <strtab_get_sid>
    1887:	89 1c 24             	mov    %ebx,(%esp)
    188a:	89 44 24 04          	mov    %eax,0x4(%esp)
    188e:	e8 0d bc 00 00       	call   d4a0 <run_local_vars_lookup>
    1893:	85 c0                	test   %eax,%eax
    1895:	74 5e                	je     18f5 <bi_textfile_writeline+0x85>
    1897:	83 38 03             	cmpl   $0x3,(%eax)
    189a:	0f 85 bd 00 00 00    	jne    195d <bi_textfile_writeline+0xed>
    18a0:	8b 40 04             	mov    0x4(%eax),%eax
    18a3:	8b 30                	mov    (%eax),%esi
    18a5:	c7 44 24 04 5c dd 03 	movl   $0x3dd5c,0x4(%esp)
    18ac:	00 
    18ad:	89 1c 24             	mov    %ebx,(%esp)
    18b0:	e8 fb 25 00 00       	call   3eb0 <builtin_get_self_mbr_var>
    18b5:	83 38 09             	cmpl   $0x9,(%eax)
    18b8:	0f 85 83 00 00 00    	jne    1941 <bi_textfile_writeline+0xd1>
    18be:	8b 40 04             	mov    0x4(%eax),%eax
    18c1:	8b 00                	mov    (%eax),%eax
    18c3:	85 c0                	test   %eax,%eax
    18c5:	74 62                	je     1929 <bi_textfile_writeline+0xb9>
    18c7:	89 74 24 08          	mov    %esi,0x8(%esp)
    18cb:	c7 44 24 04 a3 97 03 	movl   $0x397a3,0x4(%esp)
    18d2:	00 
    18d3:	89 04 24             	mov    %eax,(%esp)
    18d6:	e8 65 2b 02 00       	call   24440 <fprintf>
    18db:	85 c0                	test   %eax,%eax
    18dd:	78 32                	js     1911 <bi_textfile_writeline+0xa1>
    18df:	89 1c 24             	mov    %ebx,(%esp)
    18e2:	e8 29 bc 00 00       	call   d510 <run_get_current_proc_ar>
    18e7:	c7 40 14 00 00 00 00 	movl   $0x0,0x14(%eax)
    18ee:	83 c4 10             	add    $0x10,%esp
    18f1:	5b                   	pop    %ebx
    18f2:	5e                   	pop    %esi
    18f3:	5d                   	pop    %ebp
    18f4:	c3                   	ret    
    18f5:	c7 44 24 08 33 01 00 	movl   $0x133,0x8(%esp)
    18fc:	00 
    18fd:	c7 44 24 04 43 97 03 	movl   $0x39743,0x4(%esp)
    1904:	00 
    1905:	c7 04 24 80 97 03 00 	movl   $0x39780,(%esp)
    190c:	e8 df 2d 03 00       	call   346f0 <assert_abort>
    1911:	c7 04 24 60 98 03 00 	movl   $0x39860,(%esp)
    1918:	e8 53 2b 02 00       	call   24470 <printf>
    191d:	c7 04 24 01 00 00 00 	movl   $0x1,(%esp)
    1924:	e8 77 a3 01 00       	call   1bca0 <exit>
    1929:	c7 04 24 34 98 03 00 	movl   $0x39834,(%esp)
    1930:	e8 3b 2b 02 00       	call   24470 <printf>
    1935:	c7 04 24 01 00 00 00 	movl   $0x1,(%esp)
    193c:	e8 5f a3 01 00       	call   1bca0 <exit>
    1941:	c7 44 24 08 39 01 00 	movl   $0x139,0x8(%esp)
    1948:	00 
    1949:	c7 44 24 04 43 97 03 	movl   $0x39743,0x4(%esp)
    1950:	00 
    1951:	c7 04 24 5d 97 03 00 	movl   $0x3975d,(%esp)
    1958:	e8 93 2d 03 00       	call   346f0 <assert_abort>
    195d:	c7 44 24 08 34 01 00 	movl   $0x134,0x8(%esp)
    1964:	00 
    1965:	c7 44 24 04 43 97 03 	movl   $0x39743,0x4(%esp)
    196c:	00 
    196d:	c7 04 24 89 97 03 00 	movl   $0x39789,(%esp)
    1974:	e8 77 2d 03 00       	call   346f0 <assert_abort>
    1979:	8d b4 26 00 00 00 00 	lea    0x0(%esi,%eiz,1),%esi

00001980 <bi_textfile_readline>:
    1980:	55                   	push   %ebp
    1981:	89 e5                	mov    %esp,%ebp
    1983:	57                   	push   %edi
    1984:	56                   	push   %esi
    1985:	53                   	push   %ebx
    1986:	83 ec 1c             	sub    $0x1c,%esp
    1989:	8b 45 08             	mov    0x8(%ebp),%eax
    198c:	c7 44 24 04 5c dd 03 	movl   $0x3dd5c,0x4(%esp)
    1993:	00 
    1994:	89 04 24             	mov    %eax,(%esp)
    1997:	e8 14 25 00 00       	call   3eb0 <builtin_get_self_mbr_var>
    199c:	83 38 09             	cmpl   $0x9,(%eax)
    199f:	0f 85 d7 00 00 00    	jne    1a7c <bi_textfile_readline+0xfc>
    19a5:	8b 40 04             	mov    0x4(%eax),%eax
    19a8:	8b 18                	mov    (%eax),%ebx
    19aa:	85 db                	test   %ebx,%ebx
    19ac:	0f 84 16 01 00 00    	je     1ac8 <bi_textfile_readline+0x148>
    19b2:	89 1c 24             	mov    %ebx,(%esp)
    19b5:	e8 b6 29 02 00       	call   24370 <feof>
    19ba:	85 c0                	test   %eax,%eax
    19bc:	0f 85 ee 00 00 00    	jne    1ab0 <bi_textfile_readline+0x130>
    19c2:	89 5c 24 08          	mov    %ebx,0x8(%esp)
    19c6:	c7 44 24 04 00 01 00 	movl   $0x100,0x4(%esp)
    19cd:	00 
    19ce:	c7 04 24 a0 07 04 00 	movl   $0x407a0,(%esp)
    19d5:	e8 86 14 02 00       	call   22e60 <fgets>
    19da:	85 c0                	test   %eax,%eax
    19dc:	0f 84 8e 00 00 00    	je     1a70 <bi_textfile_readline+0xf0>
    19e2:	89 1c 24             	mov    %ebx,(%esp)
    19e5:	e8 96 29 02 00       	call   24380 <ferror>
    19ea:	85 c0                	test   %eax,%eax
    19ec:	0f 85 a6 00 00 00    	jne    1a98 <bi_textfile_readline+0x118>
    19f2:	b8 a0 07 04 00       	mov    $0x407a0,%eax
    19f7:	80 3d a0 07 04 00 00 	cmpb   $0x0,0x407a0
    19fe:	74 17                	je     1a17 <bi_textfile_readline+0x97>
    1a00:	40                   	inc    %eax
    1a01:	80 38 00             	cmpb   $0x0,(%eax)
    1a04:	75 fa                	jne    1a00 <bi_textfile_readline+0x80>
    1a06:	3d a0 07 04 00       	cmp    $0x407a0,%eax
    1a0b:	74 0a                	je     1a17 <bi_textfile_readline+0x97>
    1a0d:	80 78 ff 0a          	cmpb   $0xa,-0x1(%eax)
    1a11:	75 04                	jne    1a17 <bi_textfile_readline+0x97>
    1a13:	c6 40 ff 00          	movb   $0x0,-0x1(%eax)
    1a17:	e8 04 ad 00 00       	call   c720 <rdata_string_new>
    1a1c:	c7 04 24 a0 07 04 00 	movl   $0x407a0,(%esp)
    1a23:	89 c3                	mov    %eax,%ebx
    1a25:	e8 76 08 00 00       	call   22a0 <os_str_dup>
    1a2a:	89 03                	mov    %eax,(%ebx)
    1a2c:	c7 04 24 03 00 00 00 	movl   $0x3,(%esp)
    1a33:	e8 88 aa 00 00       	call   c4c0 <rdata_var_new>
    1a38:	89 c6                	mov    %eax,%esi
    1a3a:	89 58 04             	mov    %ebx,0x4(%eax)
    1a3d:	e8 4e aa 00 00       	call   c490 <rdata_value_new>
    1a42:	89 c7                	mov    %eax,%edi
    1a44:	89 30                	mov    %esi,(%eax)
    1a46:	c7 04 24 01 00 00 00 	movl   $0x1,(%esp)
    1a4d:	e8 be a8 00 00       	call   c310 <rdata_item_new>
    1a52:	89 c3                	mov    %eax,%ebx
    1a54:	89 78 04             	mov    %edi,0x4(%eax)
    1a57:	8b 45 08             	mov    0x8(%ebp),%eax
    1a5a:	89 04 24             	mov    %eax,(%esp)
    1a5d:	e8 ae ba 00 00       	call   d510 <run_get_current_proc_ar>
    1a62:	89 58 14             	mov    %ebx,0x14(%eax)
    1a65:	83 c4 1c             	add    $0x1c,%esp
    1a68:	5b                   	pop    %ebx
    1a69:	5e                   	pop    %esi
    1a6a:	5f                   	pop    %edi
    1a6b:	5d                   	pop    %ebp
    1a6c:	c3                   	ret    
    1a6d:	8d 76 00             	lea    0x0(%esi),%esi
    1a70:	c6 05 a0 07 04 00 00 	movb   $0x0,0x407a0
    1a77:	e9 66 ff ff ff       	jmp    19e2 <bi_textfile_readline+0x62>
    1a7c:	c7 44 24 08 f1 00 00 	movl   $0xf1,0x8(%esp)
    1a83:	00 
    1a84:	c7 44 24 04 43 97 03 	movl   $0x39743,0x4(%esp)
    1a8b:	00 
    1a8c:	c7 04 24 5d 97 03 00 	movl   $0x3975d,(%esp)
    1a93:	e8 58 2c 03 00       	call   346f0 <assert_abort>
    1a98:	c7 04 24 d8 98 03 00 	movl   $0x398d8,(%esp)
    1a9f:	e8 cc 29 02 00       	call   24470 <printf>
    1aa4:	c7 04 24 01 00 00 00 	movl   $0x1,(%esp)
    1aab:	e8 f0 a1 01 00       	call   1bca0 <exit>
    1ab0:	c7 04 24 b4 98 03 00 	movl   $0x398b4,(%esp)
    1ab7:	e8 b4 29 02 00       	call   24470 <printf>
    1abc:	c7 04 24 01 00 00 00 	movl   $0x1,(%esp)
    1ac3:	e8 d8 a1 01 00       	call   1bca0 <exit>
    1ac8:	c7 04 24 88 98 03 00 	movl   $0x39888,(%esp)
    1acf:	e8 9c 29 02 00       	call   24470 <printf>
    1ad4:	c7 04 24 01 00 00 00 	movl   $0x1,(%esp)
    1adb:	e8 c0 a1 01 00       	call   1bca0 <exit>

00001ae0 <bi_textfile_openwrite>:
    1ae0:	55                   	push   %ebp
    1ae1:	89 e5                	mov    %esp,%ebp
    1ae3:	57                   	push   %edi
    1ae4:	56                   	push   %esi
    1ae5:	53                   	push   %ebx
    1ae6:	83 ec 1c             	sub    $0x1c,%esp
    1ae9:	c7 04 24 a7 97 03 00 	movl   $0x397a7,(%esp)
    1af0:	e8 fb 2f 01 00       	call   14af0 <strtab_get_sid>
    1af5:	89 44 24 04          	mov    %eax,0x4(%esp)
    1af9:	8b 45 08             	mov    0x8(%ebp),%eax
    1afc:	89 04 24             	mov    %eax,(%esp)
    1aff:	e8 9c b9 00 00       	call   d4a0 <run_local_vars_lookup>
    1b04:	85 c0                	test   %eax,%eax
    1b06:	74 6e                	je     1b76 <bi_textfile_openwrite+0x96>
    1b08:	83 38 03             	cmpl   $0x3,(%eax)
    1b0b:	0f 85 9d 00 00 00    	jne    1bae <bi_textfile_openwrite+0xce>
    1b11:	8b 40 04             	mov    0x4(%eax),%eax
    1b14:	8b 38                	mov    (%eax),%edi
    1b16:	c7 44 24 04 d2 97 03 	movl   $0x397d2,0x4(%esp)
    1b1d:	00 
    1b1e:	89 3c 24             	mov    %edi,(%esp)
    1b21:	e8 ea 09 02 00       	call   22510 <fopen>
    1b26:	89 c6                	mov    %eax,%esi
    1b28:	85 c0                	test   %eax,%eax
    1b2a:	74 66                	je     1b92 <bi_textfile_openwrite+0xb2>
    1b2c:	e8 2f ac 00 00       	call   c760 <rdata_resource_new>
    1b31:	89 c3                	mov    %eax,%ebx
    1b33:	89 30                	mov    %esi,(%eax)
    1b35:	c7 04 24 09 00 00 00 	movl   $0x9,(%esp)
    1b3c:	e8 7f a9 00 00       	call   c4c0 <rdata_var_new>
    1b41:	89 c7                	mov    %eax,%edi
    1b43:	89 58 04             	mov    %ebx,0x4(%eax)
    1b46:	e8 45 a9 00 00       	call   c490 <rdata_value_new>
    1b4b:	89 c6                	mov    %eax,%esi
    1b4d:	89 38                	mov    %edi,(%eax)
    1b4f:	8b 45 08             	mov    0x8(%ebp),%eax
    1b52:	c7 44 24 04 5c dd 03 	movl   $0x3dd5c,0x4(%esp)
    1b59:	00 
    1b5a:	89 04 24             	mov    %eax,(%esp)
    1b5d:	e8 4e 23 00 00       	call   3eb0 <builtin_get_self_mbr_var>
    1b62:	89 74 24 04          	mov    %esi,0x4(%esp)
    1b66:	89 04 24             	mov    %eax,(%esp)
    1b69:	e8 52 b6 00 00       	call   d1c0 <rdata_var_write>
    1b6e:	83 c4 1c             	add    $0x1c,%esp
    1b71:	5b                   	pop    %ebx
    1b72:	5e                   	pop    %esi
    1b73:	5f                   	pop    %edi
    1b74:	5d                   	pop    %ebp
    1b75:	c3                   	ret    
    1b76:	c7 44 24 08 a0 00 00 	movl   $0xa0,0x8(%esp)
    1b7d:	00 
    1b7e:	c7 44 24 04 43 97 03 	movl   $0x39743,0x4(%esp)
    1b85:	00 
    1b86:	c7 04 24 ad 97 03 00 	movl   $0x397ad,(%esp)
    1b8d:	e8 5e 2b 03 00       	call   346f0 <assert_abort>
    1b92:	89 7c 24 04          	mov    %edi,0x4(%esp)
    1b96:	c7 04 24 00 99 03 00 	movl   $0x39900,(%esp)
    1b9d:	e8 ce 28 02 00       	call   24470 <printf>
    1ba2:	c7 04 24 01 00 00 00 	movl   $0x1,(%esp)
    1ba9:	e8 f2 a0 01 00       	call   1bca0 <exit>
    1bae:	c7 44 24 08 a1 00 00 	movl   $0xa1,0x8(%esp)
    1bb5:	00 
    1bb6:	c7 44 24 04 43 97 03 	movl   $0x39743,0x4(%esp)
    1bbd:	00 
    1bbe:	c7 04 24 b7 97 03 00 	movl   $0x397b7,(%esp)
    1bc5:	e8 26 2b 03 00       	call   346f0 <assert_abort>
    1bca:	8d b6 00 00 00 00    	lea    0x0(%esi),%esi

00001bd0 <bi_textfile_openread>:
    1bd0:	55                   	push   %ebp
    1bd1:	89 e5                	mov    %esp,%ebp
    1bd3:	57                   	push   %edi
    1bd4:	56                   	push   %esi
    1bd5:	53                   	push   %ebx
    1bd6:	83 ec 1c             	sub    $0x1c,%esp
    1bd9:	c7 04 24 a7 97 03 00 	movl   $0x397a7,(%esp)
    1be0:	e8 0b 2f 01 00       	call   14af0 <strtab_get_sid>
    1be5:	89 44 24 04          	mov    %eax,0x4(%esp)
    1be9:	8b 45 08             	mov    0x8(%ebp),%eax
    1bec:	89 04 24             	mov    %eax,(%esp)
    1bef:	e8 ac b8 00 00       	call   d4a0 <run_local_vars_lookup>
    1bf4:	85 c0                	test   %eax,%eax
    1bf6:	74 6e                	je     1c66 <bi_textfile_openread+0x96>
    1bf8:	83 38 03             	cmpl   $0x3,(%eax)
    1bfb:	0f 85 9d 00 00 00    	jne    1c9e <bi_textfile_openread+0xce>
    1c01:	8b 40 04             	mov    0x4(%eax),%eax
    1c04:	8b 38                	mov    (%eax),%edi
    1c06:	c7 44 24 04 97 e2 03 	movl   $0x3e297,0x4(%esp)
    1c0d:	00 
    1c0e:	89 3c 24             	mov    %edi,(%esp)
    1c11:	e8 fa 08 02 00       	call   22510 <fopen>
    1c16:	89 c6                	mov    %eax,%esi
    1c18:	85 c0                	test   %eax,%eax
    1c1a:	74 66                	je     1c82 <bi_textfile_openread+0xb2>
    1c1c:	e8 3f ab 00 00       	call   c760 <rdata_resource_new>
    1c21:	89 c3                	mov    %eax,%ebx
    1c23:	89 30                	mov    %esi,(%eax)
    1c25:	c7 04 24 09 00 00 00 	movl   $0x9,(%esp)
    1c2c:	e8 8f a8 00 00       	call   c4c0 <rdata_var_new>
    1c31:	89 c7                	mov    %eax,%edi
    1c33:	89 58 04             	mov    %ebx,0x4(%eax)
    1c36:	e8 55 a8 00 00       	call   c490 <rdata_value_new>
    1c3b:	89 c6                	mov    %eax,%esi
    1c3d:	89 38                	mov    %edi,(%eax)
    1c3f:	8b 45 08             	mov    0x8(%ebp),%eax
    1c42:	c7 44 24 04 5c dd 03 	movl   $0x3dd5c,0x4(%esp)
    1c49:	00 
    1c4a:	89 04 24             	mov    %eax,(%esp)
    1c4d:	e8 5e 22 00 00       	call   3eb0 <builtin_get_self_mbr_var>
    1c52:	89 74 24 04          	mov    %esi,0x4(%esp)
    1c56:	89 04 24             	mov    %eax,(%esp)
    1c59:	e8 62 b5 00 00       	call   d1c0 <rdata_var_write>
    1c5e:	83 c4 1c             	add    $0x1c,%esp
    1c61:	5b                   	pop    %ebx
    1c62:	5e                   	pop    %esi
    1c63:	5f                   	pop    %edi
    1c64:	5d                   	pop    %ebp
    1c65:	c3                   	ret    
    1c66:	c7 44 24 08 75 00 00 	movl   $0x75,0x8(%esp)
    1c6d:	00 
    1c6e:	c7 44 24 04 43 97 03 	movl   $0x39743,0x4(%esp)
    1c75:	00 
    1c76:	c7 04 24 ad 97 03 00 	movl   $0x397ad,(%esp)
    1c7d:	e8 6e 2a 03 00       	call   346f0 <assert_abort>
    1c82:	89 7c 24 04          	mov    %edi,0x4(%esp)
    1c86:	c7 04 24 30 99 03 00 	movl   $0x39930,(%esp)
    1c8d:	e8 de 27 02 00       	call   24470 <printf>
    1c92:	c7 04 24 01 00 00 00 	movl   $0x1,(%esp)
    1c99:	e8 02 a0 01 00       	call   1bca0 <exit>
    1c9e:	c7 44 24 08 76 00 00 	movl   $0x76,0x8(%esp)
    1ca5:	00 
    1ca6:	c7 44 24 04 43 97 03 	movl   $0x39743,0x4(%esp)
    1cad:	00 
    1cae:	c7 04 24 b7 97 03 00 	movl   $0x397b7,(%esp)
    1cb5:	e8 36 2a 03 00       	call   346f0 <assert_abort>
    1cba:	8d b6 00 00 00 00    	lea    0x0(%esi),%esi

00001cc0 <bi_textfile_close>:
    1cc0:	55                   	push   %ebp
    1cc1:	89 e5                	mov    %esp,%ebp
    1cc3:	56                   	push   %esi
    1cc4:	53                   	push   %ebx
    1cc5:	83 ec 10             	sub    $0x10,%esp
    1cc8:	8b 75 08             	mov    0x8(%ebp),%esi
    1ccb:	c7 44 24 04 5c dd 03 	movl   $0x3dd5c,0x4(%esp)
    1cd2:	00 
    1cd3:	89 34 24             	mov    %esi,(%esp)
    1cd6:	e8 d5 21 00 00       	call   3eb0 <builtin_get_self_mbr_var>
    1cdb:	89 c3                	mov    %eax,%ebx
    1cdd:	83 38 09             	cmpl   $0x9,(%eax)
    1ce0:	75 34                	jne    1d16 <bi_textfile_close+0x56>
    1ce2:	8b 40 04             	mov    0x4(%eax),%eax
    1ce5:	8b 00                	mov    (%eax),%eax
    1ce7:	85 c0                	test   %eax,%eax
    1ce9:	74 5f                	je     1d4a <bi_textfile_close+0x8a>
    1ceb:	89 04 24             	mov    %eax,(%esp)
    1cee:	e8 0d 0b 02 00       	call   22800 <fclose>
    1cf3:	85 c0                	test   %eax,%eax
    1cf5:	75 3b                	jne    1d32 <bi_textfile_close+0x72>
    1cf7:	8b 43 04             	mov    0x4(%ebx),%eax
    1cfa:	c7 00 00 00 00 00    	movl   $0x0,(%eax)
    1d00:	89 34 24             	mov    %esi,(%esp)
    1d03:	e8 08 b8 00 00       	call   d510 <run_get_current_proc_ar>
    1d08:	c7 40 14 00 00 00 00 	movl   $0x0,0x14(%eax)
    1d0f:	83 c4 10             	add    $0x10,%esp
    1d12:	5b                   	pop    %ebx
    1d13:	5e                   	pop    %esi
    1d14:	5d                   	pop    %ebp
    1d15:	c3                   	ret    
    1d16:	c7 44 24 08 c4 00 00 	movl   $0xc4,0x8(%esp)
    1d1d:	00 
    1d1e:	c7 44 24 04 43 97 03 	movl   $0x39743,0x4(%esp)
    1d25:	00 
    1d26:	c7 04 24 5d 97 03 00 	movl   $0x3975d,(%esp)
    1d2d:	e8 be 29 03 00       	call   346f0 <assert_abort>
    1d32:	c7 04 24 88 99 03 00 	movl   $0x39988,(%esp)
    1d39:	e8 32 27 02 00       	call   24470 <printf>
    1d3e:	c7 04 24 01 00 00 00 	movl   $0x1,(%esp)
    1d45:	e8 56 9f 01 00       	call   1bca0 <exit>
    1d4a:	c7 04 24 60 99 03 00 	movl   $0x39960,(%esp)
    1d51:	e8 1a 27 02 00       	call   24470 <printf>
    1d56:	c7 04 24 01 00 00 00 	movl   $0x1,(%esp)
    1d5d:	e8 3e 9f 01 00       	call   1bca0 <exit>
    1d62:	8d b4 26 00 00 00 00 	lea    0x0(%esi,%eiz,1),%esi
    1d69:	8d bc 27 00 00 00 00 	lea    0x0(%edi,%eiz,1),%edi

00001d70 <bi_textfile_declare>:
    1d70:	55                   	push   %ebp
    1d71:	89 e5                	mov    %esp,%ebp
    1d73:	83 ec 18             	sub    $0x18,%esp
    1d76:	8b 45 08             	mov    0x8(%ebp),%eax
    1d79:	c7 44 24 04 b0 99 03 	movl   $0x399b0,0x4(%esp)
    1d80:	00 
    1d81:	89 04 24             	mov    %eax,(%esp)
    1d84:	e8 47 1e 00 00       	call   3bd0 <builtin_code_snippet>
    1d89:	c9                   	leave  
    1d8a:	c3                   	ret    
    1d8b:	90                   	nop
    1d8c:	8d 74 26 00          	lea    0x0(%esi,%eiz,1),%esi

00001d90 <bi_textfile_bind>:
    1d90:	55                   	push   %ebp
    1d91:	89 e5                	mov    %esp,%ebp
    1d93:	53                   	push   %ebx
    1d94:	83 ec 14             	sub    $0x14,%esp
    1d97:	8b 5d 08             	mov    0x8(%ebp),%ebx
    1d9a:	89 1c 24             	mov    %ebx,(%esp)
    1d9d:	c7 44 24 0c d0 1b 00 	movl   $0x1bd0,0xc(%esp)
    1da4:	00 
    1da5:	c7 44 24 08 d5 97 03 	movl   $0x397d5,0x8(%esp)
    1dac:	00 
    1dad:	c7 44 24 04 de 97 03 	movl   $0x397de,0x4(%esp)
    1db4:	00 
    1db5:	e8 a6 1f 00 00       	call   3d60 <builtin_fun_bind>
    1dba:	89 1c 24             	mov    %ebx,(%esp)
    1dbd:	c7 44 24 0c e0 1a 00 	movl   $0x1ae0,0xc(%esp)
    1dc4:	00 
    1dc5:	c7 44 24 08 e7 97 03 	movl   $0x397e7,0x8(%esp)
    1dcc:	00 
    1dcd:	c7 44 24 04 de 97 03 	movl   $0x397de,0x4(%esp)
    1dd4:	00 
    1dd5:	e8 86 1f 00 00       	call   3d60 <builtin_fun_bind>
    1dda:	89 1c 24             	mov    %ebx,(%esp)
    1ddd:	c7 44 24 0c c0 1c 00 	movl   $0x1cc0,0xc(%esp)
    1de4:	00 
    1de5:	c7 44 24 08 f1 97 03 	movl   $0x397f1,0x8(%esp)
    1dec:	00 
    1ded:	c7 44 24 04 de 97 03 	movl   $0x397de,0x4(%esp)
    1df4:	00 
    1df5:	e8 66 1f 00 00       	call   3d60 <builtin_fun_bind>
    1dfa:	89 1c 24             	mov    %ebx,(%esp)
    1dfd:	c7 44 24 0c 80 19 00 	movl   $0x1980,0xc(%esp)
    1e04:	00 
    1e05:	c7 44 24 08 f7 97 03 	movl   $0x397f7,0x8(%esp)
    1e0c:	00 
    1e0d:	c7 44 24 04 de 97 03 	movl   $0x397de,0x4(%esp)
    1e14:	00 
    1e15:	e8 46 1f 00 00       	call   3d60 <builtin_fun_bind>
    1e1a:	89 1c 24             	mov    %ebx,(%esp)
    1e1d:	c7 44 24 0c 70 18 00 	movl   $0x1870,0xc(%esp)
    1e24:	00 
    1e25:	c7 44 24 08 88 95 03 	movl   $0x39588,0x8(%esp)
    1e2c:	00 
    1e2d:	c7 44 24 04 de 97 03 	movl   $0x397de,0x4(%esp)
    1e34:	00 
    1e35:	e8 26 1f 00 00       	call   3d60 <builtin_fun_bind>
    1e3a:	89 1c 24             	mov    %ebx,(%esp)
    1e3d:	c7 44 24 0c b0 17 00 	movl   $0x17b0,0xc(%esp)
    1e44:	00 
    1e45:	c7 44 24 08 00 98 03 	movl   $0x39800,0x8(%esp)
    1e4c:	00 
    1e4d:	c7 44 24 04 de 97 03 	movl   $0x397de,0x4(%esp)
    1e54:	00 
    1e55:	e8 06 1f 00 00       	call   3d60 <builtin_fun_bind>
    1e5a:	83 c4 14             	add    $0x14,%esp
    1e5d:	5b                   	pop    %ebx
    1e5e:	5d                   	pop    %ebp
    1e5f:	c3                   	ret    

00001e60 <bi_string_slice>:
    1e60:	55                   	push   %ebp
    1e61:	89 e5                	mov    %esp,%ebp
    1e63:	57                   	push   %edi
    1e64:	56                   	push   %esi
    1e65:	53                   	push   %ebx
    1e66:	83 ec 2c             	sub    $0x2c,%esp
    1e69:	8b 5d 08             	mov    0x8(%ebp),%ebx
    1e6c:	c7 44 24 04 13 95 03 	movl   $0x39513,0x4(%esp)
    1e73:	00 
    1e74:	89 1c 24             	mov    %ebx,(%esp)
    1e77:	e8 34 20 00 00       	call   3eb0 <builtin_get_self_mbr_var>
    1e7c:	83 38 03             	cmpl   $0x3,(%eax)
    1e7f:	0f 85 fd 00 00 00    	jne    1f82 <bi_string_slice+0x122>
    1e85:	8b 40 04             	mov    0x4(%eax),%eax
    1e88:	8b 30                	mov    (%eax),%esi
    1e8a:	89 34 24             	mov    %esi,(%esp)
    1e8d:	e8 fe 03 00 00       	call   2290 <os_str_length>
    1e92:	c7 04 24 94 e2 03 00 	movl   $0x3e294,(%esp)
    1e99:	89 c7                	mov    %eax,%edi
    1e9b:	e8 50 2c 01 00       	call   14af0 <strtab_get_sid>
    1ea0:	89 1c 24             	mov    %ebx,(%esp)
    1ea3:	89 44 24 04          	mov    %eax,0x4(%esp)
    1ea7:	e8 f4 b5 00 00       	call   d4a0 <run_local_vars_lookup>
    1eac:	85 c0                	test   %eax,%eax
    1eae:	0f 84 06 01 00 00    	je     1fba <bi_string_slice+0x15a>
    1eb4:	83 38 02             	cmpl   $0x2,(%eax)
    1eb7:	0f 85 e1 00 00 00    	jne    1f9e <bi_string_slice+0x13e>
    1ebd:	8d 55 e0             	lea    -0x20(%ebp),%edx
    1ec0:	89 54 24 04          	mov    %edx,0x4(%esp)
    1ec4:	8b 40 04             	mov    0x4(%eax),%eax
    1ec7:	89 04 24             	mov    %eax,(%esp)
    1eca:	e8 11 12 00 00       	call   30e0 <bigint_get_value_int>
    1ecf:	85 c0                	test   %eax,%eax
    1ed1:	75 7f                	jne    1f52 <bi_string_slice+0xf2>
    1ed3:	8b 45 e0             	mov    -0x20(%ebp),%eax
    1ed6:	85 c0                	test   %eax,%eax
    1ed8:	78 78                	js     1f52 <bi_string_slice+0xf2>
    1eda:	39 c7                	cmp    %eax,%edi
    1edc:	72 74                	jb     1f52 <bi_string_slice+0xf2>
    1ede:	c7 04 24 3d 9b 03 00 	movl   $0x39b3d,(%esp)
    1ee5:	e8 06 2c 01 00       	call   14af0 <strtab_get_sid>
    1eea:	89 1c 24             	mov    %ebx,(%esp)
    1eed:	89 44 24 04          	mov    %eax,0x4(%esp)
    1ef1:	e8 aa b5 00 00       	call   d4a0 <run_local_vars_lookup>
    1ef6:	85 c0                	test   %eax,%eax
    1ef8:	0f 84 f4 00 00 00    	je     1ff2 <bi_string_slice+0x192>
    1efe:	83 38 02             	cmpl   $0x2,(%eax)
    1f01:	0f 85 cf 00 00 00    	jne    1fd6 <bi_string_slice+0x176>
    1f07:	8d 55 e4             	lea    -0x1c(%ebp),%edx
    1f0a:	89 54 24 04          	mov    %edx,0x4(%esp)
    1f0e:	8b 40 04             	mov    0x4(%eax),%eax
    1f11:	89 04 24             	mov    %eax,(%esp)
    1f14:	e8 c7 11 00 00       	call   30e0 <bigint_get_value_int>
    1f19:	85 c0                	test   %eax,%eax
    1f1b:	75 4d                	jne    1f6a <bi_string_slice+0x10a>
    1f1d:	8b 45 e4             	mov    -0x1c(%ebp),%eax
    1f20:	85 c0                	test   %eax,%eax
    1f22:	78 46                	js     1f6a <bi_string_slice+0x10a>
    1f24:	8b 55 e0             	mov    -0x20(%ebp),%edx
    1f27:	8d 0c 10             	lea    (%eax,%edx,1),%ecx
    1f2a:	39 cf                	cmp    %ecx,%edi
    1f2c:	72 3c                	jb     1f6a <bi_string_slice+0x10a>
    1f2e:	89 54 24 04          	mov    %edx,0x4(%esp)
    1f32:	89 34 24             	mov    %esi,(%esp)
    1f35:	89 44 24 08          	mov    %eax,0x8(%esp)
    1f39:	e8 62 02 00 00       	call   21a0 <os_str_aslice>
    1f3e:	89 1c 24             	mov    %ebx,(%esp)
    1f41:	89 44 24 04          	mov    %eax,0x4(%esp)
    1f45:	e8 e6 1f 00 00       	call   3f30 <builtin_return_string>
    1f4a:	83 c4 2c             	add    $0x2c,%esp
    1f4d:	5b                   	pop    %ebx
    1f4e:	5e                   	pop    %esi
    1f4f:	5f                   	pop    %edi
    1f50:	5d                   	pop    %ebp
    1f51:	c3                   	ret    
    1f52:	c7 04 24 6c 9b 03 00 	movl   $0x39b6c,(%esp)
    1f59:	e8 12 25 02 00       	call   24470 <printf>
    1f5e:	c7 04 24 01 00 00 00 	movl   $0x1,(%esp)
    1f65:	e8 36 9d 01 00       	call   1bca0 <exit>
    1f6a:	c7 04 24 a0 9b 03 00 	movl   $0x39ba0,(%esp)
    1f71:	e8 fa 24 02 00       	call   24470 <printf>
    1f76:	c7 04 24 01 00 00 00 	movl   $0x1,(%esp)
    1f7d:	e8 1e 9d 01 00       	call   1bca0 <exit>
    1f82:	c7 44 24 08 83 00 00 	movl   $0x83,0x8(%esp)
    1f89:	00 
    1f8a:	c7 44 24 04 db 9a 03 	movl   $0x39adb,0x4(%esp)
    1f91:	00 
    1f92:	c7 04 24 4c 9b 03 00 	movl   $0x39b4c,(%esp)
    1f99:	e8 52 27 03 00       	call   346f0 <assert_abort>
    1f9e:	c7 44 24 08 8a 00 00 	movl   $0x8a,0x8(%esp)
    1fa5:	00 
    1fa6:	c7 44 24 04 db 9a 03 	movl   $0x39adb,0x4(%esp)
    1fad:	00 
    1fae:	c7 04 24 fd 9a 03 00 	movl   $0x39afd,(%esp)
    1fb5:	e8 36 27 03 00       	call   346f0 <assert_abort>
    1fba:	c7 44 24 08 89 00 00 	movl   $0x89,0x8(%esp)
    1fc1:	00 
    1fc2:	c7 44 24 04 db 9a 03 	movl   $0x39adb,0x4(%esp)
    1fc9:	00 
    1fca:	c7 04 24 f3 9a 03 00 	movl   $0x39af3,(%esp)
    1fd1:	e8 1a 27 03 00       	call   346f0 <assert_abort>
    1fd6:	c7 44 24 08 95 00 00 	movl   $0x95,0x8(%esp)
    1fdd:	00 
    1fde:	c7 44 24 04 db 9a 03 	movl   $0x39adb,0x4(%esp)
    1fe5:	00 
    1fe6:	c7 04 24 20 9b 03 00 	movl   $0x39b20,(%esp)
    1fed:	e8 fe 26 03 00       	call   346f0 <assert_abort>
    1ff2:	c7 44 24 08 94 00 00 	movl   $0x94,0x8(%esp)
    1ff9:	00 
    1ffa:	c7 44 24 04 db 9a 03 	movl   $0x39adb,0x4(%esp)
    2001:	00 
    2002:	c7 04 24 15 9b 03 00 	movl   $0x39b15,(%esp)
    2009:	e8 e2 26 03 00       	call   346f0 <assert_abort>
    200e:	66 90                	xchg   %ax,%ax

00002010 <bi_string_length>:
    2010:	55                   	push   %ebp
    2011:	89 e5                	mov    %esp,%ebp
    2013:	57                   	push   %edi
    2014:	56                   	push   %esi
    2015:	53                   	push   %ebx
    2016:	83 ec 1c             	sub    $0x1c,%esp
    2019:	8b 5d 08             	mov    0x8(%ebp),%ebx
    201c:	c7 44 24 04 13 95 03 	movl   $0x39513,0x4(%esp)
    2023:	00 
    2024:	89 1c 24             	mov    %ebx,(%esp)
    2027:	e8 84 1e 00 00       	call   3eb0 <builtin_get_self_mbr_var>
    202c:	83 38 03             	cmpl   $0x3,(%eax)
    202f:	75 60                	jne    2091 <bi_string_length+0x81>
    2031:	8b 40 04             	mov    0x4(%eax),%eax
    2034:	8b 00                	mov    (%eax),%eax
    2036:	89 04 24             	mov    %eax,(%esp)
    2039:	e8 52 02 00 00       	call   2290 <os_str_length>
    203e:	89 c6                	mov    %eax,%esi
    2040:	e8 9b a6 00 00       	call   c6e0 <rdata_int_new>
    2045:	89 74 24 04          	mov    %esi,0x4(%esp)
    2049:	89 04 24             	mov    %eax,(%esp)
    204c:	89 c7                	mov    %eax,%edi
    204e:	e8 bd 0e 00 00       	call   2f10 <bigint_init>
    2053:	c7 04 24 02 00 00 00 	movl   $0x2,(%esp)
    205a:	e8 61 a4 00 00       	call   c4c0 <rdata_var_new>
    205f:	89 c6                	mov    %eax,%esi
    2061:	89 78 04             	mov    %edi,0x4(%eax)
    2064:	e8 27 a4 00 00       	call   c490 <rdata_value_new>
    2069:	89 c7                	mov    %eax,%edi
    206b:	89 30                	mov    %esi,(%eax)
    206d:	c7 04 24 01 00 00 00 	movl   $0x1,(%esp)
    2074:	e8 97 a2 00 00       	call   c310 <rdata_item_new>
    2079:	89 c6                	mov    %eax,%esi
    207b:	89 78 04             	mov    %edi,0x4(%eax)
    207e:	89 1c 24             	mov    %ebx,(%esp)
    2081:	e8 8a b4 00 00       	call   d510 <run_get_current_proc_ar>
    2086:	89 70 14             	mov    %esi,0x14(%eax)
    2089:	83 c4 1c             	add    $0x1c,%esp
    208c:	5b                   	pop    %ebx
    208d:	5e                   	pop    %esi
    208e:	5f                   	pop    %edi
    208f:	5d                   	pop    %ebp
    2090:	c3                   	ret    
    2091:	c7 44 24 08 56 00 00 	movl   $0x56,0x8(%esp)
    2098:	00 
    2099:	c7 44 24 04 db 9a 03 	movl   $0x39adb,0x4(%esp)
    20a0:	00 
    20a1:	c7 04 24 4c 9b 03 00 	movl   $0x39b4c,(%esp)
    20a8:	e8 43 26 03 00       	call   346f0 <assert_abort>
    20ad:	8d 76 00             	lea    0x0(%esi),%esi

000020b0 <bi_string_declare>:
    20b0:	55                   	push   %ebp
    20b1:	89 e5                	mov    %esp,%ebp
    20b3:	5d                   	pop    %ebp
    20b4:	c3                   	ret    
    20b5:	8d 74 26 00          	lea    0x0(%esi,%eiz,1),%esi
    20b9:	8d bc 27 00 00 00 00 	lea    0x0(%edi,%eiz,1),%edi

000020c0 <bi_string_bind>:
    20c0:	55                   	push   %ebp
    20c1:	89 e5                	mov    %esp,%ebp
    20c3:	53                   	push   %ebx
    20c4:	83 ec 14             	sub    $0x14,%esp
    20c7:	8b 5d 08             	mov    0x8(%ebp),%ebx
    20ca:	89 1c 24             	mov    %ebx,(%esp)
    20cd:	c7 44 24 0c 10 20 00 	movl   $0x2010,0xc(%esp)
    20d4:	00 
    20d5:	c7 44 24 08 39 9b 03 	movl   $0x39b39,0x8(%esp)
    20dc:	00 
    20dd:	c7 44 24 04 30 94 03 	movl   $0x39430,0x4(%esp)
    20e4:	00 
    20e5:	e8 76 1c 00 00       	call   3d60 <builtin_fun_bind>
    20ea:	89 1c 24             	mov    %ebx,(%esp)
    20ed:	c7 44 24 0c 60 1e 00 	movl   $0x1e60,0xc(%esp)
    20f4:	00 
    20f5:	c7 44 24 08 44 9b 03 	movl   $0x39b44,0x8(%esp)
    20fc:	00 
    20fd:	c7 44 24 04 30 94 03 	movl   $0x39430,0x4(%esp)
    2104:	00 
    2105:	e8 56 1c 00 00       	call   3d60 <builtin_fun_bind>
    210a:	83 c4 14             	add    $0x14,%esp
    210d:	5b                   	pop    %ebx
    210e:	5d                   	pop    %ebp
    210f:	c3                   	ret    

00002110 <os_str_acat>:
    2110:	55                   	push   %ebp
    2111:	89 e5                	mov    %esp,%ebp
    2113:	57                   	push   %edi
    2114:	56                   	push   %esi
    2115:	53                   	push   %ebx
    2116:	83 ec 2c             	sub    $0x2c,%esp
    2119:	8b 45 08             	mov    0x8(%ebp),%eax
    211c:	89 04 24             	mov    %eax,(%esp)
    211f:	e8 ec b0 01 00       	call   1d210 <str_size>
    2124:	89 c3                	mov    %eax,%ebx
    2126:	8b 45 0c             	mov    0xc(%ebp),%eax
    2129:	89 04 24             	mov    %eax,(%esp)
    212c:	e8 df b0 01 00       	call   1d210 <str_size>
    2131:	89 c7                	mov    %eax,%edi
    2133:	8d 04 03             	lea    (%ebx,%eax,1),%eax
    2136:	89 45 e4             	mov    %eax,-0x1c(%ebp)
    2139:	40                   	inc    %eax
    213a:	89 04 24             	mov    %eax,(%esp)
    213d:	e8 de 79 02 00       	call   29b20 <malloc>
    2142:	89 c6                	mov    %eax,%esi
    2144:	85 c0                	test   %eax,%eax
    2146:	74 39                	je     2181 <os_str_acat+0x71>
    2148:	8b 45 08             	mov    0x8(%ebp),%eax
    214b:	89 5c 24 08          	mov    %ebx,0x8(%esp)
    214f:	89 34 24             	mov    %esi,(%esp)
    2152:	89 44 24 04          	mov    %eax,0x4(%esp)
    2156:	e8 a5 a2 01 00       	call   1c400 <memcpy>
    215b:	01 f3                	add    %esi,%ebx
    215d:	8b 45 0c             	mov    0xc(%ebp),%eax
    2160:	89 7c 24 08          	mov    %edi,0x8(%esp)
    2164:	89 1c 24             	mov    %ebx,(%esp)
    2167:	89 44 24 04          	mov    %eax,0x4(%esp)
    216b:	e8 90 a2 01 00       	call   1c400 <memcpy>
    2170:	8b 45 e4             	mov    -0x1c(%ebp),%eax
    2173:	c6 04 06 00          	movb   $0x0,(%esi,%eax,1)
    2177:	83 c4 2c             	add    $0x2c,%esp
    217a:	89 f0                	mov    %esi,%eax
    217c:	5b                   	pop    %ebx
    217d:	5e                   	pop    %esi
    217e:	5f                   	pop    %edi
    217f:	5d                   	pop    %ebp
    2180:	c3                   	ret    
    2181:	c7 04 24 d4 9b 03 00 	movl   $0x39bd4,(%esp)
    2188:	e8 e3 22 02 00       	call   24470 <printf>
    218d:	c7 04 24 01 00 00 00 	movl   $0x1,(%esp)
    2194:	e8 07 9b 01 00       	call   1bca0 <exit>
    2199:	8d b4 26 00 00 00 00 	lea    0x0(%esi,%eiz,1),%esi

000021a0 <os_str_aslice>:
    21a0:	55                   	push   %ebp
    21a1:	89 e5                	mov    %esp,%ebp
    21a3:	57                   	push   %edi
    21a4:	56                   	push   %esi
    21a5:	53                   	push   %ebx
    21a6:	83 ec 2c             	sub    $0x2c,%esp
    21a9:	8b 75 08             	mov    0x8(%ebp),%esi
    21ac:	8b 5d 10             	mov    0x10(%ebp),%ebx
    21af:	8b 4d 0c             	mov    0xc(%ebp),%ecx
    21b2:	89 34 24             	mov    %esi,(%esp)
    21b5:	01 cb                	add    %ecx,%ebx
    21b7:	e8 34 b2 01 00       	call   1d3f0 <str_length>
    21bc:	39 c3                	cmp    %eax,%ebx
    21be:	0f 87 97 00 00 00    	ja     225b <os_str_aslice+0xbb>
    21c4:	8b 55 0c             	mov    0xc(%ebp),%edx
    21c7:	31 db                	xor    %ebx,%ebx
    21c9:	c7 45 e4 00 00 00 00 	movl   $0x0,-0x1c(%ebp)
    21d0:	8d 7d e4             	lea    -0x1c(%ebp),%edi
    21d3:	85 d2                	test   %edx,%edx
    21d5:	74 24                	je     21fb <os_str_aslice+0x5b>
    21d7:	90                   	nop
    21d8:	c7 44 24 08 ff ff ff 	movl   $0xffffffff,0x8(%esp)
    21df:	ff 
    21e0:	89 7c 24 04          	mov    %edi,0x4(%esp)
    21e4:	89 34 24             	mov    %esi,(%esp)
    21e7:	e8 e4 ab 01 00       	call   1cdd0 <str_decode>
    21ec:	85 c0                	test   %eax,%eax
    21ee:	74 33                	je     2223 <os_str_aslice+0x83>
    21f0:	83 f8 3f             	cmp    $0x3f,%eax
    21f3:	74 4a                	je     223f <os_str_aslice+0x9f>
    21f5:	43                   	inc    %ebx
    21f6:	3b 5d 0c             	cmp    0xc(%ebp),%ebx
    21f9:	75 dd                	jne    21d8 <os_str_aslice+0x38>
    21fb:	8b 45 10             	mov    0x10(%ebp),%eax
    21fe:	89 34 24             	mov    %esi,(%esp)
    2201:	89 44 24 04          	mov    %eax,0x4(%esp)
    2205:	e8 46 b0 01 00       	call   1d250 <str_lsize>
    220a:	89 44 24 04          	mov    %eax,0x4(%esp)
    220e:	8b 45 e4             	mov    -0x1c(%ebp),%eax
    2211:	01 c6                	add    %eax,%esi
    2213:	89 34 24             	mov    %esi,(%esp)
    2216:	e8 f5 cf 01 00       	call   1f210 <str_ndup>
    221b:	83 c4 2c             	add    $0x2c,%esp
    221e:	5b                   	pop    %ebx
    221f:	5e                   	pop    %esi
    2220:	5f                   	pop    %edi
    2221:	5d                   	pop    %ebp
    2222:	c3                   	ret    
    2223:	c7 44 24 08 67 00 00 	movl   $0x67,0x8(%esp)
    222a:	00 
    222b:	c7 44 24 04 ee 9b 03 	movl   $0x39bee,0x4(%esp)
    2232:	00 
    2233:	c7 04 24 ff 9b 03 00 	movl   $0x39bff,(%esp)
    223a:	e8 b1 24 03 00       	call   346f0 <assert_abort>
    223f:	c7 44 24 08 68 00 00 	movl   $0x68,0x8(%esp)
    2246:	00 
    2247:	c7 44 24 04 ee 9b 03 	movl   $0x39bee,0x4(%esp)
    224e:	00 
    224f:	c7 04 24 09 9c 03 00 	movl   $0x39c09,(%esp)
    2256:	e8 95 24 03 00       	call   346f0 <assert_abort>
    225b:	c7 44 24 08 62 00 00 	movl   $0x62,0x8(%esp)
    2262:	00 
    2263:	c7 44 24 04 ee 9b 03 	movl   $0x39bee,0x4(%esp)
    226a:	00 
    226b:	c7 04 24 58 9c 03 00 	movl   $0x39c58,(%esp)
    2272:	e8 79 24 03 00       	call   346f0 <assert_abort>
    2277:	89 f6                	mov    %esi,%esi
    2279:	8d bc 27 00 00 00 00 	lea    0x0(%edi,%eiz,1),%edi

00002280 <os_str_cmp>:
    2280:	55                   	push   %ebp
    2281:	89 e5                	mov    %esp,%ebp
    2283:	5d                   	pop    %ebp
    2284:	e9 b7 b4 01 00       	jmp    1d740 <str_cmp>
    2289:	8d b4 26 00 00 00 00 	lea    0x0(%esi,%eiz,1),%esi

00002290 <os_str_length>:
    2290:	55                   	push   %ebp
    2291:	89 e5                	mov    %esp,%ebp
    2293:	5d                   	pop    %ebp
    2294:	e9 57 b1 01 00       	jmp    1d3f0 <str_length>
    2299:	8d b4 26 00 00 00 00 	lea    0x0(%esi,%eiz,1),%esi

000022a0 <os_str_dup>:
    22a0:	55                   	push   %ebp
    22a1:	89 e5                	mov    %esp,%ebp
    22a3:	5d                   	pop    %ebp
    22a4:	e9 07 cf 01 00       	jmp    1f1b0 <str_dup>
    22a9:	8d b4 26 00 00 00 00 	lea    0x0(%esi,%eiz,1),%esi

000022b0 <os_str_get_char>:
    22b0:	55                   	push   %ebp
    22b1:	89 e5                	mov    %esp,%ebp
    22b3:	57                   	push   %edi
    22b4:	56                   	push   %esi
    22b5:	53                   	push   %ebx
    22b6:	83 ec 2c             	sub    $0x2c,%esp
    22b9:	8b 5d 0c             	mov    0xc(%ebp),%ebx
    22bc:	8b 75 08             	mov    0x8(%ebp),%esi
    22bf:	85 db                	test   %ebx,%ebx
    22c1:	78 45                	js     2308 <os_str_get_char+0x58>
    22c3:	c7 45 e4 00 00 00 00 	movl   $0x0,-0x1c(%ebp)
    22ca:	31 db                	xor    %ebx,%ebx
    22cc:	8d 7d e4             	lea    -0x1c(%ebp),%edi
    22cf:	90                   	nop
    22d0:	c7 44 24 08 ff ff ff 	movl   $0xffffffff,0x8(%esp)
    22d7:	ff 
    22d8:	89 7c 24 04          	mov    %edi,0x4(%esp)
    22dc:	89 34 24             	mov    %esi,(%esp)
    22df:	e8 ec aa 01 00       	call   1cdd0 <str_decode>
    22e4:	85 c0                	test   %eax,%eax
    22e6:	74 20                	je     2308 <os_str_get_char+0x58>
    22e8:	83 f8 3f             	cmp    $0x3f,%eax
    22eb:	74 2b                	je     2318 <os_str_get_char+0x68>
    22ed:	43                   	inc    %ebx
    22ee:	39 5d 0c             	cmp    %ebx,0xc(%ebp)
    22f1:	7d dd                	jge    22d0 <os_str_get_char+0x20>
    22f3:	8b 55 10             	mov    0x10(%ebp),%edx
    22f6:	89 02                	mov    %eax,(%edx)
    22f8:	83 c4 2c             	add    $0x2c,%esp
    22fb:	31 c0                	xor    %eax,%eax
    22fd:	5b                   	pop    %ebx
    22fe:	5e                   	pop    %esi
    22ff:	5f                   	pop    %edi
    2300:	5d                   	pop    %ebp
    2301:	c3                   	ret    
    2302:	8d b6 00 00 00 00    	lea    0x0(%esi),%esi
    2308:	83 c4 2c             	add    $0x2c,%esp
    230b:	b8 f2 ff ff ff       	mov    $0xfffffff2,%eax
    2310:	5b                   	pop    %ebx
    2311:	5e                   	pop    %esi
    2312:	5f                   	pop    %edi
    2313:	5d                   	pop    %ebp
    2314:	c3                   	ret    
    2315:	8d 76 00             	lea    0x0(%esi),%esi
    2318:	83 c4 2c             	add    $0x2c,%esp
    231b:	b8 f7 fe ff ff       	mov    $0xfffffef7,%eax
    2320:	5b                   	pop    %ebx
    2321:	5e                   	pop    %esi
    2322:	5f                   	pop    %edi
    2323:	5d                   	pop    %ebp
    2324:	c3                   	ret    
    2325:	8d 74 26 00          	lea    0x0(%esi,%eiz,1),%esi
    2329:	8d bc 27 00 00 00 00 	lea    0x0(%edi,%eiz,1),%edi

00002330 <os_chr_to_astr>:
    2330:	55                   	push   %ebp
    2331:	89 e5                	mov    %esp,%ebp
    2333:	53                   	push   %ebx
    2334:	83 ec 24             	sub    $0x24,%esp
    2337:	c7 04 24 05 00 00 00 	movl   $0x5,(%esp)
    233e:	e8 dd 77 02 00       	call   29b20 <malloc>
    2343:	89 c3                	mov    %eax,%ebx
    2345:	85 c0                	test   %eax,%eax
    2347:	74 38                	je     2381 <os_chr_to_astr+0x51>
    2349:	8d 45 f4             	lea    -0xc(%ebp),%eax
    234c:	c7 44 24 0c 04 00 00 	movl   $0x4,0xc(%esp)
    2353:	00 
    2354:	89 44 24 08          	mov    %eax,0x8(%esp)
    2358:	8b 45 08             	mov    0x8(%ebp),%eax
    235b:	89 5c 24 04          	mov    %ebx,0x4(%esp)
    235f:	89 04 24             	mov    %eax,(%esp)
    2362:	c7 45 f4 00 00 00 00 	movl   $0x0,-0xc(%ebp)
    2369:	e8 b2 ad 01 00       	call   1d120 <chr_encode>
    236e:	85 c0                	test   %eax,%eax
    2370:	75 27                	jne    2399 <os_chr_to_astr+0x69>
    2372:	8b 45 f4             	mov    -0xc(%ebp),%eax
    2375:	c6 04 03 00          	movb   $0x0,(%ebx,%eax,1)
    2379:	83 c4 24             	add    $0x24,%esp
    237c:	89 d8                	mov    %ebx,%eax
    237e:	5b                   	pop    %ebx
    237f:	5d                   	pop    %ebp
    2380:	c3                   	ret    
    2381:	c7 04 24 d4 9b 03 00 	movl   $0x39bd4,(%esp)
    2388:	e8 e3 20 02 00       	call   24470 <printf>
    238d:	c7 04 24 01 00 00 00 	movl   $0x1,(%esp)
    2394:	e8 07 99 01 00       	call   1bca0 <exit>
    2399:	c7 04 24 18 9c 03 00 	movl   $0x39c18,(%esp)
    23a0:	e8 cb 20 02 00       	call   24470 <printf>
    23a5:	c7 04 24 01 00 00 00 	movl   $0x1,(%esp)
    23ac:	e8 ef 98 01 00       	call   1bca0 <exit>
    23b1:	eb 0d                	jmp    23c0 <os_input_disp_help>
    23b3:	90                   	nop
    23b4:	90                   	nop
    23b5:	90                   	nop
    23b6:	90                   	nop
    23b7:	90                   	nop
    23b8:	90                   	nop
    23b9:	90                   	nop
    23ba:	90                   	nop
    23bb:	90                   	nop
    23bc:	90                   	nop
    23bd:	90                   	nop
    23be:	90                   	nop
    23bf:	90                   	nop

000023c0 <os_input_disp_help>:
    23c0:	55                   	push   %ebp
    23c1:	89 e5                	mov    %esp,%ebp
    23c3:	83 ec 18             	sub    $0x18,%esp
    23c6:	c7 04 24 32 9c 03 00 	movl   $0x39c32,(%esp)
    23cd:	e8 9e 20 02 00       	call   24470 <printf>
    23d2:	c9                   	leave  
    23d3:	c3                   	ret    
    23d4:	8d b6 00 00 00 00    	lea    0x0(%esi),%esi
    23da:	8d bf 00 00 00 00    	lea    0x0(%edi),%edi

000023e0 <os_input_line>:
    23e0:	55                   	push   %ebp
    23e1:	89 e5                	mov    %esp,%ebp
    23e3:	57                   	push   %edi
    23e4:	56                   	push   %esi
    23e5:	53                   	push   %ebx
    23e6:	83 ec 3c             	sub    $0x3c,%esp
    23e9:	a1 a0 08 04 00       	mov    0x408a0,%eax
    23ee:	85 c0                	test   %eax,%eax
    23f0:	0f 84 aa 00 00 00    	je     24a0 <os_input_line+0xc0>
    23f6:	8d 55 e4             	lea    -0x1c(%ebp),%edx
    23f9:	89 04 24             	mov    %eax,(%esp)
    23fc:	89 54 24 04          	mov    %edx,0x4(%esp)
    2400:	e8 2b 86 01 00       	call   1aa30 <tinput_read>
    2405:	83 f8 ff             	cmp    $0xffffffff,%eax
    2408:	0f 84 ba 00 00 00    	je     24c8 <os_input_line+0xe8>
    240e:	85 c0                	test   %eax,%eax
    2410:	0f 85 ca 00 00 00    	jne    24e0 <os_input_line+0x100>
    2416:	8b 4d e4             	mov    -0x1c(%ebp),%ecx
    2419:	89 0c 24             	mov    %ecx,(%esp)
    241c:	89 4d d0             	mov    %ecx,-0x30(%ebp)
    241f:	e8 ec ad 01 00       	call   1d210 <str_size>
    2424:	c7 04 24 18 9f 03 00 	movl   $0x39f18,(%esp)
    242b:	89 c3                	mov    %eax,%ebx
    242d:	e8 de ad 01 00       	call   1d210 <str_size>
    2432:	89 c7                	mov    %eax,%edi
    2434:	8d 14 03             	lea    (%ebx,%eax,1),%edx
    2437:	89 d0                	mov    %edx,%eax
    2439:	89 55 d4             	mov    %edx,-0x2c(%ebp)
    243c:	40                   	inc    %eax
    243d:	89 04 24             	mov    %eax,(%esp)
    2440:	e8 db 76 02 00       	call   29b20 <malloc>
    2445:	8b 4d d0             	mov    -0x30(%ebp),%ecx
    2448:	89 c6                	mov    %eax,%esi
    244a:	85 c0                	test   %eax,%eax
    244c:	0f 84 95 00 00 00    	je     24e7 <os_input_line+0x107>
    2452:	89 4c 24 04          	mov    %ecx,0x4(%esp)
    2456:	89 5c 24 08          	mov    %ebx,0x8(%esp)
    245a:	89 04 24             	mov    %eax,(%esp)
    245d:	01 f3                	add    %esi,%ebx
    245f:	e8 9c 9f 01 00       	call   1c400 <memcpy>
    2464:	89 7c 24 08          	mov    %edi,0x8(%esp)
    2468:	c7 44 24 04 18 9f 03 	movl   $0x39f18,0x4(%esp)
    246f:	00 
    2470:	89 1c 24             	mov    %ebx,(%esp)
    2473:	e8 88 9f 01 00       	call   1c400 <memcpy>
    2478:	8b 45 0c             	mov    0xc(%ebp),%eax
    247b:	8b 55 d4             	mov    -0x2c(%ebp),%edx
    247e:	c6 04 16 00          	movb   $0x0,(%esi,%edx,1)
    2482:	89 30                	mov    %esi,(%eax)
    2484:	8b 45 e4             	mov    -0x1c(%ebp),%eax
    2487:	89 04 24             	mov    %eax,(%esp)
    248a:	e8 a1 77 02 00       	call   29c30 <free>
    248f:	31 c0                	xor    %eax,%eax
    2491:	83 c4 3c             	add    $0x3c,%esp
    2494:	5b                   	pop    %ebx
    2495:	5e                   	pop    %esi
    2496:	5f                   	pop    %edi
    2497:	5d                   	pop    %ebp
    2498:	c3                   	ret    
    2499:	8d b4 26 00 00 00 00 	lea    0x0(%esi,%eiz,1),%esi
    24a0:	e8 ab 84 01 00       	call   1a950 <tinput_new>
    24a5:	a3 a0 08 04 00       	mov    %eax,0x408a0
    24aa:	85 c0                	test   %eax,%eax
    24ac:	74 32                	je     24e0 <os_input_line+0x100>
    24ae:	8b 55 08             	mov    0x8(%ebp),%edx
    24b1:	89 04 24             	mov    %eax,(%esp)
    24b4:	89 54 24 04          	mov    %edx,0x4(%esp)
    24b8:	e8 23 85 01 00       	call   1a9e0 <tinput_set_prompt>
    24bd:	a1 a0 08 04 00       	mov    0x408a0,%eax
    24c2:	e9 2f ff ff ff       	jmp    23f6 <os_input_line+0x16>
    24c7:	90                   	nop
    24c8:	c7 04 24 e5 e7 03 00 	movl   $0x3e7e5,(%esp)
    24cf:	e8 dc cc 01 00       	call   1f1b0 <str_dup>
    24d4:	8b 55 0c             	mov    0xc(%ebp),%edx
    24d7:	89 02                	mov    %eax,(%edx)
    24d9:	31 c0                	xor    %eax,%eax
    24db:	eb b4                	jmp    2491 <os_input_line+0xb1>
    24dd:	8d 76 00             	lea    0x0(%esi),%esi
    24e0:	b8 f7 fe ff ff       	mov    $0xfffffef7,%eax
    24e5:	eb aa                	jmp    2491 <os_input_line+0xb1>
    24e7:	c7 04 24 d4 9b 03 00 	movl   $0x39bd4,(%esp)
    24ee:	e8 7d 1f 02 00       	call   24470 <printf>
    24f3:	c7 04 24 01 00 00 00 	movl   $0x1,(%esp)
    24fa:	e8 a1 97 01 00       	call   1bca0 <exit>
    24ff:	90                   	nop

00002500 <os_exec>:
    2500:	55                   	push   %ebp
    2501:	89 e5                	mov    %esp,%ebp
    2503:	53                   	push   %ebx
    2504:	83 ec 24             	sub    $0x24,%esp
    2507:	8b 5d 08             	mov    0x8(%ebp),%ebx
    250a:	89 5c 24 08          	mov    %ebx,0x8(%esp)
    250e:	8b 03                	mov    (%ebx),%eax
    2510:	89 44 24 04          	mov    %eax,0x4(%esp)
    2514:	8d 45 f0             	lea    -0x10(%ebp),%eax
    2517:	89 04 24             	mov    %eax,(%esp)
    251a:	e8 71 f5 01 00       	call   21a90 <task_spawnv>
    251f:	85 c0                	test   %eax,%eax
    2521:	75 28                	jne    254b <os_exec+0x4b>
    2523:	8d 45 ec             	lea    -0x14(%ebp),%eax
    2526:	8b 55 f4             	mov    -0xc(%ebp),%edx
    2529:	89 44 24 0c          	mov    %eax,0xc(%esp)
    252d:	8d 45 e8             	lea    -0x18(%ebp),%eax
    2530:	89 44 24 08          	mov    %eax,0x8(%esp)
    2534:	8b 45 f0             	mov    -0x10(%ebp),%eax
    2537:	89 04 24             	mov    %eax,(%esp)
    253a:	89 54 24 04          	mov    %edx,0x4(%esp)
    253e:	e8 0d f8 01 00       	call   21d50 <task_wait>
    2543:	83 c4 24             	add    $0x24,%esp
    2546:	31 c0                	xor    %eax,%eax
    2548:	5b                   	pop    %ebx
    2549:	5d                   	pop    %ebp
    254a:	c3                   	ret    
    254b:	89 04 24             	mov    %eax,(%esp)
    254e:	e8 9d d5 01 00       	call   1faf0 <str_error>
    2553:	89 44 24 08          	mov    %eax,0x8(%esp)
    2557:	8b 03                	mov    (%ebx),%eax
    2559:	c7 04 24 7c 9c 03 00 	movl   $0x39c7c,(%esp)
    2560:	89 44 24 04          	mov    %eax,0x4(%esp)
    2564:	e8 07 1f 02 00       	call   24470 <printf>
    2569:	c7 04 24 01 00 00 00 	movl   $0x1,(%esp)
    2570:	e8 2b 97 01 00       	call   1bca0 <exit>
    2575:	8d 74 26 00          	lea    0x0(%esi,%eiz,1),%esi
    2579:	8d bc 27 00 00 00 00 	lea    0x0(%edi,%eiz,1),%edi

00002580 <os_store_ef_path>:
    2580:	55                   	push   %ebp
    2581:	89 e5                	mov    %esp,%ebp
    2583:	8b 45 08             	mov    0x8(%ebp),%eax
    2586:	5d                   	pop    %ebp
    2587:	a3 a4 08 04 00       	mov    %eax,0x408a4
    258c:	c3                   	ret    
    258d:	8d 76 00             	lea    0x0(%esi),%esi

00002590 <os_get_lib_path>:
    2590:	55                   	push   %ebp
    2591:	89 e5                	mov    %esp,%ebp
    2593:	83 ec 18             	sub    $0x18,%esp
    2596:	c7 04 24 49 9c 03 00 	movl   $0x39c49,(%esp)
    259d:	e8 0e cc 01 00       	call   1f1b0 <str_dup>
    25a2:	c9                   	leave  
    25a3:	c3                   	ret    
    25a4:	66 90                	xchg   %ax,%ax
    25a6:	66 90                	xchg   %ax,%ax
    25a8:	66 90                	xchg   %ax,%ax
    25aa:	66 90                	xchg   %ax,%ax
    25ac:	66 90                	xchg   %ax,%ax
    25ae:	66 90                	xchg   %ax,%ax

000025b0 <ancr_csi_process>:
    25b0:	55                   	push   %ebp
    25b1:	89 e5                	mov    %esp,%ebp
    25b3:	57                   	push   %edi
    25b4:	56                   	push   %esi
    25b5:	53                   	push   %ebx
    25b6:	83 ec 2c             	sub    $0x2c,%esp
    25b9:	89 c6                	mov    %eax,%esi
    25bb:	8b 42 34             	mov    0x34(%edx),%eax
    25be:	89 d3                	mov    %edx,%ebx
    25c0:	83 f8 02             	cmp    $0x2,%eax
    25c3:	0f 84 3f 01 00 00    	je     2708 <ancr_csi_process+0x158>
    25c9:	48                   	dec    %eax
    25ca:	0f 84 51 02 00 00    	je     2821 <ancr_csi_process+0x271>
    25d0:	c7 42 34 01 00 00 00 	movl   $0x1,0x34(%edx)
    25d7:	89 14 24             	mov    %edx,(%esp)
    25da:	e8 c1 67 01 00       	call   18da0 <csi_to_symbol>
    25df:	8b 78 08             	mov    0x8(%eax),%edi
    25e2:	8b 46 04             	mov    0x4(%esi),%eax
    25e5:	89 04 24             	mov    %eax,(%esp)
    25e8:	e8 c3 15 00 00       	call   3bb0 <builtin_get_gf_class>
    25ed:	39 c3                	cmp    %eax,%ebx
    25ef:	0f 95 c2             	setne  %dl
    25f2:	81 e2 ff 00 00 00    	and    $0xff,%edx
    25f8:	f7 da                	neg    %edx
    25fa:	21 c2                	and    %eax,%edx
    25fc:	85 ff                	test   %edi,%edi
    25fe:	89 55 e4             	mov    %edx,-0x1c(%ebp)
    2601:	74 09                	je     260c <ancr_csi_process+0x5c>
    2603:	89 fa                	mov    %edi,%edx
    2605:	89 f0                	mov    %esi,%eax
    2607:	e8 a4 ff ff ff       	call   25b0 <ancr_csi_process>
    260c:	8d 43 18             	lea    0x18(%ebx),%eax
    260f:	89 04 24             	mov    %eax,(%esp)
    2612:	89 45 e0             	mov    %eax,-0x20(%ebp)
    2615:	e8 46 30 00 00       	call   5660 <sbi_list_first>
    261a:	8b 13                	mov    (%ebx),%edx
    261c:	89 c7                	mov    %eax,%edi
    261e:	85 d2                	test   %edx,%edx
    2620:	0f 84 0a 01 00 00    	je     2730 <ancr_csi_process+0x180>
    2626:	85 ff                	test   %edi,%edi
    2628:	0f 84 ca 00 00 00    	je     26f8 <ancr_csi_process+0x148>
    262e:	8b 57 08             	mov    0x8(%edi),%edx
    2631:	89 1c 24             	mov    %ebx,(%esp)
    2634:	89 55 dc             	mov    %edx,-0x24(%ebp)
    2637:	e8 64 67 01 00       	call   18da0 <csi_to_symbol>
    263c:	8b 55 dc             	mov    -0x24(%ebp),%edx
    263f:	89 54 24 08          	mov    %edx,0x8(%esp)
    2643:	8b 40 08             	mov    0x8(%eax),%eax
    2646:	89 34 24             	mov    %esi,(%esp)
    2649:	89 44 24 04          	mov    %eax,0x4(%esp)
    264d:	e8 ce 6b 01 00       	call   19220 <symbol_xlookup_in_csi>
    2652:	89 04 24             	mov    %eax,(%esp)
    2655:	e8 26 67 01 00       	call   18d80 <symbol_to_csi>
    265a:	89 c1                	mov    %eax,%ecx
    265c:	85 c0                	test   %eax,%eax
    265e:	0f 84 a1 01 00 00    	je     2805 <ancr_csi_process+0x255>
    2664:	89 c2                	mov    %eax,%edx
    2666:	89 f0                	mov    %esi,%eax
    2668:	89 4d dc             	mov    %ecx,-0x24(%ebp)
    266b:	e8 40 ff ff ff       	call   25b0 <ancr_csi_process>
    2670:	8b 4d dc             	mov    -0x24(%ebp),%ecx
    2673:	8b 01                	mov    (%ecx),%eax
    2675:	85 c0                	test   %eax,%eax
    2677:	0f 85 93 00 00 00    	jne    2710 <ancr_csi_process+0x160>
    267d:	8b 03                	mov    (%ebx),%eax
    267f:	83 f8 01             	cmp    $0x1,%eax
    2682:	0f 84 40 01 00 00    	je     27c8 <ancr_csi_process+0x218>
    2688:	0f 83 12 01 00 00    	jae    27a0 <ancr_csi_process+0x1f0>
    268e:	8b 43 04             	mov    0x4(%ebx),%eax
    2691:	8b 40 04             	mov    0x4(%eax),%eax
    2694:	89 4d dc             	mov    %ecx,-0x24(%ebp)
    2697:	89 04 24             	mov    %eax,(%esp)
    269a:	e8 61 1b 00 00       	call   4200 <cspan_print>
    269f:	c7 04 24 d4 9c 03 00 	movl   $0x39cd4,(%esp)
    26a6:	e8 c5 1d 02 00       	call   24470 <printf>
    26ab:	89 1c 24             	mov    %ebx,(%esp)
    26ae:	e8 ed 66 01 00       	call   18da0 <csi_to_symbol>
    26b3:	89 04 24             	mov    %eax,(%esp)
    26b6:	e8 95 6e 01 00       	call   19550 <symbol_print_fqn>
    26bb:	c7 04 24 61 9d 03 00 	movl   $0x39d61,(%esp)
    26c2:	e8 a9 1d 02 00       	call   24470 <printf>
    26c7:	8b 4d dc             	mov    -0x24(%ebp),%ecx
    26ca:	89 0c 24             	mov    %ecx,(%esp)
    26cd:	e8 ce 66 01 00       	call   18da0 <csi_to_symbol>
    26d2:	89 04 24             	mov    %eax,(%esp)
    26d5:	e8 76 6e 01 00       	call   19550 <symbol_print_fqn>
    26da:	c7 04 24 73 9d 03 00 	movl   $0x39d73,(%esp)
    26e1:	e8 8a 1d 02 00       	call   24470 <printf>
    26e6:	c7 04 24 01 00 00 00 	movl   $0x1,(%esp)
    26ed:	e8 ae 95 01 00       	call   1bca0 <exit>
    26f2:	8d b6 00 00 00 00    	lea    0x0(%esi),%esi
    26f8:	8b 55 e4             	mov    -0x1c(%ebp),%edx
    26fb:	c7 43 34 02 00 00 00 	movl   $0x2,0x34(%ebx)
    2702:	89 53 24             	mov    %edx,0x24(%ebx)
    2705:	8d 76 00             	lea    0x0(%esi),%esi
    2708:	83 c4 2c             	add    $0x2c,%esp
    270b:	5b                   	pop    %ebx
    270c:	5e                   	pop    %esi
    270d:	5f                   	pop    %edi
    270e:	5d                   	pop    %ebp
    270f:	c3                   	ret    
    2710:	48                   	dec    %eax
    2711:	0f 84 8e 00 00 00    	je     27a5 <ancr_csi_process+0x1f5>
    2717:	8b 45 e0             	mov    -0x20(%ebp),%eax
    271a:	89 7c 24 04          	mov    %edi,0x4(%esp)
    271e:	89 04 24             	mov    %eax,(%esp)
    2721:	e8 ba 2f 00 00       	call   56e0 <list_next>
    2726:	89 c7                	mov    %eax,%edi
    2728:	e9 f9 fe ff ff       	jmp    2626 <ancr_csi_process+0x76>
    272d:	8d 76 00             	lea    0x0(%esi),%esi
    2730:	85 c0                	test   %eax,%eax
    2732:	74 c4                	je     26f8 <ancr_csi_process+0x148>
    2734:	8b 50 08             	mov    0x8(%eax),%edx
    2737:	89 1c 24             	mov    %ebx,(%esp)
    273a:	89 55 dc             	mov    %edx,-0x24(%ebp)
    273d:	e8 5e 66 01 00       	call   18da0 <csi_to_symbol>
    2742:	8b 55 dc             	mov    -0x24(%ebp),%edx
    2745:	89 54 24 08          	mov    %edx,0x8(%esp)
    2749:	8b 40 08             	mov    0x8(%eax),%eax
    274c:	89 34 24             	mov    %esi,(%esp)
    274f:	89 44 24 04          	mov    %eax,0x4(%esp)
    2753:	e8 c8 6a 01 00       	call   19220 <symbol_xlookup_in_csi>
    2758:	89 04 24             	mov    %eax,(%esp)
    275b:	e8 20 66 01 00       	call   18d80 <symbol_to_csi>
    2760:	89 c1                	mov    %eax,%ecx
    2762:	85 c0                	test   %eax,%eax
    2764:	0f 84 9b 00 00 00    	je     2805 <ancr_csi_process+0x255>
    276a:	8b 00                	mov    (%eax),%eax
    276c:	85 c0                	test   %eax,%eax
    276e:	0f 85 ba fe ff ff    	jne    262e <ancr_csi_process+0x7e>
    2774:	89 ca                	mov    %ecx,%edx
    2776:	89 f0                	mov    %esi,%eax
    2778:	89 4d dc             	mov    %ecx,-0x24(%ebp)
    277b:	e8 30 fe ff ff       	call   25b0 <ancr_csi_process>
    2780:	8b 55 e0             	mov    -0x20(%ebp),%edx
    2783:	89 7c 24 04          	mov    %edi,0x4(%esp)
    2787:	89 14 24             	mov    %edx,(%esp)
    278a:	e8 51 2f 00 00       	call   56e0 <list_next>
    278f:	8b 4d dc             	mov    -0x24(%ebp),%ecx
    2792:	89 c7                	mov    %eax,%edi
    2794:	89 4d e4             	mov    %ecx,-0x1c(%ebp)
    2797:	e9 8a fe ff ff       	jmp    2626 <ancr_csi_process+0x76>
    279c:	8d 74 26 00          	lea    0x0(%esi,%eiz,1),%esi
    27a0:	83 f8 02             	cmp    $0x2,%eax
    27a3:	74 43                	je     27e8 <ancr_csi_process+0x238>
    27a5:	c7 44 24 08 e6 00 00 	movl   $0xe6,0x8(%esp)
    27ac:	00 
    27ad:	c7 44 24 04 45 9d 03 	movl   $0x39d45,0x4(%esp)
    27b4:	00 
    27b5:	c7 04 24 78 9d 03 00 	movl   $0x39d78,(%esp)
    27bc:	e8 2f 1f 03 00       	call   346f0 <assert_abort>
    27c1:	8d b4 26 00 00 00 00 	lea    0x0(%esi,%eiz,1),%esi
    27c8:	c7 44 24 08 d9 00 00 	movl   $0xd9,0x8(%esp)
    27cf:	00 
    27d0:	c7 44 24 04 45 9d 03 	movl   $0x39d45,0x4(%esp)
    27d7:	00 
    27d8:	c7 04 24 78 9d 03 00 	movl   $0x39d78,(%esp)
    27df:	e8 0c 1f 03 00       	call   346f0 <assert_abort>
    27e4:	8d 74 26 00          	lea    0x0(%esi,%eiz,1),%esi
    27e8:	8b 43 04             	mov    0x4(%ebx),%eax
    27eb:	8b 40 04             	mov    0x4(%eax),%eax
    27ee:	89 4d dc             	mov    %ecx,-0x24(%ebp)
    27f1:	89 04 24             	mov    %eax,(%esp)
    27f4:	e8 07 1a 00 00       	call   4200 <cspan_print>
    27f9:	c7 04 24 0c 9d 03 00 	movl   $0x39d0c,(%esp)
    2800:	e9 a1 fe ff ff       	jmp    26a6 <ancr_csi_process+0xf6>
    2805:	c7 44 24 08 07 01 00 	movl   $0x107,0x8(%esp)
    280c:	00 
    280d:	c7 44 24 04 45 9d 03 	movl   $0x39d45,0x4(%esp)
    2814:	00 
    2815:	c7 04 24 50 9d 03 00 	movl   $0x39d50,(%esp)
    281c:	e8 cf 1e 03 00       	call   346f0 <assert_abort>
    2821:	c7 04 24 a0 9c 03 00 	movl   $0x39ca0,(%esp)
    2828:	e8 43 1c 02 00       	call   24470 <printf>
    282d:	89 d8                	mov    %ebx,%eax
    282f:	89 5d e4             	mov    %ebx,-0x1c(%ebp)
    2832:	89 04 24             	mov    %eax,(%esp)
    2835:	e8 66 65 01 00       	call   18da0 <csi_to_symbol>
    283a:	89 c7                	mov    %eax,%edi
    283c:	89 04 24             	mov    %eax,(%esp)
    283f:	e8 0c 6d 01 00       	call   19550 <symbol_print_fqn>
    2844:	c7 04 24 42 9d 03 00 	movl   $0x39d42,(%esp)
    284b:	e8 20 1c 02 00       	call   24470 <printf>
    2850:	8b 7f 08             	mov    0x8(%edi),%edi
    2853:	85 ff                	test   %edi,%edi
    2855:	74 06                	je     285d <ancr_csi_process+0x2ad>
    2857:	83 7f 34 01          	cmpl   $0x1,0x34(%edi)
    285b:	74 67                	je     28c4 <ancr_csi_process+0x314>
    285d:	c7 04 24 18 00 00 00 	movl   $0x18,(%esp)
    2864:	e8 f7 2d 00 00       	call   5660 <sbi_list_first>
    2869:	89 c3                	mov    %eax,%ebx
    286b:	85 c0                	test   %eax,%eax
    286d:	74 59                	je     28c8 <ancr_csi_process+0x318>
    286f:	8b 43 08             	mov    0x8(%ebx),%eax
    2872:	89 7c 24 04          	mov    %edi,0x4(%esp)
    2876:	89 44 24 08          	mov    %eax,0x8(%esp)
    287a:	89 34 24             	mov    %esi,(%esp)
    287d:	e8 9e 69 01 00       	call   19220 <symbol_xlookup_in_csi>
    2882:	89 04 24             	mov    %eax,(%esp)
    2885:	e8 f6 64 01 00       	call   18d80 <symbol_to_csi>
    288a:	85 c0                	test   %eax,%eax
    288c:	74 56                	je     28e4 <ancr_csi_process+0x334>
    288e:	83 78 34 01          	cmpl   $0x1,0x34(%eax)
    2892:	75 db                	jne    286f <ancr_csi_process+0x2bf>
    2894:	39 45 e4             	cmp    %eax,-0x1c(%ebp)
    2897:	75 99                	jne    2832 <ancr_csi_process+0x282>
    2899:	8b 5d e4             	mov    -0x1c(%ebp),%ebx
    289c:	89 1c 24             	mov    %ebx,(%esp)
    289f:	e8 fc 64 01 00       	call   18da0 <csi_to_symbol>
    28a4:	89 04 24             	mov    %eax,(%esp)
    28a7:	e8 a4 6c 01 00       	call   19550 <symbol_print_fqn>
    28ac:	c7 04 24 17 bb 03 00 	movl   $0x3bb17,(%esp)
    28b3:	e8 b8 1b 02 00       	call   24470 <printf>
    28b8:	c7 04 24 01 00 00 00 	movl   $0x1,(%esp)
    28bf:	e8 dc 93 01 00       	call   1bca0 <exit>
    28c4:	89 f8                	mov    %edi,%eax
    28c6:	eb cc                	jmp    2894 <ancr_csi_process+0x2e4>
    28c8:	c7 44 24 08 37 01 00 	movl   $0x137,0x8(%esp)
    28cf:	00 
    28d0:	c7 44 24 04 45 9d 03 	movl   $0x39d45,0x4(%esp)
    28d7:	00 
    28d8:	c7 04 24 80 9d 03 00 	movl   $0x39d80,(%esp)
    28df:	e8 0c 1e 03 00       	call   346f0 <assert_abort>
    28e4:	c7 44 24 08 2f 01 00 	movl   $0x12f,0x8(%esp)
    28eb:	00 
    28ec:	c7 44 24 04 45 9d 03 	movl   $0x39d45,0x4(%esp)
    28f3:	00 
    28f4:	c7 04 24 50 9d 03 00 	movl   $0x39d50,(%esp)
    28fb:	e8 f0 1d 03 00       	call   346f0 <assert_abort>

00002900 <ancr_csi_dfs>:
    2900:	55                   	push   %ebp
    2901:	89 e5                	mov    %esp,%ebp
    2903:	57                   	push   %edi
    2904:	56                   	push   %esi
    2905:	53                   	push   %ebx
    2906:	83 ec 5c             	sub    $0x5c,%esp
    2909:	89 d3                	mov    %edx,%ebx
    290b:	83 c3 38             	add    $0x38,%ebx
    290e:	89 45 e0             	mov    %eax,-0x20(%ebp)
    2911:	e8 9a fc ff ff       	call   25b0 <ancr_csi_process>
    2916:	89 1c 24             	mov    %ebx,(%esp)
    2919:	89 5d b0             	mov    %ebx,-0x50(%ebp)
    291c:	e8 3f 2d 00 00       	call   5660 <sbi_list_first>
    2921:	89 45 c0             	mov    %eax,-0x40(%ebp)
    2924:	85 c0                	test   %eax,%eax
    2926:	74 25                	je     294d <ancr_csi_dfs+0x4d>
    2928:	8b 55 c0             	mov    -0x40(%ebp),%edx
    292b:	8b 42 08             	mov    0x8(%edx),%eax
    292e:	8b 10                	mov    (%eax),%edx
    2930:	85 d2                	test   %edx,%edx
    2932:	74 21                	je     2955 <ancr_csi_dfs+0x55>
    2934:	8b 45 c0             	mov    -0x40(%ebp),%eax
    2937:	8b 55 b0             	mov    -0x50(%ebp),%edx
    293a:	89 44 24 04          	mov    %eax,0x4(%esp)
    293e:	89 14 24             	mov    %edx,(%esp)
    2941:	e8 9a 2d 00 00       	call   56e0 <list_next>
    2946:	89 45 c0             	mov    %eax,-0x40(%ebp)
    2949:	85 c0                	test   %eax,%eax
    294b:	75 db                	jne    2928 <ancr_csi_dfs+0x28>
    294d:	83 c4 5c             	add    $0x5c,%esp
    2950:	5b                   	pop    %ebx
    2951:	5e                   	pop    %esi
    2952:	5f                   	pop    %edi
    2953:	5d                   	pop    %ebp
    2954:	c3                   	ret    
    2955:	8b 58 04             	mov    0x4(%eax),%ebx
    2958:	8b 45 e0             	mov    -0x20(%ebp),%eax
    295b:	89 da                	mov    %ebx,%edx
    295d:	83 c3 38             	add    $0x38,%ebx
    2960:	e8 4b fc ff ff       	call   25b0 <ancr_csi_process>
    2965:	89 1c 24             	mov    %ebx,(%esp)
    2968:	89 5d ac             	mov    %ebx,-0x54(%ebp)
    296b:	e8 f0 2c 00 00       	call   5660 <sbi_list_first>
    2970:	89 45 bc             	mov    %eax,-0x44(%ebp)
    2973:	85 c0                	test   %eax,%eax
    2975:	75 22                	jne    2999 <ancr_csi_dfs+0x99>
    2977:	eb bb                	jmp    2934 <ancr_csi_dfs+0x34>
    2979:	8d b4 26 00 00 00 00 	lea    0x0(%esi,%eiz,1),%esi
    2980:	8b 45 bc             	mov    -0x44(%ebp),%eax
    2983:	8b 55 ac             	mov    -0x54(%ebp),%edx
    2986:	89 44 24 04          	mov    %eax,0x4(%esp)
    298a:	89 14 24             	mov    %edx,(%esp)
    298d:	e8 4e 2d 00 00       	call   56e0 <list_next>
    2992:	89 45 bc             	mov    %eax,-0x44(%ebp)
    2995:	85 c0                	test   %eax,%eax
    2997:	74 9b                	je     2934 <ancr_csi_dfs+0x34>
    2999:	8b 55 bc             	mov    -0x44(%ebp),%edx
    299c:	8b 42 08             	mov    0x8(%edx),%eax
    299f:	8b 38                	mov    (%eax),%edi
    29a1:	85 ff                	test   %edi,%edi
    29a3:	75 db                	jne    2980 <ancr_csi_dfs+0x80>
    29a5:	8b 58 04             	mov    0x4(%eax),%ebx
    29a8:	8b 45 e0             	mov    -0x20(%ebp),%eax
    29ab:	89 da                	mov    %ebx,%edx
    29ad:	83 c3 38             	add    $0x38,%ebx
    29b0:	e8 fb fb ff ff       	call   25b0 <ancr_csi_process>
    29b5:	89 1c 24             	mov    %ebx,(%esp)
    29b8:	89 5d a8             	mov    %ebx,-0x58(%ebp)
    29bb:	e8 a0 2c 00 00       	call   5660 <sbi_list_first>
    29c0:	89 45 b8             	mov    %eax,-0x48(%ebp)
    29c3:	85 c0                	test   %eax,%eax
    29c5:	75 22                	jne    29e9 <ancr_csi_dfs+0xe9>
    29c7:	eb b7                	jmp    2980 <ancr_csi_dfs+0x80>
    29c9:	8d b4 26 00 00 00 00 	lea    0x0(%esi,%eiz,1),%esi
    29d0:	8b 45 b8             	mov    -0x48(%ebp),%eax
    29d3:	8b 55 a8             	mov    -0x58(%ebp),%edx
    29d6:	89 44 24 04          	mov    %eax,0x4(%esp)
    29da:	89 14 24             	mov    %edx,(%esp)
    29dd:	e8 fe 2c 00 00       	call   56e0 <list_next>
    29e2:	89 45 b8             	mov    %eax,-0x48(%ebp)
    29e5:	85 c0                	test   %eax,%eax
    29e7:	74 97                	je     2980 <ancr_csi_dfs+0x80>
    29e9:	8b 55 b8             	mov    -0x48(%ebp),%edx
    29ec:	8b 42 08             	mov    0x8(%edx),%eax
    29ef:	8b 30                	mov    (%eax),%esi
    29f1:	85 f6                	test   %esi,%esi
    29f3:	75 db                	jne    29d0 <ancr_csi_dfs+0xd0>
    29f5:	8b 58 04             	mov    0x4(%eax),%ebx
    29f8:	8b 45 e0             	mov    -0x20(%ebp),%eax
    29fb:	89 da                	mov    %ebx,%edx
    29fd:	83 c3 38             	add    $0x38,%ebx
    2a00:	e8 ab fb ff ff       	call   25b0 <ancr_csi_process>
    2a05:	89 1c 24             	mov    %ebx,(%esp)
    2a08:	89 5d b4             	mov    %ebx,-0x4c(%ebp)
    2a0b:	e8 50 2c 00 00       	call   5660 <sbi_list_first>
    2a10:	89 45 c8             	mov    %eax,-0x38(%ebp)
    2a13:	85 c0                	test   %eax,%eax
    2a15:	75 22                	jne    2a39 <ancr_csi_dfs+0x139>
    2a17:	eb b7                	jmp    29d0 <ancr_csi_dfs+0xd0>
    2a19:	8d b4 26 00 00 00 00 	lea    0x0(%esi,%eiz,1),%esi
    2a20:	8b 45 c8             	mov    -0x38(%ebp),%eax
    2a23:	8b 55 b4             	mov    -0x4c(%ebp),%edx
    2a26:	89 44 24 04          	mov    %eax,0x4(%esp)
    2a2a:	89 14 24             	mov    %edx,(%esp)
    2a2d:	e8 ae 2c 00 00       	call   56e0 <list_next>
    2a32:	89 45 c8             	mov    %eax,-0x38(%ebp)
    2a35:	85 c0                	test   %eax,%eax
    2a37:	74 97                	je     29d0 <ancr_csi_dfs+0xd0>
    2a39:	8b 55 c8             	mov    -0x38(%ebp),%edx
    2a3c:	8b 42 08             	mov    0x8(%edx),%eax
    2a3f:	8b 18                	mov    (%eax),%ebx
    2a41:	85 db                	test   %ebx,%ebx
    2a43:	75 db                	jne    2a20 <ancr_csi_dfs+0x120>
    2a45:	8b 58 04             	mov    0x4(%eax),%ebx
    2a48:	8b 45 e0             	mov    -0x20(%ebp),%eax
    2a4b:	89 da                	mov    %ebx,%edx
    2a4d:	83 c3 38             	add    $0x38,%ebx
    2a50:	e8 5b fb ff ff       	call   25b0 <ancr_csi_process>
    2a55:	89 1c 24             	mov    %ebx,(%esp)
    2a58:	89 5d c4             	mov    %ebx,-0x3c(%ebp)
    2a5b:	e8 00 2c 00 00       	call   5660 <sbi_list_first>
    2a60:	89 45 d0             	mov    %eax,-0x30(%ebp)
    2a63:	85 c0                	test   %eax,%eax
    2a65:	75 22                	jne    2a89 <ancr_csi_dfs+0x189>
    2a67:	eb b7                	jmp    2a20 <ancr_csi_dfs+0x120>
    2a69:	8d b4 26 00 00 00 00 	lea    0x0(%esi,%eiz,1),%esi
    2a70:	8b 45 d0             	mov    -0x30(%ebp),%eax
    2a73:	8b 55 c4             	mov    -0x3c(%ebp),%edx
    2a76:	89 44 24 04          	mov    %eax,0x4(%esp)
    2a7a:	89 14 24             	mov    %edx,(%esp)
    2a7d:	e8 5e 2c 00 00       	call   56e0 <list_next>
    2a82:	89 45 d0             	mov    %eax,-0x30(%ebp)
    2a85:	85 c0                	test   %eax,%eax
    2a87:	74 97                	je     2a20 <ancr_csi_dfs+0x120>
    2a89:	8b 55 d0             	mov    -0x30(%ebp),%edx
    2a8c:	8b 42 08             	mov    0x8(%edx),%eax
    2a8f:	8b 08                	mov    (%eax),%ecx
    2a91:	85 c9                	test   %ecx,%ecx
    2a93:	75 db                	jne    2a70 <ancr_csi_dfs+0x170>
    2a95:	8b 58 04             	mov    0x4(%eax),%ebx
    2a98:	8b 45 e0             	mov    -0x20(%ebp),%eax
    2a9b:	89 da                	mov    %ebx,%edx
    2a9d:	83 c3 38             	add    $0x38,%ebx
    2aa0:	e8 0b fb ff ff       	call   25b0 <ancr_csi_process>
    2aa5:	89 1c 24             	mov    %ebx,(%esp)
    2aa8:	89 5d cc             	mov    %ebx,-0x34(%ebp)
    2aab:	e8 b0 2b 00 00       	call   5660 <sbi_list_first>
    2ab0:	89 45 d8             	mov    %eax,-0x28(%ebp)
    2ab3:	85 c0                	test   %eax,%eax
    2ab5:	75 22                	jne    2ad9 <ancr_csi_dfs+0x1d9>
    2ab7:	eb b7                	jmp    2a70 <ancr_csi_dfs+0x170>
    2ab9:	8d b4 26 00 00 00 00 	lea    0x0(%esi,%eiz,1),%esi
    2ac0:	8b 45 d8             	mov    -0x28(%ebp),%eax
    2ac3:	8b 55 cc             	mov    -0x34(%ebp),%edx
    2ac6:	89 44 24 04          	mov    %eax,0x4(%esp)
    2aca:	89 14 24             	mov    %edx,(%esp)
    2acd:	e8 0e 2c 00 00       	call   56e0 <list_next>
    2ad2:	89 45 d8             	mov    %eax,-0x28(%ebp)
    2ad5:	85 c0                	test   %eax,%eax
    2ad7:	74 97                	je     2a70 <ancr_csi_dfs+0x170>
    2ad9:	8b 55 d8             	mov    -0x28(%ebp),%edx
    2adc:	8b 42 08             	mov    0x8(%edx),%eax
    2adf:	8b 10                	mov    (%eax),%edx
    2ae1:	85 d2                	test   %edx,%edx
    2ae3:	75 db                	jne    2ac0 <ancr_csi_dfs+0x1c0>
    2ae5:	8b 58 04             	mov    0x4(%eax),%ebx
    2ae8:	8b 45 e0             	mov    -0x20(%ebp),%eax
    2aeb:	89 da                	mov    %ebx,%edx
    2aed:	83 c3 38             	add    $0x38,%ebx
    2af0:	e8 bb fa ff ff       	call   25b0 <ancr_csi_process>
    2af5:	89 1c 24             	mov    %ebx,(%esp)
    2af8:	89 5d d4             	mov    %ebx,-0x2c(%ebp)
    2afb:	e8 60 2b 00 00       	call   5660 <sbi_list_first>
    2b00:	89 45 e4             	mov    %eax,-0x1c(%ebp)
    2b03:	85 c0                	test   %eax,%eax
    2b05:	75 22                	jne    2b29 <ancr_csi_dfs+0x229>
    2b07:	eb b7                	jmp    2ac0 <ancr_csi_dfs+0x1c0>
    2b09:	8d b4 26 00 00 00 00 	lea    0x0(%esi,%eiz,1),%esi
    2b10:	8b 45 e4             	mov    -0x1c(%ebp),%eax
    2b13:	8b 55 d4             	mov    -0x2c(%ebp),%edx
    2b16:	89 44 24 04          	mov    %eax,0x4(%esp)
    2b1a:	89 14 24             	mov    %edx,(%esp)
    2b1d:	e8 be 2b 00 00       	call   56e0 <list_next>
    2b22:	89 45 e4             	mov    %eax,-0x1c(%ebp)
    2b25:	85 c0                	test   %eax,%eax
    2b27:	74 97                	je     2ac0 <ancr_csi_dfs+0x1c0>
    2b29:	8b 55 e4             	mov    -0x1c(%ebp),%edx
    2b2c:	8b 42 08             	mov    0x8(%edx),%eax
    2b2f:	8b 38                	mov    (%eax),%edi
    2b31:	85 ff                	test   %edi,%edi
    2b33:	75 db                	jne    2b10 <ancr_csi_dfs+0x210>
    2b35:	8b 78 04             	mov    0x4(%eax),%edi
    2b38:	8b 45 e0             	mov    -0x20(%ebp),%eax
    2b3b:	89 fa                	mov    %edi,%edx
    2b3d:	83 c7 38             	add    $0x38,%edi
    2b40:	e8 6b fa ff ff       	call   25b0 <ancr_csi_process>
    2b45:	89 3c 24             	mov    %edi,(%esp)
    2b48:	89 7d dc             	mov    %edi,-0x24(%ebp)
    2b4b:	e8 10 2b 00 00       	call   5660 <sbi_list_first>
    2b50:	89 c3                	mov    %eax,%ebx
    2b52:	85 c0                	test   %eax,%eax
    2b54:	75 17                	jne    2b6d <ancr_csi_dfs+0x26d>
    2b56:	eb b8                	jmp    2b10 <ancr_csi_dfs+0x210>
    2b58:	8b 45 dc             	mov    -0x24(%ebp),%eax
    2b5b:	89 5c 24 04          	mov    %ebx,0x4(%esp)
    2b5f:	89 04 24             	mov    %eax,(%esp)
    2b62:	e8 79 2b 00 00       	call   56e0 <list_next>
    2b67:	89 c3                	mov    %eax,%ebx
    2b69:	85 c0                	test   %eax,%eax
    2b6b:	74 a3                	je     2b10 <ancr_csi_dfs+0x210>
    2b6d:	8b 43 08             	mov    0x8(%ebx),%eax
    2b70:	8b 30                	mov    (%eax),%esi
    2b72:	85 f6                	test   %esi,%esi
    2b74:	75 e2                	jne    2b58 <ancr_csi_dfs+0x258>
    2b76:	8b 70 04             	mov    0x4(%eax),%esi
    2b79:	8b 45 e0             	mov    -0x20(%ebp),%eax
    2b7c:	89 f2                	mov    %esi,%edx
    2b7e:	83 c6 38             	add    $0x38,%esi
    2b81:	e8 2a fa ff ff       	call   25b0 <ancr_csi_process>
    2b86:	89 34 24             	mov    %esi,(%esp)
    2b89:	e8 d2 2a 00 00       	call   5660 <sbi_list_first>
    2b8e:	89 c7                	mov    %eax,%edi
    2b90:	85 c0                	test   %eax,%eax
    2b92:	75 16                	jne    2baa <ancr_csi_dfs+0x2aa>
    2b94:	eb c2                	jmp    2b58 <ancr_csi_dfs+0x258>
    2b96:	66 90                	xchg   %ax,%ax
    2b98:	89 7c 24 04          	mov    %edi,0x4(%esp)
    2b9c:	89 34 24             	mov    %esi,(%esp)
    2b9f:	e8 3c 2b 00 00       	call   56e0 <list_next>
    2ba4:	89 c7                	mov    %eax,%edi
    2ba6:	85 c0                	test   %eax,%eax
    2ba8:	74 ae                	je     2b58 <ancr_csi_dfs+0x258>
    2baa:	8b 47 08             	mov    0x8(%edi),%eax
    2bad:	8b 08                	mov    (%eax),%ecx
    2baf:	85 c9                	test   %ecx,%ecx
    2bb1:	75 e5                	jne    2b98 <ancr_csi_dfs+0x298>
    2bb3:	8b 50 04             	mov    0x4(%eax),%edx
    2bb6:	8b 45 e0             	mov    -0x20(%ebp),%eax
    2bb9:	e8 42 fd ff ff       	call   2900 <ancr_csi_dfs>
    2bbe:	eb d8                	jmp    2b98 <ancr_csi_dfs+0x298>

00002bc0 <ancr_module_process>:
    2bc0:	55                   	push   %ebp
    2bc1:	89 e5                	mov    %esp,%ebp
    2bc3:	57                   	push   %edi
    2bc4:	56                   	push   %esi
    2bc5:	53                   	push   %ebx
    2bc6:	83 ec 2c             	sub    $0x2c,%esp
    2bc9:	8b 7d 08             	mov    0x8(%ebp),%edi
    2bcc:	8b 07                	mov    (%edi),%eax
    2bce:	89 04 24             	mov    %eax,(%esp)
    2bd1:	e8 8a 2a 00 00       	call   5660 <sbi_list_first>
    2bd6:	89 c3                	mov    %eax,%ebx
    2bd8:	85 c0                	test   %eax,%eax
    2bda:	74 70                	je     2c4c <ancr_module_process+0x8c>
    2bdc:	8d 74 26 00          	lea    0x0(%esi,%eiz,1),%esi
    2be0:	8b 43 08             	mov    0x8(%ebx),%eax
    2be3:	8b 08                	mov    (%eax),%ecx
    2be5:	85 c9                	test   %ecx,%ecx
    2be7:	75 4f                	jne    2c38 <ancr_module_process+0x78>
    2be9:	8b 70 04             	mov    0x4(%eax),%esi
    2bec:	89 f8                	mov    %edi,%eax
    2bee:	89 f2                	mov    %esi,%edx
    2bf0:	83 c6 38             	add    $0x38,%esi
    2bf3:	e8 b8 f9 ff ff       	call   25b0 <ancr_csi_process>
    2bf8:	89 34 24             	mov    %esi,(%esp)
    2bfb:	e8 60 2a 00 00       	call   5660 <sbi_list_first>
    2c00:	89 c1                	mov    %eax,%ecx
    2c02:	85 c0                	test   %eax,%eax
    2c04:	75 14                	jne    2c1a <ancr_module_process+0x5a>
    2c06:	eb 30                	jmp    2c38 <ancr_module_process+0x78>
    2c08:	89 4c 24 04          	mov    %ecx,0x4(%esp)
    2c0c:	89 34 24             	mov    %esi,(%esp)
    2c0f:	e8 cc 2a 00 00       	call   56e0 <list_next>
    2c14:	89 c1                	mov    %eax,%ecx
    2c16:	85 c0                	test   %eax,%eax
    2c18:	74 1e                	je     2c38 <ancr_module_process+0x78>
    2c1a:	8b 41 08             	mov    0x8(%ecx),%eax
    2c1d:	8b 10                	mov    (%eax),%edx
    2c1f:	85 d2                	test   %edx,%edx
    2c21:	75 e5                	jne    2c08 <ancr_module_process+0x48>
    2c23:	8b 50 04             	mov    0x4(%eax),%edx
    2c26:	89 f8                	mov    %edi,%eax
    2c28:	89 4d e4             	mov    %ecx,-0x1c(%ebp)
    2c2b:	e8 d0 fc ff ff       	call   2900 <ancr_csi_dfs>
    2c30:	8b 4d e4             	mov    -0x1c(%ebp),%ecx
    2c33:	eb d3                	jmp    2c08 <ancr_module_process+0x48>
    2c35:	8d 76 00             	lea    0x0(%esi),%esi
    2c38:	89 5c 24 04          	mov    %ebx,0x4(%esp)
    2c3c:	8b 07                	mov    (%edi),%eax
    2c3e:	89 04 24             	mov    %eax,(%esp)
    2c41:	e8 9a 2a 00 00       	call   56e0 <list_next>
    2c46:	89 c3                	mov    %eax,%ebx
    2c48:	85 c0                	test   %eax,%eax
    2c4a:	75 94                	jne    2be0 <ancr_module_process+0x20>
    2c4c:	83 c4 2c             	add    $0x2c,%esp
    2c4f:	5b                   	pop    %ebx
    2c50:	5e                   	pop    %esi
    2c51:	5f                   	pop    %edi
    2c52:	5d                   	pop    %ebp
    2c53:	c3                   	ret    
    2c54:	66 90                	xchg   %ax,%ax
    2c56:	66 90                	xchg   %ax,%ax
    2c58:	66 90                	xchg   %ax,%ax
    2c5a:	66 90                	xchg   %ax,%ax
    2c5c:	66 90                	xchg   %ax,%ax
    2c5e:	66 90                	xchg   %ax,%ax

00002c60 <bigint_add_abs.isra.2>:
    2c60:	55                   	push   %ebp
    2c61:	89 e5                	mov    %esp,%ebp
    2c63:	57                   	push   %edi
    2c64:	56                   	push   %esi
    2c65:	53                   	push   %ebx
    2c66:	83 ec 3c             	sub    $0x3c,%esp
    2c69:	89 45 e0             	mov    %eax,-0x20(%ebp)
    2c6c:	89 55 d8             	mov    %edx,-0x28(%ebp)
    2c6f:	8b 10                	mov    (%eax),%edx
    2c71:	8b 01                	mov    (%ecx),%eax
    2c73:	89 4d dc             	mov    %ecx,-0x24(%ebp)
    2c76:	8b 5d 0c             	mov    0xc(%ebp),%ebx
    2c79:	39 d0                	cmp    %edx,%eax
    2c7b:	73 02                	jae    2c7f <bigint_add_abs.isra.2+0x1f>
    2c7d:	89 d0                	mov    %edx,%eax
    2c7f:	40                   	inc    %eax
    2c80:	c7 43 04 00 00 00 00 	movl   $0x0,0x4(%ebx)
    2c87:	89 45 e4             	mov    %eax,-0x1c(%ebp)
    2c8a:	85 c0                	test   %eax,%eax
    2c8c:	75 02                	jne    2c90 <bigint_add_abs.isra.2+0x30>
    2c8e:	b0 01                	mov    $0x1,%al
    2c90:	89 04 24             	mov    %eax,(%esp)
    2c93:	e8 88 6e 02 00       	call   29b20 <malloc>
    2c98:	89 43 08             	mov    %eax,0x8(%ebx)
    2c9b:	85 c0                	test   %eax,%eax
    2c9d:	0f 84 a9 00 00 00    	je     2d4c <bigint_add_abs.isra.2+0xec>
    2ca3:	8b 55 e4             	mov    -0x1c(%ebp),%edx
    2ca6:	89 13                	mov    %edx,(%ebx)
    2ca8:	85 d2                	test   %edx,%edx
    2caa:	0f 84 8d 00 00 00    	je     2d3d <bigint_add_abs.isra.2+0xdd>
    2cb0:	31 ff                	xor    %edi,%edi
    2cb2:	31 d2                	xor    %edx,%edx
    2cb4:	89 5d d4             	mov    %ebx,-0x2c(%ebp)
    2cb7:	eb 0d                	jmp    2cc6 <bigint_add_abs.isra.2+0x66>
    2cb9:	8d b4 26 00 00 00 00 	lea    0x0(%esi,%eiz,1),%esi
    2cc0:	8b 75 d4             	mov    -0x2c(%ebp),%esi
    2cc3:	8b 46 08             	mov    0x8(%esi),%eax
    2cc6:	8b 4d e0             	mov    -0x20(%ebp),%ecx
    2cc9:	31 f6                	xor    %esi,%esi
    2ccb:	39 11                	cmp    %edx,(%ecx)
    2ccd:	76 10                	jbe    2cdf <bigint_add_abs.isra.2+0x7f>
    2ccf:	8b 5d d8             	mov    -0x28(%ebp),%ebx
    2cd2:	8b 0b                	mov    (%ebx),%ecx
    2cd4:	8a 0c 11             	mov    (%ecx,%edx,1),%cl
    2cd7:	81 e1 ff 00 00 00    	and    $0xff,%ecx
    2cdd:	89 ce                	mov    %ecx,%esi
    2cdf:	8b 5d dc             	mov    -0x24(%ebp),%ebx
    2ce2:	31 c9                	xor    %ecx,%ecx
    2ce4:	39 13                	cmp    %edx,(%ebx)
    2ce6:	76 0e                	jbe    2cf6 <bigint_add_abs.isra.2+0x96>
    2ce8:	8b 5d 08             	mov    0x8(%ebp),%ebx
    2ceb:	8b 0b                	mov    (%ebx),%ecx
    2ced:	8a 0c 11             	mov    (%ecx,%edx,1),%cl
    2cf0:	81 e1 ff 00 00 00    	and    $0xff,%ecx
    2cf6:	81 e7 ff 00 00 00    	and    $0xff,%edi
    2cfc:	01 f7                	add    %esi,%edi
    2cfe:	01 f9                	add    %edi,%ecx
    2d00:	89 cf                	mov    %ecx,%edi
    2d02:	88 0c 10             	mov    %cl,(%eax,%edx,1)
    2d05:	66 c1 ef 08          	shr    $0x8,%di
    2d09:	42                   	inc    %edx
    2d0a:	39 55 e4             	cmp    %edx,-0x1c(%ebp)
    2d0d:	75 b1                	jne    2cc0 <bigint_add_abs.isra.2+0x60>
    2d0f:	89 f8                	mov    %edi,%eax
    2d11:	8b 5d d4             	mov    -0x2c(%ebp),%ebx
    2d14:	84 c0                	test   %al,%al
    2d16:	75 39                	jne    2d51 <bigint_add_abs.isra.2+0xf1>
    2d18:	8b 0b                	mov    (%ebx),%ecx
    2d1a:	85 c9                	test   %ecx,%ecx
    2d1c:	74 1f                	je     2d3d <bigint_add_abs.isra.2+0xdd>
    2d1e:	8b 53 08             	mov    0x8(%ebx),%edx
    2d21:	8d 41 ff             	lea    -0x1(%ecx),%eax
    2d24:	80 7c 0a ff 00       	cmpb   $0x0,-0x1(%edx,%ecx,1)
    2d29:	74 0c                	je     2d37 <bigint_add_abs.isra.2+0xd7>
    2d2b:	eb 17                	jmp    2d44 <bigint_add_abs.isra.2+0xe4>
    2d2d:	8d 76 00             	lea    0x0(%esi),%esi
    2d30:	48                   	dec    %eax
    2d31:	80 3c 02 00          	cmpb   $0x0,(%edx,%eax,1)
    2d35:	75 0d                	jne    2d44 <bigint_add_abs.isra.2+0xe4>
    2d37:	89 03                	mov    %eax,(%ebx)
    2d39:	85 c0                	test   %eax,%eax
    2d3b:	75 f3                	jne    2d30 <bigint_add_abs.isra.2+0xd0>
    2d3d:	c7 43 04 00 00 00 00 	movl   $0x0,0x4(%ebx)
    2d44:	83 c4 3c             	add    $0x3c,%esp
    2d47:	5b                   	pop    %ebx
    2d48:	5e                   	pop    %esi
    2d49:	5f                   	pop    %edi
    2d4a:	5d                   	pop    %ebp
    2d4b:	c3                   	ret    
    2d4c:	e8 c7 0c 00 00       	call   3a18 <bigint_alloc.isra.0.part.1>
    2d51:	c7 44 24 08 05 02 00 	movl   $0x205,0x8(%esp)
    2d58:	00 
    2d59:	c7 44 24 04 8d 9d 03 	movl   $0x39d8d,0x4(%esp)
    2d60:	00 
    2d61:	c7 04 24 9a 9d 03 00 	movl   $0x39d9a,(%esp)
    2d68:	e8 83 19 03 00       	call   346f0 <assert_abort>
    2d6d:	8d 76 00             	lea    0x0(%esi),%esi

00002d70 <bigint_sub_abs.isra.3>:
    2d70:	55                   	push   %ebp
    2d71:	89 e5                	mov    %esp,%ebp
    2d73:	57                   	push   %edi
    2d74:	56                   	push   %esi
    2d75:	53                   	push   %ebx
    2d76:	83 ec 3c             	sub    $0x3c,%esp
    2d79:	89 45 d8             	mov    %eax,-0x28(%ebp)
    2d7c:	8b 19                	mov    (%ecx),%ebx
    2d7e:	8b 00                	mov    (%eax),%eax
    2d80:	89 55 d0             	mov    %edx,-0x30(%ebp)
    2d83:	89 4d d4             	mov    %ecx,-0x2c(%ebp)
    2d86:	89 5d e0             	mov    %ebx,-0x20(%ebp)
    2d89:	39 c3                	cmp    %eax,%ebx
    2d8b:	73 03                	jae    2d90 <bigint_sub_abs.isra.3+0x20>
    2d8d:	89 45 e0             	mov    %eax,-0x20(%ebp)
    2d90:	8b 45 e0             	mov    -0x20(%ebp),%eax
    2d93:	85 c0                	test   %eax,%eax
    2d95:	75 02                	jne    2d99 <bigint_sub_abs.isra.3+0x29>
    2d97:	b0 01                	mov    $0x1,%al
    2d99:	89 04 24             	mov    %eax,(%esp)
    2d9c:	e8 7f 6d 02 00       	call   29b20 <malloc>
    2da1:	8b 55 0c             	mov    0xc(%ebp),%edx
    2da4:	89 45 e4             	mov    %eax,-0x1c(%ebp)
    2da7:	85 c0                	test   %eax,%eax
    2da9:	89 42 08             	mov    %eax,0x8(%edx)
    2dac:	0f 84 53 01 00 00    	je     2f05 <bigint_sub_abs.isra.3+0x195>
    2db2:	89 d3                	mov    %edx,%ebx
    2db4:	8b 55 e0             	mov    -0x20(%ebp),%edx
    2db7:	85 d2                	test   %edx,%edx
    2db9:	89 13                	mov    %edx,(%ebx)
    2dbb:	0f 84 3d 01 00 00    	je     2efe <bigint_sub_abs.isra.3+0x18e>
    2dc1:	31 c9                	xor    %ecx,%ecx
    2dc3:	31 c0                	xor    %eax,%eax
    2dc5:	eb 69                	jmp    2e30 <bigint_sub_abs.isra.3+0xc0>
    2dc7:	90                   	nop
    2dc8:	8b 5d d0             	mov    -0x30(%ebp),%ebx
    2dcb:	8b 13                	mov    (%ebx),%edx
    2dcd:	8a 14 02             	mov    (%edx,%eax,1),%dl
    2dd0:	88 d3                	mov    %dl,%bl
    2dd2:	81 e2 ff 00 00 00    	and    $0xff,%edx
    2dd8:	89 55 dc             	mov    %edx,-0x24(%ebp)
    2ddb:	8b 55 d4             	mov    -0x2c(%ebp),%edx
    2dde:	81 e3 ff 00 00 00    	and    $0xff,%ebx
    2de4:	89 df                	mov    %ebx,%edi
    2de6:	39 02                	cmp    %eax,(%edx)
    2de8:	76 5d                	jbe    2e47 <bigint_sub_abs.isra.3+0xd7>
    2dea:	8b 5d 08             	mov    0x8(%ebp),%ebx
    2ded:	8b 13                	mov    (%ebx),%edx
    2def:	8a 1c 02             	mov    (%edx,%eax,1),%bl
    2df2:	88 da                	mov    %bl,%dl
    2df4:	81 e3 ff 00 00 00    	and    $0xff,%ebx
    2dfa:	81 e2 ff 00 00 00    	and    $0xff,%edx
    2e00:	89 d6                	mov    %edx,%esi
    2e02:	31 d2                	xor    %edx,%edx
    2e04:	88 ca                	mov    %cl,%dl
    2e06:	01 da                	add    %ebx,%edx
    2e08:	3b 55 dc             	cmp    -0x24(%ebp),%edx
    2e0b:	7d 49                	jge    2e56 <bigint_sub_abs.isra.3+0xe6>
    2e0d:	89 fa                	mov    %edi,%edx
    2e0f:	81 e1 ff 00 00 00    	and    $0xff,%ecx
    2e15:	29 f2                	sub    %esi,%edx
    2e17:	8b 5d e4             	mov    -0x1c(%ebp),%ebx
    2e1a:	29 ca                	sub    %ecx,%edx
    2e1c:	31 c9                	xor    %ecx,%ecx
    2e1e:	88 14 03             	mov    %dl,(%ebx,%eax,1)
    2e21:	40                   	inc    %eax
    2e22:	3b 45 e0             	cmp    -0x20(%ebp),%eax
    2e25:	74 4e                	je     2e75 <bigint_sub_abs.isra.3+0x105>
    2e27:	8b 55 0c             	mov    0xc(%ebp),%edx
    2e2a:	8b 52 08             	mov    0x8(%edx),%edx
    2e2d:	89 55 e4             	mov    %edx,-0x1c(%ebp)
    2e30:	8b 5d d8             	mov    -0x28(%ebp),%ebx
    2e33:	39 03                	cmp    %eax,(%ebx)
    2e35:	77 91                	ja     2dc8 <bigint_sub_abs.isra.3+0x58>
    2e37:	8b 55 d4             	mov    -0x2c(%ebp),%edx
    2e3a:	31 ff                	xor    %edi,%edi
    2e3c:	c7 45 dc 00 00 00 00 	movl   $0x0,-0x24(%ebp)
    2e43:	39 02                	cmp    %eax,(%edx)
    2e45:	77 a3                	ja     2dea <bigint_sub_abs.isra.3+0x7a>
    2e47:	31 d2                	xor    %edx,%edx
    2e49:	31 db                	xor    %ebx,%ebx
    2e4b:	88 ca                	mov    %cl,%dl
    2e4d:	31 f6                	xor    %esi,%esi
    2e4f:	01 da                	add    %ebx,%edx
    2e51:	3b 55 dc             	cmp    -0x24(%ebp),%edx
    2e54:	7c b7                	jl     2e0d <bigint_sub_abs.isra.3+0x9d>
    2e56:	81 e1 ff 00 00 00    	and    $0xff,%ecx
    2e5c:	ba 00 01 00 00       	mov    $0x100,%edx
    2e61:	29 ca                	sub    %ecx,%edx
    2e63:	8b 5d e4             	mov    -0x1c(%ebp),%ebx
    2e66:	01 fa                	add    %edi,%edx
    2e68:	b1 01                	mov    $0x1,%cl
    2e6a:	29 f2                	sub    %esi,%edx
    2e6c:	88 14 03             	mov    %dl,(%ebx,%eax,1)
    2e6f:	40                   	inc    %eax
    2e70:	3b 45 e0             	cmp    -0x20(%ebp),%eax
    2e73:	75 b2                	jne    2e27 <bigint_sub_abs.isra.3+0xb7>
    2e75:	84 c9                	test   %cl,%cl
    2e77:	74 77                	je     2ef0 <bigint_sub_abs.isra.3+0x180>
    2e79:	8b 55 0c             	mov    0xc(%ebp),%edx
    2e7c:	31 c0                	xor    %eax,%eax
    2e7e:	be 00 01 00 00       	mov    $0x100,%esi
    2e83:	8b 7d 0c             	mov    0xc(%ebp),%edi
    2e86:	c7 42 04 01 00 00 00 	movl   $0x1,0x4(%edx)
    2e8d:	31 d2                	xor    %edx,%edx
    2e8f:	90                   	nop
    2e90:	81 e2 ff 00 00 00    	and    $0xff,%edx
    2e96:	8b 4f 08             	mov    0x8(%edi),%ecx
    2e99:	89 f3                	mov    %esi,%ebx
    2e9b:	01 c1                	add    %eax,%ecx
    2e9d:	29 d3                	sub    %edx,%ebx
    2e9f:	40                   	inc    %eax
    2ea0:	89 da                	mov    %ebx,%edx
    2ea2:	31 db                	xor    %ebx,%ebx
    2ea4:	8a 19                	mov    (%ecx),%bl
    2ea6:	29 da                	sub    %ebx,%edx
    2ea8:	3b 45 e0             	cmp    -0x20(%ebp),%eax
    2eab:	88 11                	mov    %dl,(%ecx)
    2ead:	b2 01                	mov    $0x1,%dl
    2eaf:	75 df                	jne    2e90 <bigint_sub_abs.isra.3+0x120>
    2eb1:	8b 55 0c             	mov    0xc(%ebp),%edx
    2eb4:	8b 0a                	mov    (%edx),%ecx
    2eb6:	85 c9                	test   %ecx,%ecx
    2eb8:	74 23                	je     2edd <bigint_sub_abs.isra.3+0x16d>
    2eba:	8b 5d 0c             	mov    0xc(%ebp),%ebx
    2ebd:	8d 41 ff             	lea    -0x1(%ecx),%eax
    2ec0:	8b 53 08             	mov    0x8(%ebx),%edx
    2ec3:	80 7c 0a ff 00       	cmpb   $0x0,-0x1(%edx,%ecx,1)
    2ec8:	75 1d                	jne    2ee7 <bigint_sub_abs.isra.3+0x177>
    2eca:	89 d9                	mov    %ebx,%ecx
    2ecc:	eb 09                	jmp    2ed7 <bigint_sub_abs.isra.3+0x167>
    2ece:	66 90                	xchg   %ax,%ax
    2ed0:	48                   	dec    %eax
    2ed1:	80 3c 02 00          	cmpb   $0x0,(%edx,%eax,1)
    2ed5:	75 10                	jne    2ee7 <bigint_sub_abs.isra.3+0x177>
    2ed7:	89 01                	mov    %eax,(%ecx)
    2ed9:	85 c0                	test   %eax,%eax
    2edb:	75 f3                	jne    2ed0 <bigint_sub_abs.isra.3+0x160>
    2edd:	8b 55 0c             	mov    0xc(%ebp),%edx
    2ee0:	c7 42 04 00 00 00 00 	movl   $0x0,0x4(%edx)
    2ee7:	83 c4 3c             	add    $0x3c,%esp
    2eea:	5b                   	pop    %ebx
    2eeb:	5e                   	pop    %esi
    2eec:	5f                   	pop    %edi
    2eed:	5d                   	pop    %ebp
    2eee:	c3                   	ret    
    2eef:	90                   	nop
    2ef0:	8b 5d 0c             	mov    0xc(%ebp),%ebx
    2ef3:	8b 0b                	mov    (%ebx),%ecx
    2ef5:	c7 43 04 00 00 00 00 	movl   $0x0,0x4(%ebx)
    2efc:	eb b8                	jmp    2eb6 <bigint_sub_abs.isra.3+0x146>
    2efe:	31 c9                	xor    %ecx,%ecx
    2f00:	8b 5d 0c             	mov    0xc(%ebp),%ebx
    2f03:	eb f0                	jmp    2ef5 <bigint_sub_abs.isra.3+0x185>
    2f05:	e8 0e 0b 00 00       	call   3a18 <bigint_alloc.isra.0.part.1>
    2f0a:	8d b6 00 00 00 00    	lea    0x0(%esi),%esi

00002f10 <bigint_init>:
    2f10:	55                   	push   %ebp
    2f11:	89 e5                	mov    %esp,%ebp
    2f13:	57                   	push   %edi
    2f14:	56                   	push   %esi
    2f15:	53                   	push   %ebx
    2f16:	83 ec 2c             	sub    $0x2c,%esp
    2f19:	8b 5d 0c             	mov    0xc(%ebp),%ebx
    2f1c:	8b 45 08             	mov    0x8(%ebp),%eax
    2f1f:	83 fb 00             	cmp    $0x0,%ebx
    2f22:	0f 8c 80 00 00 00    	jl     2fa8 <bigint_init+0x98>
    2f28:	c7 40 04 00 00 00 00 	movl   $0x0,0x4(%eax)
    2f2f:	74 67                	je     2f98 <bigint_init+0x88>
    2f31:	89 da                	mov    %ebx,%edx
    2f33:	31 f6                	xor    %esi,%esi
    2f35:	8d 76 00             	lea    0x0(%esi),%esi
    2f38:	46                   	inc    %esi
    2f39:	c1 fa 08             	sar    $0x8,%edx
    2f3c:	75 fa                	jne    2f38 <bigint_init+0x28>
    2f3e:	89 f0                	mov    %esi,%eax
    2f40:	85 f6                	test   %esi,%esi
    2f42:	74 54                	je     2f98 <bigint_init+0x88>
    2f44:	89 04 24             	mov    %eax,(%esp)
    2f47:	e8 d4 6b 02 00       	call   29b20 <malloc>
    2f4c:	89 c7                	mov    %eax,%edi
    2f4e:	8b 45 08             	mov    0x8(%ebp),%eax
    2f51:	85 ff                	test   %edi,%edi
    2f53:	89 78 08             	mov    %edi,0x8(%eax)
    2f56:	74 5e                	je     2fb6 <bigint_init+0xa6>
    2f58:	89 30                	mov    %esi,(%eax)
    2f5a:	31 c9                	xor    %ecx,%ecx
    2f5c:	89 d8                	mov    %ebx,%eax
    2f5e:	85 f6                	test   %esi,%esi
    2f60:	74 2c                	je     2f8e <bigint_init+0x7e>
    2f62:	89 75 e4             	mov    %esi,-0x1c(%ebp)
    2f65:	8b 75 08             	mov    0x8(%ebp),%esi
    2f68:	eb 09                	jmp    2f73 <bigint_init+0x63>
    2f6a:	8d b6 00 00 00 00    	lea    0x0(%esi),%esi
    2f70:	8b 7e 08             	mov    0x8(%esi),%edi
    2f73:	89 c2                	mov    %eax,%edx
    2f75:	c1 fa 1f             	sar    $0x1f,%edx
    2f78:	c1 ea 18             	shr    $0x18,%edx
    2f7b:	01 d0                	add    %edx,%eax
    2f7d:	0f b6 d8             	movzbl %al,%ebx
    2f80:	c1 f8 08             	sar    $0x8,%eax
    2f83:	29 d3                	sub    %edx,%ebx
    2f85:	88 1c 0f             	mov    %bl,(%edi,%ecx,1)
    2f88:	41                   	inc    %ecx
    2f89:	3b 4d e4             	cmp    -0x1c(%ebp),%ecx
    2f8c:	75 e2                	jne    2f70 <bigint_init+0x60>
    2f8e:	83 c4 2c             	add    $0x2c,%esp
    2f91:	5b                   	pop    %ebx
    2f92:	5e                   	pop    %esi
    2f93:	5f                   	pop    %edi
    2f94:	5d                   	pop    %ebp
    2f95:	c3                   	ret    
    2f96:	66 90                	xchg   %ax,%ax
    2f98:	31 f6                	xor    %esi,%esi
    2f9a:	b8 01 00 00 00       	mov    $0x1,%eax
    2f9f:	eb a3                	jmp    2f44 <bigint_init+0x34>
    2fa1:	8d b4 26 00 00 00 00 	lea    0x0(%esi,%eiz,1),%esi
    2fa8:	c7 40 04 01 00 00 00 	movl   $0x1,0x4(%eax)
    2faf:	f7 db                	neg    %ebx
    2fb1:	e9 7b ff ff ff       	jmp    2f31 <bigint_init+0x21>
    2fb6:	e8 5d 0a 00 00       	call   3a18 <bigint_alloc.isra.0.part.1>
    2fbb:	90                   	nop
    2fbc:	8d 74 26 00          	lea    0x0(%esi,%eiz,1),%esi

00002fc0 <bigint_shallow_copy>:
    2fc0:	55                   	push   %ebp
    2fc1:	89 e5                	mov    %esp,%ebp
    2fc3:	8b 55 08             	mov    0x8(%ebp),%edx
    2fc6:	8b 45 0c             	mov    0xc(%ebp),%eax
    2fc9:	8b 4a 04             	mov    0x4(%edx),%ecx
    2fcc:	89 48 04             	mov    %ecx,0x4(%eax)
    2fcf:	8b 4a 08             	mov    0x8(%edx),%ecx
    2fd2:	8b 12                	mov    (%edx),%edx
    2fd4:	89 48 08             	mov    %ecx,0x8(%eax)
    2fd7:	89 10                	mov    %edx,(%eax)
    2fd9:	5d                   	pop    %ebp
    2fda:	c3                   	ret    
    2fdb:	90                   	nop
    2fdc:	8d 74 26 00          	lea    0x0(%esi,%eiz,1),%esi

00002fe0 <bigint_clone>:
    2fe0:	55                   	push   %ebp
    2fe1:	89 e5                	mov    %esp,%ebp
    2fe3:	57                   	push   %edi
    2fe4:	56                   	push   %esi
    2fe5:	53                   	push   %ebx
    2fe6:	83 ec 1c             	sub    $0x1c,%esp
    2fe9:	8b 75 08             	mov    0x8(%ebp),%esi
    2fec:	8b 5d 0c             	mov    0xc(%ebp),%ebx
    2fef:	8b 46 04             	mov    0x4(%esi),%eax
    2ff2:	8b 3e                	mov    (%esi),%edi
    2ff4:	89 43 04             	mov    %eax,0x4(%ebx)
    2ff7:	85 ff                	test   %edi,%edi
    2ff9:	89 f8                	mov    %edi,%eax
    2ffb:	75 05                	jne    3002 <bigint_clone+0x22>
    2ffd:	b8 01 00 00 00       	mov    $0x1,%eax
    3002:	89 04 24             	mov    %eax,(%esp)
    3005:	e8 16 6b 02 00       	call   29b20 <malloc>
    300a:	89 43 08             	mov    %eax,0x8(%ebx)
    300d:	85 c0                	test   %eax,%eax
    300f:	74 28                	je     3039 <bigint_clone+0x59>
    3011:	31 d2                	xor    %edx,%edx
    3013:	89 3b                	mov    %edi,(%ebx)
    3015:	85 ff                	test   %edi,%edi
    3017:	75 0a                	jne    3023 <bigint_clone+0x43>
    3019:	eb 16                	jmp    3031 <bigint_clone+0x51>
    301b:	90                   	nop
    301c:	8d 74 26 00          	lea    0x0(%esi,%eiz,1),%esi
    3020:	8b 43 08             	mov    0x8(%ebx),%eax
    3023:	8b 4e 08             	mov    0x8(%esi),%ecx
    3026:	8a 0c 11             	mov    (%ecx,%edx,1),%cl
    3029:	88 0c 10             	mov    %cl,(%eax,%edx,1)
    302c:	42                   	inc    %edx
    302d:	39 13                	cmp    %edx,(%ebx)
    302f:	77 ef                	ja     3020 <bigint_clone+0x40>
    3031:	83 c4 1c             	add    $0x1c,%esp
    3034:	5b                   	pop    %ebx
    3035:	5e                   	pop    %esi
    3036:	5f                   	pop    %edi
    3037:	5d                   	pop    %ebp
    3038:	c3                   	ret    
    3039:	e8 da 09 00 00       	call   3a18 <bigint_alloc.isra.0.part.1>
    303e:	66 90                	xchg   %ax,%ax

00003040 <bigint_reverse_sign>:
    3040:	55                   	push   %ebp
    3041:	89 e5                	mov    %esp,%ebp
    3043:	57                   	push   %edi
    3044:	56                   	push   %esi
    3045:	53                   	push   %ebx
    3046:	83 ec 1c             	sub    $0x1c,%esp
    3049:	8b 75 08             	mov    0x8(%ebp),%esi
    304c:	8b 5d 0c             	mov    0xc(%ebp),%ebx
    304f:	8b 46 04             	mov    0x4(%esi),%eax
    3052:	8b 3e                	mov    (%esi),%edi
    3054:	85 c0                	test   %eax,%eax
    3056:	0f 94 c0             	sete   %al
    3059:	25 ff 00 00 00       	and    $0xff,%eax
    305e:	85 ff                	test   %edi,%edi
    3060:	89 43 04             	mov    %eax,0x4(%ebx)
    3063:	89 f8                	mov    %edi,%eax
    3065:	75 05                	jne    306c <bigint_reverse_sign+0x2c>
    3067:	b8 01 00 00 00       	mov    $0x1,%eax
    306c:	89 04 24             	mov    %eax,(%esp)
    306f:	e8 ac 6a 02 00       	call   29b20 <malloc>
    3074:	89 43 08             	mov    %eax,0x8(%ebx)
    3077:	85 c0                	test   %eax,%eax
    3079:	74 26                	je     30a1 <bigint_reverse_sign+0x61>
    307b:	31 d2                	xor    %edx,%edx
    307d:	89 3b                	mov    %edi,(%ebx)
    307f:	85 ff                	test   %edi,%edi
    3081:	75 08                	jne    308b <bigint_reverse_sign+0x4b>
    3083:	eb 14                	jmp    3099 <bigint_reverse_sign+0x59>
    3085:	8d 76 00             	lea    0x0(%esi),%esi
    3088:	8b 43 08             	mov    0x8(%ebx),%eax
    308b:	8b 4e 08             	mov    0x8(%esi),%ecx
    308e:	8a 0c 11             	mov    (%ecx,%edx,1),%cl
    3091:	88 0c 10             	mov    %cl,(%eax,%edx,1)
    3094:	42                   	inc    %edx
    3095:	39 13                	cmp    %edx,(%ebx)
    3097:	77 ef                	ja     3088 <bigint_reverse_sign+0x48>
    3099:	83 c4 1c             	add    $0x1c,%esp
    309c:	5b                   	pop    %ebx
    309d:	5e                   	pop    %esi
    309e:	5f                   	pop    %edi
    309f:	5d                   	pop    %ebp
    30a0:	c3                   	ret    
    30a1:	e8 72 09 00 00       	call   3a18 <bigint_alloc.isra.0.part.1>
    30a6:	8d 76 00             	lea    0x0(%esi),%esi
    30a9:	8d bc 27 00 00 00 00 	lea    0x0(%edi,%eiz,1),%edi

000030b0 <bigint_destroy>:
    30b0:	55                   	push   %ebp
    30b1:	89 e5                	mov    %esp,%ebp
    30b3:	53                   	push   %ebx
    30b4:	83 ec 14             	sub    $0x14,%esp
    30b7:	8b 5d 08             	mov    0x8(%ebp),%ebx
    30ba:	8b 43 08             	mov    0x8(%ebx),%eax
    30bd:	c7 43 04 00 00 00 00 	movl   $0x0,0x4(%ebx)
    30c4:	c7 03 00 00 00 00    	movl   $0x0,(%ebx)
    30ca:	89 04 24             	mov    %eax,(%esp)
    30cd:	e8 5e 6b 02 00       	call   29c30 <free>
    30d2:	c7 43 08 00 00 00 00 	movl   $0x0,0x8(%ebx)
    30d9:	83 c4 14             	add    $0x14,%esp
    30dc:	5b                   	pop    %ebx
    30dd:	5d                   	pop    %ebp
    30de:	c3                   	ret    
    30df:	90                   	nop

000030e0 <bigint_get_value_int>:
    30e0:	55                   	push   %ebp
    30e1:	89 e5                	mov    %esp,%ebp
    30e3:	57                   	push   %edi
    30e4:	56                   	push   %esi
    30e5:	53                   	push   %ebx
    30e6:	83 ec 4c             	sub    $0x4c,%esp
    30e9:	8b 45 08             	mov    0x8(%ebp),%eax
    30ec:	8b 08                	mov    (%eax),%ecx
    30ee:	85 c9                	test   %ecx,%ecx
    30f0:	0f 84 64 01 00 00    	je     325a <bigint_get_value_int+0x17a>
    30f6:	8b 40 08             	mov    0x8(%eax),%eax
    30f9:	31 db                	xor    %ebx,%ebx
    30fb:	01 c1                	add    %eax,%ecx
    30fd:	8d 76 00             	lea    0x0(%esi),%esi
    3100:	c1 e3 08             	shl    $0x8,%ebx
    3103:	31 d2                	xor    %edx,%edx
    3105:	8a 10                	mov    (%eax),%dl
    3107:	40                   	inc    %eax
    3108:	01 d3                	add    %edx,%ebx
    310a:	39 c8                	cmp    %ecx,%eax
    310c:	75 f2                	jne    3100 <bigint_get_value_int+0x20>
    310e:	8b 45 08             	mov    0x8(%ebp),%eax
    3111:	8b 48 04             	mov    0x4(%eax),%ecx
    3114:	85 c9                	test   %ecx,%ecx
    3116:	0f 84 16 01 00 00    	je     3232 <bigint_get_value_int+0x152>
    311c:	89 da                	mov    %ebx,%edx
    311e:	b8 01 00 00 00       	mov    $0x1,%eax
    3123:	f7 da                	neg    %edx
    3125:	89 55 c4             	mov    %edx,-0x3c(%ebp)
    3128:	0f 84 02 01 00 00    	je     3230 <bigint_get_value_int+0x150>
    312e:	89 45 d4             	mov    %eax,-0x2c(%ebp)
    3131:	85 db                	test   %ebx,%ebx
    3133:	0f 84 07 01 00 00    	je     3240 <bigint_get_value_int+0x160>
    3139:	89 d8                	mov    %ebx,%eax
    313b:	31 f6                	xor    %esi,%esi
    313d:	8d 76 00             	lea    0x0(%esi),%esi
    3140:	46                   	inc    %esi
    3141:	c1 f8 08             	sar    $0x8,%eax
    3144:	75 fa                	jne    3140 <bigint_get_value_int+0x60>
    3146:	89 f0                	mov    %esi,%eax
    3148:	85 f6                	test   %esi,%esi
    314a:	0f 84 f0 00 00 00    	je     3240 <bigint_get_value_int+0x160>
    3150:	89 04 24             	mov    %eax,(%esp)
    3153:	e8 c8 69 02 00       	call   29b20 <malloc>
    3158:	89 c7                	mov    %eax,%edi
    315a:	89 45 d8             	mov    %eax,-0x28(%ebp)
    315d:	85 c0                	test   %eax,%eax
    315f:	0f 84 03 01 00 00    	je     3268 <bigint_get_value_int+0x188>
    3165:	89 75 d0             	mov    %esi,-0x30(%ebp)
    3168:	85 f6                	test   %esi,%esi
    316a:	74 21                	je     318d <bigint_get_value_int+0xad>
    316c:	31 c9                	xor    %ecx,%ecx
    316e:	eb 03                	jmp    3173 <bigint_get_value_int+0x93>
    3170:	8b 7d d8             	mov    -0x28(%ebp),%edi
    3173:	89 d8                	mov    %ebx,%eax
    3175:	c1 f8 1f             	sar    $0x1f,%eax
    3178:	c1 e8 18             	shr    $0x18,%eax
    317b:	01 c3                	add    %eax,%ebx
    317d:	0f b6 d3             	movzbl %bl,%edx
    3180:	c1 fb 08             	sar    $0x8,%ebx
    3183:	29 c2                	sub    %eax,%edx
    3185:	88 14 0f             	mov    %dl,(%edi,%ecx,1)
    3188:	41                   	inc    %ecx
    3189:	39 f1                	cmp    %esi,%ecx
    318b:	75 e3                	jne    3170 <bigint_get_value_int+0x90>
    318d:	8b 45 08             	mov    0x8(%ebp),%eax
    3190:	8d 4d d0             	lea    -0x30(%ebp),%ecx
    3193:	8b 50 04             	mov    0x4(%eax),%edx
    3196:	85 d2                	test   %edx,%edx
    3198:	8b 55 08             	mov    0x8(%ebp),%edx
    319b:	0f 95 c3             	setne  %bl
    319e:	81 e3 ff 00 00 00    	and    $0xff,%ebx
    31a4:	83 7d d4 01          	cmpl   $0x1,-0x2c(%ebp)
    31a8:	0f 95 c0             	setne  %al
    31ab:	25 ff 00 00 00       	and    $0xff,%eax
    31b0:	83 c2 08             	add    $0x8,%edx
    31b3:	39 c3                	cmp    %eax,%ebx
    31b5:	8d 45 dc             	lea    -0x24(%ebp),%eax
    31b8:	89 44 24 04          	mov    %eax,0x4(%esp)
    31bc:	8d 45 d8             	lea    -0x28(%ebp),%eax
    31bf:	89 04 24             	mov    %eax,(%esp)
    31c2:	8b 45 08             	mov    0x8(%ebp),%eax
    31c5:	0f 84 85 00 00 00    	je     3250 <bigint_get_value_int+0x170>
    31cb:	e8 a0 fb ff ff       	call   2d70 <bigint_sub_abs.isra.3>
    31d0:	3b 5d e0             	cmp    -0x20(%ebp),%ebx
    31d3:	0f 95 c0             	setne  %al
    31d6:	25 ff 00 00 00       	and    $0xff,%eax
    31db:	89 45 e0             	mov    %eax,-0x20(%ebp)
    31de:	8b 45 d8             	mov    -0x28(%ebp),%eax
    31e1:	8b 5d dc             	mov    -0x24(%ebp),%ebx
    31e4:	89 04 24             	mov    %eax,(%esp)
    31e7:	c7 45 d4 00 00 00 00 	movl   $0x0,-0x2c(%ebp)
    31ee:	c7 45 d0 00 00 00 00 	movl   $0x0,-0x30(%ebp)
    31f5:	e8 36 6a 02 00       	call   29c30 <free>
    31fa:	8b 45 e4             	mov    -0x1c(%ebp),%eax
    31fd:	c7 45 d8 00 00 00 00 	movl   $0x0,-0x28(%ebp)
    3204:	89 04 24             	mov    %eax,(%esp)
    3207:	c7 45 e0 00 00 00 00 	movl   $0x0,-0x20(%ebp)
    320e:	c7 45 dc 00 00 00 00 	movl   $0x0,-0x24(%ebp)
    3215:	e8 16 6a 02 00       	call   29c30 <free>
    321a:	85 db                	test   %ebx,%ebx
    321c:	75 43                	jne    3261 <bigint_get_value_int+0x181>
    321e:	8b 45 0c             	mov    0xc(%ebp),%eax
    3221:	8b 55 c4             	mov    -0x3c(%ebp),%edx
    3224:	89 10                	mov    %edx,(%eax)
    3226:	31 c0                	xor    %eax,%eax
    3228:	83 c4 4c             	add    $0x4c,%esp
    322b:	5b                   	pop    %ebx
    322c:	5e                   	pop    %esi
    322d:	5f                   	pop    %edi
    322e:	5d                   	pop    %ebp
    322f:	c3                   	ret    
    3230:	31 db                	xor    %ebx,%ebx
    3232:	89 5d c4             	mov    %ebx,-0x3c(%ebp)
    3235:	31 c0                	xor    %eax,%eax
    3237:	e9 f2 fe ff ff       	jmp    312e <bigint_get_value_int+0x4e>
    323c:	8d 74 26 00          	lea    0x0(%esi,%eiz,1),%esi
    3240:	31 f6                	xor    %esi,%esi
    3242:	b8 01 00 00 00       	mov    $0x1,%eax
    3247:	e9 04 ff ff ff       	jmp    3150 <bigint_get_value_int+0x70>
    324c:	8d 74 26 00          	lea    0x0(%esi,%eiz,1),%esi
    3250:	e8 0b fa ff ff       	call   2c60 <bigint_add_abs.isra.2>
    3255:	89 5d e0             	mov    %ebx,-0x20(%ebp)
    3258:	eb 84                	jmp    31de <bigint_get_value_int+0xfe>
    325a:	31 db                	xor    %ebx,%ebx
    325c:	e9 ad fe ff ff       	jmp    310e <bigint_get_value_int+0x2e>
    3261:	b8 f2 ff ff ff       	mov    $0xfffffff2,%eax
    3266:	eb c0                	jmp    3228 <bigint_get_value_int+0x148>
    3268:	e8 ab 07 00 00       	call   3a18 <bigint_alloc.isra.0.part.1>
    326d:	8d 76 00             	lea    0x0(%esi),%esi

00003270 <bigint_is_zero>:
    3270:	55                   	push   %ebp
    3271:	89 e5                	mov    %esp,%ebp
    3273:	8b 45 08             	mov    0x8(%ebp),%eax
    3276:	5d                   	pop    %ebp
    3277:	8b 00                	mov    (%eax),%eax
    3279:	85 c0                	test   %eax,%eax
    327b:	0f 94 c0             	sete   %al
    327e:	25 ff 00 00 00       	and    $0xff,%eax
    3283:	c3                   	ret    
    3284:	8d b6 00 00 00 00    	lea    0x0(%esi),%esi
    328a:	8d bf 00 00 00 00    	lea    0x0(%edi),%edi

00003290 <bigint_is_negative>:
    3290:	55                   	push   %ebp
    3291:	89 e5                	mov    %esp,%ebp
    3293:	83 ec 18             	sub    $0x18,%esp
    3296:	8b 55 08             	mov    0x8(%ebp),%edx
    3299:	8b 42 04             	mov    0x4(%edx),%eax
    329c:	85 c0                	test   %eax,%eax
    329e:	74 06                	je     32a6 <bigint_is_negative+0x16>
    32a0:	8b 12                	mov    (%edx),%edx
    32a2:	85 d2                	test   %edx,%edx
    32a4:	74 02                	je     32a8 <bigint_is_negative+0x18>
    32a6:	c9                   	leave  
    32a7:	c3                   	ret    
    32a8:	c7 44 24 08 f7 00 00 	movl   $0xf7,0x8(%esp)
    32af:	00 
    32b0:	c7 44 24 04 8d 9d 03 	movl   $0x39d8d,0x4(%esp)
    32b7:	00 
    32b8:	c7 04 24 a8 9d 03 00 	movl   $0x39da8,(%esp)
    32bf:	e8 2c 14 03 00       	call   346f0 <assert_abort>
    32c4:	8d b6 00 00 00 00    	lea    0x0(%esi),%esi
    32ca:	8d bf 00 00 00 00    	lea    0x0(%edi),%edi

000032d0 <bigint_div_digit>:
    32d0:	55                   	push   %ebp
    32d1:	89 e5                	mov    %esp,%ebp
    32d3:	57                   	push   %edi
    32d4:	56                   	push   %esi
    32d5:	53                   	push   %ebx
    32d6:	83 ec 2c             	sub    $0x2c,%esp
    32d9:	8b 7d 08             	mov    0x8(%ebp),%edi
    32dc:	8b 5d 10             	mov    0x10(%ebp),%ebx
    32df:	8a 55 0c             	mov    0xc(%ebp),%dl
    32e2:	8b 0f                	mov    (%edi),%ecx
    32e4:	89 c8                	mov    %ecx,%eax
    32e6:	85 c9                	test   %ecx,%ecx
    32e8:	75 05                	jne    32ef <bigint_div_digit+0x1f>
    32ea:	b8 01 00 00 00       	mov    $0x1,%eax
    32ef:	89 04 24             	mov    %eax,(%esp)
    32f2:	88 55 dc             	mov    %dl,-0x24(%ebp)
    32f5:	89 4d e0             	mov    %ecx,-0x20(%ebp)
    32f8:	e8 23 68 02 00       	call   29b20 <malloc>
    32fd:	8a 55 dc             	mov    -0x24(%ebp),%dl
    3300:	89 c6                	mov    %eax,%esi
    3302:	89 43 08             	mov    %eax,0x8(%ebx)
    3305:	85 c0                	test   %eax,%eax
    3307:	8b 4d e0             	mov    -0x20(%ebp),%ecx
    330a:	0f 84 85 00 00 00    	je     3395 <bigint_div_digit+0xc5>
    3310:	8b 47 04             	mov    0x4(%edi),%eax
    3313:	89 0b                	mov    %ecx,(%ebx)
    3315:	89 43 04             	mov    %eax,0x4(%ebx)
    3318:	85 c9                	test   %ecx,%ecx
    331a:	74 75                	je     3391 <bigint_div_digit+0xc1>
    331c:	31 c0                	xor    %eax,%eax
    331e:	89 5d e4             	mov    %ebx,-0x1c(%ebp)
    3321:	88 d0                	mov    %dl,%al
    3323:	31 d2                	xor    %edx,%edx
    3325:	89 c3                	mov    %eax,%ebx
    3327:	eb 0d                	jmp    3336 <bigint_div_digit+0x66>
    3329:	8d b4 26 00 00 00 00 	lea    0x0(%esi,%eiz,1),%esi
    3330:	8b 45 e4             	mov    -0x1c(%ebp),%eax
    3333:	8b 70 08             	mov    0x8(%eax),%esi
    3336:	49                   	dec    %ecx
    3337:	8b 47 08             	mov    0x8(%edi),%eax
    333a:	c1 e2 08             	shl    $0x8,%edx
    333d:	8a 04 08             	mov    (%eax,%ecx,1),%al
    3340:	25 ff 00 00 00       	and    $0xff,%eax
    3345:	01 d0                	add    %edx,%eax
    3347:	31 d2                	xor    %edx,%edx
    3349:	66 f7 f3             	div    %bx
    334c:	88 04 0e             	mov    %al,(%esi,%ecx,1)
    334f:	85 c9                	test   %ecx,%ecx
    3351:	75 dd                	jne    3330 <bigint_div_digit+0x60>
    3353:	8b 5d e4             	mov    -0x1c(%ebp),%ebx
    3356:	8b 3b                	mov    (%ebx),%edi
    3358:	85 ff                	test   %edi,%edi
    335a:	74 21                	je     337d <bigint_div_digit+0xad>
    335c:	8b 73 08             	mov    0x8(%ebx),%esi
    335f:	8d 4f ff             	lea    -0x1(%edi),%ecx
    3362:	80 7c 3e ff 00       	cmpb   $0x0,-0x1(%esi,%edi,1)
    3367:	74 0e                	je     3377 <bigint_div_digit+0xa7>
    3369:	eb 19                	jmp    3384 <bigint_div_digit+0xb4>
    336b:	90                   	nop
    336c:	8d 74 26 00          	lea    0x0(%esi,%eiz,1),%esi
    3370:	49                   	dec    %ecx
    3371:	80 3c 0e 00          	cmpb   $0x0,(%esi,%ecx,1)
    3375:	75 0d                	jne    3384 <bigint_div_digit+0xb4>
    3377:	89 0b                	mov    %ecx,(%ebx)
    3379:	85 c9                	test   %ecx,%ecx
    337b:	75 f3                	jne    3370 <bigint_div_digit+0xa0>
    337d:	c7 43 04 00 00 00 00 	movl   $0x0,0x4(%ebx)
    3384:	8b 4d 14             	mov    0x14(%ebp),%ecx
    3387:	88 11                	mov    %dl,(%ecx)
    3389:	83 c4 2c             	add    $0x2c,%esp
    338c:	5b                   	pop    %ebx
    338d:	5e                   	pop    %esi
    338e:	5f                   	pop    %edi
    338f:	5d                   	pop    %ebp
    3390:	c3                   	ret    
    3391:	31 d2                	xor    %edx,%edx
    3393:	eb e8                	jmp    337d <bigint_div_digit+0xad>
    3395:	e8 7e 06 00 00       	call   3a18 <bigint_alloc.isra.0.part.1>
    339a:	8d b6 00 00 00 00    	lea    0x0(%esi),%esi

000033a0 <bigint_add>:
    33a0:	55                   	push   %ebp
    33a1:	89 e5                	mov    %esp,%ebp
    33a3:	57                   	push   %edi
    33a4:	56                   	push   %esi
    33a5:	53                   	push   %ebx
    33a6:	83 ec 1c             	sub    $0x1c,%esp
    33a9:	8b 45 08             	mov    0x8(%ebp),%eax
    33ac:	8b 4d 0c             	mov    0xc(%ebp),%ecx
    33af:	8b 5d 10             	mov    0x10(%ebp),%ebx
    33b2:	8b 70 04             	mov    0x4(%eax),%esi
    33b5:	8b 79 04             	mov    0x4(%ecx),%edi
    33b8:	85 f6                	test   %esi,%esi
    33ba:	89 5c 24 04          	mov    %ebx,0x4(%esp)
    33be:	0f 95 c2             	setne  %dl
    33c1:	81 e2 ff 00 00 00    	and    $0xff,%edx
    33c7:	85 ff                	test   %edi,%edi
    33c9:	89 d6                	mov    %edx,%esi
    33cb:	8d 79 08             	lea    0x8(%ecx),%edi
    33ce:	0f 95 c2             	setne  %dl
    33d1:	81 e2 ff 00 00 00    	and    $0xff,%edx
    33d7:	89 3c 24             	mov    %edi,(%esp)
    33da:	39 d6                	cmp    %edx,%esi
    33dc:	8d 50 08             	lea    0x8(%eax),%edx
    33df:	74 1f                	je     3400 <bigint_add+0x60>
    33e1:	e8 8a f9 ff ff       	call   2d70 <bigint_sub_abs.isra.3>
    33e6:	3b 73 04             	cmp    0x4(%ebx),%esi
    33e9:	0f 95 c0             	setne  %al
    33ec:	25 ff 00 00 00       	and    $0xff,%eax
    33f1:	89 43 04             	mov    %eax,0x4(%ebx)
    33f4:	83 c4 1c             	add    $0x1c,%esp
    33f7:	5b                   	pop    %ebx
    33f8:	5e                   	pop    %esi
    33f9:	5f                   	pop    %edi
    33fa:	5d                   	pop    %ebp
    33fb:	c3                   	ret    
    33fc:	8d 74 26 00          	lea    0x0(%esi,%eiz,1),%esi
    3400:	e8 5b f8 ff ff       	call   2c60 <bigint_add_abs.isra.2>
    3405:	89 73 04             	mov    %esi,0x4(%ebx)
    3408:	83 c4 1c             	add    $0x1c,%esp
    340b:	5b                   	pop    %ebx
    340c:	5e                   	pop    %esi
    340d:	5f                   	pop    %edi
    340e:	5d                   	pop    %ebp
    340f:	c3                   	ret    

00003410 <bigint_sub>:
    3410:	55                   	push   %ebp
    3411:	89 e5                	mov    %esp,%ebp
    3413:	57                   	push   %edi
    3414:	56                   	push   %esi
    3415:	53                   	push   %ebx
    3416:	83 ec 1c             	sub    $0x1c,%esp
    3419:	8b 45 08             	mov    0x8(%ebp),%eax
    341c:	8b 4d 0c             	mov    0xc(%ebp),%ecx
    341f:	8b 5d 10             	mov    0x10(%ebp),%ebx
    3422:	8b 50 04             	mov    0x4(%eax),%edx
    3425:	8d 79 08             	lea    0x8(%ecx),%edi
    3428:	85 d2                	test   %edx,%edx
    342a:	0f 95 c2             	setne  %dl
    342d:	81 e2 ff 00 00 00    	and    $0xff,%edx
    3433:	89 d6                	mov    %edx,%esi
    3435:	83 79 04 01          	cmpl   $0x1,0x4(%ecx)
    3439:	0f 95 c2             	setne  %dl
    343c:	81 e2 ff 00 00 00    	and    $0xff,%edx
    3442:	89 5c 24 04          	mov    %ebx,0x4(%esp)
    3446:	39 d6                	cmp    %edx,%esi
    3448:	89 3c 24             	mov    %edi,(%esp)
    344b:	8d 50 08             	lea    0x8(%eax),%edx
    344e:	74 20                	je     3470 <bigint_sub+0x60>
    3450:	e8 1b f9 ff ff       	call   2d70 <bigint_sub_abs.isra.3>
    3455:	3b 73 04             	cmp    0x4(%ebx),%esi
    3458:	0f 95 c0             	setne  %al
    345b:	25 ff 00 00 00       	and    $0xff,%eax
    3460:	89 43 04             	mov    %eax,0x4(%ebx)
    3463:	83 c4 1c             	add    $0x1c,%esp
    3466:	5b                   	pop    %ebx
    3467:	5e                   	pop    %esi
    3468:	5f                   	pop    %edi
    3469:	5d                   	pop    %ebp
    346a:	c3                   	ret    
    346b:	90                   	nop
    346c:	8d 74 26 00          	lea    0x0(%esi,%eiz,1),%esi
    3470:	e8 eb f7 ff ff       	call   2c60 <bigint_add_abs.isra.2>
    3475:	89 73 04             	mov    %esi,0x4(%ebx)
    3478:	83 c4 1c             	add    $0x1c,%esp
    347b:	5b                   	pop    %ebx
    347c:	5e                   	pop    %esi
    347d:	5f                   	pop    %edi
    347e:	5d                   	pop    %ebp
    347f:	c3                   	ret    

00003480 <bigint_mul>:
    3480:	55                   	push   %ebp
    3481:	89 e5                	mov    %esp,%ebp
    3483:	57                   	push   %edi
    3484:	56                   	push   %esi
    3485:	53                   	push   %ebx
    3486:	83 ec 5c             	sub    $0x5c,%esp
    3489:	c7 45 d4 00 00 00 00 	movl   $0x0,-0x2c(%ebp)
    3490:	8b 75 08             	mov    0x8(%ebp),%esi
    3493:	c7 04 24 01 00 00 00 	movl   $0x1,(%esp)
    349a:	e8 81 66 02 00       	call   29b20 <malloc>
    349f:	89 45 d8             	mov    %eax,-0x28(%ebp)
    34a2:	85 c0                	test   %eax,%eax
    34a4:	0f 84 e8 01 00 00    	je     3692 <bigint_mul+0x212>
    34aa:	8b 45 0c             	mov    0xc(%ebp),%eax
    34ad:	31 db                	xor    %ebx,%ebx
    34af:	c7 45 d0 00 00 00 00 	movl   $0x0,-0x30(%ebp)
    34b6:	8b 00                	mov    (%eax),%eax
    34b8:	85 c0                	test   %eax,%eax
    34ba:	0f 84 ca 01 00 00    	je     368a <bigint_mul+0x20a>
    34c0:	8b 55 0c             	mov    0xc(%ebp),%edx
    34c3:	8b 42 08             	mov    0x8(%edx),%eax
    34c6:	8a 04 18             	mov    (%eax,%ebx,1),%al
    34c9:	88 45 b3             	mov    %al,-0x4d(%ebp)
    34cc:	8b 06                	mov    (%esi),%eax
    34ce:	40                   	inc    %eax
    34cf:	89 c7                	mov    %eax,%edi
    34d1:	89 45 b4             	mov    %eax,-0x4c(%ebp)
    34d4:	01 df                	add    %ebx,%edi
    34d6:	89 f8                	mov    %edi,%eax
    34d8:	85 ff                	test   %edi,%edi
    34da:	75 05                	jne    34e1 <bigint_mul+0x61>
    34dc:	b8 01 00 00 00       	mov    $0x1,%eax
    34e1:	89 04 24             	mov    %eax,(%esp)
    34e4:	e8 37 66 02 00       	call   29b20 <malloc>
    34e9:	89 45 cc             	mov    %eax,-0x34(%ebp)
    34ec:	85 c0                	test   %eax,%eax
    34ee:	0f 84 9e 01 00 00    	je     3692 <bigint_mul+0x212>
    34f4:	8b 56 04             	mov    0x4(%esi),%edx
    34f7:	89 7d c4             	mov    %edi,-0x3c(%ebp)
    34fa:	89 55 c8             	mov    %edx,-0x38(%ebp)
    34fd:	31 d2                	xor    %edx,%edx
    34ff:	85 db                	test   %ebx,%ebx
    3501:	75 08                	jne    350b <bigint_mul+0x8b>
    3503:	eb 0f                	jmp    3514 <bigint_mul+0x94>
    3505:	8d 76 00             	lea    0x0(%esi),%esi
    3508:	8b 45 cc             	mov    -0x34(%ebp),%eax
    350b:	c6 04 10 00          	movb   $0x0,(%eax,%edx,1)
    350f:	42                   	inc    %edx
    3510:	39 da                	cmp    %ebx,%edx
    3512:	75 f4                	jne    3508 <bigint_mul+0x88>
    3514:	8b 45 b4             	mov    -0x4c(%ebp),%eax
    3517:	31 c9                	xor    %ecx,%ecx
    3519:	31 d2                	xor    %edx,%edx
    351b:	85 c0                	test   %eax,%eax
    351d:	74 34                	je     3553 <bigint_mul+0xd3>
    351f:	90                   	nop
    3520:	31 c0                	xor    %eax,%eax
    3522:	3b 16                	cmp    (%esi),%edx
    3524:	73 09                	jae    352f <bigint_mul+0xaf>
    3526:	8b 7e 08             	mov    0x8(%esi),%edi
    3529:	8a 45 b3             	mov    -0x4d(%ebp),%al
    352c:	f6 24 17             	mulb   (%edi,%edx,1)
    352f:	8b 7d cc             	mov    -0x34(%ebp),%edi
    3532:	81 e1 ff 00 00 00    	and    $0xff,%ecx
    3538:	01 df                	add    %ebx,%edi
    353a:	01 c8                	add    %ecx,%eax
    353c:	89 c1                	mov    %eax,%ecx
    353e:	66 c1 e9 08          	shr    $0x8,%cx
    3542:	88 04 17             	mov    %al,(%edi,%edx,1)
    3545:	42                   	inc    %edx
    3546:	39 55 b4             	cmp    %edx,-0x4c(%ebp)
    3549:	75 d5                	jne    3520 <bigint_mul+0xa0>
    354b:	84 c9                	test   %cl,%cl
    354d:	0f 85 44 01 00 00    	jne    3697 <bigint_mul+0x217>
    3553:	8b 45 c4             	mov    -0x3c(%ebp),%eax
    3556:	85 c0                	test   %eax,%eax
    3558:	74 29                	je     3583 <bigint_mul+0x103>
    355a:	8b 55 cc             	mov    -0x34(%ebp),%edx
    355d:	80 7c 02 ff 00       	cmpb   $0x0,-0x1(%edx,%eax,1)
    3562:	74 17                	je     357b <bigint_mul+0xfb>
    3564:	e9 0c 01 00 00       	jmp    3675 <bigint_mul+0x1f5>
    3569:	8d b4 26 00 00 00 00 	lea    0x0(%esi,%eiz,1),%esi
    3570:	80 7c 02 ff 00       	cmpb   $0x0,-0x1(%edx,%eax,1)
    3575:	0f 85 d5 00 00 00    	jne    3650 <bigint_mul+0x1d0>
    357b:	48                   	dec    %eax
    357c:	89 45 c4             	mov    %eax,-0x3c(%ebp)
    357f:	85 c0                	test   %eax,%eax
    3581:	75 ed                	jne    3570 <bigint_mul+0xf0>
    3583:	c7 45 c8 00 00 00 00 	movl   $0x0,-0x38(%ebp)
    358a:	31 ff                	xor    %edi,%edi
    358c:	8b 45 d4             	mov    -0x2c(%ebp),%eax
    358f:	8d 4d d0             	lea    -0x30(%ebp),%ecx
    3592:	85 c0                	test   %eax,%eax
    3594:	8d 55 cc             	lea    -0x34(%ebp),%edx
    3597:	0f 95 c0             	setne  %al
    359a:	25 ff 00 00 00       	and    $0xff,%eax
    359f:	39 f8                	cmp    %edi,%eax
    35a1:	8d 45 dc             	lea    -0x24(%ebp),%eax
    35a4:	89 44 24 04          	mov    %eax,0x4(%esp)
    35a8:	8d 45 d8             	lea    -0x28(%ebp),%eax
    35ab:	89 04 24             	mov    %eax,(%esp)
    35ae:	8d 45 c4             	lea    -0x3c(%ebp),%eax
    35b1:	0f 84 b1 00 00 00    	je     3668 <bigint_mul+0x1e8>
    35b7:	e8 b4 f7 ff ff       	call   2d70 <bigint_sub_abs.isra.3>
    35bc:	39 7d e0             	cmp    %edi,-0x20(%ebp)
    35bf:	0f 95 c0             	setne  %al
    35c2:	25 ff 00 00 00       	and    $0xff,%eax
    35c7:	89 45 e0             	mov    %eax,-0x20(%ebp)
    35ca:	8b 45 cc             	mov    -0x34(%ebp),%eax
    35cd:	c7 45 c8 00 00 00 00 	movl   $0x0,-0x38(%ebp)
    35d4:	89 04 24             	mov    %eax,(%esp)
    35d7:	c7 45 c4 00 00 00 00 	movl   $0x0,-0x3c(%ebp)
    35de:	e8 4d 66 02 00       	call   29c30 <free>
    35e3:	8b 45 d8             	mov    -0x28(%ebp),%eax
    35e6:	89 04 24             	mov    %eax,(%esp)
    35e9:	c7 45 cc 00 00 00 00 	movl   $0x0,-0x34(%ebp)
    35f0:	c7 45 d4 00 00 00 00 	movl   $0x0,-0x2c(%ebp)
    35f7:	c7 45 d0 00 00 00 00 	movl   $0x0,-0x30(%ebp)
    35fe:	e8 2d 66 02 00       	call   29c30 <free>
    3603:	8b 55 e4             	mov    -0x1c(%ebp),%edx
    3606:	89 55 d8             	mov    %edx,-0x28(%ebp)
    3609:	8b 55 dc             	mov    -0x24(%ebp),%edx
    360c:	89 55 d0             	mov    %edx,-0x30(%ebp)
    360f:	8b 55 0c             	mov    0xc(%ebp),%edx
    3612:	8b 45 e0             	mov    -0x20(%ebp),%eax
    3615:	43                   	inc    %ebx
    3616:	89 45 d4             	mov    %eax,-0x2c(%ebp)
    3619:	39 1a                	cmp    %ebx,(%edx)
    361b:	0f 87 9f fe ff ff    	ja     34c0 <bigint_mul+0x40>
    3621:	8b 4a 04             	mov    0x4(%edx),%ecx
    3624:	85 c9                	test   %ecx,%ecx
    3626:	74 0a                	je     3632 <bigint_mul+0x1b2>
    3628:	85 c0                	test   %eax,%eax
    362a:	0f 94 c0             	sete   %al
    362d:	25 ff 00 00 00       	and    $0xff,%eax
    3632:	8b 55 10             	mov    0x10(%ebp),%edx
    3635:	89 42 04             	mov    %eax,0x4(%edx)
    3638:	8b 45 d8             	mov    -0x28(%ebp),%eax
    363b:	89 42 08             	mov    %eax,0x8(%edx)
    363e:	8b 45 d0             	mov    -0x30(%ebp),%eax
    3641:	89 02                	mov    %eax,(%edx)
    3643:	83 c4 5c             	add    $0x5c,%esp
    3646:	5b                   	pop    %ebx
    3647:	5e                   	pop    %esi
    3648:	5f                   	pop    %edi
    3649:	5d                   	pop    %ebp
    364a:	c3                   	ret    
    364b:	90                   	nop
    364c:	8d 74 26 00          	lea    0x0(%esi,%eiz,1),%esi
    3650:	8b 45 c8             	mov    -0x38(%ebp),%eax
    3653:	85 c0                	test   %eax,%eax
    3655:	0f 95 c0             	setne  %al
    3658:	25 ff 00 00 00       	and    $0xff,%eax
    365d:	89 c7                	mov    %eax,%edi
    365f:	e9 28 ff ff ff       	jmp    358c <bigint_mul+0x10c>
    3664:	8d 74 26 00          	lea    0x0(%esi,%eiz,1),%esi
    3668:	e8 f3 f5 ff ff       	call   2c60 <bigint_add_abs.isra.2>
    366d:	89 7d e0             	mov    %edi,-0x20(%ebp)
    3670:	e9 55 ff ff ff       	jmp    35ca <bigint_mul+0x14a>
    3675:	8b 45 c8             	mov    -0x38(%ebp),%eax
    3678:	85 c0                	test   %eax,%eax
    367a:	0f 95 c2             	setne  %dl
    367d:	81 e2 ff 00 00 00    	and    $0xff,%edx
    3683:	89 d7                	mov    %edx,%edi
    3685:	e9 02 ff ff ff       	jmp    358c <bigint_mul+0x10c>
    368a:	8b 45 d4             	mov    -0x2c(%ebp),%eax
    368d:	8b 55 0c             	mov    0xc(%ebp),%edx
    3690:	eb 8f                	jmp    3621 <bigint_mul+0x1a1>
    3692:	e8 81 03 00 00       	call   3a18 <bigint_alloc.isra.0.part.1>
    3697:	c7 44 24 08 83 02 00 	movl   $0x283,0x8(%esp)
    369e:	00 
    369f:	c7 44 24 04 8d 9d 03 	movl   $0x39d8d,0x4(%esp)
    36a6:	00 
    36a7:	c7 04 24 9a 9d 03 00 	movl   $0x39d9a,(%esp)
    36ae:	e8 3d 10 03 00       	call   346f0 <assert_abort>
    36b3:	8d b6 00 00 00 00    	lea    0x0(%esi),%esi
    36b9:	8d bc 27 00 00 00 00 	lea    0x0(%edi,%eiz,1),%edi

000036c0 <bigint_get_as_string>:
    36c0:	55                   	push   %ebp
    36c1:	89 e5                	mov    %esp,%ebp
    36c3:	57                   	push   %edi
    36c4:	56                   	push   %esi
    36c5:	53                   	push   %ebx
    36c6:	83 ec 3c             	sub    $0x3c,%esp
    36c9:	8b 55 08             	mov    0x8(%ebp),%edx
    36cc:	8b 1a                	mov    (%edx),%ebx
    36ce:	85 db                	test   %ebx,%ebx
    36d0:	75 2e                	jne    3700 <bigint_get_as_string+0x40>
    36d2:	c7 04 24 01 00 00 00 	movl   $0x1,(%esp)
    36d9:	e8 42 64 02 00       	call   29b20 <malloc>
    36de:	89 c7                	mov    %eax,%edi
    36e0:	85 c0                	test   %eax,%eax
    36e2:	0f 84 f3 02 00 00    	je     39db <bigint_get_as_string+0x31b>
    36e8:	bb 02 00 00 00       	mov    $0x2,%ebx
    36ed:	c7 45 d8 01 00 00 00 	movl   $0x1,-0x28(%ebp)
    36f4:	e9 e9 00 00 00       	jmp    37e2 <bigint_get_as_string+0x122>
    36f9:	8d b4 26 00 00 00 00 	lea    0x0(%esi,%eiz,1),%esi
    3700:	8b 7a 04             	mov    0x4(%edx),%edi
    3703:	89 1c 24             	mov    %ebx,(%esp)
    3706:	85 ff                	test   %edi,%edi
    3708:	0f 95 c1             	setne  %cl
    370b:	81 e1 ff 00 00 00    	and    $0xff,%ecx
    3711:	89 ce                	mov    %ecx,%esi
    3713:	e8 08 64 02 00       	call   29b20 <malloc>
    3718:	89 45 e4             	mov    %eax,-0x1c(%ebp)
    371b:	85 c0                	test   %eax,%eax
    371d:	0f 84 b8 02 00 00    	je     39db <bigint_get_as_string+0x31b>
    3723:	89 c1                	mov    %eax,%ecx
    3725:	8b 7d 08             	mov    0x8(%ebp),%edi
    3728:	31 c0                	xor    %eax,%eax
    372a:	8d b6 00 00 00 00    	lea    0x0(%esi),%esi
    3730:	8b 57 08             	mov    0x8(%edi),%edx
    3733:	8a 14 02             	mov    (%edx,%eax,1),%dl
    3736:	88 14 01             	mov    %dl,(%ecx,%eax,1)
    3739:	40                   	inc    %eax
    373a:	39 d8                	cmp    %ebx,%eax
    373c:	75 f2                	jne    3730 <bigint_get_as_string+0x70>
    373e:	46                   	inc    %esi
    373f:	89 75 d8             	mov    %esi,-0x28(%ebp)
    3742:	8d b6 00 00 00 00    	lea    0x0(%esi),%esi
    3748:	89 1c 24             	mov    %ebx,(%esp)
    374b:	e8 d0 63 02 00       	call   29b20 <malloc>
    3750:	89 c7                	mov    %eax,%edi
    3752:	85 c0                	test   %eax,%eax
    3754:	0f 84 81 02 00 00    	je     39db <bigint_get_as_string+0x31b>
    375a:	89 d8                	mov    %ebx,%eax
    375c:	31 d2                	xor    %edx,%edx
    375e:	89 5d e0             	mov    %ebx,-0x20(%ebp)
    3761:	8d b4 26 00 00 00 00 	lea    0x0(%esi,%eiz,1),%esi
    3768:	48                   	dec    %eax
    3769:	8b 4d e4             	mov    -0x1c(%ebp),%ecx
    376c:	31 db                	xor    %ebx,%ebx
    376e:	8a 1c 01             	mov    (%ecx,%eax,1),%bl
    3771:	89 d1                	mov    %edx,%ecx
    3773:	c1 e1 08             	shl    $0x8,%ecx
    3776:	01 d9                	add    %ebx,%ecx
    3778:	89 ca                	mov    %ecx,%edx
    377a:	81 e2 ff ff 00 00    	and    $0xffff,%edx
    3780:	8d 1c 52             	lea    (%edx,%edx,2),%ebx
    3783:	89 de                	mov    %ebx,%esi
    3785:	c1 e6 04             	shl    $0x4,%esi
    3788:	01 f3                	add    %esi,%ebx
    378a:	89 de                	mov    %ebx,%esi
    378c:	c1 e6 08             	shl    $0x8,%esi
    378f:	01 f3                	add    %esi,%ebx
    3791:	8d 14 9a             	lea    (%edx,%ebx,4),%edx
    3794:	c1 ea 13             	shr    $0x13,%edx
    3797:	89 d3                	mov    %edx,%ebx
    3799:	88 1c 07             	mov    %bl,(%edi,%eax,1)
    379c:	8d 14 9b             	lea    (%ebx,%ebx,4),%edx
    379f:	01 d2                	add    %edx,%edx
    37a1:	29 d1                	sub    %edx,%ecx
    37a3:	85 c0                	test   %eax,%eax
    37a5:	89 ca                	mov    %ecx,%edx
    37a7:	75 bf                	jne    3768 <bigint_get_as_string+0xa8>
    37a9:	8b 5d e0             	mov    -0x20(%ebp),%ebx
    37ac:	85 db                	test   %ebx,%ebx
    37ae:	74 23                	je     37d3 <bigint_get_as_string+0x113>
    37b0:	80 7c 1f ff 00       	cmpb   $0x0,-0x1(%edi,%ebx,1)
    37b5:	0f 85 9d 00 00 00    	jne    3858 <bigint_get_as_string+0x198>
    37bb:	4b                   	dec    %ebx
    37bc:	eb 11                	jmp    37cf <bigint_get_as_string+0x10f>
    37be:	66 90                	xchg   %ax,%ax
    37c0:	8d 43 ff             	lea    -0x1(%ebx),%eax
    37c3:	80 3c 07 00          	cmpb   $0x0,(%edi,%eax,1)
    37c7:	0f 85 8b 00 00 00    	jne    3858 <bigint_get_as_string+0x198>
    37cd:	89 c3                	mov    %eax,%ebx
    37cf:	85 db                	test   %ebx,%ebx
    37d1:	75 ed                	jne    37c0 <bigint_get_as_string+0x100>
    37d3:	8b 45 e4             	mov    -0x1c(%ebp),%eax
    37d6:	89 04 24             	mov    %eax,(%esp)
    37d9:	e8 52 64 02 00       	call   29c30 <free>
    37de:	8b 5d d8             	mov    -0x28(%ebp),%ebx
    37e1:	43                   	inc    %ebx
    37e2:	89 3c 24             	mov    %edi,(%esp)
    37e5:	e8 46 64 02 00       	call   29c30 <free>
    37ea:	89 1c 24             	mov    %ebx,(%esp)
    37ed:	e8 2e 63 02 00       	call   29b20 <malloc>
    37f2:	89 45 d4             	mov    %eax,-0x2c(%ebp)
    37f5:	85 c0                	test   %eax,%eax
    37f7:	0f 84 c6 01 00 00    	je     39c3 <bigint_get_as_string+0x303>
    37fd:	8b 55 08             	mov    0x8(%ebp),%edx
    3800:	8b 1a                	mov    (%edx),%ebx
    3802:	89 5d e0             	mov    %ebx,-0x20(%ebp)
    3805:	85 db                	test   %ebx,%ebx
    3807:	75 69                	jne    3872 <bigint_get_as_string+0x1b2>
    3809:	8b 45 d4             	mov    -0x2c(%ebp),%eax
    380c:	c6 00 30             	movb   $0x30,(%eax)
    380f:	89 5d e0             	mov    %ebx,-0x20(%ebp)
    3812:	85 db                	test   %ebx,%ebx
    3814:	75 67                	jne    387d <bigint_get_as_string+0x1bd>
    3816:	c7 04 24 01 00 00 00 	movl   $0x1,(%esp)
    381d:	e8 fe 62 02 00       	call   29b20 <malloc>
    3822:	89 c7                	mov    %eax,%edi
    3824:	85 c0                	test   %eax,%eax
    3826:	0f 84 af 01 00 00    	je     39db <bigint_get_as_string+0x31b>
    382c:	8d 74 26 00          	lea    0x0(%esi,%eiz,1),%esi
    3830:	89 3c 24             	mov    %edi,(%esp)
    3833:	e8 f8 63 02 00       	call   29c30 <free>
    3838:	8b 45 d4             	mov    -0x2c(%ebp),%eax
    383b:	8b 55 d8             	mov    -0x28(%ebp),%edx
    383e:	c6 04 10 00          	movb   $0x0,(%eax,%edx,1)
    3842:	8b 45 0c             	mov    0xc(%ebp),%eax
    3845:	8b 55 d4             	mov    -0x2c(%ebp),%edx
    3848:	89 10                	mov    %edx,(%eax)
    384a:	83 c4 3c             	add    $0x3c,%esp
    384d:	5b                   	pop    %ebx
    384e:	5e                   	pop    %esi
    384f:	5f                   	pop    %edi
    3850:	5d                   	pop    %ebp
    3851:	c3                   	ret    
    3852:	8d b6 00 00 00 00    	lea    0x0(%esi),%esi
    3858:	8b 45 e4             	mov    -0x1c(%ebp),%eax
    385b:	89 04 24             	mov    %eax,(%esp)
    385e:	e8 cd 63 02 00       	call   29c30 <free>
    3863:	8b 45 d8             	mov    -0x28(%ebp),%eax
    3866:	40                   	inc    %eax
    3867:	89 7d e4             	mov    %edi,-0x1c(%ebp)
    386a:	89 45 d8             	mov    %eax,-0x28(%ebp)
    386d:	e9 d6 fe ff ff       	jmp    3748 <bigint_get_as_string+0x88>
    3872:	8b 72 04             	mov    0x4(%edx),%esi
    3875:	85 f6                	test   %esi,%esi
    3877:	0f 85 de 00 00 00    	jne    395b <bigint_get_as_string+0x29b>
    387d:	89 1c 24             	mov    %ebx,(%esp)
    3880:	e8 9b 62 02 00       	call   29b20 <malloc>
    3885:	89 45 e4             	mov    %eax,-0x1c(%ebp)
    3888:	85 c0                	test   %eax,%eax
    388a:	0f 84 4b 01 00 00    	je     39db <bigint_get_as_string+0x31b>
    3890:	89 c1                	mov    %eax,%ecx
    3892:	8b 75 08             	mov    0x8(%ebp),%esi
    3895:	31 c0                	xor    %eax,%eax
    3897:	90                   	nop
    3898:	8b 56 08             	mov    0x8(%esi),%edx
    389b:	8a 14 02             	mov    (%edx,%eax,1),%dl
    389e:	88 14 01             	mov    %dl,(%ecx,%eax,1)
    38a1:	40                   	inc    %eax
    38a2:	39 d8                	cmp    %ebx,%eax
    38a4:	75 f2                	jne    3898 <bigint_get_as_string+0x1d8>
    38a6:	8b 55 d4             	mov    -0x2c(%ebp),%edx
    38a9:	8b 4d d8             	mov    -0x28(%ebp),%ecx
    38ac:	01 ca                	add    %ecx,%edx
    38ae:	89 55 dc             	mov    %edx,-0x24(%ebp)
    38b1:	8d b4 26 00 00 00 00 	lea    0x0(%esi,%eiz,1),%esi
    38b8:	8b 4d e0             	mov    -0x20(%ebp),%ecx
    38bb:	89 0c 24             	mov    %ecx,(%esp)
    38be:	e8 5d 62 02 00       	call   29b20 <malloc>
    38c3:	85 c0                	test   %eax,%eax
    38c5:	0f 84 10 01 00 00    	je     39db <bigint_get_as_string+0x31b>
    38cb:	8b 5d e0             	mov    -0x20(%ebp),%ebx
    38ce:	31 f6                	xor    %esi,%esi
    38d0:	4b                   	dec    %ebx
    38d1:	8b 55 e4             	mov    -0x1c(%ebp),%edx
    38d4:	c1 e6 08             	shl    $0x8,%esi
    38d7:	31 c9                	xor    %ecx,%ecx
    38d9:	8a 0c 1a             	mov    (%edx,%ebx,1),%cl
    38dc:	01 f1                	add    %esi,%ecx
    38de:	89 ca                	mov    %ecx,%edx
    38e0:	81 e2 ff ff 00 00    	and    $0xffff,%edx
    38e6:	8d 34 52             	lea    (%edx,%edx,2),%esi
    38e9:	89 f7                	mov    %esi,%edi
    38eb:	c1 e7 04             	shl    $0x4,%edi
    38ee:	01 fe                	add    %edi,%esi
    38f0:	89 f7                	mov    %esi,%edi
    38f2:	c1 e7 08             	shl    $0x8,%edi
    38f5:	01 fe                	add    %edi,%esi
    38f7:	8d 34 b2             	lea    (%edx,%esi,4),%esi
    38fa:	c1 ee 13             	shr    $0x13,%esi
    38fd:	89 f2                	mov    %esi,%edx
    38ff:	88 14 18             	mov    %dl,(%eax,%ebx,1)
    3902:	8d 34 92             	lea    (%edx,%edx,4),%esi
    3905:	01 f6                	add    %esi,%esi
    3907:	29 f1                	sub    %esi,%ecx
    3909:	85 db                	test   %ebx,%ebx
    390b:	89 ce                	mov    %ecx,%esi
    390d:	75 c1                	jne    38d0 <bigint_get_as_string+0x210>
    390f:	8b 55 e0             	mov    -0x20(%ebp),%edx
    3912:	85 d2                	test   %edx,%edx
    3914:	74 21                	je     3937 <bigint_get_as_string+0x277>
    3916:	8b 4d e0             	mov    -0x20(%ebp),%ecx
    3919:	80 7c 08 ff 00       	cmpb   $0x0,-0x1(%eax,%ecx,1)
    391e:	75 7a                	jne    399a <bigint_get_as_string+0x2da>
    3920:	89 cb                	mov    %ecx,%ebx
    3922:	4b                   	dec    %ebx
    3923:	eb 0e                	jmp    3933 <bigint_get_as_string+0x273>
    3925:	8d 76 00             	lea    0x0(%esi),%esi
    3928:	8d 53 ff             	lea    -0x1(%ebx),%edx
    392b:	80 3c 10 00          	cmpb   $0x0,(%eax,%edx,1)
    392f:	75 37                	jne    3968 <bigint_get_as_string+0x2a8>
    3931:	89 d3                	mov    %edx,%ebx
    3933:	85 db                	test   %ebx,%ebx
    3935:	75 f1                	jne    3928 <bigint_get_as_string+0x268>
    3937:	89 c7                	mov    %eax,%edi
    3939:	8b 45 e4             	mov    -0x1c(%ebp),%eax
    393c:	89 04 24             	mov    %eax,(%esp)
    393f:	81 e6 ff ff 00 00    	and    $0xffff,%esi
    3945:	e8 e6 62 02 00       	call   29c30 <free>
    394a:	8b 4d dc             	mov    -0x24(%ebp),%ecx
    394d:	8a 96 da 9d 03 00    	mov    0x39dda(%esi),%dl
    3953:	88 51 ff             	mov    %dl,-0x1(%ecx)
    3956:	e9 d5 fe ff ff       	jmp    3830 <bigint_get_as_string+0x170>
    395b:	8b 45 d4             	mov    -0x2c(%ebp),%eax
    395e:	c6 00 2d             	movb   $0x2d,(%eax)
    3961:	e9 a9 fe ff ff       	jmp    380f <bigint_get_as_string+0x14f>
    3966:	66 90                	xchg   %ax,%ax
    3968:	8b 55 e4             	mov    -0x1c(%ebp),%edx
    396b:	81 e6 ff ff 00 00    	and    $0xffff,%esi
    3971:	89 14 24             	mov    %edx,(%esp)
    3974:	89 45 cc             	mov    %eax,-0x34(%ebp)
    3977:	e8 b4 62 02 00       	call   29c30 <free>
    397c:	8b 55 dc             	mov    -0x24(%ebp),%edx
    397f:	8a 8e da 9d 03 00    	mov    0x39dda(%esi),%cl
    3985:	89 5d e0             	mov    %ebx,-0x20(%ebp)
    3988:	88 4a ff             	mov    %cl,-0x1(%edx)
    398b:	4a                   	dec    %edx
    398c:	89 55 dc             	mov    %edx,-0x24(%ebp)
    398f:	8b 45 cc             	mov    -0x34(%ebp),%eax
    3992:	89 45 e4             	mov    %eax,-0x1c(%ebp)
    3995:	e9 1e ff ff ff       	jmp    38b8 <bigint_get_as_string+0x1f8>
    399a:	8b 55 e4             	mov    -0x1c(%ebp),%edx
    399d:	81 e6 ff ff 00 00    	and    $0xffff,%esi
    39a3:	89 14 24             	mov    %edx,(%esp)
    39a6:	89 45 cc             	mov    %eax,-0x34(%ebp)
    39a9:	e8 82 62 02 00       	call   29c30 <free>
    39ae:	8b 55 dc             	mov    -0x24(%ebp),%edx
    39b1:	8a 8e da 9d 03 00    	mov    0x39dda(%esi),%cl
    39b7:	88 4a ff             	mov    %cl,-0x1(%edx)
    39ba:	4a                   	dec    %edx
    39bb:	89 55 dc             	mov    %edx,-0x24(%ebp)
    39be:	8b 45 cc             	mov    -0x34(%ebp),%eax
    39c1:	eb cf                	jmp    3992 <bigint_get_as_string+0x2d2>
    39c3:	c7 04 24 48 96 03 00 	movl   $0x39648,(%esp)
    39ca:	e8 a1 0a 02 00       	call   24470 <printf>
    39cf:	c7 04 24 01 00 00 00 	movl   $0x1,(%esp)
    39d6:	e8 c5 82 01 00       	call   1bca0 <exit>
    39db:	e8 38 00 00 00       	call   3a18 <bigint_alloc.isra.0.part.1>

000039e0 <bigint_print>:
    39e0:	55                   	push   %ebp
    39e1:	89 e5                	mov    %esp,%ebp
    39e3:	83 ec 28             	sub    $0x28,%esp
    39e6:	8d 45 f4             	lea    -0xc(%ebp),%eax
    39e9:	89 44 24 04          	mov    %eax,0x4(%esp)
    39ed:	8b 45 08             	mov    0x8(%ebp),%eax
    39f0:	89 04 24             	mov    %eax,(%esp)
    39f3:	e8 c8 fc ff ff       	call   36c0 <bigint_get_as_string>
    39f8:	8b 45 f4             	mov    -0xc(%ebp),%eax
    39fb:	89 44 24 04          	mov    %eax,0x4(%esp)
    39ff:	c7 04 24 5c ab 03 00 	movl   $0x3ab5c,(%esp)
    3a06:	e8 65 0a 02 00       	call   24470 <printf>
    3a0b:	8b 45 f4             	mov    -0xc(%ebp),%eax
    3a0e:	89 04 24             	mov    %eax,(%esp)
    3a11:	e8 1a 62 02 00       	call   29c30 <free>
    3a16:	c9                   	leave  
    3a17:	c3                   	ret    

00003a18 <bigint_alloc.isra.0.part.1>:
    3a18:	55                   	push   %ebp
    3a19:	89 e5                	mov    %esp,%ebp
    3a1b:	83 ec 18             	sub    $0x18,%esp
    3a1e:	c7 04 24 48 96 03 00 	movl   $0x39648,(%esp)
    3a25:	e8 46 0a 02 00       	call   24470 <printf>
    3a2a:	c7 04 24 01 00 00 00 	movl   $0x1,(%esp)
    3a31:	e8 6a 82 01 00       	call   1bca0 <exit>
    3a36:	66 90                	xchg   %ax,%ax
    3a38:	66 90                	xchg   %ax,%ax
    3a3a:	66 90                	xchg   %ax,%ax
    3a3c:	66 90                	xchg   %ax,%ax
    3a3e:	66 90                	xchg   %ax,%ax

00003a40 <builtin_declare>:
    3a40:	55                   	push   %ebp
    3a41:	89 e5                	mov    %esp,%ebp
    3a43:	56                   	push   %esi
    3a44:	53                   	push   %ebx
    3a45:	83 ec 70             	sub    $0x70,%esp
    3a48:	8b 75 08             	mov    0x8(%ebp),%esi
    3a4b:	c7 44 24 04 20 00 00 	movl   $0x20,0x4(%esp)
    3a52:	00 
    3a53:	c7 04 24 01 00 00 00 	movl   $0x1,(%esp)
    3a5a:	e8 61 60 02 00       	call   29ac0 <calloc>
    3a5f:	89 c3                	mov    %eax,%ebx
    3a61:	85 c0                	test   %eax,%eax
    3a63:	0f 84 b8 00 00 00    	je     3b21 <builtin_declare+0xe1>
    3a69:	89 30                	mov    %esi,(%eax)
    3a6b:	89 46 04             	mov    %eax,0x4(%esi)
    3a6e:	8d 45 9c             	lea    -0x64(%ebp),%eax
    3a71:	c7 44 24 04 e4 9d 03 	movl   $0x39de4,0x4(%esp)
    3a78:	00 
    3a79:	89 04 24             	mov    %eax,(%esp)
    3a7c:	8d 75 b4             	lea    -0x4c(%ebp),%esi
    3a7f:	e8 cc 0c 00 00       	call   4750 <input_new_string>
    3a84:	8b 45 9c             	mov    -0x64(%ebp),%eax
    3a87:	89 44 24 04          	mov    %eax,0x4(%esp)
    3a8b:	89 34 24             	mov    %esi,(%esp)
    3a8e:	e8 bd 18 00 00       	call   5350 <lex_init>
    3a93:	8b 03                	mov    (%ebx),%eax
    3a95:	89 74 24 08          	mov    %esi,0x8(%esp)
    3a99:	8d 75 a0             	lea    -0x60(%ebp),%esi
    3a9c:	89 44 24 04          	mov    %eax,0x4(%esp)
    3aa0:	89 34 24             	mov    %esi,(%esp)
    3aa3:	e8 78 3e 00 00       	call   7920 <parse_init>
    3aa8:	89 34 24             	mov    %esi,(%esp)
    3aab:	e8 50 7c 00 00       	call   b700 <parse_module>
    3ab0:	e8 eb 0a 01 00       	call   145a0 <stree_ident_new>
    3ab5:	c7 04 24 f9 9d 03 00 	movl   $0x39df9,(%esp)
    3abc:	89 c6                	mov    %eax,%esi
    3abe:	e8 2d 10 01 00       	call   14af0 <strtab_get_sid>
    3ac3:	89 06                	mov    %eax,(%esi)
    3ac5:	8b 03                	mov    (%ebx),%eax
    3ac7:	89 74 24 08          	mov    %esi,0x8(%esp)
    3acb:	c7 44 24 04 00 00 00 	movl   $0x0,0x4(%esp)
    3ad2:	00 
    3ad3:	89 04 24             	mov    %eax,(%esp)
    3ad6:	e8 55 55 01 00       	call   19030 <symbol_lookup_in_csi>
    3adb:	85 c0                	test   %eax,%eax
    3add:	74 5a                	je     3b39 <builtin_declare+0xf9>
    3adf:	89 1c 24             	mov    %ebx,(%esp)
    3ae2:	89 43 04             	mov    %eax,0x4(%ebx)
    3ae5:	e8 36 d6 ff ff       	call   1120 <bi_error_declare>
    3aea:	89 1c 24             	mov    %ebx,(%esp)
    3aed:	e8 8e d7 ff ff       	call   1280 <bi_char_declare>
    3af2:	89 1c 24             	mov    %ebx,(%esp)
    3af5:	e8 e6 d8 ff ff       	call   13e0 <bi_console_declare>
    3afa:	89 1c 24             	mov    %ebx,(%esp)
    3afd:	e8 6e da ff ff       	call   1570 <bi_int_declare>
    3b02:	89 1c 24             	mov    %ebx,(%esp)
    3b05:	e8 56 dc ff ff       	call   1760 <bi_task_declare>
    3b0a:	89 1c 24             	mov    %ebx,(%esp)
    3b0d:	e8 5e e2 ff ff       	call   1d70 <bi_textfile_declare>
    3b12:	89 1c 24             	mov    %ebx,(%esp)
    3b15:	e8 96 e5 ff ff       	call   20b0 <bi_string_declare>
    3b1a:	83 c4 70             	add    $0x70,%esp
    3b1d:	5b                   	pop    %ebx
    3b1e:	5e                   	pop    %esi
    3b1f:	5d                   	pop    %ebp
    3b20:	c3                   	ret    
    3b21:	c7 04 24 48 96 03 00 	movl   $0x39648,(%esp)
    3b28:	e8 43 09 02 00       	call   24470 <printf>
    3b2d:	c7 04 24 01 00 00 00 	movl   $0x1,(%esp)
    3b34:	e8 67 81 01 00       	call   1bca0 <exit>
    3b39:	c7 44 24 08 be 00 00 	movl   $0xbe,0x8(%esp)
    3b40:	00 
    3b41:	c7 44 24 04 00 9e 03 	movl   $0x39e00,0x4(%esp)
    3b48:	00 
    3b49:	c7 04 24 12 9e 03 00 	movl   $0x39e12,(%esp)
    3b50:	e8 9b 0b 03 00       	call   346f0 <assert_abort>
    3b55:	8d 74 26 00          	lea    0x0(%esi,%eiz,1),%esi
    3b59:	8d bc 27 00 00 00 00 	lea    0x0(%edi,%eiz,1),%edi

00003b60 <builtin_bind>:
    3b60:	55                   	push   %ebp
    3b61:	89 e5                	mov    %esp,%ebp
    3b63:	53                   	push   %ebx
    3b64:	83 ec 14             	sub    $0x14,%esp
    3b67:	8b 5d 08             	mov    0x8(%ebp),%ebx
    3b6a:	89 1c 24             	mov    %ebx,(%esp)
    3b6d:	e8 4e d5 ff ff       	call   10c0 <bi_boxed_bind>
    3b72:	89 1c 24             	mov    %ebx,(%esp)
    3b75:	e8 c6 d5 ff ff       	call   1140 <bi_error_bind>
    3b7a:	89 1c 24             	mov    %ebx,(%esp)
    3b7d:	e8 0e d7 ff ff       	call   1290 <bi_char_bind>
    3b82:	89 1c 24             	mov    %ebx,(%esp)
    3b85:	e8 26 d9 ff ff       	call   14b0 <bi_console_bind>
    3b8a:	89 1c 24             	mov    %ebx,(%esp)
    3b8d:	e8 ee d9 ff ff       	call   1580 <bi_int_bind>
    3b92:	89 1c 24             	mov    %ebx,(%esp)
    3b95:	e8 e6 db ff ff       	call   1780 <bi_task_bind>
    3b9a:	89 1c 24             	mov    %ebx,(%esp)
    3b9d:	e8 ee e1 ff ff       	call   1d90 <bi_textfile_bind>
    3ba2:	89 5d 08             	mov    %ebx,0x8(%ebp)
    3ba5:	83 c4 14             	add    $0x14,%esp
    3ba8:	5b                   	pop    %ebx
    3ba9:	5d                   	pop    %ebp
    3baa:	e9 11 e5 ff ff       	jmp    20c0 <bi_string_bind>
    3baf:	90                   	nop

00003bb0 <builtin_get_gf_class>:
    3bb0:	55                   	push   %ebp
    3bb1:	89 e5                	mov    %esp,%ebp
    3bb3:	8b 45 08             	mov    0x8(%ebp),%eax
    3bb6:	8b 40 04             	mov    0x4(%eax),%eax
    3bb9:	85 c0                	test   %eax,%eax
    3bbb:	74 0b                	je     3bc8 <builtin_get_gf_class+0x18>
    3bbd:	89 45 08             	mov    %eax,0x8(%ebp)
    3bc0:	5d                   	pop    %ebp
    3bc1:	e9 ba 51 01 00       	jmp    18d80 <symbol_to_csi>
    3bc6:	66 90                	xchg   %ax,%ax
    3bc8:	31 c0                	xor    %eax,%eax
    3bca:	5d                   	pop    %ebp
    3bcb:	c3                   	ret    
    3bcc:	8d 74 26 00          	lea    0x0(%esi,%eiz,1),%esi

00003bd0 <builtin_code_snippet>:
    3bd0:	55                   	push   %ebp
    3bd1:	89 e5                	mov    %esp,%ebp
    3bd3:	53                   	push   %ebx
    3bd4:	83 ec 74             	sub    $0x74,%esp
    3bd7:	8b 45 0c             	mov    0xc(%ebp),%eax
    3bda:	8d 5d b4             	lea    -0x4c(%ebp),%ebx
    3bdd:	89 44 24 04          	mov    %eax,0x4(%esp)
    3be1:	8d 45 9c             	lea    -0x64(%ebp),%eax
    3be4:	89 04 24             	mov    %eax,(%esp)
    3be7:	e8 64 0b 00 00       	call   4750 <input_new_string>
    3bec:	8b 45 9c             	mov    -0x64(%ebp),%eax
    3bef:	89 44 24 04          	mov    %eax,0x4(%esp)
    3bf3:	89 1c 24             	mov    %ebx,(%esp)
    3bf6:	e8 55 17 00 00       	call   5350 <lex_init>
    3bfb:	8b 45 08             	mov    0x8(%ebp),%eax
    3bfe:	89 5c 24 08          	mov    %ebx,0x8(%esp)
    3c02:	8d 5d a0             	lea    -0x60(%ebp),%ebx
    3c05:	8b 00                	mov    (%eax),%eax
    3c07:	89 1c 24             	mov    %ebx,(%esp)
    3c0a:	89 44 24 04          	mov    %eax,0x4(%esp)
    3c0e:	e8 0d 3d 00 00       	call   7920 <parse_init>
    3c13:	89 1c 24             	mov    %ebx,(%esp)
    3c16:	e8 e5 7a 00 00       	call   b700 <parse_module>
    3c1b:	83 c4 74             	add    $0x74,%esp
    3c1e:	5b                   	pop    %ebx
    3c1f:	5d                   	pop    %ebp
    3c20:	c3                   	ret    
    3c21:	eb 0d                	jmp    3c30 <builtin_find_lvl0>
    3c23:	90                   	nop
    3c24:	90                   	nop
    3c25:	90                   	nop
    3c26:	90                   	nop
    3c27:	90                   	nop
    3c28:	90                   	nop
    3c29:	90                   	nop
    3c2a:	90                   	nop
    3c2b:	90                   	nop
    3c2c:	90                   	nop
    3c2d:	90                   	nop
    3c2e:	90                   	nop
    3c2f:	90                   	nop

00003c30 <builtin_find_lvl0>:
    3c30:	55                   	push   %ebp
    3c31:	89 e5                	mov    %esp,%ebp
    3c33:	53                   	push   %ebx
    3c34:	83 ec 14             	sub    $0x14,%esp
    3c37:	e8 64 09 01 00       	call   145a0 <stree_ident_new>
    3c3c:	89 c3                	mov    %eax,%ebx
    3c3e:	8b 45 0c             	mov    0xc(%ebp),%eax
    3c41:	89 04 24             	mov    %eax,(%esp)
    3c44:	e8 a7 0e 01 00       	call   14af0 <strtab_get_sid>
    3c49:	89 03                	mov    %eax,(%ebx)
    3c4b:	8b 45 08             	mov    0x8(%ebp),%eax
    3c4e:	89 5c 24 08          	mov    %ebx,0x8(%esp)
    3c52:	c7 44 24 04 00 00 00 	movl   $0x0,0x4(%esp)
    3c59:	00 
    3c5a:	8b 00                	mov    (%eax),%eax
    3c5c:	89 04 24             	mov    %eax,(%esp)
    3c5f:	e8 cc 53 01 00       	call   19030 <symbol_lookup_in_csi>
    3c64:	85 c0                	test   %eax,%eax
    3c66:	74 06                	je     3c6e <builtin_find_lvl0+0x3e>
    3c68:	83 c4 14             	add    $0x14,%esp
    3c6b:	5b                   	pop    %ebx
    3c6c:	5d                   	pop    %ebp
    3c6d:	c3                   	ret    
    3c6e:	c7 44 24 08 be 00 00 	movl   $0xbe,0x8(%esp)
    3c75:	00 
    3c76:	c7 44 24 04 00 9e 03 	movl   $0x39e00,0x4(%esp)
    3c7d:	00 
    3c7e:	c7 04 24 12 9e 03 00 	movl   $0x39e12,(%esp)
    3c85:	e8 66 0a 03 00       	call   346f0 <assert_abort>
    3c8a:	8d b6 00 00 00 00    	lea    0x0(%esi),%esi

00003c90 <builtin_find_lvl1>:
    3c90:	55                   	push   %ebp
    3c91:	89 e5                	mov    %esp,%ebp
    3c93:	57                   	push   %edi
    3c94:	56                   	push   %esi
    3c95:	53                   	push   %ebx
    3c96:	83 ec 1c             	sub    $0x1c,%esp
    3c99:	8b 75 08             	mov    0x8(%ebp),%esi
    3c9c:	e8 ff 08 01 00       	call   145a0 <stree_ident_new>
    3ca1:	89 c3                	mov    %eax,%ebx
    3ca3:	8b 45 0c             	mov    0xc(%ebp),%eax
    3ca6:	89 04 24             	mov    %eax,(%esp)
    3ca9:	e8 42 0e 01 00       	call   14af0 <strtab_get_sid>
    3cae:	89 03                	mov    %eax,(%ebx)
    3cb0:	89 5c 24 08          	mov    %ebx,0x8(%esp)
    3cb4:	c7 44 24 04 00 00 00 	movl   $0x0,0x4(%esp)
    3cbb:	00 
    3cbc:	8b 06                	mov    (%esi),%eax
    3cbe:	89 04 24             	mov    %eax,(%esp)
    3cc1:	e8 6a 53 01 00       	call   19030 <symbol_lookup_in_csi>
    3cc6:	85 c0                	test   %eax,%eax
    3cc8:	74 39                	je     3d03 <builtin_find_lvl1+0x73>
    3cca:	89 04 24             	mov    %eax,(%esp)
    3ccd:	e8 ae 50 01 00       	call   18d80 <symbol_to_csi>
    3cd2:	89 c7                	mov    %eax,%edi
    3cd4:	85 c0                	test   %eax,%eax
    3cd6:	74 63                	je     3d3b <builtin_find_lvl1+0xab>
    3cd8:	8b 45 10             	mov    0x10(%ebp),%eax
    3cdb:	89 04 24             	mov    %eax,(%esp)
    3cde:	e8 0d 0e 01 00       	call   14af0 <strtab_get_sid>
    3ce3:	89 03                	mov    %eax,(%ebx)
    3ce5:	89 5c 24 08          	mov    %ebx,0x8(%esp)
    3ce9:	89 7c 24 04          	mov    %edi,0x4(%esp)
    3ced:	8b 06                	mov    (%esi),%eax
    3cef:	89 04 24             	mov    %eax,(%esp)
    3cf2:	e8 39 53 01 00       	call   19030 <symbol_lookup_in_csi>
    3cf7:	85 c0                	test   %eax,%eax
    3cf9:	74 24                	je     3d1f <builtin_find_lvl1+0x8f>
    3cfb:	83 c4 1c             	add    $0x1c,%esp
    3cfe:	5b                   	pop    %ebx
    3cff:	5e                   	pop    %esi
    3d00:	5f                   	pop    %edi
    3d01:	5d                   	pop    %ebp
    3d02:	c3                   	ret    
    3d03:	c7 44 24 08 d9 00 00 	movl   $0xd9,0x8(%esp)
    3d0a:	00 
    3d0b:	c7 44 24 04 00 9e 03 	movl   $0x39e00,0x4(%esp)
    3d12:	00 
    3d13:	c7 04 24 0e 9e 03 00 	movl   $0x39e0e,(%esp)
    3d1a:	e8 d1 09 03 00       	call   346f0 <assert_abort>
    3d1f:	c7 44 24 08 df 00 00 	movl   $0xdf,0x8(%esp)
    3d26:	00 
    3d27:	c7 44 24 04 00 9e 03 	movl   $0x39e00,0x4(%esp)
    3d2e:	00 
    3d2f:	c7 04 24 1e 9e 03 00 	movl   $0x39e1e,(%esp)
    3d36:	e8 b5 09 03 00       	call   346f0 <assert_abort>
    3d3b:	c7 44 24 08 db 00 00 	movl   $0xdb,0x8(%esp)
    3d42:	00 
    3d43:	c7 44 24 04 00 9e 03 	movl   $0x39e00,0x4(%esp)
    3d4a:	00 
    3d4b:	c7 04 24 88 c5 03 00 	movl   $0x3c588,(%esp)
    3d52:	e8 99 09 03 00       	call   346f0 <assert_abort>
    3d57:	89 f6                	mov    %esi,%esi
    3d59:	8d bc 27 00 00 00 00 	lea    0x0(%edi,%eiz,1),%edi

00003d60 <builtin_fun_bind>:
    3d60:	55                   	push   %ebp
    3d61:	89 e5                	mov    %esp,%ebp
    3d63:	57                   	push   %edi
    3d64:	56                   	push   %esi
    3d65:	53                   	push   %ebx
    3d66:	83 ec 1c             	sub    $0x1c,%esp
    3d69:	8b 75 08             	mov    0x8(%ebp),%esi
    3d6c:	e8 2f 08 01 00       	call   145a0 <stree_ident_new>
    3d71:	89 c3                	mov    %eax,%ebx
    3d73:	8b 45 0c             	mov    0xc(%ebp),%eax
    3d76:	89 04 24             	mov    %eax,(%esp)
    3d79:	e8 72 0d 01 00       	call   14af0 <strtab_get_sid>
    3d7e:	89 03                	mov    %eax,(%ebx)
    3d80:	89 5c 24 08          	mov    %ebx,0x8(%esp)
    3d84:	c7 44 24 04 00 00 00 	movl   $0x0,0x4(%esp)
    3d8b:	00 
    3d8c:	8b 06                	mov    (%esi),%eax
    3d8e:	89 04 24             	mov    %eax,(%esp)
    3d91:	e8 9a 52 01 00       	call   19030 <symbol_lookup_in_csi>
    3d96:	85 c0                	test   %eax,%eax
    3d98:	74 52                	je     3dec <builtin_fun_bind+0x8c>
    3d9a:	89 04 24             	mov    %eax,(%esp)
    3d9d:	e8 de 4f 01 00       	call   18d80 <symbol_to_csi>
    3da2:	89 c7                	mov    %eax,%edi
    3da4:	85 c0                	test   %eax,%eax
    3da6:	0f 84 94 00 00 00    	je     3e40 <builtin_fun_bind+0xe0>
    3dac:	8b 45 10             	mov    0x10(%ebp),%eax
    3daf:	89 04 24             	mov    %eax,(%esp)
    3db2:	e8 39 0d 01 00       	call   14af0 <strtab_get_sid>
    3db7:	89 03                	mov    %eax,(%ebx)
    3db9:	89 5c 24 08          	mov    %ebx,0x8(%esp)
    3dbd:	89 7c 24 04          	mov    %edi,0x4(%esp)
    3dc1:	8b 06                	mov    (%esi),%eax
    3dc3:	89 04 24             	mov    %eax,(%esp)
    3dc6:	e8 65 52 01 00       	call   19030 <symbol_lookup_in_csi>
    3dcb:	85 c0                	test   %eax,%eax
    3dcd:	74 55                	je     3e24 <builtin_fun_bind+0xc4>
    3dcf:	89 04 24             	mov    %eax,(%esp)
    3dd2:	e8 39 50 01 00       	call   18e10 <symbol_to_fun>
    3dd7:	85 c0                	test   %eax,%eax
    3dd9:	74 2d                	je     3e08 <builtin_fun_bind+0xa8>
    3ddb:	8b 40 0c             	mov    0xc(%eax),%eax
    3dde:	8b 55 14             	mov    0x14(%ebp),%edx
    3de1:	89 50 08             	mov    %edx,0x8(%eax)
    3de4:	83 c4 1c             	add    $0x1c,%esp
    3de7:	5b                   	pop    %ebx
    3de8:	5e                   	pop    %esi
    3de9:	5f                   	pop    %edi
    3dea:	5d                   	pop    %ebp
    3deb:	c3                   	ret    
    3dec:	c7 44 24 08 d9 00 00 	movl   $0xd9,0x8(%esp)
    3df3:	00 
    3df4:	c7 44 24 04 00 9e 03 	movl   $0x39e00,0x4(%esp)
    3dfb:	00 
    3dfc:	c7 04 24 0e 9e 03 00 	movl   $0x39e0e,(%esp)
    3e03:	e8 e8 08 03 00       	call   346f0 <assert_abort>
    3e08:	c7 44 24 08 f7 00 00 	movl   $0xf7,0x8(%esp)
    3e0f:	00 
    3e10:	c7 44 24 04 00 9e 03 	movl   $0x39e00,0x4(%esp)
    3e17:	00 
    3e18:	c7 04 24 67 af 03 00 	movl   $0x3af67,(%esp)
    3e1f:	e8 cc 08 03 00       	call   346f0 <assert_abort>
    3e24:	c7 44 24 08 df 00 00 	movl   $0xdf,0x8(%esp)
    3e2b:	00 
    3e2c:	c7 44 24 04 00 9e 03 	movl   $0x39e00,0x4(%esp)
    3e33:	00 
    3e34:	c7 04 24 1e 9e 03 00 	movl   $0x39e1e,(%esp)
    3e3b:	e8 b0 08 03 00       	call   346f0 <assert_abort>
    3e40:	c7 44 24 08 db 00 00 	movl   $0xdb,0x8(%esp)
    3e47:	00 
    3e48:	c7 44 24 04 00 9e 03 	movl   $0x39e00,0x4(%esp)
    3e4f:	00 
    3e50:	c7 04 24 88 c5 03 00 	movl   $0x3c588,(%esp)
    3e57:	e8 94 08 03 00       	call   346f0 <assert_abort>
    3e5c:	8d 74 26 00          	lea    0x0(%esi,%eiz,1),%esi

00003e60 <builtin_run_proc>:
    3e60:	55                   	push   %ebp
    3e61:	89 e5                	mov    %esp,%ebp
    3e63:	53                   	push   %ebx
    3e64:	83 ec 14             	sub    $0x14,%esp
    3e67:	8b 45 0c             	mov    0xc(%ebp),%eax
    3e6a:	8b 55 08             	mov    0x8(%ebp),%edx
    3e6d:	8b 18                	mov    (%eax),%ebx
    3e6f:	8b 40 08             	mov    0x8(%eax),%eax
    3e72:	85 c0                	test   %eax,%eax
    3e74:	74 0a                	je     3e80 <builtin_run_proc+0x20>
    3e76:	89 55 08             	mov    %edx,0x8(%ebp)
    3e79:	83 c4 14             	add    $0x14,%esp
    3e7c:	5b                   	pop    %ebx
    3e7d:	5d                   	pop    %ebp
    3e7e:	ff e0                	jmp    *%eax
    3e80:	c7 04 24 5c 9e 03 00 	movl   $0x39e5c,(%esp)
    3e87:	e8 e4 05 02 00       	call   24470 <printf>
    3e8c:	89 1c 24             	mov    %ebx,(%esp)
    3e8f:	e8 bc 56 01 00       	call   19550 <symbol_print_fqn>
    3e94:	c7 04 24 16 bb 03 00 	movl   $0x3bb16,(%esp)
    3e9b:	e8 d0 05 02 00       	call   24470 <printf>
    3ea0:	c7 04 24 01 00 00 00 	movl   $0x1,(%esp)
    3ea7:	e8 f4 7d 01 00       	call   1bca0 <exit>
    3eac:	8d 74 26 00          	lea    0x0(%esi,%eiz,1),%esi

00003eb0 <builtin_get_self_mbr_var>:
    3eb0:	55                   	push   %ebp
    3eb1:	89 e5                	mov    %esp,%ebp
    3eb3:	53                   	push   %ebx
    3eb4:	83 ec 14             	sub    $0x14,%esp
    3eb7:	8b 45 08             	mov    0x8(%ebp),%eax
    3eba:	89 04 24             	mov    %eax,(%esp)
    3ebd:	e8 4e 96 00 00       	call   d510 <run_get_current_proc_ar>
    3ec2:	8b 00                	mov    (%eax),%eax
    3ec4:	83 38 08             	cmpl   $0x8,(%eax)
    3ec7:	75 27                	jne    3ef0 <builtin_get_self_mbr_var+0x40>
    3ec9:	8b 58 04             	mov    0x4(%eax),%ebx
    3ecc:	8b 45 0c             	mov    0xc(%ebp),%eax
    3ecf:	89 04 24             	mov    %eax,(%esp)
    3ed2:	83 c3 08             	add    $0x8,%ebx
    3ed5:	e8 16 0c 01 00       	call   14af0 <strtab_get_sid>
    3eda:	89 1c 24             	mov    %ebx,(%esp)
    3edd:	89 44 24 04          	mov    %eax,0x4(%esp)
    3ee1:	e8 ba 0a 00 00       	call   49a0 <intmap_get>
    3ee6:	85 c0                	test   %eax,%eax
    3ee8:	74 22                	je     3f0c <builtin_get_self_mbr_var+0x5c>
    3eea:	83 c4 14             	add    $0x14,%esp
    3eed:	5b                   	pop    %ebx
    3eee:	5d                   	pop    %ebp
    3eef:	c3                   	ret    
    3ef0:	c7 44 24 08 2a 01 00 	movl   $0x12a,0x8(%esp)
    3ef7:	00 
    3ef8:	c7 44 24 04 00 9e 03 	movl   $0x39e00,0x4(%esp)
    3eff:	00 
    3f00:	c7 04 24 2e 9e 03 00 	movl   $0x39e2e,(%esp)
    3f07:	e8 e4 07 03 00       	call   346f0 <assert_abort>
    3f0c:	c7 44 24 08 2f 01 00 	movl   $0x12f,0x8(%esp)
    3f13:	00 
    3f14:	c7 44 24 04 00 9e 03 	movl   $0x39e00,0x4(%esp)
    3f1b:	00 
    3f1c:	c7 04 24 4c 9e 03 00 	movl   $0x39e4c,(%esp)
    3f23:	e8 c8 07 03 00       	call   346f0 <assert_abort>
    3f28:	90                   	nop
    3f29:	8d b4 26 00 00 00 00 	lea    0x0(%esi,%eiz,1),%esi

00003f30 <builtin_return_string>:
    3f30:	55                   	push   %ebp
    3f31:	89 e5                	mov    %esp,%ebp
    3f33:	56                   	push   %esi
    3f34:	53                   	push   %ebx
    3f35:	83 ec 10             	sub    $0x10,%esp
    3f38:	e8 e3 87 00 00       	call   c720 <rdata_string_new>
    3f3d:	89 c6                	mov    %eax,%esi
    3f3f:	8b 45 0c             	mov    0xc(%ebp),%eax
    3f42:	89 06                	mov    %eax,(%esi)
    3f44:	c7 04 24 03 00 00 00 	movl   $0x3,(%esp)
    3f4b:	e8 70 85 00 00       	call   c4c0 <rdata_var_new>
    3f50:	89 c3                	mov    %eax,%ebx
    3f52:	89 70 04             	mov    %esi,0x4(%eax)
    3f55:	e8 36 85 00 00       	call   c490 <rdata_value_new>
    3f5a:	89 c6                	mov    %eax,%esi
    3f5c:	89 18                	mov    %ebx,(%eax)
    3f5e:	c7 04 24 01 00 00 00 	movl   $0x1,(%esp)
    3f65:	e8 a6 83 00 00       	call   c310 <rdata_item_new>
    3f6a:	89 c3                	mov    %eax,%ebx
    3f6c:	89 70 04             	mov    %esi,0x4(%eax)
    3f6f:	8b 45 08             	mov    0x8(%ebp),%eax
    3f72:	89 04 24             	mov    %eax,(%esp)
    3f75:	e8 96 95 00 00       	call   d510 <run_get_current_proc_ar>
    3f7a:	89 58 14             	mov    %ebx,0x14(%eax)
    3f7d:	83 c4 10             	add    $0x10,%esp
    3f80:	5b                   	pop    %ebx
    3f81:	5e                   	pop    %esi
    3f82:	5d                   	pop    %ebp
    3f83:	c3                   	ret    
    3f84:	8d b6 00 00 00 00    	lea    0x0(%esi),%esi
    3f8a:	8d bf 00 00 00 00    	lea    0x0(%edi),%edi

00003f90 <builtin_declare_fun>:
    3f90:	55                   	push   %ebp
    3f91:	89 e5                	mov    %esp,%ebp
    3f93:	57                   	push   %edi
    3f94:	56                   	push   %esi
    3f95:	53                   	push   %ebx
    3f96:	83 ec 1c             	sub    $0x1c,%esp
    3f99:	e8 02 06 01 00       	call   145a0 <stree_ident_new>
    3f9e:	89 c6                	mov    %eax,%esi
    3fa0:	8b 45 0c             	mov    0xc(%ebp),%eax
    3fa3:	89 04 24             	mov    %eax,(%esp)
    3fa6:	e8 45 0b 01 00       	call   14af0 <strtab_get_sid>
    3fab:	89 06                	mov    %eax,(%esi)
    3fad:	e8 2e fd 00 00       	call   13ce0 <stree_fun_new>
    3fb2:	89 c3                	mov    %eax,%ebx
    3fb4:	89 30                	mov    %esi,(%eax)
    3fb6:	e8 65 fe 00 00       	call   13e20 <stree_proc_new>
    3fbb:	89 43 0c             	mov    %eax,0xc(%ebx)
    3fbe:	c7 40 04 00 00 00 00 	movl   $0x0,0x4(%eax)
    3fc5:	e8 d6 fe 00 00       	call   13ea0 <stree_fun_sig_new>
    3fca:	89 43 08             	mov    %eax,0x8(%ebx)
    3fcd:	89 04 24             	mov    %eax,(%esp)
    3fd0:	e8 4b 14 00 00       	call   5420 <list_init>
    3fd5:	c7 04 24 04 00 00 00 	movl   $0x4,(%esp)
    3fdc:	e8 bf fb 00 00       	call   13ba0 <stree_csimbr_new>
    3fe1:	89 c7                	mov    %eax,%edi
    3fe3:	89 58 04             	mov    %ebx,0x4(%eax)
    3fe6:	c7 04 24 04 00 00 00 	movl   $0x4,(%esp)
    3fed:	e8 ee 07 01 00       	call   147e0 <stree_symbol_new>
    3ff2:	89 c6                	mov    %eax,%esi
    3ff4:	89 58 04             	mov    %ebx,0x4(%eax)
    3ff7:	8b 45 08             	mov    0x8(%ebp),%eax
    3ffa:	89 46 08             	mov    %eax,0x8(%esi)
    3ffd:	c7 04 24 01 00 00 00 	movl   $0x1,(%esp)
    4004:	e8 d7 fd 00 00       	call   13de0 <stree_symbol_attr_new>
    4009:	89 44 24 04          	mov    %eax,0x4(%esp)
    400d:	8d 46 0c             	lea    0xc(%esi),%eax
    4010:	89 04 24             	mov    %eax,(%esp)
    4013:	e8 78 14 00 00       	call   5490 <sbi_list_append>
    4018:	8b 43 0c             	mov    0xc(%ebx),%eax
    401b:	89 73 04             	mov    %esi,0x4(%ebx)
    401e:	89 30                	mov    %esi,(%eax)
    4020:	89 7c 24 04          	mov    %edi,0x4(%esp)
    4024:	8b 7d 08             	mov    0x8(%ebp),%edi
    4027:	83 c7 38             	add    $0x38,%edi
    402a:	89 3c 24             	mov    %edi,(%esp)
    402d:	e8 5e 14 00 00       	call   5490 <sbi_list_append>
    4032:	83 c4 1c             	add    $0x1c,%esp
    4035:	89 f0                	mov    %esi,%eax
    4037:	5b                   	pop    %ebx
    4038:	5e                   	pop    %esi
    4039:	5f                   	pop    %edi
    403a:	5d                   	pop    %ebp
    403b:	c3                   	ret    
    403c:	8d 74 26 00          	lea    0x0(%esi,%eiz,1),%esi

00004040 <builtin_fun_add_arg>:
    4040:	55                   	push   %ebp
    4041:	89 e5                	mov    %esp,%ebp
    4043:	57                   	push   %edi
    4044:	56                   	push   %esi
    4045:	53                   	push   %ebx
    4046:	83 ec 2c             	sub    $0x2c,%esp
    4049:	8b 45 08             	mov    0x8(%ebp),%eax
    404c:	8b 7d 0c             	mov    0xc(%ebp),%edi
    404f:	89 04 24             	mov    %eax,(%esp)
    4052:	e8 b9 4d 01 00       	call   18e10 <symbol_to_fun>
    4057:	89 c6                	mov    %eax,%esi
    4059:	85 c0                	test   %eax,%eax
    405b:	74 3a                	je     4097 <builtin_fun_add_arg+0x57>
    405d:	e8 fe fd 00 00       	call   13e60 <stree_proc_arg_new>
    4062:	89 c3                	mov    %eax,%ebx
    4064:	e8 37 05 01 00       	call   145a0 <stree_ident_new>
    4069:	89 03                	mov    %eax,(%ebx)
    406b:	89 3c 24             	mov    %edi,(%esp)
    406e:	89 45 e4             	mov    %eax,-0x1c(%ebp)
    4071:	e8 7a 0a 01 00       	call   14af0 <strtab_get_sid>
    4076:	8b 55 e4             	mov    -0x1c(%ebp),%edx
    4079:	89 02                	mov    %eax,(%edx)
    407b:	c7 43 04 00 00 00 00 	movl   $0x0,0x4(%ebx)
    4082:	89 5d 0c             	mov    %ebx,0xc(%ebp)
    4085:	8b 46 08             	mov    0x8(%esi),%eax
    4088:	89 45 08             	mov    %eax,0x8(%ebp)
    408b:	83 c4 2c             	add    $0x2c,%esp
    408e:	5b                   	pop    %ebx
    408f:	5e                   	pop    %esi
    4090:	5f                   	pop    %edi
    4091:	5d                   	pop    %ebp
    4092:	e9 f9 13 00 00       	jmp    5490 <sbi_list_append>
    4097:	c7 44 24 08 96 01 00 	movl   $0x196,0x8(%esp)
    409e:	00 
    409f:	c7 44 24 04 00 9e 03 	movl   $0x39e00,0x4(%esp)
    40a6:	00 
    40a7:	c7 04 24 67 af 03 00 	movl   $0x3af67,(%esp)
    40ae:	e8 3d 06 03 00       	call   346f0 <assert_abort>
    40b3:	66 90                	xchg   %ax,%ax
    40b5:	66 90                	xchg   %ax,%ax
    40b7:	66 90                	xchg   %ax,%ax
    40b9:	66 90                	xchg   %ax,%ax
    40bb:	66 90                	xchg   %ax,%ax
    40bd:	66 90                	xchg   %ax,%ax
    40bf:	90                   	nop

000040c0 <cspan_new>:
    40c0:	55                   	push   %ebp
    40c1:	89 e5                	mov    %esp,%ebp
    40c3:	83 ec 18             	sub    $0x18,%esp
    40c6:	c7 44 24 04 14 00 00 	movl   $0x14,0x4(%esp)
    40cd:	00 
    40ce:	c7 04 24 01 00 00 00 	movl   $0x1,(%esp)
    40d5:	e8 e6 59 02 00       	call   29ac0 <calloc>
    40da:	85 c0                	test   %eax,%eax
    40dc:	74 1f                	je     40fd <cspan_new+0x3d>
    40de:	8b 55 08             	mov    0x8(%ebp),%edx
    40e1:	89 10                	mov    %edx,(%eax)
    40e3:	8b 55 0c             	mov    0xc(%ebp),%edx
    40e6:	89 50 04             	mov    %edx,0x4(%eax)
    40e9:	8b 55 10             	mov    0x10(%ebp),%edx
    40ec:	89 50 08             	mov    %edx,0x8(%eax)
    40ef:	8b 55 14             	mov    0x14(%ebp),%edx
    40f2:	89 50 0c             	mov    %edx,0xc(%eax)
    40f5:	8b 55 18             	mov    0x18(%ebp),%edx
    40f8:	89 50 10             	mov    %edx,0x10(%eax)
    40fb:	c9                   	leave  
    40fc:	c3                   	ret    
    40fd:	c7 04 24 48 96 03 00 	movl   $0x39648,(%esp)
    4104:	e8 67 03 02 00       	call   24470 <printf>
    4109:	c7 04 24 01 00 00 00 	movl   $0x1,(%esp)
    4110:	e8 8b 7b 01 00       	call   1bca0 <exit>
    4115:	8d 74 26 00          	lea    0x0(%esi,%eiz,1),%esi
    4119:	8d bc 27 00 00 00 00 	lea    0x0(%edi,%eiz,1),%edi

00004120 <cspan_merge>:
    4120:	55                   	push   %ebp
    4121:	89 e5                	mov    %esp,%ebp
    4123:	57                   	push   %edi
    4124:	56                   	push   %esi
    4125:	53                   	push   %ebx
    4126:	83 ec 2c             	sub    $0x2c,%esp
    4129:	8b 45 08             	mov    0x8(%ebp),%eax
    412c:	8b 55 0c             	mov    0xc(%ebp),%edx
    412f:	85 c0                	test   %eax,%eax
    4131:	74 54                	je     4187 <cspan_merge+0x67>
    4133:	85 d2                	test   %edx,%edx
    4135:	0f 84 9c 00 00 00    	je     41d7 <cspan_merge+0xb7>
    413b:	8b 18                	mov    (%eax),%ebx
    413d:	3b 1a                	cmp    (%edx),%ebx
    413f:	75 7a                	jne    41bb <cspan_merge+0x9b>
    4141:	8b 72 10             	mov    0x10(%edx),%esi
    4144:	8b 7a 0c             	mov    0xc(%edx),%edi
    4147:	8b 48 04             	mov    0x4(%eax),%ecx
    414a:	8b 50 08             	mov    0x8(%eax),%edx
    414d:	c7 44 24 04 14 00 00 	movl   $0x14,0x4(%esp)
    4154:	00 
    4155:	c7 04 24 01 00 00 00 	movl   $0x1,(%esp)
    415c:	89 55 e4             	mov    %edx,-0x1c(%ebp)
    415f:	89 4d e0             	mov    %ecx,-0x20(%ebp)
    4162:	e8 59 59 02 00       	call   29ac0 <calloc>
    4167:	8b 55 e4             	mov    -0x1c(%ebp),%edx
    416a:	85 c0                	test   %eax,%eax
    416c:	8b 4d e0             	mov    -0x20(%ebp),%ecx
    416f:	74 32                	je     41a3 <cspan_merge+0x83>
    4171:	89 18                	mov    %ebx,(%eax)
    4173:	89 48 04             	mov    %ecx,0x4(%eax)
    4176:	89 50 08             	mov    %edx,0x8(%eax)
    4179:	89 78 0c             	mov    %edi,0xc(%eax)
    417c:	89 70 10             	mov    %esi,0x10(%eax)
    417f:	83 c4 2c             	add    $0x2c,%esp
    4182:	5b                   	pop    %ebx
    4183:	5e                   	pop    %esi
    4184:	5f                   	pop    %edi
    4185:	5d                   	pop    %ebp
    4186:	c3                   	ret    
    4187:	c7 44 24 08 53 00 00 	movl   $0x53,0x8(%esp)
    418e:	00 
    418f:	c7 44 24 04 83 9e 03 	movl   $0x39e83,0x4(%esp)
    4196:	00 
    4197:	c7 04 24 1c e3 03 00 	movl   $0x3e31c,(%esp)
    419e:	e8 4d 05 03 00       	call   346f0 <assert_abort>
    41a3:	c7 04 24 48 96 03 00 	movl   $0x39648,(%esp)
    41aa:	e8 c1 02 02 00       	call   24470 <printf>
    41af:	c7 04 24 01 00 00 00 	movl   $0x1,(%esp)
    41b6:	e8 e5 7a 01 00       	call   1bca0 <exit>
    41bb:	c7 44 24 08 55 00 00 	movl   $0x55,0x8(%esp)
    41c2:	00 
    41c3:	c7 44 24 04 83 9e 03 	movl   $0x39e83,0x4(%esp)
    41ca:	00 
    41cb:	c7 04 24 99 9e 03 00 	movl   $0x39e99,(%esp)
    41d2:	e8 19 05 03 00       	call   346f0 <assert_abort>
    41d7:	c7 44 24 08 54 00 00 	movl   $0x54,0x8(%esp)
    41de:	00 
    41df:	c7 44 24 04 83 9e 03 	movl   $0x39e83,0x4(%esp)
    41e6:	00 
    41e7:	c7 04 24 8f 9e 03 00 	movl   $0x39e8f,(%esp)
    41ee:	e8 fd 04 03 00       	call   346f0 <assert_abort>
    41f3:	8d b6 00 00 00 00    	lea    0x0(%esi),%esi
    41f9:	8d bc 27 00 00 00 00 	lea    0x0(%edi,%eiz,1),%edi

00004200 <cspan_print>:
    4200:	55                   	push   %ebp
    4201:	89 e5                	mov    %esp,%ebp
    4203:	53                   	push   %ebx
    4204:	83 ec 24             	sub    $0x24,%esp
    4207:	8b 5d 08             	mov    0x8(%ebp),%ebx
    420a:	8b 03                	mov    (%ebx),%eax
    420c:	8b 00                	mov    (%eax),%eax
    420e:	c7 04 24 ae 9e 03 00 	movl   $0x39eae,(%esp)
    4215:	89 44 24 04          	mov    %eax,0x4(%esp)
    4219:	e8 52 02 02 00       	call   24470 <printf>
    421e:	8b 43 04             	mov    0x4(%ebx),%eax
    4221:	8b 53 0c             	mov    0xc(%ebx),%edx
    4224:	39 d0                	cmp    %edx,%eax
    4226:	74 28                	je     4250 <cspan_print+0x50>
    4228:	8b 4b 10             	mov    0x10(%ebx),%ecx
    422b:	89 54 24 0c          	mov    %edx,0xc(%esp)
    422f:	89 4c 24 10          	mov    %ecx,0x10(%esp)
    4233:	8b 53 08             	mov    0x8(%ebx),%edx
    4236:	89 44 24 04          	mov    %eax,0x4(%esp)
    423a:	89 54 24 08          	mov    %edx,0x8(%esp)
    423e:	c7 04 24 b2 9e 03 00 	movl   $0x39eb2,(%esp)
    4245:	e8 26 02 02 00       	call   24470 <printf>
    424a:	83 c4 24             	add    $0x24,%esp
    424d:	5b                   	pop    %ebx
    424e:	5d                   	pop    %ebp
    424f:	c3                   	ret    
    4250:	8b 53 10             	mov    0x10(%ebx),%edx
    4253:	89 54 24 0c          	mov    %edx,0xc(%esp)
    4257:	8b 53 08             	mov    0x8(%ebx),%edx
    425a:	89 44 24 04          	mov    %eax,0x4(%esp)
    425e:	89 54 24 08          	mov    %edx,0x8(%esp)
    4262:	c7 04 24 be 9e 03 00 	movl   $0x39ebe,(%esp)
    4269:	e8 02 02 02 00       	call   24470 <printf>
    426e:	83 c4 24             	add    $0x24,%esp
    4271:	5b                   	pop    %ebx
    4272:	5d                   	pop    %ebp
    4273:	c3                   	ret    
    4274:	66 90                	xchg   %ax,%ax
    4276:	66 90                	xchg   %ax,%ax
    4278:	66 90                	xchg   %ax,%ax
    427a:	66 90                	xchg   %ax,%ax
    427c:	66 90                	xchg   %ax,%ax
    427e:	66 90                	xchg   %ax,%ax

00004280 <imode_run>:
    4280:	55                   	push   %ebp
    4281:	89 e5                	mov    %esp,%ebp
    4283:	57                   	push   %edi
    4284:	56                   	push   %esi
    4285:	53                   	push   %ebx
    4286:	81 ec bc 00 00 00    	sub    $0xbc,%esp
    428c:	e8 9f 05 01 00       	call   14830 <stree_program_new>
    4291:	89 c7                	mov    %eax,%edi
    4293:	e8 f8 f7 00 00       	call   13a90 <stree_module_new>
    4298:	89 07                	mov    %eax,(%edi)
    429a:	89 3c 24             	mov    %edi,(%esp)
    429d:	e8 9e f7 ff ff       	call   3a40 <builtin_declare>
    42a2:	89 3c 24             	mov    %edi,(%esp)
    42a5:	e8 16 79 00 00       	call   bbc0 <program_lib_process>
    42aa:	85 c0                	test   %eax,%eax
    42ac:	0f 85 2d 03 00 00    	jne    45df <imode_run+0x35f>
    42b2:	8b 07                	mov    (%edi),%eax
    42b4:	89 3c 24             	mov    %edi,(%esp)
    42b7:	89 44 24 04          	mov    %eax,0x4(%esp)
    42bb:	e8 00 e9 ff ff       	call   2bc0 <ancr_module_process>
    42c0:	8b 47 04             	mov    0x4(%edi),%eax
    42c3:	89 04 24             	mov    %eax,(%esp)
    42c6:	e8 95 f8 ff ff       	call   3b60 <builtin_bind>
    42cb:	8b 07                	mov    (%edi),%eax
    42cd:	89 44 24 04          	mov    %eax,0x4(%esp)
    42d1:	89 3c 24             	mov    %edi,(%esp)
    42d4:	e8 e7 e8 ff ff       	call   2bc0 <ancr_module_process>
    42d9:	89 7d 80             	mov    %edi,-0x80(%ebp)
    42dc:	e8 0f 30 01 00       	call   172f0 <stype_proc_vr_new>
    42e1:	89 45 88             	mov    %eax,-0x78(%ebp)
    42e4:	83 c0 04             	add    $0x4,%eax
    42e7:	89 04 24             	mov    %eax,(%esp)
    42ea:	e8 31 11 00 00       	call   5420 <list_init>
    42ef:	c7 45 84 00 00 00 00 	movl   $0x0,-0x7c(%ebp)
    42f6:	e8 25 fb 00 00       	call   13e20 <stree_proc_new>
    42fb:	89 c6                	mov    %eax,%esi
    42fd:	e8 de f9 00 00       	call   13ce0 <stree_fun_new>
    4302:	c7 04 24 04 00 00 00 	movl   $0x4,(%esp)
    4309:	89 c3                	mov    %eax,%ebx
    430b:	e8 d0 04 01 00       	call   147e0 <stree_symbol_new>
    4310:	89 58 04             	mov    %ebx,0x4(%eax)
    4313:	89 85 50 ff ff ff    	mov    %eax,-0xb0(%ebp)
    4319:	e8 82 02 01 00       	call   145a0 <stree_ident_new>
    431e:	89 03                	mov    %eax,(%ebx)
    4320:	c7 04 24 c7 9e 03 00 	movl   $0x39ec7,(%esp)
    4327:	89 85 4c ff ff ff    	mov    %eax,-0xb4(%ebp)
    432d:	e8 be 07 01 00       	call   14af0 <strtab_get_sid>
    4332:	8b 8d 4c ff ff ff    	mov    -0xb4(%ebp),%ecx
    4338:	89 01                	mov    %eax,(%ecx)
    433a:	e8 61 fb 00 00       	call   13ea0 <stree_fun_sig_new>
    433f:	8b 95 50 ff ff ff    	mov    -0xb0(%ebp),%edx
    4345:	89 43 08             	mov    %eax,0x8(%ebx)
    4348:	8b 45 88             	mov    -0x78(%ebp),%eax
    434b:	89 30                	mov    %esi,(%eax)
    434d:	89 53 04             	mov    %edx,0x4(%ebx)
    4350:	89 16                	mov    %edx,(%esi)
    4352:	8d 5d 90             	lea    -0x70(%ebp),%ebx
    4355:	e8 c6 2f 01 00       	call   17320 <stype_block_vr_new>
    435a:	89 04 24             	mov    %eax,(%esp)
    435d:	89 85 54 ff ff ff    	mov    %eax,-0xac(%ebp)
    4363:	e8 68 05 00 00       	call   48d0 <intmap_init>
    4368:	8b 85 54 ff ff ff    	mov    -0xac(%ebp),%eax
    436e:	89 44 24 04          	mov    %eax,0x4(%esp)
    4372:	8b 45 88             	mov    -0x78(%ebp),%eax
    4375:	83 c0 04             	add    $0x4,%eax
    4378:	89 04 24             	mov    %eax,(%esp)
    437b:	e8 10 11 00 00       	call   5490 <sbi_list_append>
    4380:	8d 95 74 ff ff ff    	lea    -0x8c(%ebp),%edx
    4386:	89 14 24             	mov    %edx,(%esp)
    4389:	e8 52 8f 00 00       	call   d2e0 <run_gdata_init>
    438e:	e8 3d bb 00 00       	call   fed0 <run_thread_ar_new>
    4393:	89 04 24             	mov    %eax,(%esp)
    4396:	89 85 78 ff ff ff    	mov    %eax,-0x88(%ebp)
    439c:	e8 7f 10 00 00       	call   5420 <list_init>
    43a1:	8d 85 70 ff ff ff    	lea    -0x90(%ebp),%eax
    43a7:	89 44 24 0c          	mov    %eax,0xc(%esp)
    43ab:	8b 85 7c ff ff ff    	mov    -0x84(%ebp),%eax
    43b1:	89 44 24 04          	mov    %eax,0x4(%esp)
    43b5:	8d 85 74 ff ff ff    	lea    -0x8c(%ebp),%eax
    43bb:	89 74 24 08          	mov    %esi,0x8(%esp)
    43bf:	89 04 24             	mov    %eax,(%esp)
    43c2:	e8 29 96 00 00       	call   d9f0 <run_proc_ar_create>
    43c7:	8b 85 70 ff ff ff    	mov    -0x90(%ebp),%eax
    43cd:	89 44 24 04          	mov    %eax,0x4(%esp)
    43d1:	8b 85 78 ff ff ff    	mov    -0x88(%ebp),%eax
    43d7:	89 04 24             	mov    %eax,(%esp)
    43da:	8d 75 a4             	lea    -0x5c(%ebp),%esi
    43dd:	e8 ae 10 00 00       	call   5490 <sbi_list_append>
    43e2:	c7 04 24 ce 9e 03 00 	movl   $0x39ece,(%esp)
    43e9:	e8 82 00 02 00       	call   24470 <printf>
    43ee:	e8 cd df ff ff       	call   23c0 <os_input_disp_help>
    43f3:	90                   	nop
    43f4:	8d 74 26 00          	lea    0x0(%esi,%eiz,1),%esi
    43f8:	8b 85 78 ff ff ff    	mov    -0x88(%ebp),%eax
    43fe:	c7 45 9c 00 00 00 00 	movl   $0x0,-0x64(%ebp)
    4405:	c7 45 8c 00 00 00 00 	movl   $0x0,-0x74(%ebp)
    440c:	c7 40 14 00 00 00 00 	movl   $0x0,0x14(%eax)
    4413:	c7 40 0c 00 00 00 00 	movl   $0x0,0xc(%eax)
    441a:	8d 85 64 ff ff ff    	lea    -0x9c(%ebp),%eax
    4420:	89 04 24             	mov    %eax,(%esp)
    4423:	e8 a8 02 00 00       	call   46d0 <input_new_interactive>
    4428:	8b 85 64 ff ff ff    	mov    -0x9c(%ebp),%eax
    442e:	89 44 24 04          	mov    %eax,0x4(%esp)
    4432:	89 34 24             	mov    %esi,(%esp)
    4435:	e8 16 0f 00 00       	call   5350 <lex_init>
    443a:	89 74 24 08          	mov    %esi,0x8(%esp)
    443e:	89 7c 24 04          	mov    %edi,0x4(%esp)
    4442:	89 1c 24             	mov    %ebx,(%esp)
    4445:	e8 d6 34 00 00       	call   7920 <parse_init>
    444a:	89 1c 24             	mov    %ebx,(%esp)
    444d:	e8 8e 74 00 00       	call   b8e0 <lcur_lc>
    4452:	48                   	dec    %eax
    4453:	0f 84 17 01 00 00    	je     4570 <imode_run+0x2f0>
    4459:	89 1c 24             	mov    %ebx,(%esp)
    445c:	e8 ef 34 00 00       	call   7950 <parse_stat>
    4461:	8b 55 9c             	mov    -0x64(%ebp),%edx
    4464:	85 d2                	test   %edx,%edx
    4466:	75 90                	jne    43f8 <imode_run+0x178>
    4468:	8d 55 80             	lea    -0x80(%ebp),%edx
    446b:	89 44 24 04          	mov    %eax,0x4(%esp)
    446f:	c7 44 24 08 01 00 00 	movl   $0x1,0x8(%esp)
    4476:	00 
    4477:	89 14 24             	mov    %edx,(%esp)
    447a:	89 85 50 ff ff ff    	mov    %eax,-0xb0(%ebp)
    4480:	e8 db 19 01 00       	call   15e60 <stype_stat>
    4485:	8b 45 8c             	mov    -0x74(%ebp),%eax
    4488:	85 c0                	test   %eax,%eax
    448a:	0f 85 68 ff ff ff    	jne    43f8 <imode_run+0x178>
    4490:	8d 95 74 ff ff ff    	lea    -0x8c(%ebp),%edx
    4496:	89 14 24             	mov    %edx,(%esp)
    4499:	e8 32 8e 00 00       	call   d2d0 <run_init>
    449e:	8b 85 50 ff ff ff    	mov    -0xb0(%ebp),%eax
    44a4:	8d 95 68 ff ff ff    	lea    -0x98(%ebp),%edx
    44aa:	89 44 24 04          	mov    %eax,0x4(%esp)
    44ae:	8d 85 74 ff ff ff    	lea    -0x8c(%ebp),%eax
    44b4:	89 54 24 08          	mov    %edx,0x8(%esp)
    44b8:	89 04 24             	mov    %eax,(%esp)
    44bb:	89 bd 74 ff ff ff    	mov    %edi,-0x8c(%ebp)
    44c1:	e8 3a b6 00 00       	call   fb00 <run_stat>
    44c6:	8d 95 74 ff ff ff    	lea    -0x8c(%ebp),%edx
    44cc:	89 14 24             	mov    %edx,(%esp)
    44cf:	e8 5c 8e 00 00       	call   d330 <run_exc_check_unhandled>
    44d4:	8b 85 68 ff ff ff    	mov    -0x98(%ebp),%eax
    44da:	85 c0                	test   %eax,%eax
    44dc:	0f 84 ee 00 00 00    	je     45d0 <imode_run+0x350>
    44e2:	8d 95 6c ff ff ff    	lea    -0x94(%ebp),%edx
    44e8:	89 44 24 04          	mov    %eax,0x4(%esp)
    44ec:	8d 85 74 ff ff ff    	lea    -0x8c(%ebp),%eax
    44f2:	89 54 24 08          	mov    %edx,0x8(%esp)
    44f6:	89 04 24             	mov    %eax,(%esp)
    44f9:	e8 d2 ad 00 00       	call   f2d0 <run_cvt_value_item>
    44fe:	8b 85 68 ff ff ff    	mov    -0x98(%ebp),%eax
    4504:	89 04 24             	mov    %eax,(%esp)
    4507:	e8 44 8b 00 00       	call   d050 <rdata_item_destroy>
    450c:	8d 95 74 ff ff ff    	lea    -0x8c(%ebp),%edx
    4512:	89 14 24             	mov    %edx,(%esp)
    4515:	e8 16 8e 00 00       	call   d330 <run_exc_check_unhandled>
    451a:	8b 85 6c ff ff ff    	mov    -0x94(%ebp),%eax
    4520:	85 c0                	test   %eax,%eax
    4522:	0f 84 d0 fe ff ff    	je     43f8 <imode_run+0x178>
    4528:	83 38 01             	cmpl   $0x1,(%eax)
    452b:	0f 85 d6 00 00 00    	jne    4607 <imode_run+0x387>
    4531:	c7 04 24 0a 9f 03 00 	movl   $0x39f0a,(%esp)
    4538:	e8 33 ff 01 00       	call   24470 <printf>
    453d:	8b 85 6c ff ff ff    	mov    -0x94(%ebp),%eax
    4543:	8b 40 04             	mov    0x4(%eax),%eax
    4546:	89 04 24             	mov    %eax,(%esp)
    4549:	e8 32 8d 00 00       	call   d280 <rdata_value_print>
    454e:	c7 04 24 18 9f 03 00 	movl   $0x39f18,(%esp)
    4555:	e8 16 ff 01 00       	call   24470 <printf>
    455a:	8b 85 6c ff ff ff    	mov    -0x94(%ebp),%eax
    4560:	89 04 24             	mov    %eax,(%esp)
    4563:	e8 e8 8a 00 00       	call   d050 <rdata_item_destroy>
    4568:	e9 8b fe ff ff       	jmp    43f8 <imode_run+0x178>
    456d:	8d 76 00             	lea    0x0(%esi),%esi
    4570:	8d 95 74 ff ff ff    	lea    -0x8c(%ebp),%edx
    4576:	8b 85 70 ff ff ff    	mov    -0x90(%ebp),%eax
    457c:	89 14 24             	mov    %edx,(%esp)
    457f:	89 44 24 04          	mov    %eax,0x4(%esp)
    4583:	e8 08 95 00 00       	call   da90 <run_proc_ar_destroy>
    4588:	8b 45 88             	mov    -0x78(%ebp),%eax
    458b:	83 c0 04             	add    $0x4,%eax
    458e:	89 04 24             	mov    %eax,(%esp)
    4591:	e8 0a 11 00 00       	call   56a0 <sbi_list_last>
    4596:	8b 95 54 ff ff ff    	mov    -0xac(%ebp),%edx
    459c:	39 50 08             	cmp    %edx,0x8(%eax)
    459f:	75 4a                	jne    45eb <imode_run+0x36b>
    45a1:	89 44 24 04          	mov    %eax,0x4(%esp)
    45a5:	8b 45 88             	mov    -0x78(%ebp),%eax
    45a8:	83 c0 04             	add    $0x4,%eax
    45ab:	89 04 24             	mov    %eax,(%esp)
    45ae:	e8 bd 0f 00 00       	call   5570 <sbi_list_remove>
    45b3:	c7 04 24 13 9f 03 00 	movl   $0x39f13,(%esp)
    45ba:	e8 b1 fe 01 00       	call   24470 <printf>
    45bf:	81 c4 bc 00 00 00    	add    $0xbc,%esp
    45c5:	5b                   	pop    %ebx
    45c6:	5e                   	pop    %esi
    45c7:	5f                   	pop    %edi
    45c8:	5d                   	pop    %ebp
    45c9:	c3                   	ret    
    45ca:	8d b6 00 00 00 00    	lea    0x0(%esi),%esi
    45d0:	c7 85 6c ff ff ff 00 	movl   $0x0,-0x94(%ebp)
    45d7:	00 00 00 
    45da:	e9 19 fe ff ff       	jmp    43f8 <imode_run+0x178>
    45df:	c7 04 24 01 00 00 00 	movl   $0x1,(%esp)
    45e6:	e8 b5 76 01 00       	call   1bca0 <exit>
    45eb:	c7 44 24 08 d0 00 00 	movl   $0xd0,0x8(%esp)
    45f2:	00 
    45f3:	c7 44 24 04 e5 9e 03 	movl   $0x39ee5,0x4(%esp)
    45fa:	00 
    45fb:	c7 04 24 1c 9f 03 00 	movl   $0x39f1c,(%esp)
    4602:	e8 e9 00 03 00       	call   346f0 <assert_abort>
    4607:	c7 44 24 08 c1 00 00 	movl   $0xc1,0x8(%esp)
    460e:	00 
    460f:	c7 44 24 04 e5 9e 03 	movl   $0x39ee5,0x4(%esp)
    4616:	00 
    4617:	c7 04 24 f1 9e 03 00 	movl   $0x39ef1,(%esp)
    461e:	e8 cd 00 03 00       	call   346f0 <assert_abort>
    4623:	66 90                	xchg   %ax,%ax
    4625:	66 90                	xchg   %ax,%ax
    4627:	66 90                	xchg   %ax,%ax
    4629:	66 90                	xchg   %ax,%ax
    462b:	66 90                	xchg   %ax,%ax
    462d:	66 90                	xchg   %ax,%ax
    462f:	90                   	nop

00004630 <input_new_file>:
    4630:	55                   	push   %ebp
    4631:	89 e5                	mov    %esp,%ebp
    4633:	57                   	push   %edi
    4634:	56                   	push   %esi
    4635:	53                   	push   %ebx
    4636:	83 ec 1c             	sub    $0x1c,%esp
    4639:	8b 75 0c             	mov    0xc(%ebp),%esi
    463c:	c7 04 24 14 00 00 00 	movl   $0x14,(%esp)
    4643:	e8 d8 54 02 00       	call   29b20 <malloc>
    4648:	89 c3                	mov    %eax,%ebx
    464a:	8b 45 08             	mov    0x8(%ebp),%eax
    464d:	85 db                	test   %ebx,%ebx
    464f:	89 18                	mov    %ebx,(%eax)
    4651:	74 55                	je     46a8 <input_new_file+0x78>
    4653:	c7 44 24 04 97 e2 03 	movl   $0x3e297,0x4(%esp)
    465a:	00 
    465b:	89 34 24             	mov    %esi,(%esp)
    465e:	e8 ad de 01 00       	call   22510 <fopen>
    4663:	89 c7                	mov    %eax,%edi
    4665:	85 c0                	test   %eax,%eax
    4667:	74 47                	je     46b0 <input_new_file+0x80>
    4669:	c7 04 24 00 01 00 00 	movl   $0x100,(%esp)
    4670:	e8 ab 54 02 00       	call   29b20 <malloc>
    4675:	89 43 0c             	mov    %eax,0xc(%ebx)
    4678:	85 c0                	test   %eax,%eax
    467a:	74 39                	je     46b5 <input_new_file+0x85>
    467c:	89 34 24             	mov    %esi,(%esp)
    467f:	e8 1c dc ff ff       	call   22a0 <os_str_dup>
    4684:	c7 43 08 00 00 00 00 	movl   $0x0,0x8(%ebx)
    468b:	89 03                	mov    %eax,(%ebx)
    468d:	c7 43 10 00 00 00 00 	movl   $0x0,0x10(%ebx)
    4694:	89 7b 04             	mov    %edi,0x4(%ebx)
    4697:	31 c0                	xor    %eax,%eax
    4699:	83 c4 1c             	add    $0x1c,%esp
    469c:	5b                   	pop    %ebx
    469d:	5e                   	pop    %esi
    469e:	5f                   	pop    %edi
    469f:	5d                   	pop    %ebp
    46a0:	c3                   	ret    
    46a1:	8d b4 26 00 00 00 00 	lea    0x0(%esi,%eiz,1),%esi
    46a8:	b8 fe ff ff ff       	mov    $0xfffffffe,%eax
    46ad:	eb ea                	jmp    4699 <input_new_file+0x69>
    46af:	90                   	nop
    46b0:	83 c8 ff             	or     $0xffffffff,%eax
    46b3:	eb e4                	jmp    4699 <input_new_file+0x69>
    46b5:	c7 04 24 48 96 03 00 	movl   $0x39648,(%esp)
    46bc:	e8 af fd 01 00       	call   24470 <printf>
    46c1:	c7 04 24 01 00 00 00 	movl   $0x1,(%esp)
    46c8:	e8 d3 75 01 00       	call   1bca0 <exit>
    46cd:	8d 76 00             	lea    0x0(%esi),%esi

000046d0 <input_new_interactive>:
    46d0:	55                   	push   %ebp
    46d1:	89 e5                	mov    %esp,%ebp
    46d3:	53                   	push   %ebx
    46d4:	83 ec 14             	sub    $0x14,%esp
    46d7:	c7 04 24 14 00 00 00 	movl   $0x14,(%esp)
    46de:	e8 3d 54 02 00       	call   29b20 <malloc>
    46e3:	89 c3                	mov    %eax,%ebx
    46e5:	8b 45 08             	mov    0x8(%ebp),%eax
    46e8:	85 db                	test   %ebx,%ebx
    46ea:	89 18                	mov    %ebx,(%eax)
    46ec:	74 3a                	je     4728 <input_new_interactive+0x58>
    46ee:	c7 04 24 00 01 00 00 	movl   $0x100,(%esp)
    46f5:	e8 26 54 02 00       	call   29b20 <malloc>
    46fa:	89 43 0c             	mov    %eax,0xc(%ebx)
    46fd:	85 c0                	test   %eax,%eax
    46ff:	74 2e                	je     472f <input_new_interactive+0x5f>
    4701:	c7 03 52 9f 03 00    	movl   $0x39f52,(%ebx)
    4707:	c7 43 08 00 00 00 00 	movl   $0x0,0x8(%ebx)
    470e:	c7 43 10 00 00 00 00 	movl   $0x0,0x10(%ebx)
    4715:	c7 43 04 00 00 00 00 	movl   $0x0,0x4(%ebx)
    471c:	31 c0                	xor    %eax,%eax
    471e:	83 c4 14             	add    $0x14,%esp
    4721:	5b                   	pop    %ebx
    4722:	5d                   	pop    %ebp
    4723:	c3                   	ret    
    4724:	8d 74 26 00          	lea    0x0(%esi,%eiz,1),%esi
    4728:	b8 fe ff ff ff       	mov    $0xfffffffe,%eax
    472d:	eb ef                	jmp    471e <input_new_interactive+0x4e>
    472f:	c7 04 24 48 96 03 00 	movl   $0x39648,(%esp)
    4736:	e8 35 fd 01 00       	call   24470 <printf>
    473b:	c7 04 24 01 00 00 00 	movl   $0x1,(%esp)
    4742:	e8 59 75 01 00       	call   1bca0 <exit>
    4747:	89 f6                	mov    %esi,%esi
    4749:	8d bc 27 00 00 00 00 	lea    0x0(%edi,%eiz,1),%edi

00004750 <input_new_string>:
    4750:	55                   	push   %ebp
    4751:	89 e5                	mov    %esp,%ebp
    4753:	53                   	push   %ebx
    4754:	83 ec 14             	sub    $0x14,%esp
    4757:	c7 04 24 14 00 00 00 	movl   $0x14,(%esp)
    475e:	e8 bd 53 02 00       	call   29b20 <malloc>
    4763:	89 c3                	mov    %eax,%ebx
    4765:	8b 45 08             	mov    0x8(%ebp),%eax
    4768:	85 db                	test   %ebx,%ebx
    476a:	89 18                	mov    %ebx,(%eax)
    476c:	74 3a                	je     47a8 <input_new_string+0x58>
    476e:	c7 04 24 00 01 00 00 	movl   $0x100,(%esp)
    4775:	e8 a6 53 02 00       	call   29b20 <malloc>
    477a:	89 43 0c             	mov    %eax,0xc(%ebx)
    477d:	85 c0                	test   %eax,%eax
    477f:	74 2e                	je     47af <input_new_string+0x5f>
    4781:	8b 45 0c             	mov    0xc(%ebp),%eax
    4784:	c7 03 5f 9f 03 00    	movl   $0x39f5f,(%ebx)
    478a:	89 43 08             	mov    %eax,0x8(%ebx)
    478d:	c7 43 10 00 00 00 00 	movl   $0x0,0x10(%ebx)
    4794:	c7 43 04 00 00 00 00 	movl   $0x0,0x4(%ebx)
    479b:	31 c0                	xor    %eax,%eax
    479d:	83 c4 14             	add    $0x14,%esp
    47a0:	5b                   	pop    %ebx
    47a1:	5d                   	pop    %ebp
    47a2:	c3                   	ret    
    47a3:	90                   	nop
    47a4:	8d 74 26 00          	lea    0x0(%esi,%eiz,1),%esi
    47a8:	b8 fe ff ff ff       	mov    $0xfffffffe,%eax
    47ad:	eb ee                	jmp    479d <input_new_string+0x4d>
    47af:	c7 04 24 48 96 03 00 	movl   $0x39648,(%esp)
    47b6:	e8 b5 fc 01 00       	call   24470 <printf>
    47bb:	c7 04 24 01 00 00 00 	movl   $0x1,(%esp)
    47c2:	e8 d9 74 01 00       	call   1bca0 <exit>
    47c7:	89 f6                	mov    %esi,%esi
    47c9:	8d bc 27 00 00 00 00 	lea    0x0(%edi,%eiz,1),%edi

000047d0 <input_get_line>:
    47d0:	55                   	push   %ebp
    47d1:	89 e5                	mov    %esp,%ebp
    47d3:	56                   	push   %esi
    47d4:	53                   	push   %ebx
    47d5:	83 ec 20             	sub    $0x20,%esp
    47d8:	8b 5d 08             	mov    0x8(%ebp),%ebx
    47db:	8b 43 04             	mov    0x4(%ebx),%eax
    47de:	85 c0                	test   %eax,%eax
    47e0:	74 46                	je     4828 <input_get_line+0x58>
    47e2:	89 44 24 08          	mov    %eax,0x8(%esp)
    47e6:	c7 44 24 04 00 01 00 	movl   $0x100,0x4(%esp)
    47ed:	00 
    47ee:	8b 43 0c             	mov    0xc(%ebx),%eax
    47f1:	89 04 24             	mov    %eax,(%esp)
    47f4:	e8 67 e6 01 00       	call   22e60 <fgets>
    47f9:	85 c0                	test   %eax,%eax
    47fb:	74 6b                	je     4868 <input_get_line+0x98>
    47fd:	8b 43 04             	mov    0x4(%ebx),%eax
    4800:	89 04 24             	mov    %eax,(%esp)
    4803:	e8 78 fb 01 00       	call   24380 <ferror>
    4808:	85 c0                	test   %eax,%eax
    480a:	0f 85 a0 00 00 00    	jne    48b0 <input_get_line+0xe0>
    4810:	8b 55 0c             	mov    0xc(%ebp),%edx
    4813:	8b 43 0c             	mov    0xc(%ebx),%eax
    4816:	89 02                	mov    %eax,(%edx)
    4818:	8b 43 10             	mov    0x10(%ebx),%eax
    481b:	40                   	inc    %eax
    481c:	89 43 10             	mov    %eax,0x10(%ebx)
    481f:	31 c0                	xor    %eax,%eax
    4821:	83 c4 20             	add    $0x20,%esp
    4824:	5b                   	pop    %ebx
    4825:	5e                   	pop    %esi
    4826:	5d                   	pop    %ebp
    4827:	c3                   	ret    
    4828:	8b 53 08             	mov    0x8(%ebx),%edx
    482b:	85 d2                	test   %edx,%edx
    482d:	74 41                	je     4870 <input_get_line+0xa0>
    482f:	8a 02                	mov    (%edx),%al
    4831:	8b 4b 0c             	mov    0xc(%ebx),%ecx
    4834:	3c 0a                	cmp    $0xa,%al
    4836:	74 16                	je     484e <input_get_line+0x7e>
    4838:	84 c0                	test   %al,%al
    483a:	75 08                	jne    4844 <input_get_line+0x74>
    483c:	eb 10                	jmp    484e <input_get_line+0x7e>
    483e:	66 90                	xchg   %ax,%ax
    4840:	3c 0a                	cmp    $0xa,%al
    4842:	74 0a                	je     484e <input_get_line+0x7e>
    4844:	42                   	inc    %edx
    4845:	88 01                	mov    %al,(%ecx)
    4847:	41                   	inc    %ecx
    4848:	8a 02                	mov    (%edx),%al
    484a:	84 c0                	test   %al,%al
    484c:	75 f2                	jne    4840 <input_get_line+0x70>
    484e:	3c 0a                	cmp    $0xa,%al
    4850:	74 0e                	je     4860 <input_get_line+0x90>
    4852:	c6 01 00             	movb   $0x0,(%ecx)
    4855:	89 53 08             	mov    %edx,0x8(%ebx)
    4858:	eb b6                	jmp    4810 <input_get_line+0x40>
    485a:	8d b6 00 00 00 00    	lea    0x0(%esi),%esi
    4860:	c6 01 0a             	movb   $0xa,(%ecx)
    4863:	42                   	inc    %edx
    4864:	41                   	inc    %ecx
    4865:	eb eb                	jmp    4852 <input_get_line+0x82>
    4867:	90                   	nop
    4868:	8b 43 0c             	mov    0xc(%ebx),%eax
    486b:	c6 00 00             	movb   $0x0,(%eax)
    486e:	eb 8d                	jmp    47fd <input_get_line+0x2d>
    4870:	8b 53 10             	mov    0x10(%ebx),%edx
    4873:	be 6f 9f 03 00       	mov    $0x39f6f,%esi
    4878:	85 d2                	test   %edx,%edx
    487a:	75 05                	jne    4881 <input_get_line+0xb1>
    487c:	be 69 9f 03 00       	mov    $0x39f69,%esi
    4881:	a1 68 0a 04 00       	mov    0x40a68,%eax
    4886:	89 04 24             	mov    %eax,(%esp)
    4889:	e8 62 ef 01 00       	call   237f0 <fflush>
    488e:	8d 45 f4             	lea    -0xc(%ebp),%eax
    4891:	89 44 24 04          	mov    %eax,0x4(%esp)
    4895:	89 34 24             	mov    %esi,(%esp)
    4898:	e8 43 db ff ff       	call   23e0 <os_input_line>
    489d:	85 c0                	test   %eax,%eax
    489f:	75 0f                	jne    48b0 <input_get_line+0xe0>
    48a1:	8b 55 0c             	mov    0xc(%ebp),%edx
    48a4:	8b 45 f4             	mov    -0xc(%ebp),%eax
    48a7:	89 02                	mov    %eax,(%edx)
    48a9:	e9 6a ff ff ff       	jmp    4818 <input_get_line+0x48>
    48ae:	66 90                	xchg   %ax,%ax
    48b0:	b8 f7 fe ff ff       	mov    $0xfffffef7,%eax
    48b5:	e9 67 ff ff ff       	jmp    4821 <input_get_line+0x51>
    48ba:	8d b6 00 00 00 00    	lea    0x0(%esi),%esi

000048c0 <input_get_line_no>:
    48c0:	55                   	push   %ebp
    48c1:	89 e5                	mov    %esp,%ebp
    48c3:	8b 45 08             	mov    0x8(%ebp),%eax
    48c6:	5d                   	pop    %ebp
    48c7:	8b 40 10             	mov    0x10(%eax),%eax
    48ca:	c3                   	ret    
    48cb:	66 90                	xchg   %ax,%ax
    48cd:	66 90                	xchg   %ax,%ax
    48cf:	90                   	nop

000048d0 <intmap_init>:
    48d0:	55                   	push   %ebp
    48d1:	89 e5                	mov    %esp,%ebp
    48d3:	5d                   	pop    %ebp
    48d4:	e9 47 0b 00 00       	jmp    5420 <list_init>
    48d9:	8d b4 26 00 00 00 00 	lea    0x0(%esi,%eiz,1),%esi

000048e0 <intmap_fini>:
    48e0:	55                   	push   %ebp
    48e1:	89 e5                	mov    %esp,%ebp
    48e3:	5d                   	pop    %ebp
    48e4:	e9 47 0b 00 00       	jmp    5430 <list_fini>
    48e9:	8d b4 26 00 00 00 00 	lea    0x0(%esi,%eiz,1),%esi

000048f0 <intmap_set>:
    48f0:	55                   	push   %ebp
    48f1:	89 e5                	mov    %esp,%ebp
    48f3:	57                   	push   %edi
    48f4:	56                   	push   %esi
    48f5:	53                   	push   %ebx
    48f6:	83 ec 2c             	sub    $0x2c,%esp
    48f9:	8b 5d 08             	mov    0x8(%ebp),%ebx
    48fc:	8b 75 0c             	mov    0xc(%ebp),%esi
    48ff:	89 1c 24             	mov    %ebx,(%esp)
    4902:	8b 7d 10             	mov    0x10(%ebp),%edi
    4905:	e8 56 0d 00 00       	call   5660 <sbi_list_first>
    490a:	85 c0                	test   %eax,%eax
    490c:	75 12                	jne    4920 <intmap_set+0x30>
    490e:	eb 28                	jmp    4938 <intmap_set+0x48>
    4910:	89 44 24 04          	mov    %eax,0x4(%esp)
    4914:	89 1c 24             	mov    %ebx,(%esp)
    4917:	e8 c4 0d 00 00       	call   56e0 <list_next>
    491c:	85 c0                	test   %eax,%eax
    491e:	74 18                	je     4938 <intmap_set+0x48>
    4920:	8b 50 08             	mov    0x8(%eax),%edx
    4923:	39 32                	cmp    %esi,(%edx)
    4925:	75 e9                	jne    4910 <intmap_set+0x20>
    4927:	85 ff                	test   %edi,%edi
    4929:	74 3c                	je     4967 <intmap_set+0x77>
    492b:	89 7a 04             	mov    %edi,0x4(%edx)
    492e:	83 c4 2c             	add    $0x2c,%esp
    4931:	5b                   	pop    %ebx
    4932:	5e                   	pop    %esi
    4933:	5f                   	pop    %edi
    4934:	5d                   	pop    %ebp
    4935:	c3                   	ret    
    4936:	66 90                	xchg   %ax,%ax
    4938:	c7 44 24 04 08 00 00 	movl   $0x8,0x4(%esp)
    493f:	00 
    4940:	c7 04 24 01 00 00 00 	movl   $0x1,(%esp)
    4947:	e8 74 51 02 00       	call   29ac0 <calloc>
    494c:	85 c0                	test   %eax,%eax
    494e:	74 38                	je     4988 <intmap_set+0x98>
    4950:	89 30                	mov    %esi,(%eax)
    4952:	89 78 04             	mov    %edi,0x4(%eax)
    4955:	89 5d 08             	mov    %ebx,0x8(%ebp)
    4958:	89 45 0c             	mov    %eax,0xc(%ebp)
    495b:	83 c4 2c             	add    $0x2c,%esp
    495e:	5b                   	pop    %ebx
    495f:	5e                   	pop    %esi
    4960:	5f                   	pop    %edi
    4961:	5d                   	pop    %ebp
    4962:	e9 29 0b 00 00       	jmp    5490 <sbi_list_append>
    4967:	89 1c 24             	mov    %ebx,(%esp)
    496a:	89 44 24 04          	mov    %eax,0x4(%esp)
    496e:	89 55 e4             	mov    %edx,-0x1c(%ebp)
    4971:	e8 fa 0b 00 00       	call   5570 <sbi_list_remove>
    4976:	8b 55 e4             	mov    -0x1c(%ebp),%edx
    4979:	89 55 08             	mov    %edx,0x8(%ebp)
    497c:	83 c4 2c             	add    $0x2c,%esp
    497f:	5b                   	pop    %ebx
    4980:	5e                   	pop    %esi
    4981:	5f                   	pop    %edi
    4982:	5d                   	pop    %ebp
    4983:	e9 a8 52 02 00       	jmp    29c30 <free>
    4988:	c7 04 24 48 96 03 00 	movl   $0x39648,(%esp)
    498f:	e8 dc fa 01 00       	call   24470 <printf>
    4994:	c7 04 24 01 00 00 00 	movl   $0x1,(%esp)
    499b:	e8 00 73 01 00       	call   1bca0 <exit>

000049a0 <intmap_get>:
    49a0:	55                   	push   %ebp
    49a1:	89 e5                	mov    %esp,%ebp
    49a3:	56                   	push   %esi
    49a4:	53                   	push   %ebx
    49a5:	83 ec 10             	sub    $0x10,%esp
    49a8:	8b 5d 08             	mov    0x8(%ebp),%ebx
    49ab:	8b 75 0c             	mov    0xc(%ebp),%esi
    49ae:	89 1c 24             	mov    %ebx,(%esp)
    49b1:	e8 aa 0c 00 00       	call   5660 <sbi_list_first>
    49b6:	85 c0                	test   %eax,%eax
    49b8:	75 16                	jne    49d0 <intmap_get+0x30>
    49ba:	eb 2c                	jmp    49e8 <intmap_get+0x48>
    49bc:	8d 74 26 00          	lea    0x0(%esi,%eiz,1),%esi
    49c0:	89 44 24 04          	mov    %eax,0x4(%esp)
    49c4:	89 1c 24             	mov    %ebx,(%esp)
    49c7:	e8 14 0d 00 00       	call   56e0 <list_next>
    49cc:	85 c0                	test   %eax,%eax
    49ce:	74 18                	je     49e8 <intmap_get+0x48>
    49d0:	8b 50 08             	mov    0x8(%eax),%edx
    49d3:	39 32                	cmp    %esi,(%edx)
    49d5:	75 e9                	jne    49c0 <intmap_get+0x20>
    49d7:	8b 42 04             	mov    0x4(%edx),%eax
    49da:	83 c4 10             	add    $0x10,%esp
    49dd:	5b                   	pop    %ebx
    49de:	5e                   	pop    %esi
    49df:	5d                   	pop    %ebp
    49e0:	c3                   	ret    
    49e1:	8d b4 26 00 00 00 00 	lea    0x0(%esi,%eiz,1),%esi
    49e8:	83 c4 10             	add    $0x10,%esp
    49eb:	31 c0                	xor    %eax,%eax
    49ed:	5b                   	pop    %ebx
    49ee:	5e                   	pop    %esi
    49ef:	5d                   	pop    %ebp
    49f0:	c3                   	ret    
    49f1:	eb 0d                	jmp    4a00 <intmap_first>
    49f3:	90                   	nop
    49f4:	90                   	nop
    49f5:	90                   	nop
    49f6:	90                   	nop
    49f7:	90                   	nop
    49f8:	90                   	nop
    49f9:	90                   	nop
    49fa:	90                   	nop
    49fb:	90                   	nop
    49fc:	90                   	nop
    49fd:	90                   	nop
    49fe:	90                   	nop
    49ff:	90                   	nop

00004a00 <intmap_first>:
    4a00:	55                   	push   %ebp
    4a01:	89 e5                	mov    %esp,%ebp
    4a03:	83 ec 18             	sub    $0x18,%esp
    4a06:	8b 45 08             	mov    0x8(%ebp),%eax
    4a09:	89 04 24             	mov    %eax,(%esp)
    4a0c:	e8 4f 0c 00 00       	call   5660 <sbi_list_first>
    4a11:	85 c0                	test   %eax,%eax
    4a13:	74 0b                	je     4a20 <intmap_first+0x20>
    4a15:	8b 40 08             	mov    0x8(%eax),%eax
    4a18:	c9                   	leave  
    4a19:	c3                   	ret    
    4a1a:	8d b6 00 00 00 00    	lea    0x0(%esi),%esi
    4a20:	31 c0                	xor    %eax,%eax
    4a22:	c9                   	leave  
    4a23:	c3                   	ret    
    4a24:	8d b6 00 00 00 00    	lea    0x0(%esi),%esi
    4a2a:	8d bf 00 00 00 00    	lea    0x0(%edi),%edi

00004a30 <intmap_elem_get_key>:
    4a30:	55                   	push   %ebp
    4a31:	89 e5                	mov    %esp,%ebp
    4a33:	8b 45 08             	mov    0x8(%ebp),%eax
    4a36:	5d                   	pop    %ebp
    4a37:	8b 00                	mov    (%eax),%eax
    4a39:	c3                   	ret    
    4a3a:	8d b6 00 00 00 00    	lea    0x0(%esi),%esi

00004a40 <intmap_elem_get_value>:
    4a40:	55                   	push   %ebp
    4a41:	89 e5                	mov    %esp,%ebp
    4a43:	8b 45 08             	mov    0x8(%ebp),%eax
    4a46:	5d                   	pop    %ebp
    4a47:	8b 40 04             	mov    0x4(%eax),%eax
    4a4a:	c3                   	ret    
    4a4b:	66 90                	xchg   %ax,%ax
    4a4d:	66 90                	xchg   %ax,%ax
    4a4f:	90                   	nop

00004a50 <lex_char_string_core.isra.1>:
    4a50:	55                   	push   %ebp
    4a51:	89 e5                	mov    %esp,%ebp
    4a53:	57                   	push   %edi
    4a54:	56                   	push   %esi
    4a55:	53                   	push   %ebx
    4a56:	83 ec 2c             	sub    $0x2c,%esp
    4a59:	89 45 e4             	mov    %eax,-0x1c(%ebp)
    4a5c:	83 fa 01             	cmp    $0x1,%edx
    4a5f:	0f 86 e3 00 00 00    	jbe    4b48 <lex_char_string_core.isra.1+0xf8>
    4a65:	c7 45 e0 00 00 00 00 	movl   $0x0,-0x20(%ebp)
    4a6c:	c7 45 dc 00 00 00 00 	movl   $0x0,-0x24(%ebp)
    4a73:	31 db                	xor    %ebx,%ebx
    4a75:	8b 45 e4             	mov    -0x1c(%ebp),%eax
    4a78:	31 c9                	xor    %ecx,%ecx
    4a7a:	8b 00                	mov    (%eax),%eax
    4a7c:	89 c6                	mov    %eax,%esi
    4a7e:	b8 01 00 00 00       	mov    $0x1,%eax
    4a83:	46                   	inc    %esi
    4a84:	8d 78 ff             	lea    -0x1(%eax),%edi
    4a87:	8a 14 0e             	mov    (%esi,%ecx,1),%dl
    4a8a:	38 da                	cmp    %bl,%dl
    4a8c:	74 2c                	je     4aba <lex_char_string_core.isra.1+0x6a>
    4a8e:	66 90                	xchg   %ax,%ax
    4a90:	3d 81 00 00 00       	cmp    $0x81,%eax
    4a95:	0f 84 cd 00 00 00    	je     4b68 <lex_char_string_core.isra.1+0x118>
    4a9b:	84 d2                	test   %dl,%dl
    4a9d:	0f 84 e4 00 00 00    	je     4b87 <lex_char_string_core.isra.1+0x137>
    4aa3:	80 fa 5c             	cmp    $0x5c,%dl
    4aa6:	74 30                	je     4ad8 <lex_char_string_core.isra.1+0x88>
    4aa8:	88 90 5f 09 04 00    	mov    %dl,0x4095f(%eax)
    4aae:	41                   	inc    %ecx
    4aaf:	40                   	inc    %eax
    4ab0:	8a 14 0e             	mov    (%esi,%ecx,1),%dl
    4ab3:	8d 78 ff             	lea    -0x1(%eax),%edi
    4ab6:	38 da                	cmp    %bl,%dl
    4ab8:	75 d6                	jne    4a90 <lex_char_string_core.isra.1+0x40>
    4aba:	8b 55 e4             	mov    -0x1c(%ebp),%edx
    4abd:	8d 44 0e 01          	lea    0x1(%esi,%ecx,1),%eax
    4ac1:	89 02                	mov    %eax,(%edx)
    4ac3:	c6 87 60 09 04 00 00 	movb   $0x0,0x40960(%edi)
    4aca:	83 c4 2c             	add    $0x2c,%esp
    4acd:	5b                   	pop    %ebx
    4ace:	5e                   	pop    %esi
    4acf:	5f                   	pop    %edi
    4ad0:	5d                   	pop    %ebp
    4ad1:	c3                   	ret    
    4ad2:	8d b6 00 00 00 00    	lea    0x0(%esi),%esi
    4ad8:	8a 54 0e 01          	mov    0x1(%esi,%ecx,1),%dl
    4adc:	80 fa 6e             	cmp    $0x6e,%dl
    4adf:	74 4f                	je     4b30 <lex_char_string_core.isra.1+0xe0>
    4ae1:	7f 3d                	jg     4b20 <lex_char_string_core.isra.1+0xd0>
    4ae3:	80 fa 27             	cmp    $0x27,%dl
    4ae6:	74 58                	je     4b40 <lex_char_string_core.isra.1+0xf0>
    4ae8:	80 fa 5c             	cmp    $0x5c,%dl
    4aeb:	74 4b                	je     4b38 <lex_char_string_core.isra.1+0xe8>
    4aed:	80 fa 22             	cmp    $0x22,%dl
    4af0:	74 1e                	je     4b10 <lex_char_string_core.isra.1+0xc0>
    4af2:	c7 04 24 14 a1 03 00 	movl   $0x3a114,(%esp)
    4af9:	e8 72 f9 01 00       	call   24470 <printf>
    4afe:	c7 04 24 01 00 00 00 	movl   $0x1,(%esp)
    4b05:	e8 96 71 01 00       	call   1bca0 <exit>
    4b0a:	8d b6 00 00 00 00    	lea    0x0(%esi),%esi
    4b10:	b2 22                	mov    $0x22,%dl
    4b12:	88 90 5f 09 04 00    	mov    %dl,0x4095f(%eax)
    4b18:	83 c1 02             	add    $0x2,%ecx
    4b1b:	40                   	inc    %eax
    4b1c:	eb 92                	jmp    4ab0 <lex_char_string_core.isra.1+0x60>
    4b1e:	66 90                	xchg   %ax,%ax
    4b20:	80 fa 74             	cmp    $0x74,%dl
    4b23:	75 cd                	jne    4af2 <lex_char_string_core.isra.1+0xa2>
    4b25:	b2 09                	mov    $0x9,%dl
    4b27:	eb e9                	jmp    4b12 <lex_char_string_core.isra.1+0xc2>
    4b29:	8d b4 26 00 00 00 00 	lea    0x0(%esi,%eiz,1),%esi
    4b30:	b2 0a                	mov    $0xa,%dl
    4b32:	eb de                	jmp    4b12 <lex_char_string_core.isra.1+0xc2>
    4b34:	8d 74 26 00          	lea    0x0(%esi,%eiz,1),%esi
    4b38:	b2 5c                	mov    $0x5c,%dl
    4b3a:	eb d6                	jmp    4b12 <lex_char_string_core.isra.1+0xc2>
    4b3c:	8d 74 26 00          	lea    0x0(%esi,%eiz,1),%esi
    4b40:	b2 27                	mov    $0x27,%dl
    4b42:	eb ce                	jmp    4b12 <lex_char_string_core.isra.1+0xc2>
    4b44:	8d 74 26 00          	lea    0x0(%esi,%eiz,1),%esi
    4b48:	8b 04 95 90 a2 03 00 	mov    0x3a290(,%edx,4),%eax
    4b4f:	8a 9a 8c a2 03 00    	mov    0x3a28c(%edx),%bl
    4b55:	8b 14 95 98 a2 03 00 	mov    0x3a298(,%edx,4),%edx
    4b5c:	89 45 dc             	mov    %eax,-0x24(%ebp)
    4b5f:	89 55 e0             	mov    %edx,-0x20(%ebp)
    4b62:	e9 0e ff ff ff       	jmp    4a75 <lex_char_string_core.isra.1+0x25>
    4b67:	90                   	nop
    4b68:	8b 55 e0             	mov    -0x20(%ebp),%edx
    4b6b:	c7 04 24 75 9f 03 00 	movl   $0x39f75,(%esp)
    4b72:	89 54 24 04          	mov    %edx,0x4(%esp)
    4b76:	e8 f5 f8 01 00       	call   24470 <printf>
    4b7b:	c7 04 24 01 00 00 00 	movl   $0x1,(%esp)
    4b82:	e8 19 71 01 00       	call   1bca0 <exit>
    4b87:	8b 45 dc             	mov    -0x24(%ebp),%eax
    4b8a:	c7 04 24 f0 a0 03 00 	movl   $0x3a0f0,(%esp)
    4b91:	89 44 24 04          	mov    %eax,0x4(%esp)
    4b95:	e8 d6 f8 01 00       	call   24470 <printf>
    4b9a:	c7 04 24 01 00 00 00 	movl   $0x1,(%esp)
    4ba1:	e8 fa 70 01 00       	call   1bca0 <exit>
    4ba6:	8d 76 00             	lea    0x0(%esi),%esi
    4ba9:	8d bc 27 00 00 00 00 	lea    0x0(%edi,%eiz,1),%edi

00004bb0 <lex_touch>:
    4bb0:	55                   	push   %ebp
    4bb1:	89 e5                	mov    %esp,%ebp
    4bb3:	57                   	push   %edi
    4bb4:	56                   	push   %esi
    4bb5:	53                   	push   %ebx
    4bb6:	83 ec 7c             	sub    $0x7c,%esp
    4bb9:	89 c3                	mov    %eax,%ebx
    4bbb:	83 78 2c 01          	cmpl   $0x1,0x2c(%eax)
    4bbf:	0f 84 ca 00 00 00    	je     4c8f <lex_touch+0xdf>
    4bc5:	8b 40 30             	mov    0x30(%eax),%eax
    4bc8:	c7 43 14 01 00 00 00 	movl   $0x1,0x14(%ebx)
    4bcf:	89 43 18             	mov    %eax,0x18(%ebx)
    4bd2:	8b 43 34             	mov    0x34(%ebx),%eax
    4bd5:	89 43 1c             	mov    %eax,0x1c(%ebx)
    4bd8:	8b 43 38             	mov    0x38(%ebx),%eax
    4bdb:	89 43 20             	mov    %eax,0x20(%ebx)
    4bde:	8b 43 3c             	mov    0x3c(%ebx),%eax
    4be1:	89 43 24             	mov    %eax,0x24(%ebx)
    4be4:	8b 43 40             	mov    0x40(%ebx),%eax
    4be7:	89 43 28             	mov    %eax,0x28(%ebx)
    4bea:	8b 53 08             	mov    0x8(%ebx),%edx
    4bed:	8d 73 04             	lea    0x4(%ebx),%esi
    4bf0:	8a 02                	mov    (%edx),%al
    4bf2:	3c 09                	cmp    $0x9,%al
    4bf4:	75 10                	jne    4c06 <lex_touch+0x56>
    4bf6:	8b 43 10             	mov    0x10(%ebx),%eax
    4bf9:	83 c0 07             	add    $0x7,%eax
    4bfc:	89 43 10             	mov    %eax,0x10(%ebx)
    4bff:	42                   	inc    %edx
    4c00:	8a 02                	mov    (%edx),%al
    4c02:	3c 09                	cmp    $0x9,%al
    4c04:	74 f0                	je     4bf6 <lex_touch+0x46>
    4c06:	3c 20                	cmp    $0x20,%al
    4c08:	74 f5                	je     4bff <lex_touch+0x4f>
    4c0a:	3c 0a                	cmp    $0xa,%al
    4c0c:	75 22                	jne    4c30 <lex_touch+0x80>
    4c0e:	89 74 24 04          	mov    %esi,0x4(%esp)
    4c12:	8b 03                	mov    (%ebx),%eax
    4c14:	89 04 24             	mov    %eax,(%esp)
    4c17:	e8 b4 fb ff ff       	call   47d0 <input_get_line>
    4c1c:	85 c0                	test   %eax,%eax
    4c1e:	0f 85 7e 04 00 00    	jne    50a2 <lex_touch+0x4f2>
    4c24:	8b 53 04             	mov    0x4(%ebx),%edx
    4c27:	c7 43 10 00 00 00 00 	movl   $0x0,0x10(%ebx)
    4c2e:	eb c0                	jmp    4bf0 <lex_touch+0x40>
    4c30:	8b 03                	mov    (%ebx),%eax
    4c32:	89 53 08             	mov    %edx,0x8(%ebx)
    4c35:	89 04 24             	mov    %eax,(%esp)
    4c38:	e8 83 fc ff ff       	call   48c0 <input_get_line_no>
    4c3d:	8b 7b 04             	mov    0x4(%ebx),%edi
    4c40:	8b 53 08             	mov    0x8(%ebx),%edx
    4c43:	8b 4b 10             	mov    0x10(%ebx),%ecx
    4c46:	29 fa                	sub    %edi,%edx
    4c48:	89 44 24 0c          	mov    %eax,0xc(%esp)
    4c4c:	89 44 24 04          	mov    %eax,0x4(%esp)
    4c50:	8d 54 11 01          	lea    0x1(%ecx,%edx,1),%edx
    4c54:	89 54 24 10          	mov    %edx,0x10(%esp)
    4c58:	89 54 24 08          	mov    %edx,0x8(%esp)
    4c5c:	8b 03                	mov    (%ebx),%eax
    4c5e:	89 55 a4             	mov    %edx,-0x5c(%ebp)
    4c61:	89 04 24             	mov    %eax,(%esp)
    4c64:	e8 57 f4 ff ff       	call   40c0 <cspan_new>
    4c69:	8b 7b 08             	mov    0x8(%ebx),%edi
    4c6c:	89 43 40             	mov    %eax,0x40(%ebx)
    4c6f:	8a 17                	mov    (%edi),%dl
    4c71:	84 d2                	test   %dl,%dl
    4c73:	75 23                	jne    4c98 <lex_touch+0xe8>
    4c75:	c7 43 30 01 00 00 00 	movl   $0x1,0x30(%ebx)
    4c7c:	31 d2                	xor    %edx,%edx
    4c7e:	8b 4d a4             	mov    -0x5c(%ebp),%ecx
    4c81:	8d 54 11 ff          	lea    -0x1(%ecx,%edx,1),%edx
    4c85:	89 50 10             	mov    %edx,0x10(%eax)
    4c88:	c7 43 2c 01 00 00 00 	movl   $0x1,0x2c(%ebx)
    4c8f:	83 c4 7c             	add    $0x7c,%esp
    4c92:	5b                   	pop    %ebx
    4c93:	5e                   	pop    %esi
    4c94:	5f                   	pop    %edi
    4c95:	5d                   	pop    %ebp
    4c96:	c3                   	ret    
    4c97:	90                   	nop
    4c98:	88 d1                	mov    %dl,%cl
    4c9a:	83 e1 df             	and    $0xffffffdf,%ecx
    4c9d:	83 e9 41             	sub    $0x41,%ecx
    4ca0:	80 f9 19             	cmp    $0x19,%cl
    4ca3:	76 4b                	jbe    4cf0 <lex_touch+0x140>
    4ca5:	80 fa 5f             	cmp    $0x5f,%dl
    4ca8:	74 46                	je     4cf0 <lex_touch+0x140>
    4caa:	80 fa 27             	cmp    $0x27,%dl
    4cad:	0f 84 00 02 00 00    	je     4eb3 <lex_touch+0x303>
    4cb3:	8d 4a d0             	lea    -0x30(%edx),%ecx
