
tester:     file format elf32-i386


Disassembly of section .init:

00001094 <__entry>:
    1094:	66 8c d0             	mov    %ss,%ax
    1097:	8e d8                	mov    %eax,%ds
    1099:	8e c0                	mov    %eax,%es
    109b:	8e e0                	mov    %eax,%fs
    109d:	b8 01 00 00 00       	mov    $0x1,%eax
    10a2:	0f a2                	cpuid  
    10a4:	0f ba e2 0b          	bt     $0xb,%edx
    10a8:	73 0c                	jae    10b6 <__entry+0x22>
    10aa:	8d 05 58 69 03 00    	lea    0x36958,%eax
    10b0:	c7 00 2b e2 02 00    	movl   $0x2e22b,(%eax)
    10b6:	6a 00                	push   $0x0
    10b8:	89 e5                	mov    %esp,%ebp
    10ba:	57                   	push   %edi
    10bb:	e8 60 22 01 00       	call   13320 <__main>

Disassembly of section .text:

000010c0 <main>:
    10c0:	55                   	push   %ebp
    10c1:	89 e5                	mov    %esp,%ebp
    10c3:	57                   	push   %edi
    10c4:	56                   	push   %esi
    10c5:	53                   	push   %ebx
    10c6:	83 e4 f0             	and    $0xfffffff0,%esp
    10c9:	83 ec 20             	sub    $0x20,%esp
    10cc:	8b 75 0c             	mov    0xc(%ebp),%esi
    10cf:	83 7d 08 01          	cmpl   $0x1,0x8(%ebp)
    10d3:	0f 8e b3 00 00 00    	jle    118c <main+0xcc>
    10d9:	c7 04 24 0b 0b 03 00 	movl   $0x30b0b,(%esp)
    10e0:	e8 cb cd 01 00       	call   1deb0 <log_init>
    10e5:	8b 45 08             	mov    0x8(%ebp),%eax
    10e8:	83 e8 02             	sub    $0x2,%eax
    10eb:	c7 44 24 04 cc 0a 03 	movl   $0x30acc,0x4(%esp)
    10f2:	00 
    10f3:	a3 a8 69 03 00       	mov    %eax,0x369a8
    10f8:	8d 46 08             	lea    0x8(%esi),%eax
    10fb:	a3 a4 69 03 00       	mov    %eax,0x369a4
    1100:	8b 46 04             	mov    0x4(%esi),%eax
    1103:	89 04 24             	mov    %eax,(%esp)
    1106:	c6 05 a0 69 03 00 00 	movb   $0x0,0x369a0
    110d:	e8 5e 5d 01 00       	call   16e70 <str_cmp>
    1112:	85 c0                	test   %eax,%eax
    1114:	0f 84 3d 01 00 00    	je     1257 <main+0x197>
    111a:	a1 a0 61 03 00       	mov    0x361a0,%eax
    111f:	bb a0 61 03 00       	mov    $0x361a0,%ebx
    1124:	85 c0                	test   %eax,%eax
    1126:	75 11                	jne    1139 <main+0x79>
    1128:	eb 48                	jmp    1172 <main+0xb2>
    112a:	8d b6 00 00 00 00    	lea    0x0(%esi),%esi
    1130:	83 c3 10             	add    $0x10,%ebx
    1133:	8b 03                	mov    (%ebx),%eax
    1135:	85 c0                	test   %eax,%eax
    1137:	74 39                	je     1172 <main+0xb2>
    1139:	89 44 24 04          	mov    %eax,0x4(%esp)
    113d:	8b 46 04             	mov    0x4(%esi),%eax
    1140:	89 04 24             	mov    %eax,(%esp)
    1143:	e8 28 5d 01 00       	call   16e70 <str_cmp>
    1148:	85 c0                	test   %eax,%eax
    114a:	75 e4                	jne    1130 <main+0x70>
    114c:	ff 53 08             	call   *0x8(%ebx)
    114f:	85 c0                	test   %eax,%eax
    1151:	0f 84 a0 01 00 00    	je     12f7 <main+0x237>
    1157:	89 44 24 04          	mov    %eax,0x4(%esp)
    115b:	c7 04 24 3c 0b 03 00 	movl   $0x30b3c,(%esp)
    1162:	e8 69 cc 01 00       	call   1ddd0 <printf>
    1167:	83 c8 ff             	or     $0xffffffff,%eax
    116a:	8d 65 f4             	lea    -0xc(%ebp),%esp
    116d:	5b                   	pop    %ebx
    116e:	5e                   	pop    %esi
    116f:	5f                   	pop    %edi
    1170:	5d                   	pop    %ebp
    1171:	c3                   	ret    
    1172:	8b 46 04             	mov    0x4(%esi),%eax
    1175:	c7 04 24 12 0b 03 00 	movl   $0x30b12,(%esp)
    117c:	89 44 24 04          	mov    %eax,0x4(%esp)
    1180:	e8 4b cc 01 00       	call   1ddd0 <printf>
    1185:	b8 fe ff ff ff       	mov    $0xfffffffe,%eax
    118a:	eb de                	jmp    116a <main+0xaa>
    118c:	c7 04 24 ac 0a 03 00 	movl   $0x30aac,(%esp)
    1193:	e8 38 cc 01 00       	call   1ddd0 <printf>
    1198:	8b 06                	mov    (%esi),%eax
    119a:	89 44 24 04          	mov    %eax,0x4(%esp)
    119e:	c7 04 24 b5 0a 03 00 	movl   $0x30ab5,(%esp)
    11a5:	e8 26 cc 01 00       	call   1ddd0 <printf>
    11aa:	a1 a0 61 03 00       	mov    0x361a0,%eax
    11af:	85 c0                	test   %eax,%eax
    11b1:	0f 84 53 01 00 00    	je     130a <main+0x24a>
    11b7:	bb a0 61 03 00       	mov    $0x361a0,%ebx
    11bc:	31 f6                	xor    %esi,%esi
    11be:	eb 09                	jmp    11c9 <main+0x109>
    11c0:	83 c3 10             	add    $0x10,%ebx
    11c3:	8b 03                	mov    (%ebx),%eax
    11c5:	85 c0                	test   %eax,%eax
    11c7:	74 1a                	je     11e3 <main+0x123>
    11c9:	89 04 24             	mov    %eax,(%esp)
    11cc:	e8 4f 59 01 00       	call   16b20 <str_length>
    11d1:	39 f0                	cmp    %esi,%eax
    11d3:	76 eb                	jbe    11c0 <main+0x100>
    11d5:	8b 03                	mov    (%ebx),%eax
    11d7:	89 04 24             	mov    %eax,(%esp)
    11da:	e8 41 59 01 00       	call   16b20 <str_length>
    11df:	89 c6                	mov    %eax,%esi
    11e1:	eb dd                	jmp    11c0 <main+0x100>
    11e3:	85 f6                	test   %esi,%esi
    11e5:	0f 88 f9 00 00 00    	js     12e4 <main+0x224>
    11eb:	a1 a0 61 03 00       	mov    0x361a0,%eax
    11f0:	bb a0 61 03 00       	mov    $0x361a0,%ebx
    11f5:	85 c0                	test   %eax,%eax
    11f7:	74 3f                	je     1238 <main+0x178>
    11f9:	8d b4 26 00 00 00 00 	lea    0x0(%esi,%eiz,1),%esi
    1200:	ba a2 0a 03 00       	mov    $0x30aa2,%edx
    1205:	80 7b 0c 00          	cmpb   $0x0,0xc(%ebx)
    1209:	74 05                	je     1210 <main+0x150>
    120b:	ba b7 46 03 00       	mov    $0x346b7,%edx
    1210:	89 54 24 10          	mov    %edx,0x10(%esp)
    1214:	8b 53 04             	mov    0x4(%ebx),%edx
    1217:	83 c3 10             	add    $0x10,%ebx
    121a:	89 54 24 0c          	mov    %edx,0xc(%esp)
    121e:	89 44 24 08          	mov    %eax,0x8(%esp)
    1222:	89 74 24 04          	mov    %esi,0x4(%esp)
    1226:	c7 04 24 00 0b 03 00 	movl   $0x30b00,(%esp)
    122d:	e8 9e cb 01 00       	call   1ddd0 <printf>
    1232:	8b 03                	mov    (%ebx),%eax
    1234:	85 c0                	test   %eax,%eax
    1236:	75 c8                	jne    1200 <main+0x140>
    1238:	c7 44 24 08 cc 0a 03 	movl   $0x30acc,0x8(%esp)
    123f:	00 
    1240:	89 74 24 04          	mov    %esi,0x4(%esp)
    1244:	c7 04 24 ce 0a 03 00 	movl   $0x30ace,(%esp)
    124b:	e8 80 cb 01 00       	call   1ddd0 <printf>
    1250:	31 c0                	xor    %eax,%eax
    1252:	e9 13 ff ff ff       	jmp    116a <main+0xaa>
    1257:	c7 04 24 dc 0d 03 00 	movl   $0x30ddc,(%esp)
    125e:	31 f6                	xor    %esi,%esi
    1260:	e8 6b cb 01 00       	call   1ddd0 <printf>
    1265:	a1 a0 61 03 00       	mov    0x361a0,%eax
    126a:	31 ff                	xor    %edi,%edi
    126c:	85 c0                	test   %eax,%eax
    126e:	74 48                	je     12b8 <main+0x1f8>
    1270:	bb a0 61 03 00       	mov    $0x361a0,%ebx
    1275:	eb 0a                	jmp    1281 <main+0x1c1>
    1277:	90                   	nop
    1278:	83 c3 10             	add    $0x10,%ebx
    127b:	8b 03                	mov    (%ebx),%eax
    127d:	85 c0                	test   %eax,%eax
    127f:	74 37                	je     12b8 <main+0x1f8>
    1281:	80 7b 0c 00          	cmpb   $0x0,0xc(%ebx)
    1285:	74 f1                	je     1278 <main+0x1b8>
    1287:	8b 53 04             	mov    0x4(%ebx),%edx
    128a:	89 44 24 04          	mov    %eax,0x4(%esp)
    128e:	89 54 24 08          	mov    %edx,0x8(%esp)
    1292:	c7 04 24 25 0b 03 00 	movl   $0x30b25,(%esp)
    1299:	e8 32 cb 01 00       	call   1ddd0 <printf>
    129e:	ff 53 08             	call   *0x8(%ebx)
    12a1:	85 c0                	test   %eax,%eax
    12a3:	74 30                	je     12d5 <main+0x215>
    12a5:	89 44 24 04          	mov    %eax,0x4(%esp)
    12a9:	c7 04 24 3c 0b 03 00 	movl   $0x30b3c,(%esp)
    12b0:	e8 1b cb 01 00       	call   1ddd0 <printf>
    12b5:	46                   	inc    %esi
    12b6:	eb c0                	jmp    1278 <main+0x1b8>
    12b8:	01 fe                	add    %edi,%esi
    12ba:	89 7c 24 08          	mov    %edi,0x8(%esp)
    12be:	89 74 24 04          	mov    %esi,0x4(%esp)
    12c2:	c7 04 24 00 0e 03 00 	movl   $0x30e00,(%esp)
    12c9:	e8 02 cb 01 00       	call   1ddd0 <printf>
    12ce:	31 c0                	xor    %eax,%eax
    12d0:	e9 95 fe ff ff       	jmp    116a <main+0xaa>
    12d5:	c7 04 24 2e 0b 03 00 	movl   $0x30b2e,(%esp)
    12dc:	47                   	inc    %edi
    12dd:	e8 ee ca 01 00       	call   1ddd0 <printf>
    12e2:	eb 94                	jmp    1278 <main+0x1b8>
    12e4:	c7 04 24 e7 0a 03 00 	movl   $0x30ae7,(%esp)
    12eb:	e8 e0 ca 01 00       	call   1ddd0 <printf>
    12f0:	31 c0                	xor    %eax,%eax
    12f2:	e9 73 fe ff ff       	jmp    116a <main+0xaa>
    12f7:	c7 04 24 2e 0b 03 00 	movl   $0x30b2e,(%esp)
    12fe:	e8 cd ca 01 00       	call   1ddd0 <printf>
    1303:	31 c0                	xor    %eax,%eax
    1305:	e9 60 fe ff ff       	jmp    116a <main+0xaa>
    130a:	31 f6                	xor    %esi,%esi
    130c:	e9 27 ff ff ff       	jmp    1238 <main+0x178>
    1311:	66 90                	xchg   %ax,%ax
    1313:	66 90                	xchg   %ax,%ax
    1315:	66 90                	xchg   %ax,%ax
    1317:	66 90                	xchg   %ax,%ax
    1319:	66 90                	xchg   %ax,%ax
    131b:	66 90                	xchg   %ax,%ax
    131d:	66 90                	xchg   %ax,%ax
    131f:	90                   	nop

00001320 <assert_eq_fn_uint8_t>:
    1320:	55                   	push   %ebp
    1321:	89 e5                	mov    %esp,%ebp
    1323:	53                   	push   %ebx
    1324:	83 ec 34             	sub    $0x34,%esp
    1327:	8a 55 08             	mov    0x8(%ebp),%dl
    132a:	8a 5d 0c             	mov    0xc(%ebp),%bl
    132d:	38 da                	cmp    %bl,%dl
    132f:	74 3a                	je     136b <assert_eq_fn_uint8_t+0x4b>
    1331:	31 c0                	xor    %eax,%eax
    1333:	31 c9                	xor    %ecx,%ecx
    1335:	88 d0                	mov    %dl,%al
    1337:	88 d9                	mov    %bl,%cl
    1339:	89 44 24 10          	mov    %eax,0x10(%esp)
    133d:	89 44 24 0c          	mov    %eax,0xc(%esp)
    1341:	8b 45 10             	mov    0x10(%ebp),%eax
    1344:	89 4c 24 18          	mov    %ecx,0x18(%esp)
    1348:	89 44 24 08          	mov    %eax,0x8(%esp)
    134c:	a1 38 6a 03 00       	mov    0x36a38,%eax
    1351:	89 4c 24 14          	mov    %ecx,0x14(%esp)
    1355:	c7 44 24 04 90 0e 03 	movl   $0x30e90,0x4(%esp)
    135c:	00 
    135d:	89 04 24             	mov    %eax,(%esp)
    1360:	88 55 f4             	mov    %dl,-0xc(%ebp)
    1363:	e8 38 ca 01 00       	call   1dda0 <fprintf>
    1368:	8a 55 f4             	mov    -0xc(%ebp),%dl
    136b:	38 da                	cmp    %bl,%dl
    136d:	0f 95 c0             	setne  %al
    1370:	83 c4 34             	add    $0x34,%esp
    1373:	5b                   	pop    %ebx
    1374:	5d                   	pop    %ebp
    1375:	c3                   	ret    
    1376:	8d 76 00             	lea    0x0(%esi),%esi
    1379:	8d bc 27 00 00 00 00 	lea    0x0(%edi,%eiz,1),%edi

00001380 <assert_eq_fn_uint16_t>:
    1380:	55                   	push   %ebp
    1381:	89 e5                	mov    %esp,%ebp
    1383:	56                   	push   %esi
    1384:	53                   	push   %ebx
    1385:	83 ec 20             	sub    $0x20,%esp
    1388:	8b 75 08             	mov    0x8(%ebp),%esi
    138b:	8b 5d 0c             	mov    0xc(%ebp),%ebx
    138e:	66 39 de             	cmp    %bx,%si
    1391:	74 3b                	je     13ce <assert_eq_fn_uint16_t+0x4e>
    1393:	89 f0                	mov    %esi,%eax
    1395:	89 da                	mov    %ebx,%edx
    1397:	25 ff ff 00 00       	and    $0xffff,%eax
    139c:	81 e2 ff ff 00 00    	and    $0xffff,%edx
    13a2:	89 44 24 10          	mov    %eax,0x10(%esp)
    13a6:	89 44 24 0c          	mov    %eax,0xc(%esp)
    13aa:	8b 45 10             	mov    0x10(%ebp),%eax
    13ad:	89 54 24 18          	mov    %edx,0x18(%esp)
    13b1:	89 44 24 08          	mov    %eax,0x8(%esp)
    13b5:	a1 38 6a 03 00       	mov    0x36a38,%eax
    13ba:	89 54 24 14          	mov    %edx,0x14(%esp)
    13be:	c7 44 24 04 cc 0e 03 	movl   $0x30ecc,0x4(%esp)
    13c5:	00 
    13c6:	89 04 24             	mov    %eax,(%esp)
    13c9:	e8 d2 c9 01 00       	call   1dda0 <fprintf>
    13ce:	66 39 de             	cmp    %bx,%si
    13d1:	0f 95 c0             	setne  %al
    13d4:	83 c4 20             	add    $0x20,%esp
    13d7:	5b                   	pop    %ebx
    13d8:	5e                   	pop    %esi
    13d9:	5d                   	pop    %ebp
    13da:	c3                   	ret    
    13db:	90                   	nop
    13dc:	8d 74 26 00          	lea    0x0(%esi,%eiz,1),%esi

000013e0 <assert_eq_fn_uint32_t>:
    13e0:	55                   	push   %ebp
    13e1:	89 e5                	mov    %esp,%ebp
    13e3:	56                   	push   %esi
    13e4:	53                   	push   %ebx
    13e5:	83 ec 20             	sub    $0x20,%esp
    13e8:	8b 75 08             	mov    0x8(%ebp),%esi
    13eb:	8b 5d 0c             	mov    0xc(%ebp),%ebx
    13ee:	39 de                	cmp    %ebx,%esi
    13f0:	74 2c                	je     141e <assert_eq_fn_uint32_t+0x3e>
    13f2:	8b 45 10             	mov    0x10(%ebp),%eax
    13f5:	89 5c 24 18          	mov    %ebx,0x18(%esp)
    13f9:	89 44 24 08          	mov    %eax,0x8(%esp)
    13fd:	a1 38 6a 03 00       	mov    0x36a38,%eax
    1402:	89 5c 24 14          	mov    %ebx,0x14(%esp)
    1406:	89 74 24 10          	mov    %esi,0x10(%esp)
    140a:	89 74 24 0c          	mov    %esi,0xc(%esp)
    140e:	c7 44 24 04 04 0f 03 	movl   $0x30f04,0x4(%esp)
    1415:	00 
    1416:	89 04 24             	mov    %eax,(%esp)
    1419:	e8 82 c9 01 00       	call   1dda0 <fprintf>
    141e:	39 de                	cmp    %ebx,%esi
    1420:	0f 95 c0             	setne  %al
    1423:	83 c4 20             	add    $0x20,%esp
    1426:	5b                   	pop    %ebx
    1427:	5e                   	pop    %esi
    1428:	5d                   	pop    %ebp
    1429:	c3                   	ret    
    142a:	8d b6 00 00 00 00    	lea    0x0(%esi),%esi

00001430 <assert_eq_fn_uint64_t>:
    1430:	55                   	push   %ebp
    1431:	89 e5                	mov    %esp,%ebp
    1433:	57                   	push   %edi
    1434:	56                   	push   %esi
    1435:	53                   	push   %ebx
    1436:	83 ec 4c             	sub    $0x4c,%esp
    1439:	8b 55 08             	mov    0x8(%ebp),%edx
    143c:	8b 75 0c             	mov    0xc(%ebp),%esi
    143f:	8b 7d 10             	mov    0x10(%ebp),%edi
    1442:	8b 5d 14             	mov    0x14(%ebp),%ebx
    1445:	89 f1                	mov    %esi,%ecx
    1447:	89 d0                	mov    %edx,%eax
    1449:	31 d9                	xor    %ebx,%ecx
    144b:	31 f8                	xor    %edi,%eax
    144d:	09 c1                	or     %eax,%ecx
    144f:	74 42                	je     1493 <assert_eq_fn_uint64_t+0x63>
    1451:	8b 45 18             	mov    0x18(%ebp),%eax
    1454:	89 54 24 14          	mov    %edx,0x14(%esp)
    1458:	89 44 24 08          	mov    %eax,0x8(%esp)
    145c:	a1 38 6a 03 00       	mov    0x36a38,%eax
    1461:	89 54 24 0c          	mov    %edx,0xc(%esp)
    1465:	89 7c 24 24          	mov    %edi,0x24(%esp)
    1469:	89 5c 24 28          	mov    %ebx,0x28(%esp)
    146d:	89 7c 24 1c          	mov    %edi,0x1c(%esp)
    1471:	89 5c 24 20          	mov    %ebx,0x20(%esp)
    1475:	89 74 24 18          	mov    %esi,0x18(%esp)
    1479:	89 74 24 10          	mov    %esi,0x10(%esp)
    147d:	c7 44 24 04 38 0f 03 	movl   $0x30f38,0x4(%esp)
    1484:	00 
    1485:	89 04 24             	mov    %eax,(%esp)
    1488:	89 55 e4             	mov    %edx,-0x1c(%ebp)
    148b:	e8 10 c9 01 00       	call   1dda0 <fprintf>
    1490:	8b 55 e4             	mov    -0x1c(%ebp),%edx
    1493:	31 f3                	xor    %esi,%ebx
    1495:	31 d7                	xor    %edx,%edi
    1497:	09 df                	or     %ebx,%edi
    1499:	0f 95 c0             	setne  %al
    149c:	83 c4 4c             	add    $0x4c,%esp
    149f:	5b                   	pop    %ebx
    14a0:	5e                   	pop    %esi
    14a1:	5f                   	pop    %edi
    14a2:	5d                   	pop    %ebp
    14a3:	c3                   	ret    
    14a4:	66 90                	xchg   %ax,%ax
    14a6:	66 90                	xchg   %ax,%ax
    14a8:	66 90                	xchg   %ax,%ax
    14aa:	66 90                	xchg   %ax,%ax
    14ac:	66 90                	xchg   %ax,%ax
    14ae:	66 90                	xchg   %ax,%ax

000014b0 <threadtest>:
    14b0:	55                   	push   %ebp
    14b1:	89 e5                	mov    %esp,%ebp
    14b3:	83 ec 18             	sub    $0x18,%esp
    14b6:	e8 c5 9b 01 00       	call   1b080 <thread_get_id>
    14bb:	89 04 24             	mov    %eax,(%esp)
    14be:	89 54 24 04          	mov    %edx,0x4(%esp)
    14c2:	e8 99 9b 01 00       	call   1b060 <thread_detach>
    14c7:	a1 bc 69 03 00       	mov    0x369bc,%eax
    14cc:	85 c0                	test   %eax,%eax
    14ce:	74 15                	je     14e5 <threadtest+0x35>
    14d0:	c7 04 24 a0 86 01 00 	movl   $0x186a0,(%esp)
    14d7:	e8 d4 97 02 00       	call   2acb0 <usleep>
    14dc:	a1 bc 69 03 00       	mov    0x369bc,%eax
    14e1:	85 c0                	test   %eax,%eax
    14e3:	75 eb                	jne    14d0 <threadtest+0x20>
    14e5:	f0 ff 05 c0 69 03 00 	lock incl 0x369c0
    14ec:	c9                   	leave  
    14ed:	c3                   	ret    
    14ee:	66 90                	xchg   %ax,%ax

000014f0 <test_thread1>:
    14f0:	55                   	push   %ebp
    14f1:	89 e5                	mov    %esp,%ebp
    14f3:	53                   	push   %ebx
    14f4:	83 ec 14             	sub    $0x14,%esp
    14f7:	c7 05 bc 69 03 00 01 	movl   $0x1,0x369bc
    14fe:	00 00 00 
    1501:	80 3d a0 69 03 00 00 	cmpb   $0x0,0x369a0
    1508:	c7 05 c0 69 03 00 00 	movl   $0x0,0x369c0
    150f:	00 00 00 
    1512:	0f 84 18 01 00 00    	je     1630 <test_thread1+0x140>
    1518:	31 db                	xor    %ebx,%ebx
    151a:	eb 0a                	jmp    1526 <test_thread1+0x36>
    151c:	8d 74 26 00          	lea    0x0(%esi,%eiz,1),%esi
    1520:	43                   	inc    %ebx
    1521:	83 fb 14             	cmp    $0x14,%ebx
    1524:	74 50                	je     1576 <test_thread1+0x86>
    1526:	c7 44 24 0c 00 00 00 	movl   $0x0,0xc(%esp)
    152d:	00 
    152e:	c7 44 24 08 82 0f 03 	movl   $0x30f82,0x8(%esp)
    1535:	00 
    1536:	c7 44 24 04 00 00 00 	movl   $0x0,0x4(%esp)
    153d:	00 
    153e:	c7 04 24 b0 14 00 00 	movl   $0x14b0,(%esp)
    1545:	e8 56 99 01 00       	call   1aea0 <thread_create>
    154a:	85 c0                	test   %eax,%eax
    154c:	0f 88 fe 00 00 00    	js     1650 <test_thread1+0x160>
    1552:	80 3d a0 69 03 00 00 	cmpb   $0x0,0x369a0
    1559:	75 c5                	jne    1520 <test_thread1+0x30>
    155b:	a1 38 6a 03 00       	mov    0x36a38,%eax
    1560:	c7 44 24 04 ee 27 03 	movl   $0x327ee,0x4(%esp)
    1567:	00 
    1568:	89 04 24             	mov    %eax,(%esp)
    156b:	43                   	inc    %ebx
    156c:	e8 2f c8 01 00       	call   1dda0 <fprintf>
    1571:	83 fb 14             	cmp    $0x14,%ebx
    1574:	75 b0                	jne    1526 <test_thread1+0x36>
    1576:	80 3d a0 69 03 00 00 	cmpb   $0x0,0x369a0
    157d:	0f 84 85 00 00 00    	je     1608 <test_thread1+0x118>
    1583:	c7 04 24 0a 00 00 00 	movl   $0xa,(%esp)
    158a:	e8 c1 97 02 00       	call   2ad50 <sleep>
    158f:	80 3d a0 69 03 00 00 	cmpb   $0x0,0x369a0
    1596:	0f 84 ec 00 00 00    	je     1688 <test_thread1+0x198>
    159c:	c7 05 bc 69 03 00 00 	movl   $0x0,0x369bc
    15a3:	00 00 00 
    15a6:	a1 c0 69 03 00       	mov    0x369c0,%eax
    15ab:	39 d8                	cmp    %ebx,%eax
    15ad:	72 1e                	jb     15cd <test_thread1+0xdd>
    15af:	eb 4f                	jmp    1600 <test_thread1+0x110>
    15b1:	8d b4 26 00 00 00 00 	lea    0x0(%esi,%eiz,1),%esi
    15b8:	c7 04 24 01 00 00 00 	movl   $0x1,(%esp)
    15bf:	e8 8c 97 02 00       	call   2ad50 <sleep>
    15c4:	a1 c0 69 03 00       	mov    0x369c0,%eax
    15c9:	39 c3                	cmp    %eax,%ebx
    15cb:	76 33                	jbe    1600 <test_thread1+0x110>
    15cd:	80 3d a0 69 03 00 00 	cmpb   $0x0,0x369a0
    15d4:	75 e2                	jne    15b8 <test_thread1+0xc8>
    15d6:	a1 c0 69 03 00       	mov    0x369c0,%eax
    15db:	89 da                	mov    %ebx,%edx
    15dd:	29 c2                	sub    %eax,%edx
    15df:	a1 38 6a 03 00       	mov    0x36a38,%eax
    15e4:	89 54 24 08          	mov    %edx,0x8(%esp)
    15e8:	c7 44 24 04 aa 0f 03 	movl   $0x30faa,0x4(%esp)
    15ef:	00 
    15f0:	89 04 24             	mov    %eax,(%esp)
    15f3:	e8 a8 c7 01 00       	call   1dda0 <fprintf>
    15f8:	eb be                	jmp    15b8 <test_thread1+0xc8>
    15fa:	8d b6 00 00 00 00    	lea    0x0(%esi),%esi
    1600:	83 c4 14             	add    $0x14,%esp
    1603:	31 c0                	xor    %eax,%eax
    1605:	5b                   	pop    %ebx
    1606:	5d                   	pop    %ebp
    1607:	c3                   	ret    
    1608:	a1 38 6a 03 00       	mov    0x36a38,%eax
    160d:	c7 44 24 08 0a 00 00 	movl   $0xa,0x8(%esp)
    1614:	00 
    1615:	c7 44 24 04 bc 0f 03 	movl   $0x30fbc,0x4(%esp)
    161c:	00 
    161d:	89 04 24             	mov    %eax,(%esp)
    1620:	e8 7b c7 01 00       	call   1dda0 <fprintf>
    1625:	e9 59 ff ff ff       	jmp    1583 <test_thread1+0x93>
    162a:	8d b6 00 00 00 00    	lea    0x0(%esi),%esi
    1630:	a1 38 6a 03 00       	mov    0x36a38,%eax
    1635:	c7 44 24 04 71 0f 03 	movl   $0x30f71,0x4(%esp)
    163c:	00 
    163d:	89 04 24             	mov    %eax,(%esp)
    1640:	e8 5b c7 01 00       	call   1dda0 <fprintf>
    1645:	e9 ce fe ff ff       	jmp    1518 <test_thread1+0x28>
    164a:	8d b6 00 00 00 00    	lea    0x0(%esi),%esi
    1650:	80 3d a0 69 03 00 00 	cmpb   $0x0,0x369a0
    1657:	0f 85 26 ff ff ff    	jne    1583 <test_thread1+0x93>
    165d:	a1 38 6a 03 00       	mov    0x36a38,%eax
    1662:	89 5c 24 08          	mov    %ebx,0x8(%esp)
    1666:	c7 44 24 04 8d 0f 03 	movl   $0x30f8d,0x4(%esp)
    166d:	00 
    166e:	89 04 24             	mov    %eax,(%esp)
    1671:	e8 2a c7 01 00       	call   1dda0 <fprintf>
    1676:	80 3d a0 69 03 00 00 	cmpb   $0x0,0x369a0
    167d:	0f 85 00 ff ff ff    	jne    1583 <test_thread1+0x93>
    1683:	eb 83                	jmp    1608 <test_thread1+0x118>
    1685:	8d 76 00             	lea    0x0(%esi),%esi
    1688:	a1 38 6a 03 00       	mov    0x36a38,%eax
    168d:	c7 44 24 04 6b 20 03 	movl   $0x3206b,0x4(%esp)
    1694:	00 
    1695:	89 04 24             	mov    %eax,(%esp)
    1698:	e8 03 c7 01 00       	call   1dda0 <fprintf>
    169d:	e9 fa fe ff ff       	jmp    159c <test_thread1+0xac>
    16a2:	66 90                	xchg   %ax,%ax
    16a4:	66 90                	xchg   %ax,%ax
    16a6:	66 90                	xchg   %ax,%ax
    16a8:	66 90                	xchg   %ax,%ax
    16aa:	66 90                	xchg   %ax,%ax
    16ac:	66 90                	xchg   %ax,%ax
    16ae:	66 90                	xchg   %ax,%ax

000016b0 <test_print1>:
    16b0:	80 3d a0 69 03 00 00 	cmpb   $0x0,0x369a0
    16b7:	74 07                	je     16c0 <test_print1+0x10>
    16b9:	31 c0                	xor    %eax,%eax
    16bb:	c3                   	ret    
    16bc:	8d 74 26 00          	lea    0x0(%esi,%eiz,1),%esi
    16c0:	55                   	push   %ebp
    16c1:	89 e5                	mov    %esp,%ebp
    16c3:	83 ec 28             	sub    $0x28,%esp
    16c6:	a1 38 6a 03 00       	mov    0x36a38,%eax
    16cb:	c7 44 24 04 e0 0f 03 	movl   $0x30fe0,0x4(%esp)
    16d2:	00 
    16d3:	89 04 24             	mov    %eax,(%esp)
    16d6:	e8 c5 c6 01 00       	call   1dda0 <fprintf>
    16db:	80 3d a0 69 03 00 00 	cmpb   $0x0,0x369a0
    16e2:	0f 85 0b 02 00 00    	jne    18f3 <test_print1+0x243>
    16e8:	a1 38 6a 03 00       	mov    0x36a38,%eax
    16ed:	c7 44 24 04 fa 10 03 	movl   $0x310fa,0x4(%esp)
    16f4:	00 
    16f5:	89 04 24             	mov    %eax,(%esp)
    16f8:	e8 a3 c6 01 00       	call   1dda0 <fprintf>
    16fd:	80 3d a0 69 03 00 00 	cmpb   $0x0,0x369a0
    1704:	0f 85 e9 01 00 00    	jne    18f3 <test_print1+0x243>
    170a:	a1 38 6a 03 00       	mov    0x36a38,%eax
    170f:	c7 44 24 10 39 11 03 	movl   $0x31139,0x10(%esp)
    1716:	00 
    1717:	c7 44 24 0c 03 00 00 	movl   $0x3,0xc(%esp)
    171e:	00 
    171f:	c7 44 24 08 05 00 00 	movl   $0x5,0x8(%esp)
    1726:	00 
    1727:	c7 44 24 04 14 11 03 	movl   $0x31114,0x4(%esp)
    172e:	00 
    172f:	89 04 24             	mov    %eax,(%esp)
    1732:	e8 69 c6 01 00       	call   1dda0 <fprintf>
    1737:	80 3d a0 69 03 00 00 	cmpb   $0x0,0x369a0
    173e:	0f 85 af 01 00 00    	jne    18f3 <test_print1+0x243>
    1744:	a1 38 6a 03 00       	mov    0x36a38,%eax
    1749:	c7 44 24 04 0c 10 03 	movl   $0x3100c,0x4(%esp)
    1750:	00 
    1751:	89 04 24             	mov    %eax,(%esp)
    1754:	e8 47 c6 01 00       	call   1dda0 <fprintf>
    1759:	80 3d a0 69 03 00 00 	cmpb   $0x0,0x369a0
    1760:	0f 85 8d 01 00 00    	jne    18f3 <test_print1+0x243>
    1766:	a1 38 6a 03 00       	mov    0x36a38,%eax
    176b:	c7 44 24 04 3c 10 03 	movl   $0x3103c,0x4(%esp)
    1772:	00 
    1773:	89 04 24             	mov    %eax,(%esp)
    1776:	e8 25 c6 01 00       	call   1dda0 <fprintf>
    177b:	80 3d a0 69 03 00 00 	cmpb   $0x0,0x369a0
    1782:	0f 85 6b 01 00 00    	jne    18f3 <test_print1+0x243>
    1788:	a1 38 6a 03 00       	mov    0x36a38,%eax
    178d:	c7 44 24 08 2f 11 03 	movl   $0x3112f,0x8(%esp)
    1794:	00 
    1795:	c7 44 24 04 3e 11 03 	movl   $0x3113e,0x4(%esp)
    179c:	00 
    179d:	89 04 24             	mov    %eax,(%esp)
    17a0:	e8 fb c5 01 00       	call   1dda0 <fprintf>
    17a5:	80 3d a0 69 03 00 00 	cmpb   $0x0,0x369a0
    17ac:	0f 85 41 01 00 00    	jne    18f3 <test_print1+0x243>
    17b2:	a1 38 6a 03 00       	mov    0x36a38,%eax
    17b7:	c7 44 24 04 5c 10 03 	movl   $0x3105c,0x4(%esp)
    17be:	00 
    17bf:	89 04 24             	mov    %eax,(%esp)
    17c2:	e8 d9 c5 01 00       	call   1dda0 <fprintf>
    17c7:	80 3d a0 69 03 00 00 	cmpb   $0x0,0x369a0
    17ce:	0f 85 1f 01 00 00    	jne    18f3 <test_print1+0x243>
    17d4:	a1 38 6a 03 00       	mov    0x36a38,%eax
    17d9:	c7 44 24 04 5a 11 03 	movl   $0x3115a,0x4(%esp)
    17e0:	00 
    17e1:	89 04 24             	mov    %eax,(%esp)
    17e4:	e8 b7 c5 01 00       	call   1dda0 <fprintf>
    17e9:	80 3d a0 69 03 00 00 	cmpb   $0x0,0x369a0
    17f0:	0f 85 fd 00 00 00    	jne    18f3 <test_print1+0x243>
    17f6:	a1 38 6a 03 00       	mov    0x36a38,%eax
    17fb:	c7 44 24 08 39 11 03 	movl   $0x31139,0x8(%esp)
    1802:	00 
    1803:	c7 44 24 04 77 11 03 	movl   $0x31177,0x4(%esp)
    180a:	00 
    180b:	89 04 24             	mov    %eax,(%esp)
    180e:	e8 8d c5 01 00       	call   1dda0 <fprintf>
    1813:	80 3d a0 69 03 00 00 	cmpb   $0x0,0x369a0
    181a:	0f 85 d3 00 00 00    	jne    18f3 <test_print1+0x243>
    1820:	a1 38 6a 03 00       	mov    0x36a38,%eax
    1825:	c7 44 24 04 80 10 03 	movl   $0x31080,0x4(%esp)
    182c:	00 
    182d:	89 04 24             	mov    %eax,(%esp)
    1830:	e8 6b c5 01 00       	call   1dda0 <fprintf>
    1835:	80 3d a0 69 03 00 00 	cmpb   $0x0,0x369a0
    183c:	0f 85 b1 00 00 00    	jne    18f3 <test_print1+0x243>
    1842:	a1 38 6a 03 00       	mov    0x36a38,%eax
    1847:	c7 44 24 04 b0 10 03 	movl   $0x310b0,0x4(%esp)
    184e:	00 
    184f:	89 04 24             	mov    %eax,(%esp)
    1852:	e8 49 c5 01 00       	call   1dda0 <fprintf>
    1857:	80 3d a0 69 03 00 00 	cmpb   $0x0,0x369a0
    185e:	0f 85 8f 00 00 00    	jne    18f3 <test_print1+0x243>
    1864:	a1 38 6a 03 00       	mov    0x36a38,%eax
    1869:	c7 44 24 08 2f 11 03 	movl   $0x3112f,0x8(%esp)
    1870:	00 
    1871:	c7 44 24 04 77 11 03 	movl   $0x31177,0x4(%esp)
    1878:	00 
    1879:	89 04 24             	mov    %eax,(%esp)
    187c:	e8 1f c5 01 00       	call   1dda0 <fprintf>
    1881:	80 3d a0 69 03 00 00 	cmpb   $0x0,0x369a0
    1888:	75 69                	jne    18f3 <test_print1+0x243>
    188a:	a1 38 6a 03 00       	mov    0x36a38,%eax
    188f:	c7 44 24 04 d0 10 03 	movl   $0x310d0,0x4(%esp)
    1896:	00 
    1897:	89 04 24             	mov    %eax,(%esp)
    189a:	e8 01 c5 01 00       	call   1dda0 <fprintf>
    189f:	80 3d a0 69 03 00 00 	cmpb   $0x0,0x369a0
    18a6:	75 4b                	jne    18f3 <test_print1+0x243>
    18a8:	a1 38 6a 03 00       	mov    0x36a38,%eax
    18ad:	c7 44 24 04 93 11 03 	movl   $0x31193,0x4(%esp)
    18b4:	00 
    18b5:	89 04 24             	mov    %eax,(%esp)
    18b8:	e8 e3 c4 01 00       	call   1dda0 <fprintf>
    18bd:	80 3d a0 69 03 00 00 	cmpb   $0x0,0x369a0
    18c4:	75 2d                	jne    18f3 <test_print1+0x243>
    18c6:	a1 38 6a 03 00       	mov    0x36a38,%eax
    18cb:	c7 44 24 10 39 11 03 	movl   $0x31139,0x10(%esp)
    18d2:	00 
    18d3:	c7 44 24 0c 07 00 00 	movl   $0x7,0xc(%esp)
    18da:	00 
    18db:	c7 44 24 08 07 00 00 	movl   $0x7,0x8(%esp)
    18e2:	00 
    18e3:	c7 44 24 04 af 11 03 	movl   $0x311af,0x4(%esp)
    18ea:	00 
    18eb:	89 04 24             	mov    %eax,(%esp)
    18ee:	e8 ad c4 01 00       	call   1dda0 <fprintf>
    18f3:	31 c0                	xor    %eax,%eax
    18f5:	c9                   	leave  
    18f6:	c3                   	ret    
    18f7:	66 90                	xchg   %ax,%ax
    18f9:	66 90                	xchg   %ax,%ax
    18fb:	66 90                	xchg   %ax,%ax
    18fd:	66 90                	xchg   %ax,%ax
    18ff:	90                   	nop

00001900 <test_print2>:
    1900:	80 3d a0 69 03 00 00 	cmpb   $0x0,0x369a0
    1907:	74 07                	je     1910 <test_print2+0x10>
    1909:	31 c0                	xor    %eax,%eax
    190b:	c3                   	ret    
    190c:	8d 74 26 00          	lea    0x0(%esi,%eiz,1),%esi
    1910:	55                   	push   %ebp
    1911:	89 e5                	mov    %esp,%ebp
    1913:	83 ec 38             	sub    $0x38,%esp
    1916:	a1 38 6a 03 00       	mov    0x36a38,%eax
    191b:	c7 44 24 04 cb 11 03 	movl   $0x311cb,0x4(%esp)
    1922:	00 
    1923:	89 04 24             	mov    %eax,(%esp)
    1926:	e8 75 c4 01 00       	call   1dda0 <fprintf>
    192b:	80 3d a0 69 03 00 00 	cmpb   $0x0,0x369a0
    1932:	0f 85 93 02 00 00    	jne    1bcb <test_print2+0x2cb>
    1938:	a1 38 6a 03 00       	mov    0x36a38,%eax
    193d:	c7 44 24 04 e8 11 03 	movl   $0x311e8,0x4(%esp)
    1944:	00 
    1945:	89 04 24             	mov    %eax,(%esp)
    1948:	e8 53 c4 01 00       	call   1dda0 <fprintf>
    194d:	80 3d a0 69 03 00 00 	cmpb   $0x0,0x369a0
    1954:	0f 85 71 02 00 00    	jne    1bcb <test_print2+0x2cb>
    195a:	a1 38 6a 03 00       	mov    0x36a38,%eax
    195f:	c7 44 24 08 61 00 00 	movl   $0x61,0x8(%esp)
    1966:	00 
    1967:	c7 44 24 04 fe 11 03 	movl   $0x311fe,0x4(%esp)
    196e:	00 
    196f:	89 04 24             	mov    %eax,(%esp)
    1972:	e8 29 c4 01 00       	call   1dda0 <fprintf>
    1977:	80 3d a0 69 03 00 00 	cmpb   $0x0,0x369a0
    197e:	0f 85 47 02 00 00    	jne    1bcb <test_print2+0x2cb>
    1984:	a1 38 6a 03 00       	mov    0x36a38,%eax
    1989:	c7 44 24 04 18 12 03 	movl   $0x31218,0x4(%esp)
    1990:	00 
    1991:	89 04 24             	mov    %eax,(%esp)
    1994:	e8 07 c4 01 00       	call   1dda0 <fprintf>
    1999:	80 3d a0 69 03 00 00 	cmpb   $0x0,0x369a0
    19a0:	0f 85 25 02 00 00    	jne    1bcb <test_print2+0x2cb>
    19a6:	a1 38 6a 03 00       	mov    0x36a38,%eax
    19ab:	c7 44 24 04 60 12 03 	movl   $0x31260,0x4(%esp)
    19b2:	00 
    19b3:	89 04 24             	mov    %eax,(%esp)
    19b6:	e8 e5 c3 01 00       	call   1dda0 <fprintf>
    19bb:	80 3d a0 69 03 00 00 	cmpb   $0x0,0x369a0
    19c2:	0f 85 03 02 00 00    	jne    1bcb <test_print2+0x2cb>
    19c8:	a1 38 6a 03 00       	mov    0x36a38,%eax
    19cd:	c7 44 24 18 05 00 00 	movl   $0x5,0x18(%esp)
    19d4:	00 
    19d5:	c7 44 24 14 04 00 00 	movl   $0x4,0x14(%esp)
    19dc:	00 
    19dd:	c7 44 24 10 03 00 00 	movl   $0x3,0x10(%esp)
    19e4:	00 
    19e5:	c7 44 24 0c 02 00 00 	movl   $0x2,0xc(%esp)
    19ec:	00 
    19ed:	c7 44 24 08 01 00 00 	movl   $0x1,0x8(%esp)
    19f4:	00 
    19f5:	c7 44 24 04 90 12 03 	movl   $0x31290,0x4(%esp)
    19fc:	00 
    19fd:	89 04 24             	mov    %eax,(%esp)
    1a00:	e8 9b c3 01 00       	call   1dda0 <fprintf>
    1a05:	80 3d a0 69 03 00 00 	cmpb   $0x0,0x369a0
    1a0c:	0f 85 b9 01 00 00    	jne    1bcb <test_print2+0x2cb>
    1a12:	a1 38 6a 03 00       	mov    0x36a38,%eax
    1a17:	c7 44 24 04 cc 12 03 	movl   $0x312cc,0x4(%esp)
    1a1e:	00 
    1a1f:	89 04 24             	mov    %eax,(%esp)
    1a22:	e8 79 c3 01 00       	call   1dda0 <fprintf>
    1a27:	80 3d a0 69 03 00 00 	cmpb   $0x0,0x369a0
    1a2e:	0f 85 97 01 00 00    	jne    1bcb <test_print2+0x2cb>
    1a34:	a1 38 6a 03 00       	mov    0x36a38,%eax
    1a39:	c7 44 24 04 18 13 03 	movl   $0x31318,0x4(%esp)
    1a40:	00 
    1a41:	89 04 24             	mov    %eax,(%esp)
    1a44:	e8 57 c3 01 00       	call   1dda0 <fprintf>
    1a49:	80 3d a0 69 03 00 00 	cmpb   $0x0,0x369a0
    1a50:	0f 85 75 01 00 00    	jne    1bcb <test_print2+0x2cb>
    1a56:	a1 38 6a 03 00       	mov    0x36a38,%eax
    1a5b:	c7 44 24 18 fb ff ff 	movl   $0xfffffffb,0x18(%esp)
    1a62:	ff 
    1a63:	c7 44 24 14 fc ff ff 	movl   $0xfffffffc,0x14(%esp)
    1a6a:	ff 
    1a6b:	c7 44 24 10 fd ff ff 	movl   $0xfffffffd,0x10(%esp)
    1a72:	ff 
    1a73:	c7 44 24 0c fe ff ff 	movl   $0xfffffffe,0xc(%esp)
    1a7a:	ff 
    1a7b:	c7 44 24 08 ff ff ff 	movl   $0xffffffff,0x8(%esp)
    1a82:	ff 
    1a83:	c7 44 24 04 90 12 03 	movl   $0x31290,0x4(%esp)
    1a8a:	00 
    1a8b:	89 04 24             	mov    %eax,(%esp)
    1a8e:	e8 0d c3 01 00       	call   1dda0 <fprintf>
    1a93:	80 3d a0 69 03 00 00 	cmpb   $0x0,0x369a0
    1a9a:	0f 85 2b 01 00 00    	jne    1bcb <test_print2+0x2cb>
    1aa0:	a1 38 6a 03 00       	mov    0x36a38,%eax
    1aa5:	c7 44 24 04 4c 13 03 	movl   $0x3134c,0x4(%esp)
    1aac:	00 
    1aad:	89 04 24             	mov    %eax,(%esp)
    1ab0:	e8 eb c2 01 00       	call   1dda0 <fprintf>
    1ab5:	80 3d a0 69 03 00 00 	cmpb   $0x0,0x369a0
    1abc:	0f 85 09 01 00 00    	jne    1bcb <test_print2+0x2cb>
    1ac2:	a1 38 6a 03 00       	mov    0x36a38,%eax
    1ac7:	c7 44 24 04 18 13 03 	movl   $0x31318,0x4(%esp)
    1ace:	00 
    1acf:	89 04 24             	mov    %eax,(%esp)
    1ad2:	e8 c9 c2 01 00       	call   1dda0 <fprintf>
    1ad7:	80 3d a0 69 03 00 00 	cmpb   $0x0,0x369a0
    1ade:	0f 85 e7 00 00 00    	jne    1bcb <test_print2+0x2cb>
    1ae4:	a1 38 6a 03 00       	mov    0x36a38,%eax
    1ae9:	c7 44 24 28 fb ff ff 	movl   $0xfffffffb,0x28(%esp)
    1af0:	ff 
    1af1:	c7 44 24 2c ff ff ff 	movl   $0xffffffff,0x2c(%esp)
    1af8:	ff 
    1af9:	c7 44 24 20 fc ff ff 	movl   $0xfffffffc,0x20(%esp)
    1b00:	ff 
    1b01:	c7 44 24 24 ff ff ff 	movl   $0xffffffff,0x24(%esp)
    1b08:	ff 
    1b09:	c7 44 24 18 fd ff ff 	movl   $0xfffffffd,0x18(%esp)
    1b10:	ff 
    1b11:	c7 44 24 1c ff ff ff 	movl   $0xffffffff,0x1c(%esp)
    1b18:	ff 
    1b19:	c7 44 24 10 fe ff ff 	movl   $0xfffffffe,0x10(%esp)
    1b20:	ff 
    1b21:	c7 44 24 14 ff ff ff 	movl   $0xffffffff,0x14(%esp)
    1b28:	ff 
    1b29:	c7 44 24 08 ff ff ff 	movl   $0xffffffff,0x8(%esp)
    1b30:	ff 
    1b31:	c7 44 24 0c ff ff ff 	movl   $0xffffffff,0xc(%esp)
    1b38:	ff 
    1b39:	c7 44 24 04 dc 13 03 	movl   $0x313dc,0x4(%esp)
    1b40:	00 
    1b41:	89 04 24             	mov    %eax,(%esp)
    1b44:	e8 57 c2 01 00       	call   1dda0 <fprintf>
    1b49:	80 3d a0 69 03 00 00 	cmpb   $0x0,0x369a0
    1b50:	75 79                	jne    1bcb <test_print2+0x2cb>
    1b52:	a1 38 6a 03 00       	mov    0x36a38,%eax
    1b57:	c7 44 24 04 20 14 03 	movl   $0x31420,0x4(%esp)
    1b5e:	00 
    1b5f:	89 04 24             	mov    %eax,(%esp)
    1b62:	e8 39 c2 01 00       	call   1dda0 <fprintf>
    1b67:	80 3d a0 69 03 00 00 	cmpb   $0x0,0x369a0
    1b6e:	75 5b                	jne    1bcb <test_print2+0x2cb>
    1b70:	a1 38 6a 03 00       	mov    0x36a38,%eax
    1b75:	c7 44 24 04 70 14 03 	movl   $0x31470,0x4(%esp)
    1b7c:	00 
    1b7d:	89 04 24             	mov    %eax,(%esp)
    1b80:	e8 1b c2 01 00       	call   1dda0 <fprintf>
    1b85:	80 3d a0 69 03 00 00 	cmpb   $0x0,0x369a0
    1b8c:	75 3d                	jne    1bcb <test_print2+0x2cb>
    1b8e:	a1 38 6a 03 00       	mov    0x36a38,%eax
    1b93:	c7 44 24 18 15 00 00 	movl   $0x15,0x18(%esp)
    1b9a:	00 
    1b9b:	c7 44 24 14 14 00 00 	movl   $0x14,0x14(%esp)
    1ba2:	00 
    1ba3:	c7 44 24 10 13 00 00 	movl   $0x13,0x10(%esp)
    1baa:	00 
    1bab:	c7 44 24 0c 12 00 00 	movl   $0x12,0xc(%esp)
    1bb2:	00 
    1bb3:	c7 44 24 08 11 00 00 	movl   $0x11,0x8(%esp)
    1bba:	00 
    1bbb:	c7 44 24 04 b0 14 03 	movl   $0x314b0,0x4(%esp)
    1bc2:	00 
    1bc3:	89 04 24             	mov    %eax,(%esp)
    1bc6:	e8 d5 c1 01 00       	call   1dda0 <fprintf>
    1bcb:	31 c0                	xor    %eax,%eax
    1bcd:	c9                   	leave  
    1bce:	c3                   	ret    
    1bcf:	90                   	nop

00001bd0 <test_print3>:
    1bd0:	55                   	push   %ebp
    1bd1:	89 e5                	mov    %esp,%ebp
    1bd3:	53                   	push   %ebx
    1bd4:	83 ec 44             	sub    $0x44,%esp
    1bd7:	80 3d a0 69 03 00 00 	cmpb   $0x0,0x369a0
    1bde:	0f 84 04 02 00 00    	je     1de8 <test_print3+0x218>
    1be4:	8d 5d d8             	lea    -0x28(%ebp),%ebx
    1be7:	c7 44 24 08 78 15 03 	movl   $0x31578,0x8(%esp)
    1bee:	00 
    1bef:	c7 44 24 04 20 00 00 	movl   $0x20,0x4(%esp)
    1bf6:	00 
    1bf7:	89 1c 24             	mov    %ebx,(%esp)
    1bfa:	e8 41 c9 01 00       	call   1e540 <snprintf>
    1bff:	80 3d a0 69 03 00 00 	cmpb   $0x0,0x369a0
    1c06:	0f 84 74 01 00 00    	je     1d80 <test_print3+0x1b0>
    1c0c:	c7 44 24 08 5c 16 03 	movl   $0x3165c,0x8(%esp)
    1c13:	00 
    1c14:	c7 44 24 04 20 00 00 	movl   $0x20,0x4(%esp)
    1c1b:	00 
    1c1c:	89 1c 24             	mov    %ebx,(%esp)
    1c1f:	e8 1c c9 01 00       	call   1e540 <snprintf>
    1c24:	80 3d a0 69 03 00 00 	cmpb   $0x0,0x369a0
    1c2b:	0f 84 e7 00 00 00    	je     1d18 <test_print3+0x148>
    1c31:	c7 44 24 0c 39 11 03 	movl   $0x31139,0xc(%esp)
    1c38:	00 
    1c39:	c7 44 24 08 17 18 03 	movl   $0x31817,0x8(%esp)
    1c40:	00 
    1c41:	c7 44 24 04 20 00 00 	movl   $0x20,0x4(%esp)
    1c48:	00 
    1c49:	89 1c 24             	mov    %ebx,(%esp)
    1c4c:	e8 ef c8 01 00       	call   1e540 <snprintf>
    1c51:	80 3d a0 69 03 00 00 	cmpb   $0x0,0x369a0
    1c58:	74 56                	je     1cb0 <test_print3+0xe0>
    1c5a:	c7 44 24 10 20 00 00 	movl   $0x20,0x10(%esp)
    1c61:	00 
    1c62:	c7 44 24 0c 39 11 03 	movl   $0x31139,0xc(%esp)
    1c69:	00 
    1c6a:	c7 44 24 08 c4 17 03 	movl   $0x317c4,0x8(%esp)
    1c71:	00 
    1c72:	c7 44 24 04 20 00 00 	movl   $0x20,0x4(%esp)
    1c79:	00 
    1c7a:	89 1c 24             	mov    %ebx,(%esp)
    1c7d:	e8 be c8 01 00       	call   1e540 <snprintf>
    1c82:	80 3d a0 69 03 00 00 	cmpb   $0x0,0x369a0
    1c89:	75 1d                	jne    1ca8 <test_print3+0xd8>
    1c8b:	89 44 24 08          	mov    %eax,0x8(%esp)
    1c8f:	a1 38 6a 03 00       	mov    0x36a38,%eax
    1c94:	89 5c 24 0c          	mov    %ebx,0xc(%esp)
    1c98:	c7 44 24 04 98 15 03 	movl   $0x31598,0x4(%esp)
    1c9f:	00 
    1ca0:	89 04 24             	mov    %eax,(%esp)
    1ca3:	e8 f8 c0 01 00       	call   1dda0 <fprintf>
    1ca8:	83 c4 44             	add    $0x44,%esp
    1cab:	31 c0                	xor    %eax,%eax
    1cad:	5b                   	pop    %ebx
    1cae:	5d                   	pop    %ebp
    1caf:	c3                   	ret    
    1cb0:	89 44 24 08          	mov    %eax,0x8(%esp)
    1cb4:	a1 38 6a 03 00       	mov    0x36a38,%eax
    1cb9:	89 5c 24 0c          	mov    %ebx,0xc(%esp)
    1cbd:	c7 44 24 04 98 15 03 	movl   $0x31598,0x4(%esp)
    1cc4:	00 
    1cc5:	89 04 24             	mov    %eax,(%esp)
    1cc8:	e8 d3 c0 01 00       	call   1dda0 <fprintf>
    1ccd:	80 3d a0 69 03 00 00 	cmpb   $0x0,0x369a0
    1cd4:	75 84                	jne    1c5a <test_print3+0x8a>
    1cd6:	a1 38 6a 03 00       	mov    0x36a38,%eax
    1cdb:	c7 44 24 04 f8 16 03 	movl   $0x316f8,0x4(%esp)
    1ce2:	00 
    1ce3:	89 04 24             	mov    %eax,(%esp)
    1ce6:	e8 b5 c0 01 00       	call   1dda0 <fprintf>
    1ceb:	80 3d a0 69 03 00 00 	cmpb   $0x0,0x369a0
    1cf2:	0f 85 62 ff ff ff    	jne    1c5a <test_print3+0x8a>
    1cf8:	a1 38 6a 03 00       	mov    0x36a38,%eax
    1cfd:	c7 44 24 04 7c 17 03 	movl   $0x3177c,0x4(%esp)
    1d04:	00 
    1d05:	89 04 24             	mov    %eax,(%esp)
    1d08:	e8 93 c0 01 00       	call   1dda0 <fprintf>
    1d0d:	e9 48 ff ff ff       	jmp    1c5a <test_print3+0x8a>
    1d12:	8d b6 00 00 00 00    	lea    0x0(%esi),%esi
    1d18:	89 44 24 08          	mov    %eax,0x8(%esp)
    1d1c:	a1 38 6a 03 00       	mov    0x36a38,%eax
    1d21:	89 5c 24 0c          	mov    %ebx,0xc(%esp)
    1d25:	c7 44 24 04 98 15 03 	movl   $0x31598,0x4(%esp)
    1d2c:	00 
    1d2d:	89 04 24             	mov    %eax,(%esp)
    1d30:	e8 6b c0 01 00       	call   1dda0 <fprintf>
    1d35:	80 3d a0 69 03 00 00 	cmpb   $0x0,0x369a0
    1d3c:	0f 85 ef fe ff ff    	jne    1c31 <test_print3+0x61>
    1d42:	a1 38 6a 03 00       	mov    0x36a38,%eax
    1d47:	c7 44 24 04 8c 16 03 	movl   $0x3168c,0x4(%esp)
    1d4e:	00 
    1d4f:	89 04 24             	mov    %eax,(%esp)
    1d52:	e8 49 c0 01 00       	call   1dda0 <fprintf>
    1d57:	80 3d a0 69 03 00 00 	cmpb   $0x0,0x369a0
    1d5e:	0f 85 cd fe ff ff    	jne    1c31 <test_print3+0x61>
    1d64:	a1 38 6a 03 00       	mov    0x36a38,%eax
    1d69:	c7 44 24 04 c4 16 03 	movl   $0x316c4,0x4(%esp)
    1d70:	00 
    1d71:	89 04 24             	mov    %eax,(%esp)
    1d74:	e8 27 c0 01 00       	call   1dda0 <fprintf>
    1d79:	e9 b3 fe ff ff       	jmp    1c31 <test_print3+0x61>
    1d7e:	66 90                	xchg   %ax,%ax
    1d80:	89 44 24 08          	mov    %eax,0x8(%esp)
    1d84:	a1 38 6a 03 00       	mov    0x36a38,%eax
    1d89:	89 5c 24 0c          	mov    %ebx,0xc(%esp)
    1d8d:	c7 44 24 04 98 15 03 	movl   $0x31598,0x4(%esp)
    1d94:	00 
    1d95:	89 04 24             	mov    %eax,(%esp)
    1d98:	e8 03 c0 01 00       	call   1dda0 <fprintf>
    1d9d:	80 3d a0 69 03 00 00 	cmpb   $0x0,0x369a0
    1da4:	0f 85 62 fe ff ff    	jne    1c0c <test_print3+0x3c>
    1daa:	a1 38 6a 03 00       	mov    0x36a38,%eax
    1daf:	c7 44 24 04 c4 15 03 	movl   $0x315c4,0x4(%esp)
    1db6:	00 
    1db7:	89 04 24             	mov    %eax,(%esp)
    1dba:	e8 e1 bf 01 00       	call   1dda0 <fprintf>
    1dbf:	80 3d a0 69 03 00 00 	cmpb   $0x0,0x369a0
    1dc6:	0f 85 40 fe ff ff    	jne    1c0c <test_print3+0x3c>
    1dcc:	a1 38 6a 03 00       	mov    0x36a38,%eax
    1dd1:	c7 44 24 04 14 16 03 	movl   $0x31614,0x4(%esp)
    1dd8:	00 
    1dd9:	89 04 24             	mov    %eax,(%esp)
    1ddc:	e8 bf bf 01 00       	call   1dda0 <fprintf>
    1de1:	e9 26 fe ff ff       	jmp    1c0c <test_print3+0x3c>
    1de6:	66 90                	xchg   %ax,%ax
    1de8:	a1 38 6a 03 00       	mov    0x36a38,%eax
    1ded:	c7 44 24 04 f0 14 03 	movl   $0x314f0,0x4(%esp)
    1df4:	00 
    1df5:	89 04 24             	mov    %eax,(%esp)
    1df8:	e8 a3 bf 01 00       	call   1dda0 <fprintf>
    1dfd:	80 3d a0 69 03 00 00 	cmpb   $0x0,0x369a0
    1e04:	0f 85 da fd ff ff    	jne    1be4 <test_print3+0x14>
    1e0a:	a1 38 6a 03 00       	mov    0x36a38,%eax
    1e0f:	c7 44 24 04 34 15 03 	movl   $0x31534,0x4(%esp)
    1e16:	00 
    1e17:	89 04 24             	mov    %eax,(%esp)
    1e1a:	e8 81 bf 01 00       	call   1dda0 <fprintf>
    1e1f:	e9 c0 fd ff ff       	jmp    1be4 <test_print3+0x14>
    1e24:	66 90                	xchg   %ax,%ax
    1e26:	66 90                	xchg   %ax,%ax
    1e28:	66 90                	xchg   %ax,%ax
    1e2a:	66 90                	xchg   %ax,%ax
    1e2c:	66 90                	xchg   %ax,%ax
    1e2e:	66 90                	xchg   %ax,%ax

00001e30 <test_print4>:
    1e30:	55                   	push   %ebp
    1e31:	89 e5                	mov    %esp,%ebp
    1e33:	57                   	push   %edi
    1e34:	56                   	push   %esi
    1e35:	53                   	push   %ebx
    1e36:	83 ec 1c             	sub    $0x1c,%esp
    1e39:	a0 a0 69 03 00       	mov    0x369a0,%al
    1e3e:	84 c0                	test   %al,%al
    1e40:	0f 84 ac 01 00 00    	je     1ff2 <test_print4+0x1c2>
    1e46:	be 01 00 00 00       	mov    $0x1,%esi
    1e4b:	89 f3                	mov    %esi,%ebx
    1e4d:	84 c0                	test   %al,%al
    1e4f:	0f 84 75 01 00 00    	je     1fca <test_print4+0x19a>
    1e55:	c1 e3 05             	shl    $0x5,%ebx
    1e58:	31 ff                	xor    %edi,%edi
    1e5a:	eb 0a                	jmp    1e66 <test_print4+0x36>
    1e5c:	8d 74 26 00          	lea    0x0(%esi,%eiz,1),%esi
    1e60:	47                   	inc    %edi
    1e61:	83 ff 20             	cmp    $0x20,%edi
    1e64:	74 2e                	je     1e94 <test_print4+0x64>
    1e66:	84 c0                	test   %al,%al
    1e68:	75 f6                	jne    1e60 <test_print4+0x30>
    1e6a:	8d 04 3b             	lea    (%ebx,%edi,1),%eax
    1e6d:	c7 44 24 04 ed 1a 03 	movl   $0x31aed,0x4(%esp)
    1e74:	00 
    1e75:	0f be c0             	movsbl %al,%eax
    1e78:	89 44 24 08          	mov    %eax,0x8(%esp)
    1e7c:	a1 38 6a 03 00       	mov    0x36a38,%eax
    1e81:	89 04 24             	mov    %eax,(%esp)
    1e84:	47                   	inc    %edi
    1e85:	e8 16 bf 01 00       	call   1dda0 <fprintf>
    1e8a:	a0 a0 69 03 00       	mov    0x369a0,%al
    1e8f:	83 ff 20             	cmp    $0x20,%edi
    1e92:	75 d2                	jne    1e66 <test_print4+0x36>
    1e94:	84 c0                	test   %al,%al
    1e96:	0f 84 0f 01 00 00    	je     1fab <test_print4+0x17b>
    1e9c:	89 f7                	mov    %esi,%edi
    1e9e:	b3 20                	mov    $0x20,%bl
    1ea0:	c1 e7 05             	shl    $0x5,%edi
    1ea3:	eb 08                	jmp    1ead <test_print4+0x7d>
    1ea5:	8d 76 00             	lea    0x0(%esi),%esi
    1ea8:	47                   	inc    %edi
    1ea9:	fe cb                	dec    %bl
    1eab:	74 27                	je     1ed4 <test_print4+0xa4>
    1ead:	84 c0                	test   %al,%al
    1eaf:	75 f7                	jne    1ea8 <test_print4+0x78>
    1eb1:	a1 38 6a 03 00       	mov    0x36a38,%eax
    1eb6:	89 7c 24 08          	mov    %edi,0x8(%esp)
    1eba:	c7 44 24 04 f0 1a 03 	movl   $0x31af0,0x4(%esp)
    1ec1:	00 
    1ec2:	89 04 24             	mov    %eax,(%esp)
    1ec5:	e8 d6 be 01 00       	call   1dda0 <fprintf>
    1eca:	47                   	inc    %edi
    1ecb:	fe cb                	dec    %bl
    1ecd:	a0 a0 69 03 00       	mov    0x369a0,%al
    1ed2:	75 d9                	jne    1ead <test_print4+0x7d>
    1ed4:	84 c0                	test   %al,%al
    1ed6:	0f 84 b0 00 00 00    	je     1f8c <test_print4+0x15c>
    1edc:	46                   	inc    %esi
    1edd:	83 fe 04             	cmp    $0x4,%esi
    1ee0:	0f 85 65 ff ff ff    	jne    1e4b <test_print4+0x1b>
    1ee6:	84 c0                	test   %al,%al
    1ee8:	0f 84 b0 03 00 00    	je     229e <test_print4+0x46e>
    1eee:	be 04 00 00 00       	mov    $0x4,%esi
    1ef3:	84 c0                	test   %al,%al
    1ef5:	74 6d                	je     1f64 <test_print4+0x134>
    1ef7:	89 f7                	mov    %esi,%edi
    1ef9:	b3 20                	mov    $0x20,%bl
    1efb:	c1 e7 05             	shl    $0x5,%edi
    1efe:	eb 05                	jmp    1f05 <test_print4+0xd5>
    1f00:	47                   	inc    %edi
    1f01:	fe cb                	dec    %bl
    1f03:	74 27                	je     1f2c <test_print4+0xfc>
    1f05:	84 c0                	test   %al,%al
    1f07:	75 f7                	jne    1f00 <test_print4+0xd0>
    1f09:	a1 38 6a 03 00       	mov    0x36a38,%eax
    1f0e:	89 7c 24 08          	mov    %edi,0x8(%esp)
    1f12:	c7 44 24 04 f0 1a 03 	movl   $0x31af0,0x4(%esp)
    1f19:	00 
    1f1a:	89 04 24             	mov    %eax,(%esp)
    1f1d:	e8 7e be 01 00       	call   1dda0 <fprintf>
    1f22:	47                   	inc    %edi
    1f23:	fe cb                	dec    %bl
    1f25:	a0 a0 69 03 00       	mov    0x369a0,%al
    1f2a:	75 d9                	jne    1f05 <test_print4+0xd5>
    1f2c:	84 c0                	test   %al,%al
    1f2e:	74 18                	je     1f48 <test_print4+0x118>
    1f30:	46                   	inc    %esi
    1f31:	83 fe 08             	cmp    $0x8,%esi
    1f34:	75 bd                	jne    1ef3 <test_print4+0xc3>
    1f36:	84 c0                	test   %al,%al
    1f38:	0f 84 d3 00 00 00    	je     2011 <test_print4+0x1e1>
    1f3e:	83 c4 1c             	add    $0x1c,%esp
    1f41:	31 c0                	xor    %eax,%eax
    1f43:	5b                   	pop    %ebx
    1f44:	5e                   	pop    %esi
    1f45:	5f                   	pop    %edi
    1f46:	5d                   	pop    %ebp
    1f47:	c3                   	ret    
    1f48:	a1 38 6a 03 00       	mov    0x36a38,%eax
    1f4d:	c7 44 24 04 6b 20 03 	movl   $0x3206b,0x4(%esp)
    1f54:	00 
    1f55:	89 04 24             	mov    %eax,(%esp)
    1f58:	e8 43 be 01 00       	call   1dda0 <fprintf>
    1f5d:	a0 a0 69 03 00       	mov    0x369a0,%al
    1f62:	eb cc                	jmp    1f30 <test_print4+0x100>
    1f64:	89 f0                	mov    %esi,%eax
    1f66:	c7 44 24 04 e7 1a 03 	movl   $0x31ae7,0x4(%esp)
    1f6d:	00 
    1f6e:	c1 e0 05             	shl    $0x5,%eax
    1f71:	89 44 24 08          	mov    %eax,0x8(%esp)
    1f75:	a1 38 6a 03 00       	mov    0x36a38,%eax
    1f7a:	89 04 24             	mov    %eax,(%esp)
    1f7d:	e8 1e be 01 00       	call   1dda0 <fprintf>
    1f82:	a0 a0 69 03 00       	mov    0x369a0,%al
    1f87:	e9 6b ff ff ff       	jmp    1ef7 <test_print4+0xc7>
    1f8c:	a1 38 6a 03 00       	mov    0x36a38,%eax
    1f91:	c7 44 24 04 6b 20 03 	movl   $0x3206b,0x4(%esp)
    1f98:	00 
    1f99:	89 04 24             	mov    %eax,(%esp)
    1f9c:	e8 ff bd 01 00       	call   1dda0 <fprintf>
    1fa1:	a0 a0 69 03 00       	mov    0x369a0,%al
    1fa6:	e9 31 ff ff ff       	jmp    1edc <test_print4+0xac>
    1fab:	a1 38 6a 03 00       	mov    0x36a38,%eax
    1fb0:	c7 44 24 04 49 24 03 	movl   $0x32449,0x4(%esp)
    1fb7:	00 
    1fb8:	89 04 24             	mov    %eax,(%esp)
    1fbb:	e8 e0 bd 01 00       	call   1dda0 <fprintf>
    1fc0:	a0 a0 69 03 00       	mov    0x369a0,%al
    1fc5:	e9 d2 fe ff ff       	jmp    1e9c <test_print4+0x6c>
    1fca:	89 f0                	mov    %esi,%eax
    1fcc:	c7 44 24 04 e7 1a 03 	movl   $0x31ae7,0x4(%esp)
    1fd3:	00 
    1fd4:	c1 e0 05             	shl    $0x5,%eax
    1fd7:	89 44 24 08          	mov    %eax,0x8(%esp)
    1fdb:	a1 38 6a 03 00       	mov    0x36a38,%eax
    1fe0:	89 04 24             	mov    %eax,(%esp)
    1fe3:	e8 b8 bd 01 00       	call   1dda0 <fprintf>
    1fe8:	a0 a0 69 03 00       	mov    0x369a0,%al
    1fed:	e9 63 fe ff ff       	jmp    1e55 <test_print4+0x25>
    1ff2:	a1 38 6a 03 00       	mov    0x36a38,%eax
    1ff7:	c7 44 24 04 24 18 03 	movl   $0x31824,0x4(%esp)
    1ffe:	00 
    1fff:	89 04 24             	mov    %eax,(%esp)
    2002:	e8 99 bd 01 00       	call   1dda0 <fprintf>
    2007:	a0 a0 69 03 00       	mov    0x369a0,%al
    200c:	e9 35 fe ff ff       	jmp    1e46 <test_print4+0x16>
    2011:	a1 38 6a 03 00       	mov    0x36a38,%eax
    2016:	c7 44 24 04 b4 18 03 	movl   $0x318b4,0x4(%esp)
    201d:	00 
    201e:	89 04 24             	mov    %eax,(%esp)
    2021:	e8 7a bd 01 00       	call   1dda0 <fprintf>
    2026:	80 3d a0 69 03 00 00 	cmpb   $0x0,0x369a0
    202d:	0f 85 0b ff ff ff    	jne    1f3e <test_print4+0x10e>
    2033:	a1 38 6a 03 00       	mov    0x36a38,%eax
    2038:	c7 44 24 08 dc 18 03 	movl   $0x318dc,0x8(%esp)
    203f:	00 
    2040:	c7 44 24 04 f4 1a 03 	movl   $0x31af4,0x4(%esp)
    2047:	00 
    2048:	89 04 24             	mov    %eax,(%esp)
    204b:	e8 50 bd 01 00       	call   1dda0 <fprintf>
    2050:	80 3d a0 69 03 00 00 	cmpb   $0x0,0x369a0
    2057:	0f 85 e1 fe ff ff    	jne    1f3e <test_print4+0x10e>
    205d:	a1 38 6a 03 00       	mov    0x36a38,%eax
    2062:	c7 44 24 08 04 19 03 	movl   $0x31904,0x8(%esp)
    2069:	00 
    206a:	c7 44 24 04 02 1b 03 	movl   $0x31b02,0x4(%esp)
    2071:	00 
    2072:	89 04 24             	mov    %eax,(%esp)
    2075:	e8 26 bd 01 00       	call   1dda0 <fprintf>
    207a:	80 3d a0 69 03 00 00 	cmpb   $0x0,0x369a0
    2081:	0f 85 b7 fe ff ff    	jne    1f3e <test_print4+0x10e>
    2087:	a1 38 6a 03 00       	mov    0x36a38,%eax
    208c:	c7 44 24 08 3c 19 03 	movl   $0x3193c,0x8(%esp)
    2093:	00 
    2094:	c7 44 24 04 10 1b 03 	movl   $0x31b10,0x4(%esp)
    209b:	00 
    209c:	89 04 24             	mov    %eax,(%esp)
    209f:	e8 fc bc 01 00       	call   1dda0 <fprintf>
    20a4:	80 3d a0 69 03 00 00 	cmpb   $0x0,0x369a0
    20ab:	0f 85 8d fe ff ff    	jne    1f3e <test_print4+0x10e>
    20b1:	a1 38 6a 03 00       	mov    0x36a38,%eax
    20b6:	c7 44 24 08 94 19 03 	movl   $0x31994,0x8(%esp)
    20bd:	00 
    20be:	c7 44 24 04 1e 1b 03 	movl   $0x31b1e,0x4(%esp)
    20c5:	00 
    20c6:	89 04 24             	mov    %eax,(%esp)
    20c9:	e8 d2 bc 01 00       	call   1dda0 <fprintf>
    20ce:	80 3d a0 69 03 00 00 	cmpb   $0x0,0x369a0
    20d5:	0f 85 63 fe ff ff    	jne    1f3e <test_print4+0x10e>
    20db:	a1 38 6a 03 00       	mov    0x36a38,%eax
    20e0:	c7 44 24 08 e0 19 03 	movl   $0x319e0,0x8(%esp)
    20e7:	00 
    20e8:	c7 44 24 04 2c 1b 03 	movl   $0x31b2c,0x4(%esp)
    20ef:	00 
    20f0:	89 04 24             	mov    %eax,(%esp)
    20f3:	e8 a8 bc 01 00       	call   1dda0 <fprintf>
    20f8:	80 3d a0 69 03 00 00 	cmpb   $0x0,0x369a0
    20ff:	0f 85 39 fe ff ff    	jne    1f3e <test_print4+0x10e>
    2105:	a1 38 6a 03 00       	mov    0x36a38,%eax
    210a:	c7 44 24 08 1c 1a 03 	movl   $0x31a1c,0x8(%esp)
    2111:	00 
    2112:	c7 44 24 04 3a 1b 03 	movl   $0x31b3a,0x4(%esp)
    2119:	00 
    211a:	89 04 24             	mov    %eax,(%esp)
    211d:	e8 7e bc 01 00       	call   1dda0 <fprintf>
    2122:	80 3d a0 69 03 00 00 	cmpb   $0x0,0x369a0
    2129:	0f 85 0f fe ff ff    	jne    1f3e <test_print4+0x10e>
    212f:	a1 38 6a 03 00       	mov    0x36a38,%eax
    2134:	c7 44 24 08 78 1a 03 	movl   $0x31a78,0x8(%esp)
    213b:	00 
    213c:	c7 44 24 04 48 1b 03 	movl   $0x31b48,0x4(%esp)
    2143:	00 
    2144:	89 04 24             	mov    %eax,(%esp)
    2147:	e8 54 bc 01 00       	call   1dda0 <fprintf>
    214c:	80 3d a0 69 03 00 00 	cmpb   $0x0,0x369a0
    2153:	0f 85 e5 fd ff ff    	jne    1f3e <test_print4+0x10e>
    2159:	a1 38 6a 03 00       	mov    0x36a38,%eax
    215e:	c7 44 24 04 c0 1a 03 	movl   $0x31ac0,0x4(%esp)
    2165:	00 
    2166:	89 04 24             	mov    %eax,(%esp)
    2169:	e8 32 bc 01 00       	call   1dda0 <fprintf>
    216e:	80 3d a0 69 03 00 00 	cmpb   $0x0,0x369a0
    2175:	0f 85 c3 fd ff ff    	jne    1f3e <test_print4+0x10e>
    217b:	a1 38 6a 03 00       	mov    0x36a38,%eax
    2180:	c7 44 24 08 c0 1b 03 	movl   $0x31bc0,0x8(%esp)
    2187:	00 
    2188:	c7 44 24 04 56 1b 03 	movl   $0x31b56,0x4(%esp)
    218f:	00 
    2190:	89 04 24             	mov    %eax,(%esp)
    2193:	e8 08 bc 01 00       	call   1dda0 <fprintf>
    2198:	80 3d a0 69 03 00 00 	cmpb   $0x0,0x369a0
    219f:	0f 85 99 fd ff ff    	jne    1f3e <test_print4+0x10e>
    21a5:	a1 38 6a 03 00       	mov    0x36a38,%eax
    21aa:	c7 44 24 08 60 1c 03 	movl   $0x31c60,0x8(%esp)
    21b1:	00 
    21b2:	c7 44 24 04 65 1b 03 	movl   $0x31b65,0x4(%esp)
    21b9:	00 
    21ba:	89 04 24             	mov    %eax,(%esp)
    21bd:	e8 de bb 01 00       	call   1dda0 <fprintf>
    21c2:	80 3d a0 69 03 00 00 	cmpb   $0x0,0x369a0
    21c9:	0f 85 6f fd ff ff    	jne    1f3e <test_print4+0x10e>
    21cf:	a1 38 6a 03 00       	mov    0x36a38,%eax
    21d4:	c7 44 24 08 fc 1c 03 	movl   $0x31cfc,0x8(%esp)
    21db:	00 
    21dc:	c7 44 24 04 74 1b 03 	movl   $0x31b74,0x4(%esp)
    21e3:	00 
    21e4:	89 04 24             	mov    %eax,(%esp)
    21e7:	e8 b4 bb 01 00       	call   1dda0 <fprintf>
    21ec:	80 3d a0 69 03 00 00 	cmpb   $0x0,0x369a0
    21f3:	0f 85 45 fd ff ff    	jne    1f3e <test_print4+0x10e>
    21f9:	a1 38 6a 03 00       	mov    0x36a38,%eax
    21fe:	c7 44 24 08 a8 1d 03 	movl   $0x31da8,0x8(%esp)
    2205:	00 
    2206:	c7 44 24 04 83 1b 03 	movl   $0x31b83,0x4(%esp)
    220d:	00 
    220e:	89 04 24             	mov    %eax,(%esp)
    2211:	e8 8a bb 01 00       	call   1dda0 <fprintf>
    2216:	80 3d a0 69 03 00 00 	cmpb   $0x0,0x369a0
    221d:	0f 85 1b fd ff ff    	jne    1f3e <test_print4+0x10e>
    2223:	a1 38 6a 03 00       	mov    0x36a38,%eax
    2228:	c7 44 24 08 44 1e 03 	movl   $0x31e44,0x8(%esp)
    222f:	00 
    2230:	c7 44 24 04 92 1b 03 	movl   $0x31b92,0x4(%esp)
    2237:	00 
    2238:	89 04 24             	mov    %eax,(%esp)
    223b:	e8 60 bb 01 00       	call   1dda0 <fprintf>
    2240:	80 3d a0 69 03 00 00 	cmpb   $0x0,0x369a0
    2247:	0f 85 f1 fc ff ff    	jne    1f3e <test_print4+0x10e>
    224d:	a1 38 6a 03 00       	mov    0x36a38,%eax
    2252:	c7 44 24 08 c4 1e 03 	movl   $0x31ec4,0x8(%esp)
    2259:	00 
    225a:	c7 44 24 04 a1 1b 03 	movl   $0x31ba1,0x4(%esp)
    2261:	00 
    2262:	89 04 24             	mov    %eax,(%esp)
    2265:	e8 36 bb 01 00       	call   1dda0 <fprintf>
    226a:	80 3d a0 69 03 00 00 	cmpb   $0x0,0x369a0
    2271:	0f 85 c7 fc ff ff    	jne    1f3e <test_print4+0x10e>
    2277:	a1 38 6a 03 00       	mov    0x36a38,%eax
    227c:	c7 44 24 08 84 1f 03 	movl   $0x31f84,0x8(%esp)
    2283:	00 
    2284:	c7 44 24 04 b0 1b 03 	movl   $0x31bb0,0x4(%esp)
    228b:	00 
    228c:	89 04 24             	mov    %eax,(%esp)
    228f:	e8 0c bb 01 00       	call   1dda0 <fprintf>
    2294:	83 c4 1c             	add    $0x1c,%esp
    2297:	31 c0                	xor    %eax,%eax
    2299:	5b                   	pop    %ebx
    229a:	5e                   	pop    %esi
    229b:	5f                   	pop    %edi
    229c:	5d                   	pop    %ebp
    229d:	c3                   	ret    
    229e:	a1 38 6a 03 00       	mov    0x36a38,%eax
    22a3:	c7 44 24 04 74 18 03 	movl   $0x31874,0x4(%esp)
    22aa:	00 
    22ab:	89 04 24             	mov    %eax,(%esp)
    22ae:	e8 ed ba 01 00       	call   1dda0 <fprintf>
    22b3:	a0 a0 69 03 00       	mov    0x369a0,%al
    22b8:	e9 31 fc ff ff       	jmp    1eee <test_print4+0xbe>
    22bd:	66 90                	xchg   %ax,%ax
    22bf:	90                   	nop

000022c0 <test_print5>:
    22c0:	80 3d a0 69 03 00 00 	cmpb   $0x0,0x369a0
    22c7:	74 07                	je     22d0 <test_print5+0x10>
    22c9:	31 c0                	xor    %eax,%eax
    22cb:	c3                   	ret    
    22cc:	8d 74 26 00          	lea    0x0(%esi,%eiz,1),%esi
    22d0:	55                   	push   %ebp
    22d1:	89 e5                	mov    %esp,%ebp
    22d3:	83 ec 28             	sub    $0x28,%esp
    22d6:	a1 38 6a 03 00       	mov    0x36a38,%eax
    22db:	c7 44 24 04 1c 20 03 	movl   $0x3201c,0x4(%esp)
    22e2:	00 
    22e3:	89 04 24             	mov    %eax,(%esp)
    22e6:	e8 b5 ba 01 00       	call   1dda0 <fprintf>
    22eb:	80 3d a0 69 03 00 00 	cmpb   $0x0,0x369a0
    22f2:	0f 85 c1 00 00 00    	jne    23b9 <test_print5+0xf9>
    22f8:	a1 38 6a 03 00       	mov    0x36a38,%eax
    22fd:	c7 44 24 04 3a 20 03 	movl   $0x3203a,0x4(%esp)
    2304:	00 
    2305:	89 04 24             	mov    %eax,(%esp)
    2308:	e8 93 ba 01 00       	call   1dda0 <fprintf>
    230d:	80 3d a0 69 03 00 00 	cmpb   $0x0,0x369a0
    2314:	0f 85 9f 00 00 00    	jne    23b9 <test_print5+0xf9>
    231a:	a1 38 6a 03 00       	mov    0x36a38,%eax
    231f:	c7 44 24 08 00 00 00 	movl   $0x0,0x8(%esp)
    2326:	00 
    2327:	c7 44 24 04 55 20 03 	movl   $0x32055,0x4(%esp)
    232e:	00 
    232f:	89 04 24             	mov    %eax,(%esp)
    2332:	e8 69 ba 01 00       	call   1dda0 <fprintf>
    2337:	80 3d a0 69 03 00 00 	cmpb   $0x0,0x369a0
    233e:	75 79                	jne    23b9 <test_print5+0xf9>
    2340:	a1 38 6a 03 00       	mov    0x36a38,%eax
    2345:	c7 44 24 04 70 20 03 	movl   $0x32070,0x4(%esp)
    234c:	00 
    234d:	89 04 24             	mov    %eax,(%esp)
    2350:	e8 4b ba 01 00       	call   1dda0 <fprintf>
    2355:	80 3d a0 69 03 00 00 	cmpb   $0x0,0x369a0
    235c:	75 5b                	jne    23b9 <test_print5+0xf9>
    235e:	a1 38 6a 03 00       	mov    0x36a38,%eax
    2363:	c7 44 24 04 c0 20 03 	movl   $0x320c0,0x4(%esp)
    236a:	00 
    236b:	89 04 24             	mov    %eax,(%esp)
    236e:	e8 2d ba 01 00       	call   1dda0 <fprintf>
    2373:	80 3d a0 69 03 00 00 	cmpb   $0x0,0x369a0
    237a:	75 3d                	jne    23b9 <test_print5+0xf9>
    237c:	a1 38 6a 03 00       	mov    0x36a38,%eax
    2381:	c7 44 24 18 65 00 00 	movl   $0x65,0x18(%esp)
    2388:	00 
    2389:	c7 44 24 14 64 00 00 	movl   $0x64,0x14(%esp)
    2390:	00 
    2391:	c7 44 24 10 63 00 00 	movl   $0x63,0x10(%esp)
    2398:	00 
    2399:	c7 44 24 0c 62 00 00 	movl   $0x62,0xc(%esp)
    23a0:	00 
    23a1:	c7 44 24 08 61 00 00 	movl   $0x61,0x8(%esp)
    23a8:	00 
    23a9:	c7 44 24 04 ec 20 03 	movl   $0x320ec,0x4(%esp)
    23b0:	00 
    23b1:	89 04 24             	mov    %eax,(%esp)
    23b4:	e8 e7 b9 01 00       	call   1dda0 <fprintf>
    23b9:	31 c0                	xor    %eax,%eax
    23bb:	c9                   	leave  
    23bc:	c3                   	ret    
    23bd:	66 90                	xchg   %ax,%ax
    23bf:	90                   	nop

000023c0 <test_print6>:
    23c0:	55                   	push   %ebp
    23c1:	ba 01 01 00 00       	mov    $0x101,%edx
    23c6:	89 e5                	mov    %esp,%ebp
    23c8:	57                   	push   %edi
    23c9:	56                   	push   %esi
    23ca:	53                   	push   %ebx
    23cb:	81 ec 5c 06 00 00    	sub    $0x65c,%esp
    23d1:	c7 85 d4 fa ff ff 00 	movl   $0x0,-0x52c(%ebp)
    23d8:	00 00 00 
    23db:	c7 85 d8 fa ff ff 00 	movl   $0x40000000,-0x528(%ebp)
    23e2:	00 00 40 
    23e5:	c7 85 dc fa ff ff b8 	movl   $0x321b8,-0x524(%ebp)
    23ec:	21 03 00 
    23ef:	c7 85 e0 fa ff ff 76 	movl   $0x32376,-0x520(%ebp)
    23f6:	23 03 00 
    23f9:	c7 85 e4 fa ff ff 00 	movl   $0x0,-0x51c(%ebp)
    2400:	00 00 00 
    2403:	c7 85 e8 fa ff ff 00 	movl   $0x0,-0x518(%ebp)
    240a:	00 00 00 
    240d:	c7 85 ec fa ff ff 00 	movl   $0x0,-0x514(%ebp)
    2414:	00 00 00 
    2417:	c7 85 f0 fa ff ff b8 	movl   $0x321b8,-0x510(%ebp)
    241e:	21 03 00 
    2421:	c7 85 f4 fa ff ff f2 	movl   $0x33ef2,-0x50c(%ebp)
    2428:	3e 03 00 
    242b:	c7 85 f8 fa ff ff 00 	movl   $0x0,-0x508(%ebp)
    2432:	00 00 00 
    2435:	c7 85 fc fa ff ff 9a 	movl   $0x9999999a,-0x504(%ebp)
    243c:	99 99 99 
    243f:	c7 85 00 fb ff ff 99 	movl   $0x3fb99999,-0x500(%ebp)
    2446:	99 b9 3f 
    2449:	c7 85 04 fb ff ff b8 	movl   $0x321b8,-0x4fc(%ebp)
    2450:	21 03 00 
    2453:	c7 85 08 fb ff ff bb 	movl   $0x321bb,-0x4f8(%ebp)
    245a:	21 03 00 
    245d:	c7 85 0c fb ff ff 00 	movl   $0x0,-0x4f4(%ebp)
    2464:	00 00 00 
    2467:	c7 85 10 fb ff ff bd 	movl   $0xcde2a7bd,-0x4f0(%ebp)
    246e:	a7 e2 cd 
    2471:	c7 85 14 fb ff ff 1a 	movl   $0x4c61ec1a,-0x4ec(%ebp)
    2478:	ec 61 4c 
    247b:	c7 85 18 fb ff ff b8 	movl   $0x321b8,-0x4e8(%ebp)
    2482:	21 03 00 
    2485:	c7 85 1c fb ff ff bf 	movl   $0x321bf,-0x4e4(%ebp)
    248c:	21 03 00 
    248f:	c7 85 20 fb ff ff 00 	movl   $0x0,-0x4e0(%ebp)
    2496:	00 00 00 
    2499:	c7 85 24 fb ff ff d3 	movl   $0x480164d3,-0x4dc(%ebp)
    24a0:	64 01 48 
    24a3:	c7 85 28 fb ff ff fb 	movl   $0xb3e213fb,-0x4d8(%ebp)
    24aa:	13 e2 b3 
    24ad:	c7 85 2c fb ff ff b8 	movl   $0x321b8,-0x4d4(%ebp)
    24b4:	21 03 00 
    24b7:	c7 85 30 fb ff ff c5 	movl   $0x321c5,-0x4d0(%ebp)
    24be:	21 03 00 
    24c1:	c7 85 34 fb ff ff 00 	movl   $0x0,-0x4cc(%ebp)
    24c8:	00 00 00 
    24cb:	c7 85 38 fb ff ff 33 	movl   $0x3cac7433,-0x4c8(%ebp)
    24d2:	74 ac 3c 
    24d5:	c7 85 3c fb ff ff 1f 	movl   $0x7fac7b1f,-0x4c4(%ebp)
    24dc:	7b ac 7f 
    24df:	c7 85 40 fb ff ff b8 	movl   $0x321b8,-0x4c0(%ebp)
    24e6:	21 03 00 
    24e9:	c7 85 44 fb ff ff cc 	movl   $0x321cc,-0x4bc(%ebp)
    24f0:	21 03 00 
    24f3:	dd 05 70 25 03 00    	fldl   0x32570
    24f9:	d8 c8                	fmul   %st(0),%st
    24fb:	c7 85 48 fb ff ff 00 	movl   $0x0,-0x4b8(%ebp)
    2502:	00 00 00 
    2505:	c7 85 4c fb ff ff 99 	movl   $0x99999999,-0x4b4(%ebp)
    250c:	99 99 99 
    250f:	c7 85 50 fb ff ff 99 	movl   $0x3fb99999,-0x4b0(%ebp)
    2516:	99 b9 3f 
    2519:	c7 85 54 fb ff ff b8 	movl   $0x321b8,-0x4ac(%ebp)
    2520:	21 03 00 
    2523:	c7 85 58 fb ff ff d3 	movl   $0x321d3,-0x4a8(%ebp)
    252a:	21 03 00 
    252d:	c7 85 5c fb ff ff 00 	movl   $0x0,-0x4a4(%ebp)
    2534:	00 00 00 
    2537:	c7 85 60 fb ff ff 9a 	movl   $0x9999999a,-0x4a0(%ebp)
    253e:	99 99 99 
    2541:	dd 95 c4 fb ff ff    	fstl   -0x43c(%ebp)
    2547:	d9 c0                	fld    %st(0)
    2549:	c7 85 64 fb ff ff 99 	movl   $0x3fb99999,-0x49c(%ebp)
    2550:	99 b9 3f 
    2553:	c7 85 68 fb ff ff b8 	movl   $0x321b8,-0x498(%ebp)
    255a:	21 03 00 
    255d:	c7 85 6c fb ff ff bb 	movl   $0x321bb,-0x494(%ebp)
    2564:	21 03 00 
    2567:	c7 85 70 fb ff ff 00 	movl   $0x0,-0x490(%ebp)
    256e:	00 00 00 
    2571:	c7 85 74 fb ff ff d7 	movl   $0x6ac1d7,-0x48c(%ebp)
    2578:	c1 6a 00 
    257b:	c7 85 78 fb ff ff 00 	movl   $0x0,-0x488(%ebp)
    2582:	00 00 00 
    2585:	c7 85 7c fb ff ff b8 	movl   $0x321b8,-0x484(%ebp)
    258c:	21 03 00 
    258f:	c7 85 80 fb ff ff e9 	movl   $0x321e9,-0x480(%ebp)
    2596:	21 03 00 
    2599:	c7 85 84 fb ff ff f5 	movl   $0x321f5,-0x47c(%ebp)
    25a0:	21 03 00 
    25a3:	c7 85 88 fb ff ff fc 	movl   $0xaacfc,-0x478(%ebp)
    25aa:	ac 0a 00 
    25ad:	c7 85 8c fb ff ff 00 	movl   $0x0,-0x474(%ebp)
    25b4:	00 00 00 
    25b7:	c7 85 90 fb ff ff b8 	movl   $0x321b8,-0x470(%ebp)
    25be:	21 03 00 
    25c1:	c7 85 94 fb ff ff 03 	movl   $0x32203,-0x46c(%ebp)
    25c8:	22 03 00 
    25cb:	c7 85 98 fb ff ff 00 	movl   $0x0,-0x468(%ebp)
    25d2:	00 00 00 
    25d5:	c7 85 9c fb ff ff 40 	movl   $0x8377de40,-0x464(%ebp)
    25dc:	de 77 83 
    25df:	c7 85 a0 fb ff ff 21 	movl   $0x42dc1221,-0x460(%ebp)
    25e6:	12 dc 42 
    25e9:	c7 85 a4 fb ff ff b8 	movl   $0x321b8,-0x45c(%ebp)
    25f0:	21 03 00 
    25f3:	c7 85 a8 fb ff ff 10 	movl   $0x32210,-0x458(%ebp)
    25fa:	22 03 00 
    25fd:	c7 85 ac fb ff ff 00 	movl   $0x0,-0x454(%ebp)
    2604:	00 00 00 
    2607:	c7 85 b0 fb ff ff 40 	movl   $0x8377de40,-0x450(%ebp)
    260e:	de 77 83 
    2611:	c7 85 b4 fb ff ff 21 	movl   $0xc2dc1221,-0x44c(%ebp)
    2618:	12 dc c2 
    261b:	c7 85 b8 fb ff ff b8 	movl   $0x321b8,-0x448(%ebp)
    2622:	21 03 00 
    2625:	c7 85 bc fb ff ff 0f 	movl   $0x3220f,-0x444(%ebp)
    262c:	22 03 00 
    262f:	c7 85 c0 fb ff ff 00 	movl   $0x0,-0x440(%ebp)
    2636:	00 00 00 
    2639:	c7 85 cc fb ff ff b8 	movl   $0x321b8,-0x434(%ebp)
    2640:	21 03 00 
    2643:	c7 85 d0 fb ff ff f0 	movl   $0x323f0,-0x430(%ebp)
    264a:	23 03 00 
    264d:	d8 3d 78 25 03 00    	fdivrs 0x32578
    2653:	c7 85 d4 fb ff ff 00 	movl   $0x0,-0x42c(%ebp)
    265a:	00 00 00 
    265d:	c7 85 e0 fb ff ff b8 	movl   $0x321b8,-0x420(%ebp)
    2664:	21 03 00 
    2667:	c7 85 e4 fb ff ff 6d 	movl   $0x3246d,-0x41c(%ebp)
    266e:	24 03 00 
    2671:	c7 85 e8 fb ff ff 00 	movl   $0x0,-0x418(%ebp)
    2678:	00 00 00 
    267b:	c7 85 ec fb ff ff f6 	movl   $0xe3dd97f6,-0x414(%ebp)
    2682:	97 dd e3 
    2685:	c7 85 f0 fb ff ff 87 	movl   $0x4132d687,-0x410(%ebp)
    268c:	d6 32 41 
    268f:	c7 85 f4 fb ff ff b8 	movl   $0x321b8,-0x40c(%ebp)
    2696:	21 03 00 
    2699:	c7 85 f8 fb ff ff 20 	movl   $0x32220,-0x408(%ebp)
    26a0:	22 03 00 
    26a3:	c7 85 fc fb ff ff 00 	movl   $0x0,-0x404(%ebp)
    26aa:	00 00 00 
    26ad:	c7 85 00 fc ff ff 11 	movl   $0xccd4aa11,-0x400(%ebp)
    26b4:	aa d4 cc 
    26b7:	c7 85 04 fc ff ff 87 	movl   $0x4132d687,-0x3fc(%ebp)
    26be:	d6 32 41 
    26c1:	c7 85 08 fc ff ff b8 	movl   $0x321b8,-0x3f8(%ebp)
    26c8:	21 03 00 
    26cb:	c7 85 0c fc ff ff 2d 	movl   $0x3222d,-0x3f4(%ebp)
    26d2:	22 03 00 
    26d5:	c7 85 10 fc ff ff 00 	movl   $0x0,-0x3f0(%ebp)
    26dc:	00 00 00 
    26df:	c7 85 14 fc ff ff 4c 	movl   $0x5af3924c,-0x3ec(%ebp)
    26e6:	92 f3 5a 
    26e9:	c7 85 18 fc ff ff 5f 	movl   $0x39b6b75f,-0x3e8(%ebp)
    26f0:	b7 b6 39 
    26f3:	c7 85 1c fc ff ff b8 	movl   $0x321b8,-0x3e4(%ebp)
    26fa:	21 03 00 
    26fd:	c7 85 20 fc ff ff 3b 	movl   $0x3223b,-0x3e0(%ebp)
    2704:	22 03 00 
    2707:	c7 85 24 fc ff ff 00 	movl   $0x0,-0x3dc(%ebp)
    270e:	00 00 00 
    2711:	c7 85 28 fc ff ff c6 	movl   $0xec5433c6,-0x3d8(%ebp)
    2718:	33 54 ec 
    271b:	c7 85 2c fc ff ff a5 	movl   $0x497c06a5,-0x3d4(%ebp)
    2722:	06 7c 49 
    2725:	c7 85 30 fc ff ff b8 	movl   $0x321b8,-0x3d0(%ebp)
    272c:	21 03 00 
    272f:	c7 85 34 fc ff ff 44 	movl   $0x32244,-0x3cc(%ebp)
    2736:	22 03 00 
    2739:	c7 85 38 fc ff ff 00 	movl   $0x0,-0x3c8(%ebp)
    2740:	00 00 00 
    2743:	c7 85 3c fc ff ff 7b 	movl   $0x47ae147b,-0x3c4(%ebp)
    274a:	14 ae 47 
    274d:	c7 85 40 fc ff ff e1 	movl   $0x3f847ae1,-0x3c0(%ebp)
    2754:	7a 84 3f 
    2757:	c7 85 44 fc ff ff 4a 	movl   $0x3224a,-0x3bc(%ebp)
    275e:	22 03 00 
    2761:	c7 85 48 fc ff ff 51 	movl   $0x32251,-0x3b8(%ebp)
    2768:	22 03 00 
    276b:	c7 85 4c fc ff ff 00 	movl   $0x0,-0x3b4(%ebp)
    2772:	00 00 00 
    2775:	c7 85 50 fc ff ff 3d 	movl   $0xa3d70a3d,-0x3b0(%ebp)
    277c:	0a d7 a3 
    277f:	8d 9d d3 f9 ff ff    	lea    -0x62d(%ebp),%ebx
    2785:	89 df                	mov    %ebx,%edi
    2787:	f6 c3 01             	test   $0x1,%bl
    278a:	dd 95 d8 fb ff ff    	fstl   -0x428(%ebp)
    2790:	d9 c9                	fxch   %st(1)
    2792:	c7 85 54 fc ff ff 70 	movl   $0x4022fd70,-0x3ac(%ebp)
    2799:	fd 22 40 
    279c:	c7 85 58 fc ff ff 5c 	movl   $0x3225c,-0x3a8(%ebp)
    27a3:	22 03 00 
    27a6:	c7 85 5c fc ff ff 63 	movl   $0x32263,-0x3a4(%ebp)
    27ad:	22 03 00 
    27b0:	c7 85 60 fc ff ff 00 	movl   $0x0,-0x3a0(%ebp)
    27b7:	00 00 00 
    27ba:	c7 85 64 fc ff ff 91 	movl   $0xfaa2df91,-0x39c(%ebp)
    27c1:	df a2 fa 
    27c4:	c7 85 68 fc ff ff ff 	movl   $0x465df5ff,-0x398(%ebp)
    27cb:	f5 5d 46 
    27ce:	c7 85 6c fc ff ff 5c 	movl   $0x3225c,-0x394(%ebp)
    27d5:	22 03 00 
    27d8:	c7 85 70 fc ff ff 6e 	movl   $0x3226e,-0x390(%ebp)
    27df:	22 03 00 
    27e2:	c7 85 74 fc ff ff 00 	movl   $0x0,-0x38c(%ebp)
    27e9:	00 00 00 
    27ec:	c7 85 78 fc ff ff 91 	movl   $0xfaa2df91,-0x388(%ebp)
    27f3:	df a2 fa 
    27f6:	c7 85 7c fc ff ff ff 	movl   $0x465df5ff,-0x384(%ebp)
    27fd:	f5 5d 46 
    2800:	c7 85 80 fc ff ff 79 	movl   $0x32279,-0x380(%ebp)
    2807:	22 03 00 
    280a:	c7 85 84 fc ff ff 7e 	movl   $0x3227e,-0x37c(%ebp)
    2811:	22 03 00 
    2814:	c7 85 88 fc ff ff 00 	movl   $0x0,-0x378(%ebp)
    281b:	00 00 00 
    281e:	c7 85 8c fc ff ff 91 	movl   $0xfaa2df91,-0x374(%ebp)
    2825:	df a2 fa 
    2828:	c7 85 90 fc ff ff ff 	movl   $0x465df5ff,-0x370(%ebp)
    282f:	f5 5d 46 
    2832:	c7 85 94 fc ff ff 4a 	movl   $0x3224a,-0x36c(%ebp)
    2839:	22 03 00 
    283c:	c7 85 98 fc ff ff 7e 	movl   $0x3227e,-0x368(%ebp)
    2843:	22 03 00 
    2846:	c7 85 9c fc ff ff 00 	movl   $0x0,-0x364(%ebp)
    284d:	00 00 00 
    2850:	c7 85 a0 fc ff ff 00 	movl   $0x0,-0x360(%ebp)
    2857:	00 00 00 
    285a:	c7 85 a4 fc ff ff 00 	movl   $0x40f86a00,-0x35c(%ebp)
    2861:	6a f8 40 
    2864:	c7 85 a8 fc ff ff 89 	movl   $0x32289,-0x358(%ebp)
    286b:	22 03 00 
    286e:	c7 85 ac fc ff ff 8c 	movl   $0x3228c,-0x354(%ebp)
    2875:	22 03 00 
    2878:	c7 85 b0 fc ff ff 00 	movl   $0x0,-0x350(%ebp)
    287f:	00 00 00 
    2882:	c7 85 b4 fc ff ff 9a 	movl   $0x9999999a,-0x34c(%ebp)
    2889:	99 99 99 
    288c:	c7 85 b8 fc ff ff 99 	movl   $0x3fb99999,-0x348(%ebp)
    2893:	99 b9 3f 
    2896:	c7 85 bc fc ff ff 99 	movl   $0x32299,-0x344(%ebp)
    289d:	22 03 00 
    28a0:	c7 85 c0 fc ff ff a2 	movl   $0x322a2,-0x340(%ebp)
    28a7:	22 03 00 
    28aa:	c7 85 c4 fc ff ff 00 	movl   $0x0,-0x33c(%ebp)
    28b1:	00 00 00 
    28b4:	c7 85 c8 fc ff ff 9a 	movl   $0x9999999a,-0x338(%ebp)
    28bb:	99 99 99 
    28be:	c7 85 cc fc ff ff 99 	movl   $0x3fb99999,-0x334(%ebp)
    28c5:	99 b9 3f 
    28c8:	c7 85 d0 fc ff ff ad 	movl   $0x322ad,-0x330(%ebp)
    28cf:	22 03 00 
    28d2:	c7 85 d4 fc ff ff a2 	movl   $0x322a2,-0x32c(%ebp)
    28d9:	22 03 00 
    28dc:	c7 85 d8 fc ff ff 00 	movl   $0x0,-0x328(%ebp)
    28e3:	00 00 00 
    28e6:	c7 85 dc fc ff ff 9a 	movl   $0x9999999a,-0x324(%ebp)
    28ed:	99 99 99 
    28f0:	c7 85 e0 fc ff ff 99 	movl   $0x3fb99999,-0x320(%ebp)
    28f7:	99 b9 3f 
    28fa:	c7 85 e4 fc ff ff b5 	movl   $0x322b5,-0x31c(%ebp)
    2901:	22 03 00 
    2904:	c7 85 e8 fc ff ff a2 	movl   $0x322a2,-0x318(%ebp)
    290b:	22 03 00 
    290e:	c7 85 ec fc ff ff 00 	movl   $0x0,-0x314(%ebp)
    2915:	00 00 00 
    2918:	c7 85 f0 fc ff ff 9a 	movl   $0x9999999a,-0x310(%ebp)
    291f:	99 99 99 
    2922:	c7 85 f4 fc ff ff 99 	movl   $0x3fb99999,-0x30c(%ebp)
    2929:	99 b9 3f 
    292c:	c7 85 f8 fc ff ff be 	movl   $0x322be,-0x308(%ebp)
    2933:	22 03 00 
    2936:	c7 85 fc fc ff ff c7 	movl   $0x322c7,-0x304(%ebp)
    293d:	22 03 00 
    2940:	c7 85 00 fd ff ff 00 	movl   $0x0,-0x300(%ebp)
    2947:	00 00 00 
    294a:	c7 85 04 fd ff ff 9a 	movl   $0x9999999a,-0x2fc(%ebp)
    2951:	99 99 99 
    2954:	c7 85 08 fd ff ff 99 	movl   $0x3fb99999,-0x2f8(%ebp)
    295b:	99 b9 3f 
    295e:	c7 85 0c fd ff ff d2 	movl   $0x322d2,-0x2f4(%ebp)
    2965:	22 03 00 
    2968:	c7 85 10 fd ff ff da 	movl   $0x322da,-0x2f0(%ebp)
    296f:	22 03 00 
    2972:	c7 85 14 fd ff ff 00 	movl   $0x0,-0x2ec(%ebp)
    2979:	00 00 00 
    297c:	c7 85 18 fd ff ff 9a 	movl   $0x9999999a,-0x2e8(%ebp)
    2983:	99 99 99 
    2986:	c7 85 1c fd ff ff 99 	movl   $0x3fb99999,-0x2e4(%ebp)
    298d:	99 b9 3f 
    2990:	c7 85 20 fd ff ff e5 	movl   $0x322e5,-0x2e0(%ebp)
    2997:	22 03 00 
    299a:	c7 85 24 fd ff ff ee 	movl   $0x322ee,-0x2dc(%ebp)
    29a1:	22 03 00 
    29a4:	c7 85 28 fd ff ff 00 	movl   $0x0,-0x2d8(%ebp)
    29ab:	00 00 00 
    29ae:	c7 85 2c fd ff ff 9a 	movl   $0x9999999a,-0x2d4(%ebp)
    29b5:	99 99 99 
    29b8:	c7 85 30 fd ff ff 99 	movl   $0x3fb99999,-0x2d0(%ebp)
    29bf:	99 b9 3f 
    29c2:	c7 85 34 fd ff ff f9 	movl   $0x322f9,-0x2cc(%ebp)
    29c9:	22 03 00 
    29cc:	c7 85 38 fd ff ff 02 	movl   $0x32302,-0x2c8(%ebp)
    29d3:	23 03 00 
    29d6:	c7 85 3c fd ff ff 00 	movl   $0x0,-0x2c4(%ebp)
    29dd:	00 00 00 
    29e0:	c7 85 40 fd ff ff 9a 	movl   $0x9999999a,-0x2c0(%ebp)
    29e7:	99 99 99 
    29ea:	c7 85 44 fd ff ff 99 	movl   $0x3fb99999,-0x2bc(%ebp)
    29f1:	99 b9 3f 
    29f4:	c7 85 48 fd ff ff 0d 	movl   $0x3230d,-0x2b8(%ebp)
    29fb:	23 03 00 
    29fe:	c7 85 4c fd ff ff 15 	movl   $0x32315,-0x2b4(%ebp)
    2a05:	23 03 00 
    2a08:	c7 85 50 fd ff ff 00 	movl   $0x0,-0x2b0(%ebp)
    2a0f:	00 00 00 
    2a12:	c7 85 54 fd ff ff 9a 	movl   $0x9999999a,-0x2ac(%ebp)
    2a19:	99 99 99 
    2a1c:	c7 85 58 fd ff ff 99 	movl   $0x3fb99999,-0x2a8(%ebp)
    2a23:	99 b9 3f 
    2a26:	c7 85 5c fd ff ff 20 	movl   $0x32320,-0x2a4(%ebp)
    2a2d:	23 03 00 
    2a30:	c7 85 60 fd ff ff 28 	movl   $0x32328,-0x2a0(%ebp)
    2a37:	23 03 00 
    2a3a:	c7 85 64 fd ff ff 00 	movl   $0x0,-0x29c(%ebp)
    2a41:	00 00 00 
    2a44:	c7 85 68 fd ff ff 9a 	movl   $0x9999999a,-0x298(%ebp)
    2a4b:	99 99 99 
    2a4e:	c7 85 6c fd ff ff 99 	movl   $0x3fb99999,-0x294(%ebp)
    2a55:	99 b9 3f 
    2a58:	c7 85 70 fd ff ff 33 	movl   $0x32333,-0x290(%ebp)
    2a5f:	23 03 00 
    2a62:	c7 85 74 fd ff ff 28 	movl   $0x32328,-0x28c(%ebp)
    2a69:	23 03 00 
    2a6c:	c7 85 78 fd ff ff 00 	movl   $0x0,-0x288(%ebp)
    2a73:	00 00 00 
    2a76:	c7 85 7c fd ff ff 62 	movl   $0x1936bf62,-0x284(%ebp)
    2a7d:	bf 36 19 
    2a80:	c7 85 80 fd ff ff 78 	movl   $0x45f5cf78,-0x280(%ebp)
    2a87:	cf f5 45 
    2a8a:	c7 85 84 fd ff ff 99 	movl   $0x32299,-0x27c(%ebp)
    2a91:	22 03 00 
    2a94:	c7 85 88 fd ff ff 3a 	movl   $0x3233a,-0x278(%ebp)
    2a9b:	23 03 00 
    2a9e:	c7 85 8c fd ff ff 00 	movl   $0x0,-0x274(%ebp)
    2aa5:	00 00 00 
    2aa8:	c7 85 90 fd ff ff 62 	movl   $0x1936bf62,-0x270(%ebp)
    2aaf:	bf 36 19 
    2ab2:	c7 85 94 fd ff ff 78 	movl   $0x45f5cf78,-0x26c(%ebp)
    2ab9:	cf f5 45 
    2abc:	c7 85 98 fd ff ff ad 	movl   $0x322ad,-0x268(%ebp)
    2ac3:	22 03 00 
    2ac6:	c7 85 9c fd ff ff 3a 	movl   $0x3233a,-0x264(%ebp)
    2acd:	23 03 00 
    2ad0:	c7 85 a0 fd ff ff 00 	movl   $0x0,-0x260(%ebp)
    2ad7:	00 00 00 
    2ada:	c7 85 a4 fd ff ff 62 	movl   $0x1936bf62,-0x25c(%ebp)
    2ae1:	bf 36 19 
    2ae4:	c7 85 a8 fd ff ff 78 	movl   $0x45f5cf78,-0x258(%ebp)
    2aeb:	cf f5 45 
    2aee:	c7 85 ac fd ff ff 45 	movl   $0x32345,-0x254(%ebp)
    2af5:	23 03 00 
    2af8:	c7 85 b0 fd ff ff 4e 	movl   $0x3234e,-0x250(%ebp)
    2aff:	23 03 00 
    2b02:	c7 85 b4 fd ff ff 00 	movl   $0x0,-0x24c(%ebp)
    2b09:	00 00 00 
    2b0c:	c7 85 b8 fd ff ff e6 	movl   $0x8b1bbde6,-0x248(%ebp)
    2b13:	bd 1b 8b 
    2b16:	c7 85 bc fd ff ff 51 	movl   $0x45f5e951,-0x244(%ebp)
    2b1d:	e9 f5 45 
    2b20:	c7 85 c0 fd ff ff 5a 	movl   $0x3235a,-0x240(%ebp)
    2b27:	23 03 00 
    2b2a:	c7 85 c4 fd ff ff 61 	movl   $0x32361,-0x23c(%ebp)
    2b31:	23 03 00 
    2b34:	c7 85 c8 fd ff ff 00 	movl   $0x0,-0x238(%ebp)
    2b3b:	00 00 00 
    2b3e:	c7 85 cc fd ff ff 00 	movl   $0x0,-0x234(%ebp)
    2b45:	00 00 00 
    2b48:	c7 85 d0 fd ff ff 00 	movl   $0x4060d000,-0x230(%ebp)
    2b4f:	d0 60 40 
    2b52:	c7 85 d4 fd ff ff d2 	movl   $0x322d2,-0x22c(%ebp)
    2b59:	22 03 00 
    2b5c:	c7 85 d8 fd ff ff 6d 	movl   $0x3236d,-0x228(%ebp)
    2b63:	23 03 00 
    2b66:	c7 85 dc fd ff ff 00 	movl   $0x0,-0x224(%ebp)
    2b6d:	00 00 00 
    2b70:	c7 85 e0 fd ff ff 00 	movl   $0x0,-0x220(%ebp)
    2b77:	00 00 00 
    2b7a:	c7 85 e4 fd ff ff 00 	movl   $0x408f3c00,-0x21c(%ebp)
    2b81:	3c 8f 40 
    2b84:	c7 85 e8 fd ff ff d2 	movl   $0x322d2,-0x218(%ebp)
    2b8b:	22 03 00 
    2b8e:	c7 85 ec fd ff ff 78 	movl   $0x32378,-0x214(%ebp)
    2b95:	23 03 00 
    2b98:	c7 85 f0 fd ff ff 00 	movl   $0x0,-0x210(%ebp)
    2b9f:	00 00 00 
    2ba2:	dd 95 58 fe ff ff    	fstl   -0x1a8(%ebp)
    2ba8:	d9 c9                	fxch   %st(1)
    2baa:	c7 85 f4 fd ff ff 43 	movl   $0xff79c843,-0x20c(%ebp)
    2bb1:	c8 79 ff 
    2bb4:	c7 85 f8 fd ff ff ff 	movl   $0xc08f3bff,-0x208(%ebp)
    2bbb:	3b 8f c0 
    2bbe:	dd 95 6c fe ff ff    	fstl   -0x194(%ebp)
    2bc4:	d9 c9                	fxch   %st(1)
    2bc6:	c7 85 fc fd ff ff 33 	movl   $0x32333,-0x204(%ebp)
    2bcd:	23 03 00 
    2bd0:	c7 85 00 fe ff ff 83 	movl   $0x32383,-0x200(%ebp)
    2bd7:	23 03 00 
    2bda:	c7 85 04 fe ff ff 00 	movl   $0x0,-0x1fc(%ebp)
    2be1:	00 00 00 
    2be4:	c7 85 08 fe ff ff 43 	movl   $0xff79c843,-0x1f8(%ebp)
    2beb:	c8 79 ff 
    2bee:	c7 85 0c fe ff ff ff 	movl   $0xc08f3bff,-0x1f4(%ebp)
    2bf5:	3b 8f c0 
    2bf8:	c7 85 10 fe ff ff 8e 	movl   $0x3238e,-0x1f0(%ebp)
    2bff:	23 03 00 
    2c02:	c7 85 14 fe ff ff 95 	movl   $0x32395,-0x1ec(%ebp)
    2c09:	23 03 00 
    2c0c:	c7 85 18 fe ff ff 00 	movl   $0x0,-0x1e8(%ebp)
    2c13:	00 00 00 
    2c16:	c7 85 1c fe ff ff 43 	movl   $0xff79c843,-0x1e4(%ebp)
    2c1d:	c8 79 ff 
    2c20:	c7 85 20 fe ff ff ff 	movl   $0xc08f3bff,-0x1e0(%ebp)
    2c27:	3b 8f c0 
    2c2a:	c7 85 24 fe ff ff a0 	movl   $0x323a0,-0x1dc(%ebp)
    2c31:	23 03 00 
    2c34:	c7 85 28 fe ff ff a8 	movl   $0x323a8,-0x1d8(%ebp)
    2c3b:	23 03 00 
    2c3e:	c7 85 2c fe ff ff 00 	movl   $0x0,-0x1d4(%ebp)
    2c45:	00 00 00 
    2c48:	c7 85 30 fe ff ff 25 	movl   $0xea289b25,-0x1d0(%ebp)
    2c4f:	9b 28 ea 
    2c52:	c7 85 34 fe ff ff f3 	movl   $0xefe971f3,-0x1cc(%ebp)
    2c59:	71 e9 ef 
    2c5c:	c7 85 38 fe ff ff b3 	movl   $0x323b3,-0x1c8(%ebp)
    2c63:	23 03 00 
    2c66:	c7 85 3c fe ff ff bc 	movl   $0x323bc,-0x1c4(%ebp)
    2c6d:	23 03 00 
    2c70:	c7 85 40 fe ff ff 00 	movl   $0x0,-0x1c0(%ebp)
    2c77:	00 00 00 
    2c7a:	c7 85 44 fe ff ff 10 	movl   $0xea858f10,-0x1bc(%ebp)
    2c81:	8f 85 ea 
    2c84:	c7 85 48 fe ff ff f3 	movl   $0xefe971f3,-0x1b8(%ebp)
    2c8b:	71 e9 ef 
    2c8e:	c7 85 4c fe ff ff b3 	movl   $0x323b3,-0x1b4(%ebp)
    2c95:	23 03 00 
    2c98:	c7 85 50 fe ff ff cf 	movl   $0x323cf,-0x1b0(%ebp)
    2c9f:	23 03 00 
    2ca2:	c7 85 54 fe ff ff 00 	movl   $0x0,-0x1ac(%ebp)
    2ca9:	00 00 00 
    2cac:	c7 85 60 fe ff ff e2 	movl   $0x323e2,-0x1a0(%ebp)
    2cb3:	23 03 00 
    2cb6:	c7 85 64 fe ff ff e9 	movl   $0x323e9,-0x19c(%ebp)
    2cbd:	23 03 00 
    2cc0:	c7 85 68 fe ff ff 00 	movl   $0x0,-0x198(%ebp)
    2cc7:	00 00 00 
    2cca:	c7 85 74 fe ff ff 33 	movl   $0x32333,-0x18c(%ebp)
    2cd1:	23 03 00 
    2cd4:	c7 85 78 fe ff ff f4 	movl   $0x323f4,-0x188(%ebp)
    2cdb:	23 03 00 
    2cde:	c7 85 7c fe ff ff 00 	movl   $0x0,-0x184(%ebp)
    2ce5:	00 00 00 
    2ce8:	c7 85 88 fe ff ff ff 	movl   $0x323ff,-0x178(%ebp)
    2cef:	23 03 00 
    2cf2:	dd 9d 80 fe ff ff    	fstpl  -0x180(%ebp)
    2cf8:	c7 85 8c fe ff ff 06 	movl   $0x32406,-0x174(%ebp)
    2cff:	24 03 00 
    2d02:	c7 85 90 fe ff ff 00 	movl   $0x0,-0x170(%ebp)
    2d09:	00 00 00 
    2d0c:	dd 9d 94 fe ff ff    	fstpl  -0x16c(%ebp)
    2d12:	c7 85 9c fe ff ff 11 	movl   $0x32411,-0x164(%ebp)
    2d19:	24 03 00 
    2d1c:	c7 85 a0 fe ff ff 18 	movl   $0x32418,-0x160(%ebp)
    2d23:	24 03 00 
    2d26:	c7 85 a4 fe ff ff 00 	movl   $0x0,-0x15c(%ebp)
    2d2d:	00 00 00 
    2d30:	c7 85 a8 fe ff ff 9a 	movl   $0x9999999a,-0x158(%ebp)
    2d37:	99 99 99 
    2d3a:	c7 85 ac fe ff ff 99 	movl   $0x3fb99999,-0x154(%ebp)
    2d41:	99 b9 3f 
    2d44:	c7 85 b0 fe ff ff 23 	movl   $0x32423,-0x150(%ebp)
    2d4b:	24 03 00 
    2d4e:	c7 85 b4 fe ff ff 2c 	movl   $0x3242c,-0x14c(%ebp)
    2d55:	24 03 00 
    2d58:	c7 85 b8 fe ff ff 00 	movl   $0x0,-0x148(%ebp)
    2d5f:	00 00 00 
    2d62:	c7 85 bc fe ff ff 9a 	movl   $0x9999999a,-0x144(%ebp)
    2d69:	99 99 99 
    2d6c:	c7 85 c0 fe ff ff 99 	movl   $0x3fb99999,-0x140(%ebp)
    2d73:	99 b9 3f 
    2d76:	c7 85 c4 fe ff ff 37 	movl   $0x32437,-0x13c(%ebp)
    2d7d:	24 03 00 
    2d80:	c7 85 c8 fe ff ff 41 	movl   $0x32441,-0x138(%ebp)
    2d87:	24 03 00 
    2d8a:	c7 85 cc fe ff ff 00 	movl   $0x0,-0x134(%ebp)
    2d91:	00 00 00 
    2d94:	c7 85 d0 fe ff ff 9a 	movl   $0x9999999a,-0x130(%ebp)
    2d9b:	99 99 99 
    2d9e:	c7 85 d4 fe ff ff 99 	movl   $0x3fb99999,-0x12c(%ebp)
    2da5:	99 b9 3f 
    2da8:	c7 85 d8 fe ff ff 23 	movl   $0x32423,-0x128(%ebp)
    2daf:	24 03 00 
    2db2:	c7 85 dc fe ff ff 2c 	movl   $0x3242c,-0x124(%ebp)
    2db9:	24 03 00 
    2dbc:	c7 85 e0 fe ff ff 00 	movl   $0x0,-0x120(%ebp)
    2dc3:	00 00 00 
    2dc6:	c7 85 e4 fe ff ff 9a 	movl   $0x9999999a,-0x11c(%ebp)
    2dcd:	99 99 99 
    2dd0:	c7 85 e8 fe ff ff 99 	movl   $0x3fb99999,-0x118(%ebp)
    2dd7:	99 b9 3f 
    2dda:	c7 85 ec fe ff ff 4c 	movl   $0x3244c,-0x114(%ebp)
    2de1:	24 03 00 
    2de4:	c7 85 f0 fe ff ff 53 	movl   $0x32453,-0x110(%ebp)
    2deb:	24 03 00 
    2dee:	c7 85 f4 fe ff ff 00 	movl   $0x0,-0x10c(%ebp)
    2df5:	00 00 00 
    2df8:	c7 85 f8 fe ff ff 00 	movl   $0x0,-0x108(%ebp)
    2dff:	00 00 00 
    2e02:	c7 85 fc fe ff ff 00 	movl   $0x80000000,-0x104(%ebp)
    2e09:	00 00 80 
    2e0c:	c7 85 00 ff ff ff 5e 	movl   $0x3245e,-0x100(%ebp)
    2e13:	24 03 00 
    2e16:	c7 85 04 ff ff ff 65 	movl   $0x32465,-0xfc(%ebp)
    2e1d:	24 03 00 
    2e20:	c7 85 08 ff ff ff 00 	movl   $0x0,-0xf8(%ebp)
    2e27:	00 00 00 
    2e2a:	c7 85 0c ff ff ff f2 	movl   $0x624dd2f2,-0xf4(%ebp)
    2e31:	d2 4d 62 
    2e34:	c7 85 10 ff ff ff 10 	movl   $0xbfb95810,-0xf0(%ebp)
    2e3b:	58 b9 bf 
    2e3e:	c7 85 14 ff ff ff 70 	movl   $0x32470,-0xec(%ebp)
    2e45:	24 03 00 
    2e48:	c7 85 18 ff ff ff 78 	movl   $0x32478,-0xe8(%ebp)
    2e4f:	24 03 00 
    2e52:	c7 85 1c ff ff ff 00 	movl   $0x0,-0xe4(%ebp)
    2e59:	00 00 00 
    2e5c:	c7 85 20 ff ff ff 46 	movl   $0xfdf3b646,-0xe0(%ebp)
    2e63:	b6 f3 fd 
    2e66:	c7 85 24 ff ff ff d4 	movl   $0xbfb978d4,-0xdc(%ebp)
    2e6d:	78 b9 bf 
    2e70:	c7 85 28 ff ff ff 70 	movl   $0x32470,-0xd8(%ebp)
    2e77:	24 03 00 
    2e7a:	c7 85 2c ff ff ff 83 	movl   $0x32483,-0xd4(%ebp)
    2e81:	24 03 00 
    2e84:	c7 85 30 ff ff ff 00 	movl   $0x0,-0xd0(%ebp)
    2e8b:	00 00 00 
    2e8e:	c7 85 34 ff ff ff 35 	movl   $0x4538ef35,-0xcc(%ebp)
    2e95:	ef 38 45 
    2e98:	c7 85 38 ff ff ff 47 	movl   $0xbfb97247,-0xc8(%ebp)
    2e9f:	72 b9 bf 
    2ea2:	c7 85 3c ff ff ff 70 	movl   $0x32470,-0xc4(%ebp)
    2ea9:	24 03 00 
    2eac:	c7 85 40 ff ff ff 78 	movl   $0x32478,-0xc0(%ebp)
    2eb3:	24 03 00 
    2eb6:	c7 85 44 ff ff ff 00 	movl   $0x0,-0xbc(%ebp)
    2ebd:	00 00 00 
    2ec0:	c7 85 48 ff ff ff 48 	movl   $0x147ae148,-0xb8(%ebp)
    2ec7:	e1 7a 14 
    2eca:	c7 85 4c ff ff ff ae 	movl   $0xc058ffae,-0xb4(%ebp)
    2ed1:	ff 58 c0 
    2ed4:	c7 85 50 ff ff ff 8e 	movl   $0x3248e,-0xb0(%ebp)
    2edb:	24 03 00 
    2ede:	c7 85 54 ff ff ff 96 	movl   $0x32496,-0xac(%ebp)
    2ee5:	24 03 00 
    2ee8:	c7 85 58 ff ff ff 00 	movl   $0x0,-0xa8(%ebp)
    2eef:	00 00 00 
    2ef2:	c7 85 5c ff ff ff 00 	movl   $0x0,-0xa4(%ebp)
    2ef9:	00 00 00 
    2efc:	c7 85 60 ff ff ff 00 	movl   $0x400c0000,-0xa0(%ebp)
    2f03:	00 0c 40 
    2f06:	c7 85 64 ff ff ff a1 	movl   $0x324a1,-0x9c(%ebp)
    2f0d:	24 03 00 
    2f10:	c7 85 68 ff ff ff 58 	movl   $0x32158,-0x98(%ebp)
    2f17:	21 03 00 
    2f1a:	c7 85 6c ff ff ff 00 	movl   $0x0,-0x94(%ebp)
    2f21:	00 00 00 
    2f24:	c7 85 70 ff ff ff 00 	movl   $0x0,-0x90(%ebp)
    2f2b:	00 00 00 
    2f2e:	c7 85 74 ff ff ff 00 	movl   $0x400c0000,-0x8c(%ebp)
    2f35:	00 0c 40 
    2f38:	c7 85 78 ff ff ff 8e 	movl   $0x3248e,-0x88(%ebp)
    2f3f:	24 03 00 
    2f42:	c7 85 7c ff ff ff aa 	movl   $0x324aa,-0x84(%ebp)
    2f49:	24 03 00 
    2f4c:	c7 45 80 00 00 00 00 	movl   $0x0,-0x80(%ebp)
    2f53:	c7 45 84 9a 99 99 99 	movl   $0x9999999a,-0x7c(%ebp)
    2f5a:	c7 45 88 99 99 b9 3f 	movl   $0x3fb99999,-0x78(%ebp)
    2f61:	c7 45 8c b5 24 03 00 	movl   $0x324b5,-0x74(%ebp)
    2f68:	c7 45 90 bd 24 03 00 	movl   $0x324bd,-0x70(%ebp)
    2f6f:	c7 45 94 00 00 00 00 	movl   $0x0,-0x6c(%ebp)
    2f76:	c7 45 98 9a 99 99 99 	movl   $0x9999999a,-0x68(%ebp)
    2f7d:	c7 45 9c 99 99 b9 3f 	movl   $0x3fb99999,-0x64(%ebp)
    2f84:	c7 45 a0 c8 24 03 00 	movl   $0x324c8,-0x60(%ebp)
    2f8b:	c7 45 a4 d1 24 03 00 	movl   $0x324d1,-0x5c(%ebp)
    2f92:	c7 45 a8 00 00 00 00 	movl   $0x0,-0x58(%ebp)
    2f99:	c7 45 ac 99 99 99 99 	movl   $0x99999999,-0x54(%ebp)
    2fa0:	c7 45 b0 99 99 b9 3f 	movl   $0x3fb99999,-0x50(%ebp)
    2fa7:	c7 45 b4 c8 24 03 00 	movl   $0x324c8,-0x4c(%ebp)
    2fae:	c7 45 b8 e9 24 03 00 	movl   $0x324e9,-0x48(%ebp)
    2fb5:	c7 45 bc 00 00 00 00 	movl   $0x0,-0x44(%ebp)
    2fbc:	c7 45 c0 99 99 99 99 	movl   $0x99999999,-0x40(%ebp)
    2fc3:	c7 45 c4 99 99 b9 3f 	movl   $0x3fb99999,-0x3c(%ebp)
    2fca:	c7 45 c8 01 25 03 00 	movl   $0x32501,-0x38(%ebp)
    2fd1:	c7 45 cc bd 24 03 00 	movl   $0x324bd,-0x34(%ebp)
    2fd8:	c7 45 d0 00 00 00 00 	movl   $0x0,-0x30(%ebp)
    2fdf:	c7 45 d4 92 99 99 99 	movl   $0x99999992,-0x2c(%ebp)
    2fe6:	c7 45 d8 99 99 b9 3f 	movl   $0x3fb99999,-0x28(%ebp)
    2fed:	c7 45 dc 07 25 03 00 	movl   $0x32507,-0x24(%ebp)
    2ff4:	c7 45 e0 0f 25 03 00 	movl   $0x3250f,-0x20(%ebp)
    2ffb:	c7 45 e4 00 00 00 00 	movl   $0x0,-0x1c(%ebp)
    3002:	0f 85 cb 01 00 00    	jne    31d3 <test_print6+0xe13>
    3008:	f7 c7 02 00 00 00    	test   $0x2,%edi
    300e:	0f 85 a2 01 00 00    	jne    31b6 <test_print6+0xdf6>
    3014:	89 d1                	mov    %edx,%ecx
    3016:	31 c0                	xor    %eax,%eax
    3018:	c1 e9 02             	shr    $0x2,%ecx
    301b:	f3 ab                	rep stos %eax,%es:(%edi)
    301d:	f6 c2 02             	test   $0x2,%dl
    3020:	74 08                	je     302a <test_print6+0xc6a>
    3022:	66 c7 07 00 00       	movw   $0x0,(%edi)
    3027:	83 c7 02             	add    $0x2,%edi
    302a:	83 e2 01             	and    $0x1,%edx
    302d:	74 03                	je     3032 <test_print6+0xc72>
    302f:	c6 07 00             	movb   $0x0,(%edi)
    3032:	80 3d a0 69 03 00 00 	cmpb   $0x0,0x369a0
    3039:	0f 84 5d 01 00 00    	je     319c <test_print6+0xddc>
    303f:	8d 45 e8             	lea    -0x18(%ebp),%eax
    3042:	8d b5 d4 fa ff ff    	lea    -0x52c(%ebp),%esi
    3048:	89 85 c4 f9 ff ff    	mov    %eax,-0x63c(%ebp)
    304e:	c7 85 bc f9 ff ff 00 	movl   $0x0,-0x644(%ebp)
    3055:	00 00 00 
    3058:	eb 22                	jmp    307c <test_print6+0xcbc>
    305a:	8d b6 00 00 00 00    	lea    0x0(%esi),%esi
    3060:	80 3d a0 69 03 00 00 	cmpb   $0x0,0x369a0
    3067:	0f 84 03 01 00 00    	je     3170 <test_print6+0xdb0>
    306d:	83 c6 14             	add    $0x14,%esi
    3070:	3b b5 c4 f9 ff ff    	cmp    -0x63c(%ebp),%esi
    3076:	0f 84 8c 00 00 00    	je     3108 <test_print6+0xd48>
    307c:	dd 06                	fldl   (%esi)
    307e:	8b 7e 08             	mov    0x8(%esi),%edi
    3081:	c7 44 24 04 00 01 00 	movl   $0x100,0x4(%esp)
    3088:	00 
    3089:	dd 5c 24 0c          	fstpl  0xc(%esp)
    308d:	89 7c 24 08          	mov    %edi,0x8(%esp)
    3091:	89 1c 24             	mov    %ebx,(%esp)
    3094:	e8 a7 b4 01 00       	call   1e540 <snprintf>
    3099:	8b 46 0c             	mov    0xc(%esi),%eax
    309c:	89 44 24 04          	mov    %eax,0x4(%esp)
    30a0:	89 1c 24             	mov    %ebx,(%esp)
    30a3:	89 85 c0 f9 ff ff    	mov    %eax,-0x640(%ebp)
    30a9:	e8 c2 3d 01 00       	call   16e70 <str_cmp>
    30ae:	85 c0                	test   %eax,%eax
    30b0:	74 ae                	je     3060 <test_print6+0xca0>
    30b2:	8b 46 10             	mov    0x10(%esi),%eax
    30b5:	85 c0                	test   %eax,%eax
    30b7:	74 6f                	je     3128 <test_print6+0xd68>
    30b9:	89 44 24 04          	mov    %eax,0x4(%esp)
    30bd:	89 1c 24             	mov    %ebx,(%esp)
    30c0:	e8 ab 3d 01 00       	call   16e70 <str_cmp>
    30c5:	85 c0                	test   %eax,%eax
    30c7:	75 5f                	jne    3128 <test_print6+0xd68>
    30c9:	80 3d a0 69 03 00 00 	cmpb   $0x0,0x369a0
    30d0:	75 9b                	jne    306d <test_print6+0xcad>
    30d2:	8b 85 c0 f9 ff ff    	mov    -0x640(%ebp),%eax
    30d8:	89 5c 24 0c          	mov    %ebx,0xc(%esp)
    30dc:	89 44 24 10          	mov    %eax,0x10(%esp)
    30e0:	a1 38 6a 03 00       	mov    0x36a38,%eax
    30e5:	89 7c 24 08          	mov    %edi,0x8(%esp)
    30e9:	c7 44 24 04 3c 25 03 	movl   $0x3253c,0x4(%esp)
    30f0:	00 
    30f1:	89 04 24             	mov    %eax,(%esp)
    30f4:	83 c6 14             	add    $0x14,%esi
    30f7:	e8 a4 ac 01 00       	call   1dda0 <fprintf>
    30fc:	3b b5 c4 f9 ff ff    	cmp    -0x63c(%ebp),%esi
    3102:	0f 85 74 ff ff ff    	jne    307c <test_print6+0xcbc>
    3108:	8b 85 bc f9 ff ff    	mov    -0x644(%ebp),%eax
    310e:	85 c0                	test   %eax,%eax
    3110:	0f 84 b0 00 00 00    	je     31c6 <test_print6+0xe06>
    3116:	81 c4 5c 06 00 00    	add    $0x65c,%esp
    311c:	b8 28 21 03 00       	mov    $0x32128,%eax
    3121:	5b                   	pop    %ebx
    3122:	5e                   	pop    %esi
    3123:	5f                   	pop    %edi
    3124:	5d                   	pop    %ebp
    3125:	c3                   	ret    
    3126:	66 90                	xchg   %ax,%ax
    3128:	8b 95 bc f9 ff ff    	mov    -0x644(%ebp),%edx
    312e:	42                   	inc    %edx
    312f:	89 95 bc f9 ff ff    	mov    %edx,-0x644(%ebp)
    3135:	80 3d a0 69 03 00 00 	cmpb   $0x0,0x369a0
    313c:	0f 85 2b ff ff ff    	jne    306d <test_print6+0xcad>
    3142:	8b 85 c0 f9 ff ff    	mov    -0x640(%ebp),%eax
    3148:	89 5c 24 0c          	mov    %ebx,0xc(%esp)
    314c:	89 44 24 10          	mov    %eax,0x10(%esp)
    3150:	a1 38 6a 03 00       	mov    0x36a38,%eax
    3155:	89 7c 24 08          	mov    %edi,0x8(%esp)
    3159:	c7 44 24 04 53 25 03 	movl   $0x32553,0x4(%esp)
    3160:	00 
    3161:	89 04 24             	mov    %eax,(%esp)
    3164:	e8 37 ac 01 00       	call   1dda0 <fprintf>
    3169:	e9 ff fe ff ff       	jmp    306d <test_print6+0xcad>
    316e:	66 90                	xchg   %ax,%ax
    3170:	8b 85 c0 f9 ff ff    	mov    -0x640(%ebp),%eax
    3176:	89 5c 24 0c          	mov    %ebx,0xc(%esp)
    317a:	89 44 24 10          	mov    %eax,0x10(%esp)
    317e:	a1 38 6a 03 00       	mov    0x36a38,%eax
    3183:	89 7c 24 08          	mov    %edi,0x8(%esp)
    3187:	c7 44 24 04 26 25 03 	movl   $0x32526,0x4(%esp)
    318e:	00 
    318f:	89 04 24             	mov    %eax,(%esp)
    3192:	e8 09 ac 01 00       	call   1dda0 <fprintf>
    3197:	e9 d1 fe ff ff       	jmp    306d <test_print6+0xcad>
    319c:	a1 38 6a 03 00       	mov    0x36a38,%eax
    31a1:	c7 44 24 04 7c 21 03 	movl   $0x3217c,0x4(%esp)
    31a8:	00 
    31a9:	89 04 24             	mov    %eax,(%esp)
    31ac:	e8 ef ab 01 00       	call   1dda0 <fprintf>
    31b1:	e9 89 fe ff ff       	jmp    303f <test_print6+0xc7f>
    31b6:	66 c7 07 00 00       	movw   $0x0,(%edi)
    31bb:	83 ea 02             	sub    $0x2,%edx
    31be:	83 c7 02             	add    $0x2,%edi
    31c1:	e9 4e fe ff ff       	jmp    3014 <test_print6+0xc54>
    31c6:	81 c4 5c 06 00 00    	add    $0x65c,%esp
    31cc:	31 c0                	xor    %eax,%eax
    31ce:	5b                   	pop    %ebx
    31cf:	5e                   	pop    %esi
    31d0:	5f                   	pop    %edi
    31d1:	5d                   	pop    %ebp
    31d2:	c3                   	ret    
    31d3:	c6 85 d3 f9 ff ff 00 	movb   $0x0,-0x62d(%ebp)
    31da:	8d bd d4 f9 ff ff    	lea    -0x62c(%ebp),%edi
    31e0:	30 d2                	xor    %dl,%dl
    31e2:	e9 21 fe ff ff       	jmp    3008 <test_print6+0xc48>
    31e7:	66 90                	xchg   %ax,%ax
    31e9:	66 90                	xchg   %ax,%ax
    31eb:	66 90                	xchg   %ax,%ax
    31ed:	66 90                	xchg   %ax,%ax
    31ef:	90                   	nop

000031f0 <test_console1>:
    31f0:	80 3d a0 69 03 00 00 	cmpb   $0x0,0x369a0
    31f7:	74 07                	je     3200 <test_console1+0x10>
    31f9:	31 c0                	xor    %eax,%eax
    31fb:	c3                   	ret    
    31fc:	8d 74 26 00          	lea    0x0(%esi,%eiz,1),%esi
    3200:	55                   	push   %ebp
    3201:	89 e5                	mov    %esp,%ebp
    3203:	53                   	push   %ebx
    3204:	83 ec 14             	sub    $0x14,%esp
    3207:	a1 3c 6a 03 00       	mov    0x36a3c,%eax
    320c:	89 44 24 04          	mov    %eax,0x4(%esp)
    3210:	a1 40 6a 03 00       	mov    0x36a40,%eax
    3215:	89 04 24             	mov    %eax,(%esp)
    3218:	e8 93 dc 01 00       	call   20eb0 <console_init>
    321d:	c7 04 24 7c 25 03 00 	movl   $0x3257c,(%esp)
    3224:	89 c3                	mov    %eax,%ebx
    3226:	e8 a5 ab 01 00       	call   1ddd0 <printf>
    322b:	89 1c 24             	mov    %ebx,(%esp)
    322e:	e8 5d dd 01 00       	call   20f90 <console_flush>
    3233:	89 1c 24             	mov    %ebx,(%esp)
    3236:	c7 44 24 04 00 00 00 	movl   $0x0,0x4(%esp)
    323d:	00 
    323e:	e8 7d de 01 00       	call   210c0 <console_set_style>
    3243:	c7 04 24 89 25 03 00 	movl   $0x32589,(%esp)
    324a:	e8 81 ab 01 00       	call   1ddd0 <printf>
    324f:	89 1c 24             	mov    %ebx,(%esp)
    3252:	e8 39 dd 01 00       	call   20f90 <console_flush>
    3257:	89 1c 24             	mov    %ebx,(%esp)
    325a:	c7 44 24 04 01 00 00 	movl   $0x1,0x4(%esp)
    3261:	00 
    3262:	e8 59 de 01 00       	call   210c0 <console_set_style>
    3267:	c7 04 24 92 25 03 00 	movl   $0x32592,(%esp)
    326e:	e8 5d ab 01 00       	call   1ddd0 <printf>
    3273:	89 1c 24             	mov    %ebx,(%esp)
    3276:	e8 15 dd 01 00       	call   20f90 <console_flush>
    327b:	89 1c 24             	mov    %ebx,(%esp)
    327e:	c7 44 24 04 02 00 00 	movl   $0x2,0x4(%esp)
    3285:	00 
    3286:	e8 35 de 01 00       	call   210c0 <console_set_style>
    328b:	c7 04 24 9f 25 03 00 	movl   $0x3259f,(%esp)
    3292:	e8 39 ab 01 00       	call   1ddd0 <printf>
    3297:	89 1c 24             	mov    %ebx,(%esp)
    329a:	e8 f1 dc 01 00       	call   20f90 <console_flush>
    329f:	89 1c 24             	mov    %ebx,(%esp)
    32a2:	c7 44 24 04 03 00 00 	movl   $0x3,0x4(%esp)
    32a9:	00 
    32aa:	e8 11 de 01 00       	call   210c0 <console_set_style>
    32af:	c7 04 24 aa 25 03 00 	movl   $0x325aa,(%esp)
    32b6:	e8 15 ab 01 00       	call   1ddd0 <printf>
    32bb:	89 1c 24             	mov    %ebx,(%esp)
    32be:	e8 cd dc 01 00       	call   20f90 <console_flush>
    32c3:	89 1c 24             	mov    %ebx,(%esp)
    32c6:	c7 44 24 04 00 00 00 	movl   $0x0,0x4(%esp)
    32cd:	00 
    32ce:	e8 ed dd 01 00       	call   210c0 <console_set_style>
    32d3:	c7 04 24 6b 20 03 00 	movl   $0x3206b,(%esp)
    32da:	e8 f1 aa 01 00       	call   1ddd0 <printf>
    32df:	c7 04 24 b5 25 03 00 	movl   $0x325b5,(%esp)
    32e6:	e8 e5 aa 01 00       	call   1ddd0 <printf>
    32eb:	89 1c 24             	mov    %ebx,(%esp)
    32ee:	e8 9d dc 01 00       	call   20f90 <console_flush>
    32f3:	89 1c 24             	mov    %ebx,(%esp)
    32f6:	c7 44 24 0c 00 00 00 	movl   $0x0,0xc(%esp)
    32fd:	00 
    32fe:	c7 44 24 08 00 00 00 	movl   $0x0,0x8(%esp)
    3305:	00 
    3306:	c7 44 24 04 07 00 00 	movl   $0x7,0x4(%esp)
    330d:	00 
    330e:	e8 3d de 01 00       	call   21150 <console_set_color>
    3313:	c7 44 24 04 ce 25 03 	movl   $0x325ce,0x4(%esp)
    331a:	00 
    331b:	c7 04 24 d4 25 03 00 	movl   $0x325d4,(%esp)
    3322:	e8 a9 aa 01 00       	call   1ddd0 <printf>
    3327:	89 1c 24             	mov    %ebx,(%esp)
    332a:	e8 61 dc 01 00       	call   20f90 <console_flush>
    332f:	89 1c 24             	mov    %ebx,(%esp)
    3332:	c7 44 24 0c 00 00 00 	movl   $0x0,0xc(%esp)
    3339:	00 
    333a:	c7 44 24 08 01 00 00 	movl   $0x1,0x8(%esp)
    3341:	00 
    3342:	c7 44 24 04 07 00 00 	movl   $0x7,0x4(%esp)
    3349:	00 
    334a:	e8 01 de 01 00       	call   21150 <console_set_color>
    334f:	c7 44 24 04 d9 25 03 	movl   $0x325d9,0x4(%esp)
    3356:	00 
    3357:	c7 04 24 d4 25 03 00 	movl   $0x325d4,(%esp)
    335e:	e8 6d aa 01 00       	call   1ddd0 <printf>
    3363:	89 1c 24             	mov    %ebx,(%esp)
    3366:	e8 25 dc 01 00       	call   20f90 <console_flush>
    336b:	89 1c 24             	mov    %ebx,(%esp)
    336e:	c7 44 24 0c 00 00 00 	movl   $0x0,0xc(%esp)
    3375:	00 
    3376:	c7 44 24 08 02 00 00 	movl   $0x2,0x8(%esp)
    337d:	00 
    337e:	c7 44 24 04 07 00 00 	movl   $0x7,0x4(%esp)
    3385:	00 
    3386:	e8 c5 dd 01 00       	call   21150 <console_set_color>
    338b:	c7 44 24 04 de 25 03 	movl   $0x325de,0x4(%esp)
    3392:	00 
    3393:	c7 04 24 d4 25 03 00 	movl   $0x325d4,(%esp)
    339a:	e8 31 aa 01 00       	call   1ddd0 <printf>
    339f:	89 1c 24             	mov    %ebx,(%esp)
    33a2:	e8 e9 db 01 00       	call   20f90 <console_flush>
    33a7:	89 1c 24             	mov    %ebx,(%esp)
    33aa:	c7 44 24 0c 00 00 00 	movl   $0x0,0xc(%esp)
    33b1:	00 
    33b2:	c7 44 24 08 03 00 00 	movl   $0x3,0x8(%esp)
    33b9:	00 
    33ba:	c7 44 24 04 07 00 00 	movl   $0x7,0x4(%esp)
    33c1:	00 
    33c2:	e8 89 dd 01 00       	call   21150 <console_set_color>
    33c7:	c7 44 24 04 e4 25 03 	movl   $0x325e4,0x4(%esp)
    33ce:	00 
    33cf:	c7 04 24 d4 25 03 00 	movl   $0x325d4,(%esp)
    33d6:	e8 f5 a9 01 00       	call   1ddd0 <printf>
    33db:	89 1c 24             	mov    %ebx,(%esp)
    33de:	e8 ad db 01 00       	call   20f90 <console_flush>
    33e3:	89 1c 24             	mov    %ebx,(%esp)
    33e6:	c7 44 24 0c 00 00 00 	movl   $0x0,0xc(%esp)
    33ed:	00 
    33ee:	c7 44 24 08 04 00 00 	movl   $0x4,0x8(%esp)
    33f5:	00 
    33f6:	c7 44 24 04 07 00 00 	movl   $0x7,0x4(%esp)
    33fd:	00 
    33fe:	e8 4d dd 01 00       	call   21150 <console_set_color>
    3403:	c7 44 24 04 1a 39 03 	movl   $0x3391a,0x4(%esp)
    340a:	00 
    340b:	c7 04 24 d4 25 03 00 	movl   $0x325d4,(%esp)
    3412:	e8 b9 a9 01 00       	call   1ddd0 <printf>
    3417:	89 1c 24             	mov    %ebx,(%esp)
    341a:	e8 71 db 01 00       	call   20f90 <console_flush>
    341f:	89 1c 24             	mov    %ebx,(%esp)
    3422:	c7 44 24 0c 00 00 00 	movl   $0x0,0xc(%esp)
    3429:	00 
    342a:	c7 44 24 08 05 00 00 	movl   $0x5,0x8(%esp)
    3431:	00 
    3432:	c7 44 24 04 07 00 00 	movl   $0x7,0x4(%esp)
    3439:	00 
    343a:	e8 11 dd 01 00       	call   21150 <console_set_color>
    343f:	c7 44 24 04 e9 25 03 	movl   $0x325e9,0x4(%esp)
    3446:	00 
    3447:	c7 04 24 d4 25 03 00 	movl   $0x325d4,(%esp)
    344e:	e8 7d a9 01 00       	call   1ddd0 <printf>
    3453:	89 1c 24             	mov    %ebx,(%esp)
    3456:	e8 35 db 01 00       	call   20f90 <console_flush>
    345b:	89 1c 24             	mov    %ebx,(%esp)
    345e:	c7 44 24 0c 00 00 00 	movl   $0x0,0xc(%esp)
    3465:	00 
    3466:	c7 44 24 08 06 00 00 	movl   $0x6,0x8(%esp)
    346d:	00 
    346e:	c7 44 24 04 07 00 00 	movl   $0x7,0x4(%esp)
    3475:	00 
    3476:	e8 d5 dc 01 00       	call   21150 <console_set_color>
    347b:	c7 44 24 04 f1 25 03 	movl   $0x325f1,0x4(%esp)
    3482:	00 
    3483:	c7 04 24 d4 25 03 00 	movl   $0x325d4,(%esp)
    348a:	e8 41 a9 01 00       	call   1ddd0 <printf>
    348f:	89 1c 24             	mov    %ebx,(%esp)
    3492:	e8 f9 da 01 00       	call   20f90 <console_flush>
    3497:	89 1c 24             	mov    %ebx,(%esp)
    349a:	c7 44 24 0c 00 00 00 	movl   $0x0,0xc(%esp)
    34a1:	00 
    34a2:	c7 44 24 08 07 00 00 	movl   $0x7,0x8(%esp)
    34a9:	00 
    34aa:	c7 44 24 04 07 00 00 	movl   $0x7,0x4(%esp)
    34b1:	00 
    34b2:	e8 99 dc 01 00       	call   21150 <console_set_color>
    34b7:	c7 44 24 04 f8 25 03 	movl   $0x325f8,0x4(%esp)
    34be:	00 
    34bf:	c7 04 24 d4 25 03 00 	movl   $0x325d4,(%esp)
    34c6:	e8 05 a9 01 00       	call   1ddd0 <printf>
    34cb:	89 1c 24             	mov    %ebx,(%esp)
    34ce:	e8 bd da 01 00       	call   20f90 <console_flush>
    34d3:	89 1c 24             	mov    %ebx,(%esp)
    34d6:	c7 44 24 04 00 00 00 	movl   $0x0,0x4(%esp)
    34dd:	00 
    34de:	e8 dd db 01 00       	call   210c0 <console_set_style>
    34e3:	c7 04 24 0a 00 00 00 	movl   $0xa,(%esp)
    34ea:	e8 21 a6 01 00       	call   1db10 <putchar>
    34ef:	89 1c 24             	mov    %ebx,(%esp)
    34f2:	e8 99 da 01 00       	call   20f90 <console_flush>
    34f7:	89 1c 24             	mov    %ebx,(%esp)
    34fa:	c7 44 24 0c 08 00 00 	movl   $0x8,0xc(%esp)
    3501:	00 
    3502:	c7 44 24 08 00 00 00 	movl   $0x0,0x8(%esp)
    3509:	00 
    350a:	c7 44 24 04 07 00 00 	movl   $0x7,0x4(%esp)
    3511:	00 
    3512:	e8 39 dc 01 00       	call   21150 <console_set_color>
    3517:	c7 44 24 04 ce 25 03 	movl   $0x325ce,0x4(%esp)
    351e:	00 
    351f:	c7 04 24 d4 25 03 00 	movl   $0x325d4,(%esp)
    3526:	e8 a5 a8 01 00       	call   1ddd0 <printf>
    352b:	89 1c 24             	mov    %ebx,(%esp)
    352e:	e8 5d da 01 00       	call   20f90 <console_flush>
    3533:	89 1c 24             	mov    %ebx,(%esp)
    3536:	c7 44 24 0c 08 00 00 	movl   $0x8,0xc(%esp)
    353d:	00 
    353e:	c7 44 24 08 01 00 00 	movl   $0x1,0x8(%esp)
    3545:	00 
    3546:	c7 44 24 04 07 00 00 	movl   $0x7,0x4(%esp)
    354d:	00 
    354e:	e8 fd db 01 00       	call   21150 <console_set_color>
    3553:	c7 44 24 04 d9 25 03 	movl   $0x325d9,0x4(%esp)
    355a:	00 
    355b:	c7 04 24 d4 25 03 00 	movl   $0x325d4,(%esp)
    3562:	e8 69 a8 01 00       	call   1ddd0 <printf>
    3567:	89 1c 24             	mov    %ebx,(%esp)
    356a:	e8 21 da 01 00       	call   20f90 <console_flush>
    356f:	89 1c 24             	mov    %ebx,(%esp)
    3572:	c7 44 24 0c 08 00 00 	movl   $0x8,0xc(%esp)
    3579:	00 
    357a:	c7 44 24 08 02 00 00 	movl   $0x2,0x8(%esp)
    3581:	00 
    3582:	c7 44 24 04 07 00 00 	movl   $0x7,0x4(%esp)
    3589:	00 
    358a:	e8 c1 db 01 00       	call   21150 <console_set_color>
    358f:	c7 44 24 04 de 25 03 	movl   $0x325de,0x4(%esp)
    3596:	00 
    3597:	c7 04 24 d4 25 03 00 	movl   $0x325d4,(%esp)
    359e:	e8 2d a8 01 00       	call   1ddd0 <printf>
    35a3:	89 1c 24             	mov    %ebx,(%esp)
    35a6:	e8 e5 d9 01 00       	call   20f90 <console_flush>
    35ab:	89 1c 24             	mov    %ebx,(%esp)
    35ae:	c7 44 24 0c 08 00 00 	movl   $0x8,0xc(%esp)
    35b5:	00 
    35b6:	c7 44 24 08 03 00 00 	movl   $0x3,0x8(%esp)
    35bd:	00 
    35be:	c7 44 24 04 07 00 00 	movl   $0x7,0x4(%esp)
    35c5:	00 
    35c6:	e8 85 db 01 00       	call   21150 <console_set_color>
    35cb:	c7 44 24 04 e4 25 03 	movl   $0x325e4,0x4(%esp)
    35d2:	00 
    35d3:	c7 04 24 d4 25 03 00 	movl   $0x325d4,(%esp)
    35da:	e8 f1 a7 01 00       	call   1ddd0 <printf>
    35df:	89 1c 24             	mov    %ebx,(%esp)
    35e2:	e8 a9 d9 01 00       	call   20f90 <console_flush>
    35e7:	89 1c 24             	mov    %ebx,(%esp)
    35ea:	c7 44 24 0c 08 00 00 	movl   $0x8,0xc(%esp)
    35f1:	00 
    35f2:	c7 44 24 08 04 00 00 	movl   $0x4,0x8(%esp)
    35f9:	00 
    35fa:	c7 44 24 04 07 00 00 	movl   $0x7,0x4(%esp)
    3601:	00 
    3602:	e8 49 db 01 00       	call   21150 <console_set_color>
    3607:	c7 44 24 04 1a 39 03 	movl   $0x3391a,0x4(%esp)
    360e:	00 
    360f:	c7 04 24 d4 25 03 00 	movl   $0x325d4,(%esp)
    3616:	e8 b5 a7 01 00       	call   1ddd0 <printf>
    361b:	89 1c 24             	mov    %ebx,(%esp)
    361e:	e8 6d d9 01 00       	call   20f90 <console_flush>
    3623:	89 1c 24             	mov    %ebx,(%esp)
    3626:	c7 44 24 0c 08 00 00 	movl   $0x8,0xc(%esp)
    362d:	00 
    362e:	c7 44 24 08 05 00 00 	movl   $0x5,0x8(%esp)
    3635:	00 
    3636:	c7 44 24 04 07 00 00 	movl   $0x7,0x4(%esp)
    363d:	00 
    363e:	e8 0d db 01 00       	call   21150 <console_set_color>
    3643:	c7 44 24 04 e9 25 03 	movl   $0x325e9,0x4(%esp)
    364a:	00 
    364b:	c7 04 24 d4 25 03 00 	movl   $0x325d4,(%esp)
    3652:	e8 79 a7 01 00       	call   1ddd0 <printf>
    3657:	89 1c 24             	mov    %ebx,(%esp)
    365a:	e8 31 d9 01 00       	call   20f90 <console_flush>
    365f:	89 1c 24             	mov    %ebx,(%esp)
    3662:	c7 44 24 0c 08 00 00 	movl   $0x8,0xc(%esp)
    3669:	00 
    366a:	c7 44 24 08 06 00 00 	movl   $0x6,0x8(%esp)
    3671:	00 
    3672:	c7 44 24 04 07 00 00 	movl   $0x7,0x4(%esp)
    3679:	00 
    367a:	e8 d1 da 01 00       	call   21150 <console_set_color>
    367f:	c7 44 24 04 f1 25 03 	movl   $0x325f1,0x4(%esp)
    3686:	00 
    3687:	c7 04 24 d4 25 03 00 	movl   $0x325d4,(%esp)
    368e:	e8 3d a7 01 00       	call   1ddd0 <printf>
    3693:	89 1c 24             	mov    %ebx,(%esp)
    3696:	e8 f5 d8 01 00       	call   20f90 <console_flush>
    369b:	89 1c 24             	mov    %ebx,(%esp)
    369e:	c7 44 24 0c 08 00 00 	movl   $0x8,0xc(%esp)
    36a5:	00 
    36a6:	c7 44 24 08 07 00 00 	movl   $0x7,0x8(%esp)
    36ad:	00 
    36ae:	c7 44 24 04 07 00 00 	movl   $0x7,0x4(%esp)
    36b5:	00 
    36b6:	e8 95 da 01 00       	call   21150 <console_set_color>
    36bb:	c7 44 24 04 f8 25 03 	movl   $0x325f8,0x4(%esp)
    36c2:	00 
    36c3:	c7 04 24 d4 25 03 00 	movl   $0x325d4,(%esp)
    36ca:	e8 01 a7 01 00       	call   1ddd0 <printf>
    36cf:	89 1c 24             	mov    %ebx,(%esp)
    36d2:	e8 b9 d8 01 00       	call   20f90 <console_flush>
    36d7:	89 1c 24             	mov    %ebx,(%esp)
    36da:	c7 44 24 04 00 00 00 	movl   $0x0,0x4(%esp)
    36e1:	00 
    36e2:	e8 d9 d9 01 00       	call   210c0 <console_set_style>
    36e7:	c7 04 24 0a 00 00 00 	movl   $0xa,(%esp)
    36ee:	e8 1d a4 01 00       	call   1db10 <putchar>
    36f3:	c7 04 24 fe 25 03 00 	movl   $0x325fe,(%esp)
    36fa:	e8 d1 a6 01 00       	call   1ddd0 <printf>
    36ff:	89 1c 24             	mov    %ebx,(%esp)
    3702:	e8 89 d8 01 00       	call   20f90 <console_flush>
    3707:	89 1c 24             	mov    %ebx,(%esp)
    370a:	c7 44 24 0c 00 00 00 	movl   $0x0,0xc(%esp)
    3711:	00 
    3712:	c7 44 24 08 07 00 00 	movl   $0x7,0x8(%esp)
    3719:	00 
    371a:	c7 44 24 04 00 00 00 	movl   $0x0,0x4(%esp)
    3721:	00 
    3722:	e8 29 da 01 00       	call   21150 <console_set_color>
    3727:	c7 44 24 04 ce 25 03 	movl   $0x325ce,0x4(%esp)
    372e:	00 
    372f:	c7 04 24 d4 25 03 00 	movl   $0x325d4,(%esp)
    3736:	e8 95 a6 01 00       	call   1ddd0 <printf>
    373b:	89 1c 24             	mov    %ebx,(%esp)
    373e:	e8 4d d8 01 00       	call   20f90 <console_flush>
    3743:	89 1c 24             	mov    %ebx,(%esp)
    3746:	c7 44 24 0c 00 00 00 	movl   $0x0,0xc(%esp)
    374d:	00 
    374e:	c7 44 24 08 07 00 00 	movl   $0x7,0x8(%esp)
    3755:	00 
    3756:	c7 44 24 04 01 00 00 	movl   $0x1,0x4(%esp)
    375d:	00 
    375e:	e8 ed d9 01 00       	call   21150 <console_set_color>
    3763:	c7 44 24 04 d9 25 03 	movl   $0x325d9,0x4(%esp)
    376a:	00 
    376b:	c7 04 24 d4 25 03 00 	movl   $0x325d4,(%esp)
    3772:	e8 59 a6 01 00       	call   1ddd0 <printf>
    3777:	89 1c 24             	mov    %ebx,(%esp)
    377a:	e8 11 d8 01 00       	call   20f90 <console_flush>
    377f:	89 1c 24             	mov    %ebx,(%esp)
    3782:	c7 44 24 0c 00 00 00 	movl   $0x0,0xc(%esp)
    3789:	00 
    378a:	c7 44 24 08 07 00 00 	movl   $0x7,0x8(%esp)
    3791:	00 
    3792:	c7 44 24 04 02 00 00 	movl   $0x2,0x4(%esp)
    3799:	00 
    379a:	e8 b1 d9 01 00       	call   21150 <console_set_color>
    379f:	c7 44 24 04 de 25 03 	movl   $0x325de,0x4(%esp)
    37a6:	00 
    37a7:	c7 04 24 d4 25 03 00 	movl   $0x325d4,(%esp)
    37ae:	e8 1d a6 01 00       	call   1ddd0 <printf>
    37b3:	89 1c 24             	mov    %ebx,(%esp)
    37b6:	e8 d5 d7 01 00       	call   20f90 <console_flush>
    37bb:	89 1c 24             	mov    %ebx,(%esp)
    37be:	c7 44 24 0c 00 00 00 	movl   $0x0,0xc(%esp)
    37c5:	00 
    37c6:	c7 44 24 08 07 00 00 	movl   $0x7,0x8(%esp)
    37cd:	00 
    37ce:	c7 44 24 04 03 00 00 	movl   $0x3,0x4(%esp)
    37d5:	00 
    37d6:	e8 75 d9 01 00       	call   21150 <console_set_color>
    37db:	c7 44 24 04 e4 25 03 	movl   $0x325e4,0x4(%esp)
    37e2:	00 
    37e3:	c7 04 24 d4 25 03 00 	movl   $0x325d4,(%esp)
    37ea:	e8 e1 a5 01 00       	call   1ddd0 <printf>
    37ef:	89 1c 24             	mov    %ebx,(%esp)
    37f2:	e8 99 d7 01 00       	call   20f90 <console_flush>
    37f7:	89 1c 24             	mov    %ebx,(%esp)
    37fa:	c7 44 24 0c 00 00 00 	movl   $0x0,0xc(%esp)
    3801:	00 
    3802:	c7 44 24 08 07 00 00 	movl   $0x7,0x8(%esp)
    3809:	00 
    380a:	c7 44 24 04 04 00 00 	movl   $0x4,0x4(%esp)
    3811:	00 
    3812:	e8 39 d9 01 00       	call   21150 <console_set_color>
    3817:	c7 44 24 04 1a 39 03 	movl   $0x3391a,0x4(%esp)
    381e:	00 
    381f:	c7 04 24 d4 25 03 00 	movl   $0x325d4,(%esp)
    3826:	e8 a5 a5 01 00       	call   1ddd0 <printf>
    382b:	89 1c 24             	mov    %ebx,(%esp)
    382e:	e8 5d d7 01 00       	call   20f90 <console_flush>
    3833:	89 1c 24             	mov    %ebx,(%esp)
    3836:	c7 44 24 0c 00 00 00 	movl   $0x0,0xc(%esp)
    383d:	00 
    383e:	c7 44 24 08 07 00 00 	movl   $0x7,0x8(%esp)
    3845:	00 
    3846:	c7 44 24 04 05 00 00 	movl   $0x5,0x4(%esp)
    384d:	00 
    384e:	e8 fd d8 01 00       	call   21150 <console_set_color>
    3853:	c7 44 24 04 e9 25 03 	movl   $0x325e9,0x4(%esp)
    385a:	00 
    385b:	c7 04 24 d4 25 03 00 	movl   $0x325d4,(%esp)
    3862:	e8 69 a5 01 00       	call   1ddd0 <printf>
    3867:	89 1c 24             	mov    %ebx,(%esp)
    386a:	e8 21 d7 01 00       	call   20f90 <console_flush>
    386f:	89 1c 24             	mov    %ebx,(%esp)
    3872:	c7 44 24 0c 00 00 00 	movl   $0x0,0xc(%esp)
    3879:	00 
    387a:	c7 44 24 08 07 00 00 	movl   $0x7,0x8(%esp)
    3881:	00 
    3882:	c7 44 24 04 06 00 00 	movl   $0x6,0x4(%esp)
    3889:	00 
    388a:	e8 c1 d8 01 00       	call   21150 <console_set_color>
    388f:	c7 44 24 04 f1 25 03 	movl   $0x325f1,0x4(%esp)
    3896:	00 
    3897:	c7 04 24 d4 25 03 00 	movl   $0x325d4,(%esp)
    389e:	e8 2d a5 01 00       	call   1ddd0 <printf>
    38a3:	89 1c 24             	mov    %ebx,(%esp)
    38a6:	e8 e5 d6 01 00       	call   20f90 <console_flush>
    38ab:	89 1c 24             	mov    %ebx,(%esp)
    38ae:	c7 44 24 0c 00 00 00 	movl   $0x0,0xc(%esp)
    38b5:	00 
    38b6:	c7 44 24 08 07 00 00 	movl   $0x7,0x8(%esp)
    38bd:	00 
    38be:	c7 44 24 04 07 00 00 	movl   $0x7,0x4(%esp)
    38c5:	00 
    38c6:	e8 85 d8 01 00       	call   21150 <console_set_color>
    38cb:	c7 44 24 04 f8 25 03 	movl   $0x325f8,0x4(%esp)
    38d2:	00 
    38d3:	c7 04 24 d4 25 03 00 	movl   $0x325d4,(%esp)
    38da:	e8 f1 a4 01 00       	call   1ddd0 <printf>
    38df:	89 1c 24             	mov    %ebx,(%esp)
    38e2:	e8 a9 d6 01 00       	call   20f90 <console_flush>
    38e7:	89 1c 24             	mov    %ebx,(%esp)
    38ea:	c7 44 24 04 00 00 00 	movl   $0x0,0x4(%esp)
    38f1:	00 
    38f2:	e8 c9 d7 01 00       	call   210c0 <console_set_style>
    38f7:	c7 04 24 0a 00 00 00 	movl   $0xa,(%esp)
    38fe:	e8 0d a2 01 00       	call   1db10 <putchar>
    3903:	89 1c 24             	mov    %ebx,(%esp)
    3906:	e8 85 d6 01 00       	call   20f90 <console_flush>
    390b:	89 1c 24             	mov    %ebx,(%esp)
    390e:	c7 44 24 0c 08 00 00 	movl   $0x8,0xc(%esp)
    3915:	00 
    3916:	c7 44 24 08 07 00 00 	movl   $0x7,0x8(%esp)
    391d:	00 
    391e:	c7 44 24 04 00 00 00 	movl   $0x0,0x4(%esp)
    3925:	00 
    3926:	e8 25 d8 01 00       	call   21150 <console_set_color>
    392b:	c7 44 24 04 ce 25 03 	movl   $0x325ce,0x4(%esp)
    3932:	00 
    3933:	c7 04 24 d4 25 03 00 	movl   $0x325d4,(%esp)
    393a:	e8 91 a4 01 00       	call   1ddd0 <printf>
    393f:	89 1c 24             	mov    %ebx,(%esp)
    3942:	e8 49 d6 01 00       	call   20f90 <console_flush>
    3947:	89 1c 24             	mov    %ebx,(%esp)
    394a:	c7 44 24 0c 08 00 00 	movl   $0x8,0xc(%esp)
    3951:	00 
    3952:	c7 44 24 08 07 00 00 	movl   $0x7,0x8(%esp)
    3959:	00 
    395a:	c7 44 24 04 01 00 00 	movl   $0x1,0x4(%esp)
    3961:	00 
    3962:	e8 e9 d7 01 00       	call   21150 <console_set_color>
    3967:	c7 44 24 04 d9 25 03 	movl   $0x325d9,0x4(%esp)
    396e:	00 
    396f:	c7 04 24 d4 25 03 00 	movl   $0x325d4,(%esp)
    3976:	e8 55 a4 01 00       	call   1ddd0 <printf>
    397b:	89 1c 24             	mov    %ebx,(%esp)
    397e:	e8 0d d6 01 00       	call   20f90 <console_flush>
    3983:	89 1c 24             	mov    %ebx,(%esp)
    3986:	c7 44 24 0c 08 00 00 	movl   $0x8,0xc(%esp)
    398d:	00 
    398e:	c7 44 24 08 07 00 00 	movl   $0x7,0x8(%esp)
    3995:	00 
    3996:	c7 44 24 04 02 00 00 	movl   $0x2,0x4(%esp)
    399d:	00 
    399e:	e8 ad d7 01 00       	call   21150 <console_set_color>
    39a3:	c7 44 24 04 de 25 03 	movl   $0x325de,0x4(%esp)
    39aa:	00 
    39ab:	c7 04 24 d4 25 03 00 	movl   $0x325d4,(%esp)
    39b2:	e8 19 a4 01 00       	call   1ddd0 <printf>
    39b7:	89 1c 24             	mov    %ebx,(%esp)
    39ba:	e8 d1 d5 01 00       	call   20f90 <console_flush>
    39bf:	89 1c 24             	mov    %ebx,(%esp)
    39c2:	c7 44 24 0c 08 00 00 	movl   $0x8,0xc(%esp)
    39c9:	00 
    39ca:	c7 44 24 08 07 00 00 	movl   $0x7,0x8(%esp)
    39d1:	00 
    39d2:	c7 44 24 04 03 00 00 	movl   $0x3,0x4(%esp)
    39d9:	00 
    39da:	e8 71 d7 01 00       	call   21150 <console_set_color>
    39df:	c7 44 24 04 e4 25 03 	movl   $0x325e4,0x4(%esp)
    39e6:	00 
    39e7:	c7 04 24 d4 25 03 00 	movl   $0x325d4,(%esp)
    39ee:	e8 dd a3 01 00       	call   1ddd0 <printf>
    39f3:	89 1c 24             	mov    %ebx,(%esp)
    39f6:	e8 95 d5 01 00       	call   20f90 <console_flush>
    39fb:	89 1c 24             	mov    %ebx,(%esp)
    39fe:	c7 44 24 0c 08 00 00 	movl   $0x8,0xc(%esp)
    3a05:	00 
    3a06:	c7 44 24 08 07 00 00 	movl   $0x7,0x8(%esp)
    3a0d:	00 
    3a0e:	c7 44 24 04 04 00 00 	movl   $0x4,0x4(%esp)
    3a15:	00 
    3a16:	e8 35 d7 01 00       	call   21150 <console_set_color>
    3a1b:	c7 44 24 04 1a 39 03 	movl   $0x3391a,0x4(%esp)
    3a22:	00 
    3a23:	c7 04 24 d4 25 03 00 	movl   $0x325d4,(%esp)
    3a2a:	e8 a1 a3 01 00       	call   1ddd0 <printf>
    3a2f:	89 1c 24             	mov    %ebx,(%esp)
    3a32:	e8 59 d5 01 00       	call   20f90 <console_flush>
    3a37:	89 1c 24             	mov    %ebx,(%esp)
    3a3a:	c7 44 24 0c 08 00 00 	movl   $0x8,0xc(%esp)
    3a41:	00 
    3a42:	c7 44 24 08 07 00 00 	movl   $0x7,0x8(%esp)
    3a49:	00 
    3a4a:	c7 44 24 04 05 00 00 	movl   $0x5,0x4(%esp)
    3a51:	00 
    3a52:	e8 f9 d6 01 00       	call   21150 <console_set_color>
    3a57:	c7 44 24 04 e9 25 03 	movl   $0x325e9,0x4(%esp)
    3a5e:	00 
    3a5f:	c7 04 24 d4 25 03 00 	movl   $0x325d4,(%esp)
    3a66:	e8 65 a3 01 00       	call   1ddd0 <printf>
    3a6b:	89 1c 24             	mov    %ebx,(%esp)
    3a6e:	e8 1d d5 01 00       	call   20f90 <console_flush>
    3a73:	89 1c 24             	mov    %ebx,(%esp)
    3a76:	c7 44 24 0c 08 00 00 	movl   $0x8,0xc(%esp)
    3a7d:	00 
    3a7e:	c7 44 24 08 07 00 00 	movl   $0x7,0x8(%esp)
    3a85:	00 
    3a86:	c7 44 24 04 06 00 00 	movl   $0x6,0x4(%esp)
    3a8d:	00 
    3a8e:	e8 bd d6 01 00       	call   21150 <console_set_color>
    3a93:	c7 44 24 04 f1 25 03 	movl   $0x325f1,0x4(%esp)
    3a9a:	00 
    3a9b:	c7 04 24 d4 25 03 00 	movl   $0x325d4,(%esp)
    3aa2:	e8 29 a3 01 00       	call   1ddd0 <printf>
    3aa7:	89 1c 24             	mov    %ebx,(%esp)
    3aaa:	e8 e1 d4 01 00       	call   20f90 <console_flush>
    3aaf:	89 1c 24             	mov    %ebx,(%esp)
    3ab2:	c7 44 24 0c 08 00 00 	movl   $0x8,0xc(%esp)
    3ab9:	00 
    3aba:	c7 44 24 08 07 00 00 	movl   $0x7,0x8(%esp)
    3ac1:	00 
    3ac2:	c7 44 24 04 07 00 00 	movl   $0x7,0x4(%esp)
    3ac9:	00 
    3aca:	e8 81 d6 01 00       	call   21150 <console_set_color>
    3acf:	c7 44 24 04 f8 25 03 	movl   $0x325f8,0x4(%esp)
    3ad6:	00 
    3ad7:	c7 04 24 d4 25 03 00 	movl   $0x325d4,(%esp)
    3ade:	e8 ed a2 01 00       	call   1ddd0 <printf>
    3ae3:	89 1c 24             	mov    %ebx,(%esp)
    3ae6:	e8 a5 d4 01 00       	call   20f90 <console_flush>
    3aeb:	89 1c 24             	mov    %ebx,(%esp)
    3aee:	c7 44 24 04 00 00 00 	movl   $0x0,0x4(%esp)
    3af5:	00 
    3af6:	e8 c5 d5 01 00       	call   210c0 <console_set_style>
    3afb:	c7 04 24 0a 00 00 00 	movl   $0xa,(%esp)
    3b02:	e8 09 a0 01 00       	call   1db10 <putchar>
    3b07:	c7 04 24 17 26 03 00 	movl   $0x32617,(%esp)
    3b0e:	e8 bd a2 01 00       	call   1ddd0 <printf>
    3b13:	89 1c 24             	mov    %ebx,(%esp)
    3b16:	e8 75 d4 01 00       	call   20f90 <console_flush>
    3b1b:	89 1c 24             	mov    %ebx,(%esp)
    3b1e:	c7 44 24 08 00 00 ff 	movl   $0xff0000,0x8(%esp)
    3b25:	00 
    3b26:	c7 44 24 04 00 00 00 	movl   $0x0,0x4(%esp)
    3b2d:	00 
    3b2e:	e8 bd d6 01 00       	call   211f0 <console_set_rgb_color>
    3b33:	c7 04 24 58 00 00 00 	movl   $0x58,(%esp)
    3b3a:	e8 d1 9f 01 00       	call   1db10 <putchar>
    3b3f:	89 1c 24             	mov    %ebx,(%esp)
    3b42:	e8 49 d4 01 00       	call   20f90 <console_flush>
    3b47:	89 1c 24             	mov    %ebx,(%esp)
    3b4a:	c7 44 24 08 00 00 ef 	movl   $0xef0000,0x8(%esp)
    3b51:	00 
    3b52:	c7 44 24 04 00 00 10 	movl   $0x100000,0x4(%esp)
    3b59:	00 
    3b5a:	e8 91 d6 01 00       	call   211f0 <console_set_rgb_color>
    3b5f:	c7 04 24 58 00 00 00 	movl   $0x58,(%esp)
    3b66:	e8 a5 9f 01 00       	call   1db10 <putchar>
    3b6b:	89 1c 24             	mov    %ebx,(%esp)
    3b6e:	e8 1d d4 01 00       	call   20f90 <console_flush>
    3b73:	89 1c 24             	mov    %ebx,(%esp)
    3b76:	c7 44 24 08 00 00 df 	movl   $0xdf0000,0x8(%esp)
    3b7d:	00 
    3b7e:	c7 44 24 04 00 00 20 	movl   $0x200000,0x4(%esp)
    3b85:	00 
    3b86:	e8 65 d6 01 00       	call   211f0 <console_set_rgb_color>
    3b8b:	c7 04 24 58 00 00 00 	movl   $0x58,(%esp)
    3b92:	e8 79 9f 01 00       	call   1db10 <putchar>
    3b97:	89 1c 24             	mov    %ebx,(%esp)
    3b9a:	e8 f1 d3 01 00       	call   20f90 <console_flush>
    3b9f:	89 1c 24             	mov    %ebx,(%esp)
    3ba2:	c7 44 24 08 00 00 cf 	movl   $0xcf0000,0x8(%esp)
    3ba9:	00 
    3baa:	c7 44 24 04 00 00 30 	movl   $0x300000,0x4(%esp)
    3bb1:	00 
    3bb2:	e8 39 d6 01 00       	call   211f0 <console_set_rgb_color>
    3bb7:	c7 04 24 58 00 00 00 	movl   $0x58,(%esp)
    3bbe:	e8 4d 9f 01 00       	call   1db10 <putchar>
    3bc3:	89 1c 24             	mov    %ebx,(%esp)
    3bc6:	e8 c5 d3 01 00       	call   20f90 <console_flush>
    3bcb:	89 1c 24             	mov    %ebx,(%esp)
    3bce:	c7 44 24 08 00 00 bf 	movl   $0xbf0000,0x8(%esp)
    3bd5:	00 
    3bd6:	c7 44 24 04 00 00 40 	movl   $0x400000,0x4(%esp)
    3bdd:	00 
    3bde:	e8 0d d6 01 00       	call   211f0 <console_set_rgb_color>
    3be3:	c7 04 24 58 00 00 00 	movl   $0x58,(%esp)
    3bea:	e8 21 9f 01 00       	call   1db10 <putchar>
    3bef:	89 1c 24             	mov    %ebx,(%esp)
    3bf2:	e8 99 d3 01 00       	call   20f90 <console_flush>
    3bf7:	89 1c 24             	mov    %ebx,(%esp)
    3bfa:	c7 44 24 08 00 00 af 	movl   $0xaf0000,0x8(%esp)
    3c01:	00 
    3c02:	c7 44 24 04 00 00 50 	movl   $0x500000,0x4(%esp)
    3c09:	00 
    3c0a:	e8 e1 d5 01 00       	call   211f0 <console_set_rgb_color>
    3c0f:	c7 04 24 58 00 00 00 	movl   $0x58,(%esp)
    3c16:	e8 f5 9e 01 00       	call   1db10 <putchar>
    3c1b:	89 1c 24             	mov    %ebx,(%esp)
    3c1e:	e8 6d d3 01 00       	call   20f90 <console_flush>
    3c23:	89 1c 24             	mov    %ebx,(%esp)
    3c26:	c7 44 24 08 00 00 9f 	movl   $0x9f0000,0x8(%esp)
    3c2d:	00 
    3c2e:	c7 44 24 04 00 00 60 	movl   $0x600000,0x4(%esp)
    3c35:	00 
    3c36:	e8 b5 d5 01 00       	call   211f0 <console_set_rgb_color>
    3c3b:	c7 04 24 58 00 00 00 	movl   $0x58,(%esp)
    3c42:	e8 c9 9e 01 00       	call   1db10 <putchar>
    3c47:	89 1c 24             	mov    %ebx,(%esp)
    3c4a:	e8 41 d3 01 00       	call   20f90 <console_flush>
    3c4f:	89 1c 24             	mov    %ebx,(%esp)
    3c52:	c7 44 24 08 00 00 8f 	movl   $0x8f0000,0x8(%esp)
    3c59:	00 
    3c5a:	c7 44 24 04 00 00 70 	movl   $0x700000,0x4(%esp)
    3c61:	00 
    3c62:	e8 89 d5 01 00       	call   211f0 <console_set_rgb_color>
    3c67:	c7 04 24 58 00 00 00 	movl   $0x58,(%esp)
    3c6e:	e8 9d 9e 01 00       	call   1db10 <putchar>
    3c73:	89 1c 24             	mov    %ebx,(%esp)
    3c76:	e8 15 d3 01 00       	call   20f90 <console_flush>
    3c7b:	89 1c 24             	mov    %ebx,(%esp)
    3c7e:	c7 44 24 08 00 00 7f 	movl   $0x7f0000,0x8(%esp)
    3c85:	00 
    3c86:	c7 44 24 04 00 00 80 	movl   $0x800000,0x4(%esp)
    3c8d:	00 
    3c8e:	e8 5d d5 01 00       	call   211f0 <console_set_rgb_color>
    3c93:	c7 04 24 58 00 00 00 	movl   $0x58,(%esp)
    3c9a:	e8 71 9e 01 00       	call   1db10 <putchar>
    3c9f:	89 1c 24             	mov    %ebx,(%esp)
    3ca2:	e8 e9 d2 01 00       	call   20f90 <console_flush>
    3ca7:	89 1c 24             	mov    %ebx,(%esp)
    3caa:	c7 44 24 08 00 00 6f 	movl   $0x6f0000,0x8(%esp)
    3cb1:	00 
    3cb2:	c7 44 24 04 00 00 90 	movl   $0x900000,0x4(%esp)
    3cb9:	00 
    3cba:	e8 31 d5 01 00       	call   211f0 <console_set_rgb_color>
    3cbf:	c7 04 24 58 00 00 00 	movl   $0x58,(%esp)
    3cc6:	e8 45 9e 01 00       	call   1db10 <putchar>
    3ccb:	89 1c 24             	mov    %ebx,(%esp)
    3cce:	e8 bd d2 01 00       	call   20f90 <console_flush>
    3cd3:	89 1c 24             	mov    %ebx,(%esp)
    3cd6:	c7 44 24 08 00 00 5f 	movl   $0x5f0000,0x8(%esp)
    3cdd:	00 
    3cde:	c7 44 24 04 00 00 a0 	movl   $0xa00000,0x4(%esp)
    3ce5:	00 
    3ce6:	e8 05 d5 01 00       	call   211f0 <console_set_rgb_color>
    3ceb:	c7 04 24 58 00 00 00 	movl   $0x58,(%esp)
    3cf2:	e8 19 9e 01 00       	call   1db10 <putchar>
    3cf7:	89 1c 24             	mov    %ebx,(%esp)
    3cfa:	e8 91 d2 01 00       	call   20f90 <console_flush>
    3cff:	89 1c 24             	mov    %ebx,(%esp)
    3d02:	c7 44 24 08 00 00 4f 	movl   $0x4f0000,0x8(%esp)
    3d09:	00 
    3d0a:	c7 44 24 04 00 00 b0 	movl   $0xb00000,0x4(%esp)
    3d11:	00 
    3d12:	e8 d9 d4 01 00       	call   211f0 <console_set_rgb_color>
    3d17:	c7 04 24 58 00 00 00 	movl   $0x58,(%esp)
    3d1e:	e8 ed 9d 01 00       	call   1db10 <putchar>
    3d23:	89 1c 24             	mov    %ebx,(%esp)
    3d26:	e8 65 d2 01 00       	call   20f90 <console_flush>
    3d2b:	89 1c 24             	mov    %ebx,(%esp)
    3d2e:	c7 44 24 08 00 00 3f 	movl   $0x3f0000,0x8(%esp)
    3d35:	00 
    3d36:	c7 44 24 04 00 00 c0 	movl   $0xc00000,0x4(%esp)
    3d3d:	00 
    3d3e:	e8 ad d4 01 00       	call   211f0 <console_set_rgb_color>
    3d43:	c7 04 24 58 00 00 00 	movl   $0x58,(%esp)
    3d4a:	e8 c1 9d 01 00       	call   1db10 <putchar>
    3d4f:	89 1c 24             	mov    %ebx,(%esp)
    3d52:	e8 39 d2 01 00       	call   20f90 <console_flush>
    3d57:	89 1c 24             	mov    %ebx,(%esp)
    3d5a:	c7 44 24 08 00 00 2f 	movl   $0x2f0000,0x8(%esp)
    3d61:	00 
    3d62:	c7 44 24 04 00 00 d0 	movl   $0xd00000,0x4(%esp)
    3d69:	00 
    3d6a:	e8 81 d4 01 00       	call   211f0 <console_set_rgb_color>
    3d6f:	c7 04 24 58 00 00 00 	movl   $0x58,(%esp)
    3d76:	e8 95 9d 01 00       	call   1db10 <putchar>
    3d7b:	89 1c 24             	mov    %ebx,(%esp)
    3d7e:	e8 0d d2 01 00       	call   20f90 <console_flush>
    3d83:	89 1c 24             	mov    %ebx,(%esp)
    3d86:	c7 44 24 08 00 00 1f 	movl   $0x1f0000,0x8(%esp)
    3d8d:	00 
    3d8e:	c7 44 24 04 00 00 e0 	movl   $0xe00000,0x4(%esp)
    3d95:	00 
    3d96:	e8 55 d4 01 00       	call   211f0 <console_set_rgb_color>
    3d9b:	c7 04 24 58 00 00 00 	movl   $0x58,(%esp)
    3da2:	e8 69 9d 01 00       	call   1db10 <putchar>
    3da7:	89 1c 24             	mov    %ebx,(%esp)
    3daa:	e8 e1 d1 01 00       	call   20f90 <console_flush>
    3daf:	89 1c 24             	mov    %ebx,(%esp)
    3db2:	c7 44 24 08 00 00 0f 	movl   $0xf0000,0x8(%esp)
    3db9:	00 
    3dba:	c7 44 24 04 00 00 f0 	movl   $0xf00000,0x4(%esp)
    3dc1:	00 
    3dc2:	e8 29 d4 01 00       	call   211f0 <console_set_rgb_color>
    3dc7:	c7 04 24 58 00 00 00 	movl   $0x58,(%esp)
    3dce:	e8 3d 9d 01 00       	call   1db10 <putchar>
    3dd3:	89 1c 24             	mov    %ebx,(%esp)
    3dd6:	e8 b5 d1 01 00       	call   20f90 <console_flush>
    3ddb:	89 1c 24             	mov    %ebx,(%esp)
    3dde:	c7 44 24 0c 00 00 00 	movl   $0x0,0xc(%esp)
    3de5:	00 
    3de6:	c7 44 24 08 00 00 00 	movl   $0x0,0x8(%esp)
    3ded:	00 
    3dee:	c7 44 24 04 07 00 00 	movl   $0x7,0x4(%esp)
    3df5:	00 
    3df6:	e8 55 d3 01 00       	call   21150 <console_set_color>
    3dfb:	c7 04 24 0a 00 00 00 	movl   $0xa,(%esp)
    3e02:	e8 09 9d 01 00       	call   1db10 <putchar>
    3e07:	89 1c 24             	mov    %ebx,(%esp)
    3e0a:	e8 81 d1 01 00       	call   20f90 <console_flush>
    3e0f:	89 1c 24             	mov    %ebx,(%esp)
    3e12:	c7 44 24 08 00 ff 00 	movl   $0xff00,0x8(%esp)
    3e19:	00 
    3e1a:	c7 44 24 04 00 00 00 	movl   $0x0,0x4(%esp)
    3e21:	00 
    3e22:	e8 c9 d3 01 00       	call   211f0 <console_set_rgb_color>
    3e27:	c7 04 24 58 00 00 00 	movl   $0x58,(%esp)
    3e2e:	e8 dd 9c 01 00       	call   1db10 <putchar>
    3e33:	89 1c 24             	mov    %ebx,(%esp)
    3e36:	e8 55 d1 01 00       	call   20f90 <console_flush>
    3e3b:	89 1c 24             	mov    %ebx,(%esp)
    3e3e:	c7 44 24 08 00 ef 00 	movl   $0xef00,0x8(%esp)
    3e45:	00 
    3e46:	c7 44 24 04 00 10 00 	movl   $0x1000,0x4(%esp)
    3e4d:	00 
    3e4e:	e8 9d d3 01 00       	call   211f0 <console_set_rgb_color>
    3e53:	c7 04 24 58 00 00 00 	movl   $0x58,(%esp)
    3e5a:	e8 b1 9c 01 00       	call   1db10 <putchar>
    3e5f:	89 1c 24             	mov    %ebx,(%esp)
    3e62:	e8 29 d1 01 00       	call   20f90 <console_flush>
    3e67:	89 1c 24             	mov    %ebx,(%esp)
    3e6a:	c7 44 24 08 00 df 00 	movl   $0xdf00,0x8(%esp)
    3e71:	00 
    3e72:	c7 44 24 04 00 20 00 	movl   $0x2000,0x4(%esp)
    3e79:	00 
    3e7a:	e8 71 d3 01 00       	call   211f0 <console_set_rgb_color>
    3e7f:	c7 04 24 58 00 00 00 	movl   $0x58,(%esp)
    3e86:	e8 85 9c 01 00       	call   1db10 <putchar>
    3e8b:	89 1c 24             	mov    %ebx,(%esp)
    3e8e:	e8 fd d0 01 00       	call   20f90 <console_flush>
    3e93:	89 1c 24             	mov    %ebx,(%esp)
    3e96:	c7 44 24 08 00 cf 00 	movl   $0xcf00,0x8(%esp)
    3e9d:	00 
    3e9e:	c7 44 24 04 00 30 00 	movl   $0x3000,0x4(%esp)
    3ea5:	00 
    3ea6:	e8 45 d3 01 00       	call   211f0 <console_set_rgb_color>
    3eab:	c7 04 24 58 00 00 00 	movl   $0x58,(%esp)
    3eb2:	e8 59 9c 01 00       	call   1db10 <putchar>
    3eb7:	89 1c 24             	mov    %ebx,(%esp)
    3eba:	e8 d1 d0 01 00       	call   20f90 <console_flush>
    3ebf:	89 1c 24             	mov    %ebx,(%esp)
    3ec2:	c7 44 24 08 00 bf 00 	movl   $0xbf00,0x8(%esp)
    3ec9:	00 
    3eca:	c7 44 24 04 00 40 00 	movl   $0x4000,0x4(%esp)
    3ed1:	00 
    3ed2:	e8 19 d3 01 00       	call   211f0 <console_set_rgb_color>
    3ed7:	c7 04 24 58 00 00 00 	movl   $0x58,(%esp)
    3ede:	e8 2d 9c 01 00       	call   1db10 <putchar>
    3ee3:	89 1c 24             	mov    %ebx,(%esp)
    3ee6:	e8 a5 d0 01 00       	call   20f90 <console_flush>
    3eeb:	89 1c 24             	mov    %ebx,(%esp)
    3eee:	c7 44 24 08 00 af 00 	movl   $0xaf00,0x8(%esp)
    3ef5:	00 
    3ef6:	c7 44 24 04 00 50 00 	movl   $0x5000,0x4(%esp)
    3efd:	00 
    3efe:	e8 ed d2 01 00       	call   211f0 <console_set_rgb_color>
    3f03:	c7 04 24 58 00 00 00 	movl   $0x58,(%esp)
    3f0a:	e8 01 9c 01 00       	call   1db10 <putchar>
    3f0f:	89 1c 24             	mov    %ebx,(%esp)
    3f12:	e8 79 d0 01 00       	call   20f90 <console_flush>
    3f17:	89 1c 24             	mov    %ebx,(%esp)
    3f1a:	c7 44 24 08 00 9f 00 	movl   $0x9f00,0x8(%esp)
    3f21:	00 
    3f22:	c7 44 24 04 00 60 00 	movl   $0x6000,0x4(%esp)
    3f29:	00 
    3f2a:	e8 c1 d2 01 00       	call   211f0 <console_set_rgb_color>
    3f2f:	c7 04 24 58 00 00 00 	movl   $0x58,(%esp)
    3f36:	e8 d5 9b 01 00       	call   1db10 <putchar>
    3f3b:	89 1c 24             	mov    %ebx,(%esp)
    3f3e:	e8 4d d0 01 00       	call   20f90 <console_flush>
    3f43:	89 1c 24             	mov    %ebx,(%esp)
    3f46:	c7 44 24 08 00 8f 00 	movl   $0x8f00,0x8(%esp)
    3f4d:	00 
    3f4e:	c7 44 24 04 00 70 00 	movl   $0x7000,0x4(%esp)
    3f55:	00 
    3f56:	e8 95 d2 01 00       	call   211f0 <console_set_rgb_color>
    3f5b:	c7 04 24 58 00 00 00 	movl   $0x58,(%esp)
    3f62:	e8 a9 9b 01 00       	call   1db10 <putchar>
    3f67:	89 1c 24             	mov    %ebx,(%esp)
    3f6a:	e8 21 d0 01 00       	call   20f90 <console_flush>
    3f6f:	89 1c 24             	mov    %ebx,(%esp)
    3f72:	c7 44 24 08 00 7f 00 	movl   $0x7f00,0x8(%esp)
    3f79:	00 
    3f7a:	c7 44 24 04 00 80 00 	movl   $0x8000,0x4(%esp)
    3f81:	00 
    3f82:	e8 69 d2 01 00       	call   211f0 <console_set_rgb_color>
    3f87:	c7 04 24 58 00 00 00 	movl   $0x58,(%esp)
    3f8e:	e8 7d 9b 01 00       	call   1db10 <putchar>
    3f93:	89 1c 24             	mov    %ebx,(%esp)
    3f96:	e8 f5 cf 01 00       	call   20f90 <console_flush>
    3f9b:	89 1c 24             	mov    %ebx,(%esp)
    3f9e:	c7 44 24 08 00 6f 00 	movl   $0x6f00,0x8(%esp)
    3fa5:	00 
    3fa6:	c7 44 24 04 00 90 00 	movl   $0x9000,0x4(%esp)
    3fad:	00 
    3fae:	e8 3d d2 01 00       	call   211f0 <console_set_rgb_color>
    3fb3:	c7 04 24 58 00 00 00 	movl   $0x58,(%esp)
    3fba:	e8 51 9b 01 00       	call   1db10 <putchar>
    3fbf:	89 1c 24             	mov    %ebx,(%esp)
    3fc2:	e8 c9 cf 01 00       	call   20f90 <console_flush>
    3fc7:	89 1c 24             	mov    %ebx,(%esp)
    3fca:	c7 44 24 08 00 5f 00 	movl   $0x5f00,0x8(%esp)
    3fd1:	00 
    3fd2:	c7 44 24 04 00 a0 00 	movl   $0xa000,0x4(%esp)
    3fd9:	00 
    3fda:	e8 11 d2 01 00       	call   211f0 <console_set_rgb_color>
    3fdf:	c7 04 24 58 00 00 00 	movl   $0x58,(%esp)
    3fe6:	e8 25 9b 01 00       	call   1db10 <putchar>
    3feb:	89 1c 24             	mov    %ebx,(%esp)
    3fee:	e8 9d cf 01 00       	call   20f90 <console_flush>
    3ff3:	89 1c 24             	mov    %ebx,(%esp)
    3ff6:	c7 44 24 08 00 4f 00 	movl   $0x4f00,0x8(%esp)
    3ffd:	00 
    3ffe:	c7 44 24 04 00 b0 00 	movl   $0xb000,0x4(%esp)
    4005:	00 
    4006:	e8 e5 d1 01 00       	call   211f0 <console_set_rgb_color>
    400b:	c7 04 24 58 00 00 00 	movl   $0x58,(%esp)
    4012:	e8 f9 9a 01 00       	call   1db10 <putchar>
    4017:	89 1c 24             	mov    %ebx,(%esp)
    401a:	e8 71 cf 01 00       	call   20f90 <console_flush>
    401f:	89 1c 24             	mov    %ebx,(%esp)
    4022:	c7 44 24 08 00 3f 00 	movl   $0x3f00,0x8(%esp)
    4029:	00 
    402a:	c7 44 24 04 00 c0 00 	movl   $0xc000,0x4(%esp)
    4031:	00 
    4032:	e8 b9 d1 01 00       	call   211f0 <console_set_rgb_color>
    4037:	c7 04 24 58 00 00 00 	movl   $0x58,(%esp)
    403e:	e8 cd 9a 01 00       	call   1db10 <putchar>
    4043:	89 1c 24             	mov    %ebx,(%esp)
    4046:	e8 45 cf 01 00       	call   20f90 <console_flush>
    404b:	89 1c 24             	mov    %ebx,(%esp)
    404e:	c7 44 24 08 00 2f 00 	movl   $0x2f00,0x8(%esp)
    4055:	00 
    4056:	c7 44 24 04 00 d0 00 	movl   $0xd000,0x4(%esp)
    405d:	00 
    405e:	e8 8d d1 01 00       	call   211f0 <console_set_rgb_color>
    4063:	c7 04 24 58 00 00 00 	movl   $0x58,(%esp)
    406a:	e8 a1 9a 01 00       	call   1db10 <putchar>
    406f:	89 1c 24             	mov    %ebx,(%esp)
    4072:	e8 19 cf 01 00       	call   20f90 <console_flush>
    4077:	89 1c 24             	mov    %ebx,(%esp)
    407a:	c7 44 24 08 00 1f 00 	movl   $0x1f00,0x8(%esp)
    4081:	00 
    4082:	c7 44 24 04 00 e0 00 	movl   $0xe000,0x4(%esp)
    4089:	00 
    408a:	e8 61 d1 01 00       	call   211f0 <console_set_rgb_color>
    408f:	c7 04 24 58 00 00 00 	movl   $0x58,(%esp)
    4096:	e8 75 9a 01 00       	call   1db10 <putchar>
    409b:	89 1c 24             	mov    %ebx,(%esp)
    409e:	e8 ed ce 01 00       	call   20f90 <console_flush>
    40a3:	89 1c 24             	mov    %ebx,(%esp)
    40a6:	c7 44 24 08 00 0f 00 	movl   $0xf00,0x8(%esp)
    40ad:	00 
    40ae:	c7 44 24 04 00 f0 00 	movl   $0xf000,0x4(%esp)
    40b5:	00 
    40b6:	e8 35 d1 01 00       	call   211f0 <console_set_rgb_color>
    40bb:	c7 04 24 58 00 00 00 	movl   $0x58,(%esp)
    40c2:	e8 49 9a 01 00       	call   1db10 <putchar>
    40c7:	89 1c 24             	mov    %ebx,(%esp)
    40ca:	e8 c1 ce 01 00       	call   20f90 <console_flush>
    40cf:	89 1c 24             	mov    %ebx,(%esp)
    40d2:	c7 44 24 0c 00 00 00 	movl   $0x0,0xc(%esp)
    40d9:	00 
    40da:	c7 44 24 08 00 00 00 	movl   $0x0,0x8(%esp)
    40e1:	00 
    40e2:	c7 44 24 04 07 00 00 	movl   $0x7,0x4(%esp)
    40e9:	00 
    40ea:	e8 61 d0 01 00       	call   21150 <console_set_color>
    40ef:	c7 04 24 0a 00 00 00 	movl   $0xa,(%esp)
    40f6:	e8 15 9a 01 00       	call   1db10 <putchar>
    40fb:	89 1c 24             	mov    %ebx,(%esp)
    40fe:	e8 8d ce 01 00       	call   20f90 <console_flush>
    4103:	89 1c 24             	mov    %ebx,(%esp)
    4106:	c7 44 24 08 ff 00 00 	movl   $0xff,0x8(%esp)
    410d:	00 
    410e:	c7 44 24 04 00 00 00 	movl   $0x0,0x4(%esp)
    4115:	00 
    4116:	e8 d5 d0 01 00       	call   211f0 <console_set_rgb_color>
    411b:	c7 04 24 58 00 00 00 	movl   $0x58,(%esp)
    4122:	e8 e9 99 01 00       	call   1db10 <putchar>
    4127:	89 1c 24             	mov    %ebx,(%esp)
    412a:	e8 61 ce 01 00       	call   20f90 <console_flush>
    412f:	89 1c 24             	mov    %ebx,(%esp)
    4132:	c7 44 24 08 ef 00 00 	movl   $0xef,0x8(%esp)
    4139:	00 
    413a:	c7 44 24 04 10 00 00 	movl   $0x10,0x4(%esp)
    4141:	00 
    4142:	e8 a9 d0 01 00       	call   211f0 <console_set_rgb_color>
    4147:	c7 04 24 58 00 00 00 	movl   $0x58,(%esp)
    414e:	e8 bd 99 01 00       	call   1db10 <putchar>
    4153:	89 1c 24             	mov    %ebx,(%esp)
    4156:	e8 35 ce 01 00       	call   20f90 <console_flush>
    415b:	89 1c 24             	mov    %ebx,(%esp)
    415e:	c7 44 24 08 df 00 00 	movl   $0xdf,0x8(%esp)
    4165:	00 
    4166:	c7 44 24 04 20 00 00 	movl   $0x20,0x4(%esp)
    416d:	00 
    416e:	e8 7d d0 01 00       	call   211f0 <console_set_rgb_color>
    4173:	c7 04 24 58 00 00 00 	movl   $0x58,(%esp)
    417a:	e8 91 99 01 00       	call   1db10 <putchar>
    417f:	89 1c 24             	mov    %ebx,(%esp)
    4182:	e8 09 ce 01 00       	call   20f90 <console_flush>
    4187:	89 1c 24             	mov    %ebx,(%esp)
    418a:	c7 44 24 08 cf 00 00 	movl   $0xcf,0x8(%esp)
    4191:	00 
    4192:	c7 44 24 04 30 00 00 	movl   $0x30,0x4(%esp)
    4199:	00 
    419a:	e8 51 d0 01 00       	call   211f0 <console_set_rgb_color>
    419f:	c7 04 24 58 00 00 00 	movl   $0x58,(%esp)
    41a6:	e8 65 99 01 00       	call   1db10 <putchar>
    41ab:	89 1c 24             	mov    %ebx,(%esp)
    41ae:	e8 dd cd 01 00       	call   20f90 <console_flush>
    41b3:	89 1c 24             	mov    %ebx,(%esp)
    41b6:	c7 44 24 08 bf 00 00 	movl   $0xbf,0x8(%esp)
    41bd:	00 
    41be:	c7 44 24 04 40 00 00 	movl   $0x40,0x4(%esp)
    41c5:	00 
    41c6:	e8 25 d0 01 00       	call   211f0 <console_set_rgb_color>
    41cb:	c7 04 24 58 00 00 00 	movl   $0x58,(%esp)
    41d2:	e8 39 99 01 00       	call   1db10 <putchar>
    41d7:	89 1c 24             	mov    %ebx,(%esp)
    41da:	e8 b1 cd 01 00       	call   20f90 <console_flush>
    41df:	89 1c 24             	mov    %ebx,(%esp)
    41e2:	c7 44 24 08 af 00 00 	movl   $0xaf,0x8(%esp)
    41e9:	00 
    41ea:	c7 44 24 04 50 00 00 	movl   $0x50,0x4(%esp)
    41f1:	00 
    41f2:	e8 f9 cf 01 00       	call   211f0 <console_set_rgb_color>
    41f7:	c7 04 24 58 00 00 00 	movl   $0x58,(%esp)
    41fe:	e8 0d 99 01 00       	call   1db10 <putchar>
    4203:	89 1c 24             	mov    %ebx,(%esp)
    4206:	e8 85 cd 01 00       	call   20f90 <console_flush>
    420b:	89 1c 24             	mov    %ebx,(%esp)
    420e:	c7 44 24 08 9f 00 00 	movl   $0x9f,0x8(%esp)
    4215:	00 
    4216:	c7 44 24 04 60 00 00 	movl   $0x60,0x4(%esp)
    421d:	00 
    421e:	e8 cd cf 01 00       	call   211f0 <console_set_rgb_color>
    4223:	c7 04 24 58 00 00 00 	movl   $0x58,(%esp)
    422a:	e8 e1 98 01 00       	call   1db10 <putchar>
    422f:	89 1c 24             	mov    %ebx,(%esp)
    4232:	e8 59 cd 01 00       	call   20f90 <console_flush>
    4237:	89 1c 24             	mov    %ebx,(%esp)
    423a:	c7 44 24 08 8f 00 00 	movl   $0x8f,0x8(%esp)
    4241:	00 
    4242:	c7 44 24 04 70 00 00 	movl   $0x70,0x4(%esp)
    4249:	00 
    424a:	e8 a1 cf 01 00       	call   211f0 <console_set_rgb_color>
    424f:	c7 04 24 58 00 00 00 	movl   $0x58,(%esp)
    4256:	e8 b5 98 01 00       	call   1db10 <putchar>
    425b:	89 1c 24             	mov    %ebx,(%esp)
    425e:	e8 2d cd 01 00       	call   20f90 <console_flush>
    4263:	89 1c 24             	mov    %ebx,(%esp)
    4266:	c7 44 24 08 7f 00 00 	movl   $0x7f,0x8(%esp)
    426d:	00 
    426e:	c7 44 24 04 80 00 00 	movl   $0x80,0x4(%esp)
    4275:	00 
    4276:	e8 75 cf 01 00       	call   211f0 <console_set_rgb_color>
    427b:	c7 04 24 58 00 00 00 	movl   $0x58,(%esp)
    4282:	e8 89 98 01 00       	call   1db10 <putchar>
    4287:	89 1c 24             	mov    %ebx,(%esp)
    428a:	e8 01 cd 01 00       	call   20f90 <console_flush>
    428f:	89 1c 24             	mov    %ebx,(%esp)
    4292:	c7 44 24 08 6f 00 00 	movl   $0x6f,0x8(%esp)
    4299:	00 
    429a:	c7 44 24 04 90 00 00 	movl   $0x90,0x4(%esp)
    42a1:	00 
    42a2:	e8 49 cf 01 00       	call   211f0 <console_set_rgb_color>
    42a7:	c7 04 24 58 00 00 00 	movl   $0x58,(%esp)
    42ae:	e8 5d 98 01 00       	call   1db10 <putchar>
    42b3:	89 1c 24             	mov    %ebx,(%esp)
    42b6:	e8 d5 cc 01 00       	call   20f90 <console_flush>
    42bb:	89 1c 24             	mov    %ebx,(%esp)
    42be:	c7 44 24 08 5f 00 00 	movl   $0x5f,0x8(%esp)
    42c5:	00 
    42c6:	c7 44 24 04 a0 00 00 	movl   $0xa0,0x4(%esp)
    42cd:	00 
    42ce:	e8 1d cf 01 00       	call   211f0 <console_set_rgb_color>
    42d3:	c7 04 24 58 00 00 00 	movl   $0x58,(%esp)
    42da:	e8 31 98 01 00       	call   1db10 <putchar>
    42df:	89 1c 24             	mov    %ebx,(%esp)
    42e2:	e8 a9 cc 01 00       	call   20f90 <console_flush>
    42e7:	89 1c 24             	mov    %ebx,(%esp)
    42ea:	c7 44 24 08 4f 00 00 	movl   $0x4f,0x8(%esp)
    42f1:	00 
    42f2:	c7 44 24 04 b0 00 00 	movl   $0xb0,0x4(%esp)
    42f9:	00 
    42fa:	e8 f1 ce 01 00       	call   211f0 <console_set_rgb_color>
    42ff:	c7 04 24 58 00 00 00 	movl   $0x58,(%esp)
    4306:	e8 05 98 01 00       	call   1db10 <putchar>
    430b:	89 1c 24             	mov    %ebx,(%esp)
    430e:	e8 7d cc 01 00       	call   20f90 <console_flush>
    4313:	89 1c 24             	mov    %ebx,(%esp)
    4316:	c7 44 24 08 3f 00 00 	movl   $0x3f,0x8(%esp)
    431d:	00 
    431e:	c7 44 24 04 c0 00 00 	movl   $0xc0,0x4(%esp)
    4325:	00 
    4326:	e8 c5 ce 01 00       	call   211f0 <console_set_rgb_color>
    432b:	c7 04 24 58 00 00 00 	movl   $0x58,(%esp)
    4332:	e8 d9 97 01 00       	call   1db10 <putchar>
    4337:	89 1c 24             	mov    %ebx,(%esp)
    433a:	e8 51 cc 01 00       	call   20f90 <console_flush>
    433f:	89 1c 24             	mov    %ebx,(%esp)
    4342:	c7 44 24 08 2f 00 00 	movl   $0x2f,0x8(%esp)
    4349:	00 
    434a:	c7 44 24 04 d0 00 00 	movl   $0xd0,0x4(%esp)
    4351:	00 
    4352:	e8 99 ce 01 00       	call   211f0 <console_set_rgb_color>
    4357:	c7 04 24 58 00 00 00 	movl   $0x58,(%esp)
    435e:	e8 ad 97 01 00       	call   1db10 <putchar>
    4363:	89 1c 24             	mov    %ebx,(%esp)
    4366:	e8 25 cc 01 00       	call   20f90 <console_flush>
    436b:	89 1c 24             	mov    %ebx,(%esp)
    436e:	c7 44 24 08 1f 00 00 	movl   $0x1f,0x8(%esp)
    4375:	00 
    4376:	c7 44 24 04 e0 00 00 	movl   $0xe0,0x4(%esp)
    437d:	00 
    437e:	e8 6d ce 01 00       	call   211f0 <console_set_rgb_color>
    4383:	c7 04 24 58 00 00 00 	movl   $0x58,(%esp)
    438a:	e8 81 97 01 00       	call   1db10 <putchar>
    438f:	89 1c 24             	mov    %ebx,(%esp)
    4392:	e8 f9 cb 01 00       	call   20f90 <console_flush>
    4397:	89 1c 24             	mov    %ebx,(%esp)
    439a:	c7 44 24 08 0f 00 00 	movl   $0xf,0x8(%esp)
    43a1:	00 
    43a2:	c7 44 24 04 f0 00 00 	movl   $0xf0,0x4(%esp)
    43a9:	00 
    43aa:	e8 41 ce 01 00       	call   211f0 <console_set_rgb_color>
    43af:	c7 04 24 58 00 00 00 	movl   $0x58,(%esp)
    43b6:	e8 55 97 01 00       	call   1db10 <putchar>
    43bb:	89 1c 24             	mov    %ebx,(%esp)
    43be:	e8 cd cb 01 00       	call   20f90 <console_flush>
    43c3:	89 1c 24             	mov    %ebx,(%esp)
    43c6:	c7 44 24 04 00 00 00 	movl   $0x0,0x4(%esp)
    43cd:	00 
    43ce:	e8 ed cc 01 00       	call   210c0 <console_set_style>
    43d3:	c7 04 24 0a 00 00 00 	movl   $0xa,(%esp)
    43da:	e8 31 97 01 00       	call   1db10 <putchar>
    43df:	83 c4 14             	add    $0x14,%esp
    43e2:	31 c0                	xor    %eax,%eax
    43e4:	5b                   	pop    %ebx
    43e5:	5d                   	pop    %ebp
    43e6:	c3                   	ret    
    43e7:	66 90                	xchg   %ax,%ax
    43e9:	66 90                	xchg   %ax,%ax
    43eb:	66 90                	xchg   %ax,%ax
    43ed:	66 90                	xchg   %ax,%ax
    43ef:	90                   	nop

000043f0 <test_stdio1>:
    43f0:	55                   	push   %ebp
    43f1:	89 e5                	mov    %esp,%ebp
    43f3:	57                   	push   %edi
    43f4:	56                   	push   %esi
    43f5:	53                   	push   %ebx
    43f6:	83 ec 1c             	sub    $0x1c,%esp
    43f9:	80 3d a0 69 03 00 00 	cmpb   $0x0,0x369a0
    4400:	0f 84 02 01 00 00    	je     4508 <test_stdio1+0x118>
    4406:	e8 05 f3 00 00       	call   13710 <__errno>
    440b:	89 c6                	mov    %eax,%esi
    440d:	c7 00 00 00 00 00    	movl   $0x0,(%eax)
    4413:	c7 44 24 04 5b 41 03 	movl   $0x3415b,0x4(%esp)
    441a:	00 
    441b:	c7 04 24 7d 26 03 00 	movl   $0x3267d,(%esp)
    4422:	e8 49 7a 01 00       	call   1be70 <fopen>
    4427:	89 c3                	mov    %eax,%ebx
    4429:	85 c0                	test   %eax,%eax
    442b:	0f 84 87 02 00 00    	je     46b8 <test_stdio1+0x2c8>
    4431:	80 3d a0 69 03 00 00 	cmpb   $0x0,0x369a0
    4438:	0f 84 f2 00 00 00    	je     4530 <test_stdio1+0x140>
    443e:	89 5c 24 0c          	mov    %ebx,0xc(%esp)
    4442:	c7 44 24 08 20 00 00 	movl   $0x20,0x8(%esp)
    4449:	00 
    444a:	c7 44 24 04 01 00 00 	movl   $0x1,0x4(%esp)
    4451:	00 
    4452:	c7 04 24 e0 69 03 00 	movl   $0x369e0,(%esp)
    4459:	e8 b2 7e 01 00       	call   1c310 <fread>
    445e:	89 1c 24             	mov    %ebx,(%esp)
    4461:	89 c7                	mov    %eax,%edi
    4463:	e8 78 98 01 00       	call   1dce0 <ferror>
    4468:	85 c0                	test   %eax,%eax
    446a:	74 3c                	je     44a8 <test_stdio1+0xb8>
    446c:	80 3d a0 69 03 00 00 	cmpb   $0x0,0x369a0
    4473:	75 1b                	jne    4490 <test_stdio1+0xa0>
    4475:	8b 06                	mov    (%esi),%eax
    4477:	c7 44 24 04 99 26 03 	movl   $0x32699,0x4(%esp)
    447e:	00 
    447f:	89 44 24 08          	mov    %eax,0x8(%esp)
    4483:	a1 38 6a 03 00       	mov    0x36a38,%eax
    4488:	89 04 24             	mov    %eax,(%esp)
    448b:	e8 10 99 01 00       	call   1dda0 <fprintf>
    4490:	89 1c 24             	mov    %ebx,(%esp)
    4493:	bb 3e 26 03 00       	mov    $0x3263e,%ebx
    4498:	e8 c3 7c 01 00       	call   1c160 <fclose>
    449d:	83 c4 1c             	add    $0x1c,%esp
    44a0:	89 d8                	mov    %ebx,%eax
    44a2:	5b                   	pop    %ebx
    44a3:	5e                   	pop    %esi
    44a4:	5f                   	pop    %edi
    44a5:	5d                   	pop    %ebp
    44a6:	c3                   	ret    
    44a7:	90                   	nop
    44a8:	80 3d a0 69 03 00 00 	cmpb   $0x0,0x369a0
    44af:	0f 84 23 02 00 00    	je     46d8 <test_stdio1+0x2e8>
    44b5:	c6 87 e0 69 03 00 00 	movb   $0x0,0x369e0(%edi)
    44bc:	c7 44 24 0c 00 00 00 	movl   $0x0,0xc(%esp)
    44c3:	00 
    44c4:	c7 44 24 04 00 00 00 	movl   $0x0,0x4(%esp)
    44cb:	00 
    44cc:	c7 44 24 08 00 00 00 	movl   $0x0,0x8(%esp)
    44d3:	00 
    44d4:	89 1c 24             	mov    %ebx,(%esp)
    44d7:	e8 d4 88 01 00       	call   1cdb0 <fseek>
    44dc:	85 c0                	test   %eax,%eax
    44de:	0f 84 8c 00 00 00    	je     4570 <test_stdio1+0x180>
    44e4:	80 3d a0 69 03 00 00 	cmpb   $0x0,0x369a0
    44eb:	0f 84 67 01 00 00    	je     4658 <test_stdio1+0x268>
    44f1:	89 1c 24             	mov    %ebx,(%esp)
    44f4:	bb 52 26 03 00       	mov    $0x32652,%ebx
    44f9:	e8 62 7c 01 00       	call   1c160 <fclose>
    44fe:	83 c4 1c             	add    $0x1c,%esp
    4501:	89 d8                	mov    %ebx,%eax
    4503:	5b                   	pop    %ebx
    4504:	5e                   	pop    %esi
    4505:	5f                   	pop    %edi
    4506:	5d                   	pop    %ebp
    4507:	c3                   	ret    
    4508:	a1 38 6a 03 00       	mov    0x36a38,%eax
    450d:	c7 44 24 08 7d 26 03 	movl   $0x3267d,0x8(%esp)
    4514:	00 
    4515:	c7 44 24 04 87 26 03 	movl   $0x32687,0x4(%esp)
    451c:	00 
    451d:	89 04 24             	mov    %eax,(%esp)
    4520:	e8 7b 98 01 00       	call   1dda0 <fprintf>
    4525:	e9 dc fe ff ff       	jmp    4406 <test_stdio1+0x16>
    452a:	8d b6 00 00 00 00    	lea    0x0(%esi),%esi
    4530:	a1 38 6a 03 00       	mov    0x36a38,%eax
    4535:	c7 44 24 04 a5 26 03 	movl   $0x326a5,0x4(%esp)
    453c:	00 
    453d:	89 04 24             	mov    %eax,(%esp)
    4540:	e8 5b 98 01 00       	call   1dda0 <fprintf>
    4545:	80 3d a0 69 03 00 00 	cmpb   $0x0,0x369a0
    454c:	0f 85 ec fe ff ff    	jne    443e <test_stdio1+0x4e>
    4552:	a1 38 6a 03 00       	mov    0x36a38,%eax
    4557:	c7 44 24 04 a9 26 03 	movl   $0x326a9,0x4(%esp)
    455e:	00 
    455f:	89 04 24             	mov    %eax,(%esp)
    4562:	e8 39 98 01 00       	call   1dda0 <fprintf>
    4567:	e9 d2 fe ff ff       	jmp    443e <test_stdio1+0x4e>
    456c:	8d 74 26 00          	lea    0x0(%esi,%eiz,1),%esi
    4570:	80 3d a0 69 03 00 00 	cmpb   $0x0,0x369a0
    4577:	75 40                	jne    45b9 <test_stdio1+0x1c9>
    4579:	a1 38 6a 03 00       	mov    0x36a38,%eax
    457e:	c7 44 24 04 a5 26 03 	movl   $0x326a5,0x4(%esp)
    4585:	00 
    4586:	89 04 24             	mov    %eax,(%esp)
    4589:	e8 12 98 01 00       	call   1dda0 <fprintf>
    458e:	80 3d a0 69 03 00 00 	cmpb   $0x0,0x369a0
    4595:	75 22                	jne    45b9 <test_stdio1+0x1c9>
    4597:	a1 38 6a 03 00       	mov    0x36a38,%eax
    459c:	c7 44 24 04 e8 26 03 	movl   $0x326e8,0x4(%esp)
    45a3:	00 
    45a4:	89 04 24             	mov    %eax,(%esp)
    45a7:	e8 f4 97 01 00       	call   1dda0 <fprintf>
    45ac:	eb 0b                	jmp    45b9 <test_stdio1+0x1c9>
    45ae:	66 90                	xchg   %ax,%ax
    45b0:	80 3d a0 69 03 00 00 	cmpb   $0x0,0x369a0
    45b7:	74 57                	je     4610 <test_stdio1+0x220>
    45b9:	89 1c 24             	mov    %ebx,(%esp)
    45bc:	e8 7f 7f 01 00       	call   1c540 <fgetc>
    45c1:	40                   	inc    %eax
    45c2:	75 ec                	jne    45b0 <test_stdio1+0x1c0>
    45c4:	80 3d a0 69 03 00 00 	cmpb   $0x0,0x369a0
    45cb:	0f 84 a7 00 00 00    	je     4678 <test_stdio1+0x288>
    45d1:	89 1c 24             	mov    %ebx,(%esp)
    45d4:	e8 87 7b 01 00       	call   1c160 <fclose>
    45d9:	85 c0                	test   %eax,%eax
    45db:	74 4b                	je     4628 <test_stdio1+0x238>
    45dd:	bb 69 26 03 00       	mov    $0x32669,%ebx
    45e2:	80 3d a0 69 03 00 00 	cmpb   $0x0,0x369a0
    45e9:	0f 85 ae fe ff ff    	jne    449d <test_stdio1+0xad>
    45ef:	8b 06                	mov    (%esi),%eax
    45f1:	c7 44 24 04 99 26 03 	movl   $0x32699,0x4(%esp)
    45f8:	00 
    45f9:	89 44 24 08          	mov    %eax,0x8(%esp)
    45fd:	a1 38 6a 03 00       	mov    0x36a38,%eax
    4602:	89 04 24             	mov    %eax,(%esp)
    4605:	e8 96 97 01 00       	call   1dda0 <fprintf>
    460a:	e9 8e fe ff ff       	jmp    449d <test_stdio1+0xad>
    460f:	90                   	nop
    4610:	a1 38 6a 03 00       	mov    0x36a38,%eax
    4615:	c7 44 24 04 ee 27 03 	movl   $0x327ee,0x4(%esp)
    461c:	00 
    461d:	89 04 24             	mov    %eax,(%esp)
    4620:	e8 7b 97 01 00       	call   1dda0 <fprintf>
    4625:	eb 92                	jmp    45b9 <test_stdio1+0x1c9>
    4627:	90                   	nop
    4628:	31 db                	xor    %ebx,%ebx
    462a:	80 3d a0 69 03 00 00 	cmpb   $0x0,0x369a0
    4631:	0f 85 66 fe ff ff    	jne    449d <test_stdio1+0xad>
    4637:	a1 38 6a 03 00       	mov    0x36a38,%eax
    463c:	c7 44 24 04 a5 26 03 	movl   $0x326a5,0x4(%esp)
    4643:	00 
    4644:	89 04 24             	mov    %eax,(%esp)
    4647:	e8 54 97 01 00       	call   1dda0 <fprintf>
    464c:	e9 4c fe ff ff       	jmp    449d <test_stdio1+0xad>
    4651:	8d b4 26 00 00 00 00 	lea    0x0(%esi,%eiz,1),%esi
    4658:	8b 06                	mov    (%esi),%eax
    465a:	c7 44 24 04 99 26 03 	movl   $0x32699,0x4(%esp)
    4661:	00 
    4662:	89 44 24 08          	mov    %eax,0x8(%esp)
    4666:	a1 38 6a 03 00       	mov    0x36a38,%eax
    466b:	89 04 24             	mov    %eax,(%esp)
    466e:	e8 2d 97 01 00       	call   1dda0 <fprintf>
    4673:	e9 79 fe ff ff       	jmp    44f1 <test_stdio1+0x101>
    4678:	a1 38 6a 03 00       	mov    0x36a38,%eax
    467d:	c7 44 24 04 fe 26 03 	movl   $0x326fe,0x4(%esp)
    4684:	00 
    4685:	89 04 24             	mov    %eax,(%esp)
    4688:	e8 13 97 01 00       	call   1dda0 <fprintf>
    468d:	80 3d a0 69 03 00 00 	cmpb   $0x0,0x369a0
    4694:	0f 85 37 ff ff ff    	jne    45d1 <test_stdio1+0x1e1>
    469a:	a1 38 6a 03 00       	mov    0x36a38,%eax
    469f:	c7 44 24 04 8d 27 03 	movl   $0x3278d,0x4(%esp)
    46a6:	00 
    46a7:	89 04 24             	mov    %eax,(%esp)
    46aa:	e8 f1 96 01 00       	call   1dda0 <fprintf>
    46af:	e9 1d ff ff ff       	jmp    45d1 <test_stdio1+0x1e1>
    46b4:	8d 74 26 00          	lea    0x0(%esi,%eiz,1),%esi
    46b8:	bb 2a 26 03 00       	mov    $0x3262a,%ebx
    46bd:	80 3d a0 69 03 00 00 	cmpb   $0x0,0x369a0
    46c4:	0f 84 25 ff ff ff    	je     45ef <test_stdio1+0x1ff>
    46ca:	83 c4 1c             	add    $0x1c,%esp
    46cd:	89 d8                	mov    %ebx,%eax
    46cf:	5b                   	pop    %ebx
    46d0:	5e                   	pop    %esi
    46d1:	5f                   	pop    %edi
    46d2:	5d                   	pop    %ebp
    46d3:	c3                   	ret    
    46d4:	8d 74 26 00          	lea    0x0(%esi,%eiz,1),%esi
    46d8:	a1 38 6a 03 00       	mov    0x36a38,%eax
    46dd:	c7 44 24 04 a5 26 03 	movl   $0x326a5,0x4(%esp)
    46e4:	00 
    46e5:	89 04 24             	mov    %eax,(%esp)
    46e8:	e8 b3 96 01 00       	call   1dda0 <fprintf>
    46ed:	c6 87 e0 69 03 00 00 	movb   $0x0,0x369e0(%edi)
    46f4:	80 3d a0 69 03 00 00 	cmpb   $0x0,0x369a0
    46fb:	0f 85 bb fd ff ff    	jne    44bc <test_stdio1+0xcc>
    4701:	a1 38 6a 03 00       	mov    0x36a38,%eax
    4706:	c7 44 24 0c e0 69 03 	movl   $0x369e0,0xc(%esp)
    470d:	00 
    470e:	89 7c 24 08          	mov    %edi,0x8(%esp)
    4712:	c7 44 24 04 b6 26 03 	movl   $0x326b6,0x4(%esp)
    4719:	00 
    471a:	89 04 24             	mov    %eax,(%esp)
    471d:	e8 7e 96 01 00       	call   1dda0 <fprintf>
    4722:	80 3d a0 69 03 00 00 	cmpb   $0x0,0x369a0
    4729:	0f 85 8d fd ff ff    	jne    44bc <test_stdio1+0xcc>
    472f:	a1 38 6a 03 00       	mov    0x36a38,%eax
    4734:	c7 44 24 04 d3 26 03 	movl   $0x326d3,0x4(%esp)
    473b:	00 
    473c:	89 04 24             	mov    %eax,(%esp)
    473f:	e8 5c 96 01 00       	call   1dda0 <fprintf>
    4744:	e9 73 fd ff ff       	jmp    44bc <test_stdio1+0xcc>
    4749:	66 90                	xchg   %ax,%ax
    474b:	66 90                	xchg   %ax,%ax
    474d:	66 90                	xchg   %ax,%ax
    474f:	90                   	nop

00004750 <test_stdio2>:
    4750:	55                   	push   %ebp
    4751:	89 e5                	mov    %esp,%ebp
    4753:	56                   	push   %esi
    4754:	53                   	push   %ebx
    4755:	83 ec 10             	sub    $0x10,%esp
    4758:	80 3d a0 69 03 00 00 	cmpb   $0x0,0x369a0
    475f:	0f 84 4b 01 00 00    	je     48b0 <test_stdio2+0x160>
    4765:	e8 a6 ef 00 00       	call   13710 <__errno>
    476a:	89 c6                	mov    %eax,%esi
    476c:	c7 00 00 00 00 00    	movl   $0x0,(%eax)
    4772:	c7 44 24 04 29 27 03 	movl   $0x32729,0x4(%esp)
    4779:	00 
    477a:	c7 04 24 05 27 03 00 	movl   $0x32705,(%esp)
    4781:	e8 ea 76 01 00       	call   1be70 <fopen>
    4786:	89 c3                	mov    %eax,%ebx
    4788:	85 c0                	test   %eax,%eax
    478a:	0f 84 c8 01 00 00    	je     4958 <test_stdio2+0x208>
    4790:	80 3d a0 69 03 00 00 	cmpb   $0x0,0x369a0
    4797:	0f 84 7b 01 00 00    	je     4918 <test_stdio2+0x1c8>
    479d:	c7 44 24 0c 3d 27 03 	movl   $0x3273d,0xc(%esp)
    47a4:	00 
    47a5:	c7 44 24 08 2a 00 00 	movl   $0x2a,0x8(%esp)
    47ac:	00 
    47ad:	c7 44 24 04 44 27 03 	movl   $0x32744,0x4(%esp)
    47b4:	00 
    47b5:	89 1c 24             	mov    %ebx,(%esp)
    47b8:	e8 e3 95 01 00       	call   1dda0 <fprintf>
    47bd:	80 3d a0 69 03 00 00 	cmpb   $0x0,0x369a0
    47c4:	0f 84 0e 01 00 00    	je     48d8 <test_stdio2+0x188>
    47ca:	89 1c 24             	mov    %ebx,(%esp)
    47cd:	e8 8e 79 01 00       	call   1c160 <fclose>
    47d2:	85 c0                	test   %eax,%eax
    47d4:	0f 85 96 00 00 00    	jne    4870 <test_stdio2+0x120>
    47da:	80 3d a0 69 03 00 00 	cmpb   $0x0,0x369a0
    47e1:	0f 84 c9 01 00 00    	je     49b0 <test_stdio2+0x260>
    47e7:	c7 44 24 04 5b 41 03 	movl   $0x3415b,0x4(%esp)
    47ee:	00 
    47ef:	c7 04 24 05 27 03 00 	movl   $0x32705,(%esp)
    47f6:	e8 75 76 01 00       	call   1be70 <fopen>
    47fb:	89 c3                	mov    %eax,%ebx
    47fd:	85 c0                	test   %eax,%eax
    47ff:	0f 84 53 01 00 00    	je     4958 <test_stdio2+0x208>
    4805:	80 3d a0 69 03 00 00 	cmpb   $0x0,0x369a0
    480c:	75 13                	jne    4821 <test_stdio2+0xd1>
    480e:	e9 e1 01 00 00       	jmp    49f4 <test_stdio2+0x2a4>
    4813:	90                   	nop
    4814:	8d 74 26 00          	lea    0x0(%esi,%eiz,1),%esi
    4818:	80 3d a0 69 03 00 00 	cmpb   $0x0,0x369a0
    481f:	74 6f                	je     4890 <test_stdio2+0x140>
    4821:	89 1c 24             	mov    %ebx,(%esp)
    4824:	e8 17 7d 01 00       	call   1c540 <fgetc>
    4829:	83 f8 ff             	cmp    $0xffffffff,%eax
    482c:	75 ea                	jne    4818 <test_stdio2+0xc8>
    482e:	80 3d a0 69 03 00 00 	cmpb   $0x0,0x369a0
    4835:	0f 84 f5 01 00 00    	je     4a30 <test_stdio2+0x2e0>
    483b:	89 1c 24             	mov    %ebx,(%esp)
    483e:	e8 1d 79 01 00       	call   1c160 <fclose>
    4843:	85 c0                	test   %eax,%eax
    4845:	75 29                	jne    4870 <test_stdio2+0x120>
    4847:	31 db                	xor    %ebx,%ebx
    4849:	80 3d a0 69 03 00 00 	cmpb   $0x0,0x369a0
    4850:	75 30                	jne    4882 <test_stdio2+0x132>
    4852:	a1 38 6a 03 00       	mov    0x36a38,%eax
    4857:	c7 44 24 04 a5 26 03 	movl   $0x326a5,0x4(%esp)
    485e:	00 
    485f:	89 04 24             	mov    %eax,(%esp)
    4862:	e8 39 95 01 00       	call   1dda0 <fprintf>
    4867:	eb 19                	jmp    4882 <test_stdio2+0x132>
    4869:	8d b4 26 00 00 00 00 	lea    0x0(%esi,%eiz,1),%esi
    4870:	80 3d a0 69 03 00 00 	cmpb   $0x0,0x369a0
    4877:	0f 84 f3 00 00 00    	je     4970 <test_stdio2+0x220>
    487d:	bb 69 26 03 00       	mov    $0x32669,%ebx
    4882:	83 c4 10             	add    $0x10,%esp
    4885:	89 d8                	mov    %ebx,%eax
    4887:	5b                   	pop    %ebx
    4888:	5e                   	pop    %esi
    4889:	5d                   	pop    %ebp
    488a:	c3                   	ret    
    488b:	90                   	nop
    488c:	8d 74 26 00          	lea    0x0(%esi,%eiz,1),%esi
    4890:	89 44 24 08          	mov    %eax,0x8(%esp)
    4894:	a1 38 6a 03 00       	mov    0x36a38,%eax
    4899:	c7 44 24 04 ed 1a 03 	movl   $0x31aed,0x4(%esp)
    48a0:	00 
    48a1:	89 04 24             	mov    %eax,(%esp)
    48a4:	e8 f7 94 01 00       	call   1dda0 <fprintf>
    48a9:	e9 73 ff ff ff       	jmp    4821 <test_stdio2+0xd1>
    48ae:	66 90                	xchg   %ax,%ax
    48b0:	a1 38 6a 03 00       	mov    0x36a38,%eax
    48b5:	c7 44 24 08 05 27 03 	movl   $0x32705,0x8(%esp)
    48bc:	00 
    48bd:	c7 44 24 04 0b 27 03 	movl   $0x3270b,0x4(%esp)
    48c4:	00 
    48c5:	89 04 24             	mov    %eax,(%esp)
    48c8:	e8 d3 94 01 00       	call   1dda0 <fprintf>
    48cd:	e9 93 fe ff ff       	jmp    4765 <test_stdio2+0x15>
    48d2:	8d b6 00 00 00 00    	lea    0x0(%esi),%esi
    48d8:	a1 38 6a 03 00       	mov    0x36a38,%eax
    48dd:	c7 44 24 04 a5 26 03 	movl   $0x326a5,0x4(%esp)
    48e4:	00 
    48e5:	89 04 24             	mov    %eax,(%esp)
    48e8:	e8 b3 94 01 00       	call   1dda0 <fprintf>
    48ed:	80 3d a0 69 03 00 00 	cmpb   $0x0,0x369a0
    48f4:	0f 85 d0 fe ff ff    	jne    47ca <test_stdio2+0x7a>
    48fa:	a1 38 6a 03 00       	mov    0x36a38,%eax
    48ff:	c7 44 24 04 8d 27 03 	movl   $0x3278d,0x4(%esp)
    4906:	00 
    4907:	89 04 24             	mov    %eax,(%esp)
    490a:	e8 91 94 01 00       	call   1dda0 <fprintf>
    490f:	e9 b6 fe ff ff       	jmp    47ca <test_stdio2+0x7a>
    4914:	8d 74 26 00          	lea    0x0(%esi,%eiz,1),%esi
    4918:	a1 38 6a 03 00       	mov    0x36a38,%eax
    491d:	c7 44 24 04 a5 26 03 	movl   $0x326a5,0x4(%esp)
    4924:	00 
    4925:	89 04 24             	mov    %eax,(%esp)
    4928:	e8 73 94 01 00       	call   1dda0 <fprintf>
    492d:	80 3d a0 69 03 00 00 	cmpb   $0x0,0x369a0
    4934:	0f 85 63 fe ff ff    	jne    479d <test_stdio2+0x4d>
    493a:	a1 38 6a 03 00       	mov    0x36a38,%eax
    493f:	c7 44 24 04 2c 27 03 	movl   $0x3272c,0x4(%esp)
    4946:	00 
    4947:	89 04 24             	mov    %eax,(%esp)
    494a:	e8 51 94 01 00       	call   1dda0 <fprintf>
    494f:	e9 49 fe ff ff       	jmp    479d <test_stdio2+0x4d>
    4954:	8d 74 26 00          	lea    0x0(%esi,%eiz,1),%esi
    4958:	80 3d a0 69 03 00 00 	cmpb   $0x0,0x369a0
    495f:	74 2f                	je     4990 <test_stdio2+0x240>
    4961:	83 c4 10             	add    $0x10,%esp
    4964:	bb 2a 26 03 00       	mov    $0x3262a,%ebx
    4969:	89 d8                	mov    %ebx,%eax
    496b:	5b                   	pop    %ebx
    496c:	5e                   	pop    %esi
    496d:	5d                   	pop    %ebp
    496e:	c3                   	ret    
    496f:	90                   	nop
    4970:	8b 06                	mov    (%esi),%eax
    4972:	c7 44 24 04 99 26 03 	movl   $0x32699,0x4(%esp)
    4979:	00 
    497a:	89 44 24 08          	mov    %eax,0x8(%esp)
    497e:	a1 38 6a 03 00       	mov    0x36a38,%eax
    4983:	89 04 24             	mov    %eax,(%esp)
    4986:	e8 15 94 01 00       	call   1dda0 <fprintf>
    498b:	e9 ed fe ff ff       	jmp    487d <test_stdio2+0x12d>
    4990:	8b 06                	mov    (%esi),%eax
    4992:	c7 44 24 04 99 26 03 	movl   $0x32699,0x4(%esp)
    4999:	00 
    499a:	89 44 24 08          	mov    %eax,0x8(%esp)
    499e:	a1 38 6a 03 00       	mov    0x36a38,%eax
    49a3:	89 04 24             	mov    %eax,(%esp)
    49a6:	e8 f5 93 01 00       	call   1dda0 <fprintf>
    49ab:	eb b4                	jmp    4961 <test_stdio2+0x211>
    49ad:	8d 76 00             	lea    0x0(%esi),%esi
    49b0:	a1 38 6a 03 00       	mov    0x36a38,%eax
    49b5:	c7 44 24 04 a5 26 03 	movl   $0x326a5,0x4(%esp)
    49bc:	00 
    49bd:	89 04 24             	mov    %eax,(%esp)
    49c0:	e8 db 93 01 00       	call   1dda0 <fprintf>
    49c5:	80 3d a0 69 03 00 00 	cmpb   $0x0,0x369a0
    49cc:	0f 85 15 fe ff ff    	jne    47e7 <test_stdio2+0x97>
    49d2:	a1 38 6a 03 00       	mov    0x36a38,%eax
    49d7:	c7 44 24 08 05 27 03 	movl   $0x32705,0x8(%esp)
    49de:	00 
    49df:	c7 44 24 04 5e 27 03 	movl   $0x3275e,0x4(%esp)
    49e6:	00 
    49e7:	89 04 24             	mov    %eax,(%esp)
    49ea:	e8 b1 93 01 00       	call   1dda0 <fprintf>
    49ef:	e9 f3 fd ff ff       	jmp    47e7 <test_stdio2+0x97>
    49f4:	a1 38 6a 03 00       	mov    0x36a38,%eax
    49f9:	c7 44 24 04 a5 26 03 	movl   $0x326a5,0x4(%esp)
    4a00:	00 
    4a01:	89 04 24             	mov    %eax,(%esp)
    4a04:	e8 97 93 01 00       	call   1dda0 <fprintf>
    4a09:	80 3d a0 69 03 00 00 	cmpb   $0x0,0x369a0
    4a10:	0f 85 0b fe ff ff    	jne    4821 <test_stdio2+0xd1>
    4a16:	a1 38 6a 03 00       	mov    0x36a38,%eax
    4a1b:	c7 44 24 04 7c 27 03 	movl   $0x3277c,0x4(%esp)
    4a22:	00 
    4a23:	89 04 24             	mov    %eax,(%esp)
    4a26:	e8 75 93 01 00       	call   1dda0 <fprintf>
    4a2b:	e9 f1 fd ff ff       	jmp    4821 <test_stdio2+0xd1>
    4a30:	a1 38 6a 03 00       	mov    0x36a38,%eax
    4a35:	c7 44 24 04 8c 27 03 	movl   $0x3278c,0x4(%esp)
    4a3c:	00 
    4a3d:	89 04 24             	mov    %eax,(%esp)
    4a40:	e8 5b 93 01 00       	call   1dda0 <fprintf>
    4a45:	e9 f1 fd ff ff       	jmp    483b <test_stdio2+0xeb>
    4a4a:	66 90                	xchg   %ax,%ax
    4a4c:	66 90                	xchg   %ax,%ax
    4a4e:	66 90                	xchg   %ax,%ax

00004a50 <test_logger1>:
    4a50:	55                   	push   %ebp
    4a51:	89 e5                	mov    %esp,%ebp
    4a53:	83 ec 18             	sub    $0x18,%esp
    4a56:	c7 44 24 0c 00 00 00 	movl   $0x0,0xc(%esp)
    4a5d:	00 
    4a5e:	c7 44 24 08 96 27 03 	movl   $0x32796,0x8(%esp)
    4a65:	00 
    4a66:	c7 44 24 04 00 00 00 	movl   $0x0,0x4(%esp)
    4a6d:	00 
    4a6e:	c7 04 24 ff ff ff ff 	movl   $0xffffffff,(%esp)
    4a75:	e8 06 96 01 00       	call   1e080 <log_msg>
    4a7a:	c7 44 24 0c 01 00 00 	movl   $0x1,0xc(%esp)
    4a81:	00 
    4a82:	c7 44 24 08 96 27 03 	movl   $0x32796,0x8(%esp)
    4a89:	00 
    4a8a:	c7 44 24 04 01 00 00 	movl   $0x1,0x4(%esp)
    4a91:	00 
    4a92:	c7 04 24 ff ff ff ff 	movl   $0xffffffff,(%esp)
    4a99:	e8 e2 95 01 00       	call   1e080 <log_msg>
    4a9e:	c7 44 24 0c 02 00 00 	movl   $0x2,0xc(%esp)
    4aa5:	00 
    4aa6:	c7 44 24 08 96 27 03 	movl   $0x32796,0x8(%esp)
    4aad:	00 
    4aae:	c7 44 24 04 02 00 00 	movl   $0x2,0x4(%esp)
    4ab5:	00 
    4ab6:	c7 04 24 ff ff ff ff 	movl   $0xffffffff,(%esp)
    4abd:	e8 be 95 01 00       	call   1e080 <log_msg>
    4ac2:	c7 44 24 0c 03 00 00 	movl   $0x3,0xc(%esp)
    4ac9:	00 
    4aca:	c7 44 24 08 96 27 03 	movl   $0x32796,0x8(%esp)
    4ad1:	00 
    4ad2:	c7 44 24 04 03 00 00 	movl   $0x3,0x4(%esp)
    4ad9:	00 
    4ada:	c7 04 24 ff ff ff ff 	movl   $0xffffffff,(%esp)
    4ae1:	e8 9a 95 01 00       	call   1e080 <log_msg>
    4ae6:	c7 44 24 0c 04 00 00 	movl   $0x4,0xc(%esp)
    4aed:	00 
    4aee:	c7 44 24 08 96 27 03 	movl   $0x32796,0x8(%esp)
    4af5:	00 
    4af6:	c7 44 24 04 04 00 00 	movl   $0x4,0x4(%esp)
    4afd:	00 
    4afe:	c7 04 24 ff ff ff ff 	movl   $0xffffffff,(%esp)
    4b05:	e8 76 95 01 00       	call   1e080 <log_msg>
    4b0a:	c7 44 24 0c 05 00 00 	movl   $0x5,0xc(%esp)
    4b11:	00 
    4b12:	c7 44 24 08 96 27 03 	movl   $0x32796,0x8(%esp)
    4b19:	00 
    4b1a:	c7 44 24 04 05 00 00 	movl   $0x5,0x4(%esp)
    4b21:	00 
    4b22:	c7 04 24 ff ff ff ff 	movl   $0xffffffff,(%esp)
    4b29:	e8 52 95 01 00       	call   1e080 <log_msg>
    4b2e:	31 c0                	xor    %eax,%eax
    4b30:	c9                   	leave  
    4b31:	c3                   	ret    
    4b32:	66 90                	xchg   %ax,%ax
    4b34:	66 90                	xchg   %ax,%ax
    4b36:	66 90                	xchg   %ax,%ax
    4b38:	66 90                	xchg   %ax,%ax
    4b3a:	66 90                	xchg   %ax,%ax
    4b3c:	66 90                	xchg   %ax,%ax
    4b3e:	66 90                	xchg   %ax,%ax

00004b40 <test_logger2>:
    4b40:	55                   	push   %ebp
    4b41:	89 e5                	mov    %esp,%ebp
    4b43:	57                   	push   %edi
    4b44:	56                   	push   %esi
    4b45:	53                   	push   %ebx
    4b46:	83 ec 2c             	sub    $0x2c,%esp
    4b49:	c7 44 24 04 ff ff ff 	movl   $0xffffffff,0x4(%esp)
    4b50:	ff 
    4b51:	c7 04 24 b0 27 03 00 	movl   $0x327b0,(%esp)
    4b58:	e8 53 94 01 00       	call   1dfb0 <log_create>
    4b5d:	c7 04 24 b6 27 03 00 	movl   $0x327b6,(%esp)
    4b64:	89 44 24 04          	mov    %eax,0x4(%esp)
    4b68:	89 c6                	mov    %eax,%esi
    4b6a:	e8 41 94 01 00       	call   1dfb0 <log_create>
    4b6f:	80 3d a0 69 03 00 00 	cmpb   $0x0,0x369a0
    4b76:	89 c7                	mov    %eax,%edi
    4b78:	0f 84 92 00 00 00    	je     4c10 <test_logger2+0xd0>
    4b7e:	66 90                	xchg   %ax,%ax
    4b80:	bb 01 00 00 00       	mov    $0x1,%ebx
    4b85:	89 1c 24             	mov    %ebx,(%esp)
    4b88:	e8 63 92 01 00       	call   1ddf0 <log_level_str>
    4b8d:	89 5c 24 0c          	mov    %ebx,0xc(%esp)
    4b91:	89 44 24 10          	mov    %eax,0x10(%esp)
    4b95:	89 5c 24 04          	mov    %ebx,0x4(%esp)
    4b99:	c7 44 24 08 d8 27 03 	movl   $0x327d8,0x8(%esp)
    4ba0:	00 
    4ba1:	c7 04 24 ff ff ff ff 	movl   $0xffffffff,(%esp)
    4ba8:	e8 d3 94 01 00       	call   1e080 <log_msg>
    4bad:	89 1c 24             	mov    %ebx,(%esp)
    4bb0:	e8 3b 92 01 00       	call   1ddf0 <log_level_str>
    4bb5:	89 5c 24 0c          	mov    %ebx,0xc(%esp)
    4bb9:	89 44 24 10          	mov    %eax,0x10(%esp)
    4bbd:	89 5c 24 04          	mov    %ebx,0x4(%esp)
    4bc1:	c7 44 24 08 f0 27 03 	movl   $0x327f0,0x8(%esp)
    4bc8:	00 
    4bc9:	89 34 24             	mov    %esi,(%esp)
    4bcc:	e8 af 94 01 00       	call   1e080 <log_msg>
    4bd1:	89 1c 24             	mov    %ebx,(%esp)
    4bd4:	e8 17 92 01 00       	call   1ddf0 <log_level_str>
    4bd9:	89 5c 24 0c          	mov    %ebx,0xc(%esp)
    4bdd:	89 44 24 10          	mov    %eax,0x10(%esp)
    4be1:	89 5c 24 04          	mov    %ebx,0x4(%esp)
    4be5:	c7 44 24 08 18 28 03 	movl   $0x32818,0x8(%esp)
    4bec:	00 
    4bed:	89 3c 24             	mov    %edi,(%esp)
    4bf0:	e8 8b 94 01 00       	call   1e080 <log_msg>
    4bf5:	43                   	inc    %ebx
    4bf6:	c7 04 24 a0 86 01 00 	movl   $0x186a0,(%esp)
    4bfd:	e8 0e 11 02 00       	call   25d10 <async_usleep>
    4c02:	83 fb 05             	cmp    $0x5,%ebx
    4c05:	0f 87 75 ff ff ff    	ja     4b80 <test_logger2+0x40>
    4c0b:	e9 75 ff ff ff       	jmp    4b85 <test_logger2+0x45>
    4c10:	a1 38 6a 03 00       	mov    0x36a38,%eax
    4c15:	89 74 24 08          	mov    %esi,0x8(%esp)
    4c19:	c7 44 24 04 bc 27 03 	movl   $0x327bc,0x4(%esp)
    4c20:	00 
    4c21:	89 04 24             	mov    %eax,(%esp)
    4c24:	e8 77 91 01 00       	call   1dda0 <fprintf>
    4c29:	80 3d a0 69 03 00 00 	cmpb   $0x0,0x369a0
    4c30:	0f 85 4a ff ff ff    	jne    4b80 <test_logger2+0x40>
    4c36:	a1 38 6a 03 00       	mov    0x36a38,%eax
    4c3b:	89 7c 24 08          	mov    %edi,0x8(%esp)
    4c3f:	c7 44 24 04 ca 27 03 	movl   $0x327ca,0x4(%esp)
    4c46:	00 
    4c47:	89 04 24             	mov    %eax,(%esp)
    4c4a:	e8 51 91 01 00       	call   1dda0 <fprintf>
    4c4f:	e9 2c ff ff ff       	jmp    4b80 <test_logger2+0x40>
    4c54:	66 90                	xchg   %ax,%ax
    4c56:	66 90                	xchg   %ax,%ax
    4c58:	66 90                	xchg   %ax,%ax
    4c5a:	66 90                	xchg   %ax,%ax
    4c5c:	66 90                	xchg   %ax,%ax
    4c5e:	66 90                	xchg   %ax,%ax

00004c60 <test_fault1>:
    4c60:	55                   	push   %ebp
    4c61:	c7 05 04 00 00 00 00 	movl   $0x0,0x4
    4c68:	00 00 00 
    4c6b:	89 e5                	mov    %esp,%ebp
    4c6d:	b8 43 28 03 00       	mov    $0x32843,%eax
    4c72:	5d                   	pop    %ebp
    4c73:	c3                   	ret    
    4c74:	66 90                	xchg   %ax,%ax
    4c76:	66 90                	xchg   %ax,%ax
    4c78:	66 90                	xchg   %ax,%ax
    4c7a:	66 90                	xchg   %ax,%ax
    4c7c:	66 90                	xchg   %ax,%ax
    4c7e:	66 90                	xchg   %ax,%ax

00004c80 <test_fault2>:
    4c80:	55                   	push   %ebp
    4c81:	89 e5                	mov    %esp,%ebp
    4c83:	83 ec 28             	sub    $0x28,%esp
    4c86:	c7 45 f0 00 00 00 00 	movl   $0x0,-0x10(%ebp)
    4c8d:	c7 45 f4 00 00 00 00 	movl   $0x0,-0xc(%ebp)
    4c94:	8b 45 f1             	mov    -0xf(%ebp),%eax
    4c97:	c7 04 24 5a 28 03 00 	movl   $0x3285a,(%esp)
    4c9e:	89 45 ec             	mov    %eax,-0x14(%ebp)
    4ca1:	8b 45 ec             	mov    -0x14(%ebp),%eax
    4ca4:	89 44 24 04          	mov    %eax,0x4(%esp)
    4ca8:	e8 23 91 01 00       	call   1ddd0 <printf>
    4cad:	b8 63 28 03 00       	mov    $0x32863,%eax
    4cb2:	c9                   	leave  
    4cb3:	c3                   	ret    
    4cb4:	66 90                	xchg   %ax,%ax
    4cb6:	66 90                	xchg   %ax,%ax
    4cb8:	66 90                	xchg   %ax,%ax
    4cba:	66 90                	xchg   %ax,%ax
    4cbc:	66 90                	xchg   %ax,%ax
    4cbe:	66 90                	xchg   %ax,%ax

00004cc0 <test_fault3>:
    4cc0:	55                   	push   %ebp
    4cc1:	89 e5                	mov    %esp,%ebp
    4cc3:	83 ec 08             	sub    $0x8,%esp
    4cc6:	e8 05 e6 00 00       	call   132d0 <abort>
    4ccb:	66 90                	xchg   %ax,%ax
    4ccd:	66 90                	xchg   %ax,%ax
    4ccf:	90                   	nop

00004cd0 <e>:
    4cd0:	d9 e8                	fld1   
    4cd2:	55                   	push   %ebp
    4cd3:	31 c9                	xor    %ecx,%ecx
    4cd5:	89 e5                	mov    %esp,%ebp
    4cd7:	83 ec 10             	sub    $0x10,%esp
    4cda:	d9 c0                	fld    %st(0)
    4cdc:	d9 c1                	fld    %st(1)
    4cde:	d9 7d fe             	fnstcw -0x2(%ebp)
    4ce1:	d9 ee                	fldz   
    4ce3:	66 8b 45 fe          	mov    -0x2(%ebp),%ax
    4ce7:	d9 c3                	fld    %st(3)
    4ce9:	b4 0c                	mov    $0xc,%ah
    4ceb:	d9 c4                	fld    %st(4)
    4ced:	66 89 45 fc          	mov    %ax,-0x4(%ebp)
    4cf1:	8d b4 26 00 00 00 00 	lea    0x0(%esi,%eiz,1),%esi
    4cf8:	d9 c1                	fld    %st(1)
    4cfa:	d8 f5                	fdiv   %st(5),%st
    4cfc:	d8 c3                	fadd   %st(3),%st
    4cfe:	d9 cd                	fxch   %st(5)
    4d00:	d8 cc                	fmul   %st(4),%st
    4d02:	d9 cc                	fxch   %st(4)
    4d04:	d8 c2                	fadd   %st(2),%st
    4d06:	d9 cd                	fxch   %st(5)
    4d08:	dd e3                	fucom  %st(3)
    4d0a:	df e0                	fnstsw %ax
    4d0c:	dd db                	fstp   %st(3)
    4d0e:	80 e4 45             	and    $0x45,%ah
    4d11:	80 f4 40             	xor    $0x40,%ah
    4d14:	74 0a                	je     4d20 <e+0x50>
    4d16:	d9 cb                	fxch   %st(3)
    4d18:	d9 cc                	fxch   %st(4)
    4d1a:	d9 cb                	fxch   %st(3)
    4d1c:	eb da                	jmp    4cf8 <e+0x28>
    4d1e:	66 90                	xchg   %ax,%ax
    4d20:	dd dc                	fstp   %st(4)
    4d22:	dd da                	fstp   %st(2)
    4d24:	d8 0d 88 28 03 00    	fmuls  0x32888
    4d2a:	d9 6d fc             	fldcw  -0x4(%ebp)
    4d2d:	df 7d f0             	fistpll -0x10(%ebp)
    4d30:	d9 6d fe             	fldcw  -0x2(%ebp)
    4d33:	8b 45 f0             	mov    -0x10(%ebp),%eax
    4d36:	3d d6 c4 33 10       	cmp    $0x1033c4d6,%eax
    4d3b:	75 18                	jne    4d55 <e+0x85>
    4d3d:	41                   	inc    %ecx
    4d3e:	83 f9 64             	cmp    $0x64,%ecx
    4d41:	74 21                	je     4d64 <e+0x94>
    4d43:	d9 c1                	fld    %st(1)
    4d45:	d9 c3                	fld    %st(3)
    4d47:	d9 ee                	fldz   
    4d49:	d9 ca                	fxch   %st(2)
    4d4b:	d9 cc                	fxch   %st(4)
    4d4d:	d9 c9                	fxch   %st(1)
    4d4f:	d9 cb                	fxch   %st(3)
    4d51:	d9 c9                	fxch   %st(1)
    4d53:	eb a3                	jmp    4cf8 <e+0x28>
    4d55:	dd d8                	fstp   %st(0)
    4d57:	dd d8                	fstp   %st(0)
    4d59:	dd d8                	fstp   %st(0)
    4d5b:	f0 ff 05 08 6a 03 00 	lock incl 0x36a08
    4d62:	eb 06                	jmp    4d6a <e+0x9a>
    4d64:	dd d8                	fstp   %st(0)
    4d66:	dd d8                	fstp   %st(0)
    4d68:	dd d8                	fstp   %st(0)
    4d6a:	f0 ff 05 04 6a 03 00 	lock incl 0x36a04
    4d71:	c9                   	leave  
    4d72:	c3                   	ret    
    4d73:	8d b6 00 00 00 00    	lea    0x0(%esi),%esi
    4d79:	8d bc 27 00 00 00 00 	lea    0x0(%edi,%eiz,1),%edi

00004d80 <test_float1>:
    4d80:	55                   	push   %ebp
    4d81:	89 e5                	mov    %esp,%ebp
    4d83:	53                   	push   %ebx
    4d84:	83 ec 14             	sub    $0x14,%esp
    4d87:	c7 05 04 6a 03 00 00 	movl   $0x0,0x36a04
    4d8e:	00 00 00 
    4d91:	80 3d a0 69 03 00 00 	cmpb   $0x0,0x369a0
    4d98:	c7 05 08 6a 03 00 00 	movl   $0x0,0x36a08
    4d9f:	00 00 00 
    4da2:	0f 84 f8 00 00 00    	je     4ea0 <test_float1+0x120>
    4da8:	31 db                	xor    %ebx,%ebx
    4daa:	eb 0d                	jmp    4db9 <test_float1+0x39>
    4dac:	8d 74 26 00          	lea    0x0(%esi,%eiz,1),%esi
    4db0:	43                   	inc    %ebx
    4db1:	81 fb 96 00 00 00    	cmp    $0x96,%ebx
    4db7:	74 4f                	je     4e08 <test_float1+0x88>
    4db9:	c7 44 24 0c 00 00 00 	movl   $0x0,0xc(%esp)
    4dc0:	00 
    4dc1:	c7 44 24 08 8a 22 03 	movl   $0x3228a,0x8(%esp)
    4dc8:	00 
    4dc9:	c7 44 24 04 00 00 00 	movl   $0x0,0x4(%esp)
    4dd0:	00 
    4dd1:	c7 04 24 d0 4c 00 00 	movl   $0x4cd0,(%esp)
    4dd8:	e8 c3 60 01 00       	call   1aea0 <thread_create>
    4ddd:	85 c0                	test   %eax,%eax
    4ddf:	78 47                	js     4e28 <test_float1+0xa8>
    4de1:	80 3d a0 69 03 00 00 	cmpb   $0x0,0x369a0
    4de8:	75 c6                	jne    4db0 <test_float1+0x30>
    4dea:	a1 38 6a 03 00       	mov    0x36a38,%eax
    4def:	c7 44 24 04 ee 27 03 	movl   $0x327ee,0x4(%esp)
    4df6:	00 
    4df7:	89 04 24             	mov    %eax,(%esp)
    4dfa:	43                   	inc    %ebx
    4dfb:	e8 a0 8f 01 00       	call   1dda0 <fprintf>
    4e00:	81 fb 96 00 00 00    	cmp    $0x96,%ebx
    4e06:	75 b1                	jne    4db9 <test_float1+0x39>
    4e08:	80 3d a0 69 03 00 00 	cmpb   $0x0,0x369a0
    4e0f:	75 24                	jne    4e35 <test_float1+0xb5>
    4e11:	a1 38 6a 03 00       	mov    0x36a38,%eax
    4e16:	c7 44 24 04 6b 20 03 	movl   $0x3206b,0x4(%esp)
    4e1d:	00 
    4e1e:	89 04 24             	mov    %eax,(%esp)
    4e21:	e8 7a 8f 01 00       	call   1dda0 <fprintf>
    4e26:	eb 0d                	jmp    4e35 <test_float1+0xb5>
    4e28:	80 3d a0 69 03 00 00 	cmpb   $0x0,0x369a0
    4e2f:	0f 84 8b 00 00 00    	je     4ec0 <test_float1+0x140>
    4e35:	a1 04 6a 03 00       	mov    0x36a04,%eax
    4e3a:	39 d8                	cmp    %ebx,%eax
    4e3c:	72 17                	jb     4e55 <test_float1+0xd5>
    4e3e:	eb 48                	jmp    4e88 <test_float1+0x108>
    4e40:	c7 04 24 01 00 00 00 	movl   $0x1,(%esp)
    4e47:	e8 04 5f 02 00       	call   2ad50 <sleep>
    4e4c:	a1 04 6a 03 00       	mov    0x36a04,%eax
    4e51:	39 c3                	cmp    %eax,%ebx
    4e53:	76 33                	jbe    4e88 <test_float1+0x108>
    4e55:	80 3d a0 69 03 00 00 	cmpb   $0x0,0x369a0
    4e5c:	75 e2                	jne    4e40 <test_float1+0xc0>
    4e5e:	a1 04 6a 03 00       	mov    0x36a04,%eax
    4e63:	89 da                	mov    %ebx,%edx
    4e65:	29 c2                	sub    %eax,%edx
    4e67:	a1 38 6a 03 00       	mov    0x36a38,%eax
    4e6c:	89 54 24 08          	mov    %edx,0x8(%esp)
    4e70:	c7 44 24 04 aa 0f 03 	movl   $0x30faa,0x4(%esp)
    4e77:	00 
    4e78:	89 04 24             	mov    %eax,(%esp)
    4e7b:	e8 20 8f 01 00       	call   1dda0 <fprintf>
    4e80:	eb be                	jmp    4e40 <test_float1+0xc0>
    4e82:	8d b6 00 00 00 00    	lea    0x0(%esi),%esi
    4e88:	a1 08 6a 03 00       	mov    0x36a08,%eax
    4e8d:	85 c0                	test   %eax,%eax
    4e8f:	74 4d                	je     4ede <test_float1+0x15e>
    4e91:	83 c4 14             	add    $0x14,%esp
    4e94:	b8 7b 28 03 00       	mov    $0x3287b,%eax
    4e99:	5b                   	pop    %ebx
    4e9a:	5d                   	pop    %ebp
    4e9b:	c3                   	ret    
    4e9c:	8d 74 26 00          	lea    0x0(%esi,%eiz,1),%esi
    4ea0:	a1 38 6a 03 00       	mov    0x36a38,%eax
    4ea5:	c7 44 24 04 71 0f 03 	movl   $0x30f71,0x4(%esp)
    4eac:	00 
    4ead:	89 04 24             	mov    %eax,(%esp)
    4eb0:	e8 eb 8e 01 00       	call   1dda0 <fprintf>
    4eb5:	e9 ee fe ff ff       	jmp    4da8 <test_float1+0x28>
    4eba:	8d b6 00 00 00 00    	lea    0x0(%esi),%esi
    4ec0:	a1 38 6a 03 00       	mov    0x36a38,%eax
    4ec5:	89 5c 24 08          	mov    %ebx,0x8(%esp)
    4ec9:	c7 44 24 04 8d 0f 03 	movl   $0x30f8d,0x4(%esp)
    4ed0:	00 
    4ed1:	89 04 24             	mov    %eax,(%esp)
    4ed4:	e8 c7 8e 01 00       	call   1dda0 <fprintf>
    4ed9:	e9 2a ff ff ff       	jmp    4e08 <test_float1+0x88>
    4ede:	83 c4 14             	add    $0x14,%esp
    4ee1:	31 c0                	xor    %eax,%eax
    4ee3:	5b                   	pop    %ebx
    4ee4:	5d                   	pop    %ebp
    4ee5:	c3                   	ret    
    4ee6:	66 90                	xchg   %ax,%ax
    4ee8:	66 90                	xchg   %ax,%ax
    4eea:	66 90                	xchg   %ax,%ax
    4eec:	66 90                	xchg   %ax,%ax
    4eee:	66 90                	xchg   %ax,%ax

00004ef0 <uint_to_double_template>:
    4ef0:	55                   	push   %ebp
    4ef1:	89 e5                	mov    %esp,%ebp
    4ef3:	83 ec 38             	sub    $0x38,%esp
    4ef6:	8d 45 f0             	lea    -0x10(%ebp),%eax
    4ef9:	89 44 24 08          	mov    %eax,0x8(%esp)
    4efd:	8d 45 e8             	lea    -0x18(%ebp),%eax
    4f00:	89 44 24 04          	mov    %eax,0x4(%esp)
    4f04:	8b 45 0c             	mov    0xc(%ebp),%eax
    4f07:	8b 04 85 60 2a 03 00 	mov    0x32a60(,%eax,4),%eax
    4f0e:	89 04 24             	mov    %eax,(%esp)
    4f11:	ff 55 08             	call   *0x8(%ebp)
    4f14:	d9 05 c8 2a 03 00    	flds   0x32ac8
    4f1a:	d9 7d e6             	fnstcw -0x1a(%ebp)
    4f1d:	dd 45 e8             	fldl   -0x18(%ebp)
    4f20:	66 8b 45 e6          	mov    -0x1a(%ebp),%ax
    4f24:	d8 c9                	fmul   %st(1),%st
    4f26:	b4 0c                	mov    $0xc,%ah
    4f28:	66 89 45 e4          	mov    %ax,-0x1c(%ebp)
    4f2c:	8b 45 10             	mov    0x10(%ebp),%eax
    4f2f:	d9 6d e4             	fldcw  -0x1c(%ebp)
    4f32:	db 18                	fistpl (%eax)
    4f34:	d9 6d e6             	fldcw  -0x1a(%ebp)
    4f37:	8b 45 14             	mov    0x14(%ebp),%eax
    4f3a:	dc 4d f0             	fmull  -0x10(%ebp)
    4f3d:	d9 6d e4             	fldcw  -0x1c(%ebp)
    4f40:	db 18                	fistpl (%eax)
    4f42:	d9 6d e6             	fldcw  -0x1a(%ebp)
    4f45:	c9                   	leave  
    4f46:	c3                   	ret    
    4f47:	89 f6                	mov    %esi,%esi
    4f49:	8d bc 27 00 00 00 00 	lea    0x0(%edi,%eiz,1),%edi

00004f50 <double_to_uint_template>:
    4f50:	55                   	push   %ebp
    4f51:	89 e5                	mov    %esp,%ebp
    4f53:	83 ec 28             	sub    $0x28,%esp
    4f56:	8d 45 f4             	lea    -0xc(%ebp),%eax
    4f59:	89 44 24 0c          	mov    %eax,0xc(%esp)
    4f5d:	8d 45 f0             	lea    -0x10(%ebp),%eax
    4f60:	89 44 24 08          	mov    %eax,0x8(%esp)
    4f64:	8b 45 0c             	mov    0xc(%ebp),%eax
    4f67:	dd 04 c5 00 2a 03 00 	fldl   0x32a00(,%eax,8)
    4f6e:	dd 1c 24             	fstpl  (%esp)
    4f71:	ff 55 08             	call   *0x8(%ebp)
    4f74:	8b 45 10             	mov    0x10(%ebp),%eax
    4f77:	8b 55 f0             	mov    -0x10(%ebp),%edx
    4f7a:	89 10                	mov    %edx,(%eax)
    4f7c:	8b 45 14             	mov    0x14(%ebp),%eax
    4f7f:	8b 55 f4             	mov    -0xc(%ebp),%edx
    4f82:	89 10                	mov    %edx,(%eax)
    4f84:	c9                   	leave  
    4f85:	c3                   	ret    
    4f86:	8d 76 00             	lea    0x0(%esi),%esi
    4f89:	8d bc 27 00 00 00 00 	lea    0x0(%edi,%eiz,1),%edi

00004f90 <float_template_binary>:
    4f90:	55                   	push   %ebp
    4f91:	89 e5                	mov    %esp,%ebp
    4f93:	83 ec 38             	sub    $0x38,%esp
    4f96:	8d 45 f4             	lea    -0xc(%ebp),%eax
    4f99:	89 44 24 0c          	mov    %eax,0xc(%esp)
    4f9d:	8d 45 f0             	lea    -0x10(%ebp),%eax
    4fa0:	89 44 24 08          	mov    %eax,0x8(%esp)
    4fa4:	8b 45 10             	mov    0x10(%ebp),%eax
    4fa7:	d9 04 85 a0 2a 03 00 	flds   0x32aa0(,%eax,4)
    4fae:	8b 45 0c             	mov    0xc(%ebp),%eax
    4fb1:	d9 5c 24 04          	fstps  0x4(%esp)
    4fb5:	d9 04 85 a0 2a 03 00 	flds   0x32aa0(,%eax,4)
    4fbc:	d9 1c 24             	fstps  (%esp)
    4fbf:	ff 55 08             	call   *0x8(%ebp)
    4fc2:	d9 05 c8 2a 03 00    	flds   0x32ac8
    4fc8:	d9 7d e6             	fnstcw -0x1a(%ebp)
    4fcb:	d9 45 f0             	flds   -0x10(%ebp)
    4fce:	66 8b 45 e6          	mov    -0x1a(%ebp),%ax
    4fd2:	d8 c9                	fmul   %st(1),%st
    4fd4:	b4 0c                	mov    $0xc,%ah
    4fd6:	66 89 45 e4          	mov    %ax,-0x1c(%ebp)
    4fda:	8b 45 14             	mov    0x14(%ebp),%eax
    4fdd:	d9 6d e4             	fldcw  -0x1c(%ebp)
    4fe0:	db 18                	fistpl (%eax)
    4fe2:	d9 6d e6             	fldcw  -0x1a(%ebp)
    4fe5:	8b 45 18             	mov    0x18(%ebp),%eax
    4fe8:	d8 4d f4             	fmuls  -0xc(%ebp)
    4feb:	d9 6d e4             	fldcw  -0x1c(%ebp)
    4fee:	db 18                	fistpl (%eax)
    4ff0:	d9 6d e6             	fldcw  -0x1a(%ebp)
    4ff3:	c9                   	leave  
    4ff4:	c3                   	ret    
    4ff5:	8d 74 26 00          	lea    0x0(%esi,%eiz,1),%esi
    4ff9:	8d bc 27 00 00 00 00 	lea    0x0(%edi,%eiz,1),%edi

00005000 <double_template_binary>:
    5000:	55                   	push   %ebp
    5001:	89 e5                	mov    %esp,%ebp
    5003:	83 ec 48             	sub    $0x48,%esp
    5006:	8d 45 f0             	lea    -0x10(%ebp),%eax
    5009:	89 44 24 14          	mov    %eax,0x14(%esp)
    500d:	8d 45 e8             	lea    -0x18(%ebp),%eax
    5010:	89 44 24 10          	mov    %eax,0x10(%esp)
    5014:	8b 45 10             	mov    0x10(%ebp),%eax
    5017:	dd 04 c5 00 2a 03 00 	fldl   0x32a00(,%eax,8)
    501e:	8b 45 0c             	mov    0xc(%ebp),%eax
    5021:	dd 5c 24 08          	fstpl  0x8(%esp)
    5025:	dd 04 c5 00 2a 03 00 	fldl   0x32a00(,%eax,8)
    502c:	dd 1c 24             	fstpl  (%esp)
    502f:	ff 55 08             	call   *0x8(%ebp)
    5032:	d9 05 c8 2a 03 00    	flds   0x32ac8
    5038:	d9 7d e6             	fnstcw -0x1a(%ebp)
    503b:	dd 45 e8             	fldl   -0x18(%ebp)
    503e:	66 8b 45 e6          	mov    -0x1a(%ebp),%ax
    5042:	d8 c9                	fmul   %st(1),%st
    5044:	b4 0c                	mov    $0xc,%ah
    5046:	66 89 45 e4          	mov    %ax,-0x1c(%ebp)
    504a:	8b 45 14             	mov    0x14(%ebp),%eax
    504d:	d9 6d e4             	fldcw  -0x1c(%ebp)
    5050:	db 18                	fistpl (%eax)
    5052:	d9 6d e6             	fldcw  -0x1a(%ebp)
    5055:	8b 45 18             	mov    0x18(%ebp),%eax
    5058:	dc 4d f0             	fmull  -0x10(%ebp)
    505b:	d9 6d e4             	fldcw  -0x1c(%ebp)
    505e:	db 18                	fistpl (%eax)
    5060:	d9 6d e6             	fldcw  -0x1a(%ebp)
    5063:	c9                   	leave  
    5064:	c3                   	ret    
    5065:	8d 74 26 00          	lea    0x0(%esi,%eiz,1),%esi
    5069:	8d bc 27 00 00 00 00 	lea    0x0(%edi,%eiz,1),%edi

00005070 <double_compare_template>:
    5070:	55                   	push   %ebp
    5071:	89 e5                	mov    %esp,%ebp
    5073:	83 ec 28             	sub    $0x28,%esp
    5076:	8b 45 18             	mov    0x18(%ebp),%eax
    5079:	89 44 24 14          	mov    %eax,0x14(%esp)
    507d:	8b 45 14             	mov    0x14(%ebp),%eax
    5080:	89 44 24 10          	mov    %eax,0x10(%esp)
    5084:	8b 45 10             	mov    0x10(%ebp),%eax
    5087:	dd 04 c5 00 2a 03 00 	fldl   0x32a00(,%eax,8)
    508e:	8b 45 0c             	mov    0xc(%ebp),%eax
    5091:	dd 5c 24 08          	fstpl  0x8(%esp)
    5095:	dd 04 c5 00 2a 03 00 	fldl   0x32a00(,%eax,8)
    509c:	dd 1c 24             	fstpl  (%esp)
    509f:	ff 55 08             	call   *0x8(%ebp)
    50a2:	c9                   	leave  
    50a3:	c3                   	ret    
    50a4:	8d b6 00 00 00 00    	lea    0x0(%esi),%esi
    50aa:	8d bf 00 00 00 00    	lea    0x0(%edi),%edi

000050b0 <double_to_int_operator>:
    50b0:	55                   	push   %ebp
    50b1:	89 e5                	mov    %esp,%ebp
    50b3:	83 ec 28             	sub    $0x28,%esp
    50b6:	d9 7d f6             	fnstcw -0xa(%ebp)
    50b9:	66 8b 4d f6          	mov    -0xa(%ebp),%cx
    50bd:	b5 0c                	mov    $0xc,%ch
    50bf:	8b 55 0c             	mov    0xc(%ebp),%edx
    50c2:	66 89 4d f4          	mov    %cx,-0xc(%ebp)
    50c6:	8b 4d 10             	mov    0x10(%ebp),%ecx
    50c9:	dd 45 08             	fldl   0x8(%ebp)
    50cc:	d9 6d f4             	fldcw  -0xc(%ebp)
    50cf:	db 19                	fistpl (%ecx)
    50d1:	d9 6d f6             	fldcw  -0xa(%ebp)
    50d4:	8b 45 08             	mov    0x8(%ebp),%eax
    50d7:	89 54 24 04          	mov    %edx,0x4(%esp)
    50db:	89 04 24             	mov    %eax,(%esp)
    50de:	e8 8d ba 00 00       	call   10b70 <float64_to_int32>
    50e3:	8b 55 14             	mov    0x14(%ebp),%edx
    50e6:	89 02                	mov    %eax,(%edx)
    50e8:	c9                   	leave  
    50e9:	c3                   	ret    
    50ea:	8d b6 00 00 00 00    	lea    0x0(%esi),%esi

000050f0 <double_to_uint_operator>:
    50f0:	55                   	push   %ebp
    50f1:	89 e5                	mov    %esp,%ebp
    50f3:	53                   	push   %ebx
    50f4:	83 ec 24             	sub    $0x24,%esp
    50f7:	d9 7d f6             	fnstcw -0xa(%ebp)
    50fa:	66 8b 4d f6          	mov    -0xa(%ebp),%cx
    50fe:	b5 0c                	mov    $0xc,%ch
    5100:	8b 5d 10             	mov    0x10(%ebp),%ebx
    5103:	66 89 4d f4          	mov    %cx,-0xc(%ebp)
    5107:	8b 55 0c             	mov    0xc(%ebp),%edx
    510a:	dd 45 08             	fldl   0x8(%ebp)
    510d:	d9 6d f4             	fldcw  -0xc(%ebp)
    5110:	df 7d e8             	fistpll -0x18(%ebp)
    5113:	d9 6d f6             	fldcw  -0xa(%ebp)
    5116:	8b 45 08             	mov    0x8(%ebp),%eax
    5119:	8b 4d e8             	mov    -0x18(%ebp),%ecx
    511c:	89 0b                	mov    %ecx,(%ebx)
    511e:	89 54 24 04          	mov    %edx,0x4(%esp)
    5122:	89 04 24             	mov    %eax,(%esp)
    5125:	e8 36 b9 00 00       	call   10a60 <float64_to_uint32>
    512a:	8b 55 14             	mov    0x14(%ebp),%edx
    512d:	89 02                	mov    %eax,(%edx)
    512f:	83 c4 24             	add    $0x24,%esp
    5132:	5b                   	pop    %ebx
    5133:	5d                   	pop    %ebp
    5134:	c3                   	ret    
    5135:	8d 74 26 00          	lea    0x0(%esi,%eiz,1),%esi
    5139:	8d bc 27 00 00 00 00 	lea    0x0(%edi,%eiz,1),%edi

00005140 <uint_to_double_operator>:
    5140:	55                   	push   %ebp
    5141:	31 d2                	xor    %edx,%edx
    5143:	89 e5                	mov    %esp,%ebp
    5145:	83 ec 28             	sub    $0x28,%esp
    5148:	8b 4d 08             	mov    0x8(%ebp),%ecx
    514b:	89 55 ec             	mov    %edx,-0x14(%ebp)
    514e:	89 4d e8             	mov    %ecx,-0x18(%ebp)
    5151:	8b 45 0c             	mov    0xc(%ebp),%eax
    5154:	df 6d e8             	fildll -0x18(%ebp)
    5157:	dd 18                	fstpl  (%eax)
    5159:	8d 45 f0             	lea    -0x10(%ebp),%eax
    515c:	89 4c 24 04          	mov    %ecx,0x4(%esp)
    5160:	89 04 24             	mov    %eax,(%esp)
    5163:	e8 28 c3 00 00       	call   11490 <uint32_to_float64>
    5168:	8b 4d 10             	mov    0x10(%ebp),%ecx
    516b:	8b 55 f4             	mov    -0xc(%ebp),%edx
    516e:	50                   	push   %eax
    516f:	8b 45 f0             	mov    -0x10(%ebp),%eax
    5172:	89 01                	mov    %eax,(%ecx)
    5174:	89 51 04             	mov    %edx,0x4(%ecx)
    5177:	c9                   	leave  
    5178:	c3                   	ret    
    5179:	8d b4 26 00 00 00 00 	lea    0x0(%esi,%eiz,1),%esi

00005180 <double_cmp_operator>:
    5180:	55                   	push   %ebp
    5181:	83 ca ff             	or     $0xffffffff,%edx
    5184:	89 e5                	mov    %esp,%ebp
    5186:	57                   	push   %edi
    5187:	56                   	push   %esi
    5188:	83 ec 20             	sub    $0x20,%esp
    518b:	dd 45 08             	fldl   0x8(%ebp)
    518e:	dd 45 10             	fldl   0x10(%ebp)
    5191:	dd e1                	fucom  %st(1)
    5193:	df e0                	fnstsw %ax
    5195:	f6 c4 45             	test   $0x45,%ah
    5198:	74 16                	je     51b0 <double_cmp_operator+0x30>
    519a:	d9 c9                	fxch   %st(1)
    519c:	dd e1                	fucom  %st(1)
    519e:	df e0                	fnstsw %ax
    51a0:	f6 c4 45             	test   $0x45,%ah
    51a3:	0f 94 c2             	sete   %dl
    51a6:	81 e2 ff 00 00 00    	and    $0xff,%edx
    51ac:	eb 04                	jmp    51b2 <double_cmp_operator+0x32>
    51ae:	66 90                	xchg   %ax,%ax
    51b0:	d9 c9                	fxch   %st(1)
    51b2:	dd 5d f0             	fstpl  -0x10(%ebp)
    51b5:	8b 45 18             	mov    0x18(%ebp),%eax
    51b8:	89 10                	mov    %edx,(%eax)
    51ba:	8b 45 f0             	mov    -0x10(%ebp),%eax
    51bd:	dd 5d e8             	fstpl  -0x18(%ebp)
    51c0:	8b 55 f4             	mov    -0xc(%ebp),%edx
    51c3:	8b 75 e8             	mov    -0x18(%ebp),%esi
    51c6:	8b 7d ec             	mov    -0x14(%ebp),%edi
    51c9:	89 74 24 08          	mov    %esi,0x8(%esp)
    51cd:	89 7c 24 0c          	mov    %edi,0xc(%esp)
    51d1:	89 04 24             	mov    %eax,(%esp)
    51d4:	89 54 24 04          	mov    %edx,0x4(%esp)
    51d8:	e8 f3 a0 00 00       	call   f2d0 <is_float64_lt>
    51dd:	85 c0                	test   %eax,%eax
    51df:	74 17                	je     51f8 <double_cmp_operator+0x78>
    51e1:	8b 55 1c             	mov    0x1c(%ebp),%edx
    51e4:	c7 02 ff ff ff ff    	movl   $0xffffffff,(%edx)
    51ea:	83 c4 20             	add    $0x20,%esp
    51ed:	5e                   	pop    %esi
    51ee:	5f                   	pop    %edi
    51ef:	5d                   	pop    %ebp
    51f0:	c3                   	ret    
    51f1:	8d b4 26 00 00 00 00 	lea    0x0(%esi,%eiz,1),%esi
    51f8:	8b 45 f0             	mov    -0x10(%ebp),%eax
    51fb:	8b 55 f4             	mov    -0xc(%ebp),%edx
    51fe:	89 74 24 08          	mov    %esi,0x8(%esp)
    5202:	89 7c 24 0c          	mov    %edi,0xc(%esp)
    5206:	89 04 24             	mov    %eax,(%esp)
    5209:	89 54 24 04          	mov    %edx,0x4(%esp)
    520d:	e8 ae a3 00 00       	call   f5c0 <is_float64_gt>
    5212:	85 c0                	test   %eax,%eax
    5214:	74 12                	je     5228 <double_cmp_operator+0xa8>
    5216:	8b 55 1c             	mov    0x1c(%ebp),%edx
    5219:	c7 02 01 00 00 00    	movl   $0x1,(%edx)
    521f:	83 c4 20             	add    $0x20,%esp
    5222:	5e                   	pop    %esi
    5223:	5f                   	pop    %edi
    5224:	5d                   	pop    %ebp
    5225:	c3                   	ret    
    5226:	66 90                	xchg   %ax,%ax
    5228:	8b 55 f4             	mov    -0xc(%ebp),%edx
    522b:	8b 45 f0             	mov    -0x10(%ebp),%eax
    522e:	89 74 24 08          	mov    %esi,0x8(%esp)
    5232:	89 7c 24 0c          	mov    %edi,0xc(%esp)
    5236:	89 54 24 04          	mov    %edx,0x4(%esp)
    523a:	89 04 24             	mov    %eax,(%esp)
    523d:	e8 6e 9e 00 00       	call   f0b0 <is_float64_eq>
    5242:	8b 55 1c             	mov    0x1c(%ebp),%edx
    5245:	83 f8 01             	cmp    $0x1,%eax
    5248:	19 c0                	sbb    %eax,%eax
    524a:	83 e0 2a             	and    $0x2a,%eax
    524d:	89 02                	mov    %eax,(%edx)
    524f:	83 c4 20             	add    $0x20,%esp
    5252:	5e                   	pop    %esi
    5253:	5f                   	pop    %edi
    5254:	5d                   	pop    %ebp
    5255:	c3                   	ret    
    5256:	8d 76 00             	lea    0x0(%esi),%esi
    5259:	8d bc 27 00 00 00 00 	lea    0x0(%edi,%eiz,1),%edi

00005260 <double_mul_operator>:
    5260:	55                   	push   %ebp
    5261:	89 e5                	mov    %esp,%ebp
    5263:	56                   	push   %esi
    5264:	53                   	push   %ebx
    5265:	83 ec 30             	sub    $0x30,%esp
    5268:	8d 75 f0             	lea    -0x10(%ebp),%esi
    526b:	dd 45 08             	fldl   0x8(%ebp)
    526e:	dc 4d 10             	fmull  0x10(%ebp)
    5271:	8b 45 18             	mov    0x18(%ebp),%eax
    5274:	8b 55 0c             	mov    0xc(%ebp),%edx
    5277:	8b 4d 10             	mov    0x10(%ebp),%ecx
    527a:	8b 5d 14             	mov    0x14(%ebp),%ebx
    527d:	dd 18                	fstpl  (%eax)
    527f:	8b 45 08             	mov    0x8(%ebp),%eax
    5282:	89 54 24 08          	mov    %edx,0x8(%esp)
    5286:	89 4c 24 0c          	mov    %ecx,0xc(%esp)
    528a:	89 5c 24 10          	mov    %ebx,0x10(%esp)
    528e:	89 44 24 04          	mov    %eax,0x4(%esp)
    5292:	89 34 24             	mov    %esi,(%esp)
    5295:	e8 96 91 00 00       	call   e430 <mul_float64>
    529a:	8b 4d 1c             	mov    0x1c(%ebp),%ecx
    529d:	8b 45 f0             	mov    -0x10(%ebp),%eax
    52a0:	52                   	push   %edx
    52a1:	8b 55 f4             	mov    -0xc(%ebp),%edx
    52a4:	89 51 04             	mov    %edx,0x4(%ecx)
    52a7:	89 01                	mov    %eax,(%ecx)
    52a9:	8d 65 f8             	lea    -0x8(%ebp),%esp
    52ac:	5b                   	pop    %ebx
    52ad:	5e                   	pop    %esi
    52ae:	5d                   	pop    %ebp
    52af:	c3                   	ret    

000052b0 <double_add_operator>:
    52b0:	55                   	push   %ebp
    52b1:	89 e5                	mov    %esp,%ebp
    52b3:	56                   	push   %esi
    52b4:	53                   	push   %ebx
    52b5:	83 ec 50             	sub    $0x50,%esp
    52b8:	dd 45 08             	fldl   0x8(%ebp)
    52bb:	dc 45 10             	faddl  0x10(%ebp)
    52be:	8b 45 18             	mov    0x18(%ebp),%eax
    52c1:	8b 55 14             	mov    0x14(%ebp),%edx
    52c4:	89 d6                	mov    %edx,%esi
    52c6:	c1 ee 18             	shr    $0x18,%esi
    52c9:	dd 18                	fstpl  (%eax)
    52cb:	dd 45 08             	fldl   0x8(%ebp)
    52ce:	89 f1                	mov    %esi,%ecx
    52d0:	8b 45 10             	mov    0x10(%ebp),%eax
    52d3:	dd 5d d0             	fstpl  -0x30(%ebp)
    52d6:	8b 5d d4             	mov    -0x2c(%ebp),%ebx
    52d9:	c1 eb 18             	shr    $0x18,%ebx
    52dc:	30 d9                	xor    %bl,%cl
    52de:	0f 89 8c 00 00 00    	jns    5370 <double_add_operator+0xc0>
    52e4:	84 db                	test   %bl,%bl
    52e6:	78 40                	js     5328 <double_add_operator+0x78>
    52e8:	81 e2 ff ff ff 7f    	and    $0x7fffffff,%edx
    52ee:	8d 75 f0             	lea    -0x10(%ebp),%esi
    52f1:	89 44 24 0c          	mov    %eax,0xc(%esp)
    52f5:	89 54 24 10          	mov    %edx,0x10(%esp)
    52f9:	8b 45 d0             	mov    -0x30(%ebp),%eax
    52fc:	8b 55 d4             	mov    -0x2c(%ebp),%edx
    52ff:	89 44 24 04          	mov    %eax,0x4(%esp)
    5303:	89 54 24 08          	mov    %edx,0x8(%esp)
    5307:	89 34 24             	mov    %esi,(%esp)
    530a:	e8 e1 69 00 00       	call   bcf0 <sub_float64>
    530f:	51                   	push   %ecx
    5310:	8b 4d 1c             	mov    0x1c(%ebp),%ecx
    5313:	8b 45 f0             	mov    -0x10(%ebp),%eax
    5316:	8b 55 f4             	mov    -0xc(%ebp),%edx
    5319:	89 51 04             	mov    %edx,0x4(%ecx)
    531c:	89 01                	mov    %eax,(%ecx)
    531e:	8d 65 f8             	lea    -0x8(%ebp),%esp
    5321:	5b                   	pop    %ebx
    5322:	5e                   	pop    %esi
    5323:	5d                   	pop    %ebp
    5324:	c3                   	ret    
    5325:	8d 76 00             	lea    0x0(%esi),%esi
    5328:	8b 75 d4             	mov    -0x2c(%ebp),%esi
    532b:	8b 4d d0             	mov    -0x30(%ebp),%ecx
    532e:	81 e6 ff ff ff 7f    	and    $0x7fffffff,%esi
    5334:	89 44 24 04          	mov    %eax,0x4(%esp)
    5338:	89 75 d4             	mov    %esi,-0x2c(%ebp)
    533b:	8d 75 f0             	lea    -0x10(%ebp),%esi
    533e:	8b 5d d4             	mov    -0x2c(%ebp),%ebx
    5341:	89 54 24 08          	mov    %edx,0x8(%esp)
    5345:	89 5c 24 10          	mov    %ebx,0x10(%esp)
    5349:	89 34 24             	mov    %esi,(%esp)
    534c:	89 4c 24 0c          	mov    %ecx,0xc(%esp)
    5350:	e8 9b 69 00 00       	call   bcf0 <sub_float64>
    5355:	8b 45 f0             	mov    -0x10(%ebp),%eax
    5358:	8b 55 f4             	mov    -0xc(%ebp),%edx
    535b:	53                   	push   %ebx
    535c:	8b 5d 1c             	mov    0x1c(%ebp),%ebx
    535f:	89 03                	mov    %eax,(%ebx)
    5361:	89 53 04             	mov    %edx,0x4(%ebx)
    5364:	8d 65 f8             	lea    -0x8(%ebp),%esp
    5367:	5b                   	pop    %ebx
    5368:	5e                   	pop    %esi
    5369:	5d                   	pop    %ebp
    536a:	c3                   	ret    
    536b:	90                   	nop
    536c:	8d 74 26 00          	lea    0x0(%esi,%eiz,1),%esi
    5370:	8d 75 f0             	lea    -0x10(%ebp),%esi
    5373:	89 44 24 0c          	mov    %eax,0xc(%esp)
    5377:	89 54 24 10          	mov    %edx,0x10(%esp)
    537b:	8b 45 d0             	mov    -0x30(%ebp),%eax
    537e:	8b 55 d4             	mov    -0x2c(%ebp),%edx
    5381:	89 44 24 04          	mov    %eax,0x4(%esp)
    5385:	89 54 24 08          	mov    %edx,0x8(%esp)
    5389:	89 34 24             	mov    %esi,(%esp)
    538c:	e8 7f 5a 00 00       	call   ae10 <add_float64>
    5391:	e9 79 ff ff ff       	jmp    530f <double_add_operator+0x5f>
    5396:	8d 76 00             	lea    0x0(%esi),%esi
    5399:	8d bc 27 00 00 00 00 	lea    0x0(%edi,%eiz,1),%edi

000053a0 <float_mul_operator>:
    53a0:	55                   	push   %ebp
    53a1:	89 e5                	mov    %esp,%ebp
    53a3:	83 ec 28             	sub    $0x28,%esp
    53a6:	d9 45 08             	flds   0x8(%ebp)
    53a9:	d9 45 0c             	flds   0xc(%ebp)
    53ac:	d9 c1                	fld    %st(1)
    53ae:	d8 c9                	fmul   %st(1),%st
    53b0:	8b 45 10             	mov    0x10(%ebp),%eax
    53b3:	d9 18                	fstps  (%eax)
    53b5:	d9 c9                	fxch   %st(1)
    53b7:	8d 45 f4             	lea    -0xc(%ebp),%eax
    53ba:	d9 5d f0             	fstps  -0x10(%ebp)
    53bd:	8b 55 f0             	mov    -0x10(%ebp),%edx
    53c0:	89 04 24             	mov    %eax,(%esp)
    53c3:	d9 5d f0             	fstps  -0x10(%ebp)
    53c6:	89 54 24 04          	mov    %edx,0x4(%esp)
    53ca:	8b 4d f0             	mov    -0x10(%ebp),%ecx
    53cd:	89 4c 24 08          	mov    %ecx,0x8(%esp)
    53d1:	e8 4a 8d 00 00       	call   e120 <mul_float32>
    53d6:	8b 55 f4             	mov    -0xc(%ebp),%edx
    53d9:	50                   	push   %eax
    53da:	8b 45 14             	mov    0x14(%ebp),%eax
    53dd:	89 10                	mov    %edx,(%eax)
    53df:	c9                   	leave  
    53e0:	c3                   	ret    
    53e1:	eb 0d                	jmp    53f0 <float_add_operator>
    53e3:	90                   	nop
    53e4:	90                   	nop
    53e5:	90                   	nop
    53e6:	90                   	nop
    53e7:	90                   	nop
    53e8:	90                   	nop
    53e9:	90                   	nop
    53ea:	90                   	nop
    53eb:	90                   	nop
    53ec:	90                   	nop
    53ed:	90                   	nop
    53ee:	90                   	nop
    53ef:	90                   	nop

000053f0 <float_add_operator>:
    53f0:	55                   	push   %ebp
    53f1:	89 e5                	mov    %esp,%ebp
    53f3:	53                   	push   %ebx
    53f4:	83 ec 24             	sub    $0x24,%esp
    53f7:	d9 45 08             	flds   0x8(%ebp)
    53fa:	d9 45 0c             	flds   0xc(%ebp)
    53fd:	d9 c1                	fld    %st(1)
    53ff:	d8 c1                	fadd   %st(1),%st
    5401:	8b 45 10             	mov    0x10(%ebp),%eax
    5404:	d9 18                	fstps  (%eax)
    5406:	d9 c9                	fxch   %st(1)
    5408:	d9 5d f0             	fstps  -0x10(%ebp)
    540b:	8b 45 f0             	mov    -0x10(%ebp),%eax
    540e:	89 c1                	mov    %eax,%ecx
    5410:	d9 5d f0             	fstps  -0x10(%ebp)
    5413:	8b 55 f0             	mov    -0x10(%ebp),%edx
    5416:	c1 e9 18             	shr    $0x18,%ecx
    5419:	89 d3                	mov    %edx,%ebx
    541b:	c1 eb 18             	shr    $0x18,%ebx
    541e:	30 cb                	xor    %cl,%bl
    5420:	79 56                	jns    5478 <float_add_operator+0x88>
    5422:	84 c9                	test   %cl,%cl
    5424:	78 2a                	js     5450 <float_add_operator+0x60>
    5426:	81 e2 ff ff ff 7f    	and    $0x7fffffff,%edx
    542c:	8d 4d f4             	lea    -0xc(%ebp),%ecx
    542f:	89 44 24 04          	mov    %eax,0x4(%esp)
    5433:	89 54 24 08          	mov    %edx,0x8(%esp)
    5437:	89 0c 24             	mov    %ecx,(%esp)
    543a:	e8 21 66 00 00       	call   ba60 <sub_float32>
    543f:	8b 55 14             	mov    0x14(%ebp),%edx
    5442:	50                   	push   %eax
    5443:	8b 45 f4             	mov    -0xc(%ebp),%eax
    5446:	89 02                	mov    %eax,(%edx)
    5448:	8b 5d fc             	mov    -0x4(%ebp),%ebx
    544b:	c9                   	leave  
    544c:	c3                   	ret    
    544d:	8d 76 00             	lea    0x0(%esi),%esi
    5450:	25 ff ff ff 7f       	and    $0x7fffffff,%eax
    5455:	8d 4d f4             	lea    -0xc(%ebp),%ecx
    5458:	89 44 24 08          	mov    %eax,0x8(%esp)
    545c:	89 54 24 04          	mov    %edx,0x4(%esp)
    5460:	89 0c 24             	mov    %ecx,(%esp)
    5463:	e8 f8 65 00 00       	call   ba60 <sub_float32>
    5468:	8b 5d 14             	mov    0x14(%ebp),%ebx
    546b:	50                   	push   %eax
    546c:	8b 45 f4             	mov    -0xc(%ebp),%eax
    546f:	89 03                	mov    %eax,(%ebx)
    5471:	8b 5d fc             	mov    -0x4(%ebp),%ebx
    5474:	c9                   	leave  
    5475:	c3                   	ret    
    5476:	66 90                	xchg   %ax,%ax
    5478:	8d 4d f4             	lea    -0xc(%ebp),%ecx
    547b:	89 44 24 04          	mov    %eax,0x4(%esp)
    547f:	89 54 24 08          	mov    %edx,0x8(%esp)
    5483:	89 0c 24             	mov    %ecx,(%esp)
    5486:	e8 f5 56 00 00       	call   ab80 <add_float32>
    548b:	8b 55 14             	mov    0x14(%ebp),%edx
    548e:	50                   	push   %eax
    548f:	8b 45 f4             	mov    -0xc(%ebp),%eax
    5492:	89 02                	mov    %eax,(%edx)
    5494:	8b 5d fc             	mov    -0x4(%ebp),%ebx
    5497:	c9                   	leave  
    5498:	c3                   	ret    
    5499:	8d b4 26 00 00 00 00 	lea    0x0(%esi,%eiz,1),%esi

000054a0 <double_div_operator>:
    54a0:	55                   	push   %ebp
    54a1:	89 e5                	mov    %esp,%ebp
    54a3:	56                   	push   %esi
    54a4:	53                   	push   %ebx
    54a5:	83 ec 40             	sub    $0x40,%esp
    54a8:	d9 7d ee             	fnstcw -0x12(%ebp)
    54ab:	66 8b 45 ee          	mov    -0x12(%ebp),%ax
    54af:	b4 0c                	mov    $0xc,%ah
    54b1:	dd 45 08             	fldl   0x8(%ebp)
    54b4:	66 89 45 ec          	mov    %ax,-0x14(%ebp)
    54b8:	dd 45 10             	fldl   0x10(%ebp)
    54bb:	d9 6d ec             	fldcw  -0x14(%ebp)
    54be:	db 55 e8             	fistl  -0x18(%ebp)
    54c1:	d9 6d ee             	fldcw  -0x12(%ebp)
    54c4:	8b 45 e8             	mov    -0x18(%ebp),%eax
    54c7:	85 c0                	test   %eax,%eax
    54c9:	75 2d                	jne    54f8 <double_div_operator+0x58>
    54cb:	dd d8                	fstp   %st(0)
    54cd:	dd d8                	fstp   %st(0)
    54cf:	8b 45 18             	mov    0x18(%ebp),%eax
    54d2:	8b 4d 1c             	mov    0x1c(%ebp),%ecx
    54d5:	c7 00 00 00 00 00    	movl   $0x0,(%eax)
    54db:	c7 40 04 00 00 00 00 	movl   $0x0,0x4(%eax)
    54e2:	c7 01 00 00 00 00    	movl   $0x0,(%ecx)
    54e8:	c7 41 04 00 00 00 00 	movl   $0x0,0x4(%ecx)
    54ef:	8d 65 f8             	lea    -0x8(%ebp),%esp
    54f2:	5b                   	pop    %ebx
    54f3:	5e                   	pop    %esi
    54f4:	5d                   	pop    %ebp
    54f5:	c3                   	ret    
    54f6:	66 90                	xchg   %ax,%ax
    54f8:	d9 c1                	fld    %st(1)
    54fa:	d8 f1                	fdiv   %st(1),%st
    54fc:	8b 45 18             	mov    0x18(%ebp),%eax
    54ff:	8d 75 f0             	lea    -0x10(%ebp),%esi
    5502:	dd 18                	fstpl  (%eax)
    5504:	d9 c9                	fxch   %st(1)
    5506:	89 34 24             	mov    %esi,(%esp)
    5509:	dd 5d e0             	fstpl  -0x20(%ebp)
    550c:	8b 45 e0             	mov    -0x20(%ebp),%eax
    550f:	8b 55 e4             	mov    -0x1c(%ebp),%edx
    5512:	dd 5d e0             	fstpl  -0x20(%ebp)
    5515:	8b 4d e0             	mov    -0x20(%ebp),%ecx
    5518:	8b 5d e4             	mov    -0x1c(%ebp),%ebx
    551b:	89 44 24 04          	mov    %eax,0x4(%esp)
    551f:	89 4c 24 0c          	mov    %ecx,0xc(%esp)
    5523:	89 5c 24 10          	mov    %ebx,0x10(%esp)
    5527:	89 54 24 08          	mov    %edx,0x8(%esp)
    552b:	e8 30 79 00 00       	call   ce60 <div_float64>
    5530:	8b 4d 1c             	mov    0x1c(%ebp),%ecx
    5533:	8b 55 f4             	mov    -0xc(%ebp),%edx
    5536:	50                   	push   %eax
    5537:	8b 45 f0             	mov    -0x10(%ebp),%eax
    553a:	89 01                	mov    %eax,(%ecx)
    553c:	89 51 04             	mov    %edx,0x4(%ecx)
    553f:	8d 65 f8             	lea    -0x8(%ebp),%esp
    5542:	5b                   	pop    %ebx
    5543:	5e                   	pop    %esi
    5544:	5d                   	pop    %ebp
    5545:	c3                   	ret    
    5546:	8d 76 00             	lea    0x0(%esi),%esi
    5549:	8d bc 27 00 00 00 00 	lea    0x0(%edi,%eiz,1),%edi

00005550 <float_div_operator>:
    5550:	55                   	push   %ebp
    5551:	89 e5                	mov    %esp,%ebp
    5553:	83 ec 28             	sub    $0x28,%esp
    5556:	d9 7d f2             	fnstcw -0xe(%ebp)
    5559:	66 8b 45 f2          	mov    -0xe(%ebp),%ax
    555d:	b4 0c                	mov    $0xc,%ah
    555f:	66 89 45 f0          	mov    %ax,-0x10(%ebp)
    5563:	d9 45 0c             	flds   0xc(%ebp)
    5566:	d9 6d f0             	fldcw  -0x10(%ebp)
    5569:	db 55 ec             	fistl  -0x14(%ebp)
    556c:	d9 6d f2             	fldcw  -0xe(%ebp)
    556f:	8b 45 ec             	mov    -0x14(%ebp),%eax
    5572:	85 c0                	test   %eax,%eax
    5574:	75 1a                	jne    5590 <float_div_operator+0x40>
    5576:	dd d8                	fstp   %st(0)
    5578:	8b 45 10             	mov    0x10(%ebp),%eax
    557b:	8b 55 14             	mov    0x14(%ebp),%edx
    557e:	c7 00 00 00 00 00    	movl   $0x0,(%eax)
    5584:	c7 02 00 00 00 00    	movl   $0x0,(%edx)
    558a:	c9                   	leave  
    558b:	c3                   	ret    
    558c:	8d 74 26 00          	lea    0x0(%esi,%eiz,1),%esi
    5590:	d9 45 08             	flds   0x8(%ebp)
    5593:	8b 55 08             	mov    0x8(%ebp),%edx
    5596:	d8 f1                	fdiv   %st(1),%st
    5598:	8b 45 10             	mov    0x10(%ebp),%eax
    559b:	d9 18                	fstps  (%eax)
    559d:	8d 45 f4             	lea    -0xc(%ebp),%eax
    55a0:	89 54 24 04          	mov    %edx,0x4(%esp)
    55a4:	d9 5d e8             	fstps  -0x18(%ebp)
    55a7:	89 04 24             	mov    %eax,(%esp)
    55aa:	8b 4d e8             	mov    -0x18(%ebp),%ecx
    55ad:	89 4c 24 08          	mov    %ecx,0x8(%esp)
    55b1:	e8 1a 75 00 00       	call   cad0 <div_float32>
    55b6:	8b 55 14             	mov    0x14(%ebp),%edx
    55b9:	50                   	push   %eax
    55ba:	8b 45 f4             	mov    -0xc(%ebp),%eax
    55bd:	89 02                	mov    %eax,(%edx)
    55bf:	c9                   	leave  
    55c0:	c3                   	ret    
    55c1:	eb 0d                	jmp    55d0 <test_template_binary.constprop.3>
    55c3:	90                   	nop
    55c4:	90                   	nop
    55c5:	90                   	nop
    55c6:	90                   	nop
    55c7:	90                   	nop
    55c8:	90                   	nop
    55c9:	90                   	nop
    55ca:	90                   	nop
    55cb:	90                   	nop
    55cc:	90                   	nop
    55cd:	90                   	nop
    55ce:	90                   	nop
    55cf:	90                   	nop

000055d0 <test_template_binary.constprop.3>:
    55d0:	55                   	push   %ebp
    55d1:	89 e5                	mov    %esp,%ebp
    55d3:	57                   	push   %edi
    55d4:	56                   	push   %esi
    55d5:	53                   	push   %ebx
    55d6:	83 ec 5c             	sub    $0x5c,%esp
    55d9:	89 c7                	mov    %eax,%edi
    55db:	c6 45 c3 01          	movb   $0x1,-0x3d(%ebp)
    55df:	c7 45 c4 00 00 00 00 	movl   $0x0,-0x3c(%ebp)
    55e6:	8d 75 e0             	lea    -0x20(%ebp),%esi
    55e9:	8d 5d d8             	lea    -0x28(%ebp),%ebx
    55ec:	e9 3e 03 00 00       	jmp    592f <test_template_binary.constprop.3+0x35f>
    55f1:	8d b4 26 00 00 00 00 	lea    0x0(%esi,%eiz,1),%esi
    55f8:	0f 85 ff 03 00 00    	jne    59fd <test_template_binary.constprop.3+0x42d>
    55fe:	dd 45 c8             	fldl   -0x38(%ebp)
    5601:	89 74 24 14          	mov    %esi,0x14(%esp)
    5605:	89 5c 24 10          	mov    %ebx,0x10(%esp)
    5609:	dd 1c 24             	fstpl  (%esp)
    560c:	c7 44 24 08 00 00 00 	movl   $0x0,0x8(%esp)
    5613:	00 
    5614:	c7 44 24 0c 00 00 59 	movl   $0x40590000,0xc(%esp)
    561b:	40 
    561c:	ff d7                	call   *%edi
    561e:	d9 05 c8 2a 03 00    	flds   0x32ac8
    5624:	d9 7d d6             	fnstcw -0x2a(%ebp)
    5627:	dd 45 d8             	fldl   -0x28(%ebp)
    562a:	d8 c9                	fmul   %st(1),%st
    562c:	66 8b 45 d6          	mov    -0x2a(%ebp),%ax
    5630:	b4 0c                	mov    $0xc,%ah
    5632:	66 89 45 d4          	mov    %ax,-0x2c(%ebp)
    5636:	d9 6d d4             	fldcw  -0x2c(%ebp)
    5639:	db 5d d0             	fistpl -0x30(%ebp)
    563c:	d9 6d d6             	fldcw  -0x2a(%ebp)
    563f:	dc 4d e0             	fmull  -0x20(%ebp)
    5642:	8b 45 d0             	mov    -0x30(%ebp),%eax
    5645:	d9 6d d4             	fldcw  -0x2c(%ebp)
    5648:	db 5d d0             	fistpl -0x30(%ebp)
    564b:	d9 6d d6             	fldcw  -0x2a(%ebp)
    564e:	8b 55 d0             	mov    -0x30(%ebp),%edx
    5651:	29 d0                	sub    %edx,%eax
    5653:	83 f8 00             	cmp    $0x0,%eax
    5656:	0f 8c c4 05 00 00    	jl     5c20 <test_template_binary.constprop.3+0x650>
    565c:	0f 85 c0 05 00 00    	jne    5c22 <test_template_binary.constprop.3+0x652>
    5662:	dd 45 c8             	fldl   -0x38(%ebp)
    5665:	89 74 24 14          	mov    %esi,0x14(%esp)
    5669:	89 5c 24 10          	mov    %ebx,0x10(%esp)
    566d:	dd 1c 24             	fstpl  (%esp)
    5670:	c7 44 24 08 00 00 00 	movl   $0x0,0x8(%esp)
    5677:	00 
    5678:	c7 44 24 0c 00 00 49 	movl   $0x40490000,0xc(%esp)
    567f:	40 
    5680:	ff d7                	call   *%edi
    5682:	d9 05 c8 2a 03 00    	flds   0x32ac8
    5688:	d9 7d d6             	fnstcw -0x2a(%ebp)
    568b:	dd 45 d8             	fldl   -0x28(%ebp)
    568e:	d8 c9                	fmul   %st(1),%st
    5690:	66 8b 45 d6          	mov    -0x2a(%ebp),%ax
    5694:	b4 0c                	mov    $0xc,%ah
    5696:	66 89 45 d4          	mov    %ax,-0x2c(%ebp)
    569a:	d9 6d d4             	fldcw  -0x2c(%ebp)
    569d:	db 5d d0             	fistpl -0x30(%ebp)
    56a0:	d9 6d d6             	fldcw  -0x2a(%ebp)
    56a3:	dc 4d e0             	fmull  -0x20(%ebp)
    56a6:	8b 45 d0             	mov    -0x30(%ebp),%eax
    56a9:	d9 6d d4             	fldcw  -0x2c(%ebp)
    56ac:	db 5d d0             	fistpl -0x30(%ebp)
    56af:	d9 6d d6             	fldcw  -0x2a(%ebp)
    56b2:	8b 55 d0             	mov    -0x30(%ebp),%edx
    56b5:	29 d0                	sub    %edx,%eax
    56b7:	83 f8 00             	cmp    $0x0,%eax
    56ba:	0f 8c a0 05 00 00    	jl     5c60 <test_template_binary.constprop.3+0x690>
    56c0:	0f 85 9c 05 00 00    	jne    5c62 <test_template_binary.constprop.3+0x692>
    56c6:	dd 45 c8             	fldl   -0x38(%ebp)
    56c9:	89 74 24 14          	mov    %esi,0x14(%esp)
    56cd:	89 5c 24 10          	mov    %ebx,0x10(%esp)
    56d1:	dd 1c 24             	fstpl  (%esp)
    56d4:	c7 44 24 08 00 00 00 	movl   $0x0,0x8(%esp)
    56db:	00 
    56dc:	c7 44 24 0c 00 00 90 	movl   $0xc0900000,0xc(%esp)
    56e3:	c0 
    56e4:	ff d7                	call   *%edi
    56e6:	d9 05 c8 2a 03 00    	flds   0x32ac8
    56ec:	d9 7d d6             	fnstcw -0x2a(%ebp)
    56ef:	dd 45 d8             	fldl   -0x28(%ebp)
    56f2:	d8 c9                	fmul   %st(1),%st
    56f4:	66 8b 45 d6          	mov    -0x2a(%ebp),%ax
    56f8:	b4 0c                	mov    $0xc,%ah
    56fa:	66 89 45 d4          	mov    %ax,-0x2c(%ebp)
    56fe:	d9 6d d4             	fldcw  -0x2c(%ebp)
    5701:	db 5d d0             	fistpl -0x30(%ebp)
    5704:	d9 6d d6             	fldcw  -0x2a(%ebp)
    5707:	dc 4d e0             	fmull  -0x20(%ebp)
    570a:	8b 45 d0             	mov    -0x30(%ebp),%eax
    570d:	d9 6d d4             	fldcw  -0x2c(%ebp)
    5710:	db 5d d0             	fistpl -0x30(%ebp)
    5713:	d9 6d d6             	fldcw  -0x2a(%ebp)
    5716:	8b 55 d0             	mov    -0x30(%ebp),%edx
    5719:	29 d0                	sub    %edx,%eax
    571b:	83 f8 00             	cmp    $0x0,%eax
    571e:	0f 8c bc 04 00 00    	jl     5be0 <test_template_binary.constprop.3+0x610>
    5724:	0f 85 b8 04 00 00    	jne    5be2 <test_template_binary.constprop.3+0x612>
    572a:	dd 45 c8             	fldl   -0x38(%ebp)
    572d:	89 74 24 14          	mov    %esi,0x14(%esp)
    5731:	89 5c 24 10          	mov    %ebx,0x10(%esp)
    5735:	dd 1c 24             	fstpl  (%esp)
    5738:	c7 44 24 08 00 00 00 	movl   $0x0,0x8(%esp)
    573f:	00 
    5740:	c7 44 24 0c 00 00 00 	movl   $0x0,0xc(%esp)
    5747:	00 
    5748:	ff d7                	call   *%edi
    574a:	d9 05 c8 2a 03 00    	flds   0x32ac8
    5750:	d9 7d d6             	fnstcw -0x2a(%ebp)
    5753:	dd 45 d8             	fldl   -0x28(%ebp)
    5756:	d8 c9                	fmul   %st(1),%st
    5758:	66 8b 45 d6          	mov    -0x2a(%ebp),%ax
    575c:	b4 0c                	mov    $0xc,%ah
    575e:	66 89 45 d4          	mov    %ax,-0x2c(%ebp)
    5762:	d9 6d d4             	fldcw  -0x2c(%ebp)
    5765:	db 5d d0             	fistpl -0x30(%ebp)
    5768:	d9 6d d6             	fldcw  -0x2a(%ebp)
    576b:	dc 4d e0             	fmull  -0x20(%ebp)
    576e:	8b 45 d0             	mov    -0x30(%ebp),%eax
    5771:	d9 6d d4             	fldcw  -0x2c(%ebp)
    5774:	db 5d d0             	fistpl -0x30(%ebp)
    5777:	d9 6d d6             	fldcw  -0x2a(%ebp)
    577a:	8b 55 d0             	mov    -0x30(%ebp),%edx
    577d:	29 d0                	sub    %edx,%eax
    577f:	83 f8 00             	cmp    $0x0,%eax
    5782:	0f 8c 18 04 00 00    	jl     5ba0 <test_template_binary.constprop.3+0x5d0>
    5788:	0f 85 14 04 00 00    	jne    5ba2 <test_template_binary.constprop.3+0x5d2>
    578e:	dd 45 c8             	fldl   -0x38(%ebp)
    5791:	89 74 24 14          	mov    %esi,0x14(%esp)
    5795:	89 5c 24 10          	mov    %ebx,0x10(%esp)
    5799:	dd 1c 24             	fstpl  (%esp)
    579c:	c7 44 24 08 f1 f4 4a 	movl   $0x594af4f1,0x8(%esp)
    57a3:	59 
    57a4:	c7 44 24 0c 86 02 88 	movl   $0x40880286,0xc(%esp)
    57ab:	40 
    57ac:	ff d7                	call   *%edi
    57ae:	d9 05 c8 2a 03 00    	flds   0x32ac8
    57b4:	d9 7d d6             	fnstcw -0x2a(%ebp)
    57b7:	dd 45 d8             	fldl   -0x28(%ebp)
    57ba:	d8 c9                	fmul   %st(1),%st
    57bc:	66 8b 45 d6          	mov    -0x2a(%ebp),%ax
    57c0:	b4 0c                	mov    $0xc,%ah
    57c2:	66 89 45 d4          	mov    %ax,-0x2c(%ebp)
    57c6:	d9 6d d4             	fldcw  -0x2c(%ebp)
    57c9:	db 5d d0             	fistpl -0x30(%ebp)
    57cc:	d9 6d d6             	fldcw  -0x2a(%ebp)
    57cf:	dc 4d e0             	fmull  -0x20(%ebp)
    57d2:	8b 45 d0             	mov    -0x30(%ebp),%eax
    57d5:	d9 6d d4             	fldcw  -0x2c(%ebp)
    57d8:	db 5d d0             	fistpl -0x30(%ebp)
    57db:	d9 6d d6             	fldcw  -0x2a(%ebp)
    57de:	8b 55 d0             	mov    -0x30(%ebp),%edx
    57e1:	29 d0                	sub    %edx,%eax
    57e3:	83 f8 00             	cmp    $0x0,%eax
    57e6:	0f 8c 74 03 00 00    	jl     5b60 <test_template_binary.constprop.3+0x590>
    57ec:	0f 85 70 03 00 00    	jne    5b62 <test_template_binary.constprop.3+0x592>
    57f2:	dd 45 c8             	fldl   -0x38(%ebp)
    57f5:	89 74 24 14          	mov    %esi,0x14(%esp)
    57f9:	89 5c 24 10          	mov    %ebx,0x10(%esp)
    57fd:	dd 1c 24             	fstpl  (%esp)
    5800:	c7 44 24 08 21 e4 bc 	movl   $0xffbce421,0x8(%esp)
    5807:	ff 
    5808:	c7 44 24 0c ff e1 90 	movl   $0x4090e1ff,0xc(%esp)
    580f:	40 
    5810:	ff d7                	call   *%edi
    5812:	d9 05 c8 2a 03 00    	flds   0x32ac8
    5818:	d9 7d d6             	fnstcw -0x2a(%ebp)
    581b:	dd 45 d8             	fldl   -0x28(%ebp)
    581e:	d8 c9                	fmul   %st(1),%st
    5820:	66 8b 45 d6          	mov    -0x2a(%ebp),%ax
    5824:	b4 0c                	mov    $0xc,%ah
    5826:	66 89 45 d4          	mov    %ax,-0x2c(%ebp)
    582a:	d9 6d d4             	fldcw  -0x2c(%ebp)
    582d:	db 5d d0             	fistpl -0x30(%ebp)
    5830:	d9 6d d6             	fldcw  -0x2a(%ebp)
    5833:	dc 4d e0             	fmull  -0x20(%ebp)
    5836:	8b 45 d0             	mov    -0x30(%ebp),%eax
    5839:	d9 6d d4             	fldcw  -0x2c(%ebp)
    583c:	db 5d d0             	fistpl -0x30(%ebp)
    583f:	d9 6d d6             	fldcw  -0x2a(%ebp)
    5842:	8b 55 d0             	mov    -0x30(%ebp),%edx
    5845:	29 d0                	sub    %edx,%eax
    5847:	83 f8 00             	cmp    $0x0,%eax
    584a:	0f 8c d0 02 00 00    	jl     5b20 <test_template_binary.constprop.3+0x550>
    5850:	0f 85 cc 02 00 00    	jne    5b22 <test_template_binary.constprop.3+0x552>
    5856:	dd 45 c8             	fldl   -0x38(%ebp)
    5859:	89 74 24 14          	mov    %esi,0x14(%esp)
    585d:	89 5c 24 10          	mov    %ebx,0x10(%esp)
    5861:	dd 1c 24             	fstpl  (%esp)
    5864:	c7 44 24 08 00 00 00 	movl   $0x0,0x8(%esp)
    586b:	00 
    586c:	c7 44 24 0c 00 c0 82 	movl   $0xc082c000,0xc(%esp)
    5873:	c0 
    5874:	ff d7                	call   *%edi
    5876:	d9 05 c8 2a 03 00    	flds   0x32ac8
    587c:	d9 7d d6             	fnstcw -0x2a(%ebp)
    587f:	dd 45 d8             	fldl   -0x28(%ebp)
    5882:	d8 c9                	fmul   %st(1),%st
    5884:	66 8b 45 d6          	mov    -0x2a(%ebp),%ax
    5888:	b4 0c                	mov    $0xc,%ah
    588a:	66 89 45 d4          	mov    %ax,-0x2c(%ebp)
    588e:	d9 6d d4             	fldcw  -0x2c(%ebp)
    5891:	db 5d d0             	fistpl -0x30(%ebp)
    5894:	d9 6d d6             	fldcw  -0x2a(%ebp)
    5897:	dc 4d e0             	fmull  -0x20(%ebp)
    589a:	8b 45 d0             	mov    -0x30(%ebp),%eax
    589d:	d9 6d d4             	fldcw  -0x2c(%ebp)
    58a0:	db 5d d0             	fistpl -0x30(%ebp)
    58a3:	d9 6d d6             	fldcw  -0x2a(%ebp)
    58a6:	8b 55 d0             	mov    -0x30(%ebp),%edx
    58a9:	29 d0                	sub    %edx,%eax
    58ab:	83 f8 00             	cmp    $0x0,%eax
    58ae:	0f 8c 2c 02 00 00    	jl     5ae0 <test_template_binary.constprop.3+0x510>
    58b4:	0f 85 28 02 00 00    	jne    5ae2 <test_template_binary.constprop.3+0x512>
    58ba:	dd 45 c8             	fldl   -0x38(%ebp)
    58bd:	89 74 24 14          	mov    %esi,0x14(%esp)
    58c1:	89 5c 24 10          	mov    %ebx,0x10(%esp)
    58c5:	dd 1c 24             	fstpl  (%esp)
    58c8:	c7 44 24 08 00 00 00 	movl   $0x0,0x8(%esp)
    58cf:	00 
    58d0:	c7 44 24 0c 00 00 f0 	movl   $0x3ff00000,0xc(%esp)
    58d7:	3f 
    58d8:	ff d7                	call   *%edi
    58da:	d9 05 c8 2a 03 00    	flds   0x32ac8
    58e0:	d9 7d d6             	fnstcw -0x2a(%ebp)
    58e3:	dd 45 d8             	fldl   -0x28(%ebp)
    58e6:	d8 c9                	fmul   %st(1),%st
    58e8:	66 8b 45 d6          	mov    -0x2a(%ebp),%ax
    58ec:	b4 0c                	mov    $0xc,%ah
    58ee:	66 89 45 d4          	mov    %ax,-0x2c(%ebp)
    58f2:	d9 6d d4             	fldcw  -0x2c(%ebp)
    58f5:	db 5d d0             	fistpl -0x30(%ebp)
    58f8:	d9 6d d6             	fldcw  -0x2a(%ebp)
    58fb:	dc 4d e0             	fmull  -0x20(%ebp)
    58fe:	8b 45 d0             	mov    -0x30(%ebp),%eax
    5901:	d9 6d d4             	fldcw  -0x2c(%ebp)
    5904:	db 5d d0             	fistpl -0x30(%ebp)
    5907:	d9 6d d6             	fldcw  -0x2a(%ebp)
    590a:	8b 55 d0             	mov    -0x30(%ebp),%edx
    590d:	29 d0                	sub    %edx,%eax
    590f:	83 f8 00             	cmp    $0x0,%eax
    5912:	0f 8c 68 01 00 00    	jl     5a80 <test_template_binary.constprop.3+0x4b0>
    5918:	0f 85 64 01 00 00    	jne    5a82 <test_template_binary.constprop.3+0x4b2>
    591e:	8b 55 c4             	mov    -0x3c(%ebp),%edx
    5921:	42                   	inc    %edx
    5922:	89 55 c4             	mov    %edx,-0x3c(%ebp)
    5925:	83 7d c4 0a          	cmpl   $0xa,-0x3c(%ebp)
    5929:	0f 84 a1 01 00 00    	je     5ad0 <test_template_binary.constprop.3+0x500>
    592f:	8b 45 c4             	mov    -0x3c(%ebp),%eax
    5932:	89 74 24 14          	mov    %esi,0x14(%esp)
    5936:	89 5c 24 10          	mov    %ebx,0x10(%esp)
    593a:	c7 44 24 08 00 00 00 	movl   $0x0,0x8(%esp)
    5941:	00 
    5942:	dd 04 c5 00 2a 03 00 	fldl   0x32a00(,%eax,8)
    5949:	c7 44 24 0c 00 00 0c 	movl   $0x400c0000,0xc(%esp)
    5950:	40 
    5951:	dd 55 c8             	fstl   -0x38(%ebp)
    5954:	dd 1c 24             	fstpl  (%esp)
    5957:	ff d7                	call   *%edi
    5959:	d9 05 c8 2a 03 00    	flds   0x32ac8
    595f:	d9 7d d6             	fnstcw -0x2a(%ebp)
    5962:	dd 45 d8             	fldl   -0x28(%ebp)
    5965:	d8 c9                	fmul   %st(1),%st
    5967:	66 8b 45 d6          	mov    -0x2a(%ebp),%ax
    596b:	b4 0c                	mov    $0xc,%ah
    596d:	66 89 45 d4          	mov    %ax,-0x2c(%ebp)
    5971:	d9 6d d4             	fldcw  -0x2c(%ebp)
    5974:	db 5d d0             	fistpl -0x30(%ebp)
    5977:	d9 6d d6             	fldcw  -0x2a(%ebp)
    597a:	dc 4d e0             	fmull  -0x20(%ebp)
    597d:	8b 45 d0             	mov    -0x30(%ebp),%eax
    5980:	d9 6d d4             	fldcw  -0x2c(%ebp)
    5983:	db 5d d0             	fistpl -0x30(%ebp)
    5986:	d9 6d d6             	fldcw  -0x2a(%ebp)
    5989:	8b 55 d0             	mov    -0x30(%ebp),%edx
    598c:	29 d0                	sub    %edx,%eax
    598e:	83 f8 00             	cmp    $0x0,%eax
    5991:	0f 8c a9 00 00 00    	jl     5a40 <test_template_binary.constprop.3+0x470>
    5997:	0f 85 a5 00 00 00    	jne    5a42 <test_template_binary.constprop.3+0x472>
    599d:	dd 45 c8             	fldl   -0x38(%ebp)
    59a0:	89 74 24 14          	mov    %esi,0x14(%esp)
    59a4:	89 5c 24 10          	mov    %ebx,0x10(%esp)
    59a8:	dd 1c 24             	fstpl  (%esp)
    59ab:	c7 44 24 08 cd cc cc 	movl   $0xcccccccd,0x8(%esp)
    59b2:	cc 
    59b3:	c7 44 24 0c cc cc 00 	movl   $0xc000cccc,0xc(%esp)
    59ba:	c0 
    59bb:	ff d7                	call   *%edi
    59bd:	d9 05 c8 2a 03 00    	flds   0x32ac8
    59c3:	d9 7d d6             	fnstcw -0x2a(%ebp)
    59c6:	dd 45 d8             	fldl   -0x28(%ebp)
    59c9:	d8 c9                	fmul   %st(1),%st
    59cb:	66 8b 45 d6          	mov    -0x2a(%ebp),%ax
    59cf:	b4 0c                	mov    $0xc,%ah
    59d1:	66 89 45 d4          	mov    %ax,-0x2c(%ebp)
    59d5:	d9 6d d4             	fldcw  -0x2c(%ebp)
    59d8:	db 5d d0             	fistpl -0x30(%ebp)
    59db:	d9 6d d6             	fldcw  -0x2a(%ebp)
    59de:	dc 4d e0             	fmull  -0x20(%ebp)
    59e1:	8b 45 d0             	mov    -0x30(%ebp),%eax
    59e4:	d9 6d d4             	fldcw  -0x2c(%ebp)
    59e7:	db 5d d0             	fistpl -0x30(%ebp)
    59ea:	d9 6d d6             	fldcw  -0x2a(%ebp)
    59ed:	8b 55 d0             	mov    -0x30(%ebp),%edx
    59f0:	29 d0                	sub    %edx,%eax
    59f2:	83 f8 00             	cmp    $0x0,%eax
    59f5:	0f 8d fd fb ff ff    	jge    55f8 <test_template_binary.constprop.3+0x28>
    59fb:	f7 d8                	neg    %eax
    59fd:	c6 45 c3 00          	movb   $0x0,-0x3d(%ebp)
    5a01:	80 3d a0 69 03 00 00 	cmpb   $0x0,0x369a0
    5a08:	0f 85 f0 fb ff ff    	jne    55fe <test_template_binary.constprop.3+0x2e>
    5a0e:	89 44 24 10          	mov    %eax,0x10(%esp)
    5a12:	8b 45 c4             	mov    -0x3c(%ebp),%eax
    5a15:	89 44 24 08          	mov    %eax,0x8(%esp)
    5a19:	a1 38 6a 03 00       	mov    0x36a38,%eax
    5a1e:	c7 44 24 0c 01 00 00 	movl   $0x1,0xc(%esp)
    5a25:	00 
    5a26:	c7 44 24 04 8c 28 03 	movl   $0x3288c,0x4(%esp)
    5a2d:	00 
    5a2e:	89 04 24             	mov    %eax,(%esp)
    5a31:	e8 6a 83 01 00       	call   1dda0 <fprintf>
    5a36:	e9 c3 fb ff ff       	jmp    55fe <test_template_binary.constprop.3+0x2e>
    5a3b:	90                   	nop
    5a3c:	8d 74 26 00          	lea    0x0(%esi,%eiz,1),%esi
    5a40:	f7 d8                	neg    %eax
    5a42:	c6 45 c3 00          	movb   $0x0,-0x3d(%ebp)
    5a46:	80 3d a0 69 03 00 00 	cmpb   $0x0,0x369a0
    5a4d:	0f 85 4a ff ff ff    	jne    599d <test_template_binary.constprop.3+0x3cd>
    5a53:	89 44 24 10          	mov    %eax,0x10(%esp)
    5a57:	8b 45 c4             	mov    -0x3c(%ebp),%eax
    5a5a:	89 44 24 08          	mov    %eax,0x8(%esp)
    5a5e:	a1 38 6a 03 00       	mov    0x36a38,%eax
    5a63:	c7 44 24 0c 00 00 00 	movl   $0x0,0xc(%esp)
    5a6a:	00 
    5a6b:	c7 44 24 04 8c 28 03 	movl   $0x3288c,0x4(%esp)
    5a72:	00 
    5a73:	89 04 24             	mov    %eax,(%esp)
    5a76:	e8 25 83 01 00       	call   1dda0 <fprintf>
    5a7b:	e9 1d ff ff ff       	jmp    599d <test_template_binary.constprop.3+0x3cd>
    5a80:	f7 d8                	neg    %eax
    5a82:	c6 45 c3 00          	movb   $0x0,-0x3d(%ebp)
    5a86:	80 3d a0 69 03 00 00 	cmpb   $0x0,0x369a0
    5a8d:	0f 85 8b fe ff ff    	jne    591e <test_template_binary.constprop.3+0x34e>
    5a93:	89 44 24 10          	mov    %eax,0x10(%esp)
    5a97:	8b 45 c4             	mov    -0x3c(%ebp),%eax
    5a9a:	89 44 24 08          	mov    %eax,0x8(%esp)
    5a9e:	a1 38 6a 03 00       	mov    0x36a38,%eax
    5aa3:	c7 44 24 0c 09 00 00 	movl   $0x9,0xc(%esp)
    5aaa:	00 
    5aab:	c7 44 24 04 8c 28 03 	movl   $0x3288c,0x4(%esp)
    5ab2:	00 
    5ab3:	89 04 24             	mov    %eax,(%esp)
    5ab6:	e8 e5 82 01 00       	call   1dda0 <fprintf>
    5abb:	8b 55 c4             	mov    -0x3c(%ebp),%edx
    5abe:	42                   	inc    %edx
    5abf:	89 55 c4             	mov    %edx,-0x3c(%ebp)
    5ac2:	83 7d c4 0a          	cmpl   $0xa,-0x3c(%ebp)
    5ac6:	0f 85 63 fe ff ff    	jne    592f <test_template_binary.constprop.3+0x35f>
    5acc:	8d 74 26 00          	lea    0x0(%esi,%eiz,1),%esi
    5ad0:	8a 45 c3             	mov    -0x3d(%ebp),%al
    5ad3:	83 c4 5c             	add    $0x5c,%esp
    5ad6:	5b                   	pop    %ebx
    5ad7:	5e                   	pop    %esi
    5ad8:	5f                   	pop    %edi
    5ad9:	5d                   	pop    %ebp
    5ada:	c3                   	ret    
    5adb:	90                   	nop
    5adc:	8d 74 26 00          	lea    0x0(%esi,%eiz,1),%esi
    5ae0:	f7 d8                	neg    %eax
    5ae2:	c6 45 c3 00          	movb   $0x0,-0x3d(%ebp)
    5ae6:	80 3d a0 69 03 00 00 	cmpb   $0x0,0x369a0
    5aed:	0f 85 c7 fd ff ff    	jne    58ba <test_template_binary.constprop.3+0x2ea>
    5af3:	89 44 24 10          	mov    %eax,0x10(%esp)
    5af7:	8b 45 c4             	mov    -0x3c(%ebp),%eax
    5afa:	89 44 24 08          	mov    %eax,0x8(%esp)
    5afe:	a1 38 6a 03 00       	mov    0x36a38,%eax
    5b03:	c7 44 24 0c 08 00 00 	movl   $0x8,0xc(%esp)
    5b0a:	00 
    5b0b:	c7 44 24 04 8c 28 03 	movl   $0x3288c,0x4(%esp)
    5b12:	00 
    5b13:	89 04 24             	mov    %eax,(%esp)
    5b16:	e8 85 82 01 00       	call   1dda0 <fprintf>
    5b1b:	e9 9a fd ff ff       	jmp    58ba <test_template_binary.constprop.3+0x2ea>
    5b20:	f7 d8                	neg    %eax
    5b22:	c6 45 c3 00          	movb   $0x0,-0x3d(%ebp)
    5b26:	80 3d a0 69 03 00 00 	cmpb   $0x0,0x369a0
    5b2d:	0f 85 23 fd ff ff    	jne    5856 <test_template_binary.constprop.3+0x286>
    5b33:	89 44 24 10          	mov    %eax,0x10(%esp)
    5b37:	8b 45 c4             	mov    -0x3c(%ebp),%eax
    5b3a:	89 44 24 08          	mov    %eax,0x8(%esp)
    5b3e:	a1 38 6a 03 00       	mov    0x36a38,%eax
    5b43:	c7 44 24 0c 07 00 00 	movl   $0x7,0xc(%esp)
    5b4a:	00 
    5b4b:	c7 44 24 04 8c 28 03 	movl   $0x3288c,0x4(%esp)
    5b52:	00 
    5b53:	89 04 24             	mov    %eax,(%esp)
    5b56:	e8 45 82 01 00       	call   1dda0 <fprintf>
    5b5b:	e9 f6 fc ff ff       	jmp    5856 <test_template_binary.constprop.3+0x286>
    5b60:	f7 d8                	neg    %eax
    5b62:	c6 45 c3 00          	movb   $0x0,-0x3d(%ebp)
    5b66:	80 3d a0 69 03 00 00 	cmpb   $0x0,0x369a0
    5b6d:	0f 85 7f fc ff ff    	jne    57f2 <test_template_binary.constprop.3+0x222>
    5b73:	89 44 24 10          	mov    %eax,0x10(%esp)
    5b77:	8b 45 c4             	mov    -0x3c(%ebp),%eax
    5b7a:	89 44 24 08          	mov    %eax,0x8(%esp)
    5b7e:	a1 38 6a 03 00       	mov    0x36a38,%eax
    5b83:	c7 44 24 0c 06 00 00 	movl   $0x6,0xc(%esp)
    5b8a:	00 
    5b8b:	c7 44 24 04 8c 28 03 	movl   $0x3288c,0x4(%esp)
    5b92:	00 
    5b93:	89 04 24             	mov    %eax,(%esp)
    5b96:	e8 05 82 01 00       	call   1dda0 <fprintf>
    5b9b:	e9 52 fc ff ff       	jmp    57f2 <test_template_binary.constprop.3+0x222>
    5ba0:	f7 d8                	neg    %eax
    5ba2:	c6 45 c3 00          	movb   $0x0,-0x3d(%ebp)
    5ba6:	80 3d a0 69 03 00 00 	cmpb   $0x0,0x369a0
    5bad:	0f 85 db fb ff ff    	jne    578e <test_template_binary.constprop.3+0x1be>
    5bb3:	89 44 24 10          	mov    %eax,0x10(%esp)
    5bb7:	8b 45 c4             	mov    -0x3c(%ebp),%eax
    5bba:	89 44 24 08          	mov    %eax,0x8(%esp)
    5bbe:	a1 38 6a 03 00       	mov    0x36a38,%eax
    5bc3:	c7 44 24 0c 05 00 00 	movl   $0x5,0xc(%esp)
    5bca:	00 
    5bcb:	c7 44 24 04 8c 28 03 	movl   $0x3288c,0x4(%esp)
    5bd2:	00 
    5bd3:	89 04 24             	mov    %eax,(%esp)
    5bd6:	e8 c5 81 01 00       	call   1dda0 <fprintf>
    5bdb:	e9 ae fb ff ff       	jmp    578e <test_template_binary.constprop.3+0x1be>
    5be0:	f7 d8                	neg    %eax
    5be2:	c6 45 c3 00          	movb   $0x0,-0x3d(%ebp)
    5be6:	80 3d a0 69 03 00 00 	cmpb   $0x0,0x369a0
    5bed:	0f 85 37 fb ff ff    	jne    572a <test_template_binary.constprop.3+0x15a>
    5bf3:	89 44 24 10          	mov    %eax,0x10(%esp)
    5bf7:	8b 45 c4             	mov    -0x3c(%ebp),%eax
    5bfa:	89 44 24 08          	mov    %eax,0x8(%esp)
    5bfe:	a1 38 6a 03 00       	mov    0x36a38,%eax
    5c03:	c7 44 24 0c 04 00 00 	movl   $0x4,0xc(%esp)
    5c0a:	00 
    5c0b:	c7 44 24 04 8c 28 03 	movl   $0x3288c,0x4(%esp)
    5c12:	00 
    5c13:	89 04 24             	mov    %eax,(%esp)
    5c16:	e8 85 81 01 00       	call   1dda0 <fprintf>
    5c1b:	e9 0a fb ff ff       	jmp    572a <test_template_binary.constprop.3+0x15a>
    5c20:	f7 d8                	neg    %eax
    5c22:	c6 45 c3 00          	movb   $0x0,-0x3d(%ebp)
    5c26:	80 3d a0 69 03 00 00 	cmpb   $0x0,0x369a0
    5c2d:	0f 85 2f fa ff ff    	jne    5662 <test_template_binary.constprop.3+0x92>
    5c33:	89 44 24 10          	mov    %eax,0x10(%esp)
    5c37:	8b 45 c4             	mov    -0x3c(%ebp),%eax
    5c3a:	89 44 24 08          	mov    %eax,0x8(%esp)
    5c3e:	a1 38 6a 03 00       	mov    0x36a38,%eax
    5c43:	c7 44 24 0c 02 00 00 	movl   $0x2,0xc(%esp)
    5c4a:	00 
    5c4b:	c7 44 24 04 8c 28 03 	movl   $0x3288c,0x4(%esp)
    5c52:	00 
    5c53:	89 04 24             	mov    %eax,(%esp)
    5c56:	e8 45 81 01 00       	call   1dda0 <fprintf>
    5c5b:	e9 02 fa ff ff       	jmp    5662 <test_template_binary.constprop.3+0x92>
    5c60:	f7 d8                	neg    %eax
    5c62:	c6 45 c3 00          	movb   $0x0,-0x3d(%ebp)
    5c66:	80 3d a0 69 03 00 00 	cmpb   $0x0,0x369a0
    5c6d:	0f 85 53 fa ff ff    	jne    56c6 <test_template_binary.constprop.3+0xf6>
    5c73:	89 44 24 10          	mov    %eax,0x10(%esp)
    5c77:	8b 45 c4             	mov    -0x3c(%ebp),%eax
    5c7a:	89 44 24 08          	mov    %eax,0x8(%esp)
    5c7e:	a1 38 6a 03 00       	mov    0x36a38,%eax
    5c83:	c7 44 24 0c 03 00 00 	movl   $0x3,0xc(%esp)
    5c8a:	00 
    5c8b:	c7 44 24 04 8c 28 03 	movl   $0x3288c,0x4(%esp)
    5c92:	00 
    5c93:	89 04 24             	mov    %eax,(%esp)
    5c96:	e8 05 81 01 00       	call   1dda0 <fprintf>
    5c9b:	e9 26 fa ff ff       	jmp    56c6 <test_template_binary.constprop.3+0xf6>

00005ca0 <test_softfloat1>:
    5ca0:	55                   	push   %ebp
    5ca1:	89 e5                	mov    %esp,%ebp
    5ca3:	57                   	push   %edi
    5ca4:	56                   	push   %esi
    5ca5:	53                   	push   %ebx
    5ca6:	83 ec 7c             	sub    $0x7c,%esp
    5ca9:	be 01 00 00 00       	mov    $0x1,%esi
    5cae:	c7 45 a4 00 00 00 00 	movl   $0x0,-0x5c(%ebp)
    5cb5:	8d 5d c0             	lea    -0x40(%ebp),%ebx
    5cb8:	8d 7d c8             	lea    -0x38(%ebp),%edi
    5cbb:	e9 0f 03 00 00       	jmp    5fcf <test_softfloat1+0x32f>
    5cc0:	0f 85 cd 03 00 00    	jne    6093 <test_softfloat1+0x3f3>
    5cc6:	d9 45 a8             	flds   -0x58(%ebp)
    5cc9:	c7 44 24 04 00 00 c8 	movl   $0x42c80000,0x4(%esp)
    5cd0:	42 
    5cd1:	89 5c 24 0c          	mov    %ebx,0xc(%esp)
    5cd5:	89 7c 24 08          	mov    %edi,0x8(%esp)
    5cd9:	d9 1c 24             	fstps  (%esp)
    5cdc:	e8 0f f7 ff ff       	call   53f0 <float_add_operator>
    5ce1:	d9 05 c8 2a 03 00    	flds   0x32ac8
    5ce7:	d9 7d b6             	fnstcw -0x4a(%ebp)
    5cea:	d9 45 c8             	flds   -0x38(%ebp)
    5ced:	d8 c9                	fmul   %st(1),%st
    5cef:	66 8b 45 b6          	mov    -0x4a(%ebp),%ax
    5cf3:	b4 0c                	mov    $0xc,%ah
    5cf5:	66 89 45 b4          	mov    %ax,-0x4c(%ebp)
    5cf9:	d9 6d b4             	fldcw  -0x4c(%ebp)
    5cfc:	db 5d b0             	fistpl -0x50(%ebp)
    5cff:	d9 6d b6             	fldcw  -0x4a(%ebp)
    5d02:	d8 4d c0             	fmuls  -0x40(%ebp)
    5d05:	8b 45 b0             	mov    -0x50(%ebp),%eax
    5d08:	d9 6d b4             	fldcw  -0x4c(%ebp)
    5d0b:	db 5d b0             	fistpl -0x50(%ebp)
    5d0e:	d9 6d b6             	fldcw  -0x4a(%ebp)
    5d11:	8b 55 b0             	mov    -0x50(%ebp),%edx
    5d14:	29 d0                	sub    %edx,%eax
    5d16:	83 f8 00             	cmp    $0x0,%eax
    5d19:	0f 8c c9 09 00 00    	jl     66e8 <test_softfloat1+0xa48>
    5d1f:	0f 85 c5 09 00 00    	jne    66ea <test_softfloat1+0xa4a>
    5d25:	d9 45 a8             	flds   -0x58(%ebp)
    5d28:	c7 44 24 04 00 00 48 	movl   $0x42480000,0x4(%esp)
    5d2f:	42 
    5d30:	89 5c 24 0c          	mov    %ebx,0xc(%esp)
    5d34:	89 7c 24 08          	mov    %edi,0x8(%esp)
    5d38:	d9 1c 24             	fstps  (%esp)
    5d3b:	e8 b0 f6 ff ff       	call   53f0 <float_add_operator>
    5d40:	d9 05 c8 2a 03 00    	flds   0x32ac8
    5d46:	d9 7d b6             	fnstcw -0x4a(%ebp)
    5d49:	d9 45 c8             	flds   -0x38(%ebp)
    5d4c:	d8 c9                	fmul   %st(1),%st
    5d4e:	66 8b 45 b6          	mov    -0x4a(%ebp),%ax
    5d52:	b4 0c                	mov    $0xc,%ah
    5d54:	66 89 45 b4          	mov    %ax,-0x4c(%ebp)
    5d58:	d9 6d b4             	fldcw  -0x4c(%ebp)
    5d5b:	db 5d b0             	fistpl -0x50(%ebp)
    5d5e:	d9 6d b6             	fldcw  -0x4a(%ebp)
    5d61:	d8 4d c0             	fmuls  -0x40(%ebp)
    5d64:	8b 45 b0             	mov    -0x50(%ebp),%eax
    5d67:	d9 6d b4             	fldcw  -0x4c(%ebp)
    5d6a:	db 5d b0             	fistpl -0x50(%ebp)
    5d6d:	d9 6d b6             	fldcw  -0x4a(%ebp)
    5d70:	8b 55 b0             	mov    -0x50(%ebp),%edx
    5d73:	29 d0                	sub    %edx,%eax
    5d75:	83 f8 00             	cmp    $0x0,%eax
    5d78:	0f 8c aa 09 00 00    	jl     6728 <test_softfloat1+0xa88>
    5d7e:	0f 85 a6 09 00 00    	jne    672a <test_softfloat1+0xa8a>
    5d84:	d9 45 a8             	flds   -0x58(%ebp)
    5d87:	c7 44 24 04 00 00 80 	movl   $0xc4800000,0x4(%esp)
    5d8e:	c4 
    5d8f:	89 5c 24 0c          	mov    %ebx,0xc(%esp)
    5d93:	89 7c 24 08          	mov    %edi,0x8(%esp)
    5d97:	d9 1c 24             	fstps  (%esp)
    5d9a:	e8 51 f6 ff ff       	call   53f0 <float_add_operator>
    5d9f:	d9 05 c8 2a 03 00    	flds   0x32ac8
    5da5:	d9 7d b6             	fnstcw -0x4a(%ebp)
    5da8:	d9 45 c8             	flds   -0x38(%ebp)
    5dab:	d8 c9                	fmul   %st(1),%st
    5dad:	66 8b 45 b6          	mov    -0x4a(%ebp),%ax
    5db1:	b4 0c                	mov    $0xc,%ah
    5db3:	66 89 45 b4          	mov    %ax,-0x4c(%ebp)
    5db7:	d9 6d b4             	fldcw  -0x4c(%ebp)
    5dba:	db 5d b0             	fistpl -0x50(%ebp)
    5dbd:	d9 6d b6             	fldcw  -0x4a(%ebp)
    5dc0:	d8 4d c0             	fmuls  -0x40(%ebp)
    5dc3:	8b 45 b0             	mov    -0x50(%ebp),%eax
    5dc6:	d9 6d b4             	fldcw  -0x4c(%ebp)
    5dc9:	db 5d b0             	fistpl -0x50(%ebp)
    5dcc:	d9 6d b6             	fldcw  -0x4a(%ebp)
    5dcf:	8b 55 b0             	mov    -0x50(%ebp),%edx
    5dd2:	29 d0                	sub    %edx,%eax
    5dd4:	83 f8 00             	cmp    $0x0,%eax
    5dd7:	0f 8c cb 08 00 00    	jl     66a8 <test_softfloat1+0xa08>
    5ddd:	0f 85 c7 08 00 00    	jne    66aa <test_softfloat1+0xa0a>
    5de3:	d9 45 a8             	flds   -0x58(%ebp)
    5de6:	c7 44 24 04 00 00 00 	movl   $0x0,0x4(%esp)
    5ded:	00 
    5dee:	89 5c 24 0c          	mov    %ebx,0xc(%esp)
    5df2:	89 7c 24 08          	mov    %edi,0x8(%esp)
    5df6:	d9 1c 24             	fstps  (%esp)
    5df9:	e8 f2 f5 ff ff       	call   53f0 <float_add_operator>
    5dfe:	d9 05 c8 2a 03 00    	flds   0x32ac8
    5e04:	d9 7d b6             	fnstcw -0x4a(%ebp)
    5e07:	d9 45 c8             	flds   -0x38(%ebp)
    5e0a:	d8 c9                	fmul   %st(1),%st
    5e0c:	66 8b 45 b6          	mov    -0x4a(%ebp),%ax
    5e10:	b4 0c                	mov    $0xc,%ah
    5e12:	66 89 45 b4          	mov    %ax,-0x4c(%ebp)
    5e16:	d9 6d b4             	fldcw  -0x4c(%ebp)
    5e19:	db 5d b0             	fistpl -0x50(%ebp)
    5e1c:	d9 6d b6             	fldcw  -0x4a(%ebp)
    5e1f:	d8 4d c0             	fmuls  -0x40(%ebp)
    5e22:	8b 45 b0             	mov    -0x50(%ebp),%eax
    5e25:	d9 6d b4             	fldcw  -0x4c(%ebp)
    5e28:	db 5d b0             	fistpl -0x50(%ebp)
    5e2b:	d9 6d b6             	fldcw  -0x4a(%ebp)
    5e2e:	8b 55 b0             	mov    -0x50(%ebp),%edx
    5e31:	29 d0                	sub    %edx,%eax
    5e33:	83 f8 00             	cmp    $0x0,%eax
    5e36:	0f 8c 2c 08 00 00    	jl     6668 <test_softfloat1+0x9c8>
    5e3c:	0f 85 28 08 00 00    	jne    666a <test_softfloat1+0x9ca>
    5e42:	d9 45 a8             	flds   -0x58(%ebp)
    5e45:	c7 44 24 04 33 14 40 	movl   $0x44401433,0x4(%esp)
    5e4c:	44 
    5e4d:	89 5c 24 0c          	mov    %ebx,0xc(%esp)
    5e51:	89 7c 24 08          	mov    %edi,0x8(%esp)
    5e55:	d9 1c 24             	fstps  (%esp)
    5e58:	e8 93 f5 ff ff       	call   53f0 <float_add_operator>
    5e5d:	d9 05 c8 2a 03 00    	flds   0x32ac8
    5e63:	d9 7d b6             	fnstcw -0x4a(%ebp)
    5e66:	d9 45 c8             	flds   -0x38(%ebp)
    5e69:	d8 c9                	fmul   %st(1),%st
    5e6b:	66 8b 45 b6          	mov    -0x4a(%ebp),%ax
    5e6f:	b4 0c                	mov    $0xc,%ah
    5e71:	66 89 45 b4          	mov    %ax,-0x4c(%ebp)
    5e75:	d9 6d b4             	fldcw  -0x4c(%ebp)
    5e78:	db 5d b0             	fistpl -0x50(%ebp)
    5e7b:	d9 6d b6             	fldcw  -0x4a(%ebp)
    5e7e:	d8 4d c0             	fmuls  -0x40(%ebp)
    5e81:	8b 45 b0             	mov    -0x50(%ebp),%eax
    5e84:	d9 6d b4             	fldcw  -0x4c(%ebp)
    5e87:	db 5d b0             	fistpl -0x50(%ebp)
    5e8a:	d9 6d b6             	fldcw  -0x4a(%ebp)
    5e8d:	8b 55 b0             	mov    -0x50(%ebp),%edx
    5e90:	29 d0                	sub    %edx,%eax
    5e92:	83 f8 00             	cmp    $0x0,%eax
    5e95:	0f 8c 8d 07 00 00    	jl     6628 <test_softfloat1+0x988>
    5e9b:	0f 85 89 07 00 00    	jne    662a <test_softfloat1+0x98a>
    5ea1:	d9 45 a8             	flds   -0x58(%ebp)
    5ea4:	c7 44 24 04 00 10 87 	movl   $0x44871000,0x4(%esp)
    5eab:	44 
    5eac:	89 5c 24 0c          	mov    %ebx,0xc(%esp)
    5eb0:	89 7c 24 08          	mov    %edi,0x8(%esp)
    5eb4:	d9 1c 24             	fstps  (%esp)
    5eb7:	e8 34 f5 ff ff       	call   53f0 <float_add_operator>
    5ebc:	d9 05 c8 2a 03 00    	flds   0x32ac8
    5ec2:	d9 7d b6             	fnstcw -0x4a(%ebp)
    5ec5:	d9 45 c8             	flds   -0x38(%ebp)
    5ec8:	d8 c9                	fmul   %st(1),%st
    5eca:	66 8b 45 b6          	mov    -0x4a(%ebp),%ax
    5ece:	b4 0c                	mov    $0xc,%ah
    5ed0:	66 89 45 b4          	mov    %ax,-0x4c(%ebp)
    5ed4:	d9 6d b4             	fldcw  -0x4c(%ebp)
    5ed7:	db 5d b0             	fistpl -0x50(%ebp)
    5eda:	d9 6d b6             	fldcw  -0x4a(%ebp)
    5edd:	d8 4d c0             	fmuls  -0x40(%ebp)
    5ee0:	8b 45 b0             	mov    -0x50(%ebp),%eax
    5ee3:	d9 6d b4             	fldcw  -0x4c(%ebp)
    5ee6:	db 5d b0             	fistpl -0x50(%ebp)
    5ee9:	d9 6d b6             	fldcw  -0x4a(%ebp)
    5eec:	8b 55 b0             	mov    -0x50(%ebp),%edx
    5eef:	29 d0                	sub    %edx,%eax
    5ef1:	83 f8 00             	cmp    $0x0,%eax
    5ef4:	0f 8c ee 06 00 00    	jl     65e8 <test_softfloat1+0x948>
    5efa:	0f 85 ea 06 00 00    	jne    65ea <test_softfloat1+0x94a>
    5f00:	d9 45 a8             	flds   -0x58(%ebp)
    5f03:	c7 44 24 04 00 00 16 	movl   $0xc4160000,0x4(%esp)
    5f0a:	c4 
    5f0b:	89 5c 24 0c          	mov    %ebx,0xc(%esp)
    5f0f:	89 7c 24 08          	mov    %edi,0x8(%esp)
    5f13:	d9 1c 24             	fstps  (%esp)
    5f16:	e8 d5 f4 ff ff       	call   53f0 <float_add_operator>
    5f1b:	d9 05 c8 2a 03 00    	flds   0x32ac8
    5f21:	d9 7d b6             	fnstcw -0x4a(%ebp)
    5f24:	d9 45 c8             	flds   -0x38(%ebp)
    5f27:	d8 c9                	fmul   %st(1),%st
    5f29:	66 8b 45 b6          	mov    -0x4a(%ebp),%ax
    5f2d:	b4 0c                	mov    $0xc,%ah
    5f2f:	66 89 45 b4          	mov    %ax,-0x4c(%ebp)
    5f33:	d9 6d b4             	fldcw  -0x4c(%ebp)
    5f36:	db 5d b0             	fistpl -0x50(%ebp)
    5f39:	d9 6d b6             	fldcw  -0x4a(%ebp)
    5f3c:	d8 4d c0             	fmuls  -0x40(%ebp)
    5f3f:	8b 45 b0             	mov    -0x50(%ebp),%eax
    5f42:	d9 6d b4             	fldcw  -0x4c(%ebp)
    5f45:	db 5d b0             	fistpl -0x50(%ebp)
    5f48:	d9 6d b6             	fldcw  -0x4a(%ebp)
    5f4b:	8b 55 b0             	mov    -0x50(%ebp),%edx
    5f4e:	29 d0                	sub    %edx,%eax
    5f50:	83 f8 00             	cmp    $0x0,%eax
    5f53:	0f 8c 4f 06 00 00    	jl     65a8 <test_softfloat1+0x908>
    5f59:	0f 85 4b 06 00 00    	jne    65aa <test_softfloat1+0x90a>
    5f5f:	d9 45 a8             	flds   -0x58(%ebp)
    5f62:	c7 44 24 04 00 00 80 	movl   $0x3f800000,0x4(%esp)
    5f69:	3f 
    5f6a:	89 5c 24 0c          	mov    %ebx,0xc(%esp)
    5f6e:	89 7c 24 08          	mov    %edi,0x8(%esp)
    5f72:	d9 1c 24             	fstps  (%esp)
    5f75:	e8 76 f4 ff ff       	call   53f0 <float_add_operator>
    5f7a:	d9 05 c8 2a 03 00    	flds   0x32ac8
    5f80:	d9 7d b6             	fnstcw -0x4a(%ebp)
    5f83:	d9 45 c8             	flds   -0x38(%ebp)
    5f86:	d8 c9                	fmul   %st(1),%st
    5f88:	66 8b 45 b6          	mov    -0x4a(%ebp),%ax
    5f8c:	b4 0c                	mov    $0xc,%ah
    5f8e:	66 89 45 b4          	mov    %ax,-0x4c(%ebp)
    5f92:	d9 6d b4             	fldcw  -0x4c(%ebp)
    5f95:	db 5d b0             	fistpl -0x50(%ebp)
    5f98:	d9 6d b6             	fldcw  -0x4a(%ebp)
    5f9b:	d8 4d c0             	fmuls  -0x40(%ebp)
    5f9e:	8b 45 b0             	mov    -0x50(%ebp),%eax
    5fa1:	d9 6d b4             	fldcw  -0x4c(%ebp)
    5fa4:	db 5d b0             	fistpl -0x50(%ebp)
    5fa7:	d9 6d b6             	fldcw  -0x4a(%ebp)
    5faa:	8b 55 b0             	mov    -0x50(%ebp),%edx
    5fad:	29 d0                	sub    %edx,%eax
    5faf:	83 f8 00             	cmp    $0x0,%eax
    5fb2:	0f 8c 58 01 00 00    	jl     6110 <test_softfloat1+0x470>
    5fb8:	0f 85 54 01 00 00    	jne    6112 <test_softfloat1+0x472>
    5fbe:	8b 45 a4             	mov    -0x5c(%ebp),%eax
    5fc1:	40                   	inc    %eax
    5fc2:	89 45 a4             	mov    %eax,-0x5c(%ebp)
    5fc5:	83 7d a4 0a          	cmpl   $0xa,-0x5c(%ebp)
