
gxe_bd:     file format elf32-i386


Disassembly of section .init:

00001094 <__entry>:
    1094:	66 8c d0             	mov    %ss,%ax
    1097:	8e d8                	mov    %eax,%ds
    1099:	8e c0                	mov    %eax,%es
    109b:	8e e0                	mov    %eax,%fs
    109d:	b8 01 00 00 00       	mov    $0x1,%eax
    10a2:	0f a2                	cpuid  
    10a4:	0f ba e2 0b          	bt     $0xb,%edx
    10a8:	73 0c                	jae    10b6 <__entry+0x22>
    10aa:	8d 05 70 0c 02 00    	lea    0x20c70,%eax
    10b0:	c7 00 17 bd 01 00    	movl   $0x1bd17,(%eax)
    10b6:	6a 00                	push   $0x0
    10b8:	89 e5                	mov    %esp,%ebp
    10ba:	57                   	push   %edi
    10bb:	e8 30 06 00 00       	call   16f0 <__main>

Disassembly of section .text:

000010c0 <gxe_bd_open>:
    10c0:	55                   	push   %ebp
    10c1:	31 c0                	xor    %eax,%eax
    10c3:	89 e5                	mov    %esp,%ebp
    10c5:	5d                   	pop    %ebp
    10c6:	c3                   	ret    
    10c7:	89 f6                	mov    %esi,%esi
    10c9:	8d bc 27 00 00 00 00 	lea    0x0(%edi,%eiz,1),%edi

000010d0 <gxe_bd_close>:
    10d0:	55                   	push   %ebp
    10d1:	31 c0                	xor    %eax,%eax
    10d3:	89 e5                	mov    %esp,%ebp
    10d5:	5d                   	pop    %ebp
    10d6:	c3                   	ret    
    10d7:	89 f6                	mov    %esi,%esi
    10d9:	8d bc 27 00 00 00 00 	lea    0x0(%edi,%eiz,1),%edi

000010e0 <gxe_bd_get_block_size>:
    10e0:	55                   	push   %ebp
    10e1:	89 e5                	mov    %esp,%ebp
    10e3:	8b 45 0c             	mov    0xc(%ebp),%eax
    10e6:	c7 00 00 02 00 00    	movl   $0x200,(%eax)
    10ec:	31 c0                	xor    %eax,%eax
    10ee:	5d                   	pop    %ebp
    10ef:	c3                   	ret    

000010f0 <gxe_bd_get_num_blocks>:
    10f0:	55                   	push   %ebp
    10f1:	b8 f5 ff ff ff       	mov    $0xfffffff5,%eax
    10f6:	89 e5                	mov    %esp,%ebp
    10f8:	5d                   	pop    %ebp
    10f9:	c3                   	ret    
    10fa:	8d b6 00 00 00 00    	lea    0x0(%esi),%esi

00001100 <gxe_bd_write_blocks>:
    1100:	55                   	push   %ebp
    1101:	89 e5                	mov    %esp,%ebp
    1103:	57                   	push   %edi
    1104:	56                   	push   %esi
    1105:	53                   	push   %ebx
    1106:	83 ec 3c             	sub    $0x3c,%esp
    1109:	8b 75 08             	mov    0x8(%ebp),%esi
    110c:	8b 4d 14             	mov    0x14(%ebp),%ecx
    110f:	8b 45 0c             	mov    0xc(%ebp),%eax
    1112:	8b 55 10             	mov    0x10(%ebp),%edx
    1115:	8b 36                	mov    (%esi),%esi
    1117:	8b 5d 18             	mov    0x18(%ebp),%ebx
    111a:	8b 76 04             	mov    0x4(%esi),%esi
    111d:	8b 76 08             	mov    0x8(%esi),%esi
    1120:	89 75 d4             	mov    %esi,-0x2c(%ebp)
    1123:	89 ce                	mov    %ecx,%esi
    1125:	c1 e6 09             	shl    $0x9,%esi
    1128:	3b 75 1c             	cmp    0x1c(%ebp),%esi
    112b:	0f 87 48 01 00 00    	ja     1279 <gxe_bd_write_blocks+0x179>
    1131:	85 c9                	test   %ecx,%ecx
    1133:	0f 84 24 01 00 00    	je     125d <gxe_bd_write_blocks+0x15d>
    1139:	89 c6                	mov    %eax,%esi
    113b:	89 d7                	mov    %edx,%edi
    113d:	0f a4 f7 09          	shld   $0x9,%esi,%edi
    1141:	c1 e6 09             	shl    $0x9,%esi
    1144:	89 7d e4             	mov    %edi,-0x1c(%ebp)
    1147:	89 75 e0             	mov    %esi,-0x20(%ebp)
    114a:	89 c6                	mov    %eax,%esi
    114c:	83 c6 01             	add    $0x1,%esi
    114f:	89 d7                	mov    %edx,%edi
    1151:	89 75 d8             	mov    %esi,-0x28(%ebp)
    1154:	8d 41 ff             	lea    -0x1(%ecx),%eax
    1157:	83 d7 00             	adc    $0x0,%edi
    115a:	31 d2                	xor    %edx,%edx
    115c:	01 45 d8             	add    %eax,-0x28(%ebp)
    115f:	89 7d dc             	mov    %edi,-0x24(%ebp)
    1162:	11 55 dc             	adc    %edx,-0x24(%ebp)
    1165:	8b 45 d4             	mov    -0x2c(%ebp),%eax
    1168:	8b 75 d8             	mov    -0x28(%ebp),%esi
    116b:	8b 7d dc             	mov    -0x24(%ebp),%edi
    116e:	c1 e0 04             	shl    $0x4,%eax
    1171:	0f a4 f7 09          	shld   $0x9,%esi,%edi
    1175:	c1 e6 09             	shl    $0x9,%esi
    1178:	89 7d dc             	mov    %edi,-0x24(%ebp)
    117b:	89 75 d8             	mov    %esi,-0x28(%ebp)
    117e:	8d b8 00 0d 02 00    	lea    0x20d00(%eax),%edi
    1184:	8d 74 26 00          	lea    0x0(%esi,%eiz,1),%esi
    1188:	89 3c 24             	mov    %edi,(%esp)
    118b:	31 f6                	xor    %esi,%esi
    118d:	e8 3e 73 00 00       	call   84d0 <fibril_mutex_lock>
    1192:	8d b6 00 00 00 00    	lea    0x0(%esi),%esi
    1198:	31 c0                	xor    %eax,%eax
    119a:	8a 04 33             	mov    (%ebx,%esi,1),%al
    119d:	89 44 24 04          	mov    %eax,0x4(%esp)
    11a1:	a1 c0 0c 02 00       	mov    0x20cc0,%eax
    11a6:	8d 84 30 00 40 00 00 	lea    0x4000(%eax,%esi,1),%eax
    11ad:	46                   	inc    %esi
    11ae:	89 04 24             	mov    %eax,(%esp)
    11b1:	e8 ba 08 00 00       	call   1a70 <pio_write_8>
    11b6:	81 fe 00 02 00 00    	cmp    $0x200,%esi
    11bc:	75 da                	jne    1198 <gxe_bd_write_blocks+0x98>
    11be:	8b 45 e0             	mov    -0x20(%ebp),%eax
    11c1:	89 44 24 04          	mov    %eax,0x4(%esp)
    11c5:	a1 c0 0c 02 00       	mov    0x20cc0,%eax
    11ca:	89 04 24             	mov    %eax,(%esp)
    11cd:	e8 3e 09 00 00       	call   1b10 <pio_write_32>
    11d2:	8b 45 e4             	mov    -0x1c(%ebp),%eax
    11d5:	89 44 24 04          	mov    %eax,0x4(%esp)
    11d9:	a1 c0 0c 02 00       	mov    0x20cc0,%eax
    11de:	83 c0 08             	add    $0x8,%eax
    11e1:	89 04 24             	mov    %eax,(%esp)
    11e4:	e8 27 09 00 00       	call   1b10 <pio_write_32>
    11e9:	a1 c0 0c 02 00       	mov    0x20cc0,%eax
    11ee:	8b 55 d4             	mov    -0x2c(%ebp),%edx
    11f1:	83 c0 10             	add    $0x10,%eax
    11f4:	89 54 24 04          	mov    %edx,0x4(%esp)
    11f8:	89 04 24             	mov    %eax,(%esp)
    11fb:	e8 10 09 00 00       	call   1b10 <pio_write_32>
    1200:	a1 c0 0c 02 00       	mov    0x20cc0,%eax
    1205:	83 c0 20             	add    $0x20,%eax
    1208:	c7 44 24 04 01 00 00 	movl   $0x1,0x4(%esp)
    120f:	00 
    1210:	89 04 24             	mov    %eax,(%esp)
    1213:	e8 f8 08 00 00       	call   1b10 <pio_write_32>
    1218:	a1 c0 0c 02 00       	mov    0x20cc0,%eax
    121d:	83 c0 30             	add    $0x30,%eax
    1220:	89 04 24             	mov    %eax,(%esp)
    1223:	e8 b8 09 00 00       	call   1be0 <pio_read_32>
    1228:	89 3c 24             	mov    %edi,(%esp)
    122b:	85 c0                	test   %eax,%eax
    122d:	74 38                	je     1267 <gxe_bd_write_blocks+0x167>
    122f:	e8 bc 73 00 00       	call   85f0 <fibril_mutex_unlock>
    1234:	81 c3 00 02 00 00    	add    $0x200,%ebx
    123a:	81 45 e0 00 02 00 00 	addl   $0x200,-0x20(%ebp)
    1241:	83 55 e4 00          	adcl   $0x0,-0x1c(%ebp)
    1245:	8b 45 dc             	mov    -0x24(%ebp),%eax
    1248:	8b 55 e4             	mov    -0x1c(%ebp),%edx
    124b:	8b 4d d8             	mov    -0x28(%ebp),%ecx
    124e:	31 c2                	xor    %eax,%edx
    1250:	8b 45 e0             	mov    -0x20(%ebp),%eax
    1253:	31 c8                	xor    %ecx,%eax
    1255:	09 c2                	or     %eax,%edx
    1257:	0f 85 2b ff ff ff    	jne    1188 <gxe_bd_write_blocks+0x88>
    125d:	31 c0                	xor    %eax,%eax
    125f:	83 c4 3c             	add    $0x3c,%esp
    1262:	5b                   	pop    %ebx
    1263:	5e                   	pop    %esi
    1264:	5f                   	pop    %edi
    1265:	5d                   	pop    %ebp
    1266:	c3                   	ret    
    1267:	e8 84 73 00 00       	call   85f0 <fibril_mutex_unlock>
    126c:	83 c4 3c             	add    $0x3c,%esp
    126f:	b8 f7 fe ff ff       	mov    $0xfffffef7,%eax
    1274:	5b                   	pop    %ebx
    1275:	5e                   	pop    %esi
    1276:	5f                   	pop    %edi
    1277:	5d                   	pop    %ebp
    1278:	c3                   	ret    
    1279:	b8 f2 ff ff ff       	mov    $0xfffffff2,%eax
    127e:	eb df                	jmp    125f <gxe_bd_write_blocks+0x15f>

00001280 <gxe_bd_read_blocks>:
    1280:	55                   	push   %ebp
    1281:	89 e5                	mov    %esp,%ebp
    1283:	57                   	push   %edi
    1284:	56                   	push   %esi
    1285:	53                   	push   %ebx
    1286:	83 ec 3c             	sub    $0x3c,%esp
    1289:	8b 75 08             	mov    0x8(%ebp),%esi
    128c:	8b 4d 14             	mov    0x14(%ebp),%ecx
    128f:	8b 45 0c             	mov    0xc(%ebp),%eax
    1292:	8b 55 10             	mov    0x10(%ebp),%edx
    1295:	8b 36                	mov    (%esi),%esi
    1297:	8b 5d 18             	mov    0x18(%ebp),%ebx
    129a:	8b 76 04             	mov    0x4(%esi),%esi
    129d:	8b 76 08             	mov    0x8(%esi),%esi
    12a0:	89 75 d4             	mov    %esi,-0x2c(%ebp)
    12a3:	89 ce                	mov    %ecx,%esi
    12a5:	c1 e6 09             	shl    $0x9,%esi
    12a8:	3b 75 1c             	cmp    0x1c(%ebp),%esi
    12ab:	0f 87 3f 01 00 00    	ja     13f0 <gxe_bd_read_blocks+0x170>
    12b1:	85 c9                	test   %ecx,%ecx
    12b3:	0f 84 18 01 00 00    	je     13d1 <gxe_bd_read_blocks+0x151>
    12b9:	89 c6                	mov    %eax,%esi
    12bb:	89 d7                	mov    %edx,%edi
    12bd:	0f a4 f7 09          	shld   $0x9,%esi,%edi
    12c1:	c1 e6 09             	shl    $0x9,%esi
    12c4:	89 7d e4             	mov    %edi,-0x1c(%ebp)
    12c7:	89 75 e0             	mov    %esi,-0x20(%ebp)
    12ca:	89 c6                	mov    %eax,%esi
    12cc:	83 c6 01             	add    $0x1,%esi
    12cf:	89 d7                	mov    %edx,%edi
    12d1:	89 75 d8             	mov    %esi,-0x28(%ebp)
    12d4:	8d 41 ff             	lea    -0x1(%ecx),%eax
    12d7:	83 d7 00             	adc    $0x0,%edi
    12da:	31 d2                	xor    %edx,%edx
    12dc:	01 45 d8             	add    %eax,-0x28(%ebp)
    12df:	89 7d dc             	mov    %edi,-0x24(%ebp)
    12e2:	11 55 dc             	adc    %edx,-0x24(%ebp)
    12e5:	8b 45 d4             	mov    -0x2c(%ebp),%eax
    12e8:	8b 75 d8             	mov    -0x28(%ebp),%esi
    12eb:	8b 7d dc             	mov    -0x24(%ebp),%edi
    12ee:	c1 e0 04             	shl    $0x4,%eax
    12f1:	0f a4 f7 09          	shld   $0x9,%esi,%edi
    12f5:	c1 e6 09             	shl    $0x9,%esi
    12f8:	89 7d dc             	mov    %edi,-0x24(%ebp)
    12fb:	89 75 d8             	mov    %esi,-0x28(%ebp)
    12fe:	8d b8 00 0d 02 00    	lea    0x20d00(%eax),%edi
    1304:	8d 74 26 00          	lea    0x0(%esi,%eiz,1),%esi
    1308:	89 3c 24             	mov    %edi,(%esp)
    130b:	e8 c0 71 00 00       	call   84d0 <fibril_mutex_lock>
    1310:	8b 45 e0             	mov    -0x20(%ebp),%eax
    1313:	89 44 24 04          	mov    %eax,0x4(%esp)
    1317:	a1 c0 0c 02 00       	mov    0x20cc0,%eax
    131c:	89 04 24             	mov    %eax,(%esp)
    131f:	e8 ec 07 00 00       	call   1b10 <pio_write_32>
    1324:	8b 45 e4             	mov    -0x1c(%ebp),%eax
    1327:	89 44 24 04          	mov    %eax,0x4(%esp)
    132b:	a1 c0 0c 02 00       	mov    0x20cc0,%eax
    1330:	83 c0 08             	add    $0x8,%eax
    1333:	89 04 24             	mov    %eax,(%esp)
    1336:	e8 d5 07 00 00       	call   1b10 <pio_write_32>
    133b:	a1 c0 0c 02 00       	mov    0x20cc0,%eax
    1340:	8b 55 d4             	mov    -0x2c(%ebp),%edx
    1343:	83 c0 10             	add    $0x10,%eax
    1346:	89 54 24 04          	mov    %edx,0x4(%esp)
    134a:	89 04 24             	mov    %eax,(%esp)
    134d:	e8 be 07 00 00       	call   1b10 <pio_write_32>
    1352:	a1 c0 0c 02 00       	mov    0x20cc0,%eax
    1357:	83 c0 20             	add    $0x20,%eax
    135a:	c7 44 24 04 00 00 00 	movl   $0x0,0x4(%esp)
    1361:	00 
    1362:	89 04 24             	mov    %eax,(%esp)
    1365:	e8 a6 07 00 00       	call   1b10 <pio_write_32>
    136a:	a1 c0 0c 02 00       	mov    0x20cc0,%eax
    136f:	83 c0 30             	add    $0x30,%eax
    1372:	89 04 24             	mov    %eax,(%esp)
    1375:	e8 66 08 00 00       	call   1be0 <pio_read_32>
    137a:	85 c0                	test   %eax,%eax
    137c:	74 5d                	je     13db <gxe_bd_read_blocks+0x15b>
    137e:	31 f6                	xor    %esi,%esi
    1380:	a1 c0 0c 02 00       	mov    0x20cc0,%eax
    1385:	8d 84 30 00 40 00 00 	lea    0x4000(%eax,%esi,1),%eax
    138c:	89 04 24             	mov    %eax,(%esp)
    138f:	e8 cc 07 00 00       	call   1b60 <pio_read_8>
    1394:	88 04 33             	mov    %al,(%ebx,%esi,1)
    1397:	46                   	inc    %esi
    1398:	81 fe 00 02 00 00    	cmp    $0x200,%esi
    139e:	75 e0                	jne    1380 <gxe_bd_read_blocks+0x100>
    13a0:	89 3c 24             	mov    %edi,(%esp)
    13a3:	81 c3 00 02 00 00    	add    $0x200,%ebx
    13a9:	e8 42 72 00 00       	call   85f0 <fibril_mutex_unlock>
    13ae:	8b 75 dc             	mov    -0x24(%ebp),%esi
    13b1:	81 45 e0 00 02 00 00 	addl   $0x200,-0x20(%ebp)
    13b8:	83 55 e4 00          	adcl   $0x0,-0x1c(%ebp)
    13bc:	8b 45 e0             	mov    -0x20(%ebp),%eax
    13bf:	8b 55 e4             	mov    -0x1c(%ebp),%edx
    13c2:	8b 4d d8             	mov    -0x28(%ebp),%ecx
    13c5:	31 f2                	xor    %esi,%edx
    13c7:	31 c8                	xor    %ecx,%eax
    13c9:	09 c2                	or     %eax,%edx
    13cb:	0f 85 37 ff ff ff    	jne    1308 <gxe_bd_read_blocks+0x88>
    13d1:	31 c0                	xor    %eax,%eax
    13d3:	83 c4 3c             	add    $0x3c,%esp
    13d6:	5b                   	pop    %ebx
    13d7:	5e                   	pop    %esi
    13d8:	5f                   	pop    %edi
    13d9:	5d                   	pop    %ebp
    13da:	c3                   	ret    
    13db:	89 3c 24             	mov    %edi,(%esp)
    13de:	e8 0d 72 00 00       	call   85f0 <fibril_mutex_unlock>
    13e3:	83 c4 3c             	add    $0x3c,%esp
    13e6:	b8 f7 fe ff ff       	mov    $0xfffffef7,%eax
    13eb:	5b                   	pop    %ebx
    13ec:	5e                   	pop    %esi
    13ed:	5f                   	pop    %edi
    13ee:	5d                   	pop    %ebp
    13ef:	c3                   	ret    
    13f0:	b8 f2 ff ff ff       	mov    $0xfffffff2,%eax
    13f5:	eb dc                	jmp    13d3 <gxe_bd_read_blocks+0x153>
    13f7:	89 f6                	mov    %esi,%esi
    13f9:	8d bc 27 00 00 00 00 	lea    0x0(%edi,%eiz,1),%edi

00001400 <gxe_bd_connection>:
    1400:	55                   	push   %ebp
    1401:	8b 0d dc 0c 02 00    	mov    0x20cdc,%ecx
    1407:	89 e5                	mov    %esp,%ebp
    1409:	53                   	push   %ebx
    140a:	8b 45 0c             	mov    0xc(%ebp),%eax
    140d:	8b 5d 08             	mov    0x8(%ebp),%ebx
    1410:	8b 50 04             	mov    0x4(%eax),%edx
    1413:	39 d1                	cmp    %edx,%ecx
    1415:	74 19                	je     1430 <gxe_bd_connection+0x30>
    1417:	39 15 e0 0c 02 00    	cmp    %edx,0x20ce0
    141d:	74 3c                	je     145b <gxe_bd_connection+0x5b>
    141f:	89 5d 08             	mov    %ebx,0x8(%ebp)
    1422:	c7 45 0c f2 ff ff ff 	movl   $0xfffffff2,0xc(%ebp)
    1429:	5b                   	pop    %ebx
    142a:	5d                   	pop    %ebp
    142b:	e9 f0 29 01 00       	jmp    13e20 <async_answer_0>
    1430:	39 0d e0 0c 02 00    	cmp    %ecx,0x20ce0
    1436:	0f 94 c2             	sete   %dl
    1439:	81 e2 ff 00 00 00    	and    $0xff,%edx
    143f:	8d 0c 12             	lea    (%edx,%edx,1),%ecx
    1442:	89 5d 08             	mov    %ebx,0x8(%ebp)
    1445:	01 ca                	add    %ecx,%edx
    1447:	89 45 0c             	mov    %eax,0xc(%ebp)
    144a:	5b                   	pop    %ebx
    144b:	8d 14 95 c4 0c 02 00 	lea    0x20cc4(,%edx,4),%edx
    1452:	89 55 10             	mov    %edx,0x10(%ebp)
    1455:	5d                   	pop    %ebp
    1456:	e9 85 08 00 00       	jmp    1ce0 <bd_conn>
    145b:	ba 01 00 00 00       	mov    $0x1,%edx
    1460:	eb dd                	jmp    143f <gxe_bd_connection+0x3f>
    1462:	66 90                	xchg   %ax,%ax
    1464:	66 90                	xchg   %ax,%ax
    1466:	66 90                	xchg   %ax,%ax
    1468:	66 90                	xchg   %ax,%ax
    146a:	66 90                	xchg   %ax,%ax
    146c:	66 90                	xchg   %ax,%ax
    146e:	66 90                	xchg   %ax,%ax

00001470 <main>:
    1470:	55                   	push   %ebp
    1471:	89 e5                	mov    %esp,%ebp
    1473:	53                   	push   %ebx
    1474:	83 e4 f0             	and    $0xfffffff0,%esp
    1477:	83 ec 40             	sub    $0x40,%esp
    147a:	c7 04 24 52 e0 01 00 	movl   $0x1e052,(%esp)
    1481:	e8 da af 00 00       	call   c460 <printf>
    1486:	c7 04 24 00 14 00 00 	movl   $0x1400,(%esp)
    148d:	e8 3e 11 01 00       	call   125d0 <async_set_client_connection>
    1492:	c7 04 24 6e e0 01 00 	movl   $0x1e06e,(%esp)
    1499:	e8 d2 15 00 00       	call   2a70 <loc_server_register>
    149e:	85 c0                	test   %eax,%eax
    14a0:	0f 85 30 01 00 00    	jne    15d6 <main+0x166>
    14a6:	8d 44 24 2c          	lea    0x2c(%esp),%eax
    14aa:	c7 44 24 04 00 42 00 	movl   $0x4200,0x4(%esp)
    14b1:	00 
    14b2:	89 44 24 08          	mov    %eax,0x8(%esp)
    14b6:	c7 04 24 00 00 00 13 	movl   $0x13000000,(%esp)
    14bd:	e8 be 04 00 00       	call   1980 <pio_enable>
    14c2:	85 c0                	test   %eax,%eax
    14c4:	0f 85 25 01 00 00    	jne    15ef <main+0x17f>
    14ca:	8b 44 24 2c          	mov    0x2c(%esp),%eax
    14ce:	8d 5c 24 30          	lea    0x30(%esp),%ebx
    14d2:	c7 04 24 c4 0c 02 00 	movl   $0x20cc4,(%esp)
    14d9:	a3 c0 0c 02 00       	mov    %eax,0x20cc0
    14de:	e8 dd 07 00 00       	call   1cc0 <bd_srvs_init>
    14e3:	c7 44 24 10 00 00 00 	movl   $0x0,0x10(%esp)
    14ea:	00 
    14eb:	c7 44 24 0c 72 e0 01 	movl   $0x1e072,0xc(%esp)
    14f2:	00 
    14f3:	c7 44 24 08 75 e0 01 	movl   $0x1e075,0x8(%esp)
    14fa:	00 
    14fb:	c7 44 24 04 10 00 00 	movl   $0x10,0x4(%esp)
    1502:	00 
    1503:	89 1c 24             	mov    %ebx,(%esp)
    1506:	c7 05 c4 0c 02 00 60 	movl   $0x20a60,0x20cc4
    150d:	0a 02 00 
    1510:	c7 05 c8 0c 02 00 c4 	movl   $0x20cc4,0x20cc8
    1517:	0c 02 00 
    151a:	e8 e1 b1 00 00       	call   c700 <snprintf>
    151f:	c7 44 24 04 dc 0c 02 	movl   $0x20cdc,0x4(%esp)
    1526:	00 
    1527:	89 1c 24             	mov    %ebx,(%esp)
    152a:	e8 51 19 00 00       	call   2e80 <loc_service_register>
    152f:	85 c0                	test   %eax,%eax
    1531:	0f 85 ce 00 00 00    	jne    1605 <main+0x195>
    1537:	c7 04 24 00 0d 02 00 	movl   $0x20d00,(%esp)
    153e:	e8 6d 6f 00 00       	call   84b0 <fibril_mutex_initialize>
    1543:	c7 04 24 d0 0c 02 00 	movl   $0x20cd0,(%esp)
    154a:	e8 71 07 00 00       	call   1cc0 <bd_srvs_init>
    154f:	c7 44 24 10 01 00 00 	movl   $0x1,0x10(%esp)
    1556:	00 
    1557:	c7 44 24 0c 72 e0 01 	movl   $0x1e072,0xc(%esp)
    155e:	00 
    155f:	c7 44 24 08 75 e0 01 	movl   $0x1e075,0x8(%esp)
    1566:	00 
    1567:	c7 44 24 04 10 00 00 	movl   $0x10,0x4(%esp)
    156e:	00 
    156f:	89 1c 24             	mov    %ebx,(%esp)
    1572:	c7 05 d0 0c 02 00 60 	movl   $0x20a60,0x20cd0
    1579:	0a 02 00 
    157c:	c7 05 d4 0c 02 00 d0 	movl   $0x20cd0,0x20cd4
    1583:	0c 02 00 
    1586:	e8 75 b1 00 00       	call   c700 <snprintf>
    158b:	c7 44 24 04 e0 0c 02 	movl   $0x20ce0,0x4(%esp)
    1592:	00 
    1593:	89 1c 24             	mov    %ebx,(%esp)
    1596:	e8 e5 18 00 00       	call   2e80 <loc_service_register>
    159b:	85 c0                	test   %eax,%eax
    159d:	75 66                	jne    1605 <main+0x195>
    159f:	c7 04 24 10 0d 02 00 	movl   $0x20d10,(%esp)
    15a6:	e8 05 6f 00 00       	call   84b0 <fibril_mutex_initialize>
    15ab:	c7 04 24 f0 e0 01 00 	movl   $0x1e0f0,(%esp)
    15b2:	e8 a9 ae 00 00       	call   c460 <printf>
    15b7:	c7 04 24 00 00 00 00 	movl   $0x0,(%esp)
    15be:	e8 5d 88 00 00       	call   9e20 <task_retval>
    15c3:	c7 04 24 01 00 00 00 	movl   $0x1,(%esp)
    15ca:	e8 31 67 00 00       	call   7d00 <fibril_switch>
    15cf:	31 c0                	xor    %eax,%eax
    15d1:	8b 5d fc             	mov    -0x4(%ebp),%ebx
    15d4:	c9                   	leave  
    15d5:	c3                   	ret    
    15d6:	c7 44 24 04 6e e0 01 	movl   $0x1e06e,0x4(%esp)
    15dd:	00 
    15de:	c7 04 24 80 e0 01 00 	movl   $0x1e080,(%esp)
    15e5:	e8 76 ae 00 00       	call   c460 <printf>
    15ea:	83 c8 ff             	or     $0xffffffff,%eax
    15ed:	eb e2                	jmp    15d1 <main+0x161>
    15ef:	c7 44 24 04 6e e0 01 	movl   $0x1e06e,0x4(%esp)
    15f6:	00 
    15f7:	c7 04 24 a0 e0 01 00 	movl   $0x1e0a0,(%esp)
    15fe:	e8 5d ae 00 00       	call   c460 <printf>
    1603:	eb e5                	jmp    15ea <main+0x17a>
    1605:	89 5c 24 08          	mov    %ebx,0x8(%esp)
    1609:	c7 44 24 04 6e e0 01 	movl   $0x1e06e,0x4(%esp)
    1610:	00 
    1611:	c7 04 24 cc e0 01 00 	movl   $0x1e0cc,(%esp)
    1618:	e8 43 ae 00 00       	call   c460 <printf>
    161d:	eb cb                	jmp    15ea <main+0x17a>
    161f:	90                   	nop

00001620 <exit>:
    1620:	55                   	push   %ebp
    1621:	89 e5                	mov    %esp,%ebp
    1623:	83 ec 28             	sub    $0x28,%esp
    1626:	80 3d 20 0d 02 00 00 	cmpb   $0x0,0x20d20
    162d:	75 3f                	jne    166e <exit+0x4e>
    162f:	c7 44 24 18 0a 00 00 	movl   $0xa,0x18(%esp)
    1636:	00 
    1637:	c7 44 24 14 00 00 00 	movl   $0x0,0x14(%esp)
    163e:	00 
    163f:	c7 44 24 10 00 00 00 	movl   $0x0,0x10(%esp)
    1646:	00 
    1647:	c7 44 24 0c 00 00 00 	movl   $0x0,0xc(%esp)
    164e:	00 
    164f:	c7 44 24 08 00 00 00 	movl   $0x0,0x8(%esp)
    1656:	00 
    1657:	c7 44 24 04 00 00 00 	movl   $0x0,0x4(%esp)
    165e:	00 
    165f:	c7 04 24 00 00 00 00 	movl   $0x0,(%esp)
    1666:	ff 15 70 0c 02 00    	call   *0x20c70
    166c:	eb fe                	jmp    166c <exit+0x4c>
    166e:	e8 8d 8c 00 00       	call   a300 <__stdio_done>
    1673:	8b 45 08             	mov    0x8(%ebp),%eax
    1676:	89 04 24             	mov    %eax,(%esp)
    1679:	e8 a2 87 00 00       	call   9e20 <task_retval>
    167e:	65 a1 00 00 00 00    	mov    %gs:0x0,%eax
    1684:	8b 40 04             	mov    0x4(%eax),%eax
    1687:	89 04 24             	mov    %eax,(%esp)
    168a:	e8 81 65 00 00       	call   7c10 <fibril_teardown>
    168f:	eb 9e                	jmp    162f <exit+0xf>
    1691:	eb 0d                	jmp    16a0 <abort>
    1693:	90                   	nop
    1694:	90                   	nop
    1695:	90                   	nop
    1696:	90                   	nop
    1697:	90                   	nop
    1698:	90                   	nop
    1699:	90                   	nop
    169a:	90                   	nop
    169b:	90                   	nop
    169c:	90                   	nop
    169d:	90                   	nop
    169e:	90                   	nop
    169f:	90                   	nop

000016a0 <abort>:
    16a0:	55                   	push   %ebp
    16a1:	89 e5                	mov    %esp,%ebp
    16a3:	83 ec 28             	sub    $0x28,%esp
    16a6:	c7 44 24 18 0a 00 00 	movl   $0xa,0x18(%esp)
    16ad:	00 
    16ae:	c7 44 24 14 00 00 00 	movl   $0x0,0x14(%esp)
    16b5:	00 
    16b6:	c7 44 24 10 00 00 00 	movl   $0x0,0x10(%esp)
    16bd:	00 
    16be:	c7 44 24 0c 00 00 00 	movl   $0x0,0xc(%esp)
    16c5:	00 
    16c6:	c7 44 24 08 00 00 00 	movl   $0x0,0x8(%esp)
    16cd:	00 
    16ce:	c7 44 24 04 00 00 00 	movl   $0x0,0x4(%esp)
    16d5:	00 
    16d6:	c7 04 24 01 00 00 00 	movl   $0x1,(%esp)
    16dd:	ff 15 70 0c 02 00    	call   *0x20c70
    16e3:	eb fe                	jmp    16e3 <abort+0x43>
    16e5:	8d 74 26 00          	lea    0x0(%esi,%eiz,1),%esi
    16e9:	8d bc 27 00 00 00 00 	lea    0x0(%edi,%eiz,1),%edi

000016f0 <__main>:
    16f0:	55                   	push   %ebp
    16f1:	89 e5                	mov    %esp,%ebp
    16f3:	57                   	push   %edi
    16f4:	56                   	push   %esi
    16f5:	53                   	push   %ebx
    16f6:	83 ec 2c             	sub    $0x2c,%esp
    16f9:	8b 5d 08             	mov    0x8(%ebp),%ebx
    16fc:	e8 df fa 00 00       	call   111e0 <__malloc_init>
    1701:	e8 ea 19 01 00       	call   130f0 <__async_init>
    1706:	e8 85 64 00 00       	call   7b90 <fibril_setup>
    170b:	85 c0                	test   %eax,%eax
    170d:	0f 84 82 00 00 00    	je     1795 <__main+0xa5>
    1713:	c7 44 24 18 01 00 00 	movl   $0x1,0x18(%esp)
    171a:	00 
    171b:	c7 44 24 14 00 00 00 	movl   $0x0,0x14(%esp)
    1722:	00 
    1723:	c7 44 24 10 00 00 00 	movl   $0x0,0x10(%esp)
    172a:	00 
    172b:	c7 44 24 0c 00 00 00 	movl   $0x0,0xc(%esp)
    1732:	00 
    1733:	c7 44 24 08 00 00 00 	movl   $0x0,0x8(%esp)
    173a:	00 
    173b:	c7 44 24 04 00 00 00 	movl   $0x0,0x4(%esp)
    1742:	00 
    1743:	8b 40 30             	mov    0x30(%eax),%eax
    1746:	89 04 24             	mov    %eax,(%esp)
    1749:	ff 15 70 0c 02 00    	call   *0x20c70
    174f:	89 1d a0 0c 02 00    	mov    %ebx,0x20ca0
    1755:	c6 05 20 0d 02 00 01 	movb   $0x1,0x20d20
    175c:	85 db                	test   %ebx,%ebx
    175e:	74 3a                	je     179a <__main+0xaa>
    1760:	8b 43 10             	mov    0x10(%ebx),%eax
    1763:	8b 73 08             	mov    0x8(%ebx),%esi
    1766:	8b 7b 0c             	mov    0xc(%ebx),%edi
    1769:	89 04 24             	mov    %eax,(%esp)
    176c:	e8 ff 88 00 00       	call   a070 <__stdio_init>
    1771:	a1 a0 0c 02 00       	mov    0x20ca0,%eax
    1776:	8b 40 04             	mov    0x4(%eax),%eax
    1779:	89 04 24             	mov    %eax,(%esp)
    177c:	e8 cf 96 01 00       	call   1ae50 <chdir>
    1781:	89 7c 24 04          	mov    %edi,0x4(%esp)
    1785:	89 34 24             	mov    %esi,(%esp)
    1788:	e8 e3 fc ff ff       	call   1470 <main>
    178d:	89 04 24             	mov    %eax,(%esp)
    1790:	e8 8b fe ff ff       	call   1620 <exit>
    1795:	e8 06 ff ff ff       	call   16a0 <abort>
    179a:	c7 04 24 00 00 00 00 	movl   $0x0,(%esp)
    17a1:	31 ff                	xor    %edi,%edi
    17a3:	e8 c8 88 00 00       	call   a070 <__stdio_init>
    17a8:	31 f6                	xor    %esi,%esi
    17aa:	eb d5                	jmp    1781 <__main+0x91>
    17ac:	66 90                	xchg   %ax,%ax
    17ae:	66 90                	xchg   %ax,%ax

000017b0 <device_assign_devno>:
    17b0:	55                   	push   %ebp
    17b1:	89 e5                	mov    %esp,%ebp
    17b3:	83 ec 28             	sub    $0x28,%esp
    17b6:	c7 44 24 18 22 00 00 	movl   $0x22,0x18(%esp)
    17bd:	00 
    17be:	c7 44 24 14 00 00 00 	movl   $0x0,0x14(%esp)
    17c5:	00 
    17c6:	c7 44 24 10 00 00 00 	movl   $0x0,0x10(%esp)
    17cd:	00 
    17ce:	c7 44 24 0c 00 00 00 	movl   $0x0,0xc(%esp)
    17d5:	00 
    17d6:	c7 44 24 08 00 00 00 	movl   $0x0,0x8(%esp)
    17dd:	00 
    17de:	c7 44 24 04 00 00 00 	movl   $0x0,0x4(%esp)
    17e5:	00 
    17e6:	c7 04 24 00 00 00 00 	movl   $0x0,(%esp)
    17ed:	ff 15 70 0c 02 00    	call   *0x20c70
    17f3:	c9                   	leave  
    17f4:	c3                   	ret    
    17f5:	8d 74 26 00          	lea    0x0(%esi,%eiz,1),%esi
    17f9:	8d bc 27 00 00 00 00 	lea    0x0(%edi,%eiz,1),%edi

00001800 <physmem_map>:
    1800:	55                   	push   %ebp
    1801:	89 e5                	mov    %esp,%ebp
    1803:	83 ec 28             	sub    $0x28,%esp
    1806:	8b 45 14             	mov    0x14(%ebp),%eax
    1809:	c7 44 24 18 23 00 00 	movl   $0x23,0x18(%esp)
    1810:	00 
    1811:	89 44 24 0c          	mov    %eax,0xc(%esp)
    1815:	8b 45 10             	mov    0x10(%ebp),%eax
    1818:	89 44 24 08          	mov    %eax,0x8(%esp)
    181c:	8b 45 0c             	mov    0xc(%ebp),%eax
    181f:	89 44 24 04          	mov    %eax,0x4(%esp)
    1823:	8b 45 08             	mov    0x8(%ebp),%eax
    1826:	c7 44 24 14 00 00 00 	movl   $0x0,0x14(%esp)
    182d:	00 
    182e:	c7 44 24 10 94 10 00 	movl   $0x1094,0x10(%esp)
    1835:	00 
    1836:	89 04 24             	mov    %eax,(%esp)
    1839:	e8 b2 a4 01 00       	call   1bcf0 <__syscall_slow>
    183e:	c9                   	leave  
    183f:	c3                   	ret    

00001840 <dmamem_map>:
    1840:	55                   	push   %ebp
    1841:	89 e5                	mov    %esp,%ebp
    1843:	83 ec 28             	sub    $0x28,%esp
    1846:	8b 45 14             	mov    0x14(%ebp),%eax
    1849:	8b 55 08             	mov    0x8(%ebp),%edx
    184c:	83 e0 fe             	and    $0xfffffffe,%eax
    184f:	89 54 24 10          	mov    %edx,0x10(%esp)
    1853:	89 44 24 08          	mov    %eax,0x8(%esp)
    1857:	8b 45 10             	mov    0x10(%ebp),%eax
    185a:	8b 55 18             	mov    0x18(%ebp),%edx
    185d:	89 44 24 04          	mov    %eax,0x4(%esp)
    1861:	8b 45 0c             	mov    0xc(%ebp),%eax
    1864:	c7 44 24 18 25 00 00 	movl   $0x25,0x18(%esp)
    186b:	00 
    186c:	c7 44 24 14 00 00 00 	movl   $0x0,0x14(%esp)
    1873:	00 
    1874:	89 54 24 0c          	mov    %edx,0xc(%esp)
    1878:	89 04 24             	mov    %eax,(%esp)
    187b:	e8 70 a4 01 00       	call   1bcf0 <__syscall_slow>
    1880:	c9                   	leave  
    1881:	c3                   	ret    
    1882:	8d b4 26 00 00 00 00 	lea    0x0(%esi,%eiz,1),%esi
    1889:	8d bc 27 00 00 00 00 	lea    0x0(%edi,%eiz,1),%edi

00001890 <dmamem_map_anonymous>:
    1890:	55                   	push   %ebp
    1891:	89 e5                	mov    %esp,%ebp
    1893:	83 ec 28             	sub    $0x28,%esp
    1896:	8b 45 10             	mov    0x10(%ebp),%eax
    1899:	8b 55 18             	mov    0x18(%ebp),%edx
    189c:	83 c8 01             	or     $0x1,%eax
    189f:	89 54 24 10          	mov    %edx,0x10(%esp)
    18a3:	89 44 24 08          	mov    %eax,0x8(%esp)
    18a7:	8b 45 0c             	mov    0xc(%ebp),%eax
    18aa:	8b 55 14             	mov    0x14(%ebp),%edx
    18ad:	89 44 24 04          	mov    %eax,0x4(%esp)
    18b1:	8b 45 08             	mov    0x8(%ebp),%eax
    18b4:	c7 44 24 18 25 00 00 	movl   $0x25,0x18(%esp)
    18bb:	00 
    18bc:	c7 44 24 14 94 10 00 	movl   $0x1094,0x14(%esp)
    18c3:	00 
    18c4:	89 54 24 0c          	mov    %edx,0xc(%esp)
    18c8:	89 04 24             	mov    %eax,(%esp)
    18cb:	e8 20 a4 01 00       	call   1bcf0 <__syscall_slow>
    18d0:	c9                   	leave  
    18d1:	c3                   	ret    
    18d2:	8d b4 26 00 00 00 00 	lea    0x0(%esi,%eiz,1),%esi
    18d9:	8d bc 27 00 00 00 00 	lea    0x0(%edi,%eiz,1),%edi

000018e0 <dmamem_unmap>:
    18e0:	55                   	push   %ebp
    18e1:	89 e5                	mov    %esp,%ebp
    18e3:	83 ec 28             	sub    $0x28,%esp
    18e6:	8b 45 0c             	mov    0xc(%ebp),%eax
    18e9:	c7 44 24 18 26 00 00 	movl   $0x26,0x18(%esp)
    18f0:	00 
    18f1:	89 44 24 04          	mov    %eax,0x4(%esp)
    18f5:	8b 45 08             	mov    0x8(%ebp),%eax
    18f8:	c7 44 24 14 00 00 00 	movl   $0x0,0x14(%esp)
    18ff:	00 
    1900:	c7 44 24 10 00 00 00 	movl   $0x0,0x10(%esp)
    1907:	00 
    1908:	c7 44 24 0c 00 00 00 	movl   $0x0,0xc(%esp)
    190f:	00 
    1910:	c7 44 24 08 00 00 00 	movl   $0x0,0x8(%esp)
    1917:	00 
    1918:	89 04 24             	mov    %eax,(%esp)
    191b:	ff 15 70 0c 02 00    	call   *0x20c70
    1921:	c9                   	leave  
    1922:	c3                   	ret    
    1923:	8d b6 00 00 00 00    	lea    0x0(%esi),%esi
    1929:	8d bc 27 00 00 00 00 	lea    0x0(%edi,%eiz,1),%edi

00001930 <dmamem_unmap_anonymous>:
    1930:	55                   	push   %ebp
    1931:	89 e5                	mov    %esp,%ebp
    1933:	83 ec 28             	sub    $0x28,%esp
    1936:	8b 45 08             	mov    0x8(%ebp),%eax
    1939:	c7 44 24 18 26 00 00 	movl   $0x26,0x18(%esp)
    1940:	00 
    1941:	c7 44 24 14 00 00 00 	movl   $0x0,0x14(%esp)
    1948:	00 
    1949:	c7 44 24 10 00 00 00 	movl   $0x0,0x10(%esp)
    1950:	00 
    1951:	c7 44 24 0c 00 00 00 	movl   $0x0,0xc(%esp)
    1958:	00 
    1959:	c7 44 24 08 01 00 00 	movl   $0x1,0x8(%esp)
    1960:	00 
    1961:	c7 44 24 04 00 00 00 	movl   $0x0,0x4(%esp)
    1968:	00 
    1969:	89 04 24             	mov    %eax,(%esp)
    196c:	ff 15 70 0c 02 00    	call   *0x20c70
    1972:	c9                   	leave  
    1973:	c3                   	ret    
    1974:	8d b6 00 00 00 00    	lea    0x0(%esi),%esi
    197a:	8d bf 00 00 00 00    	lea    0x0(%edi),%edi

00001980 <pio_enable>:
    1980:	55                   	push   %ebp
    1981:	89 e5                	mov    %esp,%ebp
    1983:	56                   	push   %esi
    1984:	53                   	push   %ebx
    1985:	83 ec 40             	sub    $0x40,%esp
    1988:	8b 5d 08             	mov    0x8(%ebp),%ebx
    198b:	8b 75 10             	mov    0x10(%ebp),%esi
    198e:	81 fb ff ff 00 00    	cmp    $0xffff,%ebx
    1994:	77 62                	ja     19f8 <pio_enable+0x78>
    1996:	85 f6                	test   %esi,%esi
    1998:	74 02                	je     199c <pio_enable+0x1c>
    199a:	89 1e                	mov    %ebx,(%esi)
    199c:	e8 ef 7e 00 00       	call   9890 <task_get_id>
    19a1:	89 5d f0             	mov    %ebx,-0x10(%ebp)
    19a4:	89 45 e8             	mov    %eax,-0x18(%ebp)
    19a7:	8b 45 0c             	mov    0xc(%ebp),%eax
    19aa:	89 45 f4             	mov    %eax,-0xc(%ebp)
    19ad:	8d 45 e8             	lea    -0x18(%ebp),%eax
    19b0:	89 55 ec             	mov    %edx,-0x14(%ebp)
    19b3:	c7 44 24 18 27 00 00 	movl   $0x27,0x18(%esp)
    19ba:	00 
    19bb:	c7 44 24 14 00 00 00 	movl   $0x0,0x14(%esp)
    19c2:	00 
    19c3:	c7 44 24 10 00 00 00 	movl   $0x0,0x10(%esp)
    19ca:	00 
    19cb:	c7 44 24 0c 00 00 00 	movl   $0x0,0xc(%esp)
    19d2:	00 
    19d3:	c7 44 24 08 00 00 00 	movl   $0x0,0x8(%esp)
    19da:	00 
    19db:	c7 44 24 04 00 00 00 	movl   $0x0,0x4(%esp)
    19e2:	00 
    19e3:	89 04 24             	mov    %eax,(%esp)
    19e6:	ff 15 70 0c 02 00    	call   *0x20c70
    19ec:	83 c4 40             	add    $0x40,%esp
    19ef:	5b                   	pop    %ebx
    19f0:	5e                   	pop    %esi
    19f1:	5d                   	pop    %ebp
    19f2:	c3                   	ret    
    19f3:	90                   	nop
    19f4:	8d 74 26 00          	lea    0x0(%esi,%eiz,1),%esi
    19f8:	85 f6                	test   %esi,%esi
    19fa:	74 5e                	je     1a5a <pio_enable+0xda>
    19fc:	89 d8                	mov    %ebx,%eax
    19fe:	8b 4d 0c             	mov    0xc(%ebp),%ecx
    1a01:	25 00 f0 ff ff       	and    $0xfffff000,%eax
    1a06:	31 d2                	xor    %edx,%edx
    1a08:	29 c3                	sub    %eax,%ebx
    1a0a:	01 d9                	add    %ebx,%ecx
    1a0c:	74 07                	je     1a15 <pio_enable+0x95>
    1a0e:	8d 51 ff             	lea    -0x1(%ecx),%edx
    1a11:	c1 ea 0c             	shr    $0xc,%edx
    1a14:	42                   	inc    %edx
    1a15:	8d 4d e4             	lea    -0x1c(%ebp),%ecx
    1a18:	c7 44 24 18 23 00 00 	movl   $0x23,0x18(%esp)
    1a1f:	00 
    1a20:	c7 44 24 14 00 00 00 	movl   $0x0,0x14(%esp)
    1a27:	00 
    1a28:	c7 44 24 10 94 10 00 	movl   $0x1094,0x10(%esp)
    1a2f:	00 
    1a30:	89 4c 24 0c          	mov    %ecx,0xc(%esp)
    1a34:	c7 44 24 08 03 00 00 	movl   $0x3,0x8(%esp)
    1a3b:	00 
    1a3c:	89 54 24 04          	mov    %edx,0x4(%esp)
    1a40:	89 04 24             	mov    %eax,(%esp)
    1a43:	e8 a8 a2 01 00       	call   1bcf0 <__syscall_slow>
    1a48:	85 c0                	test   %eax,%eax
    1a4a:	75 a0                	jne    19ec <pio_enable+0x6c>
    1a4c:	8b 55 e4             	mov    -0x1c(%ebp),%edx
    1a4f:	01 d3                	add    %edx,%ebx
    1a51:	89 1e                	mov    %ebx,(%esi)
    1a53:	83 c4 40             	add    $0x40,%esp
    1a56:	5b                   	pop    %ebx
    1a57:	5e                   	pop    %esi
    1a58:	5d                   	pop    %ebp
    1a59:	c3                   	ret    
    1a5a:	b8 f2 ff ff ff       	mov    $0xfffffff2,%eax
    1a5f:	eb 8b                	jmp    19ec <pio_enable+0x6c>
    1a61:	eb 0d                	jmp    1a70 <pio_write_8>
    1a63:	90                   	nop
    1a64:	90                   	nop
    1a65:	90                   	nop
    1a66:	90                   	nop
    1a67:	90                   	nop
    1a68:	90                   	nop
    1a69:	90                   	nop
    1a6a:	90                   	nop
    1a6b:	90                   	nop
    1a6c:	90                   	nop
    1a6d:	90                   	nop
    1a6e:	90                   	nop
    1a6f:	90                   	nop

00001a70 <pio_write_8>:
    1a70:	55                   	push   %ebp
    1a71:	89 e5                	mov    %esp,%ebp
    1a73:	57                   	push   %edi
    1a74:	56                   	push   %esi
    1a75:	53                   	push   %ebx
    1a76:	83 ec 1c             	sub    $0x1c,%esp
    1a79:	8b 75 0c             	mov    0xc(%ebp),%esi
    1a7c:	8b 5d 08             	mov    0x8(%ebp),%ebx
    1a7f:	89 f0                	mov    %esi,%eax
    1a81:	c7 44 24 08 01 00 00 	movl   $0x1,0x8(%esp)
    1a88:	00 
    1a89:	25 ff 00 00 00       	and    $0xff,%eax
    1a8e:	89 1c 24             	mov    %ebx,(%esp)
    1a91:	89 44 24 04          	mov    %eax,0x4(%esp)
    1a95:	e8 86 a0 01 00       	call   1bb20 <pio_trace_log>
    1a9a:	81 fb ff ff 00 00    	cmp    $0xffff,%ebx
    1aa0:	76 0e                	jbe    1ab0 <pio_write_8+0x40>
    1aa2:	89 f0                	mov    %esi,%eax
    1aa4:	88 03                	mov    %al,(%ebx)
    1aa6:	83 c4 1c             	add    $0x1c,%esp
    1aa9:	5b                   	pop    %ebx
    1aaa:	5e                   	pop    %esi
    1aab:	5f                   	pop    %edi
    1aac:	5d                   	pop    %ebp
    1aad:	c3                   	ret    
    1aae:	66 90                	xchg   %ax,%ax
    1ab0:	89 f0                	mov    %esi,%eax
    1ab2:	89 da                	mov    %ebx,%edx
    1ab4:	ee                   	out    %al,(%dx)
    1ab5:	83 c4 1c             	add    $0x1c,%esp
    1ab8:	5b                   	pop    %ebx
    1ab9:	5e                   	pop    %esi
    1aba:	5f                   	pop    %edi
    1abb:	5d                   	pop    %ebp
    1abc:	c3                   	ret    
    1abd:	8d 76 00             	lea    0x0(%esi),%esi

00001ac0 <pio_write_16>:
    1ac0:	55                   	push   %ebp
    1ac1:	89 e5                	mov    %esp,%ebp
    1ac3:	57                   	push   %edi
    1ac4:	56                   	push   %esi
    1ac5:	53                   	push   %ebx
    1ac6:	83 ec 1c             	sub    $0x1c,%esp
    1ac9:	8b 75 0c             	mov    0xc(%ebp),%esi
    1acc:	8b 5d 08             	mov    0x8(%ebp),%ebx
    1acf:	89 f0                	mov    %esi,%eax
    1ad1:	c7 44 24 08 01 00 00 	movl   $0x1,0x8(%esp)
    1ad8:	00 
    1ad9:	25 ff ff 00 00       	and    $0xffff,%eax
    1ade:	89 1c 24             	mov    %ebx,(%esp)
    1ae1:	89 44 24 04          	mov    %eax,0x4(%esp)
    1ae5:	e8 36 a0 01 00       	call   1bb20 <pio_trace_log>
    1aea:	81 fb ff ff 00 00    	cmp    $0xffff,%ebx
    1af0:	76 0e                	jbe    1b00 <pio_write_16+0x40>
    1af2:	66 89 33             	mov    %si,(%ebx)
    1af5:	83 c4 1c             	add    $0x1c,%esp
    1af8:	5b                   	pop    %ebx
    1af9:	5e                   	pop    %esi
    1afa:	5f                   	pop    %edi
    1afb:	5d                   	pop    %ebp
    1afc:	c3                   	ret    
    1afd:	8d 76 00             	lea    0x0(%esi),%esi
    1b00:	89 f0                	mov    %esi,%eax
    1b02:	89 da                	mov    %ebx,%edx
    1b04:	66 ef                	out    %ax,(%dx)
    1b06:	83 c4 1c             	add    $0x1c,%esp
    1b09:	5b                   	pop    %ebx
    1b0a:	5e                   	pop    %esi
    1b0b:	5f                   	pop    %edi
    1b0c:	5d                   	pop    %ebp
    1b0d:	c3                   	ret    
    1b0e:	66 90                	xchg   %ax,%ax

00001b10 <pio_write_32>:
    1b10:	55                   	push   %ebp
    1b11:	89 e5                	mov    %esp,%ebp
    1b13:	56                   	push   %esi
    1b14:	53                   	push   %ebx
    1b15:	83 ec 10             	sub    $0x10,%esp
    1b18:	8b 5d 08             	mov    0x8(%ebp),%ebx
    1b1b:	8b 75 0c             	mov    0xc(%ebp),%esi
    1b1e:	c7 44 24 08 01 00 00 	movl   $0x1,0x8(%esp)
    1b25:	00 
    1b26:	89 74 24 04          	mov    %esi,0x4(%esp)
    1b2a:	89 1c 24             	mov    %ebx,(%esp)
    1b2d:	e8 ee 9f 01 00       	call   1bb20 <pio_trace_log>
    1b32:	81 fb ff ff 00 00    	cmp    $0xffff,%ebx
    1b38:	76 0e                	jbe    1b48 <pio_write_32+0x38>
    1b3a:	89 33                	mov    %esi,(%ebx)
    1b3c:	83 c4 10             	add    $0x10,%esp
    1b3f:	5b                   	pop    %ebx
    1b40:	5e                   	pop    %esi
    1b41:	5d                   	pop    %ebp
    1b42:	c3                   	ret    
    1b43:	90                   	nop
    1b44:	8d 74 26 00          	lea    0x0(%esi,%eiz,1),%esi
    1b48:	89 f0                	mov    %esi,%eax
    1b4a:	89 da                	mov    %ebx,%edx
    1b4c:	ef                   	out    %eax,(%dx)
    1b4d:	83 c4 10             	add    $0x10,%esp
    1b50:	5b                   	pop    %ebx
    1b51:	5e                   	pop    %esi
    1b52:	5d                   	pop    %ebp
    1b53:	c3                   	ret    
    1b54:	8d b6 00 00 00 00    	lea    0x0(%esi),%esi
    1b5a:	8d bf 00 00 00 00    	lea    0x0(%edi),%edi

00001b60 <pio_read_8>:
    1b60:	55                   	push   %ebp
    1b61:	89 e5                	mov    %esp,%ebp
    1b63:	53                   	push   %ebx
    1b64:	83 ec 14             	sub    $0x14,%esp
    1b67:	8b 55 08             	mov    0x8(%ebp),%edx
    1b6a:	81 fa ff ff 00 00    	cmp    $0xffff,%edx
    1b70:	76 26                	jbe    1b98 <pio_read_8+0x38>
    1b72:	8a 1a                	mov    (%edx),%bl
    1b74:	31 c0                	xor    %eax,%eax
    1b76:	c7 44 24 08 00 00 00 	movl   $0x0,0x8(%esp)
    1b7d:	00 
    1b7e:	88 d8                	mov    %bl,%al
    1b80:	89 14 24             	mov    %edx,(%esp)
    1b83:	89 44 24 04          	mov    %eax,0x4(%esp)
    1b87:	e8 94 9f 01 00       	call   1bb20 <pio_trace_log>
    1b8c:	83 c4 14             	add    $0x14,%esp
    1b8f:	88 d8                	mov    %bl,%al
    1b91:	5b                   	pop    %ebx
    1b92:	5d                   	pop    %ebp
    1b93:	c3                   	ret    
    1b94:	8d 74 26 00          	lea    0x0(%esi,%eiz,1),%esi
    1b98:	ec                   	in     (%dx),%al
    1b99:	88 c3                	mov    %al,%bl
    1b9b:	eb d7                	jmp    1b74 <pio_read_8+0x14>
    1b9d:	8d 76 00             	lea    0x0(%esi),%esi

00001ba0 <pio_read_16>:
    1ba0:	55                   	push   %ebp
    1ba1:	89 e5                	mov    %esp,%ebp
    1ba3:	53                   	push   %ebx
    1ba4:	83 ec 14             	sub    $0x14,%esp
    1ba7:	8b 55 08             	mov    0x8(%ebp),%edx
    1baa:	81 fa ff ff 00 00    	cmp    $0xffff,%edx
    1bb0:	76 26                	jbe    1bd8 <pio_read_16+0x38>
    1bb2:	66 8b 1a             	mov    (%edx),%bx
    1bb5:	89 d8                	mov    %ebx,%eax
    1bb7:	c7 44 24 08 00 00 00 	movl   $0x0,0x8(%esp)
    1bbe:	00 
    1bbf:	25 ff ff 00 00       	and    $0xffff,%eax
    1bc4:	89 14 24             	mov    %edx,(%esp)
    1bc7:	89 44 24 04          	mov    %eax,0x4(%esp)
    1bcb:	e8 50 9f 01 00       	call   1bb20 <pio_trace_log>
    1bd0:	83 c4 14             	add    $0x14,%esp
    1bd3:	89 d8                	mov    %ebx,%eax
    1bd5:	5b                   	pop    %ebx
    1bd6:	5d                   	pop    %ebp
    1bd7:	c3                   	ret    
    1bd8:	66 ed                	in     (%dx),%ax
    1bda:	89 c3                	mov    %eax,%ebx
    1bdc:	eb d7                	jmp    1bb5 <pio_read_16+0x15>
    1bde:	66 90                	xchg   %ax,%ax

00001be0 <pio_read_32>:
    1be0:	55                   	push   %ebp
    1be1:	89 e5                	mov    %esp,%ebp
    1be3:	53                   	push   %ebx
    1be4:	83 ec 14             	sub    $0x14,%esp
    1be7:	8b 55 08             	mov    0x8(%ebp),%edx
    1bea:	81 fa ff ff 00 00    	cmp    $0xffff,%edx
    1bf0:	76 1e                	jbe    1c10 <pio_read_32+0x30>
    1bf2:	8b 1a                	mov    (%edx),%ebx
    1bf4:	89 5c 24 04          	mov    %ebx,0x4(%esp)
    1bf8:	c7 44 24 08 00 00 00 	movl   $0x0,0x8(%esp)
    1bff:	00 
    1c00:	89 14 24             	mov    %edx,(%esp)
    1c03:	e8 18 9f 01 00       	call   1bb20 <pio_trace_log>
    1c08:	83 c4 14             	add    $0x14,%esp
    1c0b:	89 d8                	mov    %ebx,%eax
    1c0d:	5b                   	pop    %ebx
    1c0e:	5d                   	pop    %ebp
    1c0f:	c3                   	ret    
    1c10:	ed                   	in     (%dx),%eax
    1c11:	89 c3                	mov    %eax,%ebx
    1c13:	eb df                	jmp    1bf4 <pio_read_32+0x14>
    1c15:	8d 74 26 00          	lea    0x0(%esi,%eiz,1),%esi
    1c19:	8d bc 27 00 00 00 00 	lea    0x0(%edi,%eiz,1),%edi

00001c20 <irq_register>:
    1c20:	55                   	push   %ebp
    1c21:	89 e5                	mov    %esp,%ebp
    1c23:	83 ec 28             	sub    $0x28,%esp
    1c26:	8b 45 14             	mov    0x14(%ebp),%eax
    1c29:	c7 44 24 18 29 00 00 	movl   $0x29,0x18(%esp)
    1c30:	00 
    1c31:	89 44 24 0c          	mov    %eax,0xc(%esp)
    1c35:	8b 45 10             	mov    0x10(%ebp),%eax
    1c38:	89 44 24 08          	mov    %eax,0x8(%esp)
    1c3c:	8b 45 0c             	mov    0xc(%ebp),%eax
    1c3f:	89 44 24 04          	mov    %eax,0x4(%esp)
    1c43:	8b 45 08             	mov    0x8(%ebp),%eax
    1c46:	c7 44 24 14 00 00 00 	movl   $0x0,0x14(%esp)
    1c4d:	00 
    1c4e:	c7 44 24 10 00 00 00 	movl   $0x0,0x10(%esp)
    1c55:	00 
    1c56:	89 04 24             	mov    %eax,(%esp)
    1c59:	ff 15 70 0c 02 00    	call   *0x20c70
    1c5f:	c9                   	leave  
    1c60:	c3                   	ret    
    1c61:	eb 0d                	jmp    1c70 <irq_unregister>
    1c63:	90                   	nop
    1c64:	90                   	nop
    1c65:	90                   	nop
    1c66:	90                   	nop
    1c67:	90                   	nop
    1c68:	90                   	nop
    1c69:	90                   	nop
    1c6a:	90                   	nop
    1c6b:	90                   	nop
    1c6c:	90                   	nop
    1c6d:	90                   	nop
    1c6e:	90                   	nop
    1c6f:	90                   	nop

00001c70 <irq_unregister>:
    1c70:	55                   	push   %ebp
    1c71:	89 e5                	mov    %esp,%ebp
    1c73:	83 ec 28             	sub    $0x28,%esp
    1c76:	8b 45 0c             	mov    0xc(%ebp),%eax
    1c79:	c7 44 24 18 2a 00 00 	movl   $0x2a,0x18(%esp)
    1c80:	00 
    1c81:	89 44 24 04          	mov    %eax,0x4(%esp)
    1c85:	8b 45 08             	mov    0x8(%ebp),%eax
    1c88:	c7 44 24 14 00 00 00 	movl   $0x0,0x14(%esp)
    1c8f:	00 
    1c90:	c7 44 24 10 00 00 00 	movl   $0x0,0x10(%esp)
    1c97:	00 
    1c98:	c7 44 24 0c 00 00 00 	movl   $0x0,0xc(%esp)
    1c9f:	00 
    1ca0:	c7 44 24 08 00 00 00 	movl   $0x0,0x8(%esp)
    1ca7:	00 
    1ca8:	89 04 24             	mov    %eax,(%esp)
    1cab:	ff 15 70 0c 02 00    	call   *0x20c70
    1cb1:	c9                   	leave  
    1cb2:	c3                   	ret    
    1cb3:	66 90                	xchg   %ax,%ax
    1cb5:	66 90                	xchg   %ax,%ax
    1cb7:	66 90                	xchg   %ax,%ax
    1cb9:	66 90                	xchg   %ax,%ax
    1cbb:	66 90                	xchg   %ax,%ax
    1cbd:	66 90                	xchg   %ax,%ax
    1cbf:	90                   	nop

00001cc0 <bd_srvs_init>:
    1cc0:	55                   	push   %ebp
    1cc1:	89 e5                	mov    %esp,%ebp
    1cc3:	8b 45 08             	mov    0x8(%ebp),%eax
    1cc6:	c7 00 00 00 00 00    	movl   $0x0,(%eax)
    1ccc:	c7 40 04 00 00 00 00 	movl   $0x0,0x4(%eax)
    1cd3:	5d                   	pop    %ebp
    1cd4:	c3                   	ret    
    1cd5:	8d 74 26 00          	lea    0x0(%esi,%eiz,1),%esi
    1cd9:	8d bc 27 00 00 00 00 	lea    0x0(%edi,%eiz,1),%edi

00001ce0 <bd_conn>:
    1ce0:	55                   	push   %ebp
    1ce1:	89 e5                	mov    %esp,%ebp
    1ce3:	57                   	push   %edi
    1ce4:	56                   	push   %esi
    1ce5:	53                   	push   %ebx
    1ce6:	83 ec 7c             	sub    $0x7c,%esp
    1ce9:	8b 45 08             	mov    0x8(%ebp),%eax
    1cec:	c7 44 24 04 00 00 00 	movl   $0x0,0x4(%esp)
    1cf3:	00 
    1cf4:	89 04 24             	mov    %eax,(%esp)
    1cf7:	e8 24 21 01 00       	call   13e20 <async_answer_0>
    1cfc:	c7 44 24 04 04 00 00 	movl   $0x4,0x4(%esp)
    1d03:	00 
    1d04:	c7 04 24 01 00 00 00 	movl   $0x1,(%esp)
    1d0b:	e8 70 f5 00 00       	call   11280 <calloc>
    1d10:	89 c7                	mov    %eax,%edi
    1d12:	85 c0                	test   %eax,%eax
    1d14:	0f 84 ec 02 00 00    	je     2006 <bd_conn+0x326>
    1d1a:	8b 55 10             	mov    0x10(%ebp),%edx
    1d1d:	89 10                	mov    %edx,(%eax)
    1d1f:	c7 04 24 02 00 00 00 	movl   $0x2,(%esp)
    1d26:	e8 95 43 01 00       	call   160c0 <async_callback_receive>
    1d2b:	85 c0                	test   %eax,%eax
    1d2d:	0f 84 d3 02 00 00    	je     2006 <bd_conn+0x326>
    1d33:	8b 4d 10             	mov    0x10(%ebp),%ecx
    1d36:	89 47 04             	mov    %eax,0x4(%edi)
    1d39:	8b 01                	mov    (%ecx),%eax
    1d3b:	89 7c 24 04          	mov    %edi,0x4(%esp)
    1d3f:	89 0c 24             	mov    %ecx,(%esp)
    1d42:	ff 10                	call   *(%eax)
    1d44:	85 c0                	test   %eax,%eax
    1d46:	0f 85 c4 02 00 00    	jne    2010 <bd_conn+0x330>
    1d4c:	8d 5d c4             	lea    -0x3c(%ebp),%ebx
    1d4f:	90                   	nop
    1d50:	c7 44 24 04 00 00 00 	movl   $0x0,0x4(%esp)
    1d57:	00 
    1d58:	89 1c 24             	mov    %ebx,(%esp)
    1d5b:	e8 90 0a 01 00       	call   127f0 <async_get_call_timeout>
    1d60:	89 c6                	mov    %eax,%esi
    1d62:	8b 45 c4             	mov    -0x3c(%ebp),%eax
    1d65:	85 c0                	test   %eax,%eax
    1d67:	0f 84 ab 02 00 00    	je     2018 <bd_conn+0x338>
    1d6d:	2d 00 04 00 00       	sub    $0x400,%eax
    1d72:	83 f8 04             	cmp    $0x4,%eax
    1d75:	76 19                	jbe    1d90 <bd_conn+0xb0>
    1d77:	c7 44 24 04 f2 ff ff 	movl   $0xfffffff2,0x4(%esp)
    1d7e:	ff 
    1d7f:	89 34 24             	mov    %esi,(%esp)
    1d82:	e8 99 20 01 00       	call   13e20 <async_answer_0>
    1d87:	eb c7                	jmp    1d50 <bd_conn+0x70>
    1d89:	8d b4 26 00 00 00 00 	lea    0x0(%esi,%eiz,1),%esi
    1d90:	ff 24 85 10 e1 01 00 	jmp    *0x1e110(,%eax,4)
    1d97:	90                   	nop
    1d98:	8b 4d cc             	mov    -0x34(%ebp),%ecx
    1d9b:	8b 55 c8             	mov    -0x38(%ebp),%edx
    1d9e:	89 4d a0             	mov    %ecx,-0x60(%ebp)
    1da1:	8d 45 b0             	lea    -0x50(%ebp),%eax
    1da4:	8d 4d b4             	lea    -0x4c(%ebp),%ecx
    1da7:	89 55 a4             	mov    %edx,-0x5c(%ebp)
    1daa:	89 4c 24 14          	mov    %ecx,0x14(%esp)
    1dae:	8b 55 d0             	mov    -0x30(%ebp),%edx
    1db1:	c7 44 24 10 00 00 00 	movl   $0x0,0x10(%esp)
    1db8:	00 
    1db9:	c7 44 24 0c 00 00 00 	movl   $0x0,0xc(%esp)
    1dc0:	00 
    1dc1:	c7 44 24 08 00 00 00 	movl   $0x0,0x8(%esp)
    1dc8:	00 
    1dc9:	c7 44 24 04 00 00 00 	movl   $0x0,0x4(%esp)
    1dd0:	00 
    1dd1:	89 04 24             	mov    %eax,(%esp)
    1dd4:	89 55 9c             	mov    %edx,-0x64(%ebp)
    1dd7:	e8 64 3b 01 00       	call   15940 <async_data_write_accept>
    1ddc:	85 c0                	test   %eax,%eax
    1dde:	75 48                	jne    1e28 <bd_conn+0x148>
    1de0:	8b 07                	mov    (%edi),%eax
    1de2:	8b 00                	mov    (%eax),%eax
    1de4:	8b 40 10             	mov    0x10(%eax),%eax
    1de7:	85 c0                	test   %eax,%eax
    1de9:	0f 84 61 02 00 00    	je     2050 <bd_conn+0x370>
    1def:	8b 55 b4             	mov    -0x4c(%ebp),%edx
    1df2:	8b 4d a4             	mov    -0x5c(%ebp),%ecx
    1df5:	89 54 24 14          	mov    %edx,0x14(%esp)
    1df9:	8b 55 b0             	mov    -0x50(%ebp),%edx
    1dfc:	89 54 24 10          	mov    %edx,0x10(%esp)
    1e00:	8b 55 9c             	mov    -0x64(%ebp),%edx
    1e03:	89 54 24 0c          	mov    %edx,0xc(%esp)
    1e07:	8b 55 a0             	mov    -0x60(%ebp),%edx
    1e0a:	89 4c 24 04          	mov    %ecx,0x4(%esp)
    1e0e:	89 54 24 08          	mov    %edx,0x8(%esp)
    1e12:	89 3c 24             	mov    %edi,(%esp)
    1e15:	ff d0                	call   *%eax
    1e17:	8b 55 b0             	mov    -0x50(%ebp),%edx
    1e1a:	89 14 24             	mov    %edx,(%esp)
    1e1d:	89 45 98             	mov    %eax,-0x68(%ebp)
    1e20:	e8 cb f5 00 00       	call   113f0 <free>
    1e25:	8b 45 98             	mov    -0x68(%ebp),%eax
    1e28:	89 44 24 04          	mov    %eax,0x4(%esp)
    1e2c:	89 34 24             	mov    %esi,(%esp)
    1e2f:	e8 ec 1f 01 00       	call   13e20 <async_answer_0>
    1e34:	e9 17 ff ff ff       	jmp    1d50 <bd_conn+0x70>
    1e39:	8d b4 26 00 00 00 00 	lea    0x0(%esi,%eiz,1),%esi
    1e40:	8d 45 ac             	lea    -0x54(%ebp),%eax
    1e43:	8b 4d c8             	mov    -0x38(%ebp),%ecx
    1e46:	89 44 24 04          	mov    %eax,0x4(%esp)
    1e4a:	8d 45 b4             	lea    -0x4c(%ebp),%eax
    1e4d:	89 4d a4             	mov    %ecx,-0x5c(%ebp)
    1e50:	8b 55 cc             	mov    -0x34(%ebp),%edx
    1e53:	8b 4d d0             	mov    -0x30(%ebp),%ecx
    1e56:	89 04 24             	mov    %eax,(%esp)
    1e59:	89 55 a0             	mov    %edx,-0x60(%ebp)
    1e5c:	89 4d 9c             	mov    %ecx,-0x64(%ebp)
    1e5f:	e8 2c 35 01 00       	call   15390 <async_data_read_receive>
    1e64:	84 c0                	test   %al,%al
    1e66:	0f 84 0b ff ff ff    	je     1d77 <bd_conn+0x97>
    1e6c:	8b 45 ac             	mov    -0x54(%ebp),%eax
    1e6f:	89 04 24             	mov    %eax,(%esp)
    1e72:	e8 69 f4 00 00       	call   112e0 <malloc>
    1e77:	89 c2                	mov    %eax,%edx
    1e79:	85 c0                	test   %eax,%eax
    1e7b:	0f 84 5d 01 00 00    	je     1fde <bd_conn+0x2fe>
    1e81:	8b 07                	mov    (%edi),%eax
    1e83:	8b 00                	mov    (%eax),%eax
    1e85:	8b 40 08             	mov    0x8(%eax),%eax
    1e88:	85 c0                	test   %eax,%eax
    1e8a:	0f 84 d8 01 00 00    	je     2068 <bd_conn+0x388>
    1e90:	8b 4d ac             	mov    -0x54(%ebp),%ecx
    1e93:	89 54 24 10          	mov    %edx,0x10(%esp)
    1e97:	89 4c 24 14          	mov    %ecx,0x14(%esp)
    1e9b:	8b 4d 9c             	mov    -0x64(%ebp),%ecx
    1e9e:	89 4c 24 0c          	mov    %ecx,0xc(%esp)
    1ea2:	8b 4d a4             	mov    -0x5c(%ebp),%ecx
    1ea5:	89 4c 24 04          	mov    %ecx,0x4(%esp)
    1ea9:	8b 4d a0             	mov    -0x60(%ebp),%ecx
    1eac:	89 55 98             	mov    %edx,-0x68(%ebp)
    1eaf:	89 4c 24 08          	mov    %ecx,0x8(%esp)
    1eb3:	89 3c 24             	mov    %edi,(%esp)
    1eb6:	ff d0                	call   *%eax
    1eb8:	8b 55 98             	mov    -0x68(%ebp),%edx
    1ebb:	85 c0                	test   %eax,%eax
    1ebd:	0f 85 1b 01 00 00    	jne    1fde <bd_conn+0x2fe>
    1ec3:	8b 45 ac             	mov    -0x54(%ebp),%eax
    1ec6:	89 54 24 04          	mov    %edx,0x4(%esp)
    1eca:	89 44 24 08          	mov    %eax,0x8(%esp)
    1ece:	8b 45 b4             	mov    -0x4c(%ebp),%eax
    1ed1:	89 04 24             	mov    %eax,(%esp)
    1ed4:	89 55 98             	mov    %edx,-0x68(%ebp)
    1ed7:	e8 14 35 01 00       	call   153f0 <async_data_read_finalize>
    1edc:	8b 55 98             	mov    -0x68(%ebp),%edx
    1edf:	89 14 24             	mov    %edx,(%esp)
    1ee2:	e8 09 f5 00 00       	call   113f0 <free>
    1ee7:	c7 44 24 04 00 00 00 	movl   $0x0,0x4(%esp)
    1eee:	00 
    1eef:	89 34 24             	mov    %esi,(%esp)
    1ef2:	e8 29 1f 01 00       	call   13e20 <async_answer_0>
    1ef7:	e9 54 fe ff ff       	jmp    1d50 <bd_conn+0x70>
    1efc:	8d 74 26 00          	lea    0x0(%esi,%eiz,1),%esi
    1f00:	8b 07                	mov    (%edi),%eax
    1f02:	8b 00                	mov    (%eax),%eax
    1f04:	8b 40 18             	mov    0x18(%eax),%eax
    1f07:	85 c0                	test   %eax,%eax
    1f09:	0f 84 41 01 00 00    	je     2050 <bd_conn+0x370>
    1f0f:	8d 55 b8             	lea    -0x48(%ebp),%edx
    1f12:	89 3c 24             	mov    %edi,(%esp)
    1f15:	89 54 24 04          	mov    %edx,0x4(%esp)
    1f19:	ff d0                	call   *%eax
    1f1b:	8b 55 bc             	mov    -0x44(%ebp),%edx
    1f1e:	89 54 24 0c          	mov    %edx,0xc(%esp)
    1f22:	8b 55 b8             	mov    -0x48(%ebp),%edx
    1f25:	89 54 24 08          	mov    %edx,0x8(%esp)
    1f29:	89 44 24 04          	mov    %eax,0x4(%esp)
    1f2d:	89 34 24             	mov    %esi,(%esp)
    1f30:	e8 6b 1f 01 00       	call   13ea0 <async_answer_2>
    1f35:	e9 16 fe ff ff       	jmp    1d50 <bd_conn+0x70>
    1f3a:	8d b6 00 00 00 00    	lea    0x0(%esi),%esi
    1f40:	8b 07                	mov    (%edi),%eax
    1f42:	8b 00                	mov    (%eax),%eax
    1f44:	8b 40 14             	mov    0x14(%eax),%eax
    1f47:	85 c0                	test   %eax,%eax
    1f49:	0f 84 01 01 00 00    	je     2050 <bd_conn+0x370>
    1f4f:	8d 4d b4             	lea    -0x4c(%ebp),%ecx
    1f52:	89 3c 24             	mov    %edi,(%esp)
    1f55:	89 4c 24 04          	mov    %ecx,0x4(%esp)
    1f59:	ff d0                	call   *%eax
    1f5b:	8b 55 b4             	mov    -0x4c(%ebp),%edx
    1f5e:	89 54 24 08          	mov    %edx,0x8(%esp)
    1f62:	89 44 24 04          	mov    %eax,0x4(%esp)
    1f66:	89 34 24             	mov    %esi,(%esp)
    1f69:	e8 f2 1e 01 00       	call   13e60 <async_answer_1>
    1f6e:	e9 dd fd ff ff       	jmp    1d50 <bd_conn+0x70>
    1f73:	90                   	nop
    1f74:	8d 74 26 00          	lea    0x0(%esi,%eiz,1),%esi
    1f78:	8d 45 ac             	lea    -0x54(%ebp),%eax
    1f7b:	8d 4d b4             	lea    -0x4c(%ebp),%ecx
    1f7e:	8b 55 c8             	mov    -0x38(%ebp),%edx
    1f81:	89 44 24 04          	mov    %eax,0x4(%esp)
    1f85:	89 0c 24             	mov    %ecx,(%esp)
    1f88:	89 55 a4             	mov    %edx,-0x5c(%ebp)
    1f8b:	e8 00 34 01 00       	call   15390 <async_data_read_receive>
    1f90:	84 c0                	test   %al,%al
    1f92:	0f 84 df fd ff ff    	je     1d77 <bd_conn+0x97>
    1f98:	8b 45 ac             	mov    -0x54(%ebp),%eax
    1f9b:	89 04 24             	mov    %eax,(%esp)
    1f9e:	e8 3d f3 00 00       	call   112e0 <malloc>
    1fa3:	89 c2                	mov    %eax,%edx
    1fa5:	85 c0                	test   %eax,%eax
    1fa7:	74 35                	je     1fde <bd_conn+0x2fe>
    1fa9:	8b 07                	mov    (%edi),%eax
    1fab:	8b 00                	mov    (%eax),%eax
    1fad:	8b 40 0c             	mov    0xc(%eax),%eax
    1fb0:	85 c0                	test   %eax,%eax
    1fb2:	0f 84 b0 00 00 00    	je     2068 <bd_conn+0x388>
    1fb8:	8b 4d ac             	mov    -0x54(%ebp),%ecx
    1fbb:	89 54 24 08          	mov    %edx,0x8(%esp)
    1fbf:	89 4c 24 0c          	mov    %ecx,0xc(%esp)
    1fc3:	89 55 98             	mov    %edx,-0x68(%ebp)
    1fc6:	0f b6 4d a4          	movzbl -0x5c(%ebp),%ecx
    1fca:	89 3c 24             	mov    %edi,(%esp)
    1fcd:	89 4c 24 04          	mov    %ecx,0x4(%esp)
    1fd1:	ff d0                	call   *%eax
    1fd3:	8b 55 98             	mov    -0x68(%ebp),%edx
    1fd6:	85 c0                	test   %eax,%eax
    1fd8:	0f 84 e5 fe ff ff    	je     1ec3 <bd_conn+0x1e3>
    1fde:	8b 45 b4             	mov    -0x4c(%ebp),%eax
    1fe1:	c7 44 24 04 fe ff ff 	movl   $0xfffffffe,0x4(%esp)
    1fe8:	ff 
    1fe9:	89 04 24             	mov    %eax,(%esp)
    1fec:	e8 2f 1e 01 00       	call   13e20 <async_answer_0>
    1ff1:	c7 44 24 04 fe ff ff 	movl   $0xfffffffe,0x4(%esp)
    1ff8:	ff 
    1ff9:	89 34 24             	mov    %esi,(%esp)
    1ffc:	e8 1f 1e 01 00       	call   13e20 <async_answer_0>
    2001:	e9 4a fd ff ff       	jmp    1d50 <bd_conn+0x70>
    2006:	b8 fe ff ff ff       	mov    $0xfffffffe,%eax
    200b:	90                   	nop
    200c:	8d 74 26 00          	lea    0x0(%esi,%eiz,1),%esi
    2010:	83 c4 7c             	add    $0x7c,%esp
    2013:	5b                   	pop    %ebx
    2014:	5e                   	pop    %esi
    2015:	5f                   	pop    %edi
    2016:	5d                   	pop    %ebp
    2017:	c3                   	ret    
    2018:	89 34 24             	mov    %esi,(%esp)
    201b:	c7 44 24 04 00 00 00 	movl   $0x0,0x4(%esp)
    2022:	00 
    2023:	e8 f8 1d 01 00       	call   13e20 <async_answer_0>
    2028:	8b 55 10             	mov    0x10(%ebp),%edx
    202b:	8b 02                	mov    (%edx),%eax
    202d:	89 3c 24             	mov    %edi,(%esp)
    2030:	ff 50 04             	call   *0x4(%eax)
    2033:	89 3c 24             	mov    %edi,(%esp)
    2036:	89 45 98             	mov    %eax,-0x68(%ebp)
    2039:	e8 b2 f3 00 00       	call   113f0 <free>
    203e:	8b 45 98             	mov    -0x68(%ebp),%eax
    2041:	83 c4 7c             	add    $0x7c,%esp
    2044:	5b                   	pop    %ebx
    2045:	5e                   	pop    %esi
    2046:	5f                   	pop    %edi
    2047:	5d                   	pop    %ebp
    2048:	c3                   	ret    
    2049:	8d b4 26 00 00 00 00 	lea    0x0(%esi,%eiz,1),%esi
    2050:	c7 44 24 04 f5 ff ff 	movl   $0xfffffff5,0x4(%esp)
    2057:	ff 
    2058:	89 34 24             	mov    %esi,(%esp)
    205b:	e8 c0 1d 01 00       	call   13e20 <async_answer_0>
    2060:	e9 eb fc ff ff       	jmp    1d50 <bd_conn+0x70>
    2065:	8d 76 00             	lea    0x0(%esi),%esi
    2068:	8b 45 b4             	mov    -0x4c(%ebp),%eax
    206b:	c7 44 24 04 f5 ff ff 	movl   $0xfffffff5,0x4(%esp)
    2072:	ff 
    2073:	89 04 24             	mov    %eax,(%esp)
    2076:	e8 a5 1d 01 00       	call   13e20 <async_answer_0>
    207b:	c7 44 24 04 f5 ff ff 	movl   $0xfffffff5,0x4(%esp)
    2082:	ff 
    2083:	89 34 24             	mov    %esi,(%esp)
    2086:	e8 95 1d 01 00       	call   13e20 <async_answer_0>
    208b:	e9 c0 fc ff ff       	jmp    1d50 <bd_conn+0x70>

00002090 <loc_cb_conn>:
    2090:	55                   	push   %ebp
    2091:	89 e5                	mov    %esp,%ebp
    2093:	56                   	push   %esi
    2094:	53                   	push   %ebx
    2095:	83 ec 50             	sub    $0x50,%esp
    2098:	8d 5d d4             	lea    -0x2c(%ebp),%ebx
    209b:	90                   	nop
    209c:	8d 74 26 00          	lea    0x0(%esi,%eiz,1),%esi
    20a0:	c7 44 24 04 00 00 00 	movl   $0x0,0x4(%esp)
    20a7:	00 
    20a8:	89 1c 24             	mov    %ebx,(%esp)
    20ab:	e8 40 07 01 00       	call   127f0 <async_get_call_timeout>
    20b0:	8b 55 d4             	mov    -0x2c(%ebp),%edx
    20b3:	85 d2                	test   %edx,%edx
    20b5:	74 61                	je     2118 <loc_cb_conn+0x88>
    20b7:	81 fa 00 04 00 00    	cmp    $0x400,%edx
    20bd:	74 19                	je     20d8 <loc_cb_conn+0x48>
    20bf:	c7 44 24 04 f5 ff ff 	movl   $0xfffffff5,0x4(%esp)
    20c6:	ff 
    20c7:	89 04 24             	mov    %eax,(%esp)
    20ca:	e8 51 1d 01 00       	call   13e20 <async_answer_0>
    20cf:	eb cf                	jmp    20a0 <loc_cb_conn+0x10>
    20d1:	8d b4 26 00 00 00 00 	lea    0x0(%esi,%eiz,1),%esi
    20d8:	c7 04 24 bc 0a 02 00 	movl   $0x20abc,(%esp)
    20df:	89 45 c4             	mov    %eax,-0x3c(%ebp)
    20e2:	e8 e9 63 00 00       	call   84d0 <fibril_mutex_lock>
    20e7:	c7 04 24 bc 0a 02 00 	movl   $0x20abc,(%esp)
    20ee:	8b 35 34 0d 02 00    	mov    0x20d34,%esi
    20f4:	e8 f7 64 00 00       	call   85f0 <fibril_mutex_unlock>
    20f9:	8b 45 c4             	mov    -0x3c(%ebp),%eax
    20fc:	c7 44 24 04 00 00 00 	movl   $0x0,0x4(%esp)
    2103:	00 
    2104:	89 04 24             	mov    %eax,(%esp)
    2107:	e8 14 1d 01 00       	call   13e20 <async_answer_0>
    210c:	85 f6                	test   %esi,%esi
    210e:	74 90                	je     20a0 <loc_cb_conn+0x10>
    2110:	ff d6                	call   *%esi
    2112:	eb 8c                	jmp    20a0 <loc_cb_conn+0x10>
    2114:	8d 74 26 00          	lea    0x0(%esi,%eiz,1),%esi
    2118:	83 c4 50             	add    $0x50,%esp
    211b:	5b                   	pop    %ebx
    211c:	5e                   	pop    %esi
    211d:	5d                   	pop    %ebp
    211e:	c3                   	ret    
    211f:	90                   	nop

00002120 <loc_exchange_begin.part.0>:
    2120:	55                   	push   %ebp
    2121:	89 e5                	mov    %esp,%ebp
    2123:	83 ec 18             	sub    $0x18,%esp
    2126:	c7 04 24 8c 0a 02 00 	movl   $0x20a8c,(%esp)
    212d:	e8 9e 63 00 00       	call   84d0 <fibril_mutex_lock>
    2132:	a1 24 0d 02 00       	mov    0x20d24,%eax
    2137:	85 c0                	test   %eax,%eax
    2139:	74 25                	je     2160 <loc_exchange_begin.part.0+0x40>
    213b:	c7 04 24 8c 0a 02 00 	movl   $0x20a8c,(%esp)
    2142:	e8 a9 64 00 00       	call   85f0 <fibril_mutex_unlock>
    2147:	a1 24 0d 02 00       	mov    0x20d24,%eax
    214c:	85 c0                	test   %eax,%eax
    214e:	74 40                	je     2190 <loc_exchange_begin.part.0+0x70>
    2150:	89 04 24             	mov    %eax,(%esp)
    2153:	e8 c8 26 01 00       	call   14820 <async_exchange_begin>
    2158:	c9                   	leave  
    2159:	c3                   	ret    
    215a:	8d b6 00 00 00 00    	lea    0x0(%esi),%esi
    2160:	c7 44 24 0c 00 00 00 	movl   $0x0,0xc(%esp)
    2167:	00 
    2168:	c7 44 24 08 01 00 00 	movl   $0x1,0x8(%esp)
    216f:	00 
    2170:	c7 44 24 04 6c 6f 63 	movl   $0x20636f6c,0x4(%esp)
    2177:	20 
    2178:	c7 04 24 02 00 00 00 	movl   $0x2,(%esp)
    217f:	e8 6c f9 00 00       	call   11af0 <service_connect>
    2184:	a3 24 0d 02 00       	mov    %eax,0x20d24
    2189:	eb b0                	jmp    213b <loc_exchange_begin.part.0+0x1b>
    218b:	90                   	nop
    218c:	8d 74 26 00          	lea    0x0(%esi,%eiz,1),%esi
    2190:	31 c0                	xor    %eax,%eax
    2192:	c9                   	leave  
    2193:	c3                   	ret    
    2194:	8d b6 00 00 00 00    	lea    0x0(%esi),%esi
    219a:	8d bf 00 00 00 00    	lea    0x0(%edi),%edi

000021a0 <loc_get_name_internal>:
    21a0:	55                   	push   %ebp
    21a1:	89 e5                	mov    %esp,%ebp
    21a3:	57                   	push   %edi
    21a4:	56                   	push   %esi
    21a5:	53                   	push   %ebx
    21a6:	81 ec 8c 01 00 00    	sub    $0x18c,%esp
    21ac:	c7 01 00 00 00 00    	movl   $0x0,(%ecx)
    21b2:	89 85 94 fe ff ff    	mov    %eax,-0x16c(%ebp)
    21b8:	89 d7                	mov    %edx,%edi
    21ba:	c7 04 24 9c 0a 02 00 	movl   $0x20a9c,(%esp)
    21c1:	89 ce                	mov    %ecx,%esi
    21c3:	e8 08 63 00 00       	call   84d0 <fibril_mutex_lock>
    21c8:	a1 30 0d 02 00       	mov    0x20d30,%eax
    21cd:	85 c0                	test   %eax,%eax
    21cf:	75 39                	jne    220a <loc_get_name_internal+0x6a>
    21d1:	c7 04 24 ac 0a 02 00 	movl   $0x20aac,(%esp)
    21d8:	8b 1d 2c 0d 02 00    	mov    0x20d2c,%ebx
    21de:	e8 ed 62 00 00       	call   84d0 <fibril_mutex_lock>
    21e3:	a1 30 0d 02 00       	mov    0x20d30,%eax
    21e8:	85 c0                	test   %eax,%eax
    21ea:	0f 84 40 01 00 00    	je     2330 <loc_get_name_internal+0x190>
    21f0:	c7 04 24 ac 0a 02 00 	movl   $0x20aac,(%esp)
    21f7:	e8 f4 63 00 00       	call   85f0 <fibril_mutex_unlock>
    21fc:	8b 1d 30 0d 02 00    	mov    0x20d30,%ebx
    2202:	85 db                	test   %ebx,%ebx
    2204:	0f 84 3e 01 00 00    	je     2348 <loc_get_name_internal+0x1a8>
    220a:	c7 04 24 9c 0a 02 00 	movl   $0x20a9c,(%esp)
    2211:	e8 da 63 00 00       	call   85f0 <fibril_mutex_unlock>
    2216:	c7 04 24 ac 0a 02 00 	movl   $0x20aac,(%esp)
    221d:	8b 1d 30 0d 02 00    	mov    0x20d30,%ebx
    2223:	e8 a8 62 00 00       	call   84d0 <fibril_mutex_lock>
    2228:	8b 0d 2c 0d 02 00    	mov    0x20d2c,%ecx
    222e:	85 c9                	test   %ecx,%ecx
    2230:	0f 84 62 01 00 00    	je     2398 <loc_get_name_internal+0x1f8>
    2236:	c7 04 24 ac 0a 02 00 	movl   $0x20aac,(%esp)
    223d:	e8 ae 63 00 00       	call   85f0 <fibril_mutex_unlock>
    2242:	a1 30 0d 02 00       	mov    0x20d30,%eax
    2247:	89 04 24             	mov    %eax,(%esp)
    224a:	e8 d1 25 01 00       	call   14820 <async_exchange_begin>
    224f:	89 7c 24 08          	mov    %edi,0x8(%esp)
    2253:	89 c3                	mov    %eax,%ebx
    2255:	8d 85 c4 fe ff ff    	lea    -0x13c(%ebp),%eax
    225b:	89 44 24 18          	mov    %eax,0x18(%esp)
    225f:	8b 85 94 fe ff ff    	mov    -0x16c(%ebp),%eax
    2265:	c7 44 24 14 00 00 00 	movl   $0x0,0x14(%esp)
    226c:	00 
    226d:	c7 44 24 10 00 00 00 	movl   $0x0,0x10(%esp)
    2274:	00 
    2275:	c7 44 24 0c 00 00 00 	movl   $0x0,0xc(%esp)
    227c:	00 
    227d:	89 44 24 04          	mov    %eax,0x4(%esp)
    2281:	89 1c 24             	mov    %ebx,(%esp)
    2284:	e8 37 0f 01 00       	call   131c0 <async_send_fast>
    2289:	c7 44 24 08 ff 00 00 	movl   $0xff,0x8(%esp)
    2290:	00 
    2291:	89 c7                	mov    %eax,%edi
    2293:	8d 85 a0 fe ff ff    	lea    -0x160(%ebp),%eax
    2299:	89 44 24 0c          	mov    %eax,0xc(%esp)
    229d:	8d 85 e8 fe ff ff    	lea    -0x118(%ebp),%eax
    22a3:	89 44 24 04          	mov    %eax,0x4(%esp)
    22a7:	89 1c 24             	mov    %ebx,(%esp)
    22aa:	e8 61 2e 01 00       	call   15110 <async_data_read>
    22af:	8d 8d 98 fe ff ff    	lea    -0x168(%ebp),%ecx
    22b5:	89 4c 24 04          	mov    %ecx,0x4(%esp)
    22b9:	89 04 24             	mov    %eax,(%esp)
    22bc:	e8 cf 10 01 00       	call   13390 <async_wait_for>
    22c1:	89 1c 24             	mov    %ebx,(%esp)
    22c4:	e8 c7 28 01 00       	call   14b90 <async_exchange_end>
    22c9:	8b 95 98 fe ff ff    	mov    -0x168(%ebp),%edx
    22cf:	85 d2                	test   %edx,%edx
    22d1:	0f 85 a1 00 00 00    	jne    2378 <loc_get_name_internal+0x1d8>
    22d7:	8d 85 9c fe ff ff    	lea    -0x164(%ebp),%eax
    22dd:	89 3c 24             	mov    %edi,(%esp)
    22e0:	89 44 24 04          	mov    %eax,0x4(%esp)
    22e4:	e8 a7 10 01 00       	call   13390 <async_wait_for>
    22e9:	8b 85 9c fe ff ff    	mov    -0x164(%ebp),%eax
    22ef:	85 c0                	test   %eax,%eax
    22f1:	75 31                	jne    2324 <loc_get_name_internal+0x184>
    22f3:	8b 85 a8 fe ff ff    	mov    -0x158(%ebp),%eax
    22f9:	3d ff 00 00 00       	cmp    $0xff,%eax
    22fe:	0f 87 a7 00 00 00    	ja     23ab <loc_get_name_internal+0x20b>
    2304:	c6 84 05 e8 fe ff ff 	movb   $0x0,-0x118(%ebp,%eax,1)
    230b:	00 
    230c:	8d 85 e8 fe ff ff    	lea    -0x118(%ebp),%eax
    2312:	89 04 24             	mov    %eax,(%esp)
    2315:	e8 36 4f 00 00       	call   7250 <str_dup>
    231a:	83 f8 01             	cmp    $0x1,%eax
    231d:	89 06                	mov    %eax,(%esi)
    231f:	19 c0                	sbb    %eax,%eax
    2321:	83 e0 fe             	and    $0xfffffffe,%eax
    2324:	81 c4 8c 01 00 00    	add    $0x18c,%esp
    232a:	5b                   	pop    %ebx
    232b:	5e                   	pop    %esi
    232c:	5f                   	pop    %edi
    232d:	5d                   	pop    %ebp
    232e:	c3                   	ret    
    232f:	90                   	nop
    2330:	85 db                	test   %ebx,%ebx
    2332:	0f 84 b8 fe ff ff    	je     21f0 <loc_get_name_internal+0x50>
    2338:	89 1d 30 0d 02 00    	mov    %ebx,0x20d30
    233e:	e9 ad fe ff ff       	jmp    21f0 <loc_get_name_internal+0x50>
    2343:	90                   	nop
    2344:	8d 74 26 00          	lea    0x0(%esi,%eiz,1),%esi
    2348:	c7 44 24 0c 00 00 00 	movl   $0x0,0xc(%esp)
    234f:	00 
    2350:	c7 44 24 08 02 00 00 	movl   $0x2,0x8(%esp)
    2357:	00 
    2358:	c7 44 24 04 6c 6f 63 	movl   $0x20636f6c,0x4(%esp)
    235f:	20 
    2360:	c7 04 24 02 00 00 00 	movl   $0x2,(%esp)
    2367:	e8 04 f8 00 00       	call   11b70 <service_connect_blocking>
    236c:	a3 30 0d 02 00       	mov    %eax,0x20d30
    2371:	e9 57 fe ff ff       	jmp    21cd <loc_get_name_internal+0x2d>
    2376:	66 90                	xchg   %ax,%ax
    2378:	89 3c 24             	mov    %edi,(%esp)
    237b:	e8 60 12 01 00       	call   135e0 <async_forget>
    2380:	8b 85 98 fe ff ff    	mov    -0x168(%ebp),%eax
    2386:	81 c4 8c 01 00 00    	add    $0x18c,%esp
    238c:	5b                   	pop    %ebx
    238d:	5e                   	pop    %esi
    238e:	5f                   	pop    %edi
    238f:	5d                   	pop    %ebp
    2390:	c3                   	ret    
    2391:	8d b4 26 00 00 00 00 	lea    0x0(%esi,%eiz,1),%esi
    2398:	85 db                	test   %ebx,%ebx
    239a:	0f 84 96 fe ff ff    	je     2236 <loc_get_name_internal+0x96>
    23a0:	89 1d 2c 0d 02 00    	mov    %ebx,0x20d2c
    23a6:	e9 8b fe ff ff       	jmp    2236 <loc_get_name_internal+0x96>
    23ab:	c7 44 24 08 9e 01 00 	movl   $0x19e,0x8(%esp)
    23b2:	00 
    23b3:	c7 44 24 04 24 e1 01 	movl   $0x1e124,0x4(%esp)
    23ba:	00 
    23bb:	c7 04 24 32 e1 01 00 	movl   $0x1e132,(%esp)
    23c2:	e8 f9 96 01 00       	call   1bac0 <assert_abort>
    23c7:	89 f6                	mov    %esi,%esi
    23c9:	8d bc 27 00 00 00 00 	lea    0x0(%edi,%eiz,1),%edi

000023d0 <loc_get_ids_internal>:
    23d0:	55                   	push   %ebp
    23d1:	89 e5                	mov    %esp,%ebp
    23d3:	57                   	push   %edi
    23d4:	56                   	push   %esi
    23d5:	53                   	push   %ebx
    23d6:	83 ec 7c             	sub    $0x7c,%esp
    23d9:	89 55 ac             	mov    %edx,-0x54(%ebp)
    23dc:	8b 55 08             	mov    0x8(%ebp),%edx
    23df:	c7 01 00 00 00 00    	movl   $0x0,(%ecx)
    23e5:	89 45 b0             	mov    %eax,-0x50(%ebp)
    23e8:	89 4d a8             	mov    %ecx,-0x58(%ebp)
    23eb:	c7 02 00 00 00 00    	movl   $0x0,(%edx)
    23f1:	c7 04 24 9c 0a 02 00 	movl   $0x20a9c,(%esp)
    23f8:	e8 d3 60 00 00       	call   84d0 <fibril_mutex_lock>
    23fd:	a1 30 0d 02 00       	mov    0x20d30,%eax
    2402:	85 c0                	test   %eax,%eax
    2404:	75 39                	jne    243f <loc_get_ids_internal+0x6f>
    2406:	c7 04 24 ac 0a 02 00 	movl   $0x20aac,(%esp)
    240d:	8b 1d 2c 0d 02 00    	mov    0x20d2c,%ebx
    2413:	e8 b8 60 00 00       	call   84d0 <fibril_mutex_lock>
    2418:	8b 15 30 0d 02 00    	mov    0x20d30,%edx
    241e:	85 d2                	test   %edx,%edx
    2420:	0f 84 5a 02 00 00    	je     2680 <loc_get_ids_internal+0x2b0>
    2426:	c7 04 24 ac 0a 02 00 	movl   $0x20aac,(%esp)
    242d:	e8 be 61 00 00       	call   85f0 <fibril_mutex_unlock>
    2432:	a1 30 0d 02 00       	mov    0x20d30,%eax
    2437:	85 c0                	test   %eax,%eax
    2439:	0f 84 59 02 00 00    	je     2698 <loc_get_ids_internal+0x2c8>
    243f:	c7 04 24 9c 0a 02 00 	movl   $0x20a9c,(%esp)
    2446:	e8 a5 61 00 00       	call   85f0 <fibril_mutex_unlock>
    244b:	c7 04 24 ac 0a 02 00 	movl   $0x20aac,(%esp)
    2452:	8b 1d 30 0d 02 00    	mov    0x20d30,%ebx
    2458:	e8 73 60 00 00       	call   84d0 <fibril_mutex_lock>
    245d:	a1 2c 0d 02 00       	mov    0x20d2c,%eax
    2462:	85 c0                	test   %eax,%eax
    2464:	0f 84 d5 02 00 00    	je     273f <loc_get_ids_internal+0x36f>
    246a:	c7 04 24 ac 0a 02 00 	movl   $0x20aac,(%esp)
    2471:	e8 7a 61 00 00       	call   85f0 <fibril_mutex_unlock>
    2476:	a1 30 0d 02 00       	mov    0x20d30,%eax
    247b:	89 04 24             	mov    %eax,(%esp)
    247e:	e8 9d 23 01 00       	call   14820 <async_exchange_begin>
    2483:	8b 55 ac             	mov    -0x54(%ebp),%edx
    2486:	89 c6                	mov    %eax,%esi
    2488:	8d 45 c4             	lea    -0x3c(%ebp),%eax
    248b:	89 44 24 18          	mov    %eax,0x18(%esp)
    248f:	8b 45 b0             	mov    -0x50(%ebp),%eax
    2492:	89 54 24 08          	mov    %edx,0x8(%esp)
    2496:	c7 44 24 14 00 00 00 	movl   $0x0,0x14(%esp)
    249d:	00 
    249e:	c7 44 24 10 00 00 00 	movl   $0x0,0x10(%esp)
    24a5:	00 
    24a6:	c7 44 24 0c 00 00 00 	movl   $0x0,0xc(%esp)
    24ad:	00 
    24ae:	89 44 24 04          	mov    %eax,0x4(%esp)
    24b2:	89 34 24             	mov    %esi,(%esp)
    24b5:	e8 06 0d 01 00       	call   131c0 <async_send_fast>
    24ba:	c7 44 24 08 00 00 00 	movl   $0x0,0x8(%esp)
    24c1:	00 
    24c2:	c7 44 24 04 00 00 00 	movl   $0x0,0x4(%esp)
    24c9:	00 
    24ca:	89 34 24             	mov    %esi,(%esp)
    24cd:	89 c3                	mov    %eax,%ebx
    24cf:	e8 1c 2d 01 00       	call   151f0 <async_data_read_start>
    24d4:	89 34 24             	mov    %esi,(%esp)
    24d7:	89 c7                	mov    %eax,%edi
    24d9:	e8 b2 26 01 00       	call   14b90 <async_exchange_end>
    24de:	85 ff                	test   %edi,%edi
    24e0:	0f 85 3d 02 00 00    	jne    2723 <loc_get_ids_internal+0x353>
    24e6:	8d 55 c0             	lea    -0x40(%ebp),%edx
    24e9:	89 1c 24             	mov    %ebx,(%esp)
    24ec:	89 54 24 04          	mov    %edx,0x4(%esp)
    24f0:	e8 9b 0e 01 00       	call   13390 <async_wait_for>
    24f5:	8b 45 c0             	mov    -0x40(%ebp),%eax
    24f8:	85 c0                	test   %eax,%eax
    24fa:	0f 85 72 01 00 00    	jne    2672 <loc_get_ids_internal+0x2a2>
    2500:	8b 7d c8             	mov    -0x38(%ebp),%edi
    2503:	89 3c 24             	mov    %edi,(%esp)
    2506:	e8 d5 ed 00 00       	call   112e0 <malloc>
    250b:	89 c6                	mov    %eax,%esi
    250d:	85 c0                	test   %eax,%eax
    250f:	0f 85 0a 01 00 00    	jne    261f <loc_get_ids_internal+0x24f>
    2515:	e9 1b 02 00 00       	jmp    2735 <loc_get_ids_internal+0x365>
    251a:	8d b6 00 00 00 00    	lea    0x0(%esi),%esi
    2520:	c7 04 24 ac 0a 02 00 	movl   $0x20aac,(%esp)
    2527:	e8 c4 60 00 00       	call   85f0 <fibril_mutex_unlock>
    252c:	a1 30 0d 02 00       	mov    0x20d30,%eax
    2531:	85 c0                	test   %eax,%eax
    2533:	0f 84 8f 01 00 00    	je     26c8 <loc_get_ids_internal+0x2f8>
    2539:	c7 04 24 9c 0a 02 00 	movl   $0x20a9c,(%esp)
    2540:	e8 ab 60 00 00       	call   85f0 <fibril_mutex_unlock>
    2545:	c7 04 24 ac 0a 02 00 	movl   $0x20aac,(%esp)
    254c:	8b 1d 30 0d 02 00    	mov    0x20d30,%ebx
    2552:	e8 79 5f 00 00       	call   84d0 <fibril_mutex_lock>
    2557:	a1 2c 0d 02 00       	mov    0x20d2c,%eax
    255c:	85 c0                	test   %eax,%eax
    255e:	0f 84 ac 01 00 00    	je     2710 <loc_get_ids_internal+0x340>
    2564:	c7 04 24 ac 0a 02 00 	movl   $0x20aac,(%esp)
    256b:	e8 80 60 00 00       	call   85f0 <fibril_mutex_unlock>
    2570:	a1 30 0d 02 00       	mov    0x20d30,%eax
    2575:	89 04 24             	mov    %eax,(%esp)
    2578:	e8 a3 22 01 00       	call   14820 <async_exchange_begin>
    257d:	8b 55 ac             	mov    -0x54(%ebp),%edx
    2580:	89 c3                	mov    %eax,%ebx
    2582:	8d 45 c4             	lea    -0x3c(%ebp),%eax
    2585:	89 44 24 18          	mov    %eax,0x18(%esp)
    2589:	8b 45 b0             	mov    -0x50(%ebp),%eax
    258c:	89 54 24 08          	mov    %edx,0x8(%esp)
    2590:	c7 44 24 14 00 00 00 	movl   $0x0,0x14(%esp)
    2597:	00 
    2598:	c7 44 24 10 00 00 00 	movl   $0x0,0x10(%esp)
    259f:	00 
    25a0:	c7 44 24 0c 00 00 00 	movl   $0x0,0xc(%esp)
    25a7:	00 
    25a8:	89 44 24 04          	mov    %eax,0x4(%esp)
    25ac:	89 1c 24             	mov    %ebx,(%esp)
    25af:	e8 0c 0c 01 00       	call   131c0 <async_send_fast>
    25b4:	89 7c 24 08          	mov    %edi,0x8(%esp)
    25b8:	89 74 24 04          	mov    %esi,0x4(%esp)
    25bc:	89 1c 24             	mov    %ebx,(%esp)
    25bf:	89 45 b4             	mov    %eax,-0x4c(%ebp)
    25c2:	e8 29 2c 01 00       	call   151f0 <async_data_read_start>
    25c7:	89 1c 24             	mov    %ebx,(%esp)
    25ca:	89 45 a4             	mov    %eax,-0x5c(%ebp)
    25cd:	e8 be 25 01 00       	call   14b90 <async_exchange_end>
    25d2:	8b 45 a4             	mov    -0x5c(%ebp),%eax
    25d5:	85 c0                	test   %eax,%eax
    25d7:	0f 85 1b 01 00 00    	jne    26f8 <loc_get_ids_internal+0x328>
    25dd:	8d 55 c0             	lea    -0x40(%ebp),%edx
    25e0:	89 45 a4             	mov    %eax,-0x5c(%ebp)
    25e3:	89 54 24 04          	mov    %edx,0x4(%esp)
    25e7:	8b 55 b4             	mov    -0x4c(%ebp),%edx
    25ea:	89 14 24             	mov    %edx,(%esp)
    25ed:	e8 9e 0d 01 00       	call   13390 <async_wait_for>
    25f2:	8b 55 c0             	mov    -0x40(%ebp),%edx
    25f5:	85 d2                	test   %edx,%edx
    25f7:	8b 45 a4             	mov    -0x5c(%ebp),%eax
    25fa:	75 74                	jne    2670 <loc_get_ids_internal+0x2a0>
    25fc:	8b 5d c8             	mov    -0x38(%ebp),%ebx
    25ff:	39 df                	cmp    %ebx,%edi
    2601:	0f 83 4b 01 00 00    	jae    2752 <loc_get_ids_internal+0x382>
    2607:	89 34 24             	mov    %esi,(%esp)
    260a:	89 5c 24 04          	mov    %ebx,0x4(%esp)
    260e:	e8 2d f0 00 00       	call   11640 <realloc>
    2613:	89 df                	mov    %ebx,%edi
    2615:	89 c6                	mov    %eax,%esi
    2617:	85 c0                	test   %eax,%eax
    2619:	0f 84 16 01 00 00    	je     2735 <loc_get_ids_internal+0x365>
    261f:	c7 04 24 9c 0a 02 00 	movl   $0x20a9c,(%esp)
    2626:	e8 a5 5e 00 00       	call   84d0 <fibril_mutex_lock>
    262b:	a1 30 0d 02 00       	mov    0x20d30,%eax
    2630:	85 c0                	test   %eax,%eax
    2632:	0f 85 01 ff ff ff    	jne    2539 <loc_get_ids_internal+0x169>
    2638:	c7 04 24 ac 0a 02 00 	movl   $0x20aac,(%esp)
    263f:	8b 1d 2c 0d 02 00    	mov    0x20d2c,%ebx
    2645:	e8 86 5e 00 00       	call   84d0 <fibril_mutex_lock>
    264a:	a1 30 0d 02 00       	mov    0x20d30,%eax
    264f:	85 c0                	test   %eax,%eax
    2651:	0f 85 c9 fe ff ff    	jne    2520 <loc_get_ids_internal+0x150>
    2657:	85 db                	test   %ebx,%ebx
    2659:	0f 84 c1 fe ff ff    	je     2520 <loc_get_ids_internal+0x150>
    265f:	89 1d 30 0d 02 00    	mov    %ebx,0x20d30
    2665:	e9 b6 fe ff ff       	jmp    2520 <loc_get_ids_internal+0x150>
    266a:	8d b6 00 00 00 00    	lea    0x0(%esi),%esi
    2670:	89 d0                	mov    %edx,%eax
    2672:	89 c7                	mov    %eax,%edi
    2674:	83 c4 7c             	add    $0x7c,%esp
    2677:	89 f8                	mov    %edi,%eax
    2679:	5b                   	pop    %ebx
    267a:	5e                   	pop    %esi
    267b:	5f                   	pop    %edi
    267c:	5d                   	pop    %ebp
    267d:	c3                   	ret    
    267e:	66 90                	xchg   %ax,%ax
    2680:	85 db                	test   %ebx,%ebx
    2682:	0f 84 9e fd ff ff    	je     2426 <loc_get_ids_internal+0x56>
    2688:	89 1d 30 0d 02 00    	mov    %ebx,0x20d30
    268e:	e9 93 fd ff ff       	jmp    2426 <loc_get_ids_internal+0x56>
    2693:	90                   	nop
    2694:	8d 74 26 00          	lea    0x0(%esi,%eiz,1),%esi
    2698:	c7 44 24 0c 00 00 00 	movl   $0x0,0xc(%esp)
    269f:	00 
    26a0:	c7 44 24 08 02 00 00 	movl   $0x2,0x8(%esp)
    26a7:	00 
    26a8:	c7 44 24 04 6c 6f 63 	movl   $0x20636f6c,0x4(%esp)
    26af:	20 
    26b0:	c7 04 24 02 00 00 00 	movl   $0x2,(%esp)
    26b7:	e8 b4 f4 00 00       	call   11b70 <service_connect_blocking>
    26bc:	a3 30 0d 02 00       	mov    %eax,0x20d30
    26c1:	e9 3c fd ff ff       	jmp    2402 <loc_get_ids_internal+0x32>
    26c6:	66 90                	xchg   %ax,%ax
    26c8:	c7 44 24 0c 00 00 00 	movl   $0x0,0xc(%esp)
    26cf:	00 
    26d0:	c7 44 24 08 02 00 00 	movl   $0x2,0x8(%esp)
    26d7:	00 
    26d8:	c7 44 24 04 6c 6f 63 	movl   $0x20636f6c,0x4(%esp)
    26df:	20 
    26e0:	c7 04 24 02 00 00 00 	movl   $0x2,(%esp)
    26e7:	e8 84 f4 00 00       	call   11b70 <service_connect_blocking>
    26ec:	a3 30 0d 02 00       	mov    %eax,0x20d30
    26f1:	e9 3a ff ff ff       	jmp    2630 <loc_get_ids_internal+0x260>
    26f6:	66 90                	xchg   %ax,%ax
    26f8:	89 c7                	mov    %eax,%edi
    26fa:	8b 45 b4             	mov    -0x4c(%ebp),%eax
    26fd:	89 04 24             	mov    %eax,(%esp)
    2700:	e8 db 0e 01 00       	call   135e0 <async_forget>
    2705:	83 c4 7c             	add    $0x7c,%esp
    2708:	89 f8                	mov    %edi,%eax
    270a:	5b                   	pop    %ebx
    270b:	5e                   	pop    %esi
    270c:	5f                   	pop    %edi
    270d:	5d                   	pop    %ebp
    270e:	c3                   	ret    
    270f:	90                   	nop
    2710:	85 db                	test   %ebx,%ebx
    2712:	0f 84 4c fe ff ff    	je     2564 <loc_get_ids_internal+0x194>
    2718:	89 1d 2c 0d 02 00    	mov    %ebx,0x20d2c
    271e:	e9 41 fe ff ff       	jmp    2564 <loc_get_ids_internal+0x194>
    2723:	89 1c 24             	mov    %ebx,(%esp)
    2726:	e8 b5 0e 01 00       	call   135e0 <async_forget>
    272b:	83 c4 7c             	add    $0x7c,%esp
    272e:	89 f8                	mov    %edi,%eax
    2730:	5b                   	pop    %ebx
    2731:	5e                   	pop    %esi
    2732:	5f                   	pop    %edi
    2733:	5d                   	pop    %ebp
    2734:	c3                   	ret    
    2735:	bf fe ff ff ff       	mov    $0xfffffffe,%edi
    273a:	e9 35 ff ff ff       	jmp    2674 <loc_get_ids_internal+0x2a4>
    273f:	85 db                	test   %ebx,%ebx
    2741:	0f 84 23 fd ff ff    	je     246a <loc_get_ids_internal+0x9a>
    2747:	89 1d 2c 0d 02 00    	mov    %ebx,0x20d2c
    274d:	e9 18 fd ff ff       	jmp    246a <loc_get_ids_internal+0x9a>
    2752:	89 c7                	mov    %eax,%edi
    2754:	8b 55 08             	mov    0x8(%ebp),%edx
    2757:	c1 eb 02             	shr    $0x2,%ebx
    275a:	8b 45 a8             	mov    -0x58(%ebp),%eax
    275d:	89 1a                	mov    %ebx,(%edx)
    275f:	89 30                	mov    %esi,(%eax)
    2761:	e9 0e ff ff ff       	jmp    2674 <loc_get_ids_internal+0x2a4>
    2766:	8d 76 00             	lea    0x0(%esi),%esi
    2769:	8d bc 27 00 00 00 00 	lea    0x0(%edi,%eiz,1),%edi

00002770 <loc_exchange_begin_blocking>:
    2770:	55                   	push   %ebp
    2771:	89 e5                	mov    %esp,%ebp
    2773:	53                   	push   %ebx
    2774:	83 ec 14             	sub    $0x14,%esp
    2777:	8b 45 08             	mov    0x8(%ebp),%eax
    277a:	83 f8 01             	cmp    $0x1,%eax
    277d:	74 11                	je     2790 <loc_exchange_begin_blocking+0x20>
    277f:	83 f8 02             	cmp    $0x2,%eax
    2782:	0f 84 b0 00 00 00    	je     2838 <loc_exchange_begin_blocking+0xc8>
    2788:	83 c4 14             	add    $0x14,%esp
    278b:	31 c0                	xor    %eax,%eax
    278d:	5b                   	pop    %ebx
    278e:	5d                   	pop    %ebp
    278f:	c3                   	ret    
    2790:	c7 04 24 7c 0a 02 00 	movl   $0x20a7c,(%esp)
    2797:	e8 34 5d 00 00       	call   84d0 <fibril_mutex_lock>
    279c:	a1 28 0d 02 00       	mov    0x20d28,%eax
    27a1:	85 c0                	test   %eax,%eax
    27a3:	75 34                	jne    27d9 <loc_exchange_begin_blocking+0x69>
    27a5:	c7 04 24 8c 0a 02 00 	movl   $0x20a8c,(%esp)
    27ac:	8b 1d 24 0d 02 00    	mov    0x20d24,%ebx
    27b2:	e8 19 5d 00 00       	call   84d0 <fibril_mutex_lock>
    27b7:	a1 28 0d 02 00       	mov    0x20d28,%eax
    27bc:	85 c0                	test   %eax,%eax
    27be:	74 68                	je     2828 <loc_exchange_begin_blocking+0xb8>
    27c0:	c7 04 24 8c 0a 02 00 	movl   $0x20a8c,(%esp)
    27c7:	e8 24 5e 00 00       	call   85f0 <fibril_mutex_unlock>
    27cc:	a1 28 0d 02 00       	mov    0x20d28,%eax
    27d1:	85 c0                	test   %eax,%eax
    27d3:	0f 84 07 01 00 00    	je     28e0 <loc_exchange_begin_blocking+0x170>
    27d9:	c7 04 24 7c 0a 02 00 	movl   $0x20a7c,(%esp)
    27e0:	e8 0b 5e 00 00       	call   85f0 <fibril_mutex_unlock>
    27e5:	c7 04 24 8c 0a 02 00 	movl   $0x20a8c,(%esp)
    27ec:	8b 1d 28 0d 02 00    	mov    0x20d28,%ebx
    27f2:	e8 d9 5c 00 00       	call   84d0 <fibril_mutex_lock>
    27f7:	a1 24 0d 02 00       	mov    0x20d24,%eax
    27fc:	85 c0                	test   %eax,%eax
    27fe:	0f 84 3c 01 00 00    	je     2940 <loc_exchange_begin_blocking+0x1d0>
    2804:	c7 04 24 8c 0a 02 00 	movl   $0x20a8c,(%esp)
    280b:	e8 e0 5d 00 00       	call   85f0 <fibril_mutex_unlock>
    2810:	a1 28 0d 02 00       	mov    0x20d28,%eax
    2815:	89 45 08             	mov    %eax,0x8(%ebp)
    2818:	83 c4 14             	add    $0x14,%esp
    281b:	5b                   	pop    %ebx
    281c:	5d                   	pop    %ebp
    281d:	e9 fe 1f 01 00       	jmp    14820 <async_exchange_begin>
    2822:	8d b6 00 00 00 00    	lea    0x0(%esi),%esi
    2828:	85 db                	test   %ebx,%ebx
    282a:	74 94                	je     27c0 <loc_exchange_begin_blocking+0x50>
    282c:	89 1d 28 0d 02 00    	mov    %ebx,0x20d28
    2832:	eb 8c                	jmp    27c0 <loc_exchange_begin_blocking+0x50>
    2834:	8d 74 26 00          	lea    0x0(%esi,%eiz,1),%esi
    2838:	c7 04 24 9c 0a 02 00 	movl   $0x20a9c,(%esp)
    283f:	e8 8c 5c 00 00       	call   84d0 <fibril_mutex_lock>
    2844:	a1 30 0d 02 00       	mov    0x20d30,%eax
    2849:	85 c0                	test   %eax,%eax
    284b:	75 35                	jne    2882 <loc_exchange_begin_blocking+0x112>
    284d:	c7 04 24 ac 0a 02 00 	movl   $0x20aac,(%esp)
    2854:	8b 1d 2c 0d 02 00    	mov    0x20d2c,%ebx
    285a:	e8 71 5c 00 00       	call   84d0 <fibril_mutex_lock>
    285f:	a1 30 0d 02 00       	mov    0x20d30,%eax
    2864:	85 c0                	test   %eax,%eax
    2866:	74 68                	je     28d0 <loc_exchange_begin_blocking+0x160>
    2868:	c7 04 24 ac 0a 02 00 	movl   $0x20aac,(%esp)
    286f:	e8 7c 5d 00 00       	call   85f0 <fibril_mutex_unlock>
    2874:	8b 1d 30 0d 02 00    	mov    0x20d30,%ebx
    287a:	85 db                	test   %ebx,%ebx
    287c:	0f 84 8e 00 00 00    	je     2910 <loc_exchange_begin_blocking+0x1a0>
    2882:	c7 04 24 9c 0a 02 00 	movl   $0x20a9c,(%esp)
    2889:	e8 62 5d 00 00       	call   85f0 <fibril_mutex_unlock>
    288e:	c7 04 24 ac 0a 02 00 	movl   $0x20aac,(%esp)
    2895:	8b 1d 30 0d 02 00    	mov    0x20d30,%ebx
    289b:	e8 30 5c 00 00       	call   84d0 <fibril_mutex_lock>
    28a0:	8b 0d 2c 0d 02 00    	mov    0x20d2c,%ecx
    28a6:	85 c9                	test   %ecx,%ecx
    28a8:	0f 84 aa 00 00 00    	je     2958 <loc_exchange_begin_blocking+0x1e8>
    28ae:	c7 04 24 ac 0a 02 00 	movl   $0x20aac,(%esp)
    28b5:	e8 36 5d 00 00       	call   85f0 <fibril_mutex_unlock>
    28ba:	a1 30 0d 02 00       	mov    0x20d30,%eax
    28bf:	89 45 08             	mov    %eax,0x8(%ebp)
    28c2:	83 c4 14             	add    $0x14,%esp
    28c5:	5b                   	pop    %ebx
    28c6:	5d                   	pop    %ebp
    28c7:	e9 54 1f 01 00       	jmp    14820 <async_exchange_begin>
    28cc:	8d 74 26 00          	lea    0x0(%esi,%eiz,1),%esi
    28d0:	85 db                	test   %ebx,%ebx
    28d2:	74 94                	je     2868 <loc_exchange_begin_blocking+0xf8>
    28d4:	89 1d 30 0d 02 00    	mov    %ebx,0x20d30
    28da:	eb 8c                	jmp    2868 <loc_exchange_begin_blocking+0xf8>
    28dc:	8d 74 26 00          	lea    0x0(%esi,%eiz,1),%esi
    28e0:	c7 44 24 0c 00 00 00 	movl   $0x0,0xc(%esp)
    28e7:	00 
    28e8:	c7 44 24 08 01 00 00 	movl   $0x1,0x8(%esp)
    28ef:	00 
    28f0:	c7 44 24 04 6c 6f 63 	movl   $0x20636f6c,0x4(%esp)
    28f7:	20 
    28f8:	c7 04 24 02 00 00 00 	movl   $0x2,(%esp)
    28ff:	e8 6c f2 00 00       	call   11b70 <service_connect_blocking>
    2904:	a3 28 0d 02 00       	mov    %eax,0x20d28
    2909:	e9 93 fe ff ff       	jmp    27a1 <loc_exchange_begin_blocking+0x31>
    290e:	66 90                	xchg   %ax,%ax
    2910:	c7 44 24 0c 00 00 00 	movl   $0x0,0xc(%esp)
    2917:	00 
    2918:	c7 44 24 08 02 00 00 	movl   $0x2,0x8(%esp)
    291f:	00 
    2920:	c7 44 24 04 6c 6f 63 	movl   $0x20636f6c,0x4(%esp)
    2927:	20 
    2928:	c7 04 24 02 00 00 00 	movl   $0x2,(%esp)
    292f:	e8 3c f2 00 00       	call   11b70 <service_connect_blocking>
    2934:	a3 30 0d 02 00       	mov    %eax,0x20d30
    2939:	e9 0b ff ff ff       	jmp    2849 <loc_exchange_begin_blocking+0xd9>
    293e:	66 90                	xchg   %ax,%ax
    2940:	85 db                	test   %ebx,%ebx
    2942:	0f 84 bc fe ff ff    	je     2804 <loc_exchange_begin_blocking+0x94>
    2948:	89 1d 24 0d 02 00    	mov    %ebx,0x20d24
    294e:	e9 b1 fe ff ff       	jmp    2804 <loc_exchange_begin_blocking+0x94>
    2953:	90                   	nop
    2954:	8d 74 26 00          	lea    0x0(%esi,%eiz,1),%esi
    2958:	85 db                	test   %ebx,%ebx
    295a:	0f 84 4e ff ff ff    	je     28ae <loc_exchange_begin_blocking+0x13e>
    2960:	89 1d 2c 0d 02 00    	mov    %ebx,0x20d2c
    2966:	e9 43 ff ff ff       	jmp    28ae <loc_exchange_begin_blocking+0x13e>
    296b:	90                   	nop
    296c:	8d 74 26 00          	lea    0x0(%esi,%eiz,1),%esi

00002970 <loc_exchange_begin>:
    2970:	55                   	push   %ebp
    2971:	89 e5                	mov    %esp,%ebp
    2973:	83 ec 18             	sub    $0x18,%esp
    2976:	8b 45 08             	mov    0x8(%ebp),%eax
    2979:	83 f8 01             	cmp    $0x1,%eax
    297c:	74 0a                	je     2988 <loc_exchange_begin+0x18>
    297e:	83 f8 02             	cmp    $0x2,%eax
    2981:	74 3d                	je     29c0 <loc_exchange_begin+0x50>
    2983:	31 c0                	xor    %eax,%eax
    2985:	c9                   	leave  
    2986:	c3                   	ret    
    2987:	90                   	nop
    2988:	c7 04 24 8c 0a 02 00 	movl   $0x20a8c,(%esp)
    298f:	e8 3c 5b 00 00       	call   84d0 <fibril_mutex_lock>
    2994:	a1 24 0d 02 00       	mov    0x20d24,%eax
    2999:	85 c0                	test   %eax,%eax
    299b:	74 5b                	je     29f8 <loc_exchange_begin+0x88>
    299d:	c7 04 24 8c 0a 02 00 	movl   $0x20a8c,(%esp)
    29a4:	e8 47 5c 00 00       	call   85f0 <fibril_mutex_unlock>
    29a9:	a1 24 0d 02 00       	mov    0x20d24,%eax
    29ae:	85 c0                	test   %eax,%eax
    29b0:	74 d1                	je     2983 <loc_exchange_begin+0x13>
    29b2:	89 45 08             	mov    %eax,0x8(%ebp)
    29b5:	c9                   	leave  
    29b6:	e9 65 1e 01 00       	jmp    14820 <async_exchange_begin>
    29bb:	90                   	nop
    29bc:	8d 74 26 00          	lea    0x0(%esi,%eiz,1),%esi
    29c0:	c7 04 24 ac 0a 02 00 	movl   $0x20aac,(%esp)
    29c7:	e8 04 5b 00 00       	call   84d0 <fibril_mutex_lock>
    29cc:	a1 2c 0d 02 00       	mov    0x20d2c,%eax
    29d1:	85 c0                	test   %eax,%eax
    29d3:	74 53                	je     2a28 <loc_exchange_begin+0xb8>
    29d5:	c7 04 24 ac 0a 02 00 	movl   $0x20aac,(%esp)
    29dc:	e8 0f 5c 00 00       	call   85f0 <fibril_mutex_unlock>
    29e1:	a1 2c 0d 02 00       	mov    0x20d2c,%eax
    29e6:	85 c0                	test   %eax,%eax
    29e8:	74 99                	je     2983 <loc_exchange_begin+0x13>
    29ea:	89 45 08             	mov    %eax,0x8(%ebp)
    29ed:	c9                   	leave  
    29ee:	e9 2d 1e 01 00       	jmp    14820 <async_exchange_begin>
    29f3:	90                   	nop
    29f4:	8d 74 26 00          	lea    0x0(%esi,%eiz,1),%esi
    29f8:	c7 44 24 0c 00 00 00 	movl   $0x0,0xc(%esp)
    29ff:	00 
    2a00:	c7 44 24 08 01 00 00 	movl   $0x1,0x8(%esp)
    2a07:	00 
    2a08:	c7 44 24 04 6c 6f 63 	movl   $0x20636f6c,0x4(%esp)
    2a0f:	20 
    2a10:	c7 04 24 02 00 00 00 	movl   $0x2,(%esp)
    2a17:	e8 d4 f0 00 00       	call   11af0 <service_connect>
    2a1c:	a3 24 0d 02 00       	mov    %eax,0x20d24
    2a21:	e9 77 ff ff ff       	jmp    299d <loc_exchange_begin+0x2d>
    2a26:	66 90                	xchg   %ax,%ax
    2a28:	c7 44 24 0c 00 00 00 	movl   $0x0,0xc(%esp)
    2a2f:	00 
    2a30:	c7 44 24 08 02 00 00 	movl   $0x2,0x8(%esp)
    2a37:	00 
    2a38:	c7 44 24 04 6c 6f 63 	movl   $0x20636f6c,0x4(%esp)
    2a3f:	20 
    2a40:	c7 04 24 02 00 00 00 	movl   $0x2,(%esp)
    2a47:	e8 a4 f0 00 00       	call   11af0 <service_connect>
    2a4c:	a3 2c 0d 02 00       	mov    %eax,0x20d2c
    2a51:	eb 82                	jmp    29d5 <loc_exchange_begin+0x65>
    2a53:	8d b6 00 00 00 00    	lea    0x0(%esi),%esi
    2a59:	8d bc 27 00 00 00 00 	lea    0x0(%edi,%eiz,1),%edi

00002a60 <loc_exchange_end>:
    2a60:	55                   	push   %ebp
    2a61:	89 e5                	mov    %esp,%ebp
    2a63:	5d                   	pop    %ebp
    2a64:	e9 27 21 01 00       	jmp    14b90 <async_exchange_end>
    2a69:	8d b4 26 00 00 00 00 	lea    0x0(%esi,%eiz,1),%esi

00002a70 <loc_server_register>:
    2a70:	55                   	push   %ebp
    2a71:	89 e5                	mov    %esp,%ebp
    2a73:	57                   	push   %edi
    2a74:	56                   	push   %esi
    2a75:	53                   	push   %ebx
    2a76:	83 ec 5c             	sub    $0x5c,%esp
    2a79:	8b 75 08             	mov    0x8(%ebp),%esi
    2a7c:	c7 04 24 7c 0a 02 00 	movl   $0x20a7c,(%esp)
    2a83:	e8 48 5a 00 00       	call   84d0 <fibril_mutex_lock>
    2a88:	a1 28 0d 02 00       	mov    0x20d28,%eax
    2a8d:	85 c0                	test   %eax,%eax
    2a8f:	75 38                	jne    2ac9 <loc_server_register+0x59>
    2a91:	c7 04 24 8c 0a 02 00 	movl   $0x20a8c,(%esp)
    2a98:	8b 1d 24 0d 02 00    	mov    0x20d24,%ebx
    2a9e:	e8 2d 5a 00 00       	call   84d0 <fibril_mutex_lock>
    2aa3:	a1 28 0d 02 00       	mov    0x20d28,%eax
    2aa8:	85 c0                	test   %eax,%eax
    2aaa:	0f 84 58 01 00 00    	je     2c08 <loc_server_register+0x198>
    2ab0:	c7 04 24 8c 0a 02 00 	movl   $0x20a8c,(%esp)
    2ab7:	e8 34 5b 00 00       	call   85f0 <fibril_mutex_unlock>
    2abc:	a1 28 0d 02 00       	mov    0x20d28,%eax
    2ac1:	85 c0                	test   %eax,%eax
    2ac3:	0f 84 57 01 00 00    	je     2c20 <loc_server_register+0x1b0>
    2ac9:	c7 04 24 7c 0a 02 00 	movl   $0x20a7c,(%esp)
    2ad0:	e8 1b 5b 00 00       	call   85f0 <fibril_mutex_unlock>
    2ad5:	c7 04 24 8c 0a 02 00 	movl   $0x20a8c,(%esp)
    2adc:	8b 1d 28 0d 02 00    	mov    0x20d28,%ebx
    2ae2:	e8 e9 59 00 00       	call   84d0 <fibril_mutex_lock>
    2ae7:	8b 3d 24 0d 02 00    	mov    0x20d24,%edi
    2aed:	85 ff                	test   %edi,%edi
    2aef:	0f 84 73 01 00 00    	je     2c68 <loc_server_register+0x1f8>
    2af5:	c7 04 24 8c 0a 02 00 	movl   $0x20a8c,(%esp)
    2afc:	e8 ef 5a 00 00       	call   85f0 <fibril_mutex_unlock>
    2b01:	a1 28 0d 02 00       	mov    0x20d28,%eax
    2b06:	89 04 24             	mov    %eax,(%esp)
    2b09:	e8 12 1d 01 00       	call   14820 <async_exchange_begin>
    2b0e:	c7 44 24 14 00 00 00 	movl   $0x0,0x14(%esp)
    2b15:	00 
    2b16:	89 c3                	mov    %eax,%ebx
    2b18:	8d 45 c4             	lea    -0x3c(%ebp),%eax
    2b1b:	89 44 24 18          	mov    %eax,0x18(%esp)
    2b1f:	c7 44 24 10 00 00 00 	movl   $0x0,0x10(%esp)
    2b26:	00 
    2b27:	c7 44 24 0c 00 00 00 	movl   $0x0,0xc(%esp)
    2b2e:	00 
    2b2f:	c7 44 24 08 00 00 00 	movl   $0x0,0x8(%esp)
    2b36:	00 
    2b37:	c7 44 24 04 00 04 00 	movl   $0x400,0x4(%esp)
    2b3e:	00 
    2b3f:	89 1c 24             	mov    %ebx,(%esp)
    2b42:	e8 79 06 01 00       	call   131c0 <async_send_fast>
    2b47:	89 34 24             	mov    %esi,(%esp)
    2b4a:	89 c7                	mov    %eax,%edi
    2b4c:	e8 5f 27 00 00       	call   52b0 <str_size>
    2b51:	89 74 24 04          	mov    %esi,0x4(%esp)
    2b55:	89 44 24 08          	mov    %eax,0x8(%esp)
    2b59:	89 1c 24             	mov    %ebx,(%esp)
    2b5c:	e8 af 2b 01 00       	call   15710 <async_data_write_start>
    2b61:	89 1c 24             	mov    %ebx,(%esp)
    2b64:	89 45 c0             	mov    %eax,-0x40(%ebp)
    2b67:	e8 24 20 01 00       	call   14b90 <async_exchange_end>
    2b6c:	8b 4d c0             	mov    -0x40(%ebp),%ecx
    2b6f:	85 c9                	test   %ecx,%ecx
    2b71:	0f 85 d9 00 00 00    	jne    2c50 <loc_server_register+0x1e0>
    2b77:	c7 04 24 8c 0a 02 00 	movl   $0x20a8c,(%esp)
    2b7e:	e8 4d 59 00 00       	call   84d0 <fibril_mutex_lock>
    2b83:	8b 15 24 0d 02 00    	mov    0x20d24,%edx
    2b89:	85 d2                	test   %edx,%edx
    2b8b:	0f 84 ea 00 00 00    	je     2c7b <loc_server_register+0x20b>
    2b91:	c7 04 24 8c 0a 02 00 	movl   $0x20a8c,(%esp)
    2b98:	e8 53 5a 00 00       	call   85f0 <fibril_mutex_unlock>
    2b9d:	a1 24 0d 02 00       	mov    0x20d24,%eax
    2ba2:	85 c0                	test   %eax,%eax
    2ba4:	0f 84 ff 00 00 00    	je     2ca9 <loc_server_register+0x239>
    2baa:	89 04 24             	mov    %eax,(%esp)
    2bad:	e8 6e 1c 01 00       	call   14820 <async_exchange_begin>
    2bb2:	89 c3                	mov    %eax,%ebx
    2bb4:	89 1c 24             	mov    %ebx,(%esp)
    2bb7:	c7 44 24 14 00 00 00 	movl   $0x0,0x14(%esp)
    2bbe:	00 
    2bbf:	c7 44 24 10 00 00 00 	movl   $0x0,0x10(%esp)
    2bc6:	00 
    2bc7:	c7 44 24 0c 00 00 00 	movl   $0x0,0xc(%esp)
    2bce:	00 
    2bcf:	c7 44 24 08 00 00 00 	movl   $0x0,0x8(%esp)
    2bd6:	00 
    2bd7:	c7 44 24 04 00 00 00 	movl   $0x0,0x4(%esp)
    2bde:	00 
    2bdf:	e8 dc 13 01 00       	call   13fc0 <async_connect_to_me>
    2be4:	89 1c 24             	mov    %ebx,(%esp)
    2be7:	e8 a4 1f 01 00       	call   14b90 <async_exchange_end>
    2bec:	8d 45 c0             	lea    -0x40(%ebp),%eax
    2bef:	89 44 24 04          	mov    %eax,0x4(%esp)
    2bf3:	89 3c 24             	mov    %edi,(%esp)
    2bf6:	e8 95 07 01 00       	call   13390 <async_wait_for>
    2bfb:	8b 45 c0             	mov    -0x40(%ebp),%eax
    2bfe:	83 c4 5c             	add    $0x5c,%esp
    2c01:	5b                   	pop    %ebx
    2c02:	5e                   	pop    %esi
    2c03:	5f                   	pop    %edi
    2c04:	5d                   	pop    %ebp
    2c05:	c3                   	ret    
    2c06:	66 90                	xchg   %ax,%ax
    2c08:	85 db                	test   %ebx,%ebx
    2c0a:	0f 84 a0 fe ff ff    	je     2ab0 <loc_server_register+0x40>
    2c10:	89 1d 28 0d 02 00    	mov    %ebx,0x20d28
    2c16:	e9 95 fe ff ff       	jmp    2ab0 <loc_server_register+0x40>
    2c1b:	90                   	nop
    2c1c:	8d 74 26 00          	lea    0x0(%esi,%eiz,1),%esi
    2c20:	c7 44 24 0c 00 00 00 	movl   $0x0,0xc(%esp)
    2c27:	00 
    2c28:	c7 44 24 08 01 00 00 	movl   $0x1,0x8(%esp)
    2c2f:	00 
    2c30:	c7 44 24 04 6c 6f 63 	movl   $0x20636f6c,0x4(%esp)
    2c37:	20 
    2c38:	c7 04 24 02 00 00 00 	movl   $0x2,(%esp)
    2c3f:	e8 2c ef 00 00       	call   11b70 <service_connect_blocking>
    2c44:	a3 28 0d 02 00       	mov    %eax,0x20d28
    2c49:	e9 3f fe ff ff       	jmp    2a8d <loc_server_register+0x1d>
    2c4e:	66 90                	xchg   %ax,%ax
    2c50:	89 3c 24             	mov    %edi,(%esp)
    2c53:	e8 88 09 01 00       	call   135e0 <async_forget>
    2c58:	8b 45 c0             	mov    -0x40(%ebp),%eax
    2c5b:	83 c4 5c             	add    $0x5c,%esp
    2c5e:	5b                   	pop    %ebx
    2c5f:	5e                   	pop    %esi
    2c60:	5f                   	pop    %edi
    2c61:	5d                   	pop    %ebp
    2c62:	c3                   	ret    
    2c63:	90                   	nop
    2c64:	8d 74 26 00          	lea    0x0(%esi,%eiz,1),%esi
    2c68:	85 db                	test   %ebx,%ebx
    2c6a:	0f 84 85 fe ff ff    	je     2af5 <loc_server_register+0x85>
    2c70:	89 1d 24 0d 02 00    	mov    %ebx,0x20d24
    2c76:	e9 7a fe ff ff       	jmp    2af5 <loc_server_register+0x85>
    2c7b:	c7 44 24 0c 00 00 00 	movl   $0x0,0xc(%esp)
    2c82:	00 
    2c83:	c7 44 24 08 01 00 00 	movl   $0x1,0x8(%esp)
    2c8a:	00 
    2c8b:	c7 44 24 04 6c 6f 63 	movl   $0x20636f6c,0x4(%esp)
    2c92:	20 
    2c93:	c7 04 24 02 00 00 00 	movl   $0x2,(%esp)
    2c9a:	e8 51 ee 00 00       	call   11af0 <service_connect>
    2c9f:	a3 24 0d 02 00       	mov    %eax,0x20d24
    2ca4:	e9 e8 fe ff ff       	jmp    2b91 <loc_server_register+0x121>
    2ca9:	31 db                	xor    %ebx,%ebx
    2cab:	e9 04 ff ff ff       	jmp    2bb4 <loc_server_register+0x144>

00002cb0 <loc_service_register_with_iface>:
    2cb0:	55                   	push   %ebp
    2cb1:	89 e5                	mov    %esp,%ebp
    2cb3:	57                   	push   %edi
    2cb4:	56                   	push   %esi
    2cb5:	53                   	push   %ebx
    2cb6:	83 ec 5c             	sub    $0x5c,%esp
    2cb9:	8b 75 08             	mov    0x8(%ebp),%esi
    2cbc:	c7 04 24 7c 0a 02 00 	movl   $0x20a7c,(%esp)
    2cc3:	e8 08 58 00 00       	call   84d0 <fibril_mutex_lock>
    2cc8:	a1 28 0d 02 00       	mov    0x20d28,%eax
    2ccd:	85 c0                	test   %eax,%eax
    2ccf:	75 38                	jne    2d09 <loc_service_register_with_iface+0x59>
    2cd1:	c7 04 24 8c 0a 02 00 	movl   $0x20a8c,(%esp)
    2cd8:	8b 1d 24 0d 02 00    	mov    0x20d24,%ebx
    2cde:	e8 ed 57 00 00       	call   84d0 <fibril_mutex_lock>
    2ce3:	a1 28 0d 02 00       	mov    0x20d28,%eax
    2ce8:	85 c0                	test   %eax,%eax
    2cea:	0f 84 f8 00 00 00    	je     2de8 <loc_service_register_with_iface+0x138>
    2cf0:	c7 04 24 8c 0a 02 00 	movl   $0x20a8c,(%esp)
    2cf7:	e8 f4 58 00 00       	call   85f0 <fibril_mutex_unlock>
    2cfc:	a1 28 0d 02 00       	mov    0x20d28,%eax
    2d01:	85 c0                	test   %eax,%eax
    2d03:	0f 84 f7 00 00 00    	je     2e00 <loc_service_register_with_iface+0x150>
    2d09:	c7 04 24 7c 0a 02 00 	movl   $0x20a7c,(%esp)
    2d10:	e8 db 58 00 00       	call   85f0 <fibril_mutex_unlock>
    2d15:	c7 04 24 8c 0a 02 00 	movl   $0x20a8c,(%esp)
    2d1c:	8b 1d 28 0d 02 00    	mov    0x20d28,%ebx
    2d22:	e8 a9 57 00 00       	call   84d0 <fibril_mutex_lock>
    2d27:	8b 3d 24 0d 02 00    	mov    0x20d24,%edi
    2d2d:	85 ff                	test   %edi,%edi
    2d2f:	0f 84 33 01 00 00    	je     2e68 <loc_service_register_with_iface+0x1b8>
    2d35:	c7 04 24 8c 0a 02 00 	movl   $0x20a8c,(%esp)
    2d3c:	e8 af 58 00 00       	call   85f0 <fibril_mutex_unlock>
    2d41:	a1 28 0d 02 00       	mov    0x20d28,%eax
    2d46:	89 04 24             	mov    %eax,(%esp)
    2d49:	e8 d2 1a 01 00       	call   14820 <async_exchange_begin>
    2d4e:	c7 44 24 14 00 00 00 	movl   $0x0,0x14(%esp)
    2d55:	00 
    2d56:	89 c7                	mov    %eax,%edi
    2d58:	8d 45 c4             	lea    -0x3c(%ebp),%eax
    2d5b:	89 44 24 18          	mov    %eax,0x18(%esp)
    2d5f:	8b 45 10             	mov    0x10(%ebp),%eax
    2d62:	c7 44 24 10 00 00 00 	movl   $0x0,0x10(%esp)
    2d69:	00 
    2d6a:	c7 44 24 0c 00 00 00 	movl   $0x0,0xc(%esp)
    2d71:	00 
    2d72:	89 44 24 08          	mov    %eax,0x8(%esp)
    2d76:	c7 44 24 04 03 04 00 	movl   $0x403,0x4(%esp)
    2d7d:	00 
    2d7e:	89 3c 24             	mov    %edi,(%esp)
    2d81:	e8 3a 04 01 00       	call   131c0 <async_send_fast>
    2d86:	89 34 24             	mov    %esi,(%esp)
    2d89:	89 c3                	mov    %eax,%ebx
    2d8b:	e8 20 25 00 00       	call   52b0 <str_size>
    2d90:	89 74 24 04          	mov    %esi,0x4(%esp)
    2d94:	89 44 24 08          	mov    %eax,0x8(%esp)
    2d98:	89 3c 24             	mov    %edi,(%esp)
    2d9b:	e8 70 29 01 00       	call   15710 <async_data_write_start>
    2da0:	89 3c 24             	mov    %edi,(%esp)
    2da3:	89 45 c0             	mov    %eax,-0x40(%ebp)
    2da6:	e8 e5 1d 01 00       	call   14b90 <async_exchange_end>
    2dab:	8b 4d c0             	mov    -0x40(%ebp),%ecx
    2dae:	85 c9                	test   %ecx,%ecx
    2db0:	0f 85 9a 00 00 00    	jne    2e50 <loc_service_register_with_iface+0x1a0>
    2db6:	8d 45 c0             	lea    -0x40(%ebp),%eax
    2db9:	89 1c 24             	mov    %ebx,(%esp)
    2dbc:	89 44 24 04          	mov    %eax,0x4(%esp)
    2dc0:	e8 cb 05 01 00       	call   13390 <async_wait_for>
    2dc5:	8b 45 c0             	mov    -0x40(%ebp),%eax
    2dc8:	85 c0                	test   %eax,%eax
    2dca:	74 64                	je     2e30 <loc_service_register_with_iface+0x180>
    2dcc:	8b 55 0c             	mov    0xc(%ebp),%edx
    2dcf:	85 d2                	test   %edx,%edx
    2dd1:	74 09                	je     2ddc <loc_service_register_with_iface+0x12c>
    2dd3:	8b 55 0c             	mov    0xc(%ebp),%edx
    2dd6:	c7 02 ff ff ff ff    	movl   $0xffffffff,(%edx)
    2ddc:	83 c4 5c             	add    $0x5c,%esp
    2ddf:	5b                   	pop    %ebx
    2de0:	5e                   	pop    %esi
    2de1:	5f                   	pop    %edi
    2de2:	5d                   	pop    %ebp
    2de3:	c3                   	ret    
    2de4:	8d 74 26 00          	lea    0x0(%esi,%eiz,1),%esi
    2de8:	85 db                	test   %ebx,%ebx
    2dea:	0f 84 00 ff ff ff    	je     2cf0 <loc_service_register_with_iface+0x40>
    2df0:	89 1d 28 0d 02 00    	mov    %ebx,0x20d28
    2df6:	e9 f5 fe ff ff       	jmp    2cf0 <loc_service_register_with_iface+0x40>
    2dfb:	90                   	nop
    2dfc:	8d 74 26 00          	lea    0x0(%esi,%eiz,1),%esi
    2e00:	c7 44 24 0c 00 00 00 	movl   $0x0,0xc(%esp)
    2e07:	00 
    2e08:	c7 44 24 08 01 00 00 	movl   $0x1,0x8(%esp)
    2e0f:	00 
    2e10:	c7 44 24 04 6c 6f 63 	movl   $0x20636f6c,0x4(%esp)
    2e17:	20 
    2e18:	c7 04 24 02 00 00 00 	movl   $0x2,(%esp)
    2e1f:	e8 4c ed 00 00       	call   11b70 <service_connect_blocking>
    2e24:	a3 28 0d 02 00       	mov    %eax,0x20d28
    2e29:	e9 9f fe ff ff       	jmp    2ccd <loc_service_register_with_iface+0x1d>
    2e2e:	66 90                	xchg   %ax,%ax
    2e30:	8b 45 0c             	mov    0xc(%ebp),%eax
    2e33:	85 c0                	test   %eax,%eax
    2e35:	74 08                	je     2e3f <loc_service_register_with_iface+0x18f>
    2e37:	8b 55 0c             	mov    0xc(%ebp),%edx
    2e3a:	8b 45 c8             	mov    -0x38(%ebp),%eax
    2e3d:	89 02                	mov    %eax,(%edx)
    2e3f:	83 c4 5c             	add    $0x5c,%esp
    2e42:	31 c0                	xor    %eax,%eax
    2e44:	5b                   	pop    %ebx
    2e45:	5e                   	pop    %esi
    2e46:	5f                   	pop    %edi
    2e47:	5d                   	pop    %ebp
    2e48:	c3                   	ret    
    2e49:	8d b4 26 00 00 00 00 	lea    0x0(%esi,%eiz,1),%esi
    2e50:	89 1c 24             	mov    %ebx,(%esp)
    2e53:	e8 88 07 01 00       	call   135e0 <async_forget>
    2e58:	8b 45 c0             	mov    -0x40(%ebp),%eax
    2e5b:	83 c4 5c             	add    $0x5c,%esp
    2e5e:	5b                   	pop    %ebx
    2e5f:	5e                   	pop    %esi
    2e60:	5f                   	pop    %edi
    2e61:	5d                   	pop    %ebp
    2e62:	c3                   	ret    
    2e63:	90                   	nop
    2e64:	8d 74 26 00          	lea    0x0(%esi,%eiz,1),%esi
    2e68:	85 db                	test   %ebx,%ebx
    2e6a:	0f 84 c5 fe ff ff    	je     2d35 <loc_service_register_with_iface+0x85>
    2e70:	89 1d 24 0d 02 00    	mov    %ebx,0x20d24
    2e76:	e9 ba fe ff ff       	jmp    2d35 <loc_service_register_with_iface+0x85>
    2e7b:	90                   	nop
    2e7c:	8d 74 26 00          	lea    0x0(%esi,%eiz,1),%esi

00002e80 <loc_service_register>:
    2e80:	55                   	push   %ebp
    2e81:	89 e5                	mov    %esp,%ebp
    2e83:	57                   	push   %edi
    2e84:	56                   	push   %esi
    2e85:	53                   	push   %ebx
    2e86:	83 ec 5c             	sub    $0x5c,%esp
    2e89:	8b 75 08             	mov    0x8(%ebp),%esi
    2e8c:	c7 04 24 7c 0a 02 00 	movl   $0x20a7c,(%esp)
    2e93:	e8 38 56 00 00       	call   84d0 <fibril_mutex_lock>
    2e98:	a1 28 0d 02 00       	mov    0x20d28,%eax
    2e9d:	85 c0                	test   %eax,%eax
    2e9f:	75 38                	jne    2ed9 <loc_service_register+0x59>
    2ea1:	c7 04 24 8c 0a 02 00 	movl   $0x20a8c,(%esp)
    2ea8:	8b 1d 24 0d 02 00    	mov    0x20d24,%ebx
    2eae:	e8 1d 56 00 00       	call   84d0 <fibril_mutex_lock>
    2eb3:	a1 28 0d 02 00       	mov    0x20d28,%eax
    2eb8:	85 c0                	test   %eax,%eax
    2eba:	0f 84 f8 00 00 00    	je     2fb8 <loc_service_register+0x138>
    2ec0:	c7 04 24 8c 0a 02 00 	movl   $0x20a8c,(%esp)
    2ec7:	e8 24 57 00 00       	call   85f0 <fibril_mutex_unlock>
    2ecc:	a1 28 0d 02 00       	mov    0x20d28,%eax
    2ed1:	85 c0                	test   %eax,%eax
    2ed3:	0f 84 f7 00 00 00    	je     2fd0 <loc_service_register+0x150>
    2ed9:	c7 04 24 7c 0a 02 00 	movl   $0x20a7c,(%esp)
    2ee0:	e8 0b 57 00 00       	call   85f0 <fibril_mutex_unlock>
    2ee5:	c7 04 24 8c 0a 02 00 	movl   $0x20a8c,(%esp)
    2eec:	8b 1d 28 0d 02 00    	mov    0x20d28,%ebx
    2ef2:	e8 d9 55 00 00       	call   84d0 <fibril_mutex_lock>
    2ef7:	8b 3d 24 0d 02 00    	mov    0x20d24,%edi
    2efd:	85 ff                	test   %edi,%edi
    2eff:	0f 84 33 01 00 00    	je     3038 <loc_service_register+0x1b8>
    2f05:	c7 04 24 8c 0a 02 00 	movl   $0x20a8c,(%esp)
    2f0c:	e8 df 56 00 00       	call   85f0 <fibril_mutex_unlock>
    2f11:	a1 28 0d 02 00       	mov    0x20d28,%eax
    2f16:	89 04 24             	mov    %eax,(%esp)
    2f19:	e8 02 19 01 00       	call   14820 <async_exchange_begin>
    2f1e:	c7 44 24 14 00 00 00 	movl   $0x0,0x14(%esp)
    2f25:	00 
    2f26:	89 c7                	mov    %eax,%edi
    2f28:	8d 45 c4             	lea    -0x3c(%ebp),%eax
    2f2b:	89 44 24 18          	mov    %eax,0x18(%esp)
    2f2f:	c7 44 24 10 00 00 00 	movl   $0x0,0x10(%esp)
    2f36:	00 
    2f37:	c7 44 24 0c 00 00 00 	movl   $0x0,0xc(%esp)
    2f3e:	00 
    2f3f:	c7 44 24 08 00 00 00 	movl   $0x0,0x8(%esp)
    2f46:	00 
    2f47:	c7 44 24 04 03 04 00 	movl   $0x403,0x4(%esp)
    2f4e:	00 
    2f4f:	89 3c 24             	mov    %edi,(%esp)
    2f52:	e8 69 02 01 00       	call   131c0 <async_send_fast>
    2f57:	89 34 24             	mov    %esi,(%esp)
    2f5a:	89 c3                	mov    %eax,%ebx
    2f5c:	e8 4f 23 00 00       	call   52b0 <str_size>
    2f61:	89 74 24 04          	mov    %esi,0x4(%esp)
    2f65:	89 44 24 08          	mov    %eax,0x8(%esp)
    2f69:	89 3c 24             	mov    %edi,(%esp)
    2f6c:	e8 9f 27 01 00       	call   15710 <async_data_write_start>
    2f71:	89 3c 24             	mov    %edi,(%esp)
    2f74:	89 45 c0             	mov    %eax,-0x40(%ebp)
    2f77:	e8 14 1c 01 00       	call   14b90 <async_exchange_end>
    2f7c:	8b 4d c0             	mov    -0x40(%ebp),%ecx
    2f7f:	85 c9                	test   %ecx,%ecx
    2f81:	0f 85 99 00 00 00    	jne    3020 <loc_service_register+0x1a0>
    2f87:	8d 45 c0             	lea    -0x40(%ebp),%eax
    2f8a:	89 1c 24             	mov    %ebx,(%esp)
    2f8d:	89 44 24 04          	mov    %eax,0x4(%esp)
    2f91:	e8 fa 03 01 00       	call   13390 <async_wait_for>
    2f96:	8b 45 c0             	mov    -0x40(%ebp),%eax
    2f99:	85 c0                	test   %eax,%eax
    2f9b:	74 63                	je     3000 <loc_service_register+0x180>
    2f9d:	8b 55 0c             	mov    0xc(%ebp),%edx
    2fa0:	85 d2                	test   %edx,%edx
    2fa2:	74 09                	je     2fad <loc_service_register+0x12d>
    2fa4:	8b 55 0c             	mov    0xc(%ebp),%edx
    2fa7:	c7 02 ff ff ff ff    	movl   $0xffffffff,(%edx)
    2fad:	83 c4 5c             	add    $0x5c,%esp
    2fb0:	5b                   	pop    %ebx
    2fb1:	5e                   	pop    %esi
    2fb2:	5f                   	pop    %edi
    2fb3:	5d                   	pop    %ebp
    2fb4:	c3                   	ret    
    2fb5:	8d 76 00             	lea    0x0(%esi),%esi
    2fb8:	85 db                	test   %ebx,%ebx
    2fba:	0f 84 00 ff ff ff    	je     2ec0 <loc_service_register+0x40>
    2fc0:	89 1d 28 0d 02 00    	mov    %ebx,0x20d28
    2fc6:	e9 f5 fe ff ff       	jmp    2ec0 <loc_service_register+0x40>
    2fcb:	90                   	nop
    2fcc:	8d 74 26 00          	lea    0x0(%esi,%eiz,1),%esi
    2fd0:	c7 44 24 0c 00 00 00 	movl   $0x0,0xc(%esp)
    2fd7:	00 
    2fd8:	c7 44 24 08 01 00 00 	movl   $0x1,0x8(%esp)
    2fdf:	00 
    2fe0:	c7 44 24 04 6c 6f 63 	movl   $0x20636f6c,0x4(%esp)
    2fe7:	20 
    2fe8:	c7 04 24 02 00 00 00 	movl   $0x2,(%esp)
    2fef:	e8 7c eb 00 00       	call   11b70 <service_connect_blocking>
    2ff4:	a3 28 0d 02 00       	mov    %eax,0x20d28
    2ff9:	e9 9f fe ff ff       	jmp    2e9d <loc_service_register+0x1d>
    2ffe:	66 90                	xchg   %ax,%ax
    3000:	8b 45 0c             	mov    0xc(%ebp),%eax
    3003:	85 c0                	test   %eax,%eax
    3005:	74 08                	je     300f <loc_service_register+0x18f>
    3007:	8b 55 0c             	mov    0xc(%ebp),%edx
    300a:	8b 45 c8             	mov    -0x38(%ebp),%eax
    300d:	89 02                	mov    %eax,(%edx)
    300f:	83 c4 5c             	add    $0x5c,%esp
    3012:	31 c0                	xor    %eax,%eax
    3014:	5b                   	pop    %ebx
    3015:	5e                   	pop    %esi
    3016:	5f                   	pop    %edi
    3017:	5d                   	pop    %ebp
    3018:	c3                   	ret    
    3019:	8d b4 26 00 00 00 00 	lea    0x0(%esi,%eiz,1),%esi
    3020:	89 1c 24             	mov    %ebx,(%esp)
    3023:	e8 b8 05 01 00       	call   135e0 <async_forget>
    3028:	8b 45 c0             	mov    -0x40(%ebp),%eax
    302b:	83 c4 5c             	add    $0x5c,%esp
    302e:	5b                   	pop    %ebx
    302f:	5e                   	pop    %esi
    3030:	5f                   	pop    %edi
    3031:	5d                   	pop    %ebp
    3032:	c3                   	ret    
    3033:	90                   	nop
    3034:	8d 74 26 00          	lea    0x0(%esi,%eiz,1),%esi
    3038:	85 db                	test   %ebx,%ebx
    303a:	0f 84 c5 fe ff ff    	je     2f05 <loc_service_register+0x85>
    3040:	89 1d 24 0d 02 00    	mov    %ebx,0x20d24
    3046:	e9 ba fe ff ff       	jmp    2f05 <loc_service_register+0x85>
    304b:	90                   	nop
    304c:	8d 74 26 00          	lea    0x0(%esi,%eiz,1),%esi

00003050 <loc_service_unregister>:
    3050:	55                   	push   %ebp
    3051:	89 e5                	mov    %esp,%ebp
    3053:	53                   	push   %ebx
    3054:	83 ec 44             	sub    $0x44,%esp
    3057:	c7 04 24 7c 0a 02 00 	movl   $0x20a7c,(%esp)
    305e:	e8 6d 54 00 00       	call   84d0 <fibril_mutex_lock>
    3063:	a1 28 0d 02 00       	mov    0x20d28,%eax
    3068:	85 c0                	test   %eax,%eax
    306a:	75 38                	jne    30a4 <loc_service_unregister+0x54>
    306c:	c7 04 24 8c 0a 02 00 	movl   $0x20a8c,(%esp)
    3073:	8b 1d 24 0d 02 00    	mov    0x20d24,%ebx
    3079:	e8 52 54 00 00       	call   84d0 <fibril_mutex_lock>
    307e:	a1 28 0d 02 00       	mov    0x20d28,%eax
    3083:	85 c0                	test   %eax,%eax
    3085:	0f 84 cd 00 00 00    	je     3158 <loc_service_unregister+0x108>
    308b:	c7 04 24 8c 0a 02 00 	movl   $0x20a8c,(%esp)
    3092:	e8 59 55 00 00       	call   85f0 <fibril_mutex_unlock>
    3097:	a1 28 0d 02 00       	mov    0x20d28,%eax
    309c:	85 c0                	test   %eax,%eax
    309e:	0f 84 cc 00 00 00    	je     3170 <loc_service_unregister+0x120>
    30a4:	c7 04 24 7c 0a 02 00 	movl   $0x20a7c,(%esp)
    30ab:	e8 40 55 00 00       	call   85f0 <fibril_mutex_unlock>
    30b0:	c7 04 24 8c 0a 02 00 	movl   $0x20a8c,(%esp)
    30b7:	8b 1d 28 0d 02 00    	mov    0x20d28,%ebx
    30bd:	e8 0e 54 00 00       	call   84d0 <fibril_mutex_lock>
    30c2:	a1 24 0d 02 00       	mov    0x20d24,%eax
    30c7:	85 c0                	test   %eax,%eax
    30c9:	0f 84 d1 00 00 00    	je     31a0 <loc_service_unregister+0x150>
    30cf:	c7 04 24 8c 0a 02 00 	movl   $0x20a8c,(%esp)
    30d6:	e8 15 55 00 00       	call   85f0 <fibril_mutex_unlock>
    30db:	a1 28 0d 02 00       	mov    0x20d28,%eax
    30e0:	89 04 24             	mov    %eax,(%esp)
    30e3:	e8 38 17 01 00       	call   14820 <async_exchange_begin>
    30e8:	c7 44 24 28 00 00 00 	movl   $0x0,0x28(%esp)
    30ef:	00 
    30f0:	89 c3                	mov    %eax,%ebx
    30f2:	8b 45 08             	mov    0x8(%ebp),%eax
    30f5:	89 1c 24             	mov    %ebx,(%esp)
    30f8:	c7 44 24 24 00 00 00 	movl   $0x0,0x24(%esp)
    30ff:	00 
    3100:	c7 44 24 20 00 00 00 	movl   $0x0,0x20(%esp)
    3107:	00 
    3108:	c7 44 24 1c 00 00 00 	movl   $0x0,0x1c(%esp)
    310f:	00 
    3110:	c7 44 24 18 00 00 00 	movl   $0x0,0x18(%esp)
    3117:	00 
    3118:	c7 44 24 14 00 00 00 	movl   $0x0,0x14(%esp)
    311f:	00 
    3120:	c7 44 24 10 00 00 00 	movl   $0x0,0x10(%esp)
    3127:	00 
    3128:	c7 44 24 0c 00 00 00 	movl   $0x0,0xc(%esp)
    312f:	00 
    3130:	89 44 24 08          	mov    %eax,0x8(%esp)
    3134:	c7 44 24 04 04 04 00 	movl   $0x404,0x4(%esp)
    313b:	00 
    313c:	e8 8f 06 01 00       	call   137d0 <async_req_fast>
    3141:	89 1c 24             	mov    %ebx,(%esp)
    3144:	89 45 f4             	mov    %eax,-0xc(%ebp)
    3147:	e8 44 1a 01 00       	call   14b90 <async_exchange_end>
    314c:	8b 45 f4             	mov    -0xc(%ebp),%eax
    314f:	83 c4 44             	add    $0x44,%esp
    3152:	5b                   	pop    %ebx
    3153:	5d                   	pop    %ebp
    3154:	c3                   	ret    
    3155:	8d 76 00             	lea    0x0(%esi),%esi
    3158:	85 db                	test   %ebx,%ebx
    315a:	0f 84 2b ff ff ff    	je     308b <loc_service_unregister+0x3b>
    3160:	89 1d 28 0d 02 00    	mov    %ebx,0x20d28
    3166:	e9 20 ff ff ff       	jmp    308b <loc_service_unregister+0x3b>
    316b:	90                   	nop
    316c:	8d 74 26 00          	lea    0x0(%esi,%eiz,1),%esi
    3170:	c7 44 24 0c 00 00 00 	movl   $0x0,0xc(%esp)
    3177:	00 
    3178:	c7 44 24 08 01 00 00 	movl   $0x1,0x8(%esp)
    317f:	00 
    3180:	c7 44 24 04 6c 6f 63 	movl   $0x20636f6c,0x4(%esp)
    3187:	20 
    3188:	c7 04 24 02 00 00 00 	movl   $0x2,(%esp)
    318f:	e8 dc e9 00 00       	call   11b70 <service_connect_blocking>
    3194:	a3 28 0d 02 00       	mov    %eax,0x20d28
    3199:	e9 ca fe ff ff       	jmp    3068 <loc_service_unregister+0x18>
    319e:	66 90                	xchg   %ax,%ax
    31a0:	85 db                	test   %ebx,%ebx
    31a2:	0f 84 27 ff ff ff    	je     30cf <loc_service_unregister+0x7f>
    31a8:	89 1d 24 0d 02 00    	mov    %ebx,0x20d24
    31ae:	e9 1c ff ff ff       	jmp    30cf <loc_service_unregister+0x7f>
    31b3:	8d b6 00 00 00 00    	lea    0x0(%esi),%esi
    31b9:	8d bc 27 00 00 00 00 	lea    0x0(%edi,%eiz,1),%edi

000031c0 <loc_service_get_id>:
    31c0:	55                   	push   %ebp
    31c1:	89 e5                	mov    %esp,%ebp
    31c3:	57                   	push   %edi
    31c4:	56                   	push   %esi
    31c5:	53                   	push   %ebx
    31c6:	83 ec 5c             	sub    $0x5c,%esp
    31c9:	8b 75 10             	mov    0x10(%ebp),%esi
    31cc:	8b 7d 08             	mov    0x8(%ebp),%edi
    31cf:	f7 c6 01 00 00 00    	test   $0x1,%esi
    31d5:	0f 84 45 01 00 00    	je     3320 <loc_service_get_id+0x160>
    31db:	c7 04 24 9c 0a 02 00 	movl   $0x20a9c,(%esp)
    31e2:	e8 e9 52 00 00       	call   84d0 <fibril_mutex_lock>
    31e7:	a1 30 0d 02 00       	mov    0x20d30,%eax
    31ec:	85 c0                	test   %eax,%eax
    31ee:	75 38                	jne    3228 <loc_service_get_id+0x68>
    31f0:	c7 04 24 ac 0a 02 00 	movl   $0x20aac,(%esp)
    31f7:	8b 1d 2c 0d 02 00    	mov    0x20d2c,%ebx
    31fd:	e8 ce 52 00 00       	call   84d0 <fibril_mutex_lock>
    3202:	a1 30 0d 02 00       	mov    0x20d30,%eax
    3207:	85 c0                	test   %eax,%eax
    3209:	0f 84 f9 00 00 00    	je     3308 <loc_service_get_id+0x148>
    320f:	c7 04 24 ac 0a 02 00 	movl   $0x20aac,(%esp)
    3216:	e8 d5 53 00 00       	call   85f0 <fibril_mutex_unlock>
    321b:	a1 30 0d 02 00       	mov    0x20d30,%eax
    3220:	85 c0                	test   %eax,%eax
    3222:	0f 84 68 01 00 00    	je     3390 <loc_service_get_id+0x1d0>
    3228:	c7 04 24 9c 0a 02 00 	movl   $0x20a9c,(%esp)
    322f:	e8 bc 53 00 00       	call   85f0 <fibril_mutex_unlock>
    3234:	c7 04 24 ac 0a 02 00 	movl   $0x20aac,(%esp)
    323b:	8b 1d 30 0d 02 00    	mov    0x20d30,%ebx
    3241:	e8 8a 52 00 00       	call   84d0 <fibril_mutex_lock>
    3246:	a1 2c 0d 02 00       	mov    0x20d2c,%eax
    324b:	85 c0                	test   %eax,%eax
    324d:	0f 84 85 01 00 00    	je     33d8 <loc_service_get_id+0x218>
    3253:	c7 04 24 ac 0a 02 00 	movl   $0x20aac,(%esp)
    325a:	e8 91 53 00 00       	call   85f0 <fibril_mutex_unlock>
    325f:	a1 30 0d 02 00       	mov    0x20d30,%eax
    3264:	89 04 24             	mov    %eax,(%esp)
    3267:	e8 b4 15 01 00       	call   14820 <async_exchange_begin>
    326c:	89 c3                	mov    %eax,%ebx
    326e:	8d 45 c4             	lea    -0x3c(%ebp),%eax
    3271:	89 74 24 08          	mov    %esi,0x8(%esp)
    3275:	89 44 24 18          	mov    %eax,0x18(%esp)
    3279:	c7 44 24 14 00 00 00 	movl   $0x0,0x14(%esp)
    3280:	00 
    3281:	c7 44 24 10 00 00 00 	movl   $0x0,0x10(%esp)
    3288:	00 
    3289:	c7 44 24 0c 00 00 00 	movl   $0x0,0xc(%esp)
    3290:	00 
    3291:	c7 44 24 04 05 04 00 	movl   $0x405,0x4(%esp)
    3298:	00 
    3299:	89 1c 24             	mov    %ebx,(%esp)
    329c:	e8 1f ff 00 00       	call   131c0 <async_send_fast>
    32a1:	89 3c 24             	mov    %edi,(%esp)
    32a4:	89 c6                	mov    %eax,%esi
    32a6:	e8 05 20 00 00       	call   52b0 <str_size>
    32ab:	89 7c 24 04          	mov    %edi,0x4(%esp)
    32af:	89 44 24 08          	mov    %eax,0x8(%esp)
    32b3:	89 1c 24             	mov    %ebx,(%esp)
    32b6:	e8 55 24 01 00       	call   15710 <async_data_write_start>
    32bb:	89 1c 24             	mov    %ebx,(%esp)
    32be:	89 45 c0             	mov    %eax,-0x40(%ebp)
    32c1:	e8 ca 18 01 00       	call   14b90 <async_exchange_end>
    32c6:	8b 4d c0             	mov    -0x40(%ebp),%ecx
    32c9:	85 c9                	test   %ecx,%ecx
    32cb:	0f 85 ef 00 00 00    	jne    33c0 <loc_service_get_id+0x200>
    32d1:	8d 45 c0             	lea    -0x40(%ebp),%eax
    32d4:	89 34 24             	mov    %esi,(%esp)
    32d7:	89 44 24 04          	mov    %eax,0x4(%esp)
    32db:	e8 b0 00 01 00       	call   13390 <async_wait_for>
    32e0:	8b 45 c0             	mov    -0x40(%ebp),%eax
    32e3:	85 c0                	test   %eax,%eax
    32e5:	0f 84 85 00 00 00    	je     3370 <loc_service_get_id+0x1b0>
    32eb:	8b 55 0c             	mov    0xc(%ebp),%edx
    32ee:	85 d2                	test   %edx,%edx
    32f0:	74 09                	je     32fb <loc_service_get_id+0x13b>
    32f2:	8b 55 0c             	mov    0xc(%ebp),%edx
    32f5:	c7 02 ff ff ff ff    	movl   $0xffffffff,(%edx)
    32fb:	83 c4 5c             	add    $0x5c,%esp
    32fe:	5b                   	pop    %ebx
    32ff:	5e                   	pop    %esi
    3300:	5f                   	pop    %edi
    3301:	5d                   	pop    %ebp
    3302:	c3                   	ret    
    3303:	90                   	nop
    3304:	8d 74 26 00          	lea    0x0(%esi,%eiz,1),%esi
    3308:	85 db                	test   %ebx,%ebx
    330a:	0f 84 ff fe ff ff    	je     320f <loc_service_get_id+0x4f>
    3310:	89 1d 30 0d 02 00    	mov    %ebx,0x20d30
    3316:	e9 f4 fe ff ff       	jmp    320f <loc_service_get_id+0x4f>
    331b:	90                   	nop
    331c:	8d 74 26 00          	lea    0x0(%esi,%eiz,1),%esi
    3320:	c7 04 24 ac 0a 02 00 	movl   $0x20aac,(%esp)
    3327:	e8 a4 51 00 00       	call   84d0 <fibril_mutex_lock>
    332c:	8b 1d 2c 0d 02 00    	mov    0x20d2c,%ebx
    3332:	85 db                	test   %ebx,%ebx
    3334:	0f 84 b1 00 00 00    	je     33eb <loc_service_get_id+0x22b>
    333a:	c7 04 24 ac 0a 02 00 	movl   $0x20aac,(%esp)
    3341:	e8 aa 52 00 00       	call   85f0 <fibril_mutex_unlock>
    3346:	a1 2c 0d 02 00       	mov    0x20d2c,%eax
    334b:	85 c0                	test   %eax,%eax
    334d:	74 12                	je     3361 <loc_service_get_id+0x1a1>
    334f:	89 04 24             	mov    %eax,(%esp)
    3352:	e8 c9 14 01 00       	call   14820 <async_exchange_begin>
    3357:	89 c3                	mov    %eax,%ebx
    3359:	85 c0                	test   %eax,%eax
    335b:	0f 85 0d ff ff ff    	jne    326e <loc_service_get_id+0xae>
    3361:	e8 ea 8d 01 00       	call   1c150 <__errno>
    3366:	8b 00                	mov    (%eax),%eax
    3368:	eb 91                	jmp    32fb <loc_service_get_id+0x13b>
    336a:	8d b6 00 00 00 00    	lea    0x0(%esi),%esi
    3370:	8b 45 0c             	mov    0xc(%ebp),%eax
    3373:	85 c0                	test   %eax,%eax
    3375:	74 08                	je     337f <loc_service_get_id+0x1bf>
    3377:	8b 55 0c             	mov    0xc(%ebp),%edx
    337a:	8b 45 c8             	mov    -0x38(%ebp),%eax
    337d:	89 02                	mov    %eax,(%edx)
    337f:	83 c4 5c             	add    $0x5c,%esp
    3382:	31 c0                	xor    %eax,%eax
    3384:	5b                   	pop    %ebx
    3385:	5e                   	pop    %esi
    3386:	5f                   	pop    %edi
    3387:	5d                   	pop    %ebp
    3388:	c3                   	ret    
    3389:	8d b4 26 00 00 00 00 	lea    0x0(%esi,%eiz,1),%esi
    3390:	c7 44 24 0c 00 00 00 	movl   $0x0,0xc(%esp)
    3397:	00 
    3398:	c7 44 24 08 02 00 00 	movl   $0x2,0x8(%esp)
    339f:	00 
    33a0:	c7 44 24 04 6c 6f 63 	movl   $0x20636f6c,0x4(%esp)
    33a7:	20 
    33a8:	c7 04 24 02 00 00 00 	movl   $0x2,(%esp)
    33af:	e8 bc e7 00 00       	call   11b70 <service_connect_blocking>
    33b4:	a3 30 0d 02 00       	mov    %eax,0x20d30
    33b9:	e9 2e fe ff ff       	jmp    31ec <loc_service_get_id+0x2c>
    33be:	66 90                	xchg   %ax,%ax
    33c0:	89 34 24             	mov    %esi,(%esp)
    33c3:	e8 18 02 01 00       	call   135e0 <async_forget>
    33c8:	8b 45 c0             	mov    -0x40(%ebp),%eax
    33cb:	83 c4 5c             	add    $0x5c,%esp
    33ce:	5b                   	pop    %ebx
    33cf:	5e                   	pop    %esi
    33d0:	5f                   	pop    %edi
    33d1:	5d                   	pop    %ebp
    33d2:	c3                   	ret    
    33d3:	90                   	nop
    33d4:	8d 74 26 00          	lea    0x0(%esi,%eiz,1),%esi
    33d8:	85 db                	test   %ebx,%ebx
    33da:	0f 84 73 fe ff ff    	je     3253 <loc_service_get_id+0x93>
    33e0:	89 1d 2c 0d 02 00    	mov    %ebx,0x20d2c
    33e6:	e9 68 fe ff ff       	jmp    3253 <loc_service_get_id+0x93>
    33eb:	c7 44 24 0c 00 00 00 	movl   $0x0,0xc(%esp)
    33f2:	00 
    33f3:	c7 44 24 08 02 00 00 	movl   $0x2,0x8(%esp)
    33fa:	00 
    33fb:	c7 44 24 04 6c 6f 63 	movl   $0x20636f6c,0x4(%esp)
    3402:	20 
    3403:	c7 04 24 02 00 00 00 	movl   $0x2,(%esp)
    340a:	e8 e1 e6 00 00       	call   11af0 <service_connect>
    340f:	a3 2c 0d 02 00       	mov    %eax,0x20d2c
    3414:	e9 21 ff ff ff       	jmp    333a <loc_service_get_id+0x17a>
    3419:	8d b4 26 00 00 00 00 	lea    0x0(%esi,%eiz,1),%esi

00003420 <loc_category_get_name>:
    3420:	55                   	push   %ebp
    3421:	b8 0b 04 00 00       	mov    $0x40b,%eax
    3426:	89 e5                	mov    %esp,%ebp
    3428:	8b 4d 0c             	mov    0xc(%ebp),%ecx
    342b:	8b 55 08             	mov    0x8(%ebp),%edx
    342e:	5d                   	pop    %ebp
    342f:	e9 6c ed ff ff       	jmp    21a0 <loc_get_name_internal>
    3434:	8d b6 00 00 00 00    	lea    0x0(%esi),%esi
    343a:	8d bf 00 00 00 00    	lea    0x0(%edi),%edi

00003440 <loc_service_get_name>:
    3440:	55                   	push   %ebp
    3441:	b8 06 04 00 00       	mov    $0x406,%eax
    3446:	89 e5                	mov    %esp,%ebp
    3448:	8b 4d 0c             	mov    0xc(%ebp),%ecx
    344b:	8b 55 08             	mov    0x8(%ebp),%edx
    344e:	5d                   	pop    %ebp
    344f:	e9 4c ed ff ff       	jmp    21a0 <loc_get_name_internal>
    3454:	8d b6 00 00 00 00    	lea    0x0(%esi),%esi
    345a:	8d bf 00 00 00 00    	lea    0x0(%edi),%edi

00003460 <loc_service_get_server_name>:
    3460:	55                   	push   %ebp
    3461:	b8 07 04 00 00       	mov    $0x407,%eax
    3466:	89 e5                	mov    %esp,%ebp
    3468:	8b 4d 0c             	mov    0xc(%ebp),%ecx
    346b:	8b 55 08             	mov    0x8(%ebp),%edx
    346e:	5d                   	pop    %ebp
    346f:	e9 2c ed ff ff       	jmp    21a0 <loc_get_name_internal>
    3474:	8d b6 00 00 00 00    	lea    0x0(%esi),%esi
    347a:	8d bf 00 00 00 00    	lea    0x0(%edi),%edi

00003480 <loc_namespace_get_id>:
    3480:	55                   	push   %ebp
    3481:	89 e5                	mov    %esp,%ebp
    3483:	57                   	push   %edi
    3484:	56                   	push   %esi
    3485:	53                   	push   %ebx
    3486:	83 ec 5c             	sub    $0x5c,%esp
    3489:	8b 75 10             	mov    0x10(%ebp),%esi
    348c:	8b 7d 08             	mov    0x8(%ebp),%edi
    348f:	f7 c6 01 00 00 00    	test   $0x1,%esi
    3495:	0f 84 45 01 00 00    	je     35e0 <loc_namespace_get_id+0x160>
    349b:	c7 04 24 9c 0a 02 00 	movl   $0x20a9c,(%esp)
    34a2:	e8 29 50 00 00       	call   84d0 <fibril_mutex_lock>
    34a7:	a1 30 0d 02 00       	mov    0x20d30,%eax
    34ac:	85 c0                	test   %eax,%eax
    34ae:	75 38                	jne    34e8 <loc_namespace_get_id+0x68>
    34b0:	c7 04 24 ac 0a 02 00 	movl   $0x20aac,(%esp)
    34b7:	8b 1d 2c 0d 02 00    	mov    0x20d2c,%ebx
    34bd:	e8 0e 50 00 00       	call   84d0 <fibril_mutex_lock>
    34c2:	a1 30 0d 02 00       	mov    0x20d30,%eax
    34c7:	85 c0                	test   %eax,%eax
    34c9:	0f 84 f9 00 00 00    	je     35c8 <loc_namespace_get_id+0x148>
    34cf:	c7 04 24 ac 0a 02 00 	movl   $0x20aac,(%esp)
    34d6:	e8 15 51 00 00       	call   85f0 <fibril_mutex_unlock>
    34db:	a1 30 0d 02 00       	mov    0x20d30,%eax
    34e0:	85 c0                	test   %eax,%eax
    34e2:	0f 84 68 01 00 00    	je     3650 <loc_namespace_get_id+0x1d0>
    34e8:	c7 04 24 9c 0a 02 00 	movl   $0x20a9c,(%esp)
    34ef:	e8 fc 50 00 00       	call   85f0 <fibril_mutex_unlock>
    34f4:	c7 04 24 ac 0a 02 00 	movl   $0x20aac,(%esp)
    34fb:	8b 1d 30 0d 02 00    	mov    0x20d30,%ebx
    3501:	e8 ca 4f 00 00       	call   84d0 <fibril_mutex_lock>
    3506:	a1 2c 0d 02 00       	mov    0x20d2c,%eax
    350b:	85 c0                	test   %eax,%eax
    350d:	0f 84 85 01 00 00    	je     3698 <loc_namespace_get_id+0x218>
    3513:	c7 04 24 ac 0a 02 00 	movl   $0x20aac,(%esp)
    351a:	e8 d1 50 00 00       	call   85f0 <fibril_mutex_unlock>
    351f:	a1 30 0d 02 00       	mov    0x20d30,%eax
    3524:	89 04 24             	mov    %eax,(%esp)
    3527:	e8 f4 12 01 00       	call   14820 <async_exchange_begin>
    352c:	89 c3                	mov    %eax,%ebx
    352e:	8d 45 c4             	lea    -0x3c(%ebp),%eax
    3531:	89 74 24 08          	mov    %esi,0x8(%esp)
    3535:	89 44 24 18          	mov    %eax,0x18(%esp)
    3539:	c7 44 24 14 00 00 00 	movl   $0x0,0x14(%esp)
    3540:	00 
    3541:	c7 44 24 10 00 00 00 	movl   $0x0,0x10(%esp)
    3548:	00 
    3549:	c7 44 24 0c 00 00 00 	movl   $0x0,0xc(%esp)
    3550:	00 
    3551:	c7 44 24 04 08 04 00 	movl   $0x408,0x4(%esp)
    3558:	00 
    3559:	89 1c 24             	mov    %ebx,(%esp)
    355c:	e8 5f fc 00 00       	call   131c0 <async_send_fast>
    3561:	89 3c 24             	mov    %edi,(%esp)
    3564:	89 c6                	mov    %eax,%esi
    3566:	e8 45 1d 00 00       	call   52b0 <str_size>
    356b:	89 7c 24 04          	mov    %edi,0x4(%esp)
    356f:	89 44 24 08          	mov    %eax,0x8(%esp)
    3573:	89 1c 24             	mov    %ebx,(%esp)
    3576:	e8 95 21 01 00       	call   15710 <async_data_write_start>
    357b:	89 1c 24             	mov    %ebx,(%esp)
    357e:	89 45 c0             	mov    %eax,-0x40(%ebp)
    3581:	e8 0a 16 01 00       	call   14b90 <async_exchange_end>
    3586:	8b 4d c0             	mov    -0x40(%ebp),%ecx
    3589:	85 c9                	test   %ecx,%ecx
    358b:	0f 85 ef 00 00 00    	jne    3680 <loc_namespace_get_id+0x200>
    3591:	8d 45 c0             	lea    -0x40(%ebp),%eax
    3594:	89 34 24             	mov    %esi,(%esp)
    3597:	89 44 24 04          	mov    %eax,0x4(%esp)
    359b:	e8 f0 fd 00 00       	call   13390 <async_wait_for>
    35a0:	8b 45 c0             	mov    -0x40(%ebp),%eax
    35a3:	85 c0                	test   %eax,%eax
    35a5:	0f 84 85 00 00 00    	je     3630 <loc_namespace_get_id+0x1b0>
    35ab:	8b 55 0c             	mov    0xc(%ebp),%edx
    35ae:	85 d2                	test   %edx,%edx
    35b0:	74 09                	je     35bb <loc_namespace_get_id+0x13b>
    35b2:	8b 55 0c             	mov    0xc(%ebp),%edx
    35b5:	c7 02 ff ff ff ff    	movl   $0xffffffff,(%edx)
    35bb:	83 c4 5c             	add    $0x5c,%esp
    35be:	5b                   	pop    %ebx
    35bf:	5e                   	pop    %esi
    35c0:	5f                   	pop    %edi
    35c1:	5d                   	pop    %ebp
    35c2:	c3                   	ret    
    35c3:	90                   	nop
    35c4:	8d 74 26 00          	lea    0x0(%esi,%eiz,1),%esi
    35c8:	85 db                	test   %ebx,%ebx
    35ca:	0f 84 ff fe ff ff    	je     34cf <loc_namespace_get_id+0x4f>
    35d0:	89 1d 30 0d 02 00    	mov    %ebx,0x20d30
    35d6:	e9 f4 fe ff ff       	jmp    34cf <loc_namespace_get_id+0x4f>
    35db:	90                   	nop
    35dc:	8d 74 26 00          	lea    0x0(%esi,%eiz,1),%esi
    35e0:	c7 04 24 ac 0a 02 00 	movl   $0x20aac,(%esp)
    35e7:	e8 e4 4e 00 00       	call   84d0 <fibril_mutex_lock>
    35ec:	8b 1d 2c 0d 02 00    	mov    0x20d2c,%ebx
    35f2:	85 db                	test   %ebx,%ebx
    35f4:	0f 84 b1 00 00 00    	je     36ab <loc_namespace_get_id+0x22b>
    35fa:	c7 04 24 ac 0a 02 00 	movl   $0x20aac,(%esp)
    3601:	e8 ea 4f 00 00       	call   85f0 <fibril_mutex_unlock>
    3606:	a1 2c 0d 02 00       	mov    0x20d2c,%eax
    360b:	85 c0                	test   %eax,%eax
    360d:	74 12                	je     3621 <loc_namespace_get_id+0x1a1>
    360f:	89 04 24             	mov    %eax,(%esp)
    3612:	e8 09 12 01 00       	call   14820 <async_exchange_begin>
    3617:	89 c3                	mov    %eax,%ebx
    3619:	85 c0                	test   %eax,%eax
    361b:	0f 85 0d ff ff ff    	jne    352e <loc_namespace_get_id+0xae>
    3621:	e8 2a 8b 01 00       	call   1c150 <__errno>
    3626:	8b 00                	mov    (%eax),%eax
    3628:	eb 91                	jmp    35bb <loc_namespace_get_id+0x13b>
    362a:	8d b6 00 00 00 00    	lea    0x0(%esi),%esi
    3630:	8b 45 0c             	mov    0xc(%ebp),%eax
    3633:	85 c0                	test   %eax,%eax
    3635:	74 08                	je     363f <loc_namespace_get_id+0x1bf>
    3637:	8b 55 0c             	mov    0xc(%ebp),%edx
    363a:	8b 45 c8             	mov    -0x38(%ebp),%eax
    363d:	89 02                	mov    %eax,(%edx)
    363f:	83 c4 5c             	add    $0x5c,%esp
    3642:	31 c0                	xor    %eax,%eax
    3644:	5b                   	pop    %ebx
    3645:	5e                   	pop    %esi
    3646:	5f                   	pop    %edi
    3647:	5d                   	pop    %ebp
    3648:	c3                   	ret    
    3649:	8d b4 26 00 00 00 00 	lea    0x0(%esi,%eiz,1),%esi
    3650:	c7 44 24 0c 00 00 00 	movl   $0x0,0xc(%esp)
    3657:	00 
    3658:	c7 44 24 08 02 00 00 	movl   $0x2,0x8(%esp)
    365f:	00 
    3660:	c7 44 24 04 6c 6f 63 	movl   $0x20636f6c,0x4(%esp)
    3667:	20 
    3668:	c7 04 24 02 00 00 00 	movl   $0x2,(%esp)
    366f:	e8 fc e4 00 00       	call   11b70 <service_connect_blocking>
    3674:	a3 30 0d 02 00       	mov    %eax,0x20d30
    3679:	e9 2e fe ff ff       	jmp    34ac <loc_namespace_get_id+0x2c>
    367e:	66 90                	xchg   %ax,%ax
    3680:	89 34 24             	mov    %esi,(%esp)
    3683:	e8 58 ff 00 00       	call   135e0 <async_forget>
    3688:	8b 45 c0             	mov    -0x40(%ebp),%eax
    368b:	83 c4 5c             	add    $0x5c,%esp
    368e:	5b                   	pop    %ebx
    368f:	5e                   	pop    %esi
    3690:	5f                   	pop    %edi
    3691:	5d                   	pop    %ebp
    3692:	c3                   	ret    
    3693:	90                   	nop
    3694:	8d 74 26 00          	lea    0x0(%esi,%eiz,1),%esi
    3698:	85 db                	test   %ebx,%ebx
    369a:	0f 84 73 fe ff ff    	je     3513 <loc_namespace_get_id+0x93>
    36a0:	89 1d 2c 0d 02 00    	mov    %ebx,0x20d2c
    36a6:	e9 68 fe ff ff       	jmp    3513 <loc_namespace_get_id+0x93>
    36ab:	c7 44 24 0c 00 00 00 	movl   $0x0,0xc(%esp)
    36b2:	00 
    36b3:	c7 44 24 08 02 00 00 	movl   $0x2,0x8(%esp)
    36ba:	00 
    36bb:	c7 44 24 04 6c 6f 63 	movl   $0x20636f6c,0x4(%esp)
    36c2:	20 
    36c3:	c7 04 24 02 00 00 00 	movl   $0x2,(%esp)
    36ca:	e8 21 e4 00 00       	call   11af0 <service_connect>
    36cf:	a3 2c 0d 02 00       	mov    %eax,0x20d2c
    36d4:	e9 21 ff ff ff       	jmp    35fa <loc_namespace_get_id+0x17a>
    36d9:	8d b4 26 00 00 00 00 	lea    0x0(%esi,%eiz,1),%esi

000036e0 <loc_category_get_id>:
    36e0:	55                   	push   %ebp
    36e1:	89 e5                	mov    %esp,%ebp
    36e3:	57                   	push   %edi
    36e4:	56                   	push   %esi
    36e5:	53                   	push   %ebx
    36e6:	83 ec 5c             	sub    $0x5c,%esp
    36e9:	8b 75 08             	mov    0x8(%ebp),%esi
    36ec:	f6 45 10 01          	testb  $0x1,0x10(%ebp)
    36f0:	0f 84 4a 01 00 00    	je     3840 <loc_category_get_id+0x160>
    36f6:	c7 04 24 9c 0a 02 00 	movl   $0x20a9c,(%esp)
    36fd:	e8 ce 4d 00 00       	call   84d0 <fibril_mutex_lock>
    3702:	a1 30 0d 02 00       	mov    0x20d30,%eax
    3707:	85 c0                	test   %eax,%eax
    3709:	75 38                	jne    3743 <loc_category_get_id+0x63>
    370b:	c7 04 24 ac 0a 02 00 	movl   $0x20aac,(%esp)
    3712:	8b 1d 2c 0d 02 00    	mov    0x20d2c,%ebx
    3718:	e8 b3 4d 00 00       	call   84d0 <fibril_mutex_lock>
    371d:	a1 30 0d 02 00       	mov    0x20d30,%eax
    3722:	85 c0                	test   %eax,%eax
    3724:	0f 84 fe 00 00 00    	je     3828 <loc_category_get_id+0x148>
    372a:	c7 04 24 ac 0a 02 00 	movl   $0x20aac,(%esp)
    3731:	e8 ba 4e 00 00       	call   85f0 <fibril_mutex_unlock>
    3736:	a1 30 0d 02 00       	mov    0x20d30,%eax
    373b:	85 c0                	test   %eax,%eax
    373d:	0f 84 6d 01 00 00    	je     38b0 <loc_category_get_id+0x1d0>
    3743:	c7 04 24 9c 0a 02 00 	movl   $0x20a9c,(%esp)
    374a:	e8 a1 4e 00 00       	call   85f0 <fibril_mutex_unlock>
    374f:	c7 04 24 ac 0a 02 00 	movl   $0x20aac,(%esp)
    3756:	8b 1d 30 0d 02 00    	mov    0x20d30,%ebx
    375c:	e8 6f 4d 00 00       	call   84d0 <fibril_mutex_lock>
    3761:	8b 3d 2c 0d 02 00    	mov    0x20d2c,%edi
    3767:	85 ff                	test   %edi,%edi
    3769:	0f 84 89 01 00 00    	je     38f8 <loc_category_get_id+0x218>
    376f:	c7 04 24 ac 0a 02 00 	movl   $0x20aac,(%esp)
    3776:	e8 75 4e 00 00       	call   85f0 <fibril_mutex_unlock>
    377b:	a1 30 0d 02 00       	mov    0x20d30,%eax
    3780:	89 04 24             	mov    %eax,(%esp)
    3783:	e8 98 10 01 00       	call   14820 <async_exchange_begin>
    3788:	89 c3                	mov    %eax,%ebx
    378a:	8d 45 c4             	lea    -0x3c(%ebp),%eax
    378d:	c7 44 24 14 00 00 00 	movl   $0x0,0x14(%esp)
    3794:	00 
    3795:	89 44 24 18          	mov    %eax,0x18(%esp)
    3799:	c7 44 24 10 00 00 00 	movl   $0x0,0x10(%esp)
    37a0:	00 
    37a1:	c7 44 24 0c 00 00 00 	movl   $0x0,0xc(%esp)
    37a8:	00 
    37a9:	c7 44 24 08 00 00 00 	movl   $0x0,0x8(%esp)
    37b0:	00 
    37b1:	c7 44 24 04 0a 04 00 	movl   $0x40a,0x4(%esp)
    37b8:	00 
    37b9:	89 1c 24             	mov    %ebx,(%esp)
    37bc:	e8 ff f9 00 00       	call   131c0 <async_send_fast>
    37c1:	89 34 24             	mov    %esi,(%esp)
    37c4:	89 c7                	mov    %eax,%edi
    37c6:	e8 e5 1a 00 00       	call   52b0 <str_size>
    37cb:	89 74 24 04          	mov    %esi,0x4(%esp)
    37cf:	89 44 24 08          	mov    %eax,0x8(%esp)
    37d3:	89 1c 24             	mov    %ebx,(%esp)
    37d6:	e8 35 1f 01 00       	call   15710 <async_data_write_start>
    37db:	89 1c 24             	mov    %ebx,(%esp)
    37de:	89 45 c0             	mov    %eax,-0x40(%ebp)
    37e1:	e8 aa 13 01 00       	call   14b90 <async_exchange_end>
    37e6:	8b 4d c0             	mov    -0x40(%ebp),%ecx
    37e9:	85 c9                	test   %ecx,%ecx
    37eb:	0f 85 ef 00 00 00    	jne    38e0 <loc_category_get_id+0x200>
    37f1:	8d 45 c0             	lea    -0x40(%ebp),%eax
    37f4:	89 3c 24             	mov    %edi,(%esp)
    37f7:	89 44 24 04          	mov    %eax,0x4(%esp)
    37fb:	e8 90 fb 00 00       	call   13390 <async_wait_for>
    3800:	8b 45 c0             	mov    -0x40(%ebp),%eax
    3803:	85 c0                	test   %eax,%eax
    3805:	0f 84 85 00 00 00    	je     3890 <loc_category_get_id+0x1b0>
    380b:	8b 55 0c             	mov    0xc(%ebp),%edx
    380e:	85 d2                	test   %edx,%edx
    3810:	74 09                	je     381b <loc_category_get_id+0x13b>
    3812:	8b 55 0c             	mov    0xc(%ebp),%edx
    3815:	c7 02 ff ff ff ff    	movl   $0xffffffff,(%edx)
    381b:	83 c4 5c             	add    $0x5c,%esp
    381e:	5b                   	pop    %ebx
    381f:	5e                   	pop    %esi
    3820:	5f                   	pop    %edi
    3821:	5d                   	pop    %ebp
    3822:	c3                   	ret    
    3823:	90                   	nop
    3824:	8d 74 26 00          	lea    0x0(%esi,%eiz,1),%esi
    3828:	85 db                	test   %ebx,%ebx
    382a:	0f 84 fa fe ff ff    	je     372a <loc_category_get_id+0x4a>
    3830:	89 1d 30 0d 02 00    	mov    %ebx,0x20d30
    3836:	e9 ef fe ff ff       	jmp    372a <loc_category_get_id+0x4a>
    383b:	90                   	nop
    383c:	8d 74 26 00          	lea    0x0(%esi,%eiz,1),%esi
    3840:	c7 04 24 ac 0a 02 00 	movl   $0x20aac,(%esp)
    3847:	e8 84 4c 00 00       	call   84d0 <fibril_mutex_lock>
    384c:	8b 1d 2c 0d 02 00    	mov    0x20d2c,%ebx
    3852:	85 db                	test   %ebx,%ebx
    3854:	0f 84 b1 00 00 00    	je     390b <loc_category_get_id+0x22b>
    385a:	c7 04 24 ac 0a 02 00 	movl   $0x20aac,(%esp)
    3861:	e8 8a 4d 00 00       	call   85f0 <fibril_mutex_unlock>
    3866:	a1 2c 0d 02 00       	mov    0x20d2c,%eax
    386b:	85 c0                	test   %eax,%eax
    386d:	74 12                	je     3881 <loc_category_get_id+0x1a1>
    386f:	89 04 24             	mov    %eax,(%esp)
    3872:	e8 a9 0f 01 00       	call   14820 <async_exchange_begin>
    3877:	89 c3                	mov    %eax,%ebx
    3879:	85 c0                	test   %eax,%eax
    387b:	0f 85 09 ff ff ff    	jne    378a <loc_category_get_id+0xaa>
    3881:	e8 ca 88 01 00       	call   1c150 <__errno>
    3886:	8b 00                	mov    (%eax),%eax
    3888:	eb 91                	jmp    381b <loc_category_get_id+0x13b>
    388a:	8d b6 00 00 00 00    	lea    0x0(%esi),%esi
    3890:	8b 45 0c             	mov    0xc(%ebp),%eax
    3893:	85 c0                	test   %eax,%eax
    3895:	74 08                	je     389f <loc_category_get_id+0x1bf>
    3897:	8b 55 0c             	mov    0xc(%ebp),%edx
    389a:	8b 45 c8             	mov    -0x38(%ebp),%eax
    389d:	89 02                	mov    %eax,(%edx)
    389f:	83 c4 5c             	add    $0x5c,%esp
    38a2:	31 c0                	xor    %eax,%eax
    38a4:	5b                   	pop    %ebx
    38a5:	5e                   	pop    %esi
    38a6:	5f                   	pop    %edi
    38a7:	5d                   	pop    %ebp
    38a8:	c3                   	ret    
    38a9:	8d b4 26 00 00 00 00 	lea    0x0(%esi,%eiz,1),%esi
    38b0:	c7 44 24 0c 00 00 00 	movl   $0x0,0xc(%esp)
    38b7:	00 
    38b8:	c7 44 24 08 02 00 00 	movl   $0x2,0x8(%esp)
    38bf:	00 
    38c0:	c7 44 24 04 6c 6f 63 	movl   $0x20636f6c,0x4(%esp)
    38c7:	20 
    38c8:	c7 04 24 02 00 00 00 	movl   $0x2,(%esp)
    38cf:	e8 9c e2 00 00       	call   11b70 <service_connect_blocking>
    38d4:	a3 30 0d 02 00       	mov    %eax,0x20d30
    38d9:	e9 29 fe ff ff       	jmp    3707 <loc_category_get_id+0x27>
    38de:	66 90                	xchg   %ax,%ax
    38e0:	89 3c 24             	mov    %edi,(%esp)
    38e3:	e8 f8 fc 00 00       	call   135e0 <async_forget>
    38e8:	8b 45 c0             	mov    -0x40(%ebp),%eax
    38eb:	83 c4 5c             	add    $0x5c,%esp
    38ee:	5b                   	pop    %ebx
    38ef:	5e                   	pop    %esi
    38f0:	5f                   	pop    %edi
    38f1:	5d                   	pop    %ebp
    38f2:	c3                   	ret    
    38f3:	90                   	nop
    38f4:	8d 74 26 00          	lea    0x0(%esi,%eiz,1),%esi
    38f8:	85 db                	test   %ebx,%ebx
    38fa:	0f 84 6f fe ff ff    	je     376f <loc_category_get_id+0x8f>
    3900:	89 1d 2c 0d 02 00    	mov    %ebx,0x20d2c
    3906:	e9 64 fe ff ff       	jmp    376f <loc_category_get_id+0x8f>
    390b:	c7 44 24 0c 00 00 00 	movl   $0x0,0xc(%esp)
    3912:	00 
    3913:	c7 44 24 08 02 00 00 	movl   $0x2,0x8(%esp)
    391a:	00 
    391b:	c7 44 24 04 6c 6f 63 	movl   $0x20636f6c,0x4(%esp)
    3922:	20 
    3923:	c7 04 24 02 00 00 00 	movl   $0x2,(%esp)
    392a:	e8 c1 e1 00 00       	call   11af0 <service_connect>
    392f:	a3 2c 0d 02 00       	mov    %eax,0x20d2c
    3934:	e9 21 ff ff ff       	jmp    385a <loc_category_get_id+0x17a>
    3939:	8d b4 26 00 00 00 00 	lea    0x0(%esi,%eiz,1),%esi

00003940 <loc_id_probe>:
    3940:	55                   	push   %ebp
    3941:	89 e5                	mov    %esp,%ebp
    3943:	56                   	push   %esi
    3944:	53                   	push   %ebx
    3945:	83 ec 40             	sub    $0x40,%esp
    3948:	c7 04 24 9c 0a 02 00 	movl   $0x20a9c,(%esp)
    394f:	e8 7c 4b 00 00       	call   84d0 <fibril_mutex_lock>
    3954:	a1 30 0d 02 00       	mov    0x20d30,%eax
    3959:	85 c0                	test   %eax,%eax
    395b:	75 38                	jne    3995 <loc_id_probe+0x55>
    395d:	c7 04 24 ac 0a 02 00 	movl   $0x20aac,(%esp)
    3964:	8b 1d 2c 0d 02 00    	mov    0x20d2c,%ebx
    396a:	e8 61 4b 00 00       	call   84d0 <fibril_mutex_lock>
    396f:	a1 30 0d 02 00       	mov    0x20d30,%eax
    3974:	85 c0                	test   %eax,%eax
    3976:	0f 84 d4 00 00 00    	je     3a50 <loc_id_probe+0x110>
    397c:	c7 04 24 ac 0a 02 00 	movl   $0x20aac,(%esp)
    3983:	e8 68 4c 00 00       	call   85f0 <fibril_mutex_unlock>
    3988:	a1 30 0d 02 00       	mov    0x20d30,%eax
    398d:	85 c0                	test   %eax,%eax
    398f:	0f 84 d3 00 00 00    	je     3a68 <loc_id_probe+0x128>
    3995:	c7 04 24 9c 0a 02 00 	movl   $0x20a9c,(%esp)
    399c:	e8 4f 4c 00 00       	call   85f0 <fibril_mutex_unlock>
    39a1:	c7 04 24 ac 0a 02 00 	movl   $0x20aac,(%esp)
    39a8:	8b 1d 30 0d 02 00    	mov    0x20d30,%ebx
    39ae:	e8 1d 4b 00 00       	call   84d0 <fibril_mutex_lock>
    39b3:	a1 2c 0d 02 00       	mov    0x20d2c,%eax
    39b8:	85 c0                	test   %eax,%eax
    39ba:	0f 84 d8 00 00 00    	je     3a98 <loc_id_probe+0x158>
    39c0:	c7 04 24 ac 0a 02 00 	movl   $0x20aac,(%esp)
    39c7:	e8 24 4c 00 00       	call   85f0 <fibril_mutex_unlock>
    39cc:	a1 30 0d 02 00       	mov    0x20d30,%eax
    39d1:	89 04 24             	mov    %eax,(%esp)
    39d4:	e8 47 0e 01 00       	call   14820 <async_exchange_begin>
    39d9:	c7 44 24 28 00 00 00 	movl   $0x0,0x28(%esp)
    39e0:	00 
    39e1:	89 c3                	mov    %eax,%ebx
    39e3:	8d 45 f4             	lea    -0xc(%ebp),%eax
    39e6:	89 44 24 18          	mov    %eax,0x18(%esp)
    39ea:	8b 45 08             	mov    0x8(%ebp),%eax
    39ed:	c7 44 24 24 00 00 00 	movl   $0x0,0x24(%esp)
    39f4:	00 
    39f5:	c7 44 24 20 00 00 00 	movl   $0x0,0x20(%esp)
    39fc:	00 
    39fd:	c7 44 24 1c 00 00 00 	movl   $0x0,0x1c(%esp)
    3a04:	00 
    3a05:	c7 44 24 14 00 00 00 	movl   $0x0,0x14(%esp)
    3a0c:	00 
    3a0d:	c7 44 24 10 00 00 00 	movl   $0x0,0x10(%esp)
    3a14:	00 
    3a15:	c7 44 24 0c 00 00 00 	movl   $0x0,0xc(%esp)
    3a1c:	00 
    3a1d:	89 44 24 08          	mov    %eax,0x8(%esp)
    3a21:	c7 44 24 04 0d 04 00 	movl   $0x40d,0x4(%esp)
    3a28:	00 
    3a29:	89 1c 24             	mov    %ebx,(%esp)
    3a2c:	e8 9f fd 00 00       	call   137d0 <async_req_fast>
    3a31:	89 1c 24             	mov    %ebx,(%esp)
    3a34:	89 c6                	mov    %eax,%esi
    3a36:	e8 55 11 01 00       	call   14b90 <async_exchange_end>
    3a3b:	31 c0                	xor    %eax,%eax
    3a3d:	85 f6                	test   %esi,%esi
    3a3f:	75 03                	jne    3a44 <loc_id_probe+0x104>
    3a41:	8b 45 f4             	mov    -0xc(%ebp),%eax
    3a44:	83 c4 40             	add    $0x40,%esp
    3a47:	5b                   	pop    %ebx
    3a48:	5e                   	pop    %esi
    3a49:	5d                   	pop    %ebp
    3a4a:	c3                   	ret    
    3a4b:	90                   	nop
    3a4c:	8d 74 26 00          	lea    0x0(%esi,%eiz,1),%esi
    3a50:	85 db                	test   %ebx,%ebx
    3a52:	0f 84 24 ff ff ff    	je     397c <loc_id_probe+0x3c>
    3a58:	89 1d 30 0d 02 00    	mov    %ebx,0x20d30
    3a5e:	e9 19 ff ff ff       	jmp    397c <loc_id_probe+0x3c>
    3a63:	90                   	nop
    3a64:	8d 74 26 00          	lea    0x0(%esi,%eiz,1),%esi
    3a68:	c7 44 24 0c 00 00 00 	movl   $0x0,0xc(%esp)
    3a6f:	00 
    3a70:	c7 44 24 08 02 00 00 	movl   $0x2,0x8(%esp)
    3a77:	00 
    3a78:	c7 44 24 04 6c 6f 63 	movl   $0x20636f6c,0x4(%esp)
    3a7f:	20 
    3a80:	c7 04 24 02 00 00 00 	movl   $0x2,(%esp)
    3a87:	e8 e4 e0 00 00       	call   11b70 <service_connect_blocking>
    3a8c:	a3 30 0d 02 00       	mov    %eax,0x20d30
    3a91:	e9 c3 fe ff ff       	jmp    3959 <loc_id_probe+0x19>
    3a96:	66 90                	xchg   %ax,%ax
    3a98:	85 db                	test   %ebx,%ebx
    3a9a:	0f 84 20 ff ff ff    	je     39c0 <loc_id_probe+0x80>
    3aa0:	89 1d 2c 0d 02 00    	mov    %ebx,0x20d2c
    3aa6:	e9 15 ff ff ff       	jmp    39c0 <loc_id_probe+0x80>
    3aab:	90                   	nop
    3aac:	8d 74 26 00          	lea    0x0(%esi,%eiz,1),%esi

00003ab0 <loc_service_connect>:
    3ab0:	55                   	push   %ebp
    3ab1:	89 e5                	mov    %esp,%ebp
    3ab3:	83 ec 18             	sub    $0x18,%esp
    3ab6:	8b 45 08             	mov    0x8(%ebp),%eax
    3ab9:	8b 55 0c             	mov    0xc(%ebp),%edx
    3abc:	f6 45 10 01          	testb  $0x1,0x10(%ebp)
    3ac0:	89 54 24 0c          	mov    %edx,0xc(%esp)
    3ac4:	c7 44 24 08 03 00 00 	movl   $0x3,0x8(%esp)
    3acb:	00 
    3acc:	c7 44 24 04 6c 6f 63 	movl   $0x20636f6c,0x4(%esp)
    3ad3:	20 
    3ad4:	89 04 24             	mov    %eax,(%esp)
    3ad7:	75 07                	jne    3ae0 <loc_service_connect+0x30>
    3ad9:	e8 12 e0 00 00       	call   11af0 <service_connect>
    3ade:	c9                   	leave  
    3adf:	c3                   	ret    
    3ae0:	e8 8b e0 00 00       	call   11b70 <service_connect_blocking>
    3ae5:	c9                   	leave  
    3ae6:	c3                   	ret    
    3ae7:	89 f6                	mov    %esi,%esi
    3ae9:	8d bc 27 00 00 00 00 	lea    0x0(%edi,%eiz,1),%edi

00003af0 <loc_null_create>:
    3af0:	55                   	push   %ebp
    3af1:	89 e5                	mov    %esp,%ebp
    3af3:	56                   	push   %esi
    3af4:	53                   	push   %ebx
    3af5:	83 ec 40             	sub    $0x40,%esp
    3af8:	c7 04 24 9c 0a 02 00 	movl   $0x20a9c,(%esp)
    3aff:	e8 cc 49 00 00       	call   84d0 <fibril_mutex_lock>
    3b04:	a1 30 0d 02 00       	mov    0x20d30,%eax
    3b09:	85 c0                	test   %eax,%eax
    3b0b:	75 3a                	jne    3b47 <loc_null_create+0x57>
    3b0d:	c7 04 24 ac 0a 02 00 	movl   $0x20aac,(%esp)
    3b14:	8b 1d 2c 0d 02 00    	mov    0x20d2c,%ebx
    3b1a:	e8 b1 49 00 00       	call   84d0 <fibril_mutex_lock>
    3b1f:	8b 0d 30 0d 02 00    	mov    0x20d30,%ecx
    3b25:	85 c9                	test   %ecx,%ecx
    3b27:	0f 84 d3 00 00 00    	je     3c00 <loc_null_create+0x110>
    3b2d:	c7 04 24 ac 0a 02 00 	movl   $0x20aac,(%esp)
    3b34:	e8 b7 4a 00 00       	call   85f0 <fibril_mutex_unlock>
    3b39:	8b 15 30 0d 02 00    	mov    0x20d30,%edx
    3b3f:	85 d2                	test   %edx,%edx
    3b41:	0f 84 d1 00 00 00    	je     3c18 <loc_null_create+0x128>
    3b47:	c7 04 24 9c 0a 02 00 	movl   $0x20a9c,(%esp)
    3b4e:	e8 9d 4a 00 00       	call   85f0 <fibril_mutex_unlock>
    3b53:	c7 04 24 ac 0a 02 00 	movl   $0x20aac,(%esp)
    3b5a:	8b 1d 30 0d 02 00    	mov    0x20d30,%ebx
    3b60:	e8 6b 49 00 00       	call   84d0 <fibril_mutex_lock>
    3b65:	a1 2c 0d 02 00       	mov    0x20d2c,%eax
    3b6a:	85 c0                	test   %eax,%eax
    3b6c:	0f 84 d6 00 00 00    	je     3c48 <loc_null_create+0x158>
    3b72:	c7 04 24 ac 0a 02 00 	movl   $0x20aac,(%esp)
    3b79:	e8 72 4a 00 00       	call   85f0 <fibril_mutex_unlock>
    3b7e:	a1 30 0d 02 00       	mov    0x20d30,%eax
    3b83:	89 04 24             	mov    %eax,(%esp)
    3b86:	e8 95 0c 01 00       	call   14820 <async_exchange_begin>
    3b8b:	c7 44 24 28 00 00 00 	movl   $0x0,0x28(%esp)
    3b92:	00 
    3b93:	89 c3                	mov    %eax,%ebx
    3b95:	8d 45 f4             	lea    -0xc(%ebp),%eax
    3b98:	c7 44 24 24 00 00 00 	movl   $0x0,0x24(%esp)
    3b9f:	00 
    3ba0:	c7 44 24 20 00 00 00 	movl   $0x0,0x20(%esp)
    3ba7:	00 
    3ba8:	c7 44 24 1c 00 00 00 	movl   $0x0,0x1c(%esp)
    3baf:	00 
    3bb0:	89 44 24 18          	mov    %eax,0x18(%esp)
    3bb4:	c7 44 24 14 00 00 00 	movl   $0x0,0x14(%esp)
    3bbb:	00 
    3bbc:	c7 44 24 10 00 00 00 	movl   $0x0,0x10(%esp)
    3bc3:	00 
    3bc4:	c7 44 24 0c 00 00 00 	movl   $0x0,0xc(%esp)
    3bcb:	00 
    3bcc:	c7 44 24 08 00 00 00 	movl   $0x0,0x8(%esp)
    3bd3:	00 
    3bd4:	c7 44 24 04 0e 04 00 	movl   $0x40e,0x4(%esp)
    3bdb:	00 
    3bdc:	89 1c 24             	mov    %ebx,(%esp)
    3bdf:	e8 ec fb 00 00       	call   137d0 <async_req_fast>
    3be4:	89 1c 24             	mov    %ebx,(%esp)
    3be7:	89 c6                	mov    %eax,%esi
    3be9:	e8 a2 0f 01 00       	call   14b90 <async_exchange_end>
    3bee:	85 f6                	test   %esi,%esi
    3bf0:	75 69                	jne    3c5b <loc_null_create+0x16b>
    3bf2:	8b 45 f4             	mov    -0xc(%ebp),%eax
    3bf5:	83 c4 40             	add    $0x40,%esp
    3bf8:	5b                   	pop    %ebx
    3bf9:	5e                   	pop    %esi
    3bfa:	5d                   	pop    %ebp
    3bfb:	c3                   	ret    
    3bfc:	8d 74 26 00          	lea    0x0(%esi,%eiz,1),%esi
    3c00:	85 db                	test   %ebx,%ebx
    3c02:	0f 84 25 ff ff ff    	je     3b2d <loc_null_create+0x3d>
    3c08:	89 1d 30 0d 02 00    	mov    %ebx,0x20d30
    3c0e:	e9 1a ff ff ff       	jmp    3b2d <loc_null_create+0x3d>
    3c13:	90                   	nop
    3c14:	8d 74 26 00          	lea    0x0(%esi,%eiz,1),%esi
    3c18:	c7 44 24 0c 00 00 00 	movl   $0x0,0xc(%esp)
    3c1f:	00 
    3c20:	c7 44 24 08 02 00 00 	movl   $0x2,0x8(%esp)
    3c27:	00 
    3c28:	c7 44 24 04 6c 6f 63 	movl   $0x20636f6c,0x4(%esp)
    3c2f:	20 
    3c30:	c7 04 24 02 00 00 00 	movl   $0x2,(%esp)
    3c37:	e8 34 df 00 00       	call   11b70 <service_connect_blocking>
    3c3c:	a3 30 0d 02 00       	mov    %eax,0x20d30
    3c41:	e9 c3 fe ff ff       	jmp    3b09 <loc_null_create+0x19>
    3c46:	66 90                	xchg   %ax,%ax
    3c48:	85 db                	test   %ebx,%ebx
    3c4a:	0f 84 22 ff ff ff    	je     3b72 <loc_null_create+0x82>
    3c50:	89 1d 2c 0d 02 00    	mov    %ebx,0x20d2c
    3c56:	e9 17 ff ff ff       	jmp    3b72 <loc_null_create+0x82>
    3c5b:	83 c8 ff             	or     $0xffffffff,%eax
    3c5e:	eb 95                	jmp    3bf5 <loc_null_create+0x105>

00003c60 <loc_null_destroy>:
    3c60:	55                   	push   %ebp
    3c61:	89 e5                	mov    %esp,%ebp
    3c63:	56                   	push   %esi
    3c64:	53                   	push   %ebx
    3c65:	83 ec 30             	sub    $0x30,%esp
    3c68:	8b 75 08             	mov    0x8(%ebp),%esi
    3c6b:	c7 04 24 9c 0a 02 00 	movl   $0x20a9c,(%esp)
    3c72:	e8 59 48 00 00       	call   84d0 <fibril_mutex_lock>
    3c77:	a1 30 0d 02 00       	mov    0x20d30,%eax
    3c7c:	85 c0                	test   %eax,%eax
    3c7e:	75 38                	jne    3cb8 <loc_null_destroy+0x58>
    3c80:	c7 04 24 ac 0a 02 00 	movl   $0x20aac,(%esp)
    3c87:	8b 1d 2c 0d 02 00    	mov    0x20d2c,%ebx
    3c8d:	e8 3e 48 00 00       	call   84d0 <fibril_mutex_lock>
    3c92:	a1 30 0d 02 00       	mov    0x20d30,%eax
    3c97:	85 c0                	test   %eax,%eax
    3c99:	0f 84 c1 00 00 00    	je     3d60 <loc_null_destroy+0x100>
    3c9f:	c7 04 24 ac 0a 02 00 	movl   $0x20aac,(%esp)
    3ca6:	e8 45 49 00 00       	call   85f0 <fibril_mutex_unlock>
    3cab:	a1 30 0d 02 00       	mov    0x20d30,%eax
    3cb0:	85 c0                	test   %eax,%eax
    3cb2:	0f 84 c0 00 00 00    	je     3d78 <loc_null_destroy+0x118>
    3cb8:	c7 04 24 9c 0a 02 00 	movl   $0x20a9c,(%esp)
    3cbf:	e8 2c 49 00 00       	call   85f0 <fibril_mutex_unlock>
    3cc4:	c7 04 24 ac 0a 02 00 	movl   $0x20aac,(%esp)
    3ccb:	8b 1d 30 0d 02 00    	mov    0x20d30,%ebx
    3cd1:	e8 fa 47 00 00       	call   84d0 <fibril_mutex_lock>
    3cd6:	a1 2c 0d 02 00       	mov    0x20d2c,%eax
    3cdb:	85 c0                	test   %eax,%eax
    3cdd:	0f 84 c5 00 00 00    	je     3da8 <loc_null_destroy+0x148>
    3ce3:	c7 04 24 ac 0a 02 00 	movl   $0x20aac,(%esp)
    3cea:	e8 01 49 00 00       	call   85f0 <fibril_mutex_unlock>
    3cef:	a1 30 0d 02 00       	mov    0x20d30,%eax
    3cf4:	89 04 24             	mov    %eax,(%esp)
    3cf7:	e8 24 0b 01 00       	call   14820 <async_exchange_begin>
    3cfc:	89 74 24 08          	mov    %esi,0x8(%esp)
    3d00:	c7 44 24 28 00 00 00 	movl   $0x0,0x28(%esp)
    3d07:	00 
    3d08:	c7 44 24 24 00 00 00 	movl   $0x0,0x24(%esp)
    3d0f:	00 
    3d10:	c7 44 24 20 00 00 00 	movl   $0x0,0x20(%esp)
    3d17:	00 
    3d18:	c7 44 24 1c 00 00 00 	movl   $0x0,0x1c(%esp)
    3d1f:	00 
    3d20:	c7 44 24 18 00 00 00 	movl   $0x0,0x18(%esp)
    3d27:	00 
    3d28:	c7 44 24 14 00 00 00 	movl   $0x0,0x14(%esp)
    3d2f:	00 
    3d30:	c7 44 24 10 00 00 00 	movl   $0x0,0x10(%esp)
    3d37:	00 
    3d38:	c7 44 24 0c 00 00 00 	movl   $0x0,0xc(%esp)
    3d3f:	00 
    3d40:	c7 44 24 04 0f 04 00 	movl   $0x40f,0x4(%esp)
    3d47:	00 
    3d48:	89 04 24             	mov    %eax,(%esp)
    3d4b:	89 c3                	mov    %eax,%ebx
    3d4d:	e8 7e fa 00 00       	call   137d0 <async_req_fast>
    3d52:	89 5d 08             	mov    %ebx,0x8(%ebp)
    3d55:	83 c4 30             	add    $0x30,%esp
    3d58:	5b                   	pop    %ebx
    3d59:	5e                   	pop    %esi
    3d5a:	5d                   	pop    %ebp
    3d5b:	e9 30 0e 01 00       	jmp    14b90 <async_exchange_end>
    3d60:	85 db                	test   %ebx,%ebx
    3d62:	0f 84 37 ff ff ff    	je     3c9f <loc_null_destroy+0x3f>
    3d68:	89 1d 30 0d 02 00    	mov    %ebx,0x20d30
    3d6e:	e9 2c ff ff ff       	jmp    3c9f <loc_null_destroy+0x3f>
    3d73:	90                   	nop
    3d74:	8d 74 26 00          	lea    0x0(%esi,%eiz,1),%esi
    3d78:	c7 44 24 0c 00 00 00 	movl   $0x0,0xc(%esp)
    3d7f:	00 
    3d80:	c7 44 24 08 02 00 00 	movl   $0x2,0x8(%esp)
    3d87:	00 
    3d88:	c7 44 24 04 6c 6f 63 	movl   $0x20636f6c,0x4(%esp)
    3d8f:	20 
    3d90:	c7 04 24 02 00 00 00 	movl   $0x2,(%esp)
    3d97:	e8 d4 dd 00 00       	call   11b70 <service_connect_blocking>
    3d9c:	a3 30 0d 02 00       	mov    %eax,0x20d30
    3da1:	e9 d6 fe ff ff       	jmp    3c7c <loc_null_destroy+0x1c>
    3da6:	66 90                	xchg   %ax,%ax
    3da8:	85 db                	test   %ebx,%ebx
    3daa:	0f 84 33 ff ff ff    	je     3ce3 <loc_null_destroy+0x83>
    3db0:	89 1d 2c 0d 02 00    	mov    %ebx,0x20d2c
    3db6:	e9 28 ff ff ff       	jmp    3ce3 <loc_null_destroy+0x83>
    3dbb:	90                   	nop
    3dbc:	8d 74 26 00          	lea    0x0(%esi,%eiz,1),%esi

00003dc0 <loc_service_add_to_cat>:
    3dc0:	55                   	push   %ebp
    3dc1:	89 e5                	mov    %esp,%ebp
    3dc3:	53                   	push   %ebx
    3dc4:	83 ec 44             	sub    $0x44,%esp
    3dc7:	c7 04 24 7c 0a 02 00 	movl   $0x20a7c,(%esp)
    3dce:	e8 fd 46 00 00       	call   84d0 <fibril_mutex_lock>
    3dd3:	a1 28 0d 02 00       	mov    0x20d28,%eax
    3dd8:	85 c0                	test   %eax,%eax
    3dda:	75 38                	jne    3e14 <loc_service_add_to_cat+0x54>
    3ddc:	c7 04 24 8c 0a 02 00 	movl   $0x20a8c,(%esp)
    3de3:	8b 1d 24 0d 02 00    	mov    0x20d24,%ebx
    3de9:	e8 e2 46 00 00       	call   84d0 <fibril_mutex_lock>
    3dee:	a1 28 0d 02 00       	mov    0x20d28,%eax
    3df3:	85 c0                	test   %eax,%eax
    3df5:	0f 84 cd 00 00 00    	je     3ec8 <loc_service_add_to_cat+0x108>
    3dfb:	c7 04 24 8c 0a 02 00 	movl   $0x20a8c,(%esp)
    3e02:	e8 e9 47 00 00       	call   85f0 <fibril_mutex_unlock>
    3e07:	a1 28 0d 02 00       	mov    0x20d28,%eax
    3e0c:	85 c0                	test   %eax,%eax
    3e0e:	0f 84 cc 00 00 00    	je     3ee0 <loc_service_add_to_cat+0x120>
    3e14:	c7 04 24 7c 0a 02 00 	movl   $0x20a7c,(%esp)
    3e1b:	e8 d0 47 00 00       	call   85f0 <fibril_mutex_unlock>
    3e20:	c7 04 24 8c 0a 02 00 	movl   $0x20a8c,(%esp)
    3e27:	8b 1d 28 0d 02 00    	mov    0x20d28,%ebx
    3e2d:	e8 9e 46 00 00       	call   84d0 <fibril_mutex_lock>
    3e32:	a1 24 0d 02 00       	mov    0x20d24,%eax
    3e37:	85 c0                	test   %eax,%eax
    3e39:	0f 84 d1 00 00 00    	je     3f10 <loc_service_add_to_cat+0x150>
    3e3f:	c7 04 24 8c 0a 02 00 	movl   $0x20a8c,(%esp)
    3e46:	e8 a5 47 00 00       	call   85f0 <fibril_mutex_unlock>
    3e4b:	a1 28 0d 02 00       	mov    0x20d28,%eax
    3e50:	89 04 24             	mov    %eax,(%esp)
    3e53:	e8 c8 09 01 00       	call   14820 <async_exchange_begin>
    3e58:	c7 44 24 28 00 00 00 	movl   $0x0,0x28(%esp)
    3e5f:	00 
    3e60:	89 c3                	mov    %eax,%ebx
    3e62:	8b 45 0c             	mov    0xc(%ebp),%eax
    3e65:	89 44 24 0c          	mov    %eax,0xc(%esp)
    3e69:	8b 45 08             	mov    0x8(%ebp),%eax
    3e6c:	89 1c 24             	mov    %ebx,(%esp)
    3e6f:	c7 44 24 24 00 00 00 	movl   $0x0,0x24(%esp)
    3e76:	00 
    3e77:	c7 44 24 20 00 00 00 	movl   $0x0,0x20(%esp)
    3e7e:	00 
    3e7f:	c7 44 24 1c 00 00 00 	movl   $0x0,0x1c(%esp)
    3e86:	00 
    3e87:	c7 44 24 18 00 00 00 	movl   $0x0,0x18(%esp)
    3e8e:	00 
    3e8f:	c7 44 24 14 00 00 00 	movl   $0x0,0x14(%esp)
    3e96:	00 
    3e97:	c7 44 24 10 00 00 00 	movl   $0x0,0x10(%esp)
    3e9e:	00 
    3e9f:	89 44 24 08          	mov    %eax,0x8(%esp)
    3ea3:	c7 44 24 04 02 04 00 	movl   $0x402,0x4(%esp)
    3eaa:	00 
    3eab:	e8 20 f9 00 00       	call   137d0 <async_req_fast>
    3eb0:	89 1c 24             	mov    %ebx,(%esp)
    3eb3:	89 45 f4             	mov    %eax,-0xc(%ebp)
    3eb6:	e8 d5 0c 01 00       	call   14b90 <async_exchange_end>
    3ebb:	8b 45 f4             	mov    -0xc(%ebp),%eax
    3ebe:	83 c4 44             	add    $0x44,%esp
    3ec1:	5b                   	pop    %ebx
    3ec2:	5d                   	pop    %ebp
    3ec3:	c3                   	ret    
    3ec4:	8d 74 26 00          	lea    0x0(%esi,%eiz,1),%esi
    3ec8:	85 db                	test   %ebx,%ebx
    3eca:	0f 84 2b ff ff ff    	je     3dfb <loc_service_add_to_cat+0x3b>
    3ed0:	89 1d 28 0d 02 00    	mov    %ebx,0x20d28
    3ed6:	e9 20 ff ff ff       	jmp    3dfb <loc_service_add_to_cat+0x3b>
    3edb:	90                   	nop
    3edc:	8d 74 26 00          	lea    0x0(%esi,%eiz,1),%esi
    3ee0:	c7 44 24 0c 00 00 00 	movl   $0x0,0xc(%esp)
    3ee7:	00 
    3ee8:	c7 44 24 08 01 00 00 	movl   $0x1,0x8(%esp)
    3eef:	00 
    3ef0:	c7 44 24 04 6c 6f 63 	movl   $0x20636f6c,0x4(%esp)
    3ef7:	20 
    3ef8:	c7 04 24 02 00 00 00 	movl   $0x2,(%esp)
    3eff:	e8 6c dc 00 00       	call   11b70 <service_connect_blocking>
    3f04:	a3 28 0d 02 00       	mov    %eax,0x20d28
    3f09:	e9 ca fe ff ff       	jmp    3dd8 <loc_service_add_to_cat+0x18>
    3f0e:	66 90                	xchg   %ax,%ax
    3f10:	85 db                	test   %ebx,%ebx
    3f12:	0f 84 27 ff ff ff    	je     3e3f <loc_service_add_to_cat+0x7f>
    3f18:	89 1d 24 0d 02 00    	mov    %ebx,0x20d24
    3f1e:	e9 1c ff ff ff       	jmp    3e3f <loc_service_add_to_cat+0x7f>
    3f23:	8d b6 00 00 00 00    	lea    0x0(%esi),%esi
    3f29:	8d bc 27 00 00 00 00 	lea    0x0(%edi,%eiz,1),%edi

00003f30 <loc_count_namespaces>:
    3f30:	55                   	push   %ebp
    3f31:	89 e5                	mov    %esp,%ebp
    3f33:	56                   	push   %esi
    3f34:	53                   	push   %ebx
    3f35:	83 ec 40             	sub    $0x40,%esp
    3f38:	c7 04 24 9c 0a 02 00 	movl   $0x20a9c,(%esp)
    3f3f:	e8 8c 45 00 00       	call   84d0 <fibril_mutex_lock>
    3f44:	a1 30 0d 02 00       	mov    0x20d30,%eax
    3f49:	85 c0                	test   %eax,%eax
    3f4b:	75 3a                	jne    3f87 <loc_count_namespaces+0x57>
    3f4d:	c7 04 24 ac 0a 02 00 	movl   $0x20aac,(%esp)
    3f54:	8b 1d 2c 0d 02 00    	mov    0x20d2c,%ebx
    3f5a:	e8 71 45 00 00       	call   84d0 <fibril_mutex_lock>
    3f5f:	8b 35 30 0d 02 00    	mov    0x20d30,%esi
    3f65:	85 f6                	test   %esi,%esi
    3f67:	0f 84 d3 00 00 00    	je     4040 <loc_count_namespaces+0x110>
    3f6d:	c7 04 24 ac 0a 02 00 	movl   $0x20aac,(%esp)
    3f74:	e8 77 46 00 00       	call   85f0 <fibril_mutex_unlock>
    3f79:	8b 0d 30 0d 02 00    	mov    0x20d30,%ecx
    3f7f:	85 c9                	test   %ecx,%ecx
    3f81:	0f 84 d1 00 00 00    	je     4058 <loc_count_namespaces+0x128>
    3f87:	c7 04 24 9c 0a 02 00 	movl   $0x20a9c,(%esp)
    3f8e:	e8 5d 46 00 00       	call   85f0 <fibril_mutex_unlock>
    3f93:	c7 04 24 ac 0a 02 00 	movl   $0x20aac,(%esp)
    3f9a:	8b 1d 30 0d 02 00    	mov    0x20d30,%ebx
    3fa0:	e8 2b 45 00 00       	call   84d0 <fibril_mutex_lock>
    3fa5:	8b 15 2c 0d 02 00    	mov    0x20d2c,%edx
    3fab:	85 d2                	test   %edx,%edx
    3fad:	0f 84 d5 00 00 00    	je     4088 <loc_count_namespaces+0x158>
    3fb3:	c7 04 24 ac 0a 02 00 	movl   $0x20aac,(%esp)
    3fba:	31 f6                	xor    %esi,%esi
    3fbc:	e8 2f 46 00 00       	call   85f0 <fibril_mutex_unlock>
    3fc1:	a1 30 0d 02 00       	mov    0x20d30,%eax
    3fc6:	89 04 24             	mov    %eax,(%esp)
    3fc9:	e8 52 08 01 00       	call   14820 <async_exchange_begin>
    3fce:	c7 44 24 28 00 00 00 	movl   $0x0,0x28(%esp)
    3fd5:	00 
    3fd6:	89 c3                	mov    %eax,%ebx
    3fd8:	8d 45 f4             	lea    -0xc(%ebp),%eax
    3fdb:	c7 44 24 24 00 00 00 	movl   $0x0,0x24(%esp)
    3fe2:	00 
    3fe3:	c7 44 24 20 00 00 00 	movl   $0x0,0x20(%esp)
    3fea:	00 
    3feb:	c7 44 24 1c 00 00 00 	movl   $0x0,0x1c(%esp)
    3ff2:	00 
    3ff3:	89 44 24 18          	mov    %eax,0x18(%esp)
    3ff7:	c7 44 24 14 00 00 00 	movl   $0x0,0x14(%esp)
    3ffe:	00 
    3fff:	c7 44 24 10 00 00 00 	movl   $0x0,0x10(%esp)
    4006:	00 
    4007:	c7 44 24 0c 00 00 00 	movl   $0x0,0xc(%esp)
    400e:	00 
    400f:	c7 44 24 08 00 00 00 	movl   $0x0,0x8(%esp)
    4016:	00 
    4017:	c7 44 24 04 10 04 00 	movl   $0x410,0x4(%esp)
    401e:	00 
    401f:	89 1c 24             	mov    %ebx,(%esp)
    4022:	e8 a9 f7 00 00       	call   137d0 <async_req_fast>
    4027:	85 c0                	test   %eax,%eax
    4029:	75 03                	jne    402e <loc_count_namespaces+0xfe>
    402b:	8b 75 f4             	mov    -0xc(%ebp),%esi
    402e:	89 1c 24             	mov    %ebx,(%esp)
    4031:	e8 5a 0b 01 00       	call   14b90 <async_exchange_end>
    4036:	83 c4 40             	add    $0x40,%esp
    4039:	89 f0                	mov    %esi,%eax
    403b:	5b                   	pop    %ebx
    403c:	5e                   	pop    %esi
    403d:	5d                   	pop    %ebp
    403e:	c3                   	ret    
    403f:	90                   	nop
    4040:	85 db                	test   %ebx,%ebx
    4042:	0f 84 25 ff ff ff    	je     3f6d <loc_count_namespaces+0x3d>
    4048:	89 1d 30 0d 02 00    	mov    %ebx,0x20d30
    404e:	e9 1a ff ff ff       	jmp    3f6d <loc_count_namespaces+0x3d>
    4053:	90                   	nop
    4054:	8d 74 26 00          	lea    0x0(%esi,%eiz,1),%esi
    4058:	c7 44 24 0c 00 00 00 	movl   $0x0,0xc(%esp)
    405f:	00 
    4060:	c7 44 24 08 02 00 00 	movl   $0x2,0x8(%esp)
    4067:	00 
    4068:	c7 44 24 04 6c 6f 63 	movl   $0x20636f6c,0x4(%esp)
    406f:	20 
    4070:	c7 04 24 02 00 00 00 	movl   $0x2,(%esp)
    4077:	e8 f4 da 00 00       	call   11b70 <service_connect_blocking>
    407c:	a3 30 0d 02 00       	mov    %eax,0x20d30
    4081:	e9 c3 fe ff ff       	jmp    3f49 <loc_count_namespaces+0x19>
    4086:	66 90                	xchg   %ax,%ax
    4088:	85 db                	test   %ebx,%ebx
    408a:	0f 84 23 ff ff ff    	je     3fb3 <loc_count_namespaces+0x83>
    4090:	89 1d 2c 0d 02 00    	mov    %ebx,0x20d2c
    4096:	e9 18 ff ff ff       	jmp    3fb3 <loc_count_namespaces+0x83>
    409b:	90                   	nop
    409c:	8d 74 26 00          	lea    0x0(%esi,%eiz,1),%esi

000040a0 <loc_count_services>:
    40a0:	55                   	push   %ebp
    40a1:	89 e5                	mov    %esp,%ebp
    40a3:	56                   	push   %esi
    40a4:	53                   	push   %ebx
    40a5:	83 ec 40             	sub    $0x40,%esp
    40a8:	c7 04 24 9c 0a 02 00 	movl   $0x20a9c,(%esp)
    40af:	e8 1c 44 00 00       	call   84d0 <fibril_mutex_lock>
    40b4:	a1 30 0d 02 00       	mov    0x20d30,%eax
    40b9:	85 c0                	test   %eax,%eax
    40bb:	75 38                	jne    40f5 <loc_count_services+0x55>
    40bd:	c7 04 24 ac 0a 02 00 	movl   $0x20aac,(%esp)
    40c4:	8b 1d 2c 0d 02 00    	mov    0x20d2c,%ebx
    40ca:	e8 01 44 00 00       	call   84d0 <fibril_mutex_lock>
    40cf:	a1 30 0d 02 00       	mov    0x20d30,%eax
    40d4:	85 c0                	test   %eax,%eax
    40d6:	0f 84 d4 00 00 00    	je     41b0 <loc_count_services+0x110>
    40dc:	c7 04 24 ac 0a 02 00 	movl   $0x20aac,(%esp)
    40e3:	e8 08 45 00 00       	call   85f0 <fibril_mutex_unlock>
    40e8:	a1 30 0d 02 00       	mov    0x20d30,%eax
    40ed:	85 c0                	test   %eax,%eax
    40ef:	0f 84 d3 00 00 00    	je     41c8 <loc_count_services+0x128>
    40f5:	c7 04 24 9c 0a 02 00 	movl   $0x20a9c,(%esp)
    40fc:	e8 ef 44 00 00       	call   85f0 <fibril_mutex_unlock>
    4101:	c7 04 24 ac 0a 02 00 	movl   $0x20aac,(%esp)
    4108:	8b 1d 30 0d 02 00    	mov    0x20d30,%ebx
    410e:	e8 bd 43 00 00       	call   84d0 <fibril_mutex_lock>
    4113:	a1 2c 0d 02 00       	mov    0x20d2c,%eax
    4118:	85 c0                	test   %eax,%eax
    411a:	0f 84 d8 00 00 00    	je     41f8 <loc_count_services+0x158>
    4120:	c7 04 24 ac 0a 02 00 	movl   $0x20aac,(%esp)
    4127:	31 f6                	xor    %esi,%esi
    4129:	e8 c2 44 00 00       	call   85f0 <fibril_mutex_unlock>
    412e:	a1 30 0d 02 00       	mov    0x20d30,%eax
    4133:	89 04 24             	mov    %eax,(%esp)
    4136:	e8 e5 06 01 00       	call   14820 <async_exchange_begin>
    413b:	c7 44 24 28 00 00 00 	movl   $0x0,0x28(%esp)
    4142:	00 
    4143:	89 c3                	mov    %eax,%ebx
    4145:	8d 45 f4             	lea    -0xc(%ebp),%eax
    4148:	89 44 24 18          	mov    %eax,0x18(%esp)
    414c:	8b 45 08             	mov    0x8(%ebp),%eax
    414f:	c7 44 24 24 00 00 00 	movl   $0x0,0x24(%esp)
    4156:	00 
    4157:	c7 44 24 20 00 00 00 	movl   $0x0,0x20(%esp)
    415e:	00 
    415f:	c7 44 24 1c 00 00 00 	movl   $0x0,0x1c(%esp)
    4166:	00 
    4167:	c7 44 24 14 00 00 00 	movl   $0x0,0x14(%esp)
    416e:	00 
    416f:	c7 44 24 10 00 00 00 	movl   $0x0,0x10(%esp)
    4176:	00 
    4177:	c7 44 24 0c 00 00 00 	movl   $0x0,0xc(%esp)
    417e:	00 
    417f:	89 44 24 08          	mov    %eax,0x8(%esp)
    4183:	c7 44 24 04 11 04 00 	movl   $0x411,0x4(%esp)
    418a:	00 
    418b:	89 1c 24             	mov    %ebx,(%esp)
    418e:	e8 3d f6 00 00       	call   137d0 <async_req_fast>
    4193:	85 c0                	test   %eax,%eax
    4195:	75 03                	jne    419a <loc_count_services+0xfa>
    4197:	8b 75 f4             	mov    -0xc(%ebp),%esi
    419a:	89 1c 24             	mov    %ebx,(%esp)
    419d:	e8 ee 09 01 00       	call   14b90 <async_exchange_end>
    41a2:	83 c4 40             	add    $0x40,%esp
    41a5:	89 f0                	mov    %esi,%eax
    41a7:	5b                   	pop    %ebx
    41a8:	5e                   	pop    %esi
    41a9:	5d                   	pop    %ebp
    41aa:	c3                   	ret    
    41ab:	90                   	nop
    41ac:	8d 74 26 00          	lea    0x0(%esi,%eiz,1),%esi
    41b0:	85 db                	test   %ebx,%ebx
    41b2:	0f 84 24 ff ff ff    	je     40dc <loc_count_services+0x3c>
    41b8:	89 1d 30 0d 02 00    	mov    %ebx,0x20d30
    41be:	e9 19 ff ff ff       	jmp    40dc <loc_count_services+0x3c>
    41c3:	90                   	nop
    41c4:	8d 74 26 00          	lea    0x0(%esi,%eiz,1),%esi
    41c8:	c7 44 24 0c 00 00 00 	movl   $0x0,0xc(%esp)
    41cf:	00 
    41d0:	c7 44 24 08 02 00 00 	movl   $0x2,0x8(%esp)
    41d7:	00 
    41d8:	c7 44 24 04 6c 6f 63 	movl   $0x20636f6c,0x4(%esp)
    41df:	20 
    41e0:	c7 04 24 02 00 00 00 	movl   $0x2,(%esp)
    41e7:	e8 84 d9 00 00       	call   11b70 <service_connect_blocking>
    41ec:	a3 30 0d 02 00       	mov    %eax,0x20d30
    41f1:	e9 c3 fe ff ff       	jmp    40b9 <loc_count_services+0x19>
    41f6:	66 90                	xchg   %ax,%ax
    41f8:	85 db                	test   %ebx,%ebx
    41fa:	0f 84 20 ff ff ff    	je     4120 <loc_count_services+0x80>
    4200:	89 1d 2c 0d 02 00    	mov    %ebx,0x20d2c
    4206:	e9 15 ff ff ff       	jmp    4120 <loc_count_services+0x80>
    420b:	90                   	nop
    420c:	8d 74 26 00          	lea    0x0(%esi,%eiz,1),%esi

00004210 <loc_get_namespaces>:
    4210:	55                   	push   %ebp
    4211:	89 e5                	mov    %esp,%ebp
    4213:	57                   	push   %edi
    4214:	56                   	push   %esi
    4215:	53                   	push   %ebx
    4216:	83 ec 7c             	sub    $0x7c,%esp
    4219:	c7 04 24 9c 0a 02 00 	movl   $0x20a9c,(%esp)
    4220:	e8 ab 42 00 00       	call   84d0 <fibril_mutex_lock>
    4225:	a1 30 0d 02 00       	mov    0x20d30,%eax
    422a:	85 c0                	test   %eax,%eax
    422c:	75 3a                	jne    4268 <loc_get_namespaces+0x58>
    422e:	c7 04 24 ac 0a 02 00 	movl   $0x20aac,(%esp)
    4235:	8b 1d 2c 0d 02 00    	mov    0x20d2c,%ebx
    423b:	e8 90 42 00 00       	call   84d0 <fibril_mutex_lock>
    4240:	8b 0d 30 0d 02 00    	mov    0x20d30,%ecx
    4246:	85 c9                	test   %ecx,%ecx
    4248:	0f 84 da 01 00 00    	je     4428 <loc_get_namespaces+0x218>
    424e:	c7 04 24 ac 0a 02 00 	movl   $0x20aac,(%esp)
    4255:	e8 96 43 00 00       	call   85f0 <fibril_mutex_unlock>
    425a:	8b 15 30 0d 02 00    	mov    0x20d30,%edx
    4260:	85 d2                	test   %edx,%edx
    4262:	0f 84 d8 01 00 00    	je     4440 <loc_get_namespaces+0x230>
    4268:	c7 04 24 9c 0a 02 00 	movl   $0x20a9c,(%esp)
    426f:	e8 7c 43 00 00       	call   85f0 <fibril_mutex_unlock>
    4274:	c7 04 24 ac 0a 02 00 	movl   $0x20aac,(%esp)
    427b:	8b 1d 30 0d 02 00    	mov    0x20d30,%ebx
    4281:	e8 4a 42 00 00       	call   84d0 <fibril_mutex_lock>
    4286:	a1 2c 0d 02 00       	mov    0x20d2c,%eax
    428b:	85 c0                	test   %eax,%eax
    428d:	0f 84 fd 01 00 00    	je     4490 <loc_get_namespaces+0x280>
    4293:	c7 04 24 ac 0a 02 00 	movl   $0x20aac,(%esp)
    429a:	e8 51 43 00 00       	call   85f0 <fibril_mutex_unlock>
    429f:	a1 30 0d 02 00       	mov    0x20d30,%eax
    42a4:	89 04 24             	mov    %eax,(%esp)
    42a7:	e8 74 05 01 00       	call   14820 <async_exchange_begin>
    42ac:	c7 44 24 28 00 00 00 	movl   $0x0,0x28(%esp)
    42b3:	00 
    42b4:	89 c6                	mov    %eax,%esi
    42b6:	8d 45 c0             	lea    -0x40(%ebp),%eax
    42b9:	c7 44 24 24 00 00 00 	movl   $0x0,0x24(%esp)
    42c0:	00 
    42c1:	c7 44 24 20 00 00 00 	movl   $0x0,0x20(%esp)
    42c8:	00 
    42c9:	c7 44 24 1c 00 00 00 	movl   $0x0,0x1c(%esp)
    42d0:	00 
    42d1:	89 44 24 18          	mov    %eax,0x18(%esp)
    42d5:	c7 44 24 14 00 00 00 	movl   $0x0,0x14(%esp)
    42dc:	00 
    42dd:	c7 44 24 10 00 00 00 	movl   $0x0,0x10(%esp)
    42e4:	00 
    42e5:	c7 44 24 0c 00 00 00 	movl   $0x0,0xc(%esp)
    42ec:	00 
    42ed:	c7 44 24 08 00 00 00 	movl   $0x0,0x8(%esp)
    42f4:	00 
    42f5:	c7 44 24 04 10 04 00 	movl   $0x410,0x4(%esp)
    42fc:	00 
    42fd:	89 34 24             	mov    %esi,(%esp)
    4300:	e8 cb f4 00 00       	call   137d0 <async_req_fast>
    4305:	85 c0                	test   %eax,%eax
    4307:	0f 85 03 01 00 00    	jne    4410 <loc_get_namespaces+0x200>
    430d:	8b 5d c0             	mov    -0x40(%ebp),%ebx
    4310:	89 34 24             	mov    %esi,(%esp)
    4313:	e8 78 08 01 00       	call   14b90 <async_exchange_end>
    4318:	85 db                	test   %ebx,%ebx
    431a:	0f 84 f8 00 00 00    	je     4418 <loc_get_namespaces+0x208>
    4320:	c7 44 24 04 04 01 00 	movl   $0x104,0x4(%esp)
    4327:	00 
    4328:	89 1c 24             	mov    %ebx,(%esp)
    432b:	e8 50 cf 00 00       	call   11280 <calloc>
    4330:	89 c7                	mov    %eax,%edi
    4332:	85 c0                	test   %eax,%eax
    4334:	0f 84 de 00 00 00    	je     4418 <loc_get_namespaces+0x208>
    433a:	c7 04 24 ac 0a 02 00 	movl   $0x20aac,(%esp)
    4341:	e8 8a 41 00 00       	call   84d0 <fibril_mutex_lock>
    4346:	a1 2c 0d 02 00       	mov    0x20d2c,%eax
    434b:	85 c0                	test   %eax,%eax
    434d:	0f 84 5d 01 00 00    	je     44b0 <loc_get_namespaces+0x2a0>
    4353:	c7 04 24 ac 0a 02 00 	movl   $0x20aac,(%esp)
    435a:	e8 91 42 00 00       	call   85f0 <fibril_mutex_unlock>
    435f:	a1 2c 0d 02 00       	mov    0x20d2c,%eax
    4364:	85 c0                	test   %eax,%eax
    4366:	0f 84 72 01 00 00    	je     44de <loc_get_namespaces+0x2ce>
    436c:	89 04 24             	mov    %eax,(%esp)
    436f:	e8 ac 04 01 00       	call   14820 <async_exchange_begin>
    4374:	89 c6                	mov    %eax,%esi
    4376:	8d 45 c4             	lea    -0x3c(%ebp),%eax
    4379:	c7 44 24 14 00 00 00 	movl   $0x0,0x14(%esp)
    4380:	00 
    4381:	89 44 24 18          	mov    %eax,0x18(%esp)
    4385:	c7 44 24 10 00 00 00 	movl   $0x0,0x10(%esp)
    438c:	00 
    438d:	c7 44 24 0c 00 00 00 	movl   $0x0,0xc(%esp)
    4394:	00 
    4395:	c7 44 24 08 00 00 00 	movl   $0x0,0x8(%esp)
    439c:	00 
    439d:	c7 44 24 04 13 04 00 	movl   $0x413,0x4(%esp)
    43a4:	00 
    43a5:	89 34 24             	mov    %esi,(%esp)
    43a8:	e8 13 ee 00 00       	call   131c0 <async_send_fast>
    43ad:	89 7c 24 04          	mov    %edi,0x4(%esp)
    43b1:	89 45 b4             	mov    %eax,-0x4c(%ebp)
    43b4:	89 d8                	mov    %ebx,%eax
    43b6:	c1 e0 08             	shl    $0x8,%eax
    43b9:	89 34 24             	mov    %esi,(%esp)
    43bc:	8d 04 98             	lea    (%eax,%ebx,4),%eax
    43bf:	89 44 24 08          	mov    %eax,0x8(%esp)
    43c3:	e8 28 0e 01 00       	call   151f0 <async_data_read_start>
    43c8:	89 34 24             	mov    %esi,(%esp)
    43cb:	89 45 b0             	mov    %eax,-0x50(%ebp)
    43ce:	e8 bd 07 01 00       	call   14b90 <async_exchange_end>
    43d3:	8b 45 b0             	mov    -0x50(%ebp),%eax
    43d6:	83 f8 f0             	cmp    $0xfffffff0,%eax
    43d9:	0f 84 c4 00 00 00    	je     44a3 <loc_get_namespaces+0x293>
    43df:	85 c0                	test   %eax,%eax
    43e1:	0f 85 89 00 00 00    	jne    4470 <loc_get_namespaces+0x260>
    43e7:	8d 45 c0             	lea    -0x40(%ebp),%eax
    43ea:	89 44 24 04          	mov    %eax,0x4(%esp)
    43ee:	8b 45 b4             	mov    -0x4c(%ebp),%eax
    43f1:	89 04 24             	mov    %eax,(%esp)
    43f4:	e8 97 ef 00 00       	call   13390 <async_wait_for>
    43f9:	8b 45 c0             	mov    -0x40(%ebp),%eax
    43fc:	85 c0                	test   %eax,%eax
    43fe:	75 18                	jne    4418 <loc_get_namespaces+0x208>
    4400:	8b 45 08             	mov    0x8(%ebp),%eax
    4403:	89 38                	mov    %edi,(%eax)
    4405:	83 c4 7c             	add    $0x7c,%esp
    4408:	89 d8                	mov    %ebx,%eax
    440a:	5b                   	pop    %ebx
    440b:	5e                   	pop    %esi
    440c:	5f                   	pop    %edi
    440d:	5d                   	pop    %ebp
    440e:	c3                   	ret    
    440f:	90                   	nop
    4410:	89 34 24             	mov    %esi,(%esp)
    4413:	e8 78 07 01 00       	call   14b90 <async_exchange_end>
    4418:	83 c4 7c             	add    $0x7c,%esp
    441b:	31 db                	xor    %ebx,%ebx
    441d:	89 d8                	mov    %ebx,%eax
    441f:	5b                   	pop    %ebx
    4420:	5e                   	pop    %esi
    4421:	5f                   	pop    %edi
    4422:	5d                   	pop    %ebp
    4423:	c3                   	ret    
    4424:	8d 74 26 00          	lea    0x0(%esi,%eiz,1),%esi
    4428:	85 db                	test   %ebx,%ebx
    442a:	0f 84 1e fe ff ff    	je     424e <loc_get_namespaces+0x3e>
    4430:	89 1d 30 0d 02 00    	mov    %ebx,0x20d30
    4436:	e9 13 fe ff ff       	jmp    424e <loc_get_namespaces+0x3e>
    443b:	90                   	nop
    443c:	8d 74 26 00          	lea    0x0(%esi,%eiz,1),%esi
    4440:	c7 44 24 0c 00 00 00 	movl   $0x0,0xc(%esp)
    4447:	00 
    4448:	c7 44 24 08 02 00 00 	movl   $0x2,0x8(%esp)
    444f:	00 
    4450:	c7 44 24 04 6c 6f 63 	movl   $0x20636f6c,0x4(%esp)
    4457:	20 
    4458:	c7 04 24 02 00 00 00 	movl   $0x2,(%esp)
    445f:	e8 0c d7 00 00       	call   11b70 <service_connect_blocking>
    4464:	a3 30 0d 02 00       	mov    %eax,0x20d30
    4469:	e9 bc fd ff ff       	jmp    422a <loc_get_namespaces+0x1a>
    446e:	66 90                	xchg   %ax,%ax
    4470:	8b 45 b4             	mov    -0x4c(%ebp),%eax
    4473:	31 db                	xor    %ebx,%ebx
    4475:	89 04 24             	mov    %eax,(%esp)
    4478:	e8 63 f1 00 00       	call   135e0 <async_forget>
    447d:	89 3c 24             	mov    %edi,(%esp)
    4480:	e8 6b cf 00 00       	call   113f0 <free>
    4485:	83 c4 7c             	add    $0x7c,%esp
    4488:	89 d8                	mov    %ebx,%eax
    448a:	5b                   	pop    %ebx
    448b:	5e                   	pop    %esi
    448c:	5f                   	pop    %edi
    448d:	5d                   	pop    %ebp
    448e:	c3                   	ret    
    448f:	90                   	nop
    4490:	85 db                	test   %ebx,%ebx
    4492:	0f 84 fb fd ff ff    	je     4293 <loc_get_namespaces+0x83>
    4498:	89 1d 2c 0d 02 00    	mov    %ebx,0x20d2c
    449e:	e9 f0 fd ff ff       	jmp    4293 <loc_get_namespaces+0x83>
    44a3:	89 3c 24             	mov    %edi,(%esp)
    44a6:	e8 45 cf 00 00       	call   113f0 <free>
    44ab:	e9 69 fd ff ff       	jmp    4219 <loc_get_namespaces+0x9>
    44b0:	c7 44 24 0c 00 00 00 	movl   $0x0,0xc(%esp)
    44b7:	00 
    44b8:	c7 44 24 08 02 00 00 	movl   $0x2,0x8(%esp)
    44bf:	00 
    44c0:	c7 44 24 04 6c 6f 63 	movl   $0x20636f6c,0x4(%esp)
    44c7:	20 
    44c8:	c7 04 24 02 00 00 00 	movl   $0x2,(%esp)
    44cf:	e8 1c d6 00 00       	call   11af0 <service_connect>
    44d4:	a3 2c 0d 02 00       	mov    %eax,0x20d2c
    44d9:	e9 75 fe ff ff       	jmp    4353 <loc_get_namespaces+0x143>
    44de:	31 f6                	xor    %esi,%esi
    44e0:	e9 91 fe ff ff       	jmp    4376 <loc_get_namespaces+0x166>
    44e5:	8d 74 26 00          	lea    0x0(%esi,%eiz,1),%esi
    44e9:	8d bc 27 00 00 00 00 	lea    0x0(%edi,%eiz,1),%edi

000044f0 <loc_get_services>:
    44f0:	55                   	push   %ebp
    44f1:	89 e5                	mov    %esp,%ebp
    44f3:	57                   	push   %edi
    44f4:	56                   	push   %esi
    44f5:	53                   	push   %ebx
    44f6:	83 ec 7c             	sub    $0x7c,%esp
    44f9:	c7 04 24 9c 0a 02 00 	movl   $0x20a9c,(%esp)
    4500:	e8 cb 3f 00 00       	call   84d0 <fibril_mutex_lock>
    4505:	a1 30 0d 02 00       	mov    0x20d30,%eax
    450a:	85 c0                	test   %eax,%eax
    450c:	75 38                	jne    4546 <loc_get_services+0x56>
    450e:	c7 04 24 ac 0a 02 00 	movl   $0x20aac,(%esp)
    4515:	8b 1d 2c 0d 02 00    	mov    0x20d2c,%ebx
    451b:	e8 b0 3f 00 00       	call   84d0 <fibril_mutex_lock>
    4520:	a1 30 0d 02 00       	mov    0x20d30,%eax
    4525:	85 c0                	test   %eax,%eax
    4527:	0f 84 db 01 00 00    	je     4708 <loc_get_services+0x218>
    452d:	c7 04 24 ac 0a 02 00 	movl   $0x20aac,(%esp)
    4534:	e8 b7 40 00 00       	call   85f0 <fibril_mutex_unlock>
    4539:	a1 30 0d 02 00       	mov    0x20d30,%eax
    453e:	85 c0                	test   %eax,%eax
    4540:	0f 84 da 01 00 00    	je     4720 <loc_get_services+0x230>
    4546:	c7 04 24 9c 0a 02 00 	movl   $0x20a9c,(%esp)
    454d:	e8 9e 40 00 00       	call   85f0 <fibril_mutex_unlock>
    4552:	c7 04 24 ac 0a 02 00 	movl   $0x20aac,(%esp)
    4559:	8b 1d 30 0d 02 00    	mov    0x20d30,%ebx
    455f:	e8 6c 3f 00 00       	call   84d0 <fibril_mutex_lock>
    4564:	a1 2c 0d 02 00       	mov    0x20d2c,%eax
    4569:	85 c0                	test   %eax,%eax
    456b:	0f 84 ff 01 00 00    	je     4770 <loc_get_services+0x280>
    4571:	c7 04 24 ac 0a 02 00 	movl   $0x20aac,(%esp)
    4578:	e8 73 40 00 00       	call   85f0 <fibril_mutex_unlock>
    457d:	a1 30 0d 02 00       	mov    0x20d30,%eax
    4582:	89 04 24             	mov    %eax,(%esp)
    4585:	e8 96 02 01 00       	call   14820 <async_exchange_begin>
    458a:	c7 44 24 28 00 00 00 	movl   $0x0,0x28(%esp)
    4591:	00 
    4592:	89 c6                	mov    %eax,%esi
    4594:	8d 45 c0             	lea    -0x40(%ebp),%eax
    4597:	89 44 24 18          	mov    %eax,0x18(%esp)
    459b:	8b 45 08             	mov    0x8(%ebp),%eax
    459e:	c7 44 24 24 00 00 00 	movl   $0x0,0x24(%esp)
    45a5:	00 
    45a6:	c7 44 24 20 00 00 00 	movl   $0x0,0x20(%esp)
    45ad:	00 
    45ae:	c7 44 24 1c 00 00 00 	movl   $0x0,0x1c(%esp)
    45b5:	00 
    45b6:	c7 44 24 14 00 00 00 	movl   $0x0,0x14(%esp)
    45bd:	00 
    45be:	c7 44 24 10 00 00 00 	movl   $0x0,0x10(%esp)
    45c5:	00 
    45c6:	c7 44 24 0c 00 00 00 	movl   $0x0,0xc(%esp)
    45cd:	00 
    45ce:	89 44 24 08          	mov    %eax,0x8(%esp)
    45d2:	c7 44 24 04 11 04 00 	movl   $0x411,0x4(%esp)
    45d9:	00 
    45da:	89 34 24             	mov    %esi,(%esp)
    45dd:	e8 ee f1 00 00       	call   137d0 <async_req_fast>
    45e2:	85 c0                	test   %eax,%eax
    45e4:	0f 85 06 01 00 00    	jne    46f0 <loc_get_services+0x200>
    45ea:	8b 5d c0             	mov    -0x40(%ebp),%ebx
    45ed:	89 34 24             	mov    %esi,(%esp)
    45f0:	e8 9b 05 01 00       	call   14b90 <async_exchange_end>
    45f5:	85 db                	test   %ebx,%ebx
    45f7:	0f 84 fb 00 00 00    	je     46f8 <loc_get_services+0x208>
    45fd:	c7 44 24 04 04 01 00 	movl   $0x104,0x4(%esp)
    4604:	00 
    4605:	89 1c 24             	mov    %ebx,(%esp)
    4608:	e8 73 cc 00 00       	call   11280 <calloc>
    460d:	89 c7                	mov    %eax,%edi
    460f:	85 c0                	test   %eax,%eax
    4611:	0f 84 e1 00 00 00    	je     46f8 <loc_get_services+0x208>
    4617:	c7 04 24 ac 0a 02 00 	movl   $0x20aac,(%esp)
    461e:	e8 ad 3e 00 00       	call   84d0 <fibril_mutex_lock>
    4623:	a1 2c 0d 02 00       	mov    0x20d2c,%eax
    4628:	85 c0                	test   %eax,%eax
    462a:	0f 84 60 01 00 00    	je     4790 <loc_get_services+0x2a0>
    4630:	c7 04 24 ac 0a 02 00 	movl   $0x20aac,(%esp)
    4637:	e8 b4 3f 00 00       	call   85f0 <fibril_mutex_unlock>
    463c:	a1 2c 0d 02 00       	mov    0x20d2c,%eax
    4641:	85 c0                	test   %eax,%eax
    4643:	0f 84 75 01 00 00    	je     47be <loc_get_services+0x2ce>
    4649:	89 04 24             	mov    %eax,(%esp)
    464c:	e8 cf 01 01 00       	call   14820 <async_exchange_begin>
    4651:	89 c6                	mov    %eax,%esi
    4653:	8d 45 c4             	lea    -0x3c(%ebp),%eax
    4656:	c7 44 24 14 00 00 00 	movl   $0x0,0x14(%esp)
    465d:	00 
    465e:	89 44 24 18          	mov    %eax,0x18(%esp)
    4662:	8b 45 08             	mov    0x8(%ebp),%eax
    4665:	c7 44 24 10 00 00 00 	movl   $0x0,0x10(%esp)
    466c:	00 
    466d:	c7 44 24 0c 00 00 00 	movl   $0x0,0xc(%esp)
    4674:	00 
    4675:	89 44 24 08          	mov    %eax,0x8(%esp)
    4679:	c7 44 24 04 14 04 00 	movl   $0x414,0x4(%esp)
    4680:	00 
    4681:	89 34 24             	mov    %esi,(%esp)
    4684:	e8 37 eb 00 00       	call   131c0 <async_send_fast>
    4689:	89 7c 24 04          	mov    %edi,0x4(%esp)
    468d:	89 45 b4             	mov    %eax,-0x4c(%ebp)
    4690:	89 d8                	mov    %ebx,%eax
    4692:	c1 e0 08             	shl    $0x8,%eax
    4695:	89 34 24             	mov    %esi,(%esp)
    4698:	8d 04 98             	lea    (%eax,%ebx,4),%eax
    469b:	89 44 24 08          	mov    %eax,0x8(%esp)
    469f:	e8 4c 0b 01 00       	call   151f0 <async_data_read_start>
    46a4:	89 34 24             	mov    %esi,(%esp)
    46a7:	89 45 b0             	mov    %eax,-0x50(%ebp)
    46aa:	e8 e1 04 01 00       	call   14b90 <async_exchange_end>
    46af:	8b 45 b0             	mov    -0x50(%ebp),%eax
    46b2:	83 f8 f0             	cmp    $0xfffffff0,%eax
    46b5:	0f 84 c8 00 00 00    	je     4783 <loc_get_services+0x293>
    46bb:	85 c0                	test   %eax,%eax
    46bd:	0f 85 8d 00 00 00    	jne    4750 <loc_get_services+0x260>
    46c3:	8d 45 c0             	lea    -0x40(%ebp),%eax
    46c6:	89 44 24 04          	mov    %eax,0x4(%esp)
    46ca:	8b 45 b4             	mov    -0x4c(%ebp),%eax
    46cd:	89 04 24             	mov    %eax,(%esp)
    46d0:	e8 bb ec 00 00       	call   13390 <async_wait_for>
    46d5:	8b 75 c0             	mov    -0x40(%ebp),%esi
    46d8:	85 f6                	test   %esi,%esi
    46da:	75 1c                	jne    46f8 <loc_get_services+0x208>
    46dc:	8b 45 0c             	mov    0xc(%ebp),%eax
    46df:	89 38                	mov    %edi,(%eax)
    46e1:	83 c4 7c             	add    $0x7c,%esp
    46e4:	89 d8                	mov    %ebx,%eax
    46e6:	5b                   	pop    %ebx
    46e7:	5e                   	pop    %esi
    46e8:	5f                   	pop    %edi
    46e9:	5d                   	pop    %ebp
    46ea:	c3                   	ret    
    46eb:	90                   	nop
    46ec:	8d 74 26 00          	lea    0x0(%esi,%eiz,1),%esi
    46f0:	89 34 24             	mov    %esi,(%esp)
    46f3:	e8 98 04 01 00       	call   14b90 <async_exchange_end>
    46f8:	83 c4 7c             	add    $0x7c,%esp
    46fb:	31 db                	xor    %ebx,%ebx
    46fd:	89 d8                	mov    %ebx,%eax
    46ff:	5b                   	pop    %ebx
    4700:	5e                   	pop    %esi
    4701:	5f                   	pop    %edi
    4702:	5d                   	pop    %ebp
    4703:	c3                   	ret    
    4704:	8d 74 26 00          	lea    0x0(%esi,%eiz,1),%esi
    4708:	85 db                	test   %ebx,%ebx
    470a:	0f 84 1d fe ff ff    	je     452d <loc_get_services+0x3d>
    4710:	89 1d 30 0d 02 00    	mov    %ebx,0x20d30
    4716:	e9 12 fe ff ff       	jmp    452d <loc_get_services+0x3d>
    471b:	90                   	nop
    471c:	8d 74 26 00          	lea    0x0(%esi,%eiz,1),%esi
    4720:	c7 44 24 0c 00 00 00 	movl   $0x0,0xc(%esp)
    4727:	00 
    4728:	c7 44 24 08 02 00 00 	movl   $0x2,0x8(%esp)
    472f:	00 
    4730:	c7 44 24 04 6c 6f 63 	movl   $0x20636f6c,0x4(%esp)
    4737:	20 
    4738:	c7 04 24 02 00 00 00 	movl   $0x2,(%esp)
    473f:	e8 2c d4 00 00       	call   11b70 <service_connect_blocking>
    4744:	a3 30 0d 02 00       	mov    %eax,0x20d30
    4749:	e9 bc fd ff ff       	jmp    450a <loc_get_services+0x1a>
    474e:	66 90                	xchg   %ax,%ax
    4750:	8b 45 b4             	mov    -0x4c(%ebp),%eax
    4753:	31 db                	xor    %ebx,%ebx
    4755:	89 04 24             	mov    %eax,(%esp)
    4758:	e8 83 ee 00 00       	call   135e0 <async_forget>
    475d:	89 3c 24             	mov    %edi,(%esp)
    4760:	e8 8b cc 00 00       	call   113f0 <free>
    4765:	83 c4 7c             	add    $0x7c,%esp
    4768:	89 d8                	mov    %ebx,%eax
    476a:	5b                   	pop    %ebx
    476b:	5e                   	pop    %esi
    476c:	5f                   	pop    %edi
    476d:	5d                   	pop    %ebp
    476e:	c3                   	ret    
    476f:	90                   	nop
    4770:	85 db                	test   %ebx,%ebx
    4772:	0f 84 f9 fd ff ff    	je     4571 <loc_get_services+0x81>
    4778:	89 1d 2c 0d 02 00    	mov    %ebx,0x20d2c
    477e:	e9 ee fd ff ff       	jmp    4571 <loc_get_services+0x81>
    4783:	89 3c 24             	mov    %edi,(%esp)
    4786:	e8 65 cc 00 00       	call   113f0 <free>
    478b:	e9 69 fd ff ff       	jmp    44f9 <loc_get_services+0x9>
    4790:	c7 44 24 0c 00 00 00 	movl   $0x0,0xc(%esp)
    4797:	00 
    4798:	c7 44 24 08 02 00 00 	movl   $0x2,0x8(%esp)
    479f:	00 
    47a0:	c7 44 24 04 6c 6f 63 	movl   $0x20636f6c,0x4(%esp)
    47a7:	20 
    47a8:	c7 04 24 02 00 00 00 	movl   $0x2,(%esp)
    47af:	e8 3c d3 00 00       	call   11af0 <service_connect>
    47b4:	a3 2c 0d 02 00       	mov    %eax,0x20d2c
    47b9:	e9 72 fe ff ff       	jmp    4630 <loc_get_services+0x140>
    47be:	31 f6                	xor    %esi,%esi
    47c0:	e9 8e fe ff ff       	jmp    4653 <loc_get_services+0x163>
    47c5:	8d 74 26 00          	lea    0x0(%esi,%eiz,1),%esi
    47c9:	8d bc 27 00 00 00 00 	lea    0x0(%edi,%eiz,1),%edi

000047d0 <loc_category_get_svcs>:
    47d0:	55                   	push   %ebp
    47d1:	89 e5                	mov    %esp,%ebp
    47d3:	8b 45 10             	mov    0x10(%ebp),%eax
    47d6:	8b 55 08             	mov    0x8(%ebp),%edx
    47d9:	8b 4d 0c             	mov    0xc(%ebp),%ecx
    47dc:	89 45 08             	mov    %eax,0x8(%ebp)
    47df:	b8 0c 04 00 00       	mov    $0x40c,%eax
    47e4:	5d                   	pop    %ebp
    47e5:	e9 e6 db ff ff       	jmp    23d0 <loc_get_ids_internal>
    47ea:	8d b6 00 00 00 00    	lea    0x0(%esi),%esi

000047f0 <loc_get_categories>:
    47f0:	55                   	push   %ebp
    47f1:	31 d2                	xor    %edx,%edx
    47f3:	89 e5                	mov    %esp,%ebp
    47f5:	8b 45 0c             	mov    0xc(%ebp),%eax
    47f8:	8b 4d 08             	mov    0x8(%ebp),%ecx
    47fb:	89 45 08             	mov    %eax,0x8(%ebp)
    47fe:	b8 12 04 00 00       	mov    $0x412,%eax
    4803:	5d                   	pop    %ebp
    4804:	e9 c7 db ff ff       	jmp    23d0 <loc_get_ids_internal>
    4809:	8d b4 26 00 00 00 00 	lea    0x0(%esi,%eiz,1),%esi

00004810 <loc_register_cat_change_cb>:
    4810:	55                   	push   %ebp
    4811:	89 e5                	mov    %esp,%ebp
    4813:	57                   	push   %edi
    4814:	56                   	push   %esi
    4815:	53                   	push   %ebx
    4816:	83 ec 5c             	sub    $0x5c,%esp
    4819:	c7 04 24 bc 0a 02 00 	movl   $0x20abc,(%esp)
    4820:	e8 ab 3c 00 00       	call   84d0 <fibril_mutex_lock>
    4825:	80 3d 38 0d 02 00 00 	cmpb   $0x0,0x20d38
    482c:	74 22                	je     4850 <loc_register_cat_change_cb+0x40>
    482e:	8b 45 08             	mov    0x8(%ebp),%eax
    4831:	c7 04 24 bc 0a 02 00 	movl   $0x20abc,(%esp)
    4838:	a3 34 0d 02 00       	mov    %eax,0x20d34
    483d:	e8 ae 3d 00 00       	call   85f0 <fibril_mutex_unlock>
    4842:	83 c4 5c             	add    $0x5c,%esp
    4845:	31 c0                	xor    %eax,%eax
    4847:	5b                   	pop    %ebx
    4848:	5e                   	pop    %esi
    4849:	5f                   	pop    %edi
    484a:	5d                   	pop    %ebp
    484b:	c3                   	ret    
    484c:	8d 74 26 00          	lea    0x0(%esi,%eiz,1),%esi
    4850:	c7 04 24 9c 0a 02 00 	movl   $0x20a9c,(%esp)
    4857:	e8 74 3c 00 00       	call   84d0 <fibril_mutex_lock>
    485c:	a1 30 0d 02 00       	mov    0x20d30,%eax
    4861:	85 c0                	test   %eax,%eax
    4863:	75 3a                	jne    489f <loc_register_cat_change_cb+0x8f>
    4865:	c7 04 24 ac 0a 02 00 	movl   $0x20aac,(%esp)
    486c:	8b 1d 2c 0d 02 00    	mov    0x20d2c,%ebx
    4872:	e8 59 3c 00 00       	call   84d0 <fibril_mutex_lock>
    4877:	8b 0d 30 0d 02 00    	mov    0x20d30,%ecx
    487d:	85 c9                	test   %ecx,%ecx
    487f:	0f 84 f3 00 00 00    	je     4978 <loc_register_cat_change_cb+0x168>
    4885:	c7 04 24 ac 0a 02 00 	movl   $0x20aac,(%esp)
    488c:	e8 5f 3d 00 00       	call   85f0 <fibril_mutex_unlock>
    4891:	8b 15 30 0d 02 00    	mov    0x20d30,%edx
    4897:	85 d2                	test   %edx,%edx
    4899:	0f 84 f1 00 00 00    	je     4990 <loc_register_cat_change_cb+0x180>
    489f:	c7 04 24 9c 0a 02 00 	movl   $0x20a9c,(%esp)
    48a6:	e8 45 3d 00 00       	call   85f0 <fibril_mutex_unlock>
    48ab:	c7 04 24 ac 0a 02 00 	movl   $0x20aac,(%esp)
    48b2:	8b 1d 30 0d 02 00    	mov    0x20d30,%ebx
    48b8:	e8 13 3c 00 00       	call   84d0 <fibril_mutex_lock>
    48bd:	a1 2c 0d 02 00       	mov    0x20d2c,%eax
    48c2:	85 c0                	test   %eax,%eax
    48c4:	0f 84 1e 01 00 00    	je     49e8 <loc_register_cat_change_cb+0x1d8>
    48ca:	c7 04 24 ac 0a 02 00 	movl   $0x20aac,(%esp)
    48d1:	e8 1a 3d 00 00       	call   85f0 <fibril_mutex_unlock>
    48d6:	a1 30 0d 02 00       	mov    0x20d30,%eax
    48db:	89 04 24             	mov    %eax,(%esp)
    48de:	e8 3d ff 00 00       	call   14820 <async_exchange_begin>
    48e3:	c7 44 24 14 00 00 00 	movl   $0x0,0x14(%esp)
    48ea:	00 
    48eb:	89 c3                	mov    %eax,%ebx
    48ed:	8d 45 c4             	lea    -0x3c(%ebp),%eax
    48f0:	89 44 24 18          	mov    %eax,0x18(%esp)
    48f4:	c7 44 24 10 00 00 00 	movl   $0x0,0x10(%esp)
    48fb:	00 
    48fc:	c7 44 24 0c 00 00 00 	movl   $0x0,0xc(%esp)
    4903:	00 
    4904:	c7 44 24 08 00 00 00 	movl   $0x0,0x8(%esp)
    490b:	00 
    490c:	c7 44 24 04 09 04 00 	movl   $0x409,0x4(%esp)
    4913:	00 
    4914:	89 1c 24             	mov    %ebx,(%esp)
    4917:	e8 a4 e8 00 00       	call   131c0 <async_send_fast>
    491c:	c7 44 24 14 00 00 00 	movl   $0x0,0x14(%esp)
    4923:	00 
    4924:	c7 44 24 10 90 20 00 	movl   $0x2090,0x10(%esp)
    492b:	00 
    492c:	c7 44 24 0c 00 00 00 	movl   $0x0,0xc(%esp)
    4933:	00 
    4934:	c7 44 24 08 00 00 00 	movl   $0x0,0x8(%esp)
    493b:	00 
    493c:	c7 44 24 04 00 00 00 	movl   $0x0,0x4(%esp)
    4943:	00 
    4944:	89 1c 24             	mov    %ebx,(%esp)
    4947:	89 c7                	mov    %eax,%edi
    4949:	e8 72 f6 00 00       	call   13fc0 <async_connect_to_me>
    494e:	89 1c 24             	mov    %ebx,(%esp)
    4951:	89 c6                	mov    %eax,%esi
    4953:	e8 38 02 01 00       	call   14b90 <async_exchange_end>
    4958:	85 f6                	test   %esi,%esi
    495a:	74 64                	je     49c0 <loc_register_cat_change_cb+0x1b0>
    495c:	c7 04 24 bc 0a 02 00 	movl   $0x20abc,(%esp)
    4963:	e8 88 3c 00 00       	call   85f0 <fibril_mutex_unlock>
    4968:	83 c4 5c             	add    $0x5c,%esp
    496b:	b8 f7 fe ff ff       	mov    $0xfffffef7,%eax
    4970:	5b                   	pop    %ebx
    4971:	5e                   	pop    %esi
    4972:	5f                   	pop    %edi
    4973:	5d                   	pop    %ebp
    4974:	c3                   	ret    
    4975:	8d 76 00             	lea    0x0(%esi),%esi
    4978:	85 db                	test   %ebx,%ebx
    497a:	0f 84 05 ff ff ff    	je     4885 <loc_register_cat_change_cb+0x75>
    4980:	89 1d 30 0d 02 00    	mov    %ebx,0x20d30
    4986:	e9 fa fe ff ff       	jmp    4885 <loc_register_cat_change_cb+0x75>
    498b:	90                   	nop
    498c:	8d 74 26 00          	lea    0x0(%esi,%eiz,1),%esi
    4990:	c7 44 24 0c 00 00 00 	movl   $0x0,0xc(%esp)
    4997:	00 
    4998:	c7 44 24 08 02 00 00 	movl   $0x2,0x8(%esp)
    499f:	00 
    49a0:	c7 44 24 04 6c 6f 63 	movl   $0x20636f6c,0x4(%esp)
    49a7:	20 
    49a8:	c7 04 24 02 00 00 00 	movl   $0x2,(%esp)
    49af:	e8 bc d1 00 00       	call   11b70 <service_connect_blocking>
    49b4:	a3 30 0d 02 00       	mov    %eax,0x20d30
    49b9:	e9 a3 fe ff ff       	jmp    4861 <loc_register_cat_change_cb+0x51>
    49be:	66 90                	xchg   %ax,%ax
    49c0:	8d 45 c0             	lea    -0x40(%ebp),%eax
    49c3:	89 3c 24             	mov    %edi,(%esp)
    49c6:	89 44 24 04          	mov    %eax,0x4(%esp)
    49ca:	e8 c1 e9 00 00       	call   13390 <async_wait_for>
    49cf:	8b 45 c0             	mov    -0x40(%ebp),%eax
    49d2:	85 c0                	test   %eax,%eax
    49d4:	75 86                	jne    495c <loc_register_cat_change_cb+0x14c>
    49d6:	c6 05 38 0d 02 00 01 	movb   $0x1,0x20d38
    49dd:	e9 4c fe ff ff       	jmp    482e <loc_register_cat_change_cb+0x1e>
    49e2:	8d b6 00 00 00 00    	lea    0x0(%esi),%esi
    49e8:	85 db                	test   %ebx,%ebx
    49ea:	0f 84 da fe ff ff    	je     48ca <loc_register_cat_change_cb+0xba>
    49f0:	89 1d 2c 0d 02 00    	mov    %ebx,0x20d2c
    49f6:	e9 cf fe ff ff       	jmp    48ca <loc_register_cat_change_cb+0xba>
    49fb:	66 90                	xchg   %ax,%ax
    49fd:	66 90                	xchg   %ax,%ax
    49ff:	90                   	nop

00004a00 <_strtoul>:
    4a00:	55                   	push   %ebp
    4a01:	89 e5                	mov    %esp,%ebp
    4a03:	57                   	push   %edi
    4a04:	56                   	push   %esi
    4a05:	53                   	push   %ebx
    4a06:	83 ec 08             	sub    $0x8,%esp
    4a09:	89 45 f0             	mov    %eax,-0x10(%ebp)
    4a0c:	8a 00                	mov    (%eax),%al
    4a0e:	89 55 ec             	mov    %edx,-0x14(%ebp)
    4a11:	0f be d0             	movsbl %al,%edx
    4a14:	83 ea 09             	sub    $0x9,%edx
    4a17:	8b 5d f0             	mov    -0x10(%ebp),%ebx
    4a1a:	83 fa 17             	cmp    $0x17,%edx
    4a1d:	77 23                	ja     4a42 <_strtoul+0x42>
    4a1f:	8b 3c 95 a0 e2 01 00 	mov    0x1e2a0(,%edx,4),%edi
    4a26:	85 ff                	test   %edi,%edi
    4a28:	0f 84 94 01 00 00    	je     4bc2 <_strtoul+0x1c2>
    4a2e:	66 90                	xchg   %ax,%ax
    4a30:	43                   	inc    %ebx
    4a31:	8a 03                	mov    (%ebx),%al
    4a33:	0f be d0             	movsbl %al,%edx
    4a36:	83 ea 09             	sub    $0x9,%edx
    4a39:	83 fa 17             	cmp    $0x17,%edx
    4a3c:	0f 86 a6 00 00 00    	jbe    4ae8 <_strtoul+0xe8>
    4a42:	3c 2d                	cmp    $0x2d,%al
    4a44:	0f 84 1e 01 00 00    	je     4b68 <_strtoul+0x168>
    4a4a:	3c 2b                	cmp    $0x2b,%al
    4a4c:	0f 94 c0             	sete   %al
    4a4f:	25 ff 00 00 00       	and    $0xff,%eax
    4a54:	01 c3                	add    %eax,%ebx
    4a56:	85 c9                	test   %ecx,%ecx
    4a58:	0f 84 a2 00 00 00    	je     4b00 <_strtoul+0x100>
    4a5e:	83 f9 24             	cmp    $0x24,%ecx
    4a61:	0f 8f 21 01 00 00    	jg     4b88 <_strtoul+0x188>
    4a67:	83 f9 01             	cmp    $0x1,%ecx
    4a6a:	0f 84 18 01 00 00    	je     4b88 <_strtoul+0x188>
    4a70:	8a 13                	mov    (%ebx),%dl
    4a72:	83 f9 10             	cmp    $0x10,%ecx
    4a75:	0f 84 16 01 00 00    	je     4b91 <_strtoul+0x191>
    4a7b:	84 d2                	test   %dl,%dl
    4a7d:	0f 84 2c 01 00 00    	je     4baf <_strtoul+0x1af>
    4a83:	89 de                	mov    %ebx,%esi
    4a85:	31 c0                	xor    %eax,%eax
    4a87:	eb 4a                	jmp    4ad3 <_strtoul+0xd3>
    4a89:	8d b4 26 00 00 00 00 	lea    0x0(%esi,%eiz,1),%esi
    4a90:	83 ea 57             	sub    $0x57,%edx
    4a93:	81 e2 ff 00 00 00    	and    $0xff,%edx
    4a99:	39 d1                	cmp    %edx,%ecx
    4a9b:	0f 8e 94 00 00 00    	jle    4b35 <_strtoul+0x135>
    4aa1:	0f b6 f8             	movzbl %al,%edi
    4aa4:	0f af f9             	imul   %ecx,%edi
    4aa7:	c1 e8 08             	shr    $0x8,%eax
    4aaa:	01 fa                	add    %edi,%edx
    4aac:	0f af c1             	imul   %ecx,%eax
    4aaf:	89 d7                	mov    %edx,%edi
    4ab1:	c1 ef 08             	shr    $0x8,%edi
    4ab4:	01 f8                	add    %edi,%eax
    4ab6:	3d ff ff ff 00       	cmp    $0xffffff,%eax
    4abb:	0f 87 b7 00 00 00    	ja     4b78 <_strtoul+0x178>
    4ac1:	46                   	inc    %esi
    4ac2:	81 e2 ff 00 00 00    	and    $0xff,%edx
    4ac8:	c1 e0 08             	shl    $0x8,%eax
    4acb:	01 d0                	add    %edx,%eax
    4acd:	8a 16                	mov    (%esi),%dl
    4acf:	84 d2                	test   %dl,%dl
    4ad1:	74 62                	je     4b35 <_strtoul+0x135>
    4ad3:	80 fa 60             	cmp    $0x60,%dl
    4ad6:	77 b8                	ja     4a90 <_strtoul+0x90>
    4ad8:	80 fa 40             	cmp    $0x40,%dl
    4adb:	76 53                	jbe    4b30 <_strtoul+0x130>
    4add:	83 ea 37             	sub    $0x37,%edx
    4ae0:	eb b1                	jmp    4a93 <_strtoul+0x93>
    4ae2:	8d b6 00 00 00 00    	lea    0x0(%esi),%esi
    4ae8:	8b 34 95 a0 e2 01 00 	mov    0x1e2a0(,%edx,4),%esi
    4aef:	85 f6                	test   %esi,%esi
    4af1:	0f 85 39 ff ff ff    	jne    4a30 <_strtoul+0x30>
    4af7:	e9 46 ff ff ff       	jmp    4a42 <_strtoul+0x42>
    4afc:	8d 74 26 00          	lea    0x0(%esi,%eiz,1),%esi
    4b00:	8a 13                	mov    (%ebx),%dl
    4b02:	b9 0a 00 00 00       	mov    $0xa,%ecx
    4b07:	80 fa 30             	cmp    $0x30,%dl
    4b0a:	0f 85 6b ff ff ff    	jne    4a7b <_strtoul+0x7b>
    4b10:	8a 43 01             	mov    0x1(%ebx),%al
    4b13:	83 e0 df             	and    $0xffffffdf,%eax
    4b16:	3c 58                	cmp    $0x58,%al
    4b18:	0f 85 98 00 00 00    	jne    4bb6 <_strtoul+0x1b6>
    4b1e:	8a 53 02             	mov    0x2(%ebx),%dl
    4b21:	b1 10                	mov    $0x10,%cl
    4b23:	83 c3 02             	add    $0x2,%ebx
    4b26:	e9 50 ff ff ff       	jmp    4a7b <_strtoul+0x7b>
    4b2b:	90                   	nop
    4b2c:	8d 74 26 00          	lea    0x0(%esi,%eiz,1),%esi
    4b30:	80 fa 39             	cmp    $0x39,%dl
    4b33:	76 2b                	jbe    4b60 <_strtoul+0x160>
    4b35:	39 f3                	cmp    %esi,%ebx
    4b37:	74 76                	je     4baf <_strtoul+0x1af>
    4b39:	8b 5d ec             	mov    -0x14(%ebp),%ebx
    4b3c:	85 db                	test   %ebx,%ebx
    4b3e:	74 05                	je     4b45 <_strtoul+0x145>
    4b40:	8b 55 ec             	mov    -0x14(%ebp),%edx
    4b43:	89 32                	mov    %esi,(%edx)
    4b45:	39 75 f0             	cmp    %esi,-0x10(%ebp)
    4b48:	0f 95 c2             	setne  %dl
    4b4b:	81 e2 ff 00 00 00    	and    $0xff,%edx
    4b51:	f7 da                	neg    %edx
    4b53:	21 d0                	and    %edx,%eax
    4b55:	5a                   	pop    %edx
    4b56:	59                   	pop    %ecx
    4b57:	5b                   	pop    %ebx
    4b58:	5e                   	pop    %esi
    4b59:	5f                   	pop    %edi
    4b5a:	5d                   	pop    %ebp
    4b5b:	c3                   	ret    
    4b5c:	8d 74 26 00          	lea    0x0(%esi,%eiz,1),%esi
    4b60:	83 ea 30             	sub    $0x30,%edx
    4b63:	e9 2b ff ff ff       	jmp    4a93 <_strtoul+0x93>
    4b68:	8b 45 08             	mov    0x8(%ebp),%eax
    4b6b:	43                   	inc    %ebx
    4b6c:	c6 00 01             	movb   $0x1,(%eax)
    4b6f:	e9 e2 fe ff ff       	jmp    4a56 <_strtoul+0x56>
    4b74:	8d 74 26 00          	lea    0x0(%esi,%eiz,1),%esi
    4b78:	5a                   	pop    %edx
    4b79:	83 c8 ff             	or     $0xffffffff,%eax
    4b7c:	59                   	pop    %ecx
    4b7d:	5b                   	pop    %ebx
    4b7e:	5e                   	pop    %esi
    4b7f:	5f                   	pop    %edi
    4b80:	5d                   	pop    %ebp
    4b81:	c3                   	ret    
    4b82:	8d b6 00 00 00 00    	lea    0x0(%esi),%esi
    4b88:	5a                   	pop    %edx
    4b89:	31 c0                	xor    %eax,%eax
    4b8b:	59                   	pop    %ecx
    4b8c:	5b                   	pop    %ebx
    4b8d:	5e                   	pop    %esi
    4b8e:	5f                   	pop    %edi
    4b8f:	5d                   	pop    %ebp
    4b90:	c3                   	ret    
    4b91:	80 fa 30             	cmp    $0x30,%dl
    4b94:	0f 85 e1 fe ff ff    	jne    4a7b <_strtoul+0x7b>
    4b9a:	8a 43 01             	mov    0x1(%ebx),%al
    4b9d:	83 e0 df             	and    $0xffffffdf,%eax
    4ba0:	3c 58                	cmp    $0x58,%al
    4ba2:	75 17                	jne    4bbb <_strtoul+0x1bb>
    4ba4:	8a 53 02             	mov    0x2(%ebx),%dl
    4ba7:	83 c3 02             	add    $0x2,%ebx
    4baa:	e9 cc fe ff ff       	jmp    4a7b <_strtoul+0x7b>
    4baf:	8b 75 f0             	mov    -0x10(%ebp),%esi
    4bb2:	31 c0                	xor    %eax,%eax
    4bb4:	eb 83                	jmp    4b39 <_strtoul+0x139>
    4bb6:	b9 08 00 00 00       	mov    $0x8,%ecx
    4bbb:	b2 30                	mov    $0x30,%dl
    4bbd:	e9 c1 fe ff ff       	jmp    4a83 <_strtoul+0x83>
    4bc2:	8b 5d f0             	mov    -0x10(%ebp),%ebx
    4bc5:	e9 78 fe ff ff       	jmp    4a42 <_strtoul+0x42>
    4bca:	8d b6 00 00 00 00    	lea    0x0(%esi),%esi

00004bd0 <str_uint>:
    4bd0:	55                   	push   %ebp
    4bd1:	89 e5                	mov    %esp,%ebp
    4bd3:	57                   	push   %edi
    4bd4:	56                   	push   %esi
    4bd5:	53                   	push   %ebx
    4bd6:	83 ec 3c             	sub    $0x3c,%esp
    4bd9:	89 45 dc             	mov    %eax,-0x24(%ebp)
    4bdc:	89 55 d8             	mov    %edx,-0x28(%ebp)
    4bdf:	8b 75 08             	mov    0x8(%ebp),%esi
    4be2:	85 d2                	test   %edx,%edx
    4be4:	0f 84 5f 02 00 00    	je     4e49 <str_uint+0x279>
    4bea:	85 f6                	test   %esi,%esi
    4bec:	0f 84 3b 02 00 00    	je     4e2d <str_uint+0x25d>
    4bf2:	8b 45 0c             	mov    0xc(%ebp),%eax
    4bf5:	85 c0                	test   %eax,%eax
    4bf7:	0f 84 14 02 00 00    	je     4e11 <str_uint+0x241>
    4bfd:	8b 45 dc             	mov    -0x24(%ebp),%eax
    4c00:	c6 06 00             	movb   $0x0,(%esi)
    4c03:	8b 5d dc             	mov    -0x24(%ebp),%ebx
    4c06:	8a 10                	mov    (%eax),%dl
    4c08:	0f be c2             	movsbl %dl,%eax
    4c0b:	83 e8 09             	sub    $0x9,%eax
    4c0e:	83 f8 17             	cmp    $0x17,%eax
    4c11:	77 27                	ja     4c3a <str_uint+0x6a>
    4c13:	8b 04 85 a0 e2 01 00 	mov    0x1e2a0(,%eax,4),%eax
    4c1a:	85 c0                	test   %eax,%eax
    4c1c:	0f 84 e7 01 00 00    	je     4e09 <str_uint+0x239>
    4c22:	8d b6 00 00 00 00    	lea    0x0(%esi),%esi
    4c28:	43                   	inc    %ebx
    4c29:	8a 13                	mov    (%ebx),%dl
    4c2b:	0f be c2             	movsbl %dl,%eax
    4c2e:	83 e8 09             	sub    $0x9,%eax
    4c31:	83 f8 17             	cmp    $0x17,%eax
    4c34:	0f 86 06 01 00 00    	jbe    4d40 <str_uint+0x170>
    4c3a:	80 fa 2d             	cmp    $0x2d,%dl
    4c3d:	0f 84 4d 01 00 00    	je     4d90 <str_uint+0x1c0>
    4c43:	80 fa 2b             	cmp    $0x2b,%dl
    4c46:	0f 94 c0             	sete   %al
    4c49:	25 ff 00 00 00       	and    $0xff,%eax
    4c4e:	01 c3                	add    %eax,%ebx
    4c50:	85 c9                	test   %ecx,%ecx
    4c52:	0f 85 18 01 00 00    	jne    4d70 <str_uint+0x1a0>
    4c58:	b1 0a                	mov    $0xa,%cl
    4c5a:	80 3b 30             	cmpb   $0x30,(%ebx)
    4c5d:	0f 84 3d 01 00 00    	je     4da0 <str_uint+0x1d0>
    4c63:	8b 45 0c             	mov    0xc(%ebp),%eax
    4c66:	c7 00 00 00 00 00    	movl   $0x0,(%eax)
    4c6c:	c7 40 04 00 00 00 00 	movl   $0x0,0x4(%eax)
    4c73:	8a 03                	mov    (%ebx),%al
    4c75:	84 c0                	test   %al,%al
    4c77:	0f 84 37 01 00 00    	je     4db4 <str_uint+0x1e4>
    4c7d:	8d 50 9f             	lea    -0x61(%eax),%edx
    4c80:	c7 45 e0 00 00 00 00 	movl   $0x0,-0x20(%ebp)
    4c87:	c7 45 e4 00 00 00 00 	movl   $0x0,-0x1c(%ebp)
    4c8e:	89 5d d4             	mov    %ebx,-0x2c(%ebp)
    4c91:	80 fa 19             	cmp    $0x19,%dl
    4c94:	77 64                	ja     4cfa <str_uint+0x12a>
    4c96:	66 90                	xchg   %ax,%ax
    4c98:	0f be f0             	movsbl %al,%esi
    4c9b:	83 ee 57             	sub    $0x57,%esi
    4c9e:	39 f1                	cmp    %esi,%ecx
    4ca0:	76 6e                	jbe    4d10 <str_uint+0x140>
    4ca2:	8b 45 e0             	mov    -0x20(%ebp),%eax
    4ca5:	8b 7d e4             	mov    -0x1c(%ebp),%edi
    4ca8:	f7 e1                	mul    %ecx
    4caa:	0f af f9             	imul   %ecx,%edi
    4cad:	89 45 c8             	mov    %eax,-0x38(%ebp)
    4cb0:	01 fa                	add    %edi,%edx
    4cb2:	31 ff                	xor    %edi,%edi
    4cb4:	03 75 c8             	add    -0x38(%ebp),%esi
    4cb7:	89 55 cc             	mov    %edx,-0x34(%ebp)
    4cba:	8b 55 0c             	mov    0xc(%ebp),%edx
    4cbd:	13 7d cc             	adc    -0x34(%ebp),%edi
    4cc0:	89 32                	mov    %esi,(%edx)
    4cc2:	89 7a 04             	mov    %edi,0x4(%edx)
    4cc5:	3b 7d e4             	cmp    -0x1c(%ebp),%edi
    4cc8:	77 1b                	ja     4ce5 <str_uint+0x115>
    4cca:	73 14                	jae    4ce0 <str_uint+0x110>
    4ccc:	8b 45 d8             	mov    -0x28(%ebp),%eax
    4ccf:	89 18                	mov    %ebx,(%eax)
    4cd1:	b8 f0 ff ff ff       	mov    $0xfffffff0,%eax
    4cd6:	83 c4 3c             	add    $0x3c,%esp
    4cd9:	5b                   	pop    %ebx
    4cda:	5e                   	pop    %esi
    4cdb:	5f                   	pop    %edi
    4cdc:	5d                   	pop    %ebp
    4cdd:	c3                   	ret    
    4cde:	66 90                	xchg   %ax,%ax
    4ce0:	3b 75 e0             	cmp    -0x20(%ebp),%esi
    4ce3:	72 e7                	jb     4ccc <str_uint+0xfc>
    4ce5:	43                   	inc    %ebx
    4ce6:	8a 03                	mov    (%ebx),%al
    4ce8:	84 c0                	test   %al,%al
    4cea:	74 24                	je     4d10 <str_uint+0x140>
    4cec:	8d 50 9f             	lea    -0x61(%eax),%edx
    4cef:	89 75 e0             	mov    %esi,-0x20(%ebp)
    4cf2:	89 7d e4             	mov    %edi,-0x1c(%ebp)
    4cf5:	80 fa 19             	cmp    $0x19,%dl
    4cf8:	76 9e                	jbe    4c98 <str_uint+0xc8>
    4cfa:	8d 50 bf             	lea    -0x41(%eax),%edx
    4cfd:	80 fa 19             	cmp    $0x19,%dl
    4d00:	77 56                	ja     4d58 <str_uint+0x188>
    4d02:	0f be f0             	movsbl %al,%esi
    4d05:	83 ee 37             	sub    $0x37,%esi
    4d08:	39 f1                	cmp    %esi,%ecx
    4d0a:	77 96                	ja     4ca2 <str_uint+0xd2>
    4d0c:	8d 74 26 00          	lea    0x0(%esi,%eiz,1),%esi
    4d10:	89 da                	mov    %ebx,%edx
    4d12:	8b 5d d4             	mov    -0x2c(%ebp),%ebx
    4d15:	39 d3                	cmp    %edx,%ebx
    4d17:	0f 84 97 00 00 00    	je     4db4 <str_uint+0x1e4>
    4d1d:	8b 45 d8             	mov    -0x28(%ebp),%eax
    4d20:	39 55 dc             	cmp    %edx,-0x24(%ebp)
    4d23:	89 10                	mov    %edx,(%eax)
    4d25:	0f 95 c0             	setne  %al
    4d28:	25 ff 00 00 00       	and    $0xff,%eax
    4d2d:	83 c4 3c             	add    $0x3c,%esp
    4d30:	48                   	dec    %eax
    4d31:	5b                   	pop    %ebx
    4d32:	83 e0 f2             	and    $0xfffffff2,%eax
    4d35:	5e                   	pop    %esi
    4d36:	5f                   	pop    %edi
    4d37:	5d                   	pop    %ebp
    4d38:	c3                   	ret    
    4d39:	8d b4 26 00 00 00 00 	lea    0x0(%esi,%eiz,1),%esi
    4d40:	8b 3c 85 a0 e2 01 00 	mov    0x1e2a0(,%eax,4),%edi
    4d47:	85 ff                	test   %edi,%edi
    4d49:	0f 85 d9 fe ff ff    	jne    4c28 <str_uint+0x58>
    4d4f:	e9 e6 fe ff ff       	jmp    4c3a <str_uint+0x6a>
    4d54:	8d 74 26 00          	lea    0x0(%esi,%eiz,1),%esi
    4d58:	8d 50 d0             	lea    -0x30(%eax),%edx
    4d5b:	80 fa 09             	cmp    $0x9,%dl
    4d5e:	77 b0                	ja     4d10 <str_uint+0x140>
    4d60:	0f be f0             	movsbl %al,%esi
    4d63:	83 ee 30             	sub    $0x30,%esi
    4d66:	e9 33 ff ff ff       	jmp    4c9e <str_uint+0xce>
    4d6b:	90                   	nop
    4d6c:	8d 74 26 00          	lea    0x0(%esi,%eiz,1),%esi
    4d70:	8d 41 fe             	lea    -0x2(%ecx),%eax
    4d73:	83 f8 22             	cmp    $0x22,%eax
    4d76:	0f 86 e7 fe ff ff    	jbe    4c63 <str_uint+0x93>
    4d7c:	8b 55 d8             	mov    -0x28(%ebp),%edx
    4d7f:	b8 f2 ff ff ff       	mov    $0xfffffff2,%eax
    4d84:	89 1a                	mov    %ebx,(%edx)
    4d86:	e9 4b ff ff ff       	jmp    4cd6 <str_uint+0x106>
    4d8b:	90                   	nop
    4d8c:	8d 74 26 00          	lea    0x0(%esi,%eiz,1),%esi
    4d90:	c6 06 01             	movb   $0x1,(%esi)
    4d93:	43                   	inc    %ebx
    4d94:	e9 b7 fe ff ff       	jmp    4c50 <str_uint+0x80>
    4d99:	8d b4 26 00 00 00 00 	lea    0x0(%esi,%eiz,1),%esi
    4da0:	8a 43 01             	mov    0x1(%ebx),%al
    4da3:	83 e8 42             	sub    $0x42,%eax
    4da6:	3c 36                	cmp    $0x36,%al
    4da8:	76 1f                	jbe    4dc9 <str_uint+0x1f9>
    4daa:	b9 08 00 00 00       	mov    $0x8,%ecx
    4daf:	e9 af fe ff ff       	jmp    4c63 <str_uint+0x93>
    4db4:	8b 55 d8             	mov    -0x28(%ebp),%edx
    4db7:	8b 45 dc             	mov    -0x24(%ebp),%eax
    4dba:	89 02                	mov    %eax,(%edx)
    4dbc:	83 c4 3c             	add    $0x3c,%esp
    4dbf:	b8 f2 ff ff ff       	mov    $0xfffffff2,%eax
    4dc4:	5b                   	pop    %ebx
    4dc5:	5e                   	pop    %esi
    4dc6:	5f                   	pop    %edi
    4dc7:	5d                   	pop    %ebp
    4dc8:	c3                   	ret    
    4dc9:	25 ff 00 00 00       	and    $0xff,%eax
    4dce:	ff 24 85 c0 e1 01 00 	jmp    *0x1e1c0(,%eax,4)
    4dd5:	83 c3 02             	add    $0x2,%ebx
    4dd8:	b9 10 00 00 00       	mov    $0x10,%ecx
    4ddd:	e9 81 fe ff ff       	jmp    4c63 <str_uint+0x93>
    4de2:	83 c3 02             	add    $0x2,%ebx
    4de5:	b9 08 00 00 00       	mov    $0x8,%ecx
    4dea:	e9 74 fe ff ff       	jmp    4c63 <str_uint+0x93>
    4def:	83 c3 02             	add    $0x2,%ebx
    4df2:	b9 0a 00 00 00       	mov    $0xa,%ecx
    4df7:	e9 67 fe ff ff       	jmp    4c63 <str_uint+0x93>
    4dfc:	83 c3 02             	add    $0x2,%ebx
    4dff:	b9 02 00 00 00       	mov    $0x2,%ecx
    4e04:	e9 5a fe ff ff       	jmp    4c63 <str_uint+0x93>
    4e09:	8b 5d dc             	mov    -0x24(%ebp),%ebx
    4e0c:	e9 29 fe ff ff       	jmp    4c3a <str_uint+0x6a>
    4e11:	c7 44 24 08 82 05 00 	movl   $0x582,0x8(%esp)
    4e18:	00 
    4e19:	c7 44 24 04 4e e1 01 	movl   $0x1e14e,0x4(%esp)
    4e20:	00 
    4e21:	c7 04 24 77 e1 01 00 	movl   $0x1e177,(%esp)
    4e28:	e8 93 6c 01 00       	call   1bac0 <assert_abort>
    4e2d:	c7 44 24 08 81 05 00 	movl   $0x581,0x8(%esp)
    4e34:	00 
    4e35:	c7 44 24 04 4e e1 01 	movl   $0x1e14e,0x4(%esp)
    4e3c:	00 
    4e3d:	c7 04 24 6b e1 01 00 	movl   $0x1e16b,(%esp)
    4e44:	e8 77 6c 01 00       	call   1bac0 <assert_abort>
    4e49:	c7 44 24 08 80 05 00 	movl   $0x580,0x8(%esp)
    4e50:	00 
    4e51:	c7 44 24 04 4e e1 01 	movl   $0x1e14e,0x4(%esp)
    4e58:	00 
    4e59:	c7 04 24 5c e1 01 00 	movl   $0x1e15c,(%esp)
    4e60:	e8 5b 6c 01 00       	call   1bac0 <assert_abort>
    4e65:	8d 74 26 00          	lea    0x0(%esi,%eiz,1),%esi
    4e69:	8d bc 27 00 00 00 00 	lea    0x0(%edi,%eiz,1),%edi

00004e70 <str_decode>:
    4e70:	55                   	push   %ebp
    4e71:	89 e5                	mov    %esp,%ebp
    4e73:	57                   	push   %edi
    4e74:	56                   	push   %esi
    4e75:	53                   	push   %ebx
    4e76:	83 ec 0c             	sub    $0xc,%esp
    4e79:	8b 45 0c             	mov    0xc(%ebp),%eax
    4e7c:	8b 7d 08             	mov    0x8(%ebp),%edi
    4e7f:	8b 10                	mov    (%eax),%edx
    4e81:	31 c0                	xor    %eax,%eax
    4e83:	8d 4a 01             	lea    0x1(%edx),%ecx
    4e86:	3b 4d 10             	cmp    0x10(%ebp),%ecx
    4e89:	77 0d                	ja     4e98 <str_decode+0x28>
    4e8b:	0f be 04 17          	movsbl (%edi,%edx,1),%eax
    4e8f:	8b 5d 0c             	mov    0xc(%ebp),%ebx
    4e92:	84 c0                	test   %al,%al
    4e94:	89 0b                	mov    %ecx,(%ebx)
    4e96:	78 08                	js     4ea0 <str_decode+0x30>
    4e98:	83 c4 0c             	add    $0xc,%esp
    4e9b:	5b                   	pop    %ebx
    4e9c:	5e                   	pop    %esi
    4e9d:	5f                   	pop    %edi
    4e9e:	5d                   	pop    %ebp
    4e9f:	c3                   	ret    
    4ea0:	be e0 ff ff ff       	mov    $0xffffffe0,%esi
    4ea5:	21 c6                	and    %eax,%esi
    4ea7:	89 f3                	mov    %esi,%ebx
    4ea9:	80 fb c0             	cmp    $0xc0,%bl
    4eac:	74 32                	je     4ee0 <str_decode+0x70>
    4eae:	be f0 ff ff ff       	mov    $0xfffffff0,%esi
    4eb3:	21 c6                	and    %eax,%esi
    4eb5:	89 f3                	mov    %esi,%ebx
    4eb7:	80 fb e0             	cmp    $0xe0,%bl
    4eba:	0f 84 90 00 00 00    	je     4f50 <str_decode+0xe0>
    4ec0:	be f8 ff ff ff       	mov    $0xfffffff8,%esi
    4ec5:	21 c6                	and    %eax,%esi
    4ec7:	89 f3                	mov    %esi,%ebx
    4ec9:	80 fb f0             	cmp    $0xf0,%bl
    4ecc:	0f 84 87 00 00 00    	je     4f59 <str_decode+0xe9>
    4ed2:	83 c4 0c             	add    $0xc,%esp
    4ed5:	b8 3f 00 00 00       	mov    $0x3f,%eax
    4eda:	5b                   	pop    %ebx
    4edb:	5e                   	pop    %esi
    4edc:	5f                   	pop    %edi
    4edd:	5d                   	pop    %ebp
    4ede:	c3                   	ret    
    4edf:	90                   	nop
    4ee0:	b3 1f                	mov    $0x1f,%bl
    4ee2:	be 01 00 00 00       	mov    $0x1,%esi
    4ee7:	01 f1                	add    %esi,%ecx
    4ee9:	89 4d f0             	mov    %ecx,-0x10(%ebp)
    4eec:	39 4d 10             	cmp    %ecx,0x10(%ebp)
    4eef:	72 e1                	jb     4ed2 <str_decode+0x62>
    4ef1:	21 d8                	and    %ebx,%eax
    4ef3:	8a 4c 17 01          	mov    0x1(%edi,%edx,1),%cl
    4ef7:	8b 5d 0c             	mov    0xc(%ebp),%ebx
    4efa:	be c0 ff ff ff       	mov    $0xffffffc0,%esi
    4eff:	83 c2 02             	add    $0x2,%edx
    4f02:	21 ce                	and    %ecx,%esi
    4f04:	89 13                	mov    %edx,(%ebx)
    4f06:	89 f3                	mov    %esi,%ebx
    4f08:	25 ff 00 00 00       	and    $0xff,%eax
    4f0d:	80 fb 80             	cmp    $0x80,%bl
    4f10:	75 c0                	jne    4ed2 <str_decode+0x62>
    4f12:	8b 5d 0c             	mov    0xc(%ebp),%ebx
    4f15:	89 5d e8             	mov    %ebx,-0x18(%ebp)
    4f18:	eb 1d                	jmp    4f37 <str_decode+0xc7>
    4f1a:	8d b6 00 00 00 00    	lea    0x0(%esi),%esi
    4f20:	8a 0c 17             	mov    (%edi,%edx,1),%cl
    4f23:	8b 5d e8             	mov    -0x18(%ebp),%ebx
    4f26:	be c0 ff ff ff       	mov    $0xffffffc0,%esi
    4f2b:	42                   	inc    %edx
    4f2c:	21 ce                	and    %ecx,%esi
    4f2e:	89 13                	mov    %edx,(%ebx)
    4f30:	89 f3                	mov    %esi,%ebx
    4f32:	80 fb 80             	cmp    $0x80,%bl
    4f35:	75 9b                	jne    4ed2 <str_decode+0x62>
    4f37:	89 c6                	mov    %eax,%esi
    4f39:	89 c8                	mov    %ecx,%eax
    4f3b:	c1 e6 06             	shl    $0x6,%esi
    4f3e:	83 e0 3f             	and    $0x3f,%eax
    4f41:	09 f0                	or     %esi,%eax
    4f43:	39 55 f0             	cmp    %edx,-0x10(%ebp)
    4f46:	75 d8                	jne    4f20 <str_decode+0xb0>
    4f48:	e9 4b ff ff ff       	jmp    4e98 <str_decode+0x28>
    4f4d:	8d 76 00             	lea    0x0(%esi),%esi
    4f50:	b3 0f                	mov    $0xf,%bl
    4f52:	be 02 00 00 00       	mov    $0x2,%esi
    4f57:	eb 8e                	jmp    4ee7 <str_decode+0x77>
    4f59:	b3 07                	mov    $0x7,%bl
    4f5b:	be 03 00 00 00       	mov    $0x3,%esi
    4f60:	eb 85                	jmp    4ee7 <str_decode+0x77>
    4f62:	8d b4 26 00 00 00 00 	lea    0x0(%esi,%eiz,1),%esi
    4f69:	8d bc 27 00 00 00 00 	lea    0x0(%edi,%eiz,1),%edi

00004f70 <str_decode_reverse>:
    4f70:	55                   	push   %ebp
    4f71:	89 e5                	mov    %esp,%ebp
    4f73:	57                   	push   %edi
    4f74:	56                   	push   %esi
    4f75:	53                   	push   %ebx
    4f76:	50                   	push   %eax
    4f77:	31 c0                	xor    %eax,%eax
    4f79:	8b 7d 0c             	mov    0xc(%ebp),%edi
    4f7c:	8b 1f                	mov    (%edi),%ebx
    4f7e:	85 db                	test   %ebx,%ebx
    4f80:	0f 84 24 01 00 00    	je     50aa <str_decode_reverse+0x13a>
    4f86:	8d 73 ff             	lea    -0x1(%ebx),%esi
    4f89:	8b 55 08             	mov    0x8(%ebp),%edx
    4f8c:	89 37                	mov    %esi,(%edi)
    4f8e:	8a 14 32             	mov    (%edx,%esi,1),%dl
    4f91:	88 55 f1             	mov    %dl,-0xf(%ebp)
    4f94:	84 d2                	test   %dl,%dl
    4f96:	0f 89 c4 01 00 00    	jns    5160 <str_decode_reverse+0x1f0>
    4f9c:	88 d1                	mov    %dl,%cl
    4f9e:	83 e1 e0             	and    $0xffffffe0,%ecx
    4fa1:	88 4d f2             	mov    %cl,-0xe(%ebp)
    4fa4:	80 f9 c0             	cmp    $0xc0,%cl
    4fa7:	0f 84 d8 01 00 00    	je     5185 <str_decode_reverse+0x215>
    4fad:	88 d1                	mov    %dl,%cl
    4faf:	83 e1 f0             	and    $0xfffffff0,%ecx
    4fb2:	80 f9 e0             	cmp    $0xe0,%cl
    4fb5:	0f 84 f1 01 00 00    	je     51ac <str_decode_reverse+0x23c>
    4fbb:	88 d0                	mov    %dl,%al
    4fbd:	83 e0 f8             	and    $0xfffffff8,%eax
    4fc0:	3c f0                	cmp    $0xf0,%al
    4fc2:	0f 84 ee 00 00 00    	je     50b6 <str_decode_reverse+0x146>
    4fc8:	88 d1                	mov    %dl,%cl
    4fca:	83 e1 c0             	and    $0xffffffc0,%ecx
    4fcd:	80 f9 80             	cmp    $0x80,%cl
    4fd0:	0f 85 cf 00 00 00    	jne    50a5 <str_decode_reverse+0x135>
    4fd6:	85 f6                	test   %esi,%esi
    4fd8:	0f 84 c7 00 00 00    	je     50a5 <str_decode_reverse+0x135>
    4fde:	8d 43 fe             	lea    -0x2(%ebx),%eax
    4fe1:	8b 4d 08             	mov    0x8(%ebp),%ecx
    4fe4:	89 07                	mov    %eax,(%edi)
    4fe6:	8a 14 01             	mov    (%ecx,%eax,1),%dl
    4fe9:	88 d1                	mov    %dl,%cl
    4feb:	88 55 f1             	mov    %dl,-0xf(%ebp)
    4fee:	83 e1 e0             	and    $0xffffffe0,%ecx
    4ff1:	88 4d f2             	mov    %cl,-0xe(%ebp)
    4ff4:	80 f9 c0             	cmp    $0xc0,%cl
    4ff7:	0f 84 b3 00 00 00    	je     50b0 <str_decode_reverse+0x140>
    4ffd:	88 d1                	mov    %dl,%cl
    4fff:	83 e1 f0             	and    $0xfffffff0,%ecx
    5002:	80 f9 e0             	cmp    $0xe0,%cl
    5005:	0f 84 65 01 00 00    	je     5170 <str_decode_reverse+0x200>
    500b:	88 d1                	mov    %dl,%cl
    500d:	83 e1 f8             	and    $0xfffffff8,%ecx
    5010:	80 f9 f0             	cmp    $0xf0,%cl
    5013:	0f 84 57 01 00 00    	je     5170 <str_decode_reverse+0x200>
    5019:	83 e2 c0             	and    $0xffffffc0,%edx
    501c:	80 fa 80             	cmp    $0x80,%dl
    501f:	0f 85 80 00 00 00    	jne    50a5 <str_decode_reverse+0x135>
    5025:	85 c0                	test   %eax,%eax
    5027:	74 7c                	je     50a5 <str_decode_reverse+0x135>
    5029:	8d 73 fd             	lea    -0x3(%ebx),%esi
    502c:	8b 4d 08             	mov    0x8(%ebp),%ecx
    502f:	89 37                	mov    %esi,(%edi)
    5031:	8a 14 31             	mov    (%ecx,%esi,1),%dl
    5034:	88 d1                	mov    %dl,%cl
    5036:	88 55 f1             	mov    %dl,-0xf(%ebp)
    5039:	83 e1 e0             	and    $0xffffffe0,%ecx
    503c:	88 4d f2             	mov    %cl,-0xe(%ebp)
    503f:	80 f9 c0             	cmp    $0xc0,%cl
    5042:	0f 84 36 01 00 00    	je     517e <str_decode_reverse+0x20e>
    5048:	88 d1                	mov    %dl,%cl
    504a:	83 e1 f0             	and    $0xfffffff0,%ecx
    504d:	80 f9 e0             	cmp    $0xe0,%cl
    5050:	0f 84 21 01 00 00    	je     5177 <str_decode_reverse+0x207>
    5056:	88 d1                	mov    %dl,%cl
    5058:	83 e1 f8             	and    $0xfffffff8,%ecx
    505b:	80 f9 f0             	cmp    $0xf0,%cl
    505e:	0f 84 13 01 00 00    	je     5177 <str_decode_reverse+0x207>
    5064:	83 e2 c0             	and    $0xffffffc0,%edx
    5067:	80 fa 80             	cmp    $0x80,%dl
    506a:	75 39                	jne    50a5 <str_decode_reverse+0x135>
    506c:	85 f6                	test   %esi,%esi
    506e:	74 35                	je     50a5 <str_decode_reverse+0x135>
    5070:	83 eb 04             	sub    $0x4,%ebx
    5073:	8b 45 08             	mov    0x8(%ebp),%eax
    5076:	89 1f                	mov    %ebx,(%edi)
    5078:	8a 14 18             	mov    (%eax,%ebx,1),%dl
    507b:	88 d1                	mov    %dl,%cl
    507d:	88 55 f1             	mov    %dl,-0xf(%ebp)
    5080:	83 e1 e0             	and    $0xffffffe0,%ecx
    5083:	88 4d f2             	mov    %cl,-0xe(%ebp)
    5086:	80 f9 c0             	cmp    $0xc0,%cl
    5089:	74 25                	je     50b0 <str_decode_reverse+0x140>
    508b:	88 d0                	mov    %dl,%al
    508d:	83 e0 f0             	and    $0xfffffff0,%eax
    5090:	3c e0                	cmp    $0xe0,%al
    5092:	0f 84 d8 00 00 00    	je     5170 <str_decode_reverse+0x200>
    5098:	88 d0                	mov    %dl,%al
    509a:	83 e0 f8             	and    $0xfffffff8,%eax
    509d:	3c f0                	cmp    $0xf0,%al
    509f:	0f 84 cb 00 00 00    	je     5170 <str_decode_reverse+0x200>
    50a5:	b8 3f 00 00 00       	mov    $0x3f,%eax
    50aa:	5a                   	pop    %edx
    50ab:	5b                   	pop    %ebx
    50ac:	5e                   	pop    %esi
    50ad:	5f                   	pop    %edi
    50ae:	5d                   	pop    %ebp
    50af:	c3                   	ret    
    50b0:	89 f3                	mov    %esi,%ebx
    50b2:	c6 45 f2 c0          	movb   $0xc0,-0xe(%ebp)
    50b6:	31 c0                	xor    %eax,%eax
    50b8:	39 5d 10             	cmp    %ebx,0x10(%ebp)
    50bb:	72 ed                	jb     50aa <str_decode_reverse+0x13a>
    50bd:	84 d2                	test   %dl,%dl
    50bf:	78 69                	js     512a <str_decode_reverse+0x1ba>
    50c1:	bf 7f 00 00 00       	mov    $0x7f,%edi
    50c6:	31 d2                	xor    %edx,%edx
    50c8:	8d 34 1a             	lea    (%edx,%ebx,1),%esi
    50cb:	b8 3f 00 00 00       	mov    $0x3f,%eax
    50d0:	39 75 10             	cmp    %esi,0x10(%ebp)
    50d3:	72 d5                	jb     50aa <str_decode_reverse+0x13a>
    50d5:	8a 4d f1             	mov    -0xf(%ebp),%cl
    50d8:	31 c0                	xor    %eax,%eax
    50da:	21 f9                	and    %edi,%ecx
    50dc:	85 d2                	test   %edx,%edx
    50de:	88 c8                	mov    %cl,%al
    50e0:	74 c8                	je     50aa <str_decode_reverse+0x13a>
    50e2:	8b 4d 08             	mov    0x8(%ebp),%ecx
    50e5:	8d 73 01             	lea    0x1(%ebx),%esi
    50e8:	8a 0c 19             	mov    (%ecx,%ebx,1),%cl
    50eb:	88 4d f3             	mov    %cl,-0xd(%ebp)
    50ee:	83 e1 c0             	and    $0xffffffc0,%ecx
    50f1:	80 f9 80             	cmp    $0x80,%cl
    50f4:	75 af                	jne    50a5 <str_decode_reverse+0x135>
    50f6:	8b 7d 08             	mov    0x8(%ebp),%edi
    50f9:	8b 4d 08             	mov    0x8(%ebp),%ecx
    50fc:	01 fb                	add    %edi,%ebx
    50fe:	01 ce                	add    %ecx,%esi
    5100:	01 da                	add    %ebx,%edx
    5102:	8a 4d f3             	mov    -0xd(%ebp),%cl
    5105:	eb 0e                	jmp    5115 <str_decode_reverse+0x1a5>
    5107:	90                   	nop
    5108:	8a 0e                	mov    (%esi),%cl
    510a:	46                   	inc    %esi
    510b:	88 cb                	mov    %cl,%bl
    510d:	83 e3 c0             	and    $0xffffffc0,%ebx
    5110:	80 fb 80             	cmp    $0x80,%bl
    5113:	75 90                	jne    50a5 <str_decode_reverse+0x135>
    5115:	89 c3                	mov    %eax,%ebx
    5117:	89 c8                	mov    %ecx,%eax
    5119:	c1 e3 06             	shl    $0x6,%ebx
    511c:	83 e0 3f             	and    $0x3f,%eax
    511f:	09 d8                	or     %ebx,%eax
    5121:	39 d6                	cmp    %edx,%esi
    5123:	75 e3                	jne    5108 <str_decode_reverse+0x198>
    5125:	e9 80 ff ff ff       	jmp    50aa <str_decode_reverse+0x13a>
    512a:	80 7d f2 c0          	cmpb   $0xc0,-0xe(%ebp)
    512e:	74 5e                	je     518e <str_decode_reverse+0x21e>
    5130:	8a 45 f1             	mov    -0xf(%ebp),%al
    5133:	83 e0 f0             	and    $0xfffffff0,%eax
    5136:	3c e0                	cmp    $0xe0,%al
    5138:	74 63                	je     519d <str_decode_reverse+0x22d>
    513a:	8a 55 f1             	mov    -0xf(%ebp),%dl
    513d:	b8 3f 00 00 00       	mov    $0x3f,%eax
    5142:	83 e2 f8             	and    $0xfffffff8,%edx
    5145:	80 fa f0             	cmp    $0xf0,%dl
    5148:	0f 85 5c ff ff ff    	jne    50aa <str_decode_reverse+0x13a>
    514e:	bf 07 00 00 00       	mov    $0x7,%edi
    5153:	ba 03 00 00 00       	mov    $0x3,%edx
    5158:	e9 6b ff ff ff       	jmp    50c8 <str_decode_reverse+0x158>
    515d:	8d 76 00             	lea    0x0(%esi),%esi
    5160:	0f be 45 f1          	movsbl -0xf(%ebp),%eax
    5164:	e9 41 ff ff ff       	jmp    50aa <str_decode_reverse+0x13a>
    5169:	8d b4 26 00 00 00 00 	lea    0x0(%esi,%eiz,1),%esi
    5170:	89 f3                	mov    %esi,%ebx
    5172:	e9 3f ff ff ff       	jmp    50b6 <str_decode_reverse+0x146>
    5177:	89 c3                	mov    %eax,%ebx
    5179:	e9 38 ff ff ff       	jmp    50b6 <str_decode_reverse+0x146>
    517e:	89 c3                	mov    %eax,%ebx
    5180:	e9 2d ff ff ff       	jmp    50b2 <str_decode_reverse+0x142>
    5185:	3b 5d 10             	cmp    0x10(%ebp),%ebx
    5188:	0f 87 1c ff ff ff    	ja     50aa <str_decode_reverse+0x13a>
    518e:	bf 1f 00 00 00       	mov    $0x1f,%edi
    5193:	ba 01 00 00 00       	mov    $0x1,%edx
    5198:	e9 2b ff ff ff       	jmp    50c8 <str_decode_reverse+0x158>
    519d:	bf 0f 00 00 00       	mov    $0xf,%edi
    51a2:	ba 02 00 00 00       	mov    $0x2,%edx
    51a7:	e9 1c ff ff ff       	jmp    50c8 <str_decode_reverse+0x158>
    51ac:	3b 5d 10             	cmp    0x10(%ebp),%ebx
    51af:	0f 86 7b ff ff ff    	jbe    5130 <str_decode_reverse+0x1c0>
    51b5:	e9 f0 fe ff ff       	jmp    50aa <str_decode_reverse+0x13a>
    51ba:	8d b6 00 00 00 00    	lea    0x0(%esi),%esi

000051c0 <chr_encode>:
    51c0:	55                   	push   %ebp
    51c1:	89 e5                	mov    %esp,%ebp
    51c3:	57                   	push   %edi
    51c4:	56                   	push   %esi
    51c5:	53                   	push   %ebx
    51c6:	83 ec 24             	sub    $0x24,%esp
    51c9:	8b 7d 10             	mov    0x10(%ebp),%edi
    51cc:	8b 1f                	mov    (%edi),%ebx
    51ce:	3b 5d 14             	cmp    0x14(%ebp),%ebx
    51d1:	0f 83 c5 00 00 00    	jae    529c <chr_encode+0xdc>
    51d7:	8b 4d 08             	mov    0x8(%ebp),%ecx
    51da:	b8 f2 ff ff ff       	mov    $0xfffffff2,%eax
    51df:	81 f9 ff ff 10 00    	cmp    $0x10ffff,%ecx
    51e5:	77 34                	ja     521b <chr_encode+0x5b>
    51e7:	f7 c1 80 ff ff ff    	test   $0xffffff80,%ecx
    51ed:	75 39                	jne    5228 <chr_encode+0x68>
    51ef:	c6 45 d0 00          	movb   $0x0,-0x30(%ebp)
    51f3:	c6 45 e0 7f          	movb   $0x7f,-0x20(%ebp)
    51f7:	c7 45 f0 00 00 00 00 	movl   $0x0,-0x10(%ebp)
    51fe:	8b 45 e0             	mov    -0x20(%ebp),%eax
    5201:	8b 55 0c             	mov    0xc(%ebp),%edx
    5204:	21 c1                	and    %eax,%ecx
    5206:	8b 45 d0             	mov    -0x30(%ebp),%eax
    5209:	09 c1                	or     %eax,%ecx
    520b:	88 0c 1a             	mov    %cl,(%edx,%ebx,1)
    520e:	8b 55 f0             	mov    -0x10(%ebp),%edx
    5211:	8b 07                	mov    (%edi),%eax
    5213:	8d 44 02 01          	lea    0x1(%edx,%eax,1),%eax
    5217:	89 07                	mov    %eax,(%edi)
    5219:	31 c0                	xor    %eax,%eax
    521b:	83 c4 24             	add    $0x24,%esp
    521e:	5b                   	pop    %ebx
    521f:	5e                   	pop    %esi
    5220:	5f                   	pop    %edi
    5221:	5d                   	pop    %ebp
    5222:	c3                   	ret    
    5223:	90                   	nop
    5224:	8d 74 26 00          	lea    0x0(%esi,%eiz,1),%esi
    5228:	f7 c1 00 f8 ff ff    	test   $0xfffff800,%ecx
    522e:	74 58                	je     5288 <chr_encode+0xc8>
    5230:	89 c8                	mov    %ecx,%eax
    5232:	25 00 00 ff ff       	and    $0xffff0000,%eax
    5237:	83 f8 01             	cmp    $0x1,%eax
    523a:	19 d2                	sbb    %edx,%edx
    523c:	83 e2 f0             	and    $0xfffffff0,%edx
    523f:	83 ea 10             	sub    $0x10,%edx
    5242:	83 f8 01             	cmp    $0x1,%eax
    5245:	88 55 d0             	mov    %dl,-0x30(%ebp)
    5248:	19 d2                	sbb    %edx,%edx
    524a:	83 e2 08             	and    $0x8,%edx
    524d:	83 c2 07             	add    $0x7,%edx
    5250:	83 f8 01             	cmp    $0x1,%eax
    5253:	19 c0                	sbb    %eax,%eax
    5255:	88 55 e0             	mov    %dl,-0x20(%ebp)
    5258:	83 c0 03             	add    $0x3,%eax
    525b:	89 45 f0             	mov    %eax,-0x10(%ebp)
    525e:	01 d8                	add    %ebx,%eax
    5260:	39 45 14             	cmp    %eax,0x14(%ebp)
    5263:	76 37                	jbe    529c <chr_encode+0xdc>
    5265:	8b 45 f0             	mov    -0x10(%ebp),%eax
    5268:	89 ca                	mov    %ecx,%edx
    526a:	8b 75 0c             	mov    0xc(%ebp),%esi
    526d:	01 c6                	add    %eax,%esi
    526f:	83 e2 3f             	and    $0x3f,%edx
    5272:	c1 e9 06             	shr    $0x6,%ecx
    5275:	80 ca 80             	or     $0x80,%dl
    5278:	88 14 1e             	mov    %dl,(%esi,%ebx,1)
    527b:	48                   	dec    %eax
    527c:	8b 1f                	mov    (%edi),%ebx
    527e:	75 e8                	jne    5268 <chr_encode+0xa8>
    5280:	e9 79 ff ff ff       	jmp    51fe <chr_encode+0x3e>
    5285:	8d 76 00             	lea    0x0(%esi),%esi
    5288:	c7 45 f0 01 00 00 00 	movl   $0x1,-0x10(%ebp)
    528f:	c6 45 d0 c0          	movb   $0xc0,-0x30(%ebp)
    5293:	c6 45 e0 1f          	movb   $0x1f,-0x20(%ebp)
    5297:	8b 45 f0             	mov    -0x10(%ebp),%eax
    529a:	eb c2                	jmp    525e <chr_encode+0x9e>
    529c:	b8 f0 ff ff ff       	mov    $0xfffffff0,%eax
    52a1:	e9 75 ff ff ff       	jmp    521b <chr_encode+0x5b>
    52a6:	8d 76 00             	lea    0x0(%esi),%esi
    52a9:	8d bc 27 00 00 00 00 	lea    0x0(%edi,%eiz,1),%edi

000052b0 <str_size>:
    52b0:	55                   	push   %ebp
    52b1:	31 c0                	xor    %eax,%eax
    52b3:	89 e5                	mov    %esp,%ebp
    52b5:	8b 55 08             	mov    0x8(%ebp),%edx
    52b8:	80 3a 00             	cmpb   $0x0,(%edx)
    52bb:	74 0a                	je     52c7 <str_size+0x17>
    52bd:	8d 76 00             	lea    0x0(%esi),%esi
    52c0:	40                   	inc    %eax
    52c1:	80 3c 02 00          	cmpb   $0x0,(%edx,%eax,1)
    52c5:	75 f9                	jne    52c0 <str_size+0x10>
    52c7:	5d                   	pop    %ebp
    52c8:	c3                   	ret    
    52c9:	8d b4 26 00 00 00 00 	lea    0x0(%esi,%eiz,1),%esi

000052d0 <wstr_size>:
    52d0:	55                   	push   %ebp
    52d1:	31 c0                	xor    %eax,%eax
    52d3:	89 e5                	mov    %esp,%ebp
    52d5:	8b 55 08             	mov    0x8(%ebp),%edx
    52d8:	8b 0a                	mov    (%edx),%ecx
    52da:	85 c9                	test   %ecx,%ecx
    52dc:	74 0d                	je     52eb <wstr_size+0x1b>
    52de:	66 90                	xchg   %ax,%ax
    52e0:	40                   	inc    %eax
    52e1:	8b 0c 82             	mov    (%edx,%eax,4),%ecx
    52e4:	85 c9                	test   %ecx,%ecx
    52e6:	75 f8                	jne    52e0 <wstr_size+0x10>
    52e8:	c1 e0 02             	shl    $0x2,%eax
    52eb:	5d                   	pop    %ebp
    52ec:	c3                   	ret    
    52ed:	8d 76 00             	lea    0x0(%esi),%esi

000052f0 <str_lsize>:
    52f0:	55                   	push   %ebp
    52f1:	31 c0                	xor    %eax,%eax
    52f3:	89 e5                	mov    %esp,%ebp
    52f5:	57                   	push   %edi
    52f6:	56                   	push   %esi
    52f7:	53                   	push   %ebx
    52f8:	83 ec 0c             	sub    $0xc,%esp
    52fb:	8b 7d 0c             	mov    0xc(%ebp),%edi
    52fe:	8b 5d 08             	mov    0x8(%ebp),%ebx
    5301:	85 ff                	test   %edi,%edi
    5303:	74 5b                	je     5360 <str_lsize+0x70>
    5305:	c7 45 f0 00 00 00 00 	movl   $0x0,-0x10(%ebp)
    530c:	eb 17                	jmp    5325 <str_lsize+0x35>
    530e:	66 90                	xchg   %ax,%ax
    5310:	89 f8                	mov    %edi,%eax
    5312:	85 d2                	test   %edx,%edx
    5314:	74 4a                	je     5360 <str_lsize+0x70>
    5316:	8b 75 f0             	mov    -0x10(%ebp),%esi
    5319:	8b 55 0c             	mov    0xc(%ebp),%edx
    531c:	46                   	inc    %esi
    531d:	89 75 f0             	mov    %esi,-0x10(%ebp)
    5320:	39 55 f0             	cmp    %edx,-0x10(%ebp)
    5323:	74 3b                	je     5360 <str_lsize+0x70>
    5325:	0f be 14 03          	movsbl (%ebx,%eax,1),%edx
    5329:	8d 78 01             	lea    0x1(%eax),%edi
    532c:	84 d2                	test   %dl,%dl
    532e:	79 e0                	jns    5310 <str_lsize+0x20>
    5330:	88 d1                	mov    %dl,%cl
    5332:	83 e1 e0             	and    $0xffffffe0,%ecx
    5335:	80 f9 c0             	cmp    $0xc0,%cl
    5338:	74 2e                	je     5368 <str_lsize+0x78>
    533a:	88 d1                	mov    %dl,%cl
    533c:	83 e1 f0             	and    $0xfffffff0,%ecx
    533f:	80 f9 e0             	cmp    $0xe0,%cl
    5342:	74 7d                	je     53c1 <str_lsize+0xd1>
    5344:	88 d1                	mov    %dl,%cl
    5346:	83 e1 f8             	and    $0xfffffff8,%ecx
    5349:	80 f9 f0             	cmp    $0xf0,%cl
    534c:	74 7c                	je     53ca <str_lsize+0xda>
    534e:	8b 75 f0             	mov    -0x10(%ebp),%esi
    5351:	8b 55 0c             	mov    0xc(%ebp),%edx
    5354:	46                   	inc    %esi
    5355:	89 f8                	mov    %edi,%eax
    5357:	89 75 f0             	mov    %esi,-0x10(%ebp)
    535a:	39 55 f0             	cmp    %edx,-0x10(%ebp)
    535d:	75 c6                	jne    5325 <str_lsize+0x35>
    535f:	90                   	nop
