
mkbd:     file format elf32-i386


Disassembly of section .init:

00001094 <__entry>:
    1094:	66 8c d0             	mov    %ss,%ax
    1097:	8e d8                	mov    %eax,%ds
    1099:	8e c0                	mov    %eax,%es
    109b:	8e e0                	mov    %eax,%fs
    109d:	b8 01 00 00 00       	mov    $0x1,%eax
    10a2:	0f a2                	cpuid  
    10a4:	0f ba e2 0b          	bt     $0xb,%edx
    10a8:	73 0c                	jae    10b6 <__entry+0x22>
    10aa:	8d 05 70 ff 02 00    	lea    0x2ff70,%eax
    10b0:	c7 00 d7 60 02 00    	movl   $0x260d7,(%eax)
    10b6:	6a 00                	push   $0x0
    10b8:	89 e5                	mov    %esp,%ebp
    10ba:	57                   	push   %edi
    10bb:	e8 50 a4 00 00       	call   b510 <__main>

Disassembly of section .text:

000010c0 <wait_for_quit_fibril>:
    10c0:	55                   	push   %ebp
    10c1:	89 e5                	mov    %esp,%ebp
    10c3:	56                   	push   %esi
    10c4:	53                   	push   %ebx
    10c5:	83 ec 30             	sub    $0x30,%esp
    10c8:	8d 75 e0             	lea    -0x20(%ebp),%esi
    10cb:	a1 28 00 03 00       	mov    0x30028,%eax
    10d0:	89 44 24 04          	mov    %eax,0x4(%esp)
    10d4:	a1 2c 00 03 00       	mov    0x3002c,%eax
    10d9:	89 04 24             	mov    %eax,(%esp)
    10dc:	e8 9f 7a 01 00       	call   18b80 <console_init>
    10e1:	c7 04 24 94 a6 02 00 	movl   $0x2a694,(%esp)
    10e8:	89 c3                	mov    %eax,%ebx
    10ea:	e8 b1 49 01 00       	call   15aa0 <printf>
    10ef:	eb 0d                	jmp    10fe <wait_for_quit_fibril+0x3e>
    10f1:	8d b4 26 00 00 00 00 	lea    0x0(%esi,%eiz,1),%esi
    10f8:	83 7d ec 3b          	cmpl   $0x3b,-0x14(%ebp)
    10fc:	74 2f                	je     112d <wait_for_quit_fibril+0x6d>
    10fe:	89 74 24 04          	mov    %esi,0x4(%esp)
    1102:	89 1c 24             	mov    %ebx,(%esp)
    1105:	e8 66 80 01 00       	call   19170 <console_get_kbd_event>
    110a:	84 c0                	test   %al,%al
    110c:	75 ea                	jne    10f8 <wait_for_quit_fibril+0x38>
    110e:	e8 ed c6 00 00       	call   d800 <__errno>
    1113:	8b 00                	mov    (%eax),%eax
    1115:	89 04 24             	mov    %eax,(%esp)
    1118:	e8 63 ff 00 00       	call   11080 <str_error>
    111d:	c7 04 24 bc a6 02 00 	movl   $0x2a6bc,(%esp)
    1124:	89 44 24 04          	mov    %eax,0x4(%esp)
    1128:	e8 73 49 01 00       	call   15aa0 <printf>
    112d:	89 1c 24             	mov    %ebx,(%esp)
    1130:	e8 cb 7a 01 00       	call   18c00 <console_done>
    1135:	c7 04 24 00 00 00 00 	movl   $0x0,(%esp)
    113c:	e8 ff a2 00 00       	call   b440 <exit>
    1141:	66 90                	xchg   %ax,%ax
    1143:	66 90                	xchg   %ax,%ax
    1145:	66 90                	xchg   %ax,%ax
    1147:	66 90                	xchg   %ax,%ax
    1149:	66 90                	xchg   %ax,%ax
    114b:	66 90                	xchg   %ax,%ax
    114d:	66 90                	xchg   %ax,%ax
    114f:	90                   	nop

00001150 <main>:
    1150:	55                   	push   %ebp
    1151:	89 e5                	mov    %esp,%ebp
    1153:	57                   	push   %edi
    1154:	56                   	push   %esi
    1155:	53                   	push   %ebx
    1156:	83 e4 f0             	and    $0xfffffff0,%esp
    1159:	81 ec 50 04 00 00    	sub    $0x450,%esp
    115f:	8b 45 0c             	mov    0xc(%ebp),%eax
    1162:	83 7d 08 01          	cmpl   $0x1,0x8(%ebp)
    1166:	0f 8e ee 03 00 00    	jle    155a <main+0x40a>
    116c:	8b 40 04             	mov    0x4(%eax),%eax
    116f:	8d 54 24 40          	lea    0x40(%esp),%edx
    1173:	89 54 24 0c          	mov    %edx,0xc(%esp)
    1177:	c7 44 24 08 00 00 00 	movl   $0x0,0x8(%esp)
    117e:	00 
    117f:	c7 44 24 04 00 00 00 	movl   $0x0,0x4(%esp)
    1186:	00 
    1187:	89 04 24             	mov    %eax,(%esp)
    118a:	c7 44 24 40 00 00 00 	movl   $0x0,0x40(%esp)
    1191:	00 
    1192:	e8 b9 34 00 00       	call   4650 <usb_resolve_device_handle>
    1197:	89 c3                	mov    %eax,%ebx
    1199:	85 c0                	test   %eax,%eax
    119b:	0f 85 f4 01 00 00    	jne    1395 <main+0x245>
    11a1:	8b 44 24 40          	mov    0x40(%esp),%eax
    11a5:	c7 44 24 08 00 00 00 	movl   $0x0,0x8(%esp)
    11ac:	00 
    11ad:	89 44 24 04          	mov    %eax,0x4(%esp)
    11b1:	c7 04 24 02 00 00 00 	movl   $0x2,(%esp)
    11b8:	e8 43 b3 00 00       	call   c500 <devman_device_connect>
    11bd:	85 c0                	test   %eax,%eax
    11bf:	0f 84 2e 03 00 00    	je     14f3 <main+0x3a3>
    11c5:	a3 e0 ff 02 00       	mov    %eax,0x2ffe0
    11ca:	8d 5c 24 50          	lea    0x50(%esp),%ebx
    11ce:	8b 44 24 40          	mov    0x40(%esp),%eax
    11d2:	c7 44 24 08 00 04 00 	movl   $0x400,0x8(%esp)
    11d9:	00 
    11da:	89 5c 24 04          	mov    %ebx,0x4(%esp)
    11de:	89 04 24             	mov    %eax,(%esp)
    11e1:	e8 3a b9 00 00       	call   cb20 <devman_fun_get_path>
    11e6:	85 c0                	test   %eax,%eax
    11e8:	0f 85 ef 01 00 00    	jne    13dd <main+0x28d>
    11ee:	89 5c 24 04          	mov    %ebx,0x4(%esp)
    11f2:	c7 04 24 62 a8 02 00 	movl   $0x2a862,(%esp)
    11f9:	e8 a2 48 01 00       	call   15aa0 <printf>
    11fe:	c7 04 24 20 00 00 00 	movl   $0x20,(%esp)
    1205:	8b 3d e0 ff 02 00    	mov    0x2ffe0,%edi
    120b:	e8 10 a4 01 00       	call   1b620 <malloc>
    1210:	89 44 24 2c          	mov    %eax,0x2c(%esp)
    1214:	85 c0                	test   %eax,%eax
    1216:	0f 84 9a 03 00 00    	je     15b6 <main+0x466>
    121c:	89 04 24             	mov    %eax,(%esp)
    121f:	e8 6c 04 00 00       	call   1690 <usb_hid_report_init>
    1224:	89 c3                	mov    %eax,%ebx
    1226:	85 c0                	test   %eax,%eax
    1228:	0f 85 89 01 00 00    	jne    13b7 <main+0x267>
    122e:	8d 44 24 48          	lea    0x48(%esp),%eax
    1232:	89 3c 24             	mov    %edi,(%esp)
    1235:	89 44 24 04          	mov    %eax,0x4(%esp)
    1239:	e8 d2 1f 00 00       	call   3210 <usbhid_dev_get_report_descriptor_length>
    123e:	89 c3                	mov    %eax,%ebx
    1240:	85 c0                	test   %eax,%eax
    1242:	0f 85 6f 01 00 00    	jne    13b7 <main+0x267>
    1248:	8b 44 24 48          	mov    0x48(%esp),%eax
    124c:	85 c0                	test   %eax,%eax
    124e:	0f 84 4c 03 00 00    	je     15a0 <main+0x450>
    1254:	89 04 24             	mov    %eax,(%esp)
    1257:	e8 c4 a3 01 00       	call   1b620 <malloc>
    125c:	89 c6                	mov    %eax,%esi
    125e:	85 c0                	test   %eax,%eax
    1260:	0f 84 5a 03 00 00    	je     15c0 <main+0x470>
    1266:	8d 44 24 4c          	lea    0x4c(%esp),%eax
    126a:	89 74 24 04          	mov    %esi,0x4(%esp)
    126e:	89 44 24 0c          	mov    %eax,0xc(%esp)
    1272:	8b 44 24 48          	mov    0x48(%esp),%eax
    1276:	89 44 24 08          	mov    %eax,0x8(%esp)
    127a:	89 3c 24             	mov    %edi,(%esp)
    127d:	e8 3e 20 00 00       	call   32c0 <usbhid_dev_get_report_descriptor>
    1282:	89 c3                	mov    %eax,%ebx
    1284:	85 c0                	test   %eax,%eax
    1286:	0f 85 97 02 00 00    	jne    1523 <main+0x3d3>
    128c:	8b 44 24 4c          	mov    0x4c(%esp),%eax
    1290:	3b 44 24 48          	cmp    0x48(%esp),%eax
    1294:	0f 85 a2 02 00 00    	jne    153c <main+0x3ec>
    129a:	89 44 24 08          	mov    %eax,0x8(%esp)
    129e:	8b 44 24 2c          	mov    0x2c(%esp),%eax
    12a2:	89 74 24 04          	mov    %esi,0x4(%esp)
    12a6:	89 04 24             	mov    %eax,(%esp)
    12a9:	e8 82 13 00 00       	call   2630 <usb_hid_parse_report_descriptor>
    12ae:	89 34 24             	mov    %esi,(%esp)
    12b1:	89 c3                	mov    %eax,%ebx
    12b3:	e8 78 a4 01 00       	call   1b730 <free>
    12b8:	85 db                	test   %ebx,%ebx
    12ba:	0f 85 26 02 00 00    	jne    14e6 <main+0x396>
    12c0:	8d 44 24 44          	lea    0x44(%esp),%eax
    12c4:	89 44 24 04          	mov    %eax,0x4(%esp)
    12c8:	a1 e0 ff 02 00       	mov    0x2ffe0,%eax
    12cd:	89 04 24             	mov    %eax,(%esp)
    12d0:	e8 fb 1c 00 00       	call   2fd0 <usbhid_dev_get_event_length>
    12d5:	89 c3                	mov    %eax,%ebx
    12d7:	85 c0                	test   %eax,%eax
    12d9:	0f 85 d9 01 00 00    	jne    14b8 <main+0x368>
    12df:	8b 44 24 44          	mov    0x44(%esp),%eax
    12e3:	89 04 24             	mov    %eax,(%esp)
    12e6:	e8 35 a3 01 00       	call   1b620 <malloc>
    12eb:	89 c7                	mov    %eax,%edi
    12ed:	85 c0                	test   %eax,%eax
    12ef:	0f 84 e8 00 00 00    	je     13dd <main+0x28d>
    12f5:	c7 44 24 04 00 00 00 	movl   $0x0,0x4(%esp)
    12fc:	00 
    12fd:	c7 04 24 c0 10 00 00 	movl   $0x10c0,(%esp)
    1304:	e8 87 02 01 00       	call   11590 <fibril_create>
    1309:	85 c0                	test   %eax,%eax
    130b:	0f 84 7b 02 00 00    	je     158c <main+0x43c>
    1311:	89 04 24             	mov    %eax,(%esp)
    1314:	83 ce ff             	or     $0xffffffff,%esi
    1317:	e8 b4 03 01 00       	call   116d0 <fibril_add_ready>
    131c:	89 5c 24 28          	mov    %ebx,0x28(%esp)
    1320:	8b 5c 24 2c          	mov    0x2c(%esp),%ebx
    1324:	eb 0e                	jmp    1334 <main+0x1e4>
    1326:	66 90                	xchg   %ax,%ax
    1328:	c7 04 24 10 27 00 00 	movl   $0x2710,(%esp)
    132f:	e8 ac c6 01 00       	call   1d9e0 <async_usleep>
    1334:	8d 44 24 4c          	lea    0x4c(%esp),%eax
    1338:	c7 44 24 14 00 00 00 	movl   $0x0,0x14(%esp)
    133f:	00 
    1340:	89 44 24 10          	mov    %eax,0x10(%esp)
    1344:	8d 44 24 48          	lea    0x48(%esp),%eax
    1348:	89 44 24 0c          	mov    %eax,0xc(%esp)
    134c:	8b 44 24 44          	mov    0x44(%esp),%eax
    1350:	89 44 24 08          	mov    %eax,0x8(%esp)
    1354:	a1 e0 ff 02 00       	mov    0x2ffe0,%eax
    1359:	89 7c 24 04          	mov    %edi,0x4(%esp)
    135d:	89 04 24             	mov    %eax,(%esp)
    1360:	e8 1b 1d 00 00       	call   3080 <usbhid_dev_get_event>
    1365:	85 c0                	test   %eax,%eax
    1367:	75 7b                	jne    13e4 <main+0x294>
    1369:	3b 74 24 4c          	cmp    0x4c(%esp),%esi
    136d:	7d b9                	jge    1328 <main+0x1d8>
    136f:	8d 44 24 3c          	lea    0x3c(%esp),%eax
    1373:	89 7c 24 04          	mov    %edi,0x4(%esp)
    1377:	89 44 24 0c          	mov    %eax,0xc(%esp)
    137b:	8b 44 24 44          	mov    0x44(%esp),%eax
    137f:	89 44 24 08          	mov    %eax,0x8(%esp)
    1383:	89 1c 24             	mov    %ebx,(%esp)
    1386:	e8 65 23 00 00       	call   36f0 <usb_hid_parse_report>
    138b:	85 c0                	test   %eax,%eax
    138d:	74 73                	je     1402 <main+0x2b2>
    138f:	8b 74 24 4c          	mov    0x4c(%esp),%esi
    1393:	eb 93                	jmp    1328 <main+0x1d8>
    1395:	89 04 24             	mov    %eax,(%esp)
    1398:	e8 e3 fc 00 00       	call   11080 <str_error>
    139d:	c7 04 24 50 a7 02 00 	movl   $0x2a750,(%esp)
    13a4:	89 44 24 04          	mov    %eax,0x4(%esp)
    13a8:	e8 f3 46 01 00       	call   15aa0 <printf>
    13ad:	8d 65 f4             	lea    -0xc(%ebp),%esp
    13b0:	89 d8                	mov    %ebx,%eax
    13b2:	5b                   	pop    %ebx
    13b3:	5e                   	pop    %esi
    13b4:	5f                   	pop    %edi
    13b5:	5d                   	pop    %ebp
    13b6:	c3                   	ret    
    13b7:	8b 44 24 2c          	mov    0x2c(%esp),%eax
    13bb:	89 04 24             	mov    %eax,(%esp)
    13be:	e8 1d 1b 00 00       	call   2ee0 <usb_hid_report_deinit>
    13c3:	89 1c 24             	mov    %ebx,(%esp)
    13c6:	e8 b5 fc 00 00       	call   11080 <str_error>
    13cb:	c7 04 24 28 a8 02 00 	movl   $0x2a828,(%esp)
    13d2:	89 44 24 04          	mov    %eax,0x4(%esp)
    13d6:	e8 c5 46 01 00       	call   15aa0 <printf>
    13db:	eb d0                	jmp    13ad <main+0x25d>
    13dd:	bb fe ff ff ff       	mov    $0xfffffffe,%ebx
    13e2:	eb c9                	jmp    13ad <main+0x25d>
    13e4:	89 04 24             	mov    %eax,(%esp)
    13e7:	8b 5c 24 28          	mov    0x28(%esp),%ebx
    13eb:	e8 90 fc 00 00       	call   11080 <str_error>
    13f0:	c7 04 24 f8 a7 02 00 	movl   $0x2a7f8,(%esp)
    13f7:	89 44 24 04          	mov    %eax,0x4(%esp)
    13fb:	e8 a0 46 01 00       	call   15aa0 <printf>
    1400:	eb ab                	jmp    13ad <main+0x25d>
    1402:	e8 29 2f 00 00       	call   4330 <usb_hid_report_path>
    1407:	89 c6                	mov    %eax,%esi
    1409:	85 c0                	test   %eax,%eax
    140b:	74 82                	je     138f <main+0x23f>
    140d:	c7 44 24 08 00 00 00 	movl   $0x0,0x8(%esp)
    1414:	00 
    1415:	c7 44 24 04 0c 00 00 	movl   $0xc,0x4(%esp)
    141c:	00 
    141d:	89 04 24             	mov    %eax,(%esp)
    1420:	e8 0b 2a 00 00       	call   3e30 <usb_hid_report_path_append_item>
    1425:	31 c0                	xor    %eax,%eax
    1427:	8a 44 24 3c          	mov    0x3c(%esp),%al
    142b:	89 34 24             	mov    %esi,(%esp)
    142e:	89 44 24 04          	mov    %eax,0x4(%esp)
    1432:	e8 a9 30 00 00       	call   44e0 <usb_hid_report_path_set_report_id>
    1437:	c7 44 24 10 01 00 00 	movl   $0x1,0x10(%esp)
    143e:	00 
    143f:	c7 44 24 0c 03 00 00 	movl   $0x3,0xc(%esp)
    1446:	00 
    1447:	89 74 24 08          	mov    %esi,0x8(%esp)
    144b:	c7 44 24 04 00 00 00 	movl   $0x0,0x4(%esp)
    1452:	00 
    1453:	89 1c 24             	mov    %ebx,(%esp)
    1456:	e8 f5 27 00 00       	call   3c50 <usb_hid_report_get_sibling>
    145b:	85 c0                	test   %eax,%eax
    145d:	74 7a                	je     14d9 <main+0x389>
    145f:	89 7c 24 2c          	mov    %edi,0x2c(%esp)
    1463:	89 c7                	mov    %eax,%edi
    1465:	eb 27                	jmp    148e <main+0x33e>
    1467:	90                   	nop
    1468:	89 7c 24 04          	mov    %edi,0x4(%esp)
    146c:	c7 44 24 10 01 00 00 	movl   $0x1,0x10(%esp)
    1473:	00 
    1474:	c7 44 24 0c 03 00 00 	movl   $0x3,0xc(%esp)
    147b:	00 
    147c:	89 74 24 08          	mov    %esi,0x8(%esp)
    1480:	89 1c 24             	mov    %ebx,(%esp)
    1483:	e8 c8 27 00 00       	call   3c50 <usb_hid_report_get_sibling>
    1488:	89 c7                	mov    %eax,%edi
    148a:	85 c0                	test   %eax,%eax
    148c:	74 47                	je     14d5 <main+0x385>
    148e:	8b 47 3c             	mov    0x3c(%edi),%eax
    1491:	85 c0                	test   %eax,%eax
    1493:	74 d3                	je     1468 <main+0x318>
    1495:	66 8b 47 0a          	mov    0xa(%edi),%ax
    1499:	25 ff ff 00 00       	and    $0xffff,%eax
    149e:	89 04 24             	mov    %eax,(%esp)
    14a1:	e8 5a 30 00 00       	call   4500 <usbhid_multimedia_usage_to_str>
    14a6:	c7 04 24 73 a8 02 00 	movl   $0x2a873,(%esp)
    14ad:	89 44 24 04          	mov    %eax,0x4(%esp)
    14b1:	e8 ea 45 01 00       	call   15aa0 <printf>
    14b6:	eb b0                	jmp    1468 <main+0x318>
    14b8:	89 1c 24             	mov    %ebx,(%esp)
    14bb:	e8 c0 fb 00 00       	call   11080 <str_error>
    14c0:	c7 04 24 b4 a7 02 00 	movl   $0x2a7b4,(%esp)
    14c7:	89 44 24 04          	mov    %eax,0x4(%esp)
    14cb:	e8 d0 45 01 00       	call   15aa0 <printf>
    14d0:	e9 d8 fe ff ff       	jmp    13ad <main+0x25d>
    14d5:	8b 7c 24 2c          	mov    0x2c(%esp),%edi
    14d9:	89 34 24             	mov    %esi,(%esp)
    14dc:	e8 8f 2e 00 00       	call   4370 <usb_hid_report_path_free>
    14e1:	e9 a9 fe ff ff       	jmp    138f <main+0x23f>
    14e6:	89 34 24             	mov    %esi,(%esp)
    14e9:	e8 42 a2 01 00       	call   1b730 <free>
    14ee:	e9 d0 fe ff ff       	jmp    13c3 <main+0x273>
    14f3:	e8 08 c3 00 00       	call   d800 <__errno>
    14f8:	89 c3                	mov    %eax,%ebx
    14fa:	8b 00                	mov    (%eax),%eax
    14fc:	89 04 24             	mov    %eax,(%esp)
    14ff:	e8 7c fb 00 00       	call   11080 <str_error>
    1504:	c7 04 24 7c a7 02 00 	movl   $0x2a77c,(%esp)
    150b:	89 44 24 08          	mov    %eax,0x8(%esp)
    150f:	8b 44 24 40          	mov    0x40(%esp),%eax
    1513:	89 44 24 04          	mov    %eax,0x4(%esp)
    1517:	e8 84 45 01 00       	call   15aa0 <printf>
    151c:	8b 1b                	mov    (%ebx),%ebx
    151e:	e9 8a fe ff ff       	jmp    13ad <main+0x25d>
    1523:	8b 44 24 2c          	mov    0x2c(%esp),%eax
    1527:	89 04 24             	mov    %eax,(%esp)
    152a:	e8 b1 19 00 00       	call   2ee0 <usb_hid_report_deinit>
    152f:	89 34 24             	mov    %esi,(%esp)
    1532:	e8 f9 a1 01 00       	call   1b730 <free>
    1537:	e9 87 fe ff ff       	jmp    13c3 <main+0x273>
    153c:	8b 44 24 2c          	mov    0x2c(%esp),%eax
    1540:	bb f2 ff ff ff       	mov    $0xfffffff2,%ebx
    1545:	89 04 24             	mov    %eax,(%esp)
    1548:	e8 93 19 00 00       	call   2ee0 <usb_hid_report_deinit>
    154d:	89 34 24             	mov    %esi,(%esp)
    1550:	e8 db a1 01 00       	call   1b730 <free>
    1555:	e9 69 fe ff ff       	jmp    13c3 <main+0x273>
    155a:	8b 18                	mov    (%eax),%ebx
    155c:	c7 04 24 e4 a6 02 00 	movl   $0x2a6e4,(%esp)
    1563:	e8 38 45 01 00       	call   15aa0 <printf>
    1568:	89 5c 24 04          	mov    %ebx,0x4(%esp)
    156c:	c7 04 24 50 a8 02 00 	movl   $0x2a850,(%esp)
    1573:	83 cb ff             	or     $0xffffffff,%ebx
    1576:	e8 25 45 01 00       	call   15aa0 <printf>
    157b:	c7 04 24 1c a7 02 00 	movl   $0x2a71c,(%esp)
    1582:	e8 19 45 01 00       	call   15aa0 <printf>
    1587:	e9 21 fe ff ff       	jmp    13ad <main+0x25d>
    158c:	c7 04 24 d8 a7 02 00 	movl   $0x2a7d8,(%esp)
    1593:	83 cb ff             	or     $0xffffffff,%ebx
    1596:	e8 05 45 01 00       	call   15aa0 <printf>
    159b:	e9 0d fe ff ff       	jmp    13ad <main+0x25d>
    15a0:	8b 44 24 2c          	mov    0x2c(%esp),%eax
    15a4:	bb f2 ff ff ff       	mov    $0xfffffff2,%ebx
    15a9:	89 04 24             	mov    %eax,(%esp)
    15ac:	e8 2f 19 00 00       	call   2ee0 <usb_hid_report_deinit>
    15b1:	e9 0d fe ff ff       	jmp    13c3 <main+0x273>
    15b6:	bb fe ff ff ff       	mov    $0xfffffffe,%ebx
    15bb:	e9 03 fe ff ff       	jmp    13c3 <main+0x273>
    15c0:	8b 44 24 2c          	mov    0x2c(%esp),%eax
    15c4:	bb fe ff ff ff       	mov    $0xfffffffe,%ebx
    15c9:	89 04 24             	mov    %eax,(%esp)
    15cc:	e8 0f 19 00 00       	call   2ee0 <usb_hid_report_deinit>
    15d1:	e9 ed fd ff ff       	jmp    13c3 <main+0x273>
    15d6:	66 90                	xchg   %ax,%ax
    15d8:	66 90                	xchg   %ax,%ax
    15da:	66 90                	xchg   %ax,%ax
    15dc:	66 90                	xchg   %ax,%ax
    15de:	66 90                	xchg   %ax,%ax

000015e0 <usb_hid_report_path_try_insert>:
    15e0:	55                   	push   %ebp
    15e1:	89 e5                	mov    %esp,%ebp
    15e3:	57                   	push   %edi
    15e4:	56                   	push   %esi
    15e5:	53                   	push   %ebx
    15e6:	83 ec 2c             	sub    $0x2c,%esp
    15e9:	8b 55 08             	mov    0x8(%ebp),%edx
    15ec:	8b 5d 0c             	mov    0xc(%ebp),%ebx
    15ef:	85 db                	test   %ebx,%ebx
    15f1:	8b 72 10             	mov    0x10(%edx),%esi
    15f4:	0f 84 7e 00 00 00    	je     1678 <usb_hid_report_path_try_insert+0x98>
    15fa:	89 d1                	mov    %edx,%ecx
    15fc:	83 c1 0c             	add    $0xc,%ecx
    15ff:	89 4d e4             	mov    %ecx,-0x1c(%ebp)
    1602:	39 ce                	cmp    %ecx,%esi
    1604:	75 0a                	jne    1610 <usb_hid_report_path_try_insert+0x30>
    1606:	eb 38                	jmp    1640 <usb_hid_report_path_try_insert+0x60>
    1608:	8b 76 04             	mov    0x4(%esi),%esi
    160b:	39 75 e4             	cmp    %esi,-0x1c(%ebp)
    160e:	74 30                	je     1640 <usb_hid_report_path_try_insert+0x60>
    1610:	8d 7e f8             	lea    -0x8(%esi),%edi
    1613:	c7 44 24 08 00 00 00 	movl   $0x0,0x8(%esp)
    161a:	00 
    161b:	89 5c 24 04          	mov    %ebx,0x4(%esp)
    161f:	89 3c 24             	mov    %edi,(%esp)
    1622:	e8 39 2a 00 00       	call   4060 <usb_hid_report_compare_usage_path>
    1627:	85 c0                	test   %eax,%eax
    1629:	75 dd                	jne    1608 <usb_hid_report_path_try_insert+0x28>
    162b:	39 75 e4             	cmp    %esi,-0x1c(%ebp)
    162e:	74 10                	je     1640 <usb_hid_report_path_try_insert+0x60>
    1630:	83 c4 2c             	add    $0x2c,%esp
    1633:	89 f8                	mov    %edi,%eax
    1635:	5b                   	pop    %ebx
    1636:	5e                   	pop    %esi
    1637:	5f                   	pop    %edi
    1638:	5d                   	pop    %ebp
    1639:	c3                   	ret    
    163a:	8d b6 00 00 00 00    	lea    0x0(%esi),%esi
    1640:	89 1c 24             	mov    %ebx,(%esp)
    1643:	e8 d8 2d 00 00       	call   4420 <usb_hid_report_path_clone>
    1648:	89 c7                	mov    %eax,%edi
    164a:	85 c0                	test   %eax,%eax
    164c:	74 2a                	je     1678 <usb_hid_report_path_try_insert+0x98>
    164e:	8b 4d 08             	mov    0x8(%ebp),%ecx
    1651:	8b 55 e4             	mov    -0x1c(%ebp),%edx
    1654:	89 57 0c             	mov    %edx,0xc(%edi)
    1657:	8d 40 08             	lea    0x8(%eax),%eax
    165a:	8b 51 0c             	mov    0xc(%ecx),%edx
    165d:	89 57 08             	mov    %edx,0x8(%edi)
    1660:	8b 51 0c             	mov    0xc(%ecx),%edx
    1663:	89 41 0c             	mov    %eax,0xc(%ecx)
    1666:	89 42 04             	mov    %eax,0x4(%edx)
    1669:	8b 41 14             	mov    0x14(%ecx),%eax
    166c:	40                   	inc    %eax
    166d:	89 41 14             	mov    %eax,0x14(%ecx)
    1670:	eb be                	jmp    1630 <usb_hid_report_path_try_insert+0x50>
    1672:	8d b6 00 00 00 00    	lea    0x0(%esi),%esi
    1678:	83 c4 2c             	add    $0x2c,%esp
    167b:	31 ff                	xor    %edi,%edi
    167d:	89 f8                	mov    %edi,%eax
    167f:	5b                   	pop    %ebx
    1680:	5e                   	pop    %esi
    1681:	5f                   	pop    %edi
    1682:	5d                   	pop    %ebp
    1683:	c3                   	ret    
    1684:	8d b6 00 00 00 00    	lea    0x0(%esi),%esi
    168a:	8d bf 00 00 00 00    	lea    0x0(%edi),%edi

00001690 <usb_hid_report_init>:
    1690:	55                   	push   %ebp
    1691:	89 e5                	mov    %esp,%ebp
    1693:	53                   	push   %ebx
    1694:	83 ec 14             	sub    $0x14,%esp
    1697:	8b 5d 08             	mov    0x8(%ebp),%ebx
    169a:	85 db                	test   %ebx,%ebx
    169c:	74 3a                	je     16d8 <usb_hid_report_init+0x48>
    169e:	c7 44 24 08 20 00 00 	movl   $0x20,0x8(%esp)
    16a5:	00 
    16a6:	c7 44 24 04 00 00 00 	movl   $0x0,0x4(%esp)
    16ad:	00 
    16ae:	89 1c 24             	mov    %ebx,(%esp)
    16b1:	e8 5a c1 00 00       	call   d810 <memset>
    16b6:	8d 43 04             	lea    0x4(%ebx),%eax
    16b9:	89 43 04             	mov    %eax,0x4(%ebx)
    16bc:	89 43 08             	mov    %eax,0x8(%ebx)
    16bf:	8d 43 0c             	lea    0xc(%ebx),%eax
    16c2:	c7 43 18 00 00 00 00 	movl   $0x0,0x18(%ebx)
    16c9:	89 43 0c             	mov    %eax,0xc(%ebx)
    16cc:	89 43 10             	mov    %eax,0x10(%ebx)
    16cf:	31 c0                	xor    %eax,%eax
    16d1:	83 c4 14             	add    $0x14,%esp
    16d4:	5b                   	pop    %ebx
    16d5:	5d                   	pop    %ebp
    16d6:	c3                   	ret    
    16d7:	90                   	nop
    16d8:	b8 f2 ff ff ff       	mov    $0xfffffff2,%eax
    16dd:	eb f2                	jmp    16d1 <usb_hid_report_init+0x41>
    16df:	90                   	nop

000016e0 <usb_hid_report_append_fields>:
    16e0:	55                   	push   %ebp
    16e1:	89 e5                	mov    %esp,%ebp
    16e3:	57                   	push   %edi
    16e4:	56                   	push   %esi
    16e5:	53                   	push   %ebx
    16e6:	83 ec 4c             	sub    $0x4c,%esp
    16e9:	8b 75 0c             	mov    0xc(%ebp),%esi
    16ec:	85 f6                	test   %esi,%esi
    16ee:	0f 84 58 04 00 00    	je     1b4c <usb_hid_report_append_fields+0x46c>
    16f4:	8b 45 08             	mov    0x8(%ebp),%eax
    16f7:	85 c0                	test   %eax,%eax
    16f9:	0f 84 4d 04 00 00    	je     1b4c <usb_hid_report_append_fields+0x46c>
    16ff:	8b 86 04 00 04 00    	mov    0x40004(%esi),%eax
    1705:	c7 45 cc 00 00 00 00 	movl   $0x0,-0x34(%ebp)
    170c:	85 c0                	test   %eax,%eax
    170e:	7e 2d                	jle    173d <usb_hid_report_append_fields+0x5d>
    1710:	c1 e0 02             	shl    $0x2,%eax
    1713:	89 04 24             	mov    %eax,(%esp)
    1716:	e8 05 9f 01 00       	call   1b620 <malloc>
    171b:	89 45 cc             	mov    %eax,-0x34(%ebp)
    171e:	8b 86 04 00 04 00    	mov    0x40004(%esi),%eax
    1724:	c1 e0 02             	shl    $0x2,%eax
    1727:	89 44 24 08          	mov    %eax,0x8(%esp)
    172b:	8d 46 08             	lea    0x8(%esi),%eax
    172e:	89 44 24 04          	mov    %eax,0x4(%esp)
    1732:	8b 45 cc             	mov    -0x34(%ebp),%eax
    1735:	89 04 24             	mov    %eax,(%esp)
    1738:	e8 53 c2 00 00       	call   d990 <memcpy>
    173d:	8b 96 58 00 04 00    	mov    0x40058(%esi),%edx
    1743:	8b 86 20 00 04 00    	mov    0x40020(%esi),%eax
    1749:	89 55 d8             	mov    %edx,-0x28(%ebp)
    174c:	85 c0                	test   %eax,%eax
    174e:	0f 8e d8 03 00 00    	jle    1b2c <usb_hid_report_append_fields+0x44c>
    1754:	8b 4d 08             	mov    0x8(%ebp),%ecx
    1757:	8b 7d 08             	mov    0x8(%ebp),%edi
    175a:	83 c1 0c             	add    $0xc,%ecx
    175d:	83 c7 04             	add    $0x4,%edi
    1760:	c7 45 c8 00 00 00 00 	movl   $0x0,-0x38(%ebp)
    1767:	c7 45 e0 00 00 00 00 	movl   $0x0,-0x20(%ebp)
    176e:	89 4d e4             	mov    %ecx,-0x1c(%ebp)
    1771:	89 7d d4             	mov    %edi,-0x2c(%ebp)
    1774:	8d 74 26 00          	lea    0x0(%esi,%eiz,1),%esi
    1778:	c7 04 24 48 00 00 00 	movl   $0x48,(%esp)
    177f:	e8 9c 9e 01 00       	call   1b620 <malloc>
    1784:	89 c3                	mov    %eax,%ebx
    1786:	85 c0                	test   %eax,%eax
    1788:	0f 84 91 03 00 00    	je     1b1f <usb_hid_report_append_fields+0x43f>
    178e:	c7 44 24 08 48 00 00 	movl   $0x48,0x8(%esp)
    1795:	00 
    1796:	c7 44 24 04 00 00 00 	movl   $0x0,0x4(%esp)
    179d:	00 
    179e:	89 04 24             	mov    %eax,(%esp)
    17a1:	e8 6a c0 00 00       	call   d810 <memset>
    17a6:	8b 86 14 00 04 00    	mov    0x40014(%esi),%eax
    17ac:	89 43 14             	mov    %eax,0x14(%ebx)
    17af:	8b 86 18 00 04 00    	mov    0x40018(%esi),%eax
    17b5:	89 43 18             	mov    %eax,0x18(%ebx)
    17b8:	8b 86 48 00 04 00    	mov    0x40048(%esi),%eax
    17be:	89 43 1c             	mov    %eax,0x1c(%ebx)
    17c1:	8b 86 4c 00 04 00    	mov    0x4004c(%esi),%eax
    17c7:	c7 43 40 00 00 00 00 	movl   $0x0,0x40(%ebx)
    17ce:	c7 43 44 00 00 00 00 	movl   $0x0,0x44(%ebx)
    17d5:	89 43 20             	mov    %eax,0x20(%ebx)
    17d8:	f6 86 50 00 04 00 02 	testb  $0x2,0x40050(%esi)
    17df:	0f 85 2b 02 00 00    	jne    1a10 <usb_hid_report_append_fields+0x330>
    17e5:	8b 86 04 00 04 00    	mov    0x40004(%esi),%eax
    17eb:	66 c7 43 0a 00 00    	movw   $0x0,0xa(%ebx)
    17f1:	89 43 38             	mov    %eax,0x38(%ebx)
    17f4:	8b 45 cc             	mov    -0x34(%ebp),%eax
    17f7:	89 43 34             	mov    %eax,0x34(%ebx)
    17fa:	66 c7 43 08 00 00    	movw   $0x0,0x8(%ebx)
    1800:	31 c0                	xor    %eax,%eax
    1802:	c7 45 c8 01 00 00 00 	movl   $0x1,-0x38(%ebp)
    1809:	8b 4d d8             	mov    -0x28(%ebp),%ecx
    180c:	89 44 24 08          	mov    %eax,0x8(%esp)
    1810:	89 0c 24             	mov    %ecx,(%esp)
    1813:	c7 44 24 04 01 00 00 	movl   $0x1,0x4(%esp)
    181a:	00 
    181b:	e8 20 27 00 00       	call   3f40 <usb_hid_report_set_last_item>
    1820:	66 8b 43 0a          	mov    0xa(%ebx),%ax
    1824:	25 ff ff 00 00       	and    $0xffff,%eax
    1829:	8b 7d d8             	mov    -0x28(%ebp),%edi
    182c:	89 44 24 08          	mov    %eax,0x8(%esp)
    1830:	89 3c 24             	mov    %edi,(%esp)
    1833:	c7 44 24 04 02 00 00 	movl   $0x2,0x4(%esp)
    183a:	00 
    183b:	e8 00 27 00 00       	call   3f40 <usb_hid_report_set_last_item>
    1840:	8b 55 08             	mov    0x8(%ebp),%edx
    1843:	8b 45 d8             	mov    -0x28(%ebp),%eax
    1846:	8b 7a 10             	mov    0x10(%edx),%edi
    1849:	85 c0                	test   %eax,%eax
    184b:	0f 84 c7 02 00 00    	je     1b18 <usb_hid_report_append_fields+0x438>
    1851:	3b 7d e4             	cmp    -0x1c(%ebp),%edi
    1854:	0f 84 1c 02 00 00    	je     1a76 <usb_hid_report_append_fields+0x396>
    185a:	89 5d dc             	mov    %ebx,-0x24(%ebp)
    185d:	89 75 d0             	mov    %esi,-0x30(%ebp)
    1860:	89 fb                	mov    %edi,%ebx
    1862:	8b 7d d8             	mov    -0x28(%ebp),%edi
    1865:	eb 0d                	jmp    1874 <usb_hid_report_append_fields+0x194>
    1867:	90                   	nop
    1868:	8b 5b 04             	mov    0x4(%ebx),%ebx
    186b:	3b 5d e4             	cmp    -0x1c(%ebp),%ebx
    186e:	0f 84 fc 01 00 00    	je     1a70 <usb_hid_report_append_fields+0x390>
    1874:	8d 73 f8             	lea    -0x8(%ebx),%esi
    1877:	c7 44 24 08 00 00 00 	movl   $0x0,0x8(%esp)
    187e:	00 
    187f:	89 7c 24 04          	mov    %edi,0x4(%esp)
    1883:	89 34 24             	mov    %esi,(%esp)
    1886:	e8 d5 27 00 00       	call   4060 <usb_hid_report_compare_usage_path>
    188b:	85 c0                	test   %eax,%eax
    188d:	75 d9                	jne    1868 <usb_hid_report_append_fields+0x188>
    188f:	89 df                	mov    %ebx,%edi
    1891:	89 f2                	mov    %esi,%edx
    1893:	8b 5d dc             	mov    -0x24(%ebp),%ebx
    1896:	8b 75 d0             	mov    -0x30(%ebp),%esi
    1899:	3b 7d e4             	cmp    -0x1c(%ebp),%edi
    189c:	0f 84 d4 01 00 00    	je     1a76 <usb_hid_report_append_fields+0x396>
    18a2:	89 53 10             	mov    %edx,0x10(%ebx)
    18a5:	8b 96 1c 00 04 00    	mov    0x4001c(%esi),%edx
    18ab:	89 53 04             	mov    %edx,0x4(%ebx)
    18ae:	83 be 54 00 04 00 01 	cmpl   $0x1,0x40054(%esi)
    18b5:	0f 84 fd 01 00 00    	je     1ab8 <usb_hid_report_append_fields+0x3d8>
    18bb:	8b 45 e0             	mov    -0x20(%ebp),%eax
    18be:	0f af c2             	imul   %edx,%eax
    18c1:	8b 96 24 00 04 00    	mov    0x40024(%esi),%edx
    18c7:	01 d0                	add    %edx,%eax
    18c9:	89 03                	mov    %eax,(%ebx)
    18cb:	8b 55 08             	mov    0x8(%ebp),%edx
    18ce:	8b 7a 18             	mov    0x18(%edx),%edi
    18d1:	85 ff                	test   %edi,%edi
    18d3:	74 0c                	je     18e1 <usb_hid_report_append_fields+0x201>
    18d5:	83 c0 08             	add    $0x8,%eax
    18d8:	89 03                	mov    %eax,(%ebx)
    18da:	c7 42 18 01 00 00 00 	movl   $0x1,0x18(%edx)
    18e1:	8a 8e 50 00 04 00    	mov    0x40050(%esi),%cl
    18e7:	8b 7d 08             	mov    0x8(%ebp),%edi
    18ea:	88 4b 0c             	mov    %cl,0xc(%ebx)
    18ed:	8b 57 08             	mov    0x8(%edi),%edx
    18f0:	8b 86 54 00 04 00    	mov    0x40054(%esi),%eax
    18f6:	8a 0e                	mov    (%esi),%cl
    18f8:	3b 55 d4             	cmp    -0x2c(%ebp),%edx
    18fb:	0f 84 8a 00 00 00    	je     198b <usb_hid_report_append_fields+0x2ab>
    1901:	84 c9                	test   %cl,%cl
    1903:	0f 84 3f 01 00 00    	je     1a48 <usb_hid_report_append_fields+0x368>
    1909:	89 5d dc             	mov    %ebx,-0x24(%ebp)
    190c:	8b 5d d4             	mov    -0x2c(%ebp),%ebx
    190f:	eb 0e                	jmp    191f <usb_hid_report_append_fields+0x23f>
    1911:	8d b4 26 00 00 00 00 	lea    0x0(%esi,%eiz,1),%esi
    1918:	8b 52 04             	mov    0x4(%edx),%edx
    191b:	39 da                	cmp    %ebx,%edx
    191d:	74 69                	je     1988 <usb_hid_report_append_fields+0x2a8>
    191f:	8d 7a e8             	lea    -0x18(%edx),%edi
    1922:	3a 4a e8             	cmp    -0x18(%edx),%cl
    1925:	75 f1                	jne    1918 <usb_hid_report_append_fields+0x238>
    1927:	3b 47 04             	cmp    0x4(%edi),%eax
    192a:	75 ec                	jne    1918 <usb_hid_report_append_fields+0x238>
    192c:	8b 5d dc             	mov    -0x24(%ebp),%ebx
    192f:	8d 42 f8             	lea    -0x8(%edx),%eax
    1932:	89 43 44             	mov    %eax,0x44(%ebx)
    1935:	8b 47 10             	mov    0x10(%edi),%eax
    1938:	89 43 40             	mov    %eax,0x40(%ebx)
    193b:	8d 53 40             	lea    0x40(%ebx),%edx
    193e:	8b 47 10             	mov    0x10(%edi),%eax
    1941:	89 57 10             	mov    %edx,0x10(%edi)
    1944:	89 50 04             	mov    %edx,0x4(%eax)
    1947:	8b 43 04             	mov    0x4(%ebx),%eax
    194a:	8b 5f 08             	mov    0x8(%edi),%ebx
    194d:	01 c3                	add    %eax,%ebx
    194f:	8b 47 0c             	mov    0xc(%edi),%eax
    1952:	40                   	inc    %eax
    1953:	89 5f 08             	mov    %ebx,0x8(%edi)
    1956:	89 47 0c             	mov    %eax,0xc(%edi)
    1959:	8b 45 e0             	mov    -0x20(%ebp),%eax
    195c:	40                   	inc    %eax
    195d:	89 45 e0             	mov    %eax,-0x20(%ebp)
    1960:	8b 4d e0             	mov    -0x20(%ebp),%ecx
    1963:	39 8e 20 00 04 00    	cmp    %ecx,0x40020(%esi)
    1969:	0f 8f 09 fe ff ff    	jg     1778 <usb_hid_report_append_fields+0x98>
    196f:	8b 4d c8             	mov    -0x38(%ebp),%ecx
    1972:	85 c9                	test   %ecx,%ecx
    1974:	0f 84 b2 01 00 00    	je     1b2c <usb_hid_report_append_fields+0x44c>
    197a:	83 c4 4c             	add    $0x4c,%esp
    197d:	31 c0                	xor    %eax,%eax
    197f:	5b                   	pop    %ebx
    1980:	5e                   	pop    %esi
    1981:	5f                   	pop    %edi
    1982:	5d                   	pop    %ebp
    1983:	c3                   	ret    
    1984:	8d 74 26 00          	lea    0x0(%esi,%eiz,1),%esi
    1988:	8b 5d dc             	mov    -0x24(%ebp),%ebx
    198b:	c7 04 24 20 00 00 00 	movl   $0x20,(%esp)
    1992:	e8 89 9c 01 00       	call   1b620 <malloc>
    1997:	89 c7                	mov    %eax,%edi
    1999:	85 c0                	test   %eax,%eax
    199b:	0f 84 7e 01 00 00    	je     1b1f <usb_hid_report_append_fields+0x43f>
    19a1:	c7 44 24 08 20 00 00 	movl   $0x20,0x8(%esp)
    19a8:	00 
    19a9:	c7 44 24 04 00 00 00 	movl   $0x0,0x4(%esp)
    19b0:	00 
    19b1:	89 3c 24             	mov    %edi,(%esp)
    19b4:	e8 57 be 00 00       	call   d810 <memset>
    19b9:	8b 86 54 00 04 00    	mov    0x40054(%esi),%eax
    19bf:	89 47 04             	mov    %eax,0x4(%edi)
    19c2:	8b 06                	mov    (%esi),%eax
    19c4:	88 07                	mov    %al,(%edi)
    19c6:	84 c0                	test   %al,%al
    19c8:	74 07                	je     19d1 <usb_hid_report_append_fields+0x2f1>
    19ca:	c7 47 08 08 00 00 00 	movl   $0x8,0x8(%edi)
    19d1:	8b 55 d4             	mov    -0x2c(%ebp),%edx
    19d4:	8d 47 10             	lea    0x10(%edi),%eax
    19d7:	89 57 1c             	mov    %edx,0x1c(%edi)
    19da:	8b 55 08             	mov    0x8(%ebp),%edx
    19dd:	c7 47 18 00 00 00 00 	movl   $0x0,0x18(%edi)
    19e4:	89 47 10             	mov    %eax,0x10(%edi)
    19e7:	8b 52 04             	mov    0x4(%edx),%edx
    19ea:	8d 4f 18             	lea    0x18(%edi),%ecx
    19ed:	89 57 18             	mov    %edx,0x18(%edi)
    19f0:	8b 55 08             	mov    0x8(%ebp),%edx
    19f3:	89 47 14             	mov    %eax,0x14(%edi)
    19f6:	8b 52 04             	mov    0x4(%edx),%edx
    19f9:	89 4a 04             	mov    %ecx,0x4(%edx)
    19fc:	8b 55 08             	mov    0x8(%ebp),%edx
    19ff:	89 4a 04             	mov    %ecx,0x4(%edx)
    1a02:	8b 0a                	mov    (%edx),%ecx
    1a04:	41                   	inc    %ecx
    1a05:	89 0a                	mov    %ecx,(%edx)
    1a07:	e9 26 ff ff ff       	jmp    1932 <usb_hid_report_append_fields+0x252>
    1a0c:	8d 74 26 00          	lea    0x0(%esi,%eiz,1),%esi
    1a10:	8b 86 04 00 04 00    	mov    0x40004(%esi),%eax
    1a16:	3b 45 e0             	cmp    -0x20(%ebp),%eax
    1a19:	0f 8e e9 00 00 00    	jle    1b08 <usb_hid_report_append_fields+0x428>
    1a1f:	8b 55 e0             	mov    -0x20(%ebp),%edx
    1a22:	8b 44 96 08          	mov    0x8(%esi,%edx,4),%eax
    1a26:	66 89 43 0a          	mov    %ax,0xa(%ebx)
    1a2a:	a9 00 00 ff ff       	test   $0xffff0000,%eax
    1a2f:	0f 84 bb 00 00 00    	je     1af0 <usb_hid_report_append_fields+0x410>
    1a35:	c1 e8 10             	shr    $0x10,%eax
    1a38:	66 89 43 08          	mov    %ax,0x8(%ebx)
    1a3c:	e9 c8 fd ff ff       	jmp    1809 <usb_hid_report_append_fields+0x129>
    1a41:	8d b4 26 00 00 00 00 	lea    0x0(%esi,%eiz,1),%esi
    1a48:	8b 4d d4             	mov    -0x2c(%ebp),%ecx
    1a4b:	eb 0e                	jmp    1a5b <usb_hid_report_append_fields+0x37b>
    1a4d:	8d 76 00             	lea    0x0(%esi),%esi
    1a50:	8b 52 04             	mov    0x4(%edx),%edx
    1a53:	39 ca                	cmp    %ecx,%edx
    1a55:	0f 84 30 ff ff ff    	je     198b <usb_hid_report_append_fields+0x2ab>
    1a5b:	8d 7a e8             	lea    -0x18(%edx),%edi
    1a5e:	3b 47 04             	cmp    0x4(%edi),%eax
    1a61:	75 ed                	jne    1a50 <usb_hid_report_append_fields+0x370>
    1a63:	8d 42 f8             	lea    -0x8(%edx),%eax
    1a66:	e9 c7 fe ff ff       	jmp    1932 <usb_hid_report_append_fields+0x252>
    1a6b:	90                   	nop
    1a6c:	8d 74 26 00          	lea    0x0(%esi,%eiz,1),%esi
    1a70:	8b 5d dc             	mov    -0x24(%ebp),%ebx
    1a73:	8b 75 d0             	mov    -0x30(%ebp),%esi
    1a76:	8b 4d d8             	mov    -0x28(%ebp),%ecx
    1a79:	89 0c 24             	mov    %ecx,(%esp)
    1a7c:	e8 9f 29 00 00       	call   4420 <usb_hid_report_path_clone>
    1a81:	89 c2                	mov    %eax,%edx
    1a83:	85 c0                	test   %eax,%eax
    1a85:	0f 84 8d 00 00 00    	je     1b18 <usb_hid_report_append_fields+0x438>
    1a8b:	8b 7d e4             	mov    -0x1c(%ebp),%edi
    1a8e:	8d 40 08             	lea    0x8(%eax),%eax
    1a91:	89 7a 0c             	mov    %edi,0xc(%edx)
    1a94:	8b 7d 08             	mov    0x8(%ebp),%edi
    1a97:	8b 4f 0c             	mov    0xc(%edi),%ecx
    1a9a:	89 4a 08             	mov    %ecx,0x8(%edx)
    1a9d:	8b 4f 0c             	mov    0xc(%edi),%ecx
    1aa0:	89 47 0c             	mov    %eax,0xc(%edi)
    1aa3:	89 41 04             	mov    %eax,0x4(%ecx)
    1aa6:	8b 47 14             	mov    0x14(%edi),%eax
    1aa9:	40                   	inc    %eax
    1aaa:	89 47 14             	mov    %eax,0x14(%edi)
    1aad:	e9 f0 fd ff ff       	jmp    18a2 <usb_hid_report_append_fields+0x1c2>
    1ab2:	8d b6 00 00 00 00    	lea    0x0(%esi),%esi
    1ab8:	8b 4d e0             	mov    -0x20(%ebp),%ecx
    1abb:	8b be 24 00 04 00    	mov    0x40024(%esi),%edi
    1ac1:	0f af ca             	imul   %edx,%ecx
    1ac4:	01 f9                	add    %edi,%ecx
    1ac6:	89 c8                	mov    %ecx,%eax
    1ac8:	c1 f8 1f             	sar    $0x1f,%eax
    1acb:	c1 e8 1d             	shr    $0x1d,%eax
    1ace:	01 c8                	add    %ecx,%eax
    1ad0:	c1 f8 03             	sar    $0x3,%eax
    1ad3:	c1 e0 04             	shl    $0x4,%eax
    1ad6:	83 c0 08             	add    $0x8,%eax
    1ad9:	29 c8                	sub    %ecx,%eax
    1adb:	29 d0                	sub    %edx,%eax
    1add:	0f 89 e6 fd ff ff    	jns    18c9 <usb_hid_report_append_fields+0x1e9>
    1ae3:	c7 03 00 00 00 00    	movl   $0x0,(%ebx)
    1ae9:	31 c0                	xor    %eax,%eax
    1aeb:	e9 db fd ff ff       	jmp    18cb <usb_hid_report_append_fields+0x1eb>
    1af0:	8b 86 08 00 04 00    	mov    0x40008(%esi),%eax
    1af6:	66 89 43 08          	mov    %ax,0x8(%ebx)
    1afa:	25 ff ff 00 00       	and    $0xffff,%eax
    1aff:	e9 05 fd ff ff       	jmp    1809 <usb_hid_report_append_fields+0x129>
    1b04:	8d 74 26 00          	lea    0x0(%esi,%eiz,1),%esi
    1b08:	8b 44 86 04          	mov    0x4(%esi,%eax,4),%eax
    1b0c:	e9 15 ff ff ff       	jmp    1a26 <usb_hid_report_append_fields+0x346>
    1b11:	8d b4 26 00 00 00 00 	lea    0x0(%esi,%eiz,1),%esi
    1b18:	31 d2                	xor    %edx,%edx
    1b1a:	e9 83 fd ff ff       	jmp    18a2 <usb_hid_report_append_fields+0x1c2>
    1b1f:	b8 fe ff ff ff       	mov    $0xfffffffe,%eax
    1b24:	83 c4 4c             	add    $0x4c,%esp
    1b27:	5b                   	pop    %ebx
    1b28:	5e                   	pop    %esi
    1b29:	5f                   	pop    %edi
    1b2a:	5d                   	pop    %ebp
    1b2b:	c3                   	ret    
    1b2c:	8b 55 cc             	mov    -0x34(%ebp),%edx
    1b2f:	85 d2                	test   %edx,%edx
    1b31:	0f 84 43 fe ff ff    	je     197a <usb_hid_report_append_fields+0x29a>
    1b37:	8b 45 cc             	mov    -0x34(%ebp),%eax
    1b3a:	89 04 24             	mov    %eax,(%esp)
    1b3d:	e8 ee 9b 01 00       	call   1b730 <free>
    1b42:	83 c4 4c             	add    $0x4c,%esp
    1b45:	31 c0                	xor    %eax,%eax
    1b47:	5b                   	pop    %ebx
    1b48:	5e                   	pop    %esi
    1b49:	5f                   	pop    %edi
    1b4a:	5d                   	pop    %ebp
    1b4b:	c3                   	ret    
    1b4c:	b8 f2 ff ff ff       	mov    $0xfffffff2,%eax
    1b51:	eb d1                	jmp    1b24 <usb_hid_report_append_fields+0x444>
    1b53:	8d b6 00 00 00 00    	lea    0x0(%esi),%esi
    1b59:	8d bc 27 00 00 00 00 	lea    0x0(%edi,%eiz,1),%edi

00001b60 <usb_hid_report_find_description>:
    1b60:	55                   	push   %ebp
    1b61:	89 e5                	mov    %esp,%ebp
    1b63:	56                   	push   %esi
    1b64:	53                   	push   %ebx
    1b65:	51                   	push   %ecx
    1b66:	8b 4d 08             	mov    0x8(%ebp),%ecx
    1b69:	8a 45 0c             	mov    0xc(%ebp),%al
    1b6c:	8b 5d 10             	mov    0x10(%ebp),%ebx
    1b6f:	88 45 f7             	mov    %al,-0x9(%ebp)
    1b72:	85 c9                	test   %ecx,%ecx
    1b74:	74 52                	je     1bc8 <usb_hid_report_find_description+0x68>
    1b76:	8b 51 08             	mov    0x8(%ecx),%edx
    1b79:	8d 71 04             	lea    0x4(%ecx),%esi
    1b7c:	39 f2                	cmp    %esi,%edx
    1b7e:	74 48                	je     1bc8 <usb_hid_report_find_description+0x68>
    1b80:	84 c0                	test   %al,%al
    1b82:	74 33                	je     1bb7 <usb_hid_report_find_description+0x57>
    1b84:	8a 4d f7             	mov    -0x9(%ebp),%cl
    1b87:	8d 42 e8             	lea    -0x18(%edx),%eax
    1b8a:	38 4a e8             	cmp    %cl,-0x18(%edx)
    1b8d:	74 13                	je     1ba2 <usb_hid_report_find_description+0x42>
    1b8f:	90                   	nop
    1b90:	8b 52 04             	mov    0x4(%edx),%edx
    1b93:	39 f2                	cmp    %esi,%edx
    1b95:	74 31                	je     1bc8 <usb_hid_report_find_description+0x68>
    1b97:	8a 4d f7             	mov    -0x9(%ebp),%cl
    1b9a:	8d 42 e8             	lea    -0x18(%edx),%eax
    1b9d:	38 4a e8             	cmp    %cl,-0x18(%edx)
    1ba0:	75 ee                	jne    1b90 <usb_hid_report_find_description+0x30>
    1ba2:	39 58 04             	cmp    %ebx,0x4(%eax)
    1ba5:	75 e9                	jne    1b90 <usb_hid_report_find_description+0x30>
    1ba7:	5a                   	pop    %edx
    1ba8:	5b                   	pop    %ebx
    1ba9:	5e                   	pop    %esi
    1baa:	5d                   	pop    %ebp
    1bab:	c3                   	ret    
    1bac:	8d 74 26 00          	lea    0x0(%esi,%eiz,1),%esi
    1bb0:	8b 52 04             	mov    0x4(%edx),%edx
    1bb3:	39 f2                	cmp    %esi,%edx
    1bb5:	74 11                	je     1bc8 <usb_hid_report_find_description+0x68>
    1bb7:	8d 42 e8             	lea    -0x18(%edx),%eax
    1bba:	39 58 04             	cmp    %ebx,0x4(%eax)
    1bbd:	75 f1                	jne    1bb0 <usb_hid_report_find_description+0x50>
    1bbf:	eb e6                	jmp    1ba7 <usb_hid_report_find_description+0x47>
    1bc1:	8d b4 26 00 00 00 00 	lea    0x0(%esi,%eiz,1),%esi
    1bc8:	5a                   	pop    %edx
    1bc9:	31 c0                	xor    %eax,%eax
    1bcb:	5b                   	pop    %ebx
    1bcc:	5e                   	pop    %esi
    1bcd:	5d                   	pop    %ebp
    1bce:	c3                   	ret    
    1bcf:	90                   	nop

00001bd0 <usb_hid_report_parse_main_tag>:
    1bd0:	55                   	push   %ebp
    1bd1:	b8 02 00 00 00       	mov    $0x2,%eax
    1bd6:	89 e5                	mov    %esp,%ebp
    1bd8:	56                   	push   %esi
    1bd9:	53                   	push   %ebx
    1bda:	83 ec 10             	sub    $0x10,%esp
    1bdd:	8a 55 08             	mov    0x8(%ebp),%dl
    1be0:	8b 4d 0c             	mov    0xc(%ebp),%ecx
    1be3:	83 ea 08             	sub    $0x8,%edx
    1be6:	8b 5d 14             	mov    0x14(%ebp),%ebx
    1be9:	8b 75 18             	mov    0x18(%ebp),%esi
    1bec:	80 fa 04             	cmp    $0x4,%dl
    1bef:	0f 87 9a 00 00 00    	ja     1c8f <usb_hid_report_parse_main_tag+0xbf>
    1bf5:	81 e2 ff 00 00 00    	and    $0xff,%edx
    1bfb:	ff 24 95 84 a8 02 00 	jmp    *0x2a884(,%edx,4)
    1c02:	8d b6 00 00 00 00    	lea    0x0(%esi),%esi
    1c08:	8b 46 14             	mov    0x14(%esi),%eax
    1c0b:	8d 56 10             	lea    0x10(%esi),%edx
    1c0e:	39 d0                	cmp    %edx,%eax
    1c10:	0f 84 b2 00 00 00    	je     1cc8 <usb_hid_report_parse_main_tag+0xf8>
    1c16:	83 e8 0c             	sub    $0xc,%eax
    1c19:	8a 09                	mov    (%ecx),%cl
    1c1b:	88 48 08             	mov    %cl,0x8(%eax)
    1c1e:	8b 83 04 00 04 00    	mov    0x40004(%ebx),%eax
    1c24:	8b 44 83 04          	mov    0x4(%ebx,%eax,4),%eax
    1c28:	c7 44 24 04 01 00 00 	movl   $0x1,0x4(%esp)
    1c2f:	00 
    1c30:	c1 e8 10             	shr    $0x10,%eax
    1c33:	89 34 24             	mov    %esi,(%esp)
    1c36:	89 44 24 08          	mov    %eax,0x8(%esp)
    1c3a:	e8 01 23 00 00       	call   3f40 <usb_hid_report_set_last_item>
    1c3f:	8b 83 04 00 04 00    	mov    0x40004(%ebx),%eax
    1c45:	8b 44 83 04          	mov    0x4(%ebx,%eax,4),%eax
    1c49:	c7 44 24 04 02 00 00 	movl   $0x2,0x4(%esp)
    1c50:	00 
    1c51:	25 ff ff 00 00       	and    $0xffff,%eax
    1c56:	89 34 24             	mov    %esi,(%esp)
    1c59:	89 44 24 08          	mov    %eax,0x8(%esp)
    1c5d:	e8 de 22 00 00       	call   3f40 <usb_hid_report_set_last_item>
    1c62:	8b 83 04 00 04 00    	mov    0x40004(%ebx),%eax
    1c68:	8b 44 83 04          	mov    0x4(%ebx,%eax,4),%eax
    1c6c:	89 44 24 08          	mov    %eax,0x8(%esp)
    1c70:	8b 83 08 00 04 00    	mov    0x40008(%ebx),%eax
    1c76:	89 34 24             	mov    %esi,(%esp)
    1c79:	89 44 24 04          	mov    %eax,0x4(%esp)
    1c7d:	e8 ae 21 00 00       	call   3e30 <usb_hid_report_path_append_item>
    1c82:	89 1c 24             	mov    %ebx,(%esp)
    1c85:	e8 16 21 00 00       	call   3da0 <usb_hid_report_reset_local_items>
    1c8a:	b8 02 00 00 00       	mov    $0x2,%eax
    1c8f:	83 c4 10             	add    $0x10,%esp
    1c92:	5b                   	pop    %ebx
    1c93:	5e                   	pop    %esi
    1c94:	5d                   	pop    %ebp
    1c95:	c3                   	ret    
    1c96:	66 90                	xchg   %ax,%ax
    1c98:	8a 09                	mov    (%ecx),%cl
    1c9a:	31 c0                	xor    %eax,%eax
    1c9c:	88 8b 50 00 04 00    	mov    %cl,0x40050(%ebx)
    1ca2:	83 c4 10             	add    $0x10,%esp
    1ca5:	5b                   	pop    %ebx
    1ca6:	5e                   	pop    %esi
    1ca7:	5d                   	pop    %ebp
    1ca8:	c3                   	ret    
    1ca9:	8d b4 26 00 00 00 00 	lea    0x0(%esi,%eiz,1),%esi
    1cb0:	89 34 24             	mov    %esi,(%esp)
    1cb3:	e8 d8 21 00 00       	call   3e90 <usb_hid_report_remove_last_item>
    1cb8:	83 c4 10             	add    $0x10,%esp
    1cbb:	b8 02 00 00 00       	mov    $0x2,%eax
    1cc0:	5b                   	pop    %ebx
    1cc1:	5e                   	pop    %esi
    1cc2:	5d                   	pop    %ebp
    1cc3:	c3                   	ret    
    1cc4:	8d 74 26 00          	lea    0x0(%esi,%eiz,1),%esi
    1cc8:	b8 f4 ff ff ff       	mov    $0xfffffff4,%eax
    1ccd:	e9 47 ff ff ff       	jmp    1c19 <usb_hid_report_parse_main_tag+0x49>
    1cd2:	8d b4 26 00 00 00 00 	lea    0x0(%esi,%eiz,1),%esi
    1cd9:	8d bc 27 00 00 00 00 	lea    0x0(%edi,%eiz,1),%edi

00001ce0 <usb_hid_report_parse_global_tag>:
    1ce0:	55                   	push   %ebp
    1ce1:	b8 02 00 00 00       	mov    $0x2,%eax
    1ce6:	89 e5                	mov    %esp,%ebp
    1ce8:	57                   	push   %edi
    1ce9:	56                   	push   %esi
    1cea:	53                   	push   %ebx
    1ceb:	56                   	push   %esi
    1cec:	8a 4d 08             	mov    0x8(%ebp),%cl
    1cef:	8b 5d 0c             	mov    0xc(%ebp),%ebx
    1cf2:	8b 55 10             	mov    0x10(%ebp),%edx
    1cf5:	80 f9 0b             	cmp    $0xb,%cl
    1cf8:	77 3e                	ja     1d38 <usb_hid_report_parse_global_tag+0x58>
    1cfa:	31 c0                	xor    %eax,%eax
    1cfc:	88 c8                	mov    %cl,%al
    1cfe:	ff 24 85 98 a8 02 00 	jmp    *0x2a898(,%eax,4)
    1d05:	8d 76 00             	lea    0x0(%esi),%esi
    1d08:	31 ff                	xor    %edi,%edi
    1d0a:	31 c0                	xor    %eax,%eax
    1d0c:	85 d2                	test   %edx,%edx
    1d0e:	74 1b                	je     1d2b <usb_hid_report_parse_global_tag+0x4b>
    1d10:	8a 0c 03             	mov    (%ebx,%eax,1),%cl
    1d13:	81 e1 ff 00 00 00    	and    $0xff,%ecx
    1d19:	89 ce                	mov    %ecx,%esi
    1d1b:	8d 0c c5 00 00 00 00 	lea    0x0(,%eax,8),%ecx
    1d22:	d3 e6                	shl    %cl,%esi
    1d24:	40                   	inc    %eax
    1d25:	09 f7                	or     %esi,%edi
    1d27:	39 d0                	cmp    %edx,%eax
    1d29:	75 e5                	jne    1d10 <usb_hid_report_parse_global_tag+0x30>
    1d2b:	8b 45 14             	mov    0x14(%ebp),%eax
    1d2e:	89 b8 20 00 04 00    	mov    %edi,0x40020(%eax)
    1d34:	31 c0                	xor    %eax,%eax
    1d36:	66 90                	xchg   %ax,%ax
    1d38:	5b                   	pop    %ebx
    1d39:	5b                   	pop    %ebx
    1d3a:	5e                   	pop    %esi
    1d3b:	5f                   	pop    %edi
    1d3c:	5d                   	pop    %ebp
    1d3d:	c3                   	ret    
    1d3e:	66 90                	xchg   %ax,%ax
    1d40:	31 c0                	xor    %eax,%eax
    1d42:	88 c8                	mov    %cl,%al
    1d44:	eb f2                	jmp    1d38 <usb_hid_report_parse_global_tag+0x58>
    1d46:	66 90                	xchg   %ax,%ax
    1d48:	31 ff                	xor    %edi,%edi
    1d4a:	85 d2                	test   %edx,%edx
    1d4c:	74 1d                	je     1d6b <usb_hid_report_parse_global_tag+0x8b>
    1d4e:	31 c0                	xor    %eax,%eax
    1d50:	8a 0c 03             	mov    (%ebx,%eax,1),%cl
    1d53:	81 e1 ff 00 00 00    	and    $0xff,%ecx
    1d59:	89 ce                	mov    %ecx,%esi
    1d5b:	8d 0c c5 00 00 00 00 	lea    0x0(,%eax,8),%ecx
    1d62:	d3 e6                	shl    %cl,%esi
    1d64:	40                   	inc    %eax
    1d65:	09 f7                	or     %esi,%edi
    1d67:	39 d0                	cmp    %edx,%eax
    1d69:	75 e5                	jne    1d50 <usb_hid_report_parse_global_tag+0x70>
    1d6b:	8b 45 14             	mov    0x14(%ebp),%eax
    1d6e:	89 b8 08 00 04 00    	mov    %edi,0x40008(%eax)
    1d74:	31 c0                	xor    %eax,%eax
    1d76:	eb c0                	jmp    1d38 <usb_hid_report_parse_global_tag+0x58>
    1d78:	31 f6                	xor    %esi,%esi
    1d7a:	31 c0                	xor    %eax,%eax
    1d7c:	31 ff                	xor    %edi,%edi
    1d7e:	85 d2                	test   %edx,%edx
    1d80:	74 6a                	je     1dec <usb_hid_report_parse_global_tag+0x10c>
    1d82:	8d b6 00 00 00 00    	lea    0x0(%esi),%esi
    1d88:	8a 0c 03             	mov    (%ebx,%eax,1),%cl
    1d8b:	81 e1 ff 00 00 00    	and    $0xff,%ecx
    1d91:	89 cf                	mov    %ecx,%edi
    1d93:	8d 0c c5 00 00 00 00 	lea    0x0(,%eax,8),%ecx
    1d9a:	d3 e7                	shl    %cl,%edi
    1d9c:	40                   	inc    %eax
    1d9d:	09 fe                	or     %edi,%esi
    1d9f:	39 d0                	cmp    %edx,%eax
    1da1:	75 e5                	jne    1d88 <usb_hid_report_parse_global_tag+0xa8>
    1da3:	8d 0c d5 00 00 00 00 	lea    0x0(,%edx,8),%ecx
    1daa:	b8 01 00 00 00       	mov    $0x1,%eax
    1daf:	89 4d f0             	mov    %ecx,-0x10(%ebp)
    1db2:	49                   	dec    %ecx
    1db3:	d3 e0                	shl    %cl,%eax
    1db5:	31 ff                	xor    %edi,%edi
    1db7:	85 c6                	test   %eax,%esi
    1db9:	b8 00 00 00 00       	mov    $0x0,%eax
    1dbe:	74 40                	je     1e00 <usb_hid_report_parse_global_tag+0x120>
    1dc0:	8a 0c 03             	mov    (%ebx,%eax,1),%cl
    1dc3:	81 e1 ff 00 00 00    	and    $0xff,%ecx
    1dc9:	89 ce                	mov    %ecx,%esi
    1dcb:	8d 0c c5 00 00 00 00 	lea    0x0(,%eax,8),%ecx
    1dd2:	d3 e6                	shl    %cl,%esi
    1dd4:	40                   	inc    %eax
    1dd5:	09 f7                	or     %esi,%edi
    1dd7:	39 d0                	cmp    %edx,%eax
    1dd9:	75 e5                	jne    1dc0 <usb_hid_report_parse_global_tag+0xe0>
    1ddb:	b8 01 00 00 00       	mov    $0x1,%eax
    1de0:	8a 4d f0             	mov    -0x10(%ebp),%cl
    1de3:	d3 e0                	shl    %cl,%eax
    1de5:	48                   	dec    %eax
    1de6:	f7 df                	neg    %edi
    1de8:	21 c7                	and    %eax,%edi
    1dea:	f7 df                	neg    %edi
    1dec:	8b 45 14             	mov    0x14(%ebp),%eax
    1def:	89 b8 14 00 04 00    	mov    %edi,0x40014(%eax)
    1df5:	31 c0                	xor    %eax,%eax
    1df7:	e9 3c ff ff ff       	jmp    1d38 <usb_hid_report_parse_global_tag+0x58>
    1dfc:	8d 74 26 00          	lea    0x0(%esi,%eiz,1),%esi
    1e00:	8a 0c 03             	mov    (%ebx,%eax,1),%cl
    1e03:	81 e1 ff 00 00 00    	and    $0xff,%ecx
    1e09:	89 ce                	mov    %ecx,%esi
    1e0b:	8d 0c c5 00 00 00 00 	lea    0x0(,%eax,8),%ecx
    1e12:	d3 e6                	shl    %cl,%esi
    1e14:	40                   	inc    %eax
    1e15:	09 f7                	or     %esi,%edi
    1e17:	39 d0                	cmp    %edx,%eax
    1e19:	75 e5                	jne    1e00 <usb_hid_report_parse_global_tag+0x120>
    1e1b:	eb cf                	jmp    1dec <usb_hid_report_parse_global_tag+0x10c>
    1e1d:	8d 76 00             	lea    0x0(%esi),%esi
    1e20:	31 f6                	xor    %esi,%esi
    1e22:	31 c0                	xor    %eax,%eax
    1e24:	85 d2                	test   %edx,%edx
    1e26:	74 64                	je     1e8c <usb_hid_report_parse_global_tag+0x1ac>
    1e28:	8a 0c 03             	mov    (%ebx,%eax,1),%cl
    1e2b:	81 e1 ff 00 00 00    	and    $0xff,%ecx
    1e31:	89 cf                	mov    %ecx,%edi
    1e33:	8d 0c c5 00 00 00 00 	lea    0x0(,%eax,8),%ecx
    1e3a:	d3 e7                	shl    %cl,%edi
    1e3c:	40                   	inc    %eax
    1e3d:	09 fe                	or     %edi,%esi
    1e3f:	39 d0                	cmp    %edx,%eax
    1e41:	75 e5                	jne    1e28 <usb_hid_report_parse_global_tag+0x148>
    1e43:	8d 0c d5 00 00 00 00 	lea    0x0(,%edx,8),%ecx
    1e4a:	b8 01 00 00 00       	mov    $0x1,%eax
    1e4f:	89 4d f0             	mov    %ecx,-0x10(%ebp)
    1e52:	49                   	dec    %ecx
    1e53:	d3 e0                	shl    %cl,%eax
    1e55:	31 ff                	xor    %edi,%edi
    1e57:	85 c6                	test   %eax,%esi
    1e59:	b8 00 00 00 00       	mov    $0x0,%eax
    1e5e:	74 40                	je     1ea0 <usb_hid_report_parse_global_tag+0x1c0>
    1e60:	8a 0c 03             	mov    (%ebx,%eax,1),%cl
    1e63:	81 e1 ff 00 00 00    	and    $0xff,%ecx
    1e69:	89 ce                	mov    %ecx,%esi
    1e6b:	8d 0c c5 00 00 00 00 	lea    0x0(,%eax,8),%ecx
    1e72:	d3 e6                	shl    %cl,%esi
    1e74:	40                   	inc    %eax
    1e75:	09 f7                	or     %esi,%edi
    1e77:	39 d0                	cmp    %edx,%eax
    1e79:	75 e5                	jne    1e60 <usb_hid_report_parse_global_tag+0x180>
    1e7b:	b8 01 00 00 00       	mov    $0x1,%eax
    1e80:	8a 4d f0             	mov    -0x10(%ebp),%cl
    1e83:	d3 e0                	shl    %cl,%eax
    1e85:	48                   	dec    %eax
    1e86:	f7 df                	neg    %edi
    1e88:	21 f8                	and    %edi,%eax
    1e8a:	f7 d8                	neg    %eax
    1e8c:	8b 55 14             	mov    0x14(%ebp),%edx
    1e8f:	89 82 18 00 04 00    	mov    %eax,0x40018(%edx)
    1e95:	31 c0                	xor    %eax,%eax
    1e97:	e9 9c fe ff ff       	jmp    1d38 <usb_hid_report_parse_global_tag+0x58>
    1e9c:	8d 74 26 00          	lea    0x0(%esi,%eiz,1),%esi
    1ea0:	8a 0c 03             	mov    (%ebx,%eax,1),%cl
    1ea3:	81 e1 ff 00 00 00    	and    $0xff,%ecx
    1ea9:	89 ce                	mov    %ecx,%esi
    1eab:	8d 0c c5 00 00 00 00 	lea    0x0(,%eax,8),%ecx
    1eb2:	d3 e6                	shl    %cl,%esi
    1eb4:	40                   	inc    %eax
    1eb5:	09 f7                	or     %esi,%edi
    1eb7:	39 d0                	cmp    %edx,%eax
    1eb9:	75 e5                	jne    1ea0 <usb_hid_report_parse_global_tag+0x1c0>
    1ebb:	89 f8                	mov    %edi,%eax
    1ebd:	eb cd                	jmp    1e8c <usb_hid_report_parse_global_tag+0x1ac>
    1ebf:	90                   	nop
    1ec0:	31 f6                	xor    %esi,%esi
    1ec2:	31 c0                	xor    %eax,%eax
    1ec4:	85 d2                	test   %edx,%edx
    1ec6:	74 64                	je     1f2c <usb_hid_report_parse_global_tag+0x24c>
    1ec8:	8a 0c 03             	mov    (%ebx,%eax,1),%cl
    1ecb:	81 e1 ff 00 00 00    	and    $0xff,%ecx
    1ed1:	89 cf                	mov    %ecx,%edi
    1ed3:	8d 0c c5 00 00 00 00 	lea    0x0(,%eax,8),%ecx
    1eda:	d3 e7                	shl    %cl,%edi
    1edc:	40                   	inc    %eax
    1edd:	09 fe                	or     %edi,%esi
    1edf:	39 d0                	cmp    %edx,%eax
    1ee1:	75 e5                	jne    1ec8 <usb_hid_report_parse_global_tag+0x1e8>
    1ee3:	8d 0c d5 00 00 00 00 	lea    0x0(,%edx,8),%ecx
    1eea:	b8 01 00 00 00       	mov    $0x1,%eax
    1eef:	89 4d f0             	mov    %ecx,-0x10(%ebp)
    1ef2:	49                   	dec    %ecx
    1ef3:	d3 e0                	shl    %cl,%eax
    1ef5:	31 ff                	xor    %edi,%edi
    1ef7:	85 c6                	test   %eax,%esi
    1ef9:	b8 00 00 00 00       	mov    $0x0,%eax
    1efe:	74 40                	je     1f40 <usb_hid_report_parse_global_tag+0x260>
    1f00:	8a 0c 03             	mov    (%ebx,%eax,1),%cl
    1f03:	81 e1 ff 00 00 00    	and    $0xff,%ecx
    1f09:	89 ce                	mov    %ecx,%esi
    1f0b:	8d 0c c5 00 00 00 00 	lea    0x0(,%eax,8),%ecx
    1f12:	d3 e6                	shl    %cl,%esi
    1f14:	40                   	inc    %eax
    1f15:	09 f7                	or     %esi,%edi
    1f17:	39 d0                	cmp    %edx,%eax
    1f19:	75 e5                	jne    1f00 <usb_hid_report_parse_global_tag+0x220>
    1f1b:	b8 01 00 00 00       	mov    $0x1,%eax
    1f20:	8a 4d f0             	mov    -0x10(%ebp),%cl
    1f23:	d3 e0                	shl    %cl,%eax
    1f25:	48                   	dec    %eax
    1f26:	f7 df                	neg    %edi
    1f28:	21 f8                	and    %edi,%eax
    1f2a:	f7 d8                	neg    %eax
    1f2c:	8b 55 14             	mov    0x14(%ebp),%edx
    1f2f:	89 82 48 00 04 00    	mov    %eax,0x40048(%edx)
    1f35:	31 c0                	xor    %eax,%eax
    1f37:	e9 fc fd ff ff       	jmp    1d38 <usb_hid_report_parse_global_tag+0x58>
    1f3c:	8d 74 26 00          	lea    0x0(%esi,%eiz,1),%esi
    1f40:	8a 0c 03             	mov    (%ebx,%eax,1),%cl
    1f43:	81 e1 ff 00 00 00    	and    $0xff,%ecx
    1f49:	89 ce                	mov    %ecx,%esi
    1f4b:	8d 0c c5 00 00 00 00 	lea    0x0(,%eax,8),%ecx
    1f52:	d3 e6                	shl    %cl,%esi
    1f54:	40                   	inc    %eax
    1f55:	09 f7                	or     %esi,%edi
    1f57:	39 d0                	cmp    %edx,%eax
    1f59:	75 e5                	jne    1f40 <usb_hid_report_parse_global_tag+0x260>
    1f5b:	89 f8                	mov    %edi,%eax
    1f5d:	eb cd                	jmp    1f2c <usb_hid_report_parse_global_tag+0x24c>
    1f5f:	90                   	nop
    1f60:	31 f6                	xor    %esi,%esi
    1f62:	31 c0                	xor    %eax,%eax
    1f64:	85 d2                	test   %edx,%edx
    1f66:	74 64                	je     1fcc <usb_hid_report_parse_global_tag+0x2ec>
    1f68:	8a 0c 03             	mov    (%ebx,%eax,1),%cl
    1f6b:	81 e1 ff 00 00 00    	and    $0xff,%ecx
    1f71:	89 cf                	mov    %ecx,%edi
    1f73:	8d 0c c5 00 00 00 00 	lea    0x0(,%eax,8),%ecx
    1f7a:	d3 e7                	shl    %cl,%edi
    1f7c:	40                   	inc    %eax
    1f7d:	09 fe                	or     %edi,%esi
    1f7f:	39 d0                	cmp    %edx,%eax
    1f81:	75 e5                	jne    1f68 <usb_hid_report_parse_global_tag+0x288>
    1f83:	8d 0c d5 00 00 00 00 	lea    0x0(,%edx,8),%ecx
    1f8a:	b8 01 00 00 00       	mov    $0x1,%eax
    1f8f:	89 4d f0             	mov    %ecx,-0x10(%ebp)
    1f92:	49                   	dec    %ecx
    1f93:	d3 e0                	shl    %cl,%eax
    1f95:	31 ff                	xor    %edi,%edi
    1f97:	85 c6                	test   %eax,%esi
    1f99:	b8 00 00 00 00       	mov    $0x0,%eax
    1f9e:	74 40                	je     1fe0 <usb_hid_report_parse_global_tag+0x300>
    1fa0:	8a 0c 03             	mov    (%ebx,%eax,1),%cl
    1fa3:	81 e1 ff 00 00 00    	and    $0xff,%ecx
    1fa9:	89 ce                	mov    %ecx,%esi
    1fab:	8d 0c c5 00 00 00 00 	lea    0x0(,%eax,8),%ecx
    1fb2:	d3 e6                	shl    %cl,%esi
    1fb4:	40                   	inc    %eax
    1fb5:	09 f7                	or     %esi,%edi
    1fb7:	39 d0                	cmp    %edx,%eax
    1fb9:	75 e5                	jne    1fa0 <usb_hid_report_parse_global_tag+0x2c0>
    1fbb:	b8 01 00 00 00       	mov    $0x1,%eax
    1fc0:	8a 4d f0             	mov    -0x10(%ebp),%cl
    1fc3:	d3 e0                	shl    %cl,%eax
    1fc5:	48                   	dec    %eax
    1fc6:	f7 df                	neg    %edi
    1fc8:	21 f8                	and    %edi,%eax
    1fca:	f7 d8                	neg    %eax
    1fcc:	8b 55 14             	mov    0x14(%ebp),%edx
    1fcf:	89 82 4c 00 04 00    	mov    %eax,0x4004c(%edx)
    1fd5:	31 c0                	xor    %eax,%eax
    1fd7:	e9 5c fd ff ff       	jmp    1d38 <usb_hid_report_parse_global_tag+0x58>
    1fdc:	8d 74 26 00          	lea    0x0(%esi,%eiz,1),%esi
    1fe0:	8a 0c 03             	mov    (%ebx,%eax,1),%cl
    1fe3:	81 e1 ff 00 00 00    	and    $0xff,%ecx
    1fe9:	89 ce                	mov    %ecx,%esi
    1feb:	8d 0c c5 00 00 00 00 	lea    0x0(,%eax,8),%ecx
    1ff2:	d3 e6                	shl    %cl,%esi
    1ff4:	40                   	inc    %eax
    1ff5:	09 f7                	or     %esi,%edi
    1ff7:	39 d0                	cmp    %edx,%eax
    1ff9:	75 e5                	jne    1fe0 <usb_hid_report_parse_global_tag+0x300>
    1ffb:	89 f8                	mov    %edi,%eax
    1ffd:	eb cd                	jmp    1fcc <usb_hid_report_parse_global_tag+0x2ec>
    1fff:	90                   	nop
    2000:	31 ff                	xor    %edi,%edi
    2002:	31 c0                	xor    %eax,%eax
    2004:	85 d2                	test   %edx,%edx
    2006:	74 1b                	je     2023 <usb_hid_report_parse_global_tag+0x343>
    2008:	8a 0c 03             	mov    (%ebx,%eax,1),%cl
    200b:	81 e1 ff 00 00 00    	and    $0xff,%ecx
    2011:	89 ce                	mov    %ecx,%esi
    2013:	8d 0c c5 00 00 00 00 	lea    0x0(,%eax,8),%ecx
    201a:	d3 e6                	shl    %cl,%esi
    201c:	40                   	inc    %eax
    201d:	09 f7                	or     %esi,%edi
    201f:	39 d0                	cmp    %edx,%eax
    2021:	75 e5                	jne    2008 <usb_hid_report_parse_global_tag+0x328>
    2023:	8b 45 14             	mov    0x14(%ebp),%eax
    2026:	89 b8 28 00 04 00    	mov    %edi,0x40028(%eax)
    202c:	31 c0                	xor    %eax,%eax
    202e:	e9 05 fd ff ff       	jmp    1d38 <usb_hid_report_parse_global_tag+0x58>
    2033:	90                   	nop
    2034:	8d 74 26 00          	lea    0x0(%esi,%eiz,1),%esi
    2038:	31 ff                	xor    %edi,%edi
    203a:	31 c0                	xor    %eax,%eax
    203c:	85 d2                	test   %edx,%edx
    203e:	74 1b                	je     205b <usb_hid_report_parse_global_tag+0x37b>
    2040:	8a 0c 03             	mov    (%ebx,%eax,1),%cl
    2043:	81 e1 ff 00 00 00    	and    $0xff,%ecx
    2049:	89 ce                	mov    %ecx,%esi
    204b:	8d 0c c5 00 00 00 00 	lea    0x0(,%eax,8),%ecx
    2052:	d3 e6                	shl    %cl,%esi
    2054:	40                   	inc    %eax
    2055:	09 f7                	or     %esi,%edi
    2057:	39 d0                	cmp    %edx,%eax
    2059:	75 e5                	jne    2040 <usb_hid_report_parse_global_tag+0x360>
    205b:	8b 45 14             	mov    0x14(%ebp),%eax
    205e:	89 b8 2c 00 04 00    	mov    %edi,0x4002c(%eax)
    2064:	31 c0                	xor    %eax,%eax
    2066:	e9 cd fc ff ff       	jmp    1d38 <usb_hid_report_parse_global_tag+0x58>
    206b:	90                   	nop
    206c:	8d 74 26 00          	lea    0x0(%esi,%eiz,1),%esi
    2070:	31 ff                	xor    %edi,%edi
    2072:	31 c0                	xor    %eax,%eax
    2074:	85 d2                	test   %edx,%edx
    2076:	74 1b                	je     2093 <usb_hid_report_parse_global_tag+0x3b3>
    2078:	8a 0c 03             	mov    (%ebx,%eax,1),%cl
    207b:	81 e1 ff 00 00 00    	and    $0xff,%ecx
    2081:	89 ce                	mov    %ecx,%esi
    2083:	8d 0c c5 00 00 00 00 	lea    0x0(,%eax,8),%ecx
    208a:	d3 e6                	shl    %cl,%esi
    208c:	40                   	inc    %eax
    208d:	09 f7                	or     %esi,%edi
    208f:	39 d0                	cmp    %edx,%eax
    2091:	75 e5                	jne    2078 <usb_hid_report_parse_global_tag+0x398>
    2093:	8b 45 14             	mov    0x14(%ebp),%eax
    2096:	89 b8 1c 00 04 00    	mov    %edi,0x4001c(%eax)
    209c:	31 c0                	xor    %eax,%eax
    209e:	e9 95 fc ff ff       	jmp    1d38 <usb_hid_report_parse_global_tag+0x58>
    20a3:	90                   	nop
    20a4:	8d 74 26 00          	lea    0x0(%esi,%eiz,1),%esi
    20a8:	31 ff                	xor    %edi,%edi
    20aa:	31 c0                	xor    %eax,%eax
    20ac:	85 d2                	test   %edx,%edx
    20ae:	74 1b                	je     20cb <usb_hid_report_parse_global_tag+0x3eb>
    20b0:	8a 0c 03             	mov    (%ebx,%eax,1),%cl
    20b3:	81 e1 ff 00 00 00    	and    $0xff,%ecx
    20b9:	89 ce                	mov    %ecx,%esi
    20bb:	8d 0c c5 00 00 00 00 	lea    0x0(,%eax,8),%ecx
    20c2:	d3 e6                	shl    %cl,%esi
    20c4:	40                   	inc    %eax
    20c5:	09 f7                	or     %esi,%edi
    20c7:	39 d0                	cmp    %edx,%eax
    20c9:	75 e5                	jne    20b0 <usb_hid_report_parse_global_tag+0x3d0>
    20cb:	8b 45 14             	mov    0x14(%ebp),%eax
    20ce:	89 38                	mov    %edi,(%eax)
    20d0:	b8 03 00 00 00       	mov    $0x3,%eax
    20d5:	e9 5e fc ff ff       	jmp    1d38 <usb_hid_report_parse_global_tag+0x58>
    20da:	8d b6 00 00 00 00    	lea    0x0(%esi),%esi

000020e0 <usb_hid_report_parse_local_tag>:
    20e0:	55                   	push   %ebp
    20e1:	89 e5                	mov    %esp,%ebp
    20e3:	57                   	push   %edi
    20e4:	56                   	push   %esi
    20e5:	53                   	push   %ebx
    20e6:	83 ec 08             	sub    $0x8,%esp
    20e9:	8a 4d 08             	mov    0x8(%ebp),%cl
    20ec:	8b 55 0c             	mov    0xc(%ebp),%edx
    20ef:	8b 45 10             	mov    0x10(%ebp),%eax
    20f2:	80 f9 0a             	cmp    $0xa,%cl
    20f5:	76 11                	jbe    2108 <usb_hid_report_parse_local_tag+0x28>
    20f7:	b8 02 00 00 00       	mov    $0x2,%eax
    20fc:	8d 74 26 00          	lea    0x0(%esi,%eiz,1),%esi
    2100:	5f                   	pop    %edi
    2101:	5a                   	pop    %edx
    2102:	5b                   	pop    %ebx
    2103:	5e                   	pop    %esi
    2104:	5f                   	pop    %edi
    2105:	5d                   	pop    %ebp
    2106:	c3                   	ret    
    2107:	90                   	nop
    2108:	81 e1 ff 00 00 00    	and    $0xff,%ecx
    210e:	ff 24 8d c8 a8 02 00 	jmp    *0x2a8c8(,%ecx,4)
    2115:	8d 76 00             	lea    0x0(%esi),%esi
    2118:	31 ff                	xor    %edi,%edi
    211a:	31 db                	xor    %ebx,%ebx
    211c:	85 c0                	test   %eax,%eax
    211e:	74 1b                	je     213b <usb_hid_report_parse_local_tag+0x5b>
    2120:	8a 0c 1a             	mov    (%edx,%ebx,1),%cl
    2123:	81 e1 ff 00 00 00    	and    $0xff,%ecx
    2129:	89 ce                	mov    %ecx,%esi
    212b:	8d 0c dd 00 00 00 00 	lea    0x0(,%ebx,8),%ecx
    2132:	d3 e6                	shl    %cl,%esi
    2134:	43                   	inc    %ebx
    2135:	09 f7                	or     %esi,%edi
    2137:	39 c3                	cmp    %eax,%ebx
    2139:	75 e5                	jne    2120 <usb_hid_report_parse_local_tag+0x40>
    213b:	8b 5d 14             	mov    0x14(%ebp),%ebx
    213e:	31 c0                	xor    %eax,%eax
    2140:	89 bb 64 00 04 00    	mov    %edi,0x40064(%ebx)
    2146:	eb b8                	jmp    2100 <usb_hid_report_parse_local_tag+0x20>
    2148:	8b 5d 14             	mov    0x14(%ebp),%ebx
    214b:	8b 8b 64 00 04 00    	mov    0x40064(%ebx),%ecx
    2151:	85 c9                	test   %ecx,%ecx
    2153:	0f 85 9f 02 00 00    	jne    23f8 <usb_hid_report_parse_local_tag+0x318>
    2159:	8b 9b 08 00 04 00    	mov    0x40008(%ebx),%ebx
    215f:	31 ff                	xor    %edi,%edi
    2161:	c1 e3 10             	shl    $0x10,%ebx
    2164:	85 c0                	test   %eax,%eax
    2166:	89 5d f0             	mov    %ebx,-0x10(%ebp)
    2169:	74 20                	je     218b <usb_hid_report_parse_local_tag+0xab>
    216b:	31 db                	xor    %ebx,%ebx
    216d:	8d 76 00             	lea    0x0(%esi),%esi
    2170:	8a 0c 1a             	mov    (%edx,%ebx,1),%cl
    2173:	81 e1 ff 00 00 00    	and    $0xff,%ecx
    2179:	89 ce                	mov    %ecx,%esi
    217b:	8d 0c dd 00 00 00 00 	lea    0x0(,%ebx,8),%ecx
    2182:	d3 e6                	shl    %cl,%esi
    2184:	43                   	inc    %ebx
    2185:	09 f7                	or     %esi,%edi
    2187:	39 c3                	cmp    %eax,%ebx
    2189:	75 e5                	jne    2170 <usb_hid_report_parse_local_tag+0x90>
    218b:	8b 5d 14             	mov    0x14(%ebp),%ebx
    218e:	8b 4d f0             	mov    -0x10(%ebp),%ecx
    2191:	01 cf                	add    %ecx,%edi
    2193:	8b 83 04 00 04 00    	mov    0x40004(%ebx),%eax
    2199:	89 7c 83 08          	mov    %edi,0x8(%ebx,%eax,4)
    219d:	40                   	inc    %eax
    219e:	89 83 04 00 04 00    	mov    %eax,0x40004(%ebx)
    21a4:	31 c0                	xor    %eax,%eax
    21a6:	e9 55 ff ff ff       	jmp    2100 <usb_hid_report_parse_local_tag+0x20>
    21ab:	90                   	nop
    21ac:	8d 74 26 00          	lea    0x0(%esi,%eiz,1),%esi
    21b0:	83 f8 03             	cmp    $0x3,%eax
    21b3:	0f 84 d7 02 00 00    	je     2490 <usb_hid_report_parse_local_tag+0x3b0>
    21b9:	31 ff                	xor    %edi,%edi
    21bb:	31 db                	xor    %ebx,%ebx
    21bd:	85 c0                	test   %eax,%eax
    21bf:	74 22                	je     21e3 <usb_hid_report_parse_local_tag+0x103>
    21c1:	8d b4 26 00 00 00 00 	lea    0x0(%esi,%eiz,1),%esi
    21c8:	8a 0c 1a             	mov    (%edx,%ebx,1),%cl
    21cb:	81 e1 ff 00 00 00    	and    $0xff,%ecx
    21d1:	89 ce                	mov    %ecx,%esi
    21d3:	8d 0c dd 00 00 00 00 	lea    0x0(,%ebx,8),%ecx
    21da:	d3 e6                	shl    %cl,%esi
    21dc:	43                   	inc    %ebx
    21dd:	09 f7                	or     %esi,%edi
    21df:	39 c3                	cmp    %eax,%ebx
    21e1:	75 e5                	jne    21c8 <usb_hid_report_parse_local_tag+0xe8>
    21e3:	8b 5d 14             	mov    0x14(%ebp),%ebx
    21e6:	31 c0                	xor    %eax,%eax
    21e8:	89 bb 0c 00 04 00    	mov    %edi,0x4000c(%ebx)
    21ee:	e9 0d ff ff ff       	jmp    2100 <usb_hid_report_parse_local_tag+0x20>
    21f3:	90                   	nop
    21f4:	8d 74 26 00          	lea    0x0(%esi,%eiz,1),%esi
    21f8:	31 ff                	xor    %edi,%edi
    21fa:	31 db                	xor    %ebx,%ebx
    21fc:	85 c0                	test   %eax,%eax
    21fe:	74 1b                	je     221b <usb_hid_report_parse_local_tag+0x13b>
    2200:	8a 0c 1a             	mov    (%edx,%ebx,1),%cl
    2203:	81 e1 ff 00 00 00    	and    $0xff,%ecx
    2209:	89 ce                	mov    %ecx,%esi
    220b:	8d 0c dd 00 00 00 00 	lea    0x0(,%ebx,8),%ecx
    2212:	d3 e6                	shl    %cl,%esi
    2214:	43                   	inc    %ebx
    2215:	09 f7                	or     %esi,%edi
    2217:	39 c3                	cmp    %eax,%ebx
    2219:	75 e5                	jne    2200 <usb_hid_report_parse_local_tag+0x120>
    221b:	8b 5d 14             	mov    0x14(%ebp),%ebx
    221e:	31 c0                	xor    %eax,%eax
    2220:	89 bb 44 00 04 00    	mov    %edi,0x40044(%ebx)
    2226:	e9 d5 fe ff ff       	jmp    2100 <usb_hid_report_parse_local_tag+0x20>
    222b:	90                   	nop
    222c:	8d 74 26 00          	lea    0x0(%esi,%eiz,1),%esi
    2230:	31 ff                	xor    %edi,%edi
    2232:	31 db                	xor    %ebx,%ebx
    2234:	85 c0                	test   %eax,%eax
    2236:	74 1b                	je     2253 <usb_hid_report_parse_local_tag+0x173>
    2238:	8a 0c 1a             	mov    (%edx,%ebx,1),%cl
    223b:	81 e1 ff 00 00 00    	and    $0xff,%ecx
    2241:	89 ce                	mov    %ecx,%esi
    2243:	8d 0c dd 00 00 00 00 	lea    0x0(,%ebx,8),%ecx
    224a:	d3 e6                	shl    %cl,%esi
    224c:	43                   	inc    %ebx
    224d:	09 f7                	or     %esi,%edi
    224f:	39 c3                	cmp    %eax,%ebx
    2251:	75 e5                	jne    2238 <usb_hid_report_parse_local_tag+0x158>
    2253:	8b 5d 14             	mov    0x14(%ebp),%ebx
    2256:	31 c0                	xor    %eax,%eax
    2258:	89 bb 30 00 04 00    	mov    %edi,0x40030(%ebx)
    225e:	e9 9d fe ff ff       	jmp    2100 <usb_hid_report_parse_local_tag+0x20>
    2263:	90                   	nop
    2264:	8d 74 26 00          	lea    0x0(%esi,%eiz,1),%esi
    2268:	31 ff                	xor    %edi,%edi
    226a:	31 db                	xor    %ebx,%ebx
    226c:	85 c0                	test   %eax,%eax
    226e:	74 1b                	je     228b <usb_hid_report_parse_local_tag+0x1ab>
    2270:	8a 0c 1a             	mov    (%edx,%ebx,1),%cl
    2273:	81 e1 ff 00 00 00    	and    $0xff,%ecx
    2279:	89 ce                	mov    %ecx,%esi
    227b:	8d 0c dd 00 00 00 00 	lea    0x0(,%ebx,8),%ecx
    2282:	d3 e6                	shl    %cl,%esi
    2284:	43                   	inc    %ebx
    2285:	09 f7                	or     %esi,%edi
    2287:	39 c3                	cmp    %eax,%ebx
    2289:	75 e5                	jne    2270 <usb_hid_report_parse_local_tag+0x190>
    228b:	8b 5d 14             	mov    0x14(%ebp),%ebx
    228e:	31 c0                	xor    %eax,%eax
    2290:	89 bb 34 00 04 00    	mov    %edi,0x40034(%ebx)
    2296:	e9 65 fe ff ff       	jmp    2100 <usb_hid_report_parse_local_tag+0x20>
    229b:	90                   	nop
    229c:	8d 74 26 00          	lea    0x0(%esi,%eiz,1),%esi
    22a0:	31 ff                	xor    %edi,%edi
    22a2:	31 db                	xor    %ebx,%ebx
    22a4:	85 c0                	test   %eax,%eax
    22a6:	74 1b                	je     22c3 <usb_hid_report_parse_local_tag+0x1e3>
    22a8:	8a 0c 1a             	mov    (%edx,%ebx,1),%cl
    22ab:	81 e1 ff 00 00 00    	and    $0xff,%ecx
    22b1:	89 ce                	mov    %ecx,%esi
    22b3:	8d 0c dd 00 00 00 00 	lea    0x0(,%ebx,8),%ecx
    22ba:	d3 e6                	shl    %cl,%esi
    22bc:	43                   	inc    %ebx
    22bd:	09 f7                	or     %esi,%edi
    22bf:	39 c3                	cmp    %eax,%ebx
    22c1:	75 e5                	jne    22a8 <usb_hid_report_parse_local_tag+0x1c8>
    22c3:	8b 5d 14             	mov    0x14(%ebp),%ebx
    22c6:	31 c0                	xor    %eax,%eax
    22c8:	89 bb 38 00 04 00    	mov    %edi,0x40038(%ebx)
    22ce:	e9 2d fe ff ff       	jmp    2100 <usb_hid_report_parse_local_tag+0x20>
    22d3:	90                   	nop
    22d4:	8d 74 26 00          	lea    0x0(%esi,%eiz,1),%esi
    22d8:	31 ff                	xor    %edi,%edi
    22da:	31 db                	xor    %ebx,%ebx
    22dc:	85 c0                	test   %eax,%eax
    22de:	74 1b                	je     22fb <usb_hid_report_parse_local_tag+0x21b>
    22e0:	8a 0c 1a             	mov    (%edx,%ebx,1),%cl
    22e3:	81 e1 ff 00 00 00    	and    $0xff,%ecx
    22e9:	89 ce                	mov    %ecx,%esi
    22eb:	8d 0c dd 00 00 00 00 	lea    0x0(,%ebx,8),%ecx
    22f2:	d3 e6                	shl    %cl,%esi
    22f4:	43                   	inc    %ebx
    22f5:	09 f7                	or     %esi,%edi
    22f7:	39 c3                	cmp    %eax,%ebx
    22f9:	75 e5                	jne    22e0 <usb_hid_report_parse_local_tag+0x200>
    22fb:	8b 5d 14             	mov    0x14(%ebp),%ebx
    22fe:	31 c0                	xor    %eax,%eax
    2300:	89 bb 3c 00 04 00    	mov    %edi,0x4003c(%ebx)
    2306:	e9 f5 fd ff ff       	jmp    2100 <usb_hid_report_parse_local_tag+0x20>
    230b:	90                   	nop
    230c:	8d 74 26 00          	lea    0x0(%esi,%eiz,1),%esi
    2310:	31 ff                	xor    %edi,%edi
    2312:	31 db                	xor    %ebx,%ebx
    2314:	85 c0                	test   %eax,%eax
    2316:	74 1b                	je     2333 <usb_hid_report_parse_local_tag+0x253>
    2318:	8a 0c 1a             	mov    (%edx,%ebx,1),%cl
    231b:	81 e1 ff 00 00 00    	and    $0xff,%ecx
    2321:	89 ce                	mov    %ecx,%esi
    2323:	8d 0c dd 00 00 00 00 	lea    0x0(,%ebx,8),%ecx
    232a:	d3 e6                	shl    %cl,%esi
    232c:	43                   	inc    %ebx
    232d:	09 f7                	or     %esi,%edi
    232f:	39 c3                	cmp    %eax,%ebx
    2331:	75 e5                	jne    2318 <usb_hid_report_parse_local_tag+0x238>
    2333:	8b 5d 14             	mov    0x14(%ebp),%ebx
    2336:	31 c0                	xor    %eax,%eax
    2338:	89 bb 40 00 04 00    	mov    %edi,0x40040(%ebx)
    233e:	e9 bd fd ff ff       	jmp    2100 <usb_hid_report_parse_local_tag+0x20>
    2343:	90                   	nop
    2344:	8d 74 26 00          	lea    0x0(%esi,%eiz,1),%esi
    2348:	83 f8 03             	cmp    $0x3,%eax
    234b:	0f 84 ff 00 00 00    	je     2450 <usb_hid_report_parse_local_tag+0x370>
    2351:	31 ff                	xor    %edi,%edi
    2353:	31 db                	xor    %ebx,%ebx
    2355:	85 c0                	test   %eax,%eax
    2357:	74 22                	je     237b <usb_hid_report_parse_local_tag+0x29b>
    2359:	8d b4 26 00 00 00 00 	lea    0x0(%esi,%eiz,1),%esi
    2360:	8a 0c 1a             	mov    (%edx,%ebx,1),%cl
    2363:	81 e1 ff 00 00 00    	and    $0xff,%ecx
    2369:	89 ce                	mov    %ecx,%esi
    236b:	8d 0c dd 00 00 00 00 	lea    0x0(,%ebx,8),%ecx
    2372:	d3 e6                	shl    %cl,%esi
    2374:	43                   	inc    %ebx
    2375:	09 f7                	or     %esi,%edi
    2377:	39 c3                	cmp    %eax,%ebx
    2379:	75 e5                	jne    2360 <usb_hid_report_parse_local_tag+0x280>
    237b:	8b 5d 14             	mov    0x14(%ebp),%ebx
    237e:	89 d8                	mov    %ebx,%eax
    2380:	89 bb 10 00 04 00    	mov    %edi,0x40010(%ebx)
    2386:	8b b0 0c 00 04 00    	mov    0x4000c(%eax),%esi
    238c:	39 fe                	cmp    %edi,%esi
    238e:	7f 5b                	jg     23eb <usb_hid_report_parse_local_tag+0x30b>
    2390:	89 c2                	mov    %eax,%edx
    2392:	8b 40 04             	mov    0x4(%eax),%eax
    2395:	8b 8a 04 00 04 00    	mov    0x40004(%edx),%ecx
    239b:	89 c2                	mov    %eax,%edx
    239d:	c1 e2 10             	shl    $0x10,%edx
    23a0:	89 4d f0             	mov    %ecx,-0x10(%ebp)
    23a3:	66 85 c0             	test   %ax,%ax
    23a6:	75 60                	jne    2408 <usb_hid_report_parse_local_tag+0x328>
    23a8:	89 c8                	mov    %ecx,%eax
    23aa:	8b 55 14             	mov    0x14(%ebp),%edx
    23ad:	29 f0                	sub    %esi,%eax
    23af:	89 75 ec             	mov    %esi,-0x14(%ebp)
    23b2:	8d 5f 01             	lea    0x1(%edi),%ebx
    23b5:	8d 0c 82             	lea    (%edx,%eax,4),%ecx
    23b8:	89 f0                	mov    %esi,%eax
    23ba:	89 d6                	mov    %edx,%esi
    23bc:	8d 74 26 00          	lea    0x0(%esi,%eiz,1),%esi
    23c0:	8b 96 08 00 04 00    	mov    0x40008(%esi),%edx
    23c6:	c1 e2 10             	shl    $0x10,%edx
    23c9:	01 c2                	add    %eax,%edx
    23cb:	89 54 81 08          	mov    %edx,0x8(%ecx,%eax,4)
    23cf:	40                   	inc    %eax
    23d0:	39 d8                	cmp    %ebx,%eax
    23d2:	75 ec                	jne    23c0 <usb_hid_report_parse_local_tag+0x2e0>
    23d4:	8b 75 ec             	mov    -0x14(%ebp),%esi
    23d7:	8b 4d f0             	mov    -0x10(%ebp),%ecx
    23da:	29 f7                	sub    %esi,%edi
    23dc:	8d 44 39 01          	lea    0x1(%ecx,%edi,1),%eax
    23e0:	8b 5d 14             	mov    0x14(%ebp),%ebx
    23e3:	89 83 04 00 04 00    	mov    %eax,0x40004(%ebx)
    23e9:	89 d8                	mov    %ebx,%eax
    23eb:	66 c7 40 04 00 00    	movw   $0x0,0x4(%eax)
    23f1:	31 c0                	xor    %eax,%eax
    23f3:	e9 08 fd ff ff       	jmp    2100 <usb_hid_report_parse_local_tag+0x20>
    23f8:	49                   	dec    %ecx
    23f9:	74 3d                	je     2438 <usb_hid_report_parse_local_tag+0x358>
    23fb:	31 c0                	xor    %eax,%eax
    23fd:	e9 fe fc ff ff       	jmp    2100 <usb_hid_report_parse_local_tag+0x20>
    2402:	8d b6 00 00 00 00    	lea    0x0(%esi),%esi
    2408:	89 cb                	mov    %ecx,%ebx
    240a:	8d 04 16             	lea    (%esi,%edx,1),%eax
    240d:	29 d3                	sub    %edx,%ebx
    240f:	8d 4c 3a 01          	lea    0x1(%edx,%edi,1),%ecx
    2413:	89 da                	mov    %ebx,%edx
    2415:	8b 5d 14             	mov    0x14(%ebp),%ebx
    2418:	29 f2                	sub    %esi,%edx
    241a:	8d 14 93             	lea    (%ebx,%edx,4),%edx
    241d:	8d 76 00             	lea    0x0(%esi),%esi
    2420:	89 44 82 08          	mov    %eax,0x8(%edx,%eax,4)
    2424:	40                   	inc    %eax
    2425:	39 c8                	cmp    %ecx,%eax
    2427:	75 f7                	jne    2420 <usb_hid_report_parse_local_tag+0x340>
    2429:	29 f7                	sub    %esi,%edi
    242b:	8b 55 f0             	mov    -0x10(%ebp),%edx
    242e:	8d 44 3a 01          	lea    0x1(%edx,%edi,1),%eax
    2432:	eb ac                	jmp    23e0 <usb_hid_report_parse_local_tag+0x300>
    2434:	8d 74 26 00          	lea    0x0(%esi,%eiz,1),%esi
    2438:	c7 83 64 00 04 00 02 	movl   $0x2,0x40064(%ebx)
    243f:	00 00 00 
    2442:	8b 5d 14             	mov    0x14(%ebp),%ebx
    2445:	e9 0f fd ff ff       	jmp    2159 <usb_hid_report_parse_local_tag+0x79>
    244a:	8d b6 00 00 00 00    	lea    0x0(%esi),%esi
    2450:	8b 5d 14             	mov    0x14(%ebp),%ebx
    2453:	31 c9                	xor    %ecx,%ecx
    2455:	8a 4a 02             	mov    0x2(%edx),%cl
    2458:	8b 43 04             	mov    0x4(%ebx),%eax
    245b:	89 c3                	mov    %eax,%ebx
    245d:	81 e3 ff ff 00 00    	and    $0xffff,%ebx
    2463:	39 cb                	cmp    %ecx,%ebx
    2465:	75 54                	jne    24bb <usb_hid_report_parse_local_tag+0x3db>
    2467:	8a 02                	mov    (%edx),%al
    2469:	8b 5d 14             	mov    0x14(%ebp),%ebx
    246c:	25 ff 00 00 00       	and    $0xff,%eax
    2471:	89 c7                	mov    %eax,%edi
    2473:	31 c0                	xor    %eax,%eax
    2475:	8a 42 01             	mov    0x1(%edx),%al
    2478:	c1 e0 08             	shl    $0x8,%eax
    247b:	09 c7                	or     %eax,%edi
    247d:	89 d8                	mov    %ebx,%eax
    247f:	89 bb 10 00 04 00    	mov    %edi,0x40010(%ebx)
    2485:	e9 fc fe ff ff       	jmp    2386 <usb_hid_report_parse_local_tag+0x2a6>
    248a:	8d b6 00 00 00 00    	lea    0x0(%esi),%esi
    2490:	8b 5d 14             	mov    0x14(%ebp),%ebx
    2493:	31 c0                	xor    %eax,%eax
    2495:	8a 42 02             	mov    0x2(%edx),%al
    2498:	66 89 43 04          	mov    %ax,0x4(%ebx)
    249c:	31 c0                	xor    %eax,%eax
    249e:	8a 02                	mov    (%edx),%al
    24a0:	8a 52 01             	mov    0x1(%edx),%dl
    24a3:	81 e2 ff 00 00 00    	and    $0xff,%edx
    24a9:	c1 e2 08             	shl    $0x8,%edx
    24ac:	09 d0                	or     %edx,%eax
    24ae:	89 83 0c 00 04 00    	mov    %eax,0x4000c(%ebx)
    24b4:	31 c0                	xor    %eax,%eax
    24b6:	e9 45 fc ff ff       	jmp    2100 <usb_hid_report_parse_local_tag+0x20>
    24bb:	b8 f2 ff ff ff       	mov    $0xfffffff2,%eax
    24c0:	e9 3b fc ff ff       	jmp    2100 <usb_hid_report_parse_local_tag+0x20>
    24c5:	8d 74 26 00          	lea    0x0(%esi,%eiz,1),%esi
    24c9:	8d bc 27 00 00 00 00 	lea    0x0(%edi,%eiz,1),%edi

000024d0 <usb_hid_report_parse_tag>:
    24d0:	55                   	push   %ebp
    24d1:	89 e5                	mov    %esp,%ebp
    24d3:	57                   	push   %edi
    24d4:	56                   	push   %esi
    24d5:	53                   	push   %ebx
    24d6:	83 ec 1c             	sub    $0x1c,%esp
    24d9:	8a 45 0c             	mov    0xc(%ebp),%al
    24dc:	8b 4d 10             	mov    0x10(%ebp),%ecx
    24df:	8b 7d 14             	mov    0x14(%ebp),%edi
    24e2:	8b 5d 18             	mov    0x18(%ebp),%ebx
    24e5:	8b 75 1c             	mov    0x1c(%ebp),%esi
    24e8:	8a 55 08             	mov    0x8(%ebp),%dl
    24eb:	3c 01                	cmp    $0x1,%al
    24ed:	74 31                	je     2520 <usb_hid_report_parse_tag+0x50>
    24ef:	72 17                	jb     2508 <usb_hid_report_parse_tag+0x38>
    24f1:	3c 02                	cmp    $0x2,%al
    24f3:	74 53                	je     2548 <usb_hid_report_parse_tag+0x78>
    24f5:	b8 02 00 00 00       	mov    $0x2,%eax
    24fa:	83 c4 1c             	add    $0x1c,%esp
    24fd:	5b                   	pop    %ebx
    24fe:	5e                   	pop    %esi
    24ff:	5f                   	pop    %edi
    2500:	5d                   	pop    %ebp
    2501:	c3                   	ret    
    2502:	8d b6 00 00 00 00    	lea    0x0(%esi),%esi
    2508:	83 ea 08             	sub    $0x8,%edx
    250b:	80 fa 04             	cmp    $0x4,%dl
    250e:	77 e5                	ja     24f5 <usb_hid_report_parse_tag+0x25>
    2510:	81 e2 ff 00 00 00    	and    $0xff,%edx
    2516:	ff 24 95 f4 a8 02 00 	jmp    *0x2a8f4(,%edx,4)
    251d:	8d 76 00             	lea    0x0(%esi),%esi
    2520:	81 e2 ff 00 00 00    	and    $0xff,%edx
    2526:	89 75 18             	mov    %esi,0x18(%ebp)
    2529:	89 5d 14             	mov    %ebx,0x14(%ebp)
    252c:	89 7d 10             	mov    %edi,0x10(%ebp)
    252f:	89 4d 0c             	mov    %ecx,0xc(%ebp)
    2532:	89 55 08             	mov    %edx,0x8(%ebp)
    2535:	83 c4 1c             	add    $0x1c,%esp
    2538:	5b                   	pop    %ebx
    2539:	5e                   	pop    %esi
    253a:	5f                   	pop    %edi
    253b:	5d                   	pop    %ebp
    253c:	e9 9f f7 ff ff       	jmp    1ce0 <usb_hid_report_parse_global_tag>
    2541:	8d b4 26 00 00 00 00 	lea    0x0(%esi,%eiz,1),%esi
    2548:	81 e2 ff 00 00 00    	and    $0xff,%edx
    254e:	89 75 18             	mov    %esi,0x18(%ebp)
    2551:	89 5d 14             	mov    %ebx,0x14(%ebp)
    2554:	89 7d 10             	mov    %edi,0x10(%ebp)
    2557:	89 4d 0c             	mov    %ecx,0xc(%ebp)
    255a:	89 55 08             	mov    %edx,0x8(%ebp)
    255d:	83 c4 1c             	add    $0x1c,%esp
    2560:	5b                   	pop    %ebx
    2561:	5e                   	pop    %esi
    2562:	5f                   	pop    %edi
    2563:	5d                   	pop    %ebp
    2564:	e9 77 fb ff ff       	jmp    20e0 <usb_hid_report_parse_local_tag>
    2569:	8d b4 26 00 00 00 00 	lea    0x0(%esi,%eiz,1),%esi
    2570:	8b 46 14             	mov    0x14(%esi),%eax
    2573:	8d 56 10             	lea    0x10(%esi),%edx
    2576:	39 d0                	cmp    %edx,%eax
    2578:	0f 84 9f 00 00 00    	je     261d <usb_hid_report_parse_tag+0x14d>
    257e:	83 e8 0c             	sub    $0xc,%eax
    2581:	8a 09                	mov    (%ecx),%cl
    2583:	88 48 08             	mov    %cl,0x8(%eax)
    2586:	8b 83 04 00 04 00    	mov    0x40004(%ebx),%eax
    258c:	8b 44 83 04          	mov    0x4(%ebx,%eax,4),%eax
    2590:	c7 44 24 04 01 00 00 	movl   $0x1,0x4(%esp)
    2597:	00 
    2598:	c1 e8 10             	shr    $0x10,%eax
    259b:	89 34 24             	mov    %esi,(%esp)
    259e:	89 44 24 08          	mov    %eax,0x8(%esp)
    25a2:	e8 99 19 00 00       	call   3f40 <usb_hid_report_set_last_item>
    25a7:	8b 83 04 00 04 00    	mov    0x40004(%ebx),%eax
    25ad:	8b 44 83 04          	mov    0x4(%ebx,%eax,4),%eax
    25b1:	c7 44 24 04 02 00 00 	movl   $0x2,0x4(%esp)
    25b8:	00 
    25b9:	25 ff ff 00 00       	and    $0xffff,%eax
    25be:	89 34 24             	mov    %esi,(%esp)
    25c1:	89 44 24 08          	mov    %eax,0x8(%esp)
    25c5:	e8 76 19 00 00       	call   3f40 <usb_hid_report_set_last_item>
    25ca:	8b 83 04 00 04 00    	mov    0x40004(%ebx),%eax
    25d0:	8b 44 83 04          	mov    0x4(%ebx,%eax,4),%eax
    25d4:	89 44 24 08          	mov    %eax,0x8(%esp)
    25d8:	8b 83 08 00 04 00    	mov    0x40008(%ebx),%eax
    25de:	89 34 24             	mov    %esi,(%esp)
    25e1:	89 44 24 04          	mov    %eax,0x4(%esp)
    25e5:	e8 46 18 00 00       	call   3e30 <usb_hid_report_path_append_item>
    25ea:	89 1c 24             	mov    %ebx,(%esp)
    25ed:	e8 ae 17 00 00       	call   3da0 <usb_hid_report_reset_local_items>
    25f2:	e9 fe fe ff ff       	jmp    24f5 <usb_hid_report_parse_tag+0x25>
    25f7:	90                   	nop
    25f8:	8a 09                	mov    (%ecx),%cl
    25fa:	b8 01 00 00 00       	mov    $0x1,%eax
    25ff:	88 8b 50 00 04 00    	mov    %cl,0x40050(%ebx)
    2605:	e9 f0 fe ff ff       	jmp    24fa <usb_hid_report_parse_tag+0x2a>
    260a:	8d b6 00 00 00 00    	lea    0x0(%esi),%esi
    2610:	89 34 24             	mov    %esi,(%esp)
    2613:	e8 78 18 00 00       	call   3e90 <usb_hid_report_remove_last_item>
    2618:	e9 d8 fe ff ff       	jmp    24f5 <usb_hid_report_parse_tag+0x25>
    261d:	b8 f4 ff ff ff       	mov    $0xfffffff4,%eax
    2622:	e9 5a ff ff ff       	jmp    2581 <usb_hid_report_parse_tag+0xb1>
    2627:	89 f6                	mov    %esi,%esi
    2629:	8d bc 27 00 00 00 00 	lea    0x0(%edi,%eiz,1),%edi

00002630 <usb_hid_parse_report_descriptor>:
    2630:	55                   	push   %ebp
    2631:	89 e5                	mov    %esp,%ebp
    2633:	57                   	push   %edi
    2634:	56                   	push   %esi
    2635:	53                   	push   %ebx
    2636:	83 ec 7c             	sub    $0x7c,%esp
    2639:	8d 55 e0             	lea    -0x20(%ebp),%edx
    263c:	89 55 d4             	mov    %edx,-0x2c(%ebp)
    263f:	89 55 e0             	mov    %edx,-0x20(%ebp)
    2642:	89 55 e4             	mov    %edx,-0x1c(%ebp)
    2645:	8b 55 08             	mov    0x8(%ebp),%edx
    2648:	85 d2                	test   %edx,%edx
    264a:	0f 84 50 04 00 00    	je     2aa0 <usb_hid_parse_report_descriptor+0x470>
    2650:	8b 55 08             	mov    0x8(%ebp),%edx
    2653:	c7 44 24 08 20 00 00 	movl   $0x20,0x8(%esp)
    265a:	00 
    265b:	89 14 24             	mov    %edx,(%esp)
    265e:	c7 44 24 04 00 00 00 	movl   $0x0,0x4(%esp)
    2665:	00 
    2666:	e8 a5 b1 00 00       	call   d810 <memset>
    266b:	8b 5d 08             	mov    0x8(%ebp),%ebx
    266e:	8b 45 08             	mov    0x8(%ebp),%eax
    2671:	c7 43 18 00 00 00 00 	movl   $0x0,0x18(%ebx)
    2678:	83 c0 04             	add    $0x4,%eax
    267b:	89 43 04             	mov    %eax,0x4(%ebx)
    267e:	89 43 08             	mov    %eax,0x8(%ebx)
    2681:	89 d8                	mov    %ebx,%eax
    2683:	83 c0 0c             	add    $0xc,%eax
    2686:	89 43 0c             	mov    %eax,0xc(%ebx)
    2689:	89 43 10             	mov    %eax,0x10(%ebx)
    268c:	c7 04 24 68 00 04 00 	movl   $0x40068,(%esp)
    2693:	e8 88 8f 01 00       	call   1b620 <malloc>
    2698:	89 c6                	mov    %eax,%esi
    269a:	85 c0                	test   %eax,%eax
    269c:	0f 84 a4 04 00 00    	je     2b46 <usb_hid_parse_report_descriptor+0x516>
    26a2:	c7 44 24 08 68 00 04 	movl   $0x40068,0x8(%esp)
    26a9:	00 
    26aa:	c7 44 24 04 00 00 00 	movl   $0x0,0x4(%esp)
    26b1:	00 
    26b2:	89 04 24             	mov    %eax,(%esp)
    26b5:	e8 56 b1 00 00       	call   d810 <memset>
    26ba:	c7 86 5c 00 04 00 00 	movl   $0x0,0x4005c(%esi)
    26c1:	00 00 00 
    26c4:	c7 86 60 00 04 00 00 	movl   $0x0,0x40060(%esi)
    26cb:	00 00 00 
    26ce:	e8 5d 1c 00 00       	call   4330 <usb_hid_report_path>
    26d3:	89 45 cc             	mov    %eax,-0x34(%ebp)
    26d6:	85 c0                	test   %eax,%eax
    26d8:	0f 84 68 04 00 00    	je     2b46 <usb_hid_parse_report_descriptor+0x516>
    26de:	c7 44 24 08 00 00 00 	movl   $0x0,0x8(%esp)
    26e5:	00 
    26e6:	c7 44 24 04 00 00 00 	movl   $0x0,0x4(%esp)
    26ed:	00 
    26ee:	89 04 24             	mov    %eax,(%esp)
    26f1:	e8 3a 17 00 00       	call   3e30 <usb_hid_report_path_append_item>
    26f6:	8b 45 10             	mov    0x10(%ebp),%eax
    26f9:	85 c0                	test   %eax,%eax
    26fb:	0f 84 3d 01 00 00    	je     283e <usb_hid_parse_report_descriptor+0x20e>
    2701:	8b 45 cc             	mov    -0x34(%ebp),%eax
    2704:	31 db                	xor    %ebx,%ebx
    2706:	83 c0 10             	add    $0x10,%eax
    2709:	c7 45 bc 00 00 00 00 	movl   $0x0,-0x44(%ebp)
    2710:	c7 45 c4 00 00 00 00 	movl   $0x0,-0x3c(%ebp)
    2717:	c7 45 c0 00 00 00 00 	movl   $0x0,-0x40(%ebp)
    271e:	89 45 b8             	mov    %eax,-0x48(%ebp)
    2721:	89 d9                	mov    %ebx,%ecx
    2723:	90                   	nop
    2724:	8d 74 26 00          	lea    0x0(%esi,%eiz,1),%esi
    2728:	8b 7d 0c             	mov    0xc(%ebp),%edi
    272b:	01 cf                	add    %ecx,%edi
    272d:	8a 07                	mov    (%edi),%al
    272f:	3c fe                	cmp    $0xfe,%al
    2731:	0f 84 c1 01 00 00    	je     28f8 <usb_hid_parse_report_descriptor+0x2c8>
    2737:	89 c2                	mov    %eax,%edx
    2739:	83 e2 03             	and    $0x3,%edx
    273c:	8d 1c 0a             	lea    (%edx,%ecx,1),%ebx
    273f:	39 5d 10             	cmp    %ebx,0x10(%ebp)
    2742:	0f 86 58 03 00 00    	jbe    2aa0 <usb_hid_parse_report_descriptor+0x470>
    2748:	88 c3                	mov    %al,%bl
    274a:	41                   	inc    %ecx
    274b:	c0 eb 04             	shr    $0x4,%bl
    274e:	83 e0 0c             	and    $0xc,%eax
    2751:	89 4d d0             	mov    %ecx,-0x30(%ebp)
    2754:	88 5d a3             	mov    %bl,-0x5d(%ebp)
    2757:	8b 4d 0c             	mov    0xc(%ebp),%ecx
    275a:	81 e3 ff 00 00 00    	and    $0xff,%ebx
    2760:	c1 f8 02             	sar    $0x2,%eax
    2763:	03 4d d0             	add    -0x30(%ebp),%ecx
    2766:	89 5d c8             	mov    %ebx,-0x38(%ebp)
    2769:	3c 01                	cmp    $0x1,%al
    276b:	0f 84 df 01 00 00    	je     2950 <usb_hid_parse_report_descriptor+0x320>
    2771:	0f 83 99 01 00 00    	jae    2910 <usb_hid_parse_report_descriptor+0x2e0>
    2777:	8a 45 a3             	mov    -0x5d(%ebp),%al
    277a:	83 e8 08             	sub    $0x8,%eax
    277d:	3c 04                	cmp    $0x4,%al
    277f:	0f 87 ab 00 00 00    	ja     2830 <usb_hid_parse_report_descriptor+0x200>
    2785:	25 ff 00 00 00       	and    $0xff,%eax
    278a:	ff 24 85 08 a9 02 00 	jmp    *0x2a908(,%eax,4)
    2791:	8d b4 26 00 00 00 00 	lea    0x0(%esi,%eiz,1),%esi
    2798:	8b 55 cc             	mov    -0x34(%ebp),%edx
    279b:	8b 42 14             	mov    0x14(%edx),%eax
    279e:	3b 45 b8             	cmp    -0x48(%ebp),%eax
    27a1:	0f 84 95 03 00 00    	je     2b3c <usb_hid_parse_report_descriptor+0x50c>
    27a7:	83 e8 0c             	sub    $0xc,%eax
    27aa:	8a 09                	mov    (%ecx),%cl
    27ac:	88 48 08             	mov    %cl,0x8(%eax)
    27af:	8b 86 04 00 04 00    	mov    0x40004(%esi),%eax
    27b5:	8b 44 86 04          	mov    0x4(%esi,%eax,4),%eax
    27b9:	c7 44 24 04 01 00 00 	movl   $0x1,0x4(%esp)
    27c0:	00 
    27c1:	c1 e8 10             	shr    $0x10,%eax
    27c4:	89 44 24 08          	mov    %eax,0x8(%esp)
    27c8:	8b 45 cc             	mov    -0x34(%ebp),%eax
    27cb:	89 04 24             	mov    %eax,(%esp)
    27ce:	e8 6d 17 00 00       	call   3f40 <usb_hid_report_set_last_item>
    27d3:	8b 86 04 00 04 00    	mov    0x40004(%esi),%eax
    27d9:	8b 44 86 04          	mov    0x4(%esi,%eax,4),%eax
    27dd:	c7 44 24 04 02 00 00 	movl   $0x2,0x4(%esp)
    27e4:	00 
    27e5:	25 ff ff 00 00       	and    $0xffff,%eax
    27ea:	89 44 24 08          	mov    %eax,0x8(%esp)
    27ee:	8b 45 cc             	mov    -0x34(%ebp),%eax
    27f1:	89 04 24             	mov    %eax,(%esp)
    27f4:	e8 47 17 00 00       	call   3f40 <usb_hid_report_set_last_item>
    27f9:	8b 86 04 00 04 00    	mov    0x40004(%esi),%eax
    27ff:	8b 44 86 04          	mov    0x4(%esi,%eax,4),%eax
    2803:	89 44 24 08          	mov    %eax,0x8(%esp)
    2807:	8b 86 08 00 04 00    	mov    0x40008(%esi),%eax
    280d:	89 44 24 04          	mov    %eax,0x4(%esp)
    2811:	8b 45 cc             	mov    -0x34(%ebp),%eax
    2814:	89 04 24             	mov    %eax,(%esp)
    2817:	e8 14 16 00 00       	call   3e30 <usb_hid_report_path_append_item>
    281c:	89 34 24             	mov    %esi,(%esp)
    281f:	e8 7c 15 00 00       	call   3da0 <usb_hid_report_reset_local_items>
    2824:	8a 17                	mov    (%edi),%dl
    2826:	83 e2 03             	and    $0x3,%edx
    2829:	8d b4 26 00 00 00 00 	lea    0x0(%esi,%eiz,1),%esi
    2830:	8b 4d d0             	mov    -0x30(%ebp),%ecx
    2833:	01 d1                	add    %edx,%ecx
    2835:	39 4d 10             	cmp    %ecx,0x10(%ebp)
    2838:	0f 87 ea fe ff ff    	ja     2728 <usb_hid_parse_report_descriptor+0xf8>
    283e:	83 c4 7c             	add    $0x7c,%esp
    2841:	31 c0                	xor    %eax,%eax
    2843:	5b                   	pop    %ebx
    2844:	5e                   	pop    %esi
    2845:	5f                   	pop    %edi
    2846:	5d                   	pop    %ebp
    2847:	c3                   	ret    
    2848:	8b 45 cc             	mov    -0x34(%ebp),%eax
    284b:	89 04 24             	mov    %eax,(%esp)
    284e:	e8 3d 16 00 00       	call   3e90 <usb_hid_report_remove_last_item>
    2853:	8a 17                	mov    (%edi),%dl
    2855:	83 e2 03             	and    $0x3,%edx
    2858:	eb d6                	jmp    2830 <usb_hid_parse_report_descriptor+0x200>
    285a:	8d b6 00 00 00 00    	lea    0x0(%esi),%esi
    2860:	8a 09                	mov    (%ecx),%cl
    2862:	88 8e 50 00 04 00    	mov    %cl,0x40050(%esi)
    2868:	8b 45 cc             	mov    -0x34(%ebp),%eax
    286b:	89 86 58 00 04 00    	mov    %eax,0x40058(%esi)
    2871:	31 c0                	xor    %eax,%eax
    2873:	8a 06                	mov    (%esi),%al
    2875:	89 44 24 04          	mov    %eax,0x4(%esp)
    2879:	8b 45 cc             	mov    -0x34(%ebp),%eax
    287c:	89 04 24             	mov    %eax,(%esp)
    287f:	e8 5c 1c 00 00       	call   44e0 <usb_hid_report_path_set_report_id>
    2884:	8b 0e                	mov    (%esi),%ecx
    2886:	85 c9                	test   %ecx,%ecx
    2888:	74 0a                	je     2894 <usb_hid_parse_report_descriptor+0x264>
    288a:	8b 55 08             	mov    0x8(%ebp),%edx
    288d:	c7 42 18 01 00 00 00 	movl   $0x1,0x18(%edx)
    2894:	80 7d a3 09          	cmpb   $0x9,-0x5d(%ebp)
    2898:	0f 84 72 02 00 00    	je     2b10 <usb_hid_parse_report_descriptor+0x4e0>
    289e:	80 7d a3 0b          	cmpb   $0xb,-0x5d(%ebp)
    28a2:	0f 84 38 02 00 00    	je     2ae0 <usb_hid_parse_report_descriptor+0x4b0>
    28a8:	80 7d a3 08          	cmpb   $0x8,-0x5d(%ebp)
    28ac:	0f 84 fe 01 00 00    	je     2ab0 <usb_hid_parse_report_descriptor+0x480>
    28b2:	8b 55 c8             	mov    -0x38(%ebp),%edx
    28b5:	c7 44 24 08 1c a9 02 	movl   $0x2a91c,0x8(%esp)
    28bc:	00 
    28bd:	89 54 24 0c          	mov    %edx,0xc(%esp)
    28c1:	c7 44 24 04 05 00 00 	movl   $0x5,0x4(%esp)
    28c8:	00 
    28c9:	c7 04 24 ff ff ff ff 	movl   $0xffffffff,(%esp)
    28d0:	e8 7b 34 01 00       	call   15d50 <log_msg>
    28d5:	8b 5d 08             	mov    0x8(%ebp),%ebx
    28d8:	89 74 24 04          	mov    %esi,0x4(%esp)
    28dc:	89 1c 24             	mov    %ebx,(%esp)
    28df:	e8 fc ed ff ff       	call   16e0 <usb_hid_report_append_fields>
    28e4:	89 34 24             	mov    %esi,(%esp)
    28e7:	e8 b4 14 00 00       	call   3da0 <usb_hid_report_reset_local_items>
    28ec:	8a 17                	mov    (%edi),%dl
    28ee:	83 e2 03             	and    $0x3,%edx
    28f1:	e9 3a ff ff ff       	jmp    2830 <usb_hid_parse_report_descriptor+0x200>
    28f6:	66 90                	xchg   %ax,%ax
    28f8:	8b 55 0c             	mov    0xc(%ebp),%edx
    28fb:	8a 54 0a 01          	mov    0x1(%edx,%ecx,1),%dl
    28ff:	88 d0                	mov    %dl,%al
    2901:	83 e0 03             	and    $0x3,%eax
    2904:	8d 4c 08 03          	lea    0x3(%eax,%ecx,1),%ecx
    2908:	e9 28 ff ff ff       	jmp    2835 <usb_hid_parse_report_descriptor+0x205>
    290d:	8d 76 00             	lea    0x0(%esi),%esi
    2910:	3c 02                	cmp    $0x2,%al
    2912:	0f 85 18 ff ff ff    	jne    2830 <usb_hid_parse_report_descriptor+0x200>
    2918:	8b 45 cc             	mov    -0x34(%ebp),%eax
    291b:	89 54 24 08          	mov    %edx,0x8(%esp)
    291f:	8b 55 c8             	mov    -0x38(%ebp),%edx
    2922:	89 44 24 10          	mov    %eax,0x10(%esp)
    2926:	89 74 24 0c          	mov    %esi,0xc(%esp)
    292a:	89 4c 24 04          	mov    %ecx,0x4(%esp)
    292e:	89 14 24             	mov    %edx,(%esp)
    2931:	e8 aa f7 ff ff       	call   20e0 <usb_hid_report_parse_local_tag>
    2936:	83 f8 03             	cmp    $0x3,%eax
    2939:	74 38                	je     2973 <usb_hid_parse_report_descriptor+0x343>
    293b:	7f 6b                	jg     29a8 <usb_hid_parse_report_descriptor+0x378>
    293d:	48                   	dec    %eax
    293e:	0f 84 24 ff ff ff    	je     2868 <usb_hid_parse_report_descriptor+0x238>
    2944:	8a 17                	mov    (%edi),%dl
    2946:	83 e2 03             	and    $0x3,%edx
    2949:	e9 e2 fe ff ff       	jmp    2830 <usb_hid_parse_report_descriptor+0x200>
    294e:	66 90                	xchg   %ax,%ax
    2950:	8b 45 cc             	mov    -0x34(%ebp),%eax
    2953:	89 54 24 08          	mov    %edx,0x8(%esp)
    2957:	8b 55 c8             	mov    -0x38(%ebp),%edx
    295a:	89 44 24 10          	mov    %eax,0x10(%esp)
    295e:	89 74 24 0c          	mov    %esi,0xc(%esp)
    2962:	89 4c 24 04          	mov    %ecx,0x4(%esp)
    2966:	89 14 24             	mov    %edx,(%esp)
    2969:	e8 72 f3 ff ff       	call   1ce0 <usb_hid_report_parse_global_tag>
    296e:	83 f8 03             	cmp    $0x3,%eax
    2971:	75 c8                	jne    293b <usb_hid_parse_report_descriptor+0x30b>
    2973:	31 c0                	xor    %eax,%eax
    2975:	8a 06                	mov    (%esi),%al
    2977:	89 44 24 04          	mov    %eax,0x4(%esp)
    297b:	8b 45 cc             	mov    -0x34(%ebp),%eax
    297e:	89 04 24             	mov    %eax,(%esp)
    2981:	e8 5a 1b 00 00       	call   44e0 <usb_hid_report_path_set_report_id>
    2986:	8a 17                	mov    (%edi),%dl
    2988:	83 e2 03             	and    $0x3,%edx
    298b:	c7 45 bc 00 00 00 00 	movl   $0x0,-0x44(%ebp)
    2992:	c7 45 c4 00 00 00 00 	movl   $0x0,-0x3c(%ebp)
    2999:	c7 45 c0 00 00 00 00 	movl   $0x0,-0x40(%ebp)
    29a0:	e9 8b fe ff ff       	jmp    2830 <usb_hid_parse_report_descriptor+0x200>
    29a5:	8d 76 00             	lea    0x0(%esi),%esi
    29a8:	83 f8 0a             	cmp    $0xa,%eax
    29ab:	0f 84 a7 00 00 00    	je     2a58 <usb_hid_parse_report_descriptor+0x428>
    29b1:	83 f8 0b             	cmp    $0xb,%eax
    29b4:	75 8e                	jne    2944 <usb_hid_parse_report_descriptor+0x314>
    29b6:	8b 5d e4             	mov    -0x1c(%ebp),%ebx
    29b9:	3b 5d d4             	cmp    -0x2c(%ebp),%ebx
    29bc:	0f 84 de 00 00 00    	je     2aa0 <usb_hid_parse_report_descriptor+0x470>
    29c2:	85 db                	test   %ebx,%ebx
    29c4:	0f 84 d6 00 00 00    	je     2aa0 <usb_hid_parse_report_descriptor+0x470>
    29ca:	89 34 24             	mov    %esi,(%esp)
    29cd:	8d b3 a4 ff fb ff    	lea    -0x4005c(%ebx),%esi
    29d3:	e8 58 8d 01 00       	call   1b730 <free>
    29d8:	8b 86 58 00 04 00    	mov    0x40058(%esi),%eax
    29de:	8b 40 08             	mov    0x8(%eax),%eax
    29e1:	8d 50 f4             	lea    -0xc(%eax),%edx
    29e4:	8b 40 f4             	mov    -0xc(%eax),%eax
    29e7:	89 44 24 08          	mov    %eax,0x8(%esp)
    29eb:	8b 45 cc             	mov    -0x34(%ebp),%eax
    29ee:	89 04 24             	mov    %eax,(%esp)
    29f1:	c7 44 24 04 01 00 00 	movl   $0x1,0x4(%esp)
    29f8:	00 
    29f9:	89 55 a4             	mov    %edx,-0x5c(%ebp)
    29fc:	e8 3f 15 00 00       	call   3f40 <usb_hid_report_set_last_item>
    2a01:	8b 55 a4             	mov    -0x5c(%ebp),%edx
    2a04:	8b 42 04             	mov    0x4(%edx),%eax
    2a07:	c7 44 24 04 02 00 00 	movl   $0x2,0x4(%esp)
    2a0e:	00 
    2a0f:	89 44 24 08          	mov    %eax,0x8(%esp)
    2a13:	8b 45 cc             	mov    -0x34(%ebp),%eax
    2a16:	89 04 24             	mov    %eax,(%esp)
    2a19:	e8 22 15 00 00       	call   3f40 <usb_hid_report_set_last_item>
    2a1e:	8b 86 58 00 04 00    	mov    0x40058(%esi),%eax
    2a24:	89 04 24             	mov    %eax,(%esp)
    2a27:	e8 44 19 00 00       	call   4370 <usb_hid_report_path_free>
    2a2c:	8b 13                	mov    (%ebx),%edx
    2a2e:	85 d2                	test   %edx,%edx
    2a30:	74 0e                	je     2a40 <usb_hid_parse_report_descriptor+0x410>
    2a32:	8b 43 04             	mov    0x4(%ebx),%eax
    2a35:	85 c0                	test   %eax,%eax
    2a37:	74 07                	je     2a40 <usb_hid_parse_report_descriptor+0x410>
    2a39:	89 10                	mov    %edx,(%eax)
    2a3b:	8b 13                	mov    (%ebx),%edx
    2a3d:	89 42 04             	mov    %eax,0x4(%edx)
    2a40:	c7 03 00 00 00 00    	movl   $0x0,(%ebx)
    2a46:	c7 43 04 00 00 00 00 	movl   $0x0,0x4(%ebx)
    2a4d:	e9 f2 fe ff ff       	jmp    2944 <usb_hid_parse_report_descriptor+0x314>
    2a52:	8d b6 00 00 00 00    	lea    0x0(%esi),%esi
    2a58:	89 34 24             	mov    %esi,(%esp)
    2a5b:	e8 a0 11 00 00       	call   3c00 <usb_hid_report_item_clone>
    2a60:	89 c3                	mov    %eax,%ebx
    2a62:	8b 45 cc             	mov    -0x34(%ebp),%eax
    2a65:	89 04 24             	mov    %eax,(%esp)
    2a68:	e8 b3 19 00 00       	call   4420 <usb_hid_report_path_clone>
    2a6d:	8d 55 e0             	lea    -0x20(%ebp),%edx
    2a70:	89 93 5c 00 04 00    	mov    %edx,0x4005c(%ebx)
    2a76:	8b 55 e4             	mov    -0x1c(%ebp),%edx
    2a79:	89 83 58 00 04 00    	mov    %eax,0x40058(%ebx)
    2a7f:	8d 83 5c 00 04 00    	lea    0x4005c(%ebx),%eax
    2a85:	89 93 60 00 04 00    	mov    %edx,0x40060(%ebx)
    2a8b:	89 02                	mov    %eax,(%edx)
    2a8d:	8a 17                	mov    (%edi),%dl
    2a8f:	89 45 e4             	mov    %eax,-0x1c(%ebp)
    2a92:	83 e2 03             	and    $0x3,%edx
    2a95:	e9 96 fd ff ff       	jmp    2830 <usb_hid_parse_report_descriptor+0x200>
    2a9a:	8d b6 00 00 00 00    	lea    0x0(%esi),%esi
    2aa0:	b8 f2 ff ff ff       	mov    $0xfffffff2,%eax
    2aa5:	83 c4 7c             	add    $0x7c,%esp
    2aa8:	5b                   	pop    %ebx
    2aa9:	5e                   	pop    %esi
    2aaa:	5f                   	pop    %edi
    2aab:	5d                   	pop    %ebp
    2aac:	c3                   	ret    
    2aad:	8d 76 00             	lea    0x0(%esi),%esi
    2ab0:	8b 86 20 00 04 00    	mov    0x40020(%esi),%eax
    2ab6:	8b 96 1c 00 04 00    	mov    0x4001c(%esi),%edx
    2abc:	0f af c2             	imul   %edx,%eax
    2abf:	8b 5d c0             	mov    -0x40(%ebp),%ebx
    2ac2:	c7 86 54 00 04 00 01 	movl   $0x1,0x40054(%esi)
    2ac9:	00 00 00 
    2acc:	89 9e 24 00 04 00    	mov    %ebx,0x40024(%esi)
    2ad2:	01 c3                	add    %eax,%ebx
    2ad4:	89 5d c0             	mov    %ebx,-0x40(%ebp)
    2ad7:	e9 f9 fd ff ff       	jmp    28d5 <usb_hid_parse_report_descriptor+0x2a5>
    2adc:	8d 74 26 00          	lea    0x0(%esi,%eiz,1),%esi
    2ae0:	8b 86 20 00 04 00    	mov    0x40020(%esi),%eax
    2ae6:	8b 96 1c 00 04 00    	mov    0x4001c(%esi),%edx
    2aec:	0f af c2             	imul   %edx,%eax
    2aef:	8b 5d bc             	mov    -0x44(%ebp),%ebx
    2af2:	c7 86 54 00 04 00 03 	movl   $0x3,0x40054(%esi)
    2af9:	00 00 00 
    2afc:	89 9e 24 00 04 00    	mov    %ebx,0x40024(%esi)
    2b02:	01 c3                	add    %eax,%ebx
    2b04:	89 5d bc             	mov    %ebx,-0x44(%ebp)
    2b07:	e9 c9 fd ff ff       	jmp    28d5 <usb_hid_parse_report_descriptor+0x2a5>
    2b0c:	8d 74 26 00          	lea    0x0(%esi,%eiz,1),%esi
    2b10:	8b 86 20 00 04 00    	mov    0x40020(%esi),%eax
    2b16:	8b 8e 1c 00 04 00    	mov    0x4001c(%esi),%ecx
    2b1c:	0f af c1             	imul   %ecx,%eax
    2b1f:	8b 55 c4             	mov    -0x3c(%ebp),%edx
    2b22:	c7 86 54 00 04 00 02 	movl   $0x2,0x40054(%esi)
    2b29:	00 00 00 
    2b2c:	89 96 24 00 04 00    	mov    %edx,0x40024(%esi)
    2b32:	01 c2                	add    %eax,%edx
    2b34:	89 55 c4             	mov    %edx,-0x3c(%ebp)
    2b37:	e9 99 fd ff ff       	jmp    28d5 <usb_hid_parse_report_descriptor+0x2a5>
    2b3c:	b8 f4 ff ff ff       	mov    $0xfffffff4,%eax
    2b41:	e9 64 fc ff ff       	jmp    27aa <usb_hid_parse_report_descriptor+0x17a>
    2b46:	b8 fe ff ff ff       	mov    $0xfffffffe,%eax
    2b4b:	e9 55 ff ff ff       	jmp    2aa5 <usb_hid_parse_report_descriptor+0x475>

00002b50 <usb_hid_report_tag_data_uint32>:
    2b50:	55                   	push   %ebp
    2b51:	31 c0                	xor    %eax,%eax
    2b53:	89 e5                	mov    %esp,%ebp
    2b55:	57                   	push   %edi
    2b56:	56                   	push   %esi
    2b57:	53                   	push   %ebx
    2b58:	8b 75 0c             	mov    0xc(%ebp),%esi
    2b5b:	8b 7d 08             	mov    0x8(%ebp),%edi
    2b5e:	85 f6                	test   %esi,%esi
    2b60:	74 1b                	je     2b7d <usb_hid_report_tag_data_uint32+0x2d>
    2b62:	31 d2                	xor    %edx,%edx
    2b64:	8d 74 26 00          	lea    0x0(%esi,%eiz,1),%esi
    2b68:	31 db                	xor    %ebx,%ebx
    2b6a:	8d 0c d5 00 00 00 00 	lea    0x0(,%edx,8),%ecx
    2b71:	8a 1c 17             	mov    (%edi,%edx,1),%bl
    2b74:	42                   	inc    %edx
    2b75:	d3 e3                	shl    %cl,%ebx
    2b77:	09 d8                	or     %ebx,%eax
    2b79:	39 f2                	cmp    %esi,%edx
    2b7b:	75 eb                	jne    2b68 <usb_hid_report_tag_data_uint32+0x18>
    2b7d:	5b                   	pop    %ebx
    2b7e:	5e                   	pop    %esi
    2b7f:	5f                   	pop    %edi
    2b80:	5d                   	pop    %ebp
    2b81:	c3                   	ret    
    2b82:	8d b4 26 00 00 00 00 	lea    0x0(%esi,%eiz,1),%esi
    2b89:	8d bc 27 00 00 00 00 	lea    0x0(%edi,%eiz,1),%edi

00002b90 <usb_hid_descriptor_print_list>:
    2b90:	55                   	push   %ebp
    2b91:	89 e5                	mov    %esp,%ebp
    2b93:	57                   	push   %edi
    2b94:	56                   	push   %esi
    2b95:	53                   	push   %ebx
    2b96:	83 ec 1c             	sub    $0x1c,%esp
    2b99:	8b 7d 08             	mov    0x8(%ebp),%edi
    2b9c:	85 ff                	test   %edi,%edi
    2b9e:	0f 84 fc 01 00 00    	je     2da0 <usb_hid_descriptor_print_list+0x210>
    2ba4:	8b 77 04             	mov    0x4(%edi),%esi
    2ba7:	39 fe                	cmp    %edi,%esi
    2ba9:	0f 84 f1 01 00 00    	je     2da0 <usb_hid_descriptor_print_list+0x210>
    2baf:	90                   	nop
    2bb0:	8b 46 c0             	mov    -0x40(%esi),%eax
    2bb3:	c7 44 24 08 39 a9 02 	movl   $0x2a939,0x8(%esp)
    2bba:	00 
    2bbb:	89 44 24 0c          	mov    %eax,0xc(%esp)
    2bbf:	c7 44 24 04 04 00 00 	movl   $0x4,0x4(%esp)
    2bc6:	00 
    2bc7:	c7 04 24 ff ff ff ff 	movl   $0xffffffff,(%esp)
    2bce:	e8 7d 31 01 00       	call   15d50 <log_msg>
    2bd3:	8b 46 c4             	mov    -0x3c(%esi),%eax
    2bd6:	89 44 24 0c          	mov    %eax,0xc(%esp)
    2bda:	c7 44 24 08 47 a9 02 	movl   $0x2a947,0x8(%esp)
    2be1:	00 
    2be2:	c7 44 24 04 04 00 00 	movl   $0x4,0x4(%esp)
    2be9:	00 
    2bea:	c7 04 24 ff ff ff ff 	movl   $0xffffffff,(%esp)
    2bf1:	e8 5a 31 01 00       	call   15d50 <log_msg>
    2bf6:	8b 46 d4             	mov    -0x2c(%esi),%eax
    2bf9:	89 44 24 0c          	mov    %eax,0xc(%esp)
    2bfd:	c7 44 24 08 54 a9 02 	movl   $0x2a954,0x8(%esp)
    2c04:	00 
    2c05:	c7 44 24 04 04 00 00 	movl   $0x4,0x4(%esp)
    2c0c:	00 
    2c0d:	c7 04 24 ff ff ff ff 	movl   $0xffffffff,(%esp)
    2c14:	e8 37 31 01 00       	call   15d50 <log_msg>
    2c19:	8b 46 d8             	mov    -0x28(%esi),%eax
    2c1c:	89 44 24 0c          	mov    %eax,0xc(%esp)
    2c20:	c7 44 24 08 62 a9 02 	movl   $0x2a962,0x8(%esp)
    2c27:	00 
    2c28:	c7 44 24 04 04 00 00 	movl   $0x4,0x4(%esp)
    2c2f:	00 
    2c30:	c7 04 24 ff ff ff ff 	movl   $0xffffffff,(%esp)
    2c37:	e8 14 31 01 00       	call   15d50 <log_msg>
    2c3c:	8b 46 dc             	mov    -0x24(%esi),%eax
    2c3f:	89 44 24 0c          	mov    %eax,0xc(%esp)
    2c43:	c7 44 24 08 70 a9 02 	movl   $0x2a970,0x8(%esp)
    2c4a:	00 
    2c4b:	c7 44 24 04 04 00 00 	movl   $0x4,0x4(%esp)
    2c52:	00 
    2c53:	c7 04 24 ff ff ff ff 	movl   $0xffffffff,(%esp)
    2c5a:	e8 f1 30 01 00       	call   15d50 <log_msg>
    2c5f:	8b 46 e0             	mov    -0x20(%esi),%eax
    2c62:	89 44 24 0c          	mov    %eax,0xc(%esp)
    2c66:	c7 44 24 08 7e a9 02 	movl   $0x2a97e,0x8(%esp)
    2c6d:	00 
    2c6e:	c7 44 24 04 04 00 00 	movl   $0x4,0x4(%esp)
    2c75:	00 
    2c76:	c7 04 24 ff ff ff ff 	movl   $0xffffffff,(%esp)
    2c7d:	e8 ce 30 01 00       	call   15d50 <log_msg>
    2c82:	8b 46 e4             	mov    -0x1c(%esi),%eax
    2c85:	89 44 24 0c          	mov    %eax,0xc(%esp)
    2c89:	c7 44 24 08 8c a9 02 	movl   $0x2a98c,0x8(%esp)
    2c90:	00 
    2c91:	c7 44 24 04 04 00 00 	movl   $0x4,0x4(%esp)
    2c98:	00 
    2c99:	c7 04 24 ff ff ff ff 	movl   $0xffffffff,(%esp)
    2ca0:	e8 ab 30 01 00       	call   15d50 <log_msg>
    2ca5:	8b 46 e8             	mov    -0x18(%esi),%eax
    2ca8:	89 44 24 0c          	mov    %eax,0xc(%esp)
    2cac:	c7 44 24 08 9d a9 02 	movl   $0x2a99d,0x8(%esp)
    2cb3:	00 
    2cb4:	c7 44 24 04 04 00 00 	movl   $0x4,0x4(%esp)
    2cbb:	00 
    2cbc:	c7 04 24 ff ff ff ff 	movl   $0xffffffff,(%esp)
    2cc3:	e8 88 30 01 00       	call   15d50 <log_msg>
    2cc8:	8b 46 f8             	mov    -0x8(%esi),%eax
    2ccb:	89 44 24 0c          	mov    %eax,0xc(%esp)
    2ccf:	c7 44 24 08 ad a9 02 	movl   $0x2a9ad,0x8(%esp)
    2cd6:	00 
    2cd7:	c7 44 24 04 04 00 00 	movl   $0x4,0x4(%esp)
    2cde:	00 
    2cdf:	c7 04 24 ff ff ff ff 	movl   $0xffffffff,(%esp)
    2ce6:	e8 65 30 01 00       	call   15d50 <log_msg>
    2ceb:	8b 46 fc             	mov    -0x4(%esi),%eax
    2cee:	89 44 24 0c          	mov    %eax,0xc(%esp)
    2cf2:	c7 44 24 08 c2 a9 02 	movl   $0x2a9c2,0x8(%esp)
    2cf9:	00 
    2cfa:	c7 44 24 04 04 00 00 	movl   $0x4,0x4(%esp)
    2d01:	00 
    2d02:	c7 04 24 ff ff ff ff 	movl   $0xffffffff,(%esp)
    2d09:	e8 42 30 01 00       	call   15d50 <log_msg>
    2d0e:	66 8b 46 ca          	mov    -0x36(%esi),%ax
    2d12:	25 ff ff 00 00       	and    $0xffff,%eax
    2d17:	c7 44 24 08 cf a9 02 	movl   $0x2a9cf,0x8(%esp)
    2d1e:	00 
    2d1f:	89 44 24 0c          	mov    %eax,0xc(%esp)
    2d23:	c7 44 24 04 04 00 00 	movl   $0x4,0x4(%esp)
    2d2a:	00 
    2d2b:	c7 04 24 ff ff ff ff 	movl   $0xffffffff,(%esp)
    2d32:	e8 19 30 01 00       	call   15d50 <log_msg>
    2d37:	8b 46 c8             	mov    -0x38(%esi),%eax
    2d3a:	25 ff ff 00 00       	and    $0xffff,%eax
    2d3f:	c7 44 24 08 dd a9 02 	movl   $0x2a9dd,0x8(%esp)
    2d46:	00 
    2d47:	89 44 24 0c          	mov    %eax,0xc(%esp)
    2d4b:	c7 44 24 04 04 00 00 	movl   $0x4,0x4(%esp)
    2d52:	00 
    2d53:	c7 04 24 ff ff ff ff 	movl   $0xffffffff,(%esp)
    2d5a:	e8 f1 2f 01 00       	call   15d50 <log_msg>
    2d5f:	8b 46 d0             	mov    -0x30(%esi),%eax
    2d62:	89 04 24             	mov    %eax,(%esp)
    2d65:	e8 16 12 00 00       	call   3f80 <usb_hid_print_usage_path>
    2d6a:	c7 44 24 08 cb cf 02 	movl   $0x2cfcb,0x8(%esp)
    2d71:	00 
    2d72:	c7 44 24 04 04 00 00 	movl   $0x4,0x4(%esp)
    2d79:	00 
    2d7a:	c7 04 24 ff ff ff ff 	movl   $0xffffffff,(%esp)
    2d81:	e8 ca 2f 01 00       	call   15d50 <log_msg>
    2d86:	8b 76 04             	mov    0x4(%esi),%esi
    2d89:	39 fe                	cmp    %edi,%esi
    2d8b:	0f 85 1f fe ff ff    	jne    2bb0 <usb_hid_descriptor_print_list+0x20>
    2d91:	83 c4 1c             	add    $0x1c,%esp
    2d94:	5b                   	pop    %ebx
    2d95:	5e                   	pop    %esi
    2d96:	5f                   	pop    %edi
    2d97:	5d                   	pop    %ebp
    2d98:	c3                   	ret    
    2d99:	8d b4 26 00 00 00 00 	lea    0x0(%esi,%eiz,1),%esi
    2da0:	c7 44 24 08 31 a9 02 	movl   $0x2a931,0x8(%esp)
    2da7:	00 
    2da8:	c7 44 24 04 04 00 00 	movl   $0x4,0x4(%esp)
    2daf:	00 
    2db0:	c7 04 24 ff ff ff ff 	movl   $0xffffffff,(%esp)
    2db7:	e8 94 2f 01 00       	call   15d50 <log_msg>
    2dbc:	83 c4 1c             	add    $0x1c,%esp
    2dbf:	5b                   	pop    %ebx
    2dc0:	5e                   	pop    %esi
    2dc1:	5f                   	pop    %edi
    2dc2:	5d                   	pop    %ebp
    2dc3:	c3                   	ret    
    2dc4:	8d b6 00 00 00 00    	lea    0x0(%esi),%esi
    2dca:	8d bf 00 00 00 00    	lea    0x0(%edi),%edi

00002dd0 <usb_hid_descriptor_print>:
    2dd0:	55                   	push   %ebp
    2dd1:	89 e5                	mov    %esp,%ebp
    2dd3:	57                   	push   %edi
    2dd4:	56                   	push   %esi
    2dd5:	53                   	push   %ebx
    2dd6:	83 ec 2c             	sub    $0x2c,%esp
    2dd9:	8b 75 08             	mov    0x8(%ebp),%esi
    2ddc:	85 f6                	test   %esi,%esi
    2dde:	0f 84 f1 00 00 00    	je     2ed5 <usb_hid_descriptor_print+0x105>
    2de4:	8d 46 04             	lea    0x4(%esi),%eax
    2de7:	8b 5e 08             	mov    0x8(%esi),%ebx
    2dea:	89 45 e4             	mov    %eax,-0x1c(%ebp)
    2ded:	39 c3                	cmp    %eax,%ebx
    2def:	0f 84 e0 00 00 00    	je     2ed5 <usb_hid_descriptor_print+0x105>
    2df5:	8d 76 00             	lea    0x0(%esi),%esi
    2df8:	31 c0                	xor    %eax,%eax
    2dfa:	8a 43 e8             	mov    -0x18(%ebx),%al
    2dfd:	c7 44 24 08 ef a9 02 	movl   $0x2a9ef,0x8(%esp)
    2e04:	00 
    2e05:	89 44 24 0c          	mov    %eax,0xc(%esp)
    2e09:	c7 44 24 04 04 00 00 	movl   $0x4,0x4(%esp)
    2e10:	00 
    2e11:	c7 04 24 ff ff ff ff 	movl   $0xffffffff,(%esp)
    2e18:	e8 33 2f 01 00       	call   15d50 <log_msg>
    2e1d:	8b 43 ec             	mov    -0x14(%ebx),%eax
    2e20:	89 44 24 0c          	mov    %eax,0xc(%esp)
    2e24:	c7 44 24 08 fe a9 02 	movl   $0x2a9fe,0x8(%esp)
    2e2b:	00 
    2e2c:	c7 44 24 04 04 00 00 	movl   $0x4,0x4(%esp)
    2e33:	00 
    2e34:	c7 04 24 ff ff ff ff 	movl   $0xffffffff,(%esp)
    2e3b:	e8 10 2f 01 00       	call   15d50 <log_msg>
    2e40:	8b 43 f0             	mov    -0x10(%ebx),%eax
    2e43:	89 44 24 0c          	mov    %eax,0xc(%esp)
    2e47:	c7 44 24 08 09 aa 02 	movl   $0x2aa09,0x8(%esp)
    2e4e:	00 
    2e4f:	c7 44 24 04 04 00 00 	movl   $0x4,0x4(%esp)
    2e56:	00 
    2e57:	c7 04 24 ff ff ff ff 	movl   $0xffffffff,(%esp)
    2e5e:	e8 ed 2e 01 00       	call   15d50 <log_msg>
    2e63:	8b 43 ec             	mov    -0x14(%ebx),%eax
    2e66:	89 44 24 08          	mov    %eax,0x8(%esp)
    2e6a:	31 c0                	xor    %eax,%eax
    2e6c:	8a 43 e8             	mov    -0x18(%ebx),%al
    2e6f:	89 34 24             	mov    %esi,(%esp)
    2e72:	89 44 24 04          	mov    %eax,0x4(%esp)
    2e76:	e8 c5 05 00 00       	call   3440 <usb_hid_report_byte_size>
    2e7b:	c7 44 24 08 17 aa 02 	movl   $0x2aa17,0x8(%esp)
    2e82:	00 
    2e83:	89 44 24 0c          	mov    %eax,0xc(%esp)
    2e87:	c7 44 24 04 04 00 00 	movl   $0x4,0x4(%esp)
    2e8e:	00 
    2e8f:	c7 04 24 ff ff ff ff 	movl   $0xffffffff,(%esp)
    2e96:	e8 b5 2e 01 00       	call   15d50 <log_msg>
    2e9b:	8b 43 f4             	mov    -0xc(%ebx),%eax
    2e9e:	89 44 24 0c          	mov    %eax,0xc(%esp)
    2ea2:	c7 44 24 08 25 aa 02 	movl   $0x2aa25,0x8(%esp)
    2ea9:	00 
    2eaa:	c7 44 24 04 04 00 00 	movl   $0x4,0x4(%esp)
    2eb1:	00 
    2eb2:	c7 04 24 ff ff ff ff 	movl   $0xffffffff,(%esp)
    2eb9:	e8 92 2e 01 00       	call   15d50 <log_msg>
    2ebe:	8d 43 f8             	lea    -0x8(%ebx),%eax
    2ec1:	89 04 24             	mov    %eax,(%esp)
    2ec4:	e8 c7 fc ff ff       	call   2b90 <usb_hid_descriptor_print_list>
    2ec9:	8b 5b 04             	mov    0x4(%ebx),%ebx
    2ecc:	3b 5d e4             	cmp    -0x1c(%ebp),%ebx
    2ecf:	0f 85 23 ff ff ff    	jne    2df8 <usb_hid_descriptor_print+0x28>
    2ed5:	83 c4 2c             	add    $0x2c,%esp
    2ed8:	5b                   	pop    %ebx
    2ed9:	5e                   	pop    %esi
    2eda:	5f                   	pop    %edi
    2edb:	5d                   	pop    %ebp
    2edc:	c3                   	ret    
    2edd:	8d 76 00             	lea    0x0(%esi),%esi

00002ee0 <usb_hid_report_deinit>:
    2ee0:	55                   	push   %ebp
    2ee1:	89 e5                	mov    %esp,%ebp
    2ee3:	57                   	push   %edi
    2ee4:	56                   	push   %esi
    2ee5:	53                   	push   %ebx
    2ee6:	83 ec 2c             	sub    $0x2c,%esp
    2ee9:	8b 7d 08             	mov    0x8(%ebp),%edi
    2eec:	85 ff                	test   %edi,%edi
    2eee:	0f 84 ca 00 00 00    	je     2fbe <usb_hid_report_deinit+0xde>
    2ef4:	8b 47 10             	mov    0x10(%edi),%eax
    2ef7:	8d 5f 0c             	lea    0xc(%edi),%ebx
    2efa:	39 d8                	cmp    %ebx,%eax
    2efc:	74 35                	je     2f33 <usb_hid_report_deinit+0x53>
    2efe:	66 90                	xchg   %ax,%ax
    2f00:	8b 08                	mov    (%eax),%ecx
    2f02:	8d 70 f8             	lea    -0x8(%eax),%esi
    2f05:	85 c9                	test   %ecx,%ecx
    2f07:	74 0e                	je     2f17 <usb_hid_report_deinit+0x37>
    2f09:	8b 50 04             	mov    0x4(%eax),%edx
    2f0c:	85 d2                	test   %edx,%edx
    2f0e:	74 07                	je     2f17 <usb_hid_report_deinit+0x37>
    2f10:	89 0a                	mov    %ecx,(%edx)
    2f12:	8b 08                	mov    (%eax),%ecx
    2f14:	89 51 04             	mov    %edx,0x4(%ecx)
    2f17:	c7 00 00 00 00 00    	movl   $0x0,(%eax)
    2f1d:	c7 40 04 00 00 00 00 	movl   $0x0,0x4(%eax)
    2f24:	89 34 24             	mov    %esi,(%esp)
    2f27:	e8 44 14 00 00       	call   4370 <usb_hid_report_path_free>
    2f2c:	8b 47 10             	mov    0x10(%edi),%eax
    2f2f:	39 d8                	cmp    %ebx,%eax
    2f31:	75 cd                	jne    2f00 <usb_hid_report_deinit+0x20>
    2f33:	8d 47 04             	lea    0x4(%edi),%eax
    2f36:	8b 5f 08             	mov    0x8(%edi),%ebx
    2f39:	89 45 e4             	mov    %eax,-0x1c(%ebp)
    2f3c:	39 c3                	cmp    %eax,%ebx
    2f3e:	74 7e                	je     2fbe <usb_hid_report_deinit+0xde>
    2f40:	83 eb 18             	sub    $0x18,%ebx
    2f43:	8b 53 18             	mov    0x18(%ebx),%edx
    2f46:	85 d2                	test   %edx,%edx
    2f48:	74 0f                	je     2f59 <usb_hid_report_deinit+0x79>
    2f4a:	8b 43 1c             	mov    0x1c(%ebx),%eax
    2f4d:	85 c0                	test   %eax,%eax
    2f4f:	74 08                	je     2f59 <usb_hid_report_deinit+0x79>
    2f51:	89 10                	mov    %edx,(%eax)
    2f53:	8b 53 18             	mov    0x18(%ebx),%edx
    2f56:	89 42 04             	mov    %eax,0x4(%edx)
    2f59:	8b 43 14             	mov    0x14(%ebx),%eax
    2f5c:	8d 73 10             	lea    0x10(%ebx),%esi
    2f5f:	c7 43 18 00 00 00 00 	movl   $0x0,0x18(%ebx)
    2f66:	c7 43 1c 00 00 00 00 	movl   $0x0,0x1c(%ebx)
    2f6d:	39 f0                	cmp    %esi,%eax
    2f6f:	74 3d                	je     2fae <usb_hid_report_deinit+0xce>
    2f71:	8d b4 26 00 00 00 00 	lea    0x0(%esi,%eiz,1),%esi
    2f78:	83 e8 40             	sub    $0x40,%eax
    2f7b:	8b 48 40             	mov    0x40(%eax),%ecx
    2f7e:	85 c9                	test   %ecx,%ecx
    2f80:	74 0f                	je     2f91 <usb_hid_report_deinit+0xb1>
    2f82:	8b 50 44             	mov    0x44(%eax),%edx
    2f85:	85 d2                	test   %edx,%edx
    2f87:	74 08                	je     2f91 <usb_hid_report_deinit+0xb1>
    2f89:	89 0a                	mov    %ecx,(%edx)
    2f8b:	8b 48 40             	mov    0x40(%eax),%ecx
    2f8e:	89 51 04             	mov    %edx,0x4(%ecx)
    2f91:	c7 40 40 00 00 00 00 	movl   $0x0,0x40(%eax)
    2f98:	c7 40 44 00 00 00 00 	movl   $0x0,0x44(%eax)
    2f9f:	89 04 24             	mov    %eax,(%esp)
    2fa2:	e8 89 87 01 00       	call   1b730 <free>
    2fa7:	8b 43 14             	mov    0x14(%ebx),%eax
    2faa:	39 f0                	cmp    %esi,%eax
    2fac:	75 ca                	jne    2f78 <usb_hid_report_deinit+0x98>
    2fae:	89 1c 24             	mov    %ebx,(%esp)
    2fb1:	e8 7a 87 01 00       	call   1b730 <free>
    2fb6:	8b 5f 08             	mov    0x8(%edi),%ebx
    2fb9:	3b 5d e4             	cmp    -0x1c(%ebp),%ebx
    2fbc:	75 82                	jne    2f40 <usb_hid_report_deinit+0x60>
    2fbe:	83 c4 2c             	add    $0x2c,%esp
    2fc1:	5b                   	pop    %ebx
    2fc2:	5e                   	pop    %esi
    2fc3:	5f                   	pop    %edi
    2fc4:	5d                   	pop    %ebp
    2fc5:	c3                   	ret    
    2fc6:	66 90                	xchg   %ax,%ax
    2fc8:	66 90                	xchg   %ax,%ax
    2fca:	66 90                	xchg   %ax,%ax
    2fcc:	66 90                	xchg   %ax,%ax
    2fce:	66 90                	xchg   %ax,%ax

00002fd0 <usbhid_dev_get_event_length>:
    2fd0:	55                   	push   %ebp
    2fd1:	89 e5                	mov    %esp,%ebp
    2fd3:	56                   	push   %esi
    2fd4:	83 ec 54             	sub    $0x54,%esp
    2fd7:	8b 45 08             	mov    0x8(%ebp),%eax
    2fda:	85 c0                	test   %eax,%eax
    2fdc:	0f 84 8e 00 00 00    	je     3070 <usbhid_dev_get_event_length+0xa0>
    2fe2:	89 04 24             	mov    %eax,(%esp)
    2fe5:	e8 76 bb 01 00       	call   1eb60 <async_exchange_begin>
    2fea:	c7 44 24 28 00 00 00 	movl   $0x0,0x28(%esp)
    2ff1:	00 
    2ff2:	89 c6                	mov    %eax,%esi
    2ff4:	8d 45 f4             	lea    -0xc(%ebp),%eax
    2ff7:	c7 44 24 24 00 00 00 	movl   $0x0,0x24(%esp)
    2ffe:	00 
    2fff:	c7 44 24 20 00 00 00 	movl   $0x0,0x20(%esp)
    3006:	00 
    3007:	c7 44 24 1c 00 00 00 	movl   $0x0,0x1c(%esp)
    300e:	00 
    300f:	89 44 24 18          	mov    %eax,0x18(%esp)
    3013:	c7 44 24 14 00 00 00 	movl   $0x0,0x14(%esp)
    301a:	00 
    301b:	c7 44 24 10 00 00 00 	movl   $0x0,0x10(%esp)
    3022:	00 
    3023:	c7 44 24 0c 00 00 00 	movl   $0x0,0xc(%esp)
    302a:	00 
    302b:	c7 44 24 08 00 00 00 	movl   $0x0,0x8(%esp)
    3032:	00 
    3033:	c7 44 24 04 07 04 00 	movl   $0x407,0x4(%esp)
    303a:	00 
    303b:	89 34 24             	mov    %esi,(%esp)
    303e:	e8 cd aa 01 00       	call   1db10 <async_req_fast>
    3043:	89 34 24             	mov    %esi,(%esp)
    3046:	89 45 e4             	mov    %eax,-0x1c(%ebp)
    3049:	e8 82 be 01 00       	call   1eed0 <async_exchange_end>
    304e:	8b 45 e4             	mov    -0x1c(%ebp),%eax
    3051:	85 c0                	test   %eax,%eax
    3053:	75 0f                	jne    3064 <usbhid_dev_get_event_length+0x94>
    3055:	8b 55 0c             	mov    0xc(%ebp),%edx
    3058:	85 d2                	test   %edx,%edx
    305a:	74 08                	je     3064 <usbhid_dev_get_event_length+0x94>
    305c:	8b 4d 0c             	mov    0xc(%ebp),%ecx
    305f:	8b 55 f4             	mov    -0xc(%ebp),%edx
    3062:	89 11                	mov    %edx,(%ecx)
    3064:	83 c4 54             	add    $0x54,%esp
    3067:	5e                   	pop    %esi
    3068:	5d                   	pop    %ebp
    3069:	c3                   	ret    
    306a:	8d b6 00 00 00 00    	lea    0x0(%esi),%esi
    3070:	b8 f2 ff ff ff       	mov    $0xfffffff2,%eax
    3075:	eb ed                	jmp    3064 <usbhid_dev_get_event_length+0x94>
    3077:	89 f6                	mov    %esi,%esi
    3079:	8d bc 27 00 00 00 00 	lea    0x0(%edi,%eiz,1),%edi

00003080 <usbhid_dev_get_event>:
    3080:	55                   	push   %ebp
    3081:	89 e5                	mov    %esp,%ebp
    3083:	57                   	push   %edi
    3084:	56                   	push   %esi
    3085:	53                   	push   %ebx
    3086:	81 ec 8c 00 00 00    	sub    $0x8c,%esp
    308c:	8b 75 08             	mov    0x8(%ebp),%esi
    308f:	8b 5d 10             	mov    0x10(%ebp),%ebx
    3092:	85 f6                	test   %esi,%esi
    3094:	0f 84 2e 01 00 00    	je     31c8 <usbhid_dev_get_event+0x148>
    309a:	8b 7d 0c             	mov    0xc(%ebp),%edi
    309d:	85 ff                	test   %edi,%edi
    309f:	0f 84 3b 01 00 00    	je     31e0 <usbhid_dev_get_event+0x160>
    30a5:	85 db                	test   %ebx,%ebx
    30a7:	0f 84 1b 01 00 00    	je     31c8 <usbhid_dev_get_event+0x148>
    30ad:	89 1c 24             	mov    %ebx,(%esp)
    30b0:	e8 6b 85 01 00       	call   1b620 <malloc>
    30b5:	89 c7                	mov    %eax,%edi
    30b7:	85 c0                	test   %eax,%eax
    30b9:	0f 84 21 01 00 00    	je     31e0 <usbhid_dev_get_event+0x160>
    30bf:	89 34 24             	mov    %esi,(%esp)
    30c2:	e8 99 ba 01 00       	call   1eb60 <async_exchange_begin>
    30c7:	c7 44 24 14 00 00 00 	movl   $0x0,0x14(%esp)
    30ce:	00 
    30cf:	89 c6                	mov    %eax,%esi
    30d1:	8d 45 a0             	lea    -0x60(%ebp),%eax
    30d4:	89 44 24 18          	mov    %eax,0x18(%esp)
    30d8:	8b 45 1c             	mov    0x1c(%ebp),%eax
    30db:	c7 44 24 10 00 00 00 	movl   $0x0,0x10(%esp)
    30e2:	00 
    30e3:	89 44 24 0c          	mov    %eax,0xc(%esp)
    30e7:	c7 44 24 08 01 00 00 	movl   $0x1,0x8(%esp)
    30ee:	00 
    30ef:	c7 44 24 04 07 04 00 	movl   $0x407,0x4(%esp)
    30f6:	00 
    30f7:	89 34 24             	mov    %esi,(%esp)
    30fa:	e8 01 a4 01 00       	call   1d500 <async_send_fast>
    30ff:	89 45 94             	mov    %eax,-0x6c(%ebp)
    3102:	85 c0                	test   %eax,%eax
    3104:	0f 84 c6 00 00 00    	je     31d0 <usbhid_dev_get_event+0x150>
    310a:	8d 45 c4             	lea    -0x3c(%ebp),%eax
    310d:	89 5c 24 08          	mov    %ebx,0x8(%esp)
    3111:	89 44 24 0c          	mov    %eax,0xc(%esp)
    3115:	89 7c 24 04          	mov    %edi,0x4(%esp)
    3119:	89 34 24             	mov    %esi,(%esp)
    311c:	e8 2f c3 01 00       	call   1f450 <async_data_read>
    3121:	89 34 24             	mov    %esi,(%esp)
    3124:	89 c3                	mov    %eax,%ebx
    3126:	e8 a5 bd 01 00       	call   1eed0 <async_exchange_end>
    312b:	85 db                	test   %ebx,%ebx
    312d:	0f 84 b5 00 00 00    	je     31e8 <usbhid_dev_get_event+0x168>
    3133:	8d 45 98             	lea    -0x68(%ebp),%eax
    3136:	89 1c 24             	mov    %ebx,(%esp)
    3139:	89 44 24 04          	mov    %eax,0x4(%esp)
    313d:	e8 8e a5 01 00       	call   1d6d0 <async_wait_for>
    3142:	8d 45 9c             	lea    -0x64(%ebp),%eax
    3145:	89 44 24 04          	mov    %eax,0x4(%esp)
    3149:	8b 45 94             	mov    -0x6c(%ebp),%eax
    314c:	89 04 24             	mov    %eax,(%esp)
    314f:	e8 7c a5 01 00       	call   1d6d0 <async_wait_for>
    3154:	8b 45 98             	mov    -0x68(%ebp),%eax
    3157:	85 c0                	test   %eax,%eax
    3159:	74 15                	je     3170 <usbhid_dev_get_event+0xf0>
    315b:	8b 55 9c             	mov    -0x64(%ebp),%edx
    315e:	85 d2                	test   %edx,%edx
    3160:	74 15                	je     3177 <usbhid_dev_get_event+0xf7>
    3162:	81 c4 8c 00 00 00    	add    $0x8c,%esp
    3168:	89 d0                	mov    %edx,%eax
    316a:	5b                   	pop    %ebx
    316b:	5e                   	pop    %esi
    316c:	5f                   	pop    %edi
    316d:	5d                   	pop    %ebp
    316e:	c3                   	ret    
    316f:	90                   	nop
    3170:	8b 45 9c             	mov    -0x64(%ebp),%eax
    3173:	85 c0                	test   %eax,%eax
    3175:	74 11                	je     3188 <usbhid_dev_get_event+0x108>
    3177:	81 c4 8c 00 00 00    	add    $0x8c,%esp
    317d:	5b                   	pop    %ebx
    317e:	5e                   	pop    %esi
    317f:	5f                   	pop    %edi
    3180:	5d                   	pop    %ebp
    3181:	c3                   	ret    
    3182:	8d b6 00 00 00 00    	lea    0x0(%esi),%esi
    3188:	8b 5d cc             	mov    -0x34(%ebp),%ebx
    318b:	8b 55 0c             	mov    0xc(%ebp),%edx
    318e:	89 5c 24 08          	mov    %ebx,0x8(%esp)
    3192:	89 7c 24 04          	mov    %edi,0x4(%esp)
    3196:	89 14 24             	mov    %edx,(%esp)
    3199:	e8 f2 a7 00 00       	call   d990 <memcpy>
    319e:	8b 75 14             	mov    0x14(%ebp),%esi
    31a1:	85 f6                	test   %esi,%esi
    31a3:	74 05                	je     31aa <usbhid_dev_get_event+0x12a>
    31a5:	8b 45 14             	mov    0x14(%ebp),%eax
    31a8:	89 18                	mov    %ebx,(%eax)
    31aa:	8b 4d 18             	mov    0x18(%ebp),%ecx
    31ad:	85 c9                	test   %ecx,%ecx
    31af:	74 57                	je     3208 <usbhid_dev_get_event+0x188>
    31b1:	8b 55 18             	mov    0x18(%ebp),%edx
    31b4:	8b 45 a4             	mov    -0x5c(%ebp),%eax
    31b7:	89 02                	mov    %eax,(%edx)
    31b9:	81 c4 8c 00 00 00    	add    $0x8c,%esp
    31bf:	31 c0                	xor    %eax,%eax
    31c1:	5b                   	pop    %ebx
    31c2:	5e                   	pop    %esi
    31c3:	5f                   	pop    %edi
    31c4:	5d                   	pop    %ebp
    31c5:	c3                   	ret    
    31c6:	66 90                	xchg   %ax,%ax
    31c8:	b8 f2 ff ff ff       	mov    $0xfffffff2,%eax
    31cd:	eb a8                	jmp    3177 <usbhid_dev_get_event+0xf7>
    31cf:	90                   	nop
    31d0:	89 34 24             	mov    %esi,(%esp)
    31d3:	e8 f8 bc 01 00       	call   1eed0 <async_exchange_end>
    31d8:	89 3c 24             	mov    %edi,(%esp)
    31db:	e8 50 85 01 00       	call   1b730 <free>
    31e0:	b8 fe ff ff ff       	mov    $0xfffffffe,%eax
    31e5:	eb 90                	jmp    3177 <usbhid_dev_get_event+0xf7>
    31e7:	90                   	nop
    31e8:	8b 45 94             	mov    -0x6c(%ebp),%eax
    31eb:	89 04 24             	mov    %eax,(%esp)
    31ee:	e8 2d a7 01 00       	call   1d920 <async_forget>
    31f3:	89 3c 24             	mov    %edi,(%esp)
    31f6:	e8 35 85 01 00       	call   1b730 <free>
    31fb:	b8 fe ff ff ff       	mov    $0xfffffffe,%eax
    3200:	e9 72 ff ff ff       	jmp    3177 <usbhid_dev_get_event+0xf7>
    3205:	8d 76 00             	lea    0x0(%esi),%esi
    3208:	31 c0                	xor    %eax,%eax
    320a:	e9 68 ff ff ff       	jmp    3177 <usbhid_dev_get_event+0xf7>
    320f:	90                   	nop

00003210 <usbhid_dev_get_report_descriptor_length>:
    3210:	55                   	push   %ebp
    3211:	89 e5                	mov    %esp,%ebp
    3213:	56                   	push   %esi
    3214:	83 ec 54             	sub    $0x54,%esp
    3217:	8b 45 08             	mov    0x8(%ebp),%eax
    321a:	85 c0                	test   %eax,%eax
    321c:	0f 84 8e 00 00 00    	je     32b0 <usbhid_dev_get_report_descriptor_length+0xa0>
    3222:	89 04 24             	mov    %eax,(%esp)
    3225:	e8 36 b9 01 00       	call   1eb60 <async_exchange_begin>
    322a:	c7 44 24 28 00 00 00 	movl   $0x0,0x28(%esp)
    3231:	00 
    3232:	89 c6                	mov    %eax,%esi
    3234:	8d 45 f4             	lea    -0xc(%ebp),%eax
    3237:	c7 44 24 24 00 00 00 	movl   $0x0,0x24(%esp)
    323e:	00 
    323f:	c7 44 24 20 00 00 00 	movl   $0x0,0x20(%esp)
    3246:	00 
    3247:	c7 44 24 1c 00 00 00 	movl   $0x0,0x1c(%esp)
    324e:	00 
    324f:	89 44 24 18          	mov    %eax,0x18(%esp)
    3253:	c7 44 24 14 00 00 00 	movl   $0x0,0x14(%esp)
    325a:	00 
    325b:	c7 44 24 10 00 00 00 	movl   $0x0,0x10(%esp)
    3262:	00 
    3263:	c7 44 24 0c 00 00 00 	movl   $0x0,0xc(%esp)
    326a:	00 
    326b:	c7 44 24 08 02 00 00 	movl   $0x2,0x8(%esp)
    3272:	00 
    3273:	c7 44 24 04 07 04 00 	movl   $0x407,0x4(%esp)
    327a:	00 
    327b:	89 34 24             	mov    %esi,(%esp)
    327e:	e8 8d a8 01 00       	call   1db10 <async_req_fast>
    3283:	89 34 24             	mov    %esi,(%esp)
    3286:	89 45 e4             	mov    %eax,-0x1c(%ebp)
    3289:	e8 42 bc 01 00       	call   1eed0 <async_exchange_end>
    328e:	8b 45 e4             	mov    -0x1c(%ebp),%eax
    3291:	85 c0                	test   %eax,%eax
    3293:	75 0f                	jne    32a4 <usbhid_dev_get_report_descriptor_length+0x94>
    3295:	8b 55 0c             	mov    0xc(%ebp),%edx
    3298:	85 d2                	test   %edx,%edx
    329a:	74 08                	je     32a4 <usbhid_dev_get_report_descriptor_length+0x94>
    329c:	8b 4d 0c             	mov    0xc(%ebp),%ecx
    329f:	8b 55 f4             	mov    -0xc(%ebp),%edx
    32a2:	89 11                	mov    %edx,(%ecx)
    32a4:	83 c4 54             	add    $0x54,%esp
    32a7:	5e                   	pop    %esi
    32a8:	5d                   	pop    %ebp
    32a9:	c3                   	ret    
    32aa:	8d b6 00 00 00 00    	lea    0x0(%esi),%esi
    32b0:	b8 f2 ff ff ff       	mov    $0xfffffff2,%eax
    32b5:	eb ed                	jmp    32a4 <usbhid_dev_get_report_descriptor_length+0x94>
    32b7:	89 f6                	mov    %esi,%esi
    32b9:	8d bc 27 00 00 00 00 	lea    0x0(%edi,%eiz,1),%edi

000032c0 <usbhid_dev_get_report_descriptor>:
    32c0:	55                   	push   %ebp
    32c1:	89 e5                	mov    %esp,%ebp
    32c3:	57                   	push   %edi
    32c4:	56                   	push   %esi
    32c5:	53                   	push   %ebx
    32c6:	83 ec 5c             	sub    $0x5c,%esp
    32c9:	8b 45 08             	mov    0x8(%ebp),%eax
    32cc:	8b 5d 0c             	mov    0xc(%ebp),%ebx
    32cf:	85 c0                	test   %eax,%eax
    32d1:	0f 84 e9 00 00 00    	je     33c0 <usbhid_dev_get_report_descriptor+0x100>
    32d7:	85 db                	test   %ebx,%ebx
    32d9:	0f 84 0d 01 00 00    	je     33ec <usbhid_dev_get_report_descriptor+0x12c>
    32df:	8b 75 10             	mov    0x10(%ebp),%esi
    32e2:	85 f6                	test   %esi,%esi
    32e4:	0f 84 d6 00 00 00    	je     33c0 <usbhid_dev_get_report_descriptor+0x100>
    32ea:	89 04 24             	mov    %eax,(%esp)
    32ed:	e8 6e b8 01 00       	call   1eb60 <async_exchange_begin>
    32f2:	c7 44 24 18 00 00 00 	movl   $0x0,0x18(%esp)
    32f9:	00 
    32fa:	c7 44 24 14 00 00 00 	movl   $0x0,0x14(%esp)
    3301:	00 
    3302:	c7 44 24 10 00 00 00 	movl   $0x0,0x10(%esp)
    3309:	00 
    330a:	c7 44 24 0c 00 00 00 	movl   $0x0,0xc(%esp)
    3311:	00 
    3312:	c7 44 24 08 03 00 00 	movl   $0x3,0x8(%esp)
    3319:	00 
    331a:	c7 44 24 04 07 04 00 	movl   $0x407,0x4(%esp)
    3321:	00 
    3322:	89 04 24             	mov    %eax,(%esp)
    3325:	89 c6                	mov    %eax,%esi
    3327:	e8 d4 a1 01 00       	call   1d500 <async_send_fast>
    332c:	89 c7                	mov    %eax,%edi
    332e:	85 c0                	test   %eax,%eax
    3330:	0f 84 92 00 00 00    	je     33c8 <usbhid_dev_get_report_descriptor+0x108>
    3336:	8b 55 10             	mov    0x10(%ebp),%edx
    3339:	8d 45 c4             	lea    -0x3c(%ebp),%eax
    333c:	89 54 24 08          	mov    %edx,0x8(%esp)
    3340:	89 5c 24 04          	mov    %ebx,0x4(%esp)
    3344:	89 44 24 0c          	mov    %eax,0xc(%esp)
    3348:	89 34 24             	mov    %esi,(%esp)
    334b:	e8 00 c1 01 00       	call   1f450 <async_data_read>
    3350:	89 34 24             	mov    %esi,(%esp)
    3353:	89 c3                	mov    %eax,%ebx
    3355:	e8 76 bb 01 00       	call   1eed0 <async_exchange_end>
    335a:	85 db                	test   %ebx,%ebx
    335c:	74 7a                	je     33d8 <usbhid_dev_get_report_descriptor+0x118>
    335e:	8d 45 bc             	lea    -0x44(%ebp),%eax
    3361:	89 1c 24             	mov    %ebx,(%esp)
    3364:	89 44 24 04          	mov    %eax,0x4(%esp)
    3368:	e8 63 a3 01 00       	call   1d6d0 <async_wait_for>
    336d:	8d 45 c0             	lea    -0x40(%ebp),%eax
    3370:	89 44 24 04          	mov    %eax,0x4(%esp)
    3374:	89 3c 24             	mov    %edi,(%esp)
    3377:	e8 54 a3 01 00       	call   1d6d0 <async_wait_for>
    337c:	8b 45 bc             	mov    -0x44(%ebp),%eax
    337f:	85 c0                	test   %eax,%eax
    3381:	75 25                	jne    33a8 <usbhid_dev_get_report_descriptor+0xe8>
    3383:	8b 45 c0             	mov    -0x40(%ebp),%eax
    3386:	85 c0                	test   %eax,%eax
    3388:	75 11                	jne    339b <usbhid_dev_get_report_descriptor+0xdb>
    338a:	8b 4d 14             	mov    0x14(%ebp),%ecx
    338d:	8b 45 cc             	mov    -0x34(%ebp),%eax
    3390:	85 c9                	test   %ecx,%ecx
    3392:	74 54                	je     33e8 <usbhid_dev_get_report_descriptor+0x128>
    3394:	8b 55 14             	mov    0x14(%ebp),%edx
    3397:	89 02                	mov    %eax,(%edx)
    3399:	31 c0                	xor    %eax,%eax
    339b:	83 c4 5c             	add    $0x5c,%esp
    339e:	5b                   	pop    %ebx
    339f:	5e                   	pop    %esi
    33a0:	5f                   	pop    %edi
    33a1:	5d                   	pop    %ebp
    33a2:	c3                   	ret    
    33a3:	90                   	nop
    33a4:	8d 74 26 00          	lea    0x0(%esi,%eiz,1),%esi
    33a8:	8b 55 c0             	mov    -0x40(%ebp),%edx
    33ab:	85 d2                	test   %edx,%edx
    33ad:	74 ec                	je     339b <usbhid_dev_get_report_descriptor+0xdb>
    33af:	83 c4 5c             	add    $0x5c,%esp
    33b2:	89 d0                	mov    %edx,%eax
    33b4:	5b                   	pop    %ebx
    33b5:	5e                   	pop    %esi
    33b6:	5f                   	pop    %edi
    33b7:	5d                   	pop    %ebp
    33b8:	c3                   	ret    
    33b9:	8d b4 26 00 00 00 00 	lea    0x0(%esi,%eiz,1),%esi
    33c0:	b8 f2 ff ff ff       	mov    $0xfffffff2,%eax
    33c5:	eb d4                	jmp    339b <usbhid_dev_get_report_descriptor+0xdb>
    33c7:	90                   	nop
    33c8:	89 34 24             	mov    %esi,(%esp)
    33cb:	e8 00 bb 01 00       	call   1eed0 <async_exchange_end>
    33d0:	b8 fe ff ff ff       	mov    $0xfffffffe,%eax
    33d5:	eb c4                	jmp    339b <usbhid_dev_get_report_descriptor+0xdb>
    33d7:	90                   	nop
    33d8:	89 3c 24             	mov    %edi,(%esp)
    33db:	e8 40 a5 01 00       	call   1d920 <async_forget>
    33e0:	b8 fe ff ff ff       	mov    $0xfffffffe,%eax
    33e5:	eb b4                	jmp    339b <usbhid_dev_get_report_descriptor+0xdb>
    33e7:	90                   	nop
    33e8:	31 c0                	xor    %eax,%eax
    33ea:	eb af                	jmp    339b <usbhid_dev_get_report_descriptor+0xdb>
    33ec:	b8 fe ff ff ff       	mov    $0xfffffffe,%eax
    33f1:	eb a8                	jmp    339b <usbhid_dev_get_report_descriptor+0xdb>
    33f3:	66 90                	xchg   %ax,%ax
    33f5:	66 90                	xchg   %ax,%ax
    33f7:	66 90                	xchg   %ax,%ax
    33f9:	66 90                	xchg   %ax,%ax
    33fb:	66 90                	xchg   %ax,%ax
    33fd:	66 90                	xchg   %ax,%ax
    33ff:	90                   	nop

00003400 <usb_hid_report_size>:
    3400:	55                   	push   %ebp
    3401:	89 e5                	mov    %esp,%ebp
    3403:	83 ec 18             	sub    $0x18,%esp
    3406:	8b 45 08             	mov    0x8(%ebp),%eax
    3409:	8a 55 0c             	mov    0xc(%ebp),%dl
    340c:	85 c0                	test   %eax,%eax
    340e:	74 28                	je     3438 <usb_hid_report_size+0x38>
    3410:	81 e2 ff 00 00 00    	and    $0xff,%edx
    3416:	8b 4d 10             	mov    0x10(%ebp),%ecx
    3419:	89 4c 24 08          	mov    %ecx,0x8(%esp)
    341d:	89 54 24 04          	mov    %edx,0x4(%esp)
    3421:	89 04 24             	mov    %eax,(%esp)
    3424:	e8 37 e7 ff ff       	call   1b60 <usb_hid_report_find_description>
    3429:	85 c0                	test   %eax,%eax
    342b:	74 0b                	je     3438 <usb_hid_report_size+0x38>
    342d:	8b 40 0c             	mov    0xc(%eax),%eax
    3430:	c9                   	leave  
    3431:	c3                   	ret    
    3432:	8d b6 00 00 00 00    	lea    0x0(%esi),%esi
    3438:	31 c0                	xor    %eax,%eax
    343a:	c9                   	leave  
    343b:	c3                   	ret    
    343c:	8d 74 26 00          	lea    0x0(%esi,%eiz,1),%esi

00003440 <usb_hid_report_byte_size>:
    3440:	55                   	push   %ebp
    3441:	89 e5                	mov    %esp,%ebp
    3443:	83 ec 18             	sub    $0x18,%esp
    3446:	8b 45 08             	mov    0x8(%ebp),%eax
    3449:	8a 55 0c             	mov    0xc(%ebp),%dl
    344c:	85 c0                	test   %eax,%eax
    344e:	74 28                	je     3478 <usb_hid_report_byte_size+0x38>
    3450:	81 e2 ff 00 00 00    	and    $0xff,%edx
    3456:	8b 4d 10             	mov    0x10(%ebp),%ecx
    3459:	89 4c 24 08          	mov    %ecx,0x8(%esp)
    345d:	89 54 24 04          	mov    %edx,0x4(%esp)
    3461:	89 04 24             	mov    %eax,(%esp)
    3464:	e8 f7 e6 ff ff       	call   1b60 <usb_hid_report_find_description>
    3469:	85 c0                	test   %eax,%eax
    346b:	74 0b                	je     3478 <usb_hid_report_byte_size+0x38>
    346d:	8b 40 08             	mov    0x8(%eax),%eax
    3470:	c9                   	leave  
    3471:	83 c0 07             	add    $0x7,%eax
    3474:	c1 e8 03             	shr    $0x3,%eax
    3477:	c3                   	ret    
    3478:	31 c0                	xor    %eax,%eax
    347a:	c9                   	leave  
    347b:	c3                   	ret    
    347c:	8d 74 26 00          	lea    0x0(%esi,%eiz,1),%esi

00003480 <usb_hid_translate_data>:
    3480:	55                   	push   %ebp
    3481:	31 c0                	xor    %eax,%eax
    3483:	89 e5                	mov    %esp,%ebp
    3485:	57                   	push   %edi
    3486:	56                   	push   %esi
    3487:	53                   	push   %ebx
    3488:	83 ec 30             	sub    $0x30,%esp
    348b:	8b 5d 08             	mov    0x8(%ebp),%ebx
    348e:	8b 5b 04             	mov    0x4(%ebx),%ebx
    3491:	89 5d ec             	mov    %ebx,-0x14(%ebp)
    3494:	83 fb 20             	cmp    $0x20,%ebx
    3497:	0f 87 3e 01 00 00    	ja     35db <usb_hid_translate_data+0x15b>
    349d:	8b 7d 08             	mov    0x8(%ebp),%edi
    34a0:	8b 7f 1c             	mov    0x1c(%edi),%edi
    34a3:	89 7d e8             	mov    %edi,-0x18(%ebp)
    34a6:	85 ff                	test   %edi,%edi
    34a8:	0f 84 3a 01 00 00    	je     35e8 <usb_hid_translate_data+0x168>
    34ae:	8b 5d 08             	mov    0x8(%ebp),%ebx
    34b1:	8b 7d 08             	mov    0x8(%ebp),%edi
    34b4:	8b 5b 14             	mov    0x14(%ebx),%ebx
    34b7:	89 5d e0             	mov    %ebx,-0x20(%ebp)
    34ba:	8b 5f 20             	mov    0x20(%edi),%ebx
    34bd:	3b 5d e8             	cmp    -0x18(%ebp),%ebx
    34c0:	0f 84 4e 01 00 00    	je     3614 <usb_hid_translate_data+0x194>
    34c6:	8b 7d 08             	mov    0x8(%ebp),%edi
    34c9:	8b 55 e8             	mov    -0x18(%ebp),%edx
    34cc:	8b 75 e0             	mov    -0x20(%ebp),%esi
    34cf:	29 d3                	sub    %edx,%ebx
    34d1:	8b 47 18             	mov    0x18(%edi),%eax
    34d4:	8b 57 30             	mov    0x30(%edi),%edx
    34d7:	29 f0                	sub    %esi,%eax
    34d9:	b9 01 00 00 00       	mov    $0x1,%ecx
    34de:	85 d2                	test   %edx,%edx
    34e0:	0f 85 72 01 00 00    	jne    3658 <usb_hid_translate_data+0x1d8>
    34e6:	ba 01 00 00 00       	mov    $0x1,%edx
    34eb:	0f af ca             	imul   %edx,%ecx
    34ee:	0f af d9             	imul   %ecx,%ebx
    34f1:	89 c2                	mov    %eax,%edx
    34f3:	c1 fa 1f             	sar    $0x1f,%edx
    34f6:	f7 fb                	idiv   %ebx
    34f8:	89 45 d8             	mov    %eax,-0x28(%ebp)
    34fb:	8b 5d 08             	mov    0x8(%ebp),%ebx
    34fe:	8b 0b                	mov    (%ebx),%ecx
    3500:	8b 5d ec             	mov    -0x14(%ebp),%ebx
    3503:	89 ca                	mov    %ecx,%edx
    3505:	4b                   	dec    %ebx
    3506:	c1 fa 1f             	sar    $0x1f,%edx
    3509:	89 5d d0             	mov    %ebx,-0x30(%ebp)
    350c:	c1 ea 1d             	shr    $0x1d,%edx
    350f:	8d 04 0a             	lea    (%edx,%ecx,1),%eax
    3512:	89 c7                	mov    %eax,%edi
    3514:	c1 ff 03             	sar    $0x3,%edi
    3517:	89 7d f0             	mov    %edi,-0x10(%ebp)
    351a:	89 df                	mov    %ebx,%edi
    351c:	01 cf                	add    %ecx,%edi
    351e:	c1 ef 03             	shr    $0x3,%edi
    3521:	39 7d f0             	cmp    %edi,-0x10(%ebp)
    3524:	0f 84 86 01 00 00    	je     36b0 <usb_hid_translate_data+0x230>
    352a:	0f 87 b4 01 00 00    	ja     36e4 <usb_hid_translate_data+0x264>
    3530:	be 08 00 00 00       	mov    $0x8,%esi
    3535:	83 e0 07             	and    $0x7,%eax
    3538:	29 d0                	sub    %edx,%eax
    353a:	89 f2                	mov    %esi,%edx
    353c:	29 c2                	sub    %eax,%edx
    353e:	8b 4d ec             	mov    -0x14(%ebp),%ecx
    3541:	29 d1                	sub    %edx,%ecx
    3543:	b8 01 00 00 00       	mov    $0x1,%eax
    3548:	d3 e0                	shl    %cl,%eax
    354a:	8b 4d ec             	mov    -0x14(%ebp),%ecx
    354d:	48                   	dec    %eax
    354e:	29 ce                	sub    %ecx,%esi
    3550:	89 55 dc             	mov    %edx,-0x24(%ebp)
    3553:	89 45 d4             	mov    %eax,-0x2c(%ebp)
    3556:	8b 55 f0             	mov    -0x10(%ebp),%edx
    3559:	31 c0                	xor    %eax,%eax
    355b:	31 db                	xor    %ebx,%ebx
    355d:	89 75 cc             	mov    %esi,-0x34(%ebp)
    3560:	89 7d c4             	mov    %edi,-0x3c(%ebp)
    3563:	eb 29                	jmp    358e <usb_hid_translate_data+0x10e>
    3565:	8d 76 00             	lea    0x0(%esi),%esi
    3568:	3b 55 c4             	cmp    -0x3c(%ebp),%edx
    356b:	0f 84 af 00 00 00    	je     3620 <usb_hid_translate_data+0x1a0>
    3571:	8b 7d 0c             	mov    0xc(%ebp),%edi
    3574:	83 c3 08             	add    $0x8,%ebx
    3577:	8a 4f 01             	mov    0x1(%edi),%cl
    357a:	81 e1 ff 00 00 00    	and    $0xff,%ecx
    3580:	89 ce                	mov    %ecx,%esi
    3582:	88 d9                	mov    %bl,%cl
    3584:	d3 e6                	shl    %cl,%esi
    3586:	01 f0                	add    %esi,%eax
    3588:	42                   	inc    %edx
    3589:	39 55 c4             	cmp    %edx,-0x3c(%ebp)
    358c:	72 22                	jb     35b0 <usb_hid_translate_data+0x130>
    358e:	3b 55 f0             	cmp    -0x10(%ebp),%edx
    3591:	75 d5                	jne    3568 <usb_hid_translate_data+0xe8>
    3593:	8b 5d 0c             	mov    0xc(%ebp),%ebx
    3596:	31 c0                	xor    %eax,%eax
    3598:	8b 4d d4             	mov    -0x2c(%ebp),%ecx
    359b:	8a 04 13             	mov    (%ebx,%edx,1),%al
    359e:	42                   	inc    %edx
    359f:	21 c8                	and    %ecx,%eax
    35a1:	8b 5d dc             	mov    -0x24(%ebp),%ebx
    35a4:	39 55 c4             	cmp    %edx,-0x3c(%ebp)
    35a7:	73 e5                	jae    358e <usb_hid_translate_data+0x10e>
    35a9:	8d b4 26 00 00 00 00 	lea    0x0(%esi,%eiz,1),%esi
    35b0:	8b 75 e0             	mov    -0x20(%ebp),%esi
    35b3:	85 f6                	test   %esi,%esi
    35b5:	0f 88 ad 00 00 00    	js     3668 <usb_hid_translate_data+0x1e8>
    35bb:	8b 5d 08             	mov    0x8(%ebp),%ebx
    35be:	8b 5b 18             	mov    0x18(%ebx),%ebx
    35c1:	85 db                	test   %ebx,%ebx
    35c3:	0f 88 9f 00 00 00    	js     3668 <usb_hid_translate_data+0x1e8>
    35c9:	8b 55 e0             	mov    -0x20(%ebp),%edx
    35cc:	8b 4d e8             	mov    -0x18(%ebp),%ecx
    35cf:	29 d0                	sub    %edx,%eax
    35d1:	89 c2                	mov    %eax,%edx
    35d3:	c1 fa 1f             	sar    $0x1f,%edx
    35d6:	f7 7d d8             	idivl  -0x28(%ebp)
    35d9:	01 c8                	add    %ecx,%eax
    35db:	83 c4 30             	add    $0x30,%esp
    35de:	5b                   	pop    %ebx
    35df:	5e                   	pop    %esi
    35e0:	5f                   	pop    %edi
    35e1:	5d                   	pop    %ebp
    35e2:	c3                   	ret    
    35e3:	90                   	nop
    35e4:	8d 74 26 00          	lea    0x0(%esi,%eiz,1),%esi
    35e8:	8b 7d 08             	mov    0x8(%ebp),%edi
    35eb:	8b 5f 20             	mov    0x20(%edi),%ebx
    35ee:	85 db                	test   %ebx,%ebx
    35f0:	0f 85 aa 00 00 00    	jne    36a0 <usb_hid_translate_data+0x220>
    35f6:	8b 5f 14             	mov    0x14(%edi),%ebx
    35f9:	89 5d e0             	mov    %ebx,-0x20(%ebp)
    35fc:	89 5f 1c             	mov    %ebx,0x1c(%edi)
    35ff:	8b 5f 18             	mov    0x18(%edi),%ebx
    3602:	89 5f 20             	mov    %ebx,0x20(%edi)
    3605:	8b 7d e0             	mov    -0x20(%ebp),%edi
    3608:	89 7d e8             	mov    %edi,-0x18(%ebp)
    360b:	3b 5d e8             	cmp    -0x18(%ebp),%ebx
    360e:	0f 85 b2 fe ff ff    	jne    34c6 <usb_hid_translate_data+0x46>
    3614:	c7 45 d8 01 00 00 00 	movl   $0x1,-0x28(%ebp)
    361b:	e9 db fe ff ff       	jmp    34fb <usb_hid_translate_data+0x7b>
    3620:	8b 7d cc             	mov    -0x34(%ebp),%edi
    3623:	8b 4d ec             	mov    -0x14(%ebp),%ecx
    3626:	01 df                	add    %ebx,%edi
    3628:	29 d9                	sub    %ebx,%ecx
    362a:	be 01 00 00 00       	mov    $0x1,%esi
    362f:	89 7d e4             	mov    %edi,-0x1c(%ebp)
    3632:	d3 e6                	shl    %cl,%esi
    3634:	4e                   	dec    %esi
    3635:	8a 4d e4             	mov    -0x1c(%ebp),%cl
    3638:	8b 7d 0c             	mov    0xc(%ebp),%edi
    363b:	d3 e6                	shl    %cl,%esi
    363d:	31 c9                	xor    %ecx,%ecx
    363f:	8a 0c 17             	mov    (%edi,%edx,1),%cl
    3642:	21 ce                	and    %ecx,%esi
    3644:	8a 4d e4             	mov    -0x1c(%ebp),%cl
    3647:	d3 fe                	sar    %cl,%esi
    3649:	88 d9                	mov    %bl,%cl
    364b:	d3 e6                	shl    %cl,%esi
    364d:	01 f0                	add    %esi,%eax
    364f:	e9 34 ff ff ff       	jmp    3588 <usb_hid_translate_data+0x108>
    3654:	8d 74 26 00          	lea    0x0(%esi,%eiz,1),%esi
    3658:	83 fa 01             	cmp    $0x1,%edx
    365b:	74 33                	je     3690 <usb_hid_translate_data+0x210>
    365d:	8d 0c 89             	lea    (%ecx,%ecx,4),%ecx
    3660:	4a                   	dec    %edx
    3661:	01 c9                	add    %ecx,%ecx
    3663:	e9 76 fe ff ff       	jmp    34de <usb_hid_translate_data+0x5e>
    3668:	89 c2                	mov    %eax,%edx
    366a:	8a 4d d0             	mov    -0x30(%ebp),%cl
    366d:	d3 fa                	sar    %cl,%edx
    366f:	83 e2 01             	and    $0x1,%edx
    3672:	0f 84 51 ff ff ff    	je     35c9 <usb_hid_translate_data+0x149>
    3678:	ba 01 00 00 00       	mov    $0x1,%edx
    367d:	8a 4d ec             	mov    -0x14(%ebp),%cl
    3680:	d3 e2                	shl    %cl,%edx
    3682:	f7 d8                	neg    %eax
    3684:	4a                   	dec    %edx
    3685:	21 d0                	and    %edx,%eax
    3687:	f7 d8                	neg    %eax
    3689:	e9 3b ff ff ff       	jmp    35c9 <usb_hid_translate_data+0x149>
    368e:	66 90                	xchg   %ax,%ax
    3690:	ba 0a 00 00 00       	mov    $0xa,%edx
    3695:	e9 51 fe ff ff       	jmp    34eb <usb_hid_translate_data+0x6b>
    369a:	8d b6 00 00 00 00    	lea    0x0(%esi),%esi
    36a0:	8b 7f 14             	mov    0x14(%edi),%edi
    36a3:	89 7d e0             	mov    %edi,-0x20(%ebp)
    36a6:	e9 1b fe ff ff       	jmp    34c6 <usb_hid_translate_data+0x46>
    36ab:	90                   	nop
    36ac:	8d 74 26 00          	lea    0x0(%esi,%eiz,1),%esi
    36b0:	8b 7d ec             	mov    -0x14(%ebp),%edi
    36b3:	bb 08 00 00 00       	mov    $0x8,%ebx
    36b8:	83 e0 07             	and    $0x7,%eax
    36bb:	29 fb                	sub    %edi,%ebx
    36bd:	29 d0                	sub    %edx,%eax
    36bf:	8b 7d f0             	mov    -0x10(%ebp),%edi
    36c2:	8b 55 0c             	mov    0xc(%ebp),%edx
    36c5:	29 c3                	sub    %eax,%ebx
    36c7:	31 c0                	xor    %eax,%eax
    36c9:	8a 4d ec             	mov    -0x14(%ebp),%cl
    36cc:	8a 04 3a             	mov    (%edx,%edi,1),%al
    36cf:	ba 01 00 00 00       	mov    $0x1,%edx
    36d4:	d3 e2                	shl    %cl,%edx
    36d6:	4a                   	dec    %edx
    36d7:	88 d9                	mov    %bl,%cl
    36d9:	d3 e2                	shl    %cl,%edx
    36db:	21 d0                	and    %edx,%eax
    36dd:	d3 f8                	sar    %cl,%eax
    36df:	e9 cc fe ff ff       	jmp    35b0 <usb_hid_translate_data+0x130>
    36e4:	31 c0                	xor    %eax,%eax
    36e6:	e9 c5 fe ff ff       	jmp    35b0 <usb_hid_translate_data+0x130>
    36eb:	90                   	nop
    36ec:	8d 74 26 00          	lea    0x0(%esi,%eiz,1),%esi

000036f0 <usb_hid_parse_report>:
    36f0:	55                   	push   %ebp
    36f1:	89 e5                	mov    %esp,%ebp
    36f3:	57                   	push   %edi
    36f4:	56                   	push   %esi
    36f5:	53                   	push   %ebx
    36f6:	83 ec 1c             	sub    $0x1c,%esp
    36f9:	8b 45 08             	mov    0x8(%ebp),%eax
    36fc:	85 c0                	test   %eax,%eax
    36fe:	0f 84 f2 00 00 00    	je     37f6 <usb_hid_parse_report+0x106>
    3704:	8b 58 18             	mov    0x18(%eax),%ebx
    3707:	85 db                	test   %ebx,%ebx
    3709:	0f 85 d9 00 00 00    	jne    37e8 <usb_hid_parse_report+0xf8>
    370f:	31 c9                	xor    %ecx,%ecx
    3711:	31 d2                	xor    %edx,%edx
    3713:	8b 5d 14             	mov    0x14(%ebp),%ebx
    3716:	88 13                	mov    %dl,(%ebx)
    3718:	c7 44 24 08 01 00 00 	movl   $0x1,0x8(%esp)
    371f:	00 
    3720:	89 4c 24 04          	mov    %ecx,0x4(%esp)
    3724:	89 04 24             	mov    %eax,(%esp)
    3727:	e8 34 e4 ff ff       	call   1b60 <usb_hid_report_find_description>
    372c:	85 c0                	test   %eax,%eax
    372e:	0f 84 c2 00 00 00    	je     37f6 <usb_hid_parse_report+0x106>
    3734:	8b 78 14             	mov    0x14(%eax),%edi
    3737:	8d 70 10             	lea    0x10(%eax),%esi
    373a:	39 f7                	cmp    %esi,%edi
    373c:	75 75                	jne    37b3 <usb_hid_parse_report+0xc3>
    373e:	e9 97 00 00 00       	jmp    37da <usb_hid_parse_report+0xea>
    3743:	90                   	nop
    3744:	8d 74 26 00          	lea    0x0(%esi,%eiz,1),%esi
    3748:	8b 55 0c             	mov    0xc(%ebp),%edx
    374b:	89 1c 24             	mov    %ebx,(%esp)
    374e:	89 54 24 04          	mov    %edx,0x4(%esp)
    3752:	e8 29 fd ff ff       	call   3480 <usb_hid_translate_data>
    3757:	8b 4b 1c             	mov    0x1c(%ebx),%ecx
    375a:	89 43 3c             	mov    %eax,0x3c(%ebx)
    375d:	29 c8                	sub    %ecx,%eax
    375f:	8b 4b 34             	mov    0x34(%ebx),%ecx
    3762:	8b 04 81             	mov    (%ecx,%eax,4),%eax
    3765:	66 89 43 0a          	mov    %ax,0xa(%ebx)
    3769:	c1 e8 10             	shr    $0x10,%eax
    376c:	66 89 43 08          	mov    %ax,0x8(%ebx)
    3770:	25 ff ff 00 00       	and    $0xffff,%eax
    3775:	89 44 24 08          	mov    %eax,0x8(%esp)
    3779:	c7 44 24 04 01 00 00 	movl   $0x1,0x4(%esp)
    3780:	00 
    3781:	8b 43 10             	mov    0x10(%ebx),%eax
    3784:	89 04 24             	mov    %eax,(%esp)
    3787:	e8 b4 07 00 00       	call   3f40 <usb_hid_report_set_last_item>
    378c:	66 8b 43 0a          	mov    0xa(%ebx),%ax
    3790:	25 ff ff 00 00       	and    $0xffff,%eax
    3795:	c7 44 24 04 02 00 00 	movl   $0x2,0x4(%esp)
    379c:	00 
    379d:	89 44 24 08          	mov    %eax,0x8(%esp)
    37a1:	8b 43 10             	mov    0x10(%ebx),%eax
    37a4:	89 04 24             	mov    %eax,(%esp)
    37a7:	e8 94 07 00 00       	call   3f40 <usb_hid_report_set_last_item>
    37ac:	8b 7f 04             	mov    0x4(%edi),%edi
    37af:	39 f7                	cmp    %esi,%edi
    37b1:	74 27                	je     37da <usb_hid_parse_report+0xea>
    37b3:	8d 5f c0             	lea    -0x40(%edi),%ebx
    37b6:	8a 43 0c             	mov    0xc(%ebx),%al
    37b9:	a8 01                	test   $0x1,%al
    37bb:	75 ef                	jne    37ac <usb_hid_parse_report+0xbc>
    37bd:	a8 02                	test   $0x2,%al
    37bf:	74 87                	je     3748 <usb_hid_parse_report+0x58>
    37c1:	8b 4d 0c             	mov    0xc(%ebp),%ecx
    37c4:	89 1c 24             	mov    %ebx,(%esp)
    37c7:	89 4c 24 04          	mov    %ecx,0x4(%esp)
    37cb:	e8 b0 fc ff ff       	call   3480 <usb_hid_translate_data>
    37d0:	8b 7f 04             	mov    0x4(%edi),%edi
    37d3:	89 43 3c             	mov    %eax,0x3c(%ebx)
    37d6:	39 f7                	cmp    %esi,%edi
    37d8:	75 d9                	jne    37b3 <usb_hid_parse_report+0xc3>
    37da:	31 c0                	xor    %eax,%eax
    37dc:	83 c4 1c             	add    $0x1c,%esp
    37df:	5b                   	pop    %ebx
    37e0:	5e                   	pop    %esi
    37e1:	5f                   	pop    %edi
    37e2:	5d                   	pop    %ebp
    37e3:	c3                   	ret    
    37e4:	8d 74 26 00          	lea    0x0(%esi,%eiz,1),%esi
    37e8:	8b 4d 0c             	mov    0xc(%ebp),%ecx
    37eb:	8a 11                	mov    (%ecx),%dl
    37ed:	31 c9                	xor    %ecx,%ecx
    37ef:	88 d1                	mov    %dl,%cl
    37f1:	e9 1d ff ff ff       	jmp    3713 <usb_hid_parse_report+0x23>
    37f6:	b8 f2 ff ff ff       	mov    $0xfffffff2,%eax
    37fb:	eb df                	jmp    37dc <usb_hid_parse_report+0xec>
    37fd:	8d 76 00             	lea    0x0(%esi),%esi

00003800 <usb_hid_report_output>:
    3800:	55                   	push   %ebp
    3801:	89 e5                	mov    %esp,%ebp
    3803:	57                   	push   %edi
    3804:	56                   	push   %esi
    3805:	53                   	push   %ebx
    3806:	83 ec 1c             	sub    $0x1c,%esp
    3809:	8b 4d 08             	mov    0x8(%ebp),%ecx
    380c:	8b 7d 0c             	mov    0xc(%ebp),%edi
    380f:	8a 5d 10             	mov    0x10(%ebp),%bl
    3812:	85 c9                	test   %ecx,%ecx
    3814:	74 5c                	je     3872 <usb_hid_report_output+0x72>
    3816:	8b 41 08             	mov    0x8(%ecx),%eax
    3819:	83 c1 04             	add    $0x4,%ecx
    381c:	39 c8                	cmp    %ecx,%eax
    381e:	75 0f                	jne    382f <usb_hid_report_output+0x2f>
    3820:	eb 50                	jmp    3872 <usb_hid_report_output+0x72>
    3822:	8d b6 00 00 00 00    	lea    0x0(%esi),%esi
    3828:	8b 40 04             	mov    0x4(%eax),%eax
    382b:	39 c8                	cmp    %ecx,%eax
    382d:	74 0e                	je     383d <usb_hid_report_output+0x3d>
    382f:	8d 50 e8             	lea    -0x18(%eax),%edx
    3832:	38 58 e8             	cmp    %bl,-0x18(%eax)
    3835:	75 f1                	jne    3828 <usb_hid_report_output+0x28>
    3837:	83 7a 04 02          	cmpl   $0x2,0x4(%edx)
    383b:	75 eb                	jne    3828 <usb_hid_report_output+0x28>
    383d:	8b 42 08             	mov    0x8(%edx),%eax
    3840:	83 c0 07             	add    $0x7,%eax
    3843:	c1 e8 03             	shr    $0x3,%eax
    3846:	89 07                	mov    %eax,(%edi)
    3848:	89 04 24             	mov    %eax,(%esp)
    384b:	e8 d0 7d 01 00       	call   1b620 <malloc>
    3850:	89 c6                	mov    %eax,%esi
    3852:	8b 07                	mov    (%edi),%eax
    3854:	89 44 24 08          	mov    %eax,0x8(%esp)
    3858:	c7 44 24 04 00 00 00 	movl   $0x0,0x4(%esp)
    385f:	00 
    3860:	89 34 24             	mov    %esi,(%esp)
    3863:	e8 a8 9f 00 00       	call   d810 <memset>
    3868:	83 c4 1c             	add    $0x1c,%esp
    386b:	89 f0                	mov    %esi,%eax
    386d:	5b                   	pop    %ebx
    386e:	5e                   	pop    %esi
    386f:	5f                   	pop    %edi
    3870:	5d                   	pop    %ebp
    3871:	c3                   	ret    
    3872:	c7 07 00 00 00 00    	movl   $0x0,(%edi)
    3878:	31 f6                	xor    %esi,%esi
    387a:	eb ec                	jmp    3868 <usb_hid_report_output+0x68>
    387c:	8d 74 26 00          	lea    0x0(%esi,%eiz,1),%esi

00003880 <usb_hid_report_output_free>:
    3880:	55                   	push   %ebp
    3881:	89 e5                	mov    %esp,%ebp
    3883:	8b 45 08             	mov    0x8(%ebp),%eax
    3886:	85 c0                	test   %eax,%eax
    3888:	74 06                	je     3890 <usb_hid_report_output_free+0x10>
    388a:	5d                   	pop    %ebp
    388b:	e9 a0 7e 01 00       	jmp    1b730 <free>
    3890:	5d                   	pop    %ebp
    3891:	c3                   	ret    
    3892:	8d b4 26 00 00 00 00 	lea    0x0(%esi,%eiz,1),%esi
    3899:	8d bc 27 00 00 00 00 	lea    0x0(%edi,%eiz,1),%edi

000038a0 <usb_hid_translate_data_reverse>:
    38a0:	55                   	push   %ebp
    38a1:	89 e5                	mov    %esp,%ebp
    38a3:	57                   	push   %edi
    38a4:	56                   	push   %esi
    38a5:	53                   	push   %ebx
    38a6:	83 ec 3c             	sub    $0x3c,%esp
    38a9:	8b 5d 08             	mov    0x8(%ebp),%ebx
    38ac:	8b 4b 1c             	mov    0x1c(%ebx),%ecx
    38af:	85 c9                	test   %ecx,%ecx
    38b1:	0f 84 a1 00 00 00    	je     3958 <usb_hid_translate_data_reverse+0xb8>
    38b7:	8b 53 20             	mov    0x20(%ebx),%edx
    38ba:	8b 73 14             	mov    0x14(%ebx),%esi
    38bd:	39 ca                	cmp    %ecx,%edx
    38bf:	0f 84 b4 00 00 00    	je     3979 <usb_hid_translate_data_reverse+0xd9>
    38c5:	29 ca                	sub    %ecx,%edx
    38c7:	8b 43 18             	mov    0x18(%ebx),%eax
    38ca:	89 55 e4             	mov    %edx,-0x1c(%ebp)
    38cd:	29 f0                	sub    %esi,%eax
    38cf:	8b 53 30             	mov    0x30(%ebx),%edx
    38d2:	bf 01 00 00 00       	mov    $0x1,%edi
    38d7:	85 d2                	test   %edx,%edx
    38d9:	75 6d                	jne    3948 <usb_hid_translate_data_reverse+0xa8>
    38db:	ba 01 00 00 00       	mov    $0x1,%edx
    38e0:	0f af fa             	imul   %edx,%edi
    38e3:	8b 55 e4             	mov    -0x1c(%ebp),%edx
    38e6:	0f af fa             	imul   %edx,%edi
    38e9:	89 c2                	mov    %eax,%edx
    38eb:	c1 fa 1f             	sar    $0x1f,%edx
    38ee:	f7 ff                	idiv   %edi
    38f0:	8b 55 0c             	mov    0xc(%ebp),%edx
    38f3:	89 44 24 10          	mov    %eax,0x10(%esp)
    38f7:	29 ca                	sub    %ecx,%edx
    38f9:	89 74 24 18          	mov    %esi,0x18(%esp)
    38fd:	0f af d0             	imul   %eax,%edx
    3900:	8b 45 0c             	mov    0xc(%ebp),%eax
    3903:	89 4c 24 14          	mov    %ecx,0x14(%esp)
    3907:	8d 3c 32             	lea    (%edx,%esi,1),%edi
    390a:	89 44 24 0c          	mov    %eax,0xc(%esp)
    390e:	89 7c 24 1c          	mov    %edi,0x1c(%esp)
    3912:	c7 44 24 08 34 aa 02 	movl   $0x2aa34,0x8(%esp)
    3919:	00 
    391a:	c7 44 24 04 04 00 00 	movl   $0x4,0x4(%esp)
    3921:	00 
    3922:	c7 04 24 ff ff ff ff 	movl   $0xffffffff,(%esp)
    3929:	e8 22 24 01 00       	call   15d50 <log_msg>
    392e:	8b 43 14             	mov    0x14(%ebx),%eax
    3931:	85 c0                	test   %eax,%eax
    3933:	78 63                	js     3998 <usb_hid_translate_data_reverse+0xf8>
    3935:	8b 73 18             	mov    0x18(%ebx),%esi
    3938:	89 f8                	mov    %edi,%eax
    393a:	85 f6                	test   %esi,%esi
    393c:	78 5a                	js     3998 <usb_hid_translate_data_reverse+0xf8>
    393e:	83 c4 3c             	add    $0x3c,%esp
    3941:	5b                   	pop    %ebx
    3942:	5e                   	pop    %esi
    3943:	5f                   	pop    %edi
    3944:	5d                   	pop    %ebp
    3945:	c3                   	ret    
    3946:	66 90                	xchg   %ax,%ax
    3948:	83 fa 01             	cmp    $0x1,%edx
    394b:	74 3b                	je     3988 <usb_hid_translate_data_reverse+0xe8>
    394d:	8d 3c bf             	lea    (%edi,%edi,4),%edi
    3950:	4a                   	dec    %edx
    3951:	01 ff                	add    %edi,%edi
    3953:	eb 82                	jmp    38d7 <usb_hid_translate_data_reverse+0x37>
    3955:	8d 76 00             	lea    0x0(%esi),%esi
    3958:	8b 53 20             	mov    0x20(%ebx),%edx
    395b:	8b 73 14             	mov    0x14(%ebx),%esi
    395e:	85 d2                	test   %edx,%edx
    3960:	0f 85 5f ff ff ff    	jne    38c5 <usb_hid_translate_data_reverse+0x25>
    3966:	8b 53 18             	mov    0x18(%ebx),%edx
    3969:	89 f1                	mov    %esi,%ecx
    396b:	89 73 1c             	mov    %esi,0x1c(%ebx)
    396e:	89 53 20             	mov    %edx,0x20(%ebx)
    3971:	39 ca                	cmp    %ecx,%edx
    3973:	0f 85 4c ff ff ff    	jne    38c5 <usb_hid_translate_data_reverse+0x25>
    3979:	b8 01 00 00 00       	mov    $0x1,%eax
    397e:	e9 6d ff ff ff       	jmp    38f0 <usb_hid_translate_data_reverse+0x50>
    3983:	90                   	nop
    3984:	8d 74 26 00          	lea    0x0(%esi,%eiz,1),%esi
    3988:	ba 0a 00 00 00       	mov    $0xa,%edx
    398d:	e9 4e ff ff ff       	jmp    38e0 <usb_hid_translate_data_reverse+0x40>
    3992:	8d b6 00 00 00 00    	lea    0x0(%esi),%esi
    3998:	89 f8                	mov    %edi,%eax
    399a:	85 ff                	test   %edi,%edi
    399c:	79 a0                	jns    393e <usb_hid_translate_data_reverse+0x9e>
    399e:	8b 4b 04             	mov    0x4(%ebx),%ecx
    39a1:	ba 01 00 00 00       	mov    $0x1,%edx
    39a6:	83 c4 3c             	add    $0x3c,%esp
    39a9:	d3 e2                	shl    %cl,%edx
    39ab:	5b                   	pop    %ebx
    39ac:	01 d0                	add    %edx,%eax
    39ae:	5e                   	pop    %esi
    39af:	5f                   	pop    %edi
    39b0:	5d                   	pop    %ebp
    39b1:	c3                   	ret    
    39b2:	8d b4 26 00 00 00 00 	lea    0x0(%esi,%eiz,1),%esi
    39b9:	8d bc 27 00 00 00 00 	lea    0x0(%edi,%eiz,1),%edi

000039c0 <usb_hid_report_output_translate>:
    39c0:	55                   	push   %ebp
    39c1:	89 e5                	mov    %esp,%ebp
    39c3:	57                   	push   %edi
    39c4:	56                   	push   %esi
    39c5:	53                   	push   %ebx
    39c6:	83 ec 4c             	sub    $0x4c,%esp
    39c9:	8b 45 08             	mov    0x8(%ebp),%eax
    39cc:	8b 55 0c             	mov    0xc(%ebp),%edx
    39cf:	8b 5d 10             	mov    0x10(%ebp),%ebx
    39d2:	85 c0                	test   %eax,%eax
    39d4:	0f 84 16 02 00 00    	je     3bf0 <usb_hid_report_output_translate+0x230>
    39da:	8b 78 18             	mov    0x18(%eax),%edi
    39dd:	88 d1                	mov    %dl,%cl
    39df:	85 ff                	test   %edi,%edi
    39e1:	74 02                	je     39e5 <usb_hid_report_output_translate+0x25>
    39e3:	88 13                	mov    %dl,(%ebx)
    39e5:	31 d2                	xor    %edx,%edx
    39e7:	c7 44 24 08 02 00 00 	movl   $0x2,0x8(%esp)
    39ee:	00 
    39ef:	88 ca                	mov    %cl,%dl
    39f1:	89 04 24             	mov    %eax,(%esp)
    39f4:	89 54 24 04          	mov    %edx,0x4(%esp)
    39f8:	e8 63 e1 ff ff       	call   1b60 <usb_hid_report_find_description>
    39fd:	89 45 c0             	mov    %eax,-0x40(%ebp)
    3a00:	85 c0                	test   %eax,%eax
    3a02:	0f 84 e8 01 00 00    	je     3bf0 <usb_hid_report_output_translate+0x230>
    3a08:	8b 50 14             	mov    0x14(%eax),%edx
    3a0b:	83 c0 10             	add    $0x10,%eax
    3a0e:	89 55 d4             	mov    %edx,-0x2c(%ebp)
    3a11:	89 45 bc             	mov    %eax,-0x44(%ebp)
    3a14:	39 c2                	cmp    %eax,%edx
    3a16:	0f 84 7c 01 00 00    	je     3b98 <usb_hid_report_output_translate+0x1d8>
    3a1c:	89 df                	mov    %ebx,%edi
    3a1e:	8b 55 d4             	mov    -0x2c(%ebp),%edx
    3a21:	8d b4 26 00 00 00 00 	lea    0x0(%esi,%eiz,1),%esi
    3a28:	83 ea 40             	sub    $0x40,%edx
    3a2b:	89 55 d0             	mov    %edx,-0x30(%ebp)
    3a2e:	8b 42 3c             	mov    0x3c(%edx),%eax
    3a31:	89 14 24             	mov    %edx,(%esp)
    3a34:	89 44 24 04          	mov    %eax,0x4(%esp)
    3a38:	e8 63 fe ff ff       	call   38a0 <usb_hid_translate_data_reverse>
    3a3d:	8b 55 d4             	mov    -0x2c(%ebp),%edx
    3a40:	89 45 e0             	mov    %eax,-0x20(%ebp)
    3a43:	8b 45 c0             	mov    -0x40(%ebp),%eax
    3a46:	8b 72 c0             	mov    -0x40(%edx),%esi
    3a49:	8b 55 d0             	mov    -0x30(%ebp),%edx
    3a4c:	8b 40 08             	mov    0x8(%eax),%eax
    3a4f:	89 c3                	mov    %eax,%ebx
    3a51:	8b 45 e0             	mov    -0x20(%ebp),%eax
    3a54:	4b                   	dec    %ebx
    3a55:	8b 52 04             	mov    0x4(%edx),%edx
    3a58:	29 f3                	sub    %esi,%ebx
    3a5a:	89 44 24 0c          	mov    %eax,0xc(%esp)
    3a5e:	c7 44 24 08 70 aa 02 	movl   $0x2aa70,0x8(%esp)
    3a65:	00 
    3a66:	c7 44 24 04 04 00 00 	movl   $0x4,0x4(%esp)
    3a6d:	00 
    3a6e:	c7 04 24 ff ff ff ff 	movl   $0xffffffff,(%esp)
    3a75:	89 55 dc             	mov    %edx,-0x24(%ebp)
    3a78:	e8 d3 22 01 00       	call   15d50 <log_msg>
    3a7d:	89 d8                	mov    %ebx,%eax
    3a7f:	c1 f8 1f             	sar    $0x1f,%eax
    3a82:	c1 e8 1d             	shr    $0x1d,%eax
    3a85:	8d 34 18             	lea    (%eax,%ebx,1),%esi
    3a88:	89 f2                	mov    %esi,%edx
    3a8a:	c1 fa 03             	sar    $0x3,%edx
    3a8d:	89 55 e4             	mov    %edx,-0x1c(%ebp)
    3a90:	8b 55 dc             	mov    -0x24(%ebp),%edx
    3a93:	01 da                	add    %ebx,%edx
    3a95:	8d 4a ff             	lea    -0x1(%edx),%ecx
    3a98:	89 cb                	mov    %ecx,%ebx
    3a9a:	c1 fb 1f             	sar    $0x1f,%ebx
    3a9d:	c1 eb 1d             	shr    $0x1d,%ebx
    3aa0:	01 cb                	add    %ecx,%ebx
    3aa2:	c1 fb 03             	sar    $0x3,%ebx
    3aa5:	39 5d e4             	cmp    %ebx,-0x1c(%ebp)
    3aa8:	0f 84 fa 00 00 00    	je     3ba8 <usb_hid_report_output_translate+0x1e8>
    3aae:	0f 8f c6 00 00 00    	jg     3b7a <usb_hid_report_output_translate+0x1ba>
    3ab4:	83 e6 07             	and    $0x7,%esi
    3ab7:	89 75 cc             	mov    %esi,-0x34(%ebp)
    3aba:	8b 4d cc             	mov    -0x34(%ebp),%ecx
    3abd:	29 c1                	sub    %eax,%ecx
    3abf:	b8 01 00 00 00       	mov    $0x1,%eax
    3ac4:	89 4d cc             	mov    %ecx,-0x34(%ebp)
    3ac7:	b9 08 00 00 00       	mov    $0x8,%ecx
    3acc:	8b 75 cc             	mov    -0x34(%ebp),%esi
    3acf:	29 f1                	sub    %esi,%ecx
    3ad1:	8d 73 01             	lea    0x1(%ebx),%esi
    3ad4:	d3 e0                	shl    %cl,%eax
    3ad6:	89 c1                	mov    %eax,%ecx
    3ad8:	49                   	dec    %ecx
    3ad9:	89 4d d8             	mov    %ecx,-0x28(%ebp)
    3adc:	89 c8                	mov    %ecx,%eax
    3ade:	8a 4d cc             	mov    -0x34(%ebp),%cl
    3ae1:	d3 e0                	shl    %cl,%eax
    3ae3:	83 f0 ff             	xor    $0xffffffff,%eax
    3ae6:	8b 4d dc             	mov    -0x24(%ebp),%ecx
    3ae9:	88 45 cb             	mov    %al,-0x35(%ebp)
    3aec:	89 d0                	mov    %edx,%eax
    3aee:	c1 f8 1f             	sar    $0x1f,%eax
    3af1:	c1 e8 1d             	shr    $0x1d,%eax
    3af4:	01 c2                	add    %eax,%edx
    3af6:	83 e2 07             	and    $0x7,%edx
    3af9:	29 c2                	sub    %eax,%edx
    3afb:	b8 01 00 00 00       	mov    $0x1,%eax
    3b00:	29 d1                	sub    %edx,%ecx
    3b02:	d3 e0                	shl    %cl,%eax
    3b04:	89 4d dc             	mov    %ecx,-0x24(%ebp)
    3b07:	8b 4d e0             	mov    -0x20(%ebp),%ecx
    3b0a:	8d 50 ff             	lea    -0x1(%eax),%edx
    3b0d:	48                   	dec    %eax
    3b0e:	89 55 c4             	mov    %edx,-0x3c(%ebp)
    3b11:	8b 55 d8             	mov    -0x28(%ebp),%edx
    3b14:	21 d1                	and    %edx,%ecx
    3b16:	88 45 ca             	mov    %al,-0x36(%ebp)
    3b19:	89 4d d8             	mov    %ecx,-0x28(%ebp)
    3b1c:	8b 45 e4             	mov    -0x1c(%ebp),%eax
    3b1f:	8a 4d cc             	mov    -0x34(%ebp),%cl
    3b22:	d3 65 d8             	shll   %cl,-0x28(%ebp)
    3b25:	89 c1                	mov    %eax,%ecx
    3b27:	3b 4d e4             	cmp    -0x1c(%ebp),%ecx
    3b2a:	74 21                	je     3b4d <usb_hid_report_output_translate+0x18d>
    3b2c:	8d 74 26 00          	lea    0x0(%esi,%eiz,1),%esi
    3b30:	39 d9                	cmp    %ebx,%ecx
    3b32:	74 2c                	je     3b60 <usb_hid_report_output_translate+0x1a0>
    3b34:	b8 ff 00 00 00       	mov    $0xff,%eax
    3b39:	8b 55 e0             	mov    -0x20(%ebp),%edx
    3b3c:	d3 e0                	shl    %cl,%eax
    3b3e:	21 d0                	and    %edx,%eax
    3b40:	88 04 0f             	mov    %al,(%edi,%ecx,1)
    3b43:	41                   	inc    %ecx
    3b44:	39 f1                	cmp    %esi,%ecx
    3b46:	74 32                	je     3b7a <usb_hid_report_output_translate+0x1ba>
    3b48:	3b 4d e4             	cmp    -0x1c(%ebp),%ecx
    3b4b:	75 e3                	jne    3b30 <usb_hid_report_output_translate+0x170>
    3b4d:	8d 14 0f             	lea    (%edi,%ecx,1),%edx
    3b50:	8a 45 cb             	mov    -0x35(%ebp),%al
    3b53:	22 02                	and    (%edx),%al
    3b55:	0b 45 d8             	or     -0x28(%ebp),%eax
    3b58:	88 02                	mov    %al,(%edx)
    3b5a:	eb e7                	jmp    3b43 <usb_hid_report_output_translate+0x183>
    3b5c:	8d 74 26 00          	lea    0x0(%esi,%eiz,1),%esi
    3b60:	89 c8                	mov    %ecx,%eax
    3b62:	8b 55 e0             	mov    -0x20(%ebp),%edx
    3b65:	8a 4d dc             	mov    -0x24(%ebp),%cl
    3b68:	01 f8                	add    %edi,%eax
    3b6a:	d3 fa                	sar    %cl,%edx
    3b6c:	8b 4d c4             	mov    -0x3c(%ebp),%ecx
    3b6f:	21 ca                	and    %ecx,%edx
    3b71:	8a 4d ca             	mov    -0x36(%ebp),%cl
    3b74:	22 08                	and    (%eax),%cl
    3b76:	09 d1                	or     %edx,%ecx
    3b78:	88 08                	mov    %cl,(%eax)
    3b7a:	8b 55 d0             	mov    -0x30(%ebp),%edx
    3b7d:	8b 4d bc             	mov    -0x44(%ebp),%ecx
    3b80:	c7 42 3c 00 00 00 00 	movl   $0x0,0x3c(%edx)
    3b87:	8b 55 d4             	mov    -0x2c(%ebp),%edx
    3b8a:	8b 52 04             	mov    0x4(%edx),%edx
    3b8d:	89 55 d4             	mov    %edx,-0x2c(%ebp)
    3b90:	39 ca                	cmp    %ecx,%edx
    3b92:	0f 85 90 fe ff ff    	jne    3a28 <usb_hid_report_output_translate+0x68>
    3b98:	31 c0                	xor    %eax,%eax
    3b9a:	83 c4 4c             	add    $0x4c,%esp
    3b9d:	5b                   	pop    %ebx
    3b9e:	5e                   	pop    %esi
    3b9f:	5f                   	pop    %edi
    3ba0:	5d                   	pop    %ebp
    3ba1:	c3                   	ret    
    3ba2:	8d b6 00 00 00 00    	lea    0x0(%esi),%esi
    3ba8:	8b 55 14             	mov    0x14(%ebp),%edx
    3bab:	39 55 e4             	cmp    %edx,-0x1c(%ebp)
    3bae:	73 e8                	jae    3b98 <usb_hid_report_output_translate+0x1d8>
    3bb0:	c1 e9 03             	shr    $0x3,%ecx
    3bb3:	39 ca                	cmp    %ecx,%edx
    3bb5:	76 e1                	jbe    3b98 <usb_hid_report_output_translate+0x1d8>
    3bb7:	83 e6 07             	and    $0x7,%esi
    3bba:	8b 4d dc             	mov    -0x24(%ebp),%ecx
    3bbd:	29 c6                	sub    %eax,%esi
    3bbf:	b8 08 00 00 00       	mov    $0x8,%eax
    3bc4:	29 f0                	sub    %esi,%eax
    3bc6:	8b 5d e0             	mov    -0x20(%ebp),%ebx
    3bc9:	29 c8                	sub    %ecx,%eax
    3bcb:	ba 01 00 00 00       	mov    $0x1,%edx
    3bd0:	88 c1                	mov    %al,%cl
    3bd2:	d3 e3                	shl    %cl,%ebx
    3bd4:	8a 4d dc             	mov    -0x24(%ebp),%cl
    3bd7:	d3 e2                	shl    %cl,%edx
    3bd9:	4a                   	dec    %edx
    3bda:	88 c1                	mov    %al,%cl
    3bdc:	8b 45 e4             	mov    -0x1c(%ebp),%eax
    3bdf:	d3 e2                	shl    %cl,%edx
    3be1:	01 f8                	add    %edi,%eax
    3be3:	21 d3                	and    %edx,%ebx
    3be5:	83 f2 ff             	xor    $0xffffffff,%edx
    3be8:	22 10                	and    (%eax),%dl
    3bea:	09 da                	or     %ebx,%edx
    3bec:	88 10                	mov    %dl,(%eax)
    3bee:	eb 8a                	jmp    3b7a <usb_hid_report_output_translate+0x1ba>
    3bf0:	b8 f2 ff ff ff       	mov    $0xfffffff2,%eax
    3bf5:	eb a3                	jmp    3b9a <usb_hid_report_output_translate+0x1da>
    3bf7:	89 f6                	mov    %esi,%esi
    3bf9:	8d bc 27 00 00 00 00 	lea    0x0(%edi,%eiz,1),%edi

00003c00 <usb_hid_report_item_clone>:
    3c00:	55                   	push   %ebp
    3c01:	89 e5                	mov    %esp,%ebp
    3c03:	53                   	push   %ebx
    3c04:	83 ec 14             	sub    $0x14,%esp
    3c07:	c7 04 24 68 00 04 00 	movl   $0x40068,(%esp)
    3c0e:	e8 0d 7a 01 00       	call   1b620 <malloc>
    3c13:	89 c3                	mov    %eax,%ebx
    3c15:	85 c0                	test   %eax,%eax
    3c17:	74 2b                	je     3c44 <usb_hid_report_item_clone+0x44>
    3c19:	8b 45 08             	mov    0x8(%ebp),%eax
    3c1c:	c7 44 24 08 68 00 04 	movl   $0x40068,0x8(%esp)
    3c23:	00 
    3c24:	89 44 24 04          	mov    %eax,0x4(%esp)
    3c28:	89 1c 24             	mov    %ebx,(%esp)
    3c2b:	e8 60 9d 00 00       	call   d990 <memcpy>
    3c30:	c7 83 5c 00 04 00 00 	movl   $0x0,0x4005c(%ebx)
    3c37:	00 00 00 
    3c3a:	c7 83 60 00 04 00 00 	movl   $0x0,0x40060(%ebx)
    3c41:	00 00 00 
    3c44:	83 c4 14             	add    $0x14,%esp
    3c47:	89 d8                	mov    %ebx,%eax
    3c49:	5b                   	pop    %ebx
    3c4a:	5d                   	pop    %ebp
    3c4b:	c3                   	ret    
    3c4c:	8d 74 26 00          	lea    0x0(%esi,%eiz,1),%esi

00003c50 <usb_hid_report_get_sibling>:
    3c50:	55                   	push   %ebp
    3c51:	89 e5                	mov    %esp,%ebp
    3c53:	57                   	push   %edi
    3c54:	56                   	push   %esi
    3c55:	53                   	push   %ebx
    3c56:	83 ec 1c             	sub    $0x1c,%esp
    3c59:	8b 45 18             	mov    0x18(%ebp),%eax
    3c5c:	8b 55 10             	mov    0x10(%ebp),%edx
    3c5f:	89 44 24 08          	mov    %eax,0x8(%esp)
    3c63:	31 c0                	xor    %eax,%eax
    3c65:	8a 42 04             	mov    0x4(%edx),%al
    3c68:	8b 5d 0c             	mov    0xc(%ebp),%ebx
    3c6b:	89 44 24 04          	mov    %eax,0x4(%esp)
    3c6f:	8b 45 08             	mov    0x8(%ebp),%eax
    3c72:	89 04 24             	mov    %eax,(%esp)
    3c75:	e8 e6 de ff ff       	call   1b60 <usb_hid_report_find_description>
    3c7a:	85 c0                	test   %eax,%eax
    3c7c:	74 7d                	je     3cfb <usb_hid_report_get_sibling+0xab>
    3c7e:	85 db                	test   %ebx,%ebx
    3c80:	0f 84 91 00 00 00    	je     3d17 <usb_hid_report_get_sibling+0xc7>
    3c86:	8b 73 44             	mov    0x44(%ebx),%esi
    3c89:	8d 58 10             	lea    0x10(%eax),%ebx
    3c8c:	39 de                	cmp    %ebx,%esi
    3c8e:	75 0f                	jne    3c9f <usb_hid_report_get_sibling+0x4f>
    3c90:	eb 69                	jmp    3cfb <usb_hid_report_get_sibling+0xab>
    3c92:	8d b6 00 00 00 00    	lea    0x0(%esi),%esi
    3c98:	8b 76 04             	mov    0x4(%esi),%esi
    3c9b:	39 de                	cmp    %ebx,%esi
    3c9d:	74 5c                	je     3cfb <usb_hid_report_get_sibling+0xab>
    3c9f:	8d 7e c0             	lea    -0x40(%esi),%edi
    3ca2:	f6 47 0c 01          	testb  $0x1,0xc(%edi)
    3ca6:	75 f0                	jne    3c98 <usb_hid_report_get_sibling+0x48>
    3ca8:	66 8b 47 0a          	mov    0xa(%edi),%ax
    3cac:	25 ff ff 00 00       	and    $0xffff,%eax
    3cb1:	89 44 24 08          	mov    %eax,0x8(%esp)
    3cb5:	8b 47 08             	mov    0x8(%edi),%eax
    3cb8:	25 ff ff 00 00       	and    $0xffff,%eax
    3cbd:	89 44 24 04          	mov    %eax,0x4(%esp)
    3cc1:	8b 47 10             	mov    0x10(%edi),%eax
    3cc4:	89 04 24             	mov    %eax,(%esp)
    3cc7:	e8 64 01 00 00       	call   3e30 <usb_hid_report_path_append_item>
    3ccc:	8b 55 14             	mov    0x14(%ebp),%edx
    3ccf:	89 54 24 08          	mov    %edx,0x8(%esp)
    3cd3:	8b 55 10             	mov    0x10(%ebp),%edx
    3cd6:	89 54 24 04          	mov    %edx,0x4(%esp)
    3cda:	8b 47 10             	mov    0x10(%edi),%eax
    3cdd:	89 04 24             	mov    %eax,(%esp)
    3ce0:	e8 7b 03 00 00       	call   4060 <usb_hid_report_compare_usage_path>
    3ce5:	85 c0                	test   %eax,%eax
    3ce7:	8b 47 10             	mov    0x10(%edi),%eax
    3cea:	89 04 24             	mov    %eax,(%esp)
    3ced:	74 19                	je     3d08 <usb_hid_report_get_sibling+0xb8>
    3cef:	e8 9c 01 00 00       	call   3e90 <usb_hid_report_remove_last_item>
    3cf4:	8b 76 04             	mov    0x4(%esi),%esi
    3cf7:	39 de                	cmp    %ebx,%esi
    3cf9:	75 a4                	jne    3c9f <usb_hid_report_get_sibling+0x4f>
    3cfb:	83 c4 1c             	add    $0x1c,%esp
    3cfe:	31 ff                	xor    %edi,%edi
    3d00:	89 f8                	mov    %edi,%eax
    3d02:	5b                   	pop    %ebx
    3d03:	5e                   	pop    %esi
    3d04:	5f                   	pop    %edi
    3d05:	5d                   	pop    %ebp
    3d06:	c3                   	ret    
    3d07:	90                   	nop
    3d08:	e8 83 01 00 00       	call   3e90 <usb_hid_report_remove_last_item>
    3d0d:	83 c4 1c             	add    $0x1c,%esp
    3d10:	89 f8                	mov    %edi,%eax
    3d12:	5b                   	pop    %ebx
    3d13:	5e                   	pop    %esi
    3d14:	5f                   	pop    %edi
    3d15:	5d                   	pop    %ebp
    3d16:	c3                   	ret    
    3d17:	8b 70 14             	mov    0x14(%eax),%esi
    3d1a:	e9 6a ff ff ff       	jmp    3c89 <usb_hid_report_get_sibling+0x39>
    3d1f:	90                   	nop

00003d20 <usb_hid_get_next_report_id>:
    3d20:	55                   	push   %ebp
    3d21:	89 e5                	mov    %esp,%ebp
    3d23:	56                   	push   %esi
    3d24:	53                   	push   %ebx
    3d25:	83 ec 10             	sub    $0x10,%esp
    3d28:	8b 75 08             	mov    0x8(%ebp),%esi
    3d2b:	8b 5d 10             	mov    0x10(%ebp),%ebx
    3d2e:	8a 45 0c             	mov    0xc(%ebp),%al
    3d31:	85 f6                	test   %esi,%esi
    3d33:	74 2a                	je     3d5f <usb_hid_get_next_report_id+0x3f>
    3d35:	84 c0                	test   %al,%al
    3d37:	75 3f                	jne    3d78 <usb_hid_get_next_report_id+0x58>
    3d39:	8b 46 08             	mov    0x8(%esi),%eax
    3d3c:	8d 4e 04             	lea    0x4(%esi),%ecx
    3d3f:	39 c8                	cmp    %ecx,%eax
    3d41:	74 1c                	je     3d5f <usb_hid_get_next_report_id+0x3f>
    3d43:	8d 50 e8             	lea    -0x18(%eax),%edx
    3d46:	39 5a 04             	cmp    %ebx,0x4(%edx)
    3d49:	75 0d                	jne    3d58 <usb_hid_get_next_report_id+0x38>
    3d4b:	eb 1b                	jmp    3d68 <usb_hid_get_next_report_id+0x48>
    3d4d:	8d 76 00             	lea    0x0(%esi),%esi
    3d50:	8d 50 e8             	lea    -0x18(%eax),%edx
    3d53:	39 58 ec             	cmp    %ebx,-0x14(%eax)
    3d56:	74 10                	je     3d68 <usb_hid_get_next_report_id+0x48>
    3d58:	8b 40 04             	mov    0x4(%eax),%eax
    3d5b:	39 c8                	cmp    %ecx,%eax
    3d5d:	75 f1                	jne    3d50 <usb_hid_get_next_report_id+0x30>
    3d5f:	83 c4 10             	add    $0x10,%esp
    3d62:	31 c0                	xor    %eax,%eax
    3d64:	5b                   	pop    %ebx
    3d65:	5e                   	pop    %esi
    3d66:	5d                   	pop    %ebp
    3d67:	c3                   	ret    
    3d68:	8a 02                	mov    (%edx),%al
    3d6a:	83 c4 10             	add    $0x10,%esp
    3d6d:	5b                   	pop    %ebx
    3d6e:	5e                   	pop    %esi
    3d6f:	5d                   	pop    %ebp
    3d70:	c3                   	ret    
    3d71:	8d b4 26 00 00 00 00 	lea    0x0(%esi,%eiz,1),%esi
    3d78:	25 ff 00 00 00       	and    $0xff,%eax
    3d7d:	89 5c 24 08          	mov    %ebx,0x8(%esp)
    3d81:	89 44 24 04          	mov    %eax,0x4(%esp)
    3d85:	89 34 24             	mov    %esi,(%esp)
    3d88:	e8 d3 dd ff ff       	call   1b60 <usb_hid_report_find_description>
    3d8d:	85 c0                	test   %eax,%eax
    3d8f:	74 ce                	je     3d5f <usb_hid_get_next_report_id+0x3f>
    3d91:	8b 40 1c             	mov    0x1c(%eax),%eax
    3d94:	eb a6                	jmp    3d3c <usb_hid_get_next_report_id+0x1c>
    3d96:	8d 76 00             	lea    0x0(%esi),%esi
    3d99:	8d bc 27 00 00 00 00 	lea    0x0(%edi,%eiz,1),%edi

00003da0 <usb_hid_report_reset_local_items>:
    3da0:	55                   	push   %ebp
    3da1:	89 e5                	mov    %esp,%ebp
    3da3:	53                   	push   %ebx
    3da4:	83 ec 14             	sub    $0x14,%esp
    3da7:	8b 5d 08             	mov    0x8(%ebp),%ebx
    3daa:	85 db                	test   %ebx,%ebx
    3dac:	74 7b                	je     3e29 <usb_hid_report_reset_local_items+0x89>
    3dae:	8d 43 08             	lea    0x8(%ebx),%eax
    3db1:	c7 83 04 00 04 00 00 	movl   $0x0,0x40004(%ebx)
    3db8:	00 00 00 
    3dbb:	c7 44 24 08 ff ff 00 	movl   $0xffff,0x8(%esp)
    3dc2:	00 
    3dc3:	c7 44 24 04 00 00 00 	movl   $0x0,0x4(%esp)
    3dca:	00 
    3dcb:	89 04 24             	mov    %eax,(%esp)
    3dce:	e8 3d 9a 00 00       	call   d810 <memset>
    3dd3:	66 c7 43 04 00 00    	movw   $0x0,0x4(%ebx)
    3dd9:	c7 83 0c 00 04 00 00 	movl   $0x0,0x4000c(%ebx)
    3de0:	00 00 00 
    3de3:	c7 83 10 00 04 00 00 	movl   $0x0,0x40010(%ebx)
    3dea:	00 00 00 
    3ded:	c7 83 3c 00 04 00 00 	movl   $0x0,0x4003c(%ebx)
    3df4:	00 00 00 
    3df7:	c7 83 40 00 04 00 00 	movl   $0x0,0x40040(%ebx)
    3dfe:	00 00 00 
    3e01:	c7 83 44 00 04 00 00 	movl   $0x0,0x40044(%ebx)
    3e08:	00 00 00 
    3e0b:	c7 83 30 00 04 00 00 	movl   $0x0,0x40030(%ebx)
    3e12:	00 00 00 
    3e15:	c7 83 34 00 04 00 00 	movl   $0x0,0x40034(%ebx)
    3e1c:	00 00 00 
    3e1f:	c7 83 38 00 04 00 00 	movl   $0x0,0x40038(%ebx)
    3e26:	00 00 00 
    3e29:	83 c4 14             	add    $0x14,%esp
    3e2c:	5b                   	pop    %ebx
    3e2d:	5d                   	pop    %ebp
    3e2e:	c3                   	ret    
    3e2f:	90                   	nop

00003e30 <usb_hid_report_path_append_item>:
    3e30:	55                   	push   %ebp
    3e31:	89 e5                	mov    %esp,%ebp
    3e33:	53                   	push   %ebx
    3e34:	83 ec 14             	sub    $0x14,%esp
    3e37:	8b 5d 08             	mov    0x8(%ebp),%ebx
    3e3a:	c7 04 24 14 00 00 00 	movl   $0x14,(%esp)
    3e41:	e8 da 77 01 00       	call   1b620 <malloc>
    3e46:	85 c0                	test   %eax,%eax
    3e48:	74 38                	je     3e82 <usb_hid_report_path_append_item+0x52>
    3e4a:	c7 40 0c 00 00 00 00 	movl   $0x0,0xc(%eax)
    3e51:	c6 40 08 00          	movb   $0x0,0x8(%eax)
    3e55:	8b 55 10             	mov    0x10(%ebp),%edx
    3e58:	8d 4b 10             	lea    0x10(%ebx),%ecx
    3e5b:	89 50 04             	mov    %edx,0x4(%eax)
    3e5e:	89 48 10             	mov    %ecx,0x10(%eax)
    3e61:	8b 55 0c             	mov    0xc(%ebp),%edx
    3e64:	8b 4b 10             	mov    0x10(%ebx),%ecx
    3e67:	89 10                	mov    %edx,(%eax)
    3e69:	89 48 0c             	mov    %ecx,0xc(%eax)
    3e6c:	8d 50 0c             	lea    0xc(%eax),%edx
    3e6f:	8b 03                	mov    (%ebx),%eax
    3e71:	40                   	inc    %eax
    3e72:	89 51 04             	mov    %edx,0x4(%ecx)
    3e75:	89 53 10             	mov    %edx,0x10(%ebx)
    3e78:	89 03                	mov    %eax,(%ebx)
    3e7a:	31 c0                	xor    %eax,%eax
    3e7c:	83 c4 14             	add    $0x14,%esp
    3e7f:	5b                   	pop    %ebx
    3e80:	5d                   	pop    %ebp
    3e81:	c3                   	ret    
    3e82:	b8 fe ff ff ff       	mov    $0xfffffffe,%eax
    3e87:	eb f3                	jmp    3e7c <usb_hid_report_path_append_item+0x4c>
    3e89:	8d b4 26 00 00 00 00 	lea    0x0(%esi,%eiz,1),%esi

00003e90 <usb_hid_report_remove_last_item>:
    3e90:	55                   	push   %ebp
    3e91:	89 e5                	mov    %esp,%ebp
    3e93:	56                   	push   %esi
    3e94:	53                   	push   %ebx
    3e95:	8b 55 08             	mov    0x8(%ebp),%edx
    3e98:	8d 4a 10             	lea    0x10(%edx),%ecx
    3e9b:	39 4a 14             	cmp    %ecx,0x14(%edx)
    3e9e:	74 50                	je     3ef0 <usb_hid_report_remove_last_item+0x60>
    3ea0:	8b 42 10             	mov    0x10(%edx),%eax
    3ea3:	39 c8                	cmp    %ecx,%eax
    3ea5:	74 39                	je     3ee0 <usb_hid_report_remove_last_item+0x50>
    3ea7:	8d 70 f4             	lea    -0xc(%eax),%esi
    3eaa:	8b 18                	mov    (%eax),%ebx
    3eac:	85 db                	test   %ebx,%ebx
    3eae:	74 0e                	je     3ebe <usb_hid_report_remove_last_item+0x2e>
    3eb0:	8b 48 04             	mov    0x4(%eax),%ecx
    3eb3:	85 c9                	test   %ecx,%ecx
    3eb5:	74 07                	je     3ebe <usb_hid_report_remove_last_item+0x2e>
    3eb7:	89 19                	mov    %ebx,(%ecx)
    3eb9:	8b 18                	mov    (%eax),%ebx
    3ebb:	89 4b 04             	mov    %ecx,0x4(%ebx)
    3ebe:	8b 0a                	mov    (%edx),%ecx
    3ec0:	c7 00 00 00 00 00    	movl   $0x0,(%eax)
    3ec6:	49                   	dec    %ecx
    3ec7:	c7 40 04 00 00 00 00 	movl   $0x0,0x4(%eax)
    3ece:	89 0a                	mov    %ecx,(%edx)
    3ed0:	89 75 08             	mov    %esi,0x8(%ebp)
    3ed3:	5b                   	pop    %ebx
    3ed4:	5e                   	pop    %esi
    3ed5:	5d                   	pop    %ebp
    3ed6:	e9 55 78 01 00       	jmp    1b730 <free>
    3edb:	90                   	nop
    3edc:	8d 74 26 00          	lea    0x0(%esi,%eiz,1),%esi
    3ee0:	be f4 ff ff ff       	mov    $0xfffffff4,%esi
    3ee5:	31 c0                	xor    %eax,%eax
    3ee7:	eb c1                	jmp    3eaa <usb_hid_report_remove_last_item+0x1a>
    3ee9:	8d b4 26 00 00 00 00 	lea    0x0(%esi,%eiz,1),%esi
    3ef0:	5b                   	pop    %ebx
    3ef1:	5e                   	pop    %esi
    3ef2:	5d                   	pop    %ebp
    3ef3:	c3                   	ret    
    3ef4:	8d b6 00 00 00 00    	lea    0x0(%esi),%esi
    3efa:	8d bf 00 00 00 00    	lea    0x0(%edi),%edi

00003f00 <usb_hid_report_null_last_item>:
    3f00:	55                   	push   %ebp
    3f01:	89 e5                	mov    %esp,%ebp
    3f03:	83 ec 18             	sub    $0x18,%esp
    3f06:	8b 45 08             	mov    0x8(%ebp),%eax
    3f09:	8d 50 10             	lea    0x10(%eax),%edx
    3f0c:	39 50 14             	cmp    %edx,0x14(%eax)
    3f0f:	74 22                	je     3f33 <usb_hid_report_null_last_item+0x33>
    3f11:	8b 40 10             	mov    0x10(%eax),%eax
    3f14:	39 d0                	cmp    %edx,%eax
    3f16:	74 20                	je     3f38 <usb_hid_report_null_last_item+0x38>
    3f18:	83 e8 0c             	sub    $0xc,%eax
    3f1b:	c7 44 24 08 14 00 00 	movl   $0x14,0x8(%esp)
    3f22:	00 
    3f23:	c7 44 24 04 00 00 00 	movl   $0x0,0x4(%esp)
    3f2a:	00 
    3f2b:	89 04 24             	mov    %eax,(%esp)
    3f2e:	e8 dd 98 00 00       	call   d810 <memset>
    3f33:	c9                   	leave  
    3f34:	c3                   	ret    
    3f35:	8d 76 00             	lea    0x0(%esi),%esi
    3f38:	b8 f4 ff ff ff       	mov    $0xfffffff4,%eax
    3f3d:	eb dc                	jmp    3f1b <usb_hid_report_null_last_item+0x1b>
    3f3f:	90                   	nop

00003f40 <usb_hid_report_set_last_item>:
    3f40:	55                   	push   %ebp
    3f41:	89 e5                	mov    %esp,%ebp
    3f43:	8b 45 08             	mov    0x8(%ebp),%eax
    3f46:	8d 50 10             	lea    0x10(%eax),%edx
    3f49:	39 50 14             	cmp    %edx,0x14(%eax)
    3f4c:	74 16                	je     3f64 <usb_hid_report_set_last_item+0x24>
    3f4e:	8b 40 10             	mov    0x10(%eax),%eax
    3f51:	39 d0                	cmp    %edx,%eax
    3f53:	74 23                	je     3f78 <usb_hid_report_set_last_item+0x38>
    3f55:	83 e8 0c             	sub    $0xc,%eax
    3f58:	83 7d 0c 01          	cmpl   $0x1,0xc(%ebp)
    3f5c:	74 12                	je     3f70 <usb_hid_report_set_last_item+0x30>
    3f5e:	83 7d 0c 02          	cmpl   $0x2,0xc(%ebp)
    3f62:	74 04                	je     3f68 <usb_hid_report_set_last_item+0x28>
    3f64:	5d                   	pop    %ebp
    3f65:	c3                   	ret    
    3f66:	66 90                	xchg   %ax,%ax
    3f68:	8b 55 10             	mov    0x10(%ebp),%edx
    3f6b:	89 50 04             	mov    %edx,0x4(%eax)
    3f6e:	5d                   	pop    %ebp
    3f6f:	c3                   	ret    
    3f70:	8b 55 10             	mov    0x10(%ebp),%edx
    3f73:	89 10                	mov    %edx,(%eax)
    3f75:	5d                   	pop    %ebp
    3f76:	c3                   	ret    
    3f77:	90                   	nop
    3f78:	b8 f4 ff ff ff       	mov    $0xfffffff4,%eax
    3f7d:	eb d9                	jmp    3f58 <usb_hid_report_set_last_item+0x18>
    3f7f:	90                   	nop

00003f80 <usb_hid_print_usage_path>:
    3f80:	55                   	push   %ebp
    3f81:	31 c0                	xor    %eax,%eax
    3f83:	89 e5                	mov    %esp,%ebp
    3f85:	57                   	push   %edi
    3f86:	56                   	push   %esi
    3f87:	53                   	push   %ebx
    3f88:	83 ec 1c             	sub    $0x1c,%esp
    3f8b:	8b 7d 08             	mov    0x8(%ebp),%edi
    3f8e:	8a 47 04             	mov    0x4(%edi),%al
    3f91:	c7 44 24 08 87 aa 02 	movl   $0x2aa87,0x8(%esp)
    3f98:	00 
    3f99:	89 44 24 0c          	mov    %eax,0xc(%esp)
    3f9d:	c7 44 24 04 04 00 00 	movl   $0x4,0x4(%esp)
    3fa4:	00 
    3fa5:	c7 04 24 ff ff ff ff 	movl   $0xffffffff,(%esp)
    3fac:	e8 9f 1d 01 00       	call   15d50 <log_msg>
    3fb1:	8b 07                	mov    (%edi),%eax
    3fb3:	89 44 24 0c          	mov    %eax,0xc(%esp)
    3fb7:	c7 44 24 08 a0 aa 02 	movl   $0x2aaa0,0x8(%esp)
    3fbe:	00 
    3fbf:	c7 44 24 04 04 00 00 	movl   $0x4,0x4(%esp)
    3fc6:	00 
    3fc7:	c7 04 24 ff ff ff ff 	movl   $0xffffffff,(%esp)
    3fce:	e8 7d 1d 01 00       	call   15d50 <log_msg>
    3fd3:	8b 5f 14             	mov    0x14(%edi),%ebx
    3fd6:	83 c7 10             	add    $0x10,%edi
    3fd9:	39 fb                	cmp    %edi,%ebx
    3fdb:	74 75                	je     4052 <usb_hid_print_usage_path+0xd2>
    3fdd:	8d 76 00             	lea    0x0(%esi),%esi
    3fe0:	8b 43 f4             	mov    -0xc(%ebx),%eax
    3fe3:	c7 44 24 08 ad aa 02 	movl   $0x2aaad,0x8(%esp)
    3fea:	00 
    3feb:	89 44 24 0c          	mov    %eax,0xc(%esp)
    3fef:	c7 44 24 04 04 00 00 	movl   $0x4,0x4(%esp)
    3ff6:	00 
    3ff7:	c7 04 24 ff ff ff ff 	movl   $0xffffffff,(%esp)
    3ffe:	e8 4d 1d 01 00       	call   15d50 <log_msg>
    4003:	8b 43 f8             	mov    -0x8(%ebx),%eax
    4006:	89 44 24 0c          	mov    %eax,0xc(%esp)
    400a:	c7 44 24 08 be aa 02 	movl   $0x2aabe,0x8(%esp)
    4011:	00 
    4012:	c7 44 24 04 04 00 00 	movl   $0x4,0x4(%esp)
    4019:	00 
    401a:	c7 04 24 ff ff ff ff 	movl   $0xffffffff,(%esp)
    4021:	e8 2a 1d 01 00       	call   15d50 <log_msg>
    4026:	31 c0                	xor    %eax,%eax
    4028:	8a 43 fc             	mov    -0x4(%ebx),%al
    402b:	c7 44 24 08 ca aa 02 	movl   $0x2aaca,0x8(%esp)
    4032:	00 
    4033:	89 44 24 0c          	mov    %eax,0xc(%esp)
    4037:	c7 44 24 04 04 00 00 	movl   $0x4,0x4(%esp)
    403e:	00 
    403f:	c7 04 24 ff ff ff ff 	movl   $0xffffffff,(%esp)
    4046:	e8 05 1d 01 00       	call   15d50 <log_msg>
    404b:	8b 5b 04             	mov    0x4(%ebx),%ebx
    404e:	39 fb                	cmp    %edi,%ebx
    4050:	75 8e                	jne    3fe0 <usb_hid_print_usage_path+0x60>
    4052:	83 c4 1c             	add    $0x1c,%esp
    4055:	5b                   	pop    %ebx
    4056:	5e                   	pop    %esi
    4057:	5f                   	pop    %edi
    4058:	5d                   	pop    %ebp
    4059:	c3                   	ret    
    405a:	8d b6 00 00 00 00    	lea    0x0(%esi),%esi

00004060 <usb_hid_report_compare_usage_path>:
    4060:	55                   	push   %ebp
    4061:	89 e5                	mov    %esp,%ebp
    4063:	57                   	push   %edi
    4064:	56                   	push   %esi
    4065:	53                   	push   %ebx
    4066:	83 ec 0c             	sub    $0xc,%esp
    4069:	8b 4d 0c             	mov    0xc(%ebp),%ecx
    406c:	8b 75 08             	mov    0x8(%ebp),%esi
    406f:	8a 51 04             	mov    0x4(%ecx),%dl
    4072:	38 56 04             	cmp    %dl,0x4(%esi)
    4075:	74 09                	je     4080 <usb_hid_report_compare_usage_path+0x20>
    4077:	b8 01 00 00 00       	mov    $0x1,%eax
    407c:	84 d2                	test   %dl,%dl
    407e:	75 40                	jne    40c0 <usb_hid_report_compare_usage_path+0x60>
    4080:	8b 11                	mov    (%ecx),%edx
    4082:	31 c0                	xor    %eax,%eax
    4084:	85 d2                	test   %edx,%edx
    4086:	74 38                	je     40c0 <usb_hid_report_compare_usage_path+0x60>
    4088:	8b 5d 10             	mov    0x10(%ebp),%ebx
    408b:	83 e3 02             	and    $0x2,%ebx
    408e:	74 09                	je     4099 <usb_hid_report_compare_usage_path+0x39>
    4090:	8b 45 10             	mov    0x10(%ebp),%eax
    4093:	83 e8 02             	sub    $0x2,%eax
    4096:	89 45 10             	mov    %eax,0x10(%ebp)
    4099:	83 7d 10 01          	cmpl   $0x1,0x10(%ebp)
    409d:	0f 84 75 01 00 00    	je     4218 <usb_hid_report_compare_usage_path+0x1b8>
    40a3:	7e 23                	jle    40c8 <usb_hid_report_compare_usage_path+0x68>
    40a5:	83 7d 10 04          	cmpl   $0x4,0x10(%ebp)
    40a9:	74 2d                	je     40d8 <usb_hid_report_compare_usage_path+0x78>
    40ab:	83 7d 10 08          	cmpl   $0x8,0x10(%ebp)
    40af:	0f 84 db 00 00 00    	je     4190 <usb_hid_report_compare_usage_path+0x130>
    40b5:	b8 f2 ff ff ff       	mov    $0xfffffff2,%eax
    40ba:	8d b6 00 00 00 00    	lea    0x0(%esi),%esi
    40c0:	83 c4 0c             	add    $0xc,%esp
    40c3:	5b                   	pop    %ebx
    40c4:	5e                   	pop    %esi
    40c5:	5f                   	pop    %edi
    40c6:	5d                   	pop    %ebp
    40c7:	c3                   	ret    
    40c8:	8b 7d 10             	mov    0x10(%ebp),%edi
    40cb:	85 ff                	test   %edi,%edi
    40cd:	75 e6                	jne    40b5 <usb_hid_report_compare_usage_path+0x55>
    40cf:	b8 01 00 00 00       	mov    $0x1,%eax
    40d4:	3b 16                	cmp    (%esi),%edx
    40d6:	75 e8                	jne    40c0 <usb_hid_report_compare_usage_path+0x60>
    40d8:	8b 56 14             	mov    0x14(%esi),%edx
    40db:	83 c6 10             	add    $0x10,%esi
    40de:	8b 41 14             	mov    0x14(%ecx),%eax
    40e1:	89 75 e8             	mov    %esi,-0x18(%ebp)
    40e4:	39 f2                	cmp    %esi,%edx
    40e6:	0f 84 27 02 00 00    	je     4313 <usb_hid_report_compare_usage_path+0x2b3>
    40ec:	83 c1 10             	add    $0x10,%ecx
    40ef:	89 4d ec             	mov    %ecx,-0x14(%ebp)
    40f2:	39 c8                	cmp    %ecx,%eax
    40f4:	0f 84 24 02 00 00    	je     431e <usb_hid_report_compare_usage_path+0x2be>
    40fa:	85 db                	test   %ebx,%ebx
    40fc:	74 53                	je     4151 <usb_hid_report_compare_usage_path+0xf1>
    40fe:	8b 75 e8             	mov    -0x18(%ebp),%esi
    4101:	89 cf                	mov    %ecx,%edi
    4103:	eb 0b                	jmp    4110 <usb_hid_report_compare_usage_path+0xb0>
    4105:	8d 76 00             	lea    0x0(%esi),%esi
    4108:	39 f8                	cmp    %edi,%eax
    410a:	0f 84 0e 02 00 00    	je     431e <usb_hid_report_compare_usage_path+0x2be>
    4110:	8b 4a f4             	mov    -0xc(%edx),%ecx
    4113:	8b 58 f4             	mov    -0xc(%eax),%ebx
    4116:	39 d9                	cmp    %ebx,%ecx
    4118:	74 0c                	je     4126 <usb_hid_report_compare_usage_path+0xc6>
    411a:	85 c9                	test   %ecx,%ecx
    411c:	74 08                	je     4126 <usb_hid_report_compare_usage_path+0xc6>
    411e:	85 db                	test   %ebx,%ebx
    4120:	0f 85 e2 00 00 00    	jne    4208 <usb_hid_report_compare_usage_path+0x1a8>
    4126:	8b 52 04             	mov    0x4(%edx),%edx
    4129:	8b 40 04             	mov    0x4(%eax),%eax
    412c:	39 f2                	cmp    %esi,%edx
    412e:	75 d8                	jne    4108 <usb_hid_report_compare_usage_path+0xa8>
    4130:	3b 45 ec             	cmp    -0x14(%ebp),%eax
    4133:	0f 95 c0             	setne  %al
    4136:	83 c4 0c             	add    $0xc,%esp
    4139:	25 ff 00 00 00       	and    $0xff,%eax
    413e:	5b                   	pop    %ebx
    413f:	5e                   	pop    %esi
    4140:	5f                   	pop    %edi
    4141:	5d                   	pop    %ebp
    4142:	c3                   	ret    
    4143:	90                   	nop
    4144:	8d 74 26 00          	lea    0x0(%esi,%eiz,1),%esi
    4148:	3b 45 ec             	cmp    -0x14(%ebp),%eax
    414b:	0f 84 cd 01 00 00    	je     431e <usb_hid_report_compare_usage_path+0x2be>
    4151:	8b 4a f4             	mov    -0xc(%edx),%ecx
    4154:	8b 58 f4             	mov    -0xc(%eax),%ebx
    4157:	8d 7a f4             	lea    -0xc(%edx),%edi
    415a:	8d 70 f4             	lea    -0xc(%eax),%esi
    415d:	39 d9                	cmp    %ebx,%ecx
    415f:	74 0c                	je     416d <usb_hid_report_compare_usage_path+0x10d>
    4161:	85 c9                	test   %ecx,%ecx
    4163:	74 08                	je     416d <usb_hid_report_compare_usage_path+0x10d>
    4165:	85 db                	test   %ebx,%ebx
    4167:	0f 85 9b 00 00 00    	jne    4208 <usb_hid_report_compare_usage_path+0x1a8>
    416d:	8b 4f 04             	mov    0x4(%edi),%ecx
    4170:	8b 5e 04             	mov    0x4(%esi),%ebx
    4173:	39 d9                	cmp    %ebx,%ecx
    4175:	74 0c                	je     4183 <usb_hid_report_compare_usage_path+0x123>
    4177:	85 c9                	test   %ecx,%ecx
    4179:	74 08                	je     4183 <usb_hid_report_compare_usage_path+0x123>
    417b:	85 db                	test   %ebx,%ebx
    417d:	0f 85 85 00 00 00    	jne    4208 <usb_hid_report_compare_usage_path+0x1a8>
    4183:	8b 52 04             	mov    0x4(%edx),%edx
    4186:	8b 40 04             	mov    0x4(%eax),%eax
    4189:	3b 55 e8             	cmp    -0x18(%ebp),%edx
    418c:	75 ba                	jne    4148 <usb_hid_report_compare_usage_path+0xe8>
    418e:	eb a0                	jmp    4130 <usb_hid_report_compare_usage_path+0xd0>
    4190:	b8 01 00 00 00       	mov    $0x1,%eax
    4195:	4a                   	dec    %edx
    4196:	0f 85 24 ff ff ff    	jne    40c0 <usb_hid_report_compare_usage_path+0x60>
    419c:	8b 41 14             	mov    0x14(%ecx),%eax
    419f:	83 c1 10             	add    $0x10,%ecx
    41a2:	39 c8                	cmp    %ecx,%eax
    41a4:	0f 84 5f 01 00 00    	je     4309 <usb_hid_report_compare_usage_path+0x2a9>
    41aa:	8d 48 f4             	lea    -0xc(%eax),%ecx
    41ad:	8b 46 14             	mov    0x14(%esi),%eax
    41b0:	83 c6 10             	add    $0x10,%esi
    41b3:	39 f0                	cmp    %esi,%eax
    41b5:	74 51                	je     4208 <usb_hid_report_compare_usage_path+0x1a8>
    41b7:	8b 39                	mov    (%ecx),%edi
    41b9:	85 ff                	test   %edi,%edi
    41bb:	0f 84 1e 01 00 00    	je     42df <usb_hid_report_compare_usage_path+0x27f>
    41c1:	85 db                	test   %ebx,%ebx
    41c3:	0f 85 03 01 00 00    	jne    42cc <usb_hid_report_compare_usage_path+0x26c>
    41c9:	8d b4 26 00 00 00 00 	lea    0x0(%esi,%eiz,1),%esi
    41d0:	8b 50 f4             	mov    -0xc(%eax),%edx
    41d3:	8d 58 f4             	lea    -0xc(%eax),%ebx
    41d6:	39 fa                	cmp    %edi,%edx
    41d8:	74 04                	je     41de <usb_hid_report_compare_usage_path+0x17e>
    41da:	85 d2                	test   %edx,%edx
    41dc:	75 1e                	jne    41fc <usb_hid_report_compare_usage_path+0x19c>
    41de:	8b 53 04             	mov    0x4(%ebx),%edx
    41e1:	8b 59 04             	mov    0x4(%ecx),%ebx
    41e4:	39 da                	cmp    %ebx,%edx
    41e6:	0f 84 ec 00 00 00    	je     42d8 <usb_hid_report_compare_usage_path+0x278>
    41ec:	85 d2                	test   %edx,%edx
    41ee:	0f 84 e4 00 00 00    	je     42d8 <usb_hid_report_compare_usage_path+0x278>
    41f4:	85 db                	test   %ebx,%ebx
    41f6:	0f 84 dc 00 00 00    	je     42d8 <usb_hid_report_compare_usage_path+0x278>
    41fc:	8b 40 04             	mov    0x4(%eax),%eax
    41ff:	39 f0                	cmp    %esi,%eax
    4201:	75 cd                	jne    41d0 <usb_hid_report_compare_usage_path+0x170>
    4203:	90                   	nop
    4204:	8d 74 26 00          	lea    0x0(%esi,%eiz,1),%esi
    4208:	b8 01 00 00 00       	mov    $0x1,%eax
    420d:	e9 ae fe ff ff       	jmp    40c0 <usb_hid_report_compare_usage_path+0x60>
    4212:	8d b6 00 00 00 00    	lea    0x0(%esi),%esi
    4218:	8d 79 10             	lea    0x10(%ecx),%edi
    421b:	8b 56 10             	mov    0x10(%esi),%edx
    421e:	8b 41 10             	mov    0x10(%ecx),%eax
    4221:	89 7d ec             	mov    %edi,-0x14(%ebp)
    4224:	39 79 14             	cmp    %edi,0x14(%ecx)
    4227:	0f 84 ab 00 00 00    	je     42d8 <usb_hid_report_compare_usage_path+0x278>
    422d:	83 c6 10             	add    $0x10,%esi
    4230:	89 75 f0             	mov    %esi,-0x10(%ebp)
    4233:	39 f2                	cmp    %esi,%edx
    4235:	0f 84 f5 fe ff ff    	je     4130 <usb_hid_report_compare_usage_path+0xd0>
    423b:	39 f8                	cmp    %edi,%eax
    423d:	0f 84 ed fe ff ff    	je     4130 <usb_hid_report_compare_usage_path+0xd0>
    4243:	85 db                	test   %ebx,%ebx
    4245:	74 3a                	je     4281 <usb_hid_report_compare_usage_path+0x221>
    4247:	eb 0f                	jmp    4258 <usb_hid_report_compare_usage_path+0x1f8>
    4249:	8d b4 26 00 00 00 00 	lea    0x0(%esi,%eiz,1),%esi
    4250:	39 f8                	cmp    %edi,%eax
    4252:	0f 84 d8 fe ff ff    	je     4130 <usb_hid_report_compare_usage_path+0xd0>
    4258:	8b 4a f4             	mov    -0xc(%edx),%ecx
    425b:	8b 58 f4             	mov    -0xc(%eax),%ebx
    425e:	39 d9                	cmp    %ebx,%ecx
    4260:	74 08                	je     426a <usb_hid_report_compare_usage_path+0x20a>
    4262:	85 c9                	test   %ecx,%ecx
    4264:	74 04                	je     426a <usb_hid_report_compare_usage_path+0x20a>
    4266:	85 db                	test   %ebx,%ebx
    4268:	75 9e                	jne    4208 <usb_hid_report_compare_usage_path+0x1a8>
    426a:	8b 12                	mov    (%edx),%edx
    426c:	8b 00                	mov    (%eax),%eax
    426e:	39 f2                	cmp    %esi,%edx
    4270:	75 de                	jne    4250 <usb_hid_report_compare_usage_path+0x1f0>
    4272:	e9 b9 fe ff ff       	jmp    4130 <usb_hid_report_compare_usage_path+0xd0>
    4277:	90                   	nop
    4278:	3b 45 ec             	cmp    -0x14(%ebp),%eax
    427b:	0f 84 af fe ff ff    	je     4130 <usb_hid_report_compare_usage_path+0xd0>
    4281:	8b 4a f4             	mov    -0xc(%edx),%ecx
    4284:	8b 58 f4             	mov    -0xc(%eax),%ebx
    4287:	8d 7a f4             	lea    -0xc(%edx),%edi
    428a:	8d 70 f4             	lea    -0xc(%eax),%esi
    428d:	39 d9                	cmp    %ebx,%ecx
    428f:	74 0c                	je     429d <usb_hid_report_compare_usage_path+0x23d>
    4291:	85 c9                	test   %ecx,%ecx
    4293:	74 08                	je     429d <usb_hid_report_compare_usage_path+0x23d>
    4295:	85 db                	test   %ebx,%ebx
    4297:	0f 85 6b ff ff ff    	jne    4208 <usb_hid_report_compare_usage_path+0x1a8>
    429d:	8b 4f 04             	mov    0x4(%edi),%ecx
    42a0:	8b 5e 04             	mov    0x4(%esi),%ebx
    42a3:	39 d9                	cmp    %ebx,%ecx
    42a5:	74 0c                	je     42b3 <usb_hid_report_compare_usage_path+0x253>
    42a7:	85 c9                	test   %ecx,%ecx
    42a9:	74 08                	je     42b3 <usb_hid_report_compare_usage_path+0x253>
    42ab:	85 db                	test   %ebx,%ebx
    42ad:	0f 85 55 ff ff ff    	jne    4208 <usb_hid_report_compare_usage_path+0x1a8>
    42b3:	8b 12                	mov    (%edx),%edx
    42b5:	8b 00                	mov    (%eax),%eax
    42b7:	3b 55 f0             	cmp    -0x10(%ebp),%edx
    42ba:	75 bc                	jne    4278 <usb_hid_report_compare_usage_path+0x218>
    42bc:	e9 6f fe ff ff       	jmp    4130 <usb_hid_report_compare_usage_path+0xd0>
    42c1:	8b 40 04             	mov    0x4(%eax),%eax
    42c4:	39 f0                	cmp    %esi,%eax
    42c6:	0f 84 3c ff ff ff    	je     4208 <usb_hid_report_compare_usage_path+0x1a8>
    42cc:	8b 50 f4             	mov    -0xc(%eax),%edx
    42cf:	39 fa                	cmp    %edi,%edx
    42d1:	74 05                	je     42d8 <usb_hid_report_compare_usage_path+0x278>
    42d3:	85 d2                	test   %edx,%edx
    42d5:	75 ea                	jne    42c1 <usb_hid_report_compare_usage_path+0x261>
    42d7:	90                   	nop
    42d8:	31 c0                	xor    %eax,%eax
    42da:	e9 e1 fd ff ff       	jmp    40c0 <usb_hid_report_compare_usage_path+0x60>
    42df:	85 db                	test   %ebx,%ebx
    42e1:	75 f5                	jne    42d8 <usb_hid_report_compare_usage_path+0x278>
    42e3:	8b 49 04             	mov    0x4(%ecx),%ecx
    42e6:	eb 13                	jmp    42fb <usb_hid_report_compare_usage_path+0x29b>
    42e8:	85 d2                	test   %edx,%edx
    42ea:	74 ec                	je     42d8 <usb_hid_report_compare_usage_path+0x278>
    42ec:	85 c9                	test   %ecx,%ecx
    42ee:	74 e8                	je     42d8 <usb_hid_report_compare_usage_path+0x278>
    42f0:	8b 40 04             	mov    0x4(%eax),%eax
    42f3:	39 f0                	cmp    %esi,%eax
    42f5:	0f 84 0d ff ff ff    	je     4208 <usb_hid_report_compare_usage_path+0x1a8>
    42fb:	8b 50 f8             	mov    -0x8(%eax),%edx
    42fe:	39 ca                	cmp    %ecx,%edx
    4300:	75 e6                	jne    42e8 <usb_hid_report_compare_usage_path+0x288>
    4302:	31 c0                	xor    %eax,%eax
    4304:	e9 b7 fd ff ff       	jmp    40c0 <usb_hid_report_compare_usage_path+0x60>
    4309:	b9 f4 ff ff ff       	mov    $0xfffffff4,%ecx
    430e:	e9 9a fe ff ff       	jmp    41ad <usb_hid_report_compare_usage_path+0x14d>
    4313:	83 c1 10             	add    $0x10,%ecx
    4316:	89 4d ec             	mov    %ecx,-0x14(%ebp)
    4319:	e9 12 fe ff ff       	jmp    4130 <usb_hid_report_compare_usage_path+0xd0>
    431e:	f6 45 10 04          	testb  $0x4,0x10(%ebp)
    4322:	0f 85 08 fe ff ff    	jne    4130 <usb_hid_report_compare_usage_path+0xd0>
    4328:	e9 db fe ff ff       	jmp    4208 <usb_hid_report_compare_usage_path+0x1a8>
    432d:	8d 76 00             	lea    0x0(%esi),%esi

00004330 <usb_hid_report_path>:
    4330:	55                   	push   %ebp
    4331:	89 e5                	mov    %esp,%ebp
    4333:	83 ec 18             	sub    $0x18,%esp
    4336:	c7 04 24 18 00 00 00 	movl   $0x18,(%esp)
    433d:	e8 de 72 01 00       	call   1b620 <malloc>
    4342:	85 c0                	test   %eax,%eax
    4344:	74 21                	je     4367 <usb_hid_report_path+0x37>
    4346:	8d 50 10             	lea    0x10(%eax),%edx
    4349:	c7 00 00 00 00 00    	movl   $0x0,(%eax)
    434f:	c6 40 04 00          	movb   $0x0,0x4(%eax)
    4353:	c7 40 08 00 00 00 00 	movl   $0x0,0x8(%eax)
    435a:	c7 40 0c 00 00 00 00 	movl   $0x0,0xc(%eax)
    4361:	89 50 10             	mov    %edx,0x10(%eax)
    4364:	89 50 14             	mov    %edx,0x14(%eax)
    4367:	c9                   	leave  
    4368:	c3                   	ret    
    4369:	8d b4 26 00 00 00 00 	lea    0x0(%esi,%eiz,1),%esi

00004370 <usb_hid_report_path_free>:
    4370:	55                   	push   %ebp
    4371:	89 e5                	mov    %esp,%ebp
    4373:	57                   	push   %edi
    4374:	56                   	push   %esi
    4375:	53                   	push   %ebx
    4376:	83 ec 1c             	sub    $0x1c,%esp
    4379:	8b 5d 08             	mov    0x8(%ebp),%ebx
    437c:	85 db                	test   %ebx,%ebx
    437e:	74 70                	je     43f0 <usb_hid_report_path_free+0x80>
    4380:	8d 73 10             	lea    0x10(%ebx),%esi
    4383:	eb 34                	jmp    43b9 <usb_hid_report_path_free+0x49>
    4385:	8d 76 00             	lea    0x0(%esi),%esi
    4388:	8d 78 f4             	lea    -0xc(%eax),%edi
    438b:	8b 08                	mov    (%eax),%ecx
    438d:	85 c9                	test   %ecx,%ecx
    438f:	74 0e                	je     439f <usb_hid_report_path_free+0x2f>
    4391:	8b 50 04             	mov    0x4(%eax),%edx
    4394:	85 d2                	test   %edx,%edx
    4396:	74 07                	je     439f <usb_hid_report_path_free+0x2f>
    4398:	89 0a                	mov    %ecx,(%edx)
    439a:	8b 08                	mov    (%eax),%ecx
    439c:	89 51 04             	mov    %edx,0x4(%ecx)
    439f:	c7 00 00 00 00 00    	movl   $0x0,(%eax)
    43a5:	c7 40 04 00 00 00 00 	movl   $0x0,0x4(%eax)
    43ac:	8b 03                	mov    (%ebx),%eax
    43ae:	48                   	dec    %eax
    43af:	89 03                	mov    %eax,(%ebx)
    43b1:	89 3c 24             	mov    %edi,(%esp)
    43b4:	e8 77 73 01 00       	call   1b730 <free>
    43b9:	39 73 14             	cmp    %esi,0x14(%ebx)
    43bc:	74 12                	je     43d0 <usb_hid_report_path_free+0x60>
    43be:	8b 43 10             	mov    0x10(%ebx),%eax
    43c1:	39 f0                	cmp    %esi,%eax
    43c3:	75 c3                	jne    4388 <usb_hid_report_path_free+0x18>
    43c5:	bf f4 ff ff ff       	mov    $0xfffffff4,%edi
    43ca:	31 c0                	xor    %eax,%eax
    43cc:	eb bd                	jmp    438b <usb_hid_report_path_free+0x1b>
    43ce:	66 90                	xchg   %ax,%ax
    43d0:	8b 43 08             	mov    0x8(%ebx),%eax
    43d3:	85 c0                	test   %eax,%eax
    43d5:	75 21                	jne    43f8 <usb_hid_report_path_free+0x88>
    43d7:	8b 43 0c             	mov    0xc(%ebx),%eax
    43da:	85 c0                	test   %eax,%eax
    43dc:	75 1a                	jne    43f8 <usb_hid_report_path_free+0x88>
    43de:	89 5d 08             	mov    %ebx,0x8(%ebp)
    43e1:	83 c4 1c             	add    $0x1c,%esp
    43e4:	5b                   	pop    %ebx
    43e5:	5e                   	pop    %esi
    43e6:	5f                   	pop    %edi
    43e7:	5d                   	pop    %ebp
    43e8:	e9 43 73 01 00       	jmp    1b730 <free>
    43ed:	8d 76 00             	lea    0x0(%esi),%esi
    43f0:	83 c4 1c             	add    $0x1c,%esp
    43f3:	5b                   	pop    %ebx
    43f4:	5e                   	pop    %esi
    43f5:	5f                   	pop    %edi
    43f6:	5d                   	pop    %ebp
    43f7:	c3                   	ret    
    43f8:	c7 44 24 08 89 01 00 	movl   $0x189,0x8(%esp)
    43ff:	00 
    4400:	c7 44 24 04 d6 aa 02 	movl   $0x2aad6,0x4(%esp)
    4407:	00 
    4408:	c7 04 24 e4 aa 02 00 	movl   $0x2aae4,(%esp)
    440f:	e8 6c 1a 02 00       	call   25e80 <assert_abort>
    4414:	8d b6 00 00 00 00    	lea    0x0(%esi),%esi
    441a:	8d bf 00 00 00 00    	lea    0x0(%edi),%edi

00004420 <usb_hid_report_path_clone>:
    4420:	55                   	push   %ebp
    4421:	89 e5                	mov    %esp,%ebp
    4423:	57                   	push   %edi
    4424:	56                   	push   %esi
    4425:	53                   	push   %ebx
    4426:	83 ec 2c             	sub    $0x2c,%esp
    4429:	8b 5d 08             	mov    0x8(%ebp),%ebx
    442c:	c7 04 24 18 00 00 00 	movl   $0x18,(%esp)
    4433:	e8 e8 71 01 00       	call   1b620 <malloc>
    4438:	89 c7                	mov    %eax,%edi
    443a:	85 c0                	test   %eax,%eax
    443c:	0f 84 8f 00 00 00    	je     44d1 <usb_hid_report_path_clone+0xb1>
    4442:	8d 50 10             	lea    0x10(%eax),%edx
    4445:	c6 40 04 00          	movb   $0x0,0x4(%eax)
    4449:	89 50 14             	mov    %edx,0x14(%eax)
    444c:	c7 40 0c 00 00 00 00 	movl   $0x0,0xc(%eax)
    4453:	89 50 10             	mov    %edx,0x10(%eax)
    4456:	c7 40 08 00 00 00 00 	movl   $0x0,0x8(%eax)
    445d:	8a 4b 04             	mov    0x4(%ebx),%cl
    4460:	89 55 e4             	mov    %edx,-0x1c(%ebp)
    4463:	88 48 04             	mov    %cl,0x4(%eax)
    4466:	8d 53 10             	lea    0x10(%ebx),%edx
    4469:	c7 00 00 00 00 00    	movl   $0x0,(%eax)
    446f:	89 55 e0             	mov    %edx,-0x20(%ebp)
    4472:	39 53 14             	cmp    %edx,0x14(%ebx)
    4475:	74 5c                	je     44d3 <usb_hid_report_path_clone+0xb3>
    4477:	8b 5b 14             	mov    0x14(%ebx),%ebx
    447a:	75 45                	jne    44c1 <usb_hid_report_path_clone+0xa1>
    447c:	eb 55                	jmp    44d3 <usb_hid_report_path_clone+0xb3>
    447e:	66 90                	xchg   %ax,%ax
    4480:	8b 4b f4             	mov    -0xc(%ebx),%ecx
    4483:	c7 40 10 00 00 00 00 	movl   $0x0,0x10(%eax)
    448a:	c7 40 0c 00 00 00 00 	movl   $0x0,0xc(%eax)
    4491:	89 08                	mov    %ecx,(%eax)
    4493:	8b 4b f8             	mov    -0x8(%ebx),%ecx
    4496:	8d 50 0c             	lea    0xc(%eax),%edx
    4499:	89 48 04             	mov    %ecx,0x4(%eax)
    449c:	8a 4b fc             	mov    -0x4(%ebx),%cl
    449f:	88 48 08             	mov    %cl,0x8(%eax)
    44a2:	8b 4d e4             	mov    -0x1c(%ebp),%ecx
    44a5:	89 48 10             	mov    %ecx,0x10(%eax)
    44a8:	8b 4f 10             	mov    0x10(%edi),%ecx
    44ab:	89 48 0c             	mov    %ecx,0xc(%eax)
    44ae:	8b 07                	mov    (%edi),%eax
    44b0:	89 51 04             	mov    %edx,0x4(%ecx)
    44b3:	40                   	inc    %eax
    44b4:	8b 5b 04             	mov    0x4(%ebx),%ebx
    44b7:	89 57 10             	mov    %edx,0x10(%edi)
    44ba:	89 07                	mov    %eax,(%edi)
    44bc:	3b 5d e0             	cmp    -0x20(%ebp),%ebx
    44bf:	74 12                	je     44d3 <usb_hid_report_path_clone+0xb3>
    44c1:	c7 04 24 14 00 00 00 	movl   $0x14,(%esp)
    44c8:	e8 53 71 01 00       	call   1b620 <malloc>
    44cd:	85 c0                	test   %eax,%eax
    44cf:	75 af                	jne    4480 <usb_hid_report_path_clone+0x60>
    44d1:	31 ff                	xor    %edi,%edi
    44d3:	83 c4 2c             	add    $0x2c,%esp
    44d6:	89 f8                	mov    %edi,%eax
    44d8:	5b                   	pop    %ebx
    44d9:	5e                   	pop    %esi
    44da:	5f                   	pop    %edi
    44db:	5d                   	pop    %ebp
    44dc:	c3                   	ret    
    44dd:	8d 76 00             	lea    0x0(%esi),%esi

000044e0 <usb_hid_report_path_set_report_id>:
    44e0:	55                   	push   %ebp
    44e1:	89 e5                	mov    %esp,%ebp
    44e3:	8b 45 08             	mov    0x8(%ebp),%eax
    44e6:	8b 55 0c             	mov    0xc(%ebp),%edx
    44e9:	85 c0                	test   %eax,%eax
    44eb:	74 07                	je     44f4 <usb_hid_report_path_set_report_id+0x14>
    44ed:	88 50 04             	mov    %dl,0x4(%eax)
    44f0:	31 c0                	xor    %eax,%eax
    44f2:	5d                   	pop    %ebp
    44f3:	c3                   	ret    
    44f4:	b8 f2 ff ff ff       	mov    $0xfffffff2,%eax
    44f9:	5d                   	pop    %ebp
    44fa:	c3                   	ret    
    44fb:	66 90                	xchg   %ax,%ax
    44fd:	66 90                	xchg   %ax,%ax
    44ff:	90                   	nop

00004500 <usbhid_multimedia_usage_to_str>:
    4500:	55                   	push   %ebp
    4501:	b8 2f ab 02 00       	mov    $0x2ab2f,%eax
    4506:	89 e5                	mov    %esp,%ebp
    4508:	8b 55 08             	mov    0x8(%ebp),%edx
    450b:	81 fa 9c 02 00 00    	cmp    $0x29c,%edx
    4511:	77 07                	ja     451a <usbhid_multimedia_usage_to_str+0x1a>
    4513:	8b 04 95 80 c0 02 00 	mov    0x2c080(,%edx,4),%eax
    451a:	5d                   	pop    %ebp
    451b:	c3                   	ret    
    451c:	66 90                	xchg   %ax,%ax
    451e:	66 90                	xchg   %ax,%ax

00004520 <usb_get_info_by_handle>:
    4520:	55                   	push   %ebp
    4521:	89 e5                	mov    %esp,%ebp
    4523:	57                   	push   %edi
    4524:	56                   	push   %esi
    4525:	53                   	push   %ebx
    4526:	83 ec 3c             	sub    $0x3c,%esp
    4529:	8b 45 08             	mov    0x8(%ebp),%eax
    452c:	8b 75 10             	mov    0x10(%ebp),%esi
    452f:	c7 44 24 08 01 00 00 	movl   $0x1,0x8(%esp)
    4536:	00 
    4537:	89 44 24 04          	mov    %eax,0x4(%esp)
    453b:	c7 04 24 00 00 00 00 	movl   $0x0,(%esp)
    4542:	e8 49 83 00 00       	call   c890 <devman_parent_device_connect>
    4547:	89 c3                	mov    %eax,%ebx
    4549:	85 c0                	test   %eax,%eax
    454b:	0f 84 df 00 00 00    	je     4630 <usb_get_info_by_handle+0x110>
    4551:	89 04 24             	mov    %eax,(%esp)
    4554:	e8 07 a6 01 00       	call   1eb60 <async_exchange_begin>
    4559:	89 c7                	mov    %eax,%edi
    455b:	85 c0                	test   %eax,%eax
    455d:	0f 84 d4 00 00 00    	je     4637 <usb_get_info_by_handle+0x117>
    4563:	85 f6                	test   %esi,%esi
    4565:	74 19                	je     4580 <usb_get_info_by_handle+0x60>
    4567:	8d 45 dc             	lea    -0x24(%ebp),%eax
    456a:	89 3c 24             	mov    %edi,(%esp)
    456d:	89 44 24 04          	mov    %eax,0x4(%esp)
    4571:	e8 5a 53 00 00       	call   98d0 <usb_get_my_address>
    4576:	89 c1                	mov    %eax,%ecx
    4578:	85 c0                	test   %eax,%eax
    457a:	0f 85 80 00 00 00    	jne    4600 <usb_get_info_by_handle+0xe0>
    4580:	8b 45 0c             	mov    0xc(%ebp),%eax
    4583:	85 c0                	test   %eax,%eax
    4585:	74 15                	je     459c <usb_get_info_by_handle+0x7c>
    4587:	8d 45 e0             	lea    -0x20(%ebp),%eax
    458a:	89 3c 24             	mov    %edi,(%esp)
    458d:	89 44 24 04          	mov    %eax,0x4(%esp)
    4591:	e8 5a 54 00 00       	call   99f0 <usb_get_hc_handle>
    4596:	89 c1                	mov    %eax,%ecx
    4598:	85 c0                	test   %eax,%eax
    459a:	75 64                	jne    4600 <usb_get_info_by_handle+0xe0>
    459c:	8b 4d 14             	mov    0x14(%ebp),%ecx
    459f:	85 c9                	test   %ecx,%ecx
    45a1:	74 1a                	je     45bd <usb_get_info_by_handle+0x9d>
    45a3:	8d 45 e4             	lea    -0x1c(%ebp),%eax
    45a6:	89 3c 24             	mov    %edi,(%esp)
    45a9:	89 44 24 04          	mov    %eax,0x4(%esp)
    45ad:	e8 ae 53 00 00       	call   9960 <usb_get_my_interface>
    45b2:	89 c1                	mov    %eax,%ecx
    45b4:	83 f8 f5             	cmp    $0xfffffff5,%eax
    45b7:	74 67                	je     4620 <usb_get_info_by_handle+0x100>
    45b9:	85 c0                	test   %eax,%eax
    45bb:	75 43                	jne    4600 <usb_get_info_by_handle+0xe0>
    45bd:	8b 55 0c             	mov    0xc(%ebp),%edx
    45c0:	85 d2                	test   %edx,%edx
    45c2:	74 08                	je     45cc <usb_get_info_by_handle+0xac>
    45c4:	8b 55 0c             	mov    0xc(%ebp),%edx
    45c7:	8b 45 e0             	mov    -0x20(%ebp),%eax
    45ca:	89 02                	mov    %eax,(%edx)
    45cc:	85 f6                	test   %esi,%esi
    45ce:	74 06                	je     45d6 <usb_get_info_by_handle+0xb6>
    45d0:	8b 45 dc             	mov    -0x24(%ebp),%eax
    45d3:	66 89 06             	mov    %ax,(%esi)
    45d6:	8b 45 14             	mov    0x14(%ebp),%eax
    45d9:	85 c0                	test   %eax,%eax
    45db:	74 08                	je     45e5 <usb_get_info_by_handle+0xc5>
    45dd:	8b 55 14             	mov    0x14(%ebp),%edx
    45e0:	8b 45 e4             	mov    -0x1c(%ebp),%eax
    45e3:	89 02                	mov    %eax,(%edx)
    45e5:	89 3c 24             	mov    %edi,(%esp)
    45e8:	e8 e3 a8 01 00       	call   1eed0 <async_exchange_end>
    45ed:	89 1c 24             	mov    %ebx,(%esp)
    45f0:	e8 6b a4 01 00       	call   1ea60 <async_hangup>
    45f5:	31 c0                	xor    %eax,%eax
    45f7:	83 c4 3c             	add    $0x3c,%esp
    45fa:	5b                   	pop    %ebx
    45fb:	5e                   	pop    %esi
    45fc:	5f                   	pop    %edi
    45fd:	5d                   	pop    %ebp
    45fe:	c3                   	ret    
    45ff:	90                   	nop
    4600:	89 3c 24             	mov    %edi,(%esp)
    4603:	89 4d d4             	mov    %ecx,-0x2c(%ebp)
    4606:	e8 c5 a8 01 00       	call   1eed0 <async_exchange_end>
    460b:	89 1c 24             	mov    %ebx,(%esp)
    460e:	e8 4d a4 01 00       	call   1ea60 <async_hangup>
    4613:	8b 4d d4             	mov    -0x2c(%ebp),%ecx
    4616:	83 c4 3c             	add    $0x3c,%esp
    4619:	89 c8                	mov    %ecx,%eax
    461b:	5b                   	pop    %ebx
    461c:	5e                   	pop    %esi
    461d:	5f                   	pop    %edi
    461e:	5d                   	pop    %ebp
    461f:	c3                   	ret    
    4620:	8b 55 0c             	mov    0xc(%ebp),%edx
    4623:	c7 45 e4 ff ff ff ff 	movl   $0xffffffff,-0x1c(%ebp)
    462a:	85 d2                	test   %edx,%edx
    462c:	75 96                	jne    45c4 <usb_get_info_by_handle+0xa4>
    462e:	eb 9c                	jmp    45cc <usb_get_info_by_handle+0xac>
    4630:	b8 fe ff ff ff       	mov    $0xfffffffe,%eax
    4635:	eb c0                	jmp    45f7 <usb_get_info_by_handle+0xd7>
    4637:	89 1c 24             	mov    %ebx,(%esp)
    463a:	e8 21 a4 01 00       	call   1ea60 <async_hangup>
    463f:	b8 fe ff ff ff       	mov    $0xfffffffe,%eax
    4644:	eb b1                	jmp    45f7 <usb_get_info_by_handle+0xd7>
    4646:	8d 76 00             	lea    0x0(%esi),%esi
    4649:	8d bc 27 00 00 00 00 	lea    0x0(%edi,%eiz,1),%edi

00004650 <usb_resolve_device_handle>:
    4650:	55                   	push   %ebp
    4651:	89 e5                	mov    %esp,%ebp
    4653:	57                   	push   %edi
    4654:	56                   	push   %esi
    4655:	53                   	push   %ebx
    4656:	81 ec 6c 04 00 00    	sub    $0x46c,%esp
    465c:	8b 5d 08             	mov    0x8(%ebp),%ebx
    465f:	85 db                	test   %ebx,%ebx
    4661:	0f 84 35 04 00 00    	je     4a9c <usb_resolve_device_handle+0x44c>
    4667:	8d 85 e0 fb ff ff    	lea    -0x420(%ebp),%eax
    466d:	c7 44 24 0c 00 00 00 	movl   $0x0,0xc(%esp)
    4674:	00 
    4675:	89 44 24 10          	mov    %eax,0x10(%esp)
    4679:	8d 85 d8 fb ff ff    	lea    -0x428(%ebp),%eax
    467f:	c7 44 24 08 0a 00 00 	movl   $0xa,0x8(%esp)
    4686:	00 
    4687:	89 44 24 04          	mov    %eax,0x4(%esp)
    468b:	89 1c 24             	mov    %ebx,(%esp)
    468e:	c7 85 cc fb ff ff 00 	movl   $0x0,-0x434(%ebp)
    4695:	00 00 00 
    4698:	c7 85 d0 fb ff ff 00 	movl   $0x0,-0x430(%ebp)
    469f:	00 00 00 
    46a2:	e8 e9 c5 00 00       	call   10c90 <str_uint64_t>
    46a7:	85 c0                	test   %eax,%eax
    46a9:	75 18                	jne    46c3 <usb_resolve_device_handle+0x73>
    46ab:	8b 95 d8 fb ff ff    	mov    -0x428(%ebp),%edx
    46b1:	8a 02                	mov    (%edx),%al
    46b3:	3c 2e                	cmp    $0x2e,%al
    46b5:	0f 84 d5 00 00 00    	je     4790 <usb_resolve_device_handle+0x140>
    46bb:	3c 3a                	cmp    $0x3a,%al
    46bd:	0f 84 cd 00 00 00    	je     4790 <usb_resolve_device_handle+0x140>
    46c3:	89 1c 24             	mov    %ebx,(%esp)
    46c6:	e8 75 c0 00 00       	call   10740 <str_dup>
    46cb:	89 85 d0 fb ff ff    	mov    %eax,-0x430(%ebp)
    46d1:	85 c0                	test   %eax,%eax
    46d3:	0f 84 cd 03 00 00    	je     4aa6 <usb_resolve_device_handle+0x456>
    46d9:	66 c7 85 b4 fb ff ff 	movw   $0xffff,-0x44c(%ebp)
    46e0:	ff ff 
    46e2:	31 db                	xor    %ebx,%ebx
    46e4:	8d b5 c8 fb ff ff    	lea    -0x438(%ebp),%esi
    46ea:	c7 44 24 08 00 00 00 	movl   $0x0,0x8(%esp)
    46f1:	00 
    46f2:	89 74 24 04          	mov    %esi,0x4(%esp)
    46f6:	89 04 24             	mov    %eax,(%esp)
    46f9:	e8 d2 81 00 00       	call   c8d0 <devman_fun_get_handle>
    46fe:	85 c0                	test   %eax,%eax
    4700:	0f 85 ba 01 00 00    	jne    48c0 <usb_resolve_device_handle+0x270>
    4706:	88 9d b7 fb ff ff    	mov    %bl,-0x449(%ebp)
    470c:	8d b5 d4 fb ff ff    	lea    -0x42c(%ebp),%esi
    4712:	8d b6 00 00 00 00    	lea    0x0(%esi),%esi
    4718:	8b 85 d0 fb ff ff    	mov    -0x430(%ebp),%eax
    471e:	89 04 24             	mov    %eax,(%esp)
    4721:	e8 5a a2 00 00       	call   e980 <str_length>
    4726:	85 c0                	test   %eax,%eax
    4728:	0f 84 ba 01 00 00    	je     48e8 <usb_resolve_device_handle+0x298>
    472e:	8b 85 d0 fb ff ff    	mov    -0x430(%ebp),%eax
    4734:	c7 44 24 08 00 00 00 	movl   $0x0,0x8(%esp)
    473b:	00 
    473c:	89 74 24 04          	mov    %esi,0x4(%esp)
    4740:	89 04 24             	mov    %eax,(%esp)
    4743:	e8 88 81 00 00       	call   c8d0 <devman_fun_get_handle>
    4748:	85 c0                	test   %eax,%eax
    474a:	0f 85 70 01 00 00    	jne    48c0 <usb_resolve_device_handle+0x270>
    4750:	84 db                	test   %bl,%bl
    4752:	0f 84 00 02 00 00    	je     4958 <usb_resolve_device_handle+0x308>
    4758:	80 bd b7 fb ff ff 00 	cmpb   $0x0,-0x449(%ebp)
    475f:	0f 84 7e 02 00 00    	je     49e3 <usb_resolve_device_handle+0x393>
    4765:	84 db                	test   %bl,%bl
    4767:	0f 85 7b 01 00 00    	jne    48e8 <usb_resolve_device_handle+0x298>
    476d:	8b 85 d0 fb ff ff    	mov    -0x430(%ebp),%eax
    4773:	c7 44 24 04 2f 00 00 	movl   $0x2f,0x4(%esp)
    477a:	00 
    477b:	89 04 24             	mov    %eax,(%esp)
    477e:	e8 1d bd 00 00       	call   104a0 <str_rchr>
    4783:	85 c0                	test   %eax,%eax
    4785:	74 91                	je     4718 <usb_resolve_device_handle+0xc8>
    4787:	c6 00 00             	movb   $0x0,(%eax)
    478a:	eb 8c                	jmp    4718 <usb_resolve_device_handle+0xc8>
    478c:	8d 74 26 00          	lea    0x0(%esi,%eiz,1),%esi
    4790:	8d 85 dc fb ff ff    	lea    -0x424(%ebp),%eax
    4796:	42                   	inc    %edx
    4797:	89 44 24 10          	mov    %eax,0x10(%esp)
    479b:	8d 85 cc fb ff ff    	lea    -0x434(%ebp),%eax
    47a1:	c7 44 24 0c 00 00 00 	movl   $0x0,0xc(%esp)
    47a8:	00 
    47a9:	c7 44 24 08 0a 00 00 	movl   $0xa,0x8(%esp)
    47b0:	00 
    47b1:	89 44 24 04          	mov    %eax,0x4(%esp)
    47b5:	89 14 24             	mov    %edx,(%esp)
    47b8:	89 95 d8 fb ff ff    	mov    %edx,-0x428(%ebp)
    47be:	e8 4d c5 00 00       	call   10d10 <str_size_t>
    47c3:	85 c0                	test   %eax,%eax
    47c5:	0f 85 f8 fe ff ff    	jne    46c3 <usb_resolve_device_handle+0x73>
    47cb:	8d 85 c4 fb ff ff    	lea    -0x43c(%ebp),%eax
    47d1:	89 44 24 04          	mov    %eax,0x4(%esp)
    47d5:	8b 85 e0 fb ff ff    	mov    -0x420(%ebp),%eax
    47db:	89 04 24             	mov    %eax,(%esp)
    47de:	e8 2d 8f 00 00       	call   d710 <devman_fun_sid_to_handle>
    47e3:	85 c0                	test   %eax,%eax
    47e5:	0f 85 d8 fe ff ff    	jne    46c3 <usb_resolve_device_handle+0x73>
    47eb:	8b 85 c4 fb ff ff    	mov    -0x43c(%ebp),%eax
    47f1:	8b 95 dc fb ff ff    	mov    -0x424(%ebp),%edx
    47f7:	89 85 e8 fb ff ff    	mov    %eax,-0x418(%ebp)
    47fd:	8d 85 f0 fb ff ff    	lea    -0x410(%ebp),%eax
    4803:	89 04 24             	mov    %eax,(%esp)
    4806:	66 89 95 b4 fb ff ff 	mov    %dx,-0x44c(%ebp)
    480d:	c7 85 ec fb ff ff 00 	movl   $0x0,-0x414(%ebp)
    4814:	00 00 00 
    4817:	c7 85 00 fc ff ff 00 	movl   $0x0,-0x400(%ebp)
    481e:	00 00 00 
    4821:	e8 2a d2 00 00       	call   11a50 <fibril_mutex_initialize>
    4826:	8d 9d e8 fb ff ff    	lea    -0x418(%ebp),%ebx
    482c:	0f bf 85 b4 fb ff ff 	movswl -0x44c(%ebp),%eax
    4833:	8d b5 c8 fb ff ff    	lea    -0x438(%ebp),%esi
    4839:	89 44 24 04          	mov    %eax,0x4(%esp)
    483d:	89 74 24 08          	mov    %esi,0x8(%esp)
    4841:	89 1c 24             	mov    %ebx,(%esp)
    4844:	e8 97 08 00 00       	call   50e0 <usb_hc_get_handle_by_address>
    4849:	85 c0                	test   %eax,%eax
    484b:	0f 85 89 00 00 00    	jne    48da <usb_resolve_device_handle+0x28a>
    4851:	8b 85 cc fb ff ff    	mov    -0x434(%ebp),%eax
    4857:	89 04 24             	mov    %eax,(%esp)
    485a:	e8 21 a1 00 00       	call   e980 <str_length>
    485f:	85 c0                	test   %eax,%eax
    4861:	0f 84 a4 00 00 00    	je     490b <usb_resolve_device_handle+0x2bb>
    4867:	8b 85 c8 fb ff ff    	mov    -0x438(%ebp),%eax
    486d:	c7 44 24 08 00 04 00 	movl   $0x400,0x8(%esp)
    4874:	00 
    4875:	89 5c 24 04          	mov    %ebx,0x4(%esp)
    4879:	89 04 24             	mov    %eax,(%esp)
    487c:	e8 9f 82 00 00       	call   cb20 <devman_fun_get_path>
    4881:	85 c0                	test   %eax,%eax
    4883:	75 55                	jne    48da <usb_resolve_device_handle+0x28a>
    4885:	8b 85 cc fb ff ff    	mov    -0x434(%ebp),%eax
    488b:	89 5c 24 08          	mov    %ebx,0x8(%esp)
    488f:	89 44 24 0c          	mov    %eax,0xc(%esp)
    4893:	8d 85 d0 fb ff ff    	lea    -0x430(%ebp),%eax
    4899:	c7 44 24 04 f4 ca 02 	movl   $0x2caf4,0x4(%esp)
    48a0:	00 
    48a1:	89 04 24             	mov    %eax,(%esp)
    48a4:	e8 b7 ec 00 00       	call   13560 <asprintf>
    48a9:	85 c0                	test   %eax,%eax
    48ab:	0f 88 f5 01 00 00    	js     4aa6 <usb_resolve_device_handle+0x456>
    48b1:	8b 85 d0 fb ff ff    	mov    -0x430(%ebp),%eax
    48b7:	b3 01                	mov    $0x1,%bl
    48b9:	e9 2c fe ff ff       	jmp    46ea <usb_resolve_device_handle+0x9a>
    48be:	66 90                	xchg   %ax,%ax
    48c0:	8b 95 d0 fb ff ff    	mov    -0x430(%ebp),%edx
    48c6:	89 85 b0 fb ff ff    	mov    %eax,-0x450(%ebp)
    48cc:	89 14 24             	mov    %edx,(%esp)
    48cf:	e8 5c 6e 01 00       	call   1b730 <free>
    48d4:	8b 85 b0 fb ff ff    	mov    -0x450(%ebp),%eax
    48da:	81 c4 6c 04 00 00    	add    $0x46c,%esp
    48e0:	5b                   	pop    %ebx
    48e1:	5e                   	pop    %esi
    48e2:	5f                   	pop    %edi
    48e3:	5d                   	pop    %ebp
    48e4:	c3                   	ret    
    48e5:	8d 76 00             	lea    0x0(%esi),%esi
    48e8:	8b 85 d0 fb ff ff    	mov    -0x430(%ebp),%eax
    48ee:	89 04 24             	mov    %eax,(%esp)
    48f1:	e8 3a 6e 01 00       	call   1b730 <free>
    48f6:	84 db                	test   %bl,%bl
    48f8:	0f 84 b2 01 00 00    	je     4ab0 <usb_resolve_device_handle+0x460>
    48fe:	80 bd b7 fb ff ff 01 	cmpb   $0x1,-0x449(%ebp)
    4905:	0f 85 a5 01 00 00    	jne    4ab0 <usb_resolve_device_handle+0x460>
    490b:	8b 45 10             	mov    0x10(%ebp),%eax
    490e:	85 c0                	test   %eax,%eax
    4910:	74 0c                	je     491e <usb_resolve_device_handle+0x2ce>
    4912:	8b 55 10             	mov    0x10(%ebp),%edx
    4915:	8b 85 b4 fb ff ff    	mov    -0x44c(%ebp),%eax
    491b:	66 89 02             	mov    %ax,(%edx)
    491e:	8b 45 0c             	mov    0xc(%ebp),%eax
    4921:	85 c0                	test   %eax,%eax
    4923:	74 0b                	je     4930 <usb_resolve_device_handle+0x2e0>
    4925:	8b 55 0c             	mov    0xc(%ebp),%edx
    4928:	8b 85 c4 fb ff ff    	mov    -0x43c(%ebp),%eax
    492e:	89 02                	mov    %eax,(%edx)
    4930:	8b 45 14             	mov    0x14(%ebp),%eax
    4933:	85 c0                	test   %eax,%eax
    4935:	0f 84 5a 01 00 00    	je     4a95 <usb_resolve_device_handle+0x445>
    493b:	8b 55 14             	mov    0x14(%ebp),%edx
    493e:	8b 85 c8 fb ff ff    	mov    -0x438(%ebp),%eax
    4944:	89 02                	mov    %eax,(%edx)
    4946:	81 c4 6c 04 00 00    	add    $0x46c,%esp
    494c:	31 c0                	xor    %eax,%eax
    494e:	5b                   	pop    %ebx
    494f:	5e                   	pop    %esi
    4950:	5f                   	pop    %edi
    4951:	5d                   	pop    %ebp
    4952:	c3                   	ret    
    4953:	90                   	nop
    4954:	8d 74 26 00          	lea    0x0(%esi,%eiz,1),%esi
    4958:	8b 85 d4 fb ff ff    	mov    -0x42c(%ebp),%eax
    495e:	c7 44 24 08 01 00 00 	movl   $0x1,0x8(%esp)
    4965:	00 
    4966:	89 44 24 04          	mov    %eax,0x4(%esp)
    496a:	c7 04 24 00 00 00 00 	movl   $0x0,(%esp)
    4971:	e8 1a 7f 00 00       	call   c890 <devman_parent_device_connect>
    4976:	89 c7                	mov    %eax,%edi
    4978:	85 c0                	test   %eax,%eax
    497a:	0f 84 d8 fd ff ff    	je     4758 <usb_resolve_device_handle+0x108>
    4980:	89 04 24             	mov    %eax,(%esp)
    4983:	e8 d8 a1 01 00       	call   1eb60 <async_exchange_begin>
    4988:	89 c2                	mov    %eax,%edx
    498a:	85 c0                	test   %eax,%eax
    498c:	0f 84 de 00 00 00    	je     4a70 <usb_resolve_device_handle+0x420>
    4992:	8d 85 dc fb ff ff    	lea    -0x424(%ebp),%eax
    4998:	89 14 24             	mov    %edx,(%esp)
    499b:	89 44 24 04          	mov    %eax,0x4(%esp)
    499f:	89 95 b0 fb ff ff    	mov    %edx,-0x450(%ebp)
    49a5:	e8 46 50 00 00       	call   99f0 <usb_get_hc_handle>
    49aa:	8b 95 b0 fb ff ff    	mov    -0x450(%ebp),%edx
    49b0:	85 c0                	test   %eax,%eax
    49b2:	0f 85 b0 00 00 00    	jne    4a68 <usb_resolve_device_handle+0x418>
    49b8:	8b 85 dc fb ff ff    	mov    -0x424(%ebp),%eax
    49be:	89 14 24             	mov    %edx,(%esp)
    49c1:	89 85 c4 fb ff ff    	mov    %eax,-0x43c(%ebp)
    49c7:	e8 04 a5 01 00       	call   1eed0 <async_exchange_end>
    49cc:	89 3c 24             	mov    %edi,(%esp)
    49cf:	b3 01                	mov    $0x1,%bl
    49d1:	e8 8a a0 01 00       	call   1ea60 <async_hangup>
    49d6:	80 bd b7 fb ff ff 00 	cmpb   $0x0,-0x449(%ebp)
    49dd:	0f 85 82 fd ff ff    	jne    4765 <usb_resolve_device_handle+0x115>
    49e3:	8b 85 d4 fb ff ff    	mov    -0x42c(%ebp),%eax
    49e9:	c7 44 24 08 01 00 00 	movl   $0x1,0x8(%esp)
    49f0:	00 
    49f1:	89 44 24 04          	mov    %eax,0x4(%esp)
    49f5:	c7 04 24 00 00 00 00 	movl   $0x0,(%esp)
    49fc:	e8 8f 7e 00 00       	call   c890 <devman_parent_device_connect>
    4a01:	89 c7                	mov    %eax,%edi
    4a03:	85 c0                	test   %eax,%eax
    4a05:	0f 84 62 fd ff ff    	je     476d <usb_resolve_device_handle+0x11d>
    4a0b:	89 04 24             	mov    %eax,(%esp)
    4a0e:	e8 4d a1 01 00       	call   1eb60 <async_exchange_begin>
    4a13:	89 c2                	mov    %eax,%edx
    4a15:	85 c0                	test   %eax,%eax
    4a17:	74 6f                	je     4a88 <usb_resolve_device_handle+0x438>
    4a19:	8d 85 c0 fb ff ff    	lea    -0x440(%ebp),%eax
    4a1f:	89 14 24             	mov    %edx,(%esp)
    4a22:	89 44 24 04          	mov    %eax,0x4(%esp)
    4a26:	89 95 b0 fb ff ff    	mov    %edx,-0x450(%ebp)
    4a2c:	e8 9f 4e 00 00       	call   98d0 <usb_get_my_address>
    4a31:	8b 95 b0 fb ff ff    	mov    -0x450(%ebp),%edx
    4a37:	85 c0                	test   %eax,%eax
    4a39:	75 45                	jne    4a80 <usb_resolve_device_handle+0x430>
    4a3b:	8b 85 c0 fb ff ff    	mov    -0x440(%ebp),%eax
    4a41:	89 14 24             	mov    %edx,(%esp)
    4a44:	66 89 85 b4 fb ff ff 	mov    %ax,-0x44c(%ebp)
    4a4b:	e8 80 a4 01 00       	call   1eed0 <async_exchange_end>
    4a50:	89 3c 24             	mov    %edi,(%esp)
    4a53:	e8 08 a0 01 00       	call   1ea60 <async_hangup>
    4a58:	c6 85 b7 fb ff ff 01 	movb   $0x1,-0x449(%ebp)
    4a5f:	e9 01 fd ff ff       	jmp    4765 <usb_resolve_device_handle+0x115>
    4a64:	8d 74 26 00          	lea    0x0(%esi,%eiz,1),%esi
