
vhc:     file format elf32-i386


Disassembly of section .init:

00001094 <__entry>:
    1094:	66 8c d0             	mov    %ss,%ax
    1097:	8e d8                	mov    %eax,%ds
    1099:	8e c0                	mov    %eax,%es
    109b:	8e e0                	mov    %eax,%fs
    109d:	b8 01 00 00 00       	mov    $0x1,%eax
    10a2:	0f a2                	cpuid  
    10a4:	0f ba e2 0b          	bt     $0xb,%edx
    10a8:	73 0c                	jae    10b6 <__entry+0x22>
    10aa:	8d 05 70 3d 03 00    	lea    0x33d70,%eax
    10b0:	c7 00 e7 ae 02 00    	movl   $0x2aee7,(%eax)
    10b6:	6a 00                	push   $0x0
    10b8:	89 e5                	mov    %esp,%ebp
    10ba:	57                   	push   %edi
    10bb:	e8 a0 fa 00 00       	call   10b60 <__main>

Disassembly of section .text:

000010c0 <virthub_init>:
    10c0:	55                   	push   %ebp
    10c1:	89 e5                	mov    %esp,%ebp
    10c3:	56                   	push   %esi
    10c4:	53                   	push   %ebx
    10c5:	83 ec 10             	sub    $0x10,%esp
    10c8:	8b 5d 08             	mov    0x8(%ebp),%ebx
    10cb:	85 db                	test   %ebx,%ebx
    10cd:	74 39                	je     1108 <virthub_init+0x48>
    10cf:	c7 43 08 e0 35 03 00 	movl   $0x335e0,0x8(%ebx)
    10d6:	c7 43 0c 60 35 03 00 	movl   $0x33560,0xc(%ebx)
    10dd:	c7 04 24 40 00 00 00 	movl   $0x40,(%esp)
    10e4:	e8 47 f3 01 00       	call   20430 <malloc>
    10e9:	89 c6                	mov    %eax,%esi
    10eb:	85 c0                	test   %eax,%eax
    10ed:	74 21                	je     1110 <virthub_init+0x50>
    10ef:	89 04 24             	mov    %eax,(%esp)
    10f2:	e8 89 02 00 00       	call   1380 <hub_init>
    10f7:	89 73 04             	mov    %esi,0x4(%ebx)
    10fa:	31 c0                	xor    %eax,%eax
    10fc:	83 c4 10             	add    $0x10,%esp
    10ff:	5b                   	pop    %ebx
    1100:	5e                   	pop    %esi
    1101:	5d                   	pop    %ebp
    1102:	c3                   	ret    
    1103:	90                   	nop
    1104:	8d 74 26 00          	lea    0x0(%esi,%eiz,1),%esi
    1108:	b8 f6 ff ff ff       	mov    $0xfffffff6,%eax
    110d:	eb ed                	jmp    10fc <virthub_init+0x3c>
    110f:	90                   	nop
    1110:	b8 fe ff ff ff       	mov    $0xfffffffe,%eax
    1115:	eb e5                	jmp    10fc <virthub_init+0x3c>
    1117:	89 f6                	mov    %esi,%esi
    1119:	8d bc 27 00 00 00 00 	lea    0x0(%edi,%eiz,1),%edi

00001120 <virthub_connect_device>:
    1120:	55                   	push   %ebp
    1121:	89 e5                	mov    %esp,%ebp
    1123:	56                   	push   %esi
    1124:	53                   	push   %ebx
    1125:	83 ec 20             	sub    $0x20,%esp
    1128:	8b 45 08             	mov    0x8(%ebp),%eax
    112b:	8b 75 0c             	mov    0xc(%ebp),%esi
    112e:	85 c0                	test   %eax,%eax
    1130:	74 30                	je     1162 <virthub_connect_device+0x42>
    1132:	85 f6                	test   %esi,%esi
    1134:	74 48                	je     117e <virthub_connect_device+0x5e>
    1136:	8b 58 04             	mov    0x4(%eax),%ebx
    1139:	89 1c 24             	mov    %ebx,(%esp)
    113c:	e8 ff 03 00 00       	call   1540 <hub_acquire>
    1141:	89 74 24 04          	mov    %esi,0x4(%esp)
    1145:	89 1c 24             	mov    %ebx,(%esp)
    1148:	e8 93 02 00 00       	call   13e0 <hub_connect_device>
    114d:	89 1c 24             	mov    %ebx,(%esp)
    1150:	89 45 f4             	mov    %eax,-0xc(%ebp)
    1153:	e8 08 04 00 00       	call   1560 <hub_release>
    1158:	8b 45 f4             	mov    -0xc(%ebp),%eax
    115b:	83 c4 20             	add    $0x20,%esp
    115e:	5b                   	pop    %ebx
    115f:	5e                   	pop    %esi
    1160:	5d                   	pop    %ebp
    1161:	c3                   	ret    
    1162:	c7 44 24 08 ae 00 00 	movl   $0xae,0x8(%esp)
    1169:	00 
    116a:	c7 44 24 04 b2 f4 02 	movl   $0x2f4b2,0x4(%esp)
    1171:	00 
    1172:	c7 04 24 c0 f4 02 00 	movl   $0x2f4c0,(%esp)
    1179:	e8 12 9b 02 00       	call   2ac90 <assert_abort>
    117e:	c7 44 24 08 af 00 00 	movl   $0xaf,0x8(%esp)
    1185:	00 
    1186:	c7 44 24 04 b2 f4 02 	movl   $0x2f4b2,0x4(%esp)
    118d:	00 
    118e:	c7 04 24 cc f4 02 00 	movl   $0x2f4cc,(%esp)
    1195:	e8 f6 9a 02 00       	call   2ac90 <assert_abort>
    119a:	8d b6 00 00 00 00    	lea    0x0(%esi),%esi

000011a0 <virthub_disconnect_device>:
    11a0:	55                   	push   %ebp
    11a1:	89 e5                	mov    %esp,%ebp
    11a3:	56                   	push   %esi
    11a4:	53                   	push   %ebx
    11a5:	83 ec 10             	sub    $0x10,%esp
    11a8:	8b 45 08             	mov    0x8(%ebp),%eax
    11ab:	8b 75 0c             	mov    0xc(%ebp),%esi
    11ae:	85 c0                	test   %eax,%eax
    11b0:	74 2c                	je     11de <virthub_disconnect_device+0x3e>
    11b2:	85 f6                	test   %esi,%esi
    11b4:	74 44                	je     11fa <virthub_disconnect_device+0x5a>
    11b6:	8b 58 04             	mov    0x4(%eax),%ebx
    11b9:	89 1c 24             	mov    %ebx,(%esp)
    11bc:	e8 7f 03 00 00       	call   1540 <hub_acquire>
    11c1:	89 74 24 04          	mov    %esi,0x4(%esp)
    11c5:	89 1c 24             	mov    %ebx,(%esp)
    11c8:	e8 b3 02 00 00       	call   1480 <hub_disconnect_device>
    11cd:	89 1c 24             	mov    %ebx,(%esp)
    11d0:	e8 8b 03 00 00       	call   1560 <hub_release>
    11d5:	83 c4 10             	add    $0x10,%esp
    11d8:	31 c0                	xor    %eax,%eax
    11da:	5b                   	pop    %ebx
    11db:	5e                   	pop    %esi
    11dc:	5d                   	pop    %ebp
    11dd:	c3                   	ret    
    11de:	c7 44 24 08 c2 00 00 	movl   $0xc2,0x8(%esp)
    11e5:	00 
    11e6:	c7 44 24 04 b2 f4 02 	movl   $0x2f4b2,0x4(%esp)
    11ed:	00 
    11ee:	c7 04 24 c0 f4 02 00 	movl   $0x2f4c0,(%esp)
    11f5:	e8 96 9a 02 00       	call   2ac90 <assert_abort>
    11fa:	c7 44 24 08 c3 00 00 	movl   $0xc3,0x8(%esp)
    1201:	00 
    1202:	c7 44 24 04 b2 f4 02 	movl   $0x2f4b2,0x4(%esp)
    1209:	00 
    120a:	c7 04 24 cc f4 02 00 	movl   $0x2f4cc,(%esp)
    1211:	e8 7a 9a 02 00       	call   2ac90 <assert_abort>
    1216:	8d 76 00             	lea    0x0(%esi),%esi
    1219:	8d bc 27 00 00 00 00 	lea    0x0(%edi,%eiz,1),%edi

00001220 <virthub_is_device_enabled>:
    1220:	55                   	push   %ebp
    1221:	89 e5                	mov    %esp,%ebp
    1223:	56                   	push   %esi
    1224:	53                   	push   %ebx
    1225:	83 ec 10             	sub    $0x10,%esp
    1228:	8b 45 08             	mov    0x8(%ebp),%eax
    122b:	8b 75 0c             	mov    0xc(%ebp),%esi
    122e:	85 c0                	test   %eax,%eax
    1230:	74 47                	je     1279 <virthub_is_device_enabled+0x59>
    1232:	85 f6                	test   %esi,%esi
    1234:	74 5f                	je     1295 <virthub_is_device_enabled+0x75>
    1236:	8b 58 04             	mov    0x4(%eax),%ebx
    1239:	89 1c 24             	mov    %ebx,(%esp)
    123c:	e8 ff 02 00 00       	call   1540 <hub_acquire>
    1241:	89 74 24 04          	mov    %esi,0x4(%esp)
    1245:	89 1c 24             	mov    %ebx,(%esp)
    1248:	31 f6                	xor    %esi,%esi
    124a:	e8 c1 02 00 00       	call   1510 <hub_find_device>
    124f:	83 f8 ff             	cmp    $0xffffffff,%eax
    1252:	74 14                	je     1268 <virthub_is_device_enabled+0x48>
    1254:	89 44 24 04          	mov    %eax,0x4(%esp)
    1258:	89 1c 24             	mov    %ebx,(%esp)
    125b:	e8 a0 05 00 00       	call   1800 <hub_get_port_state>
    1260:	83 f8 06             	cmp    $0x6,%eax
    1263:	0f 94 c0             	sete   %al
    1266:	89 c6                	mov    %eax,%esi
    1268:	89 1c 24             	mov    %ebx,(%esp)
    126b:	e8 f0 02 00 00       	call   1560 <hub_release>
    1270:	83 c4 10             	add    $0x10,%esp
    1273:	89 f0                	mov    %esi,%eax
    1275:	5b                   	pop    %ebx
    1276:	5e                   	pop    %esi
    1277:	5d                   	pop    %ebp
    1278:	c3                   	ret    
    1279:	c7 44 24 08 d6 00 00 	movl   $0xd6,0x8(%esp)
    1280:	00 
    1281:	c7 44 24 04 b2 f4 02 	movl   $0x2f4b2,0x4(%esp)
    1288:	00 
    1289:	c7 04 24 c0 f4 02 00 	movl   $0x2f4c0,(%esp)
    1290:	e8 fb 99 02 00       	call   2ac90 <assert_abort>
    1295:	c7 44 24 08 d7 00 00 	movl   $0xd7,0x8(%esp)
    129c:	00 
    129d:	c7 44 24 04 b2 f4 02 	movl   $0x2f4b2,0x4(%esp)
    12a4:	00 
    12a5:	c7 04 24 cc f4 02 00 	movl   $0x2f4cc,(%esp)
    12ac:	e8 df 99 02 00       	call   2ac90 <assert_abort>
    12b1:	eb 0d                	jmp    12c0 <virthub_get_status>
    12b3:	90                   	nop
    12b4:	90                   	nop
    12b5:	90                   	nop
    12b6:	90                   	nop
    12b7:	90                   	nop
    12b8:	90                   	nop
    12b9:	90                   	nop
    12ba:	90                   	nop
    12bb:	90                   	nop
    12bc:	90                   	nop
    12bd:	90                   	nop
    12be:	90                   	nop
    12bf:	90                   	nop

000012c0 <virthub_get_status>:
    12c0:	55                   	push   %ebp
    12c1:	89 e5                	mov    %esp,%ebp
    12c3:	56                   	push   %esi
    12c4:	53                   	push   %ebx
    12c5:	83 ec 20             	sub    $0x20,%esp
    12c8:	8b 45 08             	mov    0x8(%ebp),%eax
    12cb:	8b 5d 10             	mov    0x10(%ebp),%ebx
    12ce:	85 c0                	test   %eax,%eax
    12d0:	74 70                	je     1342 <virthub_get_status+0x82>
    12d2:	85 db                	test   %ebx,%ebx
    12d4:	75 0a                	jne    12e0 <virthub_get_status+0x20>
    12d6:	83 c4 20             	add    $0x20,%esp
    12d9:	5b                   	pop    %ebx
    12da:	5e                   	pop    %esi
    12db:	5d                   	pop    %ebp
    12dc:	c3                   	ret    
    12dd:	8d 76 00             	lea    0x0(%esi),%esi
    12e0:	8b 70 04             	mov    0x4(%eax),%esi
    12e3:	c7 44 24 04 00 00 00 	movl   $0x0,0x4(%esp)
    12ea:	00 
    12eb:	89 34 24             	mov    %esi,(%esp)
    12ee:	e8 0d 05 00 00       	call   1800 <hub_get_port_state>
    12f3:	89 04 24             	mov    %eax,(%esp)
    12f6:	e8 65 00 00 00       	call   1360 <hub_port_state_to_char>
    12fb:	89 34 24             	mov    %esi,(%esp)
    12fe:	c7 44 24 04 01 00 00 	movl   $0x1,0x4(%esp)
    1305:	00 
    1306:	88 45 f5             	mov    %al,-0xb(%ebp)
    1309:	e8 f2 04 00 00       	call   1800 <hub_get_port_state>
    130e:	89 04 24             	mov    %eax,(%esp)
    1311:	e8 4a 00 00 00       	call   1360 <hub_port_state_to_char>
    1316:	89 5c 24 04          	mov    %ebx,0x4(%esp)
    131a:	88 45 f6             	mov    %al,-0xa(%ebp)
    131d:	8d 45 f5             	lea    -0xb(%ebp),%eax
    1320:	89 44 24 0c          	mov    %eax,0xc(%esp)
    1324:	8b 45 0c             	mov    0xc(%ebp),%eax
    1327:	c7 44 24 08 d9 f4 02 	movl   $0x2f4d9,0x8(%esp)
    132e:	00 
    132f:	89 04 24             	mov    %eax,(%esp)
    1332:	c6 45 f7 00          	movb   $0x0,-0x9(%ebp)
    1336:	e8 15 a5 01 00       	call   1b850 <snprintf>
    133b:	83 c4 20             	add    $0x20,%esp
    133e:	5b                   	pop    %ebx
    133f:	5e                   	pop    %esi
    1340:	5d                   	pop    %ebp
    1341:	c3                   	ret    
    1342:	c7 44 24 08 ef 00 00 	movl   $0xef,0x8(%esp)
    1349:	00 
    134a:	c7 44 24 04 b2 f4 02 	movl   $0x2f4b2,0x4(%esp)
    1351:	00 
    1352:	c7 04 24 c0 f4 02 00 	movl   $0x2f4c0,(%esp)
    1359:	e8 32 99 02 00       	call   2ac90 <assert_abort>
    135e:	66 90                	xchg   %ax,%ax

00001360 <hub_port_state_to_char>:
    1360:	55                   	push   %ebp
    1361:	b0 3f                	mov    $0x3f,%al
    1363:	89 e5                	mov    %esp,%ebp
    1365:	8b 55 08             	mov    0x8(%ebp),%edx
    1368:	4a                   	dec    %edx
    1369:	83 fa 07             	cmp    $0x7,%edx
    136c:	77 06                	ja     1374 <hub_port_state_to_char+0x14>
    136e:	8a 82 63 f5 02 00    	mov    0x2f563(%edx),%al
    1374:	5d                   	pop    %ebp
    1375:	c3                   	ret    
    1376:	8d 76 00             	lea    0x0(%esi),%esi
    1379:	8d bc 27 00 00 00 00 	lea    0x0(%edi,%eiz,1),%edi

00001380 <hub_init>:
    1380:	55                   	push   %ebp
    1381:	89 e5                	mov    %esp,%ebp
    1383:	8b 45 08             	mov    0x8(%ebp),%eax
    1386:	c7 00 00 00 00 00    	movl   $0x0,(%eax)
    138c:	c7 40 04 01 00 00 00 	movl   $0x1,0x4(%eax)
    1393:	c7 40 08 01 00 00 00 	movl   $0x1,0x8(%eax)
    139a:	66 c7 40 0c 00 00    	movw   $0x0,0xc(%eax)
    13a0:	89 40 10             	mov    %eax,0x10(%eax)
    13a3:	c7 40 14 00 00 00 00 	movl   $0x0,0x14(%eax)
    13aa:	c7 40 18 02 00 00 00 	movl   $0x2,0x18(%eax)
    13b1:	c7 40 1c 01 00 00 00 	movl   $0x1,0x1c(%eax)
    13b8:	66 c7 40 20 00 00    	movw   $0x0,0x20(%eax)
    13be:	89 40 24             	mov    %eax,0x24(%eax)
    13c1:	c7 40 28 00 00 00 00 	movl   $0x0,0x28(%eax)
    13c8:	c6 40 3c 01          	movb   $0x1,0x3c(%eax)
    13cc:	83 c0 2c             	add    $0x2c,%eax
    13cf:	89 45 08             	mov    %eax,0x8(%ebp)
    13d2:	5d                   	pop    %ebp
    13d3:	e9 b8 5c 01 00       	jmp    17090 <fibril_mutex_initialize>
    13d8:	90                   	nop
    13d9:	8d b4 26 00 00 00 00 	lea    0x0(%esi,%eiz,1),%esi

000013e0 <hub_connect_device>:
    13e0:	55                   	push   %ebp
    13e1:	89 e5                	mov    %esp,%ebp
    13e3:	53                   	push   %ebx
    13e4:	83 ec 34             	sub    $0x34,%esp
    13e7:	8b 55 08             	mov    0x8(%ebp),%edx
    13ea:	8b 1a                	mov    (%edx),%ebx
    13ec:	85 db                	test   %ebx,%ebx
    13ee:	74 10                	je     1400 <hub_connect_device+0x20>
    13f0:	8b 4a 14             	mov    0x14(%edx),%ecx
    13f3:	83 c8 ff             	or     $0xffffffff,%eax
    13f6:	85 c9                	test   %ecx,%ecx
    13f8:	74 6e                	je     1468 <hub_connect_device+0x88>
    13fa:	83 c4 34             	add    $0x34,%esp
    13fd:	5b                   	pop    %ebx
    13fe:	5d                   	pop    %ebp
    13ff:	c3                   	ret    
    1400:	89 d3                	mov    %edx,%ebx
    1402:	31 c0                	xor    %eax,%eax
    1404:	8b 55 0c             	mov    0xc(%ebp),%edx
    1407:	c7 43 08 04 00 00 00 	movl   $0x4,0x8(%ebx)
    140e:	89 13                	mov    %edx,(%ebx)
    1410:	8b 53 0c             	mov    0xc(%ebx),%edx
    1413:	89 d1                	mov    %edx,%ecx
    1415:	81 e2 ff ff 00 00    	and    $0xffff,%edx
    141b:	83 c9 01             	or     $0x1,%ecx
    141e:	66 89 4b 0c          	mov    %cx,0xc(%ebx)
    1422:	81 e1 ff ff 00 00    	and    $0xffff,%ecx
    1428:	89 4c 24 14          	mov    %ecx,0x14(%esp)
    142c:	89 54 24 10          	mov    %edx,0x10(%esp)
    1430:	8b 53 04             	mov    0x4(%ebx),%edx
    1433:	c7 44 24 08 e4 f4 02 	movl   $0x2f4e4,0x8(%esp)
    143a:	00 
    143b:	89 54 24 0c          	mov    %edx,0xc(%esp)
    143f:	c7 44 24 04 04 00 00 	movl   $0x4,0x4(%esp)
    1446:	00 
    1447:	c7 04 24 ff ff ff ff 	movl   $0xffffffff,(%esp)
    144e:	89 45 f4             	mov    %eax,-0xc(%ebp)
    1451:	e8 3a 9f 01 00       	call   1b390 <log_msg>
    1456:	8b 53 10             	mov    0x10(%ebx),%edx
    1459:	8b 45 f4             	mov    -0xc(%ebp),%eax
    145c:	c6 42 3c 01          	movb   $0x1,0x3c(%edx)
    1460:	eb 98                	jmp    13fa <hub_connect_device+0x1a>
    1462:	8d b6 00 00 00 00    	lea    0x0(%esi),%esi
    1468:	8d 5a 14             	lea    0x14(%edx),%ebx
    146b:	b8 01 00 00 00       	mov    $0x1,%eax
    1470:	eb 92                	jmp    1404 <hub_connect_device+0x24>
    1472:	8d b4 26 00 00 00 00 	lea    0x0(%esi,%eiz,1),%esi
    1479:	8d bc 27 00 00 00 00 	lea    0x0(%edi,%eiz,1),%edi

00001480 <hub_disconnect_device>:
    1480:	55                   	push   %ebp
    1481:	89 e5                	mov    %esp,%ebp
    1483:	53                   	push   %ebx
    1484:	83 ec 24             	sub    $0x24,%esp
    1487:	8b 45 08             	mov    0x8(%ebp),%eax
    148a:	8b 55 0c             	mov    0xc(%ebp),%edx
    148d:	3b 10                	cmp    (%eax),%edx
    148f:	74 0f                	je     14a0 <hub_disconnect_device+0x20>
    1491:	3b 50 14             	cmp    0x14(%eax),%edx
    1494:	74 72                	je     1508 <hub_disconnect_device+0x88>
    1496:	83 c8 ff             	or     $0xffffffff,%eax
    1499:	83 c4 24             	add    $0x24,%esp
    149c:	5b                   	pop    %ebx
    149d:	5d                   	pop    %ebp
    149e:	c3                   	ret    
    149f:	90                   	nop
    14a0:	31 d2                	xor    %edx,%edx
    14a2:	8d 0c 95 00 00 00 00 	lea    0x0(,%edx,4),%ecx
    14a9:	01 ca                	add    %ecx,%edx
    14ab:	8d 1c 90             	lea    (%eax,%edx,4),%ebx
    14ae:	8b 43 0c             	mov    0xc(%ebx),%eax
    14b1:	c7 03 00 00 00 00    	movl   $0x0,(%ebx)
    14b7:	89 c2                	mov    %eax,%edx
    14b9:	25 ff ff 00 00       	and    $0xffff,%eax
    14be:	83 ca 01             	or     $0x1,%edx
    14c1:	c7 43 08 03 00 00 00 	movl   $0x3,0x8(%ebx)
    14c8:	66 89 53 0c          	mov    %dx,0xc(%ebx)
    14cc:	81 e2 ff ff 00 00    	and    $0xffff,%edx
    14d2:	89 54 24 14          	mov    %edx,0x14(%esp)
    14d6:	89 44 24 10          	mov    %eax,0x10(%esp)
    14da:	8b 43 04             	mov    0x4(%ebx),%eax
    14dd:	c7 44 24 08 e4 f4 02 	movl   $0x2f4e4,0x8(%esp)
    14e4:	00 
    14e5:	89 44 24 0c          	mov    %eax,0xc(%esp)
    14e9:	c7 44 24 04 04 00 00 	movl   $0x4,0x4(%esp)
    14f0:	00 
    14f1:	c7 04 24 ff ff ff ff 	movl   $0xffffffff,(%esp)
    14f8:	e8 93 9e 01 00       	call   1b390 <log_msg>
    14fd:	8b 43 10             	mov    0x10(%ebx),%eax
    1500:	c6 40 3c 01          	movb   $0x1,0x3c(%eax)
    1504:	31 c0                	xor    %eax,%eax
    1506:	eb 91                	jmp    1499 <hub_disconnect_device+0x19>
    1508:	ba 01 00 00 00       	mov    $0x1,%edx
    150d:	eb 93                	jmp    14a2 <hub_disconnect_device+0x22>
    150f:	90                   	nop

00001510 <hub_find_device>:
    1510:	55                   	push   %ebp
    1511:	89 e5                	mov    %esp,%ebp
    1513:	8b 55 08             	mov    0x8(%ebp),%edx
    1516:	8b 45 0c             	mov    0xc(%ebp),%eax
    1519:	39 02                	cmp    %eax,(%edx)
    151b:	74 13                	je     1530 <hub_find_device+0x20>
    151d:	39 42 14             	cmp    %eax,0x14(%edx)
    1520:	5d                   	pop    %ebp
    1521:	0f 94 c0             	sete   %al
    1524:	25 ff 00 00 00       	and    $0xff,%eax
    1529:	8d 44 00 ff          	lea    -0x1(%eax,%eax,1),%eax
    152d:	c3                   	ret    
    152e:	66 90                	xchg   %ax,%ax
    1530:	31 c0                	xor    %eax,%eax
    1532:	5d                   	pop    %ebp
    1533:	c3                   	ret    
    1534:	8d b6 00 00 00 00    	lea    0x0(%esi),%esi
    153a:	8d bf 00 00 00 00    	lea    0x0(%edi),%edi

00001540 <hub_acquire>:
    1540:	55                   	push   %ebp
    1541:	89 e5                	mov    %esp,%ebp
    1543:	8b 45 08             	mov    0x8(%ebp),%eax
    1546:	83 c0 2c             	add    $0x2c,%eax
    1549:	89 45 08             	mov    %eax,0x8(%ebp)
    154c:	5d                   	pop    %ebp
    154d:	e9 5e 5b 01 00       	jmp    170b0 <fibril_mutex_lock>
    1552:	8d b4 26 00 00 00 00 	lea    0x0(%esi,%eiz,1),%esi
    1559:	8d bc 27 00 00 00 00 	lea    0x0(%edi,%eiz,1),%edi

00001560 <hub_release>:
    1560:	55                   	push   %ebp
    1561:	89 e5                	mov    %esp,%ebp
    1563:	8b 45 08             	mov    0x8(%ebp),%eax
    1566:	83 c0 2c             	add    $0x2c,%eax
    1569:	89 45 08             	mov    %eax,0x8(%ebp)
    156c:	5d                   	pop    %ebp
    156d:	e9 5e 5c 01 00       	jmp    171d0 <fibril_mutex_unlock>
    1572:	8d b4 26 00 00 00 00 	lea    0x0(%esi,%eiz,1),%esi
    1579:	8d bc 27 00 00 00 00 	lea    0x0(%edi,%eiz,1),%edi

00001580 <hub_set_port_state>:
    1580:	55                   	push   %ebp
    1581:	89 e5                	mov    %esp,%ebp
    1583:	57                   	push   %edi
    1584:	56                   	push   %esi
    1585:	53                   	push   %ebx
    1586:	83 ec 3c             	sub    $0x3c,%esp
    1589:	8b 75 0c             	mov    0xc(%ebp),%esi
    158c:	8b 5d 10             	mov    0x10(%ebp),%ebx
    158f:	83 fe 01             	cmp    $0x1,%esi
    1592:	76 0c                	jbe    15a0 <hub_set_port_state+0x20>
    1594:	83 c4 3c             	add    $0x3c,%esp
    1597:	5b                   	pop    %ebx
    1598:	5e                   	pop    %esi
    1599:	5f                   	pop    %edi
    159a:	5d                   	pop    %ebp
    159b:	c3                   	ret    
    159c:	8d 74 26 00          	lea    0x0(%esi,%eiz,1),%esi
    15a0:	8d 04 b6             	lea    (%esi,%esi,4),%eax
    15a3:	8b 55 08             	mov    0x8(%ebp),%edx
    15a6:	8d 3c 82             	lea    (%edx,%eax,4),%edi
    15a9:	85 ff                	test   %edi,%edi
    15ab:	74 e7                	je     1594 <hub_set_port_state+0x14>
    15ad:	89 5c 24 10          	mov    %ebx,0x10(%esp)
    15b1:	89 74 24 0c          	mov    %esi,0xc(%esp)
    15b5:	c7 44 24 08 14 f5 02 	movl   $0x2f514,0x8(%esp)
    15bc:	00 
    15bd:	c7 44 24 04 04 00 00 	movl   $0x4,0x4(%esp)
    15c4:	00 
    15c5:	c7 04 24 ff ff ff ff 	movl   $0xffffffff,(%esp)
    15cc:	e8 bf 9d 01 00       	call   1b390 <log_msg>
    15d1:	83 fb 05             	cmp    $0x5,%ebx
    15d4:	0f 84 f6 00 00 00    	je     16d0 <hub_set_port_state+0x150>
    15da:	77 14                	ja     15f0 <hub_set_port_state+0x70>
    15dc:	83 fb 02             	cmp    $0x2,%ebx
    15df:	0f 84 cb 00 00 00    	je     16b0 <hub_set_port_state+0x130>
    15e5:	89 5f 08             	mov    %ebx,0x8(%edi)
    15e8:	83 c4 3c             	add    $0x3c,%esp
    15eb:	5b                   	pop    %ebx
    15ec:	5e                   	pop    %esi
    15ed:	5f                   	pop    %edi
    15ee:	5d                   	pop    %ebp
    15ef:	c3                   	ret    
    15f0:	83 fb 06             	cmp    $0x6,%ebx
    15f3:	74 63                	je     1658 <hub_set_port_state+0xd8>
    15f5:	83 fb 08             	cmp    $0x8,%ebx
    15f8:	75 eb                	jne    15e5 <hub_set_port_state+0x65>
    15fa:	c7 47 08 08 00 00 00 	movl   $0x8,0x8(%edi)
    1601:	c7 04 24 14 00 00 00 	movl   $0x14,(%esp)
    1608:	e8 23 ee 01 00       	call   20430 <malloc>
    160d:	89 c2                	mov    %eax,%edx
    160f:	8b 45 08             	mov    0x8(%ebp),%eax
    1612:	89 42 10             	mov    %eax,0x10(%edx)
    1615:	89 72 0c             	mov    %esi,0xc(%edx)
    1618:	c7 02 10 27 00 00    	movl   $0x2710,(%edx)
    161e:	c7 42 04 08 00 00 00 	movl   $0x8,0x4(%edx)
    1625:	c7 42 08 06 00 00 00 	movl   $0x6,0x8(%edx)
    162c:	89 54 24 04          	mov    %edx,0x4(%esp)
    1630:	c7 04 24 20 17 00 00 	movl   $0x1720,(%esp)
    1637:	89 55 e4             	mov    %edx,-0x1c(%ebp)
    163a:	e8 91 55 01 00       	call   16bd0 <fibril_create>
    163f:	85 c0                	test   %eax,%eax
    1641:	0f 84 b9 00 00 00    	je     1700 <hub_set_port_state+0x180>
    1647:	89 04 24             	mov    %eax,(%esp)
    164a:	e8 c1 56 01 00       	call   16d10 <fibril_add_ready>
    164f:	89 5f 08             	mov    %ebx,0x8(%edi)
    1652:	eb 94                	jmp    15e8 <hub_set_port_state+0x68>
    1654:	8d 74 26 00          	lea    0x0(%esi,%eiz,1),%esi
    1658:	83 7f 08 05          	cmpl   $0x5,0x8(%edi)
    165c:	75 87                	jne    15e5 <hub_set_port_state+0x65>
    165e:	8b 47 0c             	mov    0xc(%edi),%eax
    1661:	89 c2                	mov    %eax,%edx
    1663:	25 ff ff 00 00       	and    $0xffff,%eax
    1668:	83 ca 10             	or     $0x10,%edx
    166b:	66 89 57 0c          	mov    %dx,0xc(%edi)
    166f:	81 e2 ff ff 00 00    	and    $0xffff,%edx
    1675:	89 54 24 14          	mov    %edx,0x14(%esp)
    1679:	89 44 24 10          	mov    %eax,0x10(%esp)
    167d:	8b 47 04             	mov    0x4(%edi),%eax
    1680:	c7 44 24 08 e4 f4 02 	movl   $0x2f4e4,0x8(%esp)
    1687:	00 
    1688:	89 44 24 0c          	mov    %eax,0xc(%esp)
    168c:	c7 44 24 04 04 00 00 	movl   $0x4,0x4(%esp)
    1693:	00 
    1694:	c7 04 24 ff ff ff ff 	movl   $0xffffffff,(%esp)
    169b:	e8 f0 9c 01 00       	call   1b390 <log_msg>
    16a0:	8b 47 10             	mov    0x10(%edi),%eax
    16a3:	c6 40 3c 01          	movb   $0x1,0x3c(%eax)
    16a7:	e9 39 ff ff ff       	jmp    15e5 <hub_set_port_state+0x65>
    16ac:	8d 74 26 00          	lea    0x0(%esi,%eiz,1),%esi
    16b0:	8b 47 0c             	mov    0xc(%edi),%eax
    16b3:	8b 57 10             	mov    0x10(%edi),%edx
    16b6:	83 e0 ec             	and    $0xffffffec,%eax
    16b9:	c6 42 3c 01          	movb   $0x1,0x3c(%edx)
    16bd:	66 89 47 0c          	mov    %ax,0xc(%edi)
    16c1:	89 5f 08             	mov    %ebx,0x8(%edi)
    16c4:	e9 1f ff ff ff       	jmp    15e8 <hub_set_port_state+0x68>
    16c9:	8d b4 26 00 00 00 00 	lea    0x0(%esi,%eiz,1),%esi
    16d0:	c7 47 08 05 00 00 00 	movl   $0x5,0x8(%edi)
    16d7:	c7 04 24 14 00 00 00 	movl   $0x14,(%esp)
    16de:	e8 4d ed 01 00       	call   20430 <malloc>
    16e3:	89 c2                	mov    %eax,%edx
    16e5:	8b 45 08             	mov    0x8(%ebp),%eax
    16e8:	89 42 10             	mov    %eax,0x10(%edx)
    16eb:	89 72 0c             	mov    %esi,0xc(%edx)
    16ee:	c7 02 10 27 00 00    	movl   $0x2710,(%edx)
    16f4:	c7 42 04 05 00 00 00 	movl   $0x5,0x4(%edx)
    16fb:	e9 25 ff ff ff       	jmp    1625 <hub_set_port_state+0xa5>
    1700:	c7 04 24 33 f5 02 00 	movl   $0x2f533,(%esp)
    1707:	e8 d4 99 01 00       	call   1b0e0 <printf>
    170c:	8b 55 e4             	mov    -0x1c(%ebp),%edx
    170f:	89 14 24             	mov    %edx,(%esp)
    1712:	e8 29 ee 01 00       	call   20540 <free>
    1717:	89 5f 08             	mov    %ebx,0x8(%edi)
    171a:	e9 c9 fe ff ff       	jmp    15e8 <hub_set_port_state+0x68>
    171f:	90                   	nop

00001720 <set_port_state_delayed_fibril>:
    1720:	55                   	push   %ebp
    1721:	89 e5                	mov    %esp,%ebp
    1723:	56                   	push   %esi
    1724:	53                   	push   %ebx
    1725:	83 ec 10             	sub    $0x10,%esp
    1728:	8b 5d 08             	mov    0x8(%ebp),%ebx
    172b:	8b 03                	mov    (%ebx),%eax
    172d:	89 04 24             	mov    %eax,(%esp)
    1730:	e8 bb 10 02 00       	call   227f0 <async_usleep>
    1735:	8b 43 10             	mov    0x10(%ebx),%eax
    1738:	83 c0 2c             	add    $0x2c,%eax
    173b:	89 04 24             	mov    %eax,(%esp)
    173e:	e8 6d 59 01 00       	call   170b0 <fibril_mutex_lock>
    1743:	8b 43 0c             	mov    0xc(%ebx),%eax
    1746:	8b 53 10             	mov    0x10(%ebx),%edx
    1749:	83 f8 01             	cmp    $0x1,%eax
    174c:	76 22                	jbe    1770 <set_port_state_delayed_fibril+0x50>
    174e:	c7 44 24 08 d9 01 00 	movl   $0x1d9,0x8(%esp)
    1755:	00 
    1756:	c7 44 24 04 4c f5 02 	movl   $0x2f54c,0x4(%esp)
    175d:	00 
    175e:	c7 04 24 56 f5 02 00 	movl   $0x2f556,(%esp)
    1765:	e8 26 95 02 00       	call   2ac90 <assert_abort>
    176a:	8d b6 00 00 00 00    	lea    0x0(%esi),%esi
    1770:	8d 0c 80             	lea    (%eax,%eax,4),%ecx
    1773:	8d 0c 8a             	lea    (%edx,%ecx,4),%ecx
    1776:	85 c9                	test   %ecx,%ecx
    1778:	74 d4                	je     174e <set_port_state_delayed_fibril+0x2e>
    177a:	8b 73 04             	mov    0x4(%ebx),%esi
    177d:	39 71 08             	cmp    %esi,0x8(%ecx)
    1780:	74 1e                	je     17a0 <set_port_state_delayed_fibril+0x80>
    1782:	83 c2 2c             	add    $0x2c,%edx
    1785:	89 14 24             	mov    %edx,(%esp)
    1788:	e8 43 5a 01 00       	call   171d0 <fibril_mutex_unlock>
    178d:	89 1c 24             	mov    %ebx,(%esp)
    1790:	e8 ab ed 01 00       	call   20540 <free>
    1795:	83 c4 10             	add    $0x10,%esp
    1798:	31 c0                	xor    %eax,%eax
    179a:	5b                   	pop    %ebx
    179b:	5e                   	pop    %esi
    179c:	5d                   	pop    %ebp
    179d:	c3                   	ret    
    179e:	66 90                	xchg   %ax,%ax
    17a0:	8b 4b 08             	mov    0x8(%ebx),%ecx
    17a3:	89 14 24             	mov    %edx,(%esp)
    17a6:	89 4c 24 08          	mov    %ecx,0x8(%esp)
    17aa:	89 44 24 04          	mov    %eax,0x4(%esp)
    17ae:	e8 cd fd ff ff       	call   1580 <hub_set_port_state>
    17b3:	8b 53 10             	mov    0x10(%ebx),%edx
    17b6:	eb ca                	jmp    1782 <set_port_state_delayed_fibril+0x62>
    17b8:	90                   	nop
    17b9:	8d b4 26 00 00 00 00 	lea    0x0(%esi,%eiz,1),%esi

000017c0 <hub_set_port_state_all>:
    17c0:	55                   	push   %ebp
    17c1:	89 e5                	mov    %esp,%ebp
    17c3:	56                   	push   %esi
    17c4:	53                   	push   %ebx
    17c5:	83 ec 10             	sub    $0x10,%esp
    17c8:	8b 5d 08             	mov    0x8(%ebp),%ebx
    17cb:	8b 75 0c             	mov    0xc(%ebp),%esi
    17ce:	89 74 24 08          	mov    %esi,0x8(%esp)
    17d2:	89 1c 24             	mov    %ebx,(%esp)
    17d5:	c7 44 24 04 00 00 00 	movl   $0x0,0x4(%esp)
    17dc:	00 
    17dd:	e8 9e fd ff ff       	call   1580 <hub_set_port_state>
    17e2:	89 74 24 08          	mov    %esi,0x8(%esp)
    17e6:	89 1c 24             	mov    %ebx,(%esp)
    17e9:	c7 44 24 04 01 00 00 	movl   $0x1,0x4(%esp)
    17f0:	00 
    17f1:	e8 8a fd ff ff       	call   1580 <hub_set_port_state>
    17f6:	83 c4 10             	add    $0x10,%esp
    17f9:	5b                   	pop    %ebx
    17fa:	5e                   	pop    %esi
    17fb:	5d                   	pop    %ebp
    17fc:	c3                   	ret    
    17fd:	8d 76 00             	lea    0x0(%esi),%esi

00001800 <hub_get_port_state>:
    1800:	55                   	push   %ebp
    1801:	31 c0                	xor    %eax,%eax
    1803:	89 e5                	mov    %esp,%ebp
    1805:	8b 55 0c             	mov    0xc(%ebp),%edx
    1808:	83 fa 01             	cmp    $0x1,%edx
    180b:	76 03                	jbe    1810 <hub_get_port_state+0x10>
    180d:	5d                   	pop    %ebp
    180e:	c3                   	ret    
    180f:	90                   	nop
    1810:	8d 0c 92             	lea    (%edx,%edx,4),%ecx
    1813:	8b 55 08             	mov    0x8(%ebp),%edx
    1816:	8d 14 8a             	lea    (%edx,%ecx,4),%edx
    1819:	85 d2                	test   %edx,%edx
    181b:	74 f0                	je     180d <hub_get_port_state+0xd>
    181d:	8b 42 08             	mov    0x8(%edx),%eax
    1820:	5d                   	pop    %ebp
    1821:	c3                   	ret    
    1822:	8d b4 26 00 00 00 00 	lea    0x0(%esi,%eiz,1),%esi
    1829:	8d bc 27 00 00 00 00 	lea    0x0(%edi,%eiz,1),%edi

00001830 <hub_clear_port_status_change>:
    1830:	55                   	push   %ebp
    1831:	89 e5                	mov    %esp,%ebp
    1833:	8b 45 0c             	mov    0xc(%ebp),%eax
    1836:	83 f8 01             	cmp    $0x1,%eax
    1839:	76 05                	jbe    1840 <hub_clear_port_status_change+0x10>
    183b:	5d                   	pop    %ebp
    183c:	c3                   	ret    
    183d:	8d 76 00             	lea    0x0(%esi),%esi
    1840:	8d 14 80             	lea    (%eax,%eax,4),%edx
    1843:	8b 45 08             	mov    0x8(%ebp),%eax
    1846:	8d 04 90             	lea    (%eax,%edx,4),%eax
    1849:	85 c0                	test   %eax,%eax
    184b:	74 ee                	je     183b <hub_clear_port_status_change+0xb>
    184d:	8b 55 10             	mov    0x10(%ebp),%edx
    1850:	83 f2 ff             	xor    $0xffffffff,%edx
    1853:	66 21 50 0c          	and    %dx,0xc(%eax)
    1857:	8b 40 10             	mov    0x10(%eax),%eax
    185a:	c6 40 3c 01          	movb   $0x1,0x3c(%eax)
    185e:	5d                   	pop    %ebp
    185f:	c3                   	ret    

00001860 <hub_get_port_status_change>:
    1860:	55                   	push   %ebp
    1861:	31 c0                	xor    %eax,%eax
    1863:	89 e5                	mov    %esp,%ebp
    1865:	8b 55 0c             	mov    0xc(%ebp),%edx
    1868:	83 fa 01             	cmp    $0x1,%edx
    186b:	76 03                	jbe    1870 <hub_get_port_status_change+0x10>
    186d:	5d                   	pop    %ebp
    186e:	c3                   	ret    
    186f:	90                   	nop
    1870:	8d 0c 92             	lea    (%edx,%edx,4),%ecx
    1873:	8b 55 08             	mov    0x8(%ebp),%edx
    1876:	8d 14 8a             	lea    (%edx,%ecx,4),%edx
    1879:	85 d2                	test   %edx,%edx
    187b:	74 f0                	je     186d <hub_get_port_status_change+0xd>
    187d:	8b 42 0c             	mov    0xc(%edx),%eax
    1880:	5d                   	pop    %ebp
    1881:	c3                   	ret    
    1882:	8d b4 26 00 00 00 00 	lea    0x0(%esi,%eiz,1),%esi
    1889:	8d bc 27 00 00 00 00 	lea    0x0(%edi,%eiz,1),%edi

00001890 <hub_get_port_status>:
    1890:	55                   	push   %ebp
    1891:	31 c0                	xor    %eax,%eax
    1893:	89 e5                	mov    %esp,%ebp
    1895:	53                   	push   %ebx
    1896:	8b 55 0c             	mov    0xc(%ebp),%edx
    1899:	83 fa 01             	cmp    $0x1,%edx
    189c:	76 0a                	jbe    18a8 <hub_get_port_status+0x18>
    189e:	5b                   	pop    %ebx
    189f:	5d                   	pop    %ebp
    18a0:	c3                   	ret    
    18a1:	8d b4 26 00 00 00 00 	lea    0x0(%esi,%eiz,1),%esi
    18a8:	8d 0c 92             	lea    (%edx,%edx,4),%ecx
    18ab:	8b 55 08             	mov    0x8(%ebp),%edx
    18ae:	8d 0c 8a             	lea    (%edx,%ecx,4),%ecx
    18b1:	85 c9                	test   %ecx,%ecx
    18b3:	74 e9                	je     189e <hub_get_port_status+0xe>
    18b5:	8b 01                	mov    (%ecx),%eax
    18b7:	8b 51 08             	mov    0x8(%ecx),%edx
    18ba:	85 c0                	test   %eax,%eax
    18bc:	0f 95 c0             	setne  %al
    18bf:	25 ff 00 00 00       	and    $0xff,%eax
    18c4:	83 fa 06             	cmp    $0x6,%edx
    18c7:	74 3f                	je     1908 <hub_get_port_status+0x78>
    18c9:	8d 5a f9             	lea    -0x7(%edx),%ebx
    18cc:	83 fb 01             	cmp    $0x1,%ebx
    18cf:	76 1f                	jbe    18f0 <hub_get_port_status+0x60>
    18d1:	83 fa 05             	cmp    $0x5,%edx
    18d4:	75 1d                	jne    18f3 <hub_get_port_status+0x63>
    18d6:	83 c8 10             	or     $0x10,%eax
    18d9:	bb 00 01 00 00       	mov    $0x100,%ebx
    18de:	8b 51 0c             	mov    0xc(%ecx),%edx
    18e1:	09 d8                	or     %ebx,%eax
    18e3:	c1 e2 10             	shl    $0x10,%edx
    18e6:	5b                   	pop    %ebx
    18e7:	09 d0                	or     %edx,%eax
    18e9:	5d                   	pop    %ebp
    18ea:	c3                   	ret    
    18eb:	90                   	nop
    18ec:	8d 74 26 00          	lea    0x0(%esi,%eiz,1),%esi
    18f0:	83 c8 04             	or     $0x4,%eax
    18f3:	31 db                	xor    %ebx,%ebx
    18f5:	83 fa 02             	cmp    $0x2,%edx
    18f8:	74 e4                	je     18de <hub_get_port_status+0x4e>
    18fa:	bb 00 01 00 00       	mov    $0x100,%ebx
    18ff:	eb dd                	jmp    18de <hub_get_port_status+0x4e>
    1901:	8d b4 26 00 00 00 00 	lea    0x0(%esi,%eiz,1),%esi
    1908:	83 c8 02             	or     $0x2,%eax
    190b:	bb 00 01 00 00       	mov    $0x100,%ebx
    1910:	eb cc                	jmp    18de <hub_get_port_status+0x4e>
    1912:	8d b4 26 00 00 00 00 	lea    0x0(%esi,%eiz,1),%esi
    1919:	8d bc 27 00 00 00 00 	lea    0x0(%edi,%eiz,1),%edi

00001920 <hub_get_status_change_bitmap>:
    1920:	55                   	push   %ebp
    1921:	31 c0                	xor    %eax,%eax
    1923:	89 e5                	mov    %esp,%ebp
    1925:	8b 55 08             	mov    0x8(%ebp),%edx
    1928:	66 83 7a 0c 00       	cmpw   $0x0,0xc(%edx)
    192d:	74 0a                	je     1939 <hub_get_status_change_bitmap+0x19>
    192f:	8b 4a 04             	mov    0x4(%edx),%ecx
    1932:	b8 01 00 00 00       	mov    $0x1,%eax
    1937:	d3 e0                	shl    %cl,%eax
    1939:	66 83 7a 20 00       	cmpw   $0x0,0x20(%edx)
    193e:	74 0c                	je     194c <hub_get_status_change_bitmap+0x2c>
    1940:	8b 4a 18             	mov    0x18(%edx),%ecx
    1943:	ba 01 00 00 00       	mov    $0x1,%edx
    1948:	d3 e2                	shl    %cl,%edx
    194a:	09 d0                	or     %edx,%eax
    194c:	5d                   	pop    %ebp
    194d:	c3                   	ret    
    194e:	66 90                	xchg   %ax,%ax

00001950 <req_clear_hub_feature>:
    1950:	55                   	push   %ebp
    1951:	b8 f5 ff ff ff       	mov    $0xfffffff5,%eax
    1956:	89 e5                	mov    %esp,%ebp
    1958:	5d                   	pop    %ebp
    1959:	c3                   	ret    
    195a:	8d b6 00 00 00 00    	lea    0x0(%esi),%esi

00001960 <req_get_bus_state>:
    1960:	55                   	push   %ebp
    1961:	b8 f5 ff ff ff       	mov    $0xfffffff5,%eax
    1966:	89 e5                	mov    %esp,%ebp
    1968:	5d                   	pop    %ebp
    1969:	c3                   	ret    
    196a:	8d b6 00 00 00 00    	lea    0x0(%esi),%esi

00001970 <req_set_hub_feature>:
    1970:	55                   	push   %ebp
    1971:	b8 f5 ff ff ff       	mov    $0xfffffff5,%eax
    1976:	89 e5                	mov    %esp,%ebp
    1978:	5d                   	pop    %ebp
    1979:	c3                   	ret    
    197a:	8d b6 00 00 00 00    	lea    0x0(%esi),%esi

00001980 <req_set_port_feature>:
    1980:	55                   	push   %ebp
    1981:	89 e5                	mov    %esp,%ebp
    1983:	57                   	push   %edi
    1984:	56                   	push   %esi
    1985:	53                   	push   %ebx
    1986:	83 ec 1c             	sub    $0x1c,%esp
    1989:	8b 45 0c             	mov    0xc(%ebp),%eax
    198c:	66 8b 78 04          	mov    0x4(%eax),%di
    1990:	66 8b 70 02          	mov    0x2(%eax),%si
    1994:	8b 45 08             	mov    0x8(%ebp),%eax
    1997:	81 e7 ff ff 00 00    	and    $0xffff,%edi
    199d:	4f                   	dec    %edi
    199e:	8b 58 04             	mov    0x4(%eax),%ebx
    19a1:	89 1c 24             	mov    %ebx,(%esp)
    19a4:	e8 97 fb ff ff       	call   1540 <hub_acquire>
    19a9:	89 7c 24 04          	mov    %edi,0x4(%esp)
    19ad:	89 1c 24             	mov    %ebx,(%esp)
    19b0:	e8 4b fe ff ff       	call   1800 <hub_get_port_state>
    19b5:	66 83 fe 04          	cmp    $0x4,%si
    19b9:	74 65                	je     1a20 <req_set_port_feature+0xa0>
    19bb:	66 83 fe 08          	cmp    $0x8,%si
    19bf:	74 3f                	je     1a00 <req_set_port_feature+0x80>
    19c1:	66 83 fe 02          	cmp    $0x2,%si
    19c5:	74 19                	je     19e0 <req_set_port_feature+0x60>
    19c7:	89 1c 24             	mov    %ebx,(%esp)
    19ca:	e8 91 fb ff ff       	call   1560 <hub_release>
    19cf:	83 c4 1c             	add    $0x1c,%esp
    19d2:	31 c0                	xor    %eax,%eax
    19d4:	5b                   	pop    %ebx
    19d5:	5e                   	pop    %esi
    19d6:	5f                   	pop    %edi
    19d7:	5d                   	pop    %ebp
    19d8:	c3                   	ret    
    19d9:	8d b4 26 00 00 00 00 	lea    0x0(%esi,%eiz,1),%esi
    19e0:	83 f8 06             	cmp    $0x6,%eax
    19e3:	75 e2                	jne    19c7 <req_set_port_feature+0x47>
    19e5:	c7 44 24 08 07 00 00 	movl   $0x7,0x8(%esp)
    19ec:	00 
    19ed:	89 7c 24 04          	mov    %edi,0x4(%esp)
    19f1:	89 1c 24             	mov    %ebx,(%esp)
    19f4:	e8 87 fb ff ff       	call   1580 <hub_set_port_state>
    19f9:	eb cc                	jmp    19c7 <req_set_port_feature+0x47>
    19fb:	90                   	nop
    19fc:	8d 74 26 00          	lea    0x0(%esi,%eiz,1),%esi
    1a00:	83 f8 02             	cmp    $0x2,%eax
    1a03:	75 c2                	jne    19c7 <req_set_port_feature+0x47>
    1a05:	c7 44 24 08 03 00 00 	movl   $0x3,0x8(%esp)
    1a0c:	00 
    1a0d:	89 7c 24 04          	mov    %edi,0x4(%esp)
    1a11:	89 1c 24             	mov    %ebx,(%esp)
    1a14:	e8 67 fb ff ff       	call   1580 <hub_set_port_state>
    1a19:	eb ac                	jmp    19c7 <req_set_port_feature+0x47>
    1a1b:	90                   	nop
    1a1c:	8d 74 26 00          	lea    0x0(%esi,%eiz,1),%esi
    1a20:	83 f8 02             	cmp    $0x2,%eax
    1a23:	74 a2                	je     19c7 <req_set_port_feature+0x47>
    1a25:	c7 44 24 08 05 00 00 	movl   $0x5,0x8(%esp)
    1a2c:	00 
    1a2d:	89 7c 24 04          	mov    %edi,0x4(%esp)
    1a31:	89 1c 24             	mov    %ebx,(%esp)
    1a34:	e8 47 fb ff ff       	call   1580 <hub_set_port_state>
    1a39:	eb 8c                	jmp    19c7 <req_set_port_feature+0x47>
    1a3b:	90                   	nop
    1a3c:	8d 74 26 00          	lea    0x0(%esi,%eiz,1),%esi

00001a40 <req_get_hub_status>:
    1a40:	55                   	push   %ebp
    1a41:	89 e5                	mov    %esp,%ebp
    1a43:	83 ec 38             	sub    $0x38,%esp
    1a46:	8d 45 f4             	lea    -0xc(%ebp),%eax
    1a49:	c7 44 24 10 04 00 00 	movl   $0x4,0x10(%esp)
    1a50:	00 
    1a51:	89 44 24 0c          	mov    %eax,0xc(%esp)
    1a55:	8b 45 14             	mov    0x14(%ebp),%eax
    1a58:	89 44 24 08          	mov    %eax,0x8(%esp)
    1a5c:	8b 45 10             	mov    0x10(%ebp),%eax
    1a5f:	89 44 24 04          	mov    %eax,0x4(%esp)
    1a63:	8b 45 0c             	mov    0xc(%ebp),%eax
    1a66:	89 04 24             	mov    %eax,(%esp)
    1a69:	c7 45 f4 00 00 00 00 	movl   $0x0,-0xc(%ebp)
    1a70:	e8 4b 75 00 00       	call   8fc0 <usbvirt_control_reply_helper>
    1a75:	31 c0                	xor    %eax,%eax
    1a77:	c9                   	leave  
    1a78:	c3                   	ret    
    1a79:	8d b4 26 00 00 00 00 	lea    0x0(%esi,%eiz,1),%esi

00001a80 <req_get_descriptor>:
    1a80:	55                   	push   %ebp
    1a81:	89 e5                	mov    %esp,%ebp
    1a83:	83 ec 28             	sub    $0x28,%esp
    1a86:	8b 45 0c             	mov    0xc(%ebp),%eax
    1a89:	80 78 03 29          	cmpb   $0x29,0x3(%eax)
    1a8d:	75 31                	jne    1ac0 <req_get_descriptor+0x40>
    1a8f:	31 d2                	xor    %edx,%edx
    1a91:	89 04 24             	mov    %eax,(%esp)
    1a94:	8a 15 88 35 03 00    	mov    0x33588,%dl
    1a9a:	c7 44 24 0c 88 35 03 	movl   $0x33588,0xc(%esp)
    1aa1:	00 
    1aa2:	89 54 24 10          	mov    %edx,0x10(%esp)
    1aa6:	8b 55 14             	mov    0x14(%ebp),%edx
    1aa9:	89 54 24 08          	mov    %edx,0x8(%esp)
    1aad:	8b 55 10             	mov    0x10(%ebp),%edx
    1ab0:	89 54 24 04          	mov    %edx,0x4(%esp)
    1ab4:	e8 07 75 00 00       	call   8fc0 <usbvirt_control_reply_helper>
    1ab9:	31 c0                	xor    %eax,%eax
    1abb:	c9                   	leave  
    1abc:	c3                   	ret    
    1abd:	8d 76 00             	lea    0x0(%esi),%esi
    1ac0:	b8 fb ff ff ff       	mov    $0xfffffffb,%eax
    1ac5:	c9                   	leave  
    1ac6:	c3                   	ret    
    1ac7:	89 f6                	mov    %esi,%esi
    1ac9:	8d bc 27 00 00 00 00 	lea    0x0(%edi,%eiz,1),%edi

00001ad0 <req_clear_port_feature>:
    1ad0:	55                   	push   %ebp
    1ad1:	89 e5                	mov    %esp,%ebp
    1ad3:	57                   	push   %edi
    1ad4:	56                   	push   %esi
    1ad5:	53                   	push   %ebx
    1ad6:	83 ec 1c             	sub    $0x1c,%esp
    1ad9:	8b 45 0c             	mov    0xc(%ebp),%eax
    1adc:	66 8b 70 04          	mov    0x4(%eax),%si
    1ae0:	66 8b 78 02          	mov    0x2(%eax),%di
    1ae4:	8b 45 08             	mov    0x8(%ebp),%eax
    1ae7:	81 e6 ff ff 00 00    	and    $0xffff,%esi
    1aed:	4e                   	dec    %esi
    1aee:	8b 58 04             	mov    0x4(%eax),%ebx
    1af1:	89 1c 24             	mov    %ebx,(%esp)
    1af4:	e8 47 fa ff ff       	call   1540 <hub_acquire>
    1af9:	89 74 24 04          	mov    %esi,0x4(%esp)
    1afd:	89 1c 24             	mov    %ebx,(%esp)
    1b00:	e8 fb fc ff ff       	call   1800 <hub_get_port_state>
    1b05:	66 83 ff 14          	cmp    $0x14,%di
    1b09:	76 1d                	jbe    1b28 <req_clear_port_feature+0x58>
    1b0b:	bf f5 ff ff ff       	mov    $0xfffffff5,%edi
    1b10:	89 1c 24             	mov    %ebx,(%esp)
    1b13:	e8 48 fa ff ff       	call   1560 <hub_release>
    1b18:	83 c4 1c             	add    $0x1c,%esp
    1b1b:	89 f8                	mov    %edi,%eax
    1b1d:	5b                   	pop    %ebx
    1b1e:	5e                   	pop    %esi
    1b1f:	5f                   	pop    %edi
    1b20:	5d                   	pop    %ebp
    1b21:	c3                   	ret    
    1b22:	8d b6 00 00 00 00    	lea    0x0(%esi),%esi
    1b28:	81 e7 ff ff 00 00    	and    $0xffff,%edi
    1b2e:	ff 24 bd 6c f5 02 00 	jmp    *0x2f56c(,%edi,4)
    1b35:	8d 76 00             	lea    0x0(%esi),%esi
    1b38:	c7 44 24 08 10 00 00 	movl   $0x10,0x8(%esp)
    1b3f:	00 
    1b40:	89 74 24 04          	mov    %esi,0x4(%esp)
    1b44:	89 1c 24             	mov    %ebx,(%esp)
    1b47:	31 ff                	xor    %edi,%edi
    1b49:	e8 e2 fc ff ff       	call   1830 <hub_clear_port_status_change>
    1b4e:	eb c0                	jmp    1b10 <req_clear_port_feature+0x40>
    1b50:	48                   	dec    %eax
    1b51:	31 ff                	xor    %edi,%edi
    1b53:	83 f8 01             	cmp    $0x1,%eax
    1b56:	76 b8                	jbe    1b10 <req_clear_port_feature+0x40>
    1b58:	c7 44 24 08 04 00 00 	movl   $0x4,0x8(%esp)
    1b5f:	00 
    1b60:	89 74 24 04          	mov    %esi,0x4(%esp)
    1b64:	89 1c 24             	mov    %ebx,(%esp)
    1b67:	e8 14 fa ff ff       	call   1580 <hub_set_port_state>
    1b6c:	eb a2                	jmp    1b10 <req_clear_port_feature+0x40>
    1b6e:	66 90                	xchg   %ax,%ax
    1b70:	31 ff                	xor    %edi,%edi
    1b72:	83 f8 07             	cmp    $0x7,%eax
    1b75:	75 99                	jne    1b10 <req_clear_port_feature+0x40>
    1b77:	c7 44 24 08 08 00 00 	movl   $0x8,0x8(%esp)
    1b7e:	00 
    1b7f:	89 74 24 04          	mov    %esi,0x4(%esp)
    1b83:	89 1c 24             	mov    %ebx,(%esp)
    1b86:	e8 f5 f9 ff ff       	call   1580 <hub_set_port_state>
    1b8b:	eb 83                	jmp    1b10 <req_clear_port_feature+0x40>
    1b8d:	8d 76 00             	lea    0x0(%esi),%esi
    1b90:	31 ff                	xor    %edi,%edi
    1b92:	48                   	dec    %eax
    1b93:	0f 84 77 ff ff ff    	je     1b10 <req_clear_port_feature+0x40>
    1b99:	c7 44 24 08 02 00 00 	movl   $0x2,0x8(%esp)
    1ba0:	00 
    1ba1:	89 74 24 04          	mov    %esi,0x4(%esp)
    1ba5:	89 1c 24             	mov    %ebx,(%esp)
    1ba8:	e8 d3 f9 ff ff       	call   1580 <hub_set_port_state>
    1bad:	e9 5e ff ff ff       	jmp    1b10 <req_clear_port_feature+0x40>
    1bb2:	8d b6 00 00 00 00    	lea    0x0(%esi),%esi
    1bb8:	c7 44 24 08 01 00 00 	movl   $0x1,0x8(%esp)
    1bbf:	00 
    1bc0:	89 74 24 04          	mov    %esi,0x4(%esp)
    1bc4:	89 1c 24             	mov    %ebx,(%esp)
    1bc7:	31 ff                	xor    %edi,%edi
    1bc9:	e8 62 fc ff ff       	call   1830 <hub_clear_port_status_change>
    1bce:	e9 3d ff ff ff       	jmp    1b10 <req_clear_port_feature+0x40>
    1bd3:	90                   	nop
    1bd4:	8d 74 26 00          	lea    0x0(%esi,%eiz,1),%esi
    1bd8:	c7 44 24 08 02 00 00 	movl   $0x2,0x8(%esp)
    1bdf:	00 
    1be0:	89 74 24 04          	mov    %esi,0x4(%esp)
    1be4:	89 1c 24             	mov    %ebx,(%esp)
    1be7:	31 ff                	xor    %edi,%edi
    1be9:	e8 42 fc ff ff       	call   1830 <hub_clear_port_status_change>
    1bee:	e9 1d ff ff ff       	jmp    1b10 <req_clear_port_feature+0x40>
    1bf3:	90                   	nop
    1bf4:	8d 74 26 00          	lea    0x0(%esi,%eiz,1),%esi
    1bf8:	c7 44 24 08 04 00 00 	movl   $0x4,0x8(%esp)
    1bff:	00 
    1c00:	89 74 24 04          	mov    %esi,0x4(%esp)
    1c04:	89 1c 24             	mov    %ebx,(%esp)
    1c07:	31 ff                	xor    %edi,%edi
    1c09:	e8 22 fc ff ff       	call   1830 <hub_clear_port_status_change>
    1c0e:	e9 fd fe ff ff       	jmp    1b10 <req_clear_port_feature+0x40>
    1c13:	90                   	nop
    1c14:	8d 74 26 00          	lea    0x0(%esi,%eiz,1),%esi
    1c18:	c7 44 24 08 08 00 00 	movl   $0x8,0x8(%esp)
    1c1f:	00 
    1c20:	89 74 24 04          	mov    %esi,0x4(%esp)
    1c24:	89 1c 24             	mov    %ebx,(%esp)
    1c27:	31 ff                	xor    %edi,%edi
    1c29:	e8 02 fc ff ff       	call   1830 <hub_clear_port_status_change>
    1c2e:	e9 dd fe ff ff       	jmp    1b10 <req_clear_port_feature+0x40>
    1c33:	8d b6 00 00 00 00    	lea    0x0(%esi),%esi
    1c39:	8d bc 27 00 00 00 00 	lea    0x0(%edi,%eiz,1),%edi

00001c40 <req_get_port_status>:
    1c40:	55                   	push   %ebp
    1c41:	89 e5                	mov    %esp,%ebp
    1c43:	56                   	push   %esi
    1c44:	53                   	push   %ebx
    1c45:	83 ec 30             	sub    $0x30,%esp
    1c48:	8b 45 08             	mov    0x8(%ebp),%eax
    1c4b:	8b 75 0c             	mov    0xc(%ebp),%esi
    1c4e:	8b 58 04             	mov    0x4(%eax),%ebx
    1c51:	89 1c 24             	mov    %ebx,(%esp)
    1c54:	e8 e7 f8 ff ff       	call   1540 <hub_acquire>
    1c59:	66 8b 46 04          	mov    0x4(%esi),%ax
    1c5d:	25 ff ff 00 00       	and    $0xffff,%eax
    1c62:	89 1c 24             	mov    %ebx,(%esp)
    1c65:	48                   	dec    %eax
    1c66:	89 44 24 04          	mov    %eax,0x4(%esp)
    1c6a:	e8 21 fc ff ff       	call   1890 <hub_get_port_status>
    1c6f:	89 1c 24             	mov    %ebx,(%esp)
    1c72:	89 45 f4             	mov    %eax,-0xc(%ebp)
    1c75:	e8 e6 f8 ff ff       	call   1560 <hub_release>
    1c7a:	8d 45 f4             	lea    -0xc(%ebp),%eax
    1c7d:	89 34 24             	mov    %esi,(%esp)
    1c80:	89 44 24 0c          	mov    %eax,0xc(%esp)
    1c84:	8b 45 14             	mov    0x14(%ebp),%eax
    1c87:	89 44 24 08          	mov    %eax,0x8(%esp)
    1c8b:	8b 45 10             	mov    0x10(%ebp),%eax
    1c8e:	89 44 24 04          	mov    %eax,0x4(%esp)
    1c92:	c7 44 24 10 04 00 00 	movl   $0x4,0x10(%esp)
    1c99:	00 
    1c9a:	e8 21 73 00 00       	call   8fc0 <usbvirt_control_reply_helper>
    1c9f:	83 c4 30             	add    $0x30,%esp
    1ca2:	31 c0                	xor    %eax,%eax
    1ca4:	5b                   	pop    %ebx
    1ca5:	5e                   	pop    %esi
    1ca6:	5d                   	pop    %ebp
    1ca7:	c3                   	ret    
    1ca8:	90                   	nop
    1ca9:	8d b4 26 00 00 00 00 	lea    0x0(%esi,%eiz,1),%esi

00001cb0 <on_state_change>:
    1cb0:	55                   	push   %ebp
    1cb1:	89 e5                	mov    %esp,%ebp
    1cb3:	56                   	push   %esi
    1cb4:	53                   	push   %ebx
    1cb5:	83 ec 10             	sub    $0x10,%esp
    1cb8:	8b 45 08             	mov    0x8(%ebp),%eax
    1cbb:	8b 75 10             	mov    0x10(%ebp),%esi
    1cbe:	8b 58 04             	mov    0x4(%eax),%ebx
    1cc1:	89 1c 24             	mov    %ebx,(%esp)
    1cc4:	e8 77 f8 ff ff       	call   1540 <hub_acquire>
    1cc9:	83 fe 01             	cmp    $0x1,%esi
    1ccc:	74 2a                	je     1cf8 <on_state_change+0x48>
    1cce:	83 fe 02             	cmp    $0x2,%esi
    1cd1:	75 10                	jne    1ce3 <on_state_change+0x33>
    1cd3:	c7 44 24 04 02 00 00 	movl   $0x2,0x4(%esp)
    1cda:	00 
    1cdb:	89 1c 24             	mov    %ebx,(%esp)
    1cde:	e8 dd fa ff ff       	call   17c0 <hub_set_port_state_all>
    1ce3:	89 5d 08             	mov    %ebx,0x8(%ebp)
    1ce6:	83 c4 10             	add    $0x10,%esp
    1ce9:	5b                   	pop    %ebx
    1cea:	5e                   	pop    %esi
    1ceb:	5d                   	pop    %ebp
    1cec:	e9 6f f8 ff ff       	jmp    1560 <hub_release>
    1cf1:	8d b4 26 00 00 00 00 	lea    0x0(%esi,%eiz,1),%esi
    1cf8:	89 1c 24             	mov    %ebx,(%esp)
    1cfb:	c7 44 24 04 01 00 00 	movl   $0x1,0x4(%esp)
    1d02:	00 
    1d03:	e8 b8 fa ff ff       	call   17c0 <hub_set_port_state_all>
    1d08:	89 5d 08             	mov    %ebx,0x8(%ebp)
    1d0b:	83 c4 10             	add    $0x10,%esp
    1d0e:	5b                   	pop    %ebx
    1d0f:	5e                   	pop    %esi
    1d10:	5d                   	pop    %ebp
    1d11:	e9 4a f8 ff ff       	jmp    1560 <hub_release>
    1d16:	8d 76 00             	lea    0x0(%esi),%esi
    1d19:	8d bc 27 00 00 00 00 	lea    0x0(%edi,%eiz,1),%edi

00001d20 <req_on_status_change_pipe>:
    1d20:	55                   	push   %ebp
    1d21:	89 e5                	mov    %esp,%ebp
    1d23:	53                   	push   %ebx
    1d24:	83 ec 14             	sub    $0x14,%esp
    1d27:	66 83 7d 0c 01       	cmpw   $0x1,0xc(%ebp)
    1d2c:	75 5a                	jne    1d88 <req_on_status_change_pipe+0x68>
    1d2e:	83 7d 10 03          	cmpl   $0x3,0x10(%ebp)
    1d32:	75 54                	jne    1d88 <req_on_status_change_pipe+0x68>
    1d34:	8b 45 08             	mov    0x8(%ebp),%eax
    1d37:	8b 58 04             	mov    0x4(%eax),%ebx
    1d3a:	89 1c 24             	mov    %ebx,(%esp)
    1d3d:	e8 fe f7 ff ff       	call   1540 <hub_acquire>
    1d42:	80 7b 3c 00          	cmpb   $0x0,0x3c(%ebx)
    1d46:	89 1c 24             	mov    %ebx,(%esp)
    1d49:	74 4d                	je     1d98 <req_on_status_change_pipe+0x78>
    1d4b:	e8 d0 fb ff ff       	call   1920 <hub_get_status_change_bitmap>
    1d50:	8b 55 18             	mov    0x18(%ebp),%edx
    1d53:	85 d2                	test   %edx,%edx
    1d55:	75 21                	jne    1d78 <req_on_status_change_pipe+0x58>
    1d57:	8b 45 1c             	mov    0x1c(%ebp),%eax
    1d5a:	c7 00 00 00 00 00    	movl   $0x0,(%eax)
    1d60:	c6 43 3c 00          	movb   $0x0,0x3c(%ebx)
    1d64:	89 1c 24             	mov    %ebx,(%esp)
    1d67:	e8 f4 f7 ff ff       	call   1560 <hub_release>
    1d6c:	31 c0                	xor    %eax,%eax
    1d6e:	83 c4 14             	add    $0x14,%esp
    1d71:	5b                   	pop    %ebx
    1d72:	5d                   	pop    %ebp
    1d73:	c3                   	ret    
    1d74:	8d 74 26 00          	lea    0x0(%esi,%eiz,1),%esi
    1d78:	8b 55 14             	mov    0x14(%ebp),%edx
    1d7b:	88 02                	mov    %al,(%edx)
    1d7d:	8b 45 1c             	mov    0x1c(%ebp),%eax
    1d80:	c7 00 01 00 00 00    	movl   $0x1,(%eax)
    1d86:	eb d8                	jmp    1d60 <req_on_status_change_pipe+0x40>
    1d88:	83 c4 14             	add    $0x14,%esp
    1d8b:	b8 d3 fe ff ff       	mov    $0xfffffed3,%eax
    1d90:	5b                   	pop    %ebx
    1d91:	5d                   	pop    %ebp
    1d92:	c3                   	ret    
    1d93:	90                   	nop
    1d94:	8d 74 26 00          	lea    0x0(%esi,%eiz,1),%esi
    1d98:	e8 c3 f7 ff ff       	call   1560 <hub_release>
    1d9d:	b8 d1 fe ff ff       	mov    $0xfffffed1,%eax
    1da2:	eb ca                	jmp    1d6e <req_on_status_change_pipe+0x4e>
    1da4:	66 90                	xchg   %ax,%ax
    1da6:	66 90                	xchg   %ax,%ax
    1da8:	66 90                	xchg   %ax,%ax
    1daa:	66 90                	xchg   %ax,%ax
    1dac:	66 90                	xchg   %ax,%ax
    1dae:	66 90                	xchg   %ax,%ax

00001db0 <default_connection_handler>:
    1db0:	55                   	push   %ebp
    1db1:	89 e5                	mov    %esp,%ebp
    1db3:	57                   	push   %edi
    1db4:	56                   	push   %esi
    1db5:	53                   	push   %ebx
    1db6:	83 ec 6c             	sub    $0x6c,%esp
    1db9:	8b 45 08             	mov    0x8(%ebp),%eax
    1dbc:	89 04 24             	mov    %eax,(%esp)
    1dbf:	e8 0c 9b 00 00       	call   b8d0 <ddf_fun_get_dev>
    1dc4:	89 04 24             	mov    %eax,(%esp)
    1dc7:	e8 24 9a 00 00       	call   b7f0 <ddf_dev_data_get>
    1dcc:	c7 04 24 02 00 00 00 	movl   $0x2,(%esp)
    1dd3:	89 c7                	mov    %eax,%edi
    1dd5:	8b 45 10             	mov    0x10(%ebp),%eax
    1dd8:	89 44 24 04          	mov    %eax,0x4(%esp)
    1ddc:	e8 6f 35 02 00       	call   25350 <async_callback_receive_start>
    1de1:	89 c3                	mov    %eax,%ebx
    1de3:	85 c0                	test   %eax,%eax
    1de5:	0f 84 6d 01 00 00    	je     1f58 <default_connection_handler+0x1a8>
    1deb:	65 8b 35 00 00 00 00 	mov    %gs:0x0,%esi
    1df2:	89 5c 24 04          	mov    %ebx,0x4(%esp)
    1df6:	89 3c 24             	mov    %edi,(%esp)
    1df9:	8d 86 cc fd ff ff    	lea    -0x234(%esi),%eax
    1dff:	89 44 24 08          	mov    %eax,0x8(%esp)
    1e03:	e8 58 0a 00 00       	call   2860 <vhc_virtdev_plug>
    1e08:	85 c0                	test   %eax,%eax
    1e0a:	0f 85 a0 00 00 00    	jne    1eb0 <default_connection_handler+0x100>
    1e10:	8b 45 0c             	mov    0xc(%ebp),%eax
    1e13:	c7 44 24 04 00 00 00 	movl   $0x0,0x4(%esp)
    1e1a:	00 
    1e1b:	89 04 24             	mov    %eax,(%esp)
    1e1e:	e8 4d 11 02 00       	call   22f70 <async_answer_0>
    1e23:	89 1c 24             	mov    %ebx,(%esp)
    1e26:	e8 45 1b 02 00       	call   23970 <async_exchange_begin>
    1e2b:	c7 44 24 18 00 00 00 	movl   $0x0,0x18(%esp)
    1e32:	00 
    1e33:	c7 44 24 14 00 00 00 	movl   $0x0,0x14(%esp)
    1e3a:	00 
    1e3b:	c7 44 24 10 00 00 00 	movl   $0x0,0x10(%esp)
    1e42:	00 
    1e43:	c7 44 24 0c 00 00 00 	movl   $0x0,0xc(%esp)
    1e4a:	00 
    1e4b:	c7 44 24 08 00 00 00 	movl   $0x0,0x8(%esp)
    1e52:	00 
    1e53:	c7 44 24 04 50 04 00 	movl   $0x450,0x4(%esp)
    1e5a:	00 
    1e5b:	89 04 24             	mov    %eax,(%esp)
    1e5e:	89 c3                	mov    %eax,%ebx
    1e60:	e8 ab 04 02 00       	call   22310 <async_send_fast>
    1e65:	89 c7                	mov    %eax,%edi
    1e67:	85 c0                	test   %eax,%eax
    1e69:	75 65                	jne    1ed0 <default_connection_handler+0x120>
    1e6b:	89 1c 24             	mov    %ebx,(%esp)
    1e6e:	e8 6d 1e 02 00       	call   23ce0 <async_exchange_end>
    1e73:	65 a1 cc fd ff ff    	mov    %gs:0xfffffdcc,%eax
    1e79:	81 c6 c8 fc ff ff    	add    $0xfffffcc8,%esi
    1e7f:	89 74 24 0c          	mov    %esi,0xc(%esp)
    1e83:	89 44 24 10          	mov    %eax,0x10(%esp)
    1e87:	c7 44 24 08 44 f6 02 	movl   $0x2f644,0x8(%esp)
    1e8e:	00 
    1e8f:	c7 44 24 04 03 00 00 	movl   $0x3,0x4(%esp)
    1e96:	00 
    1e97:	c7 04 24 ff ff ff ff 	movl   $0xffffffff,(%esp)
    1e9e:	e8 ed 94 01 00       	call   1b390 <log_msg>
    1ea3:	83 c4 6c             	add    $0x6c,%esp
    1ea6:	5b                   	pop    %ebx
    1ea7:	5e                   	pop    %esi
    1ea8:	5f                   	pop    %edi
    1ea9:	5d                   	pop    %ebp
    1eaa:	c3                   	ret    
    1eab:	90                   	nop
    1eac:	8d 74 26 00          	lea    0x0(%esi,%eiz,1),%esi
    1eb0:	89 44 24 04          	mov    %eax,0x4(%esp)
    1eb4:	8b 45 0c             	mov    0xc(%ebp),%eax
    1eb7:	89 04 24             	mov    %eax,(%esp)
    1eba:	e8 b1 10 02 00       	call   22f70 <async_answer_0>
    1ebf:	89 1c 24             	mov    %ebx,(%esp)
    1ec2:	e8 a9 19 02 00       	call   23870 <async_hangup>
    1ec7:	83 c4 6c             	add    $0x6c,%esp
    1eca:	5b                   	pop    %ebx
    1ecb:	5e                   	pop    %esi
    1ecc:	5f                   	pop    %edi
    1ecd:	5d                   	pop    %ebp
    1ece:	c3                   	ret    
    1ecf:	90                   	nop
    1ed0:	8d 45 c4             	lea    -0x3c(%ebp),%eax
    1ed3:	c7 44 24 08 00 01 00 	movl   $0x100,0x8(%esp)
    1eda:	00 
    1edb:	89 44 24 0c          	mov    %eax,0xc(%esp)
    1edf:	8d 86 c8 fc ff ff    	lea    -0x338(%esi),%eax
    1ee5:	89 44 24 04          	mov    %eax,0x4(%esp)
    1ee9:	89 1c 24             	mov    %ebx,(%esp)
    1eec:	e8 6f 23 02 00       	call   24260 <async_data_read>
    1ef1:	89 1c 24             	mov    %ebx,(%esp)
    1ef4:	89 45 b4             	mov    %eax,-0x4c(%ebp)
    1ef7:	e8 e4 1d 02 00       	call   23ce0 <async_exchange_end>
    1efc:	8b 45 b4             	mov    -0x4c(%ebp),%eax
    1eff:	85 c0                	test   %eax,%eax
    1f01:	74 45                	je     1f48 <default_connection_handler+0x198>
    1f03:	8d 55 bc             	lea    -0x44(%ebp),%edx
    1f06:	89 04 24             	mov    %eax,(%esp)
    1f09:	89 54 24 04          	mov    %edx,0x4(%esp)
    1f0d:	e8 ce 05 02 00       	call   224e0 <async_wait_for>
    1f12:	8d 45 c0             	lea    -0x40(%ebp),%eax
    1f15:	89 44 24 04          	mov    %eax,0x4(%esp)
    1f19:	89 3c 24             	mov    %edi,(%esp)
    1f1c:	e8 bf 05 02 00       	call   224e0 <async_wait_for>
    1f21:	8b 55 bc             	mov    -0x44(%ebp),%edx
    1f24:	85 d2                	test   %edx,%edx
    1f26:	0f 85 47 ff ff ff    	jne    1e73 <default_connection_handler+0xc3>
    1f2c:	8b 45 c0             	mov    -0x40(%ebp),%eax
    1f2f:	85 c0                	test   %eax,%eax
    1f31:	0f 85 3c ff ff ff    	jne    1e73 <default_connection_handler+0xc3>
    1f37:	8b 45 cc             	mov    -0x34(%ebp),%eax
    1f3a:	65 c6 80 c8 fc ff ff 	movb   $0x0,%gs:-0x338(%eax)
    1f41:	00 
    1f42:	e9 2c ff ff ff       	jmp    1e73 <default_connection_handler+0xc3>
    1f47:	90                   	nop
    1f48:	89 3c 24             	mov    %edi,(%esp)
    1f4b:	e8 e0 07 02 00       	call   22730 <async_forget>
    1f50:	e9 1e ff ff ff       	jmp    1e73 <default_connection_handler+0xc3>
    1f55:	8d 76 00             	lea    0x0(%esi),%esi
    1f58:	8b 45 0c             	mov    0xc(%ebp),%eax
    1f5b:	c7 44 24 04 f2 ff ff 	movl   $0xfffffff2,0x4(%esp)
    1f62:	ff 
    1f63:	89 04 24             	mov    %eax,(%esp)
    1f66:	e8 05 10 02 00       	call   22f70 <async_answer_0>
    1f6b:	83 c4 6c             	add    $0x6c,%esp
    1f6e:	5b                   	pop    %ebx
    1f6f:	5e                   	pop    %esi
    1f70:	5f                   	pop    %edi
    1f71:	5d                   	pop    %ebp
    1f72:	c3                   	ret    
    1f73:	8d b6 00 00 00 00    	lea    0x0(%esi),%esi
    1f79:	8d bc 27 00 00 00 00 	lea    0x0(%edi,%eiz,1),%edi

00001f80 <on_client_close>:
    1f80:	55                   	push   %ebp
    1f81:	89 e5                	mov    %esp,%ebp
    1f83:	83 ec 38             	sub    $0x38,%esp
    1f86:	8b 45 08             	mov    0x8(%ebp),%eax
    1f89:	89 04 24             	mov    %eax,(%esp)
    1f8c:	e8 3f 99 00 00       	call   b8d0 <ddf_fun_get_dev>
    1f91:	89 04 24             	mov    %eax,(%esp)
    1f94:	e8 57 98 00 00       	call   b7f0 <ddf_dev_data_get>
    1f99:	65 8b 15 cc fd ff ff 	mov    %gs:0xfffffdcc,%edx
    1fa0:	85 d2                	test   %edx,%edx
    1fa2:	75 04                	jne    1fa8 <on_client_close+0x28>
    1fa4:	c9                   	leave  
    1fa5:	c3                   	ret    
    1fa6:	66 90                	xchg   %ax,%ax
    1fa8:	89 54 24 10          	mov    %edx,0x10(%esp)
    1fac:	65 8b 15 00 00 00 00 	mov    %gs:0x0,%edx
    1fb3:	81 c2 c8 fc ff ff    	add    $0xfffffcc8,%edx
    1fb9:	c7 44 24 08 68 f6 02 	movl   $0x2f668,0x8(%esp)
    1fc0:	00 
    1fc1:	89 54 24 0c          	mov    %edx,0xc(%esp)
    1fc5:	c7 44 24 04 03 00 00 	movl   $0x3,0x4(%esp)
    1fcc:	00 
    1fcd:	c7 04 24 ff ff ff ff 	movl   $0xffffffff,(%esp)
    1fd4:	89 45 f4             	mov    %eax,-0xc(%ebp)
    1fd7:	e8 b4 93 01 00       	call   1b390 <log_msg>
    1fdc:	8b 45 f4             	mov    -0xc(%ebp),%eax
    1fdf:	65 8b 15 cc fd ff ff 	mov    %gs:0xfffffdcc,%edx
    1fe6:	89 04 24             	mov    %eax,(%esp)
    1fe9:	89 54 24 04          	mov    %edx,0x4(%esp)
    1fed:	e8 9e 09 00 00       	call   2990 <vhc_virtdev_unplug>
    1ff2:	c9                   	leave  
    1ff3:	c3                   	ret    
    1ff4:	66 90                	xchg   %ax,%ax
    1ff6:	66 90                	xchg   %ax,%ax
    1ff8:	66 90                	xchg   %ax,%ax
    1ffa:	66 90                	xchg   %ax,%ax
    1ffc:	66 90                	xchg   %ax,%ax
    1ffe:	66 90                	xchg   %ax,%ax

00002000 <tell_address>:
    2000:	55                   	push   %ebp
    2001:	89 e5                	mov    %esp,%ebp
    2003:	83 ec 28             	sub    $0x28,%esp
    2006:	c7 44 24 14 db 01 00 	movl   $0x1db,0x14(%esp)
    200d:	00 
    200e:	c7 44 24 10 94 f6 02 	movl   $0x2f694,0x10(%esp)
    2015:	00 
    2016:	c7 44 24 0c 9f f6 02 	movl   $0x2f69f,0xc(%esp)
    201d:	00 
    201e:	c7 44 24 08 14 f7 02 	movl   $0x2f714,0x8(%esp)
    2025:	00 
    2026:	c7 44 24 04 02 00 00 	movl   $0x2,0x4(%esp)
    202d:	00 
    202e:	c7 04 24 ff ff ff ff 	movl   $0xffffffff,(%esp)
    2035:	e8 56 93 01 00       	call   1b390 <log_msg>
    203a:	b8 f5 ff ff ff       	mov    $0xfffffff5,%eax
    203f:	c9                   	leave  
    2040:	c3                   	ret    
    2041:	eb 0d                	jmp    2050 <usb_write>
    2043:	90                   	nop
    2044:	90                   	nop
    2045:	90                   	nop
    2046:	90                   	nop
    2047:	90                   	nop
    2048:	90                   	nop
    2049:	90                   	nop
    204a:	90                   	nop
    204b:	90                   	nop
    204c:	90                   	nop
    204d:	90                   	nop
    204e:	90                   	nop
    204f:	90                   	nop

00002050 <usb_write>:
    2050:	55                   	push   %ebp
    2051:	89 e5                	mov    %esp,%ebp
    2053:	57                   	push   %edi
    2054:	56                   	push   %esi
    2055:	53                   	push   %ebx
    2056:	83 ec 3c             	sub    $0x3c,%esp
    2059:	8b 45 10             	mov    0x10(%ebp),%eax
    205c:	8b 7d 0c             	mov    0xc(%ebp),%edi
    205f:	89 45 e0             	mov    %eax,-0x20(%ebp)
    2062:	8b 45 14             	mov    0x14(%ebp),%eax
    2065:	89 45 e4             	mov    %eax,-0x1c(%ebp)
    2068:	8b 45 08             	mov    0x8(%ebp),%eax
    206b:	89 04 24             	mov    %eax,(%esp)
    206e:	e8 5d 98 00 00       	call   b8d0 <ddf_fun_get_dev>
    2073:	89 04 24             	mov    %eax,(%esp)
    2076:	e8 75 97 00 00       	call   b7f0 <ddf_dev_data_get>
    207b:	0f bf f7             	movswl %di,%esi
    207e:	c1 ef 10             	shr    $0x10,%edi
    2081:	89 c3                	mov    %eax,%ebx
    2083:	81 38 ef be ad de    	cmpl   $0xdeadbeef,(%eax)
    2089:	0f 85 ed 00 00 00    	jne    217c <usb_write+0x12c>
    208f:	8d 40 1c             	lea    0x1c(%eax),%eax
    2092:	c7 44 24 0c 01 00 00 	movl   $0x1,0xc(%esp)
    2099:	00 
    209a:	0f bf ff             	movswl %di,%edi
    209d:	89 7c 24 08          	mov    %edi,0x8(%esp)
    20a1:	89 74 24 04          	mov    %esi,0x4(%esp)
    20a5:	89 04 24             	mov    %eax,(%esp)
    20a8:	e8 23 5f 00 00       	call   7fd0 <usb_endpoint_manager_find_ep>
    20ad:	85 c0                	test   %eax,%eax
    20af:	0f 84 bb 00 00 00    	je     2170 <usb_write+0x120>
    20b5:	8b 50 10             	mov    0x10(%eax),%edx
    20b8:	8b 45 24             	mov    0x24(%ebp),%eax
    20bb:	89 44 24 14          	mov    %eax,0x14(%esp)
    20bf:	8b 45 08             	mov    0x8(%ebp),%eax
    20c2:	89 54 24 0c          	mov    %edx,0xc(%esp)
    20c6:	89 34 24             	mov    %esi,(%esp)
    20c9:	89 44 24 10          	mov    %eax,0x10(%esp)
    20cd:	c7 44 24 08 01 00 00 	movl   $0x1,0x8(%esp)
    20d4:	00 
    20d5:	89 7c 24 04          	mov    %edi,0x4(%esp)
    20d9:	89 55 dc             	mov    %edx,-0x24(%ebp)
    20dc:	e8 4f 0d 00 00       	call   2e30 <vhc_transfer_create>
    20e1:	8b 55 dc             	mov    -0x24(%ebp),%edx
    20e4:	89 c6                	mov    %eax,%esi
    20e6:	85 c0                	test   %eax,%eax
    20e8:	0f 84 87 00 00 00    	je     2175 <usb_write+0x125>
    20ee:	85 d2                	test   %edx,%edx
    20f0:	75 35                	jne    2127 <usb_write+0xd7>
    20f2:	c7 04 24 08 00 00 00 	movl   $0x8,(%esp)
    20f9:	e8 32 e3 01 00       	call   20430 <malloc>
    20fe:	89 46 14             	mov    %eax,0x14(%esi)
    2101:	85 c0                	test   %eax,%eax
    2103:	0f 84 8f 00 00 00    	je     2198 <usb_write+0x148>
    2109:	8d 55 e0             	lea    -0x20(%ebp),%edx
    210c:	c7 44 24 08 08 00 00 	movl   $0x8,0x8(%esp)
    2113:	00 
    2114:	89 54 24 04          	mov    %edx,0x4(%esp)
    2118:	89 04 24             	mov    %eax,(%esp)
    211b:	e8 b0 0e 01 00       	call   12fd0 <memcpy>
    2120:	c7 46 18 08 00 00 00 	movl   $0x8,0x18(%esi)
    2127:	8b 45 18             	mov    0x18(%ebp),%eax
    212a:	89 46 1c             	mov    %eax,0x1c(%esi)
    212d:	8b 45 1c             	mov    0x1c(%ebp),%eax
    2130:	89 46 20             	mov    %eax,0x20(%esi)
    2133:	8b 45 20             	mov    0x20(%ebp),%eax
    2136:	89 46 30             	mov    %eax,0x30(%esi)
    2139:	89 74 24 04          	mov    %esi,0x4(%esp)
    213d:	89 1c 24             	mov    %ebx,(%esp)
    2140:	e8 db 0d 00 00       	call   2f20 <vhc_virtdev_add_transfer>
    2145:	85 c0                	test   %eax,%eax
    2147:	74 19                	je     2162 <usb_write+0x112>
    2149:	8b 56 14             	mov    0x14(%esi),%edx
    214c:	89 45 dc             	mov    %eax,-0x24(%ebp)
    214f:	89 14 24             	mov    %edx,(%esp)
    2152:	e8 e9 e3 01 00       	call   20540 <free>
    2157:	89 34 24             	mov    %esi,(%esp)
    215a:	e8 e1 e3 01 00       	call   20540 <free>
    215f:	8b 45 dc             	mov    -0x24(%ebp),%eax
    2162:	83 c4 3c             	add    $0x3c,%esp
    2165:	5b                   	pop    %ebx
    2166:	5e                   	pop    %esi
    2167:	5f                   	pop    %edi
    2168:	5d                   	pop    %ebp
    2169:	c3                   	ret    
    216a:	8d b6 00 00 00 00    	lea    0x0(%esi),%esi
    2170:	83 c8 ff             	or     $0xffffffff,%eax
    2173:	eb ed                	jmp    2162 <usb_write+0x112>
    2175:	b8 fe ff ff ff       	mov    $0xfffffffe,%eax
    217a:	eb e6                	jmp    2162 <usb_write+0x112>
    217c:	c7 44 24 08 b5 01 00 	movl   $0x1b5,0x8(%esp)
    2183:	00 
    2184:	c7 44 24 04 94 f6 02 	movl   $0x2f694,0x4(%esp)
    218b:	00 
    218c:	c7 04 24 ac f6 02 00 	movl   $0x2f6ac,(%esp)
    2193:	e8 f8 8a 02 00       	call   2ac90 <assert_abort>
    2198:	c7 44 24 08 c7 01 00 	movl   $0x1c7,0x8(%esp)
    219f:	00 
    21a0:	c7 44 24 04 94 f6 02 	movl   $0x2f694,0x4(%esp)
    21a7:	00 
    21a8:	c7 04 24 c5 f6 02 00 	movl   $0x2f6c5,(%esp)
    21af:	e8 dc 8a 02 00       	call   2ac90 <assert_abort>
    21b4:	8d b6 00 00 00 00    	lea    0x0(%esi),%esi
    21ba:	8d bf 00 00 00 00    	lea    0x0(%edi),%edi

000021c0 <usb_read>:
    21c0:	55                   	push   %ebp
    21c1:	89 e5                	mov    %esp,%ebp
    21c3:	57                   	push   %edi
    21c4:	56                   	push   %esi
    21c5:	53                   	push   %ebx
    21c6:	83 ec 3c             	sub    $0x3c,%esp
    21c9:	8b 45 10             	mov    0x10(%ebp),%eax
    21cc:	8b 7d 0c             	mov    0xc(%ebp),%edi
    21cf:	89 45 e0             	mov    %eax,-0x20(%ebp)
    21d2:	8b 45 14             	mov    0x14(%ebp),%eax
    21d5:	89 45 e4             	mov    %eax,-0x1c(%ebp)
    21d8:	8b 45 08             	mov    0x8(%ebp),%eax
    21db:	89 04 24             	mov    %eax,(%esp)
    21de:	e8 ed 96 00 00       	call   b8d0 <ddf_fun_get_dev>
    21e3:	89 04 24             	mov    %eax,(%esp)
    21e6:	e8 05 96 00 00       	call   b7f0 <ddf_dev_data_get>
    21eb:	0f bf f7             	movswl %di,%esi
    21ee:	c1 ef 10             	shr    $0x10,%edi
    21f1:	89 c3                	mov    %eax,%ebx
    21f3:	81 38 ef be ad de    	cmpl   $0xdeadbeef,(%eax)
    21f9:	0f 85 f5 00 00 00    	jne    22f4 <usb_read+0x134>
    21ff:	8d 40 1c             	lea    0x1c(%eax),%eax
    2202:	c7 44 24 0c 00 00 00 	movl   $0x0,0xc(%esp)
    2209:	00 
    220a:	0f bf ff             	movswl %di,%edi
    220d:	89 7c 24 08          	mov    %edi,0x8(%esp)
    2211:	89 74 24 04          	mov    %esi,0x4(%esp)
    2215:	89 04 24             	mov    %eax,(%esp)
    2218:	e8 b3 5d 00 00       	call   7fd0 <usb_endpoint_manager_find_ep>
    221d:	85 c0                	test   %eax,%eax
    221f:	0f 84 c3 00 00 00    	je     22e8 <usb_read+0x128>
    2225:	8b 50 10             	mov    0x10(%eax),%edx
    2228:	8b 45 24             	mov    0x24(%ebp),%eax
    222b:	89 44 24 14          	mov    %eax,0x14(%esp)
    222f:	8b 45 08             	mov    0x8(%ebp),%eax
    2232:	89 54 24 0c          	mov    %edx,0xc(%esp)
    2236:	89 34 24             	mov    %esi,(%esp)
    2239:	89 44 24 10          	mov    %eax,0x10(%esp)
    223d:	c7 44 24 08 00 00 00 	movl   $0x0,0x8(%esp)
    2244:	00 
    2245:	89 7c 24 04          	mov    %edi,0x4(%esp)
    2249:	89 55 dc             	mov    %edx,-0x24(%ebp)
    224c:	e8 df 0b 00 00       	call   2e30 <vhc_transfer_create>
    2251:	8b 55 dc             	mov    -0x24(%ebp),%edx
    2254:	89 c6                	mov    %eax,%esi
    2256:	85 c0                	test   %eax,%eax
    2258:	0f 84 8f 00 00 00    	je     22ed <usb_read+0x12d>
    225e:	85 d2                	test   %edx,%edx
    2260:	75 35                	jne    2297 <usb_read+0xd7>
    2262:	c7 04 24 08 00 00 00 	movl   $0x8,(%esp)
    2269:	e8 c2 e1 01 00       	call   20430 <malloc>
    226e:	89 46 14             	mov    %eax,0x14(%esi)
    2271:	85 c0                	test   %eax,%eax
    2273:	0f 84 97 00 00 00    	je     2310 <usb_read+0x150>
    2279:	8d 55 e0             	lea    -0x20(%ebp),%edx
    227c:	c7 44 24 08 08 00 00 	movl   $0x8,0x8(%esp)
    2283:	00 
    2284:	89 54 24 04          	mov    %edx,0x4(%esp)
    2288:	89 04 24             	mov    %eax,(%esp)
    228b:	e8 40 0d 01 00       	call   12fd0 <memcpy>
    2290:	c7 46 18 08 00 00 00 	movl   $0x8,0x18(%esi)
    2297:	8b 45 18             	mov    0x18(%ebp),%eax
    229a:	89 46 1c             	mov    %eax,0x1c(%esi)
    229d:	8b 45 1c             	mov    0x1c(%ebp),%eax
    22a0:	89 46 20             	mov    %eax,0x20(%esi)
    22a3:	8b 45 20             	mov    0x20(%ebp),%eax
    22a6:	89 46 2c             	mov    %eax,0x2c(%esi)
    22a9:	89 74 24 04          	mov    %esi,0x4(%esp)
    22ad:	89 1c 24             	mov    %ebx,(%esp)
    22b0:	e8 6b 0c 00 00       	call   2f20 <vhc_virtdev_add_transfer>
    22b5:	85 c0                	test   %eax,%eax
    22b7:	74 23                	je     22dc <usb_read+0x11c>
    22b9:	8b 56 14             	mov    0x14(%esi),%edx
    22bc:	85 d2                	test   %edx,%edx
    22be:	74 0e                	je     22ce <usb_read+0x10e>
    22c0:	89 14 24             	mov    %edx,(%esp)
    22c3:	89 45 dc             	mov    %eax,-0x24(%ebp)
    22c6:	e8 75 e2 01 00       	call   20540 <free>
    22cb:	8b 45 dc             	mov    -0x24(%ebp),%eax
    22ce:	89 34 24             	mov    %esi,(%esp)
    22d1:	89 45 dc             	mov    %eax,-0x24(%ebp)
    22d4:	e8 67 e2 01 00       	call   20540 <free>
    22d9:	8b 45 dc             	mov    -0x24(%ebp),%eax
    22dc:	83 c4 3c             	add    $0x3c,%esp
    22df:	5b                   	pop    %ebx
    22e0:	5e                   	pop    %esi
    22e1:	5f                   	pop    %edi
    22e2:	5d                   	pop    %ebp
    22e3:	c3                   	ret    
    22e4:	8d 74 26 00          	lea    0x0(%esi,%eiz,1),%esi
    22e8:	83 c8 ff             	or     $0xffffffff,%eax
    22eb:	eb ef                	jmp    22dc <usb_read+0x11c>
    22ed:	b8 fe ff ff ff       	mov    $0xfffffffe,%eax
    22f2:	eb e8                	jmp    22dc <usb_read+0x11c>
    22f4:	c7 44 24 08 8b 01 00 	movl   $0x18b,0x8(%esp)
    22fb:	00 
    22fc:	c7 44 24 04 94 f6 02 	movl   $0x2f694,0x4(%esp)
    2303:	00 
    2304:	c7 04 24 ac f6 02 00 	movl   $0x2f6ac,(%esp)
    230b:	e8 80 89 02 00       	call   2ac90 <assert_abort>
    2310:	c7 44 24 08 9d 01 00 	movl   $0x19d,0x8(%esp)
    2317:	00 
    2318:	c7 44 24 04 94 f6 02 	movl   $0x2f694,0x4(%esp)
    231f:	00 
    2320:	c7 04 24 c5 f6 02 00 	movl   $0x2f6c5,(%esp)
    2327:	e8 64 89 02 00       	call   2ac90 <assert_abort>
    232c:	8d 74 26 00          	lea    0x0(%esi,%eiz,1),%esi

00002330 <usb_iface_get_hc_handle_rh_impl>:
    2330:	55                   	push   %ebp
    2331:	89 e5                	mov    %esp,%ebp
    2333:	83 ec 18             	sub    $0x18,%esp
    2336:	8b 45 08             	mov    0x8(%ebp),%eax
    2339:	89 04 24             	mov    %eax,(%esp)
    233c:	e8 8f 95 00 00       	call   b8d0 <ddf_fun_get_dev>
    2341:	89 04 24             	mov    %eax,(%esp)
    2344:	e8 a7 94 00 00       	call   b7f0 <ddf_dev_data_get>
    2349:	81 38 ef be ad de    	cmpl   $0xdeadbeef,(%eax)
    234f:	75 17                	jne    2368 <usb_iface_get_hc_handle_rh_impl+0x38>
    2351:	8b 80 9c 06 00 00    	mov    0x69c(%eax),%eax
    2357:	89 04 24             	mov    %eax,(%esp)
    235a:	e8 81 95 00 00       	call   b8e0 <ddf_fun_get_handle>
    235f:	8b 55 0c             	mov    0xc(%ebp),%edx
    2362:	89 02                	mov    %eax,(%edx)
    2364:	31 c0                	xor    %eax,%eax
    2366:	c9                   	leave  
    2367:	c3                   	ret    
    2368:	c7 44 24 08 e3 01 00 	movl   $0x1e3,0x8(%esp)
    236f:	00 
    2370:	c7 44 24 04 94 f6 02 	movl   $0x2f694,0x4(%esp)
    2377:	00 
    2378:	c7 04 24 ac f6 02 00 	movl   $0x2f6ac,(%esp)
    237f:	e8 0c 89 02 00       	call   2ac90 <assert_abort>
    2384:	8d b6 00 00 00 00    	lea    0x0(%esi),%esi
    238a:	8d bf 00 00 00 00    	lea    0x0(%edi),%edi

00002390 <tell_address_rh>:
    2390:	55                   	push   %ebp
    2391:	89 e5                	mov    %esp,%ebp
    2393:	56                   	push   %esi
    2394:	53                   	push   %ebx
    2395:	83 ec 10             	sub    $0x10,%esp
    2398:	8b 5d 08             	mov    0x8(%ebp),%ebx
    239b:	89 1c 24             	mov    %ebx,(%esp)
    239e:	e8 2d 95 00 00       	call   b8d0 <ddf_fun_get_dev>
    23a3:	89 04 24             	mov    %eax,(%esp)
    23a6:	e8 45 94 00 00       	call   b7f0 <ddf_dev_data_get>
    23ab:	89 c6                	mov    %eax,%esi
    23ad:	81 38 ef be ad de    	cmpl   $0xdeadbeef,(%eax)
    23b3:	75 5b                	jne    2410 <tell_address_rh+0x80>
    23b5:	89 1c 24             	mov    %ebx,(%esp)
    23b8:	83 c6 74             	add    $0x74,%esi
    23bb:	e8 20 95 00 00       	call   b8e0 <ddf_fun_get_handle>
    23c0:	c7 44 24 08 dc f6 02 	movl   $0x2f6dc,0x8(%esp)
    23c7:	00 
    23c8:	89 c3                	mov    %eax,%ebx
    23ca:	89 44 24 0c          	mov    %eax,0xc(%esp)
    23ce:	c7 44 24 04 04 00 00 	movl   $0x4,0x4(%esp)
    23d5:	00 
    23d6:	c7 04 24 ff ff ff ff 	movl   $0xffffffff,(%esp)
    23dd:	e8 ae 8f 01 00       	call   1b390 <log_msg>
    23e2:	89 5c 24 04          	mov    %ebx,0x4(%esp)
    23e6:	89 34 24             	mov    %esi,(%esp)
    23e9:	e8 a2 54 00 00       	call   7890 <usb_device_manager_find_address>
    23ee:	66 85 c0             	test   %ax,%ax
    23f1:	78 15                	js     2408 <tell_address_rh+0x78>
    23f3:	8b 55 0c             	mov    0xc(%ebp),%edx
    23f6:	66 89 02             	mov    %ax,(%edx)
    23f9:	83 c4 10             	add    $0x10,%esp
    23fc:	31 c0                	xor    %eax,%eax
    23fe:	5b                   	pop    %ebx
    23ff:	5e                   	pop    %esi
    2400:	5d                   	pop    %ebp
    2401:	c3                   	ret    
    2402:	8d b6 00 00 00 00    	lea    0x0(%esi),%esi
    2408:	83 c4 10             	add    $0x10,%esp
    240b:	98                   	cwtl   
    240c:	5b                   	pop    %ebx
    240d:	5e                   	pop    %esi
    240e:	5d                   	pop    %ebp
    240f:	c3                   	ret    
    2410:	c7 44 24 08 ec 01 00 	movl   $0x1ec,0x8(%esp)
    2417:	00 
    2418:	c7 44 24 04 94 f6 02 	movl   $0x2f694,0x4(%esp)
    241f:	00 
    2420:	c7 04 24 ac f6 02 00 	movl   $0x2f6ac,(%esp)
    2427:	e8 64 88 02 00       	call   2ac90 <assert_abort>
    242c:	8d 74 26 00          	lea    0x0(%esi,%eiz,1),%esi

00002430 <unregister_endpoint>:
    2430:	55                   	push   %ebp
    2431:	89 e5                	mov    %esp,%ebp
    2433:	56                   	push   %esi
    2434:	53                   	push   %ebx
    2435:	83 ec 20             	sub    $0x20,%esp
    2438:	8b 45 08             	mov    0x8(%ebp),%eax
    243b:	89 04 24             	mov    %eax,(%esp)
    243e:	0f bf 5d 0c          	movswl 0xc(%ebp),%ebx
    2442:	0f bf 75 10          	movswl 0x10(%ebp),%esi
    2446:	e8 85 94 00 00       	call   b8d0 <ddf_fun_get_dev>
    244b:	89 04 24             	mov    %eax,(%esp)
    244e:	e8 9d 93 00 00       	call   b7f0 <ddf_dev_data_get>
    2453:	81 38 ef be ad de    	cmpl   $0xdeadbeef,(%eax)
    2459:	75 31                	jne    248c <unregister_endpoint+0x5c>
    245b:	8b 55 14             	mov    0x14(%ebp),%edx
    245e:	83 c0 1c             	add    $0x1c,%eax
    2461:	89 74 24 08          	mov    %esi,0x8(%esp)
    2465:	89 5c 24 04          	mov    %ebx,0x4(%esp)
    2469:	c7 44 24 14 00 00 00 	movl   $0x0,0x14(%esp)
    2470:	00 
    2471:	c7 44 24 10 00 00 00 	movl   $0x0,0x10(%esp)
    2478:	00 
    2479:	89 54 24 0c          	mov    %edx,0xc(%esp)
    247d:	89 04 24             	mov    %eax,(%esp)
    2480:	e8 9b 5d 00 00       	call   8220 <usb_endpoint_manager_remove_ep>
    2485:	83 c4 20             	add    $0x20,%esp
    2488:	5b                   	pop    %ebx
    2489:	5e                   	pop    %esi
    248a:	5d                   	pop    %ebp
    248b:	c3                   	ret    
    248c:	c7 44 24 08 99 00 00 	movl   $0x99,0x8(%esp)
    2493:	00 
    2494:	c7 44 24 04 94 f6 02 	movl   $0x2f694,0x4(%esp)
    249b:	00 
    249c:	c7 04 24 ac f6 02 00 	movl   $0x2f6ac,(%esp)
    24a3:	e8 e8 87 02 00       	call   2ac90 <assert_abort>
    24a8:	90                   	nop
    24a9:	8d b4 26 00 00 00 00 	lea    0x0(%esi,%eiz,1),%esi

000024b0 <register_endpoint>:
    24b0:	55                   	push   %ebp
    24b1:	89 e5                	mov    %esp,%ebp
    24b3:	56                   	push   %esi
    24b4:	53                   	push   %ebx
    24b5:	83 ec 30             	sub    $0x30,%esp
    24b8:	8b 45 08             	mov    0x8(%ebp),%eax
    24bb:	89 04 24             	mov    %eax,(%esp)
    24be:	0f bf 5d 0c          	movswl 0xc(%ebp),%ebx
    24c2:	0f bf 75 10          	movswl 0x10(%ebp),%esi
    24c6:	e8 05 94 00 00       	call   b8d0 <ddf_fun_get_dev>
    24cb:	89 04 24             	mov    %eax,(%esp)
    24ce:	e8 1d 93 00 00       	call   b7f0 <ddf_dev_data_get>
    24d3:	81 38 ef be ad de    	cmpl   $0xdeadbeef,(%eax)
    24d9:	75 50                	jne    252b <register_endpoint+0x7b>
    24db:	8b 55 14             	mov    0x14(%ebp),%edx
    24de:	83 c0 1c             	add    $0x1c,%eax
    24e1:	89 54 24 10          	mov    %edx,0x10(%esp)
    24e5:	8b 55 18             	mov    0x18(%ebp),%edx
    24e8:	89 74 24 08          	mov    %esi,0x8(%esp)
    24ec:	89 5c 24 04          	mov    %ebx,0x4(%esp)
    24f0:	c7 44 24 24 00 00 00 	movl   $0x0,0x24(%esp)
    24f7:	00 
    24f8:	c7 44 24 20 00 00 00 	movl   $0x0,0x20(%esp)
    24ff:	00 
    2500:	c7 44 24 1c 00 00 00 	movl   $0x0,0x1c(%esp)
    2507:	00 
    2508:	c7 44 24 18 01 00 00 	movl   $0x1,0x18(%esp)
    250f:	00 
    2510:	c7 44 24 14 01 00 00 	movl   $0x1,0x14(%esp)
    2517:	00 
    2518:	89 54 24 0c          	mov    %edx,0xc(%esp)
    251c:	89 04 24             	mov    %eax,(%esp)
    251f:	e8 1c 5b 00 00       	call   8040 <usb_endpoint_manager_add_ep>
    2524:	83 c4 30             	add    $0x30,%esp
    2527:	5b                   	pop    %ebx
    2528:	5e                   	pop    %esi
    2529:	5d                   	pop    %ebp
    252a:	c3                   	ret    
    252b:	c7 44 24 08 86 00 00 	movl   $0x86,0x8(%esp)
    2532:	00 
    2533:	c7 44 24 04 94 f6 02 	movl   $0x2f694,0x4(%esp)
    253a:	00 
    253b:	c7 04 24 ac f6 02 00 	movl   $0x2f6ac,(%esp)
    2542:	e8 49 87 02 00       	call   2ac90 <assert_abort>
    2547:	89 f6                	mov    %esi,%esi
    2549:	8d bc 27 00 00 00 00 	lea    0x0(%edi,%eiz,1),%edi

00002550 <release_address>:
    2550:	55                   	push   %ebp
    2551:	89 e5                	mov    %esp,%ebp
    2553:	56                   	push   %esi
    2554:	53                   	push   %ebx
    2555:	83 ec 10             	sub    $0x10,%esp
    2558:	8b 45 08             	mov    0x8(%ebp),%eax
    255b:	89 04 24             	mov    %eax,(%esp)
    255e:	0f bf 75 0c          	movswl 0xc(%ebp),%esi
    2562:	e8 69 93 00 00       	call   b8d0 <ddf_fun_get_dev>
    2567:	89 04 24             	mov    %eax,(%esp)
    256a:	e8 81 92 00 00       	call   b7f0 <ddf_dev_data_get>
    256f:	89 c3                	mov    %eax,%ebx
    2571:	81 38 ef be ad de    	cmpl   $0xdeadbeef,(%eax)
    2577:	75 3b                	jne    25b4 <release_address+0x64>
    2579:	89 74 24 0c          	mov    %esi,0xc(%esp)
    257d:	c7 44 24 08 f8 f6 02 	movl   $0x2f6f8,0x8(%esp)
    2584:	00 
    2585:	c7 44 24 04 04 00 00 	movl   $0x4,0x4(%esp)
    258c:	00 
    258d:	c7 04 24 ff ff ff ff 	movl   $0xffffffff,(%esp)
    2594:	83 c3 74             	add    $0x74,%ebx
    2597:	e8 f4 8d 01 00       	call   1b390 <log_msg>
    259c:	89 74 24 04          	mov    %esi,0x4(%esp)
    25a0:	89 1c 24             	mov    %ebx,(%esp)
    25a3:	e8 58 52 00 00       	call   7800 <usb_device_manager_release_address>
    25a8:	83 c4 10             	add    $0x10,%esp
    25ab:	b8 f5 ff ff ff       	mov    $0xfffffff5,%eax
    25b0:	5b                   	pop    %ebx
    25b1:	5e                   	pop    %esi
    25b2:	5d                   	pop    %ebp
    25b3:	c3                   	ret    
    25b4:	c7 44 24 08 6e 00 00 	movl   $0x6e,0x8(%esp)
    25bb:	00 
    25bc:	c7 44 24 04 94 f6 02 	movl   $0x2f694,0x4(%esp)
    25c3:	00 
    25c4:	c7 04 24 ac f6 02 00 	movl   $0x2f6ac,(%esp)
    25cb:	e8 c0 86 02 00       	call   2ac90 <assert_abort>

000025d0 <find_by_address>:
    25d0:	55                   	push   %ebp
    25d1:	89 e5                	mov    %esp,%ebp
    25d3:	53                   	push   %ebx
    25d4:	83 ec 14             	sub    $0x14,%esp
    25d7:	8b 45 08             	mov    0x8(%ebp),%eax
    25da:	89 04 24             	mov    %eax,(%esp)
    25dd:	0f bf 5d 0c          	movswl 0xc(%ebp),%ebx
    25e1:	e8 ea 92 00 00       	call   b8d0 <ddf_fun_get_dev>
    25e6:	89 04 24             	mov    %eax,(%esp)
    25e9:	e8 02 92 00 00       	call   b7f0 <ddf_dev_data_get>
    25ee:	81 38 ef be ad de    	cmpl   $0xdeadbeef,(%eax)
    25f4:	75 24                	jne    261a <find_by_address+0x4a>
    25f6:	8b 55 10             	mov    0x10(%ebp),%edx
    25f9:	83 c0 74             	add    $0x74,%eax
    25fc:	89 5c 24 04          	mov    %ebx,0x4(%esp)
    2600:	c7 44 24 0c 00 00 00 	movl   $0x0,0xc(%esp)
    2607:	00 
    2608:	89 54 24 08          	mov    %edx,0x8(%esp)
    260c:	89 04 24             	mov    %eax,(%esp)
    260f:	e8 3c 53 00 00       	call   7950 <usb_device_manager_get_info_by_address>
    2614:	83 c4 14             	add    $0x14,%esp
    2617:	5b                   	pop    %ebx
    2618:	5d                   	pop    %ebp
    2619:	c3                   	ret    
    261a:	c7 44 24 08 61 00 00 	movl   $0x61,0x8(%esp)
    2621:	00 
    2622:	c7 44 24 04 94 f6 02 	movl   $0x2f694,0x4(%esp)
    2629:	00 
    262a:	c7 04 24 ac f6 02 00 	movl   $0x2f6ac,(%esp)
    2631:	e8 5a 86 02 00       	call   2ac90 <assert_abort>
    2636:	8d 76 00             	lea    0x0(%esi),%esi
    2639:	8d bc 27 00 00 00 00 	lea    0x0(%edi,%eiz,1),%edi

00002640 <bind_address>:
    2640:	55                   	push   %ebp
    2641:	89 e5                	mov    %esp,%ebp
    2643:	57                   	push   %edi
    2644:	56                   	push   %esi
    2645:	53                   	push   %ebx
    2646:	83 ec 2c             	sub    $0x2c,%esp
    2649:	8b 45 08             	mov    0x8(%ebp),%eax
    264c:	8b 75 10             	mov    0x10(%ebp),%esi
    264f:	89 04 24             	mov    %eax,(%esp)
    2652:	0f bf 7d 0c          	movswl 0xc(%ebp),%edi
    2656:	e8 75 92 00 00       	call   b8d0 <ddf_fun_get_dev>
    265b:	89 04 24             	mov    %eax,(%esp)
    265e:	e8 8d 91 00 00       	call   b7f0 <ddf_dev_data_get>
    2663:	89 c3                	mov    %eax,%ebx
    2665:	81 38 ef be ad de    	cmpl   $0xdeadbeef,(%eax)
    266b:	75 41                	jne    26ae <bind_address+0x6e>
    266d:	89 7c 24 10          	mov    %edi,0x10(%esp)
    2671:	89 74 24 0c          	mov    %esi,0xc(%esp)
    2675:	c7 44 24 08 44 f7 02 	movl   $0x2f744,0x8(%esp)
    267c:	00 
    267d:	c7 44 24 04 04 00 00 	movl   $0x4,0x4(%esp)
    2684:	00 
    2685:	c7 04 24 ff ff ff ff 	movl   $0xffffffff,(%esp)
    268c:	83 c3 74             	add    $0x74,%ebx
    268f:	e8 fc 8c 01 00       	call   1b390 <log_msg>
    2694:	89 74 24 08          	mov    %esi,0x8(%esp)
    2698:	89 7c 24 04          	mov    %edi,0x4(%esp)
    269c:	89 1c 24             	mov    %ebx,(%esp)
    269f:	e8 bc 50 00 00       	call   7760 <usb_device_manager_bind_address>
    26a4:	83 c4 2c             	add    $0x2c,%esp
    26a7:	31 c0                	xor    %eax,%eax
    26a9:	5b                   	pop    %ebx
    26aa:	5e                   	pop    %esi
    26ab:	5f                   	pop    %edi
    26ac:	5d                   	pop    %ebp
    26ad:	c3                   	ret    
    26ae:	c7 44 24 08 4f 00 00 	movl   $0x4f,0x8(%esp)
    26b5:	00 
    26b6:	c7 44 24 04 94 f6 02 	movl   $0x2f694,0x4(%esp)
    26bd:	00 
    26be:	c7 04 24 ac f6 02 00 	movl   $0x2f6ac,(%esp)
    26c5:	e8 c6 85 02 00       	call   2ac90 <assert_abort>
    26ca:	8d b6 00 00 00 00    	lea    0x0(%esi),%esi

000026d0 <request_address>:
    26d0:	55                   	push   %ebp
    26d1:	89 e5                	mov    %esp,%ebp
    26d3:	57                   	push   %edi
    26d4:	56                   	push   %esi
    26d5:	53                   	push   %ebx
    26d6:	83 ec 1c             	sub    $0x1c,%esp
    26d9:	8b 45 08             	mov    0x8(%ebp),%eax
    26dc:	8b 5d 0c             	mov    0xc(%ebp),%ebx
    26df:	89 04 24             	mov    %eax,(%esp)
    26e2:	8b 75 14             	mov    0x14(%ebp),%esi
    26e5:	0f b6 7d 10          	movzbl 0x10(%ebp),%edi
    26e9:	e8 e2 91 00 00       	call   b8d0 <ddf_fun_get_dev>
    26ee:	89 04 24             	mov    %eax,(%esp)
    26f1:	e8 fa 90 00 00       	call   b7f0 <ddf_dev_data_get>
    26f6:	81 38 ef be ad de    	cmpl   $0xdeadbeef,(%eax)
    26fc:	75 25                	jne    2723 <request_address+0x53>
    26fe:	85 db                	test   %ebx,%ebx
    2700:	74 3d                	je     273f <request_address+0x6f>
    2702:	81 e7 ff 00 00 00    	and    $0xff,%edi
    2708:	83 c0 74             	add    $0x74,%eax
    270b:	89 75 14             	mov    %esi,0x14(%ebp)
    270e:	89 7d 10             	mov    %edi,0x10(%ebp)
    2711:	89 5d 0c             	mov    %ebx,0xc(%ebp)
    2714:	89 45 08             	mov    %eax,0x8(%ebp)
    2717:	83 c4 1c             	add    $0x1c,%esp
    271a:	5b                   	pop    %ebx
    271b:	5e                   	pop    %esi
    271c:	5f                   	pop    %edi
    271d:	5d                   	pop    %ebp
    271e:	e9 fd 4d 00 00       	jmp    7520 <usb_device_manager_request_address>
    2723:	c7 44 24 08 3e 00 00 	movl   $0x3e,0x8(%esp)
    272a:	00 
    272b:	c7 44 24 04 94 f6 02 	movl   $0x2f694,0x4(%esp)
    2732:	00 
    2733:	c7 04 24 ac f6 02 00 	movl   $0x2f6ac,(%esp)
    273a:	e8 51 85 02 00       	call   2ac90 <assert_abort>
    273f:	c7 44 24 08 40 00 00 	movl   $0x40,0x8(%esp)
    2746:	00 
    2747:	c7 44 24 04 94 f6 02 	movl   $0x2f694,0x4(%esp)
    274e:	00 
    274f:	c7 04 24 a4 f6 02 00 	movl   $0x2f6a4,(%esp)
    2756:	e8 35 85 02 00       	call   2ac90 <assert_abort>
    275b:	66 90                	xchg   %ax,%ax
    275d:	66 90                	xchg   %ax,%ax
    275f:	90                   	nop

00002760 <vhc_virtdev_plug_generic>:
    2760:	55                   	push   %ebp
    2761:	89 e5                	mov    %esp,%ebp
    2763:	57                   	push   %edi
    2764:	56                   	push   %esi
    2765:	53                   	push   %ebx
    2766:	83 ec 2c             	sub    $0x2c,%esp
    2769:	89 c3                	mov    %eax,%ebx
    276b:	8a 45 0c             	mov    0xc(%ebp),%al
    276e:	89 55 e4             	mov    %edx,-0x1c(%ebp)
    2771:	c7 04 24 2c 00 00 00 	movl   $0x2c,(%esp)
    2778:	89 ce                	mov    %ecx,%esi
    277a:	88 45 e3             	mov    %al,-0x1d(%ebp)
    277d:	e8 ae dc 01 00       	call   20430 <malloc>
    2782:	89 c7                	mov    %eax,%edi
    2784:	85 c0                	test   %eax,%eax
    2786:	0f 84 b4 00 00 00    	je     2840 <vhc_virtdev_plug_generic+0xe0>
    278c:	66 c7 40 12 00 00    	movw   $0x0,0x12(%eax)
    2792:	c7 40 08 00 00 00 00 	movl   $0x0,0x8(%eax)
    2799:	c7 40 0c 00 00 00 00 	movl   $0x0,0xc(%eax)
    27a0:	c6 40 10 01          	movb   $0x1,0x10(%eax)
    27a4:	c7 00 00 00 00 00    	movl   $0x0,(%eax)
    27aa:	c7 40 04 00 00 00 00 	movl   $0x0,0x4(%eax)
    27b1:	8d 40 14             	lea    0x14(%eax),%eax
    27b4:	89 04 24             	mov    %eax,(%esp)
    27b7:	e8 d4 48 01 00       	call   17090 <fibril_mutex_initialize>
    27bc:	8d 47 24             	lea    0x24(%edi),%eax
    27bf:	89 77 0c             	mov    %esi,0xc(%edi)
    27c2:	8d 73 0c             	lea    0xc(%ebx),%esi
    27c5:	89 47 24             	mov    %eax,0x24(%edi)
    27c8:	89 47 28             	mov    %eax,0x28(%edi)
    27cb:	89 34 24             	mov    %esi,(%esp)
    27ce:	8b 45 e4             	mov    -0x1c(%ebp),%eax
    27d1:	89 47 08             	mov    %eax,0x8(%edi)
    27d4:	e8 d7 48 01 00       	call   170b0 <fibril_mutex_lock>
    27d9:	8d 43 04             	lea    0x4(%ebx),%eax
    27dc:	89 47 04             	mov    %eax,0x4(%edi)
    27df:	8b 43 04             	mov    0x4(%ebx),%eax
    27e2:	89 7b 04             	mov    %edi,0x4(%ebx)
    27e5:	89 07                	mov    %eax,(%edi)
    27e7:	89 78 04             	mov    %edi,0x4(%eax)
    27ea:	89 34 24             	mov    %esi,(%esp)
    27ed:	e8 de 49 01 00       	call   171d0 <fibril_mutex_unlock>
    27f2:	89 7c 24 04          	mov    %edi,0x4(%esp)
    27f6:	c7 04 24 10 30 00 00 	movl   $0x3010,(%esp)
    27fd:	e8 ce 43 01 00       	call   16bd0 <fibril_create>
    2802:	85 c0                	test   %eax,%eax
    2804:	74 42                	je     2848 <vhc_virtdev_plug_generic+0xe8>
    2806:	89 04 24             	mov    %eax,(%esp)
    2809:	e8 02 45 01 00       	call   16d10 <fibril_add_ready>
    280e:	8b 45 08             	mov    0x8(%ebp),%eax
    2811:	85 c0                	test   %eax,%eax
    2813:	74 05                	je     281a <vhc_virtdev_plug_generic+0xba>
    2815:	8b 45 08             	mov    0x8(%ebp),%eax
    2818:	89 38                	mov    %edi,(%eax)
    281a:	31 f6                	xor    %esi,%esi
    281c:	80 7d e3 00          	cmpb   $0x0,-0x1d(%ebp)
    2820:	74 12                	je     2834 <vhc_virtdev_plug_generic+0xd4>
    2822:	8b 83 98 06 00 00    	mov    0x698(%ebx),%eax
    2828:	89 7c 24 04          	mov    %edi,0x4(%esp)
    282c:	89 04 24             	mov    %eax,(%esp)
    282f:	e8 ec e8 ff ff       	call   1120 <virthub_connect_device>
    2834:	83 c4 2c             	add    $0x2c,%esp
    2837:	89 f0                	mov    %esi,%eax
    2839:	5b                   	pop    %ebx
    283a:	5e                   	pop    %esi
    283b:	5f                   	pop    %edi
    283c:	5d                   	pop    %ebp
    283d:	c3                   	ret    
    283e:	66 90                	xchg   %ax,%ax
    2840:	be fe ff ff ff       	mov    $0xfffffffe,%esi
    2845:	eb ed                	jmp    2834 <vhc_virtdev_plug_generic+0xd4>
    2847:	90                   	nop
    2848:	89 3c 24             	mov    %edi,(%esp)
    284b:	be fe ff ff ff       	mov    $0xfffffffe,%esi
    2850:	e8 eb dc 01 00       	call   20540 <free>
    2855:	eb dd                	jmp    2834 <vhc_virtdev_plug_generic+0xd4>
    2857:	89 f6                	mov    %esi,%esi
    2859:	8d bc 27 00 00 00 00 	lea    0x0(%edi,%eiz,1),%edi

00002860 <vhc_virtdev_plug>:
    2860:	55                   	push   %ebp
    2861:	89 e5                	mov    %esp,%ebp
    2863:	8b 4d 10             	mov    0x10(%ebp),%ecx
    2866:	8b 45 08             	mov    0x8(%ebp),%eax
    2869:	8b 55 0c             	mov    0xc(%ebp),%edx
    286c:	89 4d 08             	mov    %ecx,0x8(%ebp)
    286f:	31 c9                	xor    %ecx,%ecx
    2871:	c7 45 0c 01 00 00 00 	movl   $0x1,0xc(%ebp)
    2878:	5d                   	pop    %ebp
    2879:	e9 e2 fe ff ff       	jmp    2760 <vhc_virtdev_plug_generic>
    287e:	66 90                	xchg   %ax,%ax

00002880 <vhc_virtdev_plug_local>:
    2880:	55                   	push   %ebp
    2881:	89 e5                	mov    %esp,%ebp
    2883:	8b 55 10             	mov    0x10(%ebp),%edx
    2886:	8b 45 08             	mov    0x8(%ebp),%eax
    2889:	8b 4d 0c             	mov    0xc(%ebp),%ecx
    288c:	89 55 08             	mov    %edx,0x8(%ebp)
    288f:	31 d2                	xor    %edx,%edx
    2891:	c7 45 0c 01 00 00 00 	movl   $0x1,0xc(%ebp)
    2898:	5d                   	pop    %ebp
    2899:	e9 c2 fe ff ff       	jmp    2760 <vhc_virtdev_plug_generic>
    289e:	66 90                	xchg   %ax,%ax

000028a0 <vhc_virtdev_plug_hub>:
    28a0:	55                   	push   %ebp
    28a1:	89 e5                	mov    %esp,%ebp
    28a3:	57                   	push   %edi
    28a4:	56                   	push   %esi
    28a5:	53                   	push   %ebx
    28a6:	83 ec 1c             	sub    $0x1c,%esp
    28a9:	8b 75 08             	mov    0x8(%ebp),%esi
    28ac:	c7 04 24 2c 00 00 00 	movl   $0x2c,(%esp)
    28b3:	e8 78 db 01 00       	call   20430 <malloc>
    28b8:	89 c3                	mov    %eax,%ebx
    28ba:	85 c0                	test   %eax,%eax
    28bc:	0f 84 ae 00 00 00    	je     2970 <vhc_virtdev_plug_hub+0xd0>
    28c2:	66 c7 40 12 00 00    	movw   $0x0,0x12(%eax)
    28c8:	c7 40 08 00 00 00 00 	movl   $0x0,0x8(%eax)
    28cf:	c7 40 0c 00 00 00 00 	movl   $0x0,0xc(%eax)
    28d6:	c6 40 10 01          	movb   $0x1,0x10(%eax)
    28da:	c7 00 00 00 00 00    	movl   $0x0,(%eax)
    28e0:	c7 40 04 00 00 00 00 	movl   $0x0,0x4(%eax)
    28e7:	8d 40 14             	lea    0x14(%eax),%eax
    28ea:	8d 7e 0c             	lea    0xc(%esi),%edi
    28ed:	89 04 24             	mov    %eax,(%esp)
    28f0:	e8 9b 47 01 00       	call   17090 <fibril_mutex_initialize>
    28f5:	8d 43 24             	lea    0x24(%ebx),%eax
    28f8:	89 43 24             	mov    %eax,0x24(%ebx)
    28fb:	89 43 28             	mov    %eax,0x28(%ebx)
    28fe:	89 3c 24             	mov    %edi,(%esp)
    2901:	8b 45 0c             	mov    0xc(%ebp),%eax
    2904:	89 43 0c             	mov    %eax,0xc(%ebx)
    2907:	c7 43 08 00 00 00 00 	movl   $0x0,0x8(%ebx)
    290e:	e8 9d 47 01 00       	call   170b0 <fibril_mutex_lock>
    2913:	8d 56 04             	lea    0x4(%esi),%edx
    2916:	89 53 04             	mov    %edx,0x4(%ebx)
    2919:	8b 56 04             	mov    0x4(%esi),%edx
    291c:	89 13                	mov    %edx,(%ebx)
    291e:	89 5e 04             	mov    %ebx,0x4(%esi)
    2921:	89 5a 04             	mov    %ebx,0x4(%edx)
    2924:	89 3c 24             	mov    %edi,(%esp)
    2927:	e8 a4 48 01 00       	call   171d0 <fibril_mutex_unlock>
    292c:	89 5c 24 04          	mov    %ebx,0x4(%esp)
    2930:	c7 04 24 10 30 00 00 	movl   $0x3010,(%esp)
    2937:	e8 94 42 01 00       	call   16bd0 <fibril_create>
    293c:	85 c0                	test   %eax,%eax
    293e:	74 38                	je     2978 <vhc_virtdev_plug_hub+0xd8>
    2940:	89 04 24             	mov    %eax,(%esp)
    2943:	e8 c8 43 01 00       	call   16d10 <fibril_add_ready>
    2948:	8b 55 10             	mov    0x10(%ebp),%edx
    294b:	85 d2                	test   %edx,%edx
    294d:	74 11                	je     2960 <vhc_virtdev_plug_hub+0xc0>
    294f:	8b 45 10             	mov    0x10(%ebp),%eax
    2952:	89 18                	mov    %ebx,(%eax)
    2954:	31 c0                	xor    %eax,%eax
    2956:	83 c4 1c             	add    $0x1c,%esp
    2959:	5b                   	pop    %ebx
    295a:	5e                   	pop    %esi
    295b:	5f                   	pop    %edi
    295c:	5d                   	pop    %ebp
    295d:	c3                   	ret    
    295e:	66 90                	xchg   %ax,%ax
    2960:	83 c4 1c             	add    $0x1c,%esp
    2963:	31 c0                	xor    %eax,%eax
    2965:	5b                   	pop    %ebx
    2966:	5e                   	pop    %esi
    2967:	5f                   	pop    %edi
    2968:	5d                   	pop    %ebp
    2969:	c3                   	ret    
    296a:	8d b6 00 00 00 00    	lea    0x0(%esi),%esi
    2970:	b8 fe ff ff ff       	mov    $0xfffffffe,%eax
    2975:	eb df                	jmp    2956 <vhc_virtdev_plug_hub+0xb6>
    2977:	90                   	nop
    2978:	89 1c 24             	mov    %ebx,(%esp)
    297b:	e8 c0 db 01 00       	call   20540 <free>
    2980:	b8 fe ff ff ff       	mov    $0xfffffffe,%eax
    2985:	eb cf                	jmp    2956 <vhc_virtdev_plug_hub+0xb6>
    2987:	89 f6                	mov    %esi,%esi
    2989:	8d bc 27 00 00 00 00 	lea    0x0(%edi,%eiz,1),%edi

00002990 <vhc_virtdev_unplug>:
    2990:	55                   	push   %ebp
    2991:	89 e5                	mov    %esp,%ebp
    2993:	57                   	push   %edi
    2994:	56                   	push   %esi
    2995:	53                   	push   %ebx
    2996:	83 ec 1c             	sub    $0x1c,%esp
    2999:	8b 5d 0c             	mov    0xc(%ebp),%ebx
    299c:	8b 75 08             	mov    0x8(%ebp),%esi
    299f:	89 5c 24 04          	mov    %ebx,0x4(%esp)
    29a3:	8b 86 98 06 00 00    	mov    0x698(%esi),%eax
    29a9:	83 c6 0c             	add    $0xc,%esi
    29ac:	89 04 24             	mov    %eax,(%esp)
    29af:	8d 7b 14             	lea    0x14(%ebx),%edi
    29b2:	e8 e9 e7 ff ff       	call   11a0 <virthub_disconnect_device>
    29b7:	89 34 24             	mov    %esi,(%esp)
    29ba:	e8 f1 46 01 00       	call   170b0 <fibril_mutex_lock>
    29bf:	89 3c 24             	mov    %edi,(%esp)
    29c2:	e8 e9 46 01 00       	call   170b0 <fibril_mutex_lock>
    29c7:	8b 13                	mov    (%ebx),%edx
    29c9:	c6 43 10 00          	movb   $0x0,0x10(%ebx)
    29cd:	85 d2                	test   %edx,%edx
    29cf:	74 0e                	je     29df <vhc_virtdev_unplug+0x4f>
    29d1:	8b 43 04             	mov    0x4(%ebx),%eax
    29d4:	85 c0                	test   %eax,%eax
    29d6:	74 07                	je     29df <vhc_virtdev_unplug+0x4f>
    29d8:	89 10                	mov    %edx,(%eax)
    29da:	8b 13                	mov    (%ebx),%edx
    29dc:	89 42 04             	mov    %eax,0x4(%edx)
    29df:	c7 03 00 00 00 00    	movl   $0x0,(%ebx)
    29e5:	c7 43 04 00 00 00 00 	movl   $0x0,0x4(%ebx)
    29ec:	89 3c 24             	mov    %edi,(%esp)
    29ef:	e8 dc 47 01 00       	call   171d0 <fibril_mutex_unlock>
    29f4:	89 75 08             	mov    %esi,0x8(%ebp)
    29f7:	83 c4 1c             	add    $0x1c,%esp
    29fa:	5b                   	pop    %ebx
    29fb:	5e                   	pop    %esi
    29fc:	5f                   	pop    %edi
    29fd:	5d                   	pop    %ebp
    29fe:	e9 cd 47 01 00       	jmp    171d0 <fibril_mutex_unlock>
    2a03:	66 90                	xchg   %ax,%ax
    2a05:	66 90                	xchg   %ax,%ax
    2a07:	66 90                	xchg   %ax,%ax
    2a09:	66 90                	xchg   %ax,%ax
    2a0b:	66 90                	xchg   %ax,%ax
    2a0d:	66 90                	xchg   %ax,%ax
    2a0f:	90                   	nop

00002a10 <pretend_port_rest>:
    2a10:	55                   	push   %ebp
    2a11:	31 c0                	xor    %eax,%eax
    2a13:	89 e5                	mov    %esp,%ebp
    2a15:	5d                   	pop    %ebp
    2a16:	c3                   	ret    
    2a17:	89 f6                	mov    %esi,%esi
    2a19:	8d bc 27 00 00 00 00 	lea    0x0(%edi,%eiz,1),%edi

00002a20 <hub_register_in_devman_fibril>:
    2a20:	55                   	push   %ebp
    2a21:	89 e5                	mov    %esp,%ebp
    2a23:	56                   	push   %esi
    2a24:	53                   	push   %ebx
    2a25:	83 ec 50             	sub    $0x50,%esp
    2a28:	8b 5d 08             	mov    0x8(%ebp),%ebx
    2a2b:	90                   	nop
    2a2c:	8d 74 26 00          	lea    0x0(%esi,%eiz,1),%esi
    2a30:	89 1c 24             	mov    %ebx,(%esp)
    2a33:	e8 a8 8e 00 00       	call   b8e0 <ddf_fun_get_handle>
    2a38:	c7 44 24 08 00 00 00 	movl   $0x0,0x8(%esp)
    2a3f:	00 
    2a40:	89 44 24 04          	mov    %eax,0x4(%esp)
    2a44:	c7 04 24 02 00 00 00 	movl   $0x2,(%esp)
    2a4b:	e8 00 f1 00 00       	call   11b50 <devman_device_connect>
    2a50:	85 c0                	test   %eax,%eax
    2a52:	74 dc                	je     2a30 <hub_register_in_devman_fibril+0x10>
    2a54:	89 04 24             	mov    %eax,(%esp)
    2a57:	8d 75 dc             	lea    -0x24(%ebp),%esi
    2a5a:	e8 11 0e 02 00       	call   23870 <async_hangup>
    2a5f:	89 1c 24             	mov    %ebx,(%esp)
    2a62:	e8 79 8e 00 00       	call   b8e0 <ddf_fun_get_handle>
    2a67:	c7 45 e0 00 00 00 00 	movl   $0x0,-0x20(%ebp)
    2a6e:	89 45 dc             	mov    %eax,-0x24(%ebp)
    2a71:	8d 45 e4             	lea    -0x1c(%ebp),%eax
    2a74:	89 04 24             	mov    %eax,(%esp)
    2a77:	c7 45 f4 00 00 00 00 	movl   $0x0,-0xc(%ebp)
    2a7e:	e8 0d 46 01 00       	call   17090 <fibril_mutex_initialize>
    2a83:	89 34 24             	mov    %esi,(%esp)
    2a86:	e8 75 74 00 00       	call   9f00 <usb_hc_connection_open>
    2a8b:	85 c0                	test   %eax,%eax
    2a8d:	0f 85 af 00 00 00    	jne    2b42 <hub_register_in_devman_fibril+0x122>
    2a93:	89 1c 24             	mov    %ebx,(%esp)
    2a96:	e8 35 8e 00 00       	call   b8d0 <ddf_fun_get_dev>
    2a9b:	8d 55 d8             	lea    -0x28(%ebp),%edx
    2a9e:	89 54 24 20          	mov    %edx,0x20(%esp)
    2aa2:	89 5c 24 1c          	mov    %ebx,0x1c(%esp)
    2aa6:	c7 44 24 18 00 38 03 	movl   $0x33800,0x18(%esp)
    2aad:	00 
    2aae:	c7 44 24 14 00 00 00 	movl   $0x0,0x14(%esp)
    2ab5:	00 
    2ab6:	c7 44 24 10 00 00 00 	movl   $0x0,0x10(%esp)
    2abd:	00 
    2abe:	c7 44 24 0c 10 2a 00 	movl   $0x2a10,0xc(%esp)
    2ac5:	00 
    2ac6:	c7 44 24 08 01 00 00 	movl   $0x1,0x8(%esp)
    2acd:	00 
    2ace:	89 74 24 04          	mov    %esi,0x4(%esp)
    2ad2:	89 04 24             	mov    %eax,(%esp)
    2ad5:	e8 e6 0b 00 00       	call   36c0 <usb_hc_new_device_wrapper>
    2ada:	85 c0                	test   %eax,%eax
    2adc:	74 28                	je     2b06 <hub_register_in_devman_fibril+0xe6>
    2ade:	89 04 24             	mov    %eax,(%esp)
    2ae1:	e8 da 3b 01 00       	call   166c0 <str_error>
    2ae6:	c7 44 24 08 7c f7 02 	movl   $0x2f77c,0x8(%esp)
    2aed:	00 
    2aee:	89 44 24 0c          	mov    %eax,0xc(%esp)
    2af2:	c7 44 24 04 00 00 00 	movl   $0x0,0x4(%esp)
    2af9:	00 
    2afa:	c7 04 24 ff ff ff ff 	movl   $0xffffffff,(%esp)
    2b01:	e8 8a 88 01 00       	call   1b390 <log_msg>
    2b06:	89 34 24             	mov    %esi,(%esp)
    2b09:	e8 a2 74 00 00       	call   9fb0 <usb_hc_connection_close>
    2b0e:	8b 45 d8             	mov    -0x28(%ebp),%eax
    2b11:	89 04 24             	mov    %eax,(%esp)
    2b14:	e8 c7 8d 00 00       	call   b8e0 <ddf_fun_get_handle>
    2b19:	c7 44 24 08 9c f7 02 	movl   $0x2f79c,0x8(%esp)
    2b20:	00 
    2b21:	89 44 24 0c          	mov    %eax,0xc(%esp)
    2b25:	c7 44 24 04 03 00 00 	movl   $0x3,0x4(%esp)
    2b2c:	00 
    2b2d:	c7 04 24 ff ff ff ff 	movl   $0xffffffff,(%esp)
    2b34:	e8 57 88 01 00       	call   1b390 <log_msg>
    2b39:	83 c4 50             	add    $0x50,%esp
    2b3c:	31 c0                	xor    %eax,%eax
    2b3e:	5b                   	pop    %ebx
    2b3f:	5e                   	pop    %esi
    2b40:	5d                   	pop    %ebp
    2b41:	c3                   	ret    
    2b42:	c7 44 24 08 71 00 00 	movl   $0x71,0x8(%esp)
    2b49:	00 
    2b4a:	c7 44 24 04 50 f5 02 	movl   $0x2f550,0x4(%esp)
    2b51:	00 
    2b52:	c7 04 24 66 f7 02 00 	movl   $0x2f766,(%esp)
    2b59:	e8 32 81 02 00       	call   2ac90 <assert_abort>
    2b5e:	66 90                	xchg   %ax,%ax

00002b60 <virtual_hub_device_init>:
    2b60:	55                   	push   %ebp
    2b61:	89 e5                	mov    %esp,%ebp
    2b63:	53                   	push   %ebx
    2b64:	83 ec 14             	sub    $0x14,%esp
    2b67:	8b 5d 08             	mov    0x8(%ebp),%ebx
    2b6a:	c7 04 24 e0 37 03 00 	movl   $0x337e0,(%esp)
    2b71:	e8 4a e5 ff ff       	call   10c0 <virthub_init>
    2b76:	89 5c 24 04          	mov    %ebx,0x4(%esp)
    2b7a:	c7 04 24 20 2a 00 00 	movl   $0x2a20,(%esp)
    2b81:	e8 4a 40 01 00       	call   16bd0 <fibril_create>
    2b86:	85 c0                	test   %eax,%eax
    2b88:	74 0e                	je     2b98 <virtual_hub_device_init+0x38>
    2b8a:	89 45 08             	mov    %eax,0x8(%ebp)
    2b8d:	83 c4 14             	add    $0x14,%esp
    2b90:	5b                   	pop    %ebx
    2b91:	5d                   	pop    %ebp
    2b92:	e9 79 41 01 00       	jmp    16d10 <fibril_add_ready>
    2b97:	90                   	nop
    2b98:	c7 44 24 08 c8 f7 02 	movl   $0x2f7c8,0x8(%esp)
    2b9f:	00 
    2ba0:	c7 44 24 04 00 00 00 	movl   $0x0,0x4(%esp)
    2ba7:	00 
    2ba8:	c7 04 24 ff ff ff ff 	movl   $0xffffffff,(%esp)
    2baf:	e8 dc 87 01 00       	call   1b390 <log_msg>
    2bb4:	83 c4 14             	add    $0x14,%esp
    2bb7:	5b                   	pop    %ebx
    2bb8:	5d                   	pop    %ebp
    2bb9:	c3                   	ret    
    2bba:	66 90                	xchg   %ax,%ax
    2bbc:	66 90                	xchg   %ax,%ax
    2bbe:	66 90                	xchg   %ax,%ax

00002bc0 <vhc_dev_add>:
    2bc0:	55                   	push   %ebp
    2bc1:	89 e5                	mov    %esp,%ebp
    2bc3:	57                   	push   %edi
    2bc4:	56                   	push   %esi
    2bc5:	53                   	push   %ebx
    2bc6:	83 ec 2c             	sub    $0x2c,%esp
    2bc9:	8b 45 08             	mov    0x8(%ebp),%eax
    2bcc:	c7 44 24 04 a0 06 00 	movl   $0x6a0,0x4(%esp)
    2bd3:	00 
    2bd4:	89 04 24             	mov    %eax,(%esp)
    2bd7:	e8 84 8b 00 00       	call   b760 <ddf_dev_data_alloc>
    2bdc:	89 c3                	mov    %eax,%ebx
    2bde:	85 c0                	test   %eax,%eax
    2be0:	0f 84 c3 01 00 00    	je     2da9 <vhc_dev_add+0x1e9>
    2be6:	c7 00 ef be ad de    	movl   $0xdeadbeef,(%eax)
    2bec:	8d 40 1c             	lea    0x1c(%eax),%eax
    2bef:	c7 44 24 08 00 7b 00 	movl   $0x7b00,0x8(%esp)
    2bf6:	00 
    2bf7:	c7 44 24 04 ff ff ff 	movl   $0xffffffff,0x4(%esp)
    2bfe:	ff 
    2bff:	89 04 24             	mov    %eax,(%esp)
    2c02:	e8 a9 4f 00 00       	call   7bb0 <usb_endpoint_manager_init>
    2c07:	89 c6                	mov    %eax,%esi
    2c09:	85 c0                	test   %eax,%eax
    2c0b:	0f 85 37 01 00 00    	jne    2d48 <vhc_dev_add+0x188>
    2c11:	8d 43 74             	lea    0x74(%ebx),%eax
    2c14:	c7 44 24 04 03 00 00 	movl   $0x3,0x4(%esp)
    2c1b:	00 
    2c1c:	89 04 24             	mov    %eax,(%esp)
    2c1f:	e8 7c 48 00 00       	call   74a0 <usb_device_manager_init>
    2c24:	8b 45 08             	mov    0x8(%ebp),%eax
    2c27:	c7 44 24 08 12 f8 02 	movl   $0x2f812,0x8(%esp)
    2c2e:	00 
    2c2f:	c7 44 24 04 02 00 00 	movl   $0x2,0x4(%esp)
    2c36:	00 
    2c37:	89 04 24             	mov    %eax,(%esp)
    2c3a:	e8 b1 8c 00 00       	call   b8f0 <ddf_fun_create>
    2c3f:	89 c7                	mov    %eax,%edi
    2c41:	85 c0                	test   %eax,%eax
    2c43:	0f 84 83 01 00 00    	je     2dcc <vhc_dev_add+0x20c>
    2c49:	89 04 24             	mov    %eax,(%esp)
    2c4c:	c7 44 24 04 60 38 03 	movl   $0x33860,0x4(%esp)
    2c53:	00 
    2c54:	e8 27 92 00 00       	call   be80 <ddf_fun_set_ops>
    2c59:	8d 43 04             	lea    0x4(%ebx),%eax
    2c5c:	89 43 04             	mov    %eax,0x4(%ebx)
    2c5f:	89 43 08             	mov    %eax,0x8(%ebx)
    2c62:	8d 43 0c             	lea    0xc(%ebx),%eax
    2c65:	89 04 24             	mov    %eax,(%esp)
    2c68:	e8 23 44 01 00       	call   17090 <fibril_mutex_initialize>
    2c6d:	c7 83 98 06 00 00 e0 	movl   $0x337e0,0x698(%ebx)
    2c74:	37 03 00 
    2c77:	89 bb 9c 06 00 00    	mov    %edi,0x69c(%ebx)
    2c7d:	89 3c 24             	mov    %edi,(%esp)
    2c80:	e8 fb 8e 00 00       	call   bb80 <ddf_fun_bind>
    2c85:	89 c6                	mov    %eax,%esi
    2c87:	85 c0                	test   %eax,%eax
    2c89:	0f 85 01 01 00 00    	jne    2d90 <vhc_dev_add+0x1d0>
    2c8f:	c7 44 24 04 0f f8 02 	movl   $0x2f80f,0x4(%esp)
    2c96:	00 
    2c97:	89 3c 24             	mov    %edi,(%esp)
    2c9a:	e8 61 92 00 00       	call   bf00 <ddf_fun_add_to_category>
    2c9f:	89 c6                	mov    %eax,%esi
    2ca1:	85 c0                	test   %eax,%eax
    2ca3:	0f 85 cf 00 00 00    	jne    2d78 <vhc_dev_add+0x1b8>
    2ca9:	89 3c 24             	mov    %edi,(%esp)
    2cac:	e8 af fe ff ff       	call   2b60 <virtual_hub_device_init>
    2cb1:	89 3c 24             	mov    %edi,(%esp)
    2cb4:	e8 27 8c 00 00       	call   b8e0 <ddf_fun_get_handle>
    2cb9:	89 c6                	mov    %eax,%esi
    2cbb:	8b 45 08             	mov    0x8(%ebp),%eax
    2cbe:	89 04 24             	mov    %eax,(%esp)
    2cc1:	e8 3a 8b 00 00       	call   b800 <ddf_dev_get_handle>
    2cc6:	89 74 24 10          	mov    %esi,0x10(%esp)
    2cca:	89 44 24 0c          	mov    %eax,0xc(%esp)
    2cce:	c7 44 24 08 d4 f8 02 	movl   $0x2f8d4,0x8(%esp)
    2cd5:	00 
    2cd6:	c7 44 24 04 03 00 00 	movl   $0x3,0x4(%esp)
    2cdd:	00 
    2cde:	c7 04 24 ff ff ff ff 	movl   $0xffffffff,(%esp)
    2ce5:	e8 a6 86 01 00       	call   1b390 <log_msg>
    2cea:	c7 44 24 08 00 00 00 	movl   $0x0,0x8(%esp)
    2cf1:	00 
    2cf2:	8b 83 98 06 00 00    	mov    0x698(%ebx),%eax
    2cf8:	89 1c 24             	mov    %ebx,(%esp)
    2cfb:	89 44 24 04          	mov    %eax,0x4(%esp)
    2cff:	e8 9c fb ff ff       	call   28a0 <vhc_virtdev_plug_hub>
    2d04:	89 c6                	mov    %eax,%esi
    2d06:	85 c0                	test   %eax,%eax
    2d08:	74 62                	je     2d6c <vhc_dev_add+0x1ac>
    2d0a:	89 04 24             	mov    %eax,(%esp)
    2d0d:	e8 ae 39 01 00       	call   166c0 <str_error>
    2d12:	c7 44 24 08 15 f8 02 	movl   $0x2f815,0x8(%esp)
    2d19:	00 
    2d1a:	89 44 24 0c          	mov    %eax,0xc(%esp)
    2d1e:	66 90                	xchg   %ax,%ax
    2d20:	c7 44 24 04 00 00 00 	movl   $0x0,0x4(%esp)
    2d27:	00 
    2d28:	c7 04 24 ff ff ff ff 	movl   $0xffffffff,(%esp)
    2d2f:	e8 5c 86 01 00       	call   1b390 <log_msg>
    2d34:	89 1c 24             	mov    %ebx,(%esp)
    2d37:	e8 04 d8 01 00       	call   20540 <free>
    2d3c:	83 c4 2c             	add    $0x2c,%esp
    2d3f:	89 f0                	mov    %esi,%eax
    2d41:	5b                   	pop    %ebx
    2d42:	5e                   	pop    %esi
    2d43:	5f                   	pop    %edi
    2d44:	5d                   	pop    %ebp
    2d45:	c3                   	ret    
    2d46:	66 90                	xchg   %ax,%ax
    2d48:	c7 44 24 08 38 f8 02 	movl   $0x2f838,0x8(%esp)
    2d4f:	00 
    2d50:	c7 44 24 04 00 00 00 	movl   $0x0,0x4(%esp)
    2d57:	00 
    2d58:	c7 04 24 ff ff ff ff 	movl   $0xffffffff,(%esp)
    2d5f:	e8 2c 86 01 00       	call   1b390 <log_msg>
    2d64:	89 1c 24             	mov    %ebx,(%esp)
    2d67:	e8 d4 d7 01 00       	call   20540 <free>
    2d6c:	83 c4 2c             	add    $0x2c,%esp
    2d6f:	89 f0                	mov    %esi,%eax
    2d71:	5b                   	pop    %ebx
    2d72:	5e                   	pop    %esi
    2d73:	5f                   	pop    %edi
    2d74:	5d                   	pop    %ebp
    2d75:	c3                   	ret    
    2d76:	66 90                	xchg   %ax,%ax
    2d78:	89 04 24             	mov    %eax,(%esp)
    2d7b:	e8 40 39 01 00       	call   166c0 <str_error>
    2d80:	c7 44 24 08 a8 f8 02 	movl   $0x2f8a8,0x8(%esp)
    2d87:	00 
    2d88:	89 44 24 0c          	mov    %eax,0xc(%esp)
    2d8c:	eb 92                	jmp    2d20 <vhc_dev_add+0x160>
    2d8e:	66 90                	xchg   %ax,%ax
    2d90:	89 04 24             	mov    %eax,(%esp)
    2d93:	e8 28 39 01 00       	call   166c0 <str_error>
    2d98:	c7 44 24 08 84 f8 02 	movl   $0x2f884,0x8(%esp)
    2d9f:	00 
    2da0:	89 44 24 0c          	mov    %eax,0xc(%esp)
    2da4:	e9 77 ff ff ff       	jmp    2d20 <vhc_dev_add+0x160>
    2da9:	c7 44 24 08 f3 f7 02 	movl   $0x2f7f3,0x8(%esp)
    2db0:	00 
    2db1:	c7 44 24 04 00 00 00 	movl   $0x0,0x4(%esp)
    2db8:	00 
    2db9:	c7 04 24 ff ff ff ff 	movl   $0xffffffff,(%esp)
    2dc0:	be fe ff ff ff       	mov    $0xfffffffe,%esi
    2dc5:	e8 c6 85 01 00       	call   1b390 <log_msg>
    2dca:	eb a0                	jmp    2d6c <vhc_dev_add+0x1ac>
    2dcc:	c7 44 24 08 60 f8 02 	movl   $0x2f860,0x8(%esp)
    2dd3:	00 
    2dd4:	c7 44 24 04 00 00 00 	movl   $0x0,0x4(%esp)
    2ddb:	00 
    2ddc:	c7 04 24 ff ff ff ff 	movl   $0xffffffff,(%esp)
    2de3:	be fe ff ff ff       	mov    $0xfffffffe,%esi
    2de8:	e8 a3 85 01 00       	call   1b390 <log_msg>
    2ded:	89 1c 24             	mov    %ebx,(%esp)
    2df0:	e8 4b d7 01 00       	call   20540 <free>
    2df5:	e9 72 ff ff ff       	jmp    2d6c <vhc_dev_add+0x1ac>
    2dfa:	66 90                	xchg   %ax,%ax
    2dfc:	66 90                	xchg   %ax,%ax
    2dfe:	66 90                	xchg   %ax,%ax

00002e00 <main>:
    2e00:	55                   	push   %ebp
    2e01:	89 e5                	mov    %esp,%ebp
    2e03:	83 e4 f0             	and    $0xfffffff0,%esp
    2e06:	83 ec 10             	sub    $0x10,%esp
    2e09:	c7 04 24 33 f8 02 00 	movl   $0x2f833,(%esp)
    2e10:	e8 ab 83 01 00       	call   1b1c0 <log_init>
    2e15:	c7 04 24 0c f9 02 00 	movl   $0x2f90c,(%esp)
    2e1c:	e8 bf 82 01 00       	call   1b0e0 <printf>
    2e21:	c7 04 24 40 38 03 00 	movl   $0x33840,(%esp)
    2e28:	e8 33 91 00 00       	call   bf60 <ddf_driver_main>
    2e2d:	c9                   	leave  
    2e2e:	c3                   	ret    
    2e2f:	90                   	nop

00002e30 <vhc_transfer_create>:
    2e30:	55                   	push   %ebp
    2e31:	89 e5                	mov    %esp,%ebp
    2e33:	57                   	push   %edi
    2e34:	56                   	push   %esi
    2e35:	53                   	push   %ebx
    2e36:	83 ec 3c             	sub    $0x3c,%esp
    2e39:	8b 4d 08             	mov    0x8(%ebp),%ecx
    2e3c:	8b 55 0c             	mov    0xc(%ebp),%edx
    2e3f:	c7 04 24 34 00 00 00 	movl   $0x34,(%esp)
    2e46:	89 55 e4             	mov    %edx,-0x1c(%ebp)
    2e49:	0f bf f1             	movswl %cx,%esi
    2e4c:	0f bf fa             	movswl %dx,%edi
    2e4f:	89 4d e0             	mov    %ecx,-0x20(%ebp)
    2e52:	e8 d9 d5 01 00       	call   20430 <malloc>
    2e57:	8b 55 e4             	mov    -0x1c(%ebp),%edx
    2e5a:	89 c3                	mov    %eax,%ebx
    2e5c:	85 c0                	test   %eax,%eax
    2e5e:	8b 4d e0             	mov    -0x20(%ebp),%ecx
    2e61:	0f 84 a4 00 00 00    	je     2f0b <vhc_transfer_create+0xdb>
    2e67:	c7 00 00 00 00 00    	movl   $0x0,(%eax)
    2e6d:	c7 40 04 00 00 00 00 	movl   $0x0,0x4(%eax)
    2e74:	66 89 50 0a          	mov    %dx,0xa(%eax)
    2e78:	66 89 48 08          	mov    %cx,0x8(%eax)
    2e7c:	8b 45 10             	mov    0x10(%ebp),%eax
    2e7f:	c7 43 14 00 00 00 00 	movl   $0x0,0x14(%ebx)
    2e86:	89 43 0c             	mov    %eax,0xc(%ebx)
    2e89:	8b 45 14             	mov    0x14(%ebp),%eax
    2e8c:	89 43 10             	mov    %eax,0x10(%ebx)
    2e8f:	8b 45 18             	mov    0x18(%ebp),%eax
    2e92:	89 43 24             	mov    %eax,0x24(%ebx)
    2e95:	8b 45 1c             	mov    0x1c(%ebp),%eax
    2e98:	89 43 28             	mov    %eax,0x28(%ebx)
    2e9b:	8b 45 10             	mov    0x10(%ebp),%eax
    2e9e:	c7 43 18 00 00 00 00 	movl   $0x0,0x18(%ebx)
    2ea5:	c7 43 1c 00 00 00 00 	movl   $0x0,0x1c(%ebx)
    2eac:	c7 43 20 00 00 00 00 	movl   $0x0,0x20(%ebx)
    2eb3:	c7 43 2c 00 00 00 00 	movl   $0x0,0x2c(%ebx)
    2eba:	c7 43 30 00 00 00 00 	movl   $0x0,0x30(%ebx)
    2ec1:	ba 39 f9 02 00       	mov    $0x2f939,%edx
    2ec6:	85 c0                	test   %eax,%eax
    2ec8:	74 4e                	je     2f18 <vhc_transfer_create+0xe8>
    2eca:	8b 45 14             	mov    0x14(%ebp),%eax
    2ecd:	89 55 e4             	mov    %edx,-0x1c(%ebp)
    2ed0:	89 04 24             	mov    %eax,(%esp)
    2ed3:	e8 58 7f 00 00       	call   ae30 <usb_str_transfer_type_short>
    2ed8:	8b 55 e4             	mov    -0x1c(%ebp),%edx
    2edb:	89 54 24 1c          	mov    %edx,0x1c(%esp)
    2edf:	89 44 24 18          	mov    %eax,0x18(%esp)
    2ee3:	89 7c 24 14          	mov    %edi,0x14(%esp)
    2ee7:	89 74 24 10          	mov    %esi,0x10(%esp)
    2eeb:	89 5c 24 0c          	mov    %ebx,0xc(%esp)
    2eef:	c7 44 24 08 88 f9 02 	movl   $0x2f988,0x8(%esp)
    2ef6:	00 
    2ef7:	c7 44 24 04 05 00 00 	movl   $0x5,0x4(%esp)
    2efe:	00 
    2eff:	c7 04 24 ff ff ff ff 	movl   $0xffffffff,(%esp)
    2f06:	e8 85 84 01 00       	call   1b390 <log_msg>
    2f0b:	83 c4 3c             	add    $0x3c,%esp
    2f0e:	89 d8                	mov    %ebx,%eax
    2f10:	5b                   	pop    %ebx
    2f11:	5e                   	pop    %esi
    2f12:	5f                   	pop    %edi
    2f13:	5d                   	pop    %ebp
    2f14:	c3                   	ret    
    2f15:	8d 76 00             	lea    0x0(%esi),%esi
    2f18:	ba 36 f9 02 00       	mov    $0x2f936,%edx
    2f1d:	eb ab                	jmp    2eca <vhc_transfer_create+0x9a>
    2f1f:	90                   	nop

00002f20 <vhc_virtdev_add_transfer>:
    2f20:	55                   	push   %ebp
    2f21:	89 e5                	mov    %esp,%ebp
    2f23:	57                   	push   %edi
    2f24:	56                   	push   %esi
    2f25:	53                   	push   %ebx
    2f26:	83 ec 2c             	sub    $0x2c,%esp
    2f29:	8b 75 08             	mov    0x8(%ebp),%esi
    2f2c:	8b 5d 0c             	mov    0xc(%ebp),%ebx
    2f2f:	8d 46 0c             	lea    0xc(%esi),%eax
    2f32:	89 04 24             	mov    %eax,(%esp)
    2f35:	89 45 dc             	mov    %eax,-0x24(%ebp)
    2f38:	e8 73 41 01 00       	call   170b0 <fibril_mutex_lock>
    2f3d:	8b 7e 08             	mov    0x8(%esi),%edi
    2f40:	83 c6 04             	add    $0x4,%esi
    2f43:	89 75 e4             	mov    %esi,-0x1c(%ebp)
    2f46:	39 f7                	cmp    %esi,%edi
    2f48:	0f 84 a3 00 00 00    	je     2ff1 <vhc_virtdev_add_transfer+0xd1>
    2f4e:	c6 45 e3 00          	movb   $0x0,-0x1d(%ebp)
    2f52:	eb 14                	jmp    2f68 <vhc_virtdev_add_transfer+0x48>
    2f54:	8d 74 26 00          	lea    0x0(%esi,%eiz,1),%esi
    2f58:	89 34 24             	mov    %esi,(%esp)
    2f5b:	e8 70 42 01 00       	call   171d0 <fibril_mutex_unlock>
    2f60:	8b 7f 04             	mov    0x4(%edi),%edi
    2f63:	3b 7d e4             	cmp    -0x1c(%ebp),%edi
    2f66:	74 48                	je     2fb0 <vhc_virtdev_add_transfer+0x90>
    2f68:	8d 77 14             	lea    0x14(%edi),%esi
    2f6b:	89 34 24             	mov    %esi,(%esp)
    2f6e:	e8 3d 41 01 00       	call   170b0 <fibril_mutex_lock>
    2f73:	8b 43 08             	mov    0x8(%ebx),%eax
    2f76:	66 39 47 12          	cmp    %ax,0x12(%edi)
    2f7a:	75 dc                	jne    2f58 <vhc_virtdev_add_transfer+0x38>
    2f7c:	80 7d e3 00          	cmpb   $0x0,-0x1d(%ebp)
    2f80:	75 4e                	jne    2fd0 <vhc_virtdev_add_transfer+0xb0>
    2f82:	8d 4f 24             	lea    0x24(%edi),%ecx
    2f85:	c6 45 e3 01          	movb   $0x1,-0x1d(%ebp)
    2f89:	89 4b 04             	mov    %ecx,0x4(%ebx)
    2f8c:	8b 4f 24             	mov    0x24(%edi),%ecx
    2f8f:	89 0b                	mov    %ecx,(%ebx)
    2f91:	8b 4f 24             	mov    0x24(%edi),%ecx
    2f94:	89 5f 24             	mov    %ebx,0x24(%edi)
    2f97:	89 59 04             	mov    %ebx,0x4(%ecx)
    2f9a:	89 34 24             	mov    %esi,(%esp)
    2f9d:	e8 2e 42 01 00       	call   171d0 <fibril_mutex_unlock>
    2fa2:	8b 7f 04             	mov    0x4(%edi),%edi
    2fa5:	3b 7d e4             	cmp    -0x1c(%ebp),%edi
    2fa8:	75 be                	jne    2f68 <vhc_virtdev_add_transfer+0x48>
    2faa:	8d b6 00 00 00 00    	lea    0x0(%esi),%esi
    2fb0:	8b 45 dc             	mov    -0x24(%ebp),%eax
    2fb3:	89 04 24             	mov    %eax,(%esp)
    2fb6:	e8 15 42 01 00       	call   171d0 <fibril_mutex_unlock>
    2fbb:	80 7d e3 00          	cmpb   $0x0,-0x1d(%ebp)
    2fbf:	74 3b                	je     2ffc <vhc_virtdev_add_transfer+0xdc>
    2fc1:	31 c0                	xor    %eax,%eax
    2fc3:	83 c4 2c             	add    $0x2c,%esp
    2fc6:	5b                   	pop    %ebx
    2fc7:	5e                   	pop    %esi
    2fc8:	5f                   	pop    %edi
    2fc9:	5d                   	pop    %ebp
    2fca:	c3                   	ret    
    2fcb:	90                   	nop
    2fcc:	8d 74 26 00          	lea    0x0(%esi,%eiz,1),%esi
    2fd0:	c7 44 24 08 ac f9 02 	movl   $0x2f9ac,0x8(%esp)
    2fd7:	00 
    2fd8:	c7 44 24 04 02 00 00 	movl   $0x2,0x4(%esp)
    2fdf:	00 
    2fe0:	c7 04 24 ff ff ff ff 	movl   $0xffffffff,(%esp)
    2fe7:	e8 a4 83 01 00       	call   1b390 <log_msg>
    2fec:	e9 67 ff ff ff       	jmp    2f58 <vhc_virtdev_add_transfer+0x38>
    2ff1:	8b 45 dc             	mov    -0x24(%ebp),%eax
    2ff4:	89 04 24             	mov    %eax,(%esp)
    2ff7:	e8 d4 41 01 00       	call   171d0 <fibril_mutex_unlock>
    2ffc:	83 c8 ff             	or     $0xffffffff,%eax
    2fff:	eb c2                	jmp    2fc3 <vhc_virtdev_add_transfer+0xa3>
    3001:	eb 0d                	jmp    3010 <vhc_transfer_queue_processor>
    3003:	90                   	nop
    3004:	90                   	nop
    3005:	90                   	nop
    3006:	90                   	nop
    3007:	90                   	nop
    3008:	90                   	nop
    3009:	90                   	nop
    300a:	90                   	nop
    300b:	90                   	nop
    300c:	90                   	nop
    300d:	90                   	nop
    300e:	90                   	nop
    300f:	90                   	nop

00003010 <vhc_transfer_queue_processor>:
    3010:	55                   	push   %ebp
    3011:	89 e5                	mov    %esp,%ebp
    3013:	57                   	push   %edi
    3014:	56                   	push   %esi
    3015:	53                   	push   %ebx
    3016:	83 ec 4c             	sub    $0x4c,%esp
    3019:	8b 5d 08             	mov    0x8(%ebp),%ebx
    301c:	8d 7b 14             	lea    0x14(%ebx),%edi
    301f:	89 3c 24             	mov    %edi,(%esp)
    3022:	e8 89 40 01 00       	call   170b0 <fibril_mutex_lock>
    3027:	8d 53 24             	lea    0x24(%ebx),%edx
    302a:	89 55 d0             	mov    %edx,-0x30(%ebp)
    302d:	8b 55 d0             	mov    -0x30(%ebp),%edx
    3030:	80 7b 10 00          	cmpb   $0x0,0x10(%ebx)
    3034:	0f 84 2d 01 00 00    	je     3167 <vhc_transfer_queue_processor+0x157>
    303a:	39 53 28             	cmp    %edx,0x28(%ebx)
    303d:	89 3c 24             	mov    %edi,(%esp)
    3040:	0f 84 7a 03 00 00    	je     33c0 <vhc_transfer_queue_processor+0x3b0>
    3046:	e8 95 42 01 00       	call   172e0 <fibril_mutex_is_locked>
    304b:	84 c0                	test   %al,%al
    304d:	0f 84 2e 05 00 00    	je     3581 <vhc_transfer_queue_processor+0x571>
    3053:	8b 73 28             	mov    0x28(%ebx),%esi
    3056:	39 75 d0             	cmp    %esi,-0x30(%ebp)
    3059:	0f 84 3e 05 00 00    	je     359d <vhc_transfer_queue_processor+0x58d>
    305f:	8b 0e                	mov    (%esi),%ecx
    3061:	85 c9                	test   %ecx,%ecx
    3063:	74 0e                	je     3073 <vhc_transfer_queue_processor+0x63>
    3065:	8b 46 04             	mov    0x4(%esi),%eax
    3068:	85 c0                	test   %eax,%eax
    306a:	74 07                	je     3073 <vhc_transfer_queue_processor+0x63>
    306c:	89 08                	mov    %ecx,(%eax)
    306e:	8b 0e                	mov    (%esi),%ecx
    3070:	89 41 04             	mov    %eax,0x4(%ecx)
    3073:	c7 06 00 00 00 00    	movl   $0x0,(%esi)
    3079:	c7 46 04 00 00 00 00 	movl   $0x0,0x4(%esi)
    3080:	89 3c 24             	mov    %edi,(%esp)
    3083:	e8 48 41 01 00       	call   171d0 <fibril_mutex_unlock>
    3088:	8b 43 08             	mov    0x8(%ebx),%eax
    308b:	c7 45 e4 00 00 00 00 	movl   $0x0,-0x1c(%ebp)
    3092:	85 c0                	test   %eax,%eax
    3094:	0f 84 d6 02 00 00    	je     3370 <vhc_transfer_queue_processor+0x360>
    309a:	8b 4e 10             	mov    0x10(%esi),%ecx
    309d:	85 c9                	test   %ecx,%ecx
    309f:	0f 85 8b 02 00 00    	jne    3330 <vhc_transfer_queue_processor+0x320>
    30a5:	8b 4e 0c             	mov    0xc(%esi),%ecx
    30a8:	85 c9                	test   %ecx,%ecx
    30aa:	0f 84 98 03 00 00    	je     3448 <vhc_transfer_queue_processor+0x438>
    30b0:	49                   	dec    %ecx
    30b1:	0f 85 3a 05 00 00    	jne    35f1 <vhc_transfer_queue_processor+0x5e1>
    30b7:	8b 4e 20             	mov    0x20(%esi),%ecx
    30ba:	89 4c 24 10          	mov    %ecx,0x10(%esp)
    30be:	8b 4e 1c             	mov    0x1c(%esi),%ecx
    30c1:	89 4c 24 0c          	mov    %ecx,0xc(%esp)
    30c5:	8b 4e 18             	mov    0x18(%esi),%ecx
    30c8:	89 4c 24 08          	mov    %ecx,0x8(%esp)
    30cc:	8b 4e 14             	mov    0x14(%esi),%ecx
    30cf:	89 04 24             	mov    %eax,(%esp)
    30d2:	89 4c 24 04          	mov    %ecx,0x4(%esp)
    30d6:	e8 f5 58 00 00       	call   89d0 <usbvirt_ipc_send_control_write>
    30db:	89 45 d4             	mov    %eax,-0x2c(%ebp)
    30de:	89 04 24             	mov    %eax,(%esp)
    30e1:	e8 da 35 01 00       	call   166c0 <str_error>
    30e6:	89 74 24 0c          	mov    %esi,0xc(%esp)
    30ea:	89 44 24 10          	mov    %eax,0x10(%esp)
    30ee:	c7 44 24 08 3d f9 02 	movl   $0x2f93d,0x8(%esp)
    30f5:	00 
    30f6:	c7 44 24 04 05 00 00 	movl   $0x5,0x4(%esp)
    30fd:	00 
    30fe:	c7 04 24 ff ff ff ff 	movl   $0xffffffff,(%esp)
    3105:	e8 86 82 01 00       	call   1b390 <log_msg>
    310a:	89 3c 24             	mov    %edi,(%esp)
    310d:	e8 9e 3f 01 00       	call   170b0 <fibril_mutex_lock>
    3112:	8b 4d d4             	mov    -0x2c(%ebp),%ecx
    3115:	85 c9                	test   %ecx,%ecx
    3117:	0f 84 4b 01 00 00    	je     3268 <vhc_transfer_queue_processor+0x258>
    311d:	81 7d d4 d1 fe ff ff 	cmpl   $0xfffffed1,-0x2c(%ebp)
    3124:	0f 85 8e 01 00 00    	jne    32b8 <vhc_transfer_queue_processor+0x2a8>
    312a:	8b 43 24             	mov    0x24(%ebx),%eax
    312d:	8b 55 d0             	mov    -0x30(%ebp),%edx
    3130:	89 06                	mov    %eax,(%esi)
    3132:	89 56 04             	mov    %edx,0x4(%esi)
    3135:	8b 43 24             	mov    0x24(%ebx),%eax
    3138:	89 73 24             	mov    %esi,0x24(%ebx)
    313b:	89 70 04             	mov    %esi,0x4(%eax)
    313e:	89 3c 24             	mov    %edi,(%esp)
    3141:	e8 8a 40 01 00       	call   171d0 <fibril_mutex_unlock>
    3146:	c7 04 24 a0 86 01 00 	movl   $0x186a0,(%esp)
    314d:	e8 9e f6 01 00       	call   227f0 <async_usleep>
    3152:	89 3c 24             	mov    %edi,(%esp)
    3155:	e8 56 3f 01 00       	call   170b0 <fibril_mutex_lock>
    315a:	8b 55 d0             	mov    -0x30(%ebp),%edx
    315d:	80 7b 10 00          	cmpb   $0x0,0x10(%ebx)
    3161:	0f 85 d3 fe ff ff    	jne    303a <vhc_transfer_queue_processor+0x2a>
    3167:	39 53 28             	cmp    %edx,0x28(%ebx)
    316a:	0f 84 e6 00 00 00    	je     3256 <vhc_transfer_queue_processor+0x246>
    3170:	89 7d d4             	mov    %edi,-0x2c(%ebp)
    3173:	89 d6                	mov    %edx,%esi
    3175:	eb 31                	jmp    31a8 <vhc_transfer_queue_processor+0x198>
    3177:	90                   	nop
    3178:	48                   	dec    %eax
    3179:	0f 85 3a 04 00 00    	jne    35b9 <vhc_transfer_queue_processor+0x5a9>
    317f:	8b 47 28             	mov    0x28(%edi),%eax
    3182:	c7 44 24 04 d4 fe ff 	movl   $0xfffffed4,0x4(%esp)
    3189:	ff 
    318a:	89 44 24 08          	mov    %eax,0x8(%esp)
    318e:	8b 47 24             	mov    0x24(%edi),%eax
    3191:	89 04 24             	mov    %eax,(%esp)
    3194:	ff 57 30             	call   *0x30(%edi)
    3197:	89 3c 24             	mov    %edi,(%esp)
    319a:	e8 a1 d3 01 00       	call   20540 <free>
    319f:	39 73 28             	cmp    %esi,0x28(%ebx)
    31a2:	0f 84 ab 00 00 00    	je     3253 <vhc_transfer_queue_processor+0x243>
    31a8:	8b 55 d4             	mov    -0x2c(%ebp),%edx
    31ab:	89 14 24             	mov    %edx,(%esp)
    31ae:	e8 2d 41 01 00       	call   172e0 <fibril_mutex_is_locked>
    31b3:	84 c0                	test   %al,%al
    31b5:	0f 84 c6 03 00 00    	je     3581 <vhc_transfer_queue_processor+0x571>
    31bb:	8b 7b 28             	mov    0x28(%ebx),%edi
    31be:	39 f7                	cmp    %esi,%edi
    31c0:	0f 84 d7 03 00 00    	je     359d <vhc_transfer_queue_processor+0x58d>
    31c6:	8b 0f                	mov    (%edi),%ecx
    31c8:	85 c9                	test   %ecx,%ecx
    31ca:	74 0e                	je     31da <vhc_transfer_queue_processor+0x1ca>
    31cc:	8b 47 04             	mov    0x4(%edi),%eax
    31cf:	85 c0                	test   %eax,%eax
    31d1:	74 07                	je     31da <vhc_transfer_queue_processor+0x1ca>
    31d3:	89 08                	mov    %ecx,(%eax)
    31d5:	8b 0f                	mov    (%edi),%ecx
    31d7:	89 41 04             	mov    %eax,0x4(%ecx)
    31da:	c7 07 00 00 00 00    	movl   $0x0,(%edi)
    31e0:	c7 47 04 00 00 00 00 	movl   $0x0,0x4(%edi)
    31e7:	c7 04 24 d4 fe ff ff 	movl   $0xfffffed4,(%esp)
    31ee:	e8 cd 34 01 00       	call   166c0 <str_error>
    31f3:	89 7c 24 0c          	mov    %edi,0xc(%esp)
    31f7:	89 44 24 10          	mov    %eax,0x10(%esp)
    31fb:	c7 44 24 08 59 f9 02 	movl   $0x2f959,0x8(%esp)
    3202:	00 
    3203:	c7 44 24 04 05 00 00 	movl   $0x5,0x4(%esp)
    320a:	00 
    320b:	c7 04 24 ff ff ff ff 	movl   $0xffffffff,(%esp)
    3212:	e8 79 81 01 00       	call   1b390 <log_msg>
    3217:	8b 47 0c             	mov    0xc(%edi),%eax
    321a:	85 c0                	test   %eax,%eax
    321c:	0f 85 56 ff ff ff    	jne    3178 <vhc_transfer_queue_processor+0x168>
    3222:	8b 47 28             	mov    0x28(%edi),%eax
    3225:	c7 44 24 08 00 00 00 	movl   $0x0,0x8(%esp)
    322c:	00 
    322d:	89 44 24 0c          	mov    %eax,0xc(%esp)
    3231:	c7 44 24 04 d4 fe ff 	movl   $0xfffffed4,0x4(%esp)
    3238:	ff 
    3239:	8b 47 24             	mov    0x24(%edi),%eax
    323c:	89 04 24             	mov    %eax,(%esp)
    323f:	ff 57 2c             	call   *0x2c(%edi)
    3242:	89 3c 24             	mov    %edi,(%esp)
    3245:	e8 f6 d2 01 00       	call   20540 <free>
    324a:	39 73 28             	cmp    %esi,0x28(%ebx)
    324d:	0f 85 55 ff ff ff    	jne    31a8 <vhc_transfer_queue_processor+0x198>
    3253:	8b 7d d4             	mov    -0x2c(%ebp),%edi
    3256:	89 3c 24             	mov    %edi,(%esp)
    3259:	e8 72 3f 01 00       	call   171d0 <fibril_mutex_unlock>
    325e:	83 c4 4c             	add    $0x4c,%esp
    3261:	31 c0                	xor    %eax,%eax
    3263:	5b                   	pop    %ebx
    3264:	5e                   	pop    %esi
    3265:	5f                   	pop    %edi
    3266:	5d                   	pop    %ebp
    3267:	c3                   	ret    
    3268:	66 83 7e 0a 00       	cmpw   $0x0,0xa(%esi)
    326d:	75 49                	jne    32b8 <vhc_transfer_queue_processor+0x2a8>
    326f:	8b 56 10             	mov    0x10(%esi),%edx
    3272:	85 d2                	test   %edx,%edx
    3274:	75 42                	jne    32b8 <vhc_transfer_queue_processor+0x2a8>
    3276:	83 7e 0c 01          	cmpl   $0x1,0xc(%esi)
    327a:	75 3c                	jne    32b8 <vhc_transfer_queue_processor+0x2a8>
    327c:	83 7e 18 08          	cmpl   $0x8,0x18(%esi)
    3280:	75 36                	jne    32b8 <vhc_transfer_queue_processor+0x2a8>
    3282:	8b 46 14             	mov    0x14(%esi),%eax
    3285:	80 38 00             	cmpb   $0x0,(%eax)
    3288:	75 2e                	jne    32b8 <vhc_transfer_queue_processor+0x2a8>
    328a:	80 78 01 05          	cmpb   $0x5,0x1(%eax)
    328e:	75 28                	jne    32b8 <vhc_transfer_queue_processor+0x2a8>
    3290:	0f bf 40 02          	movswl 0x2(%eax),%eax
    3294:	66 89 43 12          	mov    %ax,0x12(%ebx)
    3298:	89 44 24 0c          	mov    %eax,0xc(%esp)
    329c:	c7 44 24 08 71 f9 02 	movl   $0x2f971,0x8(%esp)
    32a3:	00 
    32a4:	c7 44 24 04 05 00 00 	movl   $0x5,0x4(%esp)
    32ab:	00 
    32ac:	c7 04 24 ff ff ff ff 	movl   $0xffffffff,(%esp)
    32b3:	e8 d8 80 01 00       	call   1b390 <log_msg>
    32b8:	89 3c 24             	mov    %edi,(%esp)
    32bb:	e8 10 3f 01 00       	call   171d0 <fibril_mutex_unlock>
    32c0:	8b 45 d4             	mov    -0x2c(%ebp),%eax
    32c3:	8b 55 e4             	mov    -0x1c(%ebp),%edx
    32c6:	89 04 24             	mov    %eax,(%esp)
    32c9:	89 55 cc             	mov    %edx,-0x34(%ebp)
    32cc:	e8 ef 33 01 00       	call   166c0 <str_error>
    32d1:	89 74 24 0c          	mov    %esi,0xc(%esp)
    32d5:	89 44 24 10          	mov    %eax,0x10(%esp)
    32d9:	c7 44 24 08 59 f9 02 	movl   $0x2f959,0x8(%esp)
    32e0:	00 
    32e1:	c7 44 24 04 05 00 00 	movl   $0x5,0x4(%esp)
    32e8:	00 
    32e9:	c7 04 24 ff ff ff ff 	movl   $0xffffffff,(%esp)
    32f0:	e8 9b 80 01 00       	call   1b390 <log_msg>
    32f5:	8b 46 0c             	mov    0xc(%esi),%eax
    32f8:	85 c0                	test   %eax,%eax
    32fa:	0f 84 20 01 00 00    	je     3420 <vhc_transfer_queue_processor+0x410>
    3300:	48                   	dec    %eax
    3301:	0f 85 b2 02 00 00    	jne    35b9 <vhc_transfer_queue_processor+0x5a9>
    3307:	8b 46 28             	mov    0x28(%esi),%eax
    330a:	89 44 24 08          	mov    %eax,0x8(%esp)
    330e:	8b 45 d4             	mov    -0x2c(%ebp),%eax
    3311:	89 44 24 04          	mov    %eax,0x4(%esp)
    3315:	8b 46 24             	mov    0x24(%esi),%eax
    3318:	89 04 24             	mov    %eax,(%esp)
    331b:	ff 56 30             	call   *0x30(%esi)
    331e:	89 34 24             	mov    %esi,(%esp)
    3321:	e8 1a d2 01 00       	call   20540 <free>
    3326:	e9 1b fe ff ff       	jmp    3146 <vhc_transfer_queue_processor+0x136>
    332b:	90                   	nop
    332c:	8d 74 26 00          	lea    0x0(%esi,%eiz,1),%esi
    3330:	8b 56 0c             	mov    0xc(%esi),%edx
    3333:	85 d2                	test   %edx,%edx
    3335:	0f 84 45 01 00 00    	je     3480 <vhc_transfer_queue_processor+0x470>
    333b:	4a                   	dec    %edx
    333c:	0f 85 93 02 00 00    	jne    35d5 <vhc_transfer_queue_processor+0x5c5>
    3342:	8b 56 20             	mov    0x20(%esi),%edx
    3345:	89 54 24 10          	mov    %edx,0x10(%esp)
    3349:	8b 56 1c             	mov    0x1c(%esi),%edx
    334c:	89 4c 24 08          	mov    %ecx,0x8(%esp)
    3350:	89 54 24 0c          	mov    %edx,0xc(%esp)
    3354:	0f bf 4e 0a          	movswl 0xa(%esi),%ecx
    3358:	89 04 24             	mov    %eax,(%esp)
    335b:	89 4c 24 04          	mov    %ecx,0x4(%esp)
    335f:	e8 fc 58 00 00       	call   8c60 <usbvirt_ipc_send_data_out>
    3364:	89 45 d4             	mov    %eax,-0x2c(%ebp)
    3367:	e9 72 fd ff ff       	jmp    30de <vhc_transfer_queue_processor+0xce>
    336c:	8d 74 26 00          	lea    0x0(%esi,%eiz,1),%esi
    3370:	8b 43 0c             	mov    0xc(%ebx),%eax
    3373:	85 c0                	test   %eax,%eax
    3375:	0f 84 3d 01 00 00    	je     34b8 <vhc_transfer_queue_processor+0x4a8>
    337b:	8b 4e 10             	mov    0x10(%esi),%ecx
    337e:	85 c9                	test   %ecx,%ecx
    3380:	75 5e                	jne    33e0 <vhc_transfer_queue_processor+0x3d0>
    3382:	8b 4e 0c             	mov    0xc(%esi),%ecx
    3385:	85 c9                	test   %ecx,%ecx
    3387:	0f 84 8b 01 00 00    	je     3518 <vhc_transfer_queue_processor+0x508>
    338d:	49                   	dec    %ecx
    338e:	0f 85 95 02 00 00    	jne    3629 <vhc_transfer_queue_processor+0x619>
    3394:	8b 4e 20             	mov    0x20(%esi),%ecx
    3397:	89 4c 24 10          	mov    %ecx,0x10(%esp)
    339b:	8b 4e 1c             	mov    0x1c(%esi),%ecx
    339e:	89 4c 24 0c          	mov    %ecx,0xc(%esp)
    33a2:	8b 4e 18             	mov    0x18(%esi),%ecx
    33a5:	89 4c 24 08          	mov    %ecx,0x8(%esp)
    33a9:	8b 4e 14             	mov    0x14(%esi),%ecx
    33ac:	89 04 24             	mov    %eax,(%esp)
    33af:	89 4c 24 04          	mov    %ecx,0x4(%esp)
    33b3:	e8 58 5c 00 00       	call   9010 <usbvirt_control_write>
    33b8:	89 45 d4             	mov    %eax,-0x2c(%ebp)
    33bb:	e9 1e fd ff ff       	jmp    30de <vhc_transfer_queue_processor+0xce>
    33c0:	e8 0b 3e 01 00       	call   171d0 <fibril_mutex_unlock>
    33c5:	c7 04 24 10 27 00 00 	movl   $0x2710,(%esp)
    33cc:	e8 1f f4 01 00       	call   227f0 <async_usleep>
    33d1:	89 3c 24             	mov    %edi,(%esp)
    33d4:	e8 d7 3c 01 00       	call   170b0 <fibril_mutex_lock>
    33d9:	e9 4f fc ff ff       	jmp    302d <vhc_transfer_queue_processor+0x1d>
    33de:	66 90                	xchg   %ax,%ax
    33e0:	8b 56 0c             	mov    0xc(%esi),%edx
    33e3:	85 d2                	test   %edx,%edx
    33e5:	0f 84 65 01 00 00    	je     3550 <vhc_transfer_queue_processor+0x540>
    33eb:	4a                   	dec    %edx
    33ec:	0f 85 1b 02 00 00    	jne    360d <vhc_transfer_queue_processor+0x5fd>
    33f2:	8b 56 20             	mov    0x20(%esi),%edx
    33f5:	89 54 24 10          	mov    %edx,0x10(%esp)
    33f9:	8b 56 1c             	mov    0x1c(%esi),%edx
    33fc:	89 54 24 0c          	mov    %edx,0xc(%esp)
    3400:	0f bf 56 0a          	movswl 0xa(%esi),%edx
    3404:	89 4c 24 04          	mov    %ecx,0x4(%esp)
    3408:	89 54 24 08          	mov    %edx,0x8(%esp)
    340c:	89 04 24             	mov    %eax,(%esp)
    340f:	e8 9c 5e 00 00       	call   92b0 <usbvirt_data_out>
    3414:	89 45 d4             	mov    %eax,-0x2c(%ebp)
    3417:	e9 c2 fc ff ff       	jmp    30de <vhc_transfer_queue_processor+0xce>
    341c:	8d 74 26 00          	lea    0x0(%esi,%eiz,1),%esi
    3420:	8b 46 28             	mov    0x28(%esi),%eax
    3423:	8b 55 cc             	mov    -0x34(%ebp),%edx
    3426:	89 44 24 0c          	mov    %eax,0xc(%esp)
    342a:	8b 45 d4             	mov    -0x2c(%ebp),%eax
    342d:	89 54 24 08          	mov    %edx,0x8(%esp)
    3431:	89 44 24 04          	mov    %eax,0x4(%esp)
    3435:	8b 46 24             	mov    0x24(%esi),%eax
    3438:	89 04 24             	mov    %eax,(%esp)
    343b:	ff 56 2c             	call   *0x2c(%esi)
    343e:	e9 db fe ff ff       	jmp    331e <vhc_transfer_queue_processor+0x30e>
    3443:	90                   	nop
    3444:	8d 74 26 00          	lea    0x0(%esi,%eiz,1),%esi
    3448:	8d 55 e4             	lea    -0x1c(%ebp),%edx
    344b:	89 54 24 14          	mov    %edx,0x14(%esp)
    344f:	8b 4e 20             	mov    0x20(%esi),%ecx
    3452:	89 4c 24 10          	mov    %ecx,0x10(%esp)
    3456:	8b 4e 1c             	mov    0x1c(%esi),%ecx
    3459:	89 4c 24 0c          	mov    %ecx,0xc(%esp)
    345d:	8b 4e 18             	mov    0x18(%esi),%ecx
    3460:	89 4c 24 08          	mov    %ecx,0x8(%esp)
    3464:	8b 4e 14             	mov    0x14(%esi),%ecx
    3467:	89 04 24             	mov    %eax,(%esp)
    346a:	89 4c 24 04          	mov    %ecx,0x4(%esp)
    346e:	e8 bd 53 00 00       	call   8830 <usbvirt_ipc_send_control_read>
    3473:	89 45 d4             	mov    %eax,-0x2c(%ebp)
    3476:	e9 63 fc ff ff       	jmp    30de <vhc_transfer_queue_processor+0xce>
    347b:	90                   	nop
    347c:	8d 74 26 00          	lea    0x0(%esi,%eiz,1),%esi
    3480:	8d 55 e4             	lea    -0x1c(%ebp),%edx
    3483:	89 54 24 14          	mov    %edx,0x14(%esp)
    3487:	8b 56 20             	mov    0x20(%esi),%edx
    348a:	89 54 24 10          	mov    %edx,0x10(%esp)
    348e:	8b 56 1c             	mov    0x1c(%esi),%edx
    3491:	89 4c 24 08          	mov    %ecx,0x8(%esp)
    3495:	89 54 24 0c          	mov    %edx,0xc(%esp)
    3499:	0f bf 4e 0a          	movswl 0xa(%esi),%ecx
    349d:	89 04 24             	mov    %eax,(%esp)
    34a0:	89 4c 24 04          	mov    %ecx,0x4(%esp)
    34a4:	e8 57 56 00 00       	call   8b00 <usbvirt_ipc_send_data_in>
    34a9:	89 45 d4             	mov    %eax,-0x2c(%ebp)
    34ac:	e9 2d fc ff ff       	jmp    30de <vhc_transfer_queue_processor+0xce>
    34b1:	8d b4 26 00 00 00 00 	lea    0x0(%esi,%eiz,1),%esi
    34b8:	c7 44 24 08 50 fa 02 	movl   $0x2fa50,0x8(%esp)
    34bf:	00 
    34c0:	c7 44 24 04 02 00 00 	movl   $0x2,0x4(%esp)
    34c7:	00 
    34c8:	c7 04 24 ff ff ff ff 	movl   $0xffffffff,(%esp)
    34cf:	e8 bc 7e 01 00       	call   1b390 <log_msg>
    34d4:	c7 04 24 d3 fe ff ff 	movl   $0xfffffed3,(%esp)
    34db:	e8 e0 31 01 00       	call   166c0 <str_error>
    34e0:	89 74 24 0c          	mov    %esi,0xc(%esp)
    34e4:	89 44 24 10          	mov    %eax,0x10(%esp)
    34e8:	c7 44 24 08 3d f9 02 	movl   $0x2f93d,0x8(%esp)
    34ef:	00 
    34f0:	c7 44 24 04 05 00 00 	movl   $0x5,0x4(%esp)
    34f7:	00 
    34f8:	c7 04 24 ff ff ff ff 	movl   $0xffffffff,(%esp)
    34ff:	e8 8c 7e 01 00       	call   1b390 <log_msg>
    3504:	89 3c 24             	mov    %edi,(%esp)
    3507:	e8 a4 3b 01 00       	call   170b0 <fibril_mutex_lock>
    350c:	c7 45 d4 d3 fe ff ff 	movl   $0xfffffed3,-0x2c(%ebp)
    3513:	e9 a0 fd ff ff       	jmp    32b8 <vhc_transfer_queue_processor+0x2a8>
    3518:	8d 55 e4             	lea    -0x1c(%ebp),%edx
    351b:	89 54 24 14          	mov    %edx,0x14(%esp)
    351f:	8b 4e 20             	mov    0x20(%esi),%ecx
    3522:	89 4c 24 10          	mov    %ecx,0x10(%esp)
    3526:	8b 4e 1c             	mov    0x1c(%esi),%ecx
    3529:	89 4c 24 0c          	mov    %ecx,0xc(%esp)
    352d:	8b 4e 18             	mov    0x18(%esi),%ecx
    3530:	89 4c 24 08          	mov    %ecx,0x8(%esp)
    3534:	8b 4e 14             	mov    0x14(%esi),%ecx
    3537:	89 04 24             	mov    %eax,(%esp)
    353a:	89 4c 24 04          	mov    %ecx,0x4(%esp)
    353e:	e8 1d 5c 00 00       	call   9160 <usbvirt_control_read>
    3543:	89 45 d4             	mov    %eax,-0x2c(%ebp)
    3546:	e9 93 fb ff ff       	jmp    30de <vhc_transfer_queue_processor+0xce>
    354b:	90                   	nop
    354c:	8d 74 26 00          	lea    0x0(%esi,%eiz,1),%esi
    3550:	8d 55 e4             	lea    -0x1c(%ebp),%edx
    3553:	89 54 24 14          	mov    %edx,0x14(%esp)
    3557:	8b 56 20             	mov    0x20(%esi),%edx
    355a:	89 54 24 10          	mov    %edx,0x10(%esp)
    355e:	8b 56 1c             	mov    0x1c(%esi),%edx
    3561:	89 54 24 0c          	mov    %edx,0xc(%esp)
    3565:	0f bf 56 0a          	movswl 0xa(%esi),%edx
    3569:	89 4c 24 04          	mov    %ecx,0x4(%esp)
    356d:	89 54 24 08          	mov    %edx,0x8(%esp)
    3571:	89 04 24             	mov    %eax,(%esp)
    3574:	e8 87 5d 00 00       	call   9300 <usbvirt_data_in>
    3579:	89 45 d4             	mov    %eax,-0x2c(%ebp)
    357c:	e9 5d fb ff ff       	jmp    30de <vhc_transfer_queue_processor+0xce>
    3581:	c7 44 24 08 bc 00 00 	movl   $0xbc,0x8(%esp)
    3588:	00 
    3589:	c7 44 24 04 ea 02 03 	movl   $0x302ea,0x4(%esp)
    3590:	00 
    3591:	c7 04 24 dc f9 02 00 	movl   $0x2f9dc,(%esp)
    3598:	e8 f3 76 02 00       	call   2ac90 <assert_abort>
    359d:	c7 44 24 08 bd 00 00 	movl   $0xbd,0x8(%esp)
    35a4:	00 
    35a5:	c7 44 24 04 ea 02 03 	movl   $0x302ea,0x4(%esp)
    35ac:	00 
    35ad:	c7 04 24 00 fa 02 00 	movl   $0x2fa00,(%esp)
    35b4:	e8 d7 76 02 00       	call   2ac90 <assert_abort>
    35b9:	c7 44 24 08 d3 00 00 	movl   $0xd3,0x8(%esp)
    35c0:	00 
    35c1:	c7 44 24 04 ea 02 03 	movl   $0x302ea,0x4(%esp)
    35c8:	00 
    35c9:	c7 04 24 24 fa 02 00 	movl   $0x2fa24,(%esp)
    35d0:	e8 bb 76 02 00       	call   2ac90 <assert_abort>
    35d5:	c7 44 24 08 b0 00 00 	movl   $0xb0,0x8(%esp)
    35dc:	00 
    35dd:	c7 44 24 04 ea 02 03 	movl   $0x302ea,0x4(%esp)
    35e4:	00 
    35e5:	c7 04 24 24 fa 02 00 	movl   $0x2fa24,(%esp)
    35ec:	e8 9f 76 02 00       	call   2ac90 <assert_abort>
    35f1:	c7 44 24 08 a4 00 00 	movl   $0xa4,0x8(%esp)
    35f8:	00 
    35f9:	c7 44 24 04 ea 02 03 	movl   $0x302ea,0x4(%esp)
    3600:	00 
    3601:	c7 04 24 24 fa 02 00 	movl   $0x2fa24,(%esp)
    3608:	e8 83 76 02 00       	call   2ac90 <assert_abort>
    360d:	c7 44 24 08 8e 00 00 	movl   $0x8e,0x8(%esp)
    3614:	00 
    3615:	c7 44 24 04 ea 02 03 	movl   $0x302ea,0x4(%esp)
    361c:	00 
    361d:	c7 04 24 24 fa 02 00 	movl   $0x2fa24,(%esp)
    3624:	e8 67 76 02 00       	call   2ac90 <assert_abort>
    3629:	c7 44 24 08 82 00 00 	movl   $0x82,0x8(%esp)
    3630:	00 
    3631:	c7 44 24 04 ea 02 03 	movl   $0x302ea,0x4(%esp)
    3638:	00 
    3639:	c7 04 24 24 fa 02 00 	movl   $0x2fa24,(%esp)
    3640:	e8 4b 76 02 00       	call   2ac90 <assert_abort>
    3645:	66 90                	xchg   %ax,%ax
    3647:	66 90                	xchg   %ax,%ax
    3649:	66 90                	xchg   %ax,%ax
    364b:	66 90                	xchg   %ax,%ax
    364d:	66 90                	xchg   %ax,%ax
    364f:	90                   	nop

00003650 <usb_hub_register_device>:
    3650:	55                   	push   %ebp
    3651:	89 e5                	mov    %esp,%ebp
    3653:	56                   	push   %esi
    3654:	53                   	push   %ebx
    3655:	83 ec 10             	sub    $0x10,%esp
    3658:	8b 75 08             	mov    0x8(%ebp),%esi
    365b:	8b 5d 0c             	mov    0xc(%ebp),%ebx
    365e:	85 f6                	test   %esi,%esi
    3660:	74 35                	je     3697 <usb_hub_register_device+0x47>
    3662:	85 db                	test   %ebx,%ebx
    3664:	74 2a                	je     3690 <usb_hub_register_device+0x40>
    3666:	8b 43 04             	mov    0x4(%ebx),%eax
    3669:	85 c0                	test   %eax,%eax
    366b:	74 23                	je     3690 <usb_hub_register_device+0x40>
    366d:	89 04 24             	mov    %eax,(%esp)
    3670:	e8 6b 82 00 00       	call   b8e0 <ddf_fun_get_handle>
    3675:	89 44 24 08          	mov    %eax,0x8(%esp)
    3679:	0f bf 03             	movswl (%ebx),%eax
    367c:	89 34 24             	mov    %esi,(%esp)
    367f:	89 44 24 04          	mov    %eax,0x4(%esp)
    3683:	e8 a8 6b 00 00       	call   a230 <usb_hc_bind_address>
    3688:	83 c4 10             	add    $0x10,%esp
    368b:	5b                   	pop    %ebx
    368c:	5e                   	pop    %esi
    368d:	5d                   	pop    %ebp
    368e:	c3                   	ret    
    368f:	90                   	nop
    3690:	b8 f6 ff ff ff       	mov    $0xfffffff6,%eax
    3695:	eb f1                	jmp    3688 <usb_hub_register_device+0x38>
    3697:	c7 44 24 08 3d 00 00 	movl   $0x3d,0x8(%esp)
    369e:	00 
    369f:	c7 44 24 04 7c fa 02 	movl   $0x2fa7c,0x4(%esp)
    36a6:	00 
    36a7:	c7 04 24 65 0c 03 00 	movl   $0x30c65,(%esp)
    36ae:	e8 dd 75 02 00       	call   2ac90 <assert_abort>
    36b3:	8d b6 00 00 00 00    	lea    0x0(%esi),%esi
    36b9:	8d bc 27 00 00 00 00 	lea    0x0(%edi,%eiz,1),%edi

000036c0 <usb_hc_new_device_wrapper>:
    36c0:	55                   	push   %ebp
    36c1:	89 e5                	mov    %esp,%ebp
    36c3:	57                   	push   %edi
    36c4:	56                   	push   %esi
    36c5:	53                   	push   %ebx
    36c6:	83 ec 7c             	sub    $0x7c,%esp
    36c9:	8b 45 28             	mov    0x28(%ebp),%eax
    36cc:	8b 5d 0c             	mov    0xc(%ebp),%ebx
    36cf:	85 c0                	test   %eax,%eax
    36d1:	0f 84 b9 01 00 00    	je     3890 <usb_hc_new_device_wrapper+0x1d0>
    36d7:	85 db                	test   %ebx,%ebx
    36d9:	0f 84 b1 01 00 00    	je     3890 <usb_hc_new_device_wrapper+0x1d0>
    36df:	8d 75 b0             	lea    -0x50(%ebp),%esi
    36e2:	c7 44 24 04 00 00 00 	movl   $0x0,0x4(%esp)
    36e9:	00 
    36ea:	89 34 24             	mov    %esi,(%esp)
    36ed:	e8 1e 3f 02 00       	call   27610 <gettimeofday>
    36f2:	89 c2                	mov    %eax,%edx
    36f4:	85 c0                	test   %eax,%eax
    36f6:	74 10                	je     3708 <usb_hc_new_device_wrapper+0x48>
    36f8:	83 c4 7c             	add    $0x7c,%esp
    36fb:	89 d0                	mov    %edx,%eax
    36fd:	5b                   	pop    %ebx
    36fe:	5e                   	pop    %esi
    36ff:	5f                   	pop    %edi
    3700:	5d                   	pop    %ebp
    3701:	c3                   	ret    
    3702:	8d b6 00 00 00 00    	lea    0x0(%esi),%esi
    3708:	89 1c 24             	mov    %ebx,(%esp)
    370b:	e8 f0 67 00 00       	call   9f00 <usb_hc_connection_open>
    3710:	89 c2                	mov    %eax,%edx
    3712:	85 c0                	test   %eax,%eax
    3714:	75 e2                	jne    36f8 <usb_hc_new_device_wrapper+0x38>
    3716:	8b 45 10             	mov    0x10(%ebp),%eax
    3719:	c7 44 24 08 00 00 00 	movl   $0x0,0x8(%esp)
    3720:	00 
    3721:	89 44 24 0c          	mov    %eax,0xc(%esp)
    3725:	c7 44 24 04 00 00 00 	movl   $0x0,0x4(%esp)
    372c:	00 
    372d:	89 1c 24             	mov    %ebx,(%esp)
    3730:	e8 4b 69 00 00       	call   a080 <usb_hc_request_address>
    3735:	0f bf f8             	movswl %ax,%edi
    3738:	66 85 ff             	test   %di,%di
    373b:	0f 88 5f 01 00 00    	js     38a0 <usb_hc_new_device_wrapper+0x1e0>
    3741:	8d 45 b8             	lea    -0x48(%ebp),%eax
    3744:	8d 4d d0             	lea    -0x30(%ebp),%ecx
    3747:	89 44 24 04          	mov    %eax,0x4(%esp)
    374b:	89 0c 24             	mov    %ecx,(%esp)
    374e:	89 5d b8             	mov    %ebx,-0x48(%ebp)
    3751:	66 c7 45 bc 00 00    	movw   $0x0,-0x44(%ebp)
    3757:	e8 c4 09 00 00       	call   4120 <usb_pipe_initialize_default_control>
    375c:	85 c0                	test   %eax,%eax
    375e:	0f 85 44 01 00 00    	jne    38a8 <usb_hc_new_device_wrapper+0x1e8>
    3764:	8b 45 10             	mov    0x10(%ebp),%eax
    3767:	c7 44 24 08 01 00 00 	movl   $0x1,0x8(%esp)
    376e:	00 
    376f:	89 44 24 0c          	mov    %eax,0xc(%esp)
    3773:	c7 44 24 04 00 00 00 	movl   $0x0,0x4(%esp)
    377a:	00 
    377b:	89 1c 24             	mov    %ebx,(%esp)
    377e:	e8 fd 68 00 00       	call   a080 <usb_hc_request_address>
    3783:	0f bf d0             	movswl %ax,%edx
    3786:	83 fa ff             	cmp    $0xffffffff,%edx
    3789:	0f 84 89 01 00 00    	je     3918 <usb_hc_new_device_wrapper+0x258>
    378f:	85 d2                	test   %edx,%edx
    3791:	0f 88 81 00 00 00    	js     3818 <usb_hc_new_device_wrapper+0x158>
    3797:	8d 4d d0             	lea    -0x30(%ebp),%ecx
    379a:	c7 44 24 04 00 00 00 	movl   $0x0,0x4(%esp)
    37a1:	00 
    37a2:	89 0c 24             	mov    %ecx,(%esp)
    37a5:	e8 f6 09 00 00       	call   41a0 <usb_pipe_register>
    37aa:	85 c0                	test   %eax,%eax
    37ac:	0f 85 77 01 00 00    	jne    3929 <usb_hc_new_device_wrapper+0x269>
    37b2:	8d 4d c0             	lea    -0x40(%ebp),%ecx
    37b5:	c7 44 24 04 00 00 00 	movl   $0x0,0x4(%esp)
    37bc:	00 
    37bd:	89 0c 24             	mov    %ecx,(%esp)
    37c0:	89 4d a4             	mov    %ecx,-0x5c(%ebp)
    37c3:	e8 48 3e 02 00       	call   27610 <gettimeofday>
    37c8:	8b 4d a4             	mov    -0x5c(%ebp),%ecx
    37cb:	89 c2                	mov    %eax,%edx
    37cd:	85 c0                	test   %eax,%eax
    37cf:	0f 84 5e 01 00 00    	je     3933 <usb_hc_new_device_wrapper+0x273>
    37d5:	c7 44 24 04 00 00 00 	movl   $0x0,0x4(%esp)
    37dc:	00 
    37dd:	89 1c 24             	mov    %ebx,(%esp)
    37e0:	89 55 a4             	mov    %edx,-0x5c(%ebp)
    37e3:	e8 88 6d 00 00       	call   a570 <usb_hc_release_address>
    37e8:	8b 55 a4             	mov    -0x5c(%ebp),%edx
    37eb:	85 c0                	test   %eax,%eax
    37ed:	74 29                	je     3818 <usb_hc_new_device_wrapper+0x158>
    37ef:	c7 44 24 0c 6c fb 02 	movl   $0x2fb6c,0xc(%esp)
    37f6:	00 
    37f7:	c7 44 24 08 d4 fa 02 	movl   $0x2fad4,0x8(%esp)
    37fe:	00 
    37ff:	c7 44 24 04 02 00 00 	movl   $0x2,0x4(%esp)
    3806:	00 
    3807:	c7 04 24 ff ff ff ff 	movl   $0xffffffff,(%esp)
    380e:	e8 7d 7b 01 00       	call   1b390 <log_msg>
    3813:	8b 55 a4             	mov    -0x5c(%ebp),%edx
    3816:	66 90                	xchg   %ax,%ax
    3818:	8d 45 d0             	lea    -0x30(%ebp),%eax
    381b:	89 55 a4             	mov    %edx,-0x5c(%ebp)
    381e:	89 04 24             	mov    %eax,(%esp)
    3821:	e8 0a 0a 00 00       	call   4230 <usb_pipe_unregister>
    3826:	8b 55 a4             	mov    -0x5c(%ebp),%edx
    3829:	85 c0                	test   %eax,%eax
    382b:	0f 85 87 00 00 00    	jne    38b8 <usb_hc_new_device_wrapper+0x1f8>
    3831:	89 7c 24 04          	mov    %edi,0x4(%esp)
    3835:	89 1c 24             	mov    %ebx,(%esp)
    3838:	89 55 a4             	mov    %edx,-0x5c(%ebp)
    383b:	e8 30 6d 00 00       	call   a570 <usb_hc_release_address>
    3840:	8b 55 a4             	mov    -0x5c(%ebp),%edx
    3843:	85 c0                	test   %eax,%eax
    3845:	0f 85 9d 00 00 00    	jne    38e8 <usb_hc_new_device_wrapper+0x228>
    384b:	89 1c 24             	mov    %ebx,(%esp)
    384e:	89 55 a4             	mov    %edx,-0x5c(%ebp)
    3851:	e8 5a 67 00 00       	call   9fb0 <usb_hc_connection_close>
    3856:	8b 55 a4             	mov    -0x5c(%ebp),%edx
    3859:	85 c0                	test   %eax,%eax
    385b:	0f 84 97 fe ff ff    	je     36f8 <usb_hc_new_device_wrapper+0x38>
    3861:	c7 44 24 0c 6c fb 02 	movl   $0x2fb6c,0xc(%esp)
    3868:	00 
    3869:	c7 44 24 08 48 fb 02 	movl   $0x2fb48,0x8(%esp)
    3870:	00 
    3871:	c7 44 24 04 02 00 00 	movl   $0x2,0x4(%esp)
    3878:	00 
    3879:	c7 04 24 ff ff ff ff 	movl   $0xffffffff,(%esp)
    3880:	e8 0b 7b 01 00       	call   1b390 <log_msg>
    3885:	8b 55 a4             	mov    -0x5c(%ebp),%edx
    3888:	e9 6b fe ff ff       	jmp    36f8 <usb_hc_new_device_wrapper+0x38>
    388d:	8d 76 00             	lea    0x0(%esi),%esi
    3890:	ba f2 ff ff ff       	mov    $0xfffffff2,%edx
    3895:	e9 5e fe ff ff       	jmp    36f8 <usb_hc_new_device_wrapper+0x38>
    389a:	8d b6 00 00 00 00    	lea    0x0(%esi),%esi
    38a0:	ba f4 ff ff ff       	mov    $0xfffffff4,%edx
    38a5:	eb a4                	jmp    384b <usb_hc_new_device_wrapper+0x18b>
    38a7:	90                   	nop
    38a8:	ba b7 d8 ff ff       	mov    $0xffffd8b7,%edx
    38ad:	e9 66 ff ff ff       	jmp    3818 <usb_hc_new_device_wrapper+0x158>
    38b2:	8d b6 00 00 00 00    	lea    0x0(%esi),%esi
    38b8:	c7 44 24 0c 6c fb 02 	movl   $0x2fb6c,0xc(%esp)
    38bf:	00 
    38c0:	c7 44 24 08 fc fa 02 	movl   $0x2fafc,0x8(%esp)
    38c7:	00 
    38c8:	c7 44 24 04 02 00 00 	movl   $0x2,0x4(%esp)
    38cf:	00 
    38d0:	c7 04 24 ff ff ff ff 	movl   $0xffffffff,(%esp)
    38d7:	e8 b4 7a 01 00       	call   1b390 <log_msg>
    38dc:	8b 55 a4             	mov    -0x5c(%ebp),%edx
    38df:	e9 4d ff ff ff       	jmp    3831 <usb_hc_new_device_wrapper+0x171>
    38e4:	8d 74 26 00          	lea    0x0(%esi,%eiz,1),%esi
    38e8:	89 7c 24 10          	mov    %edi,0x10(%esp)
    38ec:	c7 44 24 0c 6c fb 02 	movl   $0x2fb6c,0xc(%esp)
    38f3:	00 
    38f4:	c7 44 24 08 24 fb 02 	movl   $0x2fb24,0x8(%esp)
    38fb:	00 
    38fc:	c7 44 24 04 02 00 00 	movl   $0x2,0x4(%esp)
    3903:	00 
    3904:	c7 04 24 ff ff ff ff 	movl   $0xffffffff,(%esp)
    390b:	e8 80 7a 01 00       	call   1b390 <log_msg>
    3910:	8b 55 a4             	mov    -0x5c(%ebp),%edx
    3913:	e9 33 ff ff ff       	jmp    384b <usb_hc_new_device_wrapper+0x18b>
    3918:	c7 04 24 e0 2e 00 00 	movl   $0x2ee0,(%esp)
    391f:	e8 cc ee 01 00       	call   227f0 <async_usleep>
    3924:	e9 3b fe ff ff       	jmp    3764 <usb_hc_new_device_wrapper+0xa4>
    3929:	ba b7 d8 ff ff       	mov    $0xffffd8b7,%edx
    392e:	e9 a2 fe ff ff       	jmp    37d5 <usb_hc_new_device_wrapper+0x115>
    3933:	89 74 24 04          	mov    %esi,0x4(%esp)
    3937:	89 0c 24             	mov    %ecx,(%esp)
    393a:	e8 61 3b 02 00       	call   274a0 <tv_sub>
    393f:	3d 9f 86 01 00       	cmp    $0x1869f,%eax
    3944:	0f 8e 9b 00 00 00    	jle    39e5 <usb_hc_new_device_wrapper+0x325>
    394a:	8b 45 18             	mov    0x18(%ebp),%eax
    394d:	89 04 24             	mov    %eax,(%esp)
    3950:	ff 55 14             	call   *0x14(%ebp)
    3953:	89 c2                	mov    %eax,%edx
    3955:	85 c0                	test   %eax,%eax
    3957:	0f 85 78 fe ff ff    	jne    37d5 <usb_hc_new_device_wrapper+0x115>
    395d:	c7 04 24 10 27 00 00 	movl   $0x2710,(%esp)
    3964:	e8 87 ee 01 00       	call   227f0 <async_usleep>
    3969:	8d 45 d0             	lea    -0x30(%ebp),%eax
    396c:	89 04 24             	mov    %eax,(%esp)
    396f:	e8 dc 0b 00 00       	call   4550 <usb_pipe_probe_default_control>
    3974:	ba d3 fe ff ff       	mov    $0xfffffed3,%edx
    3979:	85 c0                	test   %eax,%eax
    397b:	0f 85 54 fe ff ff    	jne    37d5 <usb_hc_new_device_wrapper+0x115>
    3981:	66 83 ff 7f          	cmp    $0x7f,%di
    3985:	77 54                	ja     39db <usb_hc_new_device_wrapper+0x31b>
    3987:	83 7d d0 00          	cmpl   $0x0,-0x30(%ebp)
    398b:	0f 84 44 01 00 00    	je     3ad5 <usb_hc_new_device_wrapper+0x415>
    3991:	89 f8                	mov    %edi,%eax
    3993:	8d 4d d0             	lea    -0x30(%ebp),%ecx
    3996:	25 ff ff 00 00       	and    $0xffff,%eax
    399b:	c7 44 24 1c 00 00 00 	movl   $0x0,0x1c(%esp)
    39a2:	00 
    39a3:	c7 44 24 18 00 00 00 	movl   $0x0,0x18(%esp)
    39aa:	00 
    39ab:	c7 44 24 14 00 00 00 	movl   $0x0,0x14(%esp)
    39b2:	00 
    39b3:	89 44 24 10          	mov    %eax,0x10(%esp)
    39b7:	c7 44 24 0c 05 00 00 	movl   $0x5,0xc(%esp)
    39be:	00 
    39bf:	c7 44 24 08 00 00 00 	movl   $0x0,0x8(%esp)
    39c6:	00 
    39c7:	c7 44 24 04 00 00 00 	movl   $0x0,0x4(%esp)
    39ce:	00 
    39cf:	89 0c 24             	mov    %ecx,(%esp)
    39d2:	e8 d9 1e 00 00       	call   58b0 <usb_control_request_set>
    39d7:	85 c0                	test   %eax,%eax
    39d9:	74 1e                	je     39f9 <usb_hc_new_device_wrapper+0x339>
    39db:	ba d3 fe ff ff       	mov    $0xfffffed3,%edx
    39e0:	e9 f0 fd ff ff       	jmp    37d5 <usb_hc_new_device_wrapper+0x115>
    39e5:	ba a0 86 01 00       	mov    $0x186a0,%edx
    39ea:	29 c2                	sub    %eax,%edx
    39ec:	89 14 24             	mov    %edx,(%esp)
    39ef:	e8 fc ed 01 00       	call   227f0 <async_usleep>
    39f4:	e9 51 ff ff ff       	jmp    394a <usb_hc_new_device_wrapper+0x28a>
    39f9:	8d 45 d0             	lea    -0x30(%ebp),%eax
    39fc:	89 04 24             	mov    %eax,(%esp)
    39ff:	e8 2c 08 00 00       	call   4230 <usb_pipe_unregister>
    3a04:	85 c0                	test   %eax,%eax
    3a06:	74 1c                	je     3a24 <usb_hc_new_device_wrapper+0x364>
    3a08:	c7 44 24 08 9c fa 02 	movl   $0x2fa9c,0x8(%esp)
    3a0f:	00 
    3a10:	c7 44 24 04 02 00 00 	movl   $0x2,0x4(%esp)
    3a17:	00 
    3a18:	c7 04 24 ff ff ff ff 	movl   $0xffffffff,(%esp)
    3a1f:	e8 6c 79 01 00       	call   1b390 <log_msg>
    3a24:	8b 45 d0             	mov    -0x30(%ebp),%eax
    3a27:	0f bf 50 04          	movswl 0x4(%eax),%edx
    3a2b:	89 54 24 04          	mov    %edx,0x4(%esp)
    3a2f:	8b 00                	mov    (%eax),%eax
    3a31:	89 04 24             	mov    %eax,(%esp)
    3a34:	e8 37 6b 00 00       	call   a570 <usb_hc_release_address>
    3a39:	8b 45 d0             	mov    -0x30(%ebp),%eax
    3a3c:	8d 4d d0             	lea    -0x30(%ebp),%ecx
    3a3f:	66 89 78 04          	mov    %di,0x4(%eax)
    3a43:	c7 44 24 04 00 00 00 	movl   $0x0,0x4(%esp)
    3a4a:	00 
    3a4b:	89 0c 24             	mov    %ecx,(%esp)
    3a4e:	e8 4d 07 00 00       	call   41a0 <usb_pipe_register>
    3a53:	85 c0                	test   %eax,%eax
    3a55:	75 84                	jne    39db <usb_hc_new_device_wrapper+0x31b>
    3a57:	8d 45 ac             	lea    -0x54(%ebp),%eax
    3a5a:	8d 4d d0             	lea    -0x30(%ebp),%ecx
    3a5d:	89 44 24 10          	mov    %eax,0x10(%esp)
    3a61:	8b 45 24             	mov    0x24(%ebp),%eax
    3a64:	89 44 24 0c          	mov    %eax,0xc(%esp)
    3a68:	8b 45 20             	mov    0x20(%ebp),%eax
    3a6b:	89 44 24 08          	mov    %eax,0x8(%esp)
    3a6f:	8b 45 08             	mov    0x8(%ebp),%eax
    3a72:	89 44 24 04          	mov    %eax,0x4(%esp)
    3a76:	89 0c 24             	mov    %ecx,(%esp)
    3a79:	e8 b2 1b 00 00       	call   5630 <usb_device_register_child_in_devman>
    3a7e:	89 c2                	mov    %eax,%edx
    3a80:	85 c0                	test   %eax,%eax
    3a82:	0f 85 90 fd ff ff    	jne    3818 <usb_hc_new_device_wrapper+0x158>
    3a88:	8b 45 ac             	mov    -0x54(%ebp),%eax
    3a8b:	89 1c 24             	mov    %ebx,(%esp)
    3a8e:	89 45 cc             	mov    %eax,-0x34(%ebp)
    3a91:	8d 45 c8             	lea    -0x38(%ebp),%eax
    3a94:	89 44 24 04          	mov    %eax,0x4(%esp)
    3a98:	66 89 7d c8          	mov    %di,-0x38(%ebp)
    3a9c:	e8 af fb ff ff       	call   3650 <usb_hub_register_device>
    3aa1:	89 c2                	mov    %eax,%edx
    3aa3:	85 c0                	test   %eax,%eax
    3aa5:	75 19                	jne    3ac0 <usb_hc_new_device_wrapper+0x400>
    3aa7:	83 7d 1c 00          	cmpl   $0x0,0x1c(%ebp)
    3aab:	74 06                	je     3ab3 <usb_hc_new_device_wrapper+0x3f3>
    3aad:	8b 45 1c             	mov    0x1c(%ebp),%eax
    3ab0:	66 89 38             	mov    %di,(%eax)
    3ab3:	8b 4d 28             	mov    0x28(%ebp),%ecx
    3ab6:	8b 45 ac             	mov    -0x54(%ebp),%eax
    3ab9:	89 01                	mov    %eax,(%ecx)
    3abb:	e9 8b fd ff ff       	jmp    384b <usb_hc_new_device_wrapper+0x18b>
    3ac0:	8b 45 ac             	mov    -0x54(%ebp),%eax
    3ac3:	89 04 24             	mov    %eax,(%esp)
    3ac6:	e8 a5 7f 00 00       	call   ba70 <ddf_fun_destroy>
    3acb:	ba c9 d8 ff ff       	mov    $0xffffd8c9,%edx
    3ad0:	e9 43 fd ff ff       	jmp    3818 <usb_hc_new_device_wrapper+0x158>
    3ad5:	c7 44 24 08 58 00 00 	movl   $0x58,0x8(%esp)
    3adc:	00 
    3add:	c7 44 24 04 7c fa 02 	movl   $0x2fa7c,0x4(%esp)
    3ae4:	00 
    3ae5:	c7 04 24 86 fa 02 00 	movl   $0x2fa86,(%esp)
    3aec:	e8 9f 71 02 00       	call   2ac90 <assert_abort>
    3af1:	66 90                	xchg   %ax,%ax
    3af3:	66 90                	xchg   %ax,%ax
    3af5:	66 90                	xchg   %ax,%ax
    3af7:	66 90                	xchg   %ax,%ax
    3af9:	66 90                	xchg   %ax,%ax
    3afb:	66 90                	xchg   %ax,%ax
    3afd:	66 90                	xchg   %ax,%ax
    3aff:	90                   	nop

00003b00 <usb_pipe_start_long_transfer>:
    3b00:	55                   	push   %ebp
    3b01:	89 e5                	mov    %esp,%ebp
    3b03:	83 ec 18             	sub    $0x18,%esp
    3b06:	8b 45 08             	mov    0x8(%ebp),%eax
    3b09:	85 c0                	test   %eax,%eax
    3b0b:	74 15                	je     3b22 <usb_pipe_start_long_transfer+0x22>
    3b0d:	8b 00                	mov    (%eax),%eax
    3b0f:	85 c0                	test   %eax,%eax
    3b11:	74 47                	je     3b5a <usb_pipe_start_long_transfer+0x5a>
    3b13:	8b 00                	mov    (%eax),%eax
    3b15:	85 c0                	test   %eax,%eax
    3b17:	74 25                	je     3b3e <usb_pipe_start_long_transfer+0x3e>
    3b19:	89 45 08             	mov    %eax,0x8(%ebp)
    3b1c:	c9                   	leave  
    3b1d:	e9 de 63 00 00       	jmp    9f00 <usb_hc_connection_open>
    3b22:	c7 44 24 08 33 00 00 	movl   $0x33,0x8(%esp)
    3b29:	00 
    3b2a:	c7 44 24 04 86 fb 02 	movl   $0x2fb86,0x4(%esp)
    3b31:	00 
    3b32:	c7 04 24 af fc 02 00 	movl   $0x2fcaf,(%esp)
    3b39:	e8 52 71 02 00       	call   2ac90 <assert_abort>
    3b3e:	c7 44 24 08 35 00 00 	movl   $0x35,0x8(%esp)
    3b45:	00 
    3b46:	c7 44 24 04 86 fb 02 	movl   $0x2fb86,0x4(%esp)
    3b4d:	00 
    3b4e:	c7 04 24 9d fb 02 00 	movl   $0x2fb9d,(%esp)
    3b55:	e8 36 71 02 00       	call   2ac90 <assert_abort>
    3b5a:	c7 44 24 08 34 00 00 	movl   $0x34,0x8(%esp)
    3b61:	00 
    3b62:	c7 44 24 04 86 fb 02 	movl   $0x2fb86,0x4(%esp)
    3b69:	00 
    3b6a:	c7 04 24 92 fb 02 00 	movl   $0x2fb92,(%esp)
    3b71:	e8 1a 71 02 00       	call   2ac90 <assert_abort>
    3b76:	8d 76 00             	lea    0x0(%esi),%esi
    3b79:	8d bc 27 00 00 00 00 	lea    0x0(%edi,%eiz,1),%edi

00003b80 <usb_pipe_end_long_transfer>:
    3b80:	55                   	push   %ebp
    3b81:	89 e5                	mov    %esp,%ebp
    3b83:	83 ec 18             	sub    $0x18,%esp
    3b86:	8b 45 08             	mov    0x8(%ebp),%eax
    3b89:	85 c0                	test   %eax,%eax
    3b8b:	74 15                	je     3ba2 <usb_pipe_end_long_transfer+0x22>
    3b8d:	8b 00                	mov    (%eax),%eax
    3b8f:	85 c0                	test   %eax,%eax
    3b91:	74 47                	je     3bda <usb_pipe_end_long_transfer+0x5a>
    3b93:	8b 00                	mov    (%eax),%eax
    3b95:	85 c0                	test   %eax,%eax
    3b97:	74 25                	je     3bbe <usb_pipe_end_long_transfer+0x3e>
    3b99:	89 45 08             	mov    %eax,0x8(%ebp)
    3b9c:	c9                   	leave  
    3b9d:	e9 0e 64 00 00       	jmp    9fb0 <usb_hc_connection_close>
    3ba2:	c7 44 24 08 40 00 00 	movl   $0x40,0x8(%esp)
    3ba9:	00 
    3baa:	c7 44 24 04 86 fb 02 	movl   $0x2fb86,0x4(%esp)
    3bb1:	00 
    3bb2:	c7 04 24 af fc 02 00 	movl   $0x2fcaf,(%esp)
    3bb9:	e8 d2 70 02 00       	call   2ac90 <assert_abort>
    3bbe:	c7 44 24 08 42 00 00 	movl   $0x42,0x8(%esp)
    3bc5:	00 
    3bc6:	c7 44 24 04 86 fb 02 	movl   $0x2fb86,0x4(%esp)
    3bcd:	00 
    3bce:	c7 04 24 9d fb 02 00 	movl   $0x2fb9d,(%esp)
    3bd5:	e8 b6 70 02 00       	call   2ac90 <assert_abort>
    3bda:	c7 44 24 08 41 00 00 	movl   $0x41,0x8(%esp)
    3be1:	00 
    3be2:	c7 44 24 04 86 fb 02 	movl   $0x2fb86,0x4(%esp)
    3be9:	00 
    3bea:	c7 04 24 92 fb 02 00 	movl   $0x2fb92,(%esp)
    3bf1:	e8 9a 70 02 00       	call   2ac90 <assert_abort>
    3bf6:	8d 76 00             	lea    0x0(%esi),%esi
    3bf9:	8d bc 27 00 00 00 00 	lea    0x0(%edi,%eiz,1),%edi

00003c00 <usb_pipe_control_read>:
    3c00:	55                   	push   %ebp
    3c01:	89 e5                	mov    %esp,%ebp
    3c03:	57                   	push   %edi
    3c04:	56                   	push   %esi
    3c05:	53                   	push   %ebx
    3c06:	83 ec 3c             	sub    $0x3c,%esp
    3c09:	8b 5d 08             	mov    0x8(%ebp),%ebx
    3c0c:	8b 45 0c             	mov    0xc(%ebp),%eax
    3c0f:	85 db                	test   %ebx,%ebx
    3c11:	0f 84 08 01 00 00    	je     3d1f <usb_pipe_control_read+0x11f>
    3c17:	83 7d 10 08          	cmpl   $0x8,0x10(%ebp)
    3c1b:	0f 85 f7 00 00 00    	jne    3d18 <usb_pipe_control_read+0x118>
    3c21:	85 c0                	test   %eax,%eax
    3c23:	0f 84 ef 00 00 00    	je     3d18 <usb_pipe_control_read+0x118>
    3c29:	8b 75 18             	mov    0x18(%ebp),%esi
    3c2c:	85 f6                	test   %esi,%esi
    3c2e:	0f 84 e4 00 00 00    	je     3d18 <usb_pipe_control_read+0x118>
    3c34:	8b 4d 14             	mov    0x14(%ebp),%ecx
    3c37:	85 c9                	test   %ecx,%ecx
    3c39:	0f 84 d9 00 00 00    	je     3d18 <usb_pipe_control_read+0x118>
    3c3f:	83 7b 0c 02          	cmpl   $0x2,0xc(%ebx)
    3c43:	0f 85 97 00 00 00    	jne    3ce0 <usb_pipe_control_read+0xe0>
    3c49:	8b 53 08             	mov    0x8(%ebx),%edx
    3c4c:	85 d2                	test   %edx,%edx
    3c4e:	0f 85 8c 00 00 00    	jne    3ce0 <usb_pipe_control_read+0xe0>
    3c54:	89 44 24 04          	mov    %eax,0x4(%esp)
    3c58:	8d 45 e0             	lea    -0x20(%ebp),%eax
    3c5b:	c7 44 24 08 08 00 00 	movl   $0x8,0x8(%esp)
    3c62:	00 
    3c63:	89 04 24             	mov    %eax,(%esp)
    3c66:	e8 65 f3 00 00       	call   12fd0 <memcpy>
    3c6b:	8b 0b                	mov    (%ebx),%ecx
    3c6d:	c7 45 dc 00 00 00 00 	movl   $0x0,-0x24(%ebp)
    3c74:	8b 45 e0             	mov    -0x20(%ebp),%eax
    3c77:	8b 55 e4             	mov    -0x1c(%ebp),%edx
    3c7a:	85 c9                	test   %ecx,%ecx
    3c7c:	0f bf 73 04          	movswl 0x4(%ebx),%esi
    3c80:	0f 84 b5 00 00 00    	je     3d3b <usb_pipe_control_read+0x13b>
    3c86:	8d 7d dc             	lea    -0x24(%ebp),%edi
    3c89:	89 74 24 08          	mov    %esi,0x8(%esp)
    3c8d:	89 7c 24 1c          	mov    %edi,0x1c(%esp)
    3c91:	8b 7d 18             	mov    0x18(%ebp),%edi
    3c94:	89 7c 24 18          	mov    %edi,0x18(%esp)
    3c98:	8b 7d 14             	mov    0x14(%ebp),%edi
    3c9b:	89 7c 24 14          	mov    %edi,0x14(%esp)
    3c9f:	89 44 24 0c          	mov    %eax,0xc(%esp)
    3ca3:	89 54 24 10          	mov    %edx,0x10(%esp)
    3ca7:	0f bf 41 04          	movswl 0x4(%ecx),%eax
    3cab:	89 44 24 04          	mov    %eax,0x4(%esp)
    3caf:	8b 01                	mov    (%ecx),%eax
    3cb1:	89 04 24             	mov    %eax,(%esp)
    3cb4:	e8 b7 6d 00 00       	call   aa70 <usb_hc_read>
    3cb9:	89 c6                	mov    %eax,%esi
    3cbb:	3d d3 fe ff ff       	cmp    $0xfffffed3,%eax
    3cc0:	74 2e                	je     3cf0 <usb_pipe_control_read+0xf0>
    3cc2:	85 c0                	test   %eax,%eax
    3cc4:	75 0f                	jne    3cd5 <usb_pipe_control_read+0xd5>
    3cc6:	8b 45 1c             	mov    0x1c(%ebp),%eax
    3cc9:	85 c0                	test   %eax,%eax
    3ccb:	74 08                	je     3cd5 <usb_pipe_control_read+0xd5>
    3ccd:	8b 55 1c             	mov    0x1c(%ebp),%edx
    3cd0:	8b 45 dc             	mov    -0x24(%ebp),%eax
    3cd3:	89 02                	mov    %eax,(%edx)
    3cd5:	83 c4 3c             	add    $0x3c,%esp
    3cd8:	89 f0                	mov    %esi,%eax
    3cda:	5b                   	pop    %ebx
    3cdb:	5e                   	pop    %esi
    3cdc:	5f                   	pop    %edi
    3cdd:	5d                   	pop    %ebp
    3cde:	c3                   	ret    
    3cdf:	90                   	nop
    3ce0:	83 c4 3c             	add    $0x3c,%esp
    3ce3:	be fa fe ff ff       	mov    $0xfffffefa,%esi
    3ce8:	89 f0                	mov    %esi,%eax
    3cea:	5b                   	pop    %ebx
    3ceb:	5e                   	pop    %esi
    3cec:	5f                   	pop    %edi
    3ced:	5d                   	pop    %ebp
    3cee:	c3                   	ret    
    3cef:	90                   	nop
    3cf0:	80 7b 14 00          	cmpb   $0x0,0x14(%ebx)
    3cf4:	74 df                	je     3cd5 <usb_pipe_control_read+0xd5>
    3cf6:	66 83 7b 04 00       	cmpw   $0x0,0x4(%ebx)
    3cfb:	75 d8                	jne    3cd5 <usb_pipe_control_read+0xd5>
    3cfd:	c6 43 14 00          	movb   $0x0,0x14(%ebx)
    3d01:	c7 44 24 04 00 00 00 	movl   $0x0,0x4(%esp)
    3d08:	00 
    3d09:	89 1c 24             	mov    %ebx,(%esp)
    3d0c:	e8 9f 29 00 00       	call   66b0 <usb_request_clear_endpoint_halt>
    3d11:	c6 43 14 01          	movb   $0x1,0x14(%ebx)
    3d15:	eb be                	jmp    3cd5 <usb_pipe_control_read+0xd5>
    3d17:	90                   	nop
    3d18:	be f2 ff ff ff       	mov    $0xfffffff2,%esi
    3d1d:	eb b6                	jmp    3cd5 <usb_pipe_control_read+0xd5>
    3d1f:	c7 44 24 08 69 00 00 	movl   $0x69,0x8(%esp)
    3d26:	00 
    3d27:	c7 44 24 04 86 fb 02 	movl   $0x2fb86,0x4(%esp)
    3d2e:	00 
    3d2f:	c7 04 24 af fc 02 00 	movl   $0x2fcaf,(%esp)
    3d36:	e8 55 6f 02 00       	call   2ac90 <assert_abort>
    3d3b:	c7 44 24 08 78 00 00 	movl   $0x78,0x8(%esp)
    3d42:	00 
    3d43:	c7 44 24 04 c0 fb 02 	movl   $0x2fbc0,0x4(%esp)
    3d4a:	00 
    3d4b:	c7 04 24 b7 fb 02 00 	movl   $0x2fbb7,(%esp)
    3d52:	e8 39 6f 02 00       	call   2ac90 <assert_abort>
    3d57:	89 f6                	mov    %esi,%esi
    3d59:	8d bc 27 00 00 00 00 	lea    0x0(%edi,%eiz,1),%edi

00003d60 <usb_pipe_control_write>:
    3d60:	55                   	push   %ebp
    3d61:	89 e5                	mov    %esp,%ebp
    3d63:	57                   	push   %edi
    3d64:	56                   	push   %esi
    3d65:	53                   	push   %ebx
    3d66:	83 ec 3c             	sub    $0x3c,%esp
    3d69:	8b 5d 08             	mov    0x8(%ebp),%ebx
    3d6c:	8b 45 0c             	mov    0xc(%ebp),%eax
    3d6f:	8b 75 18             	mov    0x18(%ebp),%esi
    3d72:	85 db                	test   %ebx,%ebx
    3d74:	0f 84 03 01 00 00    	je     3e7d <usb_pipe_control_write+0x11d>
    3d7a:	83 7d 10 08          	cmpl   $0x8,0x10(%ebp)
    3d7e:	0f 85 b4 00 00 00    	jne    3e38 <usb_pipe_control_write+0xd8>
    3d84:	85 c0                	test   %eax,%eax
    3d86:	0f 84 ac 00 00 00    	je     3e38 <usb_pipe_control_write+0xd8>
    3d8c:	85 f6                	test   %esi,%esi
    3d8e:	0f 85 dc 00 00 00    	jne    3e70 <usb_pipe_control_write+0x110>
    3d94:	85 f6                	test   %esi,%esi
    3d96:	0f 84 8c 00 00 00    	je     3e28 <usb_pipe_control_write+0xc8>
    3d9c:	83 7b 0c 02          	cmpl   $0x2,0xc(%ebx)
    3da0:	75 76                	jne    3e18 <usb_pipe_control_write+0xb8>
    3da2:	8b 7b 08             	mov    0x8(%ebx),%edi
    3da5:	85 ff                	test   %edi,%edi
    3da7:	75 6f                	jne    3e18 <usb_pipe_control_write+0xb8>
    3da9:	89 44 24 04          	mov    %eax,0x4(%esp)
    3dad:	8d 45 e0             	lea    -0x20(%ebp),%eax
    3db0:	c7 44 24 08 08 00 00 	movl   $0x8,0x8(%esp)
    3db7:	00 
    3db8:	89 04 24             	mov    %eax,(%esp)
    3dbb:	e8 10 f2 00 00       	call   12fd0 <memcpy>
    3dc0:	8b 0b                	mov    (%ebx),%ecx
    3dc2:	8b 45 e0             	mov    -0x20(%ebp),%eax
    3dc5:	8b 55 e4             	mov    -0x1c(%ebp),%edx
    3dc8:	8b 7b 04             	mov    0x4(%ebx),%edi
    3dcb:	85 c9                	test   %ecx,%ecx
    3dcd:	0f 84 c6 00 00 00    	je     3e99 <usb_pipe_control_write+0x139>
    3dd3:	89 74 24 18          	mov    %esi,0x18(%esp)
    3dd7:	89 44 24 0c          	mov    %eax,0xc(%esp)
    3ddb:	8b 75 14             	mov    0x14(%ebp),%esi
    3dde:	89 54 24 10          	mov    %edx,0x10(%esp)
    3de2:	0f bf c7             	movswl %di,%eax
    3de5:	89 74 24 14          	mov    %esi,0x14(%esp)
    3de9:	89 44 24 08          	mov    %eax,0x8(%esp)
    3ded:	0f bf 41 04          	movswl 0x4(%ecx),%eax
    3df1:	89 44 24 04          	mov    %eax,0x4(%esp)
    3df5:	8b 01                	mov    (%ecx),%eax
    3df7:	89 04 24             	mov    %eax,(%esp)
    3dfa:	e8 41 6e 00 00       	call   ac40 <usb_hc_write>
    3dff:	89 c6                	mov    %eax,%esi
    3e01:	3d d3 fe ff ff       	cmp    $0xfffffed3,%eax
    3e06:	74 40                	je     3e48 <usb_pipe_control_write+0xe8>
    3e08:	83 c4 3c             	add    $0x3c,%esp
    3e0b:	89 f0                	mov    %esi,%eax
    3e0d:	5b                   	pop    %ebx
    3e0e:	5e                   	pop    %esi
    3e0f:	5f                   	pop    %edi
    3e10:	5d                   	pop    %ebp
    3e11:	c3                   	ret    
    3e12:	8d b6 00 00 00 00    	lea    0x0(%esi),%esi
    3e18:	83 c4 3c             	add    $0x3c,%esp
    3e1b:	be fa fe ff ff       	mov    $0xfffffefa,%esi
    3e20:	89 f0                	mov    %esi,%eax
    3e22:	5b                   	pop    %ebx
    3e23:	5e                   	pop    %esi
    3e24:	5f                   	pop    %edi
    3e25:	5d                   	pop    %ebp
    3e26:	c3                   	ret    
    3e27:	90                   	nop
    3e28:	8b 55 14             	mov    0x14(%ebp),%edx
    3e2b:	85 d2                	test   %edx,%edx
    3e2d:	0f 84 69 ff ff ff    	je     3d9c <usb_pipe_control_write+0x3c>
    3e33:	90                   	nop
    3e34:	8d 74 26 00          	lea    0x0(%esi,%eiz,1),%esi
    3e38:	83 c4 3c             	add    $0x3c,%esp
    3e3b:	be f2 ff ff ff       	mov    $0xfffffff2,%esi
    3e40:	89 f0                	mov    %esi,%eax
    3e42:	5b                   	pop    %ebx
    3e43:	5e                   	pop    %esi
    3e44:	5f                   	pop    %edi
    3e45:	5d                   	pop    %ebp
    3e46:	c3                   	ret    
    3e47:	90                   	nop
    3e48:	80 7b 14 00          	cmpb   $0x0,0x14(%ebx)
    3e4c:	74 ba                	je     3e08 <usb_pipe_control_write+0xa8>
    3e4e:	66 83 7b 04 00       	cmpw   $0x0,0x4(%ebx)
    3e53:	75 b3                	jne    3e08 <usb_pipe_control_write+0xa8>
    3e55:	c6 43 14 00          	movb   $0x0,0x14(%ebx)
    3e59:	c7 44 24 04 00 00 00 	movl   $0x0,0x4(%esp)
    3e60:	00 
    3e61:	89 1c 24             	mov    %ebx,(%esp)
    3e64:	e8 47 28 00 00       	call   66b0 <usb_request_clear_endpoint_halt>
    3e69:	c6 43 14 01          	movb   $0x1,0x14(%ebx)
    3e6d:	eb 99                	jmp    3e08 <usb_pipe_control_write+0xa8>
    3e6f:	90                   	nop
    3e70:	8b 4d 14             	mov    0x14(%ebp),%ecx
    3e73:	85 c9                	test   %ecx,%ecx
    3e75:	0f 85 19 ff ff ff    	jne    3d94 <usb_pipe_control_write+0x34>
    3e7b:	eb bb                	jmp    3e38 <usb_pipe_control_write+0xd8>
    3e7d:	c7 44 24 08 99 00 00 	movl   $0x99,0x8(%esp)
    3e84:	00 
    3e85:	c7 44 24 04 86 fb 02 	movl   $0x2fb86,0x4(%esp)
    3e8c:	00 
    3e8d:	c7 04 24 af fc 02 00 	movl   $0x2fcaf,(%esp)
    3e94:	e8 f7 6d 02 00       	call   2ac90 <assert_abort>
    3e99:	c7 44 24 08 88 00 00 	movl   $0x88,0x8(%esp)
    3ea0:	00 
    3ea1:	c7 44 24 04 c0 fb 02 	movl   $0x2fbc0,0x4(%esp)
    3ea8:	00 
    3ea9:	c7 04 24 b7 fb 02 00 	movl   $0x2fbb7,(%esp)
    3eb0:	e8 db 6d 02 00       	call   2ac90 <assert_abort>
    3eb5:	8d 74 26 00          	lea    0x0(%esi,%eiz,1),%esi
    3eb9:	8d bc 27 00 00 00 00 	lea    0x0(%edi,%eiz,1),%edi

00003ec0 <usb_pipe_read>:
    3ec0:	55                   	push   %ebp
    3ec1:	89 e5                	mov    %esp,%ebp
    3ec3:	56                   	push   %esi
    3ec4:	53                   	push   %ebx
    3ec5:	83 ec 30             	sub    $0x30,%esp
    3ec8:	8b 45 08             	mov    0x8(%ebp),%eax
    3ecb:	8b 4d 0c             	mov    0xc(%ebp),%ecx
    3ece:	8b 5d 10             	mov    0x10(%ebp),%ebx
    3ed1:	85 c0                	test   %eax,%eax
    3ed3:	0f 84 be 00 00 00    	je     3f97 <usb_pipe_read+0xd7>
    3ed9:	85 c9                	test   %ecx,%ecx
    3edb:	0f 84 af 00 00 00    	je     3f90 <usb_pipe_read+0xd0>
    3ee1:	85 db                	test   %ebx,%ebx
    3ee3:	0f 84 a7 00 00 00    	je     3f90 <usb_pipe_read+0xd0>
    3ee9:	8b 70 0c             	mov    0xc(%eax),%esi
    3eec:	85 f6                	test   %esi,%esi
    3eee:	0f 85 94 00 00 00    	jne    3f88 <usb_pipe_read+0xc8>
    3ef4:	8b 50 08             	mov    0x8(%eax),%edx
    3ef7:	85 d2                	test   %edx,%edx
    3ef9:	0f 84 89 00 00 00    	je     3f88 <usb_pipe_read+0xc8>
    3eff:	83 ea 02             	sub    $0x2,%edx
    3f02:	83 fa 01             	cmp    $0x1,%edx
    3f05:	77 71                	ja     3f78 <usb_pipe_read+0xb8>
    3f07:	0f bf 50 04          	movswl 0x4(%eax),%edx
    3f0b:	8b 00                	mov    (%eax),%eax
    3f0d:	c7 45 f4 00 00 00 00 	movl   $0x0,-0xc(%ebp)
    3f14:	85 c0                	test   %eax,%eax
    3f16:	0f 84 97 00 00 00    	je     3fb3 <usb_pipe_read+0xf3>
    3f1c:	8d 75 f4             	lea    -0xc(%ebp),%esi
    3f1f:	89 5c 24 18          	mov    %ebx,0x18(%esp)
    3f23:	89 74 24 1c          	mov    %esi,0x1c(%esp)
    3f27:	89 4c 24 14          	mov    %ecx,0x14(%esp)
    3f2b:	c7 44 24 0c 00 00 00 	movl   $0x0,0xc(%esp)
    3f32:	00 
    3f33:	c7 44 24 10 00 00 00 	movl   $0x0,0x10(%esp)
    3f3a:	00 
    3f3b:	89 54 24 08          	mov    %edx,0x8(%esp)
    3f3f:	0f bf 50 04          	movswl 0x4(%eax),%edx
    3f43:	89 54 24 04          	mov    %edx,0x4(%esp)
    3f47:	8b 00                	mov    (%eax),%eax
    3f49:	89 04 24             	mov    %eax,(%esp)
    3f4c:	e8 1f 6b 00 00       	call   aa70 <usb_hc_read>
    3f51:	85 c0                	test   %eax,%eax
    3f53:	74 0b                	je     3f60 <usb_pipe_read+0xa0>
    3f55:	83 c4 30             	add    $0x30,%esp
    3f58:	5b                   	pop    %ebx
    3f59:	5e                   	pop    %esi
    3f5a:	5d                   	pop    %ebp
    3f5b:	c3                   	ret    
    3f5c:	8d 74 26 00          	lea    0x0(%esi,%eiz,1),%esi
    3f60:	8b 5d 14             	mov    0x14(%ebp),%ebx
    3f63:	85 db                	test   %ebx,%ebx
    3f65:	74 ee                	je     3f55 <usb_pipe_read+0x95>
    3f67:	8b 55 14             	mov    0x14(%ebp),%edx
    3f6a:	8b 45 f4             	mov    -0xc(%ebp),%eax
    3f6d:	89 02                	mov    %eax,(%edx)
    3f6f:	83 c4 30             	add    $0x30,%esp
    3f72:	31 c0                	xor    %eax,%eax
    3f74:	5b                   	pop    %ebx
    3f75:	5e                   	pop    %esi
    3f76:	5d                   	pop    %ebp
    3f77:	c3                   	ret    
    3f78:	83 c4 30             	add    $0x30,%esp
    3f7b:	b8 f5 ff ff ff       	mov    $0xfffffff5,%eax
    3f80:	5b                   	pop    %ebx
    3f81:	5e                   	pop    %esi
    3f82:	5d                   	pop    %ebp
    3f83:	c3                   	ret    
    3f84:	8d 74 26 00          	lea    0x0(%esi,%eiz,1),%esi
    3f88:	b8 fa fe ff ff       	mov    $0xfffffefa,%eax
    3f8d:	eb c6                	jmp    3f55 <usb_pipe_read+0x95>
    3f8f:	90                   	nop
    3f90:	b8 f2 ff ff ff       	mov    $0xfffffff2,%eax
    3f95:	eb be                	jmp    3f55 <usb_pipe_read+0x95>
    3f97:	c7 44 24 08 c4 00 00 	movl   $0xc4,0x8(%esp)
    3f9e:	00 
    3f9f:	c7 44 24 04 86 fb 02 	movl   $0x2fb86,0x4(%esp)
    3fa6:	00 
    3fa7:	c7 04 24 af fc 02 00 	movl   $0x2fcaf,(%esp)
    3fae:	e8 dd 6c 02 00       	call   2ac90 <assert_abort>
    3fb3:	c7 44 24 08 78 00 00 	movl   $0x78,0x8(%esp)
    3fba:	00 
    3fbb:	c7 44 24 04 c0 fb 02 	movl   $0x2fbc0,0x4(%esp)
    3fc2:	00 
    3fc3:	c7 04 24 b7 fb 02 00 	movl   $0x2fbb7,(%esp)
    3fca:	e8 c1 6c 02 00       	call   2ac90 <assert_abort>
    3fcf:	90                   	nop

00003fd0 <usb_pipe_write>:
    3fd0:	55                   	push   %ebp
    3fd1:	89 e5                	mov    %esp,%ebp
    3fd3:	53                   	push   %ebx
    3fd4:	83 ec 24             	sub    $0x24,%esp
    3fd7:	8b 45 08             	mov    0x8(%ebp),%eax
    3fda:	8b 4d 0c             	mov    0xc(%ebp),%ecx
    3fdd:	8b 55 10             	mov    0x10(%ebp),%edx
    3fe0:	85 c0                	test   %eax,%eax
    3fe2:	0f 84 87 00 00 00    	je     406f <usb_pipe_write+0x9f>
    3fe8:	85 d2                	test   %edx,%edx
    3fea:	74 7c                	je     4068 <usb_pipe_write+0x98>
    3fec:	85 c9                	test   %ecx,%ecx
    3fee:	74 78                	je     4068 <usb_pipe_write+0x98>
    3ff0:	83 78 0c 01          	cmpl   $0x1,0xc(%eax)
    3ff4:	75 62                	jne    4058 <usb_pipe_write+0x88>
    3ff6:	8b 58 08             	mov    0x8(%eax),%ebx
    3ff9:	85 db                	test   %ebx,%ebx
    3ffb:	74 5b                	je     4058 <usb_pipe_write+0x88>
    3ffd:	83 eb 02             	sub    $0x2,%ebx
    4000:	83 fb 01             	cmp    $0x1,%ebx
    4003:	77 43                	ja     4048 <usb_pipe_write+0x78>
    4005:	0f bf 58 04          	movswl 0x4(%eax),%ebx
    4009:	8b 00                	mov    (%eax),%eax
    400b:	85 c0                	test   %eax,%eax
    400d:	74 7c                	je     408b <usb_pipe_write+0xbb>
    400f:	89 54 24 18          	mov    %edx,0x18(%esp)
    4013:	89 4c 24 14          	mov    %ecx,0x14(%esp)
    4017:	c7 44 24 0c 00 00 00 	movl   $0x0,0xc(%esp)
    401e:	00 
    401f:	c7 44 24 10 00 00 00 	movl   $0x0,0x10(%esp)
    4026:	00 
    4027:	89 5c 24 08          	mov    %ebx,0x8(%esp)
    402b:	0f bf 50 04          	movswl 0x4(%eax),%edx
    402f:	89 54 24 04          	mov    %edx,0x4(%esp)
    4033:	8b 00                	mov    (%eax),%eax
    4035:	89 04 24             	mov    %eax,(%esp)
    4038:	e8 03 6c 00 00       	call   ac40 <usb_hc_write>
    403d:	83 c4 24             	add    $0x24,%esp
    4040:	5b                   	pop    %ebx
    4041:	5d                   	pop    %ebp
    4042:	c3                   	ret    
    4043:	90                   	nop
    4044:	8d 74 26 00          	lea    0x0(%esi,%eiz,1),%esi
    4048:	83 c4 24             	add    $0x24,%esp
    404b:	b8 f5 ff ff ff       	mov    $0xfffffff5,%eax
    4050:	5b                   	pop    %ebx
    4051:	5d                   	pop    %ebp
    4052:	c3                   	ret    
    4053:	90                   	nop
    4054:	8d 74 26 00          	lea    0x0(%esi,%eiz,1),%esi
    4058:	83 c4 24             	add    $0x24,%esp
    405b:	b8 fa fe ff ff       	mov    $0xfffffefa,%eax
    4060:	5b                   	pop    %ebx
    4061:	5d                   	pop    %ebp
    4062:	c3                   	ret    
    4063:	90                   	nop
    4064:	8d 74 26 00          	lea    0x0(%esi,%eiz,1),%esi
    4068:	b8 f2 ff ff ff       	mov    $0xfffffff2,%eax
    406d:	eb ce                	jmp    403d <usb_pipe_write+0x6d>
    406f:	c7 44 24 08 ef 00 00 	movl   $0xef,0x8(%esp)
    4076:	00 
    4077:	c7 44 24 04 86 fb 02 	movl   $0x2fb86,0x4(%esp)
    407e:	00 
    407f:	c7 04 24 af fc 02 00 	movl   $0x2fcaf,(%esp)
    4086:	e8 05 6c 02 00       	call   2ac90 <assert_abort>
    408b:	c7 44 24 08 88 00 00 	movl   $0x88,0x8(%esp)
    4092:	00 
    4093:	c7 44 24 04 c0 fb 02 	movl   $0x2fbc0,0x4(%esp)
    409a:	00 
    409b:	c7 04 24 b7 fb 02 00 	movl   $0x2fbb7,(%esp)
    40a2:	e8 e9 6b 02 00       	call   2ac90 <assert_abort>
    40a7:	89 f6                	mov    %esi,%esi
    40a9:	8d bc 27 00 00 00 00 	lea    0x0(%edi,%eiz,1),%edi

000040b0 <usb_pipe_initialize>:
    40b0:	55                   	push   %ebp
    40b1:	89 e5                	mov    %esp,%ebp
    40b3:	83 ec 18             	sub    $0x18,%esp
    40b6:	8b 45 08             	mov    0x8(%ebp),%eax
    40b9:	8b 55 0c             	mov    0xc(%ebp),%edx
    40bc:	8b 4d 10             	mov    0x10(%ebp),%ecx
    40bf:	85 c0                	test   %eax,%eax
    40c1:	74 24                	je     40e7 <usb_pipe_initialize+0x37>
    40c3:	85 d2                	test   %edx,%edx
    40c5:	74 3c                	je     4103 <usb_pipe_initialize+0x53>
    40c7:	89 10                	mov    %edx,(%eax)
    40c9:	8b 55 14             	mov    0x14(%ebp),%edx
    40cc:	89 50 08             	mov    %edx,0x8(%eax)
    40cf:	8b 55 18             	mov    0x18(%ebp),%edx
    40d2:	89 50 10             	mov    %edx,0x10(%eax)
    40d5:	8b 55 1c             	mov    0x1c(%ebp),%edx
    40d8:	66 89 48 04          	mov    %cx,0x4(%eax)
    40dc:	89 50 0c             	mov    %edx,0xc(%eax)
    40df:	c6 40 14 00          	movb   $0x0,0x14(%eax)
    40e3:	31 c0                	xor    %eax,%eax
    40e5:	c9                   	leave  
    40e6:	c3                   	ret    
    40e7:	c7 44 24 08 15 01 00 	movl   $0x115,0x8(%esp)
    40ee:	00 
    40ef:	c7 44 24 04 86 fb 02 	movl   $0x2fb86,0x4(%esp)
    40f6:	00 
    40f7:	c7 04 24 af fc 02 00 	movl   $0x2fcaf,(%esp)
    40fe:	e8 8d 6b 02 00       	call   2ac90 <assert_abort>
    4103:	c7 44 24 08 16 01 00 	movl   $0x116,0x8(%esp)
    410a:	00 
    410b:	c7 44 24 04 86 fb 02 	movl   $0x2fb86,0x4(%esp)
    4112:	00 
    4113:	c7 04 24 65 0c 03 00 	movl   $0x30c65,(%esp)
    411a:	e8 71 6b 02 00       	call   2ac90 <assert_abort>
    411f:	90                   	nop

00004120 <usb_pipe_initialize_default_control>:
    4120:	55                   	push   %ebp
    4121:	89 e5                	mov    %esp,%ebp
    4123:	83 ec 18             	sub    $0x18,%esp
    4126:	8b 45 08             	mov    0x8(%ebp),%eax
    4129:	8b 55 0c             	mov    0xc(%ebp),%edx
    412c:	85 c0                	test   %eax,%eax
    412e:	74 29                	je     4159 <usb_pipe_initialize_default_control+0x39>
    4130:	85 d2                	test   %edx,%edx
    4132:	74 41                	je     4175 <usb_pipe_initialize_default_control+0x55>
    4134:	89 10                	mov    %edx,(%eax)
    4136:	66 c7 40 04 00 00    	movw   $0x0,0x4(%eax)
    413c:	c7 40 08 00 00 00 00 	movl   $0x0,0x8(%eax)
    4143:	c7 40 10 08 00 00 00 	movl   $0x8,0x10(%eax)
    414a:	c7 40 0c 02 00 00 00 	movl   $0x2,0xc(%eax)
    4151:	c6 40 14 01          	movb   $0x1,0x14(%eax)
    4155:	c9                   	leave  
    4156:	31 c0                	xor    %eax,%eax
    4158:	c3                   	ret    
    4159:	c7 44 24 08 2b 01 00 	movl   $0x12b,0x8(%esp)
    4160:	00 
    4161:	c7 44 24 04 86 fb 02 	movl   $0x2fb86,0x4(%esp)
    4168:	00 
    4169:	c7 04 24 af fc 02 00 	movl   $0x2fcaf,(%esp)
    4170:	e8 1b 6b 02 00       	call   2ac90 <assert_abort>
    4175:	c7 44 24 08 2c 01 00 	movl   $0x12c,0x8(%esp)
    417c:	00 
    417d:	c7 44 24 04 86 fb 02 	movl   $0x2fb86,0x4(%esp)
    4184:	00 
    4185:	c7 04 24 65 0c 03 00 	movl   $0x30c65,(%esp)
    418c:	e8 ff 6a 02 00       	call   2ac90 <assert_abort>
    4191:	eb 0d                	jmp    41a0 <usb_pipe_register>
    4193:	90                   	nop
    4194:	90                   	nop
    4195:	90                   	nop
    4196:	90                   	nop
    4197:	90                   	nop
    4198:	90                   	nop
    4199:	90                   	nop
    419a:	90                   	nop
    419b:	90                   	nop
    419c:	90                   	nop
    419d:	90                   	nop
    419e:	90                   	nop
    419f:	90                   	nop

000041a0 <usb_pipe_register>:
    41a0:	55                   	push   %ebp
    41a1:	89 e5                	mov    %esp,%ebp
    41a3:	83 ec 28             	sub    $0x28,%esp
    41a6:	8b 45 08             	mov    0x8(%ebp),%eax
    41a9:	85 c0                	test   %eax,%eax
    41ab:	74 3e                	je     41eb <usb_pipe_register+0x4b>
    41ad:	8b 10                	mov    (%eax),%edx
    41af:	85 d2                	test   %edx,%edx
    41b1:	74 54                	je     4207 <usb_pipe_register+0x67>
    41b3:	8b 4d 0c             	mov    0xc(%ebp),%ecx
    41b6:	89 4c 24 18          	mov    %ecx,0x18(%esp)
    41ba:	8b 48 10             	mov    0x10(%eax),%ecx
    41bd:	89 4c 24 14          	mov    %ecx,0x14(%esp)
    41c1:	8b 48 0c             	mov    0xc(%eax),%ecx
    41c4:	89 4c 24 10          	mov    %ecx,0x10(%esp)
    41c8:	8b 48 08             	mov    0x8(%eax),%ecx
    41cb:	89 4c 24 0c          	mov    %ecx,0xc(%esp)
    41cf:	0f bf 40 04          	movswl 0x4(%eax),%eax
    41d3:	89 44 24 08          	mov    %eax,0x8(%esp)
    41d7:	0f bf 42 04          	movswl 0x4(%edx),%eax
    41db:	89 44 24 04          	mov    %eax,0x4(%esp)
    41df:	8b 02                	mov    (%edx),%eax
    41e1:	89 04 24             	mov    %eax,(%esp)
    41e4:	e8 17 65 00 00       	call   a700 <usb_hc_register_endpoint>
    41e9:	c9                   	leave  
    41ea:	c3                   	ret    
    41eb:	c7 44 24 08 3e 01 00 	movl   $0x13e,0x8(%esp)
    41f2:	00 
    41f3:	c7 44 24 04 86 fb 02 	movl   $0x2fb86,0x4(%esp)
    41fa:	00 
    41fb:	c7 04 24 af fc 02 00 	movl   $0x2fcaf,(%esp)
    4202:	e8 89 6a 02 00       	call   2ac90 <assert_abort>
    4207:	c7 44 24 08 3f 01 00 	movl   $0x13f,0x8(%esp)
    420e:	00 
    420f:	c7 44 24 04 86 fb 02 	movl   $0x2fb86,0x4(%esp)
    4216:	00 
    4217:	c7 04 24 92 fb 02 00 	movl   $0x2fb92,(%esp)
    421e:	e8 6d 6a 02 00       	call   2ac90 <assert_abort>
    4223:	8d b6 00 00 00 00    	lea    0x0(%esi),%esi
    4229:	8d bc 27 00 00 00 00 	lea    0x0(%edi,%eiz,1),%edi

00004230 <usb_pipe_unregister>:
    4230:	55                   	push   %ebp
    4231:	89 e5                	mov    %esp,%ebp
    4233:	83 ec 18             	sub    $0x18,%esp
    4236:	8b 45 08             	mov    0x8(%ebp),%eax
    4239:	85 c0                	test   %eax,%eax
    423b:	74 29                	je     4266 <usb_pipe_unregister+0x36>
    423d:	8b 10                	mov    (%eax),%edx
    423f:	85 d2                	test   %edx,%edx
    4241:	74 3f                	je     4282 <usb_pipe_unregister+0x52>
    4243:	8b 48 0c             	mov    0xc(%eax),%ecx
    4246:	89 4c 24 0c          	mov    %ecx,0xc(%esp)
    424a:	0f bf 40 04          	movswl 0x4(%eax),%eax
    424e:	89 44 24 08          	mov    %eax,0x8(%esp)
    4252:	0f bf 42 04          	movswl 0x4(%edx),%eax
    4256:	89 44 24 04          	mov    %eax,0x4(%esp)
    425a:	8b 02                	mov    (%edx),%eax
    425c:	89 04 24             	mov    %eax,(%esp)
    425f:	e8 5c 66 00 00       	call   a8c0 <usb_hc_unregister_endpoint>
    4264:	c9                   	leave  
    4265:	c3                   	ret    
    4266:	c7 44 24 08 4d 01 00 	movl   $0x14d,0x8(%esp)
    426d:	00 
    426e:	c7 44 24 04 86 fb 02 	movl   $0x2fb86,0x4(%esp)
    4275:	00 
    4276:	c7 04 24 af fc 02 00 	movl   $0x2fcaf,(%esp)
    427d:	e8 0e 6a 02 00       	call   2ac90 <assert_abort>
    4282:	c7 44 24 08 4e 01 00 	movl   $0x14e,0x8(%esp)
    4289:	00 
    428a:	c7 44 24 04 86 fb 02 	movl   $0x2fb86,0x4(%esp)
    4291:	00 
    4292:	c7 04 24 92 fb 02 00 	movl   $0x2fb92,(%esp)
    4299:	e8 f2 69 02 00       	call   2ac90 <assert_abort>
    429e:	66 90                	xchg   %ax,%ax

000042a0 <usb_pipe_initialize_from_configuration>:
    42a0:	55                   	push   %ebp
    42a1:	89 e5                	mov    %esp,%ebp
    42a3:	57                   	push   %edi
    42a4:	56                   	push   %esi
    42a5:	53                   	push   %ebx
    42a6:	83 ec 6c             	sub    $0x6c,%esp
    42a9:	8b 4d 18             	mov    0x18(%ebp),%ecx
    42ac:	8b 5d 14             	mov    0x14(%ebp),%ebx
    42af:	85 c9                	test   %ecx,%ecx
    42b1:	0f 84 7d 02 00 00    	je     4534 <usb_pipe_initialize_from_configuration+0x294>
    42b7:	8b 55 10             	mov    0x10(%ebp),%edx
    42ba:	85 d2                	test   %edx,%edx
    42bc:	0f 84 68 02 00 00    	je     452a <usb_pipe_initialize_from_configuration+0x28a>
    42c2:	83 fb 08             	cmp    $0x8,%ebx
    42c5:	0f 86 4d 02 00 00    	jbe    4518 <usb_pipe_initialize_from_configuration+0x278>
    42cb:	8b 45 0c             	mov    0xc(%ebp),%eax
    42ce:	85 c0                	test   %eax,%eax
    42d0:	74 27                	je     42f9 <usb_pipe_initialize_from_configuration+0x59>
    42d2:	8b 75 0c             	mov    0xc(%ebp),%esi
    42d5:	8b 45 08             	mov    0x8(%ebp),%eax
    42d8:	8d 14 76             	lea    (%esi,%esi,2),%edx
    42db:	c1 e2 04             	shl    $0x4,%edx
    42de:	01 c2                	add    %eax,%edx
    42e0:	c6 40 2c 00          	movb   $0x0,0x2c(%eax)
    42e4:	c7 40 24 00 00 00 00 	movl   $0x0,0x24(%eax)
    42eb:	c7 40 28 00 00 00 00 	movl   $0x0,0x28(%eax)
    42f2:	83 c0 30             	add    $0x30,%eax
    42f5:	39 d0                	cmp    %edx,%eax
    42f7:	75 e7                	jne    42e0 <usb_pipe_initialize_from_configuration+0x40>
    42f9:	8b 55 10             	mov    0x10(%ebp),%edx
    42fc:	8d 75 dc             	lea    -0x24(%ebp),%esi
    42ff:	8d 7d d8             	lea    -0x28(%ebp),%edi
    4302:	89 54 24 08          	mov    %edx,0x8(%esp)
    4306:	89 74 24 04          	mov    %esi,0x4(%esp)
    430a:	89 3c 24             	mov    %edi,(%esp)
    430d:	c7 45 d8 00 fc 02 00 	movl   $0x2fc00,-0x28(%ebp)
    4314:	89 55 dc             	mov    %edx,-0x24(%ebp)
    4317:	89 5d e0             	mov    %ebx,-0x20(%ebp)
    431a:	89 4d e4             	mov    %ecx,-0x1c(%ebp)
    431d:	e8 de 24 00 00       	call   6800 <usb_dp_get_nested_descriptor>
    4322:	85 c0                	test   %eax,%eax
    4324:	0f 84 f8 01 00 00    	je     4522 <usb_pipe_initialize_from_configuration+0x282>
    432a:	89 c6                	mov    %eax,%esi
    432c:	8d 74 26 00          	lea    0x0(%esi,%eiz,1),%esi
    4330:	8d 7d dc             	lea    -0x24(%ebp),%edi
    4333:	8d 45 d8             	lea    -0x28(%ebp),%eax
    4336:	89 7c 24 04          	mov    %edi,0x4(%esp)
    433a:	89 74 24 08          	mov    %esi,0x8(%esp)
    433e:	89 04 24             	mov    %eax,(%esp)
    4341:	e8 ba 24 00 00       	call   6800 <usb_dp_get_nested_descriptor>
    4346:	89 c7                	mov    %eax,%edi
    4348:	85 c0                	test   %eax,%eax
    434a:	74 30                	je     437c <usb_pipe_initialize_from_configuration+0xdc>
    434c:	89 75 d0             	mov    %esi,-0x30(%ebp)
    434f:	90                   	nop
    4350:	80 7f 01 05          	cmpb   $0x5,0x1(%edi)
    4354:	74 5a                	je     43b0 <usb_pipe_initialize_from_configuration+0x110>
    4356:	8b 45 d0             	mov    -0x30(%ebp),%eax
    4359:	8d 55 dc             	lea    -0x24(%ebp),%edx
    435c:	8d 75 d8             	lea    -0x28(%ebp),%esi
    435f:	89 7c 24 0c          	mov    %edi,0xc(%esp)
    4363:	89 44 24 08          	mov    %eax,0x8(%esp)
    4367:	89 54 24 04          	mov    %edx,0x4(%esp)
    436b:	89 34 24             	mov    %esi,(%esp)
    436e:	e8 ad 26 00 00       	call   6a20 <usb_dp_get_sibling_descriptor>
    4373:	89 c7                	mov    %eax,%edi
    4375:	85 c0                	test   %eax,%eax
    4377:	75 d7                	jne    4350 <usb_pipe_initialize_from_configuration+0xb0>
    4379:	8b 75 d0             	mov    -0x30(%ebp),%esi
    437c:	89 74 24 0c          	mov    %esi,0xc(%esp)
    4380:	8b 55 10             	mov    0x10(%ebp),%edx
    4383:	8d 75 dc             	lea    -0x24(%ebp),%esi
    4386:	8d 7d d8             	lea    -0x28(%ebp),%edi
    4389:	89 74 24 04          	mov    %esi,0x4(%esp)
    438d:	89 54 24 08          	mov    %edx,0x8(%esp)
    4391:	89 3c 24             	mov    %edi,(%esp)
    4394:	e8 87 26 00 00       	call   6a20 <usb_dp_get_sibling_descriptor>
    4399:	89 c6                	mov    %eax,%esi
    439b:	85 c0                	test   %eax,%eax
    439d:	75 91                	jne    4330 <usb_pipe_initialize_from_configuration+0x90>
    439f:	31 c0                	xor    %eax,%eax
    43a1:	83 c4 6c             	add    $0x6c,%esp
    43a4:	5b                   	pop    %ebx
    43a5:	5e                   	pop    %esi
    43a6:	5f                   	pop    %edi
    43a7:	5d                   	pop    %ebp
    43a8:	c3                   	ret    
    43a9:	8d b4 26 00 00 00 00 	lea    0x0(%esi,%eiz,1),%esi
    43b0:	8b 45 e4             	mov    -0x1c(%ebp),%eax
    43b3:	8b 75 0c             	mov    0xc(%ebp),%esi
    43b6:	89 45 bc             	mov    %eax,-0x44(%ebp)
    43b9:	8b 5d 08             	mov    0x8(%ebp),%ebx
    43bc:	0f be 47 02          	movsbl 0x2(%edi),%eax
    43c0:	88 c2                	mov    %al,%dl
    43c2:	89 c1                	mov    %eax,%ecx
    43c4:	83 e2 0f             	and    $0xf,%edx
    43c7:	31 c0                	xor    %eax,%eax
    43c9:	88 55 bb             	mov    %dl,-0x45(%ebp)
    43cc:	8a 57 03             	mov    0x3(%edi),%dl
    43cf:	83 e2 03             	and    $0x3,%edx
    43d2:	83 f1 ff             	xor    $0xffffffff,%ecx
    43d5:	c1 e9 1f             	shr    $0x1f,%ecx
    43d8:	89 55 c4             	mov    %edx,-0x3c(%ebp)
    43db:	8b 55 d0             	mov    -0x30(%ebp),%edx
    43de:	8a 42 05             	mov    0x5(%edx),%al
    43e1:	89 45 c0             	mov    %eax,-0x40(%ebp)
    43e4:	31 c0                	xor    %eax,%eax
    43e6:	8a 42 06             	mov    0x6(%edx),%al
    43e9:	89 45 b4             	mov    %eax,-0x4c(%ebp)
    43ec:	31 c0                	xor    %eax,%eax
    43ee:	8a 42 07             	mov    0x7(%edx),%al
    43f1:	89 45 ac             	mov    %eax,-0x54(%ebp)
    43f4:	31 c0                	xor    %eax,%eax
    43f6:	8a 42 03             	mov    0x3(%edx),%al
    43f9:	89 45 cc             	mov    %eax,-0x34(%ebp)
    43fc:	31 c0                	xor    %eax,%eax
    43fe:	8a 42 02             	mov    0x2(%edx),%al
    4401:	85 f6                	test   %esi,%esi
    4403:	89 45 c8             	mov    %eax,-0x38(%ebp)
    4406:	0f 84 4a ff ff ff    	je     4356 <usb_pipe_initialize_from_configuration+0xb6>
    440c:	89 7d b0             	mov    %edi,-0x50(%ebp)
    440f:	eb 11                	jmp    4422 <usb_pipe_initialize_from_configuration+0x182>
    4411:	8d b4 26 00 00 00 00 	lea    0x0(%esi,%eiz,1),%esi
    4418:	83 c3 30             	add    $0x30,%ebx
    441b:	4e                   	dec    %esi
    441c:	0f 84 ee 00 00 00    	je     4510 <usb_pipe_initialize_from_configuration+0x270>
    4422:	8b 43 1c             	mov    0x1c(%ebx),%eax
    4425:	85 c0                	test   %eax,%eax
    4427:	0f 88 d3 00 00 00    	js     4500 <usb_pipe_initialize_from_configuration+0x260>
    442d:	39 45 c8             	cmp    %eax,-0x38(%ebp)
    4430:	0f 94 c2             	sete   %dl
    4433:	81 e2 ff 00 00 00    	and    $0xff,%edx
    4439:	8b 43 20             	mov    0x20(%ebx),%eax
    443c:	85 c0                	test   %eax,%eax
    443e:	0f 88 ac 00 00 00    	js     44f0 <usb_pipe_initialize_from_configuration+0x250>
    4444:	39 45 cc             	cmp    %eax,-0x34(%ebp)
    4447:	0f 94 c0             	sete   %al
    444a:	25 ff 00 00 00       	and    $0xff,%eax
    444f:	89 45 d4             	mov    %eax,-0x2c(%ebp)
    4452:	8b 43 18             	mov    0x18(%ebx),%eax
    4455:	3b 48 04             	cmp    0x4(%eax),%ecx
    4458:	75 be                	jne    4418 <usb_pipe_initialize_from_configuration+0x178>
    445a:	8b 7d c4             	mov    -0x3c(%ebp),%edi
    445d:	3b 38                	cmp    (%eax),%edi
    445f:	75 b7                	jne    4418 <usb_pipe_initialize_from_configuration+0x178>
    4461:	8b 78 08             	mov    0x8(%eax),%edi
    4464:	85 ff                	test   %edi,%edi
    4466:	78 05                	js     446d <usb_pipe_initialize_from_configuration+0x1cd>
    4468:	39 7d c0             	cmp    %edi,-0x40(%ebp)
    446b:	75 ab                	jne    4418 <usb_pipe_initialize_from_configuration+0x178>
    446d:	8b 78 0c             	mov    0xc(%eax),%edi
    4470:	85 ff                	test   %edi,%edi
    4472:	78 05                	js     4479 <usb_pipe_initialize_from_configuration+0x1d9>
    4474:	39 7d b4             	cmp    %edi,-0x4c(%ebp)
    4477:	75 9f                	jne    4418 <usb_pipe_initialize_from_configuration+0x178>
    4479:	8b 40 10             	mov    0x10(%eax),%eax
    447c:	85 c0                	test   %eax,%eax
    447e:	78 05                	js     4485 <usb_pipe_initialize_from_configuration+0x1e5>
    4480:	39 45 ac             	cmp    %eax,-0x54(%ebp)
    4483:	75 93                	jne    4418 <usb_pipe_initialize_from_configuration+0x178>
    4485:	85 55 d4             	test   %edx,-0x2c(%ebp)
    4488:	74 8e                	je     4418 <usb_pipe_initialize_from_configuration+0x178>
    448a:	8b 7d b0             	mov    -0x50(%ebp),%edi
    448d:	85 db                	test   %ebx,%ebx
    448f:	0f 84 c1 fe ff ff    	je     4356 <usb_pipe_initialize_from_configuration+0xb6>
    4495:	80 7b 2c 00          	cmpb   $0x0,0x2c(%ebx)
    4499:	0f 85 b7 fe ff ff    	jne    4356 <usb_pipe_initialize_from_configuration+0xb6>
    449f:	89 4c 24 14          	mov    %ecx,0x14(%esp)
    44a3:	8b 55 bc             	mov    -0x44(%ebp),%edx
    44a6:	66 8b 47 04          	mov    0x4(%edi),%ax
    44aa:	89 54 24 04          	mov    %edx,0x4(%esp)
    44ae:	25 ff ff 00 00       	and    $0xffff,%eax
    44b3:	89 1c 24             	mov    %ebx,(%esp)
    44b6:	89 44 24 10          	mov    %eax,0x10(%esp)
    44ba:	8b 45 c4             	mov    -0x3c(%ebp),%eax
    44bd:	89 44 24 0c          	mov    %eax,0xc(%esp)
    44c1:	31 c0                	xor    %eax,%eax
    44c3:	8a 45 bb             	mov    -0x45(%ebp),%al
    44c6:	89 44 24 08          	mov    %eax,0x8(%esp)
    44ca:	e8 e1 fb ff ff       	call   40b0 <usb_pipe_initialize>
    44cf:	85 c0                	test   %eax,%eax
    44d1:	0f 85 7f fe ff ff    	jne    4356 <usb_pipe_initialize_from_configuration+0xb6>
    44d7:	8b 45 d0             	mov    -0x30(%ebp),%eax
    44da:	c6 43 2c 01          	movb   $0x1,0x2c(%ebx)
    44de:	89 7b 24             	mov    %edi,0x24(%ebx)
    44e1:	89 43 28             	mov    %eax,0x28(%ebx)
    44e4:	e9 6d fe ff ff       	jmp    4356 <usb_pipe_initialize_from_configuration+0xb6>
    44e9:	8d b4 26 00 00 00 00 	lea    0x0(%esi,%eiz,1),%esi
    44f0:	c7 45 d4 01 00 00 00 	movl   $0x1,-0x2c(%ebp)
    44f7:	e9 56 ff ff ff       	jmp    4452 <usb_pipe_initialize_from_configuration+0x1b2>
    44fc:	8d 74 26 00          	lea    0x0(%esi,%eiz,1),%esi
    4500:	ba 01 00 00 00       	mov    $0x1,%edx
    4505:	e9 2f ff ff ff       	jmp    4439 <usb_pipe_initialize_from_configuration+0x199>
    450a:	8d b6 00 00 00 00    	lea    0x0(%esi),%esi
    4510:	8b 7d b0             	mov    -0x50(%ebp),%edi
    4513:	e9 3e fe ff ff       	jmp    4356 <usb_pipe_initialize_from_configuration+0xb6>
    4518:	b8 f9 fe ff ff       	mov    $0xfffffef9,%eax
    451d:	e9 7f fe ff ff       	jmp    43a1 <usb_pipe_initialize_from_configuration+0x101>
    4522:	83 c8 ff             	or     $0xffffffff,%eax
    4525:	e9 77 fe ff ff       	jmp    43a1 <usb_pipe_initialize_from_configuration+0x101>
    452a:	b8 f6 ff ff ff       	mov    $0xfffffff6,%eax
    452f:	e9 6d fe ff ff       	jmp    43a1 <usb_pipe_initialize_from_configuration+0x101>
    4534:	c7 44 24 08 1c 01 00 	movl   $0x11c,0x8(%esp)
    453b:	00 
    453c:	c7 44 24 04 e8 fb 02 	movl   $0x2fbe8,0x4(%esp)
    4543:	00 
    4544:	c7 04 24 65 0c 03 00 	movl   $0x30c65,(%esp)
    454b:	e8 40 67 02 00       	call   2ac90 <assert_abort>

00004550 <usb_pipe_probe_default_control>:
    4550:	55                   	push   %ebp
    4551:	89 e5                	mov    %esp,%ebp
    4553:	57                   	push   %edi
    4554:	56                   	push   %esi
    4555:	53                   	push   %ebx
    4556:	83 ec 4c             	sub    $0x4c,%esp
    4559:	8b 5d 08             	mov    0x8(%ebp),%ebx
    455c:	85 db                	test   %ebx,%ebx
    455e:	0f 84 5b 01 00 00    	je     46bf <usb_pipe_probe_default_control+0x16f>
    4564:	83 7b 0c 02          	cmpl   $0x2,0xc(%ebx)
    4568:	0f 85 42 01 00 00    	jne    46b0 <usb_pipe_probe_default_control+0x160>
    456e:	8b 4b 08             	mov    0x8(%ebx),%ecx
    4571:	85 c9                	test   %ecx,%ecx
    4573:	0f 85 37 01 00 00    	jne    46b0 <usb_pipe_probe_default_control+0x160>
    4579:	66 83 7b 04 00       	cmpw   $0x0,0x4(%ebx)
    457e:	0f 85 2c 01 00 00    	jne    46b0 <usb_pipe_probe_default_control+0x160>
    4584:	89 1c 24             	mov    %ebx,(%esp)
    4587:	8d 7d dc             	lea    -0x24(%ebp),%edi
    458a:	8d 75 e0             	lea    -0x20(%ebp),%esi
    458d:	e8 6e f5 ff ff       	call   3b00 <usb_pipe_start_long_transfer>
    4592:	89 7c 24 20          	mov    %edi,0x20(%esp)
    4596:	c7 44 24 1c 08 00 00 	movl   $0x8,0x1c(%esp)
    459d:	00 
    459e:	89 74 24 18          	mov    %esi,0x18(%esp)
    45a2:	c7 44 24 14 00 00 00 	movl   $0x0,0x14(%esp)
    45a9:	00 
    45aa:	c7 44 24 10 00 00 00 	movl   $0x0,0x10(%esp)
    45b1:	00 
    45b2:	c7 44 24 0c 01 00 00 	movl   $0x1,0xc(%esp)
    45b9:	00 
    45ba:	c7 44 24 08 00 00 00 	movl   $0x0,0x8(%esp)
    45c1:	00 
    45c2:	c7 44 24 04 00 00 00 	movl   $0x0,0x4(%esp)
    45c9:	00 
    45ca:	89 1c 24             	mov    %ebx,(%esp)
    45cd:	e8 9e 15 00 00       	call   5b70 <usb_request_get_descriptor>
    45d2:	85 c0                	test   %eax,%eax
    45d4:	75 0a                	jne    45e0 <usb_pipe_probe_default_control+0x90>
    45d6:	83 7d dc 08          	cmpl   $0x8,-0x24(%ebp)
    45da:	0f 84 b0 00 00 00    	je     4690 <usb_pipe_probe_default_control+0x140>
    45e0:	89 7c 24 20          	mov    %edi,0x20(%esp)
    45e4:	c7 44 24 1c 08 00 00 	movl   $0x8,0x1c(%esp)
    45eb:	00 
    45ec:	89 74 24 18          	mov    %esi,0x18(%esp)
    45f0:	c7 44 24 14 00 00 00 	movl   $0x0,0x14(%esp)
    45f7:	00 
    45f8:	c7 44 24 10 00 00 00 	movl   $0x0,0x10(%esp)
    45ff:	00 
    4600:	c7 44 24 0c 01 00 00 	movl   $0x1,0xc(%esp)
    4607:	00 
    4608:	c7 44 24 08 00 00 00 	movl   $0x0,0x8(%esp)
    460f:	00 
    4610:	c7 44 24 04 00 00 00 	movl   $0x0,0x4(%esp)
    4617:	00 
    4618:	89 1c 24             	mov    %ebx,(%esp)
    461b:	e8 50 15 00 00       	call   5b70 <usb_request_get_descriptor>
    4620:	85 c0                	test   %eax,%eax
    4622:	75 06                	jne    462a <usb_pipe_probe_default_control+0xda>
    4624:	83 7d dc 08          	cmpl   $0x8,-0x24(%ebp)
    4628:	74 66                	je     4690 <usb_pipe_probe_default_control+0x140>
    462a:	89 74 24 18          	mov    %esi,0x18(%esp)
    462e:	89 7c 24 20          	mov    %edi,0x20(%esp)
    4632:	c7 44 24 1c 08 00 00 	movl   $0x8,0x1c(%esp)
    4639:	00 
    463a:	c7 44 24 14 00 00 00 	movl   $0x0,0x14(%esp)
    4641:	00 
    4642:	c7 44 24 10 00 00 00 	movl   $0x0,0x10(%esp)
    4649:	00 
    464a:	c7 44 24 0c 01 00 00 	movl   $0x1,0xc(%esp)
    4651:	00 
    4652:	c7 44 24 08 00 00 00 	movl   $0x0,0x8(%esp)
    4659:	00 
    465a:	c7 44 24 04 00 00 00 	movl   $0x0,0x4(%esp)
    4661:	00 
    4662:	89 1c 24             	mov    %ebx,(%esp)
    4665:	e8 06 15 00 00       	call   5b70 <usb_request_get_descriptor>
    466a:	89 c6                	mov    %eax,%esi
    466c:	85 c0                	test   %eax,%eax
    466e:	75 0b                	jne    467b <usb_pipe_probe_default_control+0x12b>
    4670:	83 7d dc 08          	cmpl   $0x8,-0x24(%ebp)
    4674:	74 1a                	je     4690 <usb_pipe_probe_default_control+0x140>
    4676:	be fd ff ff ff       	mov    $0xfffffffd,%esi
    467b:	89 1c 24             	mov    %ebx,(%esp)
    467e:	e8 fd f4 ff ff       	call   3b80 <usb_pipe_end_long_transfer>
    4683:	83 c4 4c             	add    $0x4c,%esp
    4686:	89 f0                	mov    %esi,%eax
    4688:	5b                   	pop    %ebx
    4689:	5e                   	pop    %esi
    468a:	5f                   	pop    %edi
    468b:	5d                   	pop    %ebp
    468c:	c3                   	ret    
    468d:	8d 76 00             	lea    0x0(%esi),%esi
    4690:	89 1c 24             	mov    %ebx,(%esp)
    4693:	31 f6                	xor    %esi,%esi
    4695:	e8 e6 f4 ff ff       	call   3b80 <usb_pipe_end_long_transfer>
    469a:	31 c0                	xor    %eax,%eax
    469c:	8a 45 e7             	mov    -0x19(%ebp),%al
    469f:	89 43 10             	mov    %eax,0x10(%ebx)
    46a2:	83 c4 4c             	add    $0x4c,%esp
    46a5:	89 f0                	mov    %esi,%eax
    46a7:	5b                   	pop    %ebx
    46a8:	5e                   	pop    %esi
    46a9:	5f                   	pop    %edi
    46aa:	5d                   	pop    %ebp
    46ab:	c3                   	ret    
    46ac:	8d 74 26 00          	lea    0x0(%esi,%eiz,1),%esi
    46b0:	83 c4 4c             	add    $0x4c,%esp
    46b3:	be f2 ff ff ff       	mov    $0xfffffff2,%esi
    46b8:	89 f0                	mov    %esi,%eax
    46ba:	5b                   	pop    %ebx
    46bb:	5e                   	pop    %esi
    46bc:	5f                   	pop    %edi
    46bd:	5d                   	pop    %ebp
    46be:	c3                   	ret    
    46bf:	c7 44 24 08 55 01 00 	movl   $0x155,0x8(%esp)
    46c6:	00 
    46c7:	c7 44 24 04 e8 fb 02 	movl   $0x2fbe8,0x4(%esp)
    46ce:	00 
    46cf:	c7 04 24 af fc 02 00 	movl   $0x2fcaf,(%esp)
    46d6:	e8 b5 65 02 00       	call   2ac90 <assert_abort>
    46db:	66 90                	xchg   %ax,%ax
    46dd:	66 90                	xchg   %ax,%ax
    46df:	90                   	nop

000046e0 <usb_device_create_match_ids_from_interface>:
    46e0:	55                   	push   %ebp
    46e1:	89 e5                	mov    %esp,%ebp
    46e3:	57                   	push   %edi
    46e4:	56                   	push   %esi
    46e5:	53                   	push   %ebx
    46e6:	83 ec 5c             	sub    $0x5c,%esp
    46e9:	8b 5d 10             	mov    0x10(%ebp),%ebx
    46ec:	8b 75 08             	mov    0x8(%ebp),%esi
    46ef:	85 db                	test   %ebx,%ebx
    46f1:	0f 84 09 0a 00 00    	je     5100 <usb_device_create_match_ids_from_interface+0xa20>
    46f7:	8b 45 0c             	mov    0xc(%ebp),%eax
    46fa:	85 c0                	test   %eax,%eax
    46fc:	0f 84 fe 09 00 00    	je     5100 <usb_device_create_match_ids_from_interface+0xa20>
    4702:	8b 55 0c             	mov    0xc(%ebp),%edx
    4705:	8a 42 05             	mov    0x5(%edx),%al
    4708:	84 c0                	test   %al,%al
    470a:	0f 84 d8 09 00 00    	je     50e8 <usb_device_create_match_ids_from_interface+0xa08>
    4710:	25 ff 00 00 00       	and    $0xff,%eax
    4715:	89 04 24             	mov    %eax,(%esp)
    4718:	e8 93 4d 00 00       	call   94b0 <usb_str_class>
    471d:	89 c7                	mov    %eax,%edi
    471f:	85 c0                	test   %eax,%eax
    4721:	0f 84 31 0a 00 00    	je     5158 <usb_device_create_match_ids_from_interface+0xa78>
    4727:	85 f6                	test   %esi,%esi
    4729:	0f 84 c1 09 00 00    	je     50f0 <usb_device_create_match_ids_from_interface+0xa10>
    472f:	66 8b 46 08          	mov    0x8(%esi),%ax
    4733:	8d 55 e4             	lea    -0x1c(%ebp),%edx
    4736:	66 85 c0             	test   %ax,%ax
    4739:	89 55 d0             	mov    %edx,-0x30(%ebp)
    473c:	0f 85 a6 02 00 00    	jne    49e8 <usb_device_create_match_ids_from_interface+0x308>
    4742:	8b 55 0c             	mov    0xc(%ebp),%edx
    4745:	31 c0                	xor    %eax,%eax
    4747:	8b 4d d0             	mov    -0x30(%ebp),%ecx
    474a:	c7 45 e4 00 00 00 00 	movl   $0x0,-0x1c(%ebp)
    4751:	8a 42 07             	mov    0x7(%edx),%al
    4754:	89 44 24 10          	mov    %eax,0x10(%esp)
    4758:	31 c0                	xor    %eax,%eax
    475a:	8a 42 06             	mov    0x6(%edx),%al
    475d:	89 7c 24 08          	mov    %edi,0x8(%esp)
    4761:	89 44 24 0c          	mov    %eax,0xc(%esp)
    4765:	c7 44 24 04 34 ff 02 	movl   $0x2ff34,0x4(%esp)
    476c:	00 
    476d:	89 0c 24             	mov    %ecx,(%esp)
    4770:	e8 2b 44 01 00       	call   18ba0 <asprintf>
    4775:	83 f8 00             	cmp    $0x0,%eax
    4778:	0f 8e 1a 02 00 00    	jle    4998 <usb_device_create_match_ids_from_interface+0x2b8>
    477e:	8b 55 e4             	mov    -0x1c(%ebp),%edx
    4781:	c7 04 24 10 00 00 00 	movl   $0x10,(%esp)
    4788:	89 55 cc             	mov    %edx,-0x34(%ebp)
    478b:	e8 a0 bc 01 00       	call   20430 <malloc>
    4790:	c7 44 24 08 10 00 00 	movl   $0x10,0x8(%esp)
    4797:	00 
    4798:	89 c6                	mov    %eax,%esi
    479a:	c7 44 24 04 00 00 00 	movl   $0x0,0x4(%esp)
    47a1:	00 
    47a2:	89 04 24             	mov    %eax,(%esp)
    47a5:	e8 a6 e6 00 00       	call   12e50 <memset>
    47aa:	85 f6                	test   %esi,%esi
    47ac:	8b 55 cc             	mov    -0x34(%ebp),%edx
    47af:	0f 84 81 09 00 00    	je     5136 <usb_device_create_match_ids_from_interface+0xa56>
    47b5:	89 56 08             	mov    %edx,0x8(%esi)
    47b8:	8b 53 04             	mov    0x4(%ebx),%edx
    47bb:	c7 46 0c a0 00 00 00 	movl   $0xa0,0xc(%esi)
    47c2:	39 d3                	cmp    %edx,%ebx
    47c4:	75 09                	jne    47cf <usb_device_create_match_ids_from_interface+0xef>
    47c6:	eb 10                	jmp    47d8 <usb_device_create_match_ids_from_interface+0xf8>
    47c8:	8b 52 04             	mov    0x4(%edx),%edx
    47cb:	39 d3                	cmp    %edx,%ebx
    47cd:	74 09                	je     47d8 <usb_device_create_match_ids_from_interface+0xf8>
    47cf:	81 7a 0c 9f 00 00 00 	cmpl   $0x9f,0xc(%edx)
    47d6:	77 f0                	ja     47c8 <usb_device_create_match_ids_from_interface+0xe8>
    47d8:	8b 02                	mov    (%edx),%eax
    47da:	89 56 04             	mov    %edx,0x4(%esi)
    47dd:	89 06                	mov    %eax,(%esi)
    47df:	8b 02                	mov    (%edx),%eax
    47e1:	89 32                	mov    %esi,(%edx)
    47e3:	89 70 04             	mov    %esi,0x4(%eax)
    47e6:	8b 55 0c             	mov    0xc(%ebp),%edx
    47e9:	31 c0                	xor    %eax,%eax
    47eb:	8b 4d d0             	mov    -0x30(%ebp),%ecx
    47ee:	c7 45 e4 00 00 00 00 	movl   $0x0,-0x1c(%ebp)
    47f5:	8a 42 06             	mov    0x6(%edx),%al
    47f8:	89 7c 24 08          	mov    %edi,0x8(%esp)
    47fc:	89 44 24 0c          	mov    %eax,0xc(%esp)
    4800:	c7 44 24 04 6c ff 02 	movl   $0x2ff6c,0x4(%esp)
    4807:	00 
    4808:	89 0c 24             	mov    %ecx,(%esp)
    480b:	e8 90 43 01 00       	call   18ba0 <asprintf>
    4810:	83 f8 00             	cmp    $0x0,%eax
    4813:	0f 8e c7 01 00 00    	jle    49e0 <usb_device_create_match_ids_from_interface+0x300>
    4819:	8b 55 e4             	mov    -0x1c(%ebp),%edx
    481c:	c7 04 24 10 00 00 00 	movl   $0x10,(%esp)
    4823:	89 55 d4             	mov    %edx,-0x2c(%ebp)
    4826:	e8 05 bc 01 00       	call   20430 <malloc>
    482b:	c7 44 24 08 10 00 00 	movl   $0x10,0x8(%esp)
    4832:	00 
    4833:	89 c6                	mov    %eax,%esi
    4835:	c7 44 24 04 00 00 00 	movl   $0x0,0x4(%esp)
    483c:	00 
    483d:	89 04 24             	mov    %eax,(%esp)
    4840:	e8 0b e6 00 00       	call   12e50 <memset>
    4845:	85 f6                	test   %esi,%esi
    4847:	0f 84 e9 08 00 00    	je     5136 <usb_device_create_match_ids_from_interface+0xa56>
    484d:	8b 4d d4             	mov    -0x2c(%ebp),%ecx
    4850:	8b 53 04             	mov    0x4(%ebx),%edx
    4853:	89 4e 08             	mov    %ecx,0x8(%esi)
    4856:	c7 46 0c 96 00 00 00 	movl   $0x96,0xc(%esi)
    485d:	39 d3                	cmp    %edx,%ebx
    485f:	0f 85 5e 01 00 00    	jne    49c3 <usb_device_create_match_ids_from_interface+0x2e3>
    4865:	8d 76 00             	lea    0x0(%esi),%esi
    4868:	8b 02                	mov    (%edx),%eax
    486a:	89 56 04             	mov    %edx,0x4(%esi)
    486d:	89 06                	mov    %eax,(%esi)
    486f:	8b 02                	mov    (%edx),%eax
    4871:	89 32                	mov    %esi,(%edx)
    4873:	89 70 04             	mov    %esi,0x4(%eax)
    4876:	8b 55 d0             	mov    -0x30(%ebp),%edx
    4879:	89 7c 24 08          	mov    %edi,0x8(%esp)
    487d:	c7 44 24 04 52 fc 02 	movl   $0x2fc52,0x4(%esp)
    4884:	00 
    4885:	89 14 24             	mov    %edx,(%esp)
    4888:	c7 45 e4 00 00 00 00 	movl   $0x0,-0x1c(%ebp)
    488f:	e8 0c 43 01 00       	call   18ba0 <asprintf>
    4894:	83 f8 00             	cmp    $0x0,%eax
    4897:	0f 8e 3b 01 00 00    	jle    49d8 <usb_device_create_match_ids_from_interface+0x2f8>
    489d:	c7 04 24 10 00 00 00 	movl   $0x10,(%esp)
    48a4:	8b 75 e4             	mov    -0x1c(%ebp),%esi
    48a7:	e8 84 bb 01 00       	call   20430 <malloc>
    48ac:	c7 44 24 08 10 00 00 	movl   $0x10,0x8(%esp)
    48b3:	00 
    48b4:	89 c7                	mov    %eax,%edi
    48b6:	c7 44 24 04 00 00 00 	movl   $0x0,0x4(%esp)
    48bd:	00 
    48be:	89 04 24             	mov    %eax,(%esp)
    48c1:	e8 8a e5 00 00       	call   12e50 <memset>
    48c6:	85 ff                	test   %edi,%edi
    48c8:	0f 84 68 08 00 00    	je     5136 <usb_device_create_match_ids_from_interface+0xa56>
    48ce:	8b 53 04             	mov    0x4(%ebx),%edx
    48d1:	89 77 08             	mov    %esi,0x8(%edi)
    48d4:	c7 47 0c 8c 00 00 00 	movl   $0x8c,0xc(%edi)
    48db:	39 d3                	cmp    %edx,%ebx
    48dd:	75 10                	jne    48ef <usb_device_create_match_ids_from_interface+0x20f>
    48df:	eb 17                	jmp    48f8 <usb_device_create_match_ids_from_interface+0x218>
    48e1:	8d b4 26 00 00 00 00 	lea    0x0(%esi,%eiz,1),%esi
    48e8:	8b 52 04             	mov    0x4(%edx),%edx
    48eb:	39 d3                	cmp    %edx,%ebx
    48ed:	74 09                	je     48f8 <usb_device_create_match_ids_from_interface+0x218>
    48ef:	81 7a 0c 8b 00 00 00 	cmpl   $0x8b,0xc(%edx)
    48f6:	77 f0                	ja     48e8 <usb_device_create_match_ids_from_interface+0x208>
    48f8:	8b 02                	mov    (%edx),%eax
    48fa:	89 57 04             	mov    %edx,0x4(%edi)
    48fd:	89 07                	mov    %eax,(%edi)
    48ff:	8b 02                	mov    (%edx),%eax
    4901:	89 3a                	mov    %edi,(%edx)
    4903:	89 78 04             	mov    %edi,0x4(%eax)
    4906:	8b 4d d0             	mov    -0x30(%ebp),%ecx
    4909:	c7 44 24 04 69 fc 02 	movl   $0x2fc69,0x4(%esp)
    4910:	00 
    4911:	89 0c 24             	mov    %ecx,(%esp)
    4914:	c7 45 e4 00 00 00 00 	movl   $0x0,-0x1c(%ebp)
    491b:	e8 80 42 01 00       	call   18ba0 <asprintf>
    4920:	83 f8 00             	cmp    $0x0,%eax
    4923:	0f 8e 9f 07 00 00    	jle    50c8 <usb_device_create_match_ids_from_interface+0x9e8>
    4929:	c7 04 24 10 00 00 00 	movl   $0x10,(%esp)
    4930:	8b 7d e4             	mov    -0x1c(%ebp),%edi
    4933:	e8 f8 ba 01 00       	call   20430 <malloc>
    4938:	c7 44 24 08 10 00 00 	movl   $0x10,0x8(%esp)
    493f:	00 
    4940:	89 c6                	mov    %eax,%esi
    4942:	c7 44 24 04 00 00 00 	movl   $0x0,0x4(%esp)
    4949:	00 
    494a:	89 04 24             	mov    %eax,(%esp)
    494d:	e8 fe e4 00 00       	call   12e50 <memset>
    4952:	85 f6                	test   %esi,%esi
    4954:	0f 84 dc 07 00 00    	je     5136 <usb_device_create_match_ids_from_interface+0xa56>
    495a:	8b 53 04             	mov    0x4(%ebx),%edx
    495d:	89 7e 08             	mov    %edi,0x8(%esi)
    4960:	c7 46 0c 0a 00 00 00 	movl   $0xa,0xc(%esi)
    4967:	39 d3                	cmp    %edx,%ebx
    4969:	75 0c                	jne    4977 <usb_device_create_match_ids_from_interface+0x297>
    496b:	eb 10                	jmp    497d <usb_device_create_match_ids_from_interface+0x29d>
    496d:	8d 76 00             	lea    0x0(%esi),%esi
    4970:	8b 52 04             	mov    0x4(%edx),%edx
    4973:	39 d3                	cmp    %edx,%ebx
    4975:	74 06                	je     497d <usb_device_create_match_ids_from_interface+0x29d>
    4977:	83 7a 0c 09          	cmpl   $0x9,0xc(%edx)
    497b:	77 f3                	ja     4970 <usb_device_create_match_ids_from_interface+0x290>
    497d:	8b 02                	mov    (%edx),%eax
    497f:	89 56 04             	mov    %edx,0x4(%esi)
    4982:	89 06                	mov    %eax,(%esi)
    4984:	8b 02                	mov    (%edx),%eax
    4986:	89 32                	mov    %esi,(%edx)
    4988:	89 70 04             	mov    %esi,0x4(%eax)
    498b:	31 c0                	xor    %eax,%eax
    498d:	83 c4 5c             	add    $0x5c,%esp
    4990:	5b                   	pop    %ebx
    4991:	5e                   	pop    %esi
    4992:	5f                   	pop    %edi
    4993:	5d                   	pop    %ebp
    4994:	c3                   	ret    
    4995:	8d 76 00             	lea    0x0(%esi),%esi
    4998:	0f 84 48 fe ff ff    	je     47e6 <usb_device_create_match_ids_from_interface+0x106>
    499e:	8b 55 e4             	mov    -0x1c(%ebp),%edx
    49a1:	89 45 cc             	mov    %eax,-0x34(%ebp)
    49a4:	89 14 24             	mov    %edx,(%esp)
    49a7:	e8 94 bb 01 00       	call   20540 <free>
    49ac:	8b 45 cc             	mov    -0x34(%ebp),%eax
    49af:	83 c4 5c             	add    $0x5c,%esp
    49b2:	5b                   	pop    %ebx
    49b3:	5e                   	pop    %esi
    49b4:	5f                   	pop    %edi
    49b5:	5d                   	pop    %ebp
    49b6:	c3                   	ret    
    49b7:	90                   	nop
    49b8:	8b 52 04             	mov    0x4(%edx),%edx
    49bb:	39 d3                	cmp    %edx,%ebx
    49bd:	0f 84 a5 fe ff ff    	je     4868 <usb_device_create_match_ids_from_interface+0x188>
    49c3:	81 7a 0c 95 00 00 00 	cmpl   $0x95,0xc(%edx)
    49ca:	77 ec                	ja     49b8 <usb_device_create_match_ids_from_interface+0x2d8>
    49cc:	e9 97 fe ff ff       	jmp    4868 <usb_device_create_match_ids_from_interface+0x188>
    49d1:	8d b4 26 00 00 00 00 	lea    0x0(%esi,%eiz,1),%esi
    49d8:	0f 84 28 ff ff ff    	je     4906 <usb_device_create_match_ids_from_interface+0x226>
    49de:	eb be                	jmp    499e <usb_device_create_match_ids_from_interface+0x2be>
    49e0:	0f 84 90 fe ff ff    	je     4876 <usb_device_create_match_ids_from_interface+0x196>
    49e6:	eb b6                	jmp    499e <usb_device_create_match_ids_from_interface+0x2be>
    49e8:	8b 4d 0c             	mov    0xc(%ebp),%ecx
    49eb:	31 d2                	xor    %edx,%edx
    49ed:	25 ff ff 00 00       	and    $0xffff,%eax
    49f2:	c7 45 e4 00 00 00 00 	movl   $0x0,-0x1c(%ebp)
    49f9:	8a 51 07             	mov    0x7(%ecx),%dl
    49fc:	89 54 24 20          	mov    %edx,0x20(%esp)
    4a00:	31 d2                	xor    %edx,%edx
    4a02:	8a 51 06             	mov    0x6(%ecx),%dl
    4a05:	89 7c 24 18          	mov    %edi,0x18(%esp)
    4a09:	89 54 24 1c          	mov    %edx,0x1c(%esp)
    4a0d:	31 d2                	xor    %edx,%edx
    4a0f:	8a 56 0c             	mov    0xc(%esi),%dl
    4a12:	89 54 24 14          	mov    %edx,0x14(%esp)
    4a16:	66 8b 4e 0c          	mov    0xc(%esi),%cx
    4a1a:	0f b6 d5             	movzbl %ch,%edx
    4a1d:	89 54 24 10          	mov    %edx,0x10(%esp)
    4a21:	66 8b 56 0a          	mov    0xa(%esi),%dx
    4a25:	89 44 24 08          	mov    %eax,0x8(%esp)
    4a29:	81 e2 ff ff 00 00    	and    $0xffff,%edx
    4a2f:	c7 44 24 04 c4 fc 02 	movl   $0x2fcc4,0x4(%esp)
    4a36:	00 
    4a37:	89 54 24 0c          	mov    %edx,0xc(%esp)
    4a3b:	8b 55 d0             	mov    -0x30(%ebp),%edx
    4a3e:	89 14 24             	mov    %edx,(%esp)
    4a41:	e8 5a 41 01 00       	call   18ba0 <asprintf>
    4a46:	83 f8 00             	cmp    $0x0,%eax
    4a49:	0f 8e 09 02 00 00    	jle    4c58 <usb_device_create_match_ids_from_interface+0x578>
    4a4f:	8b 55 e4             	mov    -0x1c(%ebp),%edx
    4a52:	c7 04 24 10 00 00 00 	movl   $0x10,(%esp)
    4a59:	89 55 cc             	mov    %edx,-0x34(%ebp)
    4a5c:	e8 cf b9 01 00       	call   20430 <malloc>
    4a61:	c7 44 24 08 10 00 00 	movl   $0x10,0x8(%esp)
    4a68:	00 
    4a69:	c7 44 24 04 00 00 00 	movl   $0x0,0x4(%esp)
    4a70:	00 
    4a71:	89 04 24             	mov    %eax,(%esp)
    4a74:	89 45 c8             	mov    %eax,-0x38(%ebp)
    4a77:	e8 d4 e3 00 00       	call   12e50 <memset>
    4a7c:	8b 4d c8             	mov    -0x38(%ebp),%ecx
    4a7f:	85 c9                	test   %ecx,%ecx
    4a81:	8b 55 cc             	mov    -0x34(%ebp),%edx
    4a84:	0f 84 ac 06 00 00    	je     5136 <usb_device_create_match_ids_from_interface+0xa56>
    4a8a:	89 51 08             	mov    %edx,0x8(%ecx)
    4a8d:	8b 53 04             	mov    0x4(%ebx),%edx
    4a90:	c7 41 0c fa 00 00 00 	movl   $0xfa,0xc(%ecx)
    4a97:	39 da                	cmp    %ebx,%edx
    4a99:	75 0c                	jne    4aa7 <usb_device_create_match_ids_from_interface+0x3c7>
    4a9b:	eb 13                	jmp    4ab0 <usb_device_create_match_ids_from_interface+0x3d0>
    4a9d:	8d 76 00             	lea    0x0(%esi),%esi
    4aa0:	8b 52 04             	mov    0x4(%edx),%edx
    4aa3:	39 da                	cmp    %ebx,%edx
    4aa5:	74 09                	je     4ab0 <usb_device_create_match_ids_from_interface+0x3d0>
    4aa7:	81 7a 0c f9 00 00 00 	cmpl   $0xf9,0xc(%edx)
    4aae:	77 f0                	ja     4aa0 <usb_device_create_match_ids_from_interface+0x3c0>
    4ab0:	8b 02                	mov    (%edx),%eax
    4ab2:	89 51 04             	mov    %edx,0x4(%ecx)
    4ab5:	89 01                	mov    %eax,(%ecx)
    4ab7:	8b 02                	mov    (%edx),%eax
    4ab9:	89 0a                	mov    %ecx,(%edx)
    4abb:	89 48 04             	mov    %ecx,0x4(%eax)
    4abe:	8b 4d 0c             	mov    0xc(%ebp),%ecx
    4ac1:	31 c0                	xor    %eax,%eax
    4ac3:	c7 45 e4 00 00 00 00 	movl   $0x0,-0x1c(%ebp)
    4aca:	8a 41 06             	mov    0x6(%ecx),%al
    4acd:	89 7c 24 18          	mov    %edi,0x18(%esp)
    4ad1:	89 44 24 1c          	mov    %eax,0x1c(%esp)
    4ad5:	31 c0                	xor    %eax,%eax
    4ad7:	8a 46 0c             	mov    0xc(%esi),%al
    4ada:	8b 4d d0             	mov    -0x30(%ebp),%ecx
    4add:	89 44 24 14          	mov    %eax,0x14(%esp)
    4ae1:	66 8b 56 0c          	mov    0xc(%esi),%dx
    4ae5:	0f b6 c6             	movzbl %dh,%eax
    4ae8:	89 44 24 10          	mov    %eax,0x10(%esp)
    4aec:	66 8b 46 0a          	mov    0xa(%esi),%ax
    4af0:	25 ff ff 00 00       	and    $0xffff,%eax
    4af5:	89 44 24 0c          	mov    %eax,0xc(%esp)
    4af9:	66 8b 46 08          	mov    0x8(%esi),%ax
    4afd:	c7 44 24 04 28 fd 02 	movl   $0x2fd28,0x4(%esp)
    4b04:	00 
    4b05:	25 ff ff 00 00       	and    $0xffff,%eax
    4b0a:	89 0c 24             	mov    %ecx,(%esp)
    4b0d:	89 44 24 08          	mov    %eax,0x8(%esp)
    4b11:	e8 8a 40 01 00       	call   18ba0 <asprintf>
    4b16:	83 f8 00             	cmp    $0x0,%eax
    4b19:	0f 8e b9 05 00 00    	jle    50d8 <usb_device_create_match_ids_from_interface+0x9f8>
    4b1f:	8b 55 e4             	mov    -0x1c(%ebp),%edx
    4b22:	c7 04 24 10 00 00 00 	movl   $0x10,(%esp)
    4b29:	89 55 cc             	mov    %edx,-0x34(%ebp)
    4b2c:	e8 ff b8 01 00       	call   20430 <malloc>
    4b31:	c7 44 24 08 10 00 00 	movl   $0x10,0x8(%esp)
    4b38:	00 
    4b39:	c7 44 24 04 00 00 00 	movl   $0x0,0x4(%esp)
    4b40:	00 
    4b41:	89 04 24             	mov    %eax,(%esp)
    4b44:	89 45 c8             	mov    %eax,-0x38(%ebp)
    4b47:	e8 04 e3 00 00       	call   12e50 <memset>
    4b4c:	8b 4d c8             	mov    -0x38(%ebp),%ecx
    4b4f:	85 c9                	test   %ecx,%ecx
    4b51:	8b 55 cc             	mov    -0x34(%ebp),%edx
    4b54:	0f 84 dc 05 00 00    	je     5136 <usb_device_create_match_ids_from_interface+0xa56>
    4b5a:	89 51 08             	mov    %edx,0x8(%ecx)
    4b5d:	8b 53 04             	mov    0x4(%ebx),%edx
    4b60:	c7 41 0c f0 00 00 00 	movl   $0xf0,0xc(%ecx)
    4b67:	39 d3                	cmp    %edx,%ebx
    4b69:	75 0c                	jne    4b77 <usb_device_create_match_ids_from_interface+0x497>
    4b6b:	eb 13                	jmp    4b80 <usb_device_create_match_ids_from_interface+0x4a0>
    4b6d:	8d 76 00             	lea    0x0(%esi),%esi
    4b70:	8b 52 04             	mov    0x4(%edx),%edx
    4b73:	39 d3                	cmp    %edx,%ebx
    4b75:	74 09                	je     4b80 <usb_device_create_match_ids_from_interface+0x4a0>
    4b77:	81 7a 0c ef 00 00 00 	cmpl   $0xef,0xc(%edx)
    4b7e:	77 f0                	ja     4b70 <usb_device_create_match_ids_from_interface+0x490>
    4b80:	8b 02                	mov    (%edx),%eax
    4b82:	89 51 04             	mov    %edx,0x4(%ecx)
    4b85:	89 01                	mov    %eax,(%ecx)
    4b87:	8b 02                	mov    (%edx),%eax
    4b89:	89 0a                	mov    %ecx,(%edx)
    4b8b:	89 48 04             	mov    %ecx,0x4(%eax)
    4b8e:	89 7c 24 18          	mov    %edi,0x18(%esp)
    4b92:	31 c0                	xor    %eax,%eax
    4b94:	8a 46 0c             	mov    0xc(%esi),%al
    4b97:	8b 4d d0             	mov    -0x30(%ebp),%ecx
    4b9a:	89 44 24 14          	mov    %eax,0x14(%esp)
    4b9e:	c7 45 e4 00 00 00 00 	movl   $0x0,-0x1c(%ebp)
    4ba5:	66 8b 56 0c          	mov    0xc(%esi),%dx
    4ba9:	0f b6 c6             	movzbl %dh,%eax
    4bac:	89 44 24 10          	mov    %eax,0x10(%esp)
    4bb0:	66 8b 46 0a          	mov    0xa(%esi),%ax
    4bb4:	25 ff ff 00 00       	and    $0xffff,%eax
    4bb9:	89 44 24 0c          	mov    %eax,0xc(%esp)
    4bbd:	66 8b 46 08          	mov    0x8(%esi),%ax
    4bc1:	c7 44 24 04 7c fd 02 	movl   $0x2fd7c,0x4(%esp)
    4bc8:	00 
    4bc9:	25 ff ff 00 00       	and    $0xffff,%eax
    4bce:	89 0c 24             	mov    %ecx,(%esp)
    4bd1:	89 44 24 08          	mov    %eax,0x8(%esp)
    4bd5:	e8 c6 3f 01 00       	call   18ba0 <asprintf>
    4bda:	83 f8 00             	cmp    $0x0,%eax
    4bdd:	0f 8e 85 00 00 00    	jle    4c68 <usb_device_create_match_ids_from_interface+0x588>
    4be3:	8b 55 e4             	mov    -0x1c(%ebp),%edx
    4be6:	c7 04 24 10 00 00 00 	movl   $0x10,(%esp)
    4bed:	89 55 cc             	mov    %edx,-0x34(%ebp)
    4bf0:	e8 3b b8 01 00       	call   20430 <malloc>
    4bf5:	c7 44 24 08 10 00 00 	movl   $0x10,0x8(%esp)
    4bfc:	00 
    4bfd:	c7 44 24 04 00 00 00 	movl   $0x0,0x4(%esp)
    4c04:	00 
    4c05:	89 04 24             	mov    %eax,(%esp)
    4c08:	89 45 c8             	mov    %eax,-0x38(%ebp)
    4c0b:	e8 40 e2 00 00       	call   12e50 <memset>
    4c10:	8b 4d c8             	mov    -0x38(%ebp),%ecx
    4c13:	85 c9                	test   %ecx,%ecx
    4c15:	8b 55 cc             	mov    -0x34(%ebp),%edx
    4c18:	0f 84 18 05 00 00    	je     5136 <usb_device_create_match_ids_from_interface+0xa56>
    4c1e:	89 51 08             	mov    %edx,0x8(%ecx)
    4c21:	8b 53 04             	mov    0x4(%ebx),%edx
    4c24:	c7 41 0c e6 00 00 00 	movl   $0xe6,0xc(%ecx)
    4c2b:	39 da                	cmp    %ebx,%edx
    4c2d:	75 10                	jne    4c3f <usb_device_create_match_ids_from_interface+0x55f>
    4c2f:	eb 17                	jmp    4c48 <usb_device_create_match_ids_from_interface+0x568>
    4c31:	8d b4 26 00 00 00 00 	lea    0x0(%esi,%eiz,1),%esi
    4c38:	8b 52 04             	mov    0x4(%edx),%edx
    4c3b:	39 da                	cmp    %ebx,%edx
    4c3d:	74 09                	je     4c48 <usb_device_create_match_ids_from_interface+0x568>
    4c3f:	81 7a 0c e5 00 00 00 	cmpl   $0xe5,0xc(%edx)
    4c46:	77 f0                	ja     4c38 <usb_device_create_match_ids_from_interface+0x558>
    4c48:	8b 02                	mov    (%edx),%eax
    4c4a:	89 51 04             	mov    %edx,0x4(%ecx)
    4c4d:	89 01                	mov    %eax,(%ecx)
    4c4f:	8b 02                	mov    (%edx),%eax
    4c51:	89 0a                	mov    %ecx,(%edx)
    4c53:	89 48 04             	mov    %ecx,0x4(%eax)
    4c56:	eb 16                	jmp    4c6e <usb_device_create_match_ids_from_interface+0x58e>
    4c58:	0f 84 60 fe ff ff    	je     4abe <usb_device_create_match_ids_from_interface+0x3de>
    4c5e:	e9 3b fd ff ff       	jmp    499e <usb_device_create_match_ids_from_interface+0x2be>
    4c63:	90                   	nop
    4c64:	8d 74 26 00          	lea    0x0(%esi,%eiz,1),%esi
    4c68:	0f 85 30 fd ff ff    	jne    499e <usb_device_create_match_ids_from_interface+0x2be>
    4c6e:	8b 55 0c             	mov    0xc(%ebp),%edx
    4c71:	31 c0                	xor    %eax,%eax
    4c73:	8b 4d d0             	mov    -0x30(%ebp),%ecx
    4c76:	c7 45 e4 00 00 00 00 	movl   $0x0,-0x1c(%ebp)
    4c7d:	8a 42 07             	mov    0x7(%edx),%al
    4c80:	89 44 24 18          	mov    %eax,0x18(%esp)
    4c84:	31 c0                	xor    %eax,%eax
    4c86:	8a 42 06             	mov    0x6(%edx),%al
    4c89:	89 7c 24 10          	mov    %edi,0x10(%esp)
    4c8d:	89 44 24 14          	mov    %eax,0x14(%esp)
    4c91:	66 8b 46 0a          	mov    0xa(%esi),%ax
    4c95:	25 ff ff 00 00       	and    $0xffff,%eax
    4c9a:	89 44 24 0c          	mov    %eax,0xc(%esp)
    4c9e:	66 8b 46 08          	mov    0x8(%esi),%ax
    4ca2:	c7 44 24 04 c0 fd 02 	movl   $0x2fdc0,0x4(%esp)
    4ca9:	00 
    4caa:	25 ff ff 00 00       	and    $0xffff,%eax
    4caf:	89 0c 24             	mov    %ecx,(%esp)
    4cb2:	89 44 24 08          	mov    %eax,0x8(%esp)
    4cb6:	e8 e5 3e 01 00       	call   18ba0 <asprintf>
    4cbb:	83 f8 00             	cmp    $0x0,%eax
    4cbe:	0f 8e f4 03 00 00    	jle    50b8 <usb_device_create_match_ids_from_interface+0x9d8>
    4cc4:	8b 55 e4             	mov    -0x1c(%ebp),%edx
    4cc7:	c7 04 24 10 00 00 00 	movl   $0x10,(%esp)
    4cce:	89 55 cc             	mov    %edx,-0x34(%ebp)
    4cd1:	e8 5a b7 01 00       	call   20430 <malloc>
    4cd6:	c7 44 24 08 10 00 00 	movl   $0x10,0x8(%esp)
    4cdd:	00 
    4cde:	c7 44 24 04 00 00 00 	movl   $0x0,0x4(%esp)
    4ce5:	00 
    4ce6:	89 04 24             	mov    %eax,(%esp)
    4ce9:	89 45 c8             	mov    %eax,-0x38(%ebp)
    4cec:	e8 5f e1 00 00       	call   12e50 <memset>
    4cf1:	8b 4d c8             	mov    -0x38(%ebp),%ecx
    4cf4:	85 c9                	test   %ecx,%ecx
    4cf6:	8b 55 cc             	mov    -0x34(%ebp),%edx
    4cf9:	0f 84 37 04 00 00    	je     5136 <usb_device_create_match_ids_from_interface+0xa56>
    4cff:	89 51 08             	mov    %edx,0x8(%ecx)
    4d02:	8b 53 04             	mov    0x4(%ebx),%edx
    4d05:	c7 41 0c dc 00 00 00 	movl   $0xdc,0xc(%ecx)
    4d0c:	39 da                	cmp    %ebx,%edx
    4d0e:	75 0f                	jne    4d1f <usb_device_create_match_ids_from_interface+0x63f>
    4d10:	eb 16                	jmp    4d28 <usb_device_create_match_ids_from_interface+0x648>
    4d12:	8d b6 00 00 00 00    	lea    0x0(%esi),%esi
    4d18:	8b 52 04             	mov    0x4(%edx),%edx
    4d1b:	39 da                	cmp    %ebx,%edx
    4d1d:	74 09                	je     4d28 <usb_device_create_match_ids_from_interface+0x648>
    4d1f:	81 7a 0c db 00 00 00 	cmpl   $0xdb,0xc(%edx)
    4d26:	77 f0                	ja     4d18 <usb_device_create_match_ids_from_interface+0x638>
    4d28:	8b 02                	mov    (%edx),%eax
    4d2a:	89 51 04             	mov    %edx,0x4(%ecx)
    4d2d:	89 01                	mov    %eax,(%ecx)
    4d2f:	8b 02                	mov    (%edx),%eax
    4d31:	89 0a                	mov    %ecx,(%edx)
    4d33:	89 48 04             	mov    %ecx,0x4(%eax)
    4d36:	8b 55 0c             	mov    0xc(%ebp),%edx
    4d39:	31 c0                	xor    %eax,%eax
    4d3b:	8b 4d d0             	mov    -0x30(%ebp),%ecx
    4d3e:	c7 45 e4 00 00 00 00 	movl   $0x0,-0x1c(%ebp)
    4d45:	8a 42 06             	mov    0x6(%edx),%al
    4d48:	89 7c 24 10          	mov    %edi,0x10(%esp)
    4d4c:	89 44 24 14          	mov    %eax,0x14(%esp)
    4d50:	66 8b 46 0a          	mov    0xa(%esi),%ax
    4d54:	25 ff ff 00 00       	and    $0xffff,%eax
    4d59:	89 44 24 0c          	mov    %eax,0xc(%esp)
    4d5d:	66 8b 46 08          	mov    0x8(%esi),%ax
    4d61:	c7 44 24 04 14 fe 02 	movl   $0x2fe14,0x4(%esp)
    4d68:	00 
    4d69:	25 ff ff 00 00       	and    $0xffff,%eax
    4d6e:	89 0c 24             	mov    %ecx,(%esp)
    4d71:	89 44 24 08          	mov    %eax,0x8(%esp)
    4d75:	e8 26 3e 01 00       	call   18ba0 <asprintf>
    4d7a:	83 f8 00             	cmp    $0x0,%eax
    4d7d:	0f 8e 87 03 00 00    	jle    510a <usb_device_create_match_ids_from_interface+0xa2a>
    4d83:	8b 55 e4             	mov    -0x1c(%ebp),%edx
    4d86:	c7 04 24 10 00 00 00 	movl   $0x10,(%esp)
    4d8d:	89 55 cc             	mov    %edx,-0x34(%ebp)
    4d90:	e8 9b b6 01 00       	call   20430 <malloc>
    4d95:	c7 44 24 08 10 00 00 	movl   $0x10,0x8(%esp)
    4d9c:	00 
    4d9d:	c7 44 24 04 00 00 00 	movl   $0x0,0x4(%esp)
    4da4:	00 
    4da5:	89 04 24             	mov    %eax,(%esp)
    4da8:	89 45 c8             	mov    %eax,-0x38(%ebp)
    4dab:	e8 a0 e0 00 00       	call   12e50 <memset>
    4db0:	8b 4d c8             	mov    -0x38(%ebp),%ecx
    4db3:	85 c9                	test   %ecx,%ecx
    4db5:	8b 55 cc             	mov    -0x34(%ebp),%edx
    4db8:	0f 84 78 03 00 00    	je     5136 <usb_device_create_match_ids_from_interface+0xa56>
    4dbe:	89 51 08             	mov    %edx,0x8(%ecx)
    4dc1:	8b 53 04             	mov    0x4(%ebx),%edx
    4dc4:	c7 41 0c d2 00 00 00 	movl   $0xd2,0xc(%ecx)
    4dcb:	39 da                	cmp    %ebx,%edx
    4dcd:	75 10                	jne    4ddf <usb_device_create_match_ids_from_interface+0x6ff>
    4dcf:	eb 17                	jmp    4de8 <usb_device_create_match_ids_from_interface+0x708>
    4dd1:	8d b4 26 00 00 00 00 	lea    0x0(%esi,%eiz,1),%esi
    4dd8:	8b 52 04             	mov    0x4(%edx),%edx
    4ddb:	39 da                	cmp    %ebx,%edx
    4ddd:	74 09                	je     4de8 <usb_device_create_match_ids_from_interface+0x708>
    4ddf:	81 7a 0c d1 00 00 00 	cmpl   $0xd1,0xc(%edx)
    4de6:	77 f0                	ja     4dd8 <usb_device_create_match_ids_from_interface+0x6f8>
    4de8:	8b 02                	mov    (%edx),%eax
    4dea:	89 51 04             	mov    %edx,0x4(%ecx)
    4ded:	89 01                	mov    %eax,(%ecx)
    4def:	8b 02                	mov    (%edx),%eax
    4df1:	89 0a                	mov    %ecx,(%edx)
    4df3:	89 48 04             	mov    %ecx,0x4(%eax)
    4df6:	89 7c 24 10          	mov    %edi,0x10(%esp)
    4dfa:	8b 55 d0             	mov    -0x30(%ebp),%edx
    4dfd:	66 8b 46 0a          	mov    0xa(%esi),%ax
    4e01:	c7 45 e4 00 00 00 00 	movl   $0x0,-0x1c(%ebp)
    4e08:	25 ff ff 00 00       	and    $0xffff,%eax
    4e0d:	89 44 24 0c          	mov    %eax,0xc(%esp)
    4e11:	66 8b 46 08          	mov    0x8(%esi),%ax
    4e15:	c7 44 24 04 58 fe 02 	movl   $0x2fe58,0x4(%esp)
    4e1c:	00 
    4e1d:	25 ff ff 00 00       	and    $0xffff,%eax
    4e22:	89 14 24             	mov    %edx,(%esp)
    4e25:	89 44 24 08          	mov    %eax,0x8(%esp)
    4e29:	e8 72 3d 01 00       	call   18ba0 <asprintf>
    4e2e:	83 f8 00             	cmp    $0x0,%eax
    4e31:	0f 8e de 02 00 00    	jle    5115 <usb_device_create_match_ids_from_interface+0xa35>
    4e37:	8b 55 e4             	mov    -0x1c(%ebp),%edx
    4e3a:	c7 04 24 10 00 00 00 	movl   $0x10,(%esp)
    4e41:	89 55 cc             	mov    %edx,-0x34(%ebp)
    4e44:	e8 e7 b5 01 00       	call   20430 <malloc>
    4e49:	c7 44 24 08 10 00 00 	movl   $0x10,0x8(%esp)
    4e50:	00 
    4e51:	c7 44 24 04 00 00 00 	movl   $0x0,0x4(%esp)
    4e58:	00 
    4e59:	89 04 24             	mov    %eax,(%esp)
    4e5c:	89 45 c8             	mov    %eax,-0x38(%ebp)
    4e5f:	e8 ec df 00 00       	call   12e50 <memset>
    4e64:	8b 4d c8             	mov    -0x38(%ebp),%ecx
    4e67:	85 c9                	test   %ecx,%ecx
    4e69:	8b 55 cc             	mov    -0x34(%ebp),%edx
    4e6c:	0f 84 c4 02 00 00    	je     5136 <usb_device_create_match_ids_from_interface+0xa56>
    4e72:	89 51 08             	mov    %edx,0x8(%ecx)
    4e75:	8b 53 04             	mov    0x4(%ebx),%edx
    4e78:	c7 41 0c c8 00 00 00 	movl   $0xc8,0xc(%ecx)
    4e7f:	39 da                	cmp    %ebx,%edx
    4e81:	75 0c                	jne    4e8f <usb_device_create_match_ids_from_interface+0x7af>
    4e83:	eb 13                	jmp    4e98 <usb_device_create_match_ids_from_interface+0x7b8>
    4e85:	8d 76 00             	lea    0x0(%esi),%esi
    4e88:	8b 52 04             	mov    0x4(%edx),%edx
    4e8b:	39 da                	cmp    %ebx,%edx
    4e8d:	74 09                	je     4e98 <usb_device_create_match_ids_from_interface+0x7b8>
    4e8f:	81 7a 0c c7 00 00 00 	cmpl   $0xc7,0xc(%edx)
    4e96:	77 f0                	ja     4e88 <usb_device_create_match_ids_from_interface+0x7a8>
    4e98:	8b 02                	mov    (%edx),%eax
    4e9a:	89 51 04             	mov    %edx,0x4(%ecx)
    4e9d:	89 01                	mov    %eax,(%ecx)
    4e9f:	8b 02                	mov    (%edx),%eax
    4ea1:	89 0a                	mov    %ecx,(%edx)
    4ea3:	89 48 04             	mov    %ecx,0x4(%eax)
    4ea6:	8b 4d 0c             	mov    0xc(%ebp),%ecx
    4ea9:	31 c0                	xor    %eax,%eax
    4eab:	8b 55 d0             	mov    -0x30(%ebp),%edx
    4eae:	c7 45 e4 00 00 00 00 	movl   $0x0,-0x1c(%ebp)
    4eb5:	8a 41 07             	mov    0x7(%ecx),%al
    4eb8:	89 44 24 14          	mov    %eax,0x14(%esp)
