
rtl8139:     file format elf32-i386


Disassembly of section .init:

00001094 <__entry>:
    1094:	66 8c d0             	mov    %ss,%ax
    1097:	8e d8                	mov    %eax,%ds
    1099:	8e c0                	mov    %eax,%es
    109b:	8e e0                	mov    %eax,%fs
    109d:	b8 01 00 00 00       	mov    $0x1,%eax
    10a2:	0f a2                	cpuid  
    10a4:	0f ba e2 0b          	bt     $0xb,%edx
    10a8:	73 0c                	jae    10b6 <__entry+0x22>
    10aa:	8d 05 30 1d 03 00    	lea    0x31d30,%eax
    10b0:	c7 00 07 99 02 00    	movl   $0x29907,(%eax)
    10b6:	6a 00                	push   $0x0
    10b8:	89 e5                	mov    %esp,%ebp
    10ba:	57                   	push   %edi
    10bb:	e8 c0 da 00 00       	call   eb80 <__main>

Disassembly of section .text:

000010c0 <rtl8139_get_operation_mode>:
    10c0:	55                   	push   %ebp
    10c1:	89 e5                	mov    %esp,%ebp
    10c3:	57                   	push   %edi
    10c4:	56                   	push   %esi
    10c5:	53                   	push   %ebx
    10c6:	83 ec 1c             	sub    $0x1c,%esp
    10c9:	8b 45 08             	mov    0x8(%ebp),%eax
    10cc:	8b 75 10             	mov    0x10(%ebp),%esi
    10cf:	85 c0                	test   %eax,%eax
    10d1:	0f 84 82 00 00 00    	je     1159 <rtl8139_get_operation_mode+0x99>
    10d7:	8b 4d 0c             	mov    0xc(%ebp),%ecx
    10da:	85 c9                	test   %ecx,%ecx
    10dc:	0f 84 e7 00 00 00    	je     11c9 <rtl8139_get_operation_mode+0x109>
    10e2:	85 f6                	test   %esi,%esi
    10e4:	0f 84 c3 00 00 00    	je     11ad <rtl8139_get_operation_mode+0xed>
    10ea:	8b 55 14             	mov    0x14(%ebp),%edx
    10ed:	85 d2                	test   %edx,%edx
    10ef:	0f 84 9c 00 00 00    	je     1191 <rtl8139_get_operation_mode+0xd1>
    10f5:	89 04 24             	mov    %eax,(%esp)
    10f8:	e8 73 a5 00 00       	call   b670 <nic_get_from_ddf_fun>
    10fd:	89 04 24             	mov    %eax,(%esp)
    1100:	e8 eb a4 00 00       	call   b5f0 <nic_get_specific>
    1105:	89 c3                	mov    %eax,%ebx
    1107:	85 c0                	test   %eax,%eax
    1109:	74 6a                	je     1175 <rtl8139_get_operation_mode+0xb5>
    110b:	8b 40 04             	mov    0x4(%eax),%eax
    110e:	83 c0 62             	add    $0x62,%eax
    1111:	89 04 24             	mov    %eax,(%esp)
    1114:	e8 17 df 00 00       	call   f030 <pio_read_16>
    1119:	89 c7                	mov    %eax,%edi
    111b:	8b 43 04             	mov    0x4(%ebx),%eax
    111e:	c1 e7 17             	shl    $0x17,%edi
    1121:	83 c0 58             	add    $0x58,%eax
    1124:	c1 ff 1f             	sar    $0x1f,%edi
    1127:	89 04 24             	mov    %eax,(%esp)
    112a:	e8 c1 de 00 00       	call   eff0 <pio_read_8>
    112f:	83 c7 02             	add    $0x2,%edi
    1132:	83 e0 08             	and    $0x8,%eax
    1135:	8b 55 0c             	mov    0xc(%ebp),%edx
    1138:	3c 01                	cmp    $0x1,%al
    113a:	89 3e                	mov    %edi,(%esi)
    113c:	19 c0                	sbb    %eax,%eax
    113e:	83 e0 5a             	and    $0x5a,%eax
    1141:	83 c0 0a             	add    $0xa,%eax
    1144:	89 02                	mov    %eax,(%edx)
    1146:	8b 55 14             	mov    0x14(%ebp),%edx
    1149:	31 c0                	xor    %eax,%eax
    114b:	c7 02 00 00 00 00    	movl   $0x0,(%edx)
    1151:	83 c4 1c             	add    $0x1c,%esp
    1154:	5b                   	pop    %ebx
    1155:	5e                   	pop    %esi
    1156:	5f                   	pop    %edi
    1157:	5d                   	pop    %ebp
    1158:	c3                   	ret    
    1159:	c7 44 24 08 bd 05 00 	movl   $0x5bd,0x8(%esp)
    1160:	00 
    1161:	c7 44 24 04 91 e4 02 	movl   $0x2e491,0x4(%esp)
    1168:	00 
    1169:	c7 04 24 f2 dc 02 00 	movl   $0x2dcf2,(%esp)
    1170:	e8 3b 85 02 00       	call   296b0 <assert_abort>
    1175:	c7 44 24 08 c3 05 00 	movl   $0x5c3,0x8(%esp)
    117c:	00 
    117d:	c7 44 24 04 91 e4 02 	movl   $0x2e491,0x4(%esp)
    1184:	00 
    1185:	c7 04 24 08 dd 02 00 	movl   $0x2dd08,(%esp)
    118c:	e8 1f 85 02 00       	call   296b0 <assert_abort>
    1191:	c7 44 24 08 c0 05 00 	movl   $0x5c0,0x8(%esp)
    1198:	00 
    1199:	c7 44 24 04 91 e4 02 	movl   $0x2e491,0x4(%esp)
    11a0:	00 
    11a1:	c7 04 24 03 dd 02 00 	movl   $0x2dd03,(%esp)
    11a8:	e8 03 85 02 00       	call   296b0 <assert_abort>
    11ad:	c7 44 24 08 bf 05 00 	movl   $0x5bf,0x8(%esp)
    11b4:	00 
    11b5:	c7 44 24 04 91 e4 02 	movl   $0x2e491,0x4(%esp)
    11bc:	00 
    11bd:	c7 04 24 fc dc 02 00 	movl   $0x2dcfc,(%esp)
    11c4:	e8 e7 84 02 00       	call   296b0 <assert_abort>
    11c9:	c7 44 24 08 be 05 00 	movl   $0x5be,0x8(%esp)
    11d0:	00 
    11d1:	c7 44 24 04 91 e4 02 	movl   $0x2e491,0x4(%esp)
    11d8:	00 
    11d9:	c7 04 24 f6 dc 02 00 	movl   $0x2dcf6,(%esp)
    11e0:	e8 cb 84 02 00       	call   296b0 <assert_abort>
    11e5:	8d 74 26 00          	lea    0x0(%esi,%eiz,1),%esi
    11e9:	8d bc 27 00 00 00 00 	lea    0x0(%edi,%eiz,1),%edi

000011f0 <rtl8139_get_device_info>:
    11f0:	55                   	push   %ebp
    11f1:	89 e5                	mov    %esp,%ebp
    11f3:	56                   	push   %esi
    11f4:	53                   	push   %ebx
    11f5:	83 ec 10             	sub    $0x10,%esp
    11f8:	8b 45 08             	mov    0x8(%ebp),%eax
    11fb:	8b 5d 0c             	mov    0xc(%ebp),%ebx
    11fe:	85 c0                	test   %eax,%eax
    1200:	0f 84 0e 01 00 00    	je     1314 <rtl8139_get_device_info+0x124>
    1206:	85 db                	test   %ebx,%ebx
    1208:	0f 84 ea 00 00 00    	je     12f8 <rtl8139_get_device_info+0x108>
    120e:	89 04 24             	mov    %eax,(%esp)
    1211:	e8 5a a4 00 00       	call   b670 <nic_get_from_ddf_fun>
    1216:	85 c0                	test   %eax,%eax
    1218:	0f 84 be 00 00 00    	je     12dc <rtl8139_get_device_info+0xec>
    121e:	89 04 24             	mov    %eax,(%esp)
    1221:	e8 ca a3 00 00       	call   b5f0 <nic_get_specific>
    1226:	89 c6                	mov    %eax,%esi
    1228:	85 c0                	test   %eax,%eax
    122a:	0f 84 90 00 00 00    	je     12c0 <rtl8139_get_device_info+0xd0>
    1230:	66 c7 83 00 01 00 00 	movw   $0x10ec,0x100(%ebx)
    1237:	ec 10 
    1239:	c7 44 24 08 1e dd 02 	movl   $0x2dd1e,0x8(%esp)
    1240:	00 
    1241:	c7 44 24 04 40 00 00 	movl   $0x40,0x4(%esp)
    1248:	00 
    1249:	89 1c 24             	mov    %ebx,(%esp)
    124c:	e8 8f 1e 01 00       	call   130e0 <str_cpy>
    1251:	8b 46 7c             	mov    0x7c(%esi),%eax
    1254:	83 f8 09             	cmp    $0x9,%eax
    1257:	76 47                	jbe    12a0 <rtl8139_get_device_info+0xb0>
    1259:	8d 43 40             	lea    0x40(%ebx),%eax
    125c:	c7 44 24 08 26 dd 02 	movl   $0x2dd26,0x8(%esp)
    1263:	00 
    1264:	c7 44 24 04 40 00 00 	movl   $0x40,0x4(%esp)
    126b:	00 
    126c:	89 04 24             	mov    %eax,(%esp)
    126f:	e8 6c 1e 01 00       	call   130e0 <str_cpy>
    1274:	66 c7 83 0a 01 00 00 	movw   $0x20,0x10a(%ebx)
    127b:	20 00 
    127d:	66 c7 83 0c 01 00 00 	movw   $0x1,0x10c(%ebx)
    1284:	01 00 
    1286:	c7 83 18 01 00 00 27 	movl   $0x10000027,0x118(%ebx)
    128d:	00 00 10 
    1290:	83 c4 10             	add    $0x10,%esp
    1293:	31 c0                	xor    %eax,%eax
    1295:	5b                   	pop    %ebx
    1296:	5e                   	pop    %esi
    1297:	5d                   	pop    %ebp
    1298:	c3                   	ret    
    1299:	8d b4 26 00 00 00 00 	lea    0x0(%esi,%eiz,1),%esi
    12a0:	8b 04 85 e0 18 03 00 	mov    0x318e0(,%eax,4),%eax
    12a7:	c7 44 24 04 40 00 00 	movl   $0x40,0x4(%esp)
    12ae:	00 
    12af:	89 44 24 08          	mov    %eax,0x8(%esp)
    12b3:	8d 43 40             	lea    0x40(%ebx),%eax
    12b6:	89 04 24             	mov    %eax,(%esp)
    12b9:	e8 22 1e 01 00       	call   130e0 <str_cpy>
    12be:	eb b4                	jmp    1274 <rtl8139_get_device_info+0x84>
    12c0:	c7 44 24 08 8c 05 00 	movl   $0x58c,0x8(%esp)
    12c7:	00 
    12c8:	c7 44 24 04 91 e4 02 	movl   $0x2e491,0x4(%esp)
    12cf:	00 
    12d0:	c7 04 24 08 dd 02 00 	movl   $0x2dd08,(%esp)
    12d7:	e8 d4 83 02 00       	call   296b0 <assert_abort>
    12dc:	c7 44 24 08 8a 05 00 	movl   $0x58a,0x8(%esp)
    12e3:	00 
    12e4:	c7 44 24 04 91 e4 02 	movl   $0x2e491,0x4(%esp)
    12eb:	00 
    12ec:	c7 04 24 15 dd 02 00 	movl   $0x2dd15,(%esp)
    12f3:	e8 b8 83 02 00       	call   296b0 <assert_abort>
    12f8:	c7 44 24 08 87 05 00 	movl   $0x587,0x8(%esp)
    12ff:	00 
    1300:	c7 44 24 04 91 e4 02 	movl   $0x2e491,0x4(%esp)
    1307:	00 
    1308:	c7 04 24 10 dd 02 00 	movl   $0x2dd10,(%esp)
    130f:	e8 9c 83 02 00       	call   296b0 <assert_abort>
    1314:	c7 44 24 08 86 05 00 	movl   $0x586,0x8(%esp)
    131b:	00 
    131c:	c7 44 24 04 91 e4 02 	movl   $0x2e491,0x4(%esp)
    1323:	00 
    1324:	c7 04 24 f2 dc 02 00 	movl   $0x2dcf2,(%esp)
    132b:	e8 80 83 02 00       	call   296b0 <assert_abort>

00001330 <rtl8139_poll_interrupt>:
    1330:	55                   	push   %ebp
    1331:	89 e5                	mov    %esp,%ebp
    1333:	56                   	push   %esi
    1334:	53                   	push   %ebx
    1335:	83 ec 20             	sub    $0x20,%esp
    1338:	85 c0                	test   %eax,%eax
    133a:	74 7d                	je     13b9 <rtl8139_poll_interrupt+0x89>
    133c:	89 04 24             	mov    %eax,(%esp)
    133f:	e8 ac a2 00 00       	call   b5f0 <nic_get_specific>
    1344:	89 c3                	mov    %eax,%ebx
    1346:	85 c0                	test   %eax,%eax
    1348:	0f 84 a3 00 00 00    	je     13f1 <rtl8139_poll_interrupt+0xc1>
    134e:	8d 45 f4             	lea    -0xc(%ebp),%eax
    1351:	89 44 24 04          	mov    %eax,0x4(%esp)
    1355:	8d 43 64             	lea    0x64(%ebx),%eax
    1358:	89 04 24             	mov    %eax,(%esp)
    135b:	e8 30 36 00 00       	call   4990 <rtl8139_timer_act_step>
    1360:	8b 55 f4             	mov    -0xc(%ebp),%edx
    1363:	89 c6                	mov    %eax,%esi
    1365:	85 d2                	test   %edx,%edx
    1367:	74 6c                	je     13d5 <rtl8139_poll_interrupt+0xa5>
    1369:	89 54 24 04          	mov    %edx,0x4(%esp)
    136d:	8b 43 04             	mov    0x4(%ebx),%eax
    1370:	83 c0 54             	add    $0x54,%eax
    1373:	89 04 24             	mov    %eax,(%esp)
    1376:	e8 25 dc 00 00       	call   efa0 <pio_write_32>
    137b:	c7 44 24 04 00 00 00 	movl   $0x0,0x4(%esp)
    1382:	00 
    1383:	8b 43 04             	mov    0x4(%ebx),%eax
    1386:	83 c0 48             	add    $0x48,%eax
    1389:	89 04 24             	mov    %eax,(%esp)
    138c:	e8 0f dc 00 00       	call   efa0 <pio_write_32>
    1391:	8b 45 f4             	mov    -0xc(%ebp),%eax
    1394:	89 74 24 0c          	mov    %esi,0xc(%esp)
    1398:	89 44 24 08          	mov    %eax,0x8(%esp)
    139c:	c7 44 24 04 38 dd 02 	movl   $0x2dd38,0x4(%esp)
    13a3:	00 
    13a4:	c7 04 24 04 00 00 00 	movl   $0x4,(%esp)
    13ab:	e8 00 4b 00 00       	call   5eb0 <ddf_msg>
    13b0:	83 c4 20             	add    $0x20,%esp
    13b3:	89 f0                	mov    %esi,%eax
    13b5:	5b                   	pop    %ebx
    13b6:	5e                   	pop    %esi
    13b7:	5d                   	pop    %ebp
    13b8:	c3                   	ret    
    13b9:	c7 44 24 08 19 03 00 	movl   $0x319,0x8(%esp)
    13c0:	00 
    13c1:	c7 44 24 04 91 e4 02 	movl   $0x2e491,0x4(%esp)
    13c8:	00 
    13c9:	c7 04 24 15 dd 02 00 	movl   $0x2dd15,(%esp)
    13d0:	e8 db 82 02 00       	call   296b0 <assert_abort>
    13d5:	c7 44 24 08 21 03 00 	movl   $0x321,0x8(%esp)
    13dc:	00 
    13dd:	c7 44 24 04 91 e4 02 	movl   $0x2e491,0x4(%esp)
    13e4:	00 
    13e5:	c7 04 24 2e dd 02 00 	movl   $0x2dd2e,(%esp)
    13ec:	e8 bf 82 02 00       	call   296b0 <assert_abort>
    13f1:	c7 44 24 08 1c 03 00 	movl   $0x31c,0x8(%esp)
    13f8:	00 
    13f9:	c7 44 24 04 91 e4 02 	movl   $0x2e491,0x4(%esp)
    1400:	00 
    1401:	c7 04 24 08 dd 02 00 	movl   $0x2dd08,(%esp)
    1408:	e8 a3 82 02 00       	call   296b0 <assert_abort>
    140d:	8d 76 00             	lea    0x0(%esi),%esi

00001410 <rtl8139_tx_interrupt>:
    1410:	55                   	push   %ebp
    1411:	89 e5                	mov    %esp,%ebp
    1413:	57                   	push   %edi
    1414:	56                   	push   %esi
    1415:	53                   	push   %ebx
    1416:	83 ec 2c             	sub    $0x2c,%esp
    1419:	89 c6                	mov    %eax,%esi
    141b:	89 04 24             	mov    %eax,(%esp)
    141e:	e8 cd a1 00 00       	call   b5f0 <nic_get_specific>
    1423:	89 c7                	mov    %eax,%edi
    1425:	8d 40 54             	lea    0x54(%eax),%eax
    1428:	89 04 24             	mov    %eax,(%esp)
    142b:	89 45 e0             	mov    %eax,-0x20(%ebp)
    142e:	e8 cd 43 01 00       	call   15800 <fibril_mutex_lock>
    1433:	8b 47 28             	mov    0x28(%edi),%eax
    1436:	8b 5f 2c             	mov    0x2c(%edi),%ebx
    1439:	89 45 e4             	mov    %eax,-0x1c(%ebp)
    143c:	39 d8                	cmp    %ebx,%eax
    143e:	75 49                	jne    1489 <rtl8139_tx_interrupt+0x79>
    1440:	e9 db 00 00 00       	jmp    1520 <rtl8139_tx_interrupt+0x110>
    1445:	8d 76 00             	lea    0x0(%esi),%esi
    1448:	85 c0                	test   %eax,%eax
    144a:	0f 88 38 01 00 00    	js     1588 <rtl8139_tx_interrupt+0x178>
    1450:	a9 00 00 00 20       	test   $0x20000000,%eax
    1455:	0f 85 dd 00 00 00    	jne    1538 <rtl8139_tx_interrupt+0x128>
    145b:	a9 00 00 00 40       	test   $0x40000000,%eax
    1460:	0f 85 fa 00 00 00    	jne    1560 <rtl8139_tx_interrupt+0x150>
    1466:	a9 00 00 00 10       	test   $0x10000000,%eax
    146b:	0f 85 3f 01 00 00    	jne    15b0 <rtl8139_tx_interrupt+0x1a0>
    1471:	89 c2                	mov    %eax,%edx
    1473:	c1 ea 18             	shr    $0x18,%edx
    1476:	83 e2 0f             	and    $0xf,%edx
    1479:	75 59                	jne    14d4 <rtl8139_tx_interrupt+0xc4>
    147b:	f6 c4 40             	test   $0x40,%ah
    147e:	75 6b                	jne    14eb <rtl8139_tx_interrupt+0xdb>
    1480:	39 5d e4             	cmp    %ebx,-0x1c(%ebp)
    1483:	0f 84 7f 00 00 00    	je     1508 <rtl8139_tx_interrupt+0xf8>
    1489:	89 da                	mov    %ebx,%edx
    148b:	8b 47 04             	mov    0x4(%edi),%eax
    148e:	83 e2 03             	and    $0x3,%edx
    1491:	8d 44 90 10          	lea    0x10(%eax,%edx,4),%eax
    1495:	89 04 24             	mov    %eax,(%esp)
    1498:	e8 d3 db 00 00       	call   f070 <pio_read_32>
    149d:	f6 c4 20             	test   $0x20,%ah
    14a0:	74 66                	je     1508 <rtl8139_tx_interrupt+0xf8>
    14a2:	43                   	inc    %ebx
    14a3:	f6 c4 80             	test   $0x80,%ah
    14a6:	74 a0                	je     1448 <rtl8139_tx_interrupt+0x38>
    14a8:	89 c2                	mov    %eax,%edx
    14aa:	c7 44 24 04 01 00 00 	movl   $0x1,0x4(%esp)
    14b1:	00 
    14b2:	81 e2 ff 1f 00 00    	and    $0x1fff,%edx
    14b8:	89 34 24             	mov    %esi,(%esp)
    14bb:	89 54 24 08          	mov    %edx,0x8(%esp)
    14bf:	89 45 dc             	mov    %eax,-0x24(%ebp)
    14c2:	e8 b9 a1 00 00       	call   b680 <nic_report_send_ok>
    14c7:	8b 45 dc             	mov    -0x24(%ebp),%eax
    14ca:	89 c2                	mov    %eax,%edx
    14cc:	c1 ea 18             	shr    $0x18,%edx
    14cf:	83 e2 0f             	and    $0xf,%edx
    14d2:	74 a7                	je     147b <rtl8139_tx_interrupt+0x6b>
    14d4:	89 54 24 04          	mov    %edx,0x4(%esp)
    14d8:	89 34 24             	mov    %esi,(%esp)
    14db:	89 45 dc             	mov    %eax,-0x24(%ebp)
    14de:	e8 ad a3 00 00       	call   b890 <nic_report_collisions>
    14e3:	8b 45 dc             	mov    -0x24(%ebp),%eax
    14e6:	f6 c4 40             	test   $0x40,%ah
    14e9:	74 95                	je     1480 <rtl8139_tx_interrupt+0x70>
    14eb:	c7 44 24 08 01 00 00 	movl   $0x1,0x8(%esp)
    14f2:	00 
    14f3:	c7 44 24 04 03 00 00 	movl   $0x3,0x4(%esp)
    14fa:	00 
    14fb:	89 34 24             	mov    %esi,(%esp)
    14fe:	e8 cd a1 00 00       	call   b6d0 <nic_report_send_error>
    1503:	39 5d e4             	cmp    %ebx,-0x1c(%ebp)
    1506:	75 81                	jne    1489 <rtl8139_tx_interrupt+0x79>
    1508:	39 5f 2c             	cmp    %ebx,0x2c(%edi)
    150b:	74 13                	je     1520 <rtl8139_tx_interrupt+0x110>
    150d:	89 5f 2c             	mov    %ebx,0x2c(%edi)
    1510:	c7 44 24 04 00 00 00 	movl   $0x0,0x4(%esp)
    1517:	00 
    1518:	89 34 24             	mov    %esi,(%esp)
    151b:	e8 a0 9a 00 00       	call   afc0 <nic_set_tx_busy>
    1520:	8b 45 e0             	mov    -0x20(%ebp),%eax
    1523:	89 04 24             	mov    %eax,(%esp)
    1526:	e8 f5 43 01 00       	call   15920 <fibril_mutex_unlock>
    152b:	83 c4 2c             	add    $0x2c,%esp
    152e:	5b                   	pop    %ebx
    152f:	5e                   	pop    %esi
    1530:	5f                   	pop    %edi
    1531:	5d                   	pop    %ebp
    1532:	c3                   	ret    
    1533:	90                   	nop
    1534:	8d 74 26 00          	lea    0x0(%esi,%eiz,1),%esi
    1538:	c7 44 24 08 01 00 00 	movl   $0x1,0x8(%esp)
    153f:	00 
    1540:	c7 44 24 04 05 00 00 	movl   $0x5,0x4(%esp)
    1547:	00 
    1548:	89 34 24             	mov    %esi,(%esp)
    154b:	89 45 dc             	mov    %eax,-0x24(%ebp)
    154e:	e8 7d a1 00 00       	call   b6d0 <nic_report_send_error>
    1553:	8b 45 dc             	mov    -0x24(%ebp),%eax
    1556:	e9 16 ff ff ff       	jmp    1471 <rtl8139_tx_interrupt+0x61>
    155b:	90                   	nop
    155c:	8d 74 26 00          	lea    0x0(%esi,%eiz,1),%esi
    1560:	c7 44 24 08 01 00 00 	movl   $0x1,0x8(%esp)
    1567:	00 
    1568:	c7 44 24 04 01 00 00 	movl   $0x1,0x4(%esp)
    156f:	00 
    1570:	89 34 24             	mov    %esi,(%esp)
    1573:	89 45 dc             	mov    %eax,-0x24(%ebp)
    1576:	e8 55 a1 00 00       	call   b6d0 <nic_report_send_error>
    157b:	8b 45 dc             	mov    -0x24(%ebp),%eax
    157e:	e9 ee fe ff ff       	jmp    1471 <rtl8139_tx_interrupt+0x61>
    1583:	90                   	nop
    1584:	8d 74 26 00          	lea    0x0(%esi,%eiz,1),%esi
    1588:	c7 44 24 08 01 00 00 	movl   $0x1,0x8(%esp)
    158f:	00 
    1590:	c7 44 24 04 02 00 00 	movl   $0x2,0x4(%esp)
    1597:	00 
    1598:	89 34 24             	mov    %esi,(%esp)
    159b:	89 45 dc             	mov    %eax,-0x24(%ebp)
    159e:	e8 2d a1 00 00       	call   b6d0 <nic_report_send_error>
    15a3:	8b 45 dc             	mov    -0x24(%ebp),%eax
    15a6:	e9 c6 fe ff ff       	jmp    1471 <rtl8139_tx_interrupt+0x61>
    15ab:	90                   	nop
    15ac:	8d 74 26 00          	lea    0x0(%esi,%eiz,1),%esi
    15b0:	c7 44 24 08 01 00 00 	movl   $0x1,0x8(%esp)
    15b7:	00 
    15b8:	c7 44 24 04 04 00 00 	movl   $0x4,0x4(%esp)
    15bf:	00 
    15c0:	89 34 24             	mov    %esi,(%esp)
    15c3:	89 45 dc             	mov    %eax,-0x24(%ebp)
    15c6:	e8 05 a1 00 00       	call   b6d0 <nic_report_send_error>
    15cb:	8b 45 dc             	mov    -0x24(%ebp),%eax
    15ce:	e9 9e fe ff ff       	jmp    1471 <rtl8139_tx_interrupt+0x61>
    15d3:	8d b6 00 00 00 00    	lea    0x0(%esi),%esi
    15d9:	8d bc 27 00 00 00 00 	lea    0x0(%edi,%eiz,1),%edi

000015e0 <rtl8139_send_frame>:
    15e0:	55                   	push   %ebp
    15e1:	89 e5                	mov    %esp,%ebp
    15e3:	57                   	push   %edi
    15e4:	56                   	push   %esi
    15e5:	53                   	push   %ebx
    15e6:	83 ec 2c             	sub    $0x2c,%esp
    15e9:	8b 75 08             	mov    0x8(%ebp),%esi
    15ec:	8b 45 0c             	mov    0xc(%ebp),%eax
    15ef:	89 45 e4             	mov    %eax,-0x1c(%ebp)
    15f2:	8b 5d 10             	mov    0x10(%ebp),%ebx
    15f5:	85 f6                	test   %esi,%esi
    15f7:	0f 84 43 01 00 00    	je     1740 <rtl8139_send_frame+0x160>
    15fd:	89 34 24             	mov    %esi,(%esp)
    1600:	e8 eb 9f 00 00       	call   b5f0 <nic_get_specific>
    1605:	89 c7                	mov    %eax,%edi
    1607:	85 c0                	test   %eax,%eax
    1609:	0f 84 4d 01 00 00    	je     175c <rtl8139_send_frame+0x17c>
    160f:	c7 44 24 04 56 dd 02 	movl   $0x2dd56,0x4(%esp)
    1616:	00 
    1617:	c7 04 24 04 00 00 00 	movl   $0x4,(%esp)
    161e:	e8 8d 48 00 00       	call   5eb0 <ddf_msg>
    1623:	81 fb 00 07 00 00    	cmp    $0x700,%ebx
    1629:	0f 87 a1 00 00 00    	ja     16d0 <rtl8139_send_frame+0xf0>
    162f:	8d 4f 54             	lea    0x54(%edi),%ecx
    1632:	89 0c 24             	mov    %ecx,(%esp)
    1635:	89 4d e0             	mov    %ecx,-0x20(%ebp)
    1638:	e8 c3 41 01 00       	call   15800 <fibril_mutex_lock>
    163d:	8b 57 28             	mov    0x28(%edi),%edx
    1640:	8d 42 fc             	lea    -0x4(%edx),%eax
    1643:	8b 4d e0             	mov    -0x20(%ebp),%ecx
    1646:	3b 47 2c             	cmp    0x2c(%edi),%eax
    1649:	0f 84 b9 00 00 00    	je     1708 <rtl8139_send_frame+0x128>
    164f:	89 d6                	mov    %edx,%esi
    1651:	42                   	inc    %edx
    1652:	83 e6 03             	and    $0x3,%esi
    1655:	89 57 28             	mov    %edx,0x28(%edi)
    1658:	89 0c 24             	mov    %ecx,(%esp)
    165b:	e8 c0 42 01 00       	call   15920 <fibril_mutex_unlock>
    1660:	8b 4f 04             	mov    0x4(%edi),%ecx
    1663:	8d 56 04             	lea    0x4(%esi),%edx
    1666:	8d 34 91             	lea    (%ecx,%edx,4),%esi
    1669:	8b 54 97 08          	mov    0x8(%edi,%edx,4),%edx
    166d:	89 34 24             	mov    %esi,(%esp)
    1670:	89 55 e0             	mov    %edx,-0x20(%ebp)
    1673:	e8 f8 d9 00 00       	call   f070 <pio_read_32>
    1678:	8b 55 e0             	mov    -0x20(%ebp),%edx
    167b:	f6 c4 20             	test   $0x20,%ah
    167e:	0f 84 f4 00 00 00    	je     1778 <rtl8139_send_frame+0x198>
    1684:	8b 45 e4             	mov    -0x1c(%ebp),%eax
    1687:	89 14 24             	mov    %edx,(%esp)
    168a:	89 5c 24 08          	mov    %ebx,0x8(%esp)
    168e:	89 44 24 04          	mov    %eax,0x4(%esp)
    1692:	e8 89 00 01 00       	call   11720 <memcpy>
    1697:	89 34 24             	mov    %esi,(%esp)
    169a:	e8 d1 d9 00 00       	call   f070 <pio_read_32>
    169f:	89 34 24             	mov    %esi,(%esp)
    16a2:	89 c7                	mov    %eax,%edi
    16a4:	81 e7 00 e0 ff ff    	and    $0xffffe000,%edi
    16aa:	09 df                	or     %ebx,%edi
    16ac:	89 7c 24 04          	mov    %edi,0x4(%esp)
    16b0:	e8 eb d8 00 00       	call   efa0 <pio_write_32>
    16b5:	81 e7 ff df ff ff    	and    $0xffffdfff,%edi
    16bb:	89 75 08             	mov    %esi,0x8(%ebp)
    16be:	89 7d 0c             	mov    %edi,0xc(%ebp)
    16c1:	83 c4 2c             	add    $0x2c,%esp
    16c4:	5b                   	pop    %ebx
    16c5:	5e                   	pop    %esi
    16c6:	5f                   	pop    %edi
    16c7:	5d                   	pop    %ebp
    16c8:	e9 d3 d8 00 00       	jmp    efa0 <pio_write_32>
    16cd:	8d 76 00             	lea    0x0(%esi),%esi
    16d0:	89 5c 24 08          	mov    %ebx,0x8(%esp)
    16d4:	c7 44 24 04 c4 de 02 	movl   $0x2dec4,0x4(%esp)
    16db:	00 
    16dc:	c7 04 24 01 00 00 00 	movl   $0x1,(%esp)
    16e3:	e8 c8 47 00 00       	call   5eb0 <ddf_msg>
    16e8:	c7 45 10 01 00 00 00 	movl   $0x1,0x10(%ebp)
    16ef:	c7 45 0c 06 00 00 00 	movl   $0x6,0xc(%ebp)
    16f6:	8b 47 78             	mov    0x78(%edi),%eax
    16f9:	89 45 08             	mov    %eax,0x8(%ebp)
    16fc:	83 c4 2c             	add    $0x2c,%esp
    16ff:	5b                   	pop    %ebx
    1700:	5e                   	pop    %esi
    1701:	5f                   	pop    %edi
    1702:	5d                   	pop    %ebp
    1703:	e9 c8 9f 00 00       	jmp    b6d0 <nic_report_send_error>
    1708:	89 34 24             	mov    %esi,(%esp)
    170b:	c7 44 24 04 01 00 00 	movl   $0x1,0x4(%esp)
    1712:	00 
    1713:	e8 a8 98 00 00       	call   afc0 <nic_set_tx_busy>
    1718:	8b 4d e0             	mov    -0x20(%ebp),%ecx
    171b:	89 0c 24             	mov    %ecx,(%esp)
    171e:	e8 fd 41 01 00       	call   15920 <fibril_mutex_unlock>
    1723:	89 75 08             	mov    %esi,0x8(%ebp)
    1726:	c7 45 10 01 00 00 00 	movl   $0x1,0x10(%ebp)
    172d:	c7 45 0c 00 00 00 00 	movl   $0x0,0xc(%ebp)
    1734:	83 c4 2c             	add    $0x2c,%esp
    1737:	5b                   	pop    %ebx
    1738:	5e                   	pop    %esi
    1739:	5f                   	pop    %edi
    173a:	5d                   	pop    %ebp
    173b:	e9 90 9f 00 00       	jmp    b6d0 <nic_report_send_error>
    1740:	c7 44 24 08 9e 01 00 	movl   $0x19e,0x8(%esp)
    1747:	00 
    1748:	c7 44 24 04 91 e4 02 	movl   $0x2e491,0x4(%esp)
    174f:	00 
    1750:	c7 04 24 15 dd 02 00 	movl   $0x2dd15,(%esp)
    1757:	e8 54 7f 02 00       	call   296b0 <assert_abort>
    175c:	c7 44 24 08 a1 01 00 	movl   $0x1a1,0x8(%esp)
    1763:	00 
    1764:	c7 44 24 04 91 e4 02 	movl   $0x2e491,0x4(%esp)
    176b:	00 
    176c:	c7 04 24 08 dd 02 00 	movl   $0x2dd08,(%esp)
    1773:	e8 38 7f 02 00       	call   296b0 <assert_abort>
    1778:	c7 44 24 08 c2 01 00 	movl   $0x1c2,0x8(%esp)
    177f:	00 
    1780:	c7 44 24 04 91 e4 02 	movl   $0x2e491,0x4(%esp)
    1787:	00 
    1788:	c7 04 24 64 dd 02 00 	movl   $0x2dd64,(%esp)
    178f:	e8 1c 7f 02 00       	call   296b0 <assert_abort>
    1794:	8d b6 00 00 00 00    	lea    0x0(%esi),%esi
    179a:	8d bf 00 00 00 00    	lea    0x0(%edi),%edi

000017a0 <rtl8139_defective_get_mode>:
    17a0:	55                   	push   %ebp
    17a1:	89 e5                	mov    %esp,%ebp
    17a3:	53                   	push   %ebx
    17a4:	83 ec 14             	sub    $0x14,%esp
    17a7:	8b 45 08             	mov    0x8(%ebp),%eax
    17aa:	8b 5d 0c             	mov    0xc(%ebp),%ebx
    17ad:	85 c0                	test   %eax,%eax
    17af:	74 50                	je     1801 <rtl8139_defective_get_mode+0x61>
    17b1:	85 db                	test   %ebx,%ebx
    17b3:	0f 84 80 00 00 00    	je     1839 <rtl8139_defective_get_mode+0x99>
    17b9:	89 04 24             	mov    %eax,(%esp)
    17bc:	e8 af 9e 00 00       	call   b670 <nic_get_from_ddf_fun>
    17c1:	89 04 24             	mov    %eax,(%esp)
    17c4:	e8 27 9e 00 00       	call   b5f0 <nic_get_specific>
    17c9:	85 c0                	test   %eax,%eax
    17cb:	74 50                	je     181d <rtl8139_defective_get_mode+0x7d>
    17cd:	c7 03 00 00 00 00    	movl   $0x0,(%ebx)
    17d3:	8a 50 3f             	mov    0x3f(%eax),%dl
    17d6:	83 e2 20             	and    $0x20,%edx
    17d9:	80 fa 01             	cmp    $0x1,%dl
    17dc:	19 c9                	sbb    %ecx,%ecx
    17de:	83 e1 f0             	and    $0xfffffff0,%ecx
    17e1:	83 c1 12             	add    $0x12,%ecx
    17e4:	80 fa 01             	cmp    $0x1,%dl
    17e7:	19 d2                	sbb    %edx,%edx
    17e9:	83 f2 ff             	xor    $0xffffffff,%edx
    17ec:	83 e2 10             	and    $0x10,%edx
    17ef:	89 13                	mov    %edx,(%ebx)
    17f1:	f6 40 3f 10          	testb  $0x10,0x3f(%eax)
    17f5:	74 02                	je     17f9 <rtl8139_defective_get_mode+0x59>
    17f7:	89 0b                	mov    %ecx,(%ebx)
    17f9:	83 c4 14             	add    $0x14,%esp
    17fc:	31 c0                	xor    %eax,%eax
    17fe:	5b                   	pop    %ebx
    17ff:	5d                   	pop    %ebp
    1800:	c3                   	ret    
    1801:	c7 44 24 08 ad 07 00 	movl   $0x7ad,0x8(%esp)
    1808:	00 
    1809:	c7 44 24 04 91 e4 02 	movl   $0x2e491,0x4(%esp)
    1810:	00 
    1811:	c7 04 24 f2 dc 02 00 	movl   $0x2dcf2,(%esp)
    1818:	e8 93 7e 02 00       	call   296b0 <assert_abort>
    181d:	c7 44 24 08 b1 07 00 	movl   $0x7b1,0x8(%esp)
    1824:	00 
    1825:	c7 44 24 04 91 e4 02 	movl   $0x2e491,0x4(%esp)
    182c:	00 
    182d:	c7 04 24 08 dd 02 00 	movl   $0x2dd08,(%esp)
    1834:	e8 77 7e 02 00       	call   296b0 <assert_abort>
    1839:	c7 44 24 08 ae 07 00 	movl   $0x7ae,0x8(%esp)
    1840:	00 
    1841:	c7 44 24 04 91 e4 02 	movl   $0x2e491,0x4(%esp)
    1848:	00 
    1849:	c7 04 24 7c dd 02 00 	movl   $0x2dd7c,(%esp)
    1850:	e8 5b 7e 02 00       	call   296b0 <assert_abort>
    1855:	8d 74 26 00          	lea    0x0(%esi,%eiz,1),%esi
    1859:	8d bc 27 00 00 00 00 	lea    0x0(%edi,%eiz,1),%edi

00001860 <rtl8139_broadcast_set>:
    1860:	55                   	push   %ebp
    1861:	89 e5                	mov    %esp,%ebp
    1863:	57                   	push   %edi
    1864:	56                   	push   %esi
    1865:	53                   	push   %ebx
    1866:	83 ec 1c             	sub    $0x1c,%esp
    1869:	8b 45 08             	mov    0x8(%ebp),%eax
    186c:	85 c0                	test   %eax,%eax
    186e:	0f 84 d9 00 00 00    	je     194d <rtl8139_broadcast_set+0xed>
    1874:	89 04 24             	mov    %eax,(%esp)
    1877:	e8 74 9d 00 00       	call   b5f0 <nic_get_specific>
    187c:	89 c6                	mov    %eax,%esi
    187e:	85 c0                	test   %eax,%eax
    1880:	0f 84 ab 00 00 00    	je     1931 <rtl8139_broadcast_set+0xd1>
    1886:	83 7d 0c 01          	cmpl   $0x1,0xc(%ebp)
    188a:	74 1c                	je     18a8 <rtl8139_broadcast_set+0x48>
    188c:	b8 f5 ff ff ff       	mov    $0xfffffff5,%eax
    1891:	83 7d 0c 02          	cmpl   $0x2,0xc(%ebp)
    1895:	0f 84 8d 00 00 00    	je     1928 <rtl8139_broadcast_set+0xc8>
    189b:	83 c4 1c             	add    $0x1c,%esp
    189e:	5b                   	pop    %ebx
    189f:	5e                   	pop    %esi
    18a0:	5f                   	pop    %edi
    18a1:	5d                   	pop    %ebp
    18a2:	c3                   	ret    
    18a3:	90                   	nop
    18a4:	8d 74 26 00          	lea    0x0(%esi,%eiz,1),%esi
    18a8:	c6 40 3e 00          	movb   $0x0,0x3e(%eax)
    18ac:	8d 7e 44             	lea    0x44(%esi),%edi
    18af:	89 3c 24             	mov    %edi,(%esp)
    18b2:	e8 49 3f 01 00       	call   15800 <fibril_mutex_lock>
    18b7:	8b 5e 38             	mov    0x38(%esi),%ebx
    18ba:	31 c0                	xor    %eax,%eax
    18bc:	80 cf 08             	or     $0x8,%bh
    18bf:	8a 46 3c             	mov    0x3c(%esi),%al
    18c2:	09 c3                	or     %eax,%ebx
    18c4:	31 c0                	xor    %eax,%eax
    18c6:	8a 46 3d             	mov    0x3d(%esi),%al
    18c9:	09 c3                	or     %eax,%ebx
    18cb:	31 c0                	xor    %eax,%eax
    18cd:	8a 46 3e             	mov    0x3e(%esi),%al
    18d0:	09 c3                	or     %eax,%ebx
    18d2:	31 c0                	xor    %eax,%eax
    18d4:	8a 46 3f             	mov    0x3f(%esi),%al
    18d7:	09 c3                	or     %eax,%ebx
    18d9:	8b 46 04             	mov    0x4(%esi),%eax
    18dc:	83 c0 44             	add    $0x44,%eax
    18df:	89 04 24             	mov    %eax,(%esp)
    18e2:	e8 89 d7 00 00       	call   f070 <pio_read_32>
    18e7:	89 5c 24 0c          	mov    %ebx,0xc(%esp)
    18eb:	89 44 24 08          	mov    %eax,0x8(%esp)
    18ef:	c7 44 24 04 81 dd 02 	movl   $0x2dd81,0x4(%esp)
    18f6:	00 
    18f7:	c7 04 24 04 00 00 00 	movl   $0x4,(%esp)
    18fe:	e8 ad 45 00 00       	call   5eb0 <ddf_msg>
    1903:	89 5c 24 04          	mov    %ebx,0x4(%esp)
    1907:	8b 46 04             	mov    0x4(%esi),%eax
    190a:	83 c0 44             	add    $0x44,%eax
    190d:	89 04 24             	mov    %eax,(%esp)
    1910:	e8 8b d6 00 00       	call   efa0 <pio_write_32>
    1915:	89 3c 24             	mov    %edi,(%esp)
    1918:	e8 03 40 01 00       	call   15920 <fibril_mutex_unlock>
    191d:	83 c4 1c             	add    $0x1c,%esp
    1920:	31 c0                	xor    %eax,%eax
    1922:	5b                   	pop    %ebx
    1923:	5e                   	pop    %esi
    1924:	5f                   	pop    %edi
    1925:	5d                   	pop    %ebp
    1926:	c3                   	ret    
    1927:	90                   	nop
    1928:	c6 46 3e 08          	movb   $0x8,0x3e(%esi)
    192c:	e9 7b ff ff ff       	jmp    18ac <rtl8139_broadcast_set+0x4c>
    1931:	c7 44 24 08 94 07 00 	movl   $0x794,0x8(%esp)
    1938:	00 
    1939:	c7 44 24 04 91 e4 02 	movl   $0x2e491,0x4(%esp)
    1940:	00 
    1941:	c7 04 24 08 dd 02 00 	movl   $0x2dd08,(%esp)
    1948:	e8 63 7d 02 00       	call   296b0 <assert_abort>
    194d:	c7 44 24 08 91 07 00 	movl   $0x791,0x8(%esp)
    1954:	00 
    1955:	c7 44 24 04 91 e4 02 	movl   $0x2e491,0x4(%esp)
    195c:	00 
    195d:	c7 04 24 15 dd 02 00 	movl   $0x2dd15,(%esp)
    1964:	e8 47 7d 02 00       	call   296b0 <assert_abort>
    1969:	8d b4 26 00 00 00 00 	lea    0x0(%esi,%eiz,1),%esi

00001970 <rtl8139_get_cable_state>:
    1970:	55                   	push   %ebp
    1971:	89 e5                	mov    %esp,%ebp
    1973:	53                   	push   %ebx
    1974:	83 ec 14             	sub    $0x14,%esp
    1977:	8b 45 08             	mov    0x8(%ebp),%eax
    197a:	8b 5d 0c             	mov    0xc(%ebp),%ebx
    197d:	85 c0                	test   %eax,%eax
    197f:	74 39                	je     19ba <rtl8139_get_cable_state+0x4a>
    1981:	85 db                	test   %ebx,%ebx
    1983:	74 6d                	je     19f2 <rtl8139_get_cable_state+0x82>
    1985:	89 04 24             	mov    %eax,(%esp)
    1988:	e8 e3 9c 00 00       	call   b670 <nic_get_from_ddf_fun>
    198d:	89 04 24             	mov    %eax,(%esp)
    1990:	e8 5b 9c 00 00       	call   b5f0 <nic_get_specific>
    1995:	85 c0                	test   %eax,%eax
    1997:	74 3d                	je     19d6 <rtl8139_get_cable_state+0x66>
    1999:	8b 40 04             	mov    0x4(%eax),%eax
    199c:	83 c0 74             	add    $0x74,%eax
    199f:	89 04 24             	mov    %eax,(%esp)
    19a2:	e8 89 d6 00 00       	call   f030 <pio_read_16>
    19a7:	c1 e0 1c             	shl    $0x1c,%eax
    19aa:	c1 f8 1f             	sar    $0x1f,%eax
    19ad:	83 c0 02             	add    $0x2,%eax
    19b0:	89 03                	mov    %eax,(%ebx)
    19b2:	83 c4 14             	add    $0x14,%esp
    19b5:	31 c0                	xor    %eax,%eax
    19b7:	5b                   	pop    %ebx
    19b8:	5d                   	pop    %ebp
    19b9:	c3                   	ret    
    19ba:	c7 44 24 08 a9 05 00 	movl   $0x5a9,0x8(%esp)
    19c1:	00 
    19c2:	c7 44 24 04 91 e4 02 	movl   $0x2e491,0x4(%esp)
    19c9:	00 
    19ca:	c7 04 24 f2 dc 02 00 	movl   $0x2dcf2,(%esp)
    19d1:	e8 da 7c 02 00       	call   296b0 <assert_abort>
    19d6:	c7 44 24 08 ad 05 00 	movl   $0x5ad,0x8(%esp)
    19dd:	00 
    19de:	c7 44 24 04 91 e4 02 	movl   $0x2e491,0x4(%esp)
    19e5:	00 
    19e6:	c7 04 24 08 dd 02 00 	movl   $0x2dd08,(%esp)
    19ed:	e8 be 7c 02 00       	call   296b0 <assert_abort>
    19f2:	c7 44 24 08 aa 05 00 	movl   $0x5aa,0x8(%esp)
    19f9:	00 
    19fa:	c7 44 24 04 91 e4 02 	movl   $0x2e491,0x4(%esp)
    1a01:	00 
    1a02:	c7 04 24 3c e8 02 00 	movl   $0x2e83c,(%esp)
    1a09:	e8 a2 7c 02 00       	call   296b0 <assert_abort>
    1a0e:	66 90                	xchg   %ax,%ax

00001a10 <rtl8139_poll_mode_change>:
    1a10:	55                   	push   %ebp
    1a11:	89 e5                	mov    %esp,%ebp
    1a13:	57                   	push   %edi
    1a14:	56                   	push   %esi
    1a15:	53                   	push   %ebx
    1a16:	83 ec 4c             	sub    $0x4c,%esp
    1a19:	8b 45 08             	mov    0x8(%ebp),%eax
    1a1c:	85 c0                	test   %eax,%eax
    1a1e:	0f 84 4e 01 00 00    	je     1b72 <rtl8139_poll_mode_change+0x162>
    1a24:	89 04 24             	mov    %eax,(%esp)
    1a27:	e8 c4 9b 00 00       	call   b5f0 <nic_get_specific>
    1a2c:	89 c3                	mov    %eax,%ebx
    1a2e:	85 c0                	test   %eax,%eax
    1a30:	0f 84 58 01 00 00    	je     1b8e <rtl8139_poll_mode_change+0x17e>
    1a36:	8d 70 44             	lea    0x44(%eax),%esi
    1a39:	89 34 24             	mov    %esi,(%esp)
    1a3c:	e8 bf 3d 01 00       	call   15800 <fibril_mutex_lock>
    1a41:	83 7d 0c 01          	cmpl   $0x1,0xc(%ebp)
    1a45:	74 51                	je     1a98 <rtl8139_poll_mode_change+0x88>
    1a47:	72 3f                	jb     1a88 <rtl8139_poll_mode_change+0x78>
    1a49:	bf f5 ff ff ff       	mov    $0xfffffff5,%edi
    1a4e:	83 7d 0c 02          	cmpl   $0x2,0xc(%ebp)
    1a52:	74 54                	je     1aa8 <rtl8139_poll_mode_change+0x98>
    1a54:	66 8b 43 0c          	mov    0xc(%ebx),%ax
    1a58:	25 ff ff 00 00       	and    $0xffff,%eax
    1a5d:	89 44 24 04          	mov    %eax,0x4(%esp)
    1a61:	8b 43 04             	mov    0x4(%ebx),%eax
    1a64:	83 c0 3c             	add    $0x3c,%eax
    1a67:	89 04 24             	mov    %eax,(%esp)
    1a6a:	e8 e1 d4 00 00       	call   ef50 <pio_write_16>
    1a6f:	89 34 24             	mov    %esi,(%esp)
    1a72:	e8 a9 3e 01 00       	call   15920 <fibril_mutex_unlock>
    1a77:	83 c4 4c             	add    $0x4c,%esp
    1a7a:	89 f8                	mov    %edi,%eax
    1a7c:	5b                   	pop    %ebx
    1a7d:	5e                   	pop    %esi
    1a7e:	5f                   	pop    %edi
    1a7f:	5d                   	pop    %ebp
    1a80:	c3                   	ret    
    1a81:	8d b4 26 00 00 00 00 	lea    0x0(%esi,%eiz,1),%esi
    1a88:	66 c7 43 0c ff ff    	movw   $0xffff,0xc(%ebx)
    1a8e:	31 ff                	xor    %edi,%edi
    1a90:	eb c2                	jmp    1a54 <rtl8139_poll_mode_change+0x44>
    1a92:	8d b6 00 00 00 00    	lea    0x0(%esi),%esi
    1a98:	66 c7 43 0c 00 00    	movw   $0x0,0xc(%ebx)
    1a9e:	31 ff                	xor    %edi,%edi
    1aa0:	eb b2                	jmp    1a54 <rtl8139_poll_mode_change+0x44>
    1aa2:	8d b6 00 00 00 00    	lea    0x0(%esi),%esi
    1aa8:	8b 7d 10             	mov    0x10(%ebp),%edi
    1aab:	85 ff                	test   %edi,%edi
    1aad:	0f 84 f7 00 00 00    	je     1baa <rtl8139_poll_mode_change+0x19a>
    1ab3:	8b 45 10             	mov    0x10(%ebp),%eax
    1ab6:	c7 44 24 04 e8 80 00 	movl   $0x80e8,0x4(%esp)
    1abd:	00 
    1abe:	89 44 24 08          	mov    %eax,0x8(%esp)
    1ac2:	8d 45 d4             	lea    -0x2c(%ebp),%eax
    1ac5:	89 04 24             	mov    %eax,(%esp)
    1ac8:	e8 b3 2d 00 00       	call   4880 <rtl8139_timer_act_init>
    1acd:	89 c7                	mov    %eax,%edi
    1acf:	85 c0                	test   %eax,%eax
    1ad1:	75 81                	jne    1a54 <rtl8139_poll_mode_change+0x44>
    1ad3:	66 c7 43 0c 00 00    	movw   $0x0,0xc(%ebx)
    1ad9:	c7 44 24 04 00 00 00 	movl   $0x0,0x4(%esp)
    1ae0:	00 
    1ae1:	8b 43 04             	mov    0x4(%ebx),%eax
    1ae4:	83 c0 3c             	add    $0x3c,%eax
    1ae7:	89 04 24             	mov    %eax,(%esp)
    1aea:	e8 61 d4 00 00       	call   ef50 <pio_write_16>
    1aef:	8b 45 d4             	mov    -0x2c(%ebp),%eax
    1af2:	89 43 64             	mov    %eax,0x64(%ebx)
    1af5:	8b 45 d8             	mov    -0x28(%ebp),%eax
    1af8:	89 43 68             	mov    %eax,0x68(%ebx)
    1afb:	8b 45 dc             	mov    -0x24(%ebp),%eax
    1afe:	89 43 6c             	mov    %eax,0x6c(%ebx)
    1b01:	8b 45 e0             	mov    -0x20(%ebp),%eax
    1b04:	89 43 70             	mov    %eax,0x70(%ebx)
    1b07:	8b 45 e4             	mov    -0x1c(%ebp),%eax
    1b0a:	89 43 74             	mov    %eax,0x74(%ebx)
    1b0d:	66 c7 43 0c 00 40    	movw   $0x4000,0xc(%ebx)
    1b13:	c7 44 24 04 0a 00 00 	movl   $0xa,0x4(%esp)
    1b1a:	00 
    1b1b:	8b 43 04             	mov    0x4(%ebx),%eax
    1b1e:	83 c0 54             	add    $0x54,%eax
    1b21:	89 04 24             	mov    %eax,(%esp)
    1b24:	e8 77 d4 00 00       	call   efa0 <pio_write_32>
    1b29:	c7 44 24 04 00 00 00 	movl   $0x0,0x4(%esp)
    1b30:	00 
    1b31:	8b 43 04             	mov    0x4(%ebx),%eax
    1b34:	83 c0 48             	add    $0x48,%eax
    1b37:	89 04 24             	mov    %eax,(%esp)
    1b3a:	e8 61 d4 00 00       	call   efa0 <pio_write_32>
    1b3f:	8b 43 64             	mov    0x64(%ebx),%eax
    1b42:	89 44 24 10          	mov    %eax,0x10(%esp)
    1b46:	8b 43 6c             	mov    0x6c(%ebx),%eax
    1b49:	89 44 24 0c          	mov    %eax,0xc(%esp)
    1b4d:	8b 43 0c             	mov    0xc(%ebx),%eax
    1b50:	c7 44 24 04 ec de 02 	movl   $0x2deec,0x4(%esp)
    1b57:	00 
    1b58:	25 ff ff 00 00       	and    $0xffff,%eax
    1b5d:	c7 04 24 04 00 00 00 	movl   $0x4,(%esp)
    1b64:	89 44 24 08          	mov    %eax,0x8(%esp)
    1b68:	e8 43 43 00 00       	call   5eb0 <ddf_msg>
    1b6d:	e9 e2 fe ff ff       	jmp    1a54 <rtl8139_poll_mode_change+0x44>
    1b72:	c7 44 24 08 36 08 00 	movl   $0x836,0x8(%esp)
    1b79:	00 
    1b7a:	c7 44 24 04 91 e4 02 	movl   $0x2e491,0x4(%esp)
    1b81:	00 
    1b82:	c7 04 24 15 dd 02 00 	movl   $0x2dd15,(%esp)
    1b89:	e8 22 7b 02 00       	call   296b0 <assert_abort>
    1b8e:	c7 44 24 08 3a 08 00 	movl   $0x83a,0x8(%esp)
    1b95:	00 
    1b96:	c7 44 24 04 91 e4 02 	movl   $0x2e491,0x4(%esp)
    1b9d:	00 
    1b9e:	c7 04 24 08 dd 02 00 	movl   $0x2dd08,(%esp)
    1ba5:	e8 06 7b 02 00       	call   296b0 <assert_abort>
    1baa:	c7 44 24 08 46 08 00 	movl   $0x846,0x8(%esp)
    1bb1:	00 
    1bb2:	c7 44 24 04 91 e4 02 	movl   $0x2e491,0x4(%esp)
    1bb9:	00 
    1bba:	c7 04 24 99 dd 02 00 	movl   $0x2dd99,(%esp)
    1bc1:	e8 ea 7a 02 00       	call   296b0 <assert_abort>
    1bc6:	8d 76 00             	lea    0x0(%esi),%esi
    1bc9:	8d bc 27 00 00 00 00 	lea    0x0(%edi,%eiz,1),%edi

00001bd0 <rtl8139_autoneg_restart>:
    1bd0:	55                   	push   %ebp
    1bd1:	89 e5                	mov    %esp,%ebp
    1bd3:	57                   	push   %edi
    1bd4:	56                   	push   %esi
    1bd5:	53                   	push   %ebx
    1bd6:	83 ec 1c             	sub    $0x1c,%esp
    1bd9:	8b 45 08             	mov    0x8(%ebp),%eax
    1bdc:	85 c0                	test   %eax,%eax
    1bde:	74 71                	je     1c51 <rtl8139_autoneg_restart+0x81>
    1be0:	89 04 24             	mov    %eax,(%esp)
    1be3:	e8 88 9a 00 00       	call   b670 <nic_get_from_ddf_fun>
    1be8:	89 04 24             	mov    %eax,(%esp)
    1beb:	e8 00 9a 00 00       	call   b5f0 <nic_get_specific>
    1bf0:	89 c3                	mov    %eax,%ebx
    1bf2:	85 c0                	test   %eax,%eax
    1bf4:	74 77                	je     1c6d <rtl8139_autoneg_restart+0x9d>
    1bf6:	8b 40 04             	mov    0x4(%eax),%eax
    1bf9:	8d 73 50             	lea    0x50(%ebx),%esi
    1bfc:	83 c0 62             	add    $0x62,%eax
    1bff:	89 04 24             	mov    %eax,(%esp)
    1c02:	e8 29 d4 00 00       	call   f030 <pio_read_16>
    1c07:	89 34 24             	mov    %esi,(%esp)
    1c0a:	89 c7                	mov    %eax,%edi
    1c0c:	c7 44 24 04 c0 00 00 	movl   $0xc0,0x4(%esp)
    1c13:	00 
    1c14:	81 cf 00 12 00 00    	or     $0x1200,%edi
    1c1a:	e8 e1 d2 00 00       	call   ef00 <pio_write_8>
    1c1f:	81 e7 ff ff 00 00    	and    $0xffff,%edi
    1c25:	89 7c 24 04          	mov    %edi,0x4(%esp)
    1c29:	8b 43 04             	mov    0x4(%ebx),%eax
    1c2c:	83 c0 62             	add    $0x62,%eax
    1c2f:	89 04 24             	mov    %eax,(%esp)
    1c32:	e8 19 d3 00 00       	call   ef50 <pio_write_16>
    1c37:	89 34 24             	mov    %esi,(%esp)
    1c3a:	c7 44 24 04 00 00 00 	movl   $0x0,0x4(%esp)
    1c41:	00 
    1c42:	e8 b9 d2 00 00       	call   ef00 <pio_write_8>
    1c47:	83 c4 1c             	add    $0x1c,%esp
    1c4a:	31 c0                	xor    %eax,%eax
    1c4c:	5b                   	pop    %ebx
    1c4d:	5e                   	pop    %esi
    1c4e:	5f                   	pop    %edi
    1c4f:	5d                   	pop    %ebp
    1c50:	c3                   	ret    
    1c51:	c7 44 24 08 fc 06 00 	movl   $0x6fc,0x8(%esp)
    1c58:	00 
    1c59:	c7 44 24 04 91 e4 02 	movl   $0x2e491,0x4(%esp)
    1c60:	00 
    1c61:	c7 04 24 f2 dc 02 00 	movl   $0x2dcf2,(%esp)
    1c68:	e8 43 7a 02 00       	call   296b0 <assert_abort>
    1c6d:	c7 44 24 08 ff 06 00 	movl   $0x6ff,0x8(%esp)
    1c74:	00 
    1c75:	c7 44 24 04 91 e4 02 	movl   $0x2e491,0x4(%esp)
    1c7c:	00 
    1c7d:	c7 04 24 08 dd 02 00 	movl   $0x2dd08,(%esp)
    1c84:	e8 27 7a 02 00       	call   296b0 <assert_abort>
    1c89:	8d b4 26 00 00 00 00 	lea    0x0(%esi,%eiz,1),%esi

00001c90 <rtl8139_autoneg_disable>:
    1c90:	55                   	push   %ebp
    1c91:	89 e5                	mov    %esp,%ebp
    1c93:	56                   	push   %esi
    1c94:	53                   	push   %ebx
    1c95:	83 ec 10             	sub    $0x10,%esp
    1c98:	8b 45 08             	mov    0x8(%ebp),%eax
    1c9b:	85 c0                	test   %eax,%eax
    1c9d:	74 73                	je     1d12 <rtl8139_autoneg_disable+0x82>
    1c9f:	89 04 24             	mov    %eax,(%esp)
    1ca2:	e8 c9 99 00 00       	call   b670 <nic_get_from_ddf_fun>
    1ca7:	89 04 24             	mov    %eax,(%esp)
    1caa:	e8 41 99 00 00       	call   b5f0 <nic_get_specific>
    1caf:	89 c3                	mov    %eax,%ebx
    1cb1:	85 c0                	test   %eax,%eax
    1cb3:	74 79                	je     1d2e <rtl8139_autoneg_disable+0x9e>
    1cb5:	8b 40 04             	mov    0x4(%eax),%eax
    1cb8:	83 c0 62             	add    $0x62,%eax
    1cbb:	89 04 24             	mov    %eax,(%esp)
    1cbe:	e8 6d d3 00 00       	call   f030 <pio_read_16>
    1cc3:	c7 44 24 04 c0 00 00 	movl   $0xc0,0x4(%esp)
    1cca:	00 
    1ccb:	89 c6                	mov    %eax,%esi
    1ccd:	8b 43 04             	mov    0x4(%ebx),%eax
    1cd0:	83 c0 50             	add    $0x50,%eax
    1cd3:	81 e6 ff ef 00 00    	and    $0xefff,%esi
    1cd9:	89 04 24             	mov    %eax,(%esp)
    1cdc:	e8 1f d2 00 00       	call   ef00 <pio_write_8>
    1ce1:	89 74 24 04          	mov    %esi,0x4(%esp)
    1ce5:	8b 43 04             	mov    0x4(%ebx),%eax
    1ce8:	83 c0 62             	add    $0x62,%eax
    1ceb:	89 04 24             	mov    %eax,(%esp)
    1cee:	e8 5d d2 00 00       	call   ef50 <pio_write_16>
    1cf3:	c7 44 24 04 00 00 00 	movl   $0x0,0x4(%esp)
    1cfa:	00 
    1cfb:	8b 43 04             	mov    0x4(%ebx),%eax
    1cfe:	83 c0 50             	add    $0x50,%eax
    1d01:	89 04 24             	mov    %eax,(%esp)
    1d04:	e8 f7 d1 00 00       	call   ef00 <pio_write_8>
    1d09:	83 c4 10             	add    $0x10,%esp
    1d0c:	31 c0                	xor    %eax,%eax
    1d0e:	5b                   	pop    %ebx
    1d0f:	5e                   	pop    %esi
    1d10:	5d                   	pop    %ebp
    1d11:	c3                   	ret    
    1d12:	c7 44 24 08 a4 06 00 	movl   $0x6a4,0x8(%esp)
    1d19:	00 
    1d1a:	c7 44 24 04 91 e4 02 	movl   $0x2e491,0x4(%esp)
    1d21:	00 
    1d22:	c7 04 24 f2 dc 02 00 	movl   $0x2dcf2,(%esp)
    1d29:	e8 82 79 02 00       	call   296b0 <assert_abort>
    1d2e:	c7 44 24 08 a7 06 00 	movl   $0x6a7,0x8(%esp)
    1d35:	00 
    1d36:	c7 44 24 04 91 e4 02 	movl   $0x2e491,0x4(%esp)
    1d3d:	00 
    1d3e:	c7 04 24 08 dd 02 00 	movl   $0x2dd08,(%esp)
    1d45:	e8 66 79 02 00       	call   296b0 <assert_abort>
    1d4a:	8d b6 00 00 00 00    	lea    0x0(%esi),%esi

00001d50 <rtl8139_autoneg_enable>:
    1d50:	55                   	push   %ebp
    1d51:	89 e5                	mov    %esp,%ebp
    1d53:	57                   	push   %edi
    1d54:	56                   	push   %esi
    1d55:	53                   	push   %ebx
    1d56:	83 ec 2c             	sub    $0x2c,%esp
    1d59:	8b 45 08             	mov    0x8(%ebp),%eax
    1d5c:	8b 75 0c             	mov    0xc(%ebp),%esi
    1d5f:	85 c0                	test   %eax,%eax
    1d61:	0f 84 3e 01 00 00    	je     1ea5 <rtl8139_autoneg_enable+0x155>
    1d67:	89 04 24             	mov    %eax,(%esp)
    1d6a:	e8 01 99 00 00       	call   b670 <nic_get_from_ddf_fun>
    1d6f:	89 04 24             	mov    %eax,(%esp)
    1d72:	e8 79 98 00 00       	call   b5f0 <nic_get_specific>
    1d77:	89 c3                	mov    %eax,%ebx
    1d79:	85 c0                	test   %eax,%eax
    1d7b:	0f 84 08 01 00 00    	je     1e89 <rtl8139_autoneg_enable+0x139>
    1d81:	85 f6                	test   %esi,%esi
    1d83:	0f 85 c3 00 00 00    	jne    1e4c <rtl8139_autoneg_enable+0xfc>
    1d89:	c7 45 e4 00 00 00 10 	movl   $0x10000000,-0x1c(%ebp)
    1d90:	b8 04 00 00 00       	mov    $0x4,%eax
    1d95:	ba 20 00 00 00       	mov    $0x20,%edx
    1d9a:	b9 01 00 00 00       	mov    $0x1,%ecx
    1d9f:	bf 61 00 00 00       	mov    $0x61,%edi
    1da4:	be 41 00 00 00       	mov    $0x41,%esi
    1da9:	85 c9                	test   %ecx,%ecx
    1dab:	74 02                	je     1daf <rtl8139_autoneg_enable+0x5f>
    1dad:	89 fe                	mov    %edi,%esi
    1daf:	85 d2                	test   %edx,%edx
    1db1:	74 06                	je     1db9 <rtl8139_autoneg_enable+0x69>
    1db3:	81 ce 00 01 00 00    	or     $0x100,%esi
    1db9:	85 c0                	test   %eax,%eax
    1dbb:	74 06                	je     1dc3 <rtl8139_autoneg_enable+0x73>
    1dbd:	81 ce 80 00 00 00    	or     $0x80,%esi
    1dc3:	8b 45 e4             	mov    -0x1c(%ebp),%eax
    1dc6:	85 c0                	test   %eax,%eax
    1dc8:	74 06                	je     1dd0 <rtl8139_autoneg_enable+0x80>
    1dca:	81 ce 00 04 00 00    	or     $0x400,%esi
    1dd0:	8b 43 04             	mov    0x4(%ebx),%eax
    1dd3:	81 e6 ff ff 00 00    	and    $0xffff,%esi
    1dd9:	83 c0 62             	add    $0x62,%eax
    1ddc:	89 04 24             	mov    %eax,(%esp)
    1ddf:	e8 4c d2 00 00       	call   f030 <pio_read_16>
    1de4:	89 74 24 04          	mov    %esi,0x4(%esp)
    1de8:	89 c7                	mov    %eax,%edi
    1dea:	8b 43 04             	mov    0x4(%ebx),%eax
    1ded:	83 c0 66             	add    $0x66,%eax
    1df0:	81 cf 00 10 00 00    	or     $0x1000,%edi
    1df6:	89 04 24             	mov    %eax,(%esp)
    1df9:	81 e7 ff ff 00 00    	and    $0xffff,%edi
    1dff:	e8 4c d1 00 00       	call   ef50 <pio_write_16>
    1e04:	c7 44 24 04 c0 00 00 	movl   $0xc0,0x4(%esp)
    1e0b:	00 
    1e0c:	8b 43 04             	mov    0x4(%ebx),%eax
    1e0f:	83 c0 50             	add    $0x50,%eax
    1e12:	89 04 24             	mov    %eax,(%esp)
    1e15:	e8 e6 d0 00 00       	call   ef00 <pio_write_8>
    1e1a:	89 7c 24 04          	mov    %edi,0x4(%esp)
    1e1e:	8b 43 04             	mov    0x4(%ebx),%eax
    1e21:	83 c0 62             	add    $0x62,%eax
    1e24:	89 04 24             	mov    %eax,(%esp)
    1e27:	e8 24 d1 00 00       	call   ef50 <pio_write_16>
    1e2c:	c7 44 24 04 00 00 00 	movl   $0x0,0x4(%esp)
    1e33:	00 
    1e34:	8b 43 04             	mov    0x4(%ebx),%eax
    1e37:	83 c0 50             	add    $0x50,%eax
    1e3a:	89 04 24             	mov    %eax,(%esp)
    1e3d:	e8 be d0 00 00       	call   ef00 <pio_write_8>
    1e42:	31 c0                	xor    %eax,%eax
    1e44:	83 c4 2c             	add    $0x2c,%esp
    1e47:	5b                   	pop    %ebx
    1e48:	5e                   	pop    %esi
    1e49:	5f                   	pop    %edi
    1e4a:	5d                   	pop    %ebp
    1e4b:	c3                   	ret    
    1e4c:	89 f0                	mov    %esi,%eax
    1e4e:	0d 27 00 00 10       	or     $0x10000027,%eax
    1e53:	3d 27 00 00 10       	cmp    $0x10000027,%eax
    1e58:	75 75                	jne    1ecf <rtl8139_autoneg_enable+0x17f>
    1e5a:	89 f1                	mov    %esi,%ecx
    1e5c:	89 f2                	mov    %esi,%edx
    1e5e:	89 f0                	mov    %esi,%eax
    1e60:	83 e1 01             	and    $0x1,%ecx
    1e63:	83 e2 20             	and    $0x20,%edx
    1e66:	83 e0 04             	and    $0x4,%eax
    1e69:	f7 c6 02 00 00 00    	test   $0x2,%esi
    1e6f:	75 50                	jne    1ec1 <rtl8139_autoneg_enable+0x171>
    1e71:	81 e6 00 00 00 10    	and    $0x10000000,%esi
    1e77:	bf 21 00 00 00       	mov    $0x21,%edi
    1e7c:	89 75 e4             	mov    %esi,-0x1c(%ebp)
    1e7f:	be 01 00 00 00       	mov    $0x1,%esi
    1e84:	e9 20 ff ff ff       	jmp    1da9 <rtl8139_autoneg_enable+0x59>
    1e89:	c7 44 24 08 79 06 00 	movl   $0x679,0x8(%esp)
    1e90:	00 
    1e91:	c7 44 24 04 91 e4 02 	movl   $0x2e491,0x4(%esp)
    1e98:	00 
    1e99:	c7 04 24 08 dd 02 00 	movl   $0x2dd08,(%esp)
    1ea0:	e8 0b 78 02 00       	call   296b0 <assert_abort>
    1ea5:	c7 44 24 08 76 06 00 	movl   $0x676,0x8(%esp)
    1eac:	00 
    1ead:	c7 44 24 04 91 e4 02 	movl   $0x2e491,0x4(%esp)
    1eb4:	00 
    1eb5:	c7 04 24 f2 dc 02 00 	movl   $0x2dcf2,(%esp)
    1ebc:	e8 ef 77 02 00       	call   296b0 <assert_abort>
    1ec1:	81 e6 00 00 00 10    	and    $0x10000000,%esi
    1ec7:	89 75 e4             	mov    %esi,-0x1c(%ebp)
    1eca:	e9 d0 fe ff ff       	jmp    1d9f <rtl8139_autoneg_enable+0x4f>
    1ecf:	b8 f2 ff ff ff       	mov    $0xfffffff2,%eax
    1ed4:	e9 6b ff ff ff       	jmp    1e44 <rtl8139_autoneg_enable+0xf4>
    1ed9:	8d b4 26 00 00 00 00 	lea    0x0(%esi,%eiz,1),%esi

00001ee0 <rtl8139_set_operation_mode>:
    1ee0:	55                   	push   %ebp
    1ee1:	89 e5                	mov    %esp,%ebp
    1ee3:	56                   	push   %esi
    1ee4:	53                   	push   %ebx
    1ee5:	83 ec 10             	sub    $0x10,%esp
    1ee8:	8b 45 08             	mov    0x8(%ebp),%eax
    1eeb:	8b 75 10             	mov    0x10(%ebp),%esi
    1eee:	85 c0                	test   %eax,%eax
    1ef0:	0f 84 03 01 00 00    	je     1ff9 <rtl8139_set_operation_mode+0x119>
    1ef6:	89 04 24             	mov    %eax,(%esp)
    1ef9:	e8 72 97 00 00       	call   b670 <nic_get_from_ddf_fun>
    1efe:	89 04 24             	mov    %eax,(%esp)
    1f01:	e8 ea 96 00 00       	call   b5f0 <nic_get_specific>
    1f06:	89 c3                	mov    %eax,%ebx
    1f08:	85 c0                	test   %eax,%eax
    1f0a:	0f 84 cd 00 00 00    	je     1fdd <rtl8139_set_operation_mode+0xfd>
    1f10:	83 7d 0c 64          	cmpl   $0x64,0xc(%ebp)
    1f14:	0f 85 86 00 00 00    	jne    1fa0 <rtl8139_set_operation_mode+0xc0>
    1f1a:	8d 46 ff             	lea    -0x1(%esi),%eax
    1f1d:	83 f8 01             	cmp    $0x1,%eax
    1f20:	0f 87 8a 00 00 00    	ja     1fb0 <rtl8139_set_operation_mode+0xd0>
    1f26:	8b 43 04             	mov    0x4(%ebx),%eax
    1f29:	83 c0 62             	add    $0x62,%eax
    1f2c:	89 04 24             	mov    %eax,(%esp)
    1f2f:	e8 fc d0 00 00       	call   f030 <pio_read_16>
    1f34:	89 c2                	mov    %eax,%edx
    1f36:	80 e6 ee             	and    $0xee,%dh
    1f39:	4e                   	dec    %esi
    1f3a:	0f 84 90 00 00 00    	je     1fd0 <rtl8139_set_operation_mode+0xf0>
    1f40:	89 d6                	mov    %edx,%esi
    1f42:	81 e6 ff df ff ff    	and    $0xffffdfff,%esi
    1f48:	83 7d 0c 64          	cmpl   $0x64,0xc(%ebp)
    1f4c:	74 72                	je     1fc0 <rtl8139_set_operation_mode+0xe0>
    1f4e:	c7 44 24 04 c0 00 00 	movl   $0xc0,0x4(%esp)
    1f55:	00 
    1f56:	81 e6 ff ff 00 00    	and    $0xffff,%esi
    1f5c:	8b 43 04             	mov    0x4(%ebx),%eax
    1f5f:	83 c0 50             	add    $0x50,%eax
    1f62:	89 04 24             	mov    %eax,(%esp)
    1f65:	e8 96 cf 00 00       	call   ef00 <pio_write_8>
    1f6a:	89 74 24 04          	mov    %esi,0x4(%esp)
    1f6e:	8b 43 04             	mov    0x4(%ebx),%eax
    1f71:	83 c0 62             	add    $0x62,%eax
    1f74:	89 04 24             	mov    %eax,(%esp)
    1f77:	e8 d4 cf 00 00       	call   ef50 <pio_write_16>
    1f7c:	c7 44 24 04 00 00 00 	movl   $0x0,0x4(%esp)
    1f83:	00 
    1f84:	8b 43 04             	mov    0x4(%ebx),%eax
    1f87:	83 c0 50             	add    $0x50,%eax
    1f8a:	89 04 24             	mov    %eax,(%esp)
    1f8d:	e8 6e cf 00 00       	call   ef00 <pio_write_8>
    1f92:	83 c4 10             	add    $0x10,%esp
    1f95:	31 c0                	xor    %eax,%eax
    1f97:	5b                   	pop    %ebx
    1f98:	5e                   	pop    %esi
    1f99:	5d                   	pop    %ebp
    1f9a:	c3                   	ret    
    1f9b:	90                   	nop
    1f9c:	8d 74 26 00          	lea    0x0(%esi,%eiz,1),%esi
    1fa0:	83 7d 0c 0a          	cmpl   $0xa,0xc(%ebp)
    1fa4:	0f 84 70 ff ff ff    	je     1f1a <rtl8139_set_operation_mode+0x3a>
    1faa:	8d b6 00 00 00 00    	lea    0x0(%esi),%esi
    1fb0:	83 c4 10             	add    $0x10,%esp
    1fb3:	b8 f2 ff ff ff       	mov    $0xfffffff2,%eax
    1fb8:	5b                   	pop    %ebx
    1fb9:	5e                   	pop    %esi
    1fba:	5d                   	pop    %ebp
    1fbb:	c3                   	ret    
    1fbc:	8d 74 26 00          	lea    0x0(%esi,%eiz,1),%esi
    1fc0:	89 d6                	mov    %edx,%esi
    1fc2:	81 ce 00 20 00 00    	or     $0x2000,%esi
    1fc8:	eb 84                	jmp    1f4e <rtl8139_set_operation_mode+0x6e>
    1fca:	8d b6 00 00 00 00    	lea    0x0(%esi),%esi
    1fd0:	89 c2                	mov    %eax,%edx
    1fd2:	80 e6 ef             	and    $0xef,%dh
    1fd5:	80 ce 01             	or     $0x1,%dh
    1fd8:	e9 63 ff ff ff       	jmp    1f40 <rtl8139_set_operation_mode+0x60>
    1fdd:	c7 44 24 08 4e 06 00 	movl   $0x64e,0x8(%esp)
    1fe4:	00 
    1fe5:	c7 44 24 04 91 e4 02 	movl   $0x2e491,0x4(%esp)
    1fec:	00 
    1fed:	c7 04 24 08 dd 02 00 	movl   $0x2dd08,(%esp)
    1ff4:	e8 b7 76 02 00       	call   296b0 <assert_abort>
    1ff9:	c7 44 24 08 4b 06 00 	movl   $0x64b,0x8(%esp)
    2000:	00 
    2001:	c7 44 24 04 91 e4 02 	movl   $0x2e491,0x4(%esp)
    2008:	00 
    2009:	c7 04 24 f2 dc 02 00 	movl   $0x2dcf2,(%esp)
    2010:	e8 9b 76 02 00       	call   296b0 <assert_abort>
    2015:	8d 74 26 00          	lea    0x0(%esi,%eiz,1),%esi
    2019:	8d bc 27 00 00 00 00 	lea    0x0(%edi,%eiz,1),%edi

00002020 <rtl8139_set_addr>:
    2020:	55                   	push   %ebp
    2021:	89 e5                	mov    %esp,%ebp
    2023:	57                   	push   %edi
    2024:	56                   	push   %esi
    2025:	53                   	push   %ebx
    2026:	83 ec 2c             	sub    $0x2c,%esp
    2029:	8b 45 08             	mov    0x8(%ebp),%eax
    202c:	85 c0                	test   %eax,%eax
    202e:	0f 84 1c 01 00 00    	je     2150 <rtl8139_set_addr+0x130>
    2034:	8b 55 0c             	mov    0xc(%ebp),%edx
    2037:	85 d2                	test   %edx,%edx
    2039:	0f 84 f5 00 00 00    	je     2134 <rtl8139_set_addr+0x114>
    203f:	89 04 24             	mov    %eax,(%esp)
    2042:	e8 29 96 00 00       	call   b670 <nic_get_from_ddf_fun>
    2047:	89 04 24             	mov    %eax,(%esp)
    204a:	89 c3                	mov    %eax,%ebx
    204c:	e8 9f 95 00 00       	call   b5f0 <nic_get_specific>
    2051:	89 c6                	mov    %eax,%esi
    2053:	85 c0                	test   %eax,%eax
    2055:	0f 84 bd 00 00 00    	je     2118 <rtl8139_set_addr+0xf8>
    205b:	8d 50 54             	lea    0x54(%eax),%edx
    205e:	8d 7e 44             	lea    0x44(%esi),%edi
    2061:	89 14 24             	mov    %edx,(%esp)
    2064:	89 55 e4             	mov    %edx,-0x1c(%ebp)
    2067:	e8 94 37 01 00       	call   15800 <fibril_mutex_lock>
    206c:	89 3c 24             	mov    %edi,(%esp)
    206f:	e8 8c 37 01 00       	call   15800 <fibril_mutex_lock>
    2074:	8b 55 0c             	mov    0xc(%ebp),%edx
    2077:	89 54 24 04          	mov    %edx,0x4(%esp)
    207b:	89 1c 24             	mov    %ebx,(%esp)
    207e:	e8 6d 8d 00 00       	call   adf0 <nic_report_address>
    2083:	85 c0                	test   %eax,%eax
    2085:	0f 85 85 00 00 00    	jne    2110 <rtl8139_set_addr+0xf0>
    208b:	c7 44 24 04 c0 00 00 	movl   $0xc0,0x4(%esp)
    2092:	00 
    2093:	8b 4e 04             	mov    0x4(%esi),%ecx
    2096:	89 45 e0             	mov    %eax,-0x20(%ebp)
    2099:	83 c1 50             	add    $0x50,%ecx
    209c:	89 0c 24             	mov    %ecx,(%esp)
    209f:	e8 5c ce 00 00       	call   ef00 <pio_write_8>
    20a4:	8b 55 0c             	mov    0xc(%ebp),%edx
    20a7:	8b 0a                	mov    (%edx),%ecx
    20a9:	89 4c 24 04          	mov    %ecx,0x4(%esp)
    20ad:	8b 4e 04             	mov    0x4(%esi),%ecx
    20b0:	89 0c 24             	mov    %ecx,(%esp)
    20b3:	e8 e8 ce 00 00       	call   efa0 <pio_write_32>
    20b8:	8b 55 0c             	mov    0xc(%ebp),%edx
    20bb:	66 8b 4a 04          	mov    0x4(%edx),%cx
    20bf:	81 e1 ff ff 00 00    	and    $0xffff,%ecx
    20c5:	89 4c 24 04          	mov    %ecx,0x4(%esp)
    20c9:	8b 4e 04             	mov    0x4(%esi),%ecx
    20cc:	83 c1 04             	add    $0x4,%ecx
    20cf:	89 0c 24             	mov    %ecx,(%esp)
    20d2:	e8 c9 ce 00 00       	call   efa0 <pio_write_32>
    20d7:	c7 44 24 04 00 00 00 	movl   $0x0,0x4(%esp)
    20de:	00 
    20df:	8b 56 04             	mov    0x4(%esi),%edx
    20e2:	83 c2 50             	add    $0x50,%edx
    20e5:	89 14 24             	mov    %edx,(%esp)
    20e8:	e8 13 ce 00 00       	call   ef00 <pio_write_8>
    20ed:	89 3c 24             	mov    %edi,(%esp)
    20f0:	e8 2b 38 01 00       	call   15920 <fibril_mutex_unlock>
    20f5:	8b 55 e4             	mov    -0x1c(%ebp),%edx
    20f8:	89 14 24             	mov    %edx,(%esp)
    20fb:	e8 20 38 01 00       	call   15920 <fibril_mutex_unlock>
    2100:	8b 45 e0             	mov    -0x20(%ebp),%eax
    2103:	83 c4 2c             	add    $0x2c,%esp
    2106:	5b                   	pop    %ebx
    2107:	5e                   	pop    %esi
    2108:	5f                   	pop    %edi
    2109:	5d                   	pop    %ebp
    210a:	c3                   	ret    
    210b:	90                   	nop
    210c:	8d 74 26 00          	lea    0x0(%esi,%eiz,1),%esi
    2110:	89 3c 24             	mov    %edi,(%esp)
    2113:	89 45 e0             	mov    %eax,-0x20(%ebp)
    2116:	eb d8                	jmp    20f0 <rtl8139_set_addr+0xd0>
    2118:	c7 44 24 08 6d 05 00 	movl   $0x56d,0x8(%esp)
    211f:	00 
    2120:	c7 44 24 04 91 e4 02 	movl   $0x2e491,0x4(%esp)
    2127:	00 
    2128:	c7 04 24 08 dd 02 00 	movl   $0x2dd08,(%esp)
    212f:	e8 7c 75 02 00       	call   296b0 <assert_abort>
    2134:	c7 44 24 08 69 05 00 	movl   $0x569,0x8(%esp)
    213b:	00 
    213c:	c7 44 24 04 91 e4 02 	movl   $0x2e491,0x4(%esp)
    2143:	00 
    2144:	c7 04 24 a2 eb 02 00 	movl   $0x2eba2,(%esp)
    214b:	e8 60 75 02 00       	call   296b0 <assert_abort>
    2150:	c7 44 24 08 68 05 00 	movl   $0x568,0x8(%esp)
    2157:	00 
    2158:	c7 44 24 04 91 e4 02 	movl   $0x2e491,0x4(%esp)
    215f:	00 
    2160:	c7 04 24 f2 dc 02 00 	movl   $0x2dcf2,(%esp)
    2167:	e8 44 75 02 00       	call   296b0 <assert_abort>
    216c:	8d 74 26 00          	lea    0x0(%esi,%eiz,1),%esi

00002170 <rtl8139_pause_set>:
    2170:	55                   	push   %ebp
    2171:	89 e5                	mov    %esp,%ebp
    2173:	56                   	push   %esi
    2174:	53                   	push   %ebx
    2175:	83 ec 10             	sub    $0x10,%esp
    2178:	8b 45 08             	mov    0x8(%ebp),%eax
    217b:	8b 75 14             	mov    0x14(%ebp),%esi
    217e:	85 c0                	test   %eax,%eax
    2180:	0f 84 de 00 00 00    	je     2264 <rtl8139_pause_set+0xf4>
    2186:	89 04 24             	mov    %eax,(%esp)
    2189:	e8 e2 94 00 00       	call   b670 <nic_get_from_ddf_fun>
    218e:	89 04 24             	mov    %eax,(%esp)
    2191:	e8 5a 94 00 00       	call   b5f0 <nic_get_specific>
    2196:	89 c3                	mov    %eax,%ebx
    2198:	85 c0                	test   %eax,%eax
    219a:	0f 84 e0 00 00 00    	je     2280 <rtl8139_pause_set+0x110>
    21a0:	8b 40 04             	mov    0x4(%eax),%eax
    21a3:	83 c0 62             	add    $0x62,%eax
    21a6:	89 04 24             	mov    %eax,(%esp)
    21a9:	e8 82 ce 00 00       	call   f030 <pio_read_16>
    21ae:	f6 c4 11             	test   $0x11,%ah
    21b1:	0f 84 a1 00 00 00    	je     2258 <rtl8139_pause_set+0xe8>
    21b7:	f6 c4 10             	test   $0x10,%ah
    21ba:	0f 85 80 00 00 00    	jne    2240 <rtl8139_pause_set+0xd0>
    21c0:	8b 43 04             	mov    0x4(%ebx),%eax
    21c3:	83 c0 58             	add    $0x58,%eax
    21c6:	89 04 24             	mov    %eax,(%esp)
    21c9:	e8 22 ce 00 00       	call   eff0 <pio_read_8>
    21ce:	8b 4d 10             	mov    0x10(%ebp),%ecx
    21d1:	83 e0 3f             	and    $0x3f,%eax
    21d4:	85 c9                	test   %ecx,%ecx
    21d6:	74 03                	je     21db <rtl8139_pause_set+0x6b>
    21d8:	83 c8 40             	or     $0x40,%eax
    21db:	8b 55 0c             	mov    0xc(%ebp),%edx
    21de:	85 d2                	test   %edx,%edx
    21e0:	74 3e                	je     2220 <rtl8139_pause_set+0xb0>
    21e2:	83 c8 80             	or     $0xffffff80,%eax
    21e5:	25 ff 00 00 00       	and    $0xff,%eax
    21ea:	89 44 24 04          	mov    %eax,0x4(%esp)
    21ee:	8b 43 04             	mov    0x4(%ebx),%eax
    21f1:	83 c0 58             	add    $0x58,%eax
    21f4:	89 04 24             	mov    %eax,(%esp)
    21f7:	e8 04 cd 00 00       	call   ef00 <pio_write_8>
    21fc:	66 85 f6             	test   %si,%si
    21ff:	74 36                	je     2237 <rtl8139_pause_set+0xc7>
    2201:	c7 44 24 04 34 df 02 	movl   $0x2df34,0x4(%esp)
    2208:	00 
    2209:	c7 04 24 02 00 00 00 	movl   $0x2,(%esp)
    2210:	e8 9b 3c 00 00       	call   5eb0 <ddf_msg>
    2215:	83 c4 10             	add    $0x10,%esp
    2218:	31 c0                	xor    %eax,%eax
    221a:	5b                   	pop    %ebx
    221b:	5e                   	pop    %esi
    221c:	5d                   	pop    %ebp
    221d:	c3                   	ret    
    221e:	66 90                	xchg   %ax,%ax
    2220:	25 ff 00 00 00       	and    $0xff,%eax
    2225:	89 44 24 04          	mov    %eax,0x4(%esp)
    2229:	8b 43 04             	mov    0x4(%ebx),%eax
    222c:	83 c0 58             	add    $0x58,%eax
    222f:	89 04 24             	mov    %eax,(%esp)
    2232:	e8 c9 cc 00 00       	call   ef00 <pio_write_8>
    2237:	83 c4 10             	add    $0x10,%esp
    223a:	31 c0                	xor    %eax,%eax
    223c:	5b                   	pop    %ebx
    223d:	5e                   	pop    %esi
    223e:	5d                   	pop    %ebp
    223f:	c3                   	ret    
    2240:	8b 43 04             	mov    0x4(%ebx),%eax
    2243:	83 c0 68             	add    $0x68,%eax
    2246:	89 04 24             	mov    %eax,(%esp)
    2249:	e8 e2 cd 00 00       	call   f030 <pio_read_16>
    224e:	f6 c4 04             	test   $0x4,%ah
    2251:	0f 84 69 ff ff ff    	je     21c0 <rtl8139_pause_set+0x50>
    2257:	90                   	nop
    2258:	83 c4 10             	add    $0x10,%esp
    225b:	b8 f2 ff ff ff       	mov    $0xfffffff2,%eax
    2260:	5b                   	pop    %ebx
    2261:	5e                   	pop    %esi
    2262:	5d                   	pop    %ebp
    2263:	c3                   	ret    
    2264:	c7 44 24 08 2d 06 00 	movl   $0x62d,0x8(%esp)
    226b:	00 
    226c:	c7 44 24 04 91 e4 02 	movl   $0x2e491,0x4(%esp)
    2273:	00 
    2274:	c7 04 24 f2 dc 02 00 	movl   $0x2dcf2,(%esp)
    227b:	e8 30 74 02 00       	call   296b0 <assert_abort>
    2280:	c7 44 24 08 30 06 00 	movl   $0x630,0x8(%esp)
    2287:	00 
    2288:	c7 44 24 04 91 e4 02 	movl   $0x2e491,0x4(%esp)
    228f:	00 
    2290:	c7 04 24 08 dd 02 00 	movl   $0x2dd08,(%esp)
    2297:	e8 14 74 02 00       	call   296b0 <assert_abort>
    229c:	8d 74 26 00          	lea    0x0(%esi,%eiz,1),%esi

000022a0 <rtl8139_dev_add>:
    22a0:	55                   	push   %ebp
    22a1:	89 e5                	mov    %esp,%ebp
    22a3:	57                   	push   %edi
    22a4:	56                   	push   %esi
    22a5:	53                   	push   %ebx
    22a6:	83 ec 6c             	sub    $0x6c,%esp
    22a9:	8b 7d 08             	mov    0x8(%ebp),%edi
    22ac:	85 ff                	test   %edi,%edi
    22ae:	0f 84 57 0b 00 00    	je     2e0b <rtl8139_dev_add+0xb6b>
    22b4:	89 3c 24             	mov    %edi,(%esp)
    22b7:	e8 a4 30 00 00       	call   5360 <ddf_dev_get_handle>
    22bc:	89 3c 24             	mov    %edi,(%esp)
    22bf:	89 c3                	mov    %eax,%ebx
    22c1:	e8 aa 30 00 00       	call   5370 <ddf_dev_get_name>
    22c6:	89 5c 24 0c          	mov    %ebx,0xc(%esp)
    22ca:	89 44 24 08          	mov    %eax,0x8(%esp)
    22ce:	c7 44 24 04 68 df 02 	movl   $0x2df68,0x4(%esp)
    22d5:	00 
    22d6:	c7 04 24 03 00 00 00 	movl   $0x3,(%esp)
    22dd:	e8 ce 3b 00 00       	call   5eb0 <ddf_msg>
    22e2:	89 3c 24             	mov    %edi,(%esp)
    22e5:	e8 86 30 00 00       	call   5370 <ddf_dev_get_name>
    22ea:	c7 44 24 04 a4 dd 02 	movl   $0x2dda4,0x4(%esp)
    22f1:	00 
    22f2:	89 44 24 08          	mov    %eax,0x8(%esp)
    22f6:	c7 04 24 04 00 00 00 	movl   $0x4,(%esp)
    22fd:	e8 ae 3b 00 00       	call   5eb0 <ddf_msg>
    2302:	c7 44 24 04 be dd 02 	movl   $0x2ddbe,0x4(%esp)
    2309:	00 
    230a:	c7 04 24 04 00 00 00 	movl   $0x4,(%esp)
    2311:	e8 9a 3b 00 00       	call   5eb0 <ddf_msg>
    2316:	89 3c 24             	mov    %edi,(%esp)
    2319:	e8 42 93 00 00       	call   b660 <nic_get_from_ddf_dev>
    231e:	85 c0                	test   %eax,%eax
    2320:	0f 85 1d 0b 00 00    	jne    2e43 <rtl8139_dev_add+0xba3>
    2326:	89 3c 24             	mov    %edi,(%esp)
    2329:	e8 22 8f 00 00       	call   b250 <nic_create_and_bind>
    232e:	89 c6                	mov    %eax,%esi
    2330:	85 c0                	test   %eax,%eax
    2332:	0f 84 e1 04 00 00    	je     2819 <rtl8139_dev_add+0x579>
    2338:	c7 04 24 80 00 00 00 	movl   $0x80,(%esp)
    233f:	e8 9c c7 01 00       	call   1eae0 <malloc>
    2344:	89 c3                	mov    %eax,%ebx
    2346:	85 c0                	test   %eax,%eax
    2348:	0f 84 c3 04 00 00    	je     2811 <rtl8139_dev_add+0x571>
    234e:	c7 44 24 08 80 00 00 	movl   $0x80,0x8(%esp)
    2355:	00 
    2356:	c7 44 24 04 00 00 00 	movl   $0x0,0x4(%esp)
    235d:	00 
    235e:	89 04 24             	mov    %eax,(%esp)
    2361:	e8 3a f2 00 00       	call   115a0 <memset>
    2366:	89 73 78             	mov    %esi,0x78(%ebx)
    2369:	89 34 24             	mov    %esi,(%esp)
    236c:	89 5c 24 04          	mov    %ebx,0x4(%esp)
    2370:	e8 8b 92 00 00       	call   b600 <nic_set_specific>
    2375:	89 34 24             	mov    %esi,(%esp)
    2378:	c7 44 24 04 e0 15 00 	movl   $0x15e0,0x4(%esp)
    237f:	00 
    2380:	e8 0b 85 00 00       	call   a890 <nic_set_send_frame_handler>
    2385:	89 34 24             	mov    %esi,(%esp)
    2388:	c7 44 24 0c 60 3a 00 	movl   $0x3a60,0xc(%esp)
    238f:	00 
    2390:	c7 44 24 08 00 00 00 	movl   $0x0,0x8(%esp)
    2397:	00 
    2398:	c7 44 24 04 00 3b 00 	movl   $0x3b00,0x4(%esp)
    239f:	00 
    23a0:	e8 0b 85 00 00       	call   a8b0 <nic_set_state_change_handlers>
    23a5:	89 34 24             	mov    %esi,(%esp)
    23a8:	c7 44 24 14 00 00 00 	movl   $0x0,0x14(%esp)
    23af:	00 
    23b0:	c7 44 24 10 00 00 00 	movl   $0x0,0x10(%esp)
    23b7:	00 
    23b8:	c7 44 24 0c 60 18 00 	movl   $0x1860,0xc(%esp)
    23bf:	00 
    23c0:	c7 44 24 08 20 3d 00 	movl   $0x3d20,0x8(%esp)
    23c7:	00 
    23c8:	c7 44 24 04 b0 42 00 	movl   $0x42b0,0x4(%esp)
    23cf:	00 
    23d0:	e8 0b 85 00 00       	call   a8e0 <nic_set_filtering_change_handlers>
    23d5:	89 34 24             	mov    %esi,(%esp)
    23d8:	c7 44 24 08 50 31 00 	movl   $0x3150,0x8(%esp)
    23df:	00 
    23e0:	c7 44 24 04 f0 44 00 	movl   $0x44f0,0x4(%esp)
    23e7:	00 
    23e8:	e8 33 85 00 00       	call   a920 <nic_set_wol_virtue_change_handlers>
    23ed:	89 34 24             	mov    %esi,(%esp)
    23f0:	c7 44 24 08 30 3f 00 	movl   $0x3f30,0x8(%esp)
    23f7:	00 
    23f8:	c7 44 24 04 10 1a 00 	movl   $0x1a10,0x4(%esp)
    23ff:	00 
    2400:	e8 6b 85 00 00       	call   a970 <nic_set_poll_handlers>
    2405:	8d 43 44             	lea    0x44(%ebx),%eax
    2408:	89 04 24             	mov    %eax,(%esp)
    240b:	e8 d0 33 01 00       	call   157e0 <fibril_mutex_initialize>
    2410:	8d 43 54             	lea    0x54(%ebx),%eax
    2413:	89 04 24             	mov    %eax,(%esp)
    2416:	e8 c5 33 01 00       	call   157e0 <fibril_mutex_initialize>
    241b:	89 34 24             	mov    %esi,(%esp)
    241e:	c7 44 24 08 01 00 00 	movl   $0x1,0x8(%esp)
    2425:	00 
    2426:	c7 44 24 04 04 00 00 	movl   $0x4,0x4(%esp)
    242d:	00 
    242e:	e8 9d 91 00 00       	call   b5d0 <nic_set_wol_max_caps>
    2433:	89 34 24             	mov    %esi,(%esp)
    2436:	c7 44 24 08 01 00 00 	movl   $0x1,0x8(%esp)
    243d:	00 
    243e:	c7 44 24 04 01 00 00 	movl   $0x1,0x4(%esp)
    2445:	00 
    2446:	e8 85 91 00 00       	call   b5d0 <nic_set_wol_max_caps>
    244b:	89 34 24             	mov    %esi,(%esp)
    244e:	c7 44 24 08 01 00 00 	movl   $0x1,0x8(%esp)
    2455:	00 
    2456:	c7 44 24 04 02 00 00 	movl   $0x2,0x4(%esp)
    245d:	00 
    245e:	e8 6d 91 00 00       	call   b5d0 <nic_set_wol_max_caps>
    2463:	c7 44 24 04 f7 dd 02 	movl   $0x2ddf7,0x4(%esp)
    246a:	00 
    246b:	c7 04 24 04 00 00 00 	movl   $0x4,(%esp)
    2472:	e8 39 3a 00 00       	call   5eb0 <ddf_msg>
    2477:	89 3c 24             	mov    %edi,(%esp)
    247a:	e8 e1 91 00 00       	call   b660 <nic_get_from_ddf_dev>
    247f:	89 c6                	mov    %eax,%esi
    2481:	85 c0                	test   %eax,%eax
    2483:	0f 84 9e 09 00 00    	je     2e27 <rtl8139_dev_add+0xb87>
    2489:	8d 45 c8             	lea    -0x38(%ebp),%eax
    248c:	c7 44 24 08 20 00 00 	movl   $0x20,0x8(%esp)
    2493:	00 
    2494:	c7 44 24 04 00 00 00 	movl   $0x0,0x4(%esp)
    249b:	00 
    249c:	89 04 24             	mov    %eax,(%esp)
    249f:	e8 fc f0 00 00       	call   115a0 <memset>
    24a4:	8d 45 c8             	lea    -0x38(%ebp),%eax
    24a7:	89 34 24             	mov    %esi,(%esp)
    24aa:	89 44 24 04          	mov    %eax,0x4(%esp)
    24ae:	e8 dd 84 00 00       	call   a990 <nic_get_resources>
    24b3:	89 c6                	mov    %eax,%esi
    24b5:	85 c0                	test   %eax,%eax
    24b7:	74 47                	je     2500 <rtl8139_dev_add+0x260>
    24b9:	c7 44 24 04 4c e0 02 	movl   $0x2e04c,0x4(%esp)
    24c0:	00 
    24c1:	c7 04 24 01 00 00 00 	movl   $0x1,(%esp)
    24c8:	e8 e3 39 00 00       	call   5eb0 <ddf_msg>
    24cd:	c7 44 24 04 34 e1 02 	movl   $0x2e134,0x4(%esp)
    24d4:	00 
    24d5:	c7 04 24 01 00 00 00 	movl   $0x1,(%esp)
    24dc:	e8 cf 39 00 00       	call   5eb0 <ddf_msg>
    24e1:	89 3c 24             	mov    %edi,(%esp)
    24e4:	e8 67 2e 00 00       	call   5350 <ddf_dev_data_get>
    24e9:	85 c0                	test   %eax,%eax
    24eb:	74 08                	je     24f5 <rtl8139_dev_add+0x255>
    24ed:	89 3c 24             	mov    %edi,(%esp)
    24f0:	e8 bb 8e 00 00       	call   b3b0 <nic_unbind_and_destroy>
    24f5:	83 c4 6c             	add    $0x6c,%esp
    24f8:	89 f0                	mov    %esi,%eax
    24fa:	5b                   	pop    %ebx
    24fb:	5e                   	pop    %esi
    24fc:	5f                   	pop    %edi
    24fd:	5d                   	pop    %ebp
    24fe:	c3                   	ret    
    24ff:	90                   	nop
    2500:	89 3c 24             	mov    %edi,(%esp)
    2503:	e8 58 91 00 00       	call   b660 <nic_get_from_ddf_dev>
    2508:	89 04 24             	mov    %eax,(%esp)
    250b:	e8 e0 90 00 00       	call   b5f0 <nic_get_specific>
    2510:	89 c6                	mov    %eax,%esi
    2512:	85 c0                	test   %eax,%eax
    2514:	0f 84 45 09 00 00    	je     2e5f <rtl8139_dev_add+0xbbf>
    251a:	83 7d c8 01          	cmpl   $0x1,-0x38(%ebp)
    251e:	0f 85 d5 05 00 00    	jne    2af9 <rtl8139_dev_add+0x859>
    2524:	83 7d e0 01          	cmpl   $0x1,-0x20(%ebp)
    2528:	0f 85 5a 05 00 00    	jne    2a88 <rtl8139_dev_add+0x7e8>
    252e:	8b 45 cc             	mov    -0x34(%ebp),%eax
    2531:	8b 10                	mov    (%eax),%edx
    2533:	89 56 08             	mov    %edx,0x8(%esi)
    2536:	89 3c 24             	mov    %edi,(%esp)
    2539:	89 55 ac             	mov    %edx,-0x54(%ebp)
    253c:	e8 2f 2e 00 00       	call   5370 <ddf_dev_get_name>
    2541:	8b 55 ac             	mov    -0x54(%ebp),%edx
    2544:	89 44 24 08          	mov    %eax,0x8(%esp)
    2548:	89 54 24 0c          	mov    %edx,0xc(%esp)
    254c:	c7 44 24 04 11 de 02 	movl   $0x2de11,0x4(%esp)
    2553:	00 
    2554:	c7 04 24 04 00 00 00 	movl   $0x4,(%esp)
    255b:	e8 50 39 00 00       	call   5eb0 <ddf_msg>
    2560:	8b 45 e4             	mov    -0x1c(%ebp),%eax
    2563:	8b 10                	mov    (%eax),%edx
    2565:	89 16                	mov    %edx,(%esi)
    2567:	81 78 0c ff 00 00 00 	cmpl   $0xff,0xc(%eax)
    256e:	89 3c 24             	mov    %edi,(%esp)
    2571:	0f 86 a4 05 00 00    	jbe    2b1b <rtl8139_dev_add+0x87b>
    2577:	89 55 ac             	mov    %edx,-0x54(%ebp)
    257a:	e8 f1 2d 00 00       	call   5370 <ddf_dev_get_name>
    257f:	8b 55 ac             	mov    -0x54(%ebp),%edx
    2582:	89 44 24 08          	mov    %eax,0x8(%esp)
    2586:	89 54 24 0c          	mov    %edx,0xc(%esp)
    258a:	c7 44 24 04 08 e0 02 	movl   $0x2e008,0x4(%esp)
    2591:	00 
    2592:	c7 04 24 04 00 00 00 	movl   $0x4,(%esp)
    2599:	e8 12 39 00 00       	call   5eb0 <ddf_msg>
    259e:	8b 45 cc             	mov    -0x34(%ebp),%eax
    25a1:	89 04 24             	mov    %eax,(%esp)
    25a4:	e8 47 c6 01 00       	call   1ebf0 <free>
    25a9:	8b 45 e4             	mov    -0x1c(%ebp),%eax
    25ac:	89 04 24             	mov    %eax,(%esp)
    25af:	e8 3c c6 01 00       	call   1ebf0 <free>
    25b4:	8b 45 dc             	mov    -0x24(%ebp),%eax
    25b7:	89 04 24             	mov    %eax,(%esp)
    25ba:	e8 31 c6 01 00       	call   1ebf0 <free>
    25bf:	8b 45 d4             	mov    -0x2c(%ebp),%eax
    25c2:	89 04 24             	mov    %eax,(%esp)
    25c5:	e8 26 c6 01 00       	call   1ebf0 <free>
    25ca:	8d 45 c8             	lea    -0x38(%ebp),%eax
    25cd:	c7 44 24 08 20 00 00 	movl   $0x20,0x8(%esp)
    25d4:	00 
    25d5:	c7 44 24 04 00 00 00 	movl   $0x0,0x4(%esp)
    25dc:	00 
    25dd:	89 04 24             	mov    %eax,(%esp)
    25e0:	e8 bb ef 00 00       	call   115a0 <memset>
    25e5:	c7 44 24 04 2c e0 02 	movl   $0x2e02c,0x4(%esp)
    25ec:	00 
    25ed:	c7 04 24 04 00 00 00 	movl   $0x4,(%esp)
    25f4:	e8 b7 38 00 00       	call   5eb0 <ddf_msg>
    25f9:	c7 44 24 04 2e de 02 	movl   $0x2de2e,0x4(%esp)
    2600:	00 
    2601:	c7 04 24 04 00 00 00 	movl   $0x4,(%esp)
    2608:	e8 a3 38 00 00       	call   5eb0 <ddf_msg>
    260d:	8d 43 14             	lea    0x14(%ebx),%eax
    2610:	89 45 b4             	mov    %eax,-0x4c(%ebp)
    2613:	89 44 24 10          	mov    %eax,0x10(%esp)
    2617:	8d 43 10             	lea    0x10(%ebx),%eax
    261a:	c7 44 24 08 00 00 00 	movl   $0x0,0x8(%esp)
    2621:	00 
    2622:	89 44 24 0c          	mov    %eax,0xc(%esp)
    2626:	c7 44 24 04 02 00 00 	movl   $0x2,0x4(%esp)
    262d:	00 
    262e:	c7 04 24 00 20 00 00 	movl   $0x2000,(%esp)
    2635:	e8 e6 c6 00 00       	call   ed20 <dmamem_map_anonymous>
    263a:	89 c6                	mov    %eax,%esi
    263c:	85 c0                	test   %eax,%eax
    263e:	0f 85 b4 01 00 00    	jne    27f8 <rtl8139_dev_add+0x558>
    2644:	8b 43 14             	mov    0x14(%ebx),%eax
    2647:	89 43 18             	mov    %eax,0x18(%ebx)
    264a:	8d 90 00 08 00 00    	lea    0x800(%eax),%edx
    2650:	89 53 1c             	mov    %edx,0x1c(%ebx)
    2653:	8d 90 00 10 00 00    	lea    0x1000(%eax),%edx
    2659:	05 00 18 00 00       	add    $0x1800,%eax
    265e:	89 53 20             	mov    %edx,0x20(%ebx)
    2661:	89 43 24             	mov    %eax,0x24(%ebx)
    2664:	c7 44 24 04 9c e0 02 	movl   $0x2e09c,0x4(%esp)
    266b:	00 
    266c:	c7 04 24 04 00 00 00 	movl   $0x4,(%esp)
    2673:	e8 38 38 00 00       	call   5eb0 <ddf_msg>
    2678:	c7 43 28 00 00 00 00 	movl   $0x0,0x28(%ebx)
    267f:	c7 43 2c 00 00 00 00 	movl   $0x0,0x2c(%ebx)
    2686:	c7 44 24 08 10 40 00 	movl   $0x4010,0x8(%esp)
    268d:	00 
    268e:	c7 44 24 04 c0 e0 02 	movl   $0x2e0c0,0x4(%esp)
    2695:	00 
    2696:	c7 04 24 04 00 00 00 	movl   $0x4,(%esp)
    269d:	e8 0e 38 00 00       	call   5eb0 <ddf_msg>
    26a2:	8d 43 34             	lea    0x34(%ebx),%eax
    26a5:	89 44 24 10          	mov    %eax,0x10(%esp)
    26a9:	8d 43 30             	lea    0x30(%ebx),%eax
    26ac:	89 44 24 0c          	mov    %eax,0xc(%esp)
    26b0:	c7 44 24 08 00 00 00 	movl   $0x0,0x8(%esp)
    26b7:	00 
    26b8:	c7 44 24 04 01 00 00 	movl   $0x1,0x4(%esp)
    26bf:	00 
    26c0:	c7 04 24 10 40 00 00 	movl   $0x4010,(%esp)
    26c7:	e8 54 c6 00 00       	call   ed20 <dmamem_map_anonymous>
    26cc:	89 c6                	mov    %eax,%esi
    26ce:	85 c0                	test   %eax,%eax
    26d0:	74 26                	je     26f8 <rtl8139_dev_add+0x458>
    26d2:	c7 44 24 04 f0 e0 02 	movl   $0x2e0f0,0x4(%esp)
    26d9:	00 
    26da:	c7 04 24 01 00 00 00 	movl   $0x1,(%esp)
    26e1:	e8 ca 37 00 00       	call   5eb0 <ddf_msg>
    26e6:	8b 45 b4             	mov    -0x4c(%ebp),%eax
    26e9:	89 04 24             	mov    %eax,(%esp)
    26ec:	e8 cf c6 00 00       	call   edc0 <dmamem_unmap_anonymous>
    26f1:	e9 d7 fd ff ff       	jmp    24cd <rtl8139_dev_add+0x22d>
    26f6:	66 90                	xchg   %ax,%ax
    26f8:	c7 44 24 04 3f de 02 	movl   $0x2de3f,0x4(%esp)
    26ff:	00 
    2700:	c7 04 24 04 00 00 00 	movl   $0x4,(%esp)
    2707:	e8 a4 37 00 00       	call   5eb0 <ddf_msg>
    270c:	c6 43 3c 02          	movb   $0x2,0x3c(%ebx)
    2710:	c6 43 3d 00          	movb   $0x0,0x3d(%ebx)
    2714:	c6 43 3e 08          	movb   $0x8,0x3e(%ebx)
    2718:	c6 43 3f 00          	movb   $0x0,0x3f(%ebx)
    271c:	c7 43 38 00 00 00 08 	movl   $0x8000000,0x38(%ebx)
    2723:	c7 44 24 04 53 de 02 	movl   $0x2de53,0x4(%esp)
    272a:	00 
    272b:	c7 04 24 04 00 00 00 	movl   $0x4,(%esp)
    2732:	e8 79 37 00 00       	call   5eb0 <ddf_msg>
    2737:	89 3c 24             	mov    %edi,(%esp)
    273a:	e8 31 2c 00 00       	call   5370 <ddf_dev_get_name>
    273f:	c7 44 24 04 14 e1 02 	movl   $0x2e114,0x4(%esp)
    2746:	00 
    2747:	89 44 24 08          	mov    %eax,0x8(%esp)
    274b:	c7 04 24 04 00 00 00 	movl   $0x4,(%esp)
    2752:	e8 59 37 00 00       	call   5eb0 <ddf_msg>
    2757:	89 3c 24             	mov    %edi,(%esp)
    275a:	e8 01 8f 00 00       	call   b660 <nic_get_from_ddf_dev>
    275f:	89 04 24             	mov    %eax,(%esp)
    2762:	e8 89 8e 00 00       	call   b5f0 <nic_get_specific>
    2767:	c7 44 24 04 00 01 00 	movl   $0x100,0x4(%esp)
    276e:	00 
    276f:	89 c3                	mov    %eax,%ebx
    2771:	8d 40 04             	lea    0x4(%eax),%eax
    2774:	89 44 24 08          	mov    %eax,0x8(%esp)
    2778:	8b 03                	mov    (%ebx),%eax
    277a:	89 04 24             	mov    %eax,(%esp)
    277d:	e8 8e c6 00 00       	call   ee10 <pio_enable>
    2782:	85 c0                	test   %eax,%eax
    2784:	0f 85 86 04 00 00    	jne    2c10 <rtl8139_dev_add+0x970>
    278a:	89 3c 24             	mov    %edi,(%esp)
    278d:	e8 ce 8e 00 00       	call   b660 <nic_get_from_ddf_dev>
    2792:	89 04 24             	mov    %eax,(%esp)
    2795:	89 45 b4             	mov    %eax,-0x4c(%ebp)
    2798:	e8 53 8e 00 00       	call   b5f0 <nic_get_specific>
    279d:	89 c3                	mov    %eax,%ebx
    279f:	85 c0                	test   %eax,%eax
    27a1:	0f 84 d4 06 00 00    	je     2e7b <rtl8139_dev_add+0xbdb>
    27a7:	8b 43 04             	mov    0x4(%ebx),%eax
    27aa:	89 04 24             	mov    %eax,(%esp)
    27ad:	e8 be c8 00 00       	call   f070 <pio_read_32>
    27b2:	89 45 c2             	mov    %eax,-0x3e(%ebp)
    27b5:	8b 43 04             	mov    0x4(%ebx),%eax
    27b8:	83 c0 04             	add    $0x4,%eax
    27bb:	89 04 24             	mov    %eax,(%esp)
    27be:	e8 6d c8 00 00       	call   f030 <pio_read_16>
    27c3:	66 89 45 c6          	mov    %ax,-0x3a(%ebp)
    27c7:	8d 45 c2             	lea    -0x3e(%ebp),%eax
    27ca:	89 44 24 04          	mov    %eax,0x4(%esp)
    27ce:	8b 45 b4             	mov    -0x4c(%ebp),%eax
    27d1:	89 04 24             	mov    %eax,(%esp)
    27d4:	e8 17 86 00 00       	call   adf0 <nic_report_address>
    27d9:	89 c6                	mov    %eax,%esi
    27db:	85 c0                	test   %eax,%eax
    27dd:	74 69                	je     2848 <rtl8139_dev_add+0x5a8>
    27df:	89 3c 24             	mov    %edi,(%esp)
    27e2:	e8 69 2b 00 00       	call   5350 <ddf_dev_data_get>
    27e7:	85 c0                	test   %eax,%eax
    27e9:	0f 85 fe fc ff ff    	jne    24ed <rtl8139_dev_add+0x24d>
    27ef:	e9 01 fd ff ff       	jmp    24f5 <rtl8139_dev_add+0x255>
    27f4:	8d 74 26 00          	lea    0x0(%esi,%eiz,1),%esi
    27f8:	c7 44 24 04 74 e0 02 	movl   $0x2e074,0x4(%esp)
    27ff:	00 
    2800:	c7 04 24 01 00 00 00 	movl   $0x1,(%esp)
    2807:	e8 a4 36 00 00       	call   5eb0 <ddf_msg>
    280c:	e9 bc fc ff ff       	jmp    24cd <rtl8139_dev_add+0x22d>
    2811:	89 3c 24             	mov    %edi,(%esp)
    2814:	e8 97 8b 00 00       	call   b3b0 <nic_unbind_and_destroy>
    2819:	89 3c 24             	mov    %edi,(%esp)
    281c:	be fe ff ff ff       	mov    $0xfffffffe,%esi
    2821:	e8 4a 2b 00 00       	call   5370 <ddf_dev_get_name>
    2826:	c7 44 24 04 68 e2 02 	movl   $0x2e268,0x4(%esp)
    282d:	00 
    282e:	89 44 24 08          	mov    %eax,0x8(%esp)
    2832:	c7 04 24 01 00 00 00 	movl   $0x1,(%esp)
    2839:	e8 72 36 00 00       	call   5eb0 <ddf_msg>
    283e:	e9 b2 fc ff ff       	jmp    24f5 <rtl8139_dev_add+0x255>
    2843:	90                   	nop
    2844:	8d 74 26 00          	lea    0x0(%esi,%eiz,1),%esi
    2848:	8b 43 04             	mov    0x4(%ebx),%eax
    284b:	83 c0 40             	add    $0x40,%eax
    284e:	89 04 24             	mov    %eax,(%esp)
    2851:	e8 1a c8 00 00       	call   f070 <pio_read_32>
    2856:	c7 43 7c 0a 00 00 00 	movl   $0xa,0x7c(%ebx)
    285d:	89 c6                	mov    %eax,%esi
    285f:	c1 ee 18             	shr    $0x18,%esi
    2862:	c1 e8 16             	shr    $0x16,%eax
    2865:	83 e6 7c             	and    $0x7c,%esi
    2868:	83 e0 03             	and    $0x3,%eax
    286b:	09 c6                	or     %eax,%esi
    286d:	a1 e0 e3 02 00       	mov    0x2e3e0,%eax
    2872:	85 c0                	test   %eax,%eax
    2874:	0f 84 e6 00 00 00    	je     2960 <rtl8139_dev_add+0x6c0>
    287a:	39 c6                	cmp    %eax,%esi
    287c:	0f 84 96 01 00 00    	je     2a18 <rtl8139_dev_add+0x778>
    2882:	a1 e8 e3 02 00       	mov    0x2e3e8,%eax
    2887:	85 c0                	test   %eax,%eax
    2889:	0f 84 d1 00 00 00    	je     2960 <rtl8139_dev_add+0x6c0>
    288f:	39 c6                	cmp    %eax,%esi
    2891:	0f 84 b9 01 00 00    	je     2a50 <rtl8139_dev_add+0x7b0>
    2897:	a1 f0 e3 02 00       	mov    0x2e3f0,%eax
    289c:	85 c0                	test   %eax,%eax
    289e:	0f 84 bc 00 00 00    	je     2960 <rtl8139_dev_add+0x6c0>
    28a4:	39 c6                	cmp    %eax,%esi
    28a6:	0f 84 2c 03 00 00    	je     2bd8 <rtl8139_dev_add+0x938>
    28ac:	a1 f8 e3 02 00       	mov    0x2e3f8,%eax
    28b1:	85 c0                	test   %eax,%eax
    28b3:	0f 84 a7 00 00 00    	je     2960 <rtl8139_dev_add+0x6c0>
    28b9:	39 c6                	cmp    %eax,%esi
    28bb:	0f 84 7f 03 00 00    	je     2c40 <rtl8139_dev_add+0x9a0>
    28c1:	a1 00 e4 02 00       	mov    0x2e400,%eax
    28c6:	85 c0                	test   %eax,%eax
    28c8:	0f 84 92 00 00 00    	je     2960 <rtl8139_dev_add+0x6c0>
    28ce:	39 c6                	cmp    %eax,%esi
    28d0:	0f 84 a2 03 00 00    	je     2c78 <rtl8139_dev_add+0x9d8>
    28d6:	a1 08 e4 02 00       	mov    0x2e408,%eax
    28db:	85 c0                	test   %eax,%eax
    28dd:	0f 84 7d 00 00 00    	je     2960 <rtl8139_dev_add+0x6c0>
    28e3:	39 c6                	cmp    %eax,%esi
    28e5:	0f 84 c5 03 00 00    	je     2cb0 <rtl8139_dev_add+0xa10>
    28eb:	a1 10 e4 02 00       	mov    0x2e410,%eax
    28f0:	85 c0                	test   %eax,%eax
    28f2:	74 6c                	je     2960 <rtl8139_dev_add+0x6c0>
    28f4:	39 c6                	cmp    %eax,%esi
    28f6:	0f 84 ec 03 00 00    	je     2ce8 <rtl8139_dev_add+0xa48>
    28fc:	a1 18 e4 02 00       	mov    0x2e418,%eax
    2901:	85 c0                	test   %eax,%eax
    2903:	74 5b                	je     2960 <rtl8139_dev_add+0x6c0>
    2905:	39 c6                	cmp    %eax,%esi
    2907:	0f 84 13 04 00 00    	je     2d20 <rtl8139_dev_add+0xa80>
    290d:	a1 20 e4 02 00       	mov    0x2e420,%eax
    2912:	85 c0                	test   %eax,%eax
    2914:	74 4a                	je     2960 <rtl8139_dev_add+0x6c0>
    2916:	39 c6                	cmp    %eax,%esi
    2918:	0f 84 3a 04 00 00    	je     2d58 <rtl8139_dev_add+0xab8>
    291e:	a1 28 e4 02 00       	mov    0x2e428,%eax
    2923:	85 c0                	test   %eax,%eax
    2925:	74 39                	je     2960 <rtl8139_dev_add+0x6c0>
    2927:	39 c6                	cmp    %eax,%esi
    2929:	75 35                	jne    2960 <rtl8139_dev_add+0x6c0>
    292b:	a1 2c e4 02 00       	mov    0x2e42c,%eax
    2930:	89 43 7c             	mov    %eax,0x7c(%ebx)
    2933:	89 44 24 0c          	mov    %eax,0xc(%esp)
    2937:	8b 0c 85 e0 18 03 00 	mov    0x318e0(,%eax,4),%ecx
    293e:	c7 44 24 08 09 00 00 	movl   $0x9,0x8(%esp)
    2945:	00 
    2946:	89 4c 24 10          	mov    %ecx,0x10(%esp)
    294a:	c7 44 24 04 80 e1 02 	movl   $0x2e180,0x4(%esp)
    2951:	00 
    2952:	c7 04 24 03 00 00 00 	movl   $0x3,(%esp)
    2959:	e8 52 35 00 00       	call   5eb0 <ddf_msg>
    295e:	66 90                	xchg   %ax,%ax
    2960:	8b 45 b4             	mov    -0x4c(%ebp),%eax
    2963:	89 04 24             	mov    %eax,(%esp)
    2966:	e8 85 8c 00 00       	call   b5f0 <nic_get_specific>
    296b:	c7 04 24 ec 17 03 00 	movl   $0x317ec,(%esp)
    2972:	89 c6                	mov    %eax,%esi
    2974:	e8 87 2e 01 00       	call   15800 <fibril_mutex_lock>
    2979:	8b 16                	mov    (%esi),%edx
    297b:	a1 64 17 03 00       	mov    0x31764,%eax
    2980:	8b 0d 6c 17 03 00    	mov    0x3176c,%ecx
    2986:	8b 76 08             	mov    0x8(%esi),%esi
    2989:	89 10                	mov    %edx,(%eax)
    298b:	8d 42 3e             	lea    0x3e(%edx),%eax
    298e:	89 41 04             	mov    %eax,0x4(%ecx)
    2991:	89 41 2c             	mov    %eax,0x2c(%ecx)
    2994:	8d 42 3c             	lea    0x3c(%edx),%eax
    2997:	89 41 40             	mov    %eax,0x40(%ecx)
    299a:	8b 45 b4             	mov    -0x4c(%ebp),%eax
    299d:	89 04 24             	mov    %eax,(%esp)
    29a0:	e8 8b 8c 00 00       	call   b630 <nic_get_ddf_dev>
    29a5:	89 74 24 04          	mov    %esi,0x4(%esp)
    29a9:	c7 44 24 0c 60 17 03 	movl   $0x31760,0xc(%esp)
    29b0:	00 
    29b1:	c7 44 24 08 e0 40 00 	movl   $0x40e0,0x8(%esp)
    29b8:	00 
    29b9:	89 04 24             	mov    %eax,(%esp)
    29bc:	e8 df 32 00 00       	call   5ca0 <register_interrupt_handler>
    29c1:	c7 04 24 ec 17 03 00 	movl   $0x317ec,(%esp)
    29c8:	89 c6                	mov    %eax,%esi
    29ca:	e8 51 2f 01 00       	call   15920 <fibril_mutex_unlock>
    29cf:	85 f6                	test   %esi,%esi
    29d1:	0f 85 08 fe ff ff    	jne    27df <rtl8139_dev_add+0x53f>
    29d7:	8b 45 b4             	mov    -0x4c(%ebp),%eax
    29da:	89 04 24             	mov    %eax,(%esp)
    29dd:	e8 ee 82 00 00       	call   acd0 <nic_connect_to_services>
    29e2:	89 c6                	mov    %eax,%esi
    29e4:	85 c0                	test   %eax,%eax
    29e6:	0f 84 51 01 00 00    	je     2b3d <rtl8139_dev_add+0x89d>
    29ec:	89 44 24 08          	mov    %eax,0x8(%esp)
    29f0:	c7 44 24 04 ac e1 02 	movl   $0x2e1ac,0x4(%esp)
    29f7:	00 
    29f8:	c7 04 24 01 00 00 00 	movl   $0x1,(%esp)
    29ff:	e8 ac 34 00 00       	call   5eb0 <ddf_msg>
    2a04:	8b 43 08             	mov    0x8(%ebx),%eax
    2a07:	89 3c 24             	mov    %edi,(%esp)
    2a0a:	89 44 24 04          	mov    %eax,0x4(%esp)
    2a0e:	e8 ad 33 00 00       	call   5dc0 <unregister_interrupt_handler>
    2a13:	e9 c7 fd ff ff       	jmp    27df <rtl8139_dev_add+0x53f>
    2a18:	a1 e4 e3 02 00       	mov    0x2e3e4,%eax
    2a1d:	89 43 7c             	mov    %eax,0x7c(%ebx)
    2a20:	89 44 24 0c          	mov    %eax,0xc(%esp)
    2a24:	8b 0c 85 e0 18 03 00 	mov    0x318e0(,%eax,4),%ecx
    2a2b:	c7 44 24 08 00 00 00 	movl   $0x0,0x8(%esp)
    2a32:	00 
    2a33:	89 4c 24 10          	mov    %ecx,0x10(%esp)
    2a37:	c7 44 24 04 80 e1 02 	movl   $0x2e180,0x4(%esp)
    2a3e:	00 
    2a3f:	c7 04 24 03 00 00 00 	movl   $0x3,(%esp)
    2a46:	e8 65 34 00 00       	call   5eb0 <ddf_msg>
    2a4b:	e9 32 fe ff ff       	jmp    2882 <rtl8139_dev_add+0x5e2>
    2a50:	a1 ec e3 02 00       	mov    0x2e3ec,%eax
    2a55:	89 43 7c             	mov    %eax,0x7c(%ebx)
    2a58:	89 44 24 0c          	mov    %eax,0xc(%esp)
    2a5c:	8b 0c 85 e0 18 03 00 	mov    0x318e0(,%eax,4),%ecx
    2a63:	c7 44 24 08 01 00 00 	movl   $0x1,0x8(%esp)
    2a6a:	00 
    2a6b:	89 4c 24 10          	mov    %ecx,0x10(%esp)
    2a6f:	c7 44 24 04 80 e1 02 	movl   $0x2e180,0x4(%esp)
    2a76:	00 
    2a77:	c7 04 24 03 00 00 00 	movl   $0x3,(%esp)
    2a7e:	e8 2d 34 00 00       	call   5eb0 <ddf_msg>
    2a83:	e9 0f fe ff ff       	jmp    2897 <rtl8139_dev_add+0x5f7>
    2a88:	89 3c 24             	mov    %edi,(%esp)
    2a8b:	e8 e0 28 00 00       	call   5370 <ddf_dev_get_name>
    2a90:	c7 44 24 04 ac df 02 	movl   $0x2dfac,0x4(%esp)
    2a97:	00 
    2a98:	89 44 24 08          	mov    %eax,0x8(%esp)
    2a9c:	c7 04 24 01 00 00 00 	movl   $0x1,(%esp)
    2aa3:	e8 08 34 00 00       	call   5eb0 <ddf_msg>
    2aa8:	8b 45 cc             	mov    -0x34(%ebp),%eax
    2aab:	be f2 ff ff ff       	mov    $0xfffffff2,%esi
    2ab0:	89 04 24             	mov    %eax,(%esp)
    2ab3:	e8 38 c1 01 00       	call   1ebf0 <free>
    2ab8:	8b 45 e4             	mov    -0x1c(%ebp),%eax
    2abb:	89 04 24             	mov    %eax,(%esp)
    2abe:	e8 2d c1 01 00       	call   1ebf0 <free>
    2ac3:	8b 45 dc             	mov    -0x24(%ebp),%eax
    2ac6:	89 04 24             	mov    %eax,(%esp)
    2ac9:	e8 22 c1 01 00       	call   1ebf0 <free>
    2ace:	8b 45 d4             	mov    -0x2c(%ebp),%eax
    2ad1:	89 04 24             	mov    %eax,(%esp)
    2ad4:	e8 17 c1 01 00       	call   1ebf0 <free>
    2ad9:	8d 45 c8             	lea    -0x38(%ebp),%eax
    2adc:	c7 44 24 08 20 00 00 	movl   $0x20,0x8(%esp)
    2ae3:	00 
    2ae4:	c7 44 24 04 00 00 00 	movl   $0x0,0x4(%esp)
    2aeb:	00 
    2aec:	89 04 24             	mov    %eax,(%esp)
    2aef:	e8 ac ea 00 00       	call   115a0 <memset>
    2af4:	e9 c0 f9 ff ff       	jmp    24b9 <rtl8139_dev_add+0x219>
    2af9:	89 3c 24             	mov    %edi,(%esp)
    2afc:	e8 6f 28 00 00       	call   5370 <ddf_dev_get_name>
    2b01:	c7 44 24 04 8c df 02 	movl   $0x2df8c,0x4(%esp)
    2b08:	00 
    2b09:	89 44 24 08          	mov    %eax,0x8(%esp)
    2b0d:	c7 04 24 01 00 00 00 	movl   $0x1,(%esp)
    2b14:	e8 97 33 00 00       	call   5eb0 <ddf_msg>
    2b19:	eb 8d                	jmp    2aa8 <rtl8139_dev_add+0x808>
    2b1b:	e8 50 28 00 00       	call   5370 <ddf_dev_get_name>
    2b20:	c7 44 24 04 d4 df 02 	movl   $0x2dfd4,0x4(%esp)
    2b27:	00 
    2b28:	89 44 24 08          	mov    %eax,0x8(%esp)
    2b2c:	c7 04 24 01 00 00 00 	movl   $0x1,(%esp)
    2b33:	e8 78 33 00 00       	call   5eb0 <ddf_msg>
    2b38:	e9 6b ff ff ff       	jmp    2aa8 <rtl8139_dev_add+0x808>
    2b3d:	8b 45 b4             	mov    -0x4c(%ebp),%eax
    2b40:	89 04 24             	mov    %eax,(%esp)
    2b43:	e8 e8 8a 00 00       	call   b630 <nic_get_ddf_dev>
    2b48:	c7 44 24 08 6d de 02 	movl   $0x2de6d,0x8(%esp)
    2b4f:	00 
    2b50:	c7 44 24 04 02 00 00 	movl   $0x2,0x4(%esp)
    2b57:	00 
    2b58:	89 04 24             	mov    %eax,(%esp)
    2b5b:	e8 f0 28 00 00       	call   5450 <ddf_fun_create>
    2b60:	89 45 b0             	mov    %eax,-0x50(%ebp)
    2b63:	85 c0                	test   %eax,%eax
    2b65:	0f 84 87 02 00 00    	je     2df2 <rtl8139_dev_add+0xb52>
    2b6b:	89 44 24 04          	mov    %eax,0x4(%esp)
    2b6f:	8b 45 b4             	mov    -0x4c(%ebp),%eax
    2b72:	89 04 24             	mov    %eax,(%esp)
    2b75:	e8 d6 8a 00 00       	call   b650 <nic_set_ddf_fun>
    2b7a:	8b 45 b0             	mov    -0x50(%ebp),%eax
    2b7d:	89 04 24             	mov    %eax,(%esp)
    2b80:	c7 44 24 04 e0 1d 03 	movl   $0x31de0,0x4(%esp)
    2b87:	00 
    2b88:	e8 53 2e 00 00       	call   59e0 <ddf_fun_set_ops>
    2b8d:	8b 45 b4             	mov    -0x4c(%ebp),%eax
    2b90:	89 44 24 04          	mov    %eax,0x4(%esp)
    2b94:	8b 45 b0             	mov    -0x50(%ebp),%eax
    2b97:	89 04 24             	mov    %eax,(%esp)
    2b9a:	e8 71 27 00 00       	call   5310 <ddf_fun_data_implant>
    2b9f:	8b 45 b0             	mov    -0x50(%ebp),%eax
    2ba2:	89 04 24             	mov    %eax,(%esp)
    2ba5:	e8 36 2b 00 00       	call   56e0 <ddf_fun_bind>
    2baa:	89 c6                	mov    %eax,%esi
    2bac:	85 c0                	test   %eax,%eax
    2bae:	0f 84 dc 01 00 00    	je     2d90 <rtl8139_dev_add+0xaf0>
    2bb4:	c7 44 24 04 f0 e1 02 	movl   $0x2e1f0,0x4(%esp)
    2bbb:	00 
    2bbc:	c7 04 24 01 00 00 00 	movl   $0x1,(%esp)
    2bc3:	e8 e8 32 00 00       	call   5eb0 <ddf_msg>
    2bc8:	8b 45 b0             	mov    -0x50(%ebp),%eax
    2bcb:	89 04 24             	mov    %eax,(%esp)
    2bce:	e8 fd 29 00 00       	call   55d0 <ddf_fun_destroy>
    2bd3:	e9 2c fe ff ff       	jmp    2a04 <rtl8139_dev_add+0x764>
    2bd8:	a1 f4 e3 02 00       	mov    0x2e3f4,%eax
    2bdd:	89 43 7c             	mov    %eax,0x7c(%ebx)
    2be0:	89 44 24 0c          	mov    %eax,0xc(%esp)
    2be4:	8b 0c 85 e0 18 03 00 	mov    0x318e0(,%eax,4),%ecx
    2beb:	c7 44 24 08 02 00 00 	movl   $0x2,0x8(%esp)
    2bf2:	00 
    2bf3:	89 4c 24 10          	mov    %ecx,0x10(%esp)
    2bf7:	c7 44 24 04 80 e1 02 	movl   $0x2e180,0x4(%esp)
    2bfe:	00 
    2bff:	c7 04 24 03 00 00 00 	movl   $0x3,(%esp)
    2c06:	e8 a5 32 00 00       	call   5eb0 <ddf_msg>
    2c0b:	e9 9c fc ff ff       	jmp    28ac <rtl8139_dev_add+0x60c>
    2c10:	89 3c 24             	mov    %edi,(%esp)
    2c13:	be f4 ff ff ff       	mov    $0xfffffff4,%esi
    2c18:	e8 53 27 00 00       	call   5370 <ddf_dev_get_name>
    2c1d:	89 44 24 0c          	mov    %eax,0xc(%esp)
    2c21:	8b 03                	mov    (%ebx),%eax
    2c23:	c7 44 24 04 58 e1 02 	movl   $0x2e158,0x4(%esp)
    2c2a:	00 
    2c2b:	89 44 24 08          	mov    %eax,0x8(%esp)
    2c2f:	c7 04 24 01 00 00 00 	movl   $0x1,(%esp)
    2c36:	e8 75 32 00 00       	call   5eb0 <ddf_msg>
    2c3b:	e9 9f fb ff ff       	jmp    27df <rtl8139_dev_add+0x53f>
    2c40:	a1 fc e3 02 00       	mov    0x2e3fc,%eax
    2c45:	89 43 7c             	mov    %eax,0x7c(%ebx)
    2c48:	89 44 24 0c          	mov    %eax,0xc(%esp)
    2c4c:	8b 0c 85 e0 18 03 00 	mov    0x318e0(,%eax,4),%ecx
    2c53:	c7 44 24 08 03 00 00 	movl   $0x3,0x8(%esp)
    2c5a:	00 
    2c5b:	89 4c 24 10          	mov    %ecx,0x10(%esp)
    2c5f:	c7 44 24 04 80 e1 02 	movl   $0x2e180,0x4(%esp)
    2c66:	00 
    2c67:	c7 04 24 03 00 00 00 	movl   $0x3,(%esp)
    2c6e:	e8 3d 32 00 00       	call   5eb0 <ddf_msg>
    2c73:	e9 49 fc ff ff       	jmp    28c1 <rtl8139_dev_add+0x621>
    2c78:	a1 04 e4 02 00       	mov    0x2e404,%eax
    2c7d:	89 43 7c             	mov    %eax,0x7c(%ebx)
    2c80:	89 44 24 0c          	mov    %eax,0xc(%esp)
    2c84:	8b 0c 85 e0 18 03 00 	mov    0x318e0(,%eax,4),%ecx
    2c8b:	c7 44 24 08 04 00 00 	movl   $0x4,0x8(%esp)
    2c92:	00 
    2c93:	89 4c 24 10          	mov    %ecx,0x10(%esp)
    2c97:	c7 44 24 04 80 e1 02 	movl   $0x2e180,0x4(%esp)
    2c9e:	00 
    2c9f:	c7 04 24 03 00 00 00 	movl   $0x3,(%esp)
    2ca6:	e8 05 32 00 00       	call   5eb0 <ddf_msg>
    2cab:	e9 26 fc ff ff       	jmp    28d6 <rtl8139_dev_add+0x636>
    2cb0:	a1 0c e4 02 00       	mov    0x2e40c,%eax
    2cb5:	89 43 7c             	mov    %eax,0x7c(%ebx)
    2cb8:	89 44 24 0c          	mov    %eax,0xc(%esp)
    2cbc:	8b 0c 85 e0 18 03 00 	mov    0x318e0(,%eax,4),%ecx
    2cc3:	c7 44 24 08 05 00 00 	movl   $0x5,0x8(%esp)
    2cca:	00 
    2ccb:	89 4c 24 10          	mov    %ecx,0x10(%esp)
    2ccf:	c7 44 24 04 80 e1 02 	movl   $0x2e180,0x4(%esp)
    2cd6:	00 
    2cd7:	c7 04 24 03 00 00 00 	movl   $0x3,(%esp)
    2cde:	e8 cd 31 00 00       	call   5eb0 <ddf_msg>
    2ce3:	e9 03 fc ff ff       	jmp    28eb <rtl8139_dev_add+0x64b>
    2ce8:	a1 14 e4 02 00       	mov    0x2e414,%eax
    2ced:	89 43 7c             	mov    %eax,0x7c(%ebx)
    2cf0:	89 44 24 0c          	mov    %eax,0xc(%esp)
    2cf4:	8b 0c 85 e0 18 03 00 	mov    0x318e0(,%eax,4),%ecx
    2cfb:	c7 44 24 08 06 00 00 	movl   $0x6,0x8(%esp)
    2d02:	00 
    2d03:	89 4c 24 10          	mov    %ecx,0x10(%esp)
    2d07:	c7 44 24 04 80 e1 02 	movl   $0x2e180,0x4(%esp)
    2d0e:	00 
    2d0f:	c7 04 24 03 00 00 00 	movl   $0x3,(%esp)
    2d16:	e8 95 31 00 00       	call   5eb0 <ddf_msg>
    2d1b:	e9 dc fb ff ff       	jmp    28fc <rtl8139_dev_add+0x65c>
    2d20:	a1 1c e4 02 00       	mov    0x2e41c,%eax
    2d25:	89 43 7c             	mov    %eax,0x7c(%ebx)
    2d28:	89 44 24 0c          	mov    %eax,0xc(%esp)
    2d2c:	8b 0c 85 e0 18 03 00 	mov    0x318e0(,%eax,4),%ecx
    2d33:	c7 44 24 08 07 00 00 	movl   $0x7,0x8(%esp)
    2d3a:	00 
    2d3b:	89 4c 24 10          	mov    %ecx,0x10(%esp)
    2d3f:	c7 44 24 04 80 e1 02 	movl   $0x2e180,0x4(%esp)
    2d46:	00 
    2d47:	c7 04 24 03 00 00 00 	movl   $0x3,(%esp)
    2d4e:	e8 5d 31 00 00       	call   5eb0 <ddf_msg>
    2d53:	e9 b5 fb ff ff       	jmp    290d <rtl8139_dev_add+0x66d>
    2d58:	a1 24 e4 02 00       	mov    0x2e424,%eax
    2d5d:	89 43 7c             	mov    %eax,0x7c(%ebx)
    2d60:	89 44 24 0c          	mov    %eax,0xc(%esp)
    2d64:	8b 0c 85 e0 18 03 00 	mov    0x318e0(,%eax,4),%ecx
    2d6b:	c7 44 24 08 08 00 00 	movl   $0x8,0x8(%esp)
    2d72:	00 
    2d73:	89 4c 24 10          	mov    %ecx,0x10(%esp)
    2d77:	c7 44 24 04 80 e1 02 	movl   $0x2e180,0x4(%esp)
    2d7e:	00 
    2d7f:	c7 04 24 03 00 00 00 	movl   $0x3,(%esp)
    2d86:	e8 25 31 00 00       	call   5eb0 <ddf_msg>
    2d8b:	e9 8e fb ff ff       	jmp    291e <rtl8139_dev_add+0x67e>
    2d90:	8b 45 b0             	mov    -0x50(%ebp),%eax
    2d93:	c7 44 24 04 73 de 02 	movl   $0x2de73,0x4(%esp)
    2d9a:	00 
    2d9b:	89 04 24             	mov    %eax,(%esp)
    2d9e:	e8 bd 2c 00 00       	call   5a60 <ddf_fun_add_to_category>
    2da3:	89 c6                	mov    %eax,%esi
    2da5:	85 c0                	test   %eax,%eax
    2da7:	74 24                	je     2dcd <rtl8139_dev_add+0xb2d>
    2da9:	c7 44 24 04 10 e2 02 	movl   $0x2e210,0x4(%esp)
    2db0:	00 
    2db1:	c7 04 24 01 00 00 00 	movl   $0x1,(%esp)
    2db8:	e8 f3 30 00 00       	call   5eb0 <ddf_msg>
    2dbd:	8b 45 b0             	mov    -0x50(%ebp),%eax
    2dc0:	89 04 24             	mov    %eax,(%esp)
    2dc3:	e8 28 2a 00 00       	call   57f0 <ddf_fun_unbind>
    2dc8:	e9 fb fd ff ff       	jmp    2bc8 <rtl8139_dev_add+0x928>
    2dcd:	89 3c 24             	mov    %edi,(%esp)
    2dd0:	e8 9b 25 00 00       	call   5370 <ddf_dev_get_name>
    2dd5:	c7 44 24 04 34 e2 02 	movl   $0x2e234,0x4(%esp)
    2ddc:	00 
    2ddd:	89 44 24 08          	mov    %eax,0x8(%esp)
    2de1:	c7 04 24 03 00 00 00 	movl   $0x3,(%esp)
    2de8:	e8 c3 30 00 00       	call   5eb0 <ddf_msg>
    2ded:	e9 03 f7 ff ff       	jmp    24f5 <rtl8139_dev_add+0x255>
    2df2:	c7 44 24 04 d0 e1 02 	movl   $0x2e1d0,0x4(%esp)
    2df9:	00 
    2dfa:	c7 04 24 01 00 00 00 	movl   $0x1,(%esp)
    2e01:	e8 aa 30 00 00       	call   5eb0 <ddf_msg>
    2e06:	e9 f9 fb ff ff       	jmp    2a04 <rtl8139_dev_add+0x764>
    2e0b:	c7 44 24 08 10 05 00 	movl   $0x510,0x8(%esp)
    2e12:	00 
    2e13:	c7 44 24 04 91 e4 02 	movl   $0x2e491,0x4(%esp)
    2e1a:	00 
    2e1b:	c7 04 24 a0 dd 02 00 	movl   $0x2dda0,(%esp)
    2e22:	e8 89 68 02 00       	call   296b0 <assert_abort>
    2e27:	c7 44 24 08 59 04 00 	movl   $0x459,0x8(%esp)
    2e2e:	00 
    2e2f:	c7 44 24 04 91 e4 02 	movl   $0x2e491,0x4(%esp)
    2e36:	00 
    2e37:	c7 04 24 15 dd 02 00 	movl   $0x2dd15,(%esp)
    2e3e:	e8 6d 68 02 00       	call   296b0 <assert_abort>
    2e43:	c7 44 24 08 f2 03 00 	movl   $0x3f2,0x8(%esp)
    2e4a:	00 
    2e4b:	c7 44 24 04 91 e4 02 	movl   $0x2e491,0x4(%esp)
    2e52:	00 
    2e53:	c7 04 24 dc dd 02 00 	movl   $0x2dddc,(%esp)
    2e5a:	e8 51 68 02 00       	call   296b0 <assert_abort>
    2e5f:	c7 44 24 08 33 04 00 	movl   $0x433,0x8(%esp)
    2e66:	00 
    2e67:	c7 44 24 04 91 e4 02 	movl   $0x2e491,0x4(%esp)
    2e6e:	00 
    2e6f:	c7 04 24 08 dd 02 00 	movl   $0x2dd08,(%esp)
    2e76:	e8 35 68 02 00       	call   296b0 <assert_abort>
    2e7b:	c7 44 24 08 f0 00 00 	movl   $0xf0,0x8(%esp)
    2e82:	00 
    2e83:	c7 44 24 04 91 e4 02 	movl   $0x2e491,0x4(%esp)
    2e8a:	00 
    2e8b:	c7 04 24 08 dd 02 00 	movl   $0x2dd08,(%esp)
    2e92:	e8 19 68 02 00       	call   296b0 <assert_abort>
    2e97:	89 f6                	mov    %esi,%esi
    2e99:	8d bc 27 00 00 00 00 	lea    0x0(%edi,%eiz,1),%edi

00002ea0 <rtl8139_pause_get>:
    2ea0:	55                   	push   %ebp
    2ea1:	89 e5                	mov    %esp,%ebp
    2ea3:	57                   	push   %edi
    2ea4:	56                   	push   %esi
    2ea5:	53                   	push   %ebx
    2ea6:	83 ec 1c             	sub    $0x1c,%esp
    2ea9:	8b 45 08             	mov    0x8(%ebp),%eax
    2eac:	8b 7d 0c             	mov    0xc(%ebp),%edi
    2eaf:	8b 75 10             	mov    0x10(%ebp),%esi
    2eb2:	85 c0                	test   %eax,%eax
    2eb4:	0f 84 de 00 00 00    	je     2f98 <rtl8139_pause_get+0xf8>
    2eba:	85 ff                	test   %edi,%edi
    2ebc:	0f 84 9e 00 00 00    	je     2f60 <rtl8139_pause_get+0xc0>
    2ec2:	85 f6                	test   %esi,%esi
    2ec4:	0f 84 ea 00 00 00    	je     2fb4 <rtl8139_pause_get+0x114>
    2eca:	89 04 24             	mov    %eax,(%esp)
    2ecd:	e8 9e 87 00 00       	call   b670 <nic_get_from_ddf_fun>
    2ed2:	89 04 24             	mov    %eax,(%esp)
    2ed5:	e8 16 87 00 00       	call   b5f0 <nic_get_specific>
    2eda:	89 c3                	mov    %eax,%ebx
    2edc:	85 c0                	test   %eax,%eax
    2ede:	0f 84 98 00 00 00    	je     2f7c <rtl8139_pause_get+0xdc>
    2ee4:	8b 40 04             	mov    0x4(%eax),%eax
    2ee7:	83 c0 62             	add    $0x62,%eax
    2eea:	89 04 24             	mov    %eax,(%esp)
    2eed:	e8 3e c1 00 00       	call   f030 <pio_read_16>
    2ef2:	f6 c4 11             	test   $0x11,%ah
    2ef5:	74 39                	je     2f30 <rtl8139_pause_get+0x90>
    2ef7:	f6 c4 10             	test   $0x10,%ah
    2efa:	75 54                	jne    2f50 <rtl8139_pause_get+0xb0>
    2efc:	8b 43 04             	mov    0x4(%ebx),%eax
    2eff:	83 c0 58             	add    $0x58,%eax
    2f02:	89 04 24             	mov    %eax,(%esp)
    2f05:	e8 e6 c0 00 00       	call   eff0 <pio_read_8>
    2f0a:	0f be d0             	movsbl %al,%edx
    2f0d:	c1 ea 1f             	shr    $0x1f,%edx
    2f10:	c0 e8 06             	shr    $0x6,%al
    2f13:	89 17                	mov    %edx,(%edi)
    2f15:	8b 55 14             	mov    0x14(%ebp),%edx
    2f18:	83 e0 01             	and    $0x1,%eax
    2f1b:	89 06                	mov    %eax,(%esi)
    2f1d:	31 c0                	xor    %eax,%eax
    2f1f:	66 c7 02 ff ff       	movw   $0xffff,(%edx)
    2f24:	83 c4 1c             	add    $0x1c,%esp
    2f27:	5b                   	pop    %ebx
    2f28:	5e                   	pop    %esi
    2f29:	5f                   	pop    %edi
    2f2a:	5d                   	pop    %ebp
    2f2b:	c3                   	ret    
    2f2c:	8d 74 26 00          	lea    0x0(%esi,%eiz,1),%esi
    2f30:	8b 45 14             	mov    0x14(%ebp),%eax
    2f33:	c7 07 03 00 00 00    	movl   $0x3,(%edi)
    2f39:	c7 06 03 00 00 00    	movl   $0x3,(%esi)
    2f3f:	66 c7 00 00 00       	movw   $0x0,(%eax)
    2f44:	83 c4 1c             	add    $0x1c,%esp
    2f47:	31 c0                	xor    %eax,%eax
    2f49:	5b                   	pop    %ebx
    2f4a:	5e                   	pop    %esi
    2f4b:	5f                   	pop    %edi
    2f4c:	5d                   	pop    %ebp
    2f4d:	c3                   	ret    
    2f4e:	66 90                	xchg   %ax,%ax
    2f50:	8b 43 04             	mov    0x4(%ebx),%eax
    2f53:	83 c0 68             	add    $0x68,%eax
    2f56:	89 04 24             	mov    %eax,(%esp)
    2f59:	e8 d2 c0 00 00       	call   f030 <pio_read_16>
    2f5e:	eb 9c                	jmp    2efc <rtl8139_pause_get+0x5c>
    2f60:	c7 44 24 08 0b 06 00 	movl   $0x60b,0x8(%esp)
    2f67:	00 
    2f68:	c7 44 24 04 91 e4 02 	movl   $0x2e491,0x4(%esp)
    2f6f:	00 
    2f70:	c7 04 24 77 de 02 00 	movl   $0x2de77,(%esp)
    2f77:	e8 34 67 02 00       	call   296b0 <assert_abort>
    2f7c:	c7 44 24 08 0f 06 00 	movl   $0x60f,0x8(%esp)
    2f83:	00 
    2f84:	c7 44 24 04 91 e4 02 	movl   $0x2e491,0x4(%esp)
    2f8b:	00 
    2f8c:	c7 04 24 08 dd 02 00 	movl   $0x2dd08,(%esp)
    2f93:	e8 18 67 02 00       	call   296b0 <assert_abort>
    2f98:	c7 44 24 08 0a 06 00 	movl   $0x60a,0x8(%esp)
    2f9f:	00 
    2fa0:	c7 44 24 04 91 e4 02 	movl   $0x2e491,0x4(%esp)
    2fa7:	00 
    2fa8:	c7 04 24 f2 dc 02 00 	movl   $0x2dcf2,(%esp)
    2faf:	e8 fc 66 02 00       	call   296b0 <assert_abort>
    2fb4:	c7 44 24 08 0c 06 00 	movl   $0x60c,0x8(%esp)
    2fbb:	00 
    2fbc:	c7 44 24 04 91 e4 02 	movl   $0x2e491,0x4(%esp)
    2fc3:	00 
    2fc4:	c7 04 24 7f de 02 00 	movl   $0x2de7f,(%esp)
    2fcb:	e8 e0 66 02 00       	call   296b0 <assert_abort>

00002fd0 <rtl8139_autoneg_probe>:
    2fd0:	55                   	push   %ebp
    2fd1:	89 e5                	mov    %esp,%ebp
    2fd3:	57                   	push   %edi
    2fd4:	56                   	push   %esi
    2fd5:	53                   	push   %ebx
    2fd6:	83 ec 2c             	sub    $0x2c,%esp
    2fd9:	8b 45 08             	mov    0x8(%ebp),%eax
    2fdc:	85 c0                	test   %eax,%eax
    2fde:	0f 84 4a 01 00 00    	je     312e <rtl8139_autoneg_probe+0x15e>
    2fe4:	89 04 24             	mov    %eax,(%esp)
    2fe7:	e8 84 86 00 00       	call   b670 <nic_get_from_ddf_fun>
    2fec:	89 04 24             	mov    %eax,(%esp)
    2fef:	e8 fc 85 00 00       	call   b5f0 <nic_get_specific>
    2ff4:	89 c7                	mov    %eax,%edi
    2ff6:	85 c0                	test   %eax,%eax
    2ff8:	0f 84 14 01 00 00    	je     3112 <rtl8139_autoneg_probe+0x142>
    2ffe:	8b 40 04             	mov    0x4(%eax),%eax
    3001:	83 c0 62             	add    $0x62,%eax
    3004:	89 04 24             	mov    %eax,(%esp)
    3007:	e8 24 c0 00 00       	call   f030 <pio_read_16>
    300c:	66 89 45 e6          	mov    %ax,-0x1a(%ebp)
    3010:	8b 47 04             	mov    0x4(%edi),%eax
    3013:	83 c0 66             	add    $0x66,%eax
    3016:	89 04 24             	mov    %eax,(%esp)
    3019:	e8 12 c0 00 00       	call   f030 <pio_read_16>
    301e:	89 c6                	mov    %eax,%esi
    3020:	8b 47 04             	mov    0x4(%edi),%eax
    3023:	83 c0 68             	add    $0x68,%eax
    3026:	89 04 24             	mov    %eax,(%esp)
    3029:	e8 02 c0 00 00       	call   f030 <pio_read_16>
    302e:	89 c3                	mov    %eax,%ebx
    3030:	8b 47 04             	mov    0x4(%edi),%eax
    3033:	83 c0 6a             	add    $0x6a,%eax
    3036:	89 04 24             	mov    %eax,(%esp)
    3039:	e8 f2 bf 00 00       	call   f030 <pio_read_16>
    303e:	66 8b 7d e6          	mov    -0x1a(%ebp),%di
    3042:	66 c1 ef 0c          	shr    $0xc,%di
    3046:	8b 4d 14             	mov    0x14(%ebp),%ecx
    3049:	83 e7 01             	and    $0x1,%edi
    304c:	83 e0 01             	and    $0x1,%eax
    304f:	89 39                	mov    %edi,(%ecx)
    3051:	8b 4d 18             	mov    0x18(%ebp),%ecx
    3054:	89 01                	mov    %eax,(%ecx)
    3056:	89 f0                	mov    %esi,%eax
    3058:	66 c1 e8 05          	shr    $0x5,%ax
    305c:	83 e0 01             	and    $0x1,%eax
    305f:	f7 c6 40 00 00 00    	test   $0x40,%esi
    3065:	74 03                	je     306a <rtl8139_autoneg_probe+0x9a>
    3067:	83 c8 02             	or     $0x2,%eax
    306a:	8b 55 0c             	mov    0xc(%ebp),%edx
    306d:	f7 c6 80 00 00 00    	test   $0x80,%esi
    3073:	89 02                	mov    %eax,(%edx)
    3075:	74 08                	je     307f <rtl8139_autoneg_probe+0xaf>
    3077:	8b 55 0c             	mov    0xc(%ebp),%edx
    307a:	83 c8 04             	or     $0x4,%eax
    307d:	89 02                	mov    %eax,(%edx)
    307f:	f7 c6 00 01 00 00    	test   $0x100,%esi
    3085:	74 08                	je     308f <rtl8139_autoneg_probe+0xbf>
    3087:	8b 55 0c             	mov    0xc(%ebp),%edx
    308a:	83 c8 20             	or     $0x20,%eax
    308d:	89 02                	mov    %eax,(%edx)
    308f:	f7 c6 00 02 00 00    	test   $0x200,%esi
    3095:	75 71                	jne    3108 <rtl8139_autoneg_probe+0x138>
    3097:	81 e6 00 04 00 00    	and    $0x400,%esi
    309d:	74 0a                	je     30a9 <rtl8139_autoneg_probe+0xd9>
    309f:	8b 55 0c             	mov    0xc(%ebp),%edx
    30a2:	0d 00 00 00 10       	or     $0x10000000,%eax
    30a7:	89 02                	mov    %eax,(%edx)
    30a9:	89 d8                	mov    %ebx,%eax
    30ab:	66 c1 e8 05          	shr    $0x5,%ax
    30af:	83 e0 01             	and    $0x1,%eax
    30b2:	f6 c3 40             	test   $0x40,%bl
    30b5:	74 03                	je     30ba <rtl8139_autoneg_probe+0xea>
    30b7:	83 c8 02             	or     $0x2,%eax
    30ba:	8b 55 10             	mov    0x10(%ebp),%edx
    30bd:	f6 c3 80             	test   $0x80,%bl
    30c0:	89 02                	mov    %eax,(%edx)
    30c2:	74 08                	je     30cc <rtl8139_autoneg_probe+0xfc>
    30c4:	8b 55 10             	mov    0x10(%ebp),%edx
    30c7:	83 c8 04             	or     $0x4,%eax
    30ca:	89 02                	mov    %eax,(%edx)
    30cc:	f6 c7 01             	test   $0x1,%bh
    30cf:	74 08                	je     30d9 <rtl8139_autoneg_probe+0x109>
    30d1:	8b 55 10             	mov    0x10(%ebp),%edx
    30d4:	83 c8 20             	or     $0x20,%eax
    30d7:	89 02                	mov    %eax,(%edx)
    30d9:	f6 c7 02             	test   $0x2,%bh
    30dc:	75 1a                	jne    30f8 <rtl8139_autoneg_probe+0x128>
    30de:	80 e7 04             	and    $0x4,%bh
    30e1:	74 0a                	je     30ed <rtl8139_autoneg_probe+0x11d>
    30e3:	8b 55 10             	mov    0x10(%ebp),%edx
    30e6:	0d 00 00 00 10       	or     $0x10000000,%eax
    30eb:	89 02                	mov    %eax,(%edx)
    30ed:	83 c4 2c             	add    $0x2c,%esp
    30f0:	31 c0                	xor    %eax,%eax
    30f2:	5b                   	pop    %ebx
    30f3:	5e                   	pop    %esi
    30f4:	5f                   	pop    %edi
    30f5:	5d                   	pop    %ebp
    30f6:	c3                   	ret    
    30f7:	90                   	nop
    30f8:	8b 55 10             	mov    0x10(%ebp),%edx
    30fb:	83 c8 08             	or     $0x8,%eax
    30fe:	89 02                	mov    %eax,(%edx)
    3100:	eb dc                	jmp    30de <rtl8139_autoneg_probe+0x10e>
    3102:	8d b6 00 00 00 00    	lea    0x0(%esi),%esi
    3108:	8b 55 0c             	mov    0xc(%ebp),%edx
    310b:	83 c8 08             	or     $0x8,%eax
    310e:	89 02                	mov    %eax,(%edx)
    3110:	eb 85                	jmp    3097 <rtl8139_autoneg_probe+0xc7>
    3112:	c7 44 24 08 db 06 00 	movl   $0x6db,0x8(%esp)
    3119:	00 
    311a:	c7 44 24 04 91 e4 02 	movl   $0x2e491,0x4(%esp)
    3121:	00 
    3122:	c7 04 24 08 dd 02 00 	movl   $0x2dd08,(%esp)
    3129:	e8 82 65 02 00       	call   296b0 <assert_abort>
    312e:	c7 44 24 08 d8 06 00 	movl   $0x6d8,0x8(%esp)
    3135:	00 
    3136:	c7 44 24 04 91 e4 02 	movl   $0x2e491,0x4(%esp)
    313d:	00 
    313e:	c7 04 24 f2 dc 02 00 	movl   $0x2dcf2,(%esp)
    3145:	e8 66 65 02 00       	call   296b0 <assert_abort>
    314a:	8d b6 00 00 00 00    	lea    0x0(%esi),%esi

00003150 <rtl8139_wol_virtue_rem>:
    3150:	55                   	push   %ebp
    3151:	89 e5                	mov    %esp,%ebp
    3153:	56                   	push   %esi
    3154:	53                   	push   %ebx
    3155:	83 ec 20             	sub    $0x20,%esp
    3158:	8b 45 08             	mov    0x8(%ebp),%eax
    315b:	8b 75 0c             	mov    0xc(%ebp),%esi
    315e:	85 c0                	test   %eax,%eax
    3160:	0f 84 a0 01 00 00    	je     3306 <rtl8139_wol_virtue_rem+0x1b6>
    3166:	85 f6                	test   %esi,%esi
    3168:	0f 84 d0 01 00 00    	je     333e <rtl8139_wol_virtue_rem+0x1ee>
    316e:	89 04 24             	mov    %eax,(%esp)
    3171:	e8 7a 84 00 00       	call   b5f0 <nic_get_specific>
    3176:	89 c3                	mov    %eax,%ebx
    3178:	85 c0                	test   %eax,%eax
    317a:	0f 84 a2 01 00 00    	je     3322 <rtl8139_wol_virtue_rem+0x1d2>
    3180:	8b 46 0c             	mov    0xc(%esi),%eax
    3183:	83 f8 02             	cmp    $0x2,%eax
    3186:	0f 84 4c 01 00 00    	je     32d8 <rtl8139_wol_virtue_rem+0x188>
    318c:	83 f8 04             	cmp    $0x4,%eax
    318f:	0f 84 13 01 00 00    	je     32a8 <rtl8139_wol_virtue_rem+0x158>
    3195:	48                   	dec    %eax
    3196:	74 08                	je     31a0 <rtl8139_wol_virtue_rem+0x50>
    3198:	83 c4 20             	add    $0x20,%esp
    319b:	5b                   	pop    %ebx
    319c:	5e                   	pop    %esi
    319d:	5d                   	pop    %ebp
    319e:	c3                   	ret    
    319f:	90                   	nop
    31a0:	c7 44 24 04 c0 00 00 	movl   $0xc0,0x4(%esp)
    31a7:	00 
    31a8:	8b 43 04             	mov    0x4(%ebx),%eax
    31ab:	83 c0 50             	add    $0x50,%eax
    31ae:	89 04 24             	mov    %eax,(%esp)
    31b1:	e8 4a bd 00 00       	call   ef00 <pio_write_8>
    31b6:	8b 43 04             	mov    0x4(%ebx),%eax
    31b9:	83 c0 59             	add    $0x59,%eax
    31bc:	89 04 24             	mov    %eax,(%esp)
    31bf:	e8 2c be 00 00       	call   eff0 <pio_read_8>
    31c4:	25 ef 00 00 00       	and    $0xef,%eax
    31c9:	89 44 24 04          	mov    %eax,0x4(%esp)
    31cd:	8b 43 04             	mov    0x4(%ebx),%eax
    31d0:	83 c0 59             	add    $0x59,%eax
    31d3:	89 04 24             	mov    %eax,(%esp)
    31d6:	e8 25 bd 00 00       	call   ef00 <pio_write_8>
    31db:	c7 44 24 04 00 00 00 	movl   $0x0,0x4(%esp)
    31e2:	00 
    31e3:	8b 43 04             	mov    0x4(%ebx),%eax
    31e6:	83 c0 50             	add    $0x50,%eax
    31e9:	89 04 24             	mov    %eax,(%esp)
    31ec:	e8 0f bd 00 00       	call   ef00 <pio_write_8>
    31f1:	8b 43 40             	mov    0x40(%ebx),%eax
    31f4:	48                   	dec    %eax
    31f5:	89 43 40             	mov    %eax,0x40(%ebx)
    31f8:	85 c0                	test   %eax,%eax
    31fa:	75 9c                	jne    3198 <rtl8139_wol_virtue_rem+0x48>
    31fc:	8b 43 04             	mov    0x4(%ebx),%eax
    31ff:	be fe ff ff ff       	mov    $0xfffffffe,%esi
    3204:	83 c0 52             	add    $0x52,%eax
    3207:	89 04 24             	mov    %eax,(%esp)
    320a:	e8 e1 bd 00 00       	call   eff0 <pio_read_8>
    320f:	21 c6                	and    %eax,%esi
    3211:	89 f2                	mov    %esi,%edx
    3213:	38 d0                	cmp    %dl,%al
    3215:	74 81                	je     3198 <rtl8139_wol_virtue_rem+0x48>
    3217:	c7 44 24 04 c0 00 00 	movl   $0xc0,0x4(%esp)
    321e:	00 
    321f:	81 e6 ff 00 00 00    	and    $0xff,%esi
    3225:	8b 43 04             	mov    0x4(%ebx),%eax
    3228:	83 c0 50             	add    $0x50,%eax
    322b:	89 04 24             	mov    %eax,(%esp)
    322e:	e8 cd bc 00 00       	call   ef00 <pio_write_8>
    3233:	89 74 24 04          	mov    %esi,0x4(%esp)
    3237:	8b 43 04             	mov    0x4(%ebx),%eax
    323a:	83 c0 52             	add    $0x52,%eax
    323d:	89 04 24             	mov    %eax,(%esp)
    3240:	e8 bb bc 00 00       	call   ef00 <pio_write_8>
    3245:	c7 44 24 04 00 00 00 	movl   $0x0,0x4(%esp)
    324c:	00 
    324d:	8b 43 04             	mov    0x4(%ebx),%eax
    3250:	83 c0 50             	add    $0x50,%eax
    3253:	89 04 24             	mov    %eax,(%esp)
    3256:	e8 a5 bc 00 00       	call   ef00 <pio_write_8>
    325b:	8b 43 78             	mov    0x78(%ebx),%eax
    325e:	89 04 24             	mov    %eax,(%esp)
    3261:	e8 ca 83 00 00       	call   b630 <nic_get_ddf_dev>
    3266:	89 04 24             	mov    %eax,(%esp)
    3269:	e8 62 21 00 00       	call   53d0 <ddf_dev_parent_sess_get>
    326e:	c7 44 24 04 55 00 00 	movl   $0x55,0x4(%esp)
    3275:	00 
    3276:	89 c3                	mov    %eax,%ebx
    3278:	8d 45 f7             	lea    -0x9(%ebp),%eax
    327b:	89 1c 24             	mov    %ebx,(%esp)
    327e:	89 44 24 08          	mov    %eax,0x8(%esp)
    3282:	e8 b9 df 00 00       	call   11240 <pci_config_space_read_8>
    3287:	8a 45 f7             	mov    -0x9(%ebp),%al
    328a:	83 e0 7e             	and    $0x7e,%eax
    328d:	89 1c 24             	mov    %ebx,(%esp)
    3290:	89 44 24 08          	mov    %eax,0x8(%esp)
    3294:	c7 44 24 04 55 00 00 	movl   $0x55,0x4(%esp)
    329b:	00 
    329c:	e8 4f e1 00 00       	call   113f0 <pci_config_space_write_8>
    32a1:	83 c4 20             	add    $0x20,%esp
    32a4:	5b                   	pop    %ebx
    32a5:	5e                   	pop    %esi
    32a6:	5d                   	pop    %ebp
    32a7:	c3                   	ret    
    32a8:	8b 43 04             	mov    0x4(%ebx),%eax
    32ab:	05 d8 00 00 00       	add    $0xd8,%eax
    32b0:	89 04 24             	mov    %eax,(%esp)
    32b3:	e8 38 bd 00 00       	call   eff0 <pio_read_8>
    32b8:	25 bf 00 00 00       	and    $0xbf,%eax
    32bd:	89 44 24 04          	mov    %eax,0x4(%esp)
    32c1:	8b 43 04             	mov    0x4(%ebx),%eax
    32c4:	05 d8 00 00 00       	add    $0xd8,%eax
    32c9:	89 04 24             	mov    %eax,(%esp)
    32cc:	e8 2f bc 00 00       	call   ef00 <pio_write_8>
    32d1:	e9 1b ff ff ff       	jmp    31f1 <rtl8139_wol_virtue_rem+0xa1>
    32d6:	66 90                	xchg   %ax,%ax
    32d8:	c7 44 24 04 c0 00 00 	movl   $0xc0,0x4(%esp)
    32df:	00 
    32e0:	8b 43 04             	mov    0x4(%ebx),%eax
    32e3:	83 c0 50             	add    $0x50,%eax
    32e6:	89 04 24             	mov    %eax,(%esp)
    32e9:	e8 12 bc 00 00       	call   ef00 <pio_write_8>
    32ee:	8b 43 04             	mov    0x4(%ebx),%eax
    32f1:	83 c0 59             	add    $0x59,%eax
    32f4:	89 04 24             	mov    %eax,(%esp)
    32f7:	e8 f4 bc 00 00       	call   eff0 <pio_read_8>
    32fc:	25 df 00 00 00       	and    $0xdf,%eax
    3301:	e9 c3 fe ff ff       	jmp    31c9 <rtl8139_wol_virtue_rem+0x79>
    3306:	c7 44 24 08 0d 08 00 	movl   $0x80d,0x8(%esp)
    330d:	00 
    330e:	c7 44 24 04 91 e4 02 	movl   $0x2e491,0x4(%esp)
    3315:	00 
    3316:	c7 04 24 15 dd 02 00 	movl   $0x2dd15,(%esp)
    331d:	e8 8e 63 02 00       	call   296b0 <assert_abort>
    3322:	c7 44 24 08 11 08 00 	movl   $0x811,0x8(%esp)
    3329:	00 
    332a:	c7 44 24 04 91 e4 02 	movl   $0x2e491,0x4(%esp)
    3331:	00 
    3332:	c7 04 24 08 dd 02 00 	movl   $0x2dd08,(%esp)
    3339:	e8 72 63 02 00       	call   296b0 <assert_abort>
    333e:	c7 44 24 08 0e 08 00 	movl   $0x80e,0x8(%esp)
    3345:	00 
    3346:	c7 44 24 04 91 e4 02 	movl   $0x2e491,0x4(%esp)
    334d:	00 
    334e:	c7 04 24 8a de 02 00 	movl   $0x2de8a,(%esp)
    3355:	e8 56 63 02 00       	call   296b0 <assert_abort>
    335a:	8d b6 00 00 00 00    	lea    0x0(%esi),%esi

00003360 <rtl8139_receive_frames>:
    3360:	55                   	push   %ebp
    3361:	89 e5                	mov    %esp,%ebp
    3363:	57                   	push   %edi
    3364:	56                   	push   %esi
    3365:	53                   	push   %ebx
    3366:	83 ec 7c             	sub    $0x7c,%esp
    3369:	89 45 d4             	mov    %eax,-0x2c(%ebp)
    336c:	85 c0                	test   %eax,%eax
    336e:	0f 84 1d 04 00 00    	je     3791 <rtl8139_receive_frames+0x431>
    3374:	89 04 24             	mov    %eax,(%esp)
    3377:	e8 74 82 00 00       	call   b5f0 <nic_get_specific>
    337c:	85 c0                	test   %eax,%eax
    337e:	0f 84 f1 03 00 00    	je     3775 <rtl8139_receive_frames+0x415>
    3384:	83 c0 44             	add    $0x44,%eax
    3387:	89 04 24             	mov    %eax,(%esp)
    338a:	89 45 cc             	mov    %eax,-0x34(%ebp)
    338d:	e8 6e 24 01 00       	call   15800 <fibril_mutex_lock>
    3392:	8b 45 d4             	mov    -0x2c(%ebp),%eax
    3395:	89 04 24             	mov    %eax,(%esp)
    3398:	e8 53 82 00 00       	call   b5f0 <nic_get_specific>
    339d:	89 45 e0             	mov    %eax,-0x20(%ebp)
    33a0:	8b 50 04             	mov    0x4(%eax),%edx
    33a3:	89 d0                	mov    %edx,%eax
    33a5:	83 c0 37             	add    $0x37,%eax
    33a8:	89 04 24             	mov    %eax,(%esp)
    33ab:	e8 80 bc 00 00       	call   f030 <pio_read_16>
    33b0:	a8 01                	test   $0x1,%al
    33b2:	0f 85 b8 01 00 00    	jne    3570 <rtl8139_receive_frames+0x210>
    33b8:	e8 93 77 00 00       	call   ab50 <nic_alloc_frame_list>
    33bd:	89 45 dc             	mov    %eax,-0x24(%ebp)
    33c0:	85 c0                	test   %eax,%eax
    33c2:	0f 84 84 03 00 00    	je     374c <rtl8139_receive_frames+0x3ec>
    33c8:	8b 45 e0             	mov    -0x20(%ebp),%eax
    33cb:	8b 40 34             	mov    0x34(%eax),%eax
    33ce:	89 45 d8             	mov    %eax,-0x28(%ebp)
    33d1:	8b 45 e0             	mov    -0x20(%ebp),%eax
    33d4:	8b 40 04             	mov    0x4(%eax),%eax
    33d7:	89 45 c4             	mov    %eax,-0x3c(%ebp)
    33da:	83 c0 38             	add    $0x38,%eax
    33dd:	89 04 24             	mov    %eax,(%esp)
    33e0:	e8 4b bc 00 00       	call   f030 <pio_read_16>
    33e5:	8d 58 10             	lea    0x10(%eax),%ebx
    33e8:	8b 45 e0             	mov    -0x20(%ebp),%eax
    33eb:	81 e3 ff 3f 00 00    	and    $0x3fff,%ebx
    33f1:	8b 40 04             	mov    0x4(%eax),%eax
    33f4:	89 45 c0             	mov    %eax,-0x40(%ebp)
    33f7:	83 c0 3a             	add    $0x3a,%eax
    33fa:	89 04 24             	mov    %eax,(%esp)
    33fd:	e8 2e bc 00 00       	call   f030 <pio_read_16>
    3402:	25 ff 3f 00 00       	and    $0x3fff,%eax
    3407:	89 c2                	mov    %eax,%edx
    3409:	29 da                	sub    %ebx,%edx
    340b:	66 39 d8             	cmp    %bx,%ax
    340e:	66 89 55 d2          	mov    %dx,-0x2e(%ebp)
    3412:	0f 82 48 01 00 00    	jb     3560 <rtl8139_receive_frames+0x200>
    3418:	0f ae f0             	mfence 
    341b:	31 ff                	xor    %edi,%edi
    341d:	e9 f6 00 00 00       	jmp    3518 <rtl8139_receive_frames+0x1b8>
    3422:	8d b6 00 00 00 00    	lea    0x0(%esi),%esi
    3428:	89 d8                	mov    %ebx,%eax
    342a:	8b 55 d8             	mov    -0x28(%ebp),%edx
    342d:	25 ff 3f 00 00       	and    $0x3fff,%eax
    3432:	8b 04 02             	mov    (%edx,%eax,1),%eax
    3435:	89 c2                	mov    %eax,%edx
    3437:	c1 ea 10             	shr    $0x10,%edx
    343a:	66 83 fa f0          	cmp    $0xfff0,%dx
    343e:	89 d6                	mov    %edx,%esi
    3440:	0f 84 42 01 00 00    	je     3588 <rtl8139_receive_frames+0x228>
    3446:	8d 4e ff             	lea    -0x1(%esi),%ecx
    3449:	66 81 f9 ff 06       	cmp    $0x6ff,%cx
    344e:	0f 87 4c 01 00 00    	ja     35a0 <rtl8139_receive_frames+0x240>
    3454:	66 83 fa 3f          	cmp    $0x3f,%dx
    3458:	77 08                	ja     3462 <rtl8139_receive_frames+0x102>
    345a:	a8 10                	test   $0x10,%al
    345c:	0f 84 c7 02 00 00    	je     3729 <rtl8139_receive_frames+0x3c9>
    3462:	8d 7c 3e 04          	lea    0x4(%esi,%edi,1),%edi
    3466:	66 3b 7d d2          	cmp    -0x2e(%ebp),%di
    346a:	0f 87 c4 00 00 00    	ja     3534 <rtl8139_receive_frames+0x1d4>
    3470:	8b 45 dc             	mov    -0x24(%ebp),%eax
    3473:	85 c0                	test   %eax,%eax
    3475:	74 77                	je     34ee <rtl8139_receive_frames+0x18e>
    3477:	89 d8                	mov    %ebx,%eax
    3479:	8d 4e fc             	lea    -0x4(%esi),%ecx
    347c:	25 ff ff 00 00       	and    $0xffff,%eax
    3481:	81 e1 ff ff 00 00    	and    $0xffff,%ecx
    3487:	83 c0 04             	add    $0x4,%eax
    348a:	89 4c 24 04          	mov    %ecx,0x4(%esp)
    348e:	89 45 e4             	mov    %eax,-0x1c(%ebp)
    3491:	8b 45 d4             	mov    -0x2c(%ebp),%eax
    3494:	89 04 24             	mov    %eax,(%esp)
    3497:	89 4d 98             	mov    %ecx,-0x68(%ebp)
    349a:	e8 31 75 00 00       	call   a9d0 <nic_alloc_frame>
    349f:	8b 4d 98             	mov    -0x68(%ebp),%ecx
    34a2:	89 c2                	mov    %eax,%edx
    34a4:	85 c0                	test   %eax,%eax
    34a6:	0f 84 64 02 00 00    	je     3710 <rtl8139_receive_frames+0x3b0>
    34ac:	8b 45 e4             	mov    -0x1c(%ebp),%eax
    34af:	89 4c 24 10          	mov    %ecx,0x10(%esp)
    34b3:	89 44 24 08          	mov    %eax,0x8(%esp)
    34b7:	8b 45 d8             	mov    -0x28(%ebp),%eax
    34ba:	c7 44 24 0c 00 40 00 	movl   $0x4000,0xc(%esp)
    34c1:	00 
    34c2:	89 44 24 04          	mov    %eax,0x4(%esp)
    34c6:	8b 42 08             	mov    0x8(%edx),%eax
    34c9:	89 55 98             	mov    %edx,-0x68(%ebp)
    34cc:	89 04 24             	mov    %eax,(%esp)
    34cf:	e8 1c 13 00 00       	call   47f0 <rtl8139_memcpy_wrapped>
    34d4:	8b 55 98             	mov    -0x68(%ebp),%edx
    34d7:	85 c0                	test   %eax,%eax
    34d9:	89 54 24 04          	mov    %edx,0x4(%esp)
    34dd:	0f 84 82 02 00 00    	je     3765 <rtl8139_receive_frames+0x405>
    34e3:	8b 45 dc             	mov    -0x24(%ebp),%eax
    34e6:	89 04 24             	mov    %eax,(%esp)
    34e9:	e8 02 77 00 00       	call   abf0 <nic_frame_list_append>
    34ee:	8d 5c 33 07          	lea    0x7(%ebx,%esi,1),%ebx
    34f2:	83 e3 fc             	and    $0xfffffffc,%ebx
    34f5:	8d 43 f0             	lea    -0x10(%ebx),%eax
    34f8:	25 ff ff 00 00       	and    $0xffff,%eax
    34fd:	89 44 24 04          	mov    %eax,0x4(%esp)
    3501:	8b 45 e0             	mov    -0x20(%ebp),%eax
    3504:	8b 40 04             	mov    0x4(%eax),%eax
    3507:	89 45 bc             	mov    %eax,-0x44(%ebp)
    350a:	83 c0 38             	add    $0x38,%eax
    350d:	89 04 24             	mov    %eax,(%esp)
    3510:	e8 3b ba 00 00       	call   ef50 <pio_write_16>
    3515:	0f ae f0             	mfence 
    3518:	8b 45 e0             	mov    -0x20(%ebp),%eax
    351b:	8b 40 04             	mov    0x4(%eax),%eax
    351e:	89 45 b8             	mov    %eax,-0x48(%ebp)
    3521:	83 c0 37             	add    $0x37,%eax
    3524:	89 04 24             	mov    %eax,(%esp)
    3527:	e8 04 bb 00 00       	call   f030 <pio_read_16>
    352c:	a8 01                	test   $0x1,%al
    352e:	0f 84 f4 fe ff ff    	je     3428 <rtl8139_receive_frames+0xc8>
    3534:	8b 55 cc             	mov    -0x34(%ebp),%edx
    3537:	89 14 24             	mov    %edx,(%esp)
    353a:	e8 e1 23 01 00       	call   15920 <fibril_mutex_unlock>
    353f:	8b 4d dc             	mov    -0x24(%ebp),%ecx
    3542:	85 c9                	test   %ecx,%ecx
    3544:	74 12                	je     3558 <rtl8139_receive_frames+0x1f8>
    3546:	8b 45 dc             	mov    -0x24(%ebp),%eax
    3549:	89 44 24 04          	mov    %eax,0x4(%esp)
    354d:	8b 45 d4             	mov    -0x2c(%ebp),%eax
    3550:	89 04 24             	mov    %eax,(%esp)
    3553:	e8 38 7c 00 00       	call   b190 <nic_received_frame_list>
    3558:	83 c4 7c             	add    $0x7c,%esp
    355b:	5b                   	pop    %ebx
    355c:	5e                   	pop    %esi
    355d:	5f                   	pop    %edi
    355e:	5d                   	pop    %ebp
    355f:	c3                   	ret    
    3560:	05 00 40 00 00       	add    $0x4000,%eax
    3565:	29 d8                	sub    %ebx,%eax
    3567:	66 89 45 d2          	mov    %ax,-0x2e(%ebp)
    356b:	e9 a8 fe ff ff       	jmp    3418 <rtl8139_receive_frames+0xb8>
    3570:	8b 55 cc             	mov    -0x34(%ebp),%edx
    3573:	89 14 24             	mov    %edx,(%esp)
    3576:	e8 a5 23 01 00       	call   15920 <fibril_mutex_unlock>
    357b:	83 c4 7c             	add    $0x7c,%esp
    357e:	5b                   	pop    %ebx
    357f:	5e                   	pop    %esi
    3580:	5f                   	pop    %edi
    3581:	5d                   	pop    %ebp
    3582:	c3                   	ret    
    3583:	90                   	nop
    3584:	8d 74 26 00          	lea    0x0(%esi,%eiz,1),%esi
    3588:	c7 44 24 04 c4 e2 02 	movl   $0x2e2c4,0x4(%esp)
    358f:	00 
    3590:	c7 04 24 04 00 00 00 	movl   $0x4,(%esp)
    3597:	e8 14 29 00 00       	call   5eb0 <ddf_msg>
    359c:	eb 96                	jmp    3534 <rtl8139_receive_frames+0x1d4>
    359e:	66 90                	xchg   %ax,%ax
    35a0:	81 e3 ff ff 00 00    	and    $0xffff,%ebx
    35a6:	81 e2 ff ff 00 00    	and    $0xffff,%edx
    35ac:	89 5c 24 10          	mov    %ebx,0x10(%esp)
    35b0:	89 44 24 0c          	mov    %eax,0xc(%esp)
    35b4:	89 54 24 08          	mov    %edx,0x8(%esp)
    35b8:	c7 44 24 04 f4 e2 02 	movl   $0x2e2f4,0x4(%esp)
    35bf:	00 
    35c0:	c7 04 24 01 00 00 00 	movl   $0x1,(%esp)
    35c7:	e8 e4 28 00 00       	call   5eb0 <ddf_msg>
    35cc:	8b 45 e0             	mov    -0x20(%ebp),%eax
    35cf:	8b 40 04             	mov    0x4(%eax),%eax
    35d2:	89 45 b4             	mov    %eax,-0x4c(%ebp)
    35d5:	83 c0 37             	add    $0x37,%eax
    35d8:	89 04 24             	mov    %eax,(%esp)
    35db:	e8 10 ba 00 00       	call   eff0 <pio_read_8>
    35e0:	8b 7d e0             	mov    -0x20(%ebp),%edi
    35e3:	83 c7 50             	add    $0x50,%edi
    35e6:	88 c3                	mov    %al,%bl
    35e8:	c7 44 24 04 c0 00 00 	movl   $0xc0,0x4(%esp)
    35ef:	00 
    35f0:	89 3c 24             	mov    %edi,(%esp)
    35f3:	e8 08 b9 00 00       	call   ef00 <pio_write_8>
    35f8:	89 d8                	mov    %ebx,%eax
    35fa:	25 f7 00 00 00       	and    $0xf7,%eax
    35ff:	89 44 24 04          	mov    %eax,0x4(%esp)
    3603:	8b 45 e0             	mov    -0x20(%ebp),%eax
    3606:	8b 40 04             	mov    0x4(%eax),%eax
    3609:	89 45 b0             	mov    %eax,-0x50(%ebp)
    360c:	83 c0 37             	add    $0x37,%eax
    360f:	89 04 24             	mov    %eax,(%esp)
    3612:	e8 e9 b8 00 00       	call   ef00 <pio_write_8>
    3617:	8b 45 e0             	mov    -0x20(%ebp),%eax
    361a:	c7 44 24 04 00 00 00 	movl   $0x0,0x4(%esp)
    3621:	00 
    3622:	8b 40 04             	mov    0x4(%eax),%eax
    3625:	89 45 ac             	mov    %eax,-0x54(%ebp)
    3628:	83 c0 38             	add    $0x38,%eax
    362b:	89 04 24             	mov    %eax,(%esp)
    362e:	e8 6d b9 00 00       	call   efa0 <pio_write_32>
    3633:	8b 55 e0             	mov    -0x20(%ebp),%edx
    3636:	8b 42 30             	mov    0x30(%edx),%eax
    3639:	89 44 24 04          	mov    %eax,0x4(%esp)
    363d:	8b 42 04             	mov    0x4(%edx),%eax
    3640:	89 45 a8             	mov    %eax,-0x58(%ebp)
    3643:	83 c0 30             	add    $0x30,%eax
    3646:	89 04 24             	mov    %eax,(%esp)
    3649:	e8 52 b9 00 00       	call   efa0 <pio_write_32>
    364e:	8b 45 e0             	mov    -0x20(%ebp),%eax
    3651:	81 e3 ff 00 00 00    	and    $0xff,%ebx
    3657:	89 c2                	mov    %eax,%edx
    3659:	8b 70 38             	mov    0x38(%eax),%esi
    365c:	31 c0                	xor    %eax,%eax
    365e:	8a 42 3c             	mov    0x3c(%edx),%al
    3661:	81 ce 00 08 00 00    	or     $0x800,%esi
    3667:	09 c6                	or     %eax,%esi
    3669:	31 c0                	xor    %eax,%eax
    366b:	8a 42 3d             	mov    0x3d(%edx),%al
    366e:	09 c6                	or     %eax,%esi
    3670:	31 c0                	xor    %eax,%eax
    3672:	8a 42 3e             	mov    0x3e(%edx),%al
    3675:	09 c6                	or     %eax,%esi
    3677:	31 c0                	xor    %eax,%eax
    3679:	8a 42 3f             	mov    0x3f(%edx),%al
    367c:	09 c6                	or     %eax,%esi
    367e:	8b 42 04             	mov    0x4(%edx),%eax
    3681:	89 45 a4             	mov    %eax,-0x5c(%ebp)
    3684:	83 c0 44             	add    $0x44,%eax
    3687:	89 04 24             	mov    %eax,(%esp)
    368a:	e8 e1 b9 00 00       	call   f070 <pio_read_32>
    368f:	89 74 24 0c          	mov    %esi,0xc(%esp)
    3693:	89 44 24 08          	mov    %eax,0x8(%esp)
    3697:	c7 44 24 04 81 dd 02 	movl   $0x2dd81,0x4(%esp)
    369e:	00 
    369f:	c7 04 24 04 00 00 00 	movl   $0x4,(%esp)
    36a6:	e8 05 28 00 00       	call   5eb0 <ddf_msg>
    36ab:	8b 45 e0             	mov    -0x20(%ebp),%eax
    36ae:	89 74 24 04          	mov    %esi,0x4(%esp)
    36b2:	8b 40 04             	mov    0x4(%eax),%eax
    36b5:	89 45 a0             	mov    %eax,-0x60(%ebp)
    36b8:	83 c0 44             	add    $0x44,%eax
    36bb:	89 04 24             	mov    %eax,(%esp)
    36be:	e8 dd b8 00 00       	call   efa0 <pio_write_32>
    36c3:	8b 45 e0             	mov    -0x20(%ebp),%eax
    36c6:	89 5c 24 04          	mov    %ebx,0x4(%esp)
    36ca:	8b 40 04             	mov    0x4(%eax),%eax
    36cd:	89 45 9c             	mov    %eax,-0x64(%ebp)
    36d0:	83 c0 37             	add    $0x37,%eax
    36d3:	89 04 24             	mov    %eax,(%esp)
    36d6:	e8 25 b8 00 00       	call   ef00 <pio_write_8>
    36db:	c7 44 24 04 00 00 00 	movl   $0x0,0x4(%esp)
    36e2:	00 
    36e3:	89 3c 24             	mov    %edi,(%esp)
    36e6:	e8 15 b8 00 00       	call   ef00 <pio_write_8>
    36eb:	8b 55 e0             	mov    -0x20(%ebp),%edx
    36ee:	c7 44 24 08 01 00 00 	movl   $0x1,0x8(%esp)
    36f5:	00 
    36f6:	c7 44 24 04 07 00 00 	movl   $0x7,0x4(%esp)
    36fd:	00 
    36fe:	8b 42 78             	mov    0x78(%edx),%eax
    3701:	89 04 24             	mov    %eax,(%esp)
    3704:	e8 87 80 00 00       	call   b790 <nic_report_receive_error>
    3709:	e9 26 fe ff ff       	jmp    3534 <rtl8139_receive_frames+0x1d4>
    370e:	66 90                	xchg   %ax,%ax
    3710:	c7 44 24 04 68 e3 02 	movl   $0x2e368,0x4(%esp)
    3717:	00 
    3718:	c7 04 24 01 00 00 00 	movl   $0x1,(%esp)
    371f:	e8 8c 27 00 00       	call   5eb0 <ddf_msg>
    3724:	e9 c5 fd ff ff       	jmp    34ee <rtl8139_receive_frames+0x18e>
    3729:	81 e2 ff ff 00 00    	and    $0xffff,%edx
    372f:	c7 44 24 04 40 e3 02 	movl   $0x2e340,0x4(%esp)
    3736:	00 
    3737:	89 54 24 08          	mov    %edx,0x8(%esp)
    373b:	c7 04 24 01 00 00 00 	movl   $0x1,(%esp)
    3742:	e8 69 27 00 00       	call   5eb0 <ddf_msg>
    3747:	e9 80 fe ff ff       	jmp    35cc <rtl8139_receive_frames+0x26c>
    374c:	c7 44 24 04 90 e2 02 	movl   $0x2e290,0x4(%esp)
    3753:	00 
    3754:	c7 04 24 01 00 00 00 	movl   $0x1,(%esp)
    375b:	e8 50 27 00 00       	call   5eb0 <ddf_msg>
    3760:	e9 63 fc ff ff       	jmp    33c8 <rtl8139_receive_frames+0x68>
    3765:	8b 45 d4             	mov    -0x2c(%ebp),%eax
    3768:	89 04 24             	mov    %eax,(%esp)
    376b:	e8 30 73 00 00       	call   aaa0 <nic_release_frame>
    3770:	e9 79 fd ff ff       	jmp    34ee <rtl8139_receive_frames+0x18e>
    3775:	c7 44 24 08 08 03 00 	movl   $0x308,0x8(%esp)
    377c:	00 
    377d:	c7 44 24 04 91 e4 02 	movl   $0x2e491,0x4(%esp)
    3784:	00 
    3785:	c7 04 24 08 dd 02 00 	movl   $0x2dd08,(%esp)
    378c:	e8 1f 5f 02 00       	call   296b0 <assert_abort>
    3791:	c7 44 24 08 05 03 00 	movl   $0x305,0x8(%esp)
    3798:	00 
    3799:	c7 44 24 04 91 e4 02 	movl   $0x2e491,0x4(%esp)
    37a0:	00 
    37a1:	c7 04 24 15 dd 02 00 	movl   $0x2dd15,(%esp)
    37a8:	e8 03 5f 02 00       	call   296b0 <assert_abort>
    37ad:	8d 76 00             	lea    0x0(%esi),%esi

000037b0 <rtl8139_defective_set_mode>:
    37b0:	55                   	push   %ebp
    37b1:	89 e5                	mov    %esp,%ebp
    37b3:	57                   	push   %edi
    37b4:	56                   	push   %esi
    37b5:	53                   	push   %ebx
    37b6:	83 ec 1c             	sub    $0x1c,%esp
    37b9:	8b 45 08             	mov    0x8(%ebp),%eax
    37bc:	8b 5d 0c             	mov    0xc(%ebp),%ebx
    37bf:	85 c0                	test   %eax,%eax
    37c1:	0f 84 d0 00 00 00    	je     3897 <rtl8139_defective_set_mode+0xe7>
    37c7:	89 04 24             	mov    %eax,(%esp)
    37ca:	e8 a1 7e 00 00       	call   b670 <nic_get_from_ddf_fun>
    37cf:	89 04 24             	mov    %eax,(%esp)
    37d2:	e8 19 7e 00 00       	call   b5f0 <nic_get_specific>
    37d7:	89 c6                	mov    %eax,%esi
    37d9:	85 c0                	test   %eax,%eax
    37db:	0f 84 d2 00 00 00    	je     38b3 <rtl8139_defective_set_mode+0x103>
    37e1:	89 d8                	mov    %ebx,%eax
    37e3:	83 e0 12             	and    $0x12,%eax
    37e6:	39 d8                	cmp    %ebx,%eax
    37e8:	0f 85 a2 00 00 00    	jne    3890 <rtl8139_defective_set_mode+0xe0>
    37ee:	f6 c3 02             	test   $0x2,%bl
    37f1:	0f 85 89 00 00 00    	jne    3880 <rtl8139_defective_set_mode+0xd0>
    37f7:	c6 46 3f 00          	movb   $0x0,0x3f(%esi)
    37fb:	b0 20                	mov    $0x20,%al
    37fd:	83 e3 10             	and    $0x10,%ebx
    3800:	74 03                	je     3805 <rtl8139_defective_set_mode+0x55>
    3802:	88 46 3f             	mov    %al,0x3f(%esi)
    3805:	8d 7e 44             	lea    0x44(%esi),%edi
    3808:	89 3c 24             	mov    %edi,(%esp)
    380b:	e8 f0 1f 01 00       	call   15800 <fibril_mutex_lock>
    3810:	8b 5e 38             	mov    0x38(%esi),%ebx
    3813:	31 c0                	xor    %eax,%eax
    3815:	80 cf 08             	or     $0x8,%bh
    3818:	8a 46 3c             	mov    0x3c(%esi),%al
    381b:	09 c3                	or     %eax,%ebx
    381d:	31 c0                	xor    %eax,%eax
    381f:	8a 46 3d             	mov    0x3d(%esi),%al
    3822:	09 c3                	or     %eax,%ebx
    3824:	31 c0                	xor    %eax,%eax
    3826:	8a 46 3e             	mov    0x3e(%esi),%al
    3829:	09 c3                	or     %eax,%ebx
    382b:	31 c0                	xor    %eax,%eax
    382d:	8a 46 3f             	mov    0x3f(%esi),%al
    3830:	09 c3                	or     %eax,%ebx
    3832:	8b 46 04             	mov    0x4(%esi),%eax
    3835:	83 c0 44             	add    $0x44,%eax
    3838:	89 04 24             	mov    %eax,(%esp)
    383b:	e8 30 b8 00 00       	call   f070 <pio_read_32>
    3840:	89 5c 24 0c          	mov    %ebx,0xc(%esp)
    3844:	89 44 24 08          	mov    %eax,0x8(%esp)
    3848:	c7 44 24 04 81 dd 02 	movl   $0x2dd81,0x4(%esp)
    384f:	00 
    3850:	c7 04 24 04 00 00 00 	movl   $0x4,(%esp)
    3857:	e8 54 26 00 00       	call   5eb0 <ddf_msg>
    385c:	89 5c 24 04          	mov    %ebx,0x4(%esp)
    3860:	8b 46 04             	mov    0x4(%esi),%eax
    3863:	83 c0 44             	add    $0x44,%eax
    3866:	89 04 24             	mov    %eax,(%esp)
    3869:	e8 32 b7 00 00       	call   efa0 <pio_write_32>
    386e:	89 3c 24             	mov    %edi,(%esp)
    3871:	e8 aa 20 01 00       	call   15920 <fibril_mutex_unlock>
    3876:	31 c0                	xor    %eax,%eax
    3878:	83 c4 1c             	add    $0x1c,%esp
    387b:	5b                   	pop    %ebx
    387c:	5e                   	pop    %esi
    387d:	5f                   	pop    %edi
    387e:	5d                   	pop    %ebp
    387f:	c3                   	ret    
    3880:	c6 46 3f 10          	movb   $0x10,0x3f(%esi)
    3884:	b0 30                	mov    $0x30,%al
    3886:	e9 72 ff ff ff       	jmp    37fd <rtl8139_defective_set_mode+0x4d>
    388b:	90                   	nop
    388c:	8d 74 26 00          	lea    0x0(%esi,%eiz,1),%esi
    3890:	b8 f5 ff ff ff       	mov    $0xfffffff5,%eax
    3895:	eb e1                	jmp    3878 <rtl8139_defective_set_mode+0xc8>
    3897:	c7 44 24 08 c6 07 00 	movl   $0x7c6,0x8(%esp)
    389e:	00 
    389f:	c7 44 24 04 91 e4 02 	movl   $0x2e491,0x4(%esp)
    38a6:	00 
    38a7:	c7 04 24 f2 dc 02 00 	movl   $0x2dcf2,(%esp)
    38ae:	e8 fd 5d 02 00       	call   296b0 <assert_abort>
    38b3:	c7 44 24 08 c9 07 00 	movl   $0x7c9,0x8(%esp)
    38ba:	00 
    38bb:	c7 44 24 04 91 e4 02 	movl   $0x2e491,0x4(%esp)
    38c2:	00 
    38c3:	c7 04 24 08 dd 02 00 	movl   $0x2dd08,(%esp)
    38ca:	e8 e1 5d 02 00       	call   296b0 <assert_abort>
    38cf:	90                   	nop

000038d0 <rtl8139_soft_reset>:
    38d0:	55                   	push   %ebp
    38d1:	89 e5                	mov    %esp,%ebp
    38d3:	56                   	push   %esi
    38d4:	53                   	push   %ebx
    38d5:	89 c3                	mov    %eax,%ebx
    38d7:	83 ec 20             	sub    $0x20,%esp
    38da:	85 c0                	test   %eax,%eax
    38dc:	0f 84 5b 01 00 00    	je     3a3d <rtl8139_soft_reset+0x16d>
    38e2:	8b 70 04             	mov    0x4(%eax),%esi
    38e5:	c7 44 24 04 10 00 00 	movl   $0x10,0x4(%esp)
    38ec:	00 
    38ed:	83 c6 37             	add    $0x37,%esi
    38f0:	89 34 24             	mov    %esi,(%esp)
    38f3:	e8 08 b6 00 00       	call   ef00 <pio_write_8>
    38f8:	0f ae f0             	mfence 
    38fb:	eb 12                	jmp    390f <rtl8139_soft_reset+0x3f>
    38fd:	8d 76 00             	lea    0x0(%esi),%esi
    3900:	c7 04 24 01 00 00 00 	movl   $0x1,(%esp)
    3907:	e8 24 29 02 00       	call   26230 <usleep>
    390c:	0f ae e8             	lfence 
    390f:	89 34 24             	mov    %esi,(%esp)
    3912:	e8 d9 b6 00 00       	call   eff0 <pio_read_8>
    3917:	a8 10                	test   $0x10,%al
    3919:	75 e5                	jne    3900 <rtl8139_soft_reset+0x30>
    391b:	8b 73 78             	mov    0x78(%ebx),%esi
    391e:	8d 45 f2             	lea    -0xe(%ebp),%eax
    3921:	89 44 24 04          	mov    %eax,0x4(%esp)
    3925:	89 34 24             	mov    %esi,(%esp)
    3928:	e8 33 76 00 00       	call   af60 <nic_query_address>
    392d:	8b 43 04             	mov    0x4(%ebx),%eax
    3930:	83 c0 50             	add    $0x50,%eax
    3933:	c7 44 24 04 c0 00 00 	movl   $0xc0,0x4(%esp)
    393a:	00 
    393b:	89 04 24             	mov    %eax,(%esp)
    393e:	e8 bd b5 00 00       	call   ef00 <pio_write_8>
    3943:	8b 45 f2             	mov    -0xe(%ebp),%eax
    3946:	89 44 24 04          	mov    %eax,0x4(%esp)
    394a:	8b 43 04             	mov    0x4(%ebx),%eax
    394d:	89 04 24             	mov    %eax,(%esp)
    3950:	e8 4b b6 00 00       	call   efa0 <pio_write_32>
    3955:	66 8b 45 f6          	mov    -0xa(%ebp),%ax
    3959:	25 ff ff 00 00       	and    $0xffff,%eax
    395e:	89 44 24 04          	mov    %eax,0x4(%esp)
    3962:	8b 43 04             	mov    0x4(%ebx),%eax
    3965:	83 c0 04             	add    $0x4,%eax
    3968:	89 04 24             	mov    %eax,(%esp)
    396b:	e8 30 b6 00 00       	call   efa0 <pio_write_32>
    3970:	8b 43 04             	mov    0x4(%ebx),%eax
    3973:	83 c0 50             	add    $0x50,%eax
    3976:	c7 44 24 04 00 00 00 	movl   $0x0,0x4(%esp)
    397d:	00 
    397e:	89 04 24             	mov    %eax,(%esp)
    3981:	e8 7a b5 00 00       	call   ef00 <pio_write_8>
    3986:	89 34 24             	mov    %esi,(%esp)
    3989:	e8 72 7a 00 00       	call   b400 <nic_query_mcast_hash>
    398e:	89 44 24 04          	mov    %eax,0x4(%esp)
    3992:	8b 43 04             	mov    0x4(%ebx),%eax
    3995:	83 c0 08             	add    $0x8,%eax
    3998:	89 d6                	mov    %edx,%esi
    399a:	89 04 24             	mov    %eax,(%esp)
    399d:	e8 fe b5 00 00       	call   efa0 <pio_write_32>
    39a2:	8b 43 04             	mov    0x4(%ebx),%eax
    39a5:	83 c0 0c             	add    $0xc,%eax
    39a8:	89 74 24 04          	mov    %esi,0x4(%esp)
    39ac:	89 04 24             	mov    %eax,(%esp)
    39af:	e8 ec b5 00 00       	call   efa0 <pio_write_32>
    39b4:	8b 73 38             	mov    0x38(%ebx),%esi
    39b7:	31 c0                	xor    %eax,%eax
    39b9:	81 ce 00 08 00 00    	or     $0x800,%esi
    39bf:	8a 43 3c             	mov    0x3c(%ebx),%al
    39c2:	09 c6                	or     %eax,%esi
    39c4:	31 c0                	xor    %eax,%eax
    39c6:	8a 43 3d             	mov    0x3d(%ebx),%al
    39c9:	09 c6                	or     %eax,%esi
    39cb:	31 c0                	xor    %eax,%eax
    39cd:	8a 43 3e             	mov    0x3e(%ebx),%al
    39d0:	09 c6                	or     %eax,%esi
    39d2:	31 c0                	xor    %eax,%eax
    39d4:	8a 43 3f             	mov    0x3f(%ebx),%al
    39d7:	09 c6                	or     %eax,%esi
    39d9:	8b 43 04             	mov    0x4(%ebx),%eax
    39dc:	83 c0 44             	add    $0x44,%eax
    39df:	89 04 24             	mov    %eax,(%esp)
    39e2:	e8 89 b6 00 00       	call   f070 <pio_read_32>
    39e7:	89 74 24 0c          	mov    %esi,0xc(%esp)
    39eb:	89 44 24 08          	mov    %eax,0x8(%esp)
    39ef:	c7 44 24 04 81 dd 02 	movl   $0x2dd81,0x4(%esp)
    39f6:	00 
    39f7:	c7 04 24 04 00 00 00 	movl   $0x4,(%esp)
    39fe:	e8 ad 24 00 00       	call   5eb0 <ddf_msg>
    3a03:	8b 43 04             	mov    0x4(%ebx),%eax
    3a06:	83 c0 44             	add    $0x44,%eax
    3a09:	89 74 24 04          	mov    %esi,0x4(%esp)
    3a0d:	89 04 24             	mov    %eax,(%esp)
    3a10:	e8 8b b5 00 00       	call   efa0 <pio_write_32>
    3a15:	8b 43 78             	mov    0x78(%ebx),%eax
    3a18:	c7 43 2c 00 00 00 00 	movl   $0x0,0x2c(%ebx)
    3a1f:	c7 43 28 00 00 00 00 	movl   $0x0,0x28(%ebx)
    3a26:	c7 44 24 04 00 00 00 	movl   $0x0,0x4(%esp)
    3a2d:	00 
    3a2e:	89 04 24             	mov    %eax,(%esp)
    3a31:	e8 8a 75 00 00       	call   afc0 <nic_set_tx_busy>
    3a36:	83 c4 20             	add    $0x20,%esp
    3a39:	5b                   	pop    %ebx
    3a3a:	5e                   	pop    %esi
    3a3b:	5d                   	pop    %ebp
    3a3c:	c3                   	ret    
    3a3d:	c7 44 24 08 ee 01 00 	movl   $0x1ee,0x8(%esp)
    3a44:	00 
    3a45:	c7 44 24 04 91 e4 02 	movl   $0x2e491,0x4(%esp)
    3a4c:	00 
    3a4d:	c7 04 24 08 dd 02 00 	movl   $0x2dd08,(%esp)
    3a54:	e8 57 5c 02 00       	call   296b0 <assert_abort>
    3a59:	8d b4 26 00 00 00 00 	lea    0x0(%esi,%eiz,1),%esi

00003a60 <rtl8139_on_stopped>:
    3a60:	55                   	push   %ebp
    3a61:	89 e5                	mov    %esp,%ebp
    3a63:	57                   	push   %edi
    3a64:	56                   	push   %esi
    3a65:	53                   	push   %ebx
    3a66:	83 ec 1c             	sub    $0x1c,%esp
    3a69:	8b 45 08             	mov    0x8(%ebp),%eax
    3a6c:	85 c0                	test   %eax,%eax
    3a6e:	74 55                	je     3ac5 <rtl8139_on_stopped+0x65>
    3a70:	89 04 24             	mov    %eax,(%esp)
    3a73:	e8 78 7b 00 00       	call   b5f0 <nic_get_specific>
    3a78:	89 c3                	mov    %eax,%ebx
    3a7a:	85 c0                	test   %eax,%eax
    3a7c:	74 63                	je     3ae1 <rtl8139_on_stopped+0x81>
    3a7e:	8d 70 54             	lea    0x54(%eax),%esi
    3a81:	c6 40 3c 02          	movb   $0x2,0x3c(%eax)
    3a85:	c6 40 3d 00          	movb   $0x0,0x3d(%eax)
    3a89:	c6 40 3e 08          	movb   $0x8,0x3e(%eax)
    3a8d:	c6 40 3f 00          	movb   $0x0,0x3f(%eax)
    3a91:	8d 7b 44             	lea    0x44(%ebx),%edi
    3a94:	89 34 24             	mov    %esi,(%esp)
    3a97:	e8 64 1d 01 00       	call   15800 <fibril_mutex_lock>
    3a9c:	89 3c 24             	mov    %edi,(%esp)
    3a9f:	e8 5c 1d 01 00       	call   15800 <fibril_mutex_lock>
    3aa4:	89 d8                	mov    %ebx,%eax
    3aa6:	e8 25 fe ff ff       	call   38d0 <rtl8139_soft_reset>
    3aab:	89 3c 24             	mov    %edi,(%esp)
    3aae:	e8 6d 1e 01 00       	call   15920 <fibril_mutex_unlock>
    3ab3:	89 34 24             	mov    %esi,(%esp)
    3ab6:	e8 65 1e 01 00       	call   15920 <fibril_mutex_unlock>
    3abb:	83 c4 1c             	add    $0x1c,%esp
    3abe:	31 c0                	xor    %eax,%eax
    3ac0:	5b                   	pop    %ebx
    3ac1:	5e                   	pop    %esi
    3ac2:	5f                   	pop    %edi
    3ac3:	5d                   	pop    %ebp
    3ac4:	c3                   	ret    
    3ac5:	c7 44 24 08 d2 03 00 	movl   $0x3d2,0x8(%esp)
    3acc:	00 
    3acd:	c7 44 24 04 91 e4 02 	movl   $0x2e491,0x4(%esp)
    3ad4:	00 
    3ad5:	c7 04 24 15 dd 02 00 	movl   $0x2dd15,(%esp)
    3adc:	e8 cf 5b 02 00       	call   296b0 <assert_abort>
    3ae1:	c7 44 24 08 d5 03 00 	movl   $0x3d5,0x8(%esp)
    3ae8:	00 
    3ae9:	c7 44 24 04 91 e4 02 	movl   $0x2e491,0x4(%esp)
    3af0:	00 
    3af1:	c7 04 24 08 dd 02 00 	movl   $0x2dd08,(%esp)
    3af8:	e8 b3 5b 02 00       	call   296b0 <assert_abort>
    3afd:	8d 76 00             	lea    0x0(%esi),%esi

00003b00 <rtl8139_on_activated>:
    3b00:	55                   	push   %ebp
    3b01:	89 e5                	mov    %esp,%ebp
    3b03:	57                   	push   %edi
    3b04:	56                   	push   %esi
    3b05:	53                   	push   %ebx
    3b06:	83 ec 2c             	sub    $0x2c,%esp
    3b09:	8b 7d 08             	mov    0x8(%ebp),%edi
    3b0c:	85 ff                	test   %edi,%edi
    3b0e:	0f 84 cf 01 00 00    	je     3ce3 <rtl8139_on_activated+0x1e3>
    3b14:	c7 44 24 04 91 de 02 	movl   $0x2de91,0x4(%esp)
    3b1b:	00 
    3b1c:	c7 04 24 03 00 00 00 	movl   $0x3,(%esp)
    3b23:	e8 88 23 00 00       	call   5eb0 <ddf_msg>
    3b28:	89 3c 24             	mov    %edi,(%esp)
    3b2b:	e8 c0 7a 00 00       	call   b5f0 <nic_get_specific>
    3b30:	89 c3                	mov    %eax,%ebx
    3b32:	85 c0                	test   %eax,%eax
    3b34:	0f 84 c5 01 00 00    	je     3cff <rtl8139_on_activated+0x1ff>
    3b3a:	8d 50 54             	lea    0x54(%eax),%edx
    3b3d:	89 14 24             	mov    %edx,(%esp)
    3b40:	89 55 e4             	mov    %edx,-0x1c(%ebp)
    3b43:	e8 b8 1c 01 00       	call   15800 <fibril_mutex_lock>
    3b48:	8d 4b 44             	lea    0x44(%ebx),%ecx
    3b4b:	89 0c 24             	mov    %ecx,(%esp)
    3b4e:	89 4d e0             	mov    %ecx,-0x20(%ebp)
    3b51:	e8 aa 1c 01 00       	call   15800 <fibril_mutex_lock>
    3b56:	8b 73 04             	mov    0x4(%ebx),%esi
    3b59:	8d 46 52             	lea    0x52(%esi),%eax
    3b5c:	c7 44 24 04 00 00 00 	movl   $0x0,0x4(%esp)
    3b63:	00 
    3b64:	89 04 24             	mov    %eax,(%esp)
    3b67:	e8 94 b3 00 00       	call   ef00 <pio_write_8>
    3b6c:	89 d8                	mov    %ebx,%eax
    3b6e:	e8 5d fd ff ff       	call   38d0 <rtl8139_soft_reset>
    3b73:	8b 43 10             	mov    0x10(%ebx),%eax
    3b76:	89 44 24 04          	mov    %eax,0x4(%esp)
    3b7a:	8d 46 20             	lea    0x20(%esi),%eax
    3b7d:	89 04 24             	mov    %eax,(%esp)
    3b80:	e8 1b b4 00 00       	call   efa0 <pio_write_32>
    3b85:	8b 43 10             	mov    0x10(%ebx),%eax
    3b88:	05 00 08 00 00       	add    $0x800,%eax
    3b8d:	89 44 24 04          	mov    %eax,0x4(%esp)
    3b91:	8d 46 24             	lea    0x24(%esi),%eax
    3b94:	89 04 24             	mov    %eax,(%esp)
    3b97:	e8 04 b4 00 00       	call   efa0 <pio_write_32>
    3b9c:	8b 43 10             	mov    0x10(%ebx),%eax
    3b9f:	05 00 10 00 00       	add    $0x1000,%eax
    3ba4:	89 44 24 04          	mov    %eax,0x4(%esp)
    3ba8:	8d 46 28             	lea    0x28(%esi),%eax
    3bab:	89 04 24             	mov    %eax,(%esp)
    3bae:	e8 ed b3 00 00       	call   efa0 <pio_write_32>
    3bb3:	8b 43 10             	mov    0x10(%ebx),%eax
    3bb6:	05 00 18 00 00       	add    $0x1800,%eax
    3bbb:	89 44 24 04          	mov    %eax,0x4(%esp)
    3bbf:	8d 46 2c             	lea    0x2c(%esi),%eax
    3bc2:	89 04 24             	mov    %eax,(%esp)
    3bc5:	e8 d6 b3 00 00       	call   efa0 <pio_write_32>
    3bca:	c7 43 28 00 00 00 00 	movl   $0x0,0x28(%ebx)
    3bd1:	c7 43 2c 00 00 00 00 	movl   $0x0,0x2c(%ebx)
    3bd8:	c7 44 24 04 00 00 00 	movl   $0x0,0x4(%esp)
    3bdf:	00 
    3be0:	8b 43 78             	mov    0x78(%ebx),%eax
    3be3:	89 04 24             	mov    %eax,(%esp)
    3be6:	e8 d5 73 00 00       	call   afc0 <nic_set_tx_busy>
    3beb:	8b 43 30             	mov    0x30(%ebx),%eax
    3bee:	89 44 24 04          	mov    %eax,0x4(%esp)
    3bf2:	8d 46 30             	lea    0x30(%esi),%eax
    3bf5:	89 04 24             	mov    %eax,(%esp)
    3bf8:	83 c6 37             	add    $0x37,%esi
    3bfb:	e8 a0 b3 00 00       	call   efa0 <pio_write_32>
    3c00:	89 34 24             	mov    %esi,(%esp)
    3c03:	e8 e8 b3 00 00       	call   eff0 <pio_read_8>
    3c08:	89 34 24             	mov    %esi,(%esp)
    3c0b:	83 c8 0c             	or     $0xc,%eax
    3c0e:	25 ff 00 00 00       	and    $0xff,%eax
    3c13:	89 44 24 04          	mov    %eax,0x4(%esp)
    3c17:	e8 e4 b2 00 00       	call   ef00 <pio_write_8>
    3c1c:	8b 73 38             	mov    0x38(%ebx),%esi
    3c1f:	31 c0                	xor    %eax,%eax
    3c21:	81 ce 00 08 00 00    	or     $0x800,%esi
    3c27:	8a 43 3c             	mov    0x3c(%ebx),%al
    3c2a:	09 c6                	or     %eax,%esi
    3c2c:	31 c0                	xor    %eax,%eax
    3c2e:	8a 43 3d             	mov    0x3d(%ebx),%al
    3c31:	09 c6                	or     %eax,%esi
    3c33:	31 c0                	xor    %eax,%eax
    3c35:	8a 43 3e             	mov    0x3e(%ebx),%al
    3c38:	09 c6                	or     %eax,%esi
    3c3a:	31 c0                	xor    %eax,%eax
    3c3c:	8a 43 3f             	mov    0x3f(%ebx),%al
    3c3f:	09 c6                	or     %eax,%esi
    3c41:	8b 43 04             	mov    0x4(%ebx),%eax
    3c44:	83 c0 44             	add    $0x44,%eax
    3c47:	89 04 24             	mov    %eax,(%esp)
    3c4a:	e8 21 b4 00 00       	call   f070 <pio_read_32>
    3c4f:	89 74 24 0c          	mov    %esi,0xc(%esp)
    3c53:	89 44 24 08          	mov    %eax,0x8(%esp)
    3c57:	c7 44 24 04 81 dd 02 	movl   $0x2dd81,0x4(%esp)
    3c5e:	00 
    3c5f:	c7 04 24 04 00 00 00 	movl   $0x4,(%esp)
    3c66:	e8 45 22 00 00       	call   5eb0 <ddf_msg>
    3c6b:	89 74 24 04          	mov    %esi,0x4(%esp)
    3c6f:	8b 43 04             	mov    0x4(%ebx),%eax
    3c72:	83 c0 44             	add    $0x44,%eax
    3c75:	89 04 24             	mov    %eax,(%esp)
    3c78:	e8 23 b3 00 00       	call   efa0 <pio_write_32>
    3c7d:	8b 4d e0             	mov    -0x20(%ebp),%ecx
    3c80:	89 0c 24             	mov    %ecx,(%esp)
    3c83:	e8 98 1c 01 00       	call   15920 <fibril_mutex_unlock>
    3c88:	8b 55 e4             	mov    -0x1c(%ebp),%edx
    3c8b:	89 14 24             	mov    %edx,(%esp)
    3c8e:	e8 8d 1c 01 00       	call   15920 <fibril_mutex_unlock>
    3c93:	66 c7 43 0c ff ff    	movw   $0xffff,0xc(%ebx)
    3c99:	c7 44 24 04 ff ff 00 	movl   $0xffff,0x4(%esp)
    3ca0:	00 
    3ca1:	8b 43 04             	mov    0x4(%ebx),%eax
    3ca4:	83 c0 3c             	add    $0x3c,%eax
    3ca7:	89 04 24             	mov    %eax,(%esp)
    3caa:	e8 a1 b2 00 00       	call   ef50 <pio_write_16>
    3caf:	8b 43 08             	mov    0x8(%ebx),%eax
    3cb2:	89 44 24 04          	mov    %eax,0x4(%esp)
    3cb6:	89 3c 24             	mov    %edi,(%esp)
    3cb9:	e8 72 6f 00 00       	call   ac30 <nic_enable_interrupt>
    3cbe:	8b 43 08             	mov    0x8(%ebx),%eax
    3cc1:	89 44 24 08          	mov    %eax,0x8(%esp)
    3cc5:	c7 44 24 04 94 e3 02 	movl   $0x2e394,0x4(%esp)
    3ccc:	00 
    3ccd:	c7 04 24 04 00 00 00 	movl   $0x4,(%esp)
    3cd4:	e8 d7 21 00 00       	call   5eb0 <ddf_msg>
    3cd9:	83 c4 2c             	add    $0x2c,%esp
    3cdc:	31 c0                	xor    %eax,%eax
    3cde:	5b                   	pop    %ebx
    3cdf:	5e                   	pop    %esi
    3ce0:	5f                   	pop    %edi
    3ce1:	5d                   	pop    %ebp
    3ce2:	c3                   	ret    
    3ce3:	c7 44 24 08 b8 03 00 	movl   $0x3b8,0x8(%esp)
    3cea:	00 
    3ceb:	c7 44 24 04 91 e4 02 	movl   $0x2e491,0x4(%esp)
    3cf2:	00 
    3cf3:	c7 04 24 15 dd 02 00 	movl   $0x2dd15,(%esp)
    3cfa:	e8 b1 59 02 00       	call   296b0 <assert_abort>
    3cff:	c7 44 24 08 bc 03 00 	movl   $0x3bc,0x8(%esp)
    3d06:	00 
    3d07:	c7 44 24 04 91 e4 02 	movl   $0x2e491,0x4(%esp)
    3d0e:	00 
    3d0f:	c7 04 24 08 dd 02 00 	movl   $0x2dd08,(%esp)
    3d16:	e8 95 59 02 00       	call   296b0 <assert_abort>
    3d1b:	90                   	nop
    3d1c:	8d 74 26 00          	lea    0x0(%esi,%eiz,1),%esi

00003d20 <rtl8139_multicast_set>:
    3d20:	55                   	push   %ebp
    3d21:	89 e5                	mov    %esp,%ebp
    3d23:	57                   	push   %edi
    3d24:	56                   	push   %esi
    3d25:	53                   	push   %ebx
    3d26:	83 ec 1c             	sub    $0x1c,%esp
    3d29:	8b 5d 08             	mov    0x8(%ebp),%ebx
    3d2c:	8b 75 14             	mov    0x14(%ebp),%esi
    3d2f:	85 db                	test   %ebx,%ebx
    3d31:	0f 84 d0 01 00 00    	je     3f07 <rtl8139_multicast_set+0x1e7>
    3d37:	85 f6                	test   %esi,%esi
    3d39:	0f 85 a2 01 00 00    	jne    3ee1 <rtl8139_multicast_set+0x1c1>
    3d3f:	89 1c 24             	mov    %ebx,(%esp)
    3d42:	e8 a9 78 00 00       	call   b5f0 <nic_get_specific>
    3d47:	89 c7                	mov    %eax,%edi
    3d49:	85 c0                	test   %eax,%eax
    3d4b:	0f 84 74 01 00 00    	je     3ec5 <rtl8139_multicast_set+0x1a5>
    3d51:	83 7d 0c 02          	cmpl   $0x2,0xc(%ebp)
    3d55:	0f 84 cd 00 00 00    	je     3e28 <rtl8139_multicast_set+0x108>
    3d5b:	83 7d 0c 03          	cmpl   $0x3,0xc(%ebp)
    3d5f:	0f 84 23 01 00 00    	je     3e88 <rtl8139_multicast_set+0x168>
    3d65:	b8 f5 ff ff ff       	mov    $0xfffffff5,%eax
    3d6a:	83 7d 0c 01          	cmpl   $0x1,0xc(%ebp)
    3d6e:	74 08                	je     3d78 <rtl8139_multicast_set+0x58>
    3d70:	83 c4 1c             	add    $0x1c,%esp
    3d73:	5b                   	pop    %ebx
    3d74:	5e                   	pop    %esi
    3d75:	5f                   	pop    %edi
    3d76:	5d                   	pop    %ebp
    3d77:	c3                   	ret    
    3d78:	c6 47 3d 00          	movb   $0x0,0x3d(%edi)
    3d7c:	f6 47 3c 01          	testb  $0x1,0x3c(%edi)
    3d80:	c7 44 24 0c ff ff ff 	movl   $0xffffffff,0xc(%esp)
    3d87:	ff 
    3d88:	0f 85 db 00 00 00    	jne    3e69 <rtl8139_multicast_set+0x149>
    3d8e:	c7 44 24 08 01 00 00 	movl   $0x1,0x8(%esp)
    3d95:	00 
    3d96:	c7 44 24 04 ff ff ff 	movl   $0xffffffff,0x4(%esp)
    3d9d:	ff 
    3d9e:	89 1c 24             	mov    %ebx,(%esp)
    3da1:	e8 2a 76 00 00       	call   b3d0 <nic_report_hw_filtering>
    3da6:	8d 77 44             	lea    0x44(%edi),%esi
    3da9:	89 34 24             	mov    %esi,(%esp)
    3dac:	e8 4f 1a 01 00       	call   15800 <fibril_mutex_lock>
    3db1:	8b 5f 38             	mov    0x38(%edi),%ebx
    3db4:	31 c0                	xor    %eax,%eax
    3db6:	80 cf 08             	or     $0x8,%bh
    3db9:	8a 47 3c             	mov    0x3c(%edi),%al
    3dbc:	09 c3                	or     %eax,%ebx
    3dbe:	31 c0                	xor    %eax,%eax
    3dc0:	8a 47 3d             	mov    0x3d(%edi),%al
    3dc3:	09 c3                	or     %eax,%ebx
    3dc5:	31 c0                	xor    %eax,%eax
    3dc7:	8a 47 3e             	mov    0x3e(%edi),%al
    3dca:	09 c3                	or     %eax,%ebx
    3dcc:	31 c0                	xor    %eax,%eax
    3dce:	8a 47 3f             	mov    0x3f(%edi),%al
    3dd1:	09 c3                	or     %eax,%ebx
    3dd3:	8b 47 04             	mov    0x4(%edi),%eax
    3dd6:	83 c0 44             	add    $0x44,%eax
    3dd9:	89 04 24             	mov    %eax,(%esp)
    3ddc:	e8 8f b2 00 00       	call   f070 <pio_read_32>
    3de1:	89 5c 24 0c          	mov    %ebx,0xc(%esp)
    3de5:	89 44 24 08          	mov    %eax,0x8(%esp)
    3de9:	c7 44 24 04 81 dd 02 	movl   $0x2dd81,0x4(%esp)
    3df0:	00 
    3df1:	c7 04 24 04 00 00 00 	movl   $0x4,(%esp)
    3df8:	e8 b3 20 00 00       	call   5eb0 <ddf_msg>
    3dfd:	89 5c 24 04          	mov    %ebx,0x4(%esp)
    3e01:	8b 47 04             	mov    0x4(%edi),%eax
    3e04:	83 c0 44             	add    $0x44,%eax
    3e07:	89 04 24             	mov    %eax,(%esp)
    3e0a:	e8 91 b1 00 00       	call   efa0 <pio_write_32>
    3e0f:	89 34 24             	mov    %esi,(%esp)
    3e12:	e8 09 1b 01 00       	call   15920 <fibril_mutex_unlock>
    3e17:	83 c4 1c             	add    $0x1c,%esp
    3e1a:	31 c0                	xor    %eax,%eax
    3e1c:	5b                   	pop    %ebx
    3e1d:	5e                   	pop    %esi
    3e1e:	5f                   	pop    %edi
    3e1f:	5d                   	pop    %ebp
    3e20:	c3                   	ret    
    3e21:	8d b4 26 00 00 00 00 	lea    0x0(%esi,%eiz,1),%esi
    3e28:	8b 45 10             	mov    0x10(%ebp),%eax
    3e2b:	89 74 24 04          	mov    %esi,0x4(%esp)
    3e2f:	89 04 24             	mov    %eax,(%esp)
    3e32:	e8 b9 75 00 00       	call   b3f0 <nic_mcast_hash>
    3e37:	89 44 24 04          	mov    %eax,0x4(%esp)
    3e3b:	89 d6                	mov    %edx,%esi
    3e3d:	8b 47 04             	mov    0x4(%edi),%eax
    3e40:	83 c0 08             	add    $0x8,%eax
    3e43:	89 04 24             	mov    %eax,(%esp)
    3e46:	e8 55 b1 00 00       	call   efa0 <pio_write_32>
    3e4b:	89 74 24 04          	mov    %esi,0x4(%esp)
    3e4f:	8b 47 04             	mov    0x4(%edi),%eax
    3e52:	83 c0 0c             	add    $0xc,%eax
    3e55:	89 04 24             	mov    %eax,(%esp)
    3e58:	e8 43 b1 00 00       	call   efa0 <pio_write_32>
    3e5d:	c6 47 3d 04          	movb   $0x4,0x3d(%edi)
    3e61:	c7 44 24 0c ff ff ff 	movl   $0xffffffff,0xc(%esp)
    3e68:	ff 
    3e69:	c7 44 24 08 00 00 00 	movl   $0x0,0x8(%esp)
    3e70:	00 
    3e71:	c7 44 24 04 ff ff ff 	movl   $0xffffffff,0x4(%esp)
    3e78:	ff 
    3e79:	89 1c 24             	mov    %ebx,(%esp)
    3e7c:	e8 4f 75 00 00       	call   b3d0 <nic_report_hw_filtering>
    3e81:	e9 20 ff ff ff       	jmp    3da6 <rtl8139_multicast_set+0x86>
    3e86:	66 90                	xchg   %ax,%ax
    3e88:	c7 44 24 04 ff ff ff 	movl   $0xffffffff,0x4(%esp)
    3e8f:	ff 
    3e90:	8b 40 04             	mov    0x4(%eax),%eax
    3e93:	83 c0 08             	add    $0x8,%eax
    3e96:	89 04 24             	mov    %eax,(%esp)
    3e99:	e8 02 b1 00 00       	call   efa0 <pio_write_32>
    3e9e:	c7 44 24 04 ff ff ff 	movl   $0xffffffff,0x4(%esp)
    3ea5:	ff 
    3ea6:	8b 47 04             	mov    0x4(%edi),%eax
    3ea9:	83 c0 0c             	add    $0xc,%eax
    3eac:	89 04 24             	mov    %eax,(%esp)
    3eaf:	e8 ec b0 00 00       	call   efa0 <pio_write_32>
    3eb4:	c6 47 3d 04          	movb   $0x4,0x3d(%edi)
    3eb8:	c7 44 24 0c ff ff ff 	movl   $0xffffffff,0xc(%esp)
    3ebf:	ff 
    3ec0:	e9 c9 fe ff ff       	jmp    3d8e <rtl8139_multicast_set+0x6e>
    3ec5:	c7 44 24 08 6b 07 00 	movl   $0x76b,0x8(%esp)
    3ecc:	00 
    3ecd:	c7 44 24 04 91 e4 02 	movl   $0x2e491,0x4(%esp)
    3ed4:	00 
    3ed5:	c7 04 24 08 dd 02 00 	movl   $0x2dd08,(%esp)
    3edc:	e8 cf 57 02 00       	call   296b0 <assert_abort>
    3ee1:	83 7d 10 00          	cmpl   $0x0,0x10(%ebp)
    3ee5:	0f 85 54 fe ff ff    	jne    3d3f <rtl8139_multicast_set+0x1f>
    3eeb:	c7 44 24 08 68 07 00 	movl   $0x768,0x8(%esp)
    3ef2:	00 
    3ef3:	c7 44 24 04 91 e4 02 	movl   $0x2e491,0x4(%esp)
    3efa:	00 
    3efb:	c7 04 24 a3 de 02 00 	movl   $0x2dea3,(%esp)
    3f02:	e8 a9 57 02 00       	call   296b0 <assert_abort>
    3f07:	c7 44 24 08 67 07 00 	movl   $0x767,0x8(%esp)
    3f0e:	00 
    3f0f:	c7 44 24 04 91 e4 02 	movl   $0x2e491,0x4(%esp)
    3f16:	00 
    3f17:	c7 04 24 15 dd 02 00 	movl   $0x2dd15,(%esp)
    3f1e:	e8 8d 57 02 00       	call   296b0 <assert_abort>
    3f23:	8d b6 00 00 00 00    	lea    0x0(%esi),%esi
    3f29:	8d bc 27 00 00 00 00 	lea    0x0(%edi,%eiz,1),%edi

00003f30 <rtl8139_poll>:
    3f30:	55                   	push   %ebp
    3f31:	89 e5                	mov    %esp,%ebp
    3f33:	57                   	push   %edi
    3f34:	56                   	push   %esi
    3f35:	53                   	push   %ebx
    3f36:	83 ec 1c             	sub    $0x1c,%esp
    3f39:	8b 5d 08             	mov    0x8(%ebp),%ebx
    3f3c:	85 db                	test   %ebx,%ebx
    3f3e:	0f 84 3c 01 00 00    	je     4080 <rtl8139_poll+0x150>
    3f44:	89 1c 24             	mov    %ebx,(%esp)
    3f47:	e8 a4 76 00 00       	call   b5f0 <nic_get_specific>
    3f4c:	89 c7                	mov    %eax,%edi
    3f4e:	85 c0                	test   %eax,%eax
    3f50:	0f 84 46 01 00 00    	je     409c <rtl8139_poll+0x16c>
    3f56:	8b 40 04             	mov    0x4(%eax),%eax
    3f59:	83 c0 3e             	add    $0x3e,%eax
    3f5c:	89 04 24             	mov    %eax,(%esp)
    3f5f:	e8 cc b0 00 00       	call   f030 <pio_read_16>
    3f64:	c7 44 24 04 00 00 00 	movl   $0x0,0x4(%esp)
    3f6b:	00 
    3f6c:	89 c6                	mov    %eax,%esi
    3f6e:	8b 47 04             	mov    0x4(%edi),%eax
    3f71:	83 c0 3e             	add    $0x3e,%eax
    3f74:	89 04 24             	mov    %eax,(%esp)
    3f77:	e8 d4 af 00 00       	call   ef50 <pio_write_16>
    3f7c:	c7 44 24 04 00 00 00 	movl   $0x0,0x4(%esp)
    3f83:	00 
    3f84:	89 1c 24             	mov    %ebx,(%esp)
    3f87:	e8 24 6d 00 00       	call   acb0 <nic_query_poll_mode>
    3f8c:	83 f8 02             	cmp    $0x2,%eax
    3f8f:	74 37                	je     3fc8 <rtl8139_poll+0x98>
    3f91:	f7 c6 0c 00 00 00    	test   $0xc,%esi
    3f97:	75 57                	jne    3ff0 <rtl8139_poll+0xc0>
    3f99:	f7 c6 01 00 00 00    	test   $0x1,%esi
    3f9f:	75 3f                	jne    3fe0 <rtl8139_poll+0xb0>
    3fa1:	f7 c6 52 00 00 00    	test   $0x52,%esi
    3fa7:	74 11                	je     3fba <rtl8139_poll+0x8a>
    3fa9:	f7 c6 40 00 00 00    	test   $0x40,%esi
    3faf:	0f 85 ab 00 00 00    	jne    4060 <rtl8139_poll+0x130>
    3fb5:	83 e6 10             	and    $0x10,%esi
    3fb8:	75 46                	jne    4000 <rtl8139_poll+0xd0>
    3fba:	83 c4 1c             	add    $0x1c,%esp
    3fbd:	5b                   	pop    %ebx
    3fbe:	5e                   	pop    %esi
    3fbf:	5f                   	pop    %edi
    3fc0:	5d                   	pop    %ebp
    3fc1:	c3                   	ret    
    3fc2:	8d b6 00 00 00 00    	lea    0x0(%esi),%esi
    3fc8:	f7 c6 00 40 00 00    	test   $0x4000,%esi
    3fce:	74 ea                	je     3fba <rtl8139_poll+0x8a>
    3fd0:	89 d8                	mov    %ebx,%eax
    3fd2:	e8 59 d3 ff ff       	call   1330 <rtl8139_poll_interrupt>
    3fd7:	85 c0                	test   %eax,%eax
    3fd9:	75 b6                	jne    3f91 <rtl8139_poll+0x61>
    3fdb:	eb dd                	jmp    3fba <rtl8139_poll+0x8a>
    3fdd:	8d 76 00             	lea    0x0(%esi),%esi
    3fe0:	89 d8                	mov    %ebx,%eax
    3fe2:	e8 79 f3 ff ff       	call   3360 <rtl8139_receive_frames>
    3fe7:	eb b8                	jmp    3fa1 <rtl8139_poll+0x71>
    3fe9:	8d b4 26 00 00 00 00 	lea    0x0(%esi,%eiz,1),%esi
    3ff0:	89 d8                	mov    %ebx,%eax
    3ff2:	e8 19 d4 ff ff       	call   1410 <rtl8139_tx_interrupt>
    3ff7:	eb a0                	jmp    3f99 <rtl8139_poll+0x69>
    3ff9:	8d b4 26 00 00 00 00 	lea    0x0(%esi,%eiz,1),%esi
    4000:	89 1c 24             	mov    %ebx,(%esp)
    4003:	e8 e8 75 00 00       	call   b5f0 <nic_get_specific>
    4008:	89 c6                	mov    %eax,%esi
    400a:	85 c0                	test   %eax,%eax
    400c:	0f 84 a6 00 00 00    	je     40b8 <rtl8139_poll+0x188>
    4012:	8b 40 04             	mov    0x4(%eax),%eax
    4015:	83 c0 4c             	add    $0x4c,%eax
    4018:	89 04 24             	mov    %eax,(%esp)
    401b:	e8 50 b0 00 00       	call   f070 <pio_read_32>
    4020:	c7 44 24 04 00 00 00 	movl   $0x0,0x4(%esp)
    4027:	00 
    4028:	89 c7                	mov    %eax,%edi
    402a:	8b 46 04             	mov    0x4(%esi),%eax
    402d:	83 c0 4c             	add    $0x4c,%eax
    4030:	81 e7 ff ff ff 00    	and    $0xffffff,%edi
    4036:	89 04 24             	mov    %eax,(%esp)
    4039:	e8 62 af 00 00       	call   efa0 <pio_write_32>
    403e:	89 7c 24 08          	mov    %edi,0x8(%esp)
    4042:	89 1c 24             	mov    %ebx,(%esp)
    4045:	c7 44 24 04 02 00 00 	movl   $0x2,0x4(%esp)
    404c:	00 
    404d:	e8 3e 77 00 00       	call   b790 <nic_report_receive_error>
    4052:	83 c4 1c             	add    $0x1c,%esp
    4055:	5b                   	pop    %ebx
    4056:	5e                   	pop    %esi
    4057:	5f                   	pop    %edi
    4058:	5d                   	pop    %ebp
    4059:	c3                   	ret    
    405a:	8d b6 00 00 00 00    	lea    0x0(%esi),%esi
    4060:	89 1c 24             	mov    %ebx,(%esp)
    4063:	c7 44 24 08 01 00 00 	movl   $0x1,0x8(%esp)
    406a:	00 
    406b:	c7 44 24 04 05 00 00 	movl   $0x5,0x4(%esp)
    4072:	00 
    4073:	e8 18 77 00 00       	call   b790 <nic_report_receive_error>
    4078:	83 c4 1c             	add    $0x1c,%esp
    407b:	5b                   	pop    %ebx
    407c:	5e                   	pop    %esi
    407d:	5f                   	pop    %edi
    407e:	5d                   	pop    %ebp
    407f:	c3                   	ret    
    4080:	c7 44 24 08 73 08 00 	movl   $0x873,0x8(%esp)
    4087:	00 
    4088:	c7 44 24 04 91 e4 02 	movl   $0x2e491,0x4(%esp)
    408f:	00 
    4090:	c7 04 24 15 dd 02 00 	movl   $0x2dd15,(%esp)
    4097:	e8 14 56 02 00       	call   296b0 <assert_abort>
    409c:	c7 44 24 08 76 08 00 	movl   $0x876,0x8(%esp)
    40a3:	00 
    40a4:	c7 44 24 04 91 e4 02 	movl   $0x2e491,0x4(%esp)
    40ab:	00 
    40ac:	c7 04 24 08 dd 02 00 	movl   $0x2dd08,(%esp)
    40b3:	e8 f8 55 02 00       	call   296b0 <assert_abort>
    40b8:	c7 44 24 08 54 03 00 	movl   $0x354,0x8(%esp)
    40bf:	00 
    40c0:	c7 44 24 04 91 e4 02 	movl   $0x2e491,0x4(%esp)
    40c7:	00 
    40c8:	c7 04 24 08 dd 02 00 	movl   $0x2dd08,(%esp)
    40cf:	e8 dc 55 02 00       	call   296b0 <assert_abort>
    40d4:	8d b6 00 00 00 00    	lea    0x0(%esi),%esi
    40da:	8d bf 00 00 00 00    	lea    0x0(%edi),%edi

000040e0 <rtl8139_interrupt_handler>:
    40e0:	55                   	push   %ebp
    40e1:	89 e5                	mov    %esp,%ebp
    40e3:	57                   	push   %edi
    40e4:	56                   	push   %esi
    40e5:	53                   	push   %ebx
    40e6:	83 ec 2c             	sub    $0x2c,%esp
    40e9:	8b 45 08             	mov    0x8(%ebp),%eax
    40ec:	8b 55 10             	mov    0x10(%ebp),%edx
    40ef:	85 c0                	test   %eax,%eax
    40f1:	0f 84 3e 01 00 00    	je     4235 <rtl8139_interrupt_handler+0x155>
    40f7:	85 d2                	test   %edx,%edx
    40f9:	0f 84 6e 01 00 00    	je     426d <rtl8139_interrupt_handler+0x18d>
    40ff:	8b 72 08             	mov    0x8(%edx),%esi
    4102:	89 04 24             	mov    %eax,(%esp)
    4105:	e8 56 75 00 00       	call   b660 <nic_get_from_ddf_dev>
    410a:	89 04 24             	mov    %eax,(%esp)
    410d:	89 c3                	mov    %eax,%ebx
    410f:	e8 dc 74 00 00       	call   b5f0 <nic_get_specific>
    4114:	85 db                	test   %ebx,%ebx
    4116:	89 c7                	mov    %eax,%edi
    4118:	0f 84 33 01 00 00    	je     4251 <rtl8139_interrupt_handler+0x171>
    411e:	c7 44 24 04 00 00 00 	movl   $0x0,0x4(%esp)
    4125:	00 
    4126:	89 1c 24             	mov    %ebx,(%esp)
    4129:	e8 82 6b 00 00       	call   acb0 <nic_query_poll_mode>
    412e:	83 f8 02             	cmp    $0x2,%eax
    4131:	74 4d                	je     4180 <rtl8139_interrupt_handler+0xa0>
    4133:	f7 c6 0c 00 00 00    	test   $0xc,%esi
    4139:	75 6d                	jne    41a8 <rtl8139_interrupt_handler+0xc8>
    413b:	f7 c6 01 00 00 00    	test   $0x1,%esi
    4141:	75 55                	jne    4198 <rtl8139_interrupt_handler+0xb8>
    4143:	f7 c6 52 00 00 00    	test   $0x52,%esi
    4149:	74 11                	je     415c <rtl8139_interrupt_handler+0x7c>
    414b:	f7 c6 40 00 00 00    	test   $0x40,%esi
    4151:	0f 85 c1 00 00 00    	jne    4218 <rtl8139_interrupt_handler+0x138>
    4157:	83 e6 10             	and    $0x10,%esi
    415a:	75 5c                	jne    41b8 <rtl8139_interrupt_handler+0xd8>
    415c:	66 8b 47 0c          	mov    0xc(%edi),%ax
    4160:	25 ff ff 00 00       	and    $0xffff,%eax
    4165:	89 45 0c             	mov    %eax,0xc(%ebp)
    4168:	8b 47 04             	mov    0x4(%edi),%eax
    416b:	83 c0 3c             	add    $0x3c,%eax
    416e:	89 45 08             	mov    %eax,0x8(%ebp)
    4171:	83 c4 2c             	add    $0x2c,%esp
    4174:	5b                   	pop    %ebx
    4175:	5e                   	pop    %esi
    4176:	5f                   	pop    %edi
    4177:	5d                   	pop    %ebp
    4178:	e9 d3 ad 00 00       	jmp    ef50 <pio_write_16>
    417d:	8d 76 00             	lea    0x0(%esi),%esi
    4180:	f7 c6 00 40 00 00    	test   $0x4000,%esi
    4186:	74 d4                	je     415c <rtl8139_interrupt_handler+0x7c>
    4188:	89 d8                	mov    %ebx,%eax
    418a:	e8 a1 d1 ff ff       	call   1330 <rtl8139_poll_interrupt>
    418f:	85 c0                	test   %eax,%eax
    4191:	75 a0                	jne    4133 <rtl8139_interrupt_handler+0x53>
    4193:	eb c7                	jmp    415c <rtl8139_interrupt_handler+0x7c>
    4195:	8d 76 00             	lea    0x0(%esi),%esi
    4198:	89 d8                	mov    %ebx,%eax
    419a:	e8 c1 f1 ff ff       	call   3360 <rtl8139_receive_frames>
    419f:	eb a2                	jmp    4143 <rtl8139_interrupt_handler+0x63>
    41a1:	8d b4 26 00 00 00 00 	lea    0x0(%esi,%eiz,1),%esi
    41a8:	89 d8                	mov    %ebx,%eax
    41aa:	e8 61 d2 ff ff       	call   1410 <rtl8139_tx_interrupt>
    41af:	eb 8a                	jmp    413b <rtl8139_interrupt_handler+0x5b>
    41b1:	8d b4 26 00 00 00 00 	lea    0x0(%esi,%eiz,1),%esi
    41b8:	89 1c 24             	mov    %ebx,(%esp)
    41bb:	e8 30 74 00 00       	call   b5f0 <nic_get_specific>
    41c0:	89 c6                	mov    %eax,%esi
    41c2:	85 c0                	test   %eax,%eax
    41c4:	0f 84 bf 00 00 00    	je     4289 <rtl8139_interrupt_handler+0x1a9>
    41ca:	8b 40 04             	mov    0x4(%eax),%eax
    41cd:	83 c0 4c             	add    $0x4c,%eax
    41d0:	89 04 24             	mov    %eax,(%esp)
    41d3:	e8 98 ae 00 00       	call   f070 <pio_read_32>
    41d8:	c7 44 24 04 00 00 00 	movl   $0x0,0x4(%esp)
    41df:	00 
    41e0:	8b 56 04             	mov    0x4(%esi),%edx
    41e3:	89 45 e4             	mov    %eax,-0x1c(%ebp)
    41e6:	83 c2 4c             	add    $0x4c,%edx
    41e9:	89 14 24             	mov    %edx,(%esp)
    41ec:	e8 af ad 00 00       	call   efa0 <pio_write_32>
    41f1:	8b 45 e4             	mov    -0x1c(%ebp),%eax
    41f4:	25 ff ff ff 00       	and    $0xffffff,%eax
    41f9:	c7 44 24 04 02 00 00 	movl   $0x2,0x4(%esp)
    4200:	00 
    4201:	89 44 24 08          	mov    %eax,0x8(%esp)
    4205:	89 1c 24             	mov    %ebx,(%esp)
    4208:	e8 83 75 00 00       	call   b790 <nic_report_receive_error>
    420d:	e9 4a ff ff ff       	jmp    415c <rtl8139_interrupt_handler+0x7c>
    4212:	8d b6 00 00 00 00    	lea    0x0(%esi),%esi
    4218:	c7 44 24 08 01 00 00 	movl   $0x1,0x8(%esp)
    421f:	00 
    4220:	c7 44 24 04 05 00 00 	movl   $0x5,0x4(%esp)
    4227:	00 
    4228:	89 1c 24             	mov    %ebx,(%esp)
    422b:	e8 60 75 00 00       	call   b790 <nic_report_receive_error>
    4230:	e9 27 ff ff ff       	jmp    415c <rtl8139_interrupt_handler+0x7c>
    4235:	c7 44 24 08 66 03 00 	movl   $0x366,0x8(%esp)
    423c:	00 
    423d:	c7 44 24 04 91 e4 02 	movl   $0x2e491,0x4(%esp)
    4244:	00 
    4245:	c7 04 24 a0 dd 02 00 	movl   $0x2dda0,(%esp)
    424c:	e8 5f 54 02 00       	call   296b0 <assert_abort>
    4251:	c7 44 24 08 35 03 00 	movl   $0x335,0x8(%esp)
    4258:	00 
    4259:	c7 44 24 04 91 e4 02 	movl   $0x2e491,0x4(%esp)
    4260:	00 
    4261:	c7 04 24 15 dd 02 00 	movl   $0x2dd15,(%esp)
    4268:	e8 43 54 02 00       	call   296b0 <assert_abort>
    426d:	c7 44 24 08 67 03 00 	movl   $0x367,0x8(%esp)
    4274:	00 
    4275:	c7 44 24 04 91 e4 02 	movl   $0x2e491,0x4(%esp)
    427c:	00 
    427d:	c7 04 24 bb de 02 00 	movl   $0x2debb,(%esp)
    4284:	e8 27 54 02 00       	call   296b0 <assert_abort>
    4289:	c7 44 24 08 54 03 00 	movl   $0x354,0x8(%esp)
    4290:	00 
    4291:	c7 44 24 04 91 e4 02 	movl   $0x2e491,0x4(%esp)
    4298:	00 
    4299:	c7 04 24 08 dd 02 00 	movl   $0x2dd08,(%esp)
    42a0:	e8 0b 54 02 00       	call   296b0 <assert_abort>
    42a5:	8d 74 26 00          	lea    0x0(%esi,%eiz,1),%esi
    42a9:	8d bc 27 00 00 00 00 	lea    0x0(%edi,%eiz,1),%edi

000042b0 <rtl8139_unicast_set>:
    42b0:	55                   	push   %ebp
    42b1:	89 e5                	mov    %esp,%ebp
    42b3:	57                   	push   %edi
    42b4:	56                   	push   %esi
    42b5:	53                   	push   %ebx
    42b6:	83 ec 3c             	sub    $0x3c,%esp
    42b9:	8b 5d 08             	mov    0x8(%ebp),%ebx
    42bc:	85 db                	test   %ebx,%ebx
    42be:	0f 84 0d 02 00 00    	je     44d1 <rtl8139_unicast_set+0x221>
    42c4:	89 1c 24             	mov    %ebx,(%esp)
    42c7:	e8 24 73 00 00       	call   b5f0 <nic_get_specific>
    42cc:	89 c6                	mov    %eax,%esi
    42ce:	85 c0                	test   %eax,%eax
    42d0:	0f 84 df 01 00 00    	je     44b5 <rtl8139_unicast_set+0x205>
    42d6:	0f b6 78 3c          	movzbl 0x3c(%eax),%edi
    42da:	8d 45 e4             	lea    -0x1c(%ebp),%eax
    42dd:	c7 44 24 10 00 00 00 	movl   $0x0,0x10(%esp)
    42e4:	00 
    42e5:	c7 44 24 0c 00 00 00 	movl   $0x0,0xc(%esp)
    42ec:	00 
    42ed:	c7 44 24 08 00 00 00 	movl   $0x0,0x8(%esp)
    42f4:	00 
    42f5:	89 44 24 04          	mov    %eax,0x4(%esp)
    42f9:	89 1c 24             	mov    %ebx,(%esp)
    42fc:	83 e7 01             	and    $0x1,%edi
    42ff:	e8 ac 71 00 00       	call   b4b0 <nic_query_multicast>
    4304:	83 7d 0c 02          	cmpl   $0x2,0xc(%ebp)
    4308:	0f 84 52 01 00 00    	je     4460 <rtl8139_unicast_set+0x1b0>
    430e:	0f 86 c4 00 00 00    	jbe    43d8 <rtl8139_unicast_set+0x128>
    4314:	83 7d 0c 03          	cmpl   $0x3,0xc(%ebp)
    4318:	0f 84 12 01 00 00    	je     4430 <rtl8139_unicast_set+0x180>
    431e:	83 7d 0c 04          	cmpl   $0x4,0xc(%ebp)
    4322:	0f 85 b6 00 00 00    	jne    43de <rtl8139_unicast_set+0x12e>
    4328:	c6 46 3c 03          	movb   $0x3,0x3c(%esi)
    432c:	83 7d e4 03          	cmpl   $0x3,-0x1c(%ebp)
    4330:	0f 84 d0 00 00 00    	je     4406 <rtl8139_unicast_set+0x156>
    4336:	c7 44 24 0c ff ff ff 	movl   $0xffffffff,0xc(%esp)
    433d:	ff 
    433e:	c7 44 24 08 00 00 00 	movl   $0x0,0x8(%esp)
    4345:	00 
    4346:	c7 44 24 04 01 00 00 	movl   $0x1,0x4(%esp)
    434d:	00 
    434e:	89 1c 24             	mov    %ebx,(%esp)
    4351:	e8 7a 70 00 00       	call   b3d0 <nic_report_hw_filtering>
    4356:	8d 7e 44             	lea    0x44(%esi),%edi
    4359:	89 3c 24             	mov    %edi,(%esp)
    435c:	e8 9f 14 01 00       	call   15800 <fibril_mutex_lock>
    4361:	8b 5e 38             	mov    0x38(%esi),%ebx
    4364:	31 c0                	xor    %eax,%eax
    4366:	80 cf 08             	or     $0x8,%bh
    4369:	8a 46 3c             	mov    0x3c(%esi),%al
    436c:	09 c3                	or     %eax,%ebx
    436e:	31 c0                	xor    %eax,%eax
    4370:	8a 46 3d             	mov    0x3d(%esi),%al
    4373:	09 c3                	or     %eax,%ebx
    4375:	31 c0                	xor    %eax,%eax
    4377:	8a 46 3e             	mov    0x3e(%esi),%al
    437a:	09 c3                	or     %eax,%ebx
    437c:	31 c0                	xor    %eax,%eax
    437e:	8a 46 3f             	mov    0x3f(%esi),%al
    4381:	09 c3                	or     %eax,%ebx
    4383:	8b 46 04             	mov    0x4(%esi),%eax
    4386:	83 c0 44             	add    $0x44,%eax
    4389:	89 04 24             	mov    %eax,(%esp)
    438c:	e8 df ac 00 00       	call   f070 <pio_read_32>
    4391:	89 5c 24 0c          	mov    %ebx,0xc(%esp)
    4395:	89 44 24 08          	mov    %eax,0x8(%esp)
    4399:	c7 44 24 04 81 dd 02 	movl   $0x2dd81,0x4(%esp)
    43a0:	00 
    43a1:	c7 04 24 04 00 00 00 	movl   $0x4,(%esp)
    43a8:	e8 03 1b 00 00       	call   5eb0 <ddf_msg>
    43ad:	89 5c 24 04          	mov    %ebx,0x4(%esp)
    43b1:	8b 46 04             	mov    0x4(%esi),%eax
    43b4:	83 c0 44             	add    $0x44,%eax
    43b7:	89 04 24             	mov    %eax,(%esp)
    43ba:	e8 e1 ab 00 00       	call   efa0 <pio_write_32>
    43bf:	89 3c 24             	mov    %edi,(%esp)
    43c2:	e8 59 15 01 00       	call   15920 <fibril_mutex_unlock>
    43c7:	83 c4 3c             	add    $0x3c,%esp
    43ca:	31 c0                	xor    %eax,%eax
    43cc:	5b                   	pop    %ebx
    43cd:	5e                   	pop    %esi
    43ce:	5f                   	pop    %edi
    43cf:	5d                   	pop    %ebp
    43d0:	c3                   	ret    
    43d1:	8d b4 26 00 00 00 00 	lea    0x0(%esi,%eiz,1),%esi
    43d8:	83 7d 0c 01          	cmpl   $0x1,0xc(%ebp)
    43dc:	74 12                	je     43f0 <rtl8139_unicast_set+0x140>
    43de:	83 c4 3c             	add    $0x3c,%esp
    43e1:	b8 f5 ff ff ff       	mov    $0xfffffff5,%eax
    43e6:	5b                   	pop    %ebx
    43e7:	5e                   	pop    %esi
    43e8:	5f                   	pop    %edi
    43e9:	5d                   	pop    %ebp
    43ea:	c3                   	ret    
    43eb:	90                   	nop
    43ec:	8d 74 26 00          	lea    0x0(%esi,%eiz,1),%esi
    43f0:	89 fa                	mov    %edi,%edx
    43f2:	c6 46 3c 00          	movb   $0x0,0x3c(%esi)
    43f6:	8b 45 e4             	mov    -0x1c(%ebp),%eax
    43f9:	84 d2                	test   %dl,%dl
    43fb:	74 70                	je     446d <rtl8139_unicast_set+0x1bd>
    43fd:	83 f8 02             	cmp    $0x2,%eax
    4400:	0f 84 30 ff ff ff    	je     4336 <rtl8139_unicast_set+0x86>
    4406:	c7 44 24 0c ff ff ff 	movl   $0xffffffff,0xc(%esp)
    440d:	ff 
    440e:	c7 44 24 08 01 00 00 	movl   $0x1,0x8(%esp)
    4415:	00 
    4416:	c7 44 24 04 01 00 00 	movl   $0x1,0x4(%esp)
    441d:	00 
    441e:	89 1c 24             	mov    %ebx,(%esp)
    4421:	e8 aa 6f 00 00       	call   b3d0 <nic_report_hw_filtering>
    4426:	e9 2b ff ff ff       	jmp    4356 <rtl8139_unicast_set+0xa6>
    442b:	90                   	nop
    442c:	8d 74 26 00          	lea    0x0(%esi,%eiz,1),%esi
    4430:	c6 46 3c 03          	movb   $0x3,0x3c(%esi)
    4434:	c7 44 24 0c ff ff ff 	movl   $0xffffffff,0xc(%esp)
    443b:	ff 
    443c:	83 7d e4 03          	cmpl   $0x3,-0x1c(%ebp)
    4440:	74 56                	je     4498 <rtl8139_unicast_set+0x1e8>
    4442:	c7 44 24 08 00 00 00 	movl   $0x0,0x8(%esp)
    4449:	00 
    444a:	c7 44 24 04 00 00 00 	movl   $0x0,0x4(%esp)
    4451:	00 
    4452:	89 1c 24             	mov    %ebx,(%esp)
    4455:	e8 76 6f 00 00       	call   b3d0 <nic_report_hw_filtering>
    445a:	e9 f7 fe ff ff       	jmp    4356 <rtl8139_unicast_set+0xa6>
    445f:	90                   	nop
    4460:	89 fa                	mov    %edi,%edx
    4462:	c6 46 3c 02          	movb   $0x2,0x3c(%esi)
    4466:	8b 45 e4             	mov    -0x1c(%ebp),%eax
    4469:	84 d2                	test   %dl,%dl
    446b:	75 90                	jne    43fd <rtl8139_unicast_set+0x14d>
    446d:	c7 44 24 0c ff ff ff 	movl   $0xffffffff,0xc(%esp)
    4474:	ff 
    4475:	c7 44 24 08 ff ff ff 	movl   $0xffffffff,0x8(%esp)
    447c:	ff 
    447d:	c7 44 24 04 01 00 00 	movl   $0x1,0x4(%esp)
    4484:	00 
    4485:	89 1c 24             	mov    %ebx,(%esp)
    4488:	e8 43 6f 00 00       	call   b3d0 <nic_report_hw_filtering>
    448d:	e9 c4 fe ff ff       	jmp    4356 <rtl8139_unicast_set+0xa6>
    4492:	8d b6 00 00 00 00    	lea    0x0(%esi),%esi
    4498:	c7 44 24 08 01 00 00 	movl   $0x1,0x8(%esp)
    449f:	00 
    44a0:	c7 44 24 04 00 00 00 	movl   $0x0,0x4(%esp)
    44a7:	00 
    44a8:	89 1c 24             	mov    %ebx,(%esp)
    44ab:	e8 20 6f 00 00       	call   b3d0 <nic_report_hw_filtering>
    44b0:	e9 a1 fe ff ff       	jmp    4356 <rtl8139_unicast_set+0xa6>
    44b5:	c7 44 24 08 30 07 00 	movl   $0x730,0x8(%esp)
    44bc:	00 
    44bd:	c7 44 24 04 91 e4 02 	movl   $0x2e491,0x4(%esp)
    44c4:	00 
    44c5:	c7 04 24 08 dd 02 00 	movl   $0x2dd08,(%esp)
    44cc:	e8 df 51 02 00       	call   296b0 <assert_abort>
    44d1:	c7 44 24 08 2d 07 00 	movl   $0x72d,0x8(%esp)
    44d8:	00 
    44d9:	c7 44 24 04 91 e4 02 	movl   $0x2e491,0x4(%esp)
    44e0:	00 
    44e1:	c7 04 24 15 dd 02 00 	movl   $0x2dd15,(%esp)
    44e8:	e8 c3 51 02 00       	call   296b0 <assert_abort>
    44ed:	8d 76 00             	lea    0x0(%esi),%esi

000044f0 <rtl8139_wol_virtue_add>:
    44f0:	55                   	push   %ebp
    44f1:	89 e5                	mov    %esp,%ebp
    44f3:	56                   	push   %esi
    44f4:	53                   	push   %ebx
    44f5:	83 ec 20             	sub    $0x20,%esp
    44f8:	8b 45 08             	mov    0x8(%ebp),%eax
    44fb:	8b 75 0c             	mov    0xc(%ebp),%esi
    44fe:	85 c0                	test   %eax,%eax
    4500:	0f 84 11 02 00 00    	je     4717 <rtl8139_wol_virtue_add+0x227>
    4506:	85 f6                	test   %esi,%esi
    4508:	0f 84 ed 01 00 00    	je     46fb <rtl8139_wol_virtue_add+0x20b>
    450e:	89 04 24             	mov    %eax,(%esp)
    4511:	e8 da 70 00 00       	call   b5f0 <nic_get_specific>
    4516:	89 c3                	mov    %eax,%ebx
    4518:	85 c0                	test   %eax,%eax
    451a:	0f 84 bf 01 00 00    	je     46df <rtl8139_wol_virtue_add+0x1ef>
    4520:	8b 46 0c             	mov    0xc(%esi),%eax
    4523:	83 f8 02             	cmp    $0x2,%eax
    4526:	0f 84 7c 01 00 00    	je     46a8 <rtl8139_wol_virtue_add+0x1b8>
    452c:	83 f8 04             	cmp    $0x4,%eax
    452f:	0f 84 3b 01 00 00    	je     4670 <rtl8139_wol_virtue_add+0x180>
    4535:	48                   	dec    %eax
    4536:	74 10                	je     4548 <rtl8139_wol_virtue_add+0x58>
    4538:	83 c4 20             	add    $0x20,%esp
    453b:	b8 f2 ff ff ff       	mov    $0xfffffff2,%eax
    4540:	5b                   	pop    %ebx
    4541:	5e                   	pop    %esi
    4542:	5d                   	pop    %ebp
    4543:	c3                   	ret    
    4544:	8d 74 26 00          	lea    0x0(%esi,%eiz,1),%esi
    4548:	c7 44 24 04 c0 00 00 	movl   $0xc0,0x4(%esp)
    454f:	00 
    4550:	8b 43 04             	mov    0x4(%ebx),%eax
    4553:	83 c0 50             	add    $0x50,%eax
    4556:	89 04 24             	mov    %eax,(%esp)
    4559:	e8 a2 a9 00 00       	call   ef00 <pio_write_8>
    455e:	8b 43 04             	mov    0x4(%ebx),%eax
    4561:	83 c0 59             	add    $0x59,%eax
    4564:	89 04 24             	mov    %eax,(%esp)
    4567:	e8 84 aa 00 00       	call   eff0 <pio_read_8>
    456c:	83 c8 10             	or     $0x10,%eax
    456f:	25 ff 00 00 00       	and    $0xff,%eax
    4574:	89 44 24 04          	mov    %eax,0x4(%esp)
    4578:	8b 43 04             	mov    0x4(%ebx),%eax
    457b:	83 c0 59             	add    $0x59,%eax
    457e:	89 04 24             	mov    %eax,(%esp)
    4581:	e8 7a a9 00 00       	call   ef00 <pio_write_8>
    4586:	c7 44 24 04 00 00 00 	movl   $0x0,0x4(%esp)
    458d:	00 
    458e:	8b 43 04             	mov    0x4(%ebx),%eax
    4591:	83 c0 50             	add    $0x50,%eax
    4594:	89 04 24             	mov    %eax,(%esp)
    4597:	e8 64 a9 00 00       	call   ef00 <pio_write_8>
    459c:	8b 43 40             	mov    0x40(%ebx),%eax
    459f:	85 c0                	test   %eax,%eax
    45a1:	8d 50 01             	lea    0x1(%eax),%edx
    45a4:	89 53 40             	mov    %edx,0x40(%ebx)
    45a7:	74 0f                	je     45b8 <rtl8139_wol_virtue_add+0xc8>
    45a9:	31 c0                	xor    %eax,%eax
    45ab:	83 c4 20             	add    $0x20,%esp
    45ae:	5b                   	pop    %ebx
    45af:	5e                   	pop    %esi
    45b0:	5d                   	pop    %ebp
    45b1:	c3                   	ret    
    45b2:	8d b6 00 00 00 00    	lea    0x0(%esi),%esi
    45b8:	8b 43 04             	mov    0x4(%ebx),%eax
    45bb:	be 01 00 00 00       	mov    $0x1,%esi
    45c0:	83 c0 52             	add    $0x52,%eax
    45c3:	89 04 24             	mov    %eax,(%esp)
    45c6:	e8 25 aa 00 00       	call   eff0 <pio_read_8>
    45cb:	09 c6                	or     %eax,%esi
    45cd:	89 f2                	mov    %esi,%edx
    45cf:	38 d0                	cmp    %dl,%al
    45d1:	74 d6                	je     45a9 <rtl8139_wol_virtue_add+0xb9>
    45d3:	c7 44 24 04 c0 00 00 	movl   $0xc0,0x4(%esp)
    45da:	00 
    45db:	81 e6 ff 00 00 00    	and    $0xff,%esi
    45e1:	8b 43 04             	mov    0x4(%ebx),%eax
    45e4:	83 c0 50             	add    $0x50,%eax
    45e7:	89 04 24             	mov    %eax,(%esp)
    45ea:	e8 11 a9 00 00       	call   ef00 <pio_write_8>
    45ef:	89 74 24 04          	mov    %esi,0x4(%esp)
    45f3:	8b 43 04             	mov    0x4(%ebx),%eax
    45f6:	83 c0 52             	add    $0x52,%eax
    45f9:	89 04 24             	mov    %eax,(%esp)
    45fc:	e8 ff a8 00 00       	call   ef00 <pio_write_8>
    4601:	c7 44 24 04 00 00 00 	movl   $0x0,0x4(%esp)
    4608:	00 
    4609:	8b 43 04             	mov    0x4(%ebx),%eax
    460c:	83 c0 50             	add    $0x50,%eax
    460f:	89 04 24             	mov    %eax,(%esp)
    4612:	e8 e9 a8 00 00       	call   ef00 <pio_write_8>
    4617:	8b 43 78             	mov    0x78(%ebx),%eax
    461a:	89 04 24             	mov    %eax,(%esp)
    461d:	e8 0e 70 00 00       	call   b630 <nic_get_ddf_dev>
    4622:	89 04 24             	mov    %eax,(%esp)
    4625:	e8 a6 0d 00 00       	call   53d0 <ddf_dev_parent_sess_get>
    462a:	c7 44 24 04 55 00 00 	movl   $0x55,0x4(%esp)
    4631:	00 
    4632:	89 c3                	mov    %eax,%ebx
    4634:	8d 45 f7             	lea    -0x9(%ebp),%eax
    4637:	89 44 24 08          	mov    %eax,0x8(%esp)
    463b:	89 1c 24             	mov    %ebx,(%esp)
    463e:	e8 fd cb 00 00       	call   11240 <pci_config_space_read_8>
    4643:	8a 55 f7             	mov    -0x9(%ebp),%dl
    4646:	83 ca 81             	or     $0xffffff81,%edx
    4649:	c7 44 24 04 55 00 00 	movl   $0x55,0x4(%esp)
    4650:	00 
    4651:	81 e2 ff 00 00 00    	and    $0xff,%edx
    4657:	89 1c 24             	mov    %ebx,(%esp)
    465a:	89 54 24 08          	mov    %edx,0x8(%esp)
    465e:	e8 8d cd 00 00       	call   113f0 <pci_config_space_write_8>
    4663:	31 c0                	xor    %eax,%eax
    4665:	e9 41 ff ff ff       	jmp    45ab <rtl8139_wol_virtue_add+0xbb>
    466a:	8d b6 00 00 00 00    	lea    0x0(%esi),%esi
    4670:	8b 43 04             	mov    0x4(%ebx),%eax
    4673:	05 d8 00 00 00       	add    $0xd8,%eax
    4678:	89 04 24             	mov    %eax,(%esp)
    467b:	e8 70 a9 00 00       	call   eff0 <pio_read_8>
    4680:	83 c8 40             	or     $0x40,%eax
    4683:	25 ff 00 00 00       	and    $0xff,%eax
    4688:	89 44 24 04          	mov    %eax,0x4(%esp)
    468c:	8b 43 04             	mov    0x4(%ebx),%eax
    468f:	05 d8 00 00 00       	add    $0xd8,%eax
    4694:	89 04 24             	mov    %eax,(%esp)
    4697:	e8 64 a8 00 00       	call   ef00 <pio_write_8>
    469c:	e9 fb fe ff ff       	jmp    459c <rtl8139_wol_virtue_add+0xac>
    46a1:	8d b4 26 00 00 00 00 	lea    0x0(%esi,%eiz,1),%esi
    46a8:	8b 46 10             	mov    0x10(%esi),%eax
    46ab:	85 c0                	test   %eax,%eax
    46ad:	0f 85 85 fe ff ff    	jne    4538 <rtl8139_wol_virtue_add+0x48>
    46b3:	c7 44 24 04 c0 00 00 	movl   $0xc0,0x4(%esp)
    46ba:	00 
    46bb:	8b 43 04             	mov    0x4(%ebx),%eax
    46be:	83 c0 50             	add    $0x50,%eax
    46c1:	89 04 24             	mov    %eax,(%esp)
    46c4:	e8 37 a8 00 00       	call   ef00 <pio_write_8>
    46c9:	8b 43 04             	mov    0x4(%ebx),%eax
    46cc:	83 c0 59             	add    $0x59,%eax
    46cf:	89 04 24             	mov    %eax,(%esp)
    46d2:	e8 19 a9 00 00       	call   eff0 <pio_read_8>
    46d7:	83 c8 20             	or     $0x20,%eax
    46da:	e9 90 fe ff ff       	jmp    456f <rtl8139_wol_virtue_add+0x7f>
    46df:	c7 44 24 08 eb 07 00 	movl   $0x7eb,0x8(%esp)
    46e6:	00 
    46e7:	c7 44 24 04 91 e4 02 	movl   $0x2e491,0x4(%esp)
    46ee:	00 
    46ef:	c7 04 24 08 dd 02 00 	movl   $0x2dd08,(%esp)
    46f6:	e8 b5 4f 02 00       	call   296b0 <assert_abort>
    46fb:	c7 44 24 08 e8 07 00 	movl   $0x7e8,0x8(%esp)
    4702:	00 
    4703:	c7 44 24 04 91 e4 02 	movl   $0x2e491,0x4(%esp)
    470a:	00 
    470b:	c7 04 24 8a de 02 00 	movl   $0x2de8a,(%esp)
    4712:	e8 99 4f 02 00       	call   296b0 <assert_abort>
    4717:	c7 44 24 08 e7 07 00 	movl   $0x7e7,0x8(%esp)
    471e:	00 
    471f:	c7 44 24 04 91 e4 02 	movl   $0x2e491,0x4(%esp)
    4726:	00 
    4727:	c7 04 24 15 dd 02 00 	movl   $0x2dd15,(%esp)
    472e:	e8 7d 4f 02 00       	call   296b0 <assert_abort>

00004733 <rtl8139_lock_all.part.1>:
    4733:	55                   	push   %ebp
    4734:	89 e5                	mov    %esp,%ebp
    4736:	83 ec 18             	sub    $0x18,%esp
    4739:	c7 44 24 08 54 00 00 	movl   $0x54,0x8(%esp)
    4740:	00 
    4741:	c7 44 24 04 91 e4 02 	movl   $0x2e491,0x4(%esp)
    4748:	00 
    4749:	c7 04 24 08 dd 02 00 	movl   $0x2dd08,(%esp)
    4750:	e8 5b 4f 02 00       	call   296b0 <assert_abort>

00004755 <rtl8139_unlock_all.part.2>:
    4755:	55                   	push   %ebp
    4756:	89 e5                	mov    %esp,%ebp
    4758:	83 ec 18             	sub    $0x18,%esp
    475b:	c7 44 24 08 60 00 00 	movl   $0x60,0x8(%esp)
    4762:	00 
    4763:	c7 44 24 04 91 e4 02 	movl   $0x2e491,0x4(%esp)
    476a:	00 
    476b:	c7 04 24 08 dd 02 00 	movl   $0x2dd08,(%esp)
    4772:	e8 39 4f 02 00       	call   296b0 <assert_abort>
    4777:	66 90                	xchg   %ax,%ax
    4779:	66 90                	xchg   %ax,%ax
    477b:	66 90                	xchg   %ax,%ax
    477d:	66 90                	xchg   %ax,%ax
    477f:	90                   	nop

00004780 <main>:
    4780:	55                   	push   %ebp
    4781:	89 e5                	mov    %esp,%ebp
    4783:	83 e4 f0             	and    $0xfffffff0,%esp
    4786:	83 ec 10             	sub    $0x10,%esp
    4789:	c7 04 24 08 dd 02 00 	movl   $0x2dd08,(%esp)
    4790:	e8 ab 5c 00 00       	call   a440 <nic_driver_init>
    4795:	85 c0                	test   %eax,%eax
    4797:	74 02                	je     479b <main+0x1b>
    4799:	c9                   	leave  
    479a:	c3                   	ret    
    479b:	c7 44 24 08 20 18 03 	movl   $0x31820,0x8(%esp)
    47a2:	00 
    47a3:	c7 44 24 04 e0 1d 03 	movl   $0x31de0,0x4(%esp)
    47aa:	00 
    47ab:	c7 04 24 fc 17 03 00 	movl   $0x317fc,(%esp)
    47b2:	e8 09 5d 00 00       	call   a4c0 <nic_driver_implement>
    47b7:	c7 04 24 08 dd 02 00 	movl   $0x2dd08,(%esp)
    47be:	e8 dd 16 00 00       	call   5ea0 <ddf_log_init>
    47c3:	c7 44 24 04 c0 e3 02 	movl   $0x2e3c0,0x4(%esp)
    47ca:	00 
    47cb:	c7 04 24 03 00 00 00 	movl   $0x3,(%esp)
    47d2:	e8 d9 16 00 00       	call   5eb0 <ddf_msg>
    47d7:	c7 04 24 c4 18 03 00 	movl   $0x318c4,(%esp)
    47de:	e8 dd 12 00 00       	call   5ac0 <ddf_driver_main>
    47e3:	c9                   	leave  
    47e4:	c3                   	ret    
    47e5:	66 90                	xchg   %ax,%ax
    47e7:	66 90                	xchg   %ax,%ax
    47e9:	66 90                	xchg   %ax,%ax
    47eb:	66 90                	xchg   %ax,%ax
    47ed:	66 90                	xchg   %ax,%ax
    47ef:	90                   	nop

000047f0 <rtl8139_memcpy_wrapped>:
    47f0:	55                   	push   %ebp
    47f1:	31 d2                	xor    %edx,%edx
    47f3:	89 e5                	mov    %esp,%ebp
    47f5:	57                   	push   %edi
    47f6:	56                   	push   %esi
    47f7:	53                   	push   %ebx
    47f8:	83 ec 2c             	sub    $0x2c,%esp
    47fb:	8b 4d 14             	mov    0x14(%ebp),%ecx
    47fe:	8b 45 10             	mov    0x10(%ebp),%eax
    4801:	8b 5d 18             	mov    0x18(%ebp),%ebx
    4804:	8b 75 08             	mov    0x8(%ebp),%esi
    4807:	f7 f1                	div    %ecx
    4809:	8b 7d 0c             	mov    0xc(%ebp),%edi
    480c:	39 d9                	cmp    %ebx,%ecx
    480e:	72 58                	jb     4868 <rtl8139_memcpy_wrapped+0x78>
    4810:	29 d1                	sub    %edx,%ecx
    4812:	39 cb                	cmp    %ecx,%ebx
    4814:	76 3a                	jbe    4850 <rtl8139_memcpy_wrapped+0x60>
    4816:	29 cb                	sub    %ecx,%ebx
    4818:	8d 04 0e             	lea    (%esi,%ecx,1),%eax
    481b:	89 5c 24 08          	mov    %ebx,0x8(%esp)
    481f:	89 7c 24 04          	mov    %edi,0x4(%esp)
    4823:	89 04 24             	mov    %eax,(%esp)
    4826:	89 55 e0             	mov    %edx,-0x20(%ebp)
    4829:	89 4d e4             	mov    %ecx,-0x1c(%ebp)
    482c:	e8 ef ce 00 00       	call   11720 <memcpy>
    4831:	8b 55 e0             	mov    -0x20(%ebp),%edx
    4834:	8b 4d e4             	mov    -0x1c(%ebp),%ecx
    4837:	01 d7                	add    %edx,%edi
    4839:	89 75 08             	mov    %esi,0x8(%ebp)
    483c:	89 7d 0c             	mov    %edi,0xc(%ebp)
    483f:	89 4d 10             	mov    %ecx,0x10(%ebp)
    4842:	83 c4 2c             	add    $0x2c,%esp
    4845:	5b                   	pop    %ebx
    4846:	5e                   	pop    %esi
    4847:	5f                   	pop    %edi
    4848:	5d                   	pop    %ebp
    4849:	e9 d2 ce 00 00       	jmp    11720 <memcpy>
    484e:	66 90                	xchg   %ax,%ax
    4850:	01 d7                	add    %edx,%edi
    4852:	89 5d 10             	mov    %ebx,0x10(%ebp)
    4855:	89 7d 0c             	mov    %edi,0xc(%ebp)
    4858:	83 c4 2c             	add    $0x2c,%esp
    485b:	5b                   	pop    %ebx
    485c:	5e                   	pop    %esi
    485d:	5f                   	pop    %edi
    485e:	5d                   	pop    %ebp
    485f:	e9 bc ce 00 00       	jmp    11720 <memcpy>
    4864:	8d 74 26 00          	lea    0x0(%esi,%eiz,1),%esi
    4868:	83 c4 2c             	add    $0x2c,%esp
    486b:	31 c0                	xor    %eax,%eax
    486d:	5b                   	pop    %ebx
    486e:	5e                   	pop    %esi
    486f:	5f                   	pop    %edi
    4870:	5d                   	pop    %ebp
    4871:	c3                   	ret    
    4872:	8d b4 26 00 00 00 00 	lea    0x0(%esi,%eiz,1),%esi
    4879:	8d bc 27 00 00 00 00 	lea    0x0(%edi,%eiz,1),%edi

00004880 <rtl8139_timer_act_init>:
    4880:	55                   	push   %ebp
    4881:	89 e5                	mov    %esp,%ebp
    4883:	57                   	push   %edi
    4884:	56                   	push   %esi
    4885:	53                   	push   %ebx
    4886:	83 ec 2c             	sub    $0x2c,%esp
    4889:	8b 7d 0c             	mov    0xc(%ebp),%edi
    488c:	8b 5d 08             	mov    0x8(%ebp),%ebx
    488f:	8b 75 10             	mov    0x10(%ebp),%esi
    4892:	85 ff                	test   %edi,%edi
    4894:	0f 84 e6 00 00 00    	je     4980 <rtl8139_timer_act_init+0x100>
    489a:	85 db                	test   %ebx,%ebx
    489c:	0f 84 de 00 00 00    	je     4980 <rtl8139_timer_act_init+0x100>
    48a2:	85 f6                	test   %esi,%esi
    48a4:	0f 84 d6 00 00 00    	je     4980 <rtl8139_timer_act_init+0x100>
    48aa:	c7 44 24 08 14 00 00 	movl   $0x14,0x8(%esp)
    48b1:	00 
    48b2:	c7 44 24 04 00 00 00 	movl   $0x0,0x4(%esp)
    48b9:	00 
    48ba:	89 1c 24             	mov    %ebx,(%esp)
    48bd:	e8 de cc 00 00       	call   115a0 <memset>
    48c2:	8d 04 bf             	lea    (%edi,%edi,4),%eax
    48c5:	8d 04 80             	lea    (%eax,%eax,4),%eax
    48c8:	31 d2                	xor    %edx,%edx
    48ca:	8d 0c 80             	lea    (%eax,%eax,4),%ecx
    48cd:	83 c8 ff             	or     $0xffffffff,%eax
    48d0:	c1 e1 03             	shl    $0x3,%ecx
    48d3:	f7 f1                	div    %ecx
    48d5:	0f af c8             	imul   %eax,%ecx
    48d8:	89 45 e4             	mov    %eax,-0x1c(%ebp)
    48db:	31 d2                	xor    %edx,%edx
    48dd:	8b 06                	mov    (%esi),%eax
    48df:	89 4b 04             	mov    %ecx,0x4(%ebx)
    48e2:	f7 75 e4             	divl   -0x1c(%ebp)
    48e5:	8b 4e 04             	mov    0x4(%esi),%ecx
    48e8:	89 45 e0             	mov    %eax,-0x20(%ebp)
    48eb:	89 d6                	mov    %edx,%esi
    48ed:	81 f9 40 42 0f 00    	cmp    $0xf4240,%ecx
    48f3:	7f 43                	jg     4938 <rtl8139_timer_act_init+0xb8>
    48f5:	89 43 08             	mov    %eax,0x8(%ebx)
    48f8:	8d 04 b6             	lea    (%esi,%esi,4),%eax
    48fb:	ba d3 4d 62 10       	mov    $0x10624dd3,%edx
    4900:	c7 43 0c 00 00 00 00 	movl   $0x0,0xc(%ebx)
    4907:	c7 43 10 01 00 00 00 	movl   $0x1,0x10(%ebx)
    490e:	8d 04 80             	lea    (%eax,%eax,4),%eax
    4911:	8d 34 80             	lea    (%eax,%eax,4),%esi
    4914:	89 c8                	mov    %ecx,%eax
    4916:	f7 ea                	imul   %edx
    4918:	c1 f9 1f             	sar    $0x1f,%ecx
    491b:	c1 fa 06             	sar    $0x6,%edx
    491e:	29 ca                	sub    %ecx,%edx
    4920:	8d 04 f2             	lea    (%edx,%esi,8),%eax
    4923:	0f af c7             	imul   %edi,%eax
    4926:	89 03                	mov    %eax,(%ebx)
    4928:	31 c0                	xor    %eax,%eax
    492a:	83 c4 2c             	add    $0x2c,%esp
    492d:	5b                   	pop    %ebx
    492e:	5e                   	pop    %esi
    492f:	5f                   	pop    %edi
    4930:	5d                   	pop    %ebp
    4931:	c3                   	ret    
    4932:	8d b6 00 00 00 00    	lea    0x0(%esi),%esi
    4938:	89 c8                	mov    %ecx,%eax
    493a:	ba 83 de 1b 43       	mov    $0x431bde83,%edx
    493f:	f7 ea                	imul   %edx
    4941:	c1 fa 12             	sar    $0x12,%edx
    4944:	89 c8                	mov    %ecx,%eax
    4946:	c1 f8 1f             	sar    $0x1f,%eax
    4949:	29 c2                	sub    %eax,%edx
    494b:	89 d0                	mov    %edx,%eax
    494d:	01 d6                	add    %edx,%esi
    494f:	c1 e0 05             	shl    $0x5,%eax
    4952:	89 75 dc             	mov    %esi,-0x24(%ebp)
    4955:	29 d0                	sub    %edx,%eax
    4957:	89 c6                	mov    %eax,%esi
    4959:	c1 e6 06             	shl    $0x6,%esi
    495c:	29 c6                	sub    %eax,%esi
    495e:	8d 04 f2             	lea    (%edx,%esi,8),%eax
    4961:	31 d2                	xor    %edx,%edx
    4963:	c1 e0 06             	shl    $0x6,%eax
    4966:	8b 75 e0             	mov    -0x20(%ebp),%esi
    4969:	29 c1                	sub    %eax,%ecx
    496b:	8b 45 dc             	mov    -0x24(%ebp),%eax
    496e:	f7 75 e4             	divl   -0x1c(%ebp)
    4971:	01 f0                	add    %esi,%eax
    4973:	89 d6                	mov    %edx,%esi
    4975:	89 43 08             	mov    %eax,0x8(%ebx)
    4978:	e9 7b ff ff ff       	jmp    48f8 <rtl8139_timer_act_init+0x78>
    497d:	8d 76 00             	lea    0x0(%esi),%esi
    4980:	b8 f2 ff ff ff       	mov    $0xfffffff2,%eax
    4985:	eb a3                	jmp    492a <rtl8139_timer_act_init+0xaa>
    4987:	89 f6                	mov    %esi,%esi
    4989:	8d bc 27 00 00 00 00 	lea    0x0(%edi,%eiz,1),%edi

00004990 <rtl8139_timer_act_step>:
    4990:	55                   	push   %ebp
    4991:	89 e5                	mov    %esp,%ebp
    4993:	56                   	push   %esi
    4994:	53                   	push   %ebx
    4995:	8b 55 08             	mov    0x8(%ebp),%edx
    4998:	8b 5d 0c             	mov    0xc(%ebp),%ebx
    499b:	8b 42 10             	mov    0x10(%edx),%eax
    499e:	85 c0                	test   %eax,%eax
    49a0:	75 0d                	jne    49af <rtl8139_timer_act_step+0x1f>
    49a2:	8b 02                	mov    (%edx),%eax
    49a4:	8b 4a 0c             	mov    0xc(%edx),%ecx
    49a7:	85 c0                	test   %eax,%eax
    49a9:	75 3d                	jne    49e8 <rtl8139_timer_act_step+0x58>
    49ab:	85 c9                	test   %ecx,%ecx
    49ad:	75 29                	jne    49d8 <rtl8139_timer_act_step+0x48>
    49af:	8b 4a 08             	mov    0x8(%edx),%ecx
    49b2:	c7 42 10 00 00 00 00 	movl   $0x0,0x10(%edx)
    49b9:	89 4a 0c             	mov    %ecx,0xc(%edx)
    49bc:	b8 01 00 00 00       	mov    $0x1,%eax
    49c1:	85 c9                	test   %ecx,%ecx
    49c3:	75 15                	jne    49da <rtl8139_timer_act_step+0x4a>
    49c5:	8b 32                	mov    (%edx),%esi
    49c7:	c7 42 10 01 00 00 00 	movl   $0x1,0x10(%edx)
    49ce:	85 db                	test   %ebx,%ebx
    49d0:	74 02                	je     49d4 <rtl8139_timer_act_step+0x44>
    49d2:	89 33                	mov    %esi,(%ebx)
    49d4:	5b                   	pop    %ebx
    49d5:	5e                   	pop    %esi
    49d6:	5d                   	pop    %ebp
    49d7:	c3                   	ret    
    49d8:	31 c0                	xor    %eax,%eax
    49da:	49                   	dec    %ecx
    49db:	8b 72 04             	mov    0x4(%edx),%esi
    49de:	89 4a 0c             	mov    %ecx,0xc(%edx)
    49e1:	eb eb                	jmp    49ce <rtl8139_timer_act_step+0x3e>
    49e3:	90                   	nop
    49e4:	8d 74 26 00          	lea    0x0(%esi,%eiz,1),%esi
    49e8:	31 c0                	xor    %eax,%eax
    49ea:	eb d5                	jmp    49c1 <rtl8139_timer_act_step+0x31>
    49ec:	66 90                	xchg   %ax,%ax
    49ee:	66 90                	xchg   %ax,%ax

000049f0 <driver_connection_gen.isra.8>:
    49f0:	55                   	push   %ebp
    49f1:	89 e5                	mov    %esp,%ebp
    49f3:	57                   	push   %edi
    49f4:	56                   	push   %esi
    49f5:	53                   	push   %ebx
    49f6:	83 ec 5c             	sub    $0x5c,%esp
    49f9:	89 c6                	mov    %eax,%esi
    49fb:	8b 7a 08             	mov    0x8(%edx),%edi
    49fe:	89 55 a8             	mov    %edx,-0x58(%ebp)
    4a01:	c7 04 24 08 19 03 00 	movl   $0x31908,(%esp)
    4a08:	e8 f3 0d 01 00       	call   15800 <fibril_mutex_lock>
    4a0d:	c7 04 24 08 19 03 00 	movl   $0x31908,(%esp)
    4a14:	e8 17 10 01 00       	call   15a30 <fibril_mutex_is_locked>
    4a19:	8b 55 a8             	mov    -0x58(%ebp),%edx
    4a1c:	84 c0                	test   %al,%al
    4a1e:	0f 84 a6 02 00 00    	je     4cca <driver_connection_gen.isra.8+0x2da>
    4a24:	a1 1c 19 03 00       	mov    0x3191c,%eax
    4a29:	3d 18 19 03 00       	cmp    $0x31918,%eax
    4a2e:	75 12                	jne    4a42 <driver_connection_gen.isra.8+0x52>
    4a30:	eb 46                	jmp    4a78 <driver_connection_gen.isra.8+0x88>
    4a32:	8d b6 00 00 00 00    	lea    0x0(%esi),%esi
    4a38:	8b 40 04             	mov    0x4(%eax),%eax
    4a3b:	3d 18 19 03 00       	cmp    $0x31918,%eax
    4a40:	74 36                	je     4a78 <driver_connection_gen.isra.8+0x88>
    4a42:	8d 58 d4             	lea    -0x2c(%eax),%ebx
    4a45:	3b 7b 04             	cmp    0x4(%ebx),%edi
    4a48:	75 ee                	jne    4a38 <driver_connection_gen.isra.8+0x48>
    4a4a:	c7 04 24 08 19 03 00 	movl   $0x31908,(%esp)
    4a51:	89 55 a8             	mov    %edx,-0x58(%ebp)
    4a54:	e8 c7 0e 01 00       	call   15920 <fibril_mutex_unlock>
    4a59:	8b 43 28             	mov    0x28(%ebx),%eax
    4a5c:	85 c0                	test   %eax,%eax
    4a5e:	8b 55 a8             	mov    -0x58(%ebp),%edx
    4a61:	74 55                	je     4ab8 <driver_connection_gen.isra.8+0xc8>
    4a63:	89 5c 24 08          	mov    %ebx,0x8(%esp)
    4a67:	89 34 24             	mov    %esi,(%esp)
    4a6a:	89 54 24 04          	mov    %edx,0x4(%esp)
    4a6e:	ff d0                	call   *%eax
    4a70:	83 c4 5c             	add    $0x5c,%esp
    4a73:	5b                   	pop    %ebx
    4a74:	5e                   	pop    %esi
    4a75:	5f                   	pop    %edi
    4a76:	5d                   	pop    %ebp
    4a77:	c3                   	ret    
    4a78:	c7 04 24 08 19 03 00 	movl   $0x31908,(%esp)
    4a7f:	e8 9c 0e 01 00       	call   15920 <fibril_mutex_unlock>
    4a84:	a1 18 1e 03 00       	mov    0x31e18,%eax
    4a89:	89 7c 24 08          	mov    %edi,0x8(%esp)
    4a8d:	8b 00                	mov    (%eax),%eax
    4a8f:	c7 04 24 d0 e6 02 00 	movl   $0x2e6d0,(%esp)
    4a96:	89 44 24 04          	mov    %eax,0x4(%esp)
    4a9a:	e8 f1 4c 01 00       	call   19790 <printf>
    4a9f:	c7 44 24 04 ff ff ff 	movl   $0xffffffff,0x4(%esp)
    4aa6:	ff 
    4aa7:	89 34 24             	mov    %esi,(%esp)
    4aaa:	e8 e1 ce 01 00       	call   21990 <async_answer_0>
    4aaf:	83 c4 5c             	add    $0x5c,%esp
    4ab2:	5b                   	pop    %ebx
    4ab3:	5e                   	pop    %esi
    4ab4:	5f                   	pop    %edi
    4ab5:	5d                   	pop    %ebp
    4ab6:	c3                   	ret    
    4ab7:	90                   	nop
    4ab8:	8b 43 24             	mov    0x24(%ebx),%eax
    4abb:	85 c0                	test   %eax,%eax
    4abd:	0f 84 cd 01 00 00    	je     4c90 <driver_connection_gen.isra.8+0x2a0>
    4ac3:	8b 00                	mov    (%eax),%eax
    4ac5:	85 c0                	test   %eax,%eax
    4ac7:	0f 84 c3 01 00 00    	je     4c90 <driver_connection_gen.isra.8+0x2a0>
    4acd:	89 1c 24             	mov    %ebx,(%esp)
    4ad0:	ff d0                	call   *%eax
    4ad2:	89 34 24             	mov    %esi,(%esp)
    4ad5:	89 44 24 04          	mov    %eax,0x4(%esp)
    4ad9:	89 45 a8             	mov    %eax,-0x58(%ebp)
    4adc:	e8 af ce 01 00       	call   21990 <async_answer_0>
    4ae1:	8b 55 a8             	mov    -0x58(%ebp),%edx
    4ae4:	85 d2                	test   %edx,%edx
    4ae6:	75 c7                	jne    4aaf <driver_connection_gen.isra.8+0xbf>
    4ae8:	8d 55 c4             	lea    -0x3c(%ebp),%edx
    4aeb:	89 7d ac             	mov    %edi,-0x54(%ebp)
    4aee:	89 55 b4             	mov    %edx,-0x4c(%ebp)
    4af1:	8d b4 26 00 00 00 00 	lea    0x0(%esi,%eiz,1),%esi
    4af8:	c7 44 24 04 00 00 00 	movl   $0x0,0x4(%esp)
    4aff:	00 
    4b00:	89 14 24             	mov    %edx,(%esp)
    4b03:	e8 58 b8 01 00       	call   20360 <async_get_call_timeout>
    4b08:	8b 75 c4             	mov    -0x3c(%ebp),%esi
    4b0b:	89 c7                	mov    %eax,%edi
    4b0d:	85 f6                	test   %esi,%esi
    4b0f:	0f 84 eb 00 00 00    	je     4c00 <driver_connection_gen.isra.8+0x210>
    4b15:	81 ee 00 04 00 00    	sub    $0x400,%esi
    4b1b:	89 34 24             	mov    %esi,(%esp)
    4b1e:	e8 8d 10 00 00       	call   5bb0 <is_valid_iface_idx>
    4b23:	84 c0                	test   %al,%al
    4b25:	75 31                	jne    4b58 <driver_connection_gen.isra.8+0x168>
    4b27:	8b 43 24             	mov    0x24(%ebx),%eax
    4b2a:	85 c0                	test   %eax,%eax
    4b2c:	0f 84 96 00 00 00    	je     4bc8 <driver_connection_gen.isra.8+0x1d8>
    4b32:	8b 40 34             	mov    0x34(%eax),%eax
    4b35:	85 c0                	test   %eax,%eax
    4b37:	0f 84 8b 00 00 00    	je     4bc8 <driver_connection_gen.isra.8+0x1d8>
    4b3d:	8b 55 b4             	mov    -0x4c(%ebp),%edx
    4b40:	89 7c 24 04          	mov    %edi,0x4(%esp)
    4b44:	89 54 24 08          	mov    %edx,0x8(%esp)
    4b48:	89 1c 24             	mov    %ebx,(%esp)
    4b4b:	ff d0                	call   *%eax
    4b4d:	8b 55 b4             	mov    -0x4c(%ebp),%edx
    4b50:	eb a6                	jmp    4af8 <driver_connection_gen.isra.8+0x108>
    4b52:	8d b6 00 00 00 00    	lea    0x0(%esi),%esi
    4b58:	89 34 24             	mov    %esi,(%esp)
    4b5b:	e8 50 10 00 00       	call   5bb0 <is_valid_iface_idx>
    4b60:	84 c0                	test   %al,%al
    4b62:	0f 84 46 01 00 00    	je     4cae <driver_connection_gen.isra.8+0x2be>
    4b68:	8b 43 24             	mov    0x24(%ebx),%eax
    4b6b:	85 c0                	test   %eax,%eax
    4b6d:	0f 84 bd 00 00 00    	je     4c30 <driver_connection_gen.isra.8+0x240>
    4b73:	8b 44 b0 08          	mov    0x8(%eax,%esi,4),%eax
    4b77:	89 45 b0             	mov    %eax,-0x50(%ebp)
    4b7a:	85 c0                	test   %eax,%eax
    4b7c:	0f 84 ae 00 00 00    	je     4c30 <driver_connection_gen.isra.8+0x240>
    4b82:	89 34 24             	mov    %esi,(%esp)
    4b85:	e8 c6 0f 00 00       	call   5b50 <get_remote_iface>
    4b8a:	85 c0                	test   %eax,%eax
    4b8c:	0f 84 54 01 00 00    	je     4ce6 <driver_connection_gen.isra.8+0x2f6>
    4b92:	8b 55 c8             	mov    -0x38(%ebp),%edx
    4b95:	89 04 24             	mov    %eax,(%esp)
    4b98:	89 54 24 04          	mov    %edx,0x4(%esp)
    4b9c:	e8 ef 0f 00 00       	call   5b90 <get_remote_method>
    4ba1:	85 c0                	test   %eax,%eax
    4ba3:	0f 84 b7 00 00 00    	je     4c60 <driver_connection_gen.isra.8+0x270>
    4ba9:	8b 55 b4             	mov    -0x4c(%ebp),%edx
    4bac:	89 7c 24 08          	mov    %edi,0x8(%esp)
    4bb0:	89 54 24 0c          	mov    %edx,0xc(%esp)
    4bb4:	8b 55 b0             	mov    -0x50(%ebp),%edx
    4bb7:	89 54 24 04          	mov    %edx,0x4(%esp)
    4bbb:	89 1c 24             	mov    %ebx,(%esp)
    4bbe:	ff d0                	call   *%eax
    4bc0:	8b 55 b4             	mov    -0x4c(%ebp),%edx
    4bc3:	e9 30 ff ff ff       	jmp    4af8 <driver_connection_gen.isra.8+0x108>
    4bc8:	a1 18 1e 03 00       	mov    0x31e18,%eax
    4bcd:	89 74 24 08          	mov    %esi,0x8(%esp)
    4bd1:	8b 00                	mov    (%eax),%eax
    4bd3:	c7 04 24 fc e5 02 00 	movl   $0x2e5fc,(%esp)
    4bda:	89 44 24 04          	mov    %eax,0x4(%esp)
    4bde:	e8 ad 4b 01 00       	call   19790 <printf>
    4be3:	c7 44 24 04 f5 ff ff 	movl   $0xfffffff5,0x4(%esp)
    4bea:	ff 
    4beb:	89 3c 24             	mov    %edi,(%esp)
    4bee:	e8 9d cd 01 00       	call   21990 <async_answer_0>
    4bf3:	8b 55 b4             	mov    -0x4c(%ebp),%edx
    4bf6:	e9 fd fe ff ff       	jmp    4af8 <driver_connection_gen.isra.8+0x108>
    4bfb:	90                   	nop
    4bfc:	8d 74 26 00          	lea    0x0(%esi,%eiz,1),%esi
    4c00:	8b 43 24             	mov    0x24(%ebx),%eax
    4c03:	85 c0                	test   %eax,%eax
    4c05:	74 0c                	je     4c13 <driver_connection_gen.isra.8+0x223>
    4c07:	8b 40 04             	mov    0x4(%eax),%eax
    4c0a:	85 c0                	test   %eax,%eax
    4c0c:	74 05                	je     4c13 <driver_connection_gen.isra.8+0x223>
    4c0e:	89 1c 24             	mov    %ebx,(%esp)
    4c11:	ff d0                	call   *%eax
    4c13:	89 3c 24             	mov    %edi,(%esp)
    4c16:	c7 44 24 04 00 00 00 	movl   $0x0,0x4(%esp)
    4c1d:	00 
    4c1e:	e8 6d cd 01 00       	call   21990 <async_answer_0>
    4c23:	83 c4 5c             	add    $0x5c,%esp
    4c26:	5b                   	pop    %ebx
    4c27:	5e                   	pop    %esi
    4c28:	5f                   	pop    %edi
    4c29:	5d                   	pop    %ebp
    4c2a:	c3                   	ret    
    4c2b:	90                   	nop
    4c2c:	8d 74 26 00          	lea    0x0(%esi,%eiz,1),%esi
    4c30:	a1 18 1e 03 00       	mov    0x31e18,%eax
    4c35:	8b 00                	mov    (%eax),%eax
    4c37:	c7 04 24 38 e6 02 00 	movl   $0x2e638,(%esp)
    4c3e:	89 44 24 04          	mov    %eax,0x4(%esp)
    4c42:	e8 49 4b 01 00       	call   19790 <printf>
    4c47:	8b 55 ac             	mov    -0x54(%ebp),%edx
    4c4a:	89 74 24 08          	mov    %esi,0x8(%esp)
    4c4e:	89 54 24 04          	mov    %edx,0x4(%esp)
    4c52:	c7 04 24 5c e6 02 00 	movl   $0x2e65c,(%esp)
    4c59:	eb 83                	jmp    4bde <driver_connection_gen.isra.8+0x1ee>
    4c5b:	90                   	nop
    4c5c:	8d 74 26 00          	lea    0x0(%esi,%eiz,1),%esi
    4c60:	a1 18 1e 03 00       	mov    0x31e18,%eax
    4c65:	8b 00                	mov    (%eax),%eax
    4c67:	c7 04 24 94 e6 02 00 	movl   $0x2e694,(%esp)
    4c6e:	89 44 24 04          	mov    %eax,0x4(%esp)
    4c72:	e8 19 4b 01 00       	call   19790 <printf>
    4c77:	c7 44 24 04 f5 ff ff 	movl   $0xfffffff5,0x4(%esp)
    4c7e:	ff 
    4c7f:	89 3c 24             	mov    %edi,(%esp)
    4c82:	e8 09 cd 01 00       	call   21990 <async_answer_0>
    4c87:	8b 55 b4             	mov    -0x4c(%ebp),%edx
    4c8a:	e9 69 fe ff ff       	jmp    4af8 <driver_connection_gen.isra.8+0x108>
    4c8f:	90                   	nop
    4c90:	c7 44 24 04 00 00 00 	movl   $0x0,0x4(%esp)
    4c97:	00 
    4c98:	89 34 24             	mov    %esi,(%esp)
    4c9b:	e8 f0 cc 01 00       	call   21990 <async_answer_0>
    4ca0:	8d 55 c4             	lea    -0x3c(%ebp),%edx
    4ca3:	89 55 b4             	mov    %edx,-0x4c(%ebp)
    4ca6:	89 7d ac             	mov    %edi,-0x54(%ebp)
    4ca9:	e9 4a fe ff ff       	jmp    4af8 <driver_connection_gen.isra.8+0x108>
    4cae:	c7 44 24 08 1e 03 00 	movl   $0x31e,0x8(%esp)
    4cb5:	00 
    4cb6:	c7 44 24 04 89 e4 02 	movl   $0x2e489,0x4(%esp)
    4cbd:	00 
    4cbe:	c7 04 24 9a e4 02 00 	movl   $0x2e49a,(%esp)
    4cc5:	e8 e6 49 02 00       	call   296b0 <assert_abort>
    4cca:	c7 44 24 08 75 00 00 	movl   $0x75,0x8(%esp)
    4cd1:	00 
    4cd2:	c7 44 24 04 89 e4 02 	movl   $0x2e489,0x4(%esp)
    4cd9:	00 
    4cda:	c7 04 24 d0 e5 02 00 	movl   $0x2e5d0,(%esp)
    4ce1:	e8 ca 49 02 00       	call   296b0 <assert_abort>
    4ce6:	c7 44 24 08 a6 01 00 	movl   $0x1a6,0x8(%esp)
    4ced:	00 
    4cee:	c7 44 24 04 89 e4 02 	movl   $0x2e489,0x4(%esp)
    4cf5:	00 
    4cf6:	c7 04 24 b2 e4 02 00 	movl   $0x2e4b2,(%esp)
    4cfd:	e8 ae 49 02 00       	call   296b0 <assert_abort>
    4d02:	8d b4 26 00 00 00 00 	lea    0x0(%esi,%eiz,1),%esi
    4d09:	8d bc 27 00 00 00 00 	lea    0x0(%edi,%eiz,1),%edi

00004d10 <driver_connection>:
    4d10:	55                   	push   %ebp
    4d11:	89 e5                	mov    %esp,%ebp
    4d13:	57                   	push   %edi
    4d14:	56                   	push   %esi
    4d15:	53                   	push   %ebx
    4d16:	83 ec 6c             	sub    $0x6c,%esp
    4d19:	8b 45 08             	mov    0x8(%ebp),%eax
    4d1c:	85 c0                	test   %eax,%eax
    4d1e:	75 58                	jne    4d78 <driver_connection+0x68>
    4d20:	c7 44 24 04 00 00 00 	movl   $0x0,0x4(%esp)
    4d27:	00 
    4d28:	89 04 24             	mov    %eax,(%esp)
    4d2b:	e8 60 cc 01 00       	call   21990 <async_answer_0>
    4d30:	8d 45 c4             	lea    -0x3c(%ebp),%eax
    4d33:	c7 44 24 04 00 00 00 	movl   $0x0,0x4(%esp)
    4d3a:	00 
    4d3b:	89 04 24             	mov    %eax,(%esp)
    4d3e:	e8 1d b6 01 00       	call   20360 <async_get_call_timeout>
    4d43:	89 c6                	mov    %eax,%esi
    4d45:	8b 45 c4             	mov    -0x3c(%ebp),%eax
    4d48:	85 c0                	test   %eax,%eax
    4d4a:	74 3e                	je     4d8a <driver_connection+0x7a>
    4d4c:	2d 00 04 00 00       	sub    $0x400,%eax
    4d51:	83 f8 04             	cmp    $0x4,%eax
    4d54:	76 12                	jbe    4d68 <driver_connection+0x58>
    4d56:	c7 44 24 04 f5 ff ff 	movl   $0xfffffff5,0x4(%esp)
    4d5d:	ff 
    4d5e:	89 34 24             	mov    %esi,(%esp)
    4d61:	e8 2a cc 01 00       	call   21990 <async_answer_0>
    4d66:	eb c8                	jmp    4d30 <driver_connection+0x20>
    4d68:	8b 7d c8             	mov    -0x38(%ebp),%edi
    4d6b:	ff 24 85 80 e7 02 00 	jmp    *0x2e780(,%eax,4)
    4d72:	8d b6 00 00 00 00    	lea    0x0(%esi),%esi
    4d78:	8b 4d 0c             	mov    0xc(%ebp),%ecx
    4d7b:	8b 51 04             	mov    0x4(%ecx),%edx
    4d7e:	83 fa 02             	cmp    $0x2,%edx
    4d81:	75 15                	jne    4d98 <driver_connection+0x88>
    4d83:	89 ca                	mov    %ecx,%edx
    4d85:	e8 66 fc ff ff       	call   49f0 <driver_connection_gen.isra.8>
    4d8a:	83 c4 6c             	add    $0x6c,%esp
    4d8d:	5b                   	pop    %ebx
    4d8e:	5e                   	pop    %esi
    4d8f:	5f                   	pop    %edi
    4d90:	5d                   	pop    %ebp
    4d91:	c3                   	ret    
    4d92:	8d b6 00 00 00 00    	lea    0x0(%esi),%esi
    4d98:	83 fa 03             	cmp    $0x3,%edx
    4d9b:	0f 84 2f 03 00 00    	je     50d0 <driver_connection+0x3c0>
    4da1:	4a                   	dec    %edx
    4da2:	0f 84 78 ff ff ff    	je     4d20 <driver_connection+0x10>
    4da8:	c7 44 24 04 ff ff ff 	movl   $0xffffffff,0x4(%esp)
    4daf:	ff 
    4db0:	89 04 24             	mov    %eax,(%esp)
    4db3:	e8 d8 cb 01 00       	call   21990 <async_answer_0>
    4db8:	83 c4 6c             	add    $0x6c,%esp
    4dbb:	5b                   	pop    %ebx
    4dbc:	5e                   	pop    %esi
    4dbd:	5f                   	pop    %edi
    4dbe:	5d                   	pop    %ebp
    4dbf:	c3                   	ret    
    4dc0:	c7 04 24 08 19 03 00 	movl   $0x31908,(%esp)
    4dc7:	e8 34 0a 01 00       	call   15800 <fibril_mutex_lock>
    4dcc:	c7 04 24 08 19 03 00 	movl   $0x31908,(%esp)
    4dd3:	e8 58 0c 01 00       	call   15a30 <fibril_mutex_is_locked>
    4dd8:	84 c0                	test   %al,%al
    4dda:	0f 84 a0 04 00 00    	je     5280 <driver_connection+0x570>
    4de0:	a1 1c 19 03 00       	mov    0x3191c,%eax
    4de5:	3d 18 19 03 00       	cmp    $0x31918,%eax
    4dea:	75 1a                	jne    4e06 <driver_connection+0xf6>
    4dec:	e9 87 03 00 00       	jmp    5178 <driver_connection+0x468>
    4df1:	8d b4 26 00 00 00 00 	lea    0x0(%esi,%eiz,1),%esi
    4df8:	8b 40 04             	mov    0x4(%eax),%eax
    4dfb:	3d 18 19 03 00       	cmp    $0x31918,%eax
    4e00:	0f 84 72 03 00 00    	je     5178 <driver_connection+0x468>
    4e06:	8d 58 d4             	lea    -0x2c(%eax),%ebx
    4e09:	3b 7b 04             	cmp    0x4(%ebx),%edi
    4e0c:	75 ea                	jne    4df8 <driver_connection+0xe8>
    4e0e:	8b 43 0c             	mov    0xc(%ebx),%eax
    4e11:	f0 ff 40 04          	lock incl 0x4(%eax)
    4e15:	8d 7b 08             	lea    0x8(%ebx),%edi
    4e18:	f0 ff 43 08          	lock incl 0x8(%ebx)
    4e1c:	c7 04 24 08 19 03 00 	movl   $0x31908,(%esp)
    4e23:	e8 f8 0a 01 00       	call   15920 <fibril_mutex_unlock>
    4e28:	a1 18 1e 03 00       	mov    0x31e18,%eax
    4e2d:	8b 40 04             	mov    0x4(%eax),%eax
    4e30:	8b 40 0c             	mov    0xc(%eax),%eax
    4e33:	85 c0                	test   %eax,%eax
    4e35:	0f 84 e5 02 00 00    	je     5120 <driver_connection+0x410>
    4e3b:	89 1c 24             	mov    %ebx,(%esp)
    4e3e:	ff d0                	call   *%eax
    4e40:	89 45 b0             	mov    %eax,-0x50(%ebp)
    4e43:	8b 4b 0c             	mov    0xc(%ebx),%ecx
    4e46:	83 c8 ff             	or     $0xffffffff,%eax
    4e49:	89 4d b4             	mov    %ecx,-0x4c(%ebp)
    4e4c:	f0 0f c1 07          	lock xadd %eax,(%edi)
    4e50:	48                   	dec    %eax
    4e51:	0f 84 81 03 00 00    	je     51d8 <driver_connection+0x4c8>
    4e57:	83 c8 ff             	or     $0xffffffff,%eax
    4e5a:	8b 55 b4             	mov    -0x4c(%ebp),%edx
    4e5d:	f0 0f c1 42 04       	lock xadd %eax,0x4(%edx)
    4e62:	48                   	dec    %eax
    4e63:	0f 84 37 03 00 00    	je     51a0 <driver_connection+0x490>
    4e69:	8b 45 b0             	mov    -0x50(%ebp),%eax
    4e6c:	e9 88 00 00 00       	jmp    4ef9 <driver_connection+0x1e9>
    4e71:	8d b4 26 00 00 00 00 	lea    0x0(%esi,%eiz,1),%esi
    4e78:	c7 04 24 20 19 03 00 	movl   $0x31920,(%esp)
    4e7f:	e8 7c 09 01 00       	call   15800 <fibril_mutex_lock>
    4e84:	c7 04 24 20 19 03 00 	movl   $0x31920,(%esp)
    4e8b:	e8 a0 0b 01 00       	call   15a30 <fibril_mutex_is_locked>
    4e90:	84 c0                	test   %al,%al
    4e92:	0f 84 04 04 00 00    	je     529c <driver_connection+0x58c>
    4e98:	a1 34 19 03 00       	mov    0x31934,%eax
    4e9d:	3d 30 19 03 00       	cmp    $0x31930,%eax
    4ea2:	75 1a                	jne    4ebe <driver_connection+0x1ae>
    4ea4:	e9 a7 02 00 00       	jmp    5150 <driver_connection+0x440>
    4ea9:	8d b4 26 00 00 00 00 	lea    0x0(%esi,%eiz,1),%esi
    4eb0:	8b 40 04             	mov    0x4(%eax),%eax
    4eb3:	3d 30 19 03 00       	cmp    $0x31930,%eax
    4eb8:	0f 84 92 02 00 00    	je     5150 <driver_connection+0x440>
    4ebe:	8d 58 ec             	lea    -0x14(%eax),%ebx
    4ec1:	3b 78 ec             	cmp    -0x14(%eax),%edi
    4ec4:	75 ea                	jne    4eb0 <driver_connection+0x1a0>
    4ec6:	8d 7b 04             	lea    0x4(%ebx),%edi
    4ec9:	f0 ff 43 04          	lock incl 0x4(%ebx)
    4ecd:	c7 04 24 20 19 03 00 	movl   $0x31920,(%esp)
    4ed4:	e8 47 0a 01 00       	call   15920 <fibril_mutex_unlock>
    4ed9:	a1 18 1e 03 00       	mov    0x31e18,%eax
    4ede:	8b 40 04             	mov    0x4(%eax),%eax
    4ee1:	8b 40 08             	mov    0x8(%eax),%eax
    4ee4:	85 c0                	test   %eax,%eax
    4ee6:	0f 84 58 01 00 00    	je     5044 <driver_connection+0x334>
    4eec:	89 1c 24             	mov    %ebx,(%esp)
    4eef:	ff d0                	call   *%eax
    4ef1:	85 c0                	test   %eax,%eax
    4ef3:	0f 84 e7 01 00 00    	je     50e0 <driver_connection+0x3d0>
    4ef9:	89 44 24 04          	mov    %eax,0x4(%esp)
    4efd:	89 34 24             	mov    %esi,(%esp)
    4f00:	e8 8b ca 01 00       	call   21990 <async_answer_0>
    4f05:	e9 26 fe ff ff       	jmp    4d30 <driver_connection+0x20>
    4f0a:	8d b6 00 00 00 00    	lea    0x0(%esi),%esi
    4f10:	c7 44 24 04 1c 00 00 	movl   $0x1c,0x4(%esp)
    4f17:	00 
    4f18:	c7 04 24 01 00 00 00 	movl   $0x1,(%esp)
    4f1f:	e8 5c 9b 01 00       	call   1ea80 <calloc>
    4f24:	89 c3                	mov    %eax,%ebx
    4f26:	f0 ff 40 04          	lock incl 0x4(%eax)
    4f2a:	8d 55 c0             	lea    -0x40(%ebp),%edx
    4f2d:	89 38                	mov    %edi,(%eax)
    4f2f:	89 14 24             	mov    %edx,(%esp)
    4f32:	c7 44 24 14 00 00 00 	movl   $0x0,0x14(%esp)
    4f39:	00 
    4f3a:	c7 44 24 10 00 00 00 	movl   $0x0,0x10(%esp)
    4f41:	00 
    4f42:	c7 44 24 0c 00 00 00 	movl   $0x0,0xc(%esp)
    4f49:	00 
    4f4a:	c7 44 24 08 00 00 00 	movl   $0x0,0x8(%esp)
    4f51:	00 
    4f52:	c7 44 24 04 01 00 00 	movl   $0x1,0x4(%esp)
    4f59:	00 
    4f5a:	c7 45 c0 00 00 00 00 	movl   $0x0,-0x40(%ebp)
    4f61:	e8 4a e5 01 00       	call   234b0 <async_data_write_accept>
    4f66:	8b 45 c0             	mov    -0x40(%ebp),%eax
    4f69:	89 43 0c             	mov    %eax,0xc(%ebx)
    4f6c:	a1 18 1e 03 00       	mov    0x31e18,%eax
    4f71:	8b 40 04             	mov    0x4(%eax),%eax
    4f74:	89 1c 24             	mov    %ebx,(%esp)
    4f77:	ff 10                	call   *(%eax)
    4f79:	89 c7                	mov    %eax,%edi
    4f7b:	85 c0                	test   %eax,%eax
    4f7d:	0f 85 ad 01 00 00    	jne    5130 <driver_connection+0x420>
    4f83:	c7 04 24 20 19 03 00 	movl   $0x31920,(%esp)
    4f8a:	e8 71 08 01 00       	call   15800 <fibril_mutex_lock>
    4f8f:	8b 15 30 19 03 00    	mov    0x31930,%edx
    4f95:	8d 43 14             	lea    0x14(%ebx),%eax
    4f98:	c7 43 18 30 19 03 00 	movl   $0x31930,0x18(%ebx)
    4f9f:	89 53 14             	mov    %edx,0x14(%ebx)
    4fa2:	89 42 04             	mov    %eax,0x4(%edx)
    4fa5:	c7 04 24 20 19 03 00 	movl   $0x31920,(%esp)
    4fac:	a3 30 19 03 00       	mov    %eax,0x31930
    4fb1:	e8 6a 09 01 00       	call   15920 <fibril_mutex_unlock>
    4fb6:	c7 44 24 04 00 00 00 	movl   $0x0,0x4(%esp)
    4fbd:	00 
    4fbe:	89 34 24             	mov    %esi,(%esp)
    4fc1:	e8 ca c9 01 00       	call   21990 <async_answer_0>
    4fc6:	e9 65 fd ff ff       	jmp    4d30 <driver_connection+0x20>
    4fcb:	90                   	nop
    4fcc:	8d 74 26 00          	lea    0x0(%esi,%eiz,1),%esi
    4fd0:	c7 04 24 20 19 03 00 	movl   $0x31920,(%esp)
    4fd7:	e8 24 08 01 00       	call   15800 <fibril_mutex_lock>
    4fdc:	c7 04 24 20 19 03 00 	movl   $0x31920,(%esp)
    4fe3:	e8 48 0a 01 00       	call   15a30 <fibril_mutex_is_locked>
    4fe8:	84 c0                	test   %al,%al
    4fea:	0f 84 ac 02 00 00    	je     529c <driver_connection+0x58c>
    4ff0:	a1 34 19 03 00       	mov    0x31934,%eax
    4ff5:	3d 30 19 03 00       	cmp    $0x31930,%eax
    4ffa:	75 1a                	jne    5016 <driver_connection+0x306>
    4ffc:	e9 4f 01 00 00       	jmp    5150 <driver_connection+0x440>
    5001:	8d b4 26 00 00 00 00 	lea    0x0(%esi,%eiz,1),%esi
    5008:	8b 40 04             	mov    0x4(%eax),%eax
    500b:	3d 30 19 03 00       	cmp    $0x31930,%eax
    5010:	0f 84 3a 01 00 00    	je     5150 <driver_connection+0x440>
    5016:	8d 58 ec             	lea    -0x14(%eax),%ebx
    5019:	3b 78 ec             	cmp    -0x14(%eax),%edi
    501c:	75 ea                	jne    5008 <driver_connection+0x2f8>
    501e:	8d 7b 04             	lea    0x4(%ebx),%edi
    5021:	f0 ff 43 04          	lock incl 0x4(%ebx)
    5025:	c7 04 24 20 19 03 00 	movl   $0x31920,(%esp)
    502c:	e8 ef 08 01 00       	call   15920 <fibril_mutex_unlock>
    5031:	a1 18 1e 03 00       	mov    0x31e18,%eax
    5036:	8b 40 04             	mov    0x4(%eax),%eax
    5039:	8b 40 04             	mov    0x4(%eax),%eax
    503c:	85 c0                	test   %eax,%eax
    503e:	0f 85 a8 fe ff ff    	jne    4eec <driver_connection+0x1dc>
    5044:	b8 f5 ff ff ff       	mov    $0xfffffff5,%eax
    5049:	e9 ab fe ff ff       	jmp    4ef9 <driver_connection+0x1e9>
    504e:	66 90                	xchg   %ax,%ax
    5050:	c7 04 24 08 19 03 00 	movl   $0x31908,(%esp)
    5057:	e8 a4 07 01 00       	call   15800 <fibril_mutex_lock>
    505c:	c7 04 24 08 19 03 00 	movl   $0x31908,(%esp)
    5063:	e8 c8 09 01 00       	call   15a30 <fibril_mutex_is_locked>
    5068:	84 c0                	test   %al,%al
    506a:	0f 84 10 02 00 00    	je     5280 <driver_connection+0x570>
    5070:	a1 1c 19 03 00       	mov    0x3191c,%eax
    5075:	3d 18 19 03 00       	cmp    $0x31918,%eax
    507a:	75 1a                	jne    5096 <driver_connection+0x386>
    507c:	e9 f7 00 00 00       	jmp    5178 <driver_connection+0x468>
    5081:	8d b4 26 00 00 00 00 	lea    0x0(%esi,%eiz,1),%esi
    5088:	8b 40 04             	mov    0x4(%eax),%eax
    508b:	3d 18 19 03 00       	cmp    $0x31918,%eax
    5090:	0f 84 e2 00 00 00    	je     5178 <driver_connection+0x468>
    5096:	8d 58 d4             	lea    -0x2c(%eax),%ebx
    5099:	3b 7b 04             	cmp    0x4(%ebx),%edi
    509c:	75 ea                	jne    5088 <driver_connection+0x378>
    509e:	8b 43 0c             	mov    0xc(%ebx),%eax
    50a1:	f0 ff 40 04          	lock incl 0x4(%eax)
    50a5:	f0 ff 43 08          	lock incl 0x8(%ebx)
    50a9:	c7 04 24 08 19 03 00 	movl   $0x31908,(%esp)
    50b0:	e8 6b 08 01 00       	call   15920 <fibril_mutex_unlock>
    50b5:	a1 18 1e 03 00       	mov    0x31e18,%eax
    50ba:	8b 40 04             	mov    0x4(%eax),%eax
    50bd:	8b 40 10             	mov    0x10(%eax),%eax
    50c0:	85 c0                	test   %eax,%eax
    50c2:	74 80                	je     5044 <driver_connection+0x334>
    50c4:	89 1c 24             	mov    %ebx,(%esp)
    50c7:	ff d0                	call   *%eax
    50c9:	e9 2b fe ff ff       	jmp    4ef9 <driver_connection+0x1e9>
    50ce:	66 90                	xchg   %ax,%ax
    50d0:	8b 55 0c             	mov    0xc(%ebp),%edx
    50d3:	e8 18 f9 ff ff       	call   49f0 <driver_connection_gen.isra.8>
    50d8:	83 c4 6c             	add    $0x6c,%esp
    50db:	5b                   	pop    %ebx
    50dc:	5e                   	pop    %esi
    50dd:	5f                   	pop    %edi
    50de:	5d                   	pop    %ebp
    50df:	c3                   	ret    
    50e0:	83 ca ff             	or     $0xffffffff,%edx
    50e3:	f0 0f c1 17          	lock xadd %edx,(%edi)
    50e7:	4a                   	dec    %edx
    50e8:	0f 85 0b fe ff ff    	jne    4ef9 <driver_connection+0x1e9>
    50ee:	8b 43 08             	mov    0x8(%ebx),%eax
    50f1:	85 c0                	test   %eax,%eax
    50f3:	74 08                	je     50fd <driver_connection+0x3ed>
    50f5:	89 04 24             	mov    %eax,(%esp)
    50f8:	e8 93 d1 01 00       	call   22290 <async_hangup>
    50fd:	8b 43 10             	mov    0x10(%ebx),%eax
    5100:	85 c0                	test   %eax,%eax
    5102:	74 08                	je     510c <driver_connection+0x3fc>
    5104:	89 04 24             	mov    %eax,(%esp)
    5107:	e8 e4 9a 01 00       	call   1ebf0 <free>
    510c:	89 1c 24             	mov    %ebx,(%esp)
    510f:	e8 dc 9a 01 00       	call   1ebf0 <free>
    5114:	31 c0                	xor    %eax,%eax
    5116:	e9 de fd ff ff       	jmp    4ef9 <driver_connection+0x1e9>
    511b:	90                   	nop
    511c:	8d 74 26 00          	lea    0x0(%esi,%eiz,1),%esi
    5120:	c7 45 b0 f5 ff ff ff 	movl   $0xfffffff5,-0x50(%ebp)
    5127:	e9 17 fd ff ff       	jmp    4e43 <driver_connection+0x133>
    512c:	8d 74 26 00          	lea    0x0(%esi,%eiz,1),%esi
    5130:	83 c8 ff             	or     $0xffffffff,%eax
    5133:	f0 0f c1 43 04       	lock xadd %eax,0x4(%ebx)
    5138:	48                   	dec    %eax
    5139:	0f 84 16 01 00 00    	je     5255 <driver_connection+0x545>
    513f:	89 7c 24 04          	mov    %edi,0x4(%esp)
    5143:	89 34 24             	mov    %esi,(%esp)
    5146:	e8 45 c8 01 00       	call   21990 <async_answer_0>
    514b:	e9 e0 fb ff ff       	jmp    4d30 <driver_connection+0x20>
    5150:	c7 04 24 20 19 03 00 	movl   $0x31920,(%esp)
    5157:	e8 c4 07 01 00       	call   15920 <fibril_mutex_unlock>
    515c:	c7 44 24 04 ff ff ff 	movl   $0xffffffff,0x4(%esp)
    5163:	ff 
    5164:	89 34 24             	mov    %esi,(%esp)
    5167:	e8 24 c8 01 00       	call   21990 <async_answer_0>
    516c:	e9 bf fb ff ff       	jmp    4d30 <driver_connection+0x20>
    5171:	8d b4 26 00 00 00 00 	lea    0x0(%esi,%eiz,1),%esi
    5178:	c7 04 24 08 19 03 00 	movl   $0x31908,(%esp)
    517f:	e8 9c 07 01 00       	call   15920 <fibril_mutex_unlock>
    5184:	c7 44 24 04 ff ff ff 	movl   $0xffffffff,0x4(%esp)
    518b:	ff 
    518c:	89 34 24             	mov    %esi,(%esp)
    518f:	e8 fc c7 01 00       	call   21990 <async_answer_0>
    5194:	e9 97 fb ff ff       	jmp    4d30 <driver_connection+0x20>
    5199:	8d b4 26 00 00 00 00 	lea    0x0(%esi,%eiz,1),%esi
    51a0:	8b 42 08             	mov    0x8(%edx),%eax
    51a3:	85 c0                	test   %eax,%eax
    51a5:	74 08                	je     51af <driver_connection+0x49f>
    51a7:	89 04 24             	mov    %eax,(%esp)
    51aa:	e8 e1 d0 01 00       	call   22290 <async_hangup>
    51af:	8b 4d b4             	mov    -0x4c(%ebp),%ecx
    51b2:	8b 41 10             	mov    0x10(%ecx),%eax
    51b5:	85 c0                	test   %eax,%eax
    51b7:	74 08                	je     51c1 <driver_connection+0x4b1>
    51b9:	89 04 24             	mov    %eax,(%esp)
    51bc:	e8 2f 9a 01 00       	call   1ebf0 <free>
    51c1:	8b 55 b4             	mov    -0x4c(%ebp),%edx
    51c4:	89 14 24             	mov    %edx,(%esp)
    51c7:	e8 24 9a 01 00       	call   1ebf0 <free>
    51cc:	e9 98 fc ff ff       	jmp    4e69 <driver_connection+0x159>
    51d1:	8d b4 26 00 00 00 00 	lea    0x0(%esi,%eiz,1),%esi
    51d8:	8d 7b 18             	lea    0x18(%ebx),%edi
    51db:	8b 43 1c             	mov    0x1c(%ebx),%eax
    51de:	39 f8                	cmp    %edi,%eax
    51e0:	74 48                	je     522a <driver_connection+0x51a>
    51e2:	89 5d ac             	mov    %ebx,-0x54(%ebp)
    51e5:	89 c3                	mov    %eax,%ebx
    51e7:	90                   	nop
    51e8:	8b 0b                	mov    (%ebx),%ecx
    51ea:	85 c9                	test   %ecx,%ecx
    51ec:	74 0e                	je     51fc <driver_connection+0x4ec>
    51ee:	8b 53 04             	mov    0x4(%ebx),%edx
    51f1:	85 d2                	test   %edx,%edx
    51f3:	74 07                	je     51fc <driver_connection+0x4ec>
    51f5:	89 0a                	mov    %ecx,(%edx)
    51f7:	8b 0b                	mov    (%ebx),%ecx
    51f9:	89 51 04             	mov    %edx,0x4(%ecx)
    51fc:	8b 53 08             	mov    0x8(%ebx),%edx
    51ff:	c7 03 00 00 00 00    	movl   $0x0,(%ebx)
    5205:	c7 43 04 00 00 00 00 	movl   $0x0,0x4(%ebx)
    520c:	85 d2                	test   %edx,%edx
    520e:	74 08                	je     5218 <driver_connection+0x508>
    5210:	89 14 24             	mov    %edx,(%esp)
    5213:	e8 d8 99 01 00       	call   1ebf0 <free>
    5218:	89 1c 24             	mov    %ebx,(%esp)
    521b:	e8 d0 99 01 00       	call   1ebf0 <free>
    5220:	8b 5f 04             	mov    0x4(%edi),%ebx
    5223:	39 fb                	cmp    %edi,%ebx
    5225:	75 c1                	jne    51e8 <driver_connection+0x4d8>
    5227:	8b 5d ac             	mov    -0x54(%ebp),%ebx
    522a:	8b 43 20             	mov    0x20(%ebx),%eax
    522d:	85 c0                	test   %eax,%eax
    522f:	74 08                	je     5239 <driver_connection+0x529>
    5231:	89 04 24             	mov    %eax,(%esp)
    5234:	e8 b7 99 01 00       	call   1ebf0 <free>
    5239:	8b 43 14             	mov    0x14(%ebx),%eax
    523c:	85 c0                	test   %eax,%eax
    523e:	74 08                	je     5248 <driver_connection+0x538>
    5240:	89 04 24             	mov    %eax,(%esp)
    5243:	e8 a8 99 01 00       	call   1ebf0 <free>
    5248:	89 1c 24             	mov    %ebx,(%esp)
    524b:	e8 a0 99 01 00       	call   1ebf0 <free>
    5250:	e9 02 fc ff ff       	jmp    4e57 <driver_connection+0x147>
    5255:	8b 43 08             	mov    0x8(%ebx),%eax
    5258:	85 c0                	test   %eax,%eax
    525a:	74 08                	je     5264 <driver_connection+0x554>
    525c:	89 04 24             	mov    %eax,(%esp)
    525f:	e8 2c d0 01 00       	call   22290 <async_hangup>
    5264:	8b 43 10             	mov    0x10(%ebx),%eax
    5267:	85 c0                	test   %eax,%eax
    5269:	74 08                	je     5273 <driver_connection+0x563>
    526b:	89 04 24             	mov    %eax,(%esp)
    526e:	e8 7d 99 01 00       	call   1ebf0 <free>
    5273:	89 1c 24             	mov    %ebx,(%esp)
    5276:	e8 75 99 01 00       	call   1ebf0 <free>
    527b:	e9 bf fe ff ff       	jmp    513f <driver_connection+0x42f>
    5280:	c7 44 24 08 75 00 00 	movl   $0x75,0x8(%esp)
    5287:	00 
    5288:	c7 44 24 04 89 e4 02 	movl   $0x2e489,0x4(%esp)
    528f:	00 
    5290:	c7 04 24 d0 e5 02 00 	movl   $0x2e5d0,(%esp)
    5297:	e8 14 44 02 00       	call   296b0 <assert_abort>
    529c:	c7 44 24 08 66 00 00 	movl   $0x66,0x8(%esp)
    52a3:	00 
    52a4:	c7 44 24 04 89 e4 02 	movl   $0x2e489,0x4(%esp)
    52ab:	00 
    52ac:	c7 04 24 1c e7 02 00 	movl   $0x2e71c,(%esp)
    52b3:	e8 f8 43 02 00       	call   296b0 <assert_abort>
    52b8:	90                   	nop
    52b9:	8d b4 26 00 00 00 00 	lea    0x0(%esi,%eiz,1),%esi

000052c0 <ddf_dev_data_alloc>:
    52c0:	55                   	push   %ebp
    52c1:	89 e5                	mov    %esp,%ebp
    52c3:	53                   	push   %ebx
    52c4:	83 ec 14             	sub    $0x14,%esp
    52c7:	8b 5d 08             	mov    0x8(%ebp),%ebx
    52ca:	8b 43 10             	mov    0x10(%ebx),%eax
    52cd:	85 c0                	test   %eax,%eax
    52cf:	75 20                	jne    52f1 <ddf_dev_data_alloc+0x31>
    52d1:	8b 45 0c             	mov    0xc(%ebp),%eax
    52d4:	c7 04 24 01 00 00 00 	movl   $0x1,(%esp)
    52db:	89 44 24 04          	mov    %eax,0x4(%esp)
    52df:	e8 9c 97 01 00       	call   1ea80 <calloc>
    52e4:	85 c0                	test   %eax,%eax
    52e6:	74 03                	je     52eb <ddf_dev_data_alloc+0x2b>
    52e8:	89 43 10             	mov    %eax,0x10(%ebx)
    52eb:	83 c4 14             	add    $0x14,%esp
    52ee:	5b                   	pop    %ebx
    52ef:	5d                   	pop    %ebp
    52f0:	c3                   	ret    
    52f1:	c7 44 24 08 52 02 00 	movl   $0x252,0x8(%esp)
    52f8:	00 
    52f9:	c7 44 24 04 89 e4 02 	movl   $0x2e489,0x4(%esp)
    5300:	00 
    5301:	c7 04 24 c4 e4 02 00 	movl   $0x2e4c4,(%esp)
    5308:	e8 a3 43 02 00       	call   296b0 <assert_abort>
    530d:	8d 76 00             	lea    0x0(%esi),%esi

00005310 <ddf_fun_data_implant>:
    5310:	55                   	push   %ebp
    5311:	89 e5                	mov    %esp,%ebp
    5313:	83 ec 18             	sub    $0x18,%esp
    5316:	8b 45 08             	mov    0x8(%ebp),%eax
    5319:	8b 50 20             	mov    0x20(%eax),%edx
    531c:	85 d2                	test   %edx,%edx
    531e:	75 08                	jne    5328 <ddf_fun_data_implant+0x18>
    5320:	8b 55 0c             	mov    0xc(%ebp),%edx
    5323:	89 50 20             	mov    %edx,0x20(%eax)
    5326:	c9                   	leave  
    5327:	c3                   	ret    
    5328:	c7 44 24 08 63 02 00 	movl   $0x263,0x8(%esp)
    532f:	00 
    5330:	c7 44 24 04 89 e4 02 	movl   $0x2e489,0x4(%esp)
    5337:	00 
    5338:	c7 04 24 dd e4 02 00 	movl   $0x2e4dd,(%esp)
    533f:	e8 6c 43 02 00       	call   296b0 <assert_abort>
    5344:	8d b6 00 00 00 00    	lea    0x0(%esi),%esi
    534a:	8d bf 00 00 00 00    	lea    0x0(%edi),%edi

00005350 <ddf_dev_data_get>:
    5350:	55                   	push   %ebp
    5351:	89 e5                	mov    %esp,%ebp
    5353:	8b 45 08             	mov    0x8(%ebp),%eax
    5356:	5d                   	pop    %ebp
    5357:	8b 40 10             	mov    0x10(%eax),%eax
    535a:	c3                   	ret    
    535b:	90                   	nop
    535c:	8d 74 26 00          	lea    0x0(%esi,%eiz,1),%esi

00005360 <ddf_dev_get_handle>:
    5360:	55                   	push   %ebp
    5361:	89 e5                	mov    %esp,%ebp
    5363:	8b 45 08             	mov    0x8(%ebp),%eax
    5366:	5d                   	pop    %ebp
    5367:	8b 00                	mov    (%eax),%eax
    5369:	c3                   	ret    
    536a:	8d b6 00 00 00 00    	lea    0x0(%esi),%esi

00005370 <ddf_dev_get_name>:
    5370:	55                   	push   %ebp
    5371:	89 e5                	mov    %esp,%ebp
    5373:	8b 45 08             	mov    0x8(%ebp),%eax
    5376:	5d                   	pop    %ebp
    5377:	8b 40 0c             	mov    0xc(%eax),%eax
    537a:	c3                   	ret    
    537b:	90                   	nop
    537c:	8d 74 26 00          	lea    0x0(%esi,%eiz,1),%esi

00005380 <ddf_dev_parent_sess_create>:
    5380:	55                   	push   %ebp
    5381:	89 e5                	mov    %esp,%ebp
    5383:	53                   	push   %ebx
    5384:	83 ec 14             	sub    $0x14,%esp
    5387:	8b 5d 08             	mov    0x8(%ebp),%ebx
    538a:	8b 4b 08             	mov    0x8(%ebx),%ecx
    538d:	85 c9                	test   %ecx,%ecx
    538f:	75 22                	jne    53b3 <ddf_dev_parent_sess_create+0x33>
    5391:	c7 44 24 08 01 00 00 	movl   $0x1,0x8(%esp)
    5398:	00 
    5399:	8b 03                	mov    (%ebx),%eax
    539b:	89 44 24 04          	mov    %eax,0x4(%esp)
    539f:	8b 45 0c             	mov    0xc(%ebp),%eax
    53a2:	89 04 24             	mov    %eax,(%esp)
    53a5:	e8 56 ab 00 00       	call   ff00 <devman_parent_device_connect>
    53aa:	89 43 08             	mov    %eax,0x8(%ebx)
    53ad:	83 c4 14             	add    $0x14,%esp
    53b0:	5b                   	pop    %ebx
    53b1:	5d                   	pop    %ebp
    53b2:	c3                   	ret    
    53b3:	c7 44 24 08 87 02 00 	movl   $0x287,0x8(%esp)
    53ba:	00 
    53bb:	c7 44 24 04 89 e4 02 	movl   $0x2e489,0x4(%esp)
    53c2:	00 
    53c3:	c7 04 24 f6 e4 02 00 	movl   $0x2e4f6,(%esp)
    53ca:	e8 e1 42 02 00       	call   296b0 <assert_abort>
    53cf:	90                   	nop

000053d0 <ddf_dev_parent_sess_get>:
    53d0:	55                   	push   %ebp
    53d1:	89 e5                	mov    %esp,%ebp
    53d3:	8b 45 08             	mov    0x8(%ebp),%eax
    53d6:	5d                   	pop    %ebp
    53d7:	8b 40 08             	mov    0x8(%eax),%eax
    53da:	c3                   	ret    
    53db:	90                   	nop
    53dc:	8d 74 26 00          	lea    0x0(%esi,%eiz,1),%esi

000053e0 <ddf_fun_set_name>:
    53e0:	55                   	push   %ebp
    53e1:	89 e5                	mov    %esp,%ebp
    53e3:	53                   	push   %ebx
    53e4:	83 ec 14             	sub    $0x14,%esp
    53e7:	8b 5d 08             	mov    0x8(%ebp),%ebx
    53ea:	8b 43 14             	mov    0x14(%ebx),%eax
    53ed:	85 c0                	test   %eax,%eax
    53ef:	75 19                	jne    540a <ddf_fun_set_name+0x2a>
    53f1:	8b 45 0c             	mov    0xc(%ebp),%eax
    53f4:	89 04 24             	mov    %eax,(%esp)
    53f7:	e8 d4 f0 00 00       	call   144d0 <str_dup>
    53fc:	83 f8 01             	cmp    $0x1,%eax
    53ff:	89 43 14             	mov    %eax,0x14(%ebx)
