
isa:     file format elf32-i386


Disassembly of section .init:

00001094 <__entry>:
    1094:	66 8c d0             	mov    %ss,%ax
    1097:	8e d8                	mov    %eax,%ds
    1099:	8e c0                	mov    %eax,%es
    109b:	8e e0                	mov    %eax,%fs
    109d:	b8 01 00 00 00       	mov    $0x1,%eax
    10a2:	0f a2                	cpuid  
    10a4:	0f ba e2 0b          	bt     $0xb,%edx
    10a8:	73 0c                	jae    10b6 <__entry+0x22>
    10aa:	8d 05 b0 a4 02 00    	lea    0x2a4b0,%eax
    10b0:	c7 00 47 28 02 00    	movl   $0x22847,(%eax)
    10b6:	6a 00                	push   $0x0
    10b8:	89 e5                	mov    %esp,%ebp
    10ba:	57                   	push   %edi
    10bb:	e8 30 71 00 00       	call   81f0 <__main>

Disassembly of section .text:

000010c0 <dma_setup_channel>:
    10c0:	55                   	push   %ebp
    10c1:	89 e5                	mov    %esp,%ebp
    10c3:	57                   	push   %edi
    10c4:	56                   	push   %esi
    10c5:	53                   	push   %ebx
    10c6:	83 ec 4c             	sub    $0x4c,%esp
    10c9:	8b 5d 08             	mov    0x8(%ebp),%ebx
    10cc:	8b 75 10             	mov    0x10(%ebp),%esi
    10cf:	0f b6 7d 14          	movzbl 0x14(%ebp),%edi
    10d3:	f7 c3 fb ff ff ff    	test   $0xfffffffb,%ebx
    10d9:	0f 84 79 03 00 00    	je     1458 <dma_setup_channel+0x398>
    10df:	83 fb 07             	cmp    $0x7,%ebx
    10e2:	0f 87 80 03 00 00    	ja     1468 <dma_setup_channel+0x3a8>
    10e8:	81 7d 0c ff ff ff 00 	cmpl   $0xffffff,0xc(%ebp)
    10ef:	0f 87 53 03 00 00    	ja     1448 <dma_setup_channel+0x388>
    10f5:	8d 43 ff             	lea    -0x1(%ebx),%eax
    10f8:	83 f8 02             	cmp    $0x2,%eax
    10fb:	77 0d                	ja     110a <dma_setup_channel+0x4a>
    10fd:	81 7d 0c ff ff 0f 00 	cmpl   $0xfffff,0xc(%ebp)
    1104:	0f 87 3e 03 00 00    	ja     1448 <dma_setup_channel+0x388>
    110a:	c7 04 24 a0 9f 02 00 	movl   $0x29fa0,(%esp)
    1111:	e8 2a d6 00 00       	call   e740 <fibril_mutex_lock>
    1116:	80 3d 8c a0 02 00 00 	cmpb   $0x0,0x2a08c
    111d:	0f 84 65 02 00 00    	je     1388 <dma_setup_channel+0x2c8>
    1123:	89 f2                	mov    %esi,%edx
    1125:	8b 4d 0c             	mov    0xc(%ebp),%ecx
    1128:	81 e2 ff ff 00 00    	and    $0xffff,%edx
    112e:	89 4c 24 08          	mov    %ecx,0x8(%esp)
    1132:	89 54 24 0c          	mov    %edx,0xc(%esp)
    1136:	c7 44 24 04 a4 6a 02 	movl   $0x26aa4,0x4(%esp)
    113d:	00 
    113e:	c7 04 24 04 00 00 00 	movl   $0x4,(%esp)
    1145:	89 55 cc             	mov    %edx,-0x34(%ebp)
    1148:	e8 33 2b 00 00       	call   3c80 <ddf_msg>
    114d:	83 fb 04             	cmp    $0x4,%ebx
    1150:	8b 55 cc             	mov    -0x34(%ebp),%edx
    1153:	76 2c                	jbe    1181 <dma_setup_channel+0xc1>
    1155:	f7 c6 01 00 00 00    	test   $0x1,%esi
    115b:	0f 85 0f 03 00 00    	jne    1470 <dma_setup_channel+0x3b0>
    1161:	0f b7 45 0c          	movzwl 0xc(%ebp),%eax
    1165:	d1 e8                	shr    %eax
    1167:	8b 55 0c             	mov    0xc(%ebp),%edx
    116a:	66 d1 ee             	shr    %si
    116d:	81 e2 00 00 ff 00    	and    $0xff0000,%edx
    1173:	89 55 0c             	mov    %edx,0xc(%ebp)
    1176:	89 f2                	mov    %esi,%edx
    1178:	09 45 0c             	or     %eax,0xc(%ebp)
    117b:	81 e2 ff ff 00 00    	and    $0xffff,%edx
    1181:	8d 0c 5b             	lea    (%ebx,%ebx,2),%ecx
    1184:	4e                   	dec    %esi
    1185:	c1 e1 03             	shl    $0x3,%ecx
    1188:	81 e6 ff 00 00 00    	and    $0xff,%esi
    118e:	8d 81 c0 9f 02 00    	lea    0x29fc0(%ecx),%eax
    1194:	8b 89 c0 9f 02 00    	mov    0x29fc0(%ecx),%ecx
    119a:	89 4d e4             	mov    %ecx,-0x1c(%ebp)
    119d:	8b 48 04             	mov    0x4(%eax),%ecx
    11a0:	89 4d e0             	mov    %ecx,-0x20(%ebp)
    11a3:	8b 48 08             	mov    0x8(%eax),%ecx
    11a6:	89 4d dc             	mov    %ecx,-0x24(%ebp)
    11a9:	8b 48 0c             	mov    0xc(%eax),%ecx
    11ac:	89 4d d8             	mov    %ecx,-0x28(%ebp)
    11af:	8b 48 10             	mov    0x10(%eax),%ecx
    11b2:	8b 40 14             	mov    0x14(%eax),%eax
    11b5:	89 4d d4             	mov    %ecx,-0x2c(%ebp)
    11b8:	89 45 d0             	mov    %eax,-0x30(%ebp)
    11bb:	89 f8                	mov    %edi,%eax
    11bd:	8b 4d 0c             	mov    0xc(%ebp),%ecx
    11c0:	25 ff 00 00 00       	and    $0xff,%eax
    11c5:	89 54 24 10          	mov    %edx,0x10(%esp)
    11c9:	89 4c 24 0c          	mov    %ecx,0xc(%esp)
    11cd:	89 44 24 14          	mov    %eax,0x14(%esp)
    11d1:	89 5c 24 08          	mov    %ebx,0x8(%esp)
    11d5:	c7 44 24 04 c8 6a 02 	movl   $0x26ac8,0x4(%esp)
    11dc:	00 
    11dd:	83 e3 03             	and    $0x3,%ebx
    11e0:	c7 04 24 04 00 00 00 	movl   $0x4,(%esp)
    11e7:	89 55 cc             	mov    %edx,-0x34(%ebp)
    11ea:	e8 91 2a 00 00       	call   3c80 <ddf_msg>
    11ef:	89 d8                	mov    %ebx,%eax
    11f1:	83 c8 04             	or     $0x4,%eax
    11f4:	09 df                	or     %ebx,%edi
    11f6:	89 44 24 04          	mov    %eax,0x4(%esp)
    11fa:	8b 45 d8             	mov    -0x28(%ebp),%eax
    11fd:	89 04 24             	mov    %eax,(%esp)
    1200:	81 e7 ff 00 00 00    	and    $0xff,%edi
    1206:	e8 65 73 00 00       	call   8570 <pio_write_8>
    120b:	8b 4d d4             	mov    -0x2c(%ebp),%ecx
    120e:	89 4c 24 08          	mov    %ecx,0x8(%esp)
    1212:	89 7c 24 0c          	mov    %edi,0xc(%esp)
    1216:	c7 44 24 04 b1 6b 02 	movl   $0x26bb1,0x4(%esp)
    121d:	00 
    121e:	c7 04 24 05 00 00 00 	movl   $0x5,(%esp)
    1225:	e8 56 2a 00 00       	call   3c80 <ddf_msg>
    122a:	8b 45 d4             	mov    -0x2c(%ebp),%eax
    122d:	89 04 24             	mov    %eax,(%esp)
    1230:	89 7c 24 04          	mov    %edi,0x4(%esp)
    1234:	e8 37 73 00 00       	call   8570 <pio_write_8>
    1239:	8b 4d d0             	mov    -0x30(%ebp),%ecx
    123c:	89 0c 24             	mov    %ecx,(%esp)
    123f:	c7 44 24 04 00 00 00 	movl   $0x0,0x4(%esp)
    1246:	00 
    1247:	e8 24 73 00 00       	call   8570 <pio_write_8>
    124c:	8b 45 e4             	mov    -0x1c(%ebp),%eax
    124f:	0f b6 7d 0c          	movzbl 0xc(%ebp),%edi
    1253:	89 44 24 08          	mov    %eax,0x8(%esp)
    1257:	89 7c 24 0c          	mov    %edi,0xc(%esp)
    125b:	c7 44 24 04 04 6b 02 	movl   $0x26b04,0x4(%esp)
    1262:	00 
    1263:	c7 04 24 05 00 00 00 	movl   $0x5,(%esp)
    126a:	e8 11 2a 00 00       	call   3c80 <ddf_msg>
    126f:	8b 4d e4             	mov    -0x1c(%ebp),%ecx
    1272:	89 7c 24 04          	mov    %edi,0x4(%esp)
    1276:	89 0c 24             	mov    %ecx,(%esp)
    1279:	e8 f2 72 00 00       	call   8570 <pio_write_8>
    127e:	8b 4d 0c             	mov    0xc(%ebp),%ecx
    1281:	0f b6 fd             	movzbl %ch,%edi
    1284:	8b 45 e4             	mov    -0x1c(%ebp),%eax
    1287:	89 7c 24 0c          	mov    %edi,0xc(%esp)
    128b:	89 44 24 08          	mov    %eax,0x8(%esp)
    128f:	c7 44 24 04 28 6b 02 	movl   $0x26b28,0x4(%esp)
    1296:	00 
    1297:	c7 04 24 05 00 00 00 	movl   $0x5,(%esp)
    129e:	e8 dd 29 00 00       	call   3c80 <ddf_msg>
    12a3:	8b 4d e4             	mov    -0x1c(%ebp),%ecx
    12a6:	89 0c 24             	mov    %ecx,(%esp)
    12a9:	89 7c 24 04          	mov    %edi,0x4(%esp)
    12ad:	e8 be 72 00 00       	call   8570 <pio_write_8>
    12b2:	8b 7d 0c             	mov    0xc(%ebp),%edi
    12b5:	8b 45 dc             	mov    -0x24(%ebp),%eax
    12b8:	c7 44 24 04 4c 6b 02 	movl   $0x26b4c,0x4(%esp)
    12bf:	00 
    12c0:	c1 ef 10             	shr    $0x10,%edi
    12c3:	89 44 24 08          	mov    %eax,0x8(%esp)
    12c7:	89 7c 24 0c          	mov    %edi,0xc(%esp)
    12cb:	c7 04 24 05 00 00 00 	movl   $0x5,(%esp)
    12d2:	e8 a9 29 00 00       	call   3c80 <ddf_msg>
    12d7:	8b 4d dc             	mov    -0x24(%ebp),%ecx
    12da:	89 0c 24             	mov    %ecx,(%esp)
    12dd:	89 7c 24 04          	mov    %edi,0x4(%esp)
    12e1:	e8 8a 72 00 00       	call   8570 <pio_write_8>
    12e6:	8b 45 d0             	mov    -0x30(%ebp),%eax
    12e9:	89 04 24             	mov    %eax,(%esp)
    12ec:	c7 44 24 04 00 00 00 	movl   $0x0,0x4(%esp)
    12f3:	00 
    12f4:	e8 77 72 00 00       	call   8570 <pio_write_8>
    12f9:	8b 4d e0             	mov    -0x20(%ebp),%ecx
    12fc:	89 4c 24 08          	mov    %ecx,0x8(%esp)
    1300:	89 74 24 0c          	mov    %esi,0xc(%esp)
    1304:	c7 44 24 04 70 6b 02 	movl   $0x26b70,0x4(%esp)
    130b:	00 
    130c:	c7 04 24 05 00 00 00 	movl   $0x5,(%esp)
    1313:	e8 68 29 00 00       	call   3c80 <ddf_msg>
    1318:	8b 45 e0             	mov    -0x20(%ebp),%eax
    131b:	89 04 24             	mov    %eax,(%esp)
    131e:	89 74 24 04          	mov    %esi,0x4(%esp)
    1322:	e8 49 72 00 00       	call   8570 <pio_write_8>
    1327:	8b 55 cc             	mov    -0x34(%ebp),%edx
    132a:	4a                   	dec    %edx
    132b:	8b 4d e0             	mov    -0x20(%ebp),%ecx
    132e:	0f b6 f6             	movzbl %dh,%esi
    1331:	89 4c 24 08          	mov    %ecx,0x8(%esp)
    1335:	89 74 24 0c          	mov    %esi,0xc(%esp)
    1339:	c7 44 24 04 90 6b 02 	movl   $0x26b90,0x4(%esp)
    1340:	00 
    1341:	c7 04 24 05 00 00 00 	movl   $0x5,(%esp)
    1348:	e8 33 29 00 00       	call   3c80 <ddf_msg>
    134d:	8b 45 e0             	mov    -0x20(%ebp),%eax
    1350:	89 04 24             	mov    %eax,(%esp)
    1353:	89 74 24 04          	mov    %esi,0x4(%esp)
    1357:	e8 14 72 00 00       	call   8570 <pio_write_8>
    135c:	8b 4d d8             	mov    -0x28(%ebp),%ecx
    135f:	89 0c 24             	mov    %ecx,(%esp)
    1362:	89 5c 24 04          	mov    %ebx,0x4(%esp)
    1366:	e8 05 72 00 00       	call   8570 <pio_write_8>
    136b:	c7 04 24 a0 9f 02 00 	movl   $0x29fa0,(%esp)
    1372:	e8 e9 d4 00 00       	call   e860 <fibril_mutex_unlock>
    1377:	31 c0                	xor    %eax,%eax
    1379:	83 c4 4c             	add    $0x4c,%esp
    137c:	5b                   	pop    %ebx
    137d:	5e                   	pop    %esi
    137e:	5f                   	pop    %edi
    137f:	5d                   	pop    %ebp
    1380:	c3                   	ret    
    1381:	8d b4 26 00 00 00 00 	lea    0x0(%esi,%eiz,1),%esi
    1388:	c7 44 24 08 80 a0 02 	movl   $0x2a080,0x8(%esp)
    138f:	00 
    1390:	c7 44 24 04 0f 00 00 	movl   $0xf,0x4(%esp)
    1397:	00 
    1398:	c7 04 24 81 00 00 00 	movl   $0x81,(%esp)
    139f:	e8 dc 70 00 00       	call   8480 <pio_enable>
    13a4:	85 c0                	test   %eax,%eax
    13a6:	75 77                	jne    141f <dma_setup_channel+0x35f>
    13a8:	c7 44 24 08 84 a0 02 	movl   $0x2a084,0x8(%esp)
    13af:	00 
    13b0:	c7 44 24 04 10 00 00 	movl   $0x10,0x4(%esp)
    13b7:	00 
    13b8:	c7 04 24 00 00 00 00 	movl   $0x0,(%esp)
    13bf:	e8 bc 70 00 00       	call   8480 <pio_enable>
    13c4:	85 c0                	test   %eax,%eax
    13c6:	75 57                	jne    141f <dma_setup_channel+0x35f>
    13c8:	c7 44 24 08 88 a0 02 	movl   $0x2a088,0x8(%esp)
    13cf:	00 
    13d0:	c7 44 24 04 1c 00 00 	movl   $0x1c,0x4(%esp)
    13d7:	00 
    13d8:	c7 04 24 c0 00 00 00 	movl   $0xc0,(%esp)
    13df:	e8 9c 70 00 00       	call   8480 <pio_enable>
    13e4:	85 c0                	test   %eax,%eax
    13e6:	75 37                	jne    141f <dma_setup_channel+0x35f>
    13e8:	a1 88 a0 02 00       	mov    0x2a088,%eax
    13ed:	c7 44 24 04 ff 00 00 	movl   $0xff,0x4(%esp)
    13f4:	00 
    13f5:	83 c0 19             	add    $0x19,%eax
    13f8:	c6 05 8c a0 02 00 01 	movb   $0x1,0x2a08c
    13ff:	89 04 24             	mov    %eax,(%esp)
    1402:	e8 69 71 00 00       	call   8570 <pio_write_8>
    1407:	a1 84 a0 02 00       	mov    0x2a084,%eax
    140c:	83 c0 0d             	add    $0xd,%eax
    140f:	c7 44 24 04 ff 00 00 	movl   $0xff,0x4(%esp)
    1416:	00 
    1417:	89 04 24             	mov    %eax,(%esp)
    141a:	e8 51 71 00 00       	call   8570 <pio_write_8>
    141f:	80 3d 8c a0 02 00 00 	cmpb   $0x0,0x2a08c
    1426:	0f 85 f7 fc ff ff    	jne    1123 <dma_setup_channel+0x63>
    142c:	c7 04 24 a0 9f 02 00 	movl   $0x29fa0,(%esp)
    1433:	e8 28 d4 00 00       	call   e860 <fibril_mutex_unlock>
    1438:	b8 f7 fe ff ff       	mov    $0xfffffef7,%eax
    143d:	e9 37 ff ff ff       	jmp    1379 <dma_setup_channel+0x2b9>
    1442:	8d b6 00 00 00 00    	lea    0x0(%esi),%esi
    1448:	b8 f2 ff ff ff       	mov    $0xfffffff2,%eax
    144d:	e9 27 ff ff ff       	jmp    1379 <dma_setup_channel+0x2b9>
    1452:	8d b6 00 00 00 00    	lea    0x0(%esi),%esi
    1458:	b8 f5 ff ff ff       	mov    $0xfffffff5,%eax
    145d:	e9 17 ff ff ff       	jmp    1379 <dma_setup_channel+0x2b9>
    1462:	8d b6 00 00 00 00    	lea    0x0(%esi),%esi
    1468:	83 c8 ff             	or     $0xffffffff,%eax
    146b:	e9 09 ff ff ff       	jmp    1379 <dma_setup_channel+0x2b9>
    1470:	c7 04 24 a0 9f 02 00 	movl   $0x29fa0,(%esp)
    1477:	e8 e4 d3 00 00       	call   e860 <fibril_mutex_unlock>
    147c:	b8 f2 ff ff ff       	mov    $0xfffffff2,%eax
    1481:	e9 f3 fe ff ff       	jmp    1379 <dma_setup_channel+0x2b9>
    1486:	66 90                	xchg   %ax,%ax
    1488:	66 90                	xchg   %ax,%ax
    148a:	66 90                	xchg   %ax,%ax
    148c:	66 90                	xchg   %ax,%ax
    148e:	66 90                	xchg   %ax,%ax

00001490 <isa_fun_offline>:
    1490:	55                   	push   %ebp
    1491:	89 e5                	mov    %esp,%ebp
    1493:	53                   	push   %ebx
    1494:	83 ec 14             	sub    $0x14,%esp
    1497:	8b 5d 08             	mov    0x8(%ebp),%ebx
    149a:	c7 44 24 04 cd 6b 02 	movl   $0x26bcd,0x4(%esp)
    14a1:	00 
    14a2:	c7 04 24 04 00 00 00 	movl   $0x4,(%esp)
    14a9:	e8 d2 27 00 00       	call   3c80 <ddf_msg>
    14ae:	89 5d 08             	mov    %ebx,0x8(%ebp)
    14b1:	83 c4 14             	add    $0x14,%esp
    14b4:	5b                   	pop    %ebx
    14b5:	5d                   	pop    %ebp
    14b6:	e9 e5 21 00 00       	jmp    36a0 <ddf_fun_offline>
    14bb:	90                   	nop
    14bc:	8d 74 26 00          	lea    0x0(%esi,%eiz,1),%esi

000014c0 <isa_fun_online>:
    14c0:	55                   	push   %ebp
    14c1:	89 e5                	mov    %esp,%ebp
    14c3:	53                   	push   %ebx
    14c4:	83 ec 14             	sub    $0x14,%esp
    14c7:	8b 5d 08             	mov    0x8(%ebp),%ebx
    14ca:	c7 44 24 04 df 6b 02 	movl   $0x26bdf,0x4(%esp)
    14d1:	00 
    14d2:	c7 04 24 04 00 00 00 	movl   $0x4,(%esp)
    14d9:	e8 a2 27 00 00       	call   3c80 <ddf_msg>
    14de:	89 5d 08             	mov    %ebx,0x8(%ebp)
    14e1:	83 c4 14             	add    $0x14,%esp
    14e4:	5b                   	pop    %ebx
    14e5:	5d                   	pop    %ebp
    14e6:	e9 75 21 00 00       	jmp    3660 <ddf_fun_online>
    14eb:	90                   	nop
    14ec:	8d 74 26 00          	lea    0x0(%esi,%eiz,1),%esi

000014f0 <isa_fun_set_dma>:
    14f0:	55                   	push   %ebp
    14f1:	89 e5                	mov    %esp,%ebp
    14f3:	56                   	push   %esi
    14f4:	53                   	push   %ebx
    14f5:	83 ec 20             	sub    $0x20,%esp
    14f8:	8b 48 14             	mov    0x14(%eax),%ecx
    14fb:	8b 58 18             	mov    0x18(%eax),%ebx
    14fe:	83 f9 04             	cmp    $0x4,%ecx
    1501:	77 3d                	ja     1540 <isa_fun_set_dma+0x50>
    1503:	8d 72 ff             	lea    -0x1(%edx),%esi
    1506:	83 fe 02             	cmp    $0x2,%esi
    1509:	76 3d                	jbe    1548 <isa_fun_set_dma+0x58>
    150b:	8d 72 fb             	lea    -0x5(%edx),%esi
    150e:	83 fe 02             	cmp    $0x2,%esi
    1511:	76 7d                	jbe    1590 <isa_fun_set_dma+0xa0>
    1513:	8b 40 10             	mov    0x10(%eax),%eax
    1516:	89 55 f4             	mov    %edx,-0xc(%ebp)
    1519:	89 04 24             	mov    %eax,(%esp)
    151c:	e8 6f 1e 00 00       	call   3390 <ddf_fun_get_name>
    1521:	8b 55 f4             	mov    -0xc(%ebp),%edx
    1524:	89 44 24 0c          	mov    %eax,0xc(%esp)
    1528:	89 54 24 08          	mov    %edx,0x8(%esp)
    152c:	c7 44 24 04 58 6d 02 	movl   $0x26d58,0x4(%esp)
    1533:	00 
    1534:	c7 04 24 02 00 00 00 	movl   $0x2,(%esp)
    153b:	e8 40 27 00 00       	call   3c80 <ddf_msg>
    1540:	83 c4 20             	add    $0x20,%esp
    1543:	5b                   	pop    %ebx
    1544:	5e                   	pop    %esi
    1545:	5d                   	pop    %ebp
    1546:	c3                   	ret    
    1547:	90                   	nop
    1548:	8d 34 89             	lea    (%ecx,%ecx,4),%esi
    154b:	8d 1c b3             	lea    (%ebx,%esi,4),%ebx
    154e:	c7 03 03 00 00 00    	movl   $0x3,(%ebx)
    1554:	89 53 04             	mov    %edx,0x4(%ebx)
    1557:	41                   	inc    %ecx
    1558:	89 48 14             	mov    %ecx,0x14(%eax)
    155b:	8b 40 10             	mov    0x10(%eax),%eax
    155e:	89 04 24             	mov    %eax,(%esp)
    1561:	89 55 f4             	mov    %edx,-0xc(%ebp)
    1564:	e8 27 1e 00 00       	call   3390 <ddf_fun_get_name>
    1569:	8b 55 f4             	mov    -0xc(%ebp),%edx
    156c:	89 44 24 0c          	mov    %eax,0xc(%esp)
    1570:	89 54 24 08          	mov    %edx,0x8(%esp)
    1574:	c7 44 24 04 f0 6b 02 	movl   $0x26bf0,0x4(%esp)
    157b:	00 
    157c:	c7 04 24 03 00 00 00 	movl   $0x3,(%esp)
    1583:	e8 f8 26 00 00       	call   3c80 <ddf_msg>
    1588:	83 c4 20             	add    $0x20,%esp
    158b:	5b                   	pop    %ebx
    158c:	5e                   	pop    %esi
    158d:	5d                   	pop    %ebp
    158e:	c3                   	ret    
    158f:	90                   	nop
    1590:	8d 34 89             	lea    (%ecx,%ecx,4),%esi
    1593:	8d 1c b3             	lea    (%ebx,%esi,4),%ebx
    1596:	c7 03 04 00 00 00    	movl   $0x4,(%ebx)
    159c:	eb b6                	jmp    1554 <isa_fun_set_dma+0x64>
    159e:	66 90                	xchg   %ax,%ax

000015a0 <fun_parse_dma>:
    15a0:	55                   	push   %ebp
    15a1:	89 e5                	mov    %esp,%ebp
    15a3:	53                   	push   %ebx
    15a4:	83 ec 24             	sub    $0x24,%esp
    15a7:	8b 5d 0c             	mov    0xc(%ebp),%ebx
    15aa:	c7 45 f4 00 00 00 00 	movl   $0x0,-0xc(%ebp)
    15b1:	0f be 03             	movsbl (%ebx),%eax
    15b4:	84 c0                	test   %al,%al
    15b6:	74 08                	je     15c0 <fun_parse_dma+0x20>
    15b8:	83 e8 09             	sub    $0x9,%eax
    15bb:	83 f8 17             	cmp    $0x17,%eax
    15be:	76 30                	jbe    15f0 <fun_parse_dma+0x50>
    15c0:	8d 45 f4             	lea    -0xc(%ebp),%eax
    15c3:	c7 44 24 08 0a 00 00 	movl   $0xa,0x8(%esp)
    15ca:	00 
    15cb:	89 44 24 04          	mov    %eax,0x4(%esp)
    15cf:	89 1c 24             	mov    %ebx,(%esp)
    15d2:	e8 f9 bd 00 00       	call   d3d0 <strtol>
    15d7:	39 5d f4             	cmp    %ebx,-0xc(%ebp)
    15da:	74 0a                	je     15e6 <fun_parse_dma+0x46>
    15dc:	89 c2                	mov    %eax,%edx
    15de:	8b 45 08             	mov    0x8(%ebp),%eax
    15e1:	e8 0a ff ff ff       	call   14f0 <isa_fun_set_dma>
    15e6:	83 c4 24             	add    $0x24,%esp
    15e9:	5b                   	pop    %ebx
    15ea:	5d                   	pop    %ebp
    15eb:	c3                   	ret    
    15ec:	8d 74 26 00          	lea    0x0(%esi,%eiz,1),%esi
    15f0:	8b 04 85 40 6f 02 00 	mov    0x26f40(,%eax,4),%eax
    15f7:	85 c0                	test   %eax,%eax
    15f9:	74 c5                	je     15c0 <fun_parse_dma+0x20>
    15fb:	43                   	inc    %ebx
    15fc:	0f be 03             	movsbl (%ebx),%eax
    15ff:	84 c0                	test   %al,%al
    1601:	75 b5                	jne    15b8 <fun_parse_dma+0x18>
    1603:	eb bb                	jmp    15c0 <fun_parse_dma+0x20>
    1605:	8d 74 26 00          	lea    0x0(%esi,%eiz,1),%esi
    1609:	8d bc 27 00 00 00 00 	lea    0x0(%edi,%eiz,1),%edi

00001610 <fun_parse_match_id>:
    1610:	55                   	push   %ebp
    1611:	89 e5                	mov    %esp,%ebp
    1613:	57                   	push   %edi
    1614:	56                   	push   %esi
    1615:	53                   	push   %ebx
    1616:	83 ec 4c             	sub    $0x4c,%esp
    1619:	c7 45 e4 00 00 00 00 	movl   $0x0,-0x1c(%ebp)
    1620:	8b 5d 0c             	mov    0xc(%ebp),%ebx
    1623:	8b 75 08             	mov    0x8(%ebp),%esi
    1626:	0f be 03             	movsbl (%ebx),%eax
    1629:	84 c0                	test   %al,%al
    162b:	74 0f                	je     163c <fun_parse_match_id+0x2c>
    162d:	8d 76 00             	lea    0x0(%esi),%esi
    1630:	83 e8 09             	sub    $0x9,%eax
    1633:	83 f8 17             	cmp    $0x17,%eax
    1636:	0f 86 f4 00 00 00    	jbe    1730 <fun_parse_match_id+0x120>
    163c:	8d 45 e4             	lea    -0x1c(%ebp),%eax
    163f:	c7 44 24 08 0a 00 00 	movl   $0xa,0x8(%esp)
    1646:	00 
    1647:	89 44 24 04          	mov    %eax,0x4(%esp)
    164b:	89 1c 24             	mov    %ebx,(%esp)
    164e:	e8 7d bd 00 00       	call   d3d0 <strtol>
    1653:	8b 55 e4             	mov    -0x1c(%ebp),%edx
    1656:	89 c7                	mov    %eax,%edi
    1658:	39 da                	cmp    %ebx,%edx
    165a:	0f 84 3d 01 00 00    	je     179d <fun_parse_match_id+0x18d>
    1660:	0f be 02             	movsbl (%edx),%eax
    1663:	84 c0                	test   %al,%al
    1665:	74 08                	je     166f <fun_parse_match_id+0x5f>
    1667:	83 e8 09             	sub    $0x9,%eax
    166a:	83 f8 17             	cmp    $0x17,%eax
    166d:	76 29                	jbe    1698 <fun_parse_match_id+0x88>
    166f:	89 d0                	mov    %edx,%eax
    1671:	8d b4 26 00 00 00 00 	lea    0x0(%esi,%eiz,1),%esi
    1678:	0f be 08             	movsbl (%eax),%ecx
    167b:	83 e9 09             	sub    $0x9,%ecx
    167e:	83 f9 17             	cmp    $0x17,%ecx
    1681:	77 0b                	ja     168e <fun_parse_match_id+0x7e>
    1683:	8b 0c 8d 40 6f 02 00 	mov    0x26f40(,%ecx,4),%ecx
    168a:	85 c9                	test   %ecx,%ecx
    168c:	75 1a                	jne    16a8 <fun_parse_match_id+0x98>
    168e:	40                   	inc    %eax
    168f:	eb e7                	jmp    1678 <fun_parse_match_id+0x68>
    1691:	8d b4 26 00 00 00 00 	lea    0x0(%esi,%eiz,1),%esi
    1698:	8b 1c 85 40 6f 02 00 	mov    0x26f40(,%eax,4),%ebx
    169f:	85 db                	test   %ebx,%ebx
    16a1:	74 cc                	je     166f <fun_parse_match_id+0x5f>
    16a3:	42                   	inc    %edx
    16a4:	eb ba                	jmp    1660 <fun_parse_match_id+0x50>
    16a6:	66 90                	xchg   %ax,%ax
    16a8:	29 d0                	sub    %edx,%eax
    16aa:	89 55 d4             	mov    %edx,-0x2c(%ebp)
    16ad:	8d 48 01             	lea    0x1(%eax),%ecx
    16b0:	89 0c 24             	mov    %ecx,(%esp)
    16b3:	89 4d d0             	mov    %ecx,-0x30(%ebp)
    16b6:	e8 65 63 01 00       	call   17a20 <malloc>
    16bb:	8b 55 d4             	mov    -0x2c(%ebp),%edx
    16be:	8b 4d d0             	mov    -0x30(%ebp),%ecx
    16c1:	89 04 24             	mov    %eax,(%esp)
    16c4:	89 54 24 08          	mov    %edx,0x8(%esp)
    16c8:	89 4c 24 04          	mov    %ecx,0x4(%esp)
    16cc:	89 c3                	mov    %eax,%ebx
    16ce:	e8 4d a9 00 00       	call   c020 <str_cpy>
    16d3:	8b 46 10             	mov    0x10(%esi),%eax
    16d6:	85 db                	test   %ebx,%ebx
    16d8:	89 04 24             	mov    %eax,(%esp)
    16db:	0f 84 97 00 00 00    	je     1778 <fun_parse_match_id+0x168>
    16e1:	e8 aa 1c 00 00       	call   3390 <ddf_fun_get_name>
    16e6:	89 7c 24 0c          	mov    %edi,0xc(%esp)
    16ea:	89 44 24 10          	mov    %eax,0x10(%esp)
    16ee:	89 5c 24 08          	mov    %ebx,0x8(%esp)
    16f2:	c7 44 24 04 d0 6d 02 	movl   $0x26dd0,0x4(%esp)
    16f9:	00 
    16fa:	c7 04 24 04 00 00 00 	movl   $0x4,(%esp)
    1701:	e8 7a 25 00 00       	call   3c80 <ddf_msg>
    1706:	89 7c 24 08          	mov    %edi,0x8(%esp)
    170a:	89 5c 24 04          	mov    %ebx,0x4(%esp)
    170e:	8b 46 10             	mov    0x10(%esi),%eax
    1711:	89 04 24             	mov    %eax,(%esp)
    1714:	e8 c7 1f 00 00       	call   36e0 <ddf_fun_add_match_id>
    1719:	85 c0                	test   %eax,%eax
    171b:	75 33                	jne    1750 <fun_parse_match_id+0x140>
    171d:	89 1c 24             	mov    %ebx,(%esp)
    1720:	e8 0b 64 01 00       	call   17b30 <free>
    1725:	83 c4 4c             	add    $0x4c,%esp
    1728:	5b                   	pop    %ebx
    1729:	5e                   	pop    %esi
    172a:	5f                   	pop    %edi
    172b:	5d                   	pop    %ebp
    172c:	c3                   	ret    
    172d:	8d 76 00             	lea    0x0(%esi),%esi
    1730:	8b 3c 85 40 6f 02 00 	mov    0x26f40(,%eax,4),%edi
    1737:	85 ff                	test   %edi,%edi
    1739:	0f 84 fd fe ff ff    	je     163c <fun_parse_match_id+0x2c>
    173f:	43                   	inc    %ebx
    1740:	0f be 03             	movsbl (%ebx),%eax
    1743:	84 c0                	test   %al,%al
    1745:	0f 85 e5 fe ff ff    	jne    1630 <fun_parse_match_id+0x20>
    174b:	e9 ec fe ff ff       	jmp    163c <fun_parse_match_id+0x2c>
    1750:	89 04 24             	mov    %eax,(%esp)
    1753:	e8 f8 c5 00 00       	call   dd50 <str_error>
    1758:	c7 44 24 04 0e 6c 02 	movl   $0x26c0e,0x4(%esp)
    175f:	00 
    1760:	89 44 24 08          	mov    %eax,0x8(%esp)
    1764:	c7 04 24 01 00 00 00 	movl   $0x1,(%esp)
    176b:	e8 10 25 00 00       	call   3c80 <ddf_msg>
    1770:	eb ab                	jmp    171d <fun_parse_match_id+0x10d>
    1772:	8d b6 00 00 00 00    	lea    0x0(%esi),%esi
    1778:	e8 13 1c 00 00       	call   3390 <ddf_fun_get_name>
    177d:	c7 44 24 04 a8 6d 02 	movl   $0x26da8,0x4(%esp)
    1784:	00 
    1785:	89 44 24 08          	mov    %eax,0x8(%esp)
    1789:	c7 04 24 01 00 00 00 	movl   $0x1,(%esp)
    1790:	e8 eb 24 00 00       	call   3c80 <ddf_msg>
    1795:	83 c4 4c             	add    $0x4c,%esp
    1798:	5b                   	pop    %ebx
    1799:	5e                   	pop    %esi
    179a:	5f                   	pop    %edi
    179b:	5d                   	pop    %ebp
    179c:	c3                   	ret    
    179d:	8b 46 10             	mov    0x10(%esi),%eax
    17a0:	89 04 24             	mov    %eax,(%esp)
    17a3:	e8 e8 1b 00 00       	call   3390 <ddf_fun_get_name>
    17a8:	c7 44 24 04 7c 6d 02 	movl   $0x26d7c,0x4(%esp)
    17af:	00 
    17b0:	89 44 24 08          	mov    %eax,0x8(%esp)
    17b4:	c7 04 24 01 00 00 00 	movl   $0x1,(%esp)
    17bb:	e8 c0 24 00 00       	call   3c80 <ddf_msg>
    17c0:	e9 60 ff ff ff       	jmp    1725 <fun_parse_match_id+0x115>
    17c5:	8d 74 26 00          	lea    0x0(%esi,%eiz,1),%esi
    17c9:	8d bc 27 00 00 00 00 	lea    0x0(%edi,%eiz,1),%edi

000017d0 <isa_enable_fun_interrupt>:
    17d0:	55                   	push   %ebp
    17d1:	89 e5                	mov    %esp,%ebp
    17d3:	57                   	push   %edi
    17d4:	56                   	push   %esi
    17d5:	53                   	push   %ebx
    17d6:	83 ec 5c             	sub    $0x5c,%esp
    17d9:	8b 45 08             	mov    0x8(%ebp),%eax
    17dc:	85 c0                	test   %eax,%eax
    17de:	0f 84 95 01 00 00    	je     1979 <isa_enable_fun_interrupt+0x1a9>
    17e4:	89 04 24             	mov    %eax,(%esp)
    17e7:	e8 94 1b 00 00       	call   3380 <ddf_fun_data_get>
    17ec:	c7 04 24 35 6c 02 00 	movl   $0x26c35,(%esp)
    17f3:	89 c7                	mov    %eax,%edi
    17f5:	8d 45 e0             	lea    -0x20(%ebp),%eax
    17f8:	89 44 24 04          	mov    %eax,0x4(%esp)
    17fc:	e8 0f 6b 01 00       	call   18310 <sysinfo_get_value>
    1801:	85 c0                	test   %eax,%eax
    1803:	0f 85 0f 01 00 00    	jne    1918 <isa_enable_fun_interrupt+0x148>
    1809:	8b 75 e0             	mov    -0x20(%ebp),%esi
    180c:	85 f6                	test   %esi,%esi
    180e:	0f 84 04 01 00 00    	je     1918 <isa_enable_fun_interrupt+0x148>
    1814:	c7 44 24 0c 00 00 00 	movl   $0x0,0xc(%esp)
    181b:	00 
    181c:	c7 44 24 08 00 00 00 	movl   $0x0,0x8(%esp)
    1823:	00 
    1824:	c7 44 24 04 69 72 63 	movl   $0x20637269,0x4(%esp)
    182b:	20 
    182c:	c7 04 24 02 00 00 00 	movl   $0x2,(%esp)
    1833:	e8 e8 6d 01 00       	call   18620 <service_connect_blocking>
    1838:	89 45 d4             	mov    %eax,-0x2c(%ebp)
    183b:	85 c0                	test   %eax,%eax
    183d:	0f 84 ec 00 00 00    	je     192f <isa_enable_fun_interrupt+0x15f>
    1843:	83 ff ec             	cmp    $0xffffffec,%edi
    1846:	0f 84 11 01 00 00    	je     195d <isa_enable_fun_interrupt+0x18d>
    184c:	8b 47 14             	mov    0x14(%edi),%eax
    184f:	31 db                	xor    %ebx,%ebx
    1851:	85 c0                	test   %eax,%eax
    1853:	75 14                	jne    1869 <isa_enable_fun_interrupt+0x99>
    1855:	e9 a6 00 00 00       	jmp    1900 <isa_enable_fun_interrupt+0x130>
    185a:	8d b6 00 00 00 00    	lea    0x0(%esi),%esi
    1860:	43                   	inc    %ebx
    1861:	39 c3                	cmp    %eax,%ebx
    1863:	0f 83 97 00 00 00    	jae    1900 <isa_enable_fun_interrupt+0x130>
    1869:	8d 0c 9b             	lea    (%ebx,%ebx,4),%ecx
    186c:	8b 57 18             	mov    0x18(%edi),%edx
    186f:	8d 14 8a             	lea    (%edx,%ecx,4),%edx
    1872:	8b 0a                	mov    (%edx),%ecx
    1874:	85 c9                	test   %ecx,%ecx
    1876:	75 e8                	jne    1860 <isa_enable_fun_interrupt+0x90>
    1878:	8b 45 d4             	mov    -0x2c(%ebp),%eax
    187b:	8b 4a 04             	mov    0x4(%edx),%ecx
    187e:	89 04 24             	mov    %eax,(%esp)
    1881:	89 4d d0             	mov    %ecx,-0x30(%ebp)
    1884:	e8 47 9a 01 00       	call   1b2d0 <async_exchange_begin>
    1889:	8b 4d d0             	mov    -0x30(%ebp),%ecx
    188c:	89 4c 24 08          	mov    %ecx,0x8(%esp)
    1890:	c7 44 24 28 00 00 00 	movl   $0x0,0x28(%esp)
    1897:	00 
    1898:	c7 44 24 24 00 00 00 	movl   $0x0,0x24(%esp)
    189f:	00 
    18a0:	c7 44 24 20 00 00 00 	movl   $0x0,0x20(%esp)
    18a7:	00 
    18a8:	c7 44 24 1c 00 00 00 	movl   $0x0,0x1c(%esp)
    18af:	00 
    18b0:	c7 44 24 18 00 00 00 	movl   $0x0,0x18(%esp)
    18b7:	00 
    18b8:	c7 44 24 14 00 00 00 	movl   $0x0,0x14(%esp)
    18bf:	00 
    18c0:	c7 44 24 10 00 00 00 	movl   $0x0,0x10(%esp)
    18c7:	00 
    18c8:	c7 44 24 0c 00 00 00 	movl   $0x0,0xc(%esp)
    18cf:	00 
    18d0:	c7 44 24 04 00 04 00 	movl   $0x400,0x4(%esp)
    18d7:	00 
    18d8:	89 04 24             	mov    %eax,(%esp)
    18db:	89 c6                	mov    %eax,%esi
    18dd:	e8 9e 89 01 00       	call   1a280 <async_req_fast>
    18e2:	89 34 24             	mov    %esi,(%esp)
    18e5:	89 45 d0             	mov    %eax,-0x30(%ebp)
    18e8:	e8 53 9d 01 00       	call   1b640 <async_exchange_end>
    18ed:	8b 45 d0             	mov    -0x30(%ebp),%eax
    18f0:	85 c0                	test   %eax,%eax
    18f2:	75 5c                	jne    1950 <isa_enable_fun_interrupt+0x180>
    18f4:	8b 47 14             	mov    0x14(%edi),%eax
    18f7:	43                   	inc    %ebx
    18f8:	39 c3                	cmp    %eax,%ebx
    18fa:	0f 82 69 ff ff ff    	jb     1869 <isa_enable_fun_interrupt+0x99>
    1900:	8b 45 d4             	mov    -0x2c(%ebp),%eax
    1903:	89 04 24             	mov    %eax,(%esp)
    1906:	e8 c5 98 01 00       	call   1b1d0 <async_hangup>
    190b:	83 c4 5c             	add    $0x5c,%esp
    190e:	b0 01                	mov    $0x1,%al
    1910:	5b                   	pop    %ebx
    1911:	5e                   	pop    %esi
    1912:	5f                   	pop    %edi
    1913:	5d                   	pop    %ebp
    1914:	c3                   	ret    
    1915:	8d 76 00             	lea    0x0(%esi),%esi
    1918:	8d 45 e4             	lea    -0x1c(%ebp),%eax
    191b:	c7 04 24 3a 6c 02 00 	movl   $0x26c3a,(%esp)
    1922:	89 44 24 04          	mov    %eax,0x4(%esp)
    1926:	e8 e5 69 01 00       	call   18310 <sysinfo_get_value>
    192b:	85 c0                	test   %eax,%eax
    192d:	74 11                	je     1940 <isa_enable_fun_interrupt+0x170>
    192f:	83 c4 5c             	add    $0x5c,%esp
    1932:	31 c0                	xor    %eax,%eax
    1934:	5b                   	pop    %ebx
    1935:	5e                   	pop    %esi
    1936:	5f                   	pop    %edi
    1937:	5d                   	pop    %ebp
    1938:	c3                   	ret    
    1939:	8d b4 26 00 00 00 00 	lea    0x0(%esi,%eiz,1),%esi
    1940:	8b 5d e4             	mov    -0x1c(%ebp),%ebx
    1943:	85 db                	test   %ebx,%ebx
    1945:	0f 85 c9 fe ff ff    	jne    1814 <isa_enable_fun_interrupt+0x44>
    194b:	eb e2                	jmp    192f <isa_enable_fun_interrupt+0x15f>
    194d:	8d 76 00             	lea    0x0(%esi),%esi
    1950:	8b 45 d4             	mov    -0x2c(%ebp),%eax
    1953:	89 04 24             	mov    %eax,(%esp)
    1956:	e8 75 98 01 00       	call   1b1d0 <async_hangup>
    195b:	eb d2                	jmp    192f <isa_enable_fun_interrupt+0x15f>
    195d:	c7 44 24 08 84 00 00 	movl   $0x84,0x8(%esp)
    1964:	00 
    1965:	c7 44 24 04 29 6c 02 	movl   $0x26c29,0x4(%esp)
    196c:	00 
    196d:	c7 04 24 40 6c 02 00 	movl   $0x26c40,(%esp)
    1974:	e8 77 0c 02 00       	call   225f0 <assert_abort>
    1979:	c7 44 24 08 72 00 00 	movl   $0x72,0x8(%esp)
    1980:	00 
    1981:	c7 44 24 04 29 6c 02 	movl   $0x26c29,0x4(%esp)
    1988:	00 
    1989:	c7 04 24 2f 6c 02 00 	movl   $0x26c2f,(%esp)
    1990:	e8 5b 0c 02 00       	call   225f0 <assert_abort>
    1995:	8d 74 26 00          	lea    0x0(%esi,%eiz,1),%esi
    1999:	8d bc 27 00 00 00 00 	lea    0x0(%edi,%eiz,1),%edi

000019a0 <isa_dev_remove>:
    19a0:	55                   	push   %ebp
    19a1:	89 e5                	mov    %esp,%ebp
    19a3:	57                   	push   %edi
    19a4:	56                   	push   %esi
    19a5:	53                   	push   %ebx
    19a6:	83 ec 2c             	sub    $0x2c,%esp
    19a9:	8b 45 08             	mov    0x8(%ebp),%eax
    19ac:	89 04 24             	mov    %eax,(%esp)
    19af:	e8 6c 17 00 00       	call   3120 <ddf_dev_data_get>
    19b4:	89 c6                	mov    %eax,%esi
    19b6:	89 04 24             	mov    %eax,(%esp)
    19b9:	e8 82 cd 00 00       	call   e740 <fibril_mutex_lock>
    19be:	8d 7e 18             	lea    0x18(%esi),%edi
    19c1:	8b 5e 1c             	mov    0x1c(%esi),%ebx
    19c4:	39 fb                	cmp    %edi,%ebx
    19c6:	75 63                	jne    1a2b <isa_dev_remove+0x8b>
    19c8:	e9 ab 00 00 00       	jmp    1a78 <isa_dev_remove+0xd8>
    19cd:	8d 76 00             	lea    0x0(%esi),%esi
    19d0:	8b 43 10             	mov    0x10(%ebx),%eax
    19d3:	89 04 24             	mov    %eax,(%esp)
    19d6:	e8 e5 1b 00 00       	call   35c0 <ddf_fun_unbind>
    19db:	85 c0                	test   %eax,%eax
    19dd:	0f 85 bd 00 00 00    	jne    1aa0 <isa_dev_remove+0x100>
    19e3:	8b 53 1c             	mov    0x1c(%ebx),%edx
    19e6:	85 d2                	test   %edx,%edx
    19e8:	74 0f                	je     19f9 <isa_dev_remove+0x59>
    19ea:	8b 43 20             	mov    0x20(%ebx),%eax
    19ed:	85 c0                	test   %eax,%eax
    19ef:	74 08                	je     19f9 <isa_dev_remove+0x59>
    19f1:	89 10                	mov    %edx,(%eax)
    19f3:	8b 53 1c             	mov    0x1c(%ebx),%edx
    19f6:	89 42 04             	mov    %eax,0x4(%edx)
    19f9:	8b 43 18             	mov    0x18(%ebx),%eax
    19fc:	c7 43 1c 00 00 00 00 	movl   $0x0,0x1c(%ebx)
    1a03:	c7 43 20 00 00 00 00 	movl   $0x0,0x20(%ebx)
    1a0a:	89 04 24             	mov    %eax,(%esp)
    1a0d:	e8 1e 61 01 00       	call   17b30 <free>
    1a12:	8b 43 10             	mov    0x10(%ebx),%eax
    1a15:	c7 43 18 00 00 00 00 	movl   $0x0,0x18(%ebx)
    1a1c:	89 04 24             	mov    %eax,(%esp)
    1a1f:	e8 7c 19 00 00       	call   33a0 <ddf_fun_destroy>
    1a24:	8b 5e 1c             	mov    0x1c(%esi),%ebx
    1a27:	39 fb                	cmp    %edi,%ebx
    1a29:	74 4d                	je     1a78 <isa_dev_remove+0xd8>
    1a2b:	83 eb 1c             	sub    $0x1c,%ebx
    1a2e:	8b 43 10             	mov    0x10(%ebx),%eax
    1a31:	89 04 24             	mov    %eax,(%esp)
    1a34:	e8 67 1c 00 00       	call   36a0 <ddf_fun_offline>
    1a39:	85 c0                	test   %eax,%eax
    1a3b:	74 93                	je     19d0 <isa_dev_remove+0x30>
    1a3d:	89 34 24             	mov    %esi,(%esp)
    1a40:	89 45 e4             	mov    %eax,-0x1c(%ebp)
    1a43:	e8 18 ce 00 00       	call   e860 <fibril_mutex_unlock>
    1a48:	8b 43 10             	mov    0x10(%ebx),%eax
    1a4b:	89 04 24             	mov    %eax,(%esp)
    1a4e:	e8 3d 19 00 00       	call   3390 <ddf_fun_get_name>
    1a53:	c7 44 24 04 44 6c 02 	movl   $0x26c44,0x4(%esp)
    1a5a:	00 
    1a5b:	89 44 24 08          	mov    %eax,0x8(%esp)
    1a5f:	c7 04 24 01 00 00 00 	movl   $0x1,(%esp)
    1a66:	e8 15 22 00 00       	call   3c80 <ddf_msg>
    1a6b:	8b 55 e4             	mov    -0x1c(%ebp),%edx
    1a6e:	83 c4 2c             	add    $0x2c,%esp
    1a71:	89 d0                	mov    %edx,%eax
    1a73:	5b                   	pop    %ebx
    1a74:	5e                   	pop    %esi
    1a75:	5f                   	pop    %edi
    1a76:	5d                   	pop    %ebp
    1a77:	c3                   	ret    
    1a78:	8b 46 14             	mov    0x14(%esi),%eax
    1a7b:	89 04 24             	mov    %eax,(%esp)
    1a7e:	e8 3d 1b 00 00       	call   35c0 <ddf_fun_unbind>
    1a83:	85 c0                	test   %eax,%eax
    1a85:	75 54                	jne    1adb <isa_dev_remove+0x13b>
    1a87:	89 34 24             	mov    %esi,(%esp)
    1a8a:	e8 d1 cd 00 00       	call   e860 <fibril_mutex_unlock>
    1a8f:	83 c4 2c             	add    $0x2c,%esp
    1a92:	31 d2                	xor    %edx,%edx
    1a94:	5b                   	pop    %ebx
    1a95:	89 d0                	mov    %edx,%eax
    1a97:	5e                   	pop    %esi
    1a98:	5f                   	pop    %edi
    1a99:	5d                   	pop    %ebp
    1a9a:	c3                   	ret    
    1a9b:	90                   	nop
    1a9c:	8d 74 26 00          	lea    0x0(%esi,%eiz,1),%esi
    1aa0:	89 34 24             	mov    %esi,(%esp)
    1aa3:	89 45 e4             	mov    %eax,-0x1c(%ebp)
    1aa6:	e8 b5 cd 00 00       	call   e860 <fibril_mutex_unlock>
    1aab:	8b 43 10             	mov    0x10(%ebx),%eax
    1aae:	89 04 24             	mov    %eax,(%esp)
    1ab1:	e8 da 18 00 00       	call   3390 <ddf_fun_get_name>
    1ab6:	c7 44 24 04 58 6c 02 	movl   $0x26c58,0x4(%esp)
    1abd:	00 
    1abe:	89 44 24 08          	mov    %eax,0x8(%esp)
    1ac2:	c7 04 24 01 00 00 00 	movl   $0x1,(%esp)
    1ac9:	e8 b2 21 00 00       	call   3c80 <ddf_msg>
    1ace:	8b 55 e4             	mov    -0x1c(%ebp),%edx
    1ad1:	83 c4 2c             	add    $0x2c,%esp
    1ad4:	89 d0                	mov    %edx,%eax
    1ad6:	5b                   	pop    %ebx
    1ad7:	5e                   	pop    %esi
    1ad8:	5f                   	pop    %edi
    1ad9:	5d                   	pop    %ebp
    1ada:	c3                   	ret    
    1adb:	89 34 24             	mov    %esi,(%esp)
    1ade:	e8 7d cd 00 00       	call   e860 <fibril_mutex_unlock>
    1ae3:	c7 44 24 04 04 6e 02 	movl   $0x26e04,0x4(%esp)
    1aea:	00 
    1aeb:	c7 04 24 01 00 00 00 	movl   $0x1,(%esp)
    1af2:	e8 89 21 00 00       	call   3c80 <ddf_msg>
    1af7:	ba f8 fe ff ff       	mov    $0xfffffef8,%edx
    1afc:	e9 6d ff ff ff       	jmp    1a6e <isa_dev_remove+0xce>
    1b01:	eb 0d                	jmp    1b10 <isa_dma_channel_fun_setup>
    1b03:	90                   	nop
    1b04:	90                   	nop
    1b05:	90                   	nop
    1b06:	90                   	nop
    1b07:	90                   	nop
    1b08:	90                   	nop
    1b09:	90                   	nop
    1b0a:	90                   	nop
    1b0b:	90                   	nop
    1b0c:	90                   	nop
    1b0d:	90                   	nop
    1b0e:	90                   	nop
    1b0f:	90                   	nop

00001b10 <isa_dma_channel_fun_setup>:
    1b10:	55                   	push   %ebp
    1b11:	89 e5                	mov    %esp,%ebp
    1b13:	57                   	push   %edi
    1b14:	56                   	push   %esi
    1b15:	53                   	push   %ebx
    1b16:	83 ec 2c             	sub    $0x2c,%esp
    1b19:	8b 55 10             	mov    0x10(%ebp),%edx
    1b1c:	8b 45 08             	mov    0x8(%ebp),%eax
    1b1f:	89 55 e4             	mov    %edx,-0x1c(%ebp)
    1b22:	8a 55 18             	mov    0x18(%ebp),%dl
    1b25:	8b 75 0c             	mov    0xc(%ebp),%esi
    1b28:	8b 5d 14             	mov    0x14(%ebp),%ebx
    1b2b:	88 55 e3             	mov    %dl,-0x1d(%ebp)
    1b2e:	85 c0                	test   %eax,%eax
    1b30:	0f 84 8b 00 00 00    	je     1bc1 <isa_dma_channel_fun_setup+0xb1>
    1b36:	89 04 24             	mov    %eax,(%esp)
    1b39:	e8 42 18 00 00       	call   3380 <ddf_fun_data_get>
    1b3e:	83 f8 ec             	cmp    $0xffffffec,%eax
    1b41:	74 62                	je     1ba5 <isa_dma_channel_fun_setup+0x95>
    1b43:	8b 78 14             	mov    0x14(%eax),%edi
    1b46:	85 ff                	test   %edi,%edi
    1b48:	74 4e                	je     1b98 <isa_dma_channel_fun_setup+0x88>
    1b4a:	8b 40 18             	mov    0x18(%eax),%eax
    1b4d:	31 d2                	xor    %edx,%edx
    1b4f:	eb 14                	jmp    1b65 <isa_dma_channel_fun_setup+0x55>
    1b51:	8d b4 26 00 00 00 00 	lea    0x0(%esi,%eiz,1),%esi
    1b58:	83 f9 03             	cmp    $0x3,%ecx
    1b5b:	74 0f                	je     1b6c <isa_dma_channel_fun_setup+0x5c>
    1b5d:	42                   	inc    %edx
    1b5e:	83 c0 14             	add    $0x14,%eax
    1b61:	39 fa                	cmp    %edi,%edx
    1b63:	74 33                	je     1b98 <isa_dma_channel_fun_setup+0x88>
    1b65:	8b 08                	mov    (%eax),%ecx
    1b67:	83 f9 04             	cmp    $0x4,%ecx
    1b6a:	75 ec                	jne    1b58 <isa_dma_channel_fun_setup+0x48>
    1b6c:	3b 70 04             	cmp    0x4(%eax),%esi
    1b6f:	75 ec                	jne    1b5d <isa_dma_channel_fun_setup+0x4d>
    1b71:	31 c0                	xor    %eax,%eax
    1b73:	8b 55 e4             	mov    -0x1c(%ebp),%edx
    1b76:	8a 45 e3             	mov    -0x1d(%ebp),%al
    1b79:	81 e3 ff ff 00 00    	and    $0xffff,%ebx
    1b7f:	89 5d 10             	mov    %ebx,0x10(%ebp)
    1b82:	89 75 08             	mov    %esi,0x8(%ebp)
    1b85:	89 45 14             	mov    %eax,0x14(%ebp)
    1b88:	89 55 0c             	mov    %edx,0xc(%ebp)
    1b8b:	83 c4 2c             	add    $0x2c,%esp
    1b8e:	5b                   	pop    %ebx
    1b8f:	5e                   	pop    %esi
    1b90:	5f                   	pop    %edi
    1b91:	5d                   	pop    %ebp
    1b92:	e9 29 f5 ff ff       	jmp    10c0 <dma_setup_channel>
    1b97:	90                   	nop
    1b98:	83 c4 2c             	add    $0x2c,%esp
    1b9b:	b8 f2 ff ff ff       	mov    $0xfffffff2,%eax
    1ba0:	5b                   	pop    %ebx
    1ba1:	5e                   	pop    %esi
    1ba2:	5f                   	pop    %edi
    1ba3:	5d                   	pop    %ebp
    1ba4:	c3                   	ret    
    1ba5:	c7 44 24 08 9f 00 00 	movl   $0x9f,0x8(%esp)
    1bac:	00 
    1bad:	c7 44 24 04 29 6c 02 	movl   $0x26c29,0x4(%esp)
    1bb4:	00 
    1bb5:	c7 04 24 40 6c 02 00 	movl   $0x26c40,(%esp)
    1bbc:	e8 2f 0a 02 00       	call   225f0 <assert_abort>
    1bc1:	c7 44 24 08 9c 00 00 	movl   $0x9c,0x8(%esp)
    1bc8:	00 
    1bc9:	c7 44 24 04 29 6c 02 	movl   $0x26c29,0x4(%esp)
    1bd0:	00 
    1bd1:	c7 04 24 2f 6c 02 00 	movl   $0x26c2f,(%esp)
    1bd8:	e8 13 0a 02 00       	call   225f0 <assert_abort>
    1bdd:	8d 76 00             	lea    0x0(%esi),%esi

00001be0 <isa_get_fun_resources>:
    1be0:	55                   	push   %ebp
    1be1:	89 e5                	mov    %esp,%ebp
    1be3:	83 ec 18             	sub    $0x18,%esp
    1be6:	8b 45 08             	mov    0x8(%ebp),%eax
    1be9:	89 04 24             	mov    %eax,(%esp)
    1bec:	e8 8f 17 00 00       	call   3380 <ddf_fun_data_get>
    1bf1:	85 c0                	test   %eax,%eax
    1bf3:	74 05                	je     1bfa <isa_get_fun_resources+0x1a>
    1bf5:	83 c0 14             	add    $0x14,%eax
    1bf8:	c9                   	leave  
    1bf9:	c3                   	ret    
    1bfa:	c7 44 24 08 6a 00 00 	movl   $0x6a,0x8(%esp)
    1c01:	00 
    1c02:	c7 44 24 04 29 6c 02 	movl   $0x26c29,0x4(%esp)
    1c09:	00 
    1c0a:	c7 04 24 6c 6c 02 00 	movl   $0x26c6c,(%esp)
    1c11:	e8 da 09 02 00       	call   225f0 <assert_abort>
    1c16:	8d 76 00             	lea    0x0(%esi),%esi
    1c19:	8d bc 27 00 00 00 00 	lea    0x0(%edi,%eiz,1),%edi

00001c20 <isa_dev_add>:
    1c20:	55                   	push   %ebp
    1c21:	89 e5                	mov    %esp,%ebp
    1c23:	57                   	push   %edi
    1c24:	56                   	push   %esi
    1c25:	53                   	push   %ebx
    1c26:	83 ec 5c             	sub    $0x5c,%esp
    1c29:	8b 5d 08             	mov    0x8(%ebp),%ebx
    1c2c:	89 1c 24             	mov    %ebx,(%esp)
    1c2f:	e8 fc 14 00 00       	call   3130 <ddf_dev_get_handle>
    1c34:	c7 44 24 04 28 6e 02 	movl   $0x26e28,0x4(%esp)
    1c3b:	00 
    1c3c:	89 44 24 08          	mov    %eax,0x8(%esp)
    1c40:	c7 04 24 04 00 00 00 	movl   $0x4,(%esp)
    1c47:	e8 34 20 00 00       	call   3c80 <ddf_msg>
    1c4c:	c7 44 24 04 20 00 00 	movl   $0x20,0x4(%esp)
    1c53:	00 
    1c54:	89 1c 24             	mov    %ebx,(%esp)
    1c57:	e8 34 14 00 00       	call   3090 <ddf_dev_data_alloc>
    1c5c:	89 45 cc             	mov    %eax,-0x34(%ebp)
    1c5f:	85 c0                	test   %eax,%eax
    1c61:	0f 84 a9 08 00 00    	je     2510 <isa_dev_add+0x8f0>
    1c67:	89 04 24             	mov    %eax,(%esp)
    1c6a:	e8 b1 ca 00 00       	call   e720 <fibril_mutex_initialize>
    1c6f:	8b 45 cc             	mov    -0x34(%ebp),%eax
    1c72:	8b 55 cc             	mov    -0x34(%ebp),%edx
    1c75:	89 58 10             	mov    %ebx,0x10(%eax)
    1c78:	83 c0 18             	add    $0x18,%eax
    1c7b:	89 42 18             	mov    %eax,0x18(%edx)
    1c7e:	89 42 1c             	mov    %eax,0x1c(%edx)
    1c81:	c7 44 24 04 78 6c 02 	movl   $0x26c78,0x4(%esp)
    1c88:	00 
    1c89:	c7 04 24 04 00 00 00 	movl   $0x4,(%esp)
    1c90:	89 45 c4             	mov    %eax,-0x3c(%ebp)
    1c93:	e8 e8 1f 00 00       	call   3c80 <ddf_msg>
    1c98:	8b 45 cc             	mov    -0x34(%ebp),%eax
    1c9b:	89 04 24             	mov    %eax,(%esp)
    1c9e:	e8 9d ca 00 00       	call   e740 <fibril_mutex_lock>
    1ca3:	c7 44 24 08 90 6c 02 	movl   $0x26c90,0x8(%esp)
    1caa:	00 
    1cab:	c7 44 24 04 02 00 00 	movl   $0x2,0x4(%esp)
    1cb2:	00 
    1cb3:	89 1c 24             	mov    %ebx,(%esp)
    1cb6:	e8 65 15 00 00       	call   3220 <ddf_fun_create>
    1cbb:	8b 55 cc             	mov    -0x34(%ebp),%edx
    1cbe:	85 c0                	test   %eax,%eax
    1cc0:	89 42 14             	mov    %eax,0x14(%edx)
    1cc3:	0f 84 51 08 00 00    	je     251a <isa_dev_add+0x8fa>
    1cc9:	89 04 24             	mov    %eax,(%esp)
    1ccc:	e8 df 17 00 00       	call   34b0 <ddf_fun_bind>
    1cd1:	85 c0                	test   %eax,%eax
    1cd3:	0f 85 c8 07 00 00    	jne    24a1 <isa_dev_add+0x881>
    1cd9:	c7 44 24 04 10 00 00 	movl   $0x10,0x4(%esp)
    1ce0:	00 
    1ce1:	c7 04 24 94 6c 02 00 	movl   $0x26c94,(%esp)
    1ce8:	e8 03 e9 01 00       	call   205f0 <open>
    1ced:	89 c3                	mov    %eax,%ebx
    1cef:	85 c0                	test   %eax,%eax
    1cf1:	0f 88 3d 07 00 00    	js     2434 <isa_dev_add+0x814>
    1cf7:	c7 44 24 0c 02 00 00 	movl   $0x2,0xc(%esp)
    1cfe:	00 
    1cff:	c7 44 24 04 00 00 00 	movl   $0x0,0x4(%esp)
    1d06:	00 
    1d07:	c7 44 24 08 00 00 00 	movl   $0x0,0x8(%esp)
    1d0e:	00 
    1d0f:	89 04 24             	mov    %eax,(%esp)
    1d12:	e8 c9 f0 01 00       	call   20de0 <lseek>
    1d17:	c7 44 24 0c 00 00 00 	movl   $0x0,0xc(%esp)
    1d1e:	00 
    1d1f:	89 c6                	mov    %eax,%esi
    1d21:	c7 44 24 04 00 00 00 	movl   $0x0,0x4(%esp)
    1d28:	00 
    1d29:	c7 44 24 08 00 00 00 	movl   $0x0,0x8(%esp)
    1d30:	00 
    1d31:	89 1c 24             	mov    %ebx,(%esp)
    1d34:	e8 a7 f0 01 00       	call   20de0 <lseek>
    1d39:	85 f6                	test   %esi,%esi
    1d3b:	0f 84 af 02 00 00    	je     1ff0 <isa_dev_add+0x3d0>
    1d41:	8d 46 01             	lea    0x1(%esi),%eax
    1d44:	89 04 24             	mov    %eax,(%esp)
    1d47:	e8 d4 5c 01 00       	call   17a20 <malloc>
    1d4c:	89 45 c8             	mov    %eax,-0x38(%ebp)
    1d4f:	85 c0                	test   %eax,%eax
    1d51:	0f 84 31 07 00 00    	je     2488 <isa_dev_add+0x868>
    1d57:	89 74 24 08          	mov    %esi,0x8(%esp)
    1d5b:	89 44 24 04          	mov    %eax,0x4(%esp)
    1d5f:	89 1c 24             	mov    %ebx,(%esp)
    1d62:	e8 a9 ea 01 00       	call   20810 <read>
    1d67:	85 c0                	test   %eax,%eax
    1d69:	0f 8e e6 06 00 00    	jle    2455 <isa_dev_add+0x835>
    1d6f:	8b 45 c8             	mov    -0x38(%ebp),%eax
    1d72:	c6 04 30 00          	movb   $0x0,(%eax,%esi,1)
    1d76:	89 1c 24             	mov    %ebx,(%esp)
    1d79:	e8 b2 e9 01 00       	call   20730 <close>
    1d7e:	8b 4d c8             	mov    -0x38(%ebp),%ecx
    1d81:	85 c9                	test   %ecx,%ecx
    1d83:	0f 84 c2 03 00 00    	je     214b <isa_dev_add+0x52b>
    1d89:	8b 7d c8             	mov    -0x38(%ebp),%edi
    1d8c:	8a 07                	mov    (%edi),%al
    1d8e:	84 c0                	test   %al,%al
    1d90:	0f 84 aa 03 00 00    	je     2140 <isa_dev_add+0x520>
    1d96:	89 fa                	mov    %edi,%edx
    1d98:	3c 0a                	cmp    $0xa,%al
    1d9a:	75 0b                	jne    1da7 <isa_dev_add+0x187>
    1d9c:	eb 0d                	jmp    1dab <isa_dev_add+0x18b>
    1d9e:	66 90                	xchg   %ax,%ax
    1da0:	42                   	inc    %edx
    1da1:	8a 02                	mov    (%edx),%al
    1da3:	3c 0a                	cmp    $0xa,%al
    1da5:	74 04                	je     1dab <isa_dev_add+0x18b>
    1da7:	84 c0                	test   %al,%al
    1da9:	75 f5                	jne    1da0 <isa_dev_add+0x180>
    1dab:	31 f6                	xor    %esi,%esi
    1dad:	84 c0                	test   %al,%al
    1daf:	74 03                	je     1db4 <isa_dev_add+0x194>
    1db1:	8d 72 01             	lea    0x1(%edx),%esi
    1db4:	c6 02 00             	movb   $0x0,(%edx)
    1db7:	89 f8                	mov    %edi,%eax
    1db9:	eb 17                	jmp    1dd2 <isa_dev_add+0x1b2>
    1dbb:	90                   	nop
    1dbc:	8d 74 26 00          	lea    0x0(%esi,%eiz,1),%esi
    1dc0:	8b 14 95 40 6f 02 00 	mov    0x26f40(,%edx,4),%edx
    1dc7:	85 d2                	test   %edx,%edx
    1dc9:	74 1a                	je     1de5 <isa_dev_add+0x1c5>
    1dcb:	40                   	inc    %eax
    1dcc:	0f 84 1e 04 00 00    	je     21f0 <isa_dev_add+0x5d0>
    1dd2:	0f be 10             	movsbl (%eax),%edx
    1dd5:	84 d2                	test   %dl,%dl
    1dd7:	0f 84 13 04 00 00    	je     21f0 <isa_dev_add+0x5d0>
    1ddd:	83 ea 09             	sub    $0x9,%edx
    1de0:	83 fa 17             	cmp    $0x17,%edx
    1de3:	76 db                	jbe    1dc0 <isa_dev_add+0x1a0>
    1de5:	0f be 07             	movsbl (%edi),%eax
    1de8:	84 c0                	test   %al,%al
    1dea:	74 0c                	je     1df8 <isa_dev_add+0x1d8>
    1dec:	83 e8 09             	sub    $0x9,%eax
    1def:	83 f8 17             	cmp    $0x17,%eax
    1df2:	0f 86 10 04 00 00    	jbe    2208 <isa_dev_add+0x5e8>
    1df8:	c7 44 24 04 eb 6c 02 	movl   $0x26ceb,0x4(%esp)
    1dff:	00 
    1e00:	89 3c 24             	mov    %edi,(%esp)
    1e03:	e8 48 b9 00 00       	call   d750 <strtok>
    1e08:	89 3c 24             	mov    %edi,(%esp)
    1e0b:	e8 60 96 00 00       	call   b470 <str_size>
    1e10:	8d 50 01             	lea    0x1(%eax),%edx
    1e13:	89 14 24             	mov    %edx,(%esp)
    1e16:	89 55 c0             	mov    %edx,-0x40(%ebp)
    1e19:	e8 02 5c 01 00       	call   17a20 <malloc>
    1e1e:	8b 55 c0             	mov    -0x40(%ebp),%edx
    1e21:	89 c3                	mov    %eax,%ebx
    1e23:	85 c0                	test   %eax,%eax
    1e25:	0f 84 15 03 00 00    	je     2140 <isa_dev_add+0x520>
    1e2b:	89 7c 24 08          	mov    %edi,0x8(%esp)
    1e2f:	89 54 24 04          	mov    %edx,0x4(%esp)
    1e33:	89 04 24             	mov    %eax,(%esp)
    1e36:	e8 e5 a1 00 00       	call   c020 <str_cpy>
    1e3b:	8b 55 cc             	mov    -0x34(%ebp),%edx
    1e3e:	89 5c 24 08          	mov    %ebx,0x8(%esp)
    1e42:	c7 44 24 04 01 00 00 	movl   $0x1,0x4(%esp)
    1e49:	00 
    1e4a:	8b 42 10             	mov    0x10(%edx),%eax
    1e4d:	89 04 24             	mov    %eax,(%esp)
    1e50:	e8 cb 13 00 00       	call   3220 <ddf_fun_create>
    1e55:	89 c7                	mov    %eax,%edi
    1e57:	85 c0                	test   %eax,%eax
    1e59:	0f 84 bd 05 00 00    	je     241c <isa_dev_add+0x7fc>
    1e5f:	c7 44 24 04 24 00 00 	movl   $0x24,0x4(%esp)
    1e66:	00 
    1e67:	89 04 24             	mov    %eax,(%esp)
    1e6a:	e8 a1 14 00 00       	call   3310 <ddf_fun_data_alloc>
    1e6f:	89 45 d4             	mov    %eax,-0x2c(%ebp)
    1e72:	85 c0                	test   %eax,%eax
    1e74:	0f 84 9a 05 00 00    	je     2414 <isa_dev_add+0x7f4>
    1e7a:	89 04 24             	mov    %eax,(%esp)
    1e7d:	e8 9e c8 00 00       	call   e720 <fibril_mutex_initialize>
    1e82:	8b 45 d4             	mov    -0x2c(%ebp),%eax
    1e85:	89 78 10             	mov    %edi,0x10(%eax)
    1e88:	89 1c 24             	mov    %ebx,(%esp)
    1e8b:	e8 a0 5c 01 00       	call   17b30 <free>
    1e90:	c7 04 24 64 00 00 00 	movl   $0x64,(%esp)
    1e97:	e8 84 5b 01 00       	call   17a20 <malloc>
    1e9c:	8b 55 d4             	mov    -0x2c(%ebp),%edx
    1e9f:	85 f6                	test   %esi,%esi
    1ea1:	89 42 18             	mov    %eax,0x18(%edx)
    1ea4:	0f 84 13 02 00 00    	je     20bd <isa_dev_add+0x49d>
    1eaa:	8d b6 00 00 00 00    	lea    0x0(%esi),%esi
    1eb0:	8a 06                	mov    (%esi),%al
    1eb2:	89 f2                	mov    %esi,%edx
    1eb4:	84 c0                	test   %al,%al
    1eb6:	74 13                	je     1ecb <isa_dev_add+0x2ab>
    1eb8:	3c 0a                	cmp    $0xa,%al
    1eba:	75 08                	jne    1ec4 <isa_dev_add+0x2a4>
    1ebc:	eb 0d                	jmp    1ecb <isa_dev_add+0x2ab>
    1ebe:	66 90                	xchg   %ax,%ax
    1ec0:	84 c0                	test   %al,%al
    1ec2:	74 07                	je     1ecb <isa_dev_add+0x2ab>
    1ec4:	42                   	inc    %edx
    1ec5:	8a 02                	mov    (%edx),%al
    1ec7:	3c 0a                	cmp    $0xa,%al
    1ec9:	75 f5                	jne    1ec0 <isa_dev_add+0x2a0>
    1ecb:	31 ff                	xor    %edi,%edi
    1ecd:	84 c0                	test   %al,%al
    1ecf:	74 03                	je     1ed4 <isa_dev_add+0x2b4>
    1ed1:	8d 7a 01             	lea    0x1(%edx),%edi
    1ed4:	c6 02 00             	movb   $0x0,(%edx)
    1ed7:	0f be 16             	movsbl (%esi),%edx
    1eda:	84 d2                	test   %dl,%dl
    1edc:	0f 84 de 01 00 00    	je     20c0 <isa_dev_add+0x4a0>
    1ee2:	83 ea 09             	sub    $0x9,%edx
    1ee5:	83 fa 17             	cmp    $0x17,%edx
    1ee8:	77 52                	ja     1f3c <isa_dev_add+0x31c>
    1eea:	8b 1c 95 40 6f 02 00 	mov    0x26f40(,%edx,4),%ebx
    1ef1:	85 db                	test   %ebx,%ebx
    1ef3:	74 21                	je     1f16 <isa_dev_add+0x2f6>
    1ef5:	89 f0                	mov    %esi,%eax
    1ef7:	90                   	nop
    1ef8:	40                   	inc    %eax
    1ef9:	0f 84 c1 01 00 00    	je     20c0 <isa_dev_add+0x4a0>
    1eff:	0f be 08             	movsbl (%eax),%ecx
    1f02:	84 c9                	test   %cl,%cl
    1f04:	0f 84 b6 01 00 00    	je     20c0 <isa_dev_add+0x4a0>
    1f0a:	83 e9 09             	sub    $0x9,%ecx
    1f0d:	83 f9 17             	cmp    $0x17,%ecx
    1f10:	0f 86 02 01 00 00    	jbe    2018 <isa_dev_add+0x3f8>
    1f16:	8b 04 95 40 6f 02 00 	mov    0x26f40(,%edx,4),%eax
    1f1d:	85 c0                	test   %eax,%eax
    1f1f:	74 1b                	je     1f3c <isa_dev_add+0x31c>
    1f21:	8d b4 26 00 00 00 00 	lea    0x0(%esi,%eiz,1),%esi
    1f28:	46                   	inc    %esi
    1f29:	0f be 06             	movsbl (%esi),%eax
    1f2c:	84 c0                	test   %al,%al
    1f2e:	74 0c                	je     1f3c <isa_dev_add+0x31c>
    1f30:	83 e8 09             	sub    $0x9,%eax
    1f33:	83 f8 17             	cmp    $0x17,%eax
    1f36:	0f 86 f4 00 00 00    	jbe    2030 <isa_dev_add+0x410>
    1f3c:	c7 04 24 ed 6c 02 00 	movl   $0x26ced,(%esp)
    1f43:	e8 28 95 00 00       	call   b470 <str_size>
    1f48:	c7 44 24 04 ed 6c 02 	movl   $0x26ced,0x4(%esp)
    1f4f:	00 
    1f50:	89 44 24 08          	mov    %eax,0x8(%esp)
    1f54:	89 34 24             	mov    %esi,(%esp)
    1f57:	89 c3                	mov    %eax,%ebx
    1f59:	e8 72 9c 00 00       	call   bbd0 <str_lcmp>
    1f5e:	85 c0                	test   %eax,%eax
    1f60:	0f 85 ba 02 00 00    	jne    2220 <isa_dev_add+0x600>
    1f66:	01 de                	add    %ebx,%esi
    1f68:	0f be 06             	movsbl (%esi),%eax
    1f6b:	84 c0                	test   %al,%al
    1f6d:	0f 84 d5 00 00 00    	je     2048 <isa_dev_add+0x428>
    1f73:	8d 48 f7             	lea    -0x9(%eax),%ecx
    1f76:	83 f9 17             	cmp    $0x17,%ecx
    1f79:	0f 87 c9 00 00 00    	ja     2048 <isa_dev_add+0x428>
    1f7f:	8b 0c 8d 40 6f 02 00 	mov    0x26f40(,%ecx,4),%ecx
    1f86:	85 c9                	test   %ecx,%ecx
    1f88:	74 29                	je     1fb3 <isa_dev_add+0x393>
    1f8a:	8d b6 00 00 00 00    	lea    0x0(%esi),%esi
    1f90:	46                   	inc    %esi
    1f91:	0f be 06             	movsbl (%esi),%eax
    1f94:	84 c0                	test   %al,%al
    1f96:	0f 84 ac 00 00 00    	je     2048 <isa_dev_add+0x428>
    1f9c:	8d 50 f7             	lea    -0x9(%eax),%edx
    1f9f:	83 fa 17             	cmp    $0x17,%edx
    1fa2:	0f 87 a0 00 00 00    	ja     2048 <isa_dev_add+0x428>
    1fa8:	8b 14 95 40 6f 02 00 	mov    0x26f40(,%edx,4),%edx
    1faf:	85 d2                	test   %edx,%edx
    1fb1:	75 dd                	jne    1f90 <isa_dev_add+0x370>
    1fb3:	8b 04 85 1c 6f 02 00 	mov    0x26f1c(,%eax,4),%eax
    1fba:	c7 45 e4 00 00 00 00 	movl   $0x0,-0x1c(%ebp)
    1fc1:	85 c0                	test   %eax,%eax
    1fc3:	0f 84 86 00 00 00    	je     204f <isa_dev_add+0x42f>
    1fc9:	8d b4 26 00 00 00 00 	lea    0x0(%esi,%eiz,1),%esi
    1fd0:	46                   	inc    %esi
    1fd1:	0f be 06             	movsbl (%esi),%eax
    1fd4:	84 c0                	test   %al,%al
    1fd6:	74 77                	je     204f <isa_dev_add+0x42f>
    1fd8:	83 e8 09             	sub    $0x9,%eax
    1fdb:	83 f8 17             	cmp    $0x17,%eax
    1fde:	77 6f                	ja     204f <isa_dev_add+0x42f>
    1fe0:	8b 04 85 40 6f 02 00 	mov    0x26f40(,%eax,4),%eax
    1fe7:	85 c0                	test   %eax,%eax
    1fe9:	75 e5                	jne    1fd0 <isa_dev_add+0x3b0>
    1feb:	eb 62                	jmp    204f <isa_dev_add+0x42f>
    1fed:	8d 76 00             	lea    0x0(%esi),%esi
    1ff0:	c7 44 24 08 94 6c 02 	movl   $0x26c94,0x8(%esp)
    1ff7:	00 
    1ff8:	c7 44 24 04 90 6e 02 	movl   $0x26e90,0x4(%esp)
    1fff:	00 
    2000:	c7 04 24 01 00 00 00 	movl   $0x1,(%esp)
    2007:	e8 74 1c 00 00       	call   3c80 <ddf_msg>
    200c:	c7 45 c8 00 00 00 00 	movl   $0x0,-0x38(%ebp)
    2013:	e9 5e fd ff ff       	jmp    1d76 <isa_dev_add+0x156>
    2018:	8b 0c 8d 40 6f 02 00 	mov    0x26f40(,%ecx,4),%ecx
    201f:	85 c9                	test   %ecx,%ecx
    2021:	0f 85 d1 fe ff ff    	jne    1ef8 <isa_dev_add+0x2d8>
    2027:	e9 ea fe ff ff       	jmp    1f16 <isa_dev_add+0x2f6>
    202c:	8d 74 26 00          	lea    0x0(%esi,%eiz,1),%esi
    2030:	8b 1c 85 40 6f 02 00 	mov    0x26f40(,%eax,4),%ebx
    2037:	85 db                	test   %ebx,%ebx
    2039:	0f 85 e9 fe ff ff    	jne    1f28 <isa_dev_add+0x308>
    203f:	e9 f8 fe ff ff       	jmp    1f3c <isa_dev_add+0x31c>
    2044:	8d 74 26 00          	lea    0x0(%esi,%eiz,1),%esi
    2048:	c7 45 e4 00 00 00 00 	movl   $0x0,-0x1c(%ebp)
    204f:	8d 4d e4             	lea    -0x1c(%ebp),%ecx
    2052:	c7 44 24 08 10 00 00 	movl   $0x10,0x8(%esp)
    2059:	00 
    205a:	89 4c 24 04          	mov    %ecx,0x4(%esp)
    205e:	89 34 24             	mov    %esi,(%esp)
    2061:	e8 6a b3 00 00       	call   d3d0 <strtol>
    2066:	8b 5d e4             	mov    -0x1c(%ebp),%ebx
    2069:	89 45 d0             	mov    %eax,-0x30(%ebp)
    206c:	39 de                	cmp    %ebx,%esi
    206e:	74 43                	je     20b3 <isa_dev_add+0x493>
    2070:	0f be 03             	movsbl (%ebx),%eax
    2073:	84 c0                	test   %al,%al
    2075:	74 0c                	je     2083 <isa_dev_add+0x463>
    2077:	83 e8 09             	sub    $0x9,%eax
    207a:	83 f8 17             	cmp    $0x17,%eax
    207d:	0f 86 55 01 00 00    	jbe    21d8 <isa_dev_add+0x5b8>
    2083:	8d 45 e4             	lea    -0x1c(%ebp),%eax
    2086:	c7 44 24 08 10 00 00 	movl   $0x10,0x8(%esp)
    208d:	00 
    208e:	89 44 24 04          	mov    %eax,0x4(%esp)
    2092:	89 1c 24             	mov    %ebx,(%esp)
    2095:	e8 36 b3 00 00       	call   d3d0 <strtol>
    209a:	3b 5d e4             	cmp    -0x1c(%ebp),%ebx
    209d:	89 c6                	mov    %eax,%esi
    209f:	74 12                	je     20b3 <isa_dev_add+0x493>
    20a1:	8b 45 d4             	mov    -0x2c(%ebp),%eax
    20a4:	8b 50 14             	mov    0x14(%eax),%edx
    20a7:	8b 40 18             	mov    0x18(%eax),%eax
    20aa:	83 fa 04             	cmp    $0x4,%edx
    20ad:	0f 86 c5 00 00 00    	jbe    2178 <isa_dev_add+0x558>
    20b3:	89 fe                	mov    %edi,%esi
    20b5:	85 f6                	test   %esi,%esi
    20b7:	0f 85 f3 fd ff ff    	jne    1eb0 <isa_dev_add+0x290>
    20bd:	31 ff                	xor    %edi,%edi
    20bf:	90                   	nop
    20c0:	8b 55 d4             	mov    -0x2c(%ebp),%edx
    20c3:	c7 44 24 04 40 a5 02 	movl   $0x2a540,0x4(%esp)
    20ca:	00 
    20cb:	8b 42 10             	mov    0x10(%edx),%eax
    20ce:	89 04 24             	mov    %eax,(%esp)
    20d1:	e8 da 16 00 00       	call   37b0 <ddf_fun_set_ops>
    20d6:	8b 4d d4             	mov    -0x2c(%ebp),%ecx
    20d9:	8b 41 10             	mov    0x10(%ecx),%eax
    20dc:	89 04 24             	mov    %eax,(%esp)
    20df:	e8 ac 12 00 00       	call   3390 <ddf_fun_get_name>
    20e4:	c7 44 24 04 14 6d 02 	movl   $0x26d14,0x4(%esp)
    20eb:	00 
    20ec:	89 44 24 08          	mov    %eax,0x8(%esp)
    20f0:	c7 04 24 04 00 00 00 	movl   $0x4,(%esp)
    20f7:	e8 84 1b 00 00       	call   3c80 <ddf_msg>
    20fc:	8b 55 d4             	mov    -0x2c(%ebp),%edx
    20ff:	8b 42 10             	mov    0x10(%edx),%eax
    2102:	89 04 24             	mov    %eax,(%esp)
    2105:	e8 a6 13 00 00       	call   34b0 <ddf_fun_bind>
    210a:	8b 4d d4             	mov    -0x2c(%ebp),%ecx
    210d:	8b 55 c4             	mov    -0x3c(%ebp),%edx
    2110:	8b 45 d4             	mov    -0x2c(%ebp),%eax
    2113:	89 51 20             	mov    %edx,0x20(%ecx)
    2116:	8b 4d cc             	mov    -0x34(%ebp),%ecx
    2119:	83 c0 1c             	add    $0x1c,%eax
    211c:	85 ff                	test   %edi,%edi
    211e:	8b 51 18             	mov    0x18(%ecx),%edx
    2121:	8b 4d d4             	mov    -0x2c(%ebp),%ecx
    2124:	89 51 1c             	mov    %edx,0x1c(%ecx)
    2127:	8b 4d cc             	mov    -0x34(%ebp),%ecx
    212a:	8b 51 18             	mov    0x18(%ecx),%edx
    212d:	89 41 18             	mov    %eax,0x18(%ecx)
    2130:	89 42 04             	mov    %eax,0x4(%edx)
    2133:	0f 85 53 fc ff ff    	jne    1d8c <isa_dev_add+0x16c>
    2139:	8d b4 26 00 00 00 00 	lea    0x0(%esi,%eiz,1),%esi
    2140:	8b 45 c8             	mov    -0x38(%ebp),%eax
    2143:	89 04 24             	mov    %eax,(%esp)
    2146:	e8 e5 59 01 00       	call   17b30 <free>
    214b:	c7 44 24 04 ec 6e 02 	movl   $0x26eec,0x4(%esp)
    2152:	00 
    2153:	c7 04 24 03 00 00 00 	movl   $0x3,(%esp)
    215a:	e8 21 1b 00 00       	call   3c80 <ddf_msg>
    215f:	8b 45 cc             	mov    -0x34(%ebp),%eax
    2162:	89 04 24             	mov    %eax,(%esp)
    2165:	e8 f6 c6 00 00       	call   e860 <fibril_mutex_unlock>
    216a:	31 c0                	xor    %eax,%eax
    216c:	83 c4 5c             	add    $0x5c,%esp
    216f:	5b                   	pop    %ebx
    2170:	5e                   	pop    %esi
    2171:	5f                   	pop    %edi
    2172:	5d                   	pop    %ebp
    2173:	c3                   	ret    
    2174:	8d 74 26 00          	lea    0x0(%esi,%eiz,1),%esi
    2178:	8d 1c 92             	lea    (%edx,%edx,4),%ebx
    217b:	8b 4d d0             	mov    -0x30(%ebp),%ecx
    217e:	42                   	inc    %edx
    217f:	8d 04 98             	lea    (%eax,%ebx,4),%eax
    2182:	89 70 10             	mov    %esi,0x10(%eax)
    2185:	89 48 04             	mov    %ecx,0x4(%eax)
    2188:	c7 00 01 00 00 00    	movl   $0x1,(%eax)
    218e:	c7 40 08 00 00 00 00 	movl   $0x0,0x8(%eax)
    2195:	c7 40 0c 00 00 00 00 	movl   $0x0,0xc(%eax)
    219c:	8b 45 d4             	mov    -0x2c(%ebp),%eax
    219f:	89 50 14             	mov    %edx,0x14(%eax)
    21a2:	8b 40 10             	mov    0x10(%eax),%eax
    21a5:	89 04 24             	mov    %eax,(%esp)
    21a8:	e8 e3 11 00 00       	call   3390 <ddf_fun_get_name>
    21ad:	89 74 24 0c          	mov    %esi,0xc(%esp)
    21b1:	89 44 24 10          	mov    %eax,0x10(%esp)
    21b5:	8b 45 d0             	mov    -0x30(%ebp),%eax
    21b8:	89 44 24 08          	mov    %eax,0x8(%esp)
    21bc:	c7 44 24 04 b4 6e 02 	movl   $0x26eb4,0x4(%esp)
    21c3:	00 
    21c4:	c7 04 24 03 00 00 00 	movl   $0x3,(%esp)
    21cb:	89 fe                	mov    %edi,%esi
    21cd:	e8 ae 1a 00 00       	call   3c80 <ddf_msg>
    21d2:	e9 de fe ff ff       	jmp    20b5 <isa_dev_add+0x495>
    21d7:	90                   	nop
    21d8:	8b 34 85 40 6f 02 00 	mov    0x26f40(,%eax,4),%esi
    21df:	85 f6                	test   %esi,%esi
    21e1:	0f 84 9c fe ff ff    	je     2083 <isa_dev_add+0x463>
    21e7:	43                   	inc    %ebx
    21e8:	e9 83 fe ff ff       	jmp    2070 <isa_dev_add+0x450>
    21ed:	8d 76 00             	lea    0x0(%esi),%esi
    21f0:	85 f6                	test   %esi,%esi
    21f2:	0f 84 48 ff ff ff    	je     2140 <isa_dev_add+0x520>
    21f8:	8a 06                	mov    (%esi),%al
    21fa:	89 f7                	mov    %esi,%edi
    21fc:	e9 95 fb ff ff       	jmp    1d96 <isa_dev_add+0x176>
    2201:	8d b4 26 00 00 00 00 	lea    0x0(%esi,%eiz,1),%esi
    2208:	8b 04 85 40 6f 02 00 	mov    0x26f40(,%eax,4),%eax
    220f:	85 c0                	test   %eax,%eax
    2211:	0f 84 e1 fb ff ff    	je     1df8 <isa_dev_add+0x1d8>
    2217:	47                   	inc    %edi
    2218:	e9 c8 fb ff ff       	jmp    1de5 <isa_dev_add+0x1c5>
    221d:	8d 76 00             	lea    0x0(%esi),%esi
    2220:	c7 04 24 29 6d 02 00 	movl   $0x26d29,(%esp)
    2227:	e8 44 92 00 00       	call   b470 <str_size>
    222c:	c7 44 24 04 29 6d 02 	movl   $0x26d29,0x4(%esp)
    2233:	00 
    2234:	89 44 24 08          	mov    %eax,0x8(%esp)
    2238:	89 34 24             	mov    %esi,(%esp)
    223b:	89 c3                	mov    %eax,%ebx
    223d:	e8 8e 99 00 00       	call   bbd0 <str_lcmp>
    2242:	85 c0                	test   %eax,%eax
    2244:	0f 85 be 00 00 00    	jne    2308 <isa_dev_add+0x6e8>
    224a:	01 de                	add    %ebx,%esi
    224c:	0f be 06             	movsbl (%esi),%eax
    224f:	84 c0                	test   %al,%al
    2251:	74 11                	je     2264 <isa_dev_add+0x644>
    2253:	90                   	nop
    2254:	8d 74 26 00          	lea    0x0(%esi,%eiz,1),%esi
    2258:	8d 50 f7             	lea    -0x9(%eax),%edx
    225b:	83 fa 17             	cmp    $0x17,%edx
    225e:	0f 86 84 00 00 00    	jbe    22e8 <isa_dev_add+0x6c8>
    2264:	c7 45 e4 00 00 00 00 	movl   $0x0,-0x1c(%ebp)
    226b:	8d 55 e4             	lea    -0x1c(%ebp),%edx
    226e:	c7 44 24 08 0a 00 00 	movl   $0xa,0x8(%esp)
    2275:	00 
    2276:	89 54 24 04          	mov    %edx,0x4(%esp)
    227a:	89 34 24             	mov    %esi,(%esp)
    227d:	e8 4e b1 00 00       	call   d3d0 <strtol>
    2282:	3b 75 e4             	cmp    -0x1c(%ebp),%esi
    2285:	89 c3                	mov    %eax,%ebx
    2287:	0f 84 26 fe ff ff    	je     20b3 <isa_dev_add+0x493>
    228d:	8b 45 d4             	mov    -0x2c(%ebp),%eax
    2290:	8b 50 14             	mov    0x14(%eax),%edx
    2293:	8b 40 18             	mov    0x18(%eax),%eax
    2296:	83 fa 04             	cmp    $0x4,%edx
    2299:	0f 87 14 fe ff ff    	ja     20b3 <isa_dev_add+0x493>
    229f:	8d 0c 92             	lea    (%edx,%edx,4),%ecx
    22a2:	42                   	inc    %edx
    22a3:	89 fe                	mov    %edi,%esi
    22a5:	8d 04 88             	lea    (%eax,%ecx,4),%eax
    22a8:	c7 00 00 00 00 00    	movl   $0x0,(%eax)
    22ae:	89 58 04             	mov    %ebx,0x4(%eax)
    22b1:	8b 45 d4             	mov    -0x2c(%ebp),%eax
    22b4:	89 50 14             	mov    %edx,0x14(%eax)
    22b7:	8b 40 10             	mov    0x10(%eax),%eax
    22ba:	89 04 24             	mov    %eax,(%esp)
    22bd:	e8 ce 10 00 00       	call   3390 <ddf_fun_get_name>
    22c2:	89 5c 24 08          	mov    %ebx,0x8(%esp)
    22c6:	89 44 24 0c          	mov    %eax,0xc(%esp)
    22ca:	c7 44 24 04 f6 6c 02 	movl   $0x26cf6,0x4(%esp)
    22d1:	00 
    22d2:	c7 04 24 03 00 00 00 	movl   $0x3,(%esp)
    22d9:	e8 a2 19 00 00       	call   3c80 <ddf_msg>
    22de:	e9 d2 fd ff ff       	jmp    20b5 <isa_dev_add+0x495>
    22e3:	90                   	nop
    22e4:	8d 74 26 00          	lea    0x0(%esi,%eiz,1),%esi
    22e8:	8b 1c 95 40 6f 02 00 	mov    0x26f40(,%edx,4),%ebx
    22ef:	85 db                	test   %ebx,%ebx
    22f1:	0f 84 41 02 00 00    	je     2538 <isa_dev_add+0x918>
    22f7:	46                   	inc    %esi
    22f8:	0f be 06             	movsbl (%esi),%eax
    22fb:	84 c0                	test   %al,%al
    22fd:	0f 85 55 ff ff ff    	jne    2258 <isa_dev_add+0x638>
    2303:	e9 5c ff ff ff       	jmp    2264 <isa_dev_add+0x644>
    2308:	c7 04 24 2d 6d 02 00 	movl   $0x26d2d,(%esp)
    230f:	e8 5c 91 00 00       	call   b470 <str_size>
    2314:	c7 44 24 04 2d 6d 02 	movl   $0x26d2d,0x4(%esp)
    231b:	00 
    231c:	89 44 24 08          	mov    %eax,0x8(%esp)
    2320:	89 34 24             	mov    %esi,(%esp)
    2323:	89 c3                	mov    %eax,%ebx
    2325:	e8 a6 98 00 00       	call   bbd0 <str_lcmp>
    232a:	85 c0                	test   %eax,%eax
    232c:	75 63                	jne    2391 <isa_dev_add+0x771>
    232e:	01 de                	add    %ebx,%esi
    2330:	0f be 06             	movsbl (%esi),%eax
    2333:	84 c0                	test   %al,%al
    2335:	74 09                	je     2340 <isa_dev_add+0x720>
    2337:	90                   	nop
    2338:	8d 50 f7             	lea    -0x9(%eax),%edx
    233b:	83 fa 17             	cmp    $0x17,%edx
    233e:	76 38                	jbe    2378 <isa_dev_add+0x758>
    2340:	c7 45 e4 00 00 00 00 	movl   $0x0,-0x1c(%ebp)
    2347:	8d 4d e4             	lea    -0x1c(%ebp),%ecx
    234a:	c7 44 24 08 0a 00 00 	movl   $0xa,0x8(%esp)
    2351:	00 
    2352:	89 4c 24 04          	mov    %ecx,0x4(%esp)
    2356:	89 34 24             	mov    %esi,(%esp)
    2359:	e8 72 b0 00 00       	call   d3d0 <strtol>
    235e:	3b 75 e4             	cmp    -0x1c(%ebp),%esi
    2361:	0f 84 4c fd ff ff    	je     20b3 <isa_dev_add+0x493>
    2367:	89 c2                	mov    %eax,%edx
    2369:	8b 45 d4             	mov    -0x2c(%ebp),%eax
    236c:	e8 7f f1 ff ff       	call   14f0 <isa_fun_set_dma>
    2371:	89 fe                	mov    %edi,%esi
    2373:	e9 3d fd ff ff       	jmp    20b5 <isa_dev_add+0x495>
    2378:	8b 14 95 40 6f 02 00 	mov    0x26f40(,%edx,4),%edx
    237f:	85 d2                	test   %edx,%edx
    2381:	0f 84 49 01 00 00    	je     24d0 <isa_dev_add+0x8b0>
    2387:	46                   	inc    %esi
    2388:	0f be 06             	movsbl (%esi),%eax
    238b:	84 c0                	test   %al,%al
    238d:	75 a9                	jne    2338 <isa_dev_add+0x718>
    238f:	eb af                	jmp    2340 <isa_dev_add+0x720>
    2391:	c7 04 24 31 6d 02 00 	movl   $0x26d31,(%esp)
    2398:	e8 d3 90 00 00       	call   b470 <str_size>
    239d:	c7 44 24 04 31 6d 02 	movl   $0x26d31,0x4(%esp)
    23a4:	00 
    23a5:	89 44 24 08          	mov    %eax,0x8(%esp)
    23a9:	89 34 24             	mov    %esi,(%esp)
    23ac:	89 c3                	mov    %eax,%ebx
    23ae:	e8 1d 98 00 00       	call   bbd0 <str_lcmp>
    23b3:	85 c0                	test   %eax,%eax
    23b5:	75 3e                	jne    23f5 <isa_dev_add+0x7d5>
    23b7:	01 de                	add    %ebx,%esi
    23b9:	0f be 06             	movsbl (%esi),%eax
    23bc:	84 c0                	test   %al,%al
    23be:	74 08                	je     23c8 <isa_dev_add+0x7a8>
    23c0:	83 e8 09             	sub    $0x9,%eax
    23c3:	83 f8 17             	cmp    $0x17,%eax
    23c6:	76 18                	jbe    23e0 <isa_dev_add+0x7c0>
    23c8:	8b 45 d4             	mov    -0x2c(%ebp),%eax
    23cb:	89 74 24 04          	mov    %esi,0x4(%esp)
    23cf:	89 04 24             	mov    %eax,(%esp)
    23d2:	89 fe                	mov    %edi,%esi
    23d4:	e8 37 f2 ff ff       	call   1610 <fun_parse_match_id>
    23d9:	e9 d7 fc ff ff       	jmp    20b5 <isa_dev_add+0x495>
    23de:	66 90                	xchg   %ax,%ax
    23e0:	8b 04 85 40 6f 02 00 	mov    0x26f40(,%eax,4),%eax
    23e7:	85 c0                	test   %eax,%eax
    23e9:	74 dd                	je     23c8 <isa_dev_add+0x7a8>
    23eb:	46                   	inc    %esi
    23ec:	0f be 06             	movsbl (%esi),%eax
    23ef:	84 c0                	test   %al,%al
    23f1:	75 cd                	jne    23c0 <isa_dev_add+0x7a0>
    23f3:	eb d3                	jmp    23c8 <isa_dev_add+0x7a8>
    23f5:	89 74 24 08          	mov    %esi,0x8(%esp)
    23f9:	c7 44 24 04 14 6f 02 	movl   $0x26f14,0x4(%esp)
    2400:	00 
    2401:	c7 04 24 01 00 00 00 	movl   $0x1,(%esp)
    2408:	89 fe                	mov    %edi,%esi
    240a:	e8 71 18 00 00       	call   3c80 <ddf_msg>
    240f:	e9 a1 fc ff ff       	jmp    20b5 <isa_dev_add+0x495>
    2414:	89 3c 24             	mov    %edi,(%esp)
    2417:	e8 84 0f 00 00       	call   33a0 <ddf_fun_destroy>
    241c:	89 1c 24             	mov    %ebx,(%esp)
    241f:	e8 0c 57 01 00       	call   17b30 <free>
    2424:	8b 45 c8             	mov    -0x38(%ebp),%eax
    2427:	89 04 24             	mov    %eax,(%esp)
    242a:	e8 01 57 01 00       	call   17b30 <free>
    242f:	e9 17 fd ff ff       	jmp    214b <isa_dev_add+0x52b>
    2434:	c7 44 24 08 94 6c 02 	movl   $0x26c94,0x8(%esp)
    243b:	00 
    243c:	c7 44 24 04 a5 6c 02 	movl   $0x26ca5,0x4(%esp)
    2443:	00 
    2444:	c7 04 24 01 00 00 00 	movl   $0x1,(%esp)
    244b:	e8 30 18 00 00       	call   3c80 <ddf_msg>
    2450:	e9 f6 fc ff ff       	jmp    214b <isa_dev_add+0x52b>
    2455:	c7 44 24 08 94 6c 02 	movl   $0x26c94,0x8(%esp)
    245c:	00 
    245d:	c7 44 24 04 d1 6c 02 	movl   $0x26cd1,0x4(%esp)
    2464:	00 
    2465:	c7 04 24 01 00 00 00 	movl   $0x1,(%esp)
    246c:	e8 0f 18 00 00       	call   3c80 <ddf_msg>
    2471:	8b 45 c8             	mov    -0x38(%ebp),%eax
    2474:	89 04 24             	mov    %eax,(%esp)
    2477:	e8 b4 56 01 00       	call   17b30 <free>
    247c:	c7 45 c8 00 00 00 00 	movl   $0x0,-0x38(%ebp)
    2483:	e9 ee f8 ff ff       	jmp    1d76 <isa_dev_add+0x156>
    2488:	c7 44 24 04 b7 6c 02 	movl   $0x26cb7,0x4(%esp)
    248f:	00 
    2490:	c7 04 24 01 00 00 00 	movl   $0x1,(%esp)
    2497:	e8 e4 17 00 00       	call   3c80 <ddf_msg>
    249c:	e9 d5 f8 ff ff       	jmp    1d76 <isa_dev_add+0x156>
    24a1:	8b 4d cc             	mov    -0x34(%ebp),%ecx
    24a4:	8b 41 14             	mov    0x14(%ecx),%eax
    24a7:	89 04 24             	mov    %eax,(%esp)
    24aa:	e8 f1 0e 00 00       	call   33a0 <ddf_fun_destroy>
    24af:	c7 44 24 04 6c 6e 02 	movl   $0x26e6c,0x4(%esp)
    24b6:	00 
    24b7:	c7 04 24 01 00 00 00 	movl   $0x1,(%esp)
    24be:	e8 bd 17 00 00       	call   3c80 <ddf_msg>
    24c3:	83 c4 5c             	add    $0x5c,%esp
    24c6:	b8 f8 fe ff ff       	mov    $0xfffffef8,%eax
    24cb:	5b                   	pop    %ebx
    24cc:	5e                   	pop    %esi
    24cd:	5f                   	pop    %edi
    24ce:	5d                   	pop    %ebp
    24cf:	c3                   	ret    
    24d0:	8b 04 85 1c 6f 02 00 	mov    0x26f1c(,%eax,4),%eax
    24d7:	c7 45 e4 00 00 00 00 	movl   $0x0,-0x1c(%ebp)
    24de:	85 c0                	test   %eax,%eax
    24e0:	0f 84 61 fe ff ff    	je     2347 <isa_dev_add+0x727>
    24e6:	66 90                	xchg   %ax,%ax
    24e8:	46                   	inc    %esi
    24e9:	0f be 06             	movsbl (%esi),%eax
    24ec:	84 c0                	test   %al,%al
    24ee:	0f 84 53 fe ff ff    	je     2347 <isa_dev_add+0x727>
    24f4:	83 e8 09             	sub    $0x9,%eax
    24f7:	83 f8 17             	cmp    $0x17,%eax
    24fa:	0f 87 47 fe ff ff    	ja     2347 <isa_dev_add+0x727>
    2500:	8b 04 85 40 6f 02 00 	mov    0x26f40(,%eax,4),%eax
    2507:	85 c0                	test   %eax,%eax
    2509:	75 dd                	jne    24e8 <isa_dev_add+0x8c8>
    250b:	e9 37 fe ff ff       	jmp    2347 <isa_dev_add+0x727>
    2510:	b8 fe ff ff ff       	mov    $0xfffffffe,%eax
    2515:	e9 52 fc ff ff       	jmp    216c <isa_dev_add+0x54c>
    251a:	c7 44 24 04 48 6e 02 	movl   $0x26e48,0x4(%esp)
    2521:	00 
    2522:	c7 04 24 01 00 00 00 	movl   $0x1,(%esp)
    2529:	e8 52 17 00 00       	call   3c80 <ddf_msg>
    252e:	b8 f8 fe ff ff       	mov    $0xfffffef8,%eax
    2533:	e9 34 fc ff ff       	jmp    216c <isa_dev_add+0x54c>
    2538:	8b 04 85 1c 6f 02 00 	mov    0x26f1c(,%eax,4),%eax
    253f:	c7 45 e4 00 00 00 00 	movl   $0x0,-0x1c(%ebp)
    2546:	85 c0                	test   %eax,%eax
    2548:	0f 84 1d fd ff ff    	je     226b <isa_dev_add+0x64b>
    254e:	66 90                	xchg   %ax,%ax
    2550:	46                   	inc    %esi
    2551:	0f be 06             	movsbl (%esi),%eax
    2554:	84 c0                	test   %al,%al
    2556:	0f 84 0f fd ff ff    	je     226b <isa_dev_add+0x64b>
    255c:	83 e8 09             	sub    $0x9,%eax
    255f:	83 f8 17             	cmp    $0x17,%eax
    2562:	0f 87 03 fd ff ff    	ja     226b <isa_dev_add+0x64b>
    2568:	8b 0c 85 40 6f 02 00 	mov    0x26f40(,%eax,4),%ecx
    256f:	85 c9                	test   %ecx,%ecx
    2571:	75 dd                	jne    2550 <isa_dev_add+0x930>
    2573:	e9 f3 fc ff ff       	jmp    226b <isa_dev_add+0x64b>
    2578:	90                   	nop
    2579:	8d b4 26 00 00 00 00 	lea    0x0(%esi,%eiz,1),%esi

00002580 <fun_parse_irq>:
    2580:	55                   	push   %ebp
    2581:	89 e5                	mov    %esp,%ebp
    2583:	57                   	push   %edi
    2584:	56                   	push   %esi
    2585:	53                   	push   %ebx
    2586:	83 ec 2c             	sub    $0x2c,%esp
    2589:	c7 45 e4 00 00 00 00 	movl   $0x0,-0x1c(%ebp)
    2590:	8b 5d 0c             	mov    0xc(%ebp),%ebx
    2593:	8b 75 08             	mov    0x8(%ebp),%esi
    2596:	0f be 03             	movsbl (%ebx),%eax
    2599:	84 c0                	test   %al,%al
    259b:	74 0b                	je     25a8 <fun_parse_irq+0x28>
    259d:	8d 76 00             	lea    0x0(%esi),%esi
    25a0:	83 e8 09             	sub    $0x9,%eax
    25a3:	83 f8 17             	cmp    $0x17,%eax
    25a6:	76 38                	jbe    25e0 <fun_parse_irq+0x60>
    25a8:	8d 45 e4             	lea    -0x1c(%ebp),%eax
    25ab:	c7 44 24 08 0a 00 00 	movl   $0xa,0x8(%esp)
    25b2:	00 
    25b3:	89 44 24 04          	mov    %eax,0x4(%esp)
    25b7:	89 1c 24             	mov    %ebx,(%esp)
    25ba:	e8 11 ae 00 00       	call   d3d0 <strtol>
    25bf:	39 5d e4             	cmp    %ebx,-0x1c(%ebp)
    25c2:	89 c7                	mov    %eax,%edi
    25c4:	74 0b                	je     25d1 <fun_parse_irq+0x51>
    25c6:	8b 56 14             	mov    0x14(%esi),%edx
    25c9:	8b 46 18             	mov    0x18(%esi),%eax
    25cc:	83 fa 04             	cmp    $0x4,%edx
    25cf:	76 27                	jbe    25f8 <fun_parse_irq+0x78>
    25d1:	83 c4 2c             	add    $0x2c,%esp
    25d4:	5b                   	pop    %ebx
    25d5:	5e                   	pop    %esi
    25d6:	5f                   	pop    %edi
    25d7:	5d                   	pop    %ebp
    25d8:	c3                   	ret    
    25d9:	8d b4 26 00 00 00 00 	lea    0x0(%esi,%eiz,1),%esi
    25e0:	8b 3c 85 40 6f 02 00 	mov    0x26f40(,%eax,4),%edi
    25e7:	85 ff                	test   %edi,%edi
    25e9:	74 bd                	je     25a8 <fun_parse_irq+0x28>
    25eb:	43                   	inc    %ebx
    25ec:	0f be 03             	movsbl (%ebx),%eax
    25ef:	84 c0                	test   %al,%al
    25f1:	75 ad                	jne    25a0 <fun_parse_irq+0x20>
    25f3:	eb b3                	jmp    25a8 <fun_parse_irq+0x28>
    25f5:	8d 76 00             	lea    0x0(%esi),%esi
    25f8:	8d 0c 92             	lea    (%edx,%edx,4),%ecx
    25fb:	42                   	inc    %edx
    25fc:	8d 04 88             	lea    (%eax,%ecx,4),%eax
    25ff:	89 78 04             	mov    %edi,0x4(%eax)
    2602:	c7 00 00 00 00 00    	movl   $0x0,(%eax)
    2608:	8b 46 10             	mov    0x10(%esi),%eax
    260b:	89 56 14             	mov    %edx,0x14(%esi)
    260e:	89 04 24             	mov    %eax,(%esp)
    2611:	e8 7a 0d 00 00       	call   3390 <ddf_fun_get_name>
    2616:	89 7c 24 08          	mov    %edi,0x8(%esp)
    261a:	89 44 24 0c          	mov    %eax,0xc(%esp)
    261e:	c7 44 24 04 f6 6c 02 	movl   $0x26cf6,0x4(%esp)
    2625:	00 
    2626:	c7 04 24 03 00 00 00 	movl   $0x3,(%esp)
    262d:	e8 4e 16 00 00       	call   3c80 <ddf_msg>
    2632:	83 c4 2c             	add    $0x2c,%esp
    2635:	5b                   	pop    %ebx
    2636:	5e                   	pop    %esi
    2637:	5f                   	pop    %edi
    2638:	5d                   	pop    %ebp
    2639:	c3                   	ret    
    263a:	8d b6 00 00 00 00    	lea    0x0(%esi),%esi

00002640 <fun_parse_io_range>:
    2640:	55                   	push   %ebp
    2641:	89 e5                	mov    %esp,%ebp
    2643:	57                   	push   %edi
    2644:	56                   	push   %esi
    2645:	53                   	push   %ebx
    2646:	83 ec 4c             	sub    $0x4c,%esp
    2649:	c7 45 e4 00 00 00 00 	movl   $0x0,-0x1c(%ebp)
    2650:	8b 75 0c             	mov    0xc(%ebp),%esi
    2653:	0f be 06             	movsbl (%esi),%eax
    2656:	84 c0                	test   %al,%al
    2658:	74 12                	je     266c <fun_parse_io_range+0x2c>
    265a:	8d b6 00 00 00 00    	lea    0x0(%esi),%esi
    2660:	83 e8 09             	sub    $0x9,%eax
    2663:	83 f8 17             	cmp    $0x17,%eax
    2666:	0f 86 94 00 00 00    	jbe    2700 <fun_parse_io_range+0xc0>
    266c:	8d 7d e4             	lea    -0x1c(%ebp),%edi
    266f:	c7 44 24 08 10 00 00 	movl   $0x10,0x8(%esp)
    2676:	00 
    2677:	89 7c 24 04          	mov    %edi,0x4(%esp)
    267b:	89 34 24             	mov    %esi,(%esp)
    267e:	e8 4d ad 00 00       	call   d3d0 <strtol>
    2683:	8b 5d e4             	mov    -0x1c(%ebp),%ebx
    2686:	89 45 d4             	mov    %eax,-0x2c(%ebp)
    2689:	39 f3                	cmp    %esi,%ebx
    268b:	74 64                	je     26f1 <fun_parse_io_range+0xb1>
    268d:	0f be 03             	movsbl (%ebx),%eax
    2690:	84 c0                	test   %al,%al
    2692:	74 34                	je     26c8 <fun_parse_io_range+0x88>
    2694:	83 e8 09             	sub    $0x9,%eax
    2697:	83 f8 17             	cmp    $0x17,%eax
    269a:	77 2c                	ja     26c8 <fun_parse_io_range+0x88>
    269c:	8b 04 85 40 6f 02 00 	mov    0x26f40(,%eax,4),%eax
    26a3:	85 c0                	test   %eax,%eax
    26a5:	74 21                	je     26c8 <fun_parse_io_range+0x88>
    26a7:	90                   	nop
    26a8:	43                   	inc    %ebx
    26a9:	0f be 13             	movsbl (%ebx),%edx
    26ac:	84 d2                	test   %dl,%dl
    26ae:	74 18                	je     26c8 <fun_parse_io_range+0x88>
    26b0:	83 ea 09             	sub    $0x9,%edx
    26b3:	83 fa 17             	cmp    $0x17,%edx
    26b6:	77 10                	ja     26c8 <fun_parse_io_range+0x88>
    26b8:	8b 04 95 40 6f 02 00 	mov    0x26f40(,%edx,4),%eax
    26bf:	85 c0                	test   %eax,%eax
    26c1:	75 e5                	jne    26a8 <fun_parse_io_range+0x68>
    26c3:	90                   	nop
    26c4:	8d 74 26 00          	lea    0x0(%esi,%eiz,1),%esi
    26c8:	89 7c 24 04          	mov    %edi,0x4(%esp)
    26cc:	c7 44 24 08 10 00 00 	movl   $0x10,0x8(%esp)
    26d3:	00 
    26d4:	89 1c 24             	mov    %ebx,(%esp)
    26d7:	e8 f4 ac 00 00       	call   d3d0 <strtol>
    26dc:	39 5d e4             	cmp    %ebx,-0x1c(%ebp)
    26df:	89 c7                	mov    %eax,%edi
    26e1:	74 0e                	je     26f1 <fun_parse_io_range+0xb1>
    26e3:	8b 4d 08             	mov    0x8(%ebp),%ecx
    26e6:	8b 51 14             	mov    0x14(%ecx),%edx
    26e9:	8b 41 18             	mov    0x18(%ecx),%eax
    26ec:	83 fa 04             	cmp    $0x4,%edx
    26ef:	76 2f                	jbe    2720 <fun_parse_io_range+0xe0>
    26f1:	83 c4 4c             	add    $0x4c,%esp
    26f4:	5b                   	pop    %ebx
    26f5:	5e                   	pop    %esi
    26f6:	5f                   	pop    %edi
    26f7:	5d                   	pop    %ebp
    26f8:	c3                   	ret    
    26f9:	8d b4 26 00 00 00 00 	lea    0x0(%esi,%eiz,1),%esi
    2700:	8b 04 85 40 6f 02 00 	mov    0x26f40(,%eax,4),%eax
    2707:	85 c0                	test   %eax,%eax
    2709:	0f 84 5d ff ff ff    	je     266c <fun_parse_io_range+0x2c>
    270f:	46                   	inc    %esi
    2710:	0f be 06             	movsbl (%esi),%eax
    2713:	84 c0                	test   %al,%al
    2715:	0f 85 45 ff ff ff    	jne    2660 <fun_parse_io_range+0x20>
    271b:	e9 4c ff ff ff       	jmp    266c <fun_parse_io_range+0x2c>
    2720:	8d 0c 92             	lea    (%edx,%edx,4),%ecx
    2723:	42                   	inc    %edx
    2724:	8d 04 88             	lea    (%eax,%ecx,4),%eax
    2727:	8b 4d d4             	mov    -0x2c(%ebp),%ecx
    272a:	89 48 04             	mov    %ecx,0x4(%eax)
    272d:	8b 4d 08             	mov    0x8(%ebp),%ecx
    2730:	89 78 10             	mov    %edi,0x10(%eax)
    2733:	c7 40 08 00 00 00 00 	movl   $0x0,0x8(%eax)
    273a:	c7 40 0c 00 00 00 00 	movl   $0x0,0xc(%eax)
    2741:	c7 00 01 00 00 00    	movl   $0x1,(%eax)
    2747:	8b 41 10             	mov    0x10(%ecx),%eax
    274a:	89 51 14             	mov    %edx,0x14(%ecx)
    274d:	89 04 24             	mov    %eax,(%esp)
    2750:	e8 3b 0c 00 00       	call   3390 <ddf_fun_get_name>
    2755:	89 7c 24 0c          	mov    %edi,0xc(%esp)
    2759:	89 44 24 10          	mov    %eax,0x10(%esp)
    275d:	8b 45 d4             	mov    -0x2c(%ebp),%eax
    2760:	89 44 24 08          	mov    %eax,0x8(%esp)
    2764:	c7 44 24 04 b4 6e 02 	movl   $0x26eb4,0x4(%esp)
    276b:	00 
    276c:	c7 04 24 03 00 00 00 	movl   $0x3,(%esp)
    2773:	e8 08 15 00 00       	call   3c80 <ddf_msg>
    2778:	83 c4 4c             	add    $0x4c,%esp
    277b:	5b                   	pop    %ebx
    277c:	5e                   	pop    %esi
    277d:	5f                   	pop    %edi
    277e:	5d                   	pop    %ebp
    277f:	c3                   	ret    

00002780 <main>:
    2780:	55                   	push   %ebp
    2781:	89 e5                	mov    %esp,%ebp
    2783:	83 e4 f0             	and    $0xfffffff0,%esp
    2786:	83 ec 10             	sub    $0x10,%esp
    2789:	c7 04 24 37 6d 02 00 	movl   $0x26d37,(%esp)
    2790:	e8 3b ff 00 00       	call   126d0 <printf>
    2795:	c7 04 24 54 6d 02 00 	movl   $0x26d54,(%esp)
    279c:	e8 cf 14 00 00       	call   3c70 <ddf_log_init>
    27a1:	c7 04 24 90 a0 02 00 	movl   $0x2a090,(%esp)
    27a8:	c7 05 48 a5 02 00 98 	movl   $0x2a098,0x2a548
    27af:	a0 02 00 
    27b2:	e8 d9 10 00 00       	call   3890 <ddf_driver_main>
    27b7:	c9                   	leave  
    27b8:	c3                   	ret    
    27b9:	66 90                	xchg   %ax,%ax
    27bb:	66 90                	xchg   %ax,%ax
    27bd:	66 90                	xchg   %ax,%ax
    27bf:	90                   	nop

000027c0 <driver_connection_gen.isra.8>:
    27c0:	55                   	push   %ebp
    27c1:	89 e5                	mov    %esp,%ebp
    27c3:	57                   	push   %edi
    27c4:	56                   	push   %esi
    27c5:	53                   	push   %ebx
    27c6:	83 ec 5c             	sub    $0x5c,%esp
    27c9:	89 c6                	mov    %eax,%esi
    27cb:	8b 7a 08             	mov    0x8(%edx),%edi
    27ce:	89 55 a8             	mov    %edx,-0x58(%ebp)
    27d1:	c7 04 24 b8 a0 02 00 	movl   $0x2a0b8,(%esp)
    27d8:	e8 63 bf 00 00       	call   e740 <fibril_mutex_lock>
    27dd:	c7 04 24 b8 a0 02 00 	movl   $0x2a0b8,(%esp)
    27e4:	e8 87 c1 00 00       	call   e970 <fibril_mutex_is_locked>
    27e9:	8b 55 a8             	mov    -0x58(%ebp),%edx
    27ec:	84 c0                	test   %al,%al
    27ee:	0f 84 a6 02 00 00    	je     2a9a <driver_connection_gen.isra.8+0x2da>
    27f4:	a1 cc a0 02 00       	mov    0x2a0cc,%eax
    27f9:	3d c8 a0 02 00       	cmp    $0x2a0c8,%eax
    27fe:	75 12                	jne    2812 <driver_connection_gen.isra.8+0x52>
    2800:	eb 46                	jmp    2848 <driver_connection_gen.isra.8+0x88>
    2802:	8d b6 00 00 00 00    	lea    0x0(%esi),%esi
    2808:	8b 40 04             	mov    0x4(%eax),%eax
    280b:	3d c8 a0 02 00       	cmp    $0x2a0c8,%eax
    2810:	74 36                	je     2848 <driver_connection_gen.isra.8+0x88>
    2812:	8d 58 d4             	lea    -0x2c(%eax),%ebx
    2815:	3b 7b 04             	cmp    0x4(%ebx),%edi
    2818:	75 ee                	jne    2808 <driver_connection_gen.isra.8+0x48>
    281a:	c7 04 24 b8 a0 02 00 	movl   $0x2a0b8,(%esp)
    2821:	89 55 a8             	mov    %edx,-0x58(%ebp)
    2824:	e8 37 c0 00 00       	call   e860 <fibril_mutex_unlock>
    2829:	8b 43 28             	mov    0x28(%ebx),%eax
    282c:	85 c0                	test   %eax,%eax
    282e:	8b 55 a8             	mov    -0x58(%ebp),%edx
    2831:	74 55                	je     2888 <driver_connection_gen.isra.8+0xc8>
    2833:	89 5c 24 08          	mov    %ebx,0x8(%esp)
    2837:	89 34 24             	mov    %esi,(%esp)
    283a:	89 54 24 04          	mov    %edx,0x4(%esp)
    283e:	ff d0                	call   *%eax
    2840:	83 c4 5c             	add    $0x5c,%esp
    2843:	5b                   	pop    %ebx
    2844:	5e                   	pop    %esi
    2845:	5f                   	pop    %edi
    2846:	5d                   	pop    %ebp
    2847:	c3                   	ret    
    2848:	c7 04 24 b8 a0 02 00 	movl   $0x2a0b8,(%esp)
    284f:	e8 0c c0 00 00       	call   e860 <fibril_mutex_unlock>
    2854:	a1 78 a5 02 00       	mov    0x2a578,%eax
    2859:	89 7c 24 08          	mov    %edi,0x8(%esp)
    285d:	8b 00                	mov    (%eax),%eax
    285f:	c7 04 24 e8 71 02 00 	movl   $0x271e8,(%esp)
    2866:	89 44 24 04          	mov    %eax,0x4(%esp)
    286a:	e8 61 fe 00 00       	call   126d0 <printf>
    286f:	c7 44 24 04 ff ff ff 	movl   $0xffffffff,0x4(%esp)
    2876:	ff 
    2877:	89 34 24             	mov    %esi,(%esp)
    287a:	e8 51 80 01 00       	call   1a8d0 <async_answer_0>
    287f:	83 c4 5c             	add    $0x5c,%esp
    2882:	5b                   	pop    %ebx
    2883:	5e                   	pop    %esi
    2884:	5f                   	pop    %edi
    2885:	5d                   	pop    %ebp
    2886:	c3                   	ret    
    2887:	90                   	nop
    2888:	8b 43 24             	mov    0x24(%ebx),%eax
    288b:	85 c0                	test   %eax,%eax
    288d:	0f 84 cd 01 00 00    	je     2a60 <driver_connection_gen.isra.8+0x2a0>
    2893:	8b 00                	mov    (%eax),%eax
    2895:	85 c0                	test   %eax,%eax
    2897:	0f 84 c3 01 00 00    	je     2a60 <driver_connection_gen.isra.8+0x2a0>
    289d:	89 1c 24             	mov    %ebx,(%esp)
    28a0:	ff d0                	call   *%eax
    28a2:	89 34 24             	mov    %esi,(%esp)
    28a5:	89 44 24 04          	mov    %eax,0x4(%esp)
    28a9:	89 45 a8             	mov    %eax,-0x58(%ebp)
    28ac:	e8 1f 80 01 00       	call   1a8d0 <async_answer_0>
    28b1:	8b 55 a8             	mov    -0x58(%ebp),%edx
    28b4:	85 d2                	test   %edx,%edx
    28b6:	75 c7                	jne    287f <driver_connection_gen.isra.8+0xbf>
    28b8:	8d 55 c4             	lea    -0x3c(%ebp),%edx
    28bb:	89 7d ac             	mov    %edi,-0x54(%ebp)
    28be:	89 55 b4             	mov    %edx,-0x4c(%ebp)
    28c1:	8d b4 26 00 00 00 00 	lea    0x0(%esi,%eiz,1),%esi
    28c8:	c7 44 24 04 00 00 00 	movl   $0x0,0x4(%esp)
    28cf:	00 
    28d0:	89 14 24             	mov    %edx,(%esp)
    28d3:	e8 c8 69 01 00       	call   192a0 <async_get_call_timeout>
    28d8:	8b 75 c4             	mov    -0x3c(%ebp),%esi
    28db:	89 c7                	mov    %eax,%edi
    28dd:	85 f6                	test   %esi,%esi
    28df:	0f 84 eb 00 00 00    	je     29d0 <driver_connection_gen.isra.8+0x210>
    28e5:	81 ee 00 04 00 00    	sub    $0x400,%esi
    28eb:	89 34 24             	mov    %esi,(%esp)
    28ee:	e8 8d 10 00 00       	call   3980 <is_valid_iface_idx>
    28f3:	84 c0                	test   %al,%al
    28f5:	75 31                	jne    2928 <driver_connection_gen.isra.8+0x168>
    28f7:	8b 43 24             	mov    0x24(%ebx),%eax
    28fa:	85 c0                	test   %eax,%eax
    28fc:	0f 84 96 00 00 00    	je     2998 <driver_connection_gen.isra.8+0x1d8>
    2902:	8b 40 34             	mov    0x34(%eax),%eax
    2905:	85 c0                	test   %eax,%eax
    2907:	0f 84 8b 00 00 00    	je     2998 <driver_connection_gen.isra.8+0x1d8>
    290d:	8b 55 b4             	mov    -0x4c(%ebp),%edx
    2910:	89 7c 24 04          	mov    %edi,0x4(%esp)
    2914:	89 54 24 08          	mov    %edx,0x8(%esp)
    2918:	89 1c 24             	mov    %ebx,(%esp)
    291b:	ff d0                	call   *%eax
    291d:	8b 55 b4             	mov    -0x4c(%ebp),%edx
    2920:	eb a6                	jmp    28c8 <driver_connection_gen.isra.8+0x108>
    2922:	8d b6 00 00 00 00    	lea    0x0(%esi),%esi
    2928:	89 34 24             	mov    %esi,(%esp)
    292b:	e8 50 10 00 00       	call   3980 <is_valid_iface_idx>
    2930:	84 c0                	test   %al,%al
    2932:	0f 84 46 01 00 00    	je     2a7e <driver_connection_gen.isra.8+0x2be>
    2938:	8b 43 24             	mov    0x24(%ebx),%eax
    293b:	85 c0                	test   %eax,%eax
    293d:	0f 84 bd 00 00 00    	je     2a00 <driver_connection_gen.isra.8+0x240>
    2943:	8b 44 b0 08          	mov    0x8(%eax,%esi,4),%eax
    2947:	89 45 b0             	mov    %eax,-0x50(%ebp)
    294a:	85 c0                	test   %eax,%eax
    294c:	0f 84 ae 00 00 00    	je     2a00 <driver_connection_gen.isra.8+0x240>
    2952:	89 34 24             	mov    %esi,(%esp)
    2955:	e8 c6 0f 00 00       	call   3920 <get_remote_iface>
    295a:	85 c0                	test   %eax,%eax
    295c:	0f 84 54 01 00 00    	je     2ab6 <driver_connection_gen.isra.8+0x2f6>
    2962:	8b 55 c8             	mov    -0x38(%ebp),%edx
    2965:	89 04 24             	mov    %eax,(%esp)
    2968:	89 54 24 04          	mov    %edx,0x4(%esp)
    296c:	e8 ef 0f 00 00       	call   3960 <get_remote_method>
    2971:	85 c0                	test   %eax,%eax
    2973:	0f 84 b7 00 00 00    	je     2a30 <driver_connection_gen.isra.8+0x270>
    2979:	8b 55 b4             	mov    -0x4c(%ebp),%edx
    297c:	89 7c 24 08          	mov    %edi,0x8(%esp)
    2980:	89 54 24 0c          	mov    %edx,0xc(%esp)
    2984:	8b 55 b0             	mov    -0x50(%ebp),%edx
    2987:	89 54 24 04          	mov    %edx,0x4(%esp)
    298b:	89 1c 24             	mov    %ebx,(%esp)
    298e:	ff d0                	call   *%eax
    2990:	8b 55 b4             	mov    -0x4c(%ebp),%edx
    2993:	e9 30 ff ff ff       	jmp    28c8 <driver_connection_gen.isra.8+0x108>
    2998:	a1 78 a5 02 00       	mov    0x2a578,%eax
    299d:	89 74 24 08          	mov    %esi,0x8(%esp)
    29a1:	8b 00                	mov    (%eax),%eax
    29a3:	c7 04 24 14 71 02 00 	movl   $0x27114,(%esp)
    29aa:	89 44 24 04          	mov    %eax,0x4(%esp)
    29ae:	e8 1d fd 00 00       	call   126d0 <printf>
    29b3:	c7 44 24 04 f5 ff ff 	movl   $0xfffffff5,0x4(%esp)
    29ba:	ff 
    29bb:	89 3c 24             	mov    %edi,(%esp)
    29be:	e8 0d 7f 01 00       	call   1a8d0 <async_answer_0>
    29c3:	8b 55 b4             	mov    -0x4c(%ebp),%edx
    29c6:	e9 fd fe ff ff       	jmp    28c8 <driver_connection_gen.isra.8+0x108>
    29cb:	90                   	nop
    29cc:	8d 74 26 00          	lea    0x0(%esi,%eiz,1),%esi
    29d0:	8b 43 24             	mov    0x24(%ebx),%eax
    29d3:	85 c0                	test   %eax,%eax
    29d5:	74 0c                	je     29e3 <driver_connection_gen.isra.8+0x223>
    29d7:	8b 40 04             	mov    0x4(%eax),%eax
    29da:	85 c0                	test   %eax,%eax
    29dc:	74 05                	je     29e3 <driver_connection_gen.isra.8+0x223>
    29de:	89 1c 24             	mov    %ebx,(%esp)
    29e1:	ff d0                	call   *%eax
    29e3:	89 3c 24             	mov    %edi,(%esp)
    29e6:	c7 44 24 04 00 00 00 	movl   $0x0,0x4(%esp)
    29ed:	00 
    29ee:	e8 dd 7e 01 00       	call   1a8d0 <async_answer_0>
    29f3:	83 c4 5c             	add    $0x5c,%esp
    29f6:	5b                   	pop    %ebx
    29f7:	5e                   	pop    %esi
    29f8:	5f                   	pop    %edi
    29f9:	5d                   	pop    %ebp
    29fa:	c3                   	ret    
    29fb:	90                   	nop
    29fc:	8d 74 26 00          	lea    0x0(%esi,%eiz,1),%esi
    2a00:	a1 78 a5 02 00       	mov    0x2a578,%eax
    2a05:	8b 00                	mov    (%eax),%eax
    2a07:	c7 04 24 50 71 02 00 	movl   $0x27150,(%esp)
    2a0e:	89 44 24 04          	mov    %eax,0x4(%esp)
    2a12:	e8 b9 fc 00 00       	call   126d0 <printf>
    2a17:	8b 55 ac             	mov    -0x54(%ebp),%edx
    2a1a:	89 74 24 08          	mov    %esi,0x8(%esp)
    2a1e:	89 54 24 04          	mov    %edx,0x4(%esp)
    2a22:	c7 04 24 74 71 02 00 	movl   $0x27174,(%esp)
    2a29:	eb 83                	jmp    29ae <driver_connection_gen.isra.8+0x1ee>
    2a2b:	90                   	nop
    2a2c:	8d 74 26 00          	lea    0x0(%esi,%eiz,1),%esi
    2a30:	a1 78 a5 02 00       	mov    0x2a578,%eax
    2a35:	8b 00                	mov    (%eax),%eax
    2a37:	c7 04 24 ac 71 02 00 	movl   $0x271ac,(%esp)
    2a3e:	89 44 24 04          	mov    %eax,0x4(%esp)
    2a42:	e8 89 fc 00 00       	call   126d0 <printf>
    2a47:	c7 44 24 04 f5 ff ff 	movl   $0xfffffff5,0x4(%esp)
    2a4e:	ff 
    2a4f:	89 3c 24             	mov    %edi,(%esp)
    2a52:	e8 79 7e 01 00       	call   1a8d0 <async_answer_0>
    2a57:	8b 55 b4             	mov    -0x4c(%ebp),%edx
    2a5a:	e9 69 fe ff ff       	jmp    28c8 <driver_connection_gen.isra.8+0x108>
    2a5f:	90                   	nop
    2a60:	c7 44 24 04 00 00 00 	movl   $0x0,0x4(%esp)
    2a67:	00 
    2a68:	89 34 24             	mov    %esi,(%esp)
    2a6b:	e8 60 7e 01 00       	call   1a8d0 <async_answer_0>
    2a70:	8d 55 c4             	lea    -0x3c(%ebp),%edx
    2a73:	89 55 b4             	mov    %edx,-0x4c(%ebp)
    2a76:	89 7d ac             	mov    %edi,-0x54(%ebp)
    2a79:	e9 4a fe ff ff       	jmp    28c8 <driver_connection_gen.isra.8+0x108>
    2a7e:	c7 44 24 08 1e 03 00 	movl   $0x31e,0x8(%esp)
    2a85:	00 
    2a86:	c7 44 24 04 a0 6f 02 	movl   $0x26fa0,0x4(%esp)
    2a8d:	00 
    2a8e:	c7 04 24 b1 6f 02 00 	movl   $0x26fb1,(%esp)
    2a95:	e8 56 fb 01 00       	call   225f0 <assert_abort>
    2a9a:	c7 44 24 08 75 00 00 	movl   $0x75,0x8(%esp)
    2aa1:	00 
    2aa2:	c7 44 24 04 a0 6f 02 	movl   $0x26fa0,0x4(%esp)
    2aa9:	00 
    2aaa:	c7 04 24 e8 70 02 00 	movl   $0x270e8,(%esp)
    2ab1:	e8 3a fb 01 00       	call   225f0 <assert_abort>
    2ab6:	c7 44 24 08 a6 01 00 	movl   $0x1a6,0x8(%esp)
    2abd:	00 
    2abe:	c7 44 24 04 a0 6f 02 	movl   $0x26fa0,0x4(%esp)
    2ac5:	00 
    2ac6:	c7 04 24 c9 6f 02 00 	movl   $0x26fc9,(%esp)
    2acd:	e8 1e fb 01 00       	call   225f0 <assert_abort>
    2ad2:	8d b4 26 00 00 00 00 	lea    0x0(%esi,%eiz,1),%esi
    2ad9:	8d bc 27 00 00 00 00 	lea    0x0(%edi,%eiz,1),%edi

00002ae0 <driver_connection>:
    2ae0:	55                   	push   %ebp
    2ae1:	89 e5                	mov    %esp,%ebp
    2ae3:	57                   	push   %edi
    2ae4:	56                   	push   %esi
    2ae5:	53                   	push   %ebx
    2ae6:	83 ec 6c             	sub    $0x6c,%esp
    2ae9:	8b 45 08             	mov    0x8(%ebp),%eax
    2aec:	85 c0                	test   %eax,%eax
    2aee:	75 58                	jne    2b48 <driver_connection+0x68>
    2af0:	c7 44 24 04 00 00 00 	movl   $0x0,0x4(%esp)
    2af7:	00 
    2af8:	89 04 24             	mov    %eax,(%esp)
    2afb:	e8 d0 7d 01 00       	call   1a8d0 <async_answer_0>
    2b00:	8d 45 c4             	lea    -0x3c(%ebp),%eax
    2b03:	c7 44 24 04 00 00 00 	movl   $0x0,0x4(%esp)
    2b0a:	00 
    2b0b:	89 04 24             	mov    %eax,(%esp)
    2b0e:	e8 8d 67 01 00       	call   192a0 <async_get_call_timeout>
    2b13:	89 c6                	mov    %eax,%esi
    2b15:	8b 45 c4             	mov    -0x3c(%ebp),%eax
    2b18:	85 c0                	test   %eax,%eax
    2b1a:	74 3e                	je     2b5a <driver_connection+0x7a>
    2b1c:	2d 00 04 00 00       	sub    $0x400,%eax
    2b21:	83 f8 04             	cmp    $0x4,%eax
    2b24:	76 12                	jbe    2b38 <driver_connection+0x58>
    2b26:	c7 44 24 04 f5 ff ff 	movl   $0xfffffff5,0x4(%esp)
    2b2d:	ff 
    2b2e:	89 34 24             	mov    %esi,(%esp)
    2b31:	e8 9a 7d 01 00       	call   1a8d0 <async_answer_0>
    2b36:	eb c8                	jmp    2b00 <driver_connection+0x20>
    2b38:	8b 7d c8             	mov    -0x38(%ebp),%edi
    2b3b:	ff 24 85 98 72 02 00 	jmp    *0x27298(,%eax,4)
    2b42:	8d b6 00 00 00 00    	lea    0x0(%esi),%esi
    2b48:	8b 4d 0c             	mov    0xc(%ebp),%ecx
    2b4b:	8b 51 04             	mov    0x4(%ecx),%edx
    2b4e:	83 fa 02             	cmp    $0x2,%edx
    2b51:	75 15                	jne    2b68 <driver_connection+0x88>
    2b53:	89 ca                	mov    %ecx,%edx
    2b55:	e8 66 fc ff ff       	call   27c0 <driver_connection_gen.isra.8>
    2b5a:	83 c4 6c             	add    $0x6c,%esp
    2b5d:	5b                   	pop    %ebx
    2b5e:	5e                   	pop    %esi
    2b5f:	5f                   	pop    %edi
    2b60:	5d                   	pop    %ebp
    2b61:	c3                   	ret    
    2b62:	8d b6 00 00 00 00    	lea    0x0(%esi),%esi
    2b68:	83 fa 03             	cmp    $0x3,%edx
    2b6b:	0f 84 2f 03 00 00    	je     2ea0 <driver_connection+0x3c0>
    2b71:	4a                   	dec    %edx
    2b72:	0f 84 78 ff ff ff    	je     2af0 <driver_connection+0x10>
    2b78:	c7 44 24 04 ff ff ff 	movl   $0xffffffff,0x4(%esp)
    2b7f:	ff 
    2b80:	89 04 24             	mov    %eax,(%esp)
    2b83:	e8 48 7d 01 00       	call   1a8d0 <async_answer_0>
    2b88:	83 c4 6c             	add    $0x6c,%esp
    2b8b:	5b                   	pop    %ebx
    2b8c:	5e                   	pop    %esi
    2b8d:	5f                   	pop    %edi
    2b8e:	5d                   	pop    %ebp
    2b8f:	c3                   	ret    
    2b90:	c7 04 24 b8 a0 02 00 	movl   $0x2a0b8,(%esp)
    2b97:	e8 a4 bb 00 00       	call   e740 <fibril_mutex_lock>
    2b9c:	c7 04 24 b8 a0 02 00 	movl   $0x2a0b8,(%esp)
    2ba3:	e8 c8 bd 00 00       	call   e970 <fibril_mutex_is_locked>
    2ba8:	84 c0                	test   %al,%al
    2baa:	0f 84 a0 04 00 00    	je     3050 <driver_connection+0x570>
    2bb0:	a1 cc a0 02 00       	mov    0x2a0cc,%eax
    2bb5:	3d c8 a0 02 00       	cmp    $0x2a0c8,%eax
    2bba:	75 1a                	jne    2bd6 <driver_connection+0xf6>
    2bbc:	e9 87 03 00 00       	jmp    2f48 <driver_connection+0x468>
    2bc1:	8d b4 26 00 00 00 00 	lea    0x0(%esi,%eiz,1),%esi
    2bc8:	8b 40 04             	mov    0x4(%eax),%eax
    2bcb:	3d c8 a0 02 00       	cmp    $0x2a0c8,%eax
    2bd0:	0f 84 72 03 00 00    	je     2f48 <driver_connection+0x468>
    2bd6:	8d 58 d4             	lea    -0x2c(%eax),%ebx
    2bd9:	3b 7b 04             	cmp    0x4(%ebx),%edi
    2bdc:	75 ea                	jne    2bc8 <driver_connection+0xe8>
    2bde:	8b 43 0c             	mov    0xc(%ebx),%eax
    2be1:	f0 ff 40 04          	lock incl 0x4(%eax)
    2be5:	8d 7b 08             	lea    0x8(%ebx),%edi
    2be8:	f0 ff 43 08          	lock incl 0x8(%ebx)
    2bec:	c7 04 24 b8 a0 02 00 	movl   $0x2a0b8,(%esp)
    2bf3:	e8 68 bc 00 00       	call   e860 <fibril_mutex_unlock>
    2bf8:	a1 78 a5 02 00       	mov    0x2a578,%eax
    2bfd:	8b 40 04             	mov    0x4(%eax),%eax
    2c00:	8b 40 0c             	mov    0xc(%eax),%eax
    2c03:	85 c0                	test   %eax,%eax
    2c05:	0f 84 e5 02 00 00    	je     2ef0 <driver_connection+0x410>
    2c0b:	89 1c 24             	mov    %ebx,(%esp)
    2c0e:	ff d0                	call   *%eax
    2c10:	89 45 b0             	mov    %eax,-0x50(%ebp)
    2c13:	8b 4b 0c             	mov    0xc(%ebx),%ecx
    2c16:	83 c8 ff             	or     $0xffffffff,%eax
    2c19:	89 4d b4             	mov    %ecx,-0x4c(%ebp)
    2c1c:	f0 0f c1 07          	lock xadd %eax,(%edi)
    2c20:	48                   	dec    %eax
    2c21:	0f 84 81 03 00 00    	je     2fa8 <driver_connection+0x4c8>
    2c27:	83 c8 ff             	or     $0xffffffff,%eax
    2c2a:	8b 55 b4             	mov    -0x4c(%ebp),%edx
    2c2d:	f0 0f c1 42 04       	lock xadd %eax,0x4(%edx)
    2c32:	48                   	dec    %eax
    2c33:	0f 84 37 03 00 00    	je     2f70 <driver_connection+0x490>
    2c39:	8b 45 b0             	mov    -0x50(%ebp),%eax
    2c3c:	e9 88 00 00 00       	jmp    2cc9 <driver_connection+0x1e9>
    2c41:	8d b4 26 00 00 00 00 	lea    0x0(%esi,%eiz,1),%esi
    2c48:	c7 04 24 d0 a0 02 00 	movl   $0x2a0d0,(%esp)
    2c4f:	e8 ec ba 00 00       	call   e740 <fibril_mutex_lock>
    2c54:	c7 04 24 d0 a0 02 00 	movl   $0x2a0d0,(%esp)
    2c5b:	e8 10 bd 00 00       	call   e970 <fibril_mutex_is_locked>
    2c60:	84 c0                	test   %al,%al
    2c62:	0f 84 04 04 00 00    	je     306c <driver_connection+0x58c>
    2c68:	a1 e4 a0 02 00       	mov    0x2a0e4,%eax
    2c6d:	3d e0 a0 02 00       	cmp    $0x2a0e0,%eax
    2c72:	75 1a                	jne    2c8e <driver_connection+0x1ae>
    2c74:	e9 a7 02 00 00       	jmp    2f20 <driver_connection+0x440>
    2c79:	8d b4 26 00 00 00 00 	lea    0x0(%esi,%eiz,1),%esi
    2c80:	8b 40 04             	mov    0x4(%eax),%eax
    2c83:	3d e0 a0 02 00       	cmp    $0x2a0e0,%eax
    2c88:	0f 84 92 02 00 00    	je     2f20 <driver_connection+0x440>
    2c8e:	8d 58 ec             	lea    -0x14(%eax),%ebx
    2c91:	3b 78 ec             	cmp    -0x14(%eax),%edi
    2c94:	75 ea                	jne    2c80 <driver_connection+0x1a0>
    2c96:	8d 7b 04             	lea    0x4(%ebx),%edi
    2c99:	f0 ff 43 04          	lock incl 0x4(%ebx)
    2c9d:	c7 04 24 d0 a0 02 00 	movl   $0x2a0d0,(%esp)
    2ca4:	e8 b7 bb 00 00       	call   e860 <fibril_mutex_unlock>
    2ca9:	a1 78 a5 02 00       	mov    0x2a578,%eax
    2cae:	8b 40 04             	mov    0x4(%eax),%eax
    2cb1:	8b 40 08             	mov    0x8(%eax),%eax
    2cb4:	85 c0                	test   %eax,%eax
    2cb6:	0f 84 58 01 00 00    	je     2e14 <driver_connection+0x334>
    2cbc:	89 1c 24             	mov    %ebx,(%esp)
    2cbf:	ff d0                	call   *%eax
    2cc1:	85 c0                	test   %eax,%eax
    2cc3:	0f 84 e7 01 00 00    	je     2eb0 <driver_connection+0x3d0>
    2cc9:	89 44 24 04          	mov    %eax,0x4(%esp)
    2ccd:	89 34 24             	mov    %esi,(%esp)
    2cd0:	e8 fb 7b 01 00       	call   1a8d0 <async_answer_0>
    2cd5:	e9 26 fe ff ff       	jmp    2b00 <driver_connection+0x20>
    2cda:	8d b6 00 00 00 00    	lea    0x0(%esi),%esi
    2ce0:	c7 44 24 04 1c 00 00 	movl   $0x1c,0x4(%esp)
    2ce7:	00 
    2ce8:	c7 04 24 01 00 00 00 	movl   $0x1,(%esp)
    2cef:	e8 cc 4c 01 00       	call   179c0 <calloc>
    2cf4:	89 c3                	mov    %eax,%ebx
    2cf6:	f0 ff 40 04          	lock incl 0x4(%eax)
    2cfa:	8d 55 c0             	lea    -0x40(%ebp),%edx
    2cfd:	89 38                	mov    %edi,(%eax)
    2cff:	89 14 24             	mov    %edx,(%esp)
    2d02:	c7 44 24 14 00 00 00 	movl   $0x0,0x14(%esp)
    2d09:	00 
    2d0a:	c7 44 24 10 00 00 00 	movl   $0x0,0x10(%esp)
    2d11:	00 
    2d12:	c7 44 24 0c 00 00 00 	movl   $0x0,0xc(%esp)
    2d19:	00 
    2d1a:	c7 44 24 08 00 00 00 	movl   $0x0,0x8(%esp)
    2d21:	00 
    2d22:	c7 44 24 04 01 00 00 	movl   $0x1,0x4(%esp)
    2d29:	00 
    2d2a:	c7 45 c0 00 00 00 00 	movl   $0x0,-0x40(%ebp)
    2d31:	e8 ba 96 01 00       	call   1c3f0 <async_data_write_accept>
    2d36:	8b 45 c0             	mov    -0x40(%ebp),%eax
    2d39:	89 43 0c             	mov    %eax,0xc(%ebx)
    2d3c:	a1 78 a5 02 00       	mov    0x2a578,%eax
    2d41:	8b 40 04             	mov    0x4(%eax),%eax
    2d44:	89 1c 24             	mov    %ebx,(%esp)
    2d47:	ff 10                	call   *(%eax)
    2d49:	89 c7                	mov    %eax,%edi
    2d4b:	85 c0                	test   %eax,%eax
    2d4d:	0f 85 ad 01 00 00    	jne    2f00 <driver_connection+0x420>
    2d53:	c7 04 24 d0 a0 02 00 	movl   $0x2a0d0,(%esp)
    2d5a:	e8 e1 b9 00 00       	call   e740 <fibril_mutex_lock>
    2d5f:	8b 15 e0 a0 02 00    	mov    0x2a0e0,%edx
    2d65:	8d 43 14             	lea    0x14(%ebx),%eax
    2d68:	c7 43 18 e0 a0 02 00 	movl   $0x2a0e0,0x18(%ebx)
    2d6f:	89 53 14             	mov    %edx,0x14(%ebx)
    2d72:	89 42 04             	mov    %eax,0x4(%edx)
    2d75:	c7 04 24 d0 a0 02 00 	movl   $0x2a0d0,(%esp)
    2d7c:	a3 e0 a0 02 00       	mov    %eax,0x2a0e0
    2d81:	e8 da ba 00 00       	call   e860 <fibril_mutex_unlock>
    2d86:	c7 44 24 04 00 00 00 	movl   $0x0,0x4(%esp)
    2d8d:	00 
    2d8e:	89 34 24             	mov    %esi,(%esp)
    2d91:	e8 3a 7b 01 00       	call   1a8d0 <async_answer_0>
    2d96:	e9 65 fd ff ff       	jmp    2b00 <driver_connection+0x20>
    2d9b:	90                   	nop
    2d9c:	8d 74 26 00          	lea    0x0(%esi,%eiz,1),%esi
    2da0:	c7 04 24 d0 a0 02 00 	movl   $0x2a0d0,(%esp)
    2da7:	e8 94 b9 00 00       	call   e740 <fibril_mutex_lock>
    2dac:	c7 04 24 d0 a0 02 00 	movl   $0x2a0d0,(%esp)
    2db3:	e8 b8 bb 00 00       	call   e970 <fibril_mutex_is_locked>
    2db8:	84 c0                	test   %al,%al
    2dba:	0f 84 ac 02 00 00    	je     306c <driver_connection+0x58c>
    2dc0:	a1 e4 a0 02 00       	mov    0x2a0e4,%eax
    2dc5:	3d e0 a0 02 00       	cmp    $0x2a0e0,%eax
    2dca:	75 1a                	jne    2de6 <driver_connection+0x306>
    2dcc:	e9 4f 01 00 00       	jmp    2f20 <driver_connection+0x440>
    2dd1:	8d b4 26 00 00 00 00 	lea    0x0(%esi,%eiz,1),%esi
    2dd8:	8b 40 04             	mov    0x4(%eax),%eax
    2ddb:	3d e0 a0 02 00       	cmp    $0x2a0e0,%eax
    2de0:	0f 84 3a 01 00 00    	je     2f20 <driver_connection+0x440>
    2de6:	8d 58 ec             	lea    -0x14(%eax),%ebx
    2de9:	3b 78 ec             	cmp    -0x14(%eax),%edi
    2dec:	75 ea                	jne    2dd8 <driver_connection+0x2f8>
    2dee:	8d 7b 04             	lea    0x4(%ebx),%edi
    2df1:	f0 ff 43 04          	lock incl 0x4(%ebx)
    2df5:	c7 04 24 d0 a0 02 00 	movl   $0x2a0d0,(%esp)
    2dfc:	e8 5f ba 00 00       	call   e860 <fibril_mutex_unlock>
    2e01:	a1 78 a5 02 00       	mov    0x2a578,%eax
    2e06:	8b 40 04             	mov    0x4(%eax),%eax
    2e09:	8b 40 04             	mov    0x4(%eax),%eax
    2e0c:	85 c0                	test   %eax,%eax
    2e0e:	0f 85 a8 fe ff ff    	jne    2cbc <driver_connection+0x1dc>
    2e14:	b8 f5 ff ff ff       	mov    $0xfffffff5,%eax
    2e19:	e9 ab fe ff ff       	jmp    2cc9 <driver_connection+0x1e9>
    2e1e:	66 90                	xchg   %ax,%ax
    2e20:	c7 04 24 b8 a0 02 00 	movl   $0x2a0b8,(%esp)
    2e27:	e8 14 b9 00 00       	call   e740 <fibril_mutex_lock>
    2e2c:	c7 04 24 b8 a0 02 00 	movl   $0x2a0b8,(%esp)
    2e33:	e8 38 bb 00 00       	call   e970 <fibril_mutex_is_locked>
    2e38:	84 c0                	test   %al,%al
    2e3a:	0f 84 10 02 00 00    	je     3050 <driver_connection+0x570>
    2e40:	a1 cc a0 02 00       	mov    0x2a0cc,%eax
    2e45:	3d c8 a0 02 00       	cmp    $0x2a0c8,%eax
    2e4a:	75 1a                	jne    2e66 <driver_connection+0x386>
    2e4c:	e9 f7 00 00 00       	jmp    2f48 <driver_connection+0x468>
    2e51:	8d b4 26 00 00 00 00 	lea    0x0(%esi,%eiz,1),%esi
    2e58:	8b 40 04             	mov    0x4(%eax),%eax
    2e5b:	3d c8 a0 02 00       	cmp    $0x2a0c8,%eax
    2e60:	0f 84 e2 00 00 00    	je     2f48 <driver_connection+0x468>
    2e66:	8d 58 d4             	lea    -0x2c(%eax),%ebx
    2e69:	3b 7b 04             	cmp    0x4(%ebx),%edi
    2e6c:	75 ea                	jne    2e58 <driver_connection+0x378>
    2e6e:	8b 43 0c             	mov    0xc(%ebx),%eax
    2e71:	f0 ff 40 04          	lock incl 0x4(%eax)
    2e75:	f0 ff 43 08          	lock incl 0x8(%ebx)
    2e79:	c7 04 24 b8 a0 02 00 	movl   $0x2a0b8,(%esp)
    2e80:	e8 db b9 00 00       	call   e860 <fibril_mutex_unlock>
    2e85:	a1 78 a5 02 00       	mov    0x2a578,%eax
    2e8a:	8b 40 04             	mov    0x4(%eax),%eax
    2e8d:	8b 40 10             	mov    0x10(%eax),%eax
    2e90:	85 c0                	test   %eax,%eax
    2e92:	74 80                	je     2e14 <driver_connection+0x334>
    2e94:	89 1c 24             	mov    %ebx,(%esp)
    2e97:	ff d0                	call   *%eax
    2e99:	e9 2b fe ff ff       	jmp    2cc9 <driver_connection+0x1e9>
    2e9e:	66 90                	xchg   %ax,%ax
    2ea0:	8b 55 0c             	mov    0xc(%ebp),%edx
    2ea3:	e8 18 f9 ff ff       	call   27c0 <driver_connection_gen.isra.8>
    2ea8:	83 c4 6c             	add    $0x6c,%esp
    2eab:	5b                   	pop    %ebx
    2eac:	5e                   	pop    %esi
    2ead:	5f                   	pop    %edi
    2eae:	5d                   	pop    %ebp
    2eaf:	c3                   	ret    
    2eb0:	83 ca ff             	or     $0xffffffff,%edx
    2eb3:	f0 0f c1 17          	lock xadd %edx,(%edi)
    2eb7:	4a                   	dec    %edx
    2eb8:	0f 85 0b fe ff ff    	jne    2cc9 <driver_connection+0x1e9>
    2ebe:	8b 43 08             	mov    0x8(%ebx),%eax
    2ec1:	85 c0                	test   %eax,%eax
    2ec3:	74 08                	je     2ecd <driver_connection+0x3ed>
    2ec5:	89 04 24             	mov    %eax,(%esp)
    2ec8:	e8 03 83 01 00       	call   1b1d0 <async_hangup>
    2ecd:	8b 43 10             	mov    0x10(%ebx),%eax
    2ed0:	85 c0                	test   %eax,%eax
    2ed2:	74 08                	je     2edc <driver_connection+0x3fc>
    2ed4:	89 04 24             	mov    %eax,(%esp)
    2ed7:	e8 54 4c 01 00       	call   17b30 <free>
    2edc:	89 1c 24             	mov    %ebx,(%esp)
    2edf:	e8 4c 4c 01 00       	call   17b30 <free>
    2ee4:	31 c0                	xor    %eax,%eax
    2ee6:	e9 de fd ff ff       	jmp    2cc9 <driver_connection+0x1e9>
    2eeb:	90                   	nop
    2eec:	8d 74 26 00          	lea    0x0(%esi,%eiz,1),%esi
    2ef0:	c7 45 b0 f5 ff ff ff 	movl   $0xfffffff5,-0x50(%ebp)
    2ef7:	e9 17 fd ff ff       	jmp    2c13 <driver_connection+0x133>
    2efc:	8d 74 26 00          	lea    0x0(%esi,%eiz,1),%esi
    2f00:	83 c8 ff             	or     $0xffffffff,%eax
    2f03:	f0 0f c1 43 04       	lock xadd %eax,0x4(%ebx)
    2f08:	48                   	dec    %eax
    2f09:	0f 84 16 01 00 00    	je     3025 <driver_connection+0x545>
    2f0f:	89 7c 24 04          	mov    %edi,0x4(%esp)
    2f13:	89 34 24             	mov    %esi,(%esp)
    2f16:	e8 b5 79 01 00       	call   1a8d0 <async_answer_0>
    2f1b:	e9 e0 fb ff ff       	jmp    2b00 <driver_connection+0x20>
    2f20:	c7 04 24 d0 a0 02 00 	movl   $0x2a0d0,(%esp)
    2f27:	e8 34 b9 00 00       	call   e860 <fibril_mutex_unlock>
    2f2c:	c7 44 24 04 ff ff ff 	movl   $0xffffffff,0x4(%esp)
    2f33:	ff 
    2f34:	89 34 24             	mov    %esi,(%esp)
    2f37:	e8 94 79 01 00       	call   1a8d0 <async_answer_0>
    2f3c:	e9 bf fb ff ff       	jmp    2b00 <driver_connection+0x20>
    2f41:	8d b4 26 00 00 00 00 	lea    0x0(%esi,%eiz,1),%esi
    2f48:	c7 04 24 b8 a0 02 00 	movl   $0x2a0b8,(%esp)
    2f4f:	e8 0c b9 00 00       	call   e860 <fibril_mutex_unlock>
    2f54:	c7 44 24 04 ff ff ff 	movl   $0xffffffff,0x4(%esp)
    2f5b:	ff 
    2f5c:	89 34 24             	mov    %esi,(%esp)
    2f5f:	e8 6c 79 01 00       	call   1a8d0 <async_answer_0>
    2f64:	e9 97 fb ff ff       	jmp    2b00 <driver_connection+0x20>
    2f69:	8d b4 26 00 00 00 00 	lea    0x0(%esi,%eiz,1),%esi
    2f70:	8b 42 08             	mov    0x8(%edx),%eax
    2f73:	85 c0                	test   %eax,%eax
    2f75:	74 08                	je     2f7f <driver_connection+0x49f>
    2f77:	89 04 24             	mov    %eax,(%esp)
    2f7a:	e8 51 82 01 00       	call   1b1d0 <async_hangup>
    2f7f:	8b 4d b4             	mov    -0x4c(%ebp),%ecx
    2f82:	8b 41 10             	mov    0x10(%ecx),%eax
    2f85:	85 c0                	test   %eax,%eax
    2f87:	74 08                	je     2f91 <driver_connection+0x4b1>
    2f89:	89 04 24             	mov    %eax,(%esp)
    2f8c:	e8 9f 4b 01 00       	call   17b30 <free>
    2f91:	8b 55 b4             	mov    -0x4c(%ebp),%edx
    2f94:	89 14 24             	mov    %edx,(%esp)
    2f97:	e8 94 4b 01 00       	call   17b30 <free>
    2f9c:	e9 98 fc ff ff       	jmp    2c39 <driver_connection+0x159>
    2fa1:	8d b4 26 00 00 00 00 	lea    0x0(%esi,%eiz,1),%esi
    2fa8:	8d 7b 18             	lea    0x18(%ebx),%edi
    2fab:	8b 43 1c             	mov    0x1c(%ebx),%eax
    2fae:	39 f8                	cmp    %edi,%eax
    2fb0:	74 48                	je     2ffa <driver_connection+0x51a>
    2fb2:	89 5d ac             	mov    %ebx,-0x54(%ebp)
    2fb5:	89 c3                	mov    %eax,%ebx
    2fb7:	90                   	nop
    2fb8:	8b 0b                	mov    (%ebx),%ecx
    2fba:	85 c9                	test   %ecx,%ecx
    2fbc:	74 0e                	je     2fcc <driver_connection+0x4ec>
    2fbe:	8b 53 04             	mov    0x4(%ebx),%edx
    2fc1:	85 d2                	test   %edx,%edx
    2fc3:	74 07                	je     2fcc <driver_connection+0x4ec>
    2fc5:	89 0a                	mov    %ecx,(%edx)
    2fc7:	8b 0b                	mov    (%ebx),%ecx
    2fc9:	89 51 04             	mov    %edx,0x4(%ecx)
    2fcc:	8b 53 08             	mov    0x8(%ebx),%edx
    2fcf:	c7 03 00 00 00 00    	movl   $0x0,(%ebx)
    2fd5:	c7 43 04 00 00 00 00 	movl   $0x0,0x4(%ebx)
    2fdc:	85 d2                	test   %edx,%edx
    2fde:	74 08                	je     2fe8 <driver_connection+0x508>
    2fe0:	89 14 24             	mov    %edx,(%esp)
    2fe3:	e8 48 4b 01 00       	call   17b30 <free>
    2fe8:	89 1c 24             	mov    %ebx,(%esp)
    2feb:	e8 40 4b 01 00       	call   17b30 <free>
    2ff0:	8b 5f 04             	mov    0x4(%edi),%ebx
    2ff3:	39 fb                	cmp    %edi,%ebx
    2ff5:	75 c1                	jne    2fb8 <driver_connection+0x4d8>
    2ff7:	8b 5d ac             	mov    -0x54(%ebp),%ebx
    2ffa:	8b 43 20             	mov    0x20(%ebx),%eax
    2ffd:	85 c0                	test   %eax,%eax
    2fff:	74 08                	je     3009 <driver_connection+0x529>
    3001:	89 04 24             	mov    %eax,(%esp)
    3004:	e8 27 4b 01 00       	call   17b30 <free>
    3009:	8b 43 14             	mov    0x14(%ebx),%eax
    300c:	85 c0                	test   %eax,%eax
    300e:	74 08                	je     3018 <driver_connection+0x538>
    3010:	89 04 24             	mov    %eax,(%esp)
    3013:	e8 18 4b 01 00       	call   17b30 <free>
    3018:	89 1c 24             	mov    %ebx,(%esp)
    301b:	e8 10 4b 01 00       	call   17b30 <free>
    3020:	e9 02 fc ff ff       	jmp    2c27 <driver_connection+0x147>
    3025:	8b 43 08             	mov    0x8(%ebx),%eax
    3028:	85 c0                	test   %eax,%eax
    302a:	74 08                	je     3034 <driver_connection+0x554>
    302c:	89 04 24             	mov    %eax,(%esp)
    302f:	e8 9c 81 01 00       	call   1b1d0 <async_hangup>
    3034:	8b 43 10             	mov    0x10(%ebx),%eax
    3037:	85 c0                	test   %eax,%eax
    3039:	74 08                	je     3043 <driver_connection+0x563>
    303b:	89 04 24             	mov    %eax,(%esp)
    303e:	e8 ed 4a 01 00       	call   17b30 <free>
    3043:	89 1c 24             	mov    %ebx,(%esp)
    3046:	e8 e5 4a 01 00       	call   17b30 <free>
    304b:	e9 bf fe ff ff       	jmp    2f0f <driver_connection+0x42f>
    3050:	c7 44 24 08 75 00 00 	movl   $0x75,0x8(%esp)
    3057:	00 
    3058:	c7 44 24 04 a0 6f 02 	movl   $0x26fa0,0x4(%esp)
    305f:	00 
    3060:	c7 04 24 e8 70 02 00 	movl   $0x270e8,(%esp)
    3067:	e8 84 f5 01 00       	call   225f0 <assert_abort>
    306c:	c7 44 24 08 66 00 00 	movl   $0x66,0x8(%esp)
    3073:	00 
    3074:	c7 44 24 04 a0 6f 02 	movl   $0x26fa0,0x4(%esp)
    307b:	00 
    307c:	c7 04 24 34 72 02 00 	movl   $0x27234,(%esp)
    3083:	e8 68 f5 01 00       	call   225f0 <assert_abort>
    3088:	90                   	nop
    3089:	8d b4 26 00 00 00 00 	lea    0x0(%esi,%eiz,1),%esi

00003090 <ddf_dev_data_alloc>:
    3090:	55                   	push   %ebp
    3091:	89 e5                	mov    %esp,%ebp
    3093:	53                   	push   %ebx
    3094:	83 ec 14             	sub    $0x14,%esp
    3097:	8b 5d 08             	mov    0x8(%ebp),%ebx
    309a:	8b 43 10             	mov    0x10(%ebx),%eax
    309d:	85 c0                	test   %eax,%eax
    309f:	75 20                	jne    30c1 <ddf_dev_data_alloc+0x31>
    30a1:	8b 45 0c             	mov    0xc(%ebp),%eax
    30a4:	c7 04 24 01 00 00 00 	movl   $0x1,(%esp)
    30ab:	89 44 24 04          	mov    %eax,0x4(%esp)
    30af:	e8 0c 49 01 00       	call   179c0 <calloc>
    30b4:	85 c0                	test   %eax,%eax
    30b6:	74 03                	je     30bb <ddf_dev_data_alloc+0x2b>
    30b8:	89 43 10             	mov    %eax,0x10(%ebx)
    30bb:	83 c4 14             	add    $0x14,%esp
    30be:	5b                   	pop    %ebx
    30bf:	5d                   	pop    %ebp
    30c0:	c3                   	ret    
    30c1:	c7 44 24 08 52 02 00 	movl   $0x252,0x8(%esp)
    30c8:	00 
    30c9:	c7 44 24 04 a0 6f 02 	movl   $0x26fa0,0x4(%esp)
    30d0:	00 
    30d1:	c7 04 24 db 6f 02 00 	movl   $0x26fdb,(%esp)
    30d8:	e8 13 f5 01 00       	call   225f0 <assert_abort>
    30dd:	8d 76 00             	lea    0x0(%esi),%esi

000030e0 <ddf_fun_data_implant>:
    30e0:	55                   	push   %ebp
    30e1:	89 e5                	mov    %esp,%ebp
    30e3:	83 ec 18             	sub    $0x18,%esp
    30e6:	8b 45 08             	mov    0x8(%ebp),%eax
    30e9:	8b 50 20             	mov    0x20(%eax),%edx
    30ec:	85 d2                	test   %edx,%edx
    30ee:	75 08                	jne    30f8 <ddf_fun_data_implant+0x18>
    30f0:	8b 55 0c             	mov    0xc(%ebp),%edx
    30f3:	89 50 20             	mov    %edx,0x20(%eax)
    30f6:	c9                   	leave  
    30f7:	c3                   	ret    
    30f8:	c7 44 24 08 63 02 00 	movl   $0x263,0x8(%esp)
    30ff:	00 
    3100:	c7 44 24 04 a0 6f 02 	movl   $0x26fa0,0x4(%esp)
    3107:	00 
    3108:	c7 04 24 f4 6f 02 00 	movl   $0x26ff4,(%esp)
    310f:	e8 dc f4 01 00       	call   225f0 <assert_abort>
    3114:	8d b6 00 00 00 00    	lea    0x0(%esi),%esi
    311a:	8d bf 00 00 00 00    	lea    0x0(%edi),%edi

00003120 <ddf_dev_data_get>:
    3120:	55                   	push   %ebp
    3121:	89 e5                	mov    %esp,%ebp
    3123:	8b 45 08             	mov    0x8(%ebp),%eax
    3126:	5d                   	pop    %ebp
    3127:	8b 40 10             	mov    0x10(%eax),%eax
    312a:	c3                   	ret    
    312b:	90                   	nop
    312c:	8d 74 26 00          	lea    0x0(%esi,%eiz,1),%esi

00003130 <ddf_dev_get_handle>:
    3130:	55                   	push   %ebp
    3131:	89 e5                	mov    %esp,%ebp
    3133:	8b 45 08             	mov    0x8(%ebp),%eax
    3136:	5d                   	pop    %ebp
    3137:	8b 00                	mov    (%eax),%eax
    3139:	c3                   	ret    
    313a:	8d b6 00 00 00 00    	lea    0x0(%esi),%esi

00003140 <ddf_dev_get_name>:
    3140:	55                   	push   %ebp
    3141:	89 e5                	mov    %esp,%ebp
    3143:	8b 45 08             	mov    0x8(%ebp),%eax
    3146:	5d                   	pop    %ebp
    3147:	8b 40 0c             	mov    0xc(%eax),%eax
    314a:	c3                   	ret    
    314b:	90                   	nop
    314c:	8d 74 26 00          	lea    0x0(%esi,%eiz,1),%esi

00003150 <ddf_dev_parent_sess_create>:
    3150:	55                   	push   %ebp
    3151:	89 e5                	mov    %esp,%ebp
    3153:	53                   	push   %ebx
    3154:	83 ec 14             	sub    $0x14,%esp
    3157:	8b 5d 08             	mov    0x8(%ebp),%ebx
    315a:	8b 4b 08             	mov    0x8(%ebx),%ecx
    315d:	85 c9                	test   %ecx,%ecx
    315f:	75 22                	jne    3183 <ddf_dev_parent_sess_create+0x33>
    3161:	c7 44 24 08 01 00 00 	movl   $0x1,0x8(%esp)
    3168:	00 
    3169:	8b 03                	mov    (%ebx),%eax
    316b:	89 44 24 04          	mov    %eax,0x4(%esp)
    316f:	8b 45 0c             	mov    0xc(%ebp),%eax
    3172:	89 04 24             	mov    %eax,(%esp)
    3175:	e8 f6 63 00 00       	call   9570 <devman_parent_device_connect>
    317a:	89 43 08             	mov    %eax,0x8(%ebx)
    317d:	83 c4 14             	add    $0x14,%esp
    3180:	5b                   	pop    %ebx
    3181:	5d                   	pop    %ebp
    3182:	c3                   	ret    
    3183:	c7 44 24 08 87 02 00 	movl   $0x287,0x8(%esp)
    318a:	00 
    318b:	c7 44 24 04 a0 6f 02 	movl   $0x26fa0,0x4(%esp)
    3192:	00 
    3193:	c7 04 24 0d 70 02 00 	movl   $0x2700d,(%esp)
    319a:	e8 51 f4 01 00       	call   225f0 <assert_abort>
    319f:	90                   	nop

000031a0 <ddf_dev_parent_sess_get>:
    31a0:	55                   	push   %ebp
    31a1:	89 e5                	mov    %esp,%ebp
    31a3:	8b 45 08             	mov    0x8(%ebp),%eax
    31a6:	5d                   	pop    %ebp
    31a7:	8b 40 08             	mov    0x8(%eax),%eax
    31aa:	c3                   	ret    
    31ab:	90                   	nop
    31ac:	8d 74 26 00          	lea    0x0(%esi,%eiz,1),%esi

000031b0 <ddf_fun_set_name>:
    31b0:	55                   	push   %ebp
    31b1:	89 e5                	mov    %esp,%ebp
    31b3:	53                   	push   %ebx
    31b4:	83 ec 14             	sub    $0x14,%esp
    31b7:	8b 5d 08             	mov    0x8(%ebp),%ebx
    31ba:	8b 43 14             	mov    0x14(%ebx),%eax
    31bd:	85 c0                	test   %eax,%eax
    31bf:	75 19                	jne    31da <ddf_fun_set_name+0x2a>
    31c1:	8b 45 0c             	mov    0xc(%ebp),%eax
    31c4:	89 04 24             	mov    %eax,(%esp)
    31c7:	e8 44 a2 00 00       	call   d410 <str_dup>
    31cc:	83 f8 01             	cmp    $0x1,%eax
    31cf:	89 43 14             	mov    %eax,0x14(%ebx)
    31d2:	19 c0                	sbb    %eax,%eax
    31d4:	83 c4 14             	add    $0x14,%esp
    31d7:	5b                   	pop    %ebx
    31d8:	5d                   	pop    %ebp
    31d9:	c3                   	ret    
    31da:	c7 44 24 08 a0 02 00 	movl   $0x2a0,0x8(%esp)
    31e1:	00 
    31e2:	c7 44 24 04 a0 6f 02 	movl   $0x26fa0,0x4(%esp)
    31e9:	00 
    31ea:	c7 04 24 26 70 02 00 	movl   $0x27026,(%esp)
    31f1:	e8 fa f3 01 00       	call   225f0 <assert_abort>
    31f6:	8d 76 00             	lea    0x0(%esi),%esi
    31f9:	8d bc 27 00 00 00 00 	lea    0x0(%edi,%eiz,1),%edi

00003200 <ddf_fun_get_dev>:
    3200:	55                   	push   %ebp
    3201:	89 e5                	mov    %esp,%ebp
    3203:	8b 45 08             	mov    0x8(%ebp),%eax
    3206:	5d                   	pop    %ebp
    3207:	8b 40 0c             	mov    0xc(%eax),%eax
    320a:	c3                   	ret    
    320b:	90                   	nop
    320c:	8d 74 26 00          	lea    0x0(%esi,%eiz,1),%esi

00003210 <ddf_fun_get_handle>:
    3210:	55                   	push   %ebp
    3211:	89 e5                	mov    %esp,%ebp
    3213:	8b 45 08             	mov    0x8(%ebp),%eax
    3216:	5d                   	pop    %ebp
    3217:	8b 40 04             	mov    0x4(%eax),%eax
    321a:	c3                   	ret    
    321b:	90                   	nop
    321c:	8d 74 26 00          	lea    0x0(%esi,%eiz,1),%esi

00003220 <ddf_fun_create>:
    3220:	55                   	push   %ebp
    3221:	89 e5                	mov    %esp,%ebp
    3223:	57                   	push   %edi
    3224:	56                   	push   %esi
    3225:	53                   	push   %ebx
    3226:	83 ec 1c             	sub    $0x1c,%esp
    3229:	8b 75 08             	mov    0x8(%ebp),%esi
    322c:	c7 44 24 04 34 00 00 	movl   $0x34,0x4(%esp)
    3233:	00 
    3234:	c7 04 24 01 00 00 00 	movl   $0x1,(%esp)
    323b:	e8 80 47 01 00       	call   179c0 <calloc>
    3240:	89 c3                	mov    %eax,%ebx
    3242:	85 c0                	test   %eax,%eax
    3244:	74 44                	je     328a <ddf_fun_create+0x6a>
    3246:	8d 78 18             	lea    0x18(%eax),%edi
    3249:	c7 40 2c 00 00 00 00 	movl   $0x0,0x2c(%eax)
    3250:	89 78 18             	mov    %edi,0x18(%eax)
    3253:	89 78 1c             	mov    %edi,0x1c(%eax)
    3256:	c7 40 30 00 00 00 00 	movl   $0x0,0x30(%eax)
    325d:	89 70 0c             	mov    %esi,0xc(%eax)
    3260:	f0 ff 46 04          	lock incl 0x4(%esi)
    3264:	f0 ff 40 08          	lock incl 0x8(%eax)
    3268:	c6 00 00             	movb   $0x0,(%eax)
    326b:	8b 45 0c             	mov    0xc(%ebp),%eax
    326e:	89 43 10             	mov    %eax,0x10(%ebx)
    3271:	8b 45 10             	mov    0x10(%ebp),%eax
    3274:	85 c0                	test   %eax,%eax
    3276:	74 12                	je     328a <ddf_fun_create+0x6a>
    3278:	8b 45 10             	mov    0x10(%ebp),%eax
    327b:	89 04 24             	mov    %eax,(%esp)
    327e:	e8 8d a1 00 00       	call   d410 <str_dup>
    3283:	89 43 14             	mov    %eax,0x14(%ebx)
    3286:	85 c0                	test   %eax,%eax
    3288:	74 0a                	je     3294 <ddf_fun_create+0x74>
    328a:	83 c4 1c             	add    $0x1c,%esp
    328d:	89 d8                	mov    %ebx,%eax
    328f:	5b                   	pop    %ebx
    3290:	5e                   	pop    %esi
    3291:	5f                   	pop    %edi
    3292:	5d                   	pop    %ebp
    3293:	c3                   	ret    
    3294:	8b 73 1c             	mov    0x1c(%ebx),%esi
    3297:	39 fe                	cmp    %edi,%esi
    3299:	74 44                	je     32df <ddf_fun_create+0xbf>
    329b:	90                   	nop
    329c:	8d 74 26 00          	lea    0x0(%esi,%eiz,1),%esi
    32a0:	8b 0e                	mov    (%esi),%ecx
    32a2:	85 c9                	test   %ecx,%ecx
    32a4:	74 0e                	je     32b4 <ddf_fun_create+0x94>
    32a6:	8b 46 04             	mov    0x4(%esi),%eax
    32a9:	85 c0                	test   %eax,%eax
    32ab:	74 07                	je     32b4 <ddf_fun_create+0x94>
    32ad:	89 08                	mov    %ecx,(%eax)
    32af:	8b 0e                	mov    (%esi),%ecx
    32b1:	89 41 04             	mov    %eax,0x4(%ecx)
    32b4:	8b 46 08             	mov    0x8(%esi),%eax
    32b7:	c7 06 00 00 00 00    	movl   $0x0,(%esi)
    32bd:	c7 46 04 00 00 00 00 	movl   $0x0,0x4(%esi)
    32c4:	85 c0                	test   %eax,%eax
    32c6:	74 08                	je     32d0 <ddf_fun_create+0xb0>
    32c8:	89 04 24             	mov    %eax,(%esp)
    32cb:	e8 60 48 01 00       	call   17b30 <free>
    32d0:	89 34 24             	mov    %esi,(%esp)
    32d3:	e8 58 48 01 00       	call   17b30 <free>
    32d8:	8b 77 04             	mov    0x4(%edi),%esi
    32db:	39 fe                	cmp    %edi,%esi
    32dd:	75 c1                	jne    32a0 <ddf_fun_create+0x80>
    32df:	8b 43 20             	mov    0x20(%ebx),%eax
    32e2:	85 c0                	test   %eax,%eax
    32e4:	74 08                	je     32ee <ddf_fun_create+0xce>
    32e6:	89 04 24             	mov    %eax,(%esp)
    32e9:	e8 42 48 01 00       	call   17b30 <free>
    32ee:	8b 43 14             	mov    0x14(%ebx),%eax
    32f1:	85 c0                	test   %eax,%eax
    32f3:	74 08                	je     32fd <ddf_fun_create+0xdd>
    32f5:	89 04 24             	mov    %eax,(%esp)
    32f8:	e8 33 48 01 00       	call   17b30 <free>
    32fd:	89 1c 24             	mov    %ebx,(%esp)
    3300:	31 db                	xor    %ebx,%ebx
    3302:	e8 29 48 01 00       	call   17b30 <free>
    3307:	eb 81                	jmp    328a <ddf_fun_create+0x6a>
    3309:	8d b4 26 00 00 00 00 	lea    0x0(%esi,%eiz,1),%esi

00003310 <ddf_fun_data_alloc>:
    3310:	55                   	push   %ebp
    3311:	89 e5                	mov    %esp,%ebp
    3313:	53                   	push   %ebx
    3314:	83 ec 14             	sub    $0x14,%esp
    3317:	8b 5d 08             	mov    0x8(%ebp),%ebx
    331a:	80 3b 00             	cmpb   $0x0,(%ebx)
    331d:	75 27                	jne    3346 <ddf_fun_data_alloc+0x36>
    331f:	8b 43 20             	mov    0x20(%ebx),%eax
    3322:	85 c0                	test   %eax,%eax
    3324:	75 3c                	jne    3362 <ddf_fun_data_alloc+0x52>
    3326:	8b 45 0c             	mov    0xc(%ebp),%eax
    3329:	c7 04 24 01 00 00 00 	movl   $0x1,(%esp)
    3330:	89 44 24 04          	mov    %eax,0x4(%esp)
    3334:	e8 87 46 01 00       	call   179c0 <calloc>
    3339:	85 c0                	test   %eax,%eax
    333b:	74 03                	je     3340 <ddf_fun_data_alloc+0x30>
    333d:	89 43 20             	mov    %eax,0x20(%ebx)
    3340:	83 c4 14             	add    $0x14,%esp
    3343:	5b                   	pop    %ebx
    3344:	5d                   	pop    %ebp
    3345:	c3                   	ret    
    3346:	c7 44 24 08 ec 02 00 	movl   $0x2ec,0x8(%esp)
    334d:	00 
    334e:	c7 44 24 04 a0 6f 02 	movl   $0x26fa0,0x4(%esp)
    3355:	00 
    3356:	c7 04 24 38 70 02 00 	movl   $0x27038,(%esp)
    335d:	e8 8e f2 01 00       	call   225f0 <assert_abort>
    3362:	c7 44 24 08 ed 02 00 	movl   $0x2ed,0x8(%esp)
    3369:	00 
    336a:	c7 44 24 04 a0 6f 02 	movl   $0x26fa0,0x4(%esp)
    3371:	00 
    3372:	c7 04 24 f4 6f 02 00 	movl   $0x26ff4,(%esp)
    3379:	e8 72 f2 01 00       	call   225f0 <assert_abort>
    337e:	66 90                	xchg   %ax,%ax

00003380 <ddf_fun_data_get>:
    3380:	55                   	push   %ebp
    3381:	89 e5                	mov    %esp,%ebp
    3383:	8b 45 08             	mov    0x8(%ebp),%eax
    3386:	5d                   	pop    %ebp
    3387:	8b 40 20             	mov    0x20(%eax),%eax
    338a:	c3                   	ret    
    338b:	90                   	nop
    338c:	8d 74 26 00          	lea    0x0(%esi,%eiz,1),%esi

00003390 <ddf_fun_get_name>:
    3390:	55                   	push   %ebp
    3391:	89 e5                	mov    %esp,%ebp
    3393:	8b 45 08             	mov    0x8(%ebp),%eax
    3396:	5d                   	pop    %ebp
    3397:	8b 40 14             	mov    0x14(%eax),%eax
    339a:	c3                   	ret    
    339b:	90                   	nop
    339c:	8d 74 26 00          	lea    0x0(%esi,%eiz,1),%esi

000033a0 <ddf_fun_destroy>:
    33a0:	55                   	push   %ebp
    33a1:	89 e5                	mov    %esp,%ebp
    33a3:	57                   	push   %edi
    33a4:	56                   	push   %esi
    33a5:	53                   	push   %ebx
    33a6:	83 ec 2c             	sub    $0x2c,%esp
    33a9:	8b 5d 08             	mov    0x8(%ebp),%ebx
    33ac:	80 3b 00             	cmpb   $0x0,(%ebx)
    33af:	0f 85 d8 00 00 00    	jne    348d <ddf_fun_destroy+0xed>
    33b5:	8b 73 0c             	mov    0xc(%ebx),%esi
    33b8:	83 c8 ff             	or     $0xffffffff,%eax
    33bb:	f0 0f c1 43 08       	lock xadd %eax,0x8(%ebx)
    33c0:	48                   	dec    %eax
    33c1:	74 1d                	je     33e0 <ddf_fun_destroy+0x40>
    33c3:	83 c8 ff             	or     $0xffffffff,%eax
    33c6:	f0 0f c1 46 04       	lock xadd %eax,0x4(%esi)
    33cb:	48                   	dec    %eax
    33cc:	0f 84 8e 00 00 00    	je     3460 <ddf_fun_destroy+0xc0>
    33d2:	83 c4 2c             	add    $0x2c,%esp
    33d5:	5b                   	pop    %ebx
    33d6:	5e                   	pop    %esi
    33d7:	5f                   	pop    %edi
    33d8:	5d                   	pop    %ebp
    33d9:	c3                   	ret    
    33da:	8d b6 00 00 00 00    	lea    0x0(%esi),%esi
    33e0:	8d 7b 18             	lea    0x18(%ebx),%edi
    33e3:	8b 43 1c             	mov    0x1c(%ebx),%eax
    33e6:	39 f8                	cmp    %edi,%eax
    33e8:	74 4b                	je     3435 <ddf_fun_destroy+0x95>
    33ea:	8d b6 00 00 00 00    	lea    0x0(%esi),%esi
    33f0:	8b 08                	mov    (%eax),%ecx
    33f2:	85 c9                	test   %ecx,%ecx
    33f4:	74 0e                	je     3404 <ddf_fun_destroy+0x64>
    33f6:	8b 50 04             	mov    0x4(%eax),%edx
    33f9:	85 d2                	test   %edx,%edx
    33fb:	74 07                	je     3404 <ddf_fun_destroy+0x64>
    33fd:	89 0a                	mov    %ecx,(%edx)
    33ff:	8b 08                	mov    (%eax),%ecx
    3401:	89 51 04             	mov    %edx,0x4(%ecx)
    3404:	8b 50 08             	mov    0x8(%eax),%edx
    3407:	c7 00 00 00 00 00    	movl   $0x0,(%eax)
    340d:	c7 40 04 00 00 00 00 	movl   $0x0,0x4(%eax)
    3414:	85 d2                	test   %edx,%edx
    3416:	74 0e                	je     3426 <ddf_fun_destroy+0x86>
    3418:	89 14 24             	mov    %edx,(%esp)
    341b:	89 45 e4             	mov    %eax,-0x1c(%ebp)
    341e:	e8 0d 47 01 00       	call   17b30 <free>
    3423:	8b 45 e4             	mov    -0x1c(%ebp),%eax
    3426:	89 04 24             	mov    %eax,(%esp)
    3429:	e8 02 47 01 00       	call   17b30 <free>
    342e:	8b 47 04             	mov    0x4(%edi),%eax
    3431:	39 f8                	cmp    %edi,%eax
    3433:	75 bb                	jne    33f0 <ddf_fun_destroy+0x50>
    3435:	8b 43 20             	mov    0x20(%ebx),%eax
    3438:	85 c0                	test   %eax,%eax
    343a:	74 08                	je     3444 <ddf_fun_destroy+0xa4>
    343c:	89 04 24             	mov    %eax,(%esp)
    343f:	e8 ec 46 01 00       	call   17b30 <free>
    3444:	8b 43 14             	mov    0x14(%ebx),%eax
    3447:	85 c0                	test   %eax,%eax
    3449:	74 08                	je     3453 <ddf_fun_destroy+0xb3>
    344b:	89 04 24             	mov    %eax,(%esp)
    344e:	e8 dd 46 01 00       	call   17b30 <free>
    3453:	89 1c 24             	mov    %ebx,(%esp)
    3456:	e8 d5 46 01 00       	call   17b30 <free>
    345b:	e9 63 ff ff ff       	jmp    33c3 <ddf_fun_destroy+0x23>
    3460:	8b 46 08             	mov    0x8(%esi),%eax
    3463:	85 c0                	test   %eax,%eax
    3465:	74 08                	je     346f <ddf_fun_destroy+0xcf>
    3467:	89 04 24             	mov    %eax,(%esp)
    346a:	e8 61 7d 01 00       	call   1b1d0 <async_hangup>
    346f:	8b 46 10             	mov    0x10(%esi),%eax
    3472:	85 c0                	test   %eax,%eax
    3474:	74 08                	je     347e <ddf_fun_destroy+0xde>
    3476:	89 04 24             	mov    %eax,(%esp)
    3479:	e8 b2 46 01 00       	call   17b30 <free>
    347e:	89 75 08             	mov    %esi,0x8(%ebp)
    3481:	83 c4 2c             	add    $0x2c,%esp
    3484:	5b                   	pop    %ebx
    3485:	5e                   	pop    %esi
    3486:	5f                   	pop    %edi
    3487:	5d                   	pop    %ebp
    3488:	e9 a3 46 01 00       	jmp    17b30 <free>
    348d:	c7 44 24 08 11 03 00 	movl   $0x311,0x8(%esp)
    3494:	00 
    3495:	c7 44 24 04 a0 6f 02 	movl   $0x26fa0,0x4(%esp)
    349c:	00 
    349d:	c7 04 24 38 70 02 00 	movl   $0x27038,(%esp)
    34a4:	e8 47 f1 01 00       	call   225f0 <assert_abort>
    34a9:	8d b4 26 00 00 00 00 	lea    0x0(%esi,%eiz,1),%esi

000034b0 <ddf_fun_bind>:
    34b0:	55                   	push   %ebp
    34b1:	89 e5                	mov    %esp,%ebp
    34b3:	53                   	push   %ebx
    34b4:	83 ec 34             	sub    $0x34,%esp
    34b7:	8b 5d 08             	mov    0x8(%ebp),%ebx
    34ba:	80 3b 00             	cmpb   $0x0,(%ebx)
    34bd:	0f 85 c3 00 00 00    	jne    3586 <ddf_fun_bind+0xd6>
    34c3:	8b 43 14             	mov    0x14(%ebx),%eax
    34c6:	85 c0                	test   %eax,%eax
    34c8:	0f 84 d4 00 00 00    	je     35a2 <ddf_fun_bind+0xf2>
    34ce:	c7 04 24 b8 a0 02 00 	movl   $0x2a0b8,(%esp)
    34d5:	e8 66 b2 00 00       	call   e740 <fibril_mutex_lock>
    34da:	8b 15 c8 a0 02 00    	mov    0x2a0c8,%edx
    34e0:	8d 43 2c             	lea    0x2c(%ebx),%eax
    34e3:	c7 43 30 c8 a0 02 00 	movl   $0x2a0c8,0x30(%ebx)
    34ea:	89 53 2c             	mov    %edx,0x2c(%ebx)
    34ed:	89 42 04             	mov    %eax,0x4(%edx)
    34f0:	c7 04 24 b8 a0 02 00 	movl   $0x2a0b8,(%esp)
    34f7:	a3 c8 a0 02 00       	mov    %eax,0x2a0c8
    34fc:	e8 5f b3 00 00       	call   e860 <fibril_mutex_unlock>
    3501:	8d 43 04             	lea    0x4(%ebx),%eax
    3504:	89 44 24 10          	mov    %eax,0x10(%esp)
    3508:	8b 43 0c             	mov    0xc(%ebx),%eax
    350b:	8b 00                	mov    (%eax),%eax
    350d:	89 44 24 0c          	mov    %eax,0xc(%esp)
    3511:	8d 43 18             	lea    0x18(%ebx),%eax
    3514:	89 44 24 08          	mov    %eax,0x8(%esp)
    3518:	8b 43 10             	mov    0x10(%ebx),%eax
    351b:	89 44 24 04          	mov    %eax,0x4(%esp)
    351f:	8b 43 14             	mov    0x14(%ebx),%eax
    3522:	89 04 24             	mov    %eax,(%esp)
    3525:	e8 56 58 00 00       	call   8d80 <devman_add_function>
    352a:	85 c0                	test   %eax,%eax
    352c:	75 0a                	jne    3538 <ddf_fun_bind+0x88>
    352e:	c6 03 01             	movb   $0x1,(%ebx)
    3531:	83 c4 34             	add    $0x34,%esp
    3534:	5b                   	pop    %ebx
    3535:	5d                   	pop    %ebp
    3536:	c3                   	ret    
    3537:	90                   	nop
    3538:	c7 04 24 b8 a0 02 00 	movl   $0x2a0b8,(%esp)
    353f:	89 45 f4             	mov    %eax,-0xc(%ebp)
    3542:	e8 f9 b1 00 00       	call   e740 <fibril_mutex_lock>
    3547:	8b 4b 2c             	mov    0x2c(%ebx),%ecx
    354a:	85 c9                	test   %ecx,%ecx
    354c:	8b 45 f4             	mov    -0xc(%ebp),%eax
    354f:	74 0f                	je     3560 <ddf_fun_bind+0xb0>
    3551:	8b 53 30             	mov    0x30(%ebx),%edx
    3554:	85 d2                	test   %edx,%edx
    3556:	74 08                	je     3560 <ddf_fun_bind+0xb0>
    3558:	89 0a                	mov    %ecx,(%edx)
    355a:	8b 4b 2c             	mov    0x2c(%ebx),%ecx
    355d:	89 51 04             	mov    %edx,0x4(%ecx)
    3560:	c7 43 2c 00 00 00 00 	movl   $0x0,0x2c(%ebx)
    3567:	c7 43 30 00 00 00 00 	movl   $0x0,0x30(%ebx)
    356e:	c7 04 24 b8 a0 02 00 	movl   $0x2a0b8,(%esp)
    3575:	89 45 f4             	mov    %eax,-0xc(%ebp)
    3578:	e8 e3 b2 00 00       	call   e860 <fibril_mutex_unlock>
    357d:	8b 45 f4             	mov    -0xc(%ebp),%eax
    3580:	83 c4 34             	add    $0x34,%esp
    3583:	5b                   	pop    %ebx
    3584:	5d                   	pop    %ebp
    3585:	c3                   	ret    
    3586:	c7 44 24 08 35 03 00 	movl   $0x335,0x8(%esp)
    358d:	00 
    358e:	c7 44 24 04 a0 6f 02 	movl   $0x26fa0,0x4(%esp)
    3595:	00 
    3596:	c7 04 24 38 70 02 00 	movl   $0x27038,(%esp)
    359d:	e8 4e f0 01 00       	call   225f0 <assert_abort>
    35a2:	c7 44 24 08 36 03 00 	movl   $0x336,0x8(%esp)
    35a9:	00 
    35aa:	c7 44 24 04 a0 6f 02 	movl   $0x26fa0,0x4(%esp)
    35b1:	00 
    35b2:	c7 04 24 4c 70 02 00 	movl   $0x2704c,(%esp)
    35b9:	e8 32 f0 01 00       	call   225f0 <assert_abort>
    35be:	66 90                	xchg   %ax,%ax

000035c0 <ddf_fun_unbind>:
    35c0:	55                   	push   %ebp
    35c1:	89 e5                	mov    %esp,%ebp
    35c3:	53                   	push   %ebx
    35c4:	83 ec 24             	sub    $0x24,%esp
    35c7:	8b 5d 08             	mov    0x8(%ebp),%ebx
    35ca:	80 3b 00             	cmpb   $0x0,(%ebx)
    35cd:	74 6a                	je     3639 <ddf_fun_unbind+0x79>
    35cf:	8b 43 04             	mov    0x4(%ebx),%eax
    35d2:	89 04 24             	mov    %eax,(%esp)
    35d5:	e8 46 5c 00 00       	call   9220 <devman_remove_function>
    35da:	85 c0                	test   %eax,%eax
    35dc:	74 0a                	je     35e8 <ddf_fun_unbind+0x28>
    35de:	83 c4 24             	add    $0x24,%esp
    35e1:	5b                   	pop    %ebx
    35e2:	5d                   	pop    %ebp
    35e3:	c3                   	ret    
    35e4:	8d 74 26 00          	lea    0x0(%esi,%eiz,1),%esi
    35e8:	c7 04 24 b8 a0 02 00 	movl   $0x2a0b8,(%esp)
    35ef:	89 45 f4             	mov    %eax,-0xc(%ebp)
    35f2:	e8 49 b1 00 00       	call   e740 <fibril_mutex_lock>
    35f7:	8b 4b 2c             	mov    0x2c(%ebx),%ecx
    35fa:	85 c9                	test   %ecx,%ecx
    35fc:	8b 45 f4             	mov    -0xc(%ebp),%eax
    35ff:	74 0f                	je     3610 <ddf_fun_unbind+0x50>
    3601:	8b 53 30             	mov    0x30(%ebx),%edx
    3604:	85 d2                	test   %edx,%edx
    3606:	74 08                	je     3610 <ddf_fun_unbind+0x50>
    3608:	89 0a                	mov    %ecx,(%edx)
    360a:	8b 4b 2c             	mov    0x2c(%ebx),%ecx
    360d:	89 51 04             	mov    %edx,0x4(%ecx)
    3610:	c7 43 2c 00 00 00 00 	movl   $0x0,0x2c(%ebx)
    3617:	c7 43 30 00 00 00 00 	movl   $0x0,0x30(%ebx)
    361e:	c7 04 24 b8 a0 02 00 	movl   $0x2a0b8,(%esp)
    3625:	89 45 f4             	mov    %eax,-0xc(%ebp)
    3628:	e8 33 b2 00 00       	call   e860 <fibril_mutex_unlock>
    362d:	c6 03 00             	movb   $0x0,(%ebx)
    3630:	8b 45 f4             	mov    -0xc(%ebp),%eax
    3633:	83 c4 24             	add    $0x24,%esp
    3636:	5b                   	pop    %ebx
    3637:	5d                   	pop    %ebp
    3638:	c3                   	ret    
    3639:	c7 44 24 08 50 03 00 	movl   $0x350,0x8(%esp)
    3640:	00 
    3641:	c7 44 24 04 a0 6f 02 	movl   $0x26fa0,0x4(%esp)
    3648:	00 
    3649:	c7 04 24 5e 70 02 00 	movl   $0x2705e,(%esp)
    3650:	e8 9b ef 01 00       	call   225f0 <assert_abort>
    3655:	8d 74 26 00          	lea    0x0(%esi,%eiz,1),%esi
    3659:	8d bc 27 00 00 00 00 	lea    0x0(%edi,%eiz,1),%edi

00003660 <ddf_fun_online>:
    3660:	55                   	push   %ebp
    3661:	89 e5                	mov    %esp,%ebp
    3663:	83 ec 18             	sub    $0x18,%esp
    3666:	8b 45 08             	mov    0x8(%ebp),%eax
    3669:	80 38 00             	cmpb   $0x0,(%eax)
    366c:	74 0c                	je     367a <ddf_fun_online+0x1a>
    366e:	8b 40 04             	mov    0x4(%eax),%eax
    3671:	89 45 08             	mov    %eax,0x8(%ebp)
    3674:	c9                   	leave  
    3675:	e9 16 5d 00 00       	jmp    9390 <devman_drv_fun_online>
    367a:	c7 44 24 08 65 03 00 	movl   $0x365,0x8(%esp)
    3681:	00 
    3682:	c7 44 24 04 a0 6f 02 	movl   $0x26fa0,0x4(%esp)
    3689:	00 
    368a:	c7 04 24 5e 70 02 00 	movl   $0x2705e,(%esp)
    3691:	e8 5a ef 01 00       	call   225f0 <assert_abort>
    3696:	8d 76 00             	lea    0x0(%esi),%esi
    3699:	8d bc 27 00 00 00 00 	lea    0x0(%edi,%eiz,1),%edi

000036a0 <ddf_fun_offline>:
    36a0:	55                   	push   %ebp
    36a1:	89 e5                	mov    %esp,%ebp
    36a3:	83 ec 18             	sub    $0x18,%esp
    36a6:	8b 45 08             	mov    0x8(%ebp),%eax
    36a9:	80 38 00             	cmpb   $0x0,(%eax)
    36ac:	74 0c                	je     36ba <ddf_fun_offline+0x1a>
    36ae:	8b 40 04             	mov    0x4(%eax),%eax
    36b1:	89 45 08             	mov    %eax,0x8(%ebp)
    36b4:	c9                   	leave  
    36b5:	e9 c6 5d 00 00       	jmp    9480 <devman_drv_fun_offline>
    36ba:	c7 44 24 08 77 03 00 	movl   $0x377,0x8(%esp)
    36c1:	00 
    36c2:	c7 44 24 04 a0 6f 02 	movl   $0x26fa0,0x4(%esp)
    36c9:	00 
    36ca:	c7 04 24 5e 70 02 00 	movl   $0x2705e,(%esp)
    36d1:	e8 1a ef 01 00       	call   225f0 <assert_abort>
    36d6:	8d 76 00             	lea    0x0(%esi),%esi
    36d9:	8d bc 27 00 00 00 00 	lea    0x0(%edi,%eiz,1),%edi

000036e0 <ddf_fun_add_match_id>:
    36e0:	55                   	push   %ebp
    36e1:	89 e5                	mov    %esp,%ebp
    36e3:	57                   	push   %edi
    36e4:	56                   	push   %esi
    36e5:	53                   	push   %ebx
    36e6:	83 ec 1c             	sub    $0x1c,%esp
    36e9:	8b 75 08             	mov    0x8(%ebp),%esi
    36ec:	8b 5d 10             	mov    0x10(%ebp),%ebx
    36ef:	80 3e 00             	cmpb   $0x0,(%esi)
    36f2:	0f 85 97 00 00 00    	jne    378f <ddf_fun_add_match_id+0xaf>
    36f8:	83 7e 10 01          	cmpl   $0x1,0x10(%esi)
    36fc:	75 75                	jne    3773 <ddf_fun_add_match_id+0x93>
    36fe:	c7 04 24 10 00 00 00 	movl   $0x10,(%esp)
    3705:	e8 16 43 01 00       	call   17a20 <malloc>
    370a:	c7 44 24 08 10 00 00 	movl   $0x10,0x8(%esp)
    3711:	00 
    3712:	89 c7                	mov    %eax,%edi
    3714:	c7 44 24 04 00 00 00 	movl   $0x0,0x4(%esp)
    371b:	00 
    371c:	89 04 24             	mov    %eax,(%esp)
    371f:	e8 bc 6d 00 00       	call   a4e0 <memset>
    3724:	85 ff                	test   %edi,%edi
    3726:	74 44                	je     376c <ddf_fun_add_match_id+0x8c>
    3728:	8b 45 0c             	mov    0xc(%ebp),%eax
    372b:	89 04 24             	mov    %eax,(%esp)
    372e:	e8 dd 9c 00 00       	call   d410 <str_dup>
    3733:	8b 56 1c             	mov    0x1c(%esi),%edx
    3736:	8d 4e 18             	lea    0x18(%esi),%ecx
    3739:	89 47 08             	mov    %eax,0x8(%edi)
    373c:	89 5f 0c             	mov    %ebx,0xc(%edi)
    373f:	39 ca                	cmp    %ecx,%edx
    3741:	75 0c                	jne    374f <ddf_fun_add_match_id+0x6f>
    3743:	eb 0f                	jmp    3754 <ddf_fun_add_match_id+0x74>
    3745:	8d 76 00             	lea    0x0(%esi),%esi
    3748:	8b 52 04             	mov    0x4(%edx),%edx
    374b:	39 ca                	cmp    %ecx,%edx
    374d:	74 05                	je     3754 <ddf_fun_add_match_id+0x74>
    374f:	3b 5a 0c             	cmp    0xc(%edx),%ebx
    3752:	76 f4                	jbe    3748 <ddf_fun_add_match_id+0x68>
    3754:	8b 02                	mov    (%edx),%eax
    3756:	89 57 04             	mov    %edx,0x4(%edi)
    3759:	89 07                	mov    %eax,(%edi)
    375b:	8b 02                	mov    (%edx),%eax
    375d:	89 3a                	mov    %edi,(%edx)
    375f:	89 78 04             	mov    %edi,0x4(%eax)
    3762:	31 c0                	xor    %eax,%eax
    3764:	83 c4 1c             	add    $0x1c,%esp
    3767:	5b                   	pop    %ebx
    3768:	5e                   	pop    %esi
    3769:	5f                   	pop    %edi
    376a:	5d                   	pop    %ebp
    376b:	c3                   	ret    
    376c:	b8 fe ff ff ff       	mov    $0xfffffffe,%eax
    3771:	eb f1                	jmp    3764 <ddf_fun_add_match_id+0x84>
    3773:	c7 44 24 08 91 03 00 	movl   $0x391,0x8(%esp)
    377a:	00 
    377b:	c7 44 24 04 a0 6f 02 	movl   $0x26fa0,0x4(%esp)
    3782:	00 
    3783:	c7 04 24 71 70 02 00 	movl   $0x27071,(%esp)
    378a:	e8 61 ee 01 00       	call   225f0 <assert_abort>
    378f:	c7 44 24 08 90 03 00 	movl   $0x390,0x8(%esp)
    3796:	00 
    3797:	c7 44 24 04 a0 6f 02 	movl   $0x26fa0,0x4(%esp)
    379e:	00 
    379f:	c7 04 24 38 70 02 00 	movl   $0x27038,(%esp)
    37a6:	e8 45 ee 01 00       	call   225f0 <assert_abort>
    37ab:	90                   	nop
    37ac:	8d 74 26 00          	lea    0x0(%esi,%eiz,1),%esi

000037b0 <ddf_fun_set_ops>:
    37b0:	55                   	push   %ebp
    37b1:	89 e5                	mov    %esp,%ebp
    37b3:	83 ec 18             	sub    $0x18,%esp
    37b6:	8b 45 08             	mov    0x8(%ebp),%eax
    37b9:	8b 50 28             	mov    0x28(%eax),%edx
    37bc:	85 d2                	test   %edx,%edx
    37be:	75 08                	jne    37c8 <ddf_fun_set_ops+0x18>
    37c0:	8b 55 0c             	mov    0xc(%ebp),%edx
    37c3:	89 50 24             	mov    %edx,0x24(%eax)
    37c6:	c9                   	leave  
    37c7:	c3                   	ret    
    37c8:	c7 44 24 08 a1 03 00 	movl   $0x3a1,0x8(%esp)
    37cf:	00 
    37d0:	c7 44 24 04 a0 6f 02 	movl   $0x26fa0,0x4(%esp)
    37d7:	00 
    37d8:	c7 04 24 89 70 02 00 	movl   $0x27089,(%esp)
    37df:	e8 0c ee 01 00       	call   225f0 <assert_abort>
    37e4:	8d b6 00 00 00 00    	lea    0x0(%esi),%esi
    37ea:	8d bf 00 00 00 00    	lea    0x0(%edi),%edi

000037f0 <ddf_fun_set_conn_handler>:
    37f0:	55                   	push   %ebp
    37f1:	89 e5                	mov    %esp,%ebp
    37f3:	83 ec 18             	sub    $0x18,%esp
    37f6:	8b 45 08             	mov    0x8(%ebp),%eax
    37f9:	8b 48 24             	mov    0x24(%eax),%ecx
    37fc:	85 c9                	test   %ecx,%ecx
    37fe:	75 08                	jne    3808 <ddf_fun_set_conn_handler+0x18>
    3800:	8b 55 0c             	mov    0xc(%ebp),%edx
    3803:	89 50 28             	mov    %edx,0x28(%eax)
    3806:	c9                   	leave  
    3807:	c3                   	ret    
    3808:	c7 44 24 08 ab 03 00 	movl   $0x3ab,0x8(%esp)
    380f:	00 
    3810:	c7 44 24 04 a0 6f 02 	movl   $0x26fa0,0x4(%esp)
    3817:	00 
    3818:	c7 04 24 a3 70 02 00 	movl   $0x270a3,(%esp)
    381f:	e8 cc ed 01 00       	call   225f0 <assert_abort>
    3824:	8d b6 00 00 00 00    	lea    0x0(%esi),%esi
    382a:	8d bf 00 00 00 00    	lea    0x0(%edi),%edi

00003830 <ddf_fun_add_to_category>:
    3830:	55                   	push   %ebp
    3831:	89 e5                	mov    %esp,%ebp
    3833:	83 ec 18             	sub    $0x18,%esp
    3836:	8b 45 08             	mov    0x8(%ebp),%eax
    3839:	8b 55 0c             	mov    0xc(%ebp),%edx
    383c:	80 38 00             	cmpb   $0x0,(%eax)
    383f:	74 15                	je     3856 <ddf_fun_add_to_category+0x26>
    3841:	83 78 10 02          	cmpl   $0x2,0x10(%eax)
    3845:	75 2b                	jne    3872 <ddf_fun_add_to_category+0x42>
    3847:	89 55 0c             	mov    %edx,0xc(%ebp)
    384a:	8b 40 04             	mov    0x4(%eax),%eax
    384d:	89 45 08             	mov    %eax,0x8(%ebp)
    3850:	c9                   	leave  
    3851:	e9 ea 57 00 00       	jmp    9040 <devman_add_device_to_category>
    3856:	c7 44 24 08 be 03 00 	movl   $0x3be,0x8(%esp)
    385d:	00 
    385e:	c7 44 24 04 a0 6f 02 	movl   $0x26fa0,0x4(%esp)
    3865:	00 
    3866:	c7 04 24 5e 70 02 00 	movl   $0x2705e,(%esp)
    386d:	e8 7e ed 01 00       	call   225f0 <assert_abort>
    3872:	c7 44 24 08 bf 03 00 	movl   $0x3bf,0x8(%esp)
    3879:	00 
    387a:	c7 44 24 04 a0 6f 02 	movl   $0x26fa0,0x4(%esp)
    3881:	00 
    3882:	c7 04 24 b4 70 02 00 	movl   $0x270b4,(%esp)
    3889:	e8 62 ed 01 00       	call   225f0 <assert_abort>
    388e:	66 90                	xchg   %ax,%ax

00003890 <ddf_driver_main>:
    3890:	55                   	push   %ebp
    3891:	89 e5                	mov    %esp,%ebp
    3893:	53                   	push   %ebx
    3894:	83 ec 14             	sub    $0x14,%esp
    3897:	8b 45 08             	mov    0x8(%ebp),%eax
    389a:	a3 78 a5 02 00       	mov    %eax,0x2a578
    389f:	e8 7c 01 00 00       	call   3a20 <interrupt_init>
    38a4:	c7 04 24 e0 2a 00 00 	movl   $0x2ae0,(%esp)
    38ab:	e8 d0 57 01 00       	call   19080 <async_set_client_connection>
    38b0:	a1 78 a5 02 00       	mov    0x2a578,%eax
    38b5:	8b 00                	mov    (%eax),%eax
    38b7:	89 04 24             	mov    %eax,(%esp)
    38ba:	e8 81 52 00 00       	call   8b40 <devman_driver_register>
    38bf:	89 c3                	mov    %eax,%ebx
    38c1:	85 c0                	test   %eax,%eax
    38c3:	74 2b                	je     38f0 <ddf_driver_main+0x60>
    38c5:	b8 ce 70 02 00       	mov    $0x270ce,%eax
    38ca:	83 fb f7             	cmp    $0xfffffff7,%ebx
    38cd:	74 08                	je     38d7 <ddf_driver_main+0x47>
    38cf:	89 1c 24             	mov    %ebx,(%esp)
    38d2:	e8 79 a4 00 00       	call   dd50 <str_error>
    38d7:	89 44 24 04          	mov    %eax,0x4(%esp)
    38db:	c7 04 24 5c 72 02 00 	movl   $0x2725c,(%esp)
    38e2:	e8 e9 ed 00 00       	call   126d0 <printf>
    38e7:	83 c4 14             	add    $0x14,%esp
    38ea:	89 d8                	mov    %ebx,%eax
    38ec:	5b                   	pop    %ebx
    38ed:	5d                   	pop    %ebp
    38ee:	c3                   	ret    
    38ef:	90                   	nop
    38f0:	c7 04 24 00 00 00 00 	movl   $0x0,(%esp)
    38f7:	e8 94 c7 00 00       	call   10090 <task_retval>
    38fc:	89 c3                	mov    %eax,%ebx
    38fe:	85 c0                	test   %eax,%eax
    3900:	75 e5                	jne    38e7 <ddf_driver_main+0x57>
    3902:	c7 04 24 01 00 00 00 	movl   $0x1,(%esp)
    3909:	e8 62 a6 00 00       	call   df70 <fibril_switch>
    390e:	83 c4 14             	add    $0x14,%esp
    3911:	89 d8                	mov    %ebx,%eax
    3913:	5b                   	pop    %ebx
    3914:	5d                   	pop    %ebp
    3915:	c3                   	ret    
    3916:	66 90                	xchg   %ax,%ax
    3918:	66 90                	xchg   %ax,%ax
    391a:	66 90                	xchg   %ax,%ax
    391c:	66 90                	xchg   %ax,%ax
    391e:	66 90                	xchg   %ax,%ax

00003920 <get_remote_iface>:
    3920:	55                   	push   %ebp
    3921:	89 e5                	mov    %esp,%ebp
    3923:	83 ec 18             	sub    $0x18,%esp
    3926:	8b 45 08             	mov    0x8(%ebp),%eax
    3929:	83 f8 0a             	cmp    $0xa,%eax
    392c:	77 09                	ja     3937 <get_remote_iface+0x17>
    392e:	8b 04 85 c0 72 02 00 	mov    0x272c0(,%eax,4),%eax
    3935:	c9                   	leave  
    3936:	c3                   	ret    
    3937:	c7 44 24 08 47 00 00 	movl   $0x47,0x8(%esp)
    393e:	00 
    393f:	c7 44 24 04 ac 72 02 	movl   $0x272ac,0x4(%esp)
    3946:	00 
    3947:	c7 04 24 b1 6f 02 00 	movl   $0x26fb1,(%esp)
    394e:	e8 9d ec 01 00       	call   225f0 <assert_abort>
    3953:	8d b6 00 00 00 00    	lea    0x0(%esi),%esi
    3959:	8d bc 27 00 00 00 00 	lea    0x0(%edi,%eiz,1),%edi

00003960 <get_remote_method>:
    3960:	55                   	push   %ebp
    3961:	89 e5                	mov    %esp,%ebp
    3963:	8b 55 08             	mov    0x8(%ebp),%edx
    3966:	8b 45 0c             	mov    0xc(%ebp),%eax
    3969:	39 02                	cmp    %eax,(%edx)
    396b:	76 0b                	jbe    3978 <get_remote_method+0x18>
    396d:	8b 52 04             	mov    0x4(%edx),%edx
    3970:	5d                   	pop    %ebp
    3971:	8b 04 82             	mov    (%edx,%eax,4),%eax
    3974:	c3                   	ret    
    3975:	8d 76 00             	lea    0x0(%esi),%esi
    3978:	31 c0                	xor    %eax,%eax
    397a:	5d                   	pop    %ebp
    397b:	c3                   	ret    
    397c:	8d 74 26 00          	lea    0x0(%esi,%eiz,1),%esi

00003980 <is_valid_iface_idx>:
    3980:	55                   	push   %ebp
    3981:	89 e5                	mov    %esp,%ebp
    3983:	83 7d 08 0a          	cmpl   $0xa,0x8(%ebp)
    3987:	5d                   	pop    %ebp
    3988:	0f 96 c0             	setbe  %al
    398b:	c3                   	ret    
    398c:	66 90                	xchg   %ax,%ax
    398e:	66 90                	xchg   %ax,%ax

00003990 <driver_irq_handler>:
    3990:	55                   	push   %ebp
    3991:	89 e5                	mov    %esp,%ebp
    3993:	57                   	push   %edi
    3994:	56                   	push   %esi
    3995:	53                   	push   %ebx
    3996:	83 ec 2c             	sub    $0x2c,%esp
    3999:	8b 5d 0c             	mov    0xc(%ebp),%ebx
    399c:	8b 45 08             	mov    0x8(%ebp),%eax
    399f:	89 45 e4             	mov    %eax,-0x1c(%ebp)
    39a2:	8b 33                	mov    (%ebx),%esi
    39a4:	c7 04 24 88 a5 02 00 	movl   $0x2a588,(%esp)
    39ab:	e8 90 ad 00 00       	call   e740 <fibril_mutex_lock>
    39b0:	a1 84 a5 02 00       	mov    0x2a584,%eax
    39b5:	3d 80 a5 02 00       	cmp    $0x2a580,%eax
    39ba:	75 0e                	jne    39ca <driver_irq_handler+0x3a>
    39bc:	eb 42                	jmp    3a00 <driver_irq_handler+0x70>
    39be:	66 90                	xchg   %ax,%ax
    39c0:	8b 40 04             	mov    0x4(%eax),%eax
    39c3:	3d 80 a5 02 00       	cmp    $0x2a580,%eax
    39c8:	74 36                	je     3a00 <driver_irq_handler+0x70>
    39ca:	8d 78 f0             	lea    -0x10(%eax),%edi
    39cd:	3b 70 f0             	cmp    -0x10(%eax),%esi
    39d0:	75 ee                	jne    39c0 <driver_irq_handler+0x30>
    39d2:	c7 04 24 88 a5 02 00 	movl   $0x2a588,(%esp)
    39d9:	e8 82 ae 00 00       	call   e860 <fibril_mutex_unlock>
    39de:	8b 47 0c             	mov    0xc(%edi),%eax
    39e1:	85 c0                	test   %eax,%eax
    39e3:	74 13                	je     39f8 <driver_irq_handler+0x68>
    39e5:	8b 55 e4             	mov    -0x1c(%ebp),%edx
    39e8:	89 5c 24 08          	mov    %ebx,0x8(%esp)
    39ec:	89 54 24 04          	mov    %edx,0x4(%esp)
    39f0:	8b 57 04             	mov    0x4(%edi),%edx
    39f3:	89 14 24             	mov    %edx,(%esp)
    39f6:	ff d0                	call   *%eax
    39f8:	83 c4 2c             	add    $0x2c,%esp
    39fb:	5b                   	pop    %ebx
    39fc:	5e                   	pop    %esi
    39fd:	5f                   	pop    %edi
    39fe:	5d                   	pop    %ebp
    39ff:	c3                   	ret    
    3a00:	c7 45 08 88 a5 02 00 	movl   $0x2a588,0x8(%ebp)
    3a07:	83 c4 2c             	add    $0x2c,%esp
    3a0a:	5b                   	pop    %ebx
    3a0b:	5e                   	pop    %esi
    3a0c:	5f                   	pop    %edi
    3a0d:	5d                   	pop    %ebp
    3a0e:	e9 4d ae 00 00       	jmp    e860 <fibril_mutex_unlock>
    3a13:	8d b6 00 00 00 00    	lea    0x0(%esi),%esi
    3a19:	8d bc 27 00 00 00 00 	lea    0x0(%edi,%eiz,1),%edi

00003a20 <interrupt_init>:
    3a20:	55                   	push   %ebp
    3a21:	89 e5                	mov    %esp,%ebp
    3a23:	83 ec 18             	sub    $0x18,%esp
    3a26:	c7 44 24 08 1c 00 00 	movl   $0x1c,0x8(%esp)
    3a2d:	00 
    3a2e:	c7 44 24 04 00 00 00 	movl   $0x0,0x4(%esp)
    3a35:	00 
    3a36:	c7 04 24 7c a5 02 00 	movl   $0x2a57c,(%esp)
    3a3d:	e8 9e 6a 00 00       	call   a4e0 <memset>
    3a42:	c7 04 24 88 a5 02 00 	movl   $0x2a588,(%esp)
    3a49:	e8 d2 ac 00 00       	call   e720 <fibril_mutex_initialize>
    3a4e:	c7 04 24 90 39 00 00 	movl   $0x3990,(%esp)
    3a55:	c7 05 80 a5 02 00 80 	movl   $0x2a580,0x2a580
    3a5c:	a5 02 00 
    3a5f:	c7 05 84 a5 02 00 80 	movl   $0x2a580,0x2a584
    3a66:	a5 02 00 
    3a69:	e8 52 56 01 00       	call   190c0 <async_set_interrupt_received>
    3a6e:	c9                   	leave  
    3a6f:	c3                   	ret    

00003a70 <register_interrupt_handler>:
    3a70:	55                   	push   %ebp
    3a71:	89 e5                	mov    %esp,%ebp
    3a73:	57                   	push   %edi
    3a74:	56                   	push   %esi
    3a75:	53                   	push   %ebx
    3a76:	83 ec 2c             	sub    $0x2c,%esp
    3a79:	8b 7d 08             	mov    0x8(%ebp),%edi
    3a7c:	8b 5d 14             	mov    0x14(%ebp),%ebx
    3a7f:	c7 04 24 18 00 00 00 	movl   $0x18,(%esp)
    3a86:	e8 95 3f 01 00       	call   17a20 <malloc>
    3a8b:	89 c6                	mov    %eax,%esi
    3a8d:	85 c0                	test   %eax,%eax
    3a8f:	74 18                	je     3aa9 <register_interrupt_handler+0x39>
    3a91:	c7 44 24 08 18 00 00 	movl   $0x18,0x8(%esp)
    3a98:	00 
    3a99:	c7 44 24 04 00 00 00 	movl   $0x0,0x4(%esp)
    3aa0:	00 
    3aa1:	89 04 24             	mov    %eax,(%esp)
    3aa4:	e8 37 6a 00 00       	call   a4e0 <memset>
    3aa9:	8b 45 0c             	mov    0xc(%ebp),%eax
    3aac:	c7 04 24 88 a5 02 00 	movl   $0x2a588,(%esp)
    3ab3:	89 46 08             	mov    %eax,0x8(%esi)
    3ab6:	8b 45 10             	mov    0x10(%ebp),%eax
    3ab9:	89 46 0c             	mov    %eax,0xc(%esi)
    3abc:	89 7e 04             	mov    %edi,0x4(%esi)
    3abf:	e8 7c ac 00 00       	call   e740 <fibril_mutex_lock>
    3ac4:	a1 7c a5 02 00       	mov    0x2a57c,%eax
    3ac9:	8b 0d 80 a5 02 00    	mov    0x2a580,%ecx
    3acf:	89 06                	mov    %eax,(%esi)
    3ad1:	40                   	inc    %eax
    3ad2:	c7 46 14 80 a5 02 00 	movl   $0x2a580,0x14(%esi)
    3ad9:	a3 7c a5 02 00       	mov    %eax,0x2a57c
    3ade:	8d 46 10             	lea    0x10(%esi),%eax
    3ae1:	89 41 04             	mov    %eax,0x4(%ecx)
    3ae4:	c7 04 24 88 a5 02 00 	movl   $0x2a588,(%esp)
    3aeb:	89 4e 10             	mov    %ecx,0x10(%esi)
    3aee:	a3 80 a5 02 00       	mov    %eax,0x2a580
    3af3:	e8 68 ad 00 00       	call   e860 <fibril_mutex_unlock>
    3af8:	85 db                	test   %ebx,%ebx
    3afa:	0f 84 80 00 00 00    	je     3b80 <register_interrupt_handler+0x110>
    3b00:	8b 06                	mov    (%esi),%eax
    3b02:	89 5c 24 0c          	mov    %ebx,0xc(%esp)
    3b06:	89 44 24 08          	mov    %eax,0x8(%esp)
    3b0a:	8b 07                	mov    (%edi),%eax
    3b0c:	89 44 24 04          	mov    %eax,0x4(%esp)
    3b10:	8b 45 0c             	mov    0xc(%ebp),%eax
    3b13:	89 04 24             	mov    %eax,(%esp)
    3b16:	e8 05 4c 00 00       	call   8720 <irq_register>
    3b1b:	85 c0                	test   %eax,%eax
    3b1d:	75 09                	jne    3b28 <register_interrupt_handler+0xb8>
    3b1f:	83 c4 2c             	add    $0x2c,%esp
    3b22:	5b                   	pop    %ebx
    3b23:	5e                   	pop    %esi
    3b24:	5f                   	pop    %edi
    3b25:	5d                   	pop    %ebp
    3b26:	c3                   	ret    
    3b27:	90                   	nop
    3b28:	c7 04 24 88 a5 02 00 	movl   $0x2a588,(%esp)
    3b2f:	89 45 e4             	mov    %eax,-0x1c(%ebp)
    3b32:	e8 09 ac 00 00       	call   e740 <fibril_mutex_lock>
    3b37:	8b 5e 10             	mov    0x10(%esi),%ebx
    3b3a:	85 db                	test   %ebx,%ebx
    3b3c:	8b 45 e4             	mov    -0x1c(%ebp),%eax
    3b3f:	74 0f                	je     3b50 <register_interrupt_handler+0xe0>
    3b41:	8b 4e 14             	mov    0x14(%esi),%ecx
    3b44:	85 c9                	test   %ecx,%ecx
    3b46:	74 08                	je     3b50 <register_interrupt_handler+0xe0>
    3b48:	89 19                	mov    %ebx,(%ecx)
    3b4a:	8b 5e 10             	mov    0x10(%esi),%ebx
    3b4d:	89 4b 04             	mov    %ecx,0x4(%ebx)
    3b50:	c7 04 24 88 a5 02 00 	movl   $0x2a588,(%esp)
    3b57:	89 45 e4             	mov    %eax,-0x1c(%ebp)
    3b5a:	c7 46 10 00 00 00 00 	movl   $0x0,0x10(%esi)
    3b61:	c7 46 14 00 00 00 00 	movl   $0x0,0x14(%esi)
    3b68:	e8 f3 ac 00 00       	call   e860 <fibril_mutex_unlock>
    3b6d:	89 34 24             	mov    %esi,(%esp)
    3b70:	e8 bb 3f 01 00       	call   17b30 <free>
    3b75:	8b 45 e4             	mov    -0x1c(%ebp),%eax
    3b78:	83 c4 2c             	add    $0x2c,%esp
    3b7b:	5b                   	pop    %ebx
    3b7c:	5e                   	pop    %esi
    3b7d:	5f                   	pop    %edi
    3b7e:	5d                   	pop    %ebp
    3b7f:	c3                   	ret    
    3b80:	bb e8 a0 02 00       	mov    $0x2a0e8,%ebx
    3b85:	e9 76 ff ff ff       	jmp    3b00 <register_interrupt_handler+0x90>
    3b8a:	8d b6 00 00 00 00    	lea    0x0(%esi),%esi

00003b90 <unregister_interrupt_handler>:
    3b90:	55                   	push   %ebp
    3b91:	89 e5                	mov    %esp,%ebp
    3b93:	57                   	push   %edi
    3b94:	56                   	push   %esi
    3b95:	53                   	push   %ebx
    3b96:	83 ec 1c             	sub    $0x1c,%esp
    3b99:	8b 7d 08             	mov    0x8(%ebp),%edi
    3b9c:	8b 75 0c             	mov    0xc(%ebp),%esi
    3b9f:	c7 04 24 88 a5 02 00 	movl   $0x2a588,(%esp)
    3ba6:	e8 95 ab 00 00       	call   e740 <fibril_mutex_lock>
    3bab:	a1 84 a5 02 00       	mov    0x2a584,%eax
    3bb0:	3d 80 a5 02 00       	cmp    $0x2a580,%eax
    3bb5:	75 13                	jne    3bca <unregister_interrupt_handler+0x3a>
    3bb7:	e9 8c 00 00 00       	jmp    3c48 <unregister_interrupt_handler+0xb8>
    3bbc:	8d 74 26 00          	lea    0x0(%esi,%eiz,1),%esi
    3bc0:	8b 40 04             	mov    0x4(%eax),%eax
    3bc3:	3d 80 a5 02 00       	cmp    $0x2a580,%eax
    3bc8:	74 7e                	je     3c48 <unregister_interrupt_handler+0xb8>
    3bca:	8d 58 f0             	lea    -0x10(%eax),%ebx
    3bcd:	3b 73 08             	cmp    0x8(%ebx),%esi
    3bd0:	75 ee                	jne    3bc0 <unregister_interrupt_handler+0x30>
    3bd2:	3b 7b 04             	cmp    0x4(%ebx),%edi
    3bd5:	75 e9                	jne    3bc0 <unregister_interrupt_handler+0x30>
    3bd7:	c7 04 24 88 a5 02 00 	movl   $0x2a588,(%esp)
    3bde:	e8 7d ac 00 00       	call   e860 <fibril_mutex_unlock>
    3be3:	8b 07                	mov    (%edi),%eax
    3be5:	89 44 24 04          	mov    %eax,0x4(%esp)
    3be9:	89 34 24             	mov    %esi,(%esp)
    3bec:	e8 7f 4b 00 00       	call   8770 <irq_unregister>
    3bf1:	c7 04 24 88 a5 02 00 	movl   $0x2a588,(%esp)
    3bf8:	89 c6                	mov    %eax,%esi
    3bfa:	e8 41 ab 00 00       	call   e740 <fibril_mutex_lock>
    3bff:	8b 43 10             	mov    0x10(%ebx),%eax
    3c02:	85 c0                	test   %eax,%eax
    3c04:	74 0f                	je     3c15 <unregister_interrupt_handler+0x85>
    3c06:	8b 53 14             	mov    0x14(%ebx),%edx
    3c09:	85 d2                	test   %edx,%edx
    3c0b:	74 08                	je     3c15 <unregister_interrupt_handler+0x85>
    3c0d:	89 02                	mov    %eax,(%edx)
    3c0f:	8b 4b 10             	mov    0x10(%ebx),%ecx
    3c12:	89 51 04             	mov    %edx,0x4(%ecx)
    3c15:	c7 43 10 00 00 00 00 	movl   $0x0,0x10(%ebx)
    3c1c:	c7 43 14 00 00 00 00 	movl   $0x0,0x14(%ebx)
    3c23:	c7 04 24 88 a5 02 00 	movl   $0x2a588,(%esp)
    3c2a:	e8 31 ac 00 00       	call   e860 <fibril_mutex_unlock>
    3c2f:	89 1c 24             	mov    %ebx,(%esp)
    3c32:	e8 f9 3e 01 00       	call   17b30 <free>
    3c37:	83 c4 1c             	add    $0x1c,%esp
    3c3a:	89 f0                	mov    %esi,%eax
    3c3c:	5b                   	pop    %ebx
    3c3d:	5e                   	pop    %esi
    3c3e:	5f                   	pop    %edi
    3c3f:	5d                   	pop    %ebp
    3c40:	c3                   	ret    
    3c41:	8d b4 26 00 00 00 00 	lea    0x0(%esi,%eiz,1),%esi
    3c48:	c7 04 24 88 a5 02 00 	movl   $0x2a588,(%esp)
    3c4f:	e8 0c ac 00 00       	call   e860 <fibril_mutex_unlock>
    3c54:	8b 07                	mov    (%edi),%eax
    3c56:	89 45 0c             	mov    %eax,0xc(%ebp)
    3c59:	89 75 08             	mov    %esi,0x8(%ebp)
    3c5c:	83 c4 1c             	add    $0x1c,%esp
    3c5f:	5b                   	pop    %ebx
    3c60:	5e                   	pop    %esi
    3c61:	5f                   	pop    %edi
    3c62:	5d                   	pop    %ebp
    3c63:	e9 08 4b 00 00       	jmp    8770 <irq_unregister>
    3c68:	66 90                	xchg   %ax,%ax
    3c6a:	66 90                	xchg   %ax,%ax
    3c6c:	66 90                	xchg   %ax,%ax
    3c6e:	66 90                	xchg   %ax,%ax

00003c70 <ddf_log_init>:
    3c70:	55                   	push   %ebp
    3c71:	89 e5                	mov    %esp,%ebp
    3c73:	5d                   	pop    %ebp
    3c74:	e9 37 eb 00 00       	jmp    127b0 <log_init>
    3c79:	8d b4 26 00 00 00 00 	lea    0x0(%esi,%eiz,1),%esi

00003c80 <ddf_msg>:
    3c80:	55                   	push   %ebp
    3c81:	89 e5                	mov    %esp,%ebp
    3c83:	83 ec 18             	sub    $0x18,%esp
    3c86:	8d 45 10             	lea    0x10(%ebp),%eax
    3c89:	c7 04 24 ff ff ff ff 	movl   $0xffffffff,(%esp)
    3c90:	89 44 24 0c          	mov    %eax,0xc(%esp)
    3c94:	8b 45 0c             	mov    0xc(%ebp),%eax
    3c97:	89 44 24 08          	mov    %eax,0x8(%esp)
    3c9b:	8b 45 08             	mov    0x8(%ebp),%eax
    3c9e:	89 44 24 04          	mov    %eax,0x4(%esp)
    3ca2:	e8 f9 ed 00 00       	call   12aa0 <log_msgv>
    3ca7:	c9                   	leave  
    3ca8:	c3                   	ret    
    3ca9:	66 90                	xchg   %ax,%ax
    3cab:	66 90                	xchg   %ax,%ax
    3cad:	66 90                	xchg   %ax,%ax
    3caf:	90                   	nop

00003cb0 <remote_hw_res_enable_interrupt>:
    3cb0:	55                   	push   %ebp
    3cb1:	89 e5                	mov    %esp,%ebp
    3cb3:	53                   	push   %ebx
    3cb4:	83 ec 14             	sub    $0x14,%esp
    3cb7:	8b 45 0c             	mov    0xc(%ebp),%eax
    3cba:	8b 55 08             	mov    0x8(%ebp),%edx
    3cbd:	8b 5d 10             	mov    0x10(%ebp),%ebx
    3cc0:	8b 40 04             	mov    0x4(%eax),%eax
    3cc3:	85 c0                	test   %eax,%eax
    3cc5:	74 39                	je     3d00 <remote_hw_res_enable_interrupt+0x50>
    3cc7:	89 14 24             	mov    %edx,(%esp)
    3cca:	ff d0                	call   *%eax
    3ccc:	84 c0                	test   %al,%al
    3cce:	75 18                	jne    3ce8 <remote_hw_res_enable_interrupt+0x38>
    3cd0:	89 5d 08             	mov    %ebx,0x8(%ebp)
    3cd3:	c7 45 0c fc ff ff ff 	movl   $0xfffffffc,0xc(%ebp)
    3cda:	83 c4 14             	add    $0x14,%esp
    3cdd:	5b                   	pop    %ebx
    3cde:	5d                   	pop    %ebp
    3cdf:	e9 ec 6b 01 00       	jmp    1a8d0 <async_answer_0>
    3ce4:	8d 74 26 00          	lea    0x0(%esi,%eiz,1),%esi
    3ce8:	89 5d 08             	mov    %ebx,0x8(%ebp)
    3ceb:	c7 45 0c 00 00 00 00 	movl   $0x0,0xc(%ebp)
    3cf2:	83 c4 14             	add    $0x14,%esp
    3cf5:	5b                   	pop    %ebx
    3cf6:	5d                   	pop    %ebp
    3cf7:	e9 d4 6b 01 00       	jmp    1a8d0 <async_answer_0>
    3cfc:	8d 74 26 00          	lea    0x0(%esi,%eiz,1),%esi
    3d00:	89 5d 08             	mov    %ebx,0x8(%ebp)
    3d03:	c7 45 0c f5 ff ff ff 	movl   $0xfffffff5,0xc(%ebp)
    3d0a:	83 c4 14             	add    $0x14,%esp
    3d0d:	5b                   	pop    %ebx
    3d0e:	5d                   	pop    %ebp
    3d0f:	e9 bc 6b 01 00       	jmp    1a8d0 <async_answer_0>
    3d14:	8d b6 00 00 00 00    	lea    0x0(%esi),%esi
    3d1a:	8d bf 00 00 00 00    	lea    0x0(%edi),%edi

00003d20 <remote_hw_res_get_resource_list>:
    3d20:	55                   	push   %ebp
    3d21:	89 e5                	mov    %esp,%ebp
    3d23:	53                   	push   %ebx
    3d24:	83 ec 24             	sub    $0x24,%esp
    3d27:	8b 45 0c             	mov    0xc(%ebp),%eax
    3d2a:	8b 00                	mov    (%eax),%eax
    3d2c:	85 c0                	test   %eax,%eax
    3d2e:	74 48                	je     3d78 <remote_hw_res_get_resource_list+0x58>
    3d30:	8b 55 08             	mov    0x8(%ebp),%edx
    3d33:	89 14 24             	mov    %edx,(%esp)
    3d36:	ff d0                	call   *%eax
    3d38:	89 c3                	mov    %eax,%ebx
    3d3a:	85 c0                	test   %eax,%eax
    3d3c:	74 7a                	je     3db8 <remote_hw_res_get_resource_list+0x98>
    3d3e:	8b 00                	mov    (%eax),%eax
    3d40:	c7 44 24 04 00 00 00 	movl   $0x0,0x4(%esp)
    3d47:	00 
    3d48:	89 44 24 08          	mov    %eax,0x8(%esp)
    3d4c:	8b 45 10             	mov    0x10(%ebp),%eax
    3d4f:	89 04 24             	mov    %eax,(%esp)
    3d52:	e8 b9 6b 01 00       	call   1a910 <async_answer_1>
    3d57:	8d 45 f4             	lea    -0xc(%ebp),%eax
    3d5a:	89 44 24 04          	mov    %eax,0x4(%esp)
    3d5e:	8d 45 10             	lea    0x10(%ebp),%eax
    3d61:	89 04 24             	mov    %eax,(%esp)
    3d64:	e8 d7 80 01 00       	call   1be40 <async_data_read_receive>
    3d69:	84 c0                	test   %al,%al
    3d6b:	75 2b                	jne    3d98 <remote_hw_res_get_resource_list+0x78>
    3d6d:	83 c4 24             	add    $0x24,%esp
    3d70:	5b                   	pop    %ebx
    3d71:	5d                   	pop    %ebp
    3d72:	c3                   	ret    
    3d73:	90                   	nop
    3d74:	8d 74 26 00          	lea    0x0(%esi,%eiz,1),%esi
    3d78:	8b 45 10             	mov    0x10(%ebp),%eax
    3d7b:	c7 44 24 04 f5 ff ff 	movl   $0xfffffff5,0x4(%esp)
    3d82:	ff 
    3d83:	89 04 24             	mov    %eax,(%esp)
    3d86:	e8 45 6b 01 00       	call   1a8d0 <async_answer_0>
    3d8b:	83 c4 24             	add    $0x24,%esp
    3d8e:	5b                   	pop    %ebx
    3d8f:	5d                   	pop    %ebp
    3d90:	c3                   	ret    
    3d91:	8d b4 26 00 00 00 00 	lea    0x0(%esi,%eiz,1),%esi
    3d98:	8b 45 f4             	mov    -0xc(%ebp),%eax
    3d9b:	89 44 24 08          	mov    %eax,0x8(%esp)
    3d9f:	8b 43 04             	mov    0x4(%ebx),%eax
    3da2:	89 44 24 04          	mov    %eax,0x4(%esp)
    3da6:	8b 45 10             	mov    0x10(%ebp),%eax
    3da9:	89 04 24             	mov    %eax,(%esp)
    3dac:	e8 ef 80 01 00       	call   1bea0 <async_data_read_finalize>
    3db1:	83 c4 24             	add    $0x24,%esp
    3db4:	5b                   	pop    %ebx
    3db5:	5d                   	pop    %ebp
    3db6:	c3                   	ret    
    3db7:	90                   	nop
    3db8:	8b 45 10             	mov    0x10(%ebp),%eax
    3dbb:	c7 44 24 04 ff ff ff 	movl   $0xffffffff,0x4(%esp)
    3dc2:	ff 
    3dc3:	89 04 24             	mov    %eax,(%esp)
    3dc6:	e8 05 6b 01 00       	call   1a8d0 <async_answer_0>
    3dcb:	83 c4 24             	add    $0x24,%esp
    3dce:	5b                   	pop    %ebx
    3dcf:	5d                   	pop    %ebp
    3dd0:	c3                   	ret    
    3dd1:	66 90                	xchg   %ax,%ax
    3dd3:	66 90                	xchg   %ax,%ax
    3dd5:	66 90                	xchg   %ax,%ax
    3dd7:	66 90                	xchg   %ax,%ax
    3dd9:	66 90                	xchg   %ax,%ax
    3ddb:	66 90                	xchg   %ax,%ax
    3ddd:	66 90                	xchg   %ax,%ax
    3ddf:	90                   	nop

00003de0 <remote_char_write>:
    3de0:	55                   	push   %ebp
    3de1:	89 e5                	mov    %esp,%ebp
    3de3:	56                   	push   %esi
    3de4:	53                   	push   %ebx
    3de5:	81 ec 20 01 00 00    	sub    $0x120,%esp
    3deb:	8d 85 f4 fe ff ff    	lea    -0x10c(%ebp),%eax
    3df1:	8b 5d 0c             	mov    0xc(%ebp),%ebx
    3df4:	89 44 24 04          	mov    %eax,0x4(%esp)
    3df8:	8d 85 f0 fe ff ff    	lea    -0x110(%ebp),%eax
    3dfe:	89 04 24             	mov    %eax,(%esp)
    3e01:	e8 5a 85 01 00       	call   1c360 <async_data_write_receive>
    3e06:	84 c0                	test   %al,%al
    3e08:	0f 84 82 00 00 00    	je     3e90 <remote_char_write+0xb0>
    3e0e:	8b 43 04             	mov    0x4(%ebx),%eax
    3e11:	85 c0                	test   %eax,%eax
    3e13:	0f 84 b7 00 00 00    	je     3ed0 <remote_char_write+0xf0>
    3e19:	8b 85 f4 fe ff ff    	mov    -0x10c(%ebp),%eax
    3e1f:	3d 00 01 00 00       	cmp    $0x100,%eax
    3e24:	76 0f                	jbe    3e35 <remote_char_write+0x55>
    3e26:	c7 85 f4 fe ff ff 00 	movl   $0x100,-0x10c(%ebp)
    3e2d:	01 00 00 
    3e30:	b8 00 01 00 00       	mov    $0x100,%eax
    3e35:	89 44 24 08          	mov    %eax,0x8(%esp)
    3e39:	8d b5 f8 fe ff ff    	lea    -0x108(%ebp),%esi
    3e3f:	8b 85 f0 fe ff ff    	mov    -0x110(%ebp),%eax
    3e45:	89 74 24 04          	mov    %esi,0x4(%esp)
    3e49:	89 04 24             	mov    %eax,(%esp)
    3e4c:	e8 5f 85 01 00       	call   1c3b0 <async_data_write_finalize>
    3e51:	8b 85 f4 fe ff ff    	mov    -0x10c(%ebp),%eax
    3e57:	89 44 24 08          	mov    %eax,0x8(%esp)
    3e5b:	8b 45 08             	mov    0x8(%ebp),%eax
    3e5e:	89 74 24 04          	mov    %esi,0x4(%esp)
    3e62:	89 04 24             	mov    %eax,(%esp)
    3e65:	ff 53 04             	call   *0x4(%ebx)
    3e68:	85 c0                	test   %eax,%eax
    3e6a:	78 44                	js     3eb0 <remote_char_write+0xd0>
    3e6c:	89 44 24 08          	mov    %eax,0x8(%esp)
    3e70:	8b 45 10             	mov    0x10(%ebp),%eax
    3e73:	c7 44 24 04 00 00 00 	movl   $0x0,0x4(%esp)
    3e7a:	00 
    3e7b:	89 04 24             	mov    %eax,(%esp)
    3e7e:	e8 8d 6a 01 00       	call   1a910 <async_answer_1>
    3e83:	81 c4 20 01 00 00    	add    $0x120,%esp
    3e89:	5b                   	pop    %ebx
    3e8a:	5e                   	pop    %esi
    3e8b:	5d                   	pop    %ebp
    3e8c:	c3                   	ret    
    3e8d:	8d 76 00             	lea    0x0(%esi),%esi
    3e90:	8b 45 10             	mov    0x10(%ebp),%eax
    3e93:	c7 44 24 04 f2 ff ff 	movl   $0xfffffff2,0x4(%esp)
    3e9a:	ff 
    3e9b:	89 04 24             	mov    %eax,(%esp)
    3e9e:	e8 2d 6a 01 00       	call   1a8d0 <async_answer_0>
    3ea3:	81 c4 20 01 00 00    	add    $0x120,%esp
    3ea9:	5b                   	pop    %ebx
    3eaa:	5e                   	pop    %esi
    3eab:	5d                   	pop    %ebp
    3eac:	c3                   	ret    
    3ead:	8d 76 00             	lea    0x0(%esi),%esi
    3eb0:	89 44 24 04          	mov    %eax,0x4(%esp)
    3eb4:	8b 45 10             	mov    0x10(%ebp),%eax
    3eb7:	89 04 24             	mov    %eax,(%esp)
    3eba:	e8 11 6a 01 00       	call   1a8d0 <async_answer_0>
    3ebf:	81 c4 20 01 00 00    	add    $0x120,%esp
    3ec5:	5b                   	pop    %ebx
    3ec6:	5e                   	pop    %esi
    3ec7:	5d                   	pop    %ebp
    3ec8:	c3                   	ret    
    3ec9:	8d b4 26 00 00 00 00 	lea    0x0(%esi,%eiz,1),%esi
    3ed0:	8b 85 f0 fe ff ff    	mov    -0x110(%ebp),%eax
    3ed6:	c7 44 24 08 00 00 00 	movl   $0x0,0x8(%esp)
    3edd:	00 
    3ede:	c7 44 24 04 00 00 00 	movl   $0x0,0x4(%esp)
    3ee5:	00 
    3ee6:	89 04 24             	mov    %eax,(%esp)
    3ee9:	e8 c2 84 01 00       	call   1c3b0 <async_data_write_finalize>
    3eee:	8b 45 10             	mov    0x10(%ebp),%eax
    3ef1:	c7 44 24 04 f5 ff ff 	movl   $0xfffffff5,0x4(%esp)
    3ef8:	ff 
    3ef9:	89 04 24             	mov    %eax,(%esp)
    3efc:	e8 cf 69 01 00       	call   1a8d0 <async_answer_0>
    3f01:	e9 7d ff ff ff       	jmp    3e83 <remote_char_write+0xa3>
    3f06:	8d 76 00             	lea    0x0(%esi),%esi
    3f09:	8d bc 27 00 00 00 00 	lea    0x0(%edi,%eiz,1),%edi

00003f10 <remote_char_read>:
    3f10:	55                   	push   %ebp
    3f11:	89 e5                	mov    %esp,%ebp
    3f13:	56                   	push   %esi
    3f14:	53                   	push   %ebx
    3f15:	81 ec 20 01 00 00    	sub    $0x120,%esp
    3f1b:	8d 85 f4 fe ff ff    	lea    -0x10c(%ebp),%eax
    3f21:	89 44 24 04          	mov    %eax,0x4(%esp)
    3f25:	8d 85 f0 fe ff ff    	lea    -0x110(%ebp),%eax
    3f2b:	89 04 24             	mov    %eax,(%esp)
    3f2e:	e8 0d 7f 01 00       	call   1be40 <async_data_read_receive>
    3f33:	84 c0                	test   %al,%al
    3f35:	0f 84 b5 00 00 00    	je     3ff0 <remote_char_read+0xe0>
    3f3b:	8b 45 0c             	mov    0xc(%ebp),%eax
    3f3e:	8b 10                	mov    (%eax),%edx
    3f40:	85 d2                	test   %edx,%edx
    3f42:	0f 84 c8 00 00 00    	je     4010 <remote_char_read+0x100>
    3f48:	8b 85 f4 fe ff ff    	mov    -0x10c(%ebp),%eax
    3f4e:	3d 00 01 00 00       	cmp    $0x100,%eax
    3f53:	76 0f                	jbe    3f64 <remote_char_read+0x54>
    3f55:	c7 85 f4 fe ff ff 00 	movl   $0x100,-0x10c(%ebp)
    3f5c:	01 00 00 
    3f5f:	b8 00 01 00 00       	mov    $0x100,%eax
    3f64:	89 44 24 08          	mov    %eax,0x8(%esp)
    3f68:	8d b5 f8 fe ff ff    	lea    -0x108(%ebp),%esi
    3f6e:	8b 45 08             	mov    0x8(%ebp),%eax
    3f71:	89 74 24 04          	mov    %esi,0x4(%esp)
    3f75:	89 04 24             	mov    %eax,(%esp)
    3f78:	ff d2                	call   *%edx
    3f7a:	89 c3                	mov    %eax,%ebx
    3f7c:	85 c0                	test   %eax,%eax
    3f7e:	78 38                	js     3fb8 <remote_char_read+0xa8>
    3f80:	89 44 24 08          	mov    %eax,0x8(%esp)
    3f84:	8b 85 f0 fe ff ff    	mov    -0x110(%ebp),%eax
    3f8a:	89 74 24 04          	mov    %esi,0x4(%esp)
    3f8e:	89 04 24             	mov    %eax,(%esp)
    3f91:	e8 0a 7f 01 00       	call   1bea0 <async_data_read_finalize>
    3f96:	8b 45 10             	mov    0x10(%ebp),%eax
    3f99:	89 5c 24 08          	mov    %ebx,0x8(%esp)
    3f9d:	c7 44 24 04 00 00 00 	movl   $0x0,0x4(%esp)
    3fa4:	00 
    3fa5:	89 04 24             	mov    %eax,(%esp)
    3fa8:	e8 63 69 01 00       	call   1a910 <async_answer_1>
    3fad:	81 c4 20 01 00 00    	add    $0x120,%esp
    3fb3:	5b                   	pop    %ebx
    3fb4:	5e                   	pop    %esi
    3fb5:	5d                   	pop    %ebp
    3fb6:	c3                   	ret    
    3fb7:	90                   	nop
    3fb8:	8b 85 f0 fe ff ff    	mov    -0x110(%ebp),%eax
    3fbe:	89 74 24 04          	mov    %esi,0x4(%esp)
    3fc2:	c7 44 24 08 00 00 00 	movl   $0x0,0x8(%esp)
    3fc9:	00 
    3fca:	89 04 24             	mov    %eax,(%esp)
    3fcd:	e8 ce 7e 01 00       	call   1bea0 <async_data_read_finalize>
    3fd2:	8b 45 10             	mov    0x10(%ebp),%eax
    3fd5:	89 5c 24 04          	mov    %ebx,0x4(%esp)
    3fd9:	89 04 24             	mov    %eax,(%esp)
    3fdc:	e8 ef 68 01 00       	call   1a8d0 <async_answer_0>
    3fe1:	81 c4 20 01 00 00    	add    $0x120,%esp
    3fe7:	5b                   	pop    %ebx
    3fe8:	5e                   	pop    %esi
    3fe9:	5d                   	pop    %ebp
    3fea:	c3                   	ret    
    3feb:	90                   	nop
    3fec:	8d 74 26 00          	lea    0x0(%esi,%eiz,1),%esi
    3ff0:	8b 45 10             	mov    0x10(%ebp),%eax
    3ff3:	c7 44 24 04 f2 ff ff 	movl   $0xfffffff2,0x4(%esp)
    3ffa:	ff 
    3ffb:	89 04 24             	mov    %eax,(%esp)
    3ffe:	e8 cd 68 01 00       	call   1a8d0 <async_answer_0>
    4003:	81 c4 20 01 00 00    	add    $0x120,%esp
    4009:	5b                   	pop    %ebx
    400a:	5e                   	pop    %esi
    400b:	5d                   	pop    %ebp
    400c:	c3                   	ret    
    400d:	8d 76 00             	lea    0x0(%esi),%esi
    4010:	8b 85 f0 fe ff ff    	mov    -0x110(%ebp),%eax
    4016:	c7 44 24 08 00 00 00 	movl   $0x0,0x8(%esp)
    401d:	00 
    401e:	c7 44 24 04 00 00 00 	movl   $0x0,0x4(%esp)
    4025:	00 
    4026:	89 04 24             	mov    %eax,(%esp)
    4029:	e8 72 7e 01 00       	call   1bea0 <async_data_read_finalize>
    402e:	8b 45 10             	mov    0x10(%ebp),%eax
    4031:	c7 44 24 04 f5 ff ff 	movl   $0xfffffff5,0x4(%esp)
    4038:	ff 
    4039:	89 04 24             	mov    %eax,(%esp)
    403c:	e8 8f 68 01 00       	call   1a8d0 <async_answer_0>
    4041:	e9 67 ff ff ff       	jmp    3fad <remote_char_read+0x9d>
    4046:	66 90                	xchg   %ax,%ax
    4048:	66 90                	xchg   %ax,%ax
    404a:	66 90                	xchg   %ax,%ax
    404c:	66 90                	xchg   %ax,%ax
    404e:	66 90                	xchg   %ax,%ax

00004050 <remote_graph_connect>:
    4050:	55                   	push   %ebp
    4051:	89 e5                	mov    %esp,%ebp
    4053:	57                   	push   %edi
    4054:	56                   	push   %esi
    4055:	53                   	push   %ebx
    4056:	83 ec 2c             	sub    $0x2c,%esp
    4059:	8b 5d 0c             	mov    0xc(%ebp),%ebx
    405c:	8b 55 14             	mov    0x14(%ebp),%edx
    405f:	8b 7d 08             	mov    0x8(%ebp),%edi
    4062:	8b 75 10             	mov    0x10(%ebp),%esi
    4065:	8b 03                	mov    (%ebx),%eax
    4067:	89 55 e4             	mov    %edx,-0x1c(%ebp)
    406a:	85 c0                	test   %eax,%eax
    406c:	74 3a                	je     40a8 <remote_graph_connect+0x58>
    406e:	89 3c 24             	mov    %edi,(%esp)
    4071:	e8 0a f3 ff ff       	call   3380 <ddf_fun_data_get>
    4076:	85 c0                	test   %eax,%eax
    4078:	74 2e                	je     40a8 <remote_graph_connect+0x58>
    407a:	8b 1b                	mov    (%ebx),%ebx
    407c:	89 3c 24             	mov    %edi,(%esp)
    407f:	e8 fc f2 ff ff       	call   3380 <ddf_fun_data_get>
    4084:	8b 55 e4             	mov    -0x1c(%ebp),%edx
    4087:	89 75 0c             	mov    %esi,0xc(%ebp)
    408a:	89 45 08             	mov    %eax,0x8(%ebp)
    408d:	c7 45 14 00 00 00 00 	movl   $0x0,0x14(%ebp)
    4094:	89 55 10             	mov    %edx,0x10(%ebp)
    4097:	83 c4 2c             	add    $0x2c,%esp
    409a:	89 d8                	mov    %ebx,%eax
    409c:	5b                   	pop    %ebx
    409d:	5e                   	pop    %esi
    409e:	5f                   	pop    %edi
    409f:	5d                   	pop    %ebp
    40a0:	ff e0                	jmp    *%eax
    40a2:	8d b6 00 00 00 00    	lea    0x0(%esi),%esi
    40a8:	89 75 08             	mov    %esi,0x8(%ebp)
    40ab:	c7 45 0c f5 ff ff ff 	movl   $0xfffffff5,0xc(%ebp)
    40b2:	83 c4 2c             	add    $0x2c,%esp
    40b5:	5b                   	pop    %ebx
    40b6:	5e                   	pop    %esi
    40b7:	5f                   	pop    %edi
    40b8:	5d                   	pop    %ebp
    40b9:	e9 12 68 01 00       	jmp    1a8d0 <async_answer_0>
    40be:	66 90                	xchg   %ax,%ax

000040c0 <remote_nic_poll_now>:
    40c0:	55                   	push   %ebp
    40c1:	89 e5                	mov    %esp,%ebp
    40c3:	53                   	push   %ebx
    40c4:	83 ec 14             	sub    $0x14,%esp
    40c7:	8b 45 0c             	mov    0xc(%ebp),%eax
    40ca:	8b 55 08             	mov    0x8(%ebp),%edx
    40cd:	8b 5d 10             	mov    0x10(%ebp),%ebx
    40d0:	8b 80 a0 00 00 00    	mov    0xa0(%eax),%eax
    40d6:	85 c0                	test   %eax,%eax
    40d8:	74 16                	je     40f0 <remote_nic_poll_now+0x30>
    40da:	89 14 24             	mov    %edx,(%esp)
    40dd:	ff d0                	call   *%eax
    40df:	89 5d 08             	mov    %ebx,0x8(%ebp)
    40e2:	89 45 0c             	mov    %eax,0xc(%ebp)
    40e5:	83 c4 14             	add    $0x14,%esp
    40e8:	5b                   	pop    %ebx
    40e9:	5d                   	pop    %ebp
    40ea:	e9 e1 67 01 00       	jmp    1a8d0 <async_answer_0>
    40ef:	90                   	nop
    40f0:	89 5d 08             	mov    %ebx,0x8(%ebp)
    40f3:	c7 45 0c f5 ff ff ff 	movl   $0xfffffff5,0xc(%ebp)
    40fa:	83 c4 14             	add    $0x14,%esp
    40fd:	5b                   	pop    %ebx
    40fe:	5d                   	pop    %ebp
    40ff:	e9 cc 67 01 00       	jmp    1a8d0 <async_answer_0>
    4104:	8d b6 00 00 00 00    	lea    0x0(%esi),%esi
    410a:	8d bf 00 00 00 00    	lea    0x0(%edi),%edi

00004110 <remote_nic_offload_set>:
    4110:	55                   	push   %ebp
    4111:	89 e5                	mov    %esp,%ebp
    4113:	56                   	push   %esi
    4114:	53                   	push   %ebx
    4115:	83 ec 10             	sub    $0x10,%esp
    4118:	8b 45 0c             	mov    0xc(%ebp),%eax
    411b:	8b 4d 08             	mov    0x8(%ebp),%ecx
    411e:	8b 5d 10             	mov    0x10(%ebp),%ebx
    4121:	8b 55 14             	mov    0x14(%ebp),%edx
    4124:	8b 80 94 00 00 00    	mov    0x94(%eax),%eax
    412a:	85 c0                	test   %eax,%eax
    412c:	74 2a                	je     4158 <remote_nic_offload_set+0x48>
    412e:	8b 72 0c             	mov    0xc(%edx),%esi
    4131:	89 74 24 08          	mov    %esi,0x8(%esp)
    4135:	8b 52 08             	mov    0x8(%edx),%edx
    4138:	89 0c 24             	mov    %ecx,(%esp)
    413b:	89 54 24 04          	mov    %edx,0x4(%esp)
    413f:	ff d0                	call   *%eax
    4141:	89 5d 08             	mov    %ebx,0x8(%ebp)
    4144:	89 45 0c             	mov    %eax,0xc(%ebp)
    4147:	83 c4 10             	add    $0x10,%esp
    414a:	5b                   	pop    %ebx
    414b:	5e                   	pop    %esi
    414c:	5d                   	pop    %ebp
    414d:	e9 7e 67 01 00       	jmp    1a8d0 <async_answer_0>
    4152:	8d b6 00 00 00 00    	lea    0x0(%esi),%esi
    4158:	89 5d 08             	mov    %ebx,0x8(%ebp)
    415b:	c7 45 0c f5 ff ff ff 	movl   $0xfffffff5,0xc(%ebp)
    4162:	83 c4 10             	add    $0x10,%esp
    4165:	5b                   	pop    %ebx
    4166:	5e                   	pop    %esi
    4167:	5d                   	pop    %ebp
    4168:	e9 63 67 01 00       	jmp    1a8d0 <async_answer_0>
    416d:	8d 76 00             	lea    0x0(%esi),%esi

00004170 <remote_nic_wol_virtue_remove>:
    4170:	55                   	push   %ebp
    4171:	89 e5                	mov    %esp,%ebp
    4173:	53                   	push   %ebx
    4174:	83 ec 14             	sub    $0x14,%esp
    4177:	8b 45 0c             	mov    0xc(%ebp),%eax
    417a:	8b 55 08             	mov    0x8(%ebp),%edx
    417d:	8b 5d 10             	mov    0x10(%ebp),%ebx
    4180:	8b 4d 14             	mov    0x14(%ebp),%ecx
    4183:	8b 40 7c             	mov    0x7c(%eax),%eax
    4186:	85 c0                	test   %eax,%eax
    4188:	74 1e                	je     41a8 <remote_nic_wol_virtue_remove+0x38>
    418a:	8b 49 08             	mov    0x8(%ecx),%ecx
    418d:	89 14 24             	mov    %edx,(%esp)
    4190:	89 4c 24 04          	mov    %ecx,0x4(%esp)
    4194:	ff d0                	call   *%eax
    4196:	89 5d 08             	mov    %ebx,0x8(%ebp)
    4199:	89 45 0c             	mov    %eax,0xc(%ebp)
    419c:	83 c4 14             	add    $0x14,%esp
    419f:	5b                   	pop    %ebx
    41a0:	5d                   	pop    %ebp
    41a1:	e9 2a 67 01 00       	jmp    1a8d0 <async_answer_0>
    41a6:	66 90                	xchg   %ax,%ax
    41a8:	89 5d 08             	mov    %ebx,0x8(%ebp)
    41ab:	c7 45 0c f5 ff ff ff 	movl   $0xfffffff5,0xc(%ebp)
    41b2:	83 c4 14             	add    $0x14,%esp
    41b5:	5b                   	pop    %ebx
    41b6:	5d                   	pop    %ebp
    41b7:	e9 14 67 01 00       	jmp    1a8d0 <async_answer_0>
    41bc:	8d 74 26 00          	lea    0x0(%esi,%eiz,1),%esi

000041c0 <remote_nic_vlan_set_tag>:
    41c0:	55                   	push   %ebp
    41c1:	89 e5                	mov    %esp,%ebp
    41c3:	57                   	push   %edi
    41c4:	56                   	push   %esi
    41c5:	53                   	push   %ebx
    41c6:	83 ec 1c             	sub    $0x1c,%esp
    41c9:	8b 55 0c             	mov    0xc(%ebp),%edx
    41cc:	8b 7d 08             	mov    0x8(%ebp),%edi
    41cf:	8b 5d 10             	mov    0x10(%ebp),%ebx
    41d2:	8b 45 14             	mov    0x14(%ebp),%eax
    41d5:	8b 52 74             	mov    0x74(%edx),%edx
    41d8:	85 d2                	test   %edx,%edx
    41da:	74 4c                	je     4228 <remote_nic_vlan_set_tag+0x68>
    41dc:	8b 48 10             	mov    0x10(%eax),%ecx
    41df:	85 c9                	test   %ecx,%ecx
    41e1:	0f 95 c1             	setne  %cl
    41e4:	81 e1 ff 00 00 00    	and    $0xff,%ecx
    41ea:	89 4c 24 0c          	mov    %ecx,0xc(%esp)
    41ee:	8b 70 0c             	mov    0xc(%eax),%esi
    41f1:	85 f6                	test   %esi,%esi
    41f3:	0f 95 c1             	setne  %cl
    41f6:	81 e1 ff 00 00 00    	and    $0xff,%ecx
    41fc:	89 4c 24 08          	mov    %ecx,0x8(%esp)
    4200:	8b 40 08             	mov    0x8(%eax),%eax
    4203:	89 3c 24             	mov    %edi,(%esp)
    4206:	25 ff ff 00 00       	and    $0xffff,%eax
    420b:	89 44 24 04          	mov    %eax,0x4(%esp)
    420f:	ff d2                	call   *%edx
    4211:	89 5d 08             	mov    %ebx,0x8(%ebp)
    4214:	89 45 0c             	mov    %eax,0xc(%ebp)
    4217:	83 c4 1c             	add    $0x1c,%esp
    421a:	5b                   	pop    %ebx
    421b:	5e                   	pop    %esi
    421c:	5f                   	pop    %edi
    421d:	5d                   	pop    %ebp
    421e:	e9 ad 66 01 00       	jmp    1a8d0 <async_answer_0>
    4223:	90                   	nop
    4224:	8d 74 26 00          	lea    0x0(%esi,%eiz,1),%esi
    4228:	89 5d 08             	mov    %ebx,0x8(%ebp)
    422b:	c7 45 0c f5 ff ff ff 	movl   $0xfffffff5,0xc(%ebp)
    4232:	83 c4 1c             	add    $0x1c,%esp
    4235:	5b                   	pop    %ebx
    4236:	5e                   	pop    %esi
    4237:	5f                   	pop    %edi
    4238:	5d                   	pop    %ebp
    4239:	e9 92 66 01 00       	jmp    1a8d0 <async_answer_0>
    423e:	66 90                	xchg   %ax,%ax

00004240 <remote_nic_defective_set_mode>:
    4240:	55                   	push   %ebp
    4241:	89 e5                	mov    %esp,%ebp
    4243:	53                   	push   %ebx
    4244:	83 ec 14             	sub    $0x14,%esp
    4247:	8b 45 0c             	mov    0xc(%ebp),%eax
    424a:	8b 55 08             	mov    0x8(%ebp),%edx
    424d:	8b 5d 10             	mov    0x10(%ebp),%ebx
    4250:	8b 4d 14             	mov    0x14(%ebp),%ecx
    4253:	8b 40 60             	mov    0x60(%eax),%eax
    4256:	85 c0                	test   %eax,%eax
    4258:	74 1e                	je     4278 <remote_nic_defective_set_mode+0x38>
    425a:	8b 49 08             	mov    0x8(%ecx),%ecx
    425d:	89 14 24             	mov    %edx,(%esp)
    4260:	89 4c 24 04          	mov    %ecx,0x4(%esp)
    4264:	ff d0                	call   *%eax
    4266:	89 5d 08             	mov    %ebx,0x8(%ebp)
    4269:	89 45 0c             	mov    %eax,0xc(%ebp)
    426c:	83 c4 14             	add    $0x14,%esp
    426f:	5b                   	pop    %ebx
    4270:	5d                   	pop    %ebp
    4271:	e9 5a 66 01 00       	jmp    1a8d0 <async_answer_0>
    4276:	66 90                	xchg   %ax,%ax
    4278:	89 5d 08             	mov    %ebx,0x8(%ebp)
    427b:	c7 45 0c f5 ff ff ff 	movl   $0xfffffff5,0xc(%ebp)
    4282:	83 c4 14             	add    $0x14,%esp
    4285:	5b                   	pop    %ebx
    4286:	5d                   	pop    %ebp
    4287:	e9 44 66 01 00       	jmp    1a8d0 <async_answer_0>
    428c:	8d 74 26 00          	lea    0x0(%esi,%eiz,1),%esi

00004290 <remote_nic_broadcast_set_mode>:
    4290:	55                   	push   %ebp
    4291:	89 e5                	mov    %esp,%ebp
    4293:	53                   	push   %ebx
    4294:	83 ec 14             	sub    $0x14,%esp
    4297:	8b 45 0c             	mov    0xc(%ebp),%eax
    429a:	8b 55 08             	mov    0x8(%ebp),%edx
    429d:	8b 5d 10             	mov    0x10(%ebp),%ebx
    42a0:	8b 4d 14             	mov    0x14(%ebp),%ecx
    42a3:	8b 40 58             	mov    0x58(%eax),%eax
    42a6:	85 c0                	test   %eax,%eax
    42a8:	74 1e                	je     42c8 <remote_nic_broadcast_set_mode+0x38>
    42aa:	8b 49 08             	mov    0x8(%ecx),%ecx
    42ad:	89 14 24             	mov    %edx,(%esp)
    42b0:	89 4c 24 04          	mov    %ecx,0x4(%esp)
    42b4:	ff d0                	call   *%eax
    42b6:	89 5d 08             	mov    %ebx,0x8(%ebp)
    42b9:	89 45 0c             	mov    %eax,0xc(%ebp)
    42bc:	83 c4 14             	add    $0x14,%esp
    42bf:	5b                   	pop    %ebx
    42c0:	5d                   	pop    %ebp
    42c1:	e9 0a 66 01 00       	jmp    1a8d0 <async_answer_0>
    42c6:	66 90                	xchg   %ax,%ax
    42c8:	89 5d 08             	mov    %ebx,0x8(%ebp)
    42cb:	c7 45 0c f5 ff ff ff 	movl   $0xfffffff5,0xc(%ebp)
    42d2:	83 c4 14             	add    $0x14,%esp
    42d5:	5b                   	pop    %ebx
    42d6:	5d                   	pop    %ebp
    42d7:	e9 f4 65 01 00       	jmp    1a8d0 <async_answer_0>
    42dc:	8d 74 26 00          	lea    0x0(%esi,%eiz,1),%esi

000042e0 <remote_nic_set_pause>:
    42e0:	55                   	push   %ebp
    42e1:	89 e5                	mov    %esp,%ebp
    42e3:	56                   	push   %esi
    42e4:	53                   	push   %ebx
    42e5:	83 ec 10             	sub    $0x10,%esp
    42e8:	8b 55 0c             	mov    0xc(%ebp),%edx
    42eb:	8b 4d 08             	mov    0x8(%ebp),%ecx
    42ee:	8b 5d 10             	mov    0x10(%ebp),%ebx
    42f1:	8b 45 14             	mov    0x14(%ebp),%eax
    42f4:	8b 52 40             	mov    0x40(%edx),%edx
    42f7:	85 d2                	test   %edx,%edx
    42f9:	74 2d                	je     4328 <remote_nic_set_pause+0x48>
    42fb:	0f b7 70 10          	movzwl 0x10(%eax),%esi
    42ff:	89 74 24 0c          	mov    %esi,0xc(%esp)
    4303:	8b 70 0c             	mov    0xc(%eax),%esi
    4306:	89 74 24 08          	mov    %esi,0x8(%esp)
    430a:	8b 40 08             	mov    0x8(%eax),%eax
    430d:	89 0c 24             	mov    %ecx,(%esp)
    4310:	89 44 24 04          	mov    %eax,0x4(%esp)
    4314:	ff d2                	call   *%edx
    4316:	89 5d 08             	mov    %ebx,0x8(%ebp)
    4319:	89 45 0c             	mov    %eax,0xc(%ebp)
    431c:	83 c4 10             	add    $0x10,%esp
    431f:	5b                   	pop    %ebx
    4320:	5e                   	pop    %esi
    4321:	5d                   	pop    %ebp
    4322:	e9 a9 65 01 00       	jmp    1a8d0 <async_answer_0>
    4327:	90                   	nop
    4328:	89 5d 08             	mov    %ebx,0x8(%ebp)
    432b:	c7 45 0c f5 ff ff ff 	movl   $0xfffffff5,0xc(%ebp)
    4332:	83 c4 10             	add    $0x10,%esp
    4335:	5b                   	pop    %ebx
    4336:	5e                   	pop    %esi
    4337:	5d                   	pop    %ebp
    4338:	e9 93 65 01 00       	jmp    1a8d0 <async_answer_0>
    433d:	8d 76 00             	lea    0x0(%esi),%esi

00004340 <remote_nic_autoneg_restart>:
    4340:	55                   	push   %ebp
    4341:	89 e5                	mov    %esp,%ebp
    4343:	53                   	push   %ebx
    4344:	83 ec 14             	sub    $0x14,%esp
    4347:	8b 45 0c             	mov    0xc(%ebp),%eax
    434a:	8b 55 08             	mov    0x8(%ebp),%edx
    434d:	8b 5d 10             	mov    0x10(%ebp),%ebx
    4350:	8b 40 38             	mov    0x38(%eax),%eax
    4353:	85 c0                	test   %eax,%eax
    4355:	74 19                	je     4370 <remote_nic_autoneg_restart+0x30>
    4357:	89 14 24             	mov    %edx,(%esp)
    435a:	ff d0                	call   *%eax
    435c:	89 5d 08             	mov    %ebx,0x8(%ebp)
    435f:	89 45 0c             	mov    %eax,0xc(%ebp)
    4362:	83 c4 14             	add    $0x14,%esp
    4365:	5b                   	pop    %ebx
    4366:	5d                   	pop    %ebp
    4367:	e9 64 65 01 00       	jmp    1a8d0 <async_answer_0>
    436c:	8d 74 26 00          	lea    0x0(%esi,%eiz,1),%esi
    4370:	89 5d 08             	mov    %ebx,0x8(%ebp)
    4373:	c7 45 0c f5 ff ff ff 	movl   $0xfffffff5,0xc(%ebp)
    437a:	83 c4 14             	add    $0x14,%esp
    437d:	5b                   	pop    %ebx
    437e:	5d                   	pop    %ebp
    437f:	e9 4c 65 01 00       	jmp    1a8d0 <async_answer_0>
    4384:	8d b6 00 00 00 00    	lea    0x0(%esi),%esi
    438a:	8d bf 00 00 00 00    	lea    0x0(%edi),%edi

00004390 <remote_nic_autoneg_disable>:
    4390:	55                   	push   %ebp
    4391:	89 e5                	mov    %esp,%ebp
    4393:	53                   	push   %ebx
    4394:	83 ec 14             	sub    $0x14,%esp
    4397:	8b 45 0c             	mov    0xc(%ebp),%eax
    439a:	8b 55 08             	mov    0x8(%ebp),%edx
    439d:	8b 5d 10             	mov    0x10(%ebp),%ebx
    43a0:	8b 40 30             	mov    0x30(%eax),%eax
    43a3:	85 c0                	test   %eax,%eax
    43a5:	74 19                	je     43c0 <remote_nic_autoneg_disable+0x30>
    43a7:	89 14 24             	mov    %edx,(%esp)
    43aa:	ff d0                	call   *%eax
    43ac:	89 5d 08             	mov    %ebx,0x8(%ebp)
    43af:	89 45 0c             	mov    %eax,0xc(%ebp)
    43b2:	83 c4 14             	add    $0x14,%esp
    43b5:	5b                   	pop    %ebx
    43b6:	5d                   	pop    %ebp
    43b7:	e9 14 65 01 00       	jmp    1a8d0 <async_answer_0>
    43bc:	8d 74 26 00          	lea    0x0(%esi,%eiz,1),%esi
    43c0:	89 5d 08             	mov    %ebx,0x8(%ebp)
    43c3:	c7 45 0c f5 ff ff ff 	movl   $0xfffffff5,0xc(%ebp)
    43ca:	83 c4 14             	add    $0x14,%esp
    43cd:	5b                   	pop    %ebx
    43ce:	5d                   	pop    %ebp
    43cf:	e9 fc 64 01 00       	jmp    1a8d0 <async_answer_0>
    43d4:	8d b6 00 00 00 00    	lea    0x0(%esi),%esi
    43da:	8d bf 00 00 00 00    	lea    0x0(%edi),%edi

000043e0 <remote_nic_autoneg_enable>:
    43e0:	55                   	push   %ebp
    43e1:	89 e5                	mov    %esp,%ebp
    43e3:	53                   	push   %ebx
    43e4:	83 ec 14             	sub    $0x14,%esp
    43e7:	8b 45 0c             	mov    0xc(%ebp),%eax
    43ea:	8b 55 08             	mov    0x8(%ebp),%edx
    43ed:	8b 5d 10             	mov    0x10(%ebp),%ebx
    43f0:	8b 4d 14             	mov    0x14(%ebp),%ecx
    43f3:	8b 40 2c             	mov    0x2c(%eax),%eax
    43f6:	85 c0                	test   %eax,%eax
    43f8:	74 1e                	je     4418 <remote_nic_autoneg_enable+0x38>
    43fa:	8b 49 08             	mov    0x8(%ecx),%ecx
    43fd:	89 14 24             	mov    %edx,(%esp)
    4400:	89 4c 24 04          	mov    %ecx,0x4(%esp)
    4404:	ff d0                	call   *%eax
    4406:	89 5d 08             	mov    %ebx,0x8(%ebp)
    4409:	89 45 0c             	mov    %eax,0xc(%ebp)
    440c:	83 c4 14             	add    $0x14,%esp
    440f:	5b                   	pop    %ebx
    4410:	5d                   	pop    %ebp
    4411:	e9 ba 64 01 00       	jmp    1a8d0 <async_answer_0>
    4416:	66 90                	xchg   %ax,%ax
    4418:	89 5d 08             	mov    %ebx,0x8(%ebp)
    441b:	c7 45 0c f5 ff ff ff 	movl   $0xfffffff5,0xc(%ebp)
    4422:	83 c4 14             	add    $0x14,%esp
    4425:	5b                   	pop    %ebx
    4426:	5d                   	pop    %ebp
    4427:	e9 a4 64 01 00       	jmp    1a8d0 <async_answer_0>
    442c:	8d 74 26 00          	lea    0x0(%esi,%eiz,1),%esi

00004430 <remote_nic_set_operation_mode>:
    4430:	55                   	push   %ebp
    4431:	89 e5                	mov    %esp,%ebp
    4433:	56                   	push   %esi
    4434:	53                   	push   %ebx
    4435:	83 ec 10             	sub    $0x10,%esp
    4438:	8b 55 0c             	mov    0xc(%ebp),%edx
    443b:	8b 4d 08             	mov    0x8(%ebp),%ecx
    443e:	8b 5d 10             	mov    0x10(%ebp),%ebx
    4441:	8b 45 14             	mov    0x14(%ebp),%eax
    4444:	8b 52 28             	mov    0x28(%edx),%edx
    4447:	85 d2                	test   %edx,%edx
    4449:	74 2d                	je     4478 <remote_nic_set_operation_mode+0x48>
    444b:	8b 70 10             	mov    0x10(%eax),%esi
    444e:	89 74 24 0c          	mov    %esi,0xc(%esp)
    4452:	8b 70 0c             	mov    0xc(%eax),%esi
    4455:	89 74 24 08          	mov    %esi,0x8(%esp)
    4459:	8b 40 08             	mov    0x8(%eax),%eax
    445c:	89 0c 24             	mov    %ecx,(%esp)
    445f:	89 44 24 04          	mov    %eax,0x4(%esp)
    4463:	ff d2                	call   *%edx
    4465:	89 5d 08             	mov    %ebx,0x8(%ebp)
    4468:	89 45 0c             	mov    %eax,0xc(%ebp)
    446b:	83 c4 10             	add    $0x10,%esp
    446e:	5b                   	pop    %ebx
    446f:	5e                   	pop    %esi
    4470:	5d                   	pop    %ebp
    4471:	e9 5a 64 01 00       	jmp    1a8d0 <async_answer_0>
    4476:	66 90                	xchg   %ax,%ax
    4478:	89 5d 08             	mov    %ebx,0x8(%ebp)
    447b:	c7 45 0c f5 ff ff ff 	movl   $0xfffffff5,0xc(%ebp)
    4482:	83 c4 10             	add    $0x10,%esp
    4485:	5b                   	pop    %ebx
    4486:	5e                   	pop    %esi
    4487:	5d                   	pop    %ebp
    4488:	e9 43 64 01 00       	jmp    1a8d0 <async_answer_0>
    448d:	8d 76 00             	lea    0x0(%esi),%esi

00004490 <remote_nic_poll_set_mode>:
    4490:	55                   	push   %ebp
    4491:	31 d2                	xor    %edx,%edx
    4493:	89 e5                	mov    %esp,%ebp
    4495:	56                   	push   %esi
    4496:	53                   	push   %ebx
    4497:	83 ec 20             	sub    $0x20,%esp
    449a:	8b 45 14             	mov    0x14(%ebp),%eax
    449d:	8b 58 08             	mov    0x8(%eax),%ebx
    44a0:	8b 40 0c             	mov    0xc(%eax),%eax
    44a3:	85 c0                	test   %eax,%eax
    44a5:	75 39                	jne    44e0 <remote_nic_poll_set_mode+0x50>
    44a7:	8b 45 0c             	mov    0xc(%ebp),%eax
    44aa:	8b 80 9c 00 00 00    	mov    0x9c(%eax),%eax
    44b0:	85 c0                	test   %eax,%eax
    44b2:	0f 84 b8 00 00 00    	je     4570 <remote_nic_poll_set_mode+0xe0>
    44b8:	89 54 24 08          	mov    %edx,0x8(%esp)
    44bc:	8b 55 08             	mov    0x8(%ebp),%edx
    44bf:	89 5c 24 04          	mov    %ebx,0x4(%esp)
    44c3:	89 14 24             	mov    %edx,(%esp)
    44c6:	ff d0                	call   *%eax
    44c8:	89 44 24 04          	mov    %eax,0x4(%esp)
    44cc:	8b 45 10             	mov    0x10(%ebp),%eax
    44cf:	89 04 24             	mov    %eax,(%esp)
    44d2:	e8 f9 63 01 00       	call   1a8d0 <async_answer_0>
    44d7:	83 c4 20             	add    $0x20,%esp
    44da:	5b                   	pop    %ebx
    44db:	5e                   	pop    %esi
    44dc:	5d                   	pop    %ebp
    44dd:	c3                   	ret    
    44de:	66 90                	xchg   %ax,%ax
    44e0:	8d 45 e8             	lea    -0x18(%ebp),%eax
    44e3:	89 44 24 04          	mov    %eax,0x4(%esp)
    44e7:	8d 45 ec             	lea    -0x14(%ebp),%eax
    44ea:	89 04 24             	mov    %eax,(%esp)
    44ed:	e8 6e 7e 01 00       	call   1c360 <async_data_write_receive>
    44f2:	84 c0                	test   %al,%al
    44f4:	0f 84 96 00 00 00    	je     4590 <remote_nic_poll_set_mode+0x100>
    44fa:	83 7d e8 08          	cmpl   $0x8,-0x18(%ebp)
    44fe:	74 30                	je     4530 <remote_nic_poll_set_mode+0xa0>
    4500:	8b 45 ec             	mov    -0x14(%ebp),%eax
    4503:	c7 44 24 04 fd ff ff 	movl   $0xfffffffd,0x4(%esp)
    450a:	ff 
    450b:	89 04 24             	mov    %eax,(%esp)
    450e:	e8 bd 63 01 00       	call   1a8d0 <async_answer_0>
    4513:	8b 45 10             	mov    0x10(%ebp),%eax
    4516:	c7 44 24 04 fd ff ff 	movl   $0xfffffffd,0x4(%esp)
    451d:	ff 
    451e:	89 04 24             	mov    %eax,(%esp)
    4521:	e8 aa 63 01 00       	call   1a8d0 <async_answer_0>
    4526:	83 c4 20             	add    $0x20,%esp
    4529:	5b                   	pop    %ebx
    452a:	5e                   	pop    %esi
    452b:	5d                   	pop    %ebp
    452c:	c3                   	ret    
    452d:	8d 76 00             	lea    0x0(%esi),%esi
    4530:	8d 75 f0             	lea    -0x10(%ebp),%esi
    4533:	8b 45 ec             	mov    -0x14(%ebp),%eax
    4536:	c7 44 24 08 08 00 00 	movl   $0x8,0x8(%esp)
    453d:	00 
    453e:	89 74 24 04          	mov    %esi,0x4(%esp)
    4542:	89 04 24             	mov    %eax,(%esp)
    4545:	e8 66 7e 01 00       	call   1c3b0 <async_data_write_finalize>
    454a:	89 f2                	mov    %esi,%edx
    454c:	85 c0                	test   %eax,%eax
    454e:	0f 84 53 ff ff ff    	je     44a7 <remote_nic_poll_set_mode+0x17>
    4554:	8b 45 10             	mov    0x10(%ebp),%eax
    4557:	c7 44 24 04 f2 ff ff 	movl   $0xfffffff2,0x4(%esp)
    455e:	ff 
    455f:	89 04 24             	mov    %eax,(%esp)
    4562:	e8 69 63 01 00       	call   1a8d0 <async_answer_0>
    4567:	e9 6b ff ff ff       	jmp    44d7 <remote_nic_poll_set_mode+0x47>
    456c:	8d 74 26 00          	lea    0x0(%esi,%eiz,1),%esi
    4570:	8b 45 10             	mov    0x10(%ebp),%eax
    4573:	c7 44 24 04 f5 ff ff 	movl   $0xfffffff5,0x4(%esp)
    457a:	ff 
    457b:	89 04 24             	mov    %eax,(%esp)
    457e:	e8 4d 63 01 00       	call   1a8d0 <async_answer_0>
    4583:	83 c4 20             	add    $0x20,%esp
    4586:	5b                   	pop    %ebx
    4587:	5e                   	pop    %esi
    4588:	5d                   	pop    %ebp
    4589:	c3                   	ret    
    458a:	8d b6 00 00 00 00    	lea    0x0(%esi),%esi
    4590:	8b 45 ec             	mov    -0x14(%ebp),%eax
    4593:	c7 44 24 04 f2 ff ff 	movl   $0xfffffff2,0x4(%esp)
    459a:	ff 
    459b:	89 04 24             	mov    %eax,(%esp)
    459e:	e8 2d 63 01 00       	call   1a8d0 <async_answer_0>
    45a3:	8b 45 10             	mov    0x10(%ebp),%eax
    45a6:	c7 44 24 04 f2 ff ff 	movl   $0xfffffff2,0x4(%esp)
    45ad:	ff 
    45ae:	89 04 24             	mov    %eax,(%esp)
    45b1:	e8 1a 63 01 00       	call   1a8d0 <async_answer_0>
    45b6:	e9 1c ff ff ff       	jmp    44d7 <remote_nic_poll_set_mode+0x47>
    45bb:	90                   	nop
    45bc:	8d 74 26 00          	lea    0x0(%esi,%eiz,1),%esi

000045c0 <remote_nic_vlan_set_mask>:
    45c0:	55                   	push   %ebp
    45c1:	31 d2                	xor    %edx,%edx
    45c3:	89 e5                	mov    %esp,%ebp
    45c5:	53                   	push   %ebx
    45c6:	81 ec 24 02 00 00    	sub    $0x224,%esp
    45cc:	8b 45 14             	mov    0x14(%ebp),%eax
    45cf:	8b 40 08             	mov    0x8(%eax),%eax
    45d2:	85 c0                	test   %eax,%eax
    45d4:	75 32                	jne    4608 <remote_nic_vlan_set_mask+0x48>
    45d6:	8b 45 0c             	mov    0xc(%ebp),%eax
    45d9:	8b 40 70             	mov    0x70(%eax),%eax
    45dc:	85 c0                	test   %eax,%eax
    45de:	0f 84 cc 00 00 00    	je     46b0 <remote_nic_vlan_set_mask+0xf0>
    45e4:	89 54 24 04          	mov    %edx,0x4(%esp)
    45e8:	8b 55 08             	mov    0x8(%ebp),%edx
    45eb:	89 14 24             	mov    %edx,(%esp)
    45ee:	ff d0                	call   *%eax
    45f0:	89 44 24 04          	mov    %eax,0x4(%esp)
    45f4:	8b 45 10             	mov    0x10(%ebp),%eax
    45f7:	89 04 24             	mov    %eax,(%esp)
    45fa:	e8 d1 62 01 00       	call   1a8d0 <async_answer_0>
    45ff:	81 c4 24 02 00 00    	add    $0x224,%esp
    4605:	5b                   	pop    %ebx
    4606:	5d                   	pop    %ebp
    4607:	c3                   	ret    
    4608:	8d 85 f4 fd ff ff    	lea    -0x20c(%ebp),%eax
    460e:	89 44 24 04          	mov    %eax,0x4(%esp)
    4612:	8d 85 f0 fd ff ff    	lea    -0x210(%ebp),%eax
    4618:	89 04 24             	mov    %eax,(%esp)
    461b:	e8 40 7d 01 00       	call   1c360 <async_data_write_receive>
    4620:	84 c0                	test   %al,%al
    4622:	0f 84 a8 00 00 00    	je     46d0 <remote_nic_vlan_set_mask+0x110>
    4628:	81 bd f4 fd ff ff 00 	cmpl   $0x200,-0x20c(%ebp)
    462f:	02 00 00 
    4632:	74 34                	je     4668 <remote_nic_vlan_set_mask+0xa8>
    4634:	8b 85 f0 fd ff ff    	mov    -0x210(%ebp),%eax
    463a:	c7 44 24 04 fd ff ff 	movl   $0xfffffffd,0x4(%esp)
    4641:	ff 
    4642:	89 04 24             	mov    %eax,(%esp)
    4645:	e8 86 62 01 00       	call   1a8d0 <async_answer_0>
    464a:	8b 45 10             	mov    0x10(%ebp),%eax
    464d:	c7 44 24 04 fd ff ff 	movl   $0xfffffffd,0x4(%esp)
    4654:	ff 
    4655:	89 04 24             	mov    %eax,(%esp)
    4658:	e8 73 62 01 00       	call   1a8d0 <async_answer_0>
    465d:	81 c4 24 02 00 00    	add    $0x224,%esp
    4663:	5b                   	pop    %ebx
    4664:	5d                   	pop    %ebp
    4665:	c3                   	ret    
    4666:	66 90                	xchg   %ax,%ax
    4668:	8d 9d f8 fd ff ff    	lea    -0x208(%ebp),%ebx
    466e:	8b 85 f0 fd ff ff    	mov    -0x210(%ebp),%eax
    4674:	c7 44 24 08 00 02 00 	movl   $0x200,0x8(%esp)
    467b:	00 
    467c:	89 5c 24 04          	mov    %ebx,0x4(%esp)
    4680:	89 04 24             	mov    %eax,(%esp)
    4683:	e8 28 7d 01 00       	call   1c3b0 <async_data_write_finalize>
    4688:	89 da                	mov    %ebx,%edx
    468a:	85 c0                	test   %eax,%eax
    468c:	0f 84 44 ff ff ff    	je     45d6 <remote_nic_vlan_set_mask+0x16>
    4692:	8b 45 10             	mov    0x10(%ebp),%eax
    4695:	c7 44 24 04 f2 ff ff 	movl   $0xfffffff2,0x4(%esp)
    469c:	ff 
    469d:	89 04 24             	mov    %eax,(%esp)
    46a0:	e8 2b 62 01 00       	call   1a8d0 <async_answer_0>
    46a5:	e9 55 ff ff ff       	jmp    45ff <remote_nic_vlan_set_mask+0x3f>
    46aa:	8d b6 00 00 00 00    	lea    0x0(%esi),%esi
    46b0:	8b 45 10             	mov    0x10(%ebp),%eax
    46b3:	c7 44 24 04 f5 ff ff 	movl   $0xfffffff5,0x4(%esp)
    46ba:	ff 
    46bb:	89 04 24             	mov    %eax,(%esp)
    46be:	e8 0d 62 01 00       	call   1a8d0 <async_answer_0>
    46c3:	81 c4 24 02 00 00    	add    $0x224,%esp
    46c9:	5b                   	pop    %ebx
    46ca:	5d                   	pop    %ebp
    46cb:	c3                   	ret    
    46cc:	8d 74 26 00          	lea    0x0(%esi,%eiz,1),%esi
    46d0:	8b 85 f0 fd ff ff    	mov    -0x210(%ebp),%eax
    46d6:	c7 44 24 04 f2 ff ff 	movl   $0xfffffff2,0x4(%esp)
    46dd:	ff 
    46de:	89 04 24             	mov    %eax,(%esp)
    46e1:	e8 ea 61 01 00       	call   1a8d0 <async_answer_0>
    46e6:	8b 45 10             	mov    0x10(%ebp),%eax
    46e9:	c7 44 24 04 f2 ff ff 	movl   $0xfffffff2,0x4(%esp)
    46f0:	ff 
    46f1:	89 04 24             	mov    %eax,(%esp)
    46f4:	e8 d7 61 01 00       	call   1a8d0 <async_answer_0>
    46f9:	e9 01 ff ff ff       	jmp    45ff <remote_nic_vlan_set_mask+0x3f>
    46fe:	66 90                	xchg   %ax,%ax

00004700 <remote_nic_set_address>:
    4700:	55                   	push   %ebp
    4701:	89 e5                	mov    %esp,%ebp
    4703:	53                   	push   %ebx
    4704:	83 ec 24             	sub    $0x24,%esp
    4707:	8d 45 e8             	lea    -0x18(%ebp),%eax
    470a:	89 44 24 04          	mov    %eax,0x4(%esp)
    470e:	8d 45 ec             	lea    -0x14(%ebp),%eax
    4711:	89 04 24             	mov    %eax,(%esp)
    4714:	e8 47 7c 01 00       	call   1c360 <async_data_write_receive>
    4719:	84 c0                	test   %al,%al
    471b:	0f 84 87 00 00 00    	je     47a8 <remote_nic_set_address+0xa8>
    4721:	8b 45 e8             	mov    -0x18(%ebp),%eax
    4724:	83 f8 06             	cmp    $0x6,%eax
    4727:	77 4f                	ja     4778 <remote_nic_set_address+0x78>
    4729:	89 44 24 08          	mov    %eax,0x8(%esp)
    472d:	8d 5d f2             	lea    -0xe(%ebp),%ebx
    4730:	8b 45 ec             	mov    -0x14(%ebp),%eax
    4733:	89 5c 24 04          	mov    %ebx,0x4(%esp)
    4737:	89 04 24             	mov    %eax,(%esp)
    473a:	e8 71 7c 01 00       	call   1c3b0 <async_data_write_finalize>
    473f:	85 c0                	test   %eax,%eax
    4741:	0f 85 91 00 00 00    	jne    47d8 <remote_nic_set_address+0xd8>
    4747:	8b 45 0c             	mov    0xc(%ebp),%eax
    474a:	8b 40 14             	mov    0x14(%eax),%eax
    474d:	85 c0                	test   %eax,%eax
    474f:	0f 84 a3 00 00 00    	je     47f8 <remote_nic_set_address+0xf8>
    4755:	8b 55 08             	mov    0x8(%ebp),%edx
    4758:	89 5c 24 04          	mov    %ebx,0x4(%esp)
    475c:	89 14 24             	mov    %edx,(%esp)
    475f:	ff d0                	call   *%eax
    4761:	89 44 24 04          	mov    %eax,0x4(%esp)
    4765:	8b 45 10             	mov    0x10(%ebp),%eax
    4768:	89 04 24             	mov    %eax,(%esp)
    476b:	e8 60 61 01 00       	call   1a8d0 <async_answer_0>
    4770:	83 c4 24             	add    $0x24,%esp
    4773:	5b                   	pop    %ebx
    4774:	5d                   	pop    %ebp
    4775:	c3                   	ret    
    4776:	66 90                	xchg   %ax,%ax
    4778:	8b 45 ec             	mov    -0x14(%ebp),%eax
    477b:	c7 44 24 04 fd ff ff 	movl   $0xfffffffd,0x4(%esp)
    4782:	ff 
    4783:	89 04 24             	mov    %eax,(%esp)
    4786:	e8 45 61 01 00       	call   1a8d0 <async_answer_0>
    478b:	8b 45 10             	mov    0x10(%ebp),%eax
    478e:	c7 44 24 04 fd ff ff 	movl   $0xfffffffd,0x4(%esp)
    4795:	ff 
    4796:	89 04 24             	mov    %eax,(%esp)
    4799:	e8 32 61 01 00       	call   1a8d0 <async_answer_0>
    479e:	83 c4 24             	add    $0x24,%esp
    47a1:	5b                   	pop    %ebx
    47a2:	5d                   	pop    %ebp
    47a3:	c3                   	ret    
    47a4:	8d 74 26 00          	lea    0x0(%esi,%eiz,1),%esi
    47a8:	8b 45 ec             	mov    -0x14(%ebp),%eax
    47ab:	c7 44 24 04 f2 ff ff 	movl   $0xfffffff2,0x4(%esp)
    47b2:	ff 
    47b3:	89 04 24             	mov    %eax,(%esp)
    47b6:	e8 15 61 01 00       	call   1a8d0 <async_answer_0>
    47bb:	8b 45 10             	mov    0x10(%ebp),%eax
    47be:	c7 44 24 04 f2 ff ff 	movl   $0xfffffff2,0x4(%esp)
    47c5:	ff 
    47c6:	89 04 24             	mov    %eax,(%esp)
    47c9:	e8 02 61 01 00       	call   1a8d0 <async_answer_0>
    47ce:	83 c4 24             	add    $0x24,%esp
    47d1:	5b                   	pop    %ebx
    47d2:	5d                   	pop    %ebp
    47d3:	c3                   	ret    
    47d4:	8d 74 26 00          	lea    0x0(%esi,%eiz,1),%esi
    47d8:	8b 45 10             	mov    0x10(%ebp),%eax
    47db:	c7 44 24 04 f2 ff ff 	movl   $0xfffffff2,0x4(%esp)
    47e2:	ff 
    47e3:	89 04 24             	mov    %eax,(%esp)
    47e6:	e8 e5 60 01 00       	call   1a8d0 <async_answer_0>
    47eb:	83 c4 24             	add    $0x24,%esp
    47ee:	5b                   	pop    %ebx
    47ef:	5d                   	pop    %ebp
    47f0:	c3                   	ret    
    47f1:	8d b4 26 00 00 00 00 	lea    0x0(%esi,%eiz,1),%esi
    47f8:	8b 45 10             	mov    0x10(%ebp),%eax
    47fb:	c7 44 24 04 f5 ff ff 	movl   $0xfffffff5,0x4(%esp)
    4802:	ff 
    4803:	89 04 24             	mov    %eax,(%esp)
    4806:	e8 c5 60 01 00       	call   1a8d0 <async_answer_0>
    480b:	e9 60 ff ff ff       	jmp    4770 <remote_nic_set_address+0x70>

00004810 <remote_nic_poll_get_mode>:
    4810:	55                   	push   %ebp
    4811:	89 e5                	mov    %esp,%ebp
    4813:	57                   	push   %edi
    4814:	56                   	push   %esi
    4815:	53                   	push   %ebx
    4816:	83 ec 3c             	sub    $0x3c,%esp
    4819:	8b 45 0c             	mov    0xc(%ebp),%eax
    481c:	8b 80 98 00 00 00    	mov    0x98(%eax),%eax
    4822:	85 c0                	test   %eax,%eax
    4824:	0f 84 ee 00 00 00    	je     4918 <remote_nic_poll_get_mode+0x108>
    482a:	8b 55 14             	mov    0x14(%ebp),%edx
    482d:	8d 5d e0             	lea    -0x20(%ebp),%ebx
    4830:	c7 45 d4 00 00 00 00 	movl   $0x0,-0x2c(%ebp)
    4837:	c7 45 e0 00 00 00 00 	movl   $0x0,-0x20(%ebp)
    483e:	8b 72 08             	mov    0x8(%edx),%esi
    4841:	8d 55 d4             	lea    -0x2c(%ebp),%edx
    4844:	89 54 24 04          	mov    %edx,0x4(%esp)
    4848:	8b 55 08             	mov    0x8(%ebp),%edx
    484b:	c7 45 e4 00 00 00 00 	movl   $0x0,-0x1c(%ebp)
    4852:	89 5c 24 08          	mov    %ebx,0x8(%esp)
    4856:	89 14 24             	mov    %edx,(%esp)
    4859:	ff d0                	call   *%eax
    485b:	89 c7                	mov    %eax,%edi
    485d:	85 c0                	test   %eax,%eax
    485f:	75 67                	jne    48c8 <remote_nic_poll_get_mode+0xb8>
    4861:	85 f6                	test   %esi,%esi
    4863:	74 63                	je     48c8 <remote_nic_poll_get_mode+0xb8>
    4865:	8d 45 d8             	lea    -0x28(%ebp),%eax
    4868:	89 44 24 04          	mov    %eax,0x4(%esp)
    486c:	8d 45 dc             	lea    -0x24(%ebp),%eax
    486f:	89 04 24             	mov    %eax,(%esp)
    4872:	e8 c9 75 01 00       	call   1be40 <async_data_read_receive>
    4877:	84 c0                	test   %al,%al
    4879:	74 6d                	je     48e8 <remote_nic_poll_get_mode+0xd8>
    487b:	83 7d d8 08          	cmpl   $0x8,-0x28(%ebp)
    487f:	74 2f                	je     48b0 <remote_nic_poll_get_mode+0xa0>
    4881:	8b 45 dc             	mov    -0x24(%ebp),%eax
    4884:	c7 44 24 04 fd ff ff 	movl   $0xfffffffd,0x4(%esp)
    488b:	ff 
    488c:	89 04 24             	mov    %eax,(%esp)
    488f:	e8 3c 60 01 00       	call   1a8d0 <async_answer_0>
    4894:	8b 45 10             	mov    0x10(%ebp),%eax
    4897:	c7 44 24 04 fd ff ff 	movl   $0xfffffffd,0x4(%esp)
    489e:	ff 
    489f:	89 04 24             	mov    %eax,(%esp)
    48a2:	e8 29 60 01 00       	call   1a8d0 <async_answer_0>
    48a7:	83 c4 3c             	add    $0x3c,%esp
    48aa:	5b                   	pop    %ebx
    48ab:	5e                   	pop    %esi
    48ac:	5f                   	pop    %edi
    48ad:	5d                   	pop    %ebp
    48ae:	c3                   	ret    
    48af:	90                   	nop
    48b0:	8b 45 dc             	mov    -0x24(%ebp),%eax
    48b3:	c7 44 24 08 08 00 00 	movl   $0x8,0x8(%esp)
    48ba:	00 
    48bb:	89 5c 24 04          	mov    %ebx,0x4(%esp)
    48bf:	89 04 24             	mov    %eax,(%esp)
    48c2:	e8 d9 75 01 00       	call   1bea0 <async_data_read_finalize>
    48c7:	90                   	nop
    48c8:	8b 45 d4             	mov    -0x2c(%ebp),%eax
    48cb:	89 7c 24 04          	mov    %edi,0x4(%esp)
    48cf:	89 44 24 08          	mov    %eax,0x8(%esp)
    48d3:	8b 45 10             	mov    0x10(%ebp),%eax
    48d6:	89 04 24             	mov    %eax,(%esp)
    48d9:	e8 32 60 01 00       	call   1a910 <async_answer_1>
    48de:	83 c4 3c             	add    $0x3c,%esp
    48e1:	5b                   	pop    %ebx
    48e2:	5e                   	pop    %esi
    48e3:	5f                   	pop    %edi
    48e4:	5d                   	pop    %ebp
    48e5:	c3                   	ret    
    48e6:	66 90                	xchg   %ax,%ax
    48e8:	8b 45 dc             	mov    -0x24(%ebp),%eax
    48eb:	c7 44 24 04 f2 ff ff 	movl   $0xfffffff2,0x4(%esp)
    48f2:	ff 
    48f3:	89 04 24             	mov    %eax,(%esp)
    48f6:	e8 d5 5f 01 00       	call   1a8d0 <async_answer_0>
    48fb:	8b 45 10             	mov    0x10(%ebp),%eax
    48fe:	c7 44 24 04 f2 ff ff 	movl   $0xfffffff2,0x4(%esp)
    4905:	ff 
    4906:	89 04 24             	mov    %eax,(%esp)
    4909:	e8 c2 5f 01 00       	call   1a8d0 <async_answer_0>
    490e:	83 c4 3c             	add    $0x3c,%esp
    4911:	5b                   	pop    %ebx
    4912:	5e                   	pop    %esi
    4913:	5f                   	pop    %edi
    4914:	5d                   	pop    %ebp
    4915:	c3                   	ret    
    4916:	66 90                	xchg   %ax,%ax
    4918:	8b 45 10             	mov    0x10(%ebp),%eax
    491b:	c7 44 24 04 f5 ff ff 	movl   $0xfffffff5,0x4(%esp)
    4922:	ff 
    4923:	89 04 24             	mov    %eax,(%esp)
    4926:	e8 a5 5f 01 00       	call   1a8d0 <async_answer_0>
    492b:	83 c4 3c             	add    $0x3c,%esp
    492e:	5b                   	pop    %ebx
    492f:	5e                   	pop    %esi
    4930:	5f                   	pop    %edi
    4931:	5d                   	pop    %ebp
    4932:	c3                   	ret    
    4933:	8d b6 00 00 00 00    	lea    0x0(%esi),%esi
    4939:	8d bc 27 00 00 00 00 	lea    0x0(%edi,%eiz,1),%edi

00004940 <remote_nic_wol_virtue_get_caps>:
    4940:	55                   	push   %ebp
    4941:	89 e5                	mov    %esp,%ebp
    4943:	83 ec 28             	sub    $0x28,%esp
    4946:	8b 45 0c             	mov    0xc(%ebp),%eax
    4949:	8b 80 88 00 00 00    	mov    0x88(%eax),%eax
    494f:	85 c0                	test   %eax,%eax
    4951:	74 3d                	je     4990 <remote_nic_wol_virtue_get_caps+0x50>
    4953:	8d 55 f4             	lea    -0xc(%ebp),%edx
    4956:	c7 45 f4 ff ff ff ff 	movl   $0xffffffff,-0xc(%ebp)
    495d:	89 54 24 08          	mov    %edx,0x8(%esp)
    4961:	8b 55 14             	mov    0x14(%ebp),%edx
    4964:	8b 52 08             	mov    0x8(%edx),%edx
    4967:	89 54 24 04          	mov    %edx,0x4(%esp)
    496b:	8b 55 08             	mov    0x8(%ebp),%edx
    496e:	89 14 24             	mov    %edx,(%esp)
    4971:	ff d0                	call   *%eax
    4973:	8b 55 f4             	mov    -0xc(%ebp),%edx
    4976:	89 44 24 04          	mov    %eax,0x4(%esp)
    497a:	8b 45 10             	mov    0x10(%ebp),%eax
    497d:	89 54 24 08          	mov    %edx,0x8(%esp)
    4981:	89 04 24             	mov    %eax,(%esp)
    4984:	e8 87 5f 01 00       	call   1a910 <async_answer_1>
    4989:	c9                   	leave  
    498a:	c3                   	ret    
    498b:	90                   	nop
    498c:	8d 74 26 00          	lea    0x0(%esi,%eiz,1),%esi
    4990:	8b 45 10             	mov    0x10(%ebp),%eax
    4993:	c7 44 24 04 f5 ff ff 	movl   $0xfffffff5,0x4(%esp)
    499a:	ff 
    499b:	89 04 24             	mov    %eax,(%esp)
    499e:	e8 2d 5f 01 00       	call   1a8d0 <async_answer_0>
    49a3:	c9                   	leave  
    49a4:	c3                   	ret    
    49a5:	8d 74 26 00          	lea    0x0(%esi,%eiz,1),%esi
    49a9:	8d bc 27 00 00 00 00 	lea    0x0(%edi,%eiz,1),%edi

000049b0 <remote_nic_defective_get_mode>:
    49b0:	55                   	push   %ebp
    49b1:	89 e5                	mov    %esp,%ebp
    49b3:	83 ec 28             	sub    $0x28,%esp
    49b6:	8b 45 0c             	mov    0xc(%ebp),%eax
    49b9:	8b 40 5c             	mov    0x5c(%eax),%eax
    49bc:	85 c0                	test   %eax,%eax
    49be:	74 30                	je     49f0 <remote_nic_defective_get_mode+0x40>
    49c0:	8d 55 f4             	lea    -0xc(%ebp),%edx
    49c3:	c7 45 f4 00 00 00 00 	movl   $0x0,-0xc(%ebp)
    49ca:	89 54 24 04          	mov    %edx,0x4(%esp)
    49ce:	8b 55 08             	mov    0x8(%ebp),%edx
    49d1:	89 14 24             	mov    %edx,(%esp)
    49d4:	ff d0                	call   *%eax
    49d6:	8b 55 f4             	mov    -0xc(%ebp),%edx
    49d9:	89 44 24 04          	mov    %eax,0x4(%esp)
    49dd:	8b 45 10             	mov    0x10(%ebp),%eax
    49e0:	89 54 24 08          	mov    %edx,0x8(%esp)
    49e4:	89 04 24             	mov    %eax,(%esp)
    49e7:	e8 24 5f 01 00       	call   1a910 <async_answer_1>
    49ec:	c9                   	leave  
    49ed:	c3                   	ret    
    49ee:	66 90                	xchg   %ax,%ax
    49f0:	8b 45 10             	mov    0x10(%ebp),%eax
    49f3:	c7 44 24 04 f5 ff ff 	movl   $0xfffffff5,0x4(%esp)
    49fa:	ff 
    49fb:	89 04 24             	mov    %eax,(%esp)
    49fe:	e8 cd 5e 01 00       	call   1a8d0 <async_answer_0>
    4a03:	c9                   	leave  
    4a04:	c3                   	ret    
    4a05:	8d 74 26 00          	lea    0x0(%esi,%eiz,1),%esi
    4a09:	8d bc 27 00 00 00 00 	lea    0x0(%edi,%eiz,1),%edi

00004a10 <remote_nic_broadcast_get_mode>:
    4a10:	55                   	push   %ebp
    4a11:	89 e5                	mov    %esp,%ebp
    4a13:	83 ec 28             	sub    $0x28,%esp
    4a16:	8b 45 0c             	mov    0xc(%ebp),%eax
    4a19:	8b 40 54             	mov    0x54(%eax),%eax
    4a1c:	85 c0                	test   %eax,%eax
    4a1e:	74 30                	je     4a50 <remote_nic_broadcast_get_mode+0x40>
    4a20:	8d 55 f4             	lea    -0xc(%ebp),%edx
    4a23:	c7 45 f4 02 00 00 00 	movl   $0x2,-0xc(%ebp)
    4a2a:	89 54 24 04          	mov    %edx,0x4(%esp)
    4a2e:	8b 55 08             	mov    0x8(%ebp),%edx
    4a31:	89 14 24             	mov    %edx,(%esp)
    4a34:	ff d0                	call   *%eax
    4a36:	8b 55 f4             	mov    -0xc(%ebp),%edx
    4a39:	89 44 24 04          	mov    %eax,0x4(%esp)
    4a3d:	8b 45 10             	mov    0x10(%ebp),%eax
    4a40:	89 54 24 08          	mov    %edx,0x8(%esp)
    4a44:	89 04 24             	mov    %eax,(%esp)
    4a47:	e8 c4 5e 01 00       	call   1a910 <async_answer_1>
    4a4c:	c9                   	leave  
    4a4d:	c3                   	ret    
    4a4e:	66 90                	xchg   %ax,%ax
    4a50:	8b 45 10             	mov    0x10(%ebp),%eax
    4a53:	c7 44 24 04 f5 ff ff 	movl   $0xfffffff5,0x4(%esp)
    4a5a:	ff 
    4a5b:	89 04 24             	mov    %eax,(%esp)
    4a5e:	e8 6d 5e 01 00       	call   1a8d0 <async_answer_0>
    4a63:	c9                   	leave  
    4a64:	c3                   	ret    
    4a65:	8d 74 26 00          	lea    0x0(%esi,%eiz,1),%esi
    4a69:	8d bc 27 00 00 00 00 	lea    0x0(%edi,%eiz,1),%edi

00004a70 <remote_nic_get_cable_state>:
    4a70:	55                   	push   %ebp
    4a71:	89 e5                	mov    %esp,%ebp
    4a73:	83 ec 28             	sub    $0x28,%esp
    4a76:	8b 45 0c             	mov    0xc(%ebp),%eax
    4a79:	8b 40 20             	mov    0x20(%eax),%eax
    4a7c:	85 c0                	test   %eax,%eax
    4a7e:	74 30                	je     4ab0 <remote_nic_get_cable_state+0x40>
    4a80:	8d 55 f4             	lea    -0xc(%ebp),%edx
    4a83:	c7 45 f4 00 00 00 00 	movl   $0x0,-0xc(%ebp)
    4a8a:	89 54 24 04          	mov    %edx,0x4(%esp)
    4a8e:	8b 55 08             	mov    0x8(%ebp),%edx
    4a91:	89 14 24             	mov    %edx,(%esp)
    4a94:	ff d0                	call   *%eax
    4a96:	8b 55 f4             	mov    -0xc(%ebp),%edx
    4a99:	89 44 24 04          	mov    %eax,0x4(%esp)
    4a9d:	8b 45 10             	mov    0x10(%ebp),%eax
    4aa0:	89 54 24 08          	mov    %edx,0x8(%esp)
    4aa4:	89 04 24             	mov    %eax,(%esp)
    4aa7:	e8 64 5e 01 00       	call   1a910 <async_answer_1>
    4aac:	c9                   	leave  
    4aad:	c3                   	ret    
    4aae:	66 90                	xchg   %ax,%ax
    4ab0:	8b 45 10             	mov    0x10(%ebp),%eax
    4ab3:	c7 44 24 04 f5 ff ff 	movl   $0xfffffff5,0x4(%esp)
    4aba:	ff 
    4abb:	89 04 24             	mov    %eax,(%esp)
    4abe:	e8 0d 5e 01 00       	call   1a8d0 <async_answer_0>
    4ac3:	c9                   	leave  
    4ac4:	c3                   	ret    
    4ac5:	8d 74 26 00          	lea    0x0(%esi,%eiz,1),%esi
    4ac9:	8d bc 27 00 00 00 00 	lea    0x0(%edi,%eiz,1),%edi

00004ad0 <remote_nic_offload_probe>:
    4ad0:	55                   	push   %ebp
    4ad1:	89 e5                	mov    %esp,%ebp
    4ad3:	83 ec 28             	sub    $0x28,%esp
    4ad6:	8b 45 0c             	mov    0xc(%ebp),%eax
    4ad9:	8b 80 90 00 00 00    	mov    0x90(%eax),%eax
    4adf:	85 c0                	test   %eax,%eax
    4ae1:	74 45                	je     4b28 <remote_nic_offload_probe+0x58>
    4ae3:	8d 55 f4             	lea    -0xc(%ebp),%edx
    4ae6:	c7 45 f0 00 00 00 00 	movl   $0x0,-0x10(%ebp)
    4aed:	89 54 24 08          	mov    %edx,0x8(%esp)
    4af1:	8d 55 f0             	lea    -0x10(%ebp),%edx
    4af4:	89 54 24 04          	mov    %edx,0x4(%esp)
    4af8:	8b 55 08             	mov    0x8(%ebp),%edx
    4afb:	89 14 24             	mov    %edx,(%esp)
    4afe:	c7 45 f4 00 00 00 00 	movl   $0x0,-0xc(%ebp)
    4b05:	ff d0                	call   *%eax
    4b07:	8b 55 f4             	mov    -0xc(%ebp),%edx
    4b0a:	89 54 24 0c          	mov    %edx,0xc(%esp)
    4b0e:	89 44 24 04          	mov    %eax,0x4(%esp)
    4b12:	8b 55 f0             	mov    -0x10(%ebp),%edx
    4b15:	8b 45 10             	mov    0x10(%ebp),%eax
    4b18:	89 54 24 08          	mov    %edx,0x8(%esp)
    4b1c:	89 04 24             	mov    %eax,(%esp)
    4b1f:	e8 2c 5e 01 00       	call   1a950 <async_answer_2>
    4b24:	c9                   	leave  
    4b25:	c3                   	ret    
    4b26:	66 90                	xchg   %ax,%ax
    4b28:	8b 45 10             	mov    0x10(%ebp),%eax
    4b2b:	c7 44 24 04 f5 ff ff 	movl   $0xfffffff5,0x4(%esp)
    4b32:	ff 
    4b33:	89 04 24             	mov    %eax,(%esp)
    4b36:	e8 95 5d 01 00       	call   1a8d0 <async_answer_0>
    4b3b:	c9                   	leave  
    4b3c:	c3                   	ret    
    4b3d:	8d 76 00             	lea    0x0(%esi),%esi

00004b40 <remote_nic_vlan_get_mask>:
    4b40:	55                   	push   %ebp
    4b41:	89 e5                	mov    %esp,%ebp
    4b43:	56                   	push   %esi
    4b44:	53                   	push   %ebx
    4b45:	81 ec 20 02 00 00    	sub    $0x220,%esp
    4b4b:	8b 5d 0c             	mov    0xc(%ebp),%ebx
    4b4e:	8b 43 6c             	mov    0x6c(%ebx),%eax
    4b51:	85 c0                	test   %eax,%eax
    4b53:	0f 84 c7 00 00 00    	je     4c20 <remote_nic_vlan_get_mask+0xe0>
    4b59:	8d b5 f8 fd ff ff    	lea    -0x208(%ebp),%esi
    4b5f:	c7 44 24 08 00 02 00 	movl   $0x200,0x8(%esp)
    4b66:	00 
    4b67:	c7 44 24 04 00 00 00 	movl   $0x0,0x4(%esp)
    4b6e:	00 
    4b6f:	89 34 24             	mov    %esi,(%esp)
    4b72:	e8 69 59 00 00       	call   a4e0 <memset>
    4b77:	8b 45 08             	mov    0x8(%ebp),%eax
    4b7a:	89 74 24 04          	mov    %esi,0x4(%esp)
    4b7e:	89 04 24             	mov    %eax,(%esp)
    4b81:	ff 53 6c             	call   *0x6c(%ebx)
    4b84:	89 c3                	mov    %eax,%ebx
    4b86:	85 c0                	test   %eax,%eax
    4b88:	75 78                	jne    4c02 <remote_nic_vlan_get_mask+0xc2>
    4b8a:	8d 85 f4 fd ff ff    	lea    -0x20c(%ebp),%eax
    4b90:	89 44 24 04          	mov    %eax,0x4(%esp)
    4b94:	8d 85 f0 fd ff ff    	lea    -0x210(%ebp),%eax
    4b9a:	89 04 24             	mov    %eax,(%esp)
    4b9d:	e8 9e 72 01 00       	call   1be40 <async_data_read_receive>
    4ba2:	84 c0                	test   %al,%al
    4ba4:	74 0c                	je     4bb2 <remote_nic_vlan_get_mask+0x72>
    4ba6:	81 bd f4 fd ff ff 00 	cmpl   $0x200,-0x20c(%ebp)
    4bad:	02 00 00 
    4bb0:	74 36                	je     4be8 <remote_nic_vlan_get_mask+0xa8>
    4bb2:	8b 85 f0 fd ff ff    	mov    -0x210(%ebp),%eax
    4bb8:	c7 44 24 04 f2 ff ff 	movl   $0xfffffff2,0x4(%esp)
    4bbf:	ff 
    4bc0:	89 04 24             	mov    %eax,(%esp)
    4bc3:	e8 08 5d 01 00       	call   1a8d0 <async_answer_0>
    4bc8:	8b 45 10             	mov    0x10(%ebp),%eax
    4bcb:	c7 44 24 04 f2 ff ff 	movl   $0xfffffff2,0x4(%esp)
    4bd2:	ff 
    4bd3:	89 04 24             	mov    %eax,(%esp)
    4bd6:	e8 f5 5c 01 00       	call   1a8d0 <async_answer_0>
    4bdb:	81 c4 20 02 00 00    	add    $0x220,%esp
    4be1:	5b                   	pop    %ebx
    4be2:	5e                   	pop    %esi
    4be3:	5d                   	pop    %ebp
    4be4:	c3                   	ret    
    4be5:	8d 76 00             	lea    0x0(%esi),%esi
    4be8:	8b 85 f0 fd ff ff    	mov    -0x210(%ebp),%eax
    4bee:	c7 44 24 08 00 02 00 	movl   $0x200,0x8(%esp)
    4bf5:	00 
    4bf6:	89 74 24 04          	mov    %esi,0x4(%esp)
    4bfa:	89 04 24             	mov    %eax,(%esp)
    4bfd:	e8 9e 72 01 00       	call   1bea0 <async_data_read_finalize>
    4c02:	8b 45 10             	mov    0x10(%ebp),%eax
    4c05:	89 5c 24 04          	mov    %ebx,0x4(%esp)
    4c09:	89 04 24             	mov    %eax,(%esp)
    4c0c:	e8 bf 5c 01 00       	call   1a8d0 <async_answer_0>
    4c11:	81 c4 20 02 00 00    	add    $0x220,%esp
    4c17:	5b                   	pop    %ebx
    4c18:	5e                   	pop    %esi
    4c19:	5d                   	pop    %ebp
    4c1a:	c3                   	ret    
    4c1b:	90                   	nop
    4c1c:	8d 74 26 00          	lea    0x0(%esi,%eiz,1),%esi
    4c20:	8b 45 10             	mov    0x10(%ebp),%eax
    4c23:	c7 44 24 04 f5 ff ff 	movl   $0xfffffff5,0x4(%esp)
    4c2a:	ff 
    4c2b:	89 04 24             	mov    %eax,(%esp)
    4c2e:	e8 9d 5c 01 00       	call   1a8d0 <async_answer_0>
    4c33:	81 c4 20 02 00 00    	add    $0x220,%esp
    4c39:	5b                   	pop    %ebx
    4c3a:	5e                   	pop    %esi
    4c3b:	5d                   	pop    %ebp
    4c3c:	c3                   	ret    
    4c3d:	8d 76 00             	lea    0x0(%esi),%esi

00004c40 <remote_nic_get_device_info>:
    4c40:	55                   	push   %ebp
    4c41:	89 e5                	mov    %esp,%ebp
    4c43:	56                   	push   %esi
    4c44:	53                   	push   %ebx
    4c45:	81 ec 40 01 00 00    	sub    $0x140,%esp
    4c4b:	8b 5d 0c             	mov    0xc(%ebp),%ebx
    4c4e:	8b 43 1c             	mov    0x1c(%ebx),%eax
    4c51:	85 c0                	test   %eax,%eax
    4c53:	0f 84 ff 00 00 00    	je     4d58 <remote_nic_get_device_info+0x118>
    4c59:	8d b5 dc fe ff ff    	lea    -0x124(%ebp),%esi
    4c5f:	c7 44 24 08 1c 01 00 	movl   $0x11c,0x8(%esp)
    4c66:	00 
    4c67:	c7 44 24 04 00 00 00 	movl   $0x0,0x4(%esp)
    4c6e:	00 
    4c6f:	89 34 24             	mov    %esi,(%esp)
    4c72:	e8 69 58 00 00       	call   a4e0 <memset>
    4c77:	8b 45 08             	mov    0x8(%ebp),%eax
    4c7a:	89 74 24 04          	mov    %esi,0x4(%esp)
    4c7e:	89 04 24             	mov    %eax,(%esp)
    4c81:	ff 53 1c             	call   *0x1c(%ebx)
    4c84:	89 c3                	mov    %eax,%ebx
    4c86:	85 c0                	test   %eax,%eax
    4c88:	75 78                	jne    4d02 <remote_nic_get_device_info+0xc2>
    4c8a:	8d 85 d8 fe ff ff    	lea    -0x128(%ebp),%eax
    4c90:	89 44 24 04          	mov    %eax,0x4(%esp)
    4c94:	8d 85 d4 fe ff ff    	lea    -0x12c(%ebp),%eax
    4c9a:	89 04 24             	mov    %eax,(%esp)
    4c9d:	e8 9e 71 01 00       	call   1be40 <async_data_read_receive>
    4ca2:	84 c0                	test   %al,%al
    4ca4:	74 7a                	je     4d20 <remote_nic_get_device_info+0xe0>
    4ca6:	81 bd d8 fe ff ff 1b 	cmpl   $0x11b,-0x128(%ebp)
    4cad:	01 00 00 
    4cb0:	77 36                	ja     4ce8 <remote_nic_get_device_info+0xa8>
    4cb2:	8b 85 d4 fe ff ff    	mov    -0x12c(%ebp),%eax
    4cb8:	c7 44 24 04 fd ff ff 	movl   $0xfffffffd,0x4(%esp)
    4cbf:	ff 
    4cc0:	89 04 24             	mov    %eax,(%esp)
    4cc3:	e8 08 5c 01 00       	call   1a8d0 <async_answer_0>
    4cc8:	8b 45 10             	mov    0x10(%ebp),%eax
    4ccb:	c7 44 24 04 fd ff ff 	movl   $0xfffffffd,0x4(%esp)
    4cd2:	ff 
    4cd3:	89 04 24             	mov    %eax,(%esp)
    4cd6:	e8 f5 5b 01 00       	call   1a8d0 <async_answer_0>
    4cdb:	81 c4 40 01 00 00    	add    $0x140,%esp
    4ce1:	5b                   	pop    %ebx
    4ce2:	5e                   	pop    %esi
    4ce3:	5d                   	pop    %ebp
    4ce4:	c3                   	ret    
    4ce5:	8d 76 00             	lea    0x0(%esi),%esi
    4ce8:	8b 85 d4 fe ff ff    	mov    -0x12c(%ebp),%eax
    4cee:	c7 44 24 08 1c 01 00 	movl   $0x11c,0x8(%esp)
    4cf5:	00 
    4cf6:	89 74 24 04          	mov    %esi,0x4(%esp)
    4cfa:	89 04 24             	mov    %eax,(%esp)
    4cfd:	e8 9e 71 01 00       	call   1bea0 <async_data_read_finalize>
    4d02:	8b 45 10             	mov    0x10(%ebp),%eax
    4d05:	89 5c 24 04          	mov    %ebx,0x4(%esp)
    4d09:	89 04 24             	mov    %eax,(%esp)
    4d0c:	e8 bf 5b 01 00       	call   1a8d0 <async_answer_0>
    4d11:	81 c4 40 01 00 00    	add    $0x140,%esp
    4d17:	5b                   	pop    %ebx
    4d18:	5e                   	pop    %esi
    4d19:	5d                   	pop    %ebp
    4d1a:	c3                   	ret    
    4d1b:	90                   	nop
    4d1c:	8d 74 26 00          	lea    0x0(%esi,%eiz,1),%esi
    4d20:	8b 85 d4 fe ff ff    	mov    -0x12c(%ebp),%eax
    4d26:	c7 44 24 04 f2 ff ff 	movl   $0xfffffff2,0x4(%esp)
    4d2d:	ff 
    4d2e:	89 04 24             	mov    %eax,(%esp)
    4d31:	e8 9a 5b 01 00       	call   1a8d0 <async_answer_0>
    4d36:	8b 45 10             	mov    0x10(%ebp),%eax
    4d39:	c7 44 24 04 f2 ff ff 	movl   $0xfffffff2,0x4(%esp)
    4d40:	ff 
    4d41:	89 04 24             	mov    %eax,(%esp)
    4d44:	e8 87 5b 01 00       	call   1a8d0 <async_answer_0>
    4d49:	81 c4 40 01 00 00    	add    $0x140,%esp
    4d4f:	5b                   	pop    %ebx
    4d50:	5e                   	pop    %esi
    4d51:	5d                   	pop    %ebp
    4d52:	c3                   	ret    
    4d53:	90                   	nop
    4d54:	8d 74 26 00          	lea    0x0(%esi,%eiz,1),%esi
    4d58:	8b 45 10             	mov    0x10(%ebp),%eax
    4d5b:	c7 44 24 04 f5 ff ff 	movl   $0xfffffff5,0x4(%esp)
    4d62:	ff 
    4d63:	89 04 24             	mov    %eax,(%esp)
    4d66:	e8 65 5b 01 00       	call   1a8d0 <async_answer_0>
    4d6b:	81 c4 40 01 00 00    	add    $0x140,%esp
    4d71:	5b                   	pop    %ebx
    4d72:	5e                   	pop    %esi
    4d73:	5d                   	pop    %ebp
    4d74:	c3                   	ret    
    4d75:	8d 74 26 00          	lea    0x0(%esi,%eiz,1),%esi
    4d79:	8d bc 27 00 00 00 00 	lea    0x0(%edi,%eiz,1),%edi

00004d80 <remote_nic_get_stats>:
    4d80:	55                   	push   %ebp
    4d81:	89 e5                	mov    %esp,%ebp
    4d83:	56                   	push   %esi
    4d84:	53                   	push   %ebx
    4d85:	81 ec 90 00 00 00    	sub    $0x90,%esp
    4d8b:	8b 5d 0c             	mov    0xc(%ebp),%ebx
    4d8e:	8b 43 18             	mov    0x18(%ebx),%eax
    4d91:	85 c0                	test   %eax,%eax
    4d93:	0f 84 df 00 00 00    	je     4e78 <remote_nic_get_stats+0xf8>
    4d99:	8d 75 8c             	lea    -0x74(%ebp),%esi
    4d9c:	c7 44 24 08 6c 00 00 	movl   $0x6c,0x8(%esp)
    4da3:	00 
    4da4:	c7 44 24 04 00 00 00 	movl   $0x0,0x4(%esp)
    4dab:	00 
    4dac:	89 34 24             	mov    %esi,(%esp)
    4daf:	e8 2c 57 00 00       	call   a4e0 <memset>
    4db4:	8b 45 08             	mov    0x8(%ebp),%eax
    4db7:	89 74 24 04          	mov    %esi,0x4(%esp)
    4dbb:	89 04 24             	mov    %eax,(%esp)
    4dbe:	ff 53 18             	call   *0x18(%ebx)
    4dc1:	89 c3                	mov    %eax,%ebx
    4dc3:	85 c0                	test   %eax,%eax
    4dc5:	75 68                	jne    4e2f <remote_nic_get_stats+0xaf>
    4dc7:	8d 45 88             	lea    -0x78(%ebp),%eax
    4dca:	89 44 24 04          	mov    %eax,0x4(%esp)
    4dce:	8d 45 84             	lea    -0x7c(%ebp),%eax
    4dd1:	89 04 24             	mov    %eax,(%esp)
    4dd4:	e8 67 70 01 00       	call   1be40 <async_data_read_receive>
    4dd9:	84 c0                	test   %al,%al
    4ddb:	74 6b                	je     4e48 <remote_nic_get_stats+0xc8>
    4ddd:	83 7d 88 6b          	cmpl   $0x6b,-0x78(%ebp)
    4de1:	77 35                	ja     4e18 <remote_nic_get_stats+0x98>
    4de3:	8b 45 84             	mov    -0x7c(%ebp),%eax
    4de6:	c7 44 24 04 fd ff ff 	movl   $0xfffffffd,0x4(%esp)
    4ded:	ff 
    4dee:	89 04 24             	mov    %eax,(%esp)
    4df1:	e8 da 5a 01 00       	call   1a8d0 <async_answer_0>
    4df6:	8b 45 10             	mov    0x10(%ebp),%eax
    4df9:	c7 44 24 04 fd ff ff 	movl   $0xfffffffd,0x4(%esp)
    4e00:	ff 
    4e01:	89 04 24             	mov    %eax,(%esp)
    4e04:	e8 c7 5a 01 00       	call   1a8d0 <async_answer_0>
    4e09:	81 c4 90 00 00 00    	add    $0x90,%esp
    4e0f:	5b                   	pop    %ebx
    4e10:	5e                   	pop    %esi
    4e11:	5d                   	pop    %ebp
    4e12:	c3                   	ret    
    4e13:	90                   	nop
    4e14:	8d 74 26 00          	lea    0x0(%esi,%eiz,1),%esi
    4e18:	8b 45 84             	mov    -0x7c(%ebp),%eax
    4e1b:	c7 44 24 08 6c 00 00 	movl   $0x6c,0x8(%esp)
    4e22:	00 
    4e23:	89 74 24 04          	mov    %esi,0x4(%esp)
    4e27:	89 04 24             	mov    %eax,(%esp)
    4e2a:	e8 71 70 01 00       	call   1bea0 <async_data_read_finalize>
    4e2f:	8b 45 10             	mov    0x10(%ebp),%eax
    4e32:	89 5c 24 04          	mov    %ebx,0x4(%esp)
    4e36:	89 04 24             	mov    %eax,(%esp)
    4e39:	e8 92 5a 01 00       	call   1a8d0 <async_answer_0>
    4e3e:	81 c4 90 00 00 00    	add    $0x90,%esp
