
usbmast:     file format elf32-i386


Disassembly of section .init:

00001094 <__entry>:
    1094:	66 8c d0             	mov    %ss,%ax
    1097:	8e d8                	mov    %eax,%ds
    1099:	8e c0                	mov    %eax,%es
    109b:	8e e0                	mov    %eax,%fs
    109d:	b8 01 00 00 00       	mov    $0x1,%eax
    10a2:	0f a2                	cpuid  
    10a4:	0f ba e2 0b          	bt     $0xb,%edx
    10a8:	73 0c                	jae    10b6 <__entry+0x22>
    10aa:	8d 05 f0 01 03 00    	lea    0x301f0,%eax
    10b0:	c7 00 b7 7a 02 00    	movl   $0x27ab7,(%eax)
    10b6:	6a 00                	push   $0x0
    10b8:	89 e5                	mov    %esp,%ebp
    10ba:	57                   	push   %edi
    10bb:	e8 a0 c2 00 00       	call   d360 <__main>

Disassembly of section .text:

000010c0 <usb_massstor_cmd>:
    10c0:	55                   	push   %ebp
    10c1:	89 e5                	mov    %esp,%ebp
    10c3:	57                   	push   %edi
    10c4:	56                   	push   %esi
    10c5:	53                   	push   %ebx
    10c6:	81 ec 8c 00 00 00    	sub    $0x8c,%esp
    10cc:	8b 55 08             	mov    0x8(%ebp),%edx
    10cf:	8b 5d 10             	mov    0x10(%ebp),%ebx
    10d2:	8b 02                	mov    (%edx),%eax
    10d4:	8b 73 08             	mov    0x8(%ebx),%esi
    10d7:	8b 40 04             	mov    0x4(%eax),%eax
    10da:	8b 40 3c             	mov    0x3c(%eax),%eax
    10dd:	89 45 a4             	mov    %eax,-0x5c(%ebp)
    10e0:	83 c0 30             	add    $0x30,%eax
    10e3:	89 45 98             	mov    %eax,-0x68(%ebp)
    10e6:	85 f6                	test   %esi,%esi
    10e8:	74 2e                	je     1118 <usb_massstor_cmd+0x58>
    10ea:	8b 43 10             	mov    0x10(%ebx),%eax
    10ed:	85 c0                	test   %eax,%eax
    10ef:	0f 84 6b 04 00 00    	je     1560 <usb_massstor_cmd+0x4a0>
    10f5:	c7 44 24 08 54 00 00 	movl   $0x54,0x8(%esp)
    10fc:	00 
    10fd:	c7 44 24 04 82 c0 02 	movl   $0x2c082,0x4(%esp)
    1104:	00 
    1105:	c7 04 24 d6 cb 02 00 	movl   $0x2cbd6,(%esp)
    110c:	e8 4f 67 02 00       	call   27860 <assert_abort>
    1111:	8d b4 26 00 00 00 00 	lea    0x0(%esi,%eiz,1),%esi
    1118:	8b 73 10             	mov    0x10(%ebx),%esi
    111b:	85 f6                	test   %esi,%esi
    111d:	74 d6                	je     10f5 <usb_massstor_cmd+0x35>
    111f:	8b 53 14             	mov    0x14(%ebx),%edx
    1122:	c7 45 9c 00 00 00 00 	movl   $0x0,-0x64(%ebp)
    1129:	89 55 a0             	mov    %edx,-0x60(%ebp)
    112c:	8b 03                	mov    (%ebx),%eax
    112e:	8b 4d 08             	mov    0x8(%ebp),%ecx
    1131:	89 44 24 18          	mov    %eax,0x18(%esp)
    1135:	31 c0                	xor    %eax,%eax
    1137:	8a 43 04             	mov    0x4(%ebx),%al
    113a:	8b 55 9c             	mov    -0x64(%ebp),%edx
    113d:	89 44 24 14          	mov    %eax,0x14(%esp)
    1141:	31 c0                	xor    %eax,%eax
    1143:	8a 41 08             	mov    0x8(%ecx),%al
    1146:	8d 7d c9             	lea    -0x37(%ebp),%edi
    1149:	89 54 24 0c          	mov    %edx,0xc(%esp)
    114d:	8b 4d a0             	mov    -0x60(%ebp),%ecx
    1150:	8b 55 0c             	mov    0xc(%ebp),%edx
    1153:	89 44 24 10          	mov    %eax,0x10(%esp)
    1157:	89 4c 24 08          	mov    %ecx,0x8(%esp)
    115b:	89 54 24 04          	mov    %edx,0x4(%esp)
    115f:	89 3c 24             	mov    %edi,(%esp)
    1162:	e8 c9 06 00 00       	call   1830 <usb_massstor_cbw_prepare>
    1167:	80 3d 64 02 03 00 00 	cmpb   $0x0,0x30264
    116e:	0f 85 04 02 00 00    	jne    1378 <usb_massstor_cmd+0x2b8>
    1174:	8b 4d 98             	mov    -0x68(%ebp),%ecx
    1177:	c7 44 24 08 1f 00 00 	movl   $0x1f,0x8(%esp)
    117e:	00 
    117f:	89 7c 24 04          	mov    %edi,0x4(%esp)
    1183:	89 0c 24             	mov    %ecx,(%esp)
    1186:	e8 b5 27 00 00       	call   3940 <usb_pipe_write>
    118b:	80 3d 64 02 03 00 00 	cmpb   $0x0,0x30264
    1192:	89 c2                	mov    %eax,%edx
    1194:	0f 85 86 01 00 00    	jne    1320 <usb_massstor_cmd+0x260>
    119a:	85 d2                	test   %edx,%edx
    119c:	0f 85 a6 00 00 00    	jne    1248 <usb_massstor_cmd+0x188>
    11a2:	80 3d 64 02 03 00 00 	cmpb   $0x0,0x30264
    11a9:	0f 85 f1 01 00 00    	jne    13a0 <usb_massstor_cmd+0x2e0>
    11af:	8b 7d 9c             	mov    -0x64(%ebp),%edi
    11b2:	85 ff                	test   %edi,%edi
    11b4:	0f 85 9e 00 00 00    	jne    1258 <usb_massstor_cmd+0x198>
    11ba:	8d 45 b4             	lea    -0x4c(%ebp),%eax
    11bd:	8b 55 a0             	mov    -0x60(%ebp),%edx
    11c0:	8b 4d a4             	mov    -0x5c(%ebp),%ecx
    11c3:	89 44 24 0c          	mov    %eax,0xc(%esp)
    11c7:	89 54 24 08          	mov    %edx,0x8(%esp)
    11cb:	89 74 24 04          	mov    %esi,0x4(%esp)
    11cf:	89 0c 24             	mov    %ecx,(%esp)
    11d2:	e8 59 26 00 00       	call   3830 <usb_pipe_read>
    11d7:	80 3d 64 02 03 00 00 	cmpb   $0x0,0x30264
    11de:	89 c7                	mov    %eax,%edi
    11e0:	0f 85 6a 02 00 00    	jne    1450 <usb_massstor_cmd+0x390>
    11e6:	81 ff d3 fe ff ff    	cmp    $0xfffffed3,%edi
    11ec:	0f 84 0d 03 00 00    	je     14ff <usb_massstor_cmd+0x43f>
    11f2:	85 ff                	test   %edi,%edi
    11f4:	75 52                	jne    1248 <usb_massstor_cmd+0x188>
    11f6:	80 3d 64 02 03 00 00 	cmpb   $0x0,0x30264
    11fd:	0f 85 b5 00 00 00    	jne    12b8 <usb_massstor_cmd+0x1f8>
    1203:	8d 45 b8             	lea    -0x48(%ebp),%eax
    1206:	8b 55 a4             	mov    -0x5c(%ebp),%edx
    1209:	8d 75 bc             	lea    -0x44(%ebp),%esi
    120c:	89 44 24 0c          	mov    %eax,0xc(%esp)
    1210:	c7 44 24 08 0d 00 00 	movl   $0xd,0x8(%esp)
    1217:	00 
    1218:	89 74 24 04          	mov    %esi,0x4(%esp)
    121c:	89 14 24             	mov    %edx,(%esp)
    121f:	e8 0c 26 00 00       	call   3830 <usb_pipe_read>
    1224:	80 3d 64 02 03 00 00 	cmpb   $0x0,0x30264
    122b:	89 c7                	mov    %eax,%edi
    122d:	0f 85 95 01 00 00    	jne    13c8 <usb_massstor_cmd+0x308>
    1233:	85 ff                	test   %edi,%edi
    1235:	0f 84 a5 00 00 00    	je     12e0 <usb_massstor_cmd+0x220>
    123b:	80 3d 64 02 03 00 00 	cmpb   $0x0,0x30264
    1242:	0f 85 d8 01 00 00    	jne    1420 <usb_massstor_cmd+0x360>
    1248:	b8 f7 fe ff ff       	mov    $0xfffffef7,%eax
    124d:	81 c4 8c 00 00 00    	add    $0x8c,%esp
    1253:	5b                   	pop    %ebx
    1254:	5e                   	pop    %esi
    1255:	5f                   	pop    %edi
    1256:	5d                   	pop    %ebp
    1257:	c3                   	ret    
    1258:	8b 55 a0             	mov    -0x60(%ebp),%edx
    125b:	8b 4d 98             	mov    -0x68(%ebp),%ecx
    125e:	89 54 24 08          	mov    %edx,0x8(%esp)
    1262:	89 74 24 04          	mov    %esi,0x4(%esp)
    1266:	89 0c 24             	mov    %ecx,(%esp)
    1269:	e8 d2 26 00 00       	call   3940 <usb_pipe_write>
    126e:	80 3d 64 02 03 00 00 	cmpb   $0x0,0x30264
    1275:	89 c7                	mov    %eax,%edi
    1277:	0f 85 2b 02 00 00    	jne    14a8 <usb_massstor_cmd+0x3e8>
    127d:	81 ff d3 fe ff ff    	cmp    $0xfffffed3,%edi
    1283:	0f 85 69 ff ff ff    	jne    11f2 <usb_massstor_cmd+0x132>
    1289:	8b 4d 08             	mov    0x8(%ebp),%ecx
    128c:	8b 01                	mov    (%ecx),%eax
    128e:	8b 40 04             	mov    0x4(%eax),%eax
    1291:	8b 50 3c             	mov    0x3c(%eax),%edx
    1294:	83 c0 24             	add    $0x24,%eax
    1297:	83 c2 30             	add    $0x30,%edx
    129a:	89 04 24             	mov    %eax,(%esp)
    129d:	89 54 24 04          	mov    %edx,0x4(%esp)
    12a1:	e8 0a 3c 00 00       	call   4eb0 <usb_pipe_clear_halt>
    12a6:	80 3d 64 02 03 00 00 	cmpb   $0x0,0x30264
    12ad:	0f 84 50 ff ff ff    	je     1203 <usb_massstor_cmd+0x143>
    12b3:	90                   	nop
    12b4:	8d 74 26 00          	lea    0x0(%esi,%eiz,1),%esi
    12b8:	c7 44 24 08 e1 c0 02 	movl   $0x2c0e1,0x8(%esp)
    12bf:	00 
    12c0:	c7 44 24 04 05 00 00 	movl   $0x5,0x4(%esp)
    12c7:	00 
    12c8:	c7 04 24 ff ff ff ff 	movl   $0xffffffff,(%esp)
    12cf:	e8 8c 6c 01 00       	call   17f60 <log_msg>
    12d4:	e9 2a ff ff ff       	jmp    1203 <usb_massstor_cmd+0x143>
    12d9:	8d b4 26 00 00 00 00 	lea    0x0(%esi,%eiz,1),%esi
    12e0:	83 7d b8 0d          	cmpl   $0xd,-0x48(%ebp)
    12e4:	0f 84 36 02 00 00    	je     1520 <usb_massstor_cmd+0x460>
    12ea:	80 3d 64 02 03 00 00 	cmpb   $0x0,0x30264
    12f1:	0f 84 51 ff ff ff    	je     1248 <usb_massstor_cmd+0x188>
    12f7:	c7 44 24 08 dc c1 02 	movl   $0x2c1dc,0x8(%esp)
    12fe:	00 
    12ff:	c7 44 24 04 05 00 00 	movl   $0x5,0x4(%esp)
    1306:	00 
    1307:	c7 04 24 ff ff ff ff 	movl   $0xffffffff,(%esp)
    130e:	e8 4d 6c 01 00       	call   17f60 <log_msg>
    1313:	b8 f7 fe ff ff       	mov    $0xfffffef7,%eax
    1318:	e9 30 ff ff ff       	jmp    124d <usb_massstor_cmd+0x18d>
    131d:	8d 76 00             	lea    0x0(%esi),%esi
    1320:	89 04 24             	mov    %eax,(%esp)
    1323:	89 45 94             	mov    %eax,-0x6c(%ebp)
    1326:	e8 65 1f 01 00       	call   13290 <str_error>
    132b:	c7 44 24 08 00 00 00 	movl   $0x0,0x8(%esp)
    1332:	00 
    1333:	c7 44 24 04 1f 00 00 	movl   $0x1f,0x4(%esp)
    133a:	00 
    133b:	89 3c 24             	mov    %edi,(%esp)
    133e:	89 45 90             	mov    %eax,-0x70(%ebp)
    1341:	e8 da 51 00 00       	call   6520 <usb_debug_str_buffer>
    1346:	8b 4d 90             	mov    -0x70(%ebp),%ecx
    1349:	89 44 24 0c          	mov    %eax,0xc(%esp)
    134d:	89 4c 24 10          	mov    %ecx,0x10(%esp)
    1351:	c7 44 24 08 a5 c0 02 	movl   $0x2c0a5,0x8(%esp)
    1358:	00 
    1359:	c7 44 24 04 05 00 00 	movl   $0x5,0x4(%esp)
    1360:	00 
    1361:	c7 04 24 ff ff ff ff 	movl   $0xffffffff,(%esp)
    1368:	e8 f3 6b 01 00       	call   17f60 <log_msg>
    136d:	8b 55 94             	mov    -0x6c(%ebp),%edx
    1370:	e9 25 fe ff ff       	jmp    119a <usb_massstor_cmd+0xda>
    1375:	8d 76 00             	lea    0x0(%esi),%esi
    1378:	c7 44 24 08 8d c0 02 	movl   $0x2c08d,0x8(%esp)
    137f:	00 
    1380:	c7 44 24 04 05 00 00 	movl   $0x5,0x4(%esp)
    1387:	00 
    1388:	c7 04 24 ff ff ff ff 	movl   $0xffffffff,(%esp)
    138f:	e8 cc 6b 01 00       	call   17f60 <log_msg>
    1394:	e9 db fd ff ff       	jmp    1174 <usb_massstor_cmd+0xb4>
    1399:	8d b4 26 00 00 00 00 	lea    0x0(%esi,%eiz,1),%esi
    13a0:	c7 44 24 08 c3 c0 02 	movl   $0x2c0c3,0x8(%esp)
    13a7:	00 
    13a8:	c7 44 24 04 05 00 00 	movl   $0x5,0x4(%esp)
    13af:	00 
    13b0:	c7 04 24 ff ff ff ff 	movl   $0xffffffff,(%esp)
    13b7:	e8 a4 6b 01 00       	call   17f60 <log_msg>
    13bc:	e9 ee fd ff ff       	jmp    11af <usb_massstor_cmd+0xef>
    13c1:	8d b4 26 00 00 00 00 	lea    0x0(%esi,%eiz,1),%esi
    13c8:	89 04 24             	mov    %eax,(%esp)
    13cb:	e8 c0 1e 01 00       	call   13290 <str_error>
    13d0:	8b 55 b8             	mov    -0x48(%ebp),%edx
    13d3:	89 54 24 04          	mov    %edx,0x4(%esp)
    13d7:	c7 44 24 08 00 00 00 	movl   $0x0,0x8(%esp)
    13de:	00 
    13df:	89 34 24             	mov    %esi,(%esp)
    13e2:	89 55 94             	mov    %edx,-0x6c(%ebp)
    13e5:	89 45 90             	mov    %eax,-0x70(%ebp)
    13e8:	e8 33 51 00 00       	call   6520 <usb_debug_str_buffer>
    13ed:	8b 4d 90             	mov    -0x70(%ebp),%ecx
    13f0:	8b 55 94             	mov    -0x6c(%ebp),%edx
    13f3:	89 4c 24 14          	mov    %ecx,0x14(%esp)
    13f7:	89 54 24 10          	mov    %edx,0x10(%esp)
    13fb:	89 44 24 0c          	mov    %eax,0xc(%esp)
    13ff:	c7 44 24 08 ac c1 02 	movl   $0x2c1ac,0x8(%esp)
    1406:	00 
    1407:	c7 44 24 04 05 00 00 	movl   $0x5,0x4(%esp)
    140e:	00 
    140f:	c7 04 24 ff ff ff ff 	movl   $0xffffffff,(%esp)
    1416:	e8 45 6b 01 00       	call   17f60 <log_msg>
    141b:	e9 13 fe ff ff       	jmp    1233 <usb_massstor_cmd+0x173>
    1420:	c7 44 24 08 f9 c0 02 	movl   $0x2c0f9,0x8(%esp)
    1427:	00 
    1428:	c7 44 24 04 05 00 00 	movl   $0x5,0x4(%esp)
    142f:	00 
    1430:	c7 04 24 ff ff ff ff 	movl   $0xffffffff,(%esp)
    1437:	e8 24 6b 01 00       	call   17f60 <log_msg>
    143c:	81 c4 8c 00 00 00    	add    $0x8c,%esp
    1442:	b8 f7 fe ff ff       	mov    $0xfffffef7,%eax
    1447:	5b                   	pop    %ebx
    1448:	5e                   	pop    %esi
    1449:	5f                   	pop    %edi
    144a:	5d                   	pop    %ebp
    144b:	c3                   	ret    
    144c:	8d 74 26 00          	lea    0x0(%esi,%eiz,1),%esi
    1450:	89 04 24             	mov    %eax,(%esp)
    1453:	e8 38 1e 01 00       	call   13290 <str_error>
    1458:	c7 44 24 08 00 00 00 	movl   $0x0,0x8(%esp)
    145f:	00 
    1460:	89 c2                	mov    %eax,%edx
    1462:	8b 45 b4             	mov    -0x4c(%ebp),%eax
    1465:	89 44 24 04          	mov    %eax,0x4(%esp)
    1469:	89 34 24             	mov    %esi,(%esp)
    146c:	89 55 94             	mov    %edx,-0x6c(%ebp)
    146f:	e8 ac 50 00 00       	call   6520 <usb_debug_str_buffer>
    1474:	8b 55 94             	mov    -0x6c(%ebp),%edx
    1477:	89 44 24 10          	mov    %eax,0x10(%esp)
    147b:	8b 45 b4             	mov    -0x4c(%ebp),%eax
    147e:	89 54 24 14          	mov    %edx,0x14(%esp)
    1482:	89 44 24 0c          	mov    %eax,0xc(%esp)
    1486:	c7 44 24 08 60 c1 02 	movl   $0x2c160,0x8(%esp)
    148d:	00 
    148e:	c7 44 24 04 05 00 00 	movl   $0x5,0x4(%esp)
    1495:	00 
    1496:	c7 04 24 ff ff ff ff 	movl   $0xffffffff,(%esp)
    149d:	e8 be 6a 01 00       	call   17f60 <log_msg>
    14a2:	e9 3f fd ff ff       	jmp    11e6 <usb_massstor_cmd+0x126>
    14a7:	90                   	nop
    14a8:	89 04 24             	mov    %eax,(%esp)
    14ab:	e8 e0 1d 01 00       	call   13290 <str_error>
    14b0:	c7 44 24 08 00 00 00 	movl   $0x0,0x8(%esp)
    14b7:	00 
    14b8:	89 c2                	mov    %eax,%edx
    14ba:	8b 45 b4             	mov    -0x4c(%ebp),%eax
    14bd:	89 44 24 04          	mov    %eax,0x4(%esp)
    14c1:	89 34 24             	mov    %esi,(%esp)
    14c4:	89 55 94             	mov    %edx,-0x6c(%ebp)
    14c7:	e8 54 50 00 00       	call   6520 <usb_debug_str_buffer>
    14cc:	8b 55 94             	mov    -0x6c(%ebp),%edx
    14cf:	89 44 24 10          	mov    %eax,0x10(%esp)
    14d3:	8b 45 b4             	mov    -0x4c(%ebp),%eax
    14d6:	89 54 24 14          	mov    %edx,0x14(%esp)
    14da:	89 44 24 0c          	mov    %eax,0xc(%esp)
    14de:	c7 44 24 08 88 c1 02 	movl   $0x2c188,0x8(%esp)
    14e5:	00 
    14e6:	c7 44 24 04 05 00 00 	movl   $0x5,0x4(%esp)
    14ed:	00 
    14ee:	c7 04 24 ff ff ff ff 	movl   $0xffffffff,(%esp)
    14f5:	e8 66 6a 01 00       	call   17f60 <log_msg>
    14fa:	e9 7e fd ff ff       	jmp    127d <usb_massstor_cmd+0x1bd>
    14ff:	8b 55 08             	mov    0x8(%ebp),%edx
    1502:	8b 02                	mov    (%edx),%eax
    1504:	8b 40 04             	mov    0x4(%eax),%eax
    1507:	8b 50 3c             	mov    0x3c(%eax),%edx
    150a:	83 c0 24             	add    $0x24,%eax
    150d:	89 54 24 04          	mov    %edx,0x4(%esp)
    1511:	89 04 24             	mov    %eax,(%esp)
    1514:	e8 97 39 00 00       	call   4eb0 <usb_pipe_clear_halt>
    1519:	e9 d8 fc ff ff       	jmp    11f6 <usb_massstor_cmd+0x136>
    151e:	66 90                	xchg   %ax,%ax
    1520:	8b 4d 0c             	mov    0xc(%ebp),%ecx
    1523:	39 4d c0             	cmp    %ecx,-0x40(%ebp)
    1526:	74 50                	je     1578 <usb_massstor_cmd+0x4b8>
    1528:	80 3d 64 02 03 00 00 	cmpb   $0x0,0x30264
    152f:	0f 84 13 fd ff ff    	je     1248 <usb_massstor_cmd+0x188>
    1535:	c7 44 24 08 0e c1 02 	movl   $0x2c10e,0x8(%esp)
    153c:	00 
    153d:	c7 44 24 04 05 00 00 	movl   $0x5,0x4(%esp)
    1544:	00 
    1545:	c7 04 24 ff ff ff ff 	movl   $0xffffffff,(%esp)
    154c:	e8 0f 6a 01 00       	call   17f60 <log_msg>
    1551:	b8 f7 fe ff ff       	mov    $0xfffffef7,%eax
    1556:	e9 f2 fc ff ff       	jmp    124d <usb_massstor_cmd+0x18d>
    155b:	90                   	nop
    155c:	8d 74 26 00          	lea    0x0(%esi,%eiz,1),%esi
    1560:	8b 4b 0c             	mov    0xc(%ebx),%ecx
    1563:	c7 45 9c 01 00 00 00 	movl   $0x1,-0x64(%ebp)
    156a:	89 4d a0             	mov    %ecx,-0x60(%ebp)
    156d:	e9 ba fb ff ff       	jmp    112c <usb_massstor_cmd+0x6c>
    1572:	8d b6 00 00 00 00    	lea    0x0(%esi),%esi
    1578:	8a 45 c8             	mov    -0x38(%ebp),%al
    157b:	3c 01                	cmp    $0x1,%al
    157d:	74 64                	je     15e3 <usb_massstor_cmd+0x523>
    157f:	73 57                	jae    15d8 <usb_massstor_cmd+0x518>
    1581:	c7 43 1c 00 00 00 00 	movl   $0x0,0x1c(%ebx)
    1588:	31 c0                	xor    %eax,%eax
    158a:	8b 55 c4             	mov    -0x3c(%ebp),%edx
    158d:	39 55 a0             	cmp    %edx,-0x60(%ebp)
    1590:	73 2e                	jae    15c0 <usb_massstor_cmd+0x500>
    1592:	80 3d 64 02 03 00 00 	cmpb   $0x0,0x30264
    1599:	0f 84 a9 fc ff ff    	je     1248 <usb_massstor_cmd+0x188>
    159f:	c7 44 24 08 00 c2 02 	movl   $0x2c200,0x8(%esp)
    15a6:	00 
    15a7:	c7 44 24 04 05 00 00 	movl   $0x5,0x4(%esp)
    15ae:	00 
    15af:	c7 04 24 ff ff ff ff 	movl   $0xffffffff,(%esp)
    15b6:	e8 a5 69 01 00       	call   17f60 <log_msg>
    15bb:	e9 88 fc ff ff       	jmp    1248 <usb_massstor_cmd+0x188>
    15c0:	8b 4d 9c             	mov    -0x64(%ebp),%ecx
    15c3:	85 c9                	test   %ecx,%ecx
    15c5:	0f 85 82 fc ff ff    	jne    124d <usb_massstor_cmd+0x18d>
    15cb:	8b 4d a0             	mov    -0x60(%ebp),%ecx
    15ce:	29 d1                	sub    %edx,%ecx
    15d0:	89 4b 18             	mov    %ecx,0x18(%ebx)
    15d3:	e9 75 fc ff ff       	jmp    124d <usb_massstor_cmd+0x18d>
    15d8:	3c 02                	cmp    $0x2,%al
    15da:	74 1b                	je     15f7 <usb_massstor_cmd+0x537>
    15dc:	b8 f7 fe ff ff       	mov    $0xfffffef7,%eax
    15e1:	eb a7                	jmp    158a <usb_massstor_cmd+0x4ca>
    15e3:	80 3d 64 02 03 00 00 	cmpb   $0x0,0x30264
    15ea:	75 40                	jne    162c <usb_massstor_cmd+0x56c>
    15ec:	c7 43 1c 01 00 00 00 	movl   $0x1,0x1c(%ebx)
    15f3:	31 c0                	xor    %eax,%eax
    15f5:	eb 93                	jmp    158a <usb_massstor_cmd+0x4ca>
    15f7:	b8 f7 fe ff ff       	mov    $0xfffffef7,%eax
    15fc:	80 3d 64 02 03 00 00 	cmpb   $0x0,0x30264
    1603:	74 85                	je     158a <usb_massstor_cmd+0x4ca>
    1605:	c7 44 24 08 46 c1 02 	movl   $0x2c146,0x8(%esp)
    160c:	00 
    160d:	c7 44 24 04 05 00 00 	movl   $0x5,0x4(%esp)
    1614:	00 
    1615:	c7 04 24 ff ff ff ff 	movl   $0xffffffff,(%esp)
    161c:	89 45 94             	mov    %eax,-0x6c(%ebp)
    161f:	e8 3c 69 01 00       	call   17f60 <log_msg>
    1624:	8b 45 94             	mov    -0x6c(%ebp),%eax
    1627:	e9 5e ff ff ff       	jmp    158a <usb_massstor_cmd+0x4ca>
    162c:	c7 44 24 08 2c c1 02 	movl   $0x2c12c,0x8(%esp)
    1633:	00 
    1634:	c7 44 24 04 05 00 00 	movl   $0x5,0x4(%esp)
    163b:	00 
    163c:	c7 04 24 ff ff ff ff 	movl   $0xffffffff,(%esp)
    1643:	e8 18 69 01 00       	call   17f60 <log_msg>
    1648:	eb a2                	jmp    15ec <usb_massstor_cmd+0x52c>
    164a:	8d b6 00 00 00 00    	lea    0x0(%esi),%esi

00001650 <usb_massstor_reset>:
    1650:	55                   	push   %ebp
    1651:	89 e5                	mov    %esp,%ebp
    1653:	83 ec 28             	sub    $0x28,%esp
    1656:	8b 45 08             	mov    0x8(%ebp),%eax
    1659:	8b 40 04             	mov    0x4(%eax),%eax
    165c:	c7 44 24 1c 00 00 00 	movl   $0x0,0x1c(%esp)
    1663:	00 
    1664:	c7 44 24 18 00 00 00 	movl   $0x0,0x18(%esp)
    166b:	00 
    166c:	0f b7 50 44          	movzwl 0x44(%eax),%edx
    1670:	83 c0 24             	add    $0x24,%eax
    1673:	89 54 24 14          	mov    %edx,0x14(%esp)
    1677:	c7 44 24 10 00 00 00 	movl   $0x0,0x10(%esp)
    167e:	00 
    167f:	c7 44 24 0c ff 00 00 	movl   $0xff,0xc(%esp)
    1686:	00 
    1687:	c7 44 24 08 01 00 00 	movl   $0x1,0x8(%esp)
    168e:	00 
    168f:	c7 44 24 04 01 00 00 	movl   $0x1,0x4(%esp)
    1696:	00 
    1697:	89 04 24             	mov    %eax,(%esp)
    169a:	e8 b1 29 00 00       	call   4050 <usb_control_request_set>
    169f:	c9                   	leave  
    16a0:	c3                   	ret    
    16a1:	eb 0d                	jmp    16b0 <usb_massstor_reset_recovery>
    16a3:	90                   	nop
    16a4:	90                   	nop
    16a5:	90                   	nop
    16a6:	90                   	nop
    16a7:	90                   	nop
    16a8:	90                   	nop
    16a9:	90                   	nop
    16aa:	90                   	nop
    16ab:	90                   	nop
    16ac:	90                   	nop
    16ad:	90                   	nop
    16ae:	90                   	nop
    16af:	90                   	nop

000016b0 <usb_massstor_reset_recovery>:
    16b0:	55                   	push   %ebp
    16b1:	89 e5                	mov    %esp,%ebp
    16b3:	53                   	push   %ebx
    16b4:	83 ec 24             	sub    $0x24,%esp
    16b7:	8b 5d 08             	mov    0x8(%ebp),%ebx
    16ba:	8b 43 04             	mov    0x4(%ebx),%eax
    16bd:	c7 44 24 1c 00 00 00 	movl   $0x0,0x1c(%esp)
    16c4:	00 
    16c5:	c7 44 24 18 00 00 00 	movl   $0x0,0x18(%esp)
    16cc:	00 
    16cd:	0f b7 50 44          	movzwl 0x44(%eax),%edx
    16d1:	83 c0 24             	add    $0x24,%eax
    16d4:	89 54 24 14          	mov    %edx,0x14(%esp)
    16d8:	c7 44 24 10 00 00 00 	movl   $0x0,0x10(%esp)
    16df:	00 
    16e0:	c7 44 24 0c ff 00 00 	movl   $0xff,0xc(%esp)
    16e7:	00 
    16e8:	c7 44 24 08 01 00 00 	movl   $0x1,0x8(%esp)
    16ef:	00 
    16f0:	c7 44 24 04 01 00 00 	movl   $0x1,0x4(%esp)
    16f7:	00 
    16f8:	89 04 24             	mov    %eax,(%esp)
    16fb:	e8 50 29 00 00       	call   4050 <usb_control_request_set>
    1700:	8b 43 04             	mov    0x4(%ebx),%eax
    1703:	8b 50 3c             	mov    0x3c(%eax),%edx
    1706:	83 c0 24             	add    $0x24,%eax
    1709:	89 54 24 04          	mov    %edx,0x4(%esp)
    170d:	89 04 24             	mov    %eax,(%esp)
    1710:	e8 9b 37 00 00       	call   4eb0 <usb_pipe_clear_halt>
    1715:	8b 43 04             	mov    0x4(%ebx),%eax
    1718:	8b 50 3c             	mov    0x3c(%eax),%edx
    171b:	83 c0 24             	add    $0x24,%eax
    171e:	83 c2 30             	add    $0x30,%edx
    1721:	89 04 24             	mov    %eax,(%esp)
    1724:	89 54 24 04          	mov    %edx,0x4(%esp)
    1728:	e8 83 37 00 00       	call   4eb0 <usb_pipe_clear_halt>
    172d:	83 c4 24             	add    $0x24,%esp
    1730:	5b                   	pop    %ebx
    1731:	5d                   	pop    %ebp
    1732:	c3                   	ret    
    1733:	8d b6 00 00 00 00    	lea    0x0(%esi),%esi
    1739:	8d bc 27 00 00 00 00 	lea    0x0(%edi,%eiz,1),%edi

00001740 <usb_massstor_get_max_lun>:
    1740:	55                   	push   %ebp
    1741:	89 e5                	mov    %esp,%ebp
    1743:	83 ec 48             	sub    $0x48,%esp
    1746:	8b 45 08             	mov    0x8(%ebp),%eax
    1749:	8d 55 f4             	lea    -0xc(%ebp),%edx
    174c:	8b 40 04             	mov    0x4(%eax),%eax
    174f:	89 54 24 20          	mov    %edx,0x20(%esp)
    1753:	8d 55 f0             	lea    -0x10(%ebp),%edx
    1756:	c7 44 24 1c 01 00 00 	movl   $0x1,0x1c(%esp)
    175d:	00 
    175e:	89 54 24 18          	mov    %edx,0x18(%esp)
    1762:	0f b7 50 44          	movzwl 0x44(%eax),%edx
    1766:	83 c0 24             	add    $0x24,%eax
    1769:	89 54 24 14          	mov    %edx,0x14(%esp)
    176d:	c7 44 24 10 00 00 00 	movl   $0x0,0x10(%esp)
    1774:	00 
    1775:	c7 44 24 0c fe 00 00 	movl   $0xfe,0xc(%esp)
    177c:	00 
    177d:	c7 44 24 08 01 00 00 	movl   $0x1,0x8(%esp)
    1784:	00 
    1785:	c7 44 24 04 01 00 00 	movl   $0x1,0x4(%esp)
    178c:	00 
    178d:	89 04 24             	mov    %eax,(%esp)
    1790:	e8 4b 29 00 00       	call   40e0 <usb_control_request_get>
    1795:	85 c0                	test   %eax,%eax
    1797:	75 0b                	jne    17a4 <usb_massstor_get_max_lun+0x64>
    1799:	83 7d f4 01          	cmpl   $0x1,-0xc(%ebp)
    179d:	75 09                	jne    17a8 <usb_massstor_get_max_lun+0x68>
    179f:	31 c0                	xor    %eax,%eax
    17a1:	8a 45 f0             	mov    -0x10(%ebp),%al
    17a4:	c9                   	leave  
    17a5:	c3                   	ret    
    17a6:	66 90                	xchg   %ax,%ax
    17a8:	b8 d2 fe ff ff       	mov    $0xfffffed2,%eax
    17ad:	c9                   	leave  
    17ae:	c3                   	ret    
    17af:	90                   	nop

000017b0 <usb_masstor_get_lun_count>:
    17b0:	55                   	push   %ebp
    17b1:	89 e5                	mov    %esp,%ebp
    17b3:	83 ec 48             	sub    $0x48,%esp
    17b6:	8b 45 08             	mov    0x8(%ebp),%eax
    17b9:	8d 55 f4             	lea    -0xc(%ebp),%edx
    17bc:	8b 40 04             	mov    0x4(%eax),%eax
    17bf:	89 54 24 20          	mov    %edx,0x20(%esp)
    17c3:	8d 55 f0             	lea    -0x10(%ebp),%edx
    17c6:	c7 44 24 1c 01 00 00 	movl   $0x1,0x1c(%esp)
    17cd:	00 
    17ce:	89 54 24 18          	mov    %edx,0x18(%esp)
    17d2:	0f b7 50 44          	movzwl 0x44(%eax),%edx
    17d6:	83 c0 24             	add    $0x24,%eax
    17d9:	89 54 24 14          	mov    %edx,0x14(%esp)
    17dd:	c7 44 24 10 00 00 00 	movl   $0x0,0x10(%esp)
    17e4:	00 
    17e5:	c7 44 24 0c fe 00 00 	movl   $0xfe,0xc(%esp)
    17ec:	00 
    17ed:	c7 44 24 08 01 00 00 	movl   $0x1,0x8(%esp)
    17f4:	00 
    17f5:	c7 44 24 04 01 00 00 	movl   $0x1,0x4(%esp)
    17fc:	00 
    17fd:	89 04 24             	mov    %eax,(%esp)
    1800:	e8 db 28 00 00       	call   40e0 <usb_control_request_get>
    1805:	83 f8 00             	cmp    $0x0,%eax
    1808:	75 0e                	jne    1818 <usb_masstor_get_lun_count+0x68>
    180a:	83 7d f4 01          	cmpl   $0x1,-0xc(%ebp)
    180e:	75 0a                	jne    181a <usb_masstor_get_lun_count+0x6a>
    1810:	31 c0                	xor    %eax,%eax
    1812:	8a 45 f0             	mov    -0x10(%ebp),%al
    1815:	40                   	inc    %eax
    1816:	c9                   	leave  
    1817:	c3                   	ret    
    1818:	7d fb                	jge    1815 <usb_masstor_get_lun_count+0x65>
    181a:	b8 01 00 00 00       	mov    $0x1,%eax
    181f:	c9                   	leave  
    1820:	c3                   	ret    
    1821:	66 90                	xchg   %ax,%ax
    1823:	66 90                	xchg   %ax,%ax
    1825:	66 90                	xchg   %ax,%ax
    1827:	66 90                	xchg   %ax,%ax
    1829:	66 90                	xchg   %ax,%ax
    182b:	66 90                	xchg   %ax,%ax
    182d:	66 90                	xchg   %ax,%ax
    182f:	90                   	nop

00001830 <usb_massstor_cbw_prepare>:
    1830:	55                   	push   %ebp
    1831:	89 e5                	mov    %esp,%ebp
    1833:	53                   	push   %ebx
    1834:	8b 45 08             	mov    0x8(%ebp),%eax
    1837:	8b 5d 0c             	mov    0xc(%ebp),%ebx
    183a:	83 7d 14 01          	cmpl   $0x1,0x14(%ebp)
    183e:	89 58 04             	mov    %ebx,0x4(%eax)
    1841:	8a 55 1c             	mov    0x1c(%ebp),%dl
    1844:	8b 5d 10             	mov    0x10(%ebp),%ebx
    1847:	8a 4d 18             	mov    0x18(%ebp),%cl
    184a:	89 58 08             	mov    %ebx,0x8(%eax)
    184d:	c7 00 55 53 42 43    	movl   $0x43425355,(%eax)
    1853:	19 db                	sbb    %ebx,%ebx
    1855:	83 e2 1f             	and    $0x1f,%edx
    1858:	88 50 0e             	mov    %dl,0xe(%eax)
    185b:	83 e3 80             	and    $0xffffff80,%ebx
    185e:	81 e2 ff 00 00 00    	and    $0xff,%edx
    1864:	83 e1 0f             	and    $0xf,%ecx
    1867:	88 58 0c             	mov    %bl,0xc(%eax)
    186a:	88 48 0d             	mov    %cl,0xd(%eax)
    186d:	89 55 10             	mov    %edx,0x10(%ebp)
    1870:	83 c0 0f             	add    $0xf,%eax
    1873:	8b 55 20             	mov    0x20(%ebp),%edx
    1876:	89 45 08             	mov    %eax,0x8(%ebp)
    1879:	89 55 0c             	mov    %edx,0xc(%ebp)
    187c:	5b                   	pop    %ebx
    187d:	5d                   	pop    %ebp
    187e:	e9 1d e3 00 00       	jmp    fba0 <memcpy>
    1883:	66 90                	xchg   %ax,%ax
    1885:	66 90                	xchg   %ax,%ax
    1887:	66 90                	xchg   %ax,%ax
    1889:	66 90                	xchg   %ax,%ax
    188b:	66 90                	xchg   %ax,%ax
    188d:	66 90                	xchg   %ax,%ax
    188f:	90                   	nop

00001890 <usbmast_device_remove>:
    1890:	55                   	push   %ebp
    1891:	b8 f5 ff ff ff       	mov    $0xfffffff5,%eax
    1896:	89 e5                	mov    %esp,%ebp
    1898:	5d                   	pop    %ebp
    1899:	c3                   	ret    
    189a:	8d b6 00 00 00 00    	lea    0x0(%esi),%esi

000018a0 <usbmast_bd_open>:
    18a0:	55                   	push   %ebp
    18a1:	31 c0                	xor    %eax,%eax
    18a3:	89 e5                	mov    %esp,%ebp
    18a5:	5d                   	pop    %ebp
    18a6:	c3                   	ret    
    18a7:	89 f6                	mov    %esi,%esi
    18a9:	8d bc 27 00 00 00 00 	lea    0x0(%edi,%eiz,1),%edi

000018b0 <usbmast_bd_close>:
    18b0:	55                   	push   %ebp
    18b1:	31 c0                	xor    %eax,%eax
    18b3:	89 e5                	mov    %esp,%ebp
    18b5:	5d                   	pop    %ebp
    18b6:	c3                   	ret    
    18b7:	89 f6                	mov    %esi,%esi
    18b9:	8d bc 27 00 00 00 00 	lea    0x0(%edi,%eiz,1),%edi

000018c0 <usbmast_bd_get_block_size>:
    18c0:	55                   	push   %ebp
    18c1:	89 e5                	mov    %esp,%ebp
    18c3:	8b 45 08             	mov    0x8(%ebp),%eax
    18c6:	8b 00                	mov    (%eax),%eax
    18c8:	8b 40 04             	mov    0x4(%eax),%eax
    18cb:	8b 50 14             	mov    0x14(%eax),%edx
    18ce:	8b 45 0c             	mov    0xc(%ebp),%eax
    18d1:	89 10                	mov    %edx,(%eax)
    18d3:	31 c0                	xor    %eax,%eax
    18d5:	5d                   	pop    %ebp
    18d6:	c3                   	ret    
    18d7:	89 f6                	mov    %esi,%esi
    18d9:	8d bc 27 00 00 00 00 	lea    0x0(%edi,%eiz,1),%edi

000018e0 <usbmast_bd_get_num_blocks>:
    18e0:	55                   	push   %ebp
    18e1:	89 e5                	mov    %esp,%ebp
    18e3:	8b 45 08             	mov    0x8(%ebp),%eax
    18e6:	8b 4d 0c             	mov    0xc(%ebp),%ecx
    18e9:	8b 00                	mov    (%eax),%eax
    18eb:	8b 40 04             	mov    0x4(%eax),%eax
    18ee:	8b 50 10             	mov    0x10(%eax),%edx
    18f1:	8b 40 0c             	mov    0xc(%eax),%eax
    18f4:	89 01                	mov    %eax,(%ecx)
    18f6:	89 51 04             	mov    %edx,0x4(%ecx)
    18f9:	31 c0                	xor    %eax,%eax
    18fb:	5d                   	pop    %ebp
    18fc:	c3                   	ret    
    18fd:	8d 76 00             	lea    0x0(%esi),%esi

00001900 <usbmast_device_add>:
    1900:	55                   	push   %ebp
    1901:	89 e5                	mov    %esp,%ebp
    1903:	57                   	push   %edi
    1904:	56                   	push   %esi
    1905:	53                   	push   %ebx
    1906:	83 ec 7c             	sub    $0x7c,%esp
    1909:	8b 5d 08             	mov    0x8(%ebp),%ebx
    190c:	c7 44 24 04 10 00 00 	movl   $0x10,0x4(%esp)
    1913:	00 
    1914:	89 1c 24             	mov    %ebx,(%esp)
    1917:	e8 e4 1a 00 00       	call   3400 <usb_device_data_alloc>
    191c:	89 c6                	mov    %eax,%esi
    191e:	85 c0                	test   %eax,%eax
    1920:	0f 84 cc 04 00 00    	je     1df2 <usbmast_device_add+0x4f2>
    1926:	8b 43 70             	mov    0x70(%ebx),%eax
    1929:	89 5e 04             	mov    %ebx,0x4(%esi)
    192c:	89 06                	mov    %eax,(%esi)
    192e:	89 04 24             	mov    %eax,(%esp)
    1931:	e8 7a 66 00 00       	call   7fb0 <ddf_dev_get_name>
    1936:	c7 44 24 08 b0 c2 02 	movl   $0x2c2b0,0x8(%esp)
    193d:	00 
    193e:	89 44 24 0c          	mov    %eax,0xc(%esp)
    1942:	c7 44 24 04 03 00 00 	movl   $0x3,0x4(%esp)
    1949:	00 
    194a:	c7 04 24 ff ff ff ff 	movl   $0xffffffff,(%esp)
    1951:	e8 0a 66 01 00       	call   17f60 <log_msg>
    1956:	8b 43 3c             	mov    0x3c(%ebx),%eax
    1959:	8b 50 10             	mov    0x10(%eax),%edx
    195c:	89 54 24 10          	mov    %edx,0x10(%esp)
    1960:	0f bf 40 04          	movswl 0x4(%eax),%eax
    1964:	c7 44 24 08 4b c2 02 	movl   $0x2c24b,0x8(%esp)
    196b:	00 
    196c:	89 44 24 0c          	mov    %eax,0xc(%esp)
    1970:	c7 44 24 04 04 00 00 	movl   $0x4,0x4(%esp)
    1977:	00 
    1978:	c7 04 24 ff ff ff ff 	movl   $0xffffffff,(%esp)
    197f:	e8 dc 65 01 00       	call   17f60 <log_msg>
    1984:	8b 43 3c             	mov    0x3c(%ebx),%eax
    1987:	8b 50 40             	mov    0x40(%eax),%edx
    198a:	89 54 24 10          	mov    %edx,0x10(%esp)
    198e:	0f bf 40 34          	movswl 0x34(%eax),%eax
    1992:	c7 44 24 08 d4 c2 02 	movl   $0x2c2d4,0x8(%esp)
    1999:	00 
    199a:	89 44 24 0c          	mov    %eax,0xc(%esp)
    199e:	c7 44 24 04 04 00 00 	movl   $0x4,0x4(%esp)
    19a5:	00 
    19a6:	c7 04 24 ff ff ff ff 	movl   $0xffffffff,(%esp)
    19ad:	e8 ae 65 01 00       	call   17f60 <log_msg>
    19b2:	c7 44 24 08 69 c2 02 	movl   $0x2c269,0x8(%esp)
    19b9:	00 
    19ba:	c7 44 24 04 04 00 00 	movl   $0x4,0x4(%esp)
    19c1:	00 
    19c2:	c7 04 24 ff ff ff ff 	movl   $0xffffffff,(%esp)
    19c9:	e8 92 65 01 00       	call   17f60 <log_msg>
    19ce:	89 34 24             	mov    %esi,(%esp)
    19d1:	e8 da fd ff ff       	call   17b0 <usb_masstor_get_lun_count>
    19d6:	89 46 08             	mov    %eax,0x8(%esi)
    19d9:	c7 44 24 04 04 00 00 	movl   $0x4,0x4(%esp)
    19e0:	00 
    19e1:	89 04 24             	mov    %eax,(%esp)
    19e4:	e8 b7 b5 01 00       	call   1cfa0 <calloc>
    19e9:	89 46 0c             	mov    %eax,0xc(%esi)
    19ec:	85 c0                	test   %eax,%eax
    19ee:	0f 84 d8 03 00 00    	je     1dcc <usbmast_device_add+0x4cc>
    19f4:	8b 46 08             	mov    0x8(%esi),%eax
    19f7:	c7 45 b4 00 00 00 00 	movl   $0x0,-0x4c(%ebp)
    19fe:	85 c0                	test   %eax,%eax
    1a00:	0f 84 ba 03 00 00    	je     1dc0 <usbmast_device_add+0x4c0>
    1a06:	8b 55 b4             	mov    -0x4c(%ebp),%edx
    1a09:	8d 45 b8             	lea    -0x48(%ebp),%eax
    1a0c:	89 54 24 08          	mov    %edx,0x8(%esp)
    1a10:	c7 44 24 04 7b c2 02 	movl   $0x2c27b,0x4(%esp)
    1a17:	00 
    1a18:	89 04 24             	mov    %eax,(%esp)
    1a1b:	c7 45 b8 00 00 00 00 	movl   $0x0,-0x48(%ebp)
    1a22:	e8 49 3d 01 00       	call   15770 <asprintf>
    1a27:	85 c0                	test   %eax,%eax
    1a29:	0f 88 21 02 00 00    	js     1c50 <usbmast_device_add+0x350>
    1a2f:	8b 45 b8             	mov    -0x48(%ebp),%eax
    1a32:	c7 44 24 04 02 00 00 	movl   $0x2,0x4(%esp)
    1a39:	00 
    1a3a:	89 44 24 08          	mov    %eax,0x8(%esp)
    1a3e:	8b 06                	mov    (%esi),%eax
    1a40:	89 04 24             	mov    %eax,(%esp)
    1a43:	e8 48 66 00 00       	call   8090 <ddf_fun_create>
    1a48:	89 c7                	mov    %eax,%edi
    1a4a:	85 c0                	test   %eax,%eax
    1a4c:	0f 84 f6 02 00 00    	je     1d48 <usbmast_device_add+0x448>
    1a52:	c7 44 24 04 20 00 00 	movl   $0x20,0x4(%esp)
    1a59:	00 
    1a5a:	89 04 24             	mov    %eax,(%esp)
    1a5d:	e8 1e 67 00 00       	call   8180 <ddf_fun_data_alloc>
    1a62:	89 c3                	mov    %eax,%ebx
    1a64:	85 c0                	test   %eax,%eax
    1a66:	0f 84 04 03 00 00    	je     1d70 <usbmast_device_add+0x470>
    1a6c:	8b 55 b4             	mov    -0x4c(%ebp),%edx
    1a6f:	89 78 04             	mov    %edi,0x4(%eax)
    1a72:	89 50 08             	mov    %edx,0x8(%eax)
    1a75:	89 30                	mov    %esi,(%eax)
    1a77:	8d 40 18             	lea    0x18(%eax),%eax
    1a7a:	89 04 24             	mov    %eax,(%esp)
    1a7d:	e8 ae be 00 00       	call   d930 <bd_srvs_init>
    1a82:	c7 43 18 e0 fc 02 00 	movl   $0x2fce0,0x18(%ebx)
    1a89:	89 5b 1c             	mov    %ebx,0x1c(%ebx)
    1a8c:	c7 44 24 04 a0 1e 00 	movl   $0x1ea0,0x4(%esp)
    1a93:	00 
    1a94:	89 3c 24             	mov    %edi,(%esp)
    1a97:	e8 c4 6b 00 00       	call   8660 <ddf_fun_set_conn_handler>
    1a9c:	c7 44 24 08 8f c2 02 	movl   $0x2c28f,0x8(%esp)
    1aa3:	00 
    1aa4:	c7 44 24 04 04 00 00 	movl   $0x4,0x4(%esp)
    1aab:	00 
    1aac:	c7 04 24 ff ff ff ff 	movl   $0xffffffff,(%esp)
    1ab3:	e8 a8 64 01 00       	call   17f60 <log_msg>
    1ab8:	8d 45 c4             	lea    -0x3c(%ebp),%eax
    1abb:	89 44 24 04          	mov    %eax,0x4(%esp)
    1abf:	89 1c 24             	mov    %ebx,(%esp)
    1ac2:	e8 29 05 00 00       	call   1ff0 <usbmast_inquiry>
    1ac7:	85 c0                	test   %eax,%eax
    1ac9:	0f 85 31 02 00 00    	jne    1d00 <usbmast_device_add+0x400>
    1acf:	ba 1f c2 02 00       	mov    $0x2c21f,%edx
    1ad4:	80 7d c8 00          	cmpb   $0x0,-0x38(%ebp)
    1ad8:	74 05                	je     1adf <usbmast_device_add+0x1df>
    1ada:	ba 23 c2 02 00       	mov    $0x2c223,%edx
    1adf:	8b 45 c4             	mov    -0x3c(%ebp),%eax
    1ae2:	89 55 b0             	mov    %edx,-0x50(%ebp)
    1ae5:	89 04 24             	mov    %eax,(%esp)
    1ae8:	e8 f3 04 00 00       	call   1fe0 <usbmast_scsi_dev_type_str>
    1aed:	89 c1                	mov    %eax,%ecx
    1aef:	8b 06                	mov    (%esi),%eax
    1af1:	89 04 24             	mov    %eax,(%esp)
    1af4:	89 4d ac             	mov    %ecx,-0x54(%ebp)
    1af7:	e8 b4 64 00 00       	call   7fb0 <ddf_dev_get_name>
    1afc:	8b 55 b0             	mov    -0x50(%ebp),%edx
    1aff:	89 54 24 24          	mov    %edx,0x24(%esp)
    1b03:	8d 55 e3             	lea    -0x1d(%ebp),%edx
    1b06:	89 54 24 1c          	mov    %edx,0x1c(%esp)
    1b0a:	8d 55 c9             	lea    -0x37(%ebp),%edx
    1b0d:	89 54 24 18          	mov    %edx,0x18(%esp)
    1b11:	8d 55 d2             	lea    -0x2e(%ebp),%edx
    1b14:	8b 4d ac             	mov    -0x54(%ebp),%ecx
    1b17:	89 54 24 14          	mov    %edx,0x14(%esp)
    1b1b:	8b 55 b4             	mov    -0x4c(%ebp),%edx
    1b1e:	89 4c 24 20          	mov    %ecx,0x20(%esp)
    1b22:	89 54 24 10          	mov    %edx,0x10(%esp)
    1b26:	89 44 24 0c          	mov    %eax,0xc(%esp)
    1b2a:	c7 44 24 08 5c c3 02 	movl   $0x2c35c,0x8(%esp)
    1b31:	00 
    1b32:	c7 44 24 04 03 00 00 	movl   $0x3,0x4(%esp)
    1b39:	00 
    1b3a:	c7 04 24 ff ff ff ff 	movl   $0xffffffff,(%esp)
    1b41:	e8 1a 64 01 00       	call   17f60 <log_msg>
    1b46:	8d 45 c0             	lea    -0x40(%ebp),%eax
    1b49:	89 44 24 08          	mov    %eax,0x8(%esp)
    1b4d:	8d 45 bc             	lea    -0x44(%ebp),%eax
    1b50:	89 44 24 04          	mov    %eax,0x4(%esp)
    1b54:	89 1c 24             	mov    %ebx,(%esp)
    1b57:	e8 f4 08 00 00       	call   2450 <usbmast_read_capacity>
    1b5c:	85 c0                	test   %eax,%eax
    1b5e:	0f 84 14 01 00 00    	je     1c78 <usbmast_device_add+0x378>
    1b64:	89 04 24             	mov    %eax,(%esp)
    1b67:	e8 24 17 01 00       	call   13290 <str_error>
    1b6c:	89 c3                	mov    %eax,%ebx
    1b6e:	8b 06                	mov    (%esi),%eax
    1b70:	89 04 24             	mov    %eax,(%esp)
    1b73:	e8 38 64 00 00       	call   7fb0 <ddf_dev_get_name>
    1b78:	89 5c 24 10          	mov    %ebx,0x10(%esp)
    1b7c:	89 44 24 0c          	mov    %eax,0xc(%esp)
    1b80:	c7 44 24 08 94 c3 02 	movl   $0x2c394,0x8(%esp)
    1b87:	00 
    1b88:	c7 44 24 04 02 00 00 	movl   $0x2,0x4(%esp)
    1b8f:	00 
    1b90:	c7 04 24 ff ff ff ff 	movl   $0xffffffff,(%esp)
    1b97:	e8 c4 63 01 00       	call   17f60 <log_msg>
    1b9c:	bb f7 fe ff ff       	mov    $0xfffffef7,%ebx
    1ba1:	89 3c 24             	mov    %edi,(%esp)
    1ba4:	e8 67 66 00 00       	call   8210 <ddf_fun_destroy>
    1ba9:	8b 45 b8             	mov    -0x48(%ebp),%eax
    1bac:	85 c0                	test   %eax,%eax
    1bae:	74 08                	je     1bb8 <usbmast_device_add+0x2b8>
    1bb0:	89 04 24             	mov    %eax,(%esp)
    1bb3:	e8 58 b5 01 00       	call   1d110 <free>
    1bb8:	8b 56 08             	mov    0x8(%esi),%edx
    1bbb:	8b 4e 0c             	mov    0xc(%esi),%ecx
    1bbe:	85 d2                	test   %edx,%edx
    1bc0:	74 79                	je     1c3b <usbmast_device_add+0x33b>
    1bc2:	31 ff                	xor    %edi,%edi
    1bc4:	89 5d b4             	mov    %ebx,-0x4c(%ebp)
    1bc7:	eb 20                	jmp    1be9 <usbmast_device_add+0x2e9>
    1bc9:	8d b4 26 00 00 00 00 	lea    0x0(%esi,%eiz,1),%esi
    1bd0:	8b 46 0c             	mov    0xc(%esi),%eax
    1bd3:	8b 04 18             	mov    (%eax,%ebx,1),%eax
    1bd6:	89 04 24             	mov    %eax,(%esp)
    1bd9:	e8 32 66 00 00       	call   8210 <ddf_fun_destroy>
    1bde:	8b 4e 0c             	mov    0xc(%esi),%ecx
    1be1:	8b 56 08             	mov    0x8(%esi),%edx
    1be4:	47                   	inc    %edi
    1be5:	39 d7                	cmp    %edx,%edi
    1be7:	73 4f                	jae    1c38 <usbmast_device_add+0x338>
    1be9:	8d 1c bd 00 00 00 00 	lea    0x0(,%edi,4),%ebx
    1bf0:	8b 04 19             	mov    (%ecx,%ebx,1),%eax
    1bf3:	85 c0                	test   %eax,%eax
    1bf5:	74 ed                	je     1be4 <usbmast_device_add+0x2e4>
    1bf7:	89 04 24             	mov    %eax,(%esp)
    1bfa:	e8 31 68 00 00       	call   8430 <ddf_fun_unbind>
    1bff:	85 c0                	test   %eax,%eax
    1c01:	74 cd                	je     1bd0 <usbmast_device_add+0x2d0>
    1c03:	89 04 24             	mov    %eax,(%esp)
    1c06:	e8 85 16 01 00       	call   13290 <str_error>
    1c0b:	89 7c 24 0c          	mov    %edi,0xc(%esp)
    1c0f:	89 44 24 10          	mov    %eax,0x10(%esp)
    1c13:	c7 44 24 08 14 c4 02 	movl   $0x2c414,0x8(%esp)
    1c1a:	00 
    1c1b:	c7 44 24 04 02 00 00 	movl   $0x2,0x4(%esp)
    1c22:	00 
    1c23:	c7 04 24 ff ff ff ff 	movl   $0xffffffff,(%esp)
    1c2a:	e8 31 63 01 00       	call   17f60 <log_msg>
    1c2f:	eb 9f                	jmp    1bd0 <usbmast_device_add+0x2d0>
    1c31:	8d b4 26 00 00 00 00 	lea    0x0(%esi,%eiz,1),%esi
    1c38:	8b 5d b4             	mov    -0x4c(%ebp),%ebx
    1c3b:	89 0c 24             	mov    %ecx,(%esp)
    1c3e:	e8 cd b4 01 00       	call   1d110 <free>
    1c43:	83 c4 7c             	add    $0x7c,%esp
    1c46:	89 d8                	mov    %ebx,%eax
    1c48:	5b                   	pop    %ebx
    1c49:	5e                   	pop    %esi
    1c4a:	5f                   	pop    %edi
    1c4b:	5d                   	pop    %ebp
    1c4c:	c3                   	ret    
    1c4d:	8d 76 00             	lea    0x0(%esi),%esi
    1c50:	c7 44 24 08 7f c2 02 	movl   $0x2c27f,0x8(%esp)
    1c57:	00 
    1c58:	c7 44 24 04 01 00 00 	movl   $0x1,0x4(%esp)
    1c5f:	00 
    1c60:	c7 04 24 ff ff ff ff 	movl   $0xffffffff,(%esp)
    1c67:	e8 f4 62 01 00       	call   17f60 <log_msg>
    1c6c:	bb fe ff ff ff       	mov    $0xfffffffe,%ebx
    1c71:	e9 33 ff ff ff       	jmp    1ba9 <usbmast_device_add+0x2a9>
    1c76:	66 90                	xchg   %ax,%ax
    1c78:	8b 45 c0             	mov    -0x40(%ebp),%eax
    1c7b:	c7 44 24 08 c0 c3 02 	movl   $0x2c3c0,0x8(%esp)
    1c82:	00 
    1c83:	89 44 24 10          	mov    %eax,0x10(%esp)
    1c87:	8b 45 bc             	mov    -0x44(%ebp),%eax
    1c8a:	89 44 24 0c          	mov    %eax,0xc(%esp)
    1c8e:	c7 44 24 04 03 00 00 	movl   $0x3,0x4(%esp)
    1c95:	00 
    1c96:	c7 04 24 ff ff ff ff 	movl   $0xffffffff,(%esp)
    1c9d:	e8 be 62 01 00       	call   17f60 <log_msg>
    1ca2:	8b 45 bc             	mov    -0x44(%ebp),%eax
    1ca5:	89 43 0c             	mov    %eax,0xc(%ebx)
    1ca8:	8b 45 c0             	mov    -0x40(%ebp),%eax
    1cab:	c7 43 10 00 00 00 00 	movl   $0x0,0x10(%ebx)
    1cb2:	89 43 14             	mov    %eax,0x14(%ebx)
    1cb5:	89 3c 24             	mov    %edi,(%esp)
    1cb8:	e8 63 66 00 00       	call   8320 <ddf_fun_bind>
    1cbd:	85 c0                	test   %eax,%eax
    1cbf:	0f 84 d3 00 00 00    	je     1d98 <usbmast_device_add+0x498>
    1cc5:	89 04 24             	mov    %eax,(%esp)
    1cc8:	89 c3                	mov    %eax,%ebx
    1cca:	e8 c1 15 01 00       	call   13290 <str_error>
    1ccf:	c7 44 24 08 ec c3 02 	movl   $0x2c3ec,0x8(%esp)
    1cd6:	00 
    1cd7:	89 44 24 10          	mov    %eax,0x10(%esp)
    1cdb:	8b 45 b8             	mov    -0x48(%ebp),%eax
    1cde:	89 44 24 0c          	mov    %eax,0xc(%esp)
    1ce2:	c7 44 24 04 01 00 00 	movl   $0x1,0x4(%esp)
    1ce9:	00 
    1cea:	c7 04 24 ff ff ff ff 	movl   $0xffffffff,(%esp)
    1cf1:	e8 6a 62 01 00       	call   17f60 <log_msg>
    1cf6:	e9 a6 fe ff ff       	jmp    1ba1 <usbmast_device_add+0x2a1>
    1cfb:	90                   	nop
    1cfc:	8d 74 26 00          	lea    0x0(%esi,%eiz,1),%esi
    1d00:	89 04 24             	mov    %eax,(%esp)
    1d03:	e8 88 15 01 00       	call   13290 <str_error>
    1d08:	89 c3                	mov    %eax,%ebx
    1d0a:	8b 06                	mov    (%esi),%eax
    1d0c:	89 04 24             	mov    %eax,(%esp)
    1d0f:	e8 9c 62 00 00       	call   7fb0 <ddf_dev_get_name>
    1d14:	89 5c 24 10          	mov    %ebx,0x10(%esp)
    1d18:	89 44 24 0c          	mov    %eax,0xc(%esp)
    1d1c:	c7 44 24 08 38 c3 02 	movl   $0x2c338,0x8(%esp)
    1d23:	00 
    1d24:	c7 44 24 04 02 00 00 	movl   $0x2,0x4(%esp)
    1d2b:	00 
    1d2c:	c7 04 24 ff ff ff ff 	movl   $0xffffffff,(%esp)
    1d33:	e8 28 62 01 00       	call   17f60 <log_msg>
    1d38:	bb f7 fe ff ff       	mov    $0xfffffef7,%ebx
    1d3d:	e9 5f fe ff ff       	jmp    1ba1 <usbmast_device_add+0x2a1>
    1d42:	8d b6 00 00 00 00    	lea    0x0(%esi),%esi
    1d48:	8b 45 b8             	mov    -0x48(%ebp),%eax
    1d4b:	c7 44 24 08 14 c3 02 	movl   $0x2c314,0x8(%esp)
    1d52:	00 
    1d53:	89 44 24 0c          	mov    %eax,0xc(%esp)
    1d57:	c7 44 24 04 01 00 00 	movl   $0x1,0x4(%esp)
    1d5e:	00 
    1d5f:	c7 04 24 ff ff ff ff 	movl   $0xffffffff,(%esp)
    1d66:	e8 f5 61 01 00       	call   17f60 <log_msg>
    1d6b:	e9 fc fe ff ff       	jmp    1c6c <usbmast_device_add+0x36c>
    1d70:	c7 44 24 08 2d c2 02 	movl   $0x2c22d,0x8(%esp)
    1d77:	00 
    1d78:	c7 44 24 04 01 00 00 	movl   $0x1,0x4(%esp)
    1d7f:	00 
    1d80:	c7 04 24 ff ff ff ff 	movl   $0xffffffff,(%esp)
    1d87:	bb fe ff ff ff       	mov    $0xfffffffe,%ebx
    1d8c:	e8 cf 61 01 00       	call   17f60 <log_msg>
    1d91:	e9 0b fe ff ff       	jmp    1ba1 <usbmast_device_add+0x2a1>
    1d96:	66 90                	xchg   %ax,%ax
    1d98:	8b 45 b8             	mov    -0x48(%ebp),%eax
    1d9b:	89 04 24             	mov    %eax,(%esp)
    1d9e:	e8 6d b3 01 00       	call   1d110 <free>
    1da3:	8b 55 b4             	mov    -0x4c(%ebp),%edx
    1da6:	8b 46 0c             	mov    0xc(%esi),%eax
    1da9:	89 3c 90             	mov    %edi,(%eax,%edx,4)
    1dac:	42                   	inc    %edx
    1dad:	89 55 b4             	mov    %edx,-0x4c(%ebp)
    1db0:	39 56 08             	cmp    %edx,0x8(%esi)
    1db3:	0f 87 4d fc ff ff    	ja     1a06 <usbmast_device_add+0x106>
    1db9:	8d b4 26 00 00 00 00 	lea    0x0(%esi,%eiz,1),%esi
    1dc0:	83 c4 7c             	add    $0x7c,%esp
    1dc3:	31 db                	xor    %ebx,%ebx
    1dc5:	89 d8                	mov    %ebx,%eax
    1dc7:	5b                   	pop    %ebx
    1dc8:	5e                   	pop    %esi
    1dc9:	5f                   	pop    %edi
    1dca:	5d                   	pop    %ebp
    1dcb:	c3                   	ret    
    1dcc:	c7 44 24 08 f4 c2 02 	movl   $0x2c2f4,0x8(%esp)
    1dd3:	00 
    1dd4:	c7 44 24 04 01 00 00 	movl   $0x1,0x4(%esp)
    1ddb:	00 
    1ddc:	c7 04 24 ff ff ff ff 	movl   $0xffffffff,(%esp)
    1de3:	bb fe ff ff ff       	mov    $0xfffffffe,%ebx
    1de8:	e8 73 61 01 00       	call   17f60 <log_msg>
    1ded:	e9 c6 fd ff ff       	jmp    1bb8 <usbmast_device_add+0x2b8>
    1df2:	c7 44 24 08 2d c2 02 	movl   $0x2c22d,0x8(%esp)
    1df9:	00 
    1dfa:	c7 44 24 04 01 00 00 	movl   $0x1,0x4(%esp)
    1e01:	00 
    1e02:	c7 04 24 ff ff ff ff 	movl   $0xffffffff,(%esp)
    1e09:	bb fe ff ff ff       	mov    $0xfffffffe,%ebx
    1e0e:	e8 4d 61 01 00       	call   17f60 <log_msg>
    1e13:	e9 2b fe ff ff       	jmp    1c43 <usbmast_device_add+0x343>
    1e18:	90                   	nop
    1e19:	8d b4 26 00 00 00 00 	lea    0x0(%esi,%eiz,1),%esi

00001e20 <usbmast_bd_write_blocks>:
    1e20:	55                   	push   %ebp
    1e21:	89 e5                	mov    %esp,%ebp
    1e23:	57                   	push   %edi
    1e24:	56                   	push   %esi
    1e25:	53                   	push   %ebx
    1e26:	8b 4d 08             	mov    0x8(%ebp),%ecx
    1e29:	8b 5d 14             	mov    0x14(%ebp),%ebx
    1e2c:	8b 09                	mov    (%ecx),%ecx
    1e2e:	8b 49 04             	mov    0x4(%ecx),%ecx
    1e31:	8b 71 14             	mov    0x14(%ecx),%esi
    1e34:	0f af f3             	imul   %ebx,%esi
    1e37:	3b 75 1c             	cmp    0x1c(%ebp),%esi
    1e3a:	77 0c                	ja     1e48 <usbmast_bd_write_blocks+0x28>
    1e3c:	5b                   	pop    %ebx
    1e3d:	89 4d 08             	mov    %ecx,0x8(%ebp)
    1e40:	5e                   	pop    %esi
    1e41:	5f                   	pop    %edi
    1e42:	5d                   	pop    %ebp
    1e43:	e9 f8 08 00 00       	jmp    2740 <usbmast_write>
    1e48:	5b                   	pop    %ebx
    1e49:	b8 f2 ff ff ff       	mov    $0xfffffff2,%eax
    1e4e:	5e                   	pop    %esi
    1e4f:	5f                   	pop    %edi
    1e50:	5d                   	pop    %ebp
    1e51:	c3                   	ret    
    1e52:	8d b4 26 00 00 00 00 	lea    0x0(%esi,%eiz,1),%esi
    1e59:	8d bc 27 00 00 00 00 	lea    0x0(%edi,%eiz,1),%edi

00001e60 <usbmast_bd_read_blocks>:
    1e60:	55                   	push   %ebp
    1e61:	89 e5                	mov    %esp,%ebp
    1e63:	57                   	push   %edi
    1e64:	56                   	push   %esi
    1e65:	53                   	push   %ebx
    1e66:	8b 4d 08             	mov    0x8(%ebp),%ecx
    1e69:	8b 5d 14             	mov    0x14(%ebp),%ebx
    1e6c:	8b 09                	mov    (%ecx),%ecx
    1e6e:	8b 49 04             	mov    0x4(%ecx),%ecx
    1e71:	8b 71 14             	mov    0x14(%ecx),%esi
    1e74:	0f af f3             	imul   %ebx,%esi
    1e77:	3b 75 1c             	cmp    0x1c(%ebp),%esi
    1e7a:	77 0c                	ja     1e88 <usbmast_bd_read_blocks+0x28>
    1e7c:	5b                   	pop    %ebx
    1e7d:	89 4d 08             	mov    %ecx,0x8(%ebp)
    1e80:	5e                   	pop    %esi
    1e81:	5f                   	pop    %edi
    1e82:	5d                   	pop    %ebp
    1e83:	e9 28 07 00 00       	jmp    25b0 <usbmast_read>
    1e88:	5b                   	pop    %ebx
    1e89:	b8 f2 ff ff ff       	mov    $0xfffffff2,%eax
    1e8e:	5e                   	pop    %esi
    1e8f:	5f                   	pop    %edi
    1e90:	5d                   	pop    %ebp
    1e91:	c3                   	ret    
    1e92:	8d b4 26 00 00 00 00 	lea    0x0(%esi,%eiz,1),%esi
    1e99:	8d bc 27 00 00 00 00 	lea    0x0(%edi,%eiz,1),%edi

00001ea0 <usbmast_bd_connection>:
    1ea0:	55                   	push   %ebp
    1ea1:	89 e5                	mov    %esp,%ebp
    1ea3:	56                   	push   %esi
    1ea4:	53                   	push   %ebx
    1ea5:	83 ec 10             	sub    $0x10,%esp
    1ea8:	8b 45 10             	mov    0x10(%ebp),%eax
    1eab:	8b 5d 08             	mov    0x8(%ebp),%ebx
    1eae:	89 04 24             	mov    %eax,(%esp)
    1eb1:	8b 75 0c             	mov    0xc(%ebp),%esi
    1eb4:	e8 37 63 00 00       	call   81f0 <ddf_fun_data_get>
    1eb9:	89 75 0c             	mov    %esi,0xc(%ebp)
    1ebc:	83 c0 18             	add    $0x18,%eax
    1ebf:	89 5d 08             	mov    %ebx,0x8(%ebp)
    1ec2:	89 45 10             	mov    %eax,0x10(%ebp)
    1ec5:	83 c4 10             	add    $0x10,%esp
    1ec8:	5b                   	pop    %ebx
    1ec9:	5e                   	pop    %esi
    1eca:	5d                   	pop    %ebp
    1ecb:	e9 80 ba 00 00       	jmp    d950 <bd_conn>

00001ed0 <usbmast_device_gone>:
    1ed0:	55                   	push   %ebp
    1ed1:	89 e5                	mov    %esp,%ebp
    1ed3:	57                   	push   %edi
    1ed4:	56                   	push   %esi
    1ed5:	53                   	push   %ebx
    1ed6:	83 ec 3c             	sub    $0x3c,%esp
    1ed9:	8b 45 08             	mov    0x8(%ebp),%eax
    1edc:	8b 58 74             	mov    0x74(%eax),%ebx
    1edf:	85 db                	test   %ebx,%ebx
    1ee1:	0f 84 9e 00 00 00    	je     1f85 <usbmast_device_gone+0xb5>
    1ee7:	8b 53 08             	mov    0x8(%ebx),%edx
    1eea:	31 f6                	xor    %esi,%esi
    1eec:	85 d2                	test   %edx,%edx
    1eee:	75 26                	jne    1f16 <usbmast_device_gone+0x46>
    1ef0:	eb 7e                	jmp    1f70 <usbmast_device_gone+0xa0>
    1ef2:	8d b6 00 00 00 00    	lea    0x0(%esi),%esi
    1ef8:	8b 43 0c             	mov    0xc(%ebx),%eax
    1efb:	46                   	inc    %esi
    1efc:	8b 04 38             	mov    (%eax,%edi,1),%eax
    1eff:	89 04 24             	mov    %eax,(%esp)
    1f02:	e8 09 63 00 00       	call   8210 <ddf_fun_destroy>
    1f07:	8b 43 0c             	mov    0xc(%ebx),%eax
    1f0a:	39 73 08             	cmp    %esi,0x8(%ebx)
    1f0d:	c7 04 38 00 00 00 00 	movl   $0x0,(%eax,%edi,1)
    1f14:	76 5a                	jbe    1f70 <usbmast_device_gone+0xa0>
    1f16:	8b 43 0c             	mov    0xc(%ebx),%eax
    1f19:	8d 3c b5 00 00 00 00 	lea    0x0(,%esi,4),%edi
    1f20:	8b 04 38             	mov    (%eax,%edi,1),%eax
    1f23:	89 04 24             	mov    %eax,(%esp)
    1f26:	e8 05 65 00 00       	call   8430 <ddf_fun_unbind>
    1f2b:	85 c0                	test   %eax,%eax
    1f2d:	74 c9                	je     1ef8 <usbmast_device_gone+0x28>
    1f2f:	89 04 24             	mov    %eax,(%esp)
    1f32:	89 45 e4             	mov    %eax,-0x1c(%ebp)
    1f35:	e8 56 13 01 00       	call   13290 <str_error>
    1f3a:	89 74 24 0c          	mov    %esi,0xc(%esp)
    1f3e:	89 44 24 10          	mov    %eax,0x10(%esp)
    1f42:	c7 44 24 08 3c c4 02 	movl   $0x2c43c,0x8(%esp)
    1f49:	00 
    1f4a:	c7 44 24 04 01 00 00 	movl   $0x1,0x4(%esp)
    1f51:	00 
    1f52:	c7 04 24 ff ff ff ff 	movl   $0xffffffff,(%esp)
    1f59:	e8 02 60 01 00       	call   17f60 <log_msg>
    1f5e:	8b 55 e4             	mov    -0x1c(%ebp),%edx
    1f61:	83 c4 3c             	add    $0x3c,%esp
    1f64:	89 d0                	mov    %edx,%eax
    1f66:	5b                   	pop    %ebx
    1f67:	5e                   	pop    %esi
    1f68:	5f                   	pop    %edi
    1f69:	5d                   	pop    %ebp
    1f6a:	c3                   	ret    
    1f6b:	90                   	nop
    1f6c:	8d 74 26 00          	lea    0x0(%esi,%eiz,1),%esi
    1f70:	8b 43 0c             	mov    0xc(%ebx),%eax
    1f73:	89 04 24             	mov    %eax,(%esp)
    1f76:	e8 95 b1 01 00       	call   1d110 <free>
    1f7b:	83 c4 3c             	add    $0x3c,%esp
    1f7e:	31 c0                	xor    %eax,%eax
    1f80:	5b                   	pop    %ebx
    1f81:	5e                   	pop    %esi
    1f82:	5f                   	pop    %edi
    1f83:	5d                   	pop    %ebp
    1f84:	c3                   	ret    
    1f85:	c7 44 24 08 71 00 00 	movl   $0x71,0x8(%esp)
    1f8c:	00 
    1f8d:	c7 44 24 04 9b c2 02 	movl   $0x2c29b,0x4(%esp)
    1f94:	00 
    1f95:	c7 04 24 a2 c2 02 00 	movl   $0x2c2a2,(%esp)
    1f9c:	e8 bf 58 02 00       	call   27860 <assert_abort>
    1fa1:	66 90                	xchg   %ax,%ax
    1fa3:	66 90                	xchg   %ax,%ax
    1fa5:	66 90                	xchg   %ax,%ax
    1fa7:	66 90                	xchg   %ax,%ax
    1fa9:	66 90                	xchg   %ax,%ax
    1fab:	66 90                	xchg   %ax,%ax
    1fad:	66 90                	xchg   %ax,%ax
    1faf:	90                   	nop

00001fb0 <main>:
    1fb0:	55                   	push   %ebp
    1fb1:	89 e5                	mov    %esp,%ebp
    1fb3:	83 e4 f0             	and    $0xfffffff0,%esp
    1fb6:	83 ec 10             	sub    $0x10,%esp
    1fb9:	c7 04 24 a7 c2 02 00 	movl   $0x2c2a7,(%esp)
    1fc0:	e8 cb 5d 01 00       	call   17d90 <log_init>
    1fc5:	c7 04 24 64 c4 02 00 	movl   $0x2c464,(%esp)
    1fcc:	e8 bf 08 00 00       	call   2890 <usb_driver_main>
    1fd1:	c9                   	leave  
    1fd2:	c3                   	ret    
    1fd3:	66 90                	xchg   %ax,%ax
    1fd5:	66 90                	xchg   %ax,%ax
    1fd7:	66 90                	xchg   %ax,%ax
    1fd9:	66 90                	xchg   %ax,%ax
    1fdb:	66 90                	xchg   %ax,%ax
    1fdd:	66 90                	xchg   %ax,%ax
    1fdf:	90                   	nop

00001fe0 <usbmast_scsi_dev_type_str>:
    1fe0:	55                   	push   %ebp
    1fe1:	89 e5                	mov    %esp,%ebp
    1fe3:	5d                   	pop    %ebp
    1fe4:	e9 47 b2 00 00       	jmp    d230 <scsi_get_dev_type_str>
    1fe9:	8d b4 26 00 00 00 00 	lea    0x0(%esi,%eiz,1),%esi

00001ff0 <usbmast_inquiry>:
    1ff0:	55                   	push   %ebp
    1ff1:	89 e5                	mov    %esp,%ebp
    1ff3:	57                   	push   %edi
    1ff4:	56                   	push   %esi
    1ff5:	53                   	push   %ebx
    1ff6:	83 ec 7c             	sub    $0x7c,%esp
    1ff9:	8d 7d 9e             	lea    -0x62(%ebp),%edi
    1ffc:	8d 75 a4             	lea    -0x5c(%ebp),%esi
    1fff:	8b 5d 0c             	mov    0xc(%ebp),%ebx
    2002:	c7 44 24 08 06 00 00 	movl   $0x6,0x8(%esp)
    2009:	00 
    200a:	c7 44 24 04 00 00 00 	movl   $0x0,0x4(%esp)
    2011:	00 
    2012:	89 3c 24             	mov    %edi,(%esp)
    2015:	e8 06 da 00 00       	call   fa20 <memset>
    201a:	89 34 24             	mov    %esi,(%esp)
    201d:	c7 44 24 08 20 00 00 	movl   $0x20,0x8(%esp)
    2024:	00 
    2025:	c7 44 24 04 00 00 00 	movl   $0x0,0x4(%esp)
    202c:	00 
    202d:	c6 45 9e 12          	movb   $0x12,-0x62(%ebp)
    2031:	66 c7 45 a1 00 24    	movw   $0x2400,-0x5f(%ebp)
    2037:	e8 e4 d9 00 00       	call   fa20 <memset>
    203c:	8b 55 08             	mov    0x8(%ebp),%edx
    203f:	8d 45 c4             	lea    -0x3c(%ebp),%eax
    2042:	89 74 24 08          	mov    %esi,0x8(%esp)
    2046:	c7 44 24 04 ef be ad 	movl   $0xdeadbeef,0x4(%esp)
    204d:	de 
    204e:	89 14 24             	mov    %edx,(%esp)
    2051:	89 7d a4             	mov    %edi,-0x5c(%ebp)
    2054:	c7 45 a8 06 00 00 00 	movl   $0x6,-0x58(%ebp)
    205b:	89 45 b4             	mov    %eax,-0x4c(%ebp)
    205e:	c7 45 b8 24 00 00 00 	movl   $0x24,-0x48(%ebp)
    2065:	e8 56 f0 ff ff       	call   10c0 <usb_massstor_cmd>
    206a:	89 c6                	mov    %eax,%esi
    206c:	85 c0                	test   %eax,%eax
    206e:	0f 85 ac 00 00 00    	jne    2120 <usbmast_inquiry+0x130>
    2074:	8b 45 c0             	mov    -0x40(%ebp),%eax
    2077:	85 c0                	test   %eax,%eax
    2079:	0f 85 11 01 00 00    	jne    2190 <usbmast_inquiry+0x1a0>
    207f:	8b 45 bc             	mov    -0x44(%ebp),%eax
    2082:	83 f8 23             	cmp    $0x23,%eax
    2085:	0f 86 dd 00 00 00    	jbe    2168 <usbmast_inquiry+0x178>
    208b:	89 1c 24             	mov    %ebx,(%esp)
    208e:	c7 44 24 08 24 00 00 	movl   $0x24,0x8(%esp)
    2095:	00 
    2096:	c7 44 24 04 00 00 00 	movl   $0x0,0x4(%esp)
    209d:	00 
    209e:	e8 7d d9 00 00       	call   fa20 <memset>
    20a3:	8d 45 cc             	lea    -0x34(%ebp),%eax
    20a6:	c7 03 00 00 00 00    	movl   $0x0,(%ebx)
    20ac:	c6 43 04 00          	movb   $0x0,0x4(%ebx)
    20b0:	89 44 24 08          	mov    %eax,0x8(%esp)
    20b4:	8d 43 05             	lea    0x5(%ebx),%eax
    20b7:	c7 44 24 0c 08 00 00 	movl   $0x8,0xc(%esp)
    20be:	00 
    20bf:	c7 44 24 04 09 00 00 	movl   $0x9,0x4(%esp)
    20c6:	00 
    20c7:	89 04 24             	mov    %eax,(%esp)
    20ca:	e8 f1 f8 00 00       	call   119c0 <spascii_to_str>
    20cf:	8d 45 d4             	lea    -0x2c(%ebp),%eax
    20d2:	89 44 24 08          	mov    %eax,0x8(%esp)
    20d6:	8d 43 0e             	lea    0xe(%ebx),%eax
    20d9:	c7 44 24 0c 10 00 00 	movl   $0x10,0xc(%esp)
    20e0:	00 
    20e1:	c7 44 24 04 11 00 00 	movl   $0x11,0x4(%esp)
    20e8:	00 
    20e9:	89 04 24             	mov    %eax,(%esp)
    20ec:	83 c3 1f             	add    $0x1f,%ebx
    20ef:	e8 cc f8 00 00       	call   119c0 <spascii_to_str>
    20f4:	8d 45 e4             	lea    -0x1c(%ebp),%eax
    20f7:	c7 44 24 0c 04 00 00 	movl   $0x4,0xc(%esp)
    20fe:	00 
    20ff:	89 44 24 08          	mov    %eax,0x8(%esp)
    2103:	c7 44 24 04 05 00 00 	movl   $0x5,0x4(%esp)
    210a:	00 
    210b:	89 1c 24             	mov    %ebx,(%esp)
    210e:	e8 ad f8 00 00       	call   119c0 <spascii_to_str>
    2113:	83 c4 7c             	add    $0x7c,%esp
    2116:	89 f0                	mov    %esi,%eax
    2118:	5b                   	pop    %ebx
    2119:	5e                   	pop    %esi
    211a:	5f                   	pop    %edi
    211b:	5d                   	pop    %ebp
    211c:	c3                   	ret    
    211d:	8d 76 00             	lea    0x0(%esi),%esi
    2120:	89 04 24             	mov    %eax,(%esp)
    2123:	e8 68 11 01 00       	call   13290 <str_error>
    2128:	8b 55 08             	mov    0x8(%ebp),%edx
    212b:	89 c3                	mov    %eax,%ebx
    212d:	8b 02                	mov    (%edx),%eax
    212f:	8b 00                	mov    (%eax),%eax
    2131:	89 04 24             	mov    %eax,(%esp)
    2134:	e8 77 5e 00 00       	call   7fb0 <ddf_dev_get_name>
    2139:	89 5c 24 10          	mov    %ebx,0x10(%esp)
    213d:	89 44 24 0c          	mov    %eax,0xc(%esp)
    2141:	c7 44 24 08 ac c4 02 	movl   $0x2c4ac,0x8(%esp)
    2148:	00 
    2149:	c7 44 24 04 01 00 00 	movl   $0x1,0x4(%esp)
    2150:	00 
    2151:	c7 04 24 ff ff ff ff 	movl   $0xffffffff,(%esp)
    2158:	e8 03 5e 01 00       	call   17f60 <log_msg>
    215d:	83 c4 7c             	add    $0x7c,%esp
    2160:	89 f0                	mov    %esi,%eax
    2162:	5b                   	pop    %ebx
    2163:	5e                   	pop    %esi
    2164:	5f                   	pop    %edi
    2165:	5d                   	pop    %ebp
    2166:	c3                   	ret    
    2167:	90                   	nop
    2168:	89 44 24 0c          	mov    %eax,0xc(%esp)
    216c:	c7 44 24 08 fc c4 02 	movl   $0x2c4fc,0x8(%esp)
    2173:	00 
    2174:	c7 44 24 04 01 00 00 	movl   $0x1,0x4(%esp)
    217b:	00 
    217c:	c7 04 24 ff ff ff ff 	movl   $0xffffffff,(%esp)
    2183:	e8 d8 5d 01 00       	call   17f60 <log_msg>
    2188:	be f7 fe ff ff       	mov    $0xfffffef7,%esi
    218d:	eb 84                	jmp    2113 <usbmast_inquiry+0x123>
    218f:	90                   	nop
    2190:	8b 55 08             	mov    0x8(%ebp),%edx
    2193:	be f7 fe ff ff       	mov    $0xfffffef7,%esi
    2198:	8b 02                	mov    (%edx),%eax
    219a:	8b 00                	mov    (%eax),%eax
    219c:	89 04 24             	mov    %eax,(%esp)
    219f:	e8 0c 5e 00 00       	call   7fb0 <ddf_dev_get_name>
    21a4:	c7 44 24 08 d8 c4 02 	movl   $0x2c4d8,0x8(%esp)
    21ab:	00 
    21ac:	89 44 24 0c          	mov    %eax,0xc(%esp)
    21b0:	c7 44 24 04 01 00 00 	movl   $0x1,0x4(%esp)
    21b7:	00 
    21b8:	c7 04 24 ff ff ff ff 	movl   $0xffffffff,(%esp)
    21bf:	e8 9c 5d 01 00       	call   17f60 <log_msg>
    21c4:	e9 4a ff ff ff       	jmp    2113 <usbmast_inquiry+0x123>
    21c9:	8d b4 26 00 00 00 00 	lea    0x0(%esi,%eiz,1),%esi

000021d0 <usbmast_request_sense>:
    21d0:	55                   	push   %ebp
    21d1:	89 e5                	mov    %esp,%ebp
    21d3:	57                   	push   %edi
    21d4:	56                   	push   %esi
    21d5:	53                   	push   %ebx
    21d6:	83 ec 5c             	sub    $0x5c,%esp
    21d9:	8d 75 c2             	lea    -0x3e(%ebp),%esi
    21dc:	8b 5d 10             	mov    0x10(%ebp),%ebx
    21df:	c7 44 24 08 06 00 00 	movl   $0x6,0x8(%esp)
    21e6:	00 
    21e7:	c7 44 24 04 00 00 00 	movl   $0x0,0x4(%esp)
    21ee:	00 
    21ef:	89 34 24             	mov    %esi,(%esp)
    21f2:	e8 29 d8 00 00       	call   fa20 <memset>
    21f7:	c6 45 c2 03          	movb   $0x3,-0x3e(%ebp)
    21fb:	89 d8                	mov    %ebx,%eax
    21fd:	81 fb fc 00 00 00    	cmp    $0xfc,%ebx
    2203:	76 05                	jbe    220a <usbmast_request_sense+0x3a>
    2205:	b8 fc 00 00 00       	mov    $0xfc,%eax
    220a:	8d 7d c8             	lea    -0x38(%ebp),%edi
    220d:	c7 44 24 08 20 00 00 	movl   $0x20,0x8(%esp)
    2214:	00 
    2215:	c7 44 24 04 00 00 00 	movl   $0x0,0x4(%esp)
    221c:	00 
    221d:	89 3c 24             	mov    %edi,(%esp)
    2220:	88 45 c6             	mov    %al,-0x3a(%ebp)
    2223:	e8 f8 d7 00 00       	call   fa20 <memset>
    2228:	8b 55 0c             	mov    0xc(%ebp),%edx
    222b:	89 7c 24 08          	mov    %edi,0x8(%esp)
    222f:	89 55 d8             	mov    %edx,-0x28(%ebp)
    2232:	8b 55 08             	mov    0x8(%ebp),%edx
    2235:	c7 44 24 04 ef be ad 	movl   $0xdeadbeef,0x4(%esp)
    223c:	de 
    223d:	89 14 24             	mov    %edx,(%esp)
    2240:	89 5d dc             	mov    %ebx,-0x24(%ebp)
    2243:	89 75 c8             	mov    %esi,-0x38(%ebp)
    2246:	c7 45 cc 06 00 00 00 	movl   $0x6,-0x34(%ebp)
    224d:	e8 6e ee ff ff       	call   10c0 <usb_massstor_cmd>
    2252:	89 c3                	mov    %eax,%ebx
    2254:	85 c0                	test   %eax,%eax
    2256:	75 40                	jne    2298 <usbmast_request_sense+0xc8>
    2258:	8b 4d e4             	mov    -0x1c(%ebp),%ecx
    225b:	85 c9                	test   %ecx,%ecx
    225d:	75 39                	jne    2298 <usbmast_request_sense+0xc8>
    225f:	8b 45 e0             	mov    -0x20(%ebp),%eax
    2262:	83 f8 11             	cmp    $0x11,%eax
    2265:	77 6e                	ja     22d5 <usbmast_request_sense+0x105>
    2267:	ba 12 00 00 00       	mov    $0x12,%edx
    226c:	c7 44 24 04 00 00 00 	movl   $0x0,0x4(%esp)
    2273:	00 
    2274:	29 c2                	sub    %eax,%edx
    2276:	89 54 24 08          	mov    %edx,0x8(%esp)
    227a:	8b 55 0c             	mov    0xc(%ebp),%edx
    227d:	01 d0                	add    %edx,%eax
    227f:	89 04 24             	mov    %eax,(%esp)
    2282:	e8 99 d7 00 00       	call   fa20 <memset>
    2287:	83 c4 5c             	add    $0x5c,%esp
    228a:	89 d8                	mov    %ebx,%eax
    228c:	5b                   	pop    %ebx
    228d:	5e                   	pop    %esi
    228e:	5f                   	pop    %edi
    228f:	5d                   	pop    %ebp
    2290:	c3                   	ret    
    2291:	8d b4 26 00 00 00 00 	lea    0x0(%esi,%eiz,1),%esi
    2298:	89 1c 24             	mov    %ebx,(%esp)
    229b:	e8 f0 0f 01 00       	call   13290 <str_error>
    22a0:	8b 55 08             	mov    0x8(%ebp),%edx
    22a3:	89 c6                	mov    %eax,%esi
    22a5:	8b 02                	mov    (%edx),%eax
    22a7:	8b 00                	mov    (%eax),%eax
    22a9:	89 04 24             	mov    %eax,(%esp)
    22ac:	e8 ff 5c 00 00       	call   7fb0 <ddf_dev_get_name>
    22b1:	89 74 24 10          	mov    %esi,0x10(%esp)
    22b5:	89 44 24 0c          	mov    %eax,0xc(%esp)
    22b9:	c7 44 24 08 24 c5 02 	movl   $0x2c524,0x8(%esp)
    22c0:	00 
    22c1:	c7 44 24 04 01 00 00 	movl   $0x1,0x4(%esp)
    22c8:	00 
    22c9:	c7 04 24 ff ff ff ff 	movl   $0xffffffff,(%esp)
    22d0:	e8 8b 5c 01 00       	call   17f60 <log_msg>
    22d5:	83 c4 5c             	add    $0x5c,%esp
    22d8:	89 d8                	mov    %ebx,%eax
    22da:	5b                   	pop    %ebx
    22db:	5e                   	pop    %esi
    22dc:	5f                   	pop    %edi
    22dd:	5d                   	pop    %ebp
    22de:	c3                   	ret    
    22df:	90                   	nop

000022e0 <usbmast_run_cmd>:
    22e0:	55                   	push   %ebp
    22e1:	89 e5                	mov    %esp,%ebp
    22e3:	57                   	push   %edi
    22e4:	56                   	push   %esi
    22e5:	53                   	push   %ebx
    22e6:	83 ec 5c             	sub    $0x5c,%esp
    22e9:	89 c3                	mov    %eax,%ebx
    22eb:	89 d7                	mov    %edx,%edi
    22ed:	89 7c 24 08          	mov    %edi,0x8(%esp)
    22f1:	c7 44 24 04 ef be ad 	movl   $0xdeadbeef,0x4(%esp)
    22f8:	de 
    22f9:	89 1c 24             	mov    %ebx,(%esp)
    22fc:	e8 bf ed ff ff       	call   10c0 <usb_massstor_cmd>
    2301:	89 45 c4             	mov    %eax,-0x3c(%ebp)
    2304:	85 c0                	test   %eax,%eax
    2306:	0f 85 cc 00 00 00    	jne    23d8 <usbmast_run_cmd+0xf8>
    230c:	8b 77 1c             	mov    0x1c(%edi),%esi
    230f:	85 f6                	test   %esi,%esi
    2311:	0f 84 97 00 00 00    	je     23ae <usbmast_run_cmd+0xce>
    2317:	8b 03                	mov    (%ebx),%eax
    2319:	8b 00                	mov    (%eax),%eax
    231b:	89 04 24             	mov    %eax,(%esp)
    231e:	e8 8d 5c 00 00       	call   7fb0 <ddf_dev_get_name>
    2323:	c7 44 24 08 4c c5 02 	movl   $0x2c54c,0x8(%esp)
    232a:	00 
    232b:	89 44 24 0c          	mov    %eax,0xc(%esp)
    232f:	c7 44 24 04 01 00 00 	movl   $0x1,0x4(%esp)
    2336:	00 
    2337:	c7 04 24 ff ff ff ff 	movl   $0xffffffff,(%esp)
    233e:	e8 1d 5c 01 00       	call   17f60 <log_msg>
    2343:	8d 45 d6             	lea    -0x2a(%ebp),%eax
    2346:	c7 44 24 08 12 00 00 	movl   $0x12,0x8(%esp)
    234d:	00 
    234e:	89 44 24 04          	mov    %eax,0x4(%esp)
    2352:	89 1c 24             	mov    %ebx,(%esp)
    2355:	e8 76 fe ff ff       	call   21d0 <usbmast_request_sense>
    235a:	85 c0                	test   %eax,%eax
    235c:	0f 85 be 00 00 00    	jne    2420 <usbmast_run_cmd+0x140>
    2362:	8a 45 d8             	mov    -0x28(%ebp),%al
    2365:	31 c9                	xor    %ecx,%ecx
    2367:	83 e0 0f             	and    $0xf,%eax
    236a:	31 d2                	xor    %edx,%edx
    236c:	8a 4d e3             	mov    -0x1d(%ebp),%cl
    236f:	8a 55 e2             	mov    -0x1e(%ebp),%dl
    2372:	89 04 24             	mov    %eax,(%esp)
    2375:	89 c6                	mov    %eax,%esi
    2377:	89 55 bc             	mov    %edx,-0x44(%ebp)
    237a:	89 4d c0             	mov    %ecx,-0x40(%ebp)
    237d:	e8 de ae 00 00       	call   d260 <scsi_get_sense_key_str>
    2382:	8b 4d c0             	mov    -0x40(%ebp),%ecx
    2385:	8b 55 bc             	mov    -0x44(%ebp),%edx
    2388:	89 4c 24 10          	mov    %ecx,0x10(%esp)
    238c:	89 54 24 0c          	mov    %edx,0xc(%esp)
    2390:	89 44 24 08          	mov    %eax,0x8(%esp)
    2394:	89 74 24 04          	mov    %esi,0x4(%esp)
    2398:	c7 04 24 70 c5 02 00 	movl   $0x2c570,(%esp)
    239f:	e8 0c 59 01 00       	call   17cb0 <printf>
    23a4:	8a 45 d8             	mov    -0x28(%ebp),%al
    23a7:	83 e0 0f             	and    $0xf,%eax
    23aa:	3c 06                	cmp    $0x6,%al
    23ac:	74 12                	je     23c0 <usbmast_run_cmd+0xe0>
    23ae:	8b 45 c4             	mov    -0x3c(%ebp),%eax
    23b1:	83 c4 5c             	add    $0x5c,%esp
    23b4:	5b                   	pop    %ebx
    23b5:	5e                   	pop    %esi
    23b6:	5f                   	pop    %edi
    23b7:	5d                   	pop    %ebp
    23b8:	c3                   	ret    
    23b9:	8d b4 26 00 00 00 00 	lea    0x0(%esi,%eiz,1),%esi
    23c0:	c7 04 24 b0 c5 02 00 	movl   $0x2c5b0,(%esp)
    23c7:	e8 e4 58 01 00       	call   17cb0 <printf>
    23cc:	e9 1c ff ff ff       	jmp    22ed <usbmast_run_cmd+0xd>
    23d1:	8d b4 26 00 00 00 00 	lea    0x0(%esi,%eiz,1),%esi
    23d8:	89 04 24             	mov    %eax,(%esp)
    23db:	e8 b0 0e 01 00       	call   13290 <str_error>
    23e0:	89 c6                	mov    %eax,%esi
    23e2:	8b 03                	mov    (%ebx),%eax
    23e4:	8b 00                	mov    (%eax),%eax
    23e6:	89 04 24             	mov    %eax,(%esp)
    23e9:	e8 c2 5b 00 00       	call   7fb0 <ddf_dev_get_name>
    23ee:	89 74 24 10          	mov    %esi,0x10(%esp)
    23f2:	89 44 24 0c          	mov    %eax,0xc(%esp)
    23f6:	c7 44 24 08 ac c4 02 	movl   $0x2c4ac,0x8(%esp)
    23fd:	00 
    23fe:	c7 44 24 04 01 00 00 	movl   $0x1,0x4(%esp)
    2405:	00 
    2406:	c7 04 24 ff ff ff ff 	movl   $0xffffffff,(%esp)
    240d:	e8 4e 5b 01 00       	call   17f60 <log_msg>
    2412:	8b 45 c4             	mov    -0x3c(%ebp),%eax
    2415:	83 c4 5c             	add    $0x5c,%esp
    2418:	5b                   	pop    %ebx
    2419:	5e                   	pop    %esi
    241a:	5f                   	pop    %edi
    241b:	5d                   	pop    %ebp
    241c:	c3                   	ret    
    241d:	8d 76 00             	lea    0x0(%esi),%esi
    2420:	c7 44 24 08 43 c7 02 	movl   $0x2c743,0x8(%esp)
    2427:	00 
    2428:	c7 44 24 04 01 00 00 	movl   $0x1,0x4(%esp)
    242f:	00 
    2430:	c7 04 24 ff ff ff ff 	movl   $0xffffffff,(%esp)
    2437:	e8 24 5b 01 00       	call   17f60 <log_msg>
    243c:	c7 45 c4 f7 fe ff ff 	movl   $0xfffffef7,-0x3c(%ebp)
    2443:	8b 45 c4             	mov    -0x3c(%ebp),%eax
    2446:	83 c4 5c             	add    $0x5c,%esp
    2449:	5b                   	pop    %ebx
    244a:	5e                   	pop    %esi
    244b:	5f                   	pop    %edi
    244c:	5d                   	pop    %ebp
    244d:	c3                   	ret    
    244e:	66 90                	xchg   %ax,%ax

00002450 <usbmast_read_capacity>:
    2450:	55                   	push   %ebp
    2451:	89 e5                	mov    %esp,%ebp
    2453:	56                   	push   %esi
    2454:	53                   	push   %ebx
    2455:	83 ec 60             	sub    $0x60,%esp
    2458:	8d 75 cc             	lea    -0x34(%ebp),%esi
    245b:	8d 5d d8             	lea    -0x28(%ebp),%ebx
    245e:	c7 44 24 08 0c 00 00 	movl   $0xc,0x8(%esp)
    2465:	00 
    2466:	c7 44 24 04 00 00 00 	movl   $0x0,0x4(%esp)
    246d:	00 
    246e:	89 34 24             	mov    %esi,(%esp)
    2471:	e8 aa d5 00 00       	call   fa20 <memset>
    2476:	89 1c 24             	mov    %ebx,(%esp)
    2479:	c7 44 24 08 20 00 00 	movl   $0x20,0x8(%esp)
    2480:	00 
    2481:	c7 44 24 04 00 00 00 	movl   $0x0,0x4(%esp)
    2488:	00 
    2489:	c6 45 cc 25          	movb   $0x25,-0x34(%ebp)
    248d:	e8 8e d5 00 00       	call   fa20 <memset>
    2492:	8d 45 c4             	lea    -0x3c(%ebp),%eax
    2495:	89 da                	mov    %ebx,%edx
    2497:	89 45 e8             	mov    %eax,-0x18(%ebp)
    249a:	8b 45 08             	mov    0x8(%ebp),%eax
    249d:	89 75 d8             	mov    %esi,-0x28(%ebp)
    24a0:	c7 45 dc 0c 00 00 00 	movl   $0xc,-0x24(%ebp)
    24a7:	c7 45 ec 08 00 00 00 	movl   $0x8,-0x14(%ebp)
    24ae:	e8 2d fe ff ff       	call   22e0 <usbmast_run_cmd>
    24b3:	89 c3                	mov    %eax,%ebx
    24b5:	85 c0                	test   %eax,%eax
    24b7:	75 37                	jne    24f0 <usbmast_read_capacity+0xa0>
    24b9:	8b 45 f4             	mov    -0xc(%ebp),%eax
    24bc:	85 c0                	test   %eax,%eax
    24be:	75 78                	jne    2538 <usbmast_read_capacity+0xe8>
    24c0:	8b 45 f0             	mov    -0x10(%ebp),%eax
    24c3:	83 f8 07             	cmp    $0x7,%eax
    24c6:	0f 86 ac 00 00 00    	jbe    2578 <usbmast_read_capacity+0x128>
    24cc:	8b 45 c4             	mov    -0x3c(%ebp),%eax
    24cf:	8b 55 0c             	mov    0xc(%ebp),%edx
    24d2:	0f c8                	bswap  %eax
    24d4:	40                   	inc    %eax
    24d5:	89 02                	mov    %eax,(%edx)
    24d7:	8b 45 c8             	mov    -0x38(%ebp),%eax
    24da:	8b 55 10             	mov    0x10(%ebp),%edx
    24dd:	0f c8                	bswap  %eax
    24df:	89 02                	mov    %eax,(%edx)
    24e1:	83 c4 60             	add    $0x60,%esp
    24e4:	89 d8                	mov    %ebx,%eax
    24e6:	5b                   	pop    %ebx
    24e7:	5e                   	pop    %esi
    24e8:	5d                   	pop    %ebp
    24e9:	c3                   	ret    
    24ea:	8d b6 00 00 00 00    	lea    0x0(%esi),%esi
    24f0:	89 04 24             	mov    %eax,(%esp)
    24f3:	e8 98 0d 01 00       	call   13290 <str_error>
    24f8:	8b 55 08             	mov    0x8(%ebp),%edx
    24fb:	89 c6                	mov    %eax,%esi
    24fd:	8b 02                	mov    (%edx),%eax
    24ff:	8b 00                	mov    (%eax),%eax
    2501:	89 04 24             	mov    %eax,(%esp)
    2504:	e8 a7 5a 00 00       	call   7fb0 <ddf_dev_get_name>
    2509:	89 74 24 10          	mov    %esi,0x10(%esp)
    250d:	89 44 24 0c          	mov    %eax,0xc(%esp)
    2511:	c7 44 24 08 d8 c5 02 	movl   $0x2c5d8,0x8(%esp)
    2518:	00 
    2519:	c7 44 24 04 01 00 00 	movl   $0x1,0x4(%esp)
    2520:	00 
    2521:	c7 04 24 ff ff ff ff 	movl   $0xffffffff,(%esp)
    2528:	e8 33 5a 01 00       	call   17f60 <log_msg>
    252d:	83 c4 60             	add    $0x60,%esp
    2530:	89 d8                	mov    %ebx,%eax
    2532:	5b                   	pop    %ebx
    2533:	5e                   	pop    %esi
    2534:	5d                   	pop    %ebp
    2535:	c3                   	ret    
    2536:	66 90                	xchg   %ax,%ax
    2538:	8b 55 08             	mov    0x8(%ebp),%edx
    253b:	bb f7 fe ff ff       	mov    $0xfffffef7,%ebx
    2540:	8b 02                	mov    (%edx),%eax
    2542:	8b 00                	mov    (%eax),%eax
    2544:	89 04 24             	mov    %eax,(%esp)
    2547:	e8 64 5a 00 00       	call   7fb0 <ddf_dev_get_name>
    254c:	c7 44 24 08 10 c6 02 	movl   $0x2c610,0x8(%esp)
    2553:	00 
    2554:	89 44 24 0c          	mov    %eax,0xc(%esp)
    2558:	c7 44 24 04 01 00 00 	movl   $0x1,0x4(%esp)
    255f:	00 
    2560:	c7 04 24 ff ff ff ff 	movl   $0xffffffff,(%esp)
    2567:	e8 f4 59 01 00       	call   17f60 <log_msg>
    256c:	e9 70 ff ff ff       	jmp    24e1 <usbmast_read_capacity+0x91>
    2571:	8d b4 26 00 00 00 00 	lea    0x0(%esi,%eiz,1),%esi
    2578:	89 44 24 0c          	mov    %eax,0xc(%esp)
    257c:	c7 44 24 08 40 c6 02 	movl   $0x2c640,0x8(%esp)
    2583:	00 
    2584:	c7 44 24 04 01 00 00 	movl   $0x1,0x4(%esp)
    258b:	00 
    258c:	c7 04 24 ff ff ff ff 	movl   $0xffffffff,(%esp)
    2593:	e8 c8 59 01 00       	call   17f60 <log_msg>
    2598:	bb f7 fe ff ff       	mov    $0xfffffef7,%ebx
    259d:	e9 3f ff ff ff       	jmp    24e1 <usbmast_read_capacity+0x91>
    25a2:	8d b4 26 00 00 00 00 	lea    0x0(%esi,%eiz,1),%esi
    25a9:	8d bc 27 00 00 00 00 	lea    0x0(%edi,%eiz,1),%edi

000025b0 <usbmast_read>:
    25b0:	55                   	push   %ebp
    25b1:	89 e5                	mov    %esp,%ebp
    25b3:	57                   	push   %edi
    25b4:	56                   	push   %esi
    25b5:	53                   	push   %ebx
    25b6:	83 ec 5c             	sub    $0x5c,%esp
    25b9:	8b 75 10             	mov    0x10(%ebp),%esi
    25bc:	8b 7d 0c             	mov    0xc(%ebp),%edi
    25bf:	8b 5d 14             	mov    0x14(%ebp),%ebx
    25c2:	85 f6                	test   %esi,%esi
    25c4:	0f 85 f6 00 00 00    	jne    26c0 <usbmast_read+0x110>
    25ca:	81 fb ff ff 00 00    	cmp    $0xffff,%ebx
    25d0:	0f 87 ea 00 00 00    	ja     26c0 <usbmast_read+0x110>
    25d6:	8d 75 be             	lea    -0x42(%ebp),%esi
    25d9:	c7 44 24 08 0a 00 00 	movl   $0xa,0x8(%esp)
    25e0:	00 
    25e1:	0f cf                	bswap  %edi
    25e3:	c7 44 24 04 00 00 00 	movl   $0x0,0x4(%esp)
    25ea:	00 
    25eb:	89 34 24             	mov    %esi,(%esp)
    25ee:	e8 2d d4 00 00       	call   fa20 <memset>
    25f3:	89 7d c0             	mov    %edi,-0x40(%ebp)
    25f6:	89 d8                	mov    %ebx,%eax
    25f8:	8d 7d c8             	lea    -0x38(%ebp),%edi
    25fb:	66 c1 c0 08          	rol    $0x8,%ax
    25ff:	89 3c 24             	mov    %edi,(%esp)
    2602:	c7 44 24 08 20 00 00 	movl   $0x20,0x8(%esp)
    2609:	00 
    260a:	c7 44 24 04 00 00 00 	movl   $0x0,0x4(%esp)
    2611:	00 
    2612:	c6 45 be 28          	movb   $0x28,-0x42(%ebp)
    2616:	66 89 45 c5          	mov    %ax,-0x3b(%ebp)
    261a:	e8 01 d4 00 00       	call   fa20 <memset>
    261f:	8b 55 08             	mov    0x8(%ebp),%edx
    2622:	8b 45 18             	mov    0x18(%ebp),%eax
    2625:	89 45 d8             	mov    %eax,-0x28(%ebp)
    2628:	89 d8                	mov    %ebx,%eax
    262a:	8b 4a 14             	mov    0x14(%edx),%ecx
    262d:	89 fa                	mov    %edi,%edx
    262f:	0f af c1             	imul   %ecx,%eax
    2632:	89 45 dc             	mov    %eax,-0x24(%ebp)
    2635:	8b 45 08             	mov    0x8(%ebp),%eax
    2638:	89 75 c8             	mov    %esi,-0x38(%ebp)
    263b:	c7 45 cc 0a 00 00 00 	movl   $0xa,-0x34(%ebp)
    2642:	e8 99 fc ff ff       	call   22e0 <usbmast_run_cmd>
    2647:	89 c7                	mov    %eax,%edi
    2649:	85 c0                	test   %eax,%eax
    264b:	75 2b                	jne    2678 <usbmast_read+0xc8>
    264d:	8b 75 e4             	mov    -0x1c(%ebp),%esi
    2650:	85 f6                	test   %esi,%esi
    2652:	75 7c                	jne    26d0 <usbmast_read+0x120>
    2654:	8b 55 08             	mov    0x8(%ebp),%edx
    2657:	8b 45 e0             	mov    -0x20(%ebp),%eax
    265a:	8b 4a 14             	mov    0x14(%edx),%ecx
    265d:	0f af d9             	imul   %ecx,%ebx
    2660:	39 d8                	cmp    %ebx,%eax
    2662:	0f 82 a8 00 00 00    	jb     2710 <usbmast_read+0x160>
    2668:	83 c4 5c             	add    $0x5c,%esp
    266b:	89 f8                	mov    %edi,%eax
    266d:	5b                   	pop    %ebx
    266e:	5e                   	pop    %esi
    266f:	5f                   	pop    %edi
    2670:	5d                   	pop    %ebp
    2671:	c3                   	ret    
    2672:	8d b6 00 00 00 00    	lea    0x0(%esi),%esi
    2678:	89 04 24             	mov    %eax,(%esp)
    267b:	e8 10 0c 01 00       	call   13290 <str_error>
    2680:	8b 55 08             	mov    0x8(%ebp),%edx
    2683:	89 c3                	mov    %eax,%ebx
    2685:	8b 02                	mov    (%edx),%eax
    2687:	8b 00                	mov    (%eax),%eax
    2689:	89 04 24             	mov    %eax,(%esp)
    268c:	e8 1f 59 00 00       	call   7fb0 <ddf_dev_get_name>
    2691:	89 5c 24 10          	mov    %ebx,0x10(%esp)
    2695:	89 44 24 0c          	mov    %eax,0xc(%esp)
    2699:	c7 44 24 08 70 c6 02 	movl   $0x2c670,0x8(%esp)
    26a0:	00 
    26a1:	c7 44 24 04 01 00 00 	movl   $0x1,0x4(%esp)
    26a8:	00 
    26a9:	c7 04 24 ff ff ff ff 	movl   $0xffffffff,(%esp)
    26b0:	e8 ab 58 01 00       	call   17f60 <log_msg>
    26b5:	83 c4 5c             	add    $0x5c,%esp
    26b8:	89 f8                	mov    %edi,%eax
    26ba:	5b                   	pop    %ebx
    26bb:	5e                   	pop    %esi
    26bc:	5f                   	pop    %edi
    26bd:	5d                   	pop    %ebp
    26be:	c3                   	ret    
    26bf:	90                   	nop
    26c0:	83 c4 5c             	add    $0x5c,%esp
    26c3:	bf fd ff ff ff       	mov    $0xfffffffd,%edi
    26c8:	89 f8                	mov    %edi,%eax
    26ca:	5b                   	pop    %ebx
    26cb:	5e                   	pop    %esi
    26cc:	5f                   	pop    %edi
    26cd:	5d                   	pop    %ebp
    26ce:	c3                   	ret    
    26cf:	90                   	nop
    26d0:	8b 55 08             	mov    0x8(%ebp),%edx
    26d3:	bf f7 fe ff ff       	mov    $0xfffffef7,%edi
    26d8:	8b 02                	mov    (%edx),%eax
    26da:	8b 00                	mov    (%eax),%eax
    26dc:	89 04 24             	mov    %eax,(%esp)
    26df:	e8 cc 58 00 00       	call   7fb0 <ddf_dev_get_name>
    26e4:	c7 44 24 08 9c c6 02 	movl   $0x2c69c,0x8(%esp)
    26eb:	00 
    26ec:	89 44 24 0c          	mov    %eax,0xc(%esp)
    26f0:	c7 44 24 04 01 00 00 	movl   $0x1,0x4(%esp)
    26f7:	00 
    26f8:	c7 04 24 ff ff ff ff 	movl   $0xffffffff,(%esp)
    26ff:	e8 5c 58 01 00       	call   17f60 <log_msg>
    2704:	e9 5f ff ff ff       	jmp    2668 <usbmast_read+0xb8>
    2709:	8d b4 26 00 00 00 00 	lea    0x0(%esi,%eiz,1),%esi
    2710:	89 44 24 0c          	mov    %eax,0xc(%esp)
    2714:	c7 44 24 08 c4 c6 02 	movl   $0x2c6c4,0x8(%esp)
    271b:	00 
    271c:	c7 44 24 04 01 00 00 	movl   $0x1,0x4(%esp)
    2723:	00 
    2724:	c7 04 24 ff ff ff ff 	movl   $0xffffffff,(%esp)
    272b:	e8 30 58 01 00       	call   17f60 <log_msg>
    2730:	bf f7 fe ff ff       	mov    $0xfffffef7,%edi
    2735:	e9 2e ff ff ff       	jmp    2668 <usbmast_read+0xb8>
    273a:	8d b6 00 00 00 00    	lea    0x0(%esi),%esi

00002740 <usbmast_write>:
    2740:	55                   	push   %ebp
    2741:	89 e5                	mov    %esp,%ebp
    2743:	57                   	push   %edi
    2744:	56                   	push   %esi
    2745:	53                   	push   %ebx
    2746:	83 ec 5c             	sub    $0x5c,%esp
    2749:	8b 4d 10             	mov    0x10(%ebp),%ecx
    274c:	8b 7d 0c             	mov    0xc(%ebp),%edi
    274f:	8b 5d 14             	mov    0x14(%ebp),%ebx
    2752:	85 c9                	test   %ecx,%ecx
    2754:	0f 85 de 00 00 00    	jne    2838 <usbmast_write+0xf8>
    275a:	81 fb ff ff 00 00    	cmp    $0xffff,%ebx
    2760:	0f 87 d2 00 00 00    	ja     2838 <usbmast_write+0xf8>
    2766:	8d 75 be             	lea    -0x42(%ebp),%esi
    2769:	c7 44 24 08 0a 00 00 	movl   $0xa,0x8(%esp)
    2770:	00 
    2771:	0f cf                	bswap  %edi
    2773:	c7 44 24 04 00 00 00 	movl   $0x0,0x4(%esp)
    277a:	00 
    277b:	89 34 24             	mov    %esi,(%esp)
    277e:	e8 9d d2 00 00       	call   fa20 <memset>
    2783:	89 7d c0             	mov    %edi,-0x40(%ebp)
    2786:	89 d8                	mov    %ebx,%eax
    2788:	8d 7d c8             	lea    -0x38(%ebp),%edi
    278b:	66 c1 c0 08          	rol    $0x8,%ax
    278f:	c7 44 24 08 20 00 00 	movl   $0x20,0x8(%esp)
    2796:	00 
    2797:	c7 44 24 04 00 00 00 	movl   $0x0,0x4(%esp)
    279e:	00 
    279f:	89 3c 24             	mov    %edi,(%esp)
    27a2:	c6 45 be 2a          	movb   $0x2a,-0x42(%ebp)
    27a6:	66 89 45 c5          	mov    %ax,-0x3b(%ebp)
    27aa:	e8 71 d2 00 00       	call   fa20 <memset>
    27af:	8b 45 18             	mov    0x18(%ebp),%eax
    27b2:	89 75 c8             	mov    %esi,-0x38(%ebp)
    27b5:	89 45 d0             	mov    %eax,-0x30(%ebp)
    27b8:	8b 45 08             	mov    0x8(%ebp),%eax
    27bb:	c7 45 cc 0a 00 00 00 	movl   $0xa,-0x34(%ebp)
    27c2:	8b 50 14             	mov    0x14(%eax),%edx
    27c5:	0f af da             	imul   %edx,%ebx
    27c8:	89 fa                	mov    %edi,%edx
    27ca:	89 5d d4             	mov    %ebx,-0x2c(%ebp)
    27cd:	e8 0e fb ff ff       	call   22e0 <usbmast_run_cmd>
    27d2:	89 c3                	mov    %eax,%ebx
    27d4:	85 c0                	test   %eax,%eax
    27d6:	75 18                	jne    27f0 <usbmast_write+0xb0>
    27d8:	8b 7d e4             	mov    -0x1c(%ebp),%edi
    27db:	85 ff                	test   %edi,%edi
    27dd:	75 69                	jne    2848 <usbmast_write+0x108>
    27df:	83 c4 5c             	add    $0x5c,%esp
    27e2:	89 d8                	mov    %ebx,%eax
    27e4:	5b                   	pop    %ebx
    27e5:	5e                   	pop    %esi
    27e6:	5f                   	pop    %edi
    27e7:	5d                   	pop    %ebp
    27e8:	c3                   	ret    
    27e9:	8d b4 26 00 00 00 00 	lea    0x0(%esi,%eiz,1),%esi
    27f0:	89 04 24             	mov    %eax,(%esp)
    27f3:	e8 98 0a 01 00       	call   13290 <str_error>
    27f8:	8b 55 08             	mov    0x8(%ebp),%edx
    27fb:	89 c7                	mov    %eax,%edi
    27fd:	8b 02                	mov    (%edx),%eax
    27ff:	8b 00                	mov    (%eax),%eax
    2801:	89 04 24             	mov    %eax,(%esp)
    2804:	e8 a7 57 00 00       	call   7fb0 <ddf_dev_get_name>
    2809:	89 7c 24 10          	mov    %edi,0x10(%esp)
    280d:	89 44 24 0c          	mov    %eax,0xc(%esp)
    2811:	c7 44 24 08 ec c6 02 	movl   $0x2c6ec,0x8(%esp)
    2818:	00 
    2819:	c7 44 24 04 01 00 00 	movl   $0x1,0x4(%esp)
    2820:	00 
    2821:	c7 04 24 ff ff ff ff 	movl   $0xffffffff,(%esp)
    2828:	e8 33 57 01 00       	call   17f60 <log_msg>
    282d:	83 c4 5c             	add    $0x5c,%esp
    2830:	89 d8                	mov    %ebx,%eax
    2832:	5b                   	pop    %ebx
    2833:	5e                   	pop    %esi
    2834:	5f                   	pop    %edi
    2835:	5d                   	pop    %ebp
    2836:	c3                   	ret    
    2837:	90                   	nop
    2838:	83 c4 5c             	add    $0x5c,%esp
    283b:	bb fd ff ff ff       	mov    $0xfffffffd,%ebx
    2840:	89 d8                	mov    %ebx,%eax
    2842:	5b                   	pop    %ebx
    2843:	5e                   	pop    %esi
    2844:	5f                   	pop    %edi
    2845:	5d                   	pop    %ebp
    2846:	c3                   	ret    
    2847:	90                   	nop
    2848:	8b 55 08             	mov    0x8(%ebp),%edx
    284b:	bb f7 fe ff ff       	mov    $0xfffffef7,%ebx
    2850:	8b 02                	mov    (%edx),%eax
    2852:	8b 00                	mov    (%eax),%eax
    2854:	89 04 24             	mov    %eax,(%esp)
    2857:	e8 54 57 00 00       	call   7fb0 <ddf_dev_get_name>
    285c:	c7 44 24 08 1c c7 02 	movl   $0x2c71c,0x8(%esp)
    2863:	00 
    2864:	89 44 24 0c          	mov    %eax,0xc(%esp)
    2868:	c7 44 24 04 01 00 00 	movl   $0x1,0x4(%esp)
    286f:	00 
    2870:	c7 04 24 ff ff ff ff 	movl   $0xffffffff,(%esp)
    2877:	e8 e4 56 01 00       	call   17f60 <log_msg>
    287c:	e9 5e ff ff ff       	jmp    27df <usbmast_write+0x9f>
    2881:	66 90                	xchg   %ax,%ax
    2883:	66 90                	xchg   %ax,%ax
    2885:	66 90                	xchg   %ax,%ax
    2887:	66 90                	xchg   %ax,%ax
    2889:	66 90                	xchg   %ax,%ax
    288b:	66 90                	xchg   %ax,%ax
    288d:	66 90                	xchg   %ax,%ax
    288f:	90                   	nop

00002890 <usb_driver_main>:
    2890:	55                   	push   %ebp
    2891:	89 e5                	mov    %esp,%ebp
    2893:	83 ec 18             	sub    $0x18,%esp
    2896:	8b 45 08             	mov    0x8(%ebp),%eax
    2899:	85 c0                	test   %eax,%eax
    289b:	74 1a                	je     28b7 <usb_driver_main+0x27>
    289d:	8b 10                	mov    (%eax),%edx
    289f:	a3 68 02 03 00       	mov    %eax,0x30268
    28a4:	89 15 08 fd 02 00    	mov    %edx,0x2fd08
    28aa:	c7 45 08 08 fd 02 00 	movl   $0x2fd08,0x8(%ebp)
    28b1:	c9                   	leave  
    28b2:	e9 49 5e 00 00       	jmp    8700 <ddf_driver_main>
    28b7:	c7 44 24 08 43 00 00 	movl   $0x43,0x8(%esp)
    28be:	00 
    28bf:	c7 44 24 04 5f c7 02 	movl   $0x2c75f,0x4(%esp)
    28c6:	00 
    28c7:	c7 04 24 6c c7 02 00 	movl   $0x2c76c,(%esp)
    28ce:	e8 8d 4f 02 00       	call   27860 <assert_abort>
    28d3:	8d b6 00 00 00 00    	lea    0x0(%esi),%esi
    28d9:	8d bc 27 00 00 00 00 	lea    0x0(%edi,%eiz,1),%edi

000028e0 <usb_device_retrieve_descriptors>:
    28e0:	55                   	push   %ebp
    28e1:	89 e5                	mov    %esp,%ebp
    28e3:	57                   	push   %edi
    28e4:	56                   	push   %esi
    28e5:	53                   	push   %ebx
    28e6:	83 ec 1c             	sub    $0x1c,%esp
    28e9:	8b 5d 0c             	mov    0xc(%ebp),%ebx
    28ec:	8b 75 08             	mov    0x8(%ebp),%esi
    28ef:	85 db                	test   %ebx,%ebx
    28f1:	74 53                	je     2946 <usb_device_retrieve_descriptors+0x66>
    28f3:	c7 43 14 00 00 00 00 	movl   $0x0,0x14(%ebx)
    28fa:	89 34 24             	mov    %esi,(%esp)
    28fd:	e8 6e 0b 00 00       	call   3470 <usb_pipe_start_long_transfer>
    2902:	89 5c 24 04          	mov    %ebx,0x4(%esp)
    2906:	89 34 24             	mov    %esi,(%esp)
    2909:	e8 22 1c 00 00       	call   4530 <usb_request_get_device_descriptor>
    290e:	89 c7                	mov    %eax,%edi
    2910:	85 c0                	test   %eax,%eax
    2912:	75 20                	jne    2934 <usb_device_retrieve_descriptors+0x54>
    2914:	8d 43 18             	lea    0x18(%ebx),%eax
    2917:	83 c3 14             	add    $0x14,%ebx
    291a:	89 44 24 0c          	mov    %eax,0xc(%esp)
    291e:	89 5c 24 08          	mov    %ebx,0x8(%esp)
    2922:	c7 44 24 04 00 00 00 	movl   $0x0,0x4(%esp)
    2929:	00 
    292a:	89 34 24             	mov    %esi,(%esp)
    292d:	e8 0e 1e 00 00       	call   4740 <usb_request_get_full_configuration_descriptor_alloc>
    2932:	89 c7                	mov    %eax,%edi
    2934:	89 34 24             	mov    %esi,(%esp)
    2937:	e8 b4 0b 00 00       	call   34f0 <usb_pipe_end_long_transfer>
    293c:	83 c4 1c             	add    $0x1c,%esp
    293f:	89 f8                	mov    %edi,%eax
    2941:	5b                   	pop    %ebx
    2942:	5e                   	pop    %esi
    2943:	5f                   	pop    %edi
    2944:	5d                   	pop    %ebp
    2945:	c3                   	ret    
    2946:	c7 44 24 08 ee 00 00 	movl   $0xee,0x8(%esp)
    294d:	00 
    294e:	c7 44 24 04 5f c7 02 	movl   $0x2c75f,0x4(%esp)
    2955:	00 
    2956:	c7 04 24 78 c7 02 00 	movl   $0x2c778,(%esp)
    295d:	e8 fe 4e 02 00       	call   27860 <assert_abort>
    2962:	8d b4 26 00 00 00 00 	lea    0x0(%esi,%eiz,1),%esi
    2969:	8d bc 27 00 00 00 00 	lea    0x0(%edi,%eiz,1),%edi

00002970 <usb_device_release_descriptors>:
    2970:	55                   	push   %ebp
    2971:	89 e5                	mov    %esp,%ebp
    2973:	53                   	push   %ebx
    2974:	83 ec 14             	sub    $0x14,%esp
    2977:	8b 5d 08             	mov    0x8(%ebp),%ebx
    297a:	85 db                	test   %ebx,%ebx
    297c:	74 18                	je     2996 <usb_device_release_descriptors+0x26>
    297e:	8b 43 14             	mov    0x14(%ebx),%eax
    2981:	89 04 24             	mov    %eax,(%esp)
    2984:	e8 87 a7 01 00       	call   1d110 <free>
    2989:	c7 43 14 00 00 00 00 	movl   $0x0,0x14(%ebx)
    2990:	83 c4 14             	add    $0x14,%esp
    2993:	5b                   	pop    %ebx
    2994:	5d                   	pop    %ebp
    2995:	c3                   	ret    
    2996:	c7 44 24 08 0e 01 00 	movl   $0x10e,0x8(%esp)
    299d:	00 
    299e:	c7 44 24 04 5f c7 02 	movl   $0x2c75f,0x4(%esp)
    29a5:	00 
    29a6:	c7 04 24 8c c7 02 00 	movl   $0x2c78c,(%esp)
    29ad:	e8 ae 4e 02 00       	call   27860 <assert_abort>
    29b2:	8d b4 26 00 00 00 00 	lea    0x0(%esi,%eiz,1),%esi
    29b9:	8d bc 27 00 00 00 00 	lea    0x0(%edi,%eiz,1),%edi

000029c0 <usb_device_create_pipes>:
    29c0:	55                   	push   %ebp
    29c1:	89 e5                	mov    %esp,%ebp
    29c3:	57                   	push   %edi
    29c4:	56                   	push   %esi
    29c5:	53                   	push   %ebx
    29c6:	83 ec 3c             	sub    $0x3c,%esp
    29c9:	8b 45 08             	mov    0x8(%ebp),%eax
    29cc:	8b 55 0c             	mov    0xc(%ebp),%edx
    29cf:	8b 7d 18             	mov    0x18(%ebp),%edi
    29d2:	8b 75 1c             	mov    0x1c(%ebp),%esi
    29d5:	85 c0                	test   %eax,%eax
    29d7:	0f 84 ef 01 00 00    	je     2bcc <usb_device_create_pipes+0x20c>
    29dd:	8b 45 10             	mov    0x10(%ebp),%eax
    29e0:	85 c0                	test   %eax,%eax
    29e2:	0f 84 c8 01 00 00    	je     2bb0 <usb_device_create_pipes+0x1f0>
    29e8:	8b 45 14             	mov    0x14(%ebp),%eax
    29eb:	85 c0                	test   %eax,%eax
    29ed:	0f 84 a1 01 00 00    	je     2b94 <usb_device_create_pipes+0x1d4>
    29f3:	8b 45 20             	mov    0x20(%ebp),%eax
    29f6:	85 c0                	test   %eax,%eax
    29f8:	0f 84 7a 01 00 00    	je     2b78 <usb_device_create_pipes+0x1b8>
    29fe:	85 d2                	test   %edx,%edx
    2a00:	74 1a                	je     2a1c <usb_device_create_pipes+0x5c>
    2a02:	8b 02                	mov    (%edx),%eax
    2a04:	bb 01 00 00 00       	mov    $0x1,%ebx
    2a09:	85 c0                	test   %eax,%eax
    2a0b:	75 04                	jne    2a11 <usb_device_create_pipes+0x51>
    2a0d:	eb 0d                	jmp    2a1c <usb_device_create_pipes+0x5c>
    2a0f:	90                   	nop
    2a10:	43                   	inc    %ebx
    2a11:	8b 0c 9a             	mov    (%edx,%ebx,4),%ecx
    2a14:	85 c9                	test   %ecx,%ecx
    2a16:	75 f8                	jne    2a10 <usb_device_create_pipes+0x50>
    2a18:	85 db                	test   %ebx,%ebx
    2a1a:	75 2c                	jne    2a48 <usb_device_create_pipes+0x88>
    2a1c:	8b 55 24             	mov    0x24(%ebp),%edx
    2a1f:	85 d2                	test   %edx,%edx
    2a21:	74 09                	je     2a2c <usb_device_create_pipes+0x6c>
    2a23:	8b 4d 24             	mov    0x24(%ebp),%ecx
    2a26:	c7 01 00 00 00 00    	movl   $0x0,(%ecx)
    2a2c:	8b 5d 20             	mov    0x20(%ebp),%ebx
    2a2f:	31 d2                	xor    %edx,%edx
    2a31:	c7 03 00 00 00 00    	movl   $0x0,(%ebx)
    2a37:	83 c4 3c             	add    $0x3c,%esp
    2a3a:	89 d0                	mov    %edx,%eax
    2a3c:	5b                   	pop    %ebx
    2a3d:	5e                   	pop    %esi
    2a3e:	5f                   	pop    %edi
    2a3f:	5d                   	pop    %ebp
    2a40:	c3                   	ret    
    2a41:	8d b4 26 00 00 00 00 	lea    0x0(%esi,%eiz,1),%esi
    2a48:	c7 44 24 04 30 00 00 	movl   $0x30,0x4(%esp)
    2a4f:	00 
    2a50:	89 1c 24             	mov    %ebx,(%esp)
    2a53:	89 55 d8             	mov    %edx,-0x28(%ebp)
    2a56:	e8 45 a5 01 00       	call   1cfa0 <calloc>
    2a5b:	8b 55 d8             	mov    -0x28(%ebp),%edx
    2a5e:	89 45 e0             	mov    %eax,-0x20(%ebp)
    2a61:	85 c0                	test   %eax,%eax
    2a63:	0f 84 05 01 00 00    	je     2b6e <usb_device_create_pipes+0x1ae>
    2a69:	89 45 dc             	mov    %eax,-0x24(%ebp)
    2a6c:	8d 0c 9a             	lea    (%edx,%ebx,4),%ecx
    2a6f:	89 5d e4             	mov    %ebx,-0x1c(%ebp)
    2a72:	8d b6 00 00 00 00    	lea    0x0(%esi),%esi
    2a78:	8b 1a                	mov    (%edx),%ebx
    2a7a:	83 c2 04             	add    $0x4,%edx
    2a7d:	89 58 18             	mov    %ebx,0x18(%eax)
    2a80:	89 78 1c             	mov    %edi,0x1c(%eax)
    2a83:	89 70 20             	mov    %esi,0x20(%eax)
    2a86:	83 c0 30             	add    $0x30,%eax
    2a89:	39 ca                	cmp    %ecx,%edx
    2a8b:	75 eb                	jne    2a78 <usb_device_create_pipes+0xb8>
    2a8d:	8b 4d 08             	mov    0x8(%ebp),%ecx
    2a90:	8b 5d e4             	mov    -0x1c(%ebp),%ebx
    2a93:	89 4c 24 10          	mov    %ecx,0x10(%esp)
    2a97:	8b 4d 14             	mov    0x14(%ebp),%ecx
    2a9a:	89 4c 24 0c          	mov    %ecx,0xc(%esp)
    2a9e:	8b 45 e0             	mov    -0x20(%ebp),%eax
    2aa1:	8b 4d 10             	mov    0x10(%ebp),%ecx
    2aa4:	89 5c 24 04          	mov    %ebx,0x4(%esp)
    2aa8:	89 4c 24 08          	mov    %ecx,0x8(%esp)
    2aac:	89 04 24             	mov    %eax,(%esp)
    2aaf:	e8 5c 11 00 00       	call   3c10 <usb_pipe_initialize_from_configuration>
    2ab4:	89 c2                	mov    %eax,%edx
    2ab6:	85 c0                	test   %eax,%eax
    2ab8:	0f 85 7f 00 00 00    	jne    2b3d <usb_device_create_pipes+0x17d>
    2abe:	8b 75 e0             	mov    -0x20(%ebp),%esi
    2ac1:	31 ff                	xor    %edi,%edi
    2ac3:	89 45 e4             	mov    %eax,-0x1c(%ebp)
    2ac6:	eb 08                	jmp    2ad0 <usb_device_create_pipes+0x110>
    2ac8:	47                   	inc    %edi
    2ac9:	83 c6 30             	add    $0x30,%esi
    2acc:	39 df                	cmp    %ebx,%edi
    2ace:	74 48                	je     2b18 <usb_device_create_pipes+0x158>
    2ad0:	80 7e 2c 00          	cmpb   $0x0,0x2c(%esi)
    2ad4:	74 f2                	je     2ac8 <usb_device_create_pipes+0x108>
    2ad6:	8b 46 24             	mov    0x24(%esi),%eax
    2ad9:	8a 40 06             	mov    0x6(%eax),%al
    2adc:	89 34 24             	mov    %esi,(%esp)
    2adf:	25 ff 00 00 00       	and    $0xff,%eax
    2ae4:	89 44 24 04          	mov    %eax,0x4(%esp)
    2ae8:	e8 23 10 00 00       	call   3b10 <usb_pipe_register>
    2aed:	85 c0                	test   %eax,%eax
    2aef:	74 d7                	je     2ac8 <usb_device_create_pipes+0x108>
    2af1:	31 f6                	xor    %esi,%esi
    2af3:	89 45 e4             	mov    %eax,-0x1c(%ebp)
    2af6:	8b 7d dc             	mov    -0x24(%ebp),%edi
    2af9:	eb 0d                	jmp    2b08 <usb_device_create_pipes+0x148>
    2afb:	90                   	nop
    2afc:	8d 74 26 00          	lea    0x0(%esi,%eiz,1),%esi
    2b00:	46                   	inc    %esi
    2b01:	83 c7 30             	add    $0x30,%edi
    2b04:	39 de                	cmp    %ebx,%esi
    2b06:	74 4b                	je     2b53 <usb_device_create_pipes+0x193>
    2b08:	80 7f 2c 00          	cmpb   $0x0,0x2c(%edi)
    2b0c:	74 f2                	je     2b00 <usb_device_create_pipes+0x140>
    2b0e:	89 3c 24             	mov    %edi,(%esp)
    2b11:	e8 8a 10 00 00       	call   3ba0 <usb_pipe_unregister>
    2b16:	eb e8                	jmp    2b00 <usb_device_create_pipes+0x140>
    2b18:	8b 4d 20             	mov    0x20(%ebp),%ecx
    2b1b:	8b 45 e0             	mov    -0x20(%ebp),%eax
    2b1e:	8b 55 e4             	mov    -0x1c(%ebp),%edx
    2b21:	89 01                	mov    %eax,(%ecx)
    2b23:	8b 45 24             	mov    0x24(%ebp),%eax
    2b26:	85 c0                	test   %eax,%eax
    2b28:	0f 84 09 ff ff ff    	je     2a37 <usb_device_create_pipes+0x77>
    2b2e:	8b 4d 24             	mov    0x24(%ebp),%ecx
    2b31:	89 d0                	mov    %edx,%eax
    2b33:	89 39                	mov    %edi,(%ecx)
    2b35:	83 c4 3c             	add    $0x3c,%esp
    2b38:	5b                   	pop    %ebx
    2b39:	5e                   	pop    %esi
    2b3a:	5f                   	pop    %edi
    2b3b:	5d                   	pop    %ebp
    2b3c:	c3                   	ret    
    2b3d:	8b 45 e0             	mov    -0x20(%ebp),%eax
    2b40:	89 55 d8             	mov    %edx,-0x28(%ebp)
    2b43:	89 04 24             	mov    %eax,(%esp)
    2b46:	e8 c5 a5 01 00       	call   1d110 <free>
    2b4b:	8b 55 d8             	mov    -0x28(%ebp),%edx
    2b4e:	e9 e4 fe ff ff       	jmp    2a37 <usb_device_create_pipes+0x77>
    2b53:	8b 45 e0             	mov    -0x20(%ebp),%eax
    2b56:	8b 4d e4             	mov    -0x1c(%ebp),%ecx
    2b59:	89 04 24             	mov    %eax,(%esp)
    2b5c:	89 4d d8             	mov    %ecx,-0x28(%ebp)
    2b5f:	e8 ac a5 01 00       	call   1d110 <free>
    2b64:	8b 4d d8             	mov    -0x28(%ebp),%ecx
    2b67:	89 ca                	mov    %ecx,%edx
    2b69:	e9 c9 fe ff ff       	jmp    2a37 <usb_device_create_pipes+0x77>
    2b6e:	ba fe ff ff ff       	mov    $0xfffffffe,%edx
    2b73:	e9 bf fe ff ff       	jmp    2a37 <usb_device_create_pipes+0x77>
    2b78:	c7 44 24 08 2f 01 00 	movl   $0x12f,0x8(%esp)
    2b7f:	00 
    2b80:	c7 44 24 04 5f c7 02 	movl   $0x2c75f,0x4(%esp)
    2b87:	00 
    2b88:	c7 04 24 d0 c7 02 00 	movl   $0x2c7d0,(%esp)
    2b8f:	e8 cc 4c 02 00       	call   27860 <assert_abort>
    2b94:	c7 44 24 08 2e 01 00 	movl   $0x12e,0x8(%esp)
    2b9b:	00 
    2b9c:	c7 44 24 04 5f c7 02 	movl   $0x2c75f,0x4(%esp)
    2ba3:	00 
    2ba4:	c7 04 24 ba c7 02 00 	movl   $0x2c7ba,(%esp)
    2bab:	e8 b0 4c 02 00       	call   27860 <assert_abort>
    2bb0:	c7 44 24 08 2d 01 00 	movl   $0x12d,0x8(%esp)
    2bb7:	00 
    2bb8:	c7 44 24 04 5f c7 02 	movl   $0x2c75f,0x4(%esp)
    2bbf:	00 
    2bc0:	c7 04 24 a5 c7 02 00 	movl   $0x2c7a5,(%esp)
    2bc7:	e8 94 4c 02 00       	call   27860 <assert_abort>
    2bcc:	c7 44 24 08 2c 01 00 	movl   $0x12c,0x8(%esp)
    2bd3:	00 
    2bd4:	c7 44 24 04 5f c7 02 	movl   $0x2c75f,0x4(%esp)
    2bdb:	00 
    2bdc:	c7 04 24 98 c7 02 00 	movl   $0x2c798,(%esp)
    2be3:	e8 78 4c 02 00       	call   27860 <assert_abort>
    2be8:	90                   	nop
    2be9:	8d b4 26 00 00 00 00 	lea    0x0(%esi,%eiz,1),%esi

00002bf0 <usb_device_select_interface>:
    2bf0:	55                   	push   %ebp
    2bf1:	89 e5                	mov    %esp,%ebp
    2bf3:	57                   	push   %edi
    2bf4:	56                   	push   %esi
    2bf5:	53                   	push   %ebx
    2bf6:	83 ec 3c             	sub    $0x3c,%esp
    2bf9:	8b 7d 08             	mov    0x8(%ebp),%edi
    2bfc:	8a 45 0c             	mov    0xc(%ebp),%al
    2bff:	88 45 df             	mov    %al,-0x21(%ebp)
    2c02:	8b 4f 44             	mov    0x44(%edi),%ecx
    2c05:	85 c9                	test   %ecx,%ecx
    2c07:	0f 88 f0 00 00 00    	js     2cfd <usb_device_select_interface+0x10d>
    2c0d:	8b 47 40             	mov    0x40(%edi),%eax
    2c10:	89 45 e0             	mov    %eax,-0x20(%ebp)
    2c13:	8b 47 3c             	mov    0x3c(%edi),%eax
    2c16:	8b 55 e0             	mov    -0x20(%ebp),%edx
    2c19:	89 45 e4             	mov    %eax,-0x1c(%ebp)
    2c1c:	85 d2                	test   %edx,%edx
    2c1e:	74 57                	je     2c77 <usb_device_select_interface+0x87>
    2c20:	85 c0                	test   %eax,%eax
    2c22:	0f 84 dc 00 00 00    	je     2d04 <usb_device_select_interface+0x114>
    2c28:	8b 5d e4             	mov    -0x1c(%ebp),%ebx
    2c2b:	31 f6                	xor    %esi,%esi
    2c2d:	b8 e2 c7 02 00       	mov    $0x2c7e2,%eax
    2c32:	80 7b 2c 00          	cmpb   $0x0,0x2c(%ebx)
    2c36:	74 05                	je     2c3d <usb_device_select_interface+0x4d>
    2c38:	b8 cd e1 02 00       	mov    $0x2e1cd,%eax
    2c3d:	89 44 24 10          	mov    %eax,0x10(%esp)
    2c41:	89 74 24 0c          	mov    %esi,0xc(%esp)
    2c45:	c7 44 24 08 b8 c8 02 	movl   $0x2c8b8,0x8(%esp)
    2c4c:	00 
    2c4d:	c7 44 24 04 05 00 00 	movl   $0x5,0x4(%esp)
    2c54:	00 
    2c55:	c7 04 24 ff ff ff ff 	movl   $0xffffffff,(%esp)
    2c5c:	e8 ff 52 01 00       	call   17f60 <log_msg>
    2c61:	80 7b 2c 00          	cmpb   $0x0,0x2c(%ebx)
    2c65:	0f 85 85 00 00 00    	jne    2cf0 <usb_device_select_interface+0x100>
    2c6b:	46                   	inc    %esi
    2c6c:	83 c3 30             	add    $0x30,%ebx
    2c6f:	3b 75 e0             	cmp    -0x20(%ebp),%esi
    2c72:	75 b9                	jne    2c2d <usb_device_select_interface+0x3d>
    2c74:	8b 45 e4             	mov    -0x1c(%ebp),%eax
    2c77:	89 04 24             	mov    %eax,(%esp)
    2c7a:	31 db                	xor    %ebx,%ebx
    2c7c:	e8 8f a4 01 00       	call   1d110 <free>
    2c81:	8a 5d df             	mov    -0x21(%ebp),%bl
    2c84:	c7 47 3c 00 00 00 00 	movl   $0x0,0x3c(%edi)
    2c8b:	c7 47 40 00 00 00 00 	movl   $0x0,0x40(%edi)
    2c92:	31 c0                	xor    %eax,%eax
    2c94:	89 5c 24 08          	mov    %ebx,0x8(%esp)
    2c98:	8a 47 44             	mov    0x44(%edi),%al
    2c9b:	89 44 24 04          	mov    %eax,0x4(%esp)
    2c9f:	8d 47 24             	lea    0x24(%edi),%eax
    2ca2:	89 04 24             	mov    %eax,(%esp)
    2ca5:	e8 66 1e 00 00       	call   4b10 <usb_request_set_interface>
    2caa:	85 c0                	test   %eax,%eax
    2cac:	75 39                	jne    2ce7 <usb_device_select_interface+0xf7>
    2cae:	8d 47 40             	lea    0x40(%edi),%eax
    2cb1:	89 5c 24 14          	mov    %ebx,0x14(%esp)
    2cb5:	89 44 24 1c          	mov    %eax,0x1c(%esp)
    2cb9:	8d 47 3c             	lea    0x3c(%edi),%eax
    2cbc:	89 44 24 18          	mov    %eax,0x18(%esp)
    2cc0:	8b 47 44             	mov    0x44(%edi),%eax
    2cc3:	89 44 24 10          	mov    %eax,0x10(%esp)
    2cc7:	8b 47 6c             	mov    0x6c(%edi),%eax
    2cca:	89 44 24 0c          	mov    %eax,0xc(%esp)
    2cce:	8b 47 68             	mov    0x68(%edi),%eax
    2cd1:	83 c7 1c             	add    $0x1c,%edi
    2cd4:	89 44 24 08          	mov    %eax,0x8(%esp)
    2cd8:	8b 45 10             	mov    0x10(%ebp),%eax
    2cdb:	89 44 24 04          	mov    %eax,0x4(%esp)
    2cdf:	89 3c 24             	mov    %edi,(%esp)
    2ce2:	e8 d9 fc ff ff       	call   29c0 <usb_device_create_pipes>
    2ce7:	83 c4 3c             	add    $0x3c,%esp
    2cea:	5b                   	pop    %ebx
    2ceb:	5e                   	pop    %esi
    2cec:	5f                   	pop    %edi
    2ced:	5d                   	pop    %ebp
    2cee:	c3                   	ret    
    2cef:	90                   	nop
    2cf0:	89 1c 24             	mov    %ebx,(%esp)
    2cf3:	e8 a8 0e 00 00       	call   3ba0 <usb_pipe_unregister>
    2cf8:	e9 6e ff ff ff       	jmp    2c6b <usb_device_select_interface+0x7b>
    2cfd:	b8 f2 ff ff ff       	mov    $0xfffffff2,%eax
    2d02:	eb e3                	jmp    2ce7 <usb_device_select_interface+0xf7>
    2d04:	c7 44 24 08 7d 01 00 	movl   $0x17d,0x8(%esp)
    2d0b:	00 
    2d0c:	c7 44 24 04 5f c7 02 	movl   $0x2c75f,0x4(%esp)
    2d13:	00 
    2d14:	c7 04 24 e7 c7 02 00 	movl   $0x2c7e7,(%esp)
    2d1b:	e8 40 4b 02 00       	call   27860 <assert_abort>

00002d20 <usb_device_destroy_pipes>:
    2d20:	55                   	push   %ebp
    2d21:	89 e5                	mov    %esp,%ebp
    2d23:	57                   	push   %edi
    2d24:	56                   	push   %esi
    2d25:	53                   	push   %ebx
    2d26:	83 ec 3c             	sub    $0x3c,%esp
    2d29:	8b 45 0c             	mov    0xc(%ebp),%eax
    2d2c:	8b 7d 08             	mov    0x8(%ebp),%edi
    2d2f:	89 45 e4             	mov    %eax,-0x1c(%ebp)
    2d32:	85 c0                	test   %eax,%eax
    2d34:	74 4b                	je     2d81 <usb_device_destroy_pipes+0x61>
    2d36:	85 ff                	test   %edi,%edi
    2d38:	74 60                	je     2d9a <usb_device_destroy_pipes+0x7a>
    2d3a:	89 fb                	mov    %edi,%ebx
    2d3c:	31 f6                	xor    %esi,%esi
    2d3e:	b8 e2 c7 02 00       	mov    $0x2c7e2,%eax
    2d43:	80 7b 2c 00          	cmpb   $0x0,0x2c(%ebx)
    2d47:	74 05                	je     2d4e <usb_device_destroy_pipes+0x2e>
    2d49:	b8 cd e1 02 00       	mov    $0x2e1cd,%eax
    2d4e:	89 44 24 10          	mov    %eax,0x10(%esp)
    2d52:	89 74 24 0c          	mov    %esi,0xc(%esp)
    2d56:	c7 44 24 08 b8 c8 02 	movl   $0x2c8b8,0x8(%esp)
    2d5d:	00 
    2d5e:	c7 44 24 04 05 00 00 	movl   $0x5,0x4(%esp)
    2d65:	00 
    2d66:	c7 04 24 ff ff ff ff 	movl   $0xffffffff,(%esp)
    2d6d:	e8 ee 51 01 00       	call   17f60 <log_msg>
    2d72:	80 7b 2c 00          	cmpb   $0x0,0x2c(%ebx)
    2d76:	75 18                	jne    2d90 <usb_device_destroy_pipes+0x70>
    2d78:	46                   	inc    %esi
    2d79:	83 c3 30             	add    $0x30,%ebx
    2d7c:	3b 75 e4             	cmp    -0x1c(%ebp),%esi
    2d7f:	75 bd                	jne    2d3e <usb_device_destroy_pipes+0x1e>
    2d81:	89 7d 08             	mov    %edi,0x8(%ebp)
    2d84:	83 c4 3c             	add    $0x3c,%esp
    2d87:	5b                   	pop    %ebx
    2d88:	5e                   	pop    %esi
    2d89:	5f                   	pop    %edi
    2d8a:	5d                   	pop    %ebp
    2d8b:	e9 80 a3 01 00       	jmp    1d110 <free>
    2d90:	89 1c 24             	mov    %ebx,(%esp)
    2d93:	e8 08 0e 00 00       	call   3ba0 <usb_pipe_unregister>
    2d98:	eb de                	jmp    2d78 <usb_device_destroy_pipes+0x58>
    2d9a:	c7 44 24 08 7d 01 00 	movl   $0x17d,0x8(%esp)
    2da1:	00 
    2da2:	c7 44 24 04 5f c7 02 	movl   $0x2c75f,0x4(%esp)
    2da9:	00 
    2daa:	c7 04 24 e7 c7 02 00 	movl   $0x2c7e7,(%esp)
    2db1:	e8 aa 4a 02 00       	call   27860 <assert_abort>
    2db6:	8d 76 00             	lea    0x0(%esi),%esi
    2db9:	8d bc 27 00 00 00 00 	lea    0x0(%edi,%eiz,1),%edi

00002dc0 <usb_device_init>:
    2dc0:	55                   	push   %ebp
    2dc1:	89 e5                	mov    %esp,%ebp
    2dc3:	57                   	push   %edi
    2dc4:	56                   	push   %esi
    2dc5:	53                   	push   %ebx
    2dc6:	83 ec 4c             	sub    $0x4c,%esp
    2dc9:	8b 5d 08             	mov    0x8(%ebp),%ebx
    2dcc:	8b 45 0c             	mov    0xc(%ebp),%eax
    2dcf:	85 db                	test   %ebx,%ebx
    2dd1:	0f 84 3a 02 00 00    	je     3011 <usb_device_init+0x251>
    2dd7:	85 c0                	test   %eax,%eax
    2dd9:	0f 84 16 02 00 00    	je     2ff5 <usb_device_init+0x235>
    2ddf:	8b 55 14             	mov    0x14(%ebp),%edx
    2de2:	c7 02 00 00 00 00    	movl   $0x0,(%edx)
    2de8:	89 43 70             	mov    %eax,0x70(%ebx)
    2deb:	c7 43 74 00 00 00 00 	movl   $0x0,0x74(%ebx)
    2df2:	c7 43 68 00 00 00 00 	movl   $0x0,0x68(%ebx)
    2df9:	c7 43 40 00 00 00 00 	movl   $0x0,0x40(%ebx)
    2e00:	c7 43 3c 00 00 00 00 	movl   $0x0,0x3c(%ebx)
    2e07:	89 04 24             	mov    %eax,(%esp)
    2e0a:	e8 91 51 00 00       	call   7fa0 <ddf_dev_get_handle>
    2e0f:	8d 4b 44             	lea    0x44(%ebx),%ecx
    2e12:	89 4c 24 0c          	mov    %ecx,0xc(%esp)
    2e16:	8d 4d e2             	lea    -0x1e(%ebp),%ecx
    2e19:	89 4c 24 08          	mov    %ecx,0x8(%esp)
    2e1d:	8d 4d e4             	lea    -0x1c(%ebp),%ecx
    2e20:	89 4c 24 04          	mov    %ecx,0x4(%esp)
    2e24:	89 04 24             	mov    %eax,(%esp)
    2e27:	e8 54 31 00 00       	call   5f80 <usb_get_info_by_handle>
    2e2c:	89 c1                	mov    %eax,%ecx
    2e2e:	85 c0                	test   %eax,%eax
    2e30:	74 16                	je     2e48 <usb_device_init+0x88>
    2e32:	8b 55 14             	mov    0x14(%ebp),%edx
    2e35:	c7 02 0d c8 02 00    	movl   $0x2c80d,(%edx)
    2e3b:	83 c4 4c             	add    $0x4c,%esp
    2e3e:	89 c8                	mov    %ecx,%eax
    2e40:	5b                   	pop    %ebx
    2e41:	5e                   	pop    %esi
    2e42:	5f                   	pop    %edi
    2e43:	5d                   	pop    %ebp
    2e44:	c3                   	ret    
    2e45:	8d 76 00             	lea    0x0(%esi),%esi
    2e48:	8b 45 e4             	mov    -0x1c(%ebp),%eax
    2e4b:	c7 43 04 00 00 00 00 	movl   $0x0,0x4(%ebx)
    2e52:	89 03                	mov    %eax,(%ebx)
    2e54:	8d 43 08             	lea    0x8(%ebx),%eax
    2e57:	c7 43 18 00 00 00 00 	movl   $0x0,0x18(%ebx)
    2e5e:	89 04 24             	mov    %eax,(%esp)
    2e61:	e8 fa 0d 01 00       	call   13c60 <fibril_mutex_initialize>
    2e66:	66 8b 45 e2          	mov    -0x1e(%ebp),%ax
    2e6a:	66 83 f8 7f          	cmp    $0x7f,%ax
    2e6e:	8d 7b 1c             	lea    0x1c(%ebx),%edi
    2e71:	0f 87 95 00 00 00    	ja     2f0c <usb_device_init+0x14c>
    2e77:	8d 73 24             	lea    0x24(%ebx),%esi
    2e7a:	89 5b 1c             	mov    %ebx,0x1c(%ebx)
    2e7d:	66 89 43 20          	mov    %ax,0x20(%ebx)
    2e81:	89 7c 24 04          	mov    %edi,0x4(%esp)
    2e85:	89 34 24             	mov    %esi,(%esp)
    2e88:	e8 03 0c 00 00       	call   3a90 <usb_pipe_initialize_default_control>
    2e8d:	89 c1                	mov    %eax,%ecx
    2e8f:	85 c0                	test   %eax,%eax
    2e91:	74 0d                	je     2ea0 <usb_device_init+0xe0>
    2e93:	8b 55 14             	mov    0x14(%ebp),%edx
    2e96:	c7 02 dc c8 02 00    	movl   $0x2c8dc,(%edx)
    2e9c:	eb 9d                	jmp    2e3b <usb_device_init+0x7b>
    2e9e:	66 90                	xchg   %ax,%ax
    2ea0:	89 1c 24             	mov    %ebx,(%esp)
    2ea3:	e8 78 38 00 00       	call   6720 <usb_hc_connection_open>
    2ea8:	89 c1                	mov    %eax,%ecx
    2eaa:	85 c0                	test   %eax,%eax
    2eac:	74 12                	je     2ec0 <usb_device_init+0x100>
    2eae:	8b 55 14             	mov    0x14(%ebp),%edx
    2eb1:	c7 02 29 c8 02 00    	movl   $0x2c829,(%edx)
    2eb7:	eb 82                	jmp    2e3b <usb_device_init+0x7b>
    2eb9:	8d b4 26 00 00 00 00 	lea    0x0(%esi,%eiz,1),%esi
    2ec0:	c7 43 68 00 00 00 00 	movl   $0x0,0x68(%ebx)
    2ec7:	89 34 24             	mov    %esi,(%esp)
    2eca:	e8 a1 05 00 00       	call   3470 <usb_pipe_start_long_transfer>
    2ecf:	8d 43 54             	lea    0x54(%ebx),%eax
    2ed2:	89 44 24 04          	mov    %eax,0x4(%esp)
    2ed6:	89 34 24             	mov    %esi,(%esp)
    2ed9:	e8 52 16 00 00       	call   4530 <usb_request_get_device_descriptor>
    2ede:	85 c0                	test   %eax,%eax
    2ee0:	74 3d                	je     2f1f <usb_device_init+0x15f>
    2ee2:	89 34 24             	mov    %esi,(%esp)
    2ee5:	89 45 d4             	mov    %eax,-0x2c(%ebp)
    2ee8:	e8 03 06 00 00       	call   34f0 <usb_pipe_end_long_transfer>
    2eed:	8b 4d d4             	mov    -0x2c(%ebp),%ecx
    2ef0:	8b 55 14             	mov    0x14(%ebp),%edx
    2ef3:	c7 02 3c c8 02 00    	movl   $0x2c83c,(%edx)
    2ef9:	89 1c 24             	mov    %ebx,(%esp)
    2efc:	89 4d d4             	mov    %ecx,-0x2c(%ebp)
    2eff:	e8 cc 38 00 00       	call   67d0 <usb_hc_connection_close>
    2f04:	8b 4d d4             	mov    -0x2c(%ebp),%ecx
    2f07:	e9 2f ff ff ff       	jmp    2e3b <usb_device_init+0x7b>
    2f0c:	8b 55 14             	mov    0x14(%ebp),%edx
    2f0f:	b9 f2 ff ff ff       	mov    $0xfffffff2,%ecx
    2f14:	c7 02 00 c9 02 00    	movl   $0x2c900,(%edx)
    2f1a:	e9 1c ff ff ff       	jmp    2e3b <usb_device_init+0x7b>
    2f1f:	8d 43 6c             	lea    0x6c(%ebx),%eax
    2f22:	c7 44 24 04 00 00 00 	movl   $0x0,0x4(%esp)
    2f29:	00 
    2f2a:	89 44 24 0c          	mov    %eax,0xc(%esp)
    2f2e:	8d 43 68             	lea    0x68(%ebx),%eax
    2f31:	89 44 24 08          	mov    %eax,0x8(%esp)
    2f35:	89 34 24             	mov    %esi,(%esp)
    2f38:	e8 03 18 00 00       	call   4740 <usb_request_get_full_configuration_descriptor_alloc>
    2f3d:	89 34 24             	mov    %esi,(%esp)
    2f40:	89 45 d4             	mov    %eax,-0x2c(%ebp)
    2f43:	e8 a8 05 00 00       	call   34f0 <usb_pipe_end_long_transfer>
    2f48:	8b 4d d4             	mov    -0x2c(%ebp),%ecx
    2f4b:	85 c9                	test   %ecx,%ecx
    2f4d:	75 a1                	jne    2ef0 <usb_device_init+0x130>
    2f4f:	8b 43 44             	mov    0x44(%ebx),%eax
    2f52:	8d 73 48             	lea    0x48(%ebx),%esi
    2f55:	89 44 24 0c          	mov    %eax,0xc(%esp)
    2f59:	8b 43 6c             	mov    0x6c(%ebx),%eax
    2f5c:	89 44 24 08          	mov    %eax,0x8(%esp)
    2f60:	8b 43 68             	mov    0x68(%ebx),%eax
    2f63:	89 34 24             	mov    %esi,(%esp)
    2f66:	89 44 24 04          	mov    %eax,0x4(%esp)
    2f6a:	e8 11 21 00 00       	call   5080 <usb_alternate_interfaces_init>
    2f6f:	31 c9                	xor    %ecx,%ecx
    2f71:	85 c0                	test   %eax,%eax
    2f73:	75 03                	jne    2f78 <usb_device_init+0x1b8>
    2f75:	8b 4b 50             	mov    0x50(%ebx),%ecx
    2f78:	8d 43 40             	lea    0x40(%ebx),%eax
    2f7b:	89 4c 24 14          	mov    %ecx,0x14(%esp)
    2f7f:	89 44 24 1c          	mov    %eax,0x1c(%esp)
    2f83:	8d 43 3c             	lea    0x3c(%ebx),%eax
    2f86:	89 44 24 18          	mov    %eax,0x18(%esp)
    2f8a:	8b 43 44             	mov    0x44(%ebx),%eax
    2f8d:	89 44 24 10          	mov    %eax,0x10(%esp)
    2f91:	8b 43 6c             	mov    0x6c(%ebx),%eax
    2f94:	89 44 24 0c          	mov    %eax,0xc(%esp)
    2f98:	8b 43 68             	mov    0x68(%ebx),%eax
    2f9b:	89 3c 24             	mov    %edi,(%esp)
    2f9e:	89 44 24 08          	mov    %eax,0x8(%esp)
    2fa2:	8b 45 10             	mov    0x10(%ebp),%eax
    2fa5:	89 44 24 04          	mov    %eax,0x4(%esp)
    2fa9:	e8 12 fa ff ff       	call   29c0 <usb_device_create_pipes>
    2fae:	89 1c 24             	mov    %ebx,(%esp)
    2fb1:	89 45 d4             	mov    %eax,-0x2c(%ebp)
    2fb4:	85 c0                	test   %eax,%eax
    2fb6:	75 0d                	jne    2fc5 <usb_device_init+0x205>
    2fb8:	e8 13 38 00 00       	call   67d0 <usb_hc_connection_close>
    2fbd:	8b 4d d4             	mov    -0x2c(%ebp),%ecx
    2fc0:	e9 76 fe ff ff       	jmp    2e3b <usb_device_init+0x7b>
    2fc5:	e8 06 38 00 00       	call   67d0 <usb_hc_connection_close>
    2fca:	8b 43 68             	mov    0x68(%ebx),%eax
    2fcd:	89 04 24             	mov    %eax,(%esp)
    2fd0:	e8 3b a1 01 00       	call   1d110 <free>
    2fd5:	c7 43 68 00 00 00 00 	movl   $0x0,0x68(%ebx)
    2fdc:	89 34 24             	mov    %esi,(%esp)
    2fdf:	e8 cc 22 00 00       	call   52b0 <usb_alternate_interfaces_deinit>
    2fe4:	8b 55 14             	mov    0x14(%ebp),%edx
    2fe7:	8b 4d d4             	mov    -0x2c(%ebp),%ecx
    2fea:	c7 02 51 c8 02 00    	movl   $0x2c851,(%edx)
    2ff0:	e9 46 fe ff ff       	jmp    2e3b <usb_device_init+0x7b>
    2ff5:	c7 44 24 08 93 01 00 	movl   $0x193,0x8(%esp)
    2ffc:	00 
    2ffd:	c7 44 24 04 5f c7 02 	movl   $0x2c75f,0x4(%esp)
    3004:	00 
    3005:	c7 04 24 fd c7 02 00 	movl   $0x2c7fd,(%esp)
    300c:	e8 4f 48 02 00       	call   27860 <assert_abort>
    3011:	c7 44 24 08 92 01 00 	movl   $0x192,0x8(%esp)
    3018:	00 
    3019:	c7 44 24 04 5f c7 02 	movl   $0x2c75f,0x4(%esp)
    3020:	00 
    3021:	c7 04 24 ed c7 02 00 	movl   $0x2c7ed,(%esp)
    3028:	e8 33 48 02 00       	call   27860 <assert_abort>
    302d:	8d 76 00             	lea    0x0(%esi),%esi

00003030 <usb_device_deinit>:
    3030:	55                   	push   %ebp
    3031:	89 e5                	mov    %esp,%ebp
    3033:	57                   	push   %edi
    3034:	56                   	push   %esi
    3035:	53                   	push   %ebx
    3036:	83 ec 3c             	sub    $0x3c,%esp
    3039:	8b 75 08             	mov    0x8(%ebp),%esi
    303c:	85 f6                	test   %esi,%esi
    303e:	0f 84 c4 00 00 00    	je     3108 <usb_device_deinit+0xd8>
    3044:	8b 55 08             	mov    0x8(%ebp),%edx
    3047:	8b 52 40             	mov    0x40(%edx),%edx
    304a:	89 55 e4             	mov    %edx,-0x1c(%ebp)
    304d:	8b 55 08             	mov    0x8(%ebp),%edx
    3050:	8b 5d e4             	mov    -0x1c(%ebp),%ebx
    3053:	8b 7a 3c             	mov    0x3c(%edx),%edi
    3056:	85 db                	test   %ebx,%ebx
    3058:	74 4f                	je     30a9 <usb_device_deinit+0x79>
    305a:	85 ff                	test   %edi,%edi
    305c:	0f 84 b8 00 00 00    	je     311a <usb_device_deinit+0xea>
    3062:	89 fb                	mov    %edi,%ebx
    3064:	31 f6                	xor    %esi,%esi
    3066:	b8 e2 c7 02 00       	mov    $0x2c7e2,%eax
    306b:	80 7b 2c 00          	cmpb   $0x0,0x2c(%ebx)
    306f:	74 05                	je     3076 <usb_device_deinit+0x46>
    3071:	b8 cd e1 02 00       	mov    $0x2e1cd,%eax
    3076:	89 44 24 10          	mov    %eax,0x10(%esp)
    307a:	89 74 24 0c          	mov    %esi,0xc(%esp)
    307e:	c7 44 24 08 b8 c8 02 	movl   $0x2c8b8,0x8(%esp)
    3085:	00 
    3086:	c7 44 24 04 05 00 00 	movl   $0x5,0x4(%esp)
    308d:	00 
    308e:	c7 04 24 ff ff ff ff 	movl   $0xffffffff,(%esp)
    3095:	e8 c6 4e 01 00       	call   17f60 <log_msg>
    309a:	80 7b 2c 00          	cmpb   $0x0,0x2c(%ebx)
    309e:	75 70                	jne    3110 <usb_device_deinit+0xe0>
    30a0:	46                   	inc    %esi
    30a1:	83 c3 30             	add    $0x30,%ebx
    30a4:	3b 75 e4             	cmp    -0x1c(%ebp),%esi
    30a7:	75 bd                	jne    3066 <usb_device_deinit+0x36>
    30a9:	89 3c 24             	mov    %edi,(%esp)
    30ac:	e8 5f a0 01 00       	call   1d110 <free>
    30b1:	8b 55 08             	mov    0x8(%ebp),%edx
    30b4:	c7 42 3c 00 00 00 00 	movl   $0x0,0x3c(%edx)
    30bb:	c7 42 40 00 00 00 00 	movl   $0x0,0x40(%edx)
    30c2:	89 14 24             	mov    %edx,(%esp)
    30c5:	e8 a6 35 00 00       	call   6670 <usb_hc_connection_deinitialize>
    30ca:	8b 45 08             	mov    0x8(%ebp),%eax
    30cd:	83 c0 48             	add    $0x48,%eax
    30d0:	89 04 24             	mov    %eax,(%esp)
    30d3:	e8 d8 21 00 00       	call   52b0 <usb_alternate_interfaces_deinit>
    30d8:	8b 55 08             	mov    0x8(%ebp),%edx
    30db:	8b 42 68             	mov    0x68(%edx),%eax
    30de:	89 04 24             	mov    %eax,(%esp)
    30e1:	e8 2a a0 01 00       	call   1d110 <free>
    30e6:	8b 55 08             	mov    0x8(%ebp),%edx
    30e9:	8b 42 74             	mov    0x74(%edx),%eax
    30ec:	c7 42 68 00 00 00 00 	movl   $0x0,0x68(%edx)
    30f3:	89 04 24             	mov    %eax,(%esp)
    30f6:	e8 15 a0 01 00       	call   1d110 <free>
    30fb:	8b 55 08             	mov    0x8(%ebp),%edx
    30fe:	c7 42 74 00 00 00 00 	movl   $0x0,0x74(%edx)
    3105:	8d 76 00             	lea    0x0(%esi),%esi
    3108:	83 c4 3c             	add    $0x3c,%esp
    310b:	5b                   	pop    %ebx
    310c:	5e                   	pop    %esi
    310d:	5f                   	pop    %edi
    310e:	5d                   	pop    %ebp
    310f:	c3                   	ret    
    3110:	89 1c 24             	mov    %ebx,(%esp)
    3113:	e8 88 0a 00 00       	call   3ba0 <usb_pipe_unregister>
    3118:	eb 86                	jmp    30a0 <usb_device_deinit+0x70>
    311a:	c7 44 24 08 7d 01 00 	movl   $0x17d,0x8(%esp)
    3121:	00 
    3122:	c7 44 24 04 5f c7 02 	movl   $0x2c75f,0x4(%esp)
    3129:	00 
    312a:	c7 04 24 e7 c7 02 00 	movl   $0x2c7e7,(%esp)
    3131:	e8 2a 47 02 00       	call   27860 <assert_abort>
    3136:	8d 76 00             	lea    0x0(%esi),%esi
    3139:	8d bc 27 00 00 00 00 	lea    0x0(%edi,%eiz,1),%edi

00003140 <generic_device_gone>:
    3140:	55                   	push   %ebp
    3141:	89 e5                	mov    %esp,%ebp
    3143:	56                   	push   %esi
    3144:	83 ec 24             	sub    $0x24,%esp
    3147:	a1 68 02 03 00       	mov    0x30268,%eax
    314c:	85 c0                	test   %eax,%eax
    314e:	74 73                	je     31c3 <generic_device_gone+0x83>
    3150:	8b 40 08             	mov    0x8(%eax),%eax
    3153:	85 c0                	test   %eax,%eax
    3155:	74 50                	je     31a7 <generic_device_gone+0x67>
    3157:	8b 40 08             	mov    0x8(%eax),%eax
    315a:	85 c0                	test   %eax,%eax
    315c:	74 42                	je     31a0 <generic_device_gone+0x60>
    315e:	8b 45 08             	mov    0x8(%ebp),%eax
    3161:	89 04 24             	mov    %eax,(%esp)
    3164:	e8 27 4e 00 00       	call   7f90 <ddf_dev_data_get>
    3169:	89 c6                	mov    %eax,%esi
    316b:	a1 68 02 03 00       	mov    0x30268,%eax
    3170:	8b 40 08             	mov    0x8(%eax),%eax
    3173:	89 34 24             	mov    %esi,(%esp)
    3176:	ff 50 08             	call   *0x8(%eax)
    3179:	85 c0                	test   %eax,%eax
    317b:	74 0b                	je     3188 <generic_device_gone+0x48>
    317d:	83 c4 24             	add    $0x24,%esp
    3180:	5e                   	pop    %esi
    3181:	5d                   	pop    %ebp
    3182:	c3                   	ret    
    3183:	90                   	nop
    3184:	8d 74 26 00          	lea    0x0(%esi,%eiz,1),%esi
    3188:	89 34 24             	mov    %esi,(%esp)
    318b:	89 45 f4             	mov    %eax,-0xc(%ebp)
    318e:	e8 9d fe ff ff       	call   3030 <usb_device_deinit>
    3193:	8b 45 f4             	mov    -0xc(%ebp),%eax
    3196:	83 c4 24             	add    $0x24,%esp
    3199:	5e                   	pop    %esi
    319a:	5d                   	pop    %ebp
    319b:	c3                   	ret    
    319c:	8d 74 26 00          	lea    0x0(%esi,%eiz,1),%esi
    31a0:	b8 f5 ff ff ff       	mov    $0xfffffff5,%eax
    31a5:	eb d6                	jmp    317d <generic_device_gone+0x3d>
    31a7:	c7 44 24 08 9f 00 00 	movl   $0x9f,0x8(%esp)
    31ae:	00 
    31af:	c7 44 24 04 5f c7 02 	movl   $0x2c75f,0x4(%esp)
    31b6:	00 
    31b7:	c7 04 24 6d c8 02 00 	movl   $0x2c86d,(%esp)
    31be:	e8 9d 46 02 00       	call   27860 <assert_abort>
    31c3:	c7 44 24 08 9e 00 00 	movl   $0x9e,0x8(%esp)
    31ca:	00 
    31cb:	c7 44 24 04 5f c7 02 	movl   $0x2c75f,0x4(%esp)
    31d2:	00 
    31d3:	c7 04 24 66 c8 02 00 	movl   $0x2c866,(%esp)
    31da:	e8 81 46 02 00       	call   27860 <assert_abort>
    31df:	90                   	nop

000031e0 <generic_device_remove>:
    31e0:	55                   	push   %ebp
    31e1:	89 e5                	mov    %esp,%ebp
    31e3:	56                   	push   %esi
    31e4:	83 ec 24             	sub    $0x24,%esp
    31e7:	a1 68 02 03 00       	mov    0x30268,%eax
    31ec:	85 c0                	test   %eax,%eax
    31ee:	74 6b                	je     325b <generic_device_remove+0x7b>
    31f0:	8b 40 08             	mov    0x8(%eax),%eax
    31f3:	85 c0                	test   %eax,%eax
    31f5:	74 48                	je     323f <generic_device_remove+0x5f>
    31f7:	8b 40 04             	mov    0x4(%eax),%eax
    31fa:	85 c0                	test   %eax,%eax
    31fc:	74 3a                	je     3238 <generic_device_remove+0x58>
    31fe:	8b 45 08             	mov    0x8(%ebp),%eax
    3201:	89 04 24             	mov    %eax,(%esp)
    3204:	e8 87 4d 00 00       	call   7f90 <ddf_dev_data_get>
    3209:	89 c6                	mov    %eax,%esi
    320b:	a1 68 02 03 00       	mov    0x30268,%eax
    3210:	8b 40 08             	mov    0x8(%eax),%eax
    3213:	89 34 24             	mov    %esi,(%esp)
    3216:	ff 50 04             	call   *0x4(%eax)
    3219:	85 c0                	test   %eax,%eax
    321b:	75 0e                	jne    322b <generic_device_remove+0x4b>
    321d:	89 34 24             	mov    %esi,(%esp)
    3220:	89 45 f4             	mov    %eax,-0xc(%ebp)
    3223:	e8 08 fe ff ff       	call   3030 <usb_device_deinit>
    3228:	8b 45 f4             	mov    -0xc(%ebp),%eax
    322b:	83 c4 24             	add    $0x24,%esp
    322e:	5e                   	pop    %esi
    322f:	5d                   	pop    %ebp
    3230:	c3                   	ret    
    3231:	8d b4 26 00 00 00 00 	lea    0x0(%esi,%eiz,1),%esi
    3238:	b8 f5 ff ff ff       	mov    $0xfffffff5,%eax
    323d:	eb ec                	jmp    322b <generic_device_remove+0x4b>
    323f:	c7 44 24 08 89 00 00 	movl   $0x89,0x8(%esp)
    3246:	00 
    3247:	c7 44 24 04 5f c7 02 	movl   $0x2c75f,0x4(%esp)
    324e:	00 
    324f:	c7 04 24 6d c8 02 00 	movl   $0x2c86d,(%esp)
    3256:	e8 05 46 02 00       	call   27860 <assert_abort>
    325b:	c7 44 24 08 88 00 00 	movl   $0x88,0x8(%esp)
    3262:	00 
    3263:	c7 44 24 04 5f c7 02 	movl   $0x2c75f,0x4(%esp)
    326a:	00 
    326b:	c7 04 24 66 c8 02 00 	movl   $0x2c866,(%esp)
    3272:	e8 e9 45 02 00       	call   27860 <assert_abort>
    3277:	89 f6                	mov    %esi,%esi
    3279:	8d bc 27 00 00 00 00 	lea    0x0(%edi,%eiz,1),%edi

00003280 <generic_device_add>:
    3280:	55                   	push   %ebp
    3281:	89 e5                	mov    %esp,%ebp
    3283:	57                   	push   %edi
    3284:	56                   	push   %esi
    3285:	53                   	push   %ebx
    3286:	83 ec 4c             	sub    $0x4c,%esp
    3289:	a1 68 02 03 00       	mov    0x30268,%eax
    328e:	8b 7d 08             	mov    0x8(%ebp),%edi
    3291:	85 c0                	test   %eax,%eax
    3293:	0f 84 2f 01 00 00    	je     33c8 <generic_device_add+0x148>
    3299:	8b 40 08             	mov    0x8(%eax),%eax
    329c:	85 c0                	test   %eax,%eax
    329e:	0f 84 08 01 00 00    	je     33ac <generic_device_add+0x12c>
    32a4:	8b 00                	mov    (%eax),%eax
    32a6:	85 c0                	test   %eax,%eax
    32a8:	0f 84 36 01 00 00    	je     33e4 <generic_device_add+0x164>
    32ae:	c7 44 24 04 78 00 00 	movl   $0x78,0x4(%esp)
    32b5:	00 
    32b6:	89 3c 24             	mov    %edi,(%esp)
    32b9:	e8 42 4c 00 00       	call   7f00 <ddf_dev_data_alloc>
    32be:	89 c6                	mov    %eax,%esi
    32c0:	85 c0                	test   %eax,%eax
    32c2:	0f 84 b2 00 00 00    	je     337a <generic_device_add+0xfa>
    32c8:	8d 45 e4             	lea    -0x1c(%ebp),%eax
    32cb:	c7 45 e4 00 00 00 00 	movl   $0x0,-0x1c(%ebp)
    32d2:	89 44 24 0c          	mov    %eax,0xc(%esp)
    32d6:	a1 68 02 03 00       	mov    0x30268,%eax
    32db:	8b 40 04             	mov    0x4(%eax),%eax
    32de:	89 7c 24 04          	mov    %edi,0x4(%esp)
    32e2:	89 44 24 08          	mov    %eax,0x8(%esp)
    32e6:	89 34 24             	mov    %esi,(%esp)
    32e9:	e8 d2 fa ff ff       	call   2dc0 <usb_device_init>
    32ee:	89 c3                	mov    %eax,%ebx
    32f0:	85 c0                	test   %eax,%eax
    32f2:	75 24                	jne    3318 <generic_device_add+0x98>
    32f4:	a1 68 02 03 00       	mov    0x30268,%eax
    32f9:	8b 40 08             	mov    0x8(%eax),%eax
    32fc:	89 34 24             	mov    %esi,(%esp)
    32ff:	ff 10                	call   *(%eax)
    3301:	89 c3                	mov    %eax,%ebx
    3303:	85 c0                	test   %eax,%eax
    3305:	75 61                	jne    3368 <generic_device_add+0xe8>
    3307:	83 c4 4c             	add    $0x4c,%esp
    330a:	89 d8                	mov    %ebx,%eax
    330c:	5b                   	pop    %ebx
    330d:	5e                   	pop    %esi
    330e:	5f                   	pop    %edi
    330f:	5d                   	pop    %ebp
    3310:	c3                   	ret    
    3311:	8d b4 26 00 00 00 00 	lea    0x0(%esi,%eiz,1),%esi
    3318:	89 04 24             	mov    %eax,(%esp)
    331b:	e8 70 ff 00 00       	call   13290 <str_error>
    3320:	89 3c 24             	mov    %edi,(%esp)
    3323:	8b 75 e4             	mov    -0x1c(%ebp),%esi
    3326:	89 45 d4             	mov    %eax,-0x2c(%ebp)
    3329:	e8 82 4c 00 00       	call   7fb0 <ddf_dev_get_name>
    332e:	8b 55 d4             	mov    -0x2c(%ebp),%edx
    3331:	89 74 24 10          	mov    %esi,0x10(%esp)
    3335:	89 44 24 0c          	mov    %eax,0xc(%esp)
    3339:	89 54 24 14          	mov    %edx,0x14(%esp)
    333d:	c7 44 24 08 54 c9 02 	movl   $0x2c954,0x8(%esp)
    3344:	00 
    3345:	c7 44 24 04 01 00 00 	movl   $0x1,0x4(%esp)
    334c:	00 
    334d:	c7 04 24 ff ff ff ff 	movl   $0xffffffff,(%esp)
    3354:	e8 07 4c 01 00       	call   17f60 <log_msg>
    3359:	83 c4 4c             	add    $0x4c,%esp
    335c:	89 d8                	mov    %ebx,%eax
    335e:	5b                   	pop    %ebx
    335f:	5e                   	pop    %esi
    3360:	5f                   	pop    %edi
    3361:	5d                   	pop    %ebp
    3362:	c3                   	ret    
    3363:	90                   	nop
    3364:	8d 74 26 00          	lea    0x0(%esi,%eiz,1),%esi
    3368:	89 34 24             	mov    %esi,(%esp)
    336b:	e8 c0 fc ff ff       	call   3030 <usb_device_deinit>
    3370:	83 c4 4c             	add    $0x4c,%esp
    3373:	89 d8                	mov    %ebx,%eax
    3375:	5b                   	pop    %ebx
    3376:	5e                   	pop    %esi
    3377:	5f                   	pop    %edi
    3378:	5d                   	pop    %ebp
    3379:	c3                   	ret    
    337a:	89 3c 24             	mov    %edi,(%esp)
    337d:	bb fe ff ff ff       	mov    $0xfffffffe,%ebx
    3382:	e8 29 4c 00 00       	call   7fb0 <ddf_dev_get_name>
    3387:	c7 44 24 08 24 c9 02 	movl   $0x2c924,0x8(%esp)
    338e:	00 
    338f:	89 44 24 0c          	mov    %eax,0xc(%esp)
    3393:	c7 44 24 04 01 00 00 	movl   $0x1,0x4(%esp)
    339a:	00 
    339b:	c7 04 24 ff ff ff ff 	movl   $0xffffffff,(%esp)
    33a2:	e8 b9 4b 01 00       	call   17f60 <log_msg>
    33a7:	e9 5b ff ff ff       	jmp    3307 <generic_device_add+0x87>
    33ac:	c7 44 24 08 64 00 00 	movl   $0x64,0x8(%esp)
    33b3:	00 
    33b4:	c7 44 24 04 5f c7 02 	movl   $0x2c75f,0x4(%esp)
    33bb:	00 
    33bc:	c7 04 24 6d c8 02 00 	movl   $0x2c86d,(%esp)
    33c3:	e8 98 44 02 00       	call   27860 <assert_abort>
    33c8:	c7 44 24 08 63 00 00 	movl   $0x63,0x8(%esp)
    33cf:	00 
    33d0:	c7 44 24 04 5f c7 02 	movl   $0x2c75f,0x4(%esp)
    33d7:	00 
    33d8:	c7 04 24 66 c8 02 00 	movl   $0x2c866,(%esp)
    33df:	e8 7c 44 02 00       	call   27860 <assert_abort>
    33e4:	c7 44 24 08 65 00 00 	movl   $0x65,0x8(%esp)
    33eb:	00 
    33ec:	c7 44 24 04 5f c7 02 	movl   $0x2c75f,0x4(%esp)
    33f3:	00 
    33f4:	c7 04 24 79 c8 02 00 	movl   $0x2c879,(%esp)
    33fb:	e8 60 44 02 00       	call   27860 <assert_abort>

00003400 <usb_device_data_alloc>:
    3400:	55                   	push   %ebp
    3401:	89 e5                	mov    %esp,%ebp
    3403:	53                   	push   %ebx
    3404:	83 ec 14             	sub    $0x14,%esp
    3407:	8b 5d 08             	mov    0x8(%ebp),%ebx
    340a:	85 db                	test   %ebx,%ebx
    340c:	74 23                	je     3431 <usb_device_data_alloc+0x31>
    340e:	8b 43 74             	mov    0x74(%ebx),%eax
    3411:	85 c0                	test   %eax,%eax
    3413:	75 38                	jne    344d <usb_device_data_alloc+0x4d>
    3415:	8b 45 0c             	mov    0xc(%ebp),%eax
    3418:	c7 04 24 01 00 00 00 	movl   $0x1,(%esp)
    341f:	89 44 24 04          	mov    %eax,0x4(%esp)
    3423:	e8 78 9b 01 00       	call   1cfa0 <calloc>
    3428:	89 43 74             	mov    %eax,0x74(%ebx)
    342b:	83 c4 14             	add    $0x14,%esp
    342e:	5b                   	pop    %ebx
    342f:	5d                   	pop    %ebp
    3430:	c3                   	ret    
    3431:	c7 44 24 08 05 02 00 	movl   $0x205,0x8(%esp)
    3438:	00 
    3439:	c7 44 24 04 5f c7 02 	movl   $0x2c75f,0x4(%esp)
    3440:	00 
    3441:	c7 04 24 91 c8 02 00 	movl   $0x2c891,(%esp)
    3448:	e8 13 44 02 00       	call   27860 <assert_abort>
    344d:	c7 44 24 08 06 02 00 	movl   $0x206,0x8(%esp)
    3454:	00 
    3455:	c7 44 24 04 5f c7 02 	movl   $0x2c75f,0x4(%esp)
    345c:	00 
    345d:	c7 04 24 99 c8 02 00 	movl   $0x2c899,(%esp)
    3464:	e8 f7 43 02 00       	call   27860 <assert_abort>
    3469:	66 90                	xchg   %ax,%ax
    346b:	66 90                	xchg   %ax,%ax
    346d:	66 90                	xchg   %ax,%ax
    346f:	90                   	nop

00003470 <usb_pipe_start_long_transfer>:
    3470:	55                   	push   %ebp
    3471:	89 e5                	mov    %esp,%ebp
    3473:	83 ec 18             	sub    $0x18,%esp
    3476:	8b 45 08             	mov    0x8(%ebp),%eax
    3479:	85 c0                	test   %eax,%eax
    347b:	74 15                	je     3492 <usb_pipe_start_long_transfer+0x22>
    347d:	8b 00                	mov    (%eax),%eax
    347f:	85 c0                	test   %eax,%eax
    3481:	74 47                	je     34ca <usb_pipe_start_long_transfer+0x5a>
    3483:	8b 00                	mov    (%eax),%eax
    3485:	85 c0                	test   %eax,%eax
    3487:	74 25                	je     34ae <usb_pipe_start_long_transfer+0x3e>
    3489:	89 45 08             	mov    %eax,0x8(%ebp)
    348c:	c9                   	leave  
    348d:	e9 8e 32 00 00       	jmp    6720 <usb_hc_connection_open>
    3492:	c7 44 24 08 33 00 00 	movl   $0x33,0x8(%esp)
    3499:	00 
    349a:	c7 44 24 04 7b c9 02 	movl   $0x2c97b,0x4(%esp)
    34a1:	00 
    34a2:	c7 04 24 87 c9 02 00 	movl   $0x2c987,(%esp)
    34a9:	e8 b2 43 02 00       	call   27860 <assert_abort>
    34ae:	c7 44 24 08 35 00 00 	movl   $0x35,0x8(%esp)
    34b5:	00 
    34b6:	c7 44 24 04 7b c9 02 	movl   $0x2c97b,0x4(%esp)
    34bd:	00 
    34be:	c7 04 24 97 c9 02 00 	movl   $0x2c997,(%esp)
    34c5:	e8 96 43 02 00       	call   27860 <assert_abort>
    34ca:	c7 44 24 08 34 00 00 	movl   $0x34,0x8(%esp)
    34d1:	00 
    34d2:	c7 44 24 04 7b c9 02 	movl   $0x2c97b,0x4(%esp)
    34d9:	00 
    34da:	c7 04 24 8c c9 02 00 	movl   $0x2c98c,(%esp)
    34e1:	e8 7a 43 02 00       	call   27860 <assert_abort>
    34e6:	8d 76 00             	lea    0x0(%esi),%esi
    34e9:	8d bc 27 00 00 00 00 	lea    0x0(%edi,%eiz,1),%edi

000034f0 <usb_pipe_end_long_transfer>:
    34f0:	55                   	push   %ebp
    34f1:	89 e5                	mov    %esp,%ebp
    34f3:	83 ec 18             	sub    $0x18,%esp
    34f6:	8b 45 08             	mov    0x8(%ebp),%eax
    34f9:	85 c0                	test   %eax,%eax
    34fb:	74 15                	je     3512 <usb_pipe_end_long_transfer+0x22>
    34fd:	8b 00                	mov    (%eax),%eax
    34ff:	85 c0                	test   %eax,%eax
    3501:	74 47                	je     354a <usb_pipe_end_long_transfer+0x5a>
    3503:	8b 00                	mov    (%eax),%eax
    3505:	85 c0                	test   %eax,%eax
    3507:	74 25                	je     352e <usb_pipe_end_long_transfer+0x3e>
    3509:	89 45 08             	mov    %eax,0x8(%ebp)
    350c:	c9                   	leave  
    350d:	e9 be 32 00 00       	jmp    67d0 <usb_hc_connection_close>
    3512:	c7 44 24 08 40 00 00 	movl   $0x40,0x8(%esp)
    3519:	00 
    351a:	c7 44 24 04 7b c9 02 	movl   $0x2c97b,0x4(%esp)
    3521:	00 
    3522:	c7 04 24 87 c9 02 00 	movl   $0x2c987,(%esp)
    3529:	e8 32 43 02 00       	call   27860 <assert_abort>
    352e:	c7 44 24 08 42 00 00 	movl   $0x42,0x8(%esp)
    3535:	00 
    3536:	c7 44 24 04 7b c9 02 	movl   $0x2c97b,0x4(%esp)
    353d:	00 
    353e:	c7 04 24 97 c9 02 00 	movl   $0x2c997,(%esp)
    3545:	e8 16 43 02 00       	call   27860 <assert_abort>
    354a:	c7 44 24 08 41 00 00 	movl   $0x41,0x8(%esp)
    3551:	00 
    3552:	c7 44 24 04 7b c9 02 	movl   $0x2c97b,0x4(%esp)
    3559:	00 
    355a:	c7 04 24 8c c9 02 00 	movl   $0x2c98c,(%esp)
    3561:	e8 fa 42 02 00       	call   27860 <assert_abort>
    3566:	8d 76 00             	lea    0x0(%esi),%esi
    3569:	8d bc 27 00 00 00 00 	lea    0x0(%edi,%eiz,1),%edi

00003570 <usb_pipe_control_read>:
    3570:	55                   	push   %ebp
    3571:	89 e5                	mov    %esp,%ebp
    3573:	57                   	push   %edi
    3574:	56                   	push   %esi
    3575:	53                   	push   %ebx
    3576:	83 ec 3c             	sub    $0x3c,%esp
    3579:	8b 5d 08             	mov    0x8(%ebp),%ebx
    357c:	8b 45 0c             	mov    0xc(%ebp),%eax
    357f:	85 db                	test   %ebx,%ebx
    3581:	0f 84 08 01 00 00    	je     368f <usb_pipe_control_read+0x11f>
    3587:	83 7d 10 08          	cmpl   $0x8,0x10(%ebp)
    358b:	0f 85 f7 00 00 00    	jne    3688 <usb_pipe_control_read+0x118>
    3591:	85 c0                	test   %eax,%eax
    3593:	0f 84 ef 00 00 00    	je     3688 <usb_pipe_control_read+0x118>
    3599:	8b 75 18             	mov    0x18(%ebp),%esi
    359c:	85 f6                	test   %esi,%esi
    359e:	0f 84 e4 00 00 00    	je     3688 <usb_pipe_control_read+0x118>
    35a4:	8b 4d 14             	mov    0x14(%ebp),%ecx
    35a7:	85 c9                	test   %ecx,%ecx
    35a9:	0f 84 d9 00 00 00    	je     3688 <usb_pipe_control_read+0x118>
    35af:	83 7b 0c 02          	cmpl   $0x2,0xc(%ebx)
    35b3:	0f 85 97 00 00 00    	jne    3650 <usb_pipe_control_read+0xe0>
    35b9:	8b 53 08             	mov    0x8(%ebx),%edx
    35bc:	85 d2                	test   %edx,%edx
    35be:	0f 85 8c 00 00 00    	jne    3650 <usb_pipe_control_read+0xe0>
    35c4:	89 44 24 04          	mov    %eax,0x4(%esp)
    35c8:	8d 45 e0             	lea    -0x20(%ebp),%eax
    35cb:	c7 44 24 08 08 00 00 	movl   $0x8,0x8(%esp)
    35d2:	00 
    35d3:	89 04 24             	mov    %eax,(%esp)
    35d6:	e8 c5 c5 00 00       	call   fba0 <memcpy>
    35db:	8b 0b                	mov    (%ebx),%ecx
    35dd:	c7 45 dc 00 00 00 00 	movl   $0x0,-0x24(%ebp)
    35e4:	8b 45 e0             	mov    -0x20(%ebp),%eax
    35e7:	8b 55 e4             	mov    -0x1c(%ebp),%edx
    35ea:	85 c9                	test   %ecx,%ecx
    35ec:	0f bf 73 04          	movswl 0x4(%ebx),%esi
    35f0:	0f 84 b5 00 00 00    	je     36ab <usb_pipe_control_read+0x13b>
    35f6:	8d 7d dc             	lea    -0x24(%ebp),%edi
    35f9:	89 74 24 08          	mov    %esi,0x8(%esp)
    35fd:	89 7c 24 1c          	mov    %edi,0x1c(%esp)
    3601:	8b 7d 18             	mov    0x18(%ebp),%edi
    3604:	89 7c 24 18          	mov    %edi,0x18(%esp)
    3608:	8b 7d 14             	mov    0x14(%ebp),%edi
    360b:	89 7c 24 14          	mov    %edi,0x14(%esp)
    360f:	89 44 24 0c          	mov    %eax,0xc(%esp)
    3613:	89 54 24 10          	mov    %edx,0x10(%esp)
    3617:	0f bf 41 04          	movswl 0x4(%ecx),%eax
    361b:	89 44 24 04          	mov    %eax,0x4(%esp)
    361f:	8b 01                	mov    (%ecx),%eax
    3621:	89 04 24             	mov    %eax,(%esp)
    3624:	e8 67 3c 00 00       	call   7290 <usb_hc_read>
    3629:	89 c6                	mov    %eax,%esi
    362b:	3d d3 fe ff ff       	cmp    $0xfffffed3,%eax
    3630:	74 2e                	je     3660 <usb_pipe_control_read+0xf0>
    3632:	85 c0                	test   %eax,%eax
    3634:	75 0f                	jne    3645 <usb_pipe_control_read+0xd5>
    3636:	8b 45 1c             	mov    0x1c(%ebp),%eax
    3639:	85 c0                	test   %eax,%eax
    363b:	74 08                	je     3645 <usb_pipe_control_read+0xd5>
    363d:	8b 55 1c             	mov    0x1c(%ebp),%edx
    3640:	8b 45 dc             	mov    -0x24(%ebp),%eax
    3643:	89 02                	mov    %eax,(%edx)
    3645:	83 c4 3c             	add    $0x3c,%esp
    3648:	89 f0                	mov    %esi,%eax
    364a:	5b                   	pop    %ebx
    364b:	5e                   	pop    %esi
    364c:	5f                   	pop    %edi
    364d:	5d                   	pop    %ebp
    364e:	c3                   	ret    
    364f:	90                   	nop
    3650:	83 c4 3c             	add    $0x3c,%esp
    3653:	be fa fe ff ff       	mov    $0xfffffefa,%esi
    3658:	89 f0                	mov    %esi,%eax
    365a:	5b                   	pop    %ebx
    365b:	5e                   	pop    %esi
    365c:	5f                   	pop    %edi
    365d:	5d                   	pop    %ebp
    365e:	c3                   	ret    
    365f:	90                   	nop
    3660:	80 7b 14 00          	cmpb   $0x0,0x14(%ebx)
    3664:	74 df                	je     3645 <usb_pipe_control_read+0xd5>
    3666:	66 83 7b 04 00       	cmpw   $0x0,0x4(%ebx)
    366b:	75 d8                	jne    3645 <usb_pipe_control_read+0xd5>
    366d:	c6 43 14 00          	movb   $0x0,0x14(%ebx)
    3671:	c7 44 24 04 00 00 00 	movl   $0x0,0x4(%esp)
    3678:	00 
    3679:	89 1c 24             	mov    %ebx,(%esp)
    367c:	e8 cf 17 00 00       	call   4e50 <usb_request_clear_endpoint_halt>
    3681:	c6 43 14 01          	movb   $0x1,0x14(%ebx)
    3685:	eb be                	jmp    3645 <usb_pipe_control_read+0xd5>
    3687:	90                   	nop
    3688:	be f2 ff ff ff       	mov    $0xfffffff2,%esi
    368d:	eb b6                	jmp    3645 <usb_pipe_control_read+0xd5>
    368f:	c7 44 24 08 69 00 00 	movl   $0x69,0x8(%esp)
    3696:	00 
    3697:	c7 44 24 04 7b c9 02 	movl   $0x2c97b,0x4(%esp)
    369e:	00 
    369f:	c7 04 24 87 c9 02 00 	movl   $0x2c987,(%esp)
    36a6:	e8 b5 41 02 00       	call   27860 <assert_abort>
    36ab:	c7 44 24 08 78 00 00 	movl   $0x78,0x8(%esp)
    36b2:	00 
    36b3:	c7 44 24 04 bc c9 02 	movl   $0x2c9bc,0x4(%esp)
    36ba:	00 
    36bb:	c7 04 24 b1 c9 02 00 	movl   $0x2c9b1,(%esp)
    36c2:	e8 99 41 02 00       	call   27860 <assert_abort>
    36c7:	89 f6                	mov    %esi,%esi
    36c9:	8d bc 27 00 00 00 00 	lea    0x0(%edi,%eiz,1),%edi

000036d0 <usb_pipe_control_write>:
    36d0:	55                   	push   %ebp
    36d1:	89 e5                	mov    %esp,%ebp
    36d3:	57                   	push   %edi
    36d4:	56                   	push   %esi
    36d5:	53                   	push   %ebx
    36d6:	83 ec 3c             	sub    $0x3c,%esp
    36d9:	8b 5d 08             	mov    0x8(%ebp),%ebx
    36dc:	8b 45 0c             	mov    0xc(%ebp),%eax
    36df:	8b 75 18             	mov    0x18(%ebp),%esi
    36e2:	85 db                	test   %ebx,%ebx
    36e4:	0f 84 03 01 00 00    	je     37ed <usb_pipe_control_write+0x11d>
    36ea:	83 7d 10 08          	cmpl   $0x8,0x10(%ebp)
    36ee:	0f 85 b4 00 00 00    	jne    37a8 <usb_pipe_control_write+0xd8>
    36f4:	85 c0                	test   %eax,%eax
    36f6:	0f 84 ac 00 00 00    	je     37a8 <usb_pipe_control_write+0xd8>
    36fc:	85 f6                	test   %esi,%esi
    36fe:	0f 85 dc 00 00 00    	jne    37e0 <usb_pipe_control_write+0x110>
    3704:	85 f6                	test   %esi,%esi
    3706:	0f 84 8c 00 00 00    	je     3798 <usb_pipe_control_write+0xc8>
    370c:	83 7b 0c 02          	cmpl   $0x2,0xc(%ebx)
    3710:	75 76                	jne    3788 <usb_pipe_control_write+0xb8>
    3712:	8b 7b 08             	mov    0x8(%ebx),%edi
    3715:	85 ff                	test   %edi,%edi
    3717:	75 6f                	jne    3788 <usb_pipe_control_write+0xb8>
    3719:	89 44 24 04          	mov    %eax,0x4(%esp)
    371d:	8d 45 e0             	lea    -0x20(%ebp),%eax
    3720:	c7 44 24 08 08 00 00 	movl   $0x8,0x8(%esp)
    3727:	00 
    3728:	89 04 24             	mov    %eax,(%esp)
    372b:	e8 70 c4 00 00       	call   fba0 <memcpy>
    3730:	8b 0b                	mov    (%ebx),%ecx
    3732:	8b 45 e0             	mov    -0x20(%ebp),%eax
    3735:	8b 55 e4             	mov    -0x1c(%ebp),%edx
    3738:	8b 7b 04             	mov    0x4(%ebx),%edi
    373b:	85 c9                	test   %ecx,%ecx
    373d:	0f 84 c6 00 00 00    	je     3809 <usb_pipe_control_write+0x139>
    3743:	89 74 24 18          	mov    %esi,0x18(%esp)
    3747:	89 44 24 0c          	mov    %eax,0xc(%esp)
    374b:	8b 75 14             	mov    0x14(%ebp),%esi
    374e:	89 54 24 10          	mov    %edx,0x10(%esp)
    3752:	0f bf c7             	movswl %di,%eax
    3755:	89 74 24 14          	mov    %esi,0x14(%esp)
    3759:	89 44 24 08          	mov    %eax,0x8(%esp)
    375d:	0f bf 41 04          	movswl 0x4(%ecx),%eax
    3761:	89 44 24 04          	mov    %eax,0x4(%esp)
    3765:	8b 01                	mov    (%ecx),%eax
    3767:	89 04 24             	mov    %eax,(%esp)
    376a:	e8 f1 3c 00 00       	call   7460 <usb_hc_write>
    376f:	89 c6                	mov    %eax,%esi
    3771:	3d d3 fe ff ff       	cmp    $0xfffffed3,%eax
    3776:	74 40                	je     37b8 <usb_pipe_control_write+0xe8>
    3778:	83 c4 3c             	add    $0x3c,%esp
    377b:	89 f0                	mov    %esi,%eax
    377d:	5b                   	pop    %ebx
    377e:	5e                   	pop    %esi
    377f:	5f                   	pop    %edi
    3780:	5d                   	pop    %ebp
    3781:	c3                   	ret    
    3782:	8d b6 00 00 00 00    	lea    0x0(%esi),%esi
    3788:	83 c4 3c             	add    $0x3c,%esp
    378b:	be fa fe ff ff       	mov    $0xfffffefa,%esi
    3790:	89 f0                	mov    %esi,%eax
    3792:	5b                   	pop    %ebx
    3793:	5e                   	pop    %esi
    3794:	5f                   	pop    %edi
    3795:	5d                   	pop    %ebp
    3796:	c3                   	ret    
    3797:	90                   	nop
    3798:	8b 55 14             	mov    0x14(%ebp),%edx
    379b:	85 d2                	test   %edx,%edx
    379d:	0f 84 69 ff ff ff    	je     370c <usb_pipe_control_write+0x3c>
    37a3:	90                   	nop
    37a4:	8d 74 26 00          	lea    0x0(%esi,%eiz,1),%esi
    37a8:	83 c4 3c             	add    $0x3c,%esp
    37ab:	be f2 ff ff ff       	mov    $0xfffffff2,%esi
    37b0:	89 f0                	mov    %esi,%eax
    37b2:	5b                   	pop    %ebx
    37b3:	5e                   	pop    %esi
    37b4:	5f                   	pop    %edi
    37b5:	5d                   	pop    %ebp
    37b6:	c3                   	ret    
    37b7:	90                   	nop
    37b8:	80 7b 14 00          	cmpb   $0x0,0x14(%ebx)
    37bc:	74 ba                	je     3778 <usb_pipe_control_write+0xa8>
    37be:	66 83 7b 04 00       	cmpw   $0x0,0x4(%ebx)
    37c3:	75 b3                	jne    3778 <usb_pipe_control_write+0xa8>
    37c5:	c6 43 14 00          	movb   $0x0,0x14(%ebx)
    37c9:	c7 44 24 04 00 00 00 	movl   $0x0,0x4(%esp)
    37d0:	00 
    37d1:	89 1c 24             	mov    %ebx,(%esp)
    37d4:	e8 77 16 00 00       	call   4e50 <usb_request_clear_endpoint_halt>
    37d9:	c6 43 14 01          	movb   $0x1,0x14(%ebx)
    37dd:	eb 99                	jmp    3778 <usb_pipe_control_write+0xa8>
    37df:	90                   	nop
    37e0:	8b 4d 14             	mov    0x14(%ebp),%ecx
    37e3:	85 c9                	test   %ecx,%ecx
    37e5:	0f 85 19 ff ff ff    	jne    3704 <usb_pipe_control_write+0x34>
    37eb:	eb bb                	jmp    37a8 <usb_pipe_control_write+0xd8>
    37ed:	c7 44 24 08 99 00 00 	movl   $0x99,0x8(%esp)
    37f4:	00 
    37f5:	c7 44 24 04 7b c9 02 	movl   $0x2c97b,0x4(%esp)
    37fc:	00 
    37fd:	c7 04 24 87 c9 02 00 	movl   $0x2c987,(%esp)
    3804:	e8 57 40 02 00       	call   27860 <assert_abort>
    3809:	c7 44 24 08 88 00 00 	movl   $0x88,0x8(%esp)
    3810:	00 
    3811:	c7 44 24 04 bc c9 02 	movl   $0x2c9bc,0x4(%esp)
    3818:	00 
    3819:	c7 04 24 b1 c9 02 00 	movl   $0x2c9b1,(%esp)
    3820:	e8 3b 40 02 00       	call   27860 <assert_abort>
    3825:	8d 74 26 00          	lea    0x0(%esi,%eiz,1),%esi
    3829:	8d bc 27 00 00 00 00 	lea    0x0(%edi,%eiz,1),%edi

00003830 <usb_pipe_read>:
    3830:	55                   	push   %ebp
    3831:	89 e5                	mov    %esp,%ebp
    3833:	56                   	push   %esi
    3834:	53                   	push   %ebx
    3835:	83 ec 30             	sub    $0x30,%esp
    3838:	8b 45 08             	mov    0x8(%ebp),%eax
    383b:	8b 4d 0c             	mov    0xc(%ebp),%ecx
    383e:	8b 5d 10             	mov    0x10(%ebp),%ebx
    3841:	85 c0                	test   %eax,%eax
    3843:	0f 84 be 00 00 00    	je     3907 <usb_pipe_read+0xd7>
    3849:	85 c9                	test   %ecx,%ecx
    384b:	0f 84 af 00 00 00    	je     3900 <usb_pipe_read+0xd0>
    3851:	85 db                	test   %ebx,%ebx
    3853:	0f 84 a7 00 00 00    	je     3900 <usb_pipe_read+0xd0>
    3859:	8b 70 0c             	mov    0xc(%eax),%esi
    385c:	85 f6                	test   %esi,%esi
    385e:	0f 85 94 00 00 00    	jne    38f8 <usb_pipe_read+0xc8>
    3864:	8b 50 08             	mov    0x8(%eax),%edx
    3867:	85 d2                	test   %edx,%edx
    3869:	0f 84 89 00 00 00    	je     38f8 <usb_pipe_read+0xc8>
    386f:	83 ea 02             	sub    $0x2,%edx
    3872:	83 fa 01             	cmp    $0x1,%edx
    3875:	77 71                	ja     38e8 <usb_pipe_read+0xb8>
    3877:	0f bf 50 04          	movswl 0x4(%eax),%edx
    387b:	8b 00                	mov    (%eax),%eax
    387d:	c7 45 f4 00 00 00 00 	movl   $0x0,-0xc(%ebp)
    3884:	85 c0                	test   %eax,%eax
    3886:	0f 84 97 00 00 00    	je     3923 <usb_pipe_read+0xf3>
    388c:	8d 75 f4             	lea    -0xc(%ebp),%esi
    388f:	89 5c 24 18          	mov    %ebx,0x18(%esp)
    3893:	89 74 24 1c          	mov    %esi,0x1c(%esp)
    3897:	89 4c 24 14          	mov    %ecx,0x14(%esp)
    389b:	c7 44 24 0c 00 00 00 	movl   $0x0,0xc(%esp)
    38a2:	00 
    38a3:	c7 44 24 10 00 00 00 	movl   $0x0,0x10(%esp)
    38aa:	00 
    38ab:	89 54 24 08          	mov    %edx,0x8(%esp)
    38af:	0f bf 50 04          	movswl 0x4(%eax),%edx
    38b3:	89 54 24 04          	mov    %edx,0x4(%esp)
    38b7:	8b 00                	mov    (%eax),%eax
    38b9:	89 04 24             	mov    %eax,(%esp)
    38bc:	e8 cf 39 00 00       	call   7290 <usb_hc_read>
    38c1:	85 c0                	test   %eax,%eax
    38c3:	74 0b                	je     38d0 <usb_pipe_read+0xa0>
    38c5:	83 c4 30             	add    $0x30,%esp
    38c8:	5b                   	pop    %ebx
    38c9:	5e                   	pop    %esi
    38ca:	5d                   	pop    %ebp
    38cb:	c3                   	ret    
    38cc:	8d 74 26 00          	lea    0x0(%esi,%eiz,1),%esi
    38d0:	8b 5d 14             	mov    0x14(%ebp),%ebx
    38d3:	85 db                	test   %ebx,%ebx
    38d5:	74 ee                	je     38c5 <usb_pipe_read+0x95>
    38d7:	8b 55 14             	mov    0x14(%ebp),%edx
    38da:	8b 45 f4             	mov    -0xc(%ebp),%eax
    38dd:	89 02                	mov    %eax,(%edx)
    38df:	83 c4 30             	add    $0x30,%esp
    38e2:	31 c0                	xor    %eax,%eax
    38e4:	5b                   	pop    %ebx
    38e5:	5e                   	pop    %esi
    38e6:	5d                   	pop    %ebp
    38e7:	c3                   	ret    
    38e8:	83 c4 30             	add    $0x30,%esp
    38eb:	b8 f5 ff ff ff       	mov    $0xfffffff5,%eax
    38f0:	5b                   	pop    %ebx
    38f1:	5e                   	pop    %esi
    38f2:	5d                   	pop    %ebp
    38f3:	c3                   	ret    
    38f4:	8d 74 26 00          	lea    0x0(%esi,%eiz,1),%esi
    38f8:	b8 fa fe ff ff       	mov    $0xfffffefa,%eax
    38fd:	eb c6                	jmp    38c5 <usb_pipe_read+0x95>
    38ff:	90                   	nop
    3900:	b8 f2 ff ff ff       	mov    $0xfffffff2,%eax
    3905:	eb be                	jmp    38c5 <usb_pipe_read+0x95>
    3907:	c7 44 24 08 c4 00 00 	movl   $0xc4,0x8(%esp)
    390e:	00 
    390f:	c7 44 24 04 7b c9 02 	movl   $0x2c97b,0x4(%esp)
    3916:	00 
    3917:	c7 04 24 87 c9 02 00 	movl   $0x2c987,(%esp)
    391e:	e8 3d 3f 02 00       	call   27860 <assert_abort>
    3923:	c7 44 24 08 78 00 00 	movl   $0x78,0x8(%esp)
    392a:	00 
    392b:	c7 44 24 04 bc c9 02 	movl   $0x2c9bc,0x4(%esp)
    3932:	00 
    3933:	c7 04 24 b1 c9 02 00 	movl   $0x2c9b1,(%esp)
    393a:	e8 21 3f 02 00       	call   27860 <assert_abort>
    393f:	90                   	nop

00003940 <usb_pipe_write>:
    3940:	55                   	push   %ebp
    3941:	89 e5                	mov    %esp,%ebp
    3943:	53                   	push   %ebx
    3944:	83 ec 24             	sub    $0x24,%esp
    3947:	8b 45 08             	mov    0x8(%ebp),%eax
    394a:	8b 4d 0c             	mov    0xc(%ebp),%ecx
    394d:	8b 55 10             	mov    0x10(%ebp),%edx
    3950:	85 c0                	test   %eax,%eax
    3952:	0f 84 87 00 00 00    	je     39df <usb_pipe_write+0x9f>
    3958:	85 d2                	test   %edx,%edx
    395a:	74 7c                	je     39d8 <usb_pipe_write+0x98>
    395c:	85 c9                	test   %ecx,%ecx
    395e:	74 78                	je     39d8 <usb_pipe_write+0x98>
    3960:	83 78 0c 01          	cmpl   $0x1,0xc(%eax)
    3964:	75 62                	jne    39c8 <usb_pipe_write+0x88>
    3966:	8b 58 08             	mov    0x8(%eax),%ebx
    3969:	85 db                	test   %ebx,%ebx
    396b:	74 5b                	je     39c8 <usb_pipe_write+0x88>
    396d:	83 eb 02             	sub    $0x2,%ebx
    3970:	83 fb 01             	cmp    $0x1,%ebx
    3973:	77 43                	ja     39b8 <usb_pipe_write+0x78>
    3975:	0f bf 58 04          	movswl 0x4(%eax),%ebx
    3979:	8b 00                	mov    (%eax),%eax
    397b:	85 c0                	test   %eax,%eax
    397d:	74 7c                	je     39fb <usb_pipe_write+0xbb>
    397f:	89 54 24 18          	mov    %edx,0x18(%esp)
    3983:	89 4c 24 14          	mov    %ecx,0x14(%esp)
    3987:	c7 44 24 0c 00 00 00 	movl   $0x0,0xc(%esp)
    398e:	00 
    398f:	c7 44 24 10 00 00 00 	movl   $0x0,0x10(%esp)
    3996:	00 
    3997:	89 5c 24 08          	mov    %ebx,0x8(%esp)
    399b:	0f bf 50 04          	movswl 0x4(%eax),%edx
    399f:	89 54 24 04          	mov    %edx,0x4(%esp)
    39a3:	8b 00                	mov    (%eax),%eax
    39a5:	89 04 24             	mov    %eax,(%esp)
    39a8:	e8 b3 3a 00 00       	call   7460 <usb_hc_write>
    39ad:	83 c4 24             	add    $0x24,%esp
    39b0:	5b                   	pop    %ebx
    39b1:	5d                   	pop    %ebp
    39b2:	c3                   	ret    
    39b3:	90                   	nop
    39b4:	8d 74 26 00          	lea    0x0(%esi,%eiz,1),%esi
    39b8:	83 c4 24             	add    $0x24,%esp
    39bb:	b8 f5 ff ff ff       	mov    $0xfffffff5,%eax
    39c0:	5b                   	pop    %ebx
    39c1:	5d                   	pop    %ebp
    39c2:	c3                   	ret    
    39c3:	90                   	nop
    39c4:	8d 74 26 00          	lea    0x0(%esi,%eiz,1),%esi
    39c8:	83 c4 24             	add    $0x24,%esp
    39cb:	b8 fa fe ff ff       	mov    $0xfffffefa,%eax
    39d0:	5b                   	pop    %ebx
    39d1:	5d                   	pop    %ebp
    39d2:	c3                   	ret    
    39d3:	90                   	nop
    39d4:	8d 74 26 00          	lea    0x0(%esi,%eiz,1),%esi
    39d8:	b8 f2 ff ff ff       	mov    $0xfffffff2,%eax
    39dd:	eb ce                	jmp    39ad <usb_pipe_write+0x6d>
    39df:	c7 44 24 08 ef 00 00 	movl   $0xef,0x8(%esp)
    39e6:	00 
    39e7:	c7 44 24 04 7b c9 02 	movl   $0x2c97b,0x4(%esp)
    39ee:	00 
    39ef:	c7 04 24 87 c9 02 00 	movl   $0x2c987,(%esp)
    39f6:	e8 65 3e 02 00       	call   27860 <assert_abort>
    39fb:	c7 44 24 08 88 00 00 	movl   $0x88,0x8(%esp)
    3a02:	00 
    3a03:	c7 44 24 04 bc c9 02 	movl   $0x2c9bc,0x4(%esp)
    3a0a:	00 
    3a0b:	c7 04 24 b1 c9 02 00 	movl   $0x2c9b1,(%esp)
    3a12:	e8 49 3e 02 00       	call   27860 <assert_abort>
    3a17:	89 f6                	mov    %esi,%esi
    3a19:	8d bc 27 00 00 00 00 	lea    0x0(%edi,%eiz,1),%edi

00003a20 <usb_pipe_initialize>:
    3a20:	55                   	push   %ebp
    3a21:	89 e5                	mov    %esp,%ebp
    3a23:	83 ec 18             	sub    $0x18,%esp
    3a26:	8b 45 08             	mov    0x8(%ebp),%eax
    3a29:	8b 55 0c             	mov    0xc(%ebp),%edx
    3a2c:	8b 4d 10             	mov    0x10(%ebp),%ecx
    3a2f:	85 c0                	test   %eax,%eax
    3a31:	74 24                	je     3a57 <usb_pipe_initialize+0x37>
    3a33:	85 d2                	test   %edx,%edx
    3a35:	74 3c                	je     3a73 <usb_pipe_initialize+0x53>
    3a37:	89 10                	mov    %edx,(%eax)
    3a39:	8b 55 14             	mov    0x14(%ebp),%edx
    3a3c:	89 50 08             	mov    %edx,0x8(%eax)
    3a3f:	8b 55 18             	mov    0x18(%ebp),%edx
    3a42:	89 50 10             	mov    %edx,0x10(%eax)
    3a45:	8b 55 1c             	mov    0x1c(%ebp),%edx
    3a48:	66 89 48 04          	mov    %cx,0x4(%eax)
    3a4c:	89 50 0c             	mov    %edx,0xc(%eax)
    3a4f:	c6 40 14 00          	movb   $0x0,0x14(%eax)
    3a53:	31 c0                	xor    %eax,%eax
    3a55:	c9                   	leave  
    3a56:	c3                   	ret    
    3a57:	c7 44 24 08 15 01 00 	movl   $0x115,0x8(%esp)
    3a5e:	00 
    3a5f:	c7 44 24 04 7b c9 02 	movl   $0x2c97b,0x4(%esp)
    3a66:	00 
    3a67:	c7 04 24 87 c9 02 00 	movl   $0x2c987,(%esp)
    3a6e:	e8 ed 3d 02 00       	call   27860 <assert_abort>
    3a73:	c7 44 24 08 16 01 00 	movl   $0x116,0x8(%esp)
    3a7a:	00 
    3a7b:	c7 44 24 04 7b c9 02 	movl   $0x2c97b,0x4(%esp)
    3a82:	00 
    3a83:	c7 04 24 c5 d3 02 00 	movl   $0x2d3c5,(%esp)
    3a8a:	e8 d1 3d 02 00       	call   27860 <assert_abort>
    3a8f:	90                   	nop

00003a90 <usb_pipe_initialize_default_control>:
    3a90:	55                   	push   %ebp
    3a91:	89 e5                	mov    %esp,%ebp
    3a93:	83 ec 18             	sub    $0x18,%esp
    3a96:	8b 45 08             	mov    0x8(%ebp),%eax
    3a99:	8b 55 0c             	mov    0xc(%ebp),%edx
    3a9c:	85 c0                	test   %eax,%eax
    3a9e:	74 29                	je     3ac9 <usb_pipe_initialize_default_control+0x39>
    3aa0:	85 d2                	test   %edx,%edx
    3aa2:	74 41                	je     3ae5 <usb_pipe_initialize_default_control+0x55>
    3aa4:	89 10                	mov    %edx,(%eax)
    3aa6:	66 c7 40 04 00 00    	movw   $0x0,0x4(%eax)
    3aac:	c7 40 08 00 00 00 00 	movl   $0x0,0x8(%eax)
    3ab3:	c7 40 10 08 00 00 00 	movl   $0x8,0x10(%eax)
    3aba:	c7 40 0c 02 00 00 00 	movl   $0x2,0xc(%eax)
    3ac1:	c6 40 14 01          	movb   $0x1,0x14(%eax)
    3ac5:	c9                   	leave  
    3ac6:	31 c0                	xor    %eax,%eax
    3ac8:	c3                   	ret    
    3ac9:	c7 44 24 08 2b 01 00 	movl   $0x12b,0x8(%esp)
    3ad0:	00 
    3ad1:	c7 44 24 04 7b c9 02 	movl   $0x2c97b,0x4(%esp)
    3ad8:	00 
    3ad9:	c7 04 24 87 c9 02 00 	movl   $0x2c987,(%esp)
    3ae0:	e8 7b 3d 02 00       	call   27860 <assert_abort>
    3ae5:	c7 44 24 08 2c 01 00 	movl   $0x12c,0x8(%esp)
    3aec:	00 
    3aed:	c7 44 24 04 7b c9 02 	movl   $0x2c97b,0x4(%esp)
    3af4:	00 
    3af5:	c7 04 24 c5 d3 02 00 	movl   $0x2d3c5,(%esp)
    3afc:	e8 5f 3d 02 00       	call   27860 <assert_abort>
    3b01:	eb 0d                	jmp    3b10 <usb_pipe_register>
    3b03:	90                   	nop
    3b04:	90                   	nop
    3b05:	90                   	nop
    3b06:	90                   	nop
    3b07:	90                   	nop
    3b08:	90                   	nop
    3b09:	90                   	nop
    3b0a:	90                   	nop
    3b0b:	90                   	nop
    3b0c:	90                   	nop
    3b0d:	90                   	nop
    3b0e:	90                   	nop
    3b0f:	90                   	nop

00003b10 <usb_pipe_register>:
    3b10:	55                   	push   %ebp
    3b11:	89 e5                	mov    %esp,%ebp
    3b13:	83 ec 28             	sub    $0x28,%esp
    3b16:	8b 45 08             	mov    0x8(%ebp),%eax
    3b19:	85 c0                	test   %eax,%eax
    3b1b:	74 3e                	je     3b5b <usb_pipe_register+0x4b>
    3b1d:	8b 10                	mov    (%eax),%edx
    3b1f:	85 d2                	test   %edx,%edx
    3b21:	74 54                	je     3b77 <usb_pipe_register+0x67>
    3b23:	8b 4d 0c             	mov    0xc(%ebp),%ecx
    3b26:	89 4c 24 18          	mov    %ecx,0x18(%esp)
    3b2a:	8b 48 10             	mov    0x10(%eax),%ecx
    3b2d:	89 4c 24 14          	mov    %ecx,0x14(%esp)
    3b31:	8b 48 0c             	mov    0xc(%eax),%ecx
    3b34:	89 4c 24 10          	mov    %ecx,0x10(%esp)
    3b38:	8b 48 08             	mov    0x8(%eax),%ecx
    3b3b:	89 4c 24 0c          	mov    %ecx,0xc(%esp)
    3b3f:	0f bf 40 04          	movswl 0x4(%eax),%eax
    3b43:	89 44 24 08          	mov    %eax,0x8(%esp)
    3b47:	0f bf 42 04          	movswl 0x4(%edx),%eax
    3b4b:	89 44 24 04          	mov    %eax,0x4(%esp)
    3b4f:	8b 02                	mov    (%edx),%eax
    3b51:	89 04 24             	mov    %eax,(%esp)
    3b54:	e8 c7 33 00 00       	call   6f20 <usb_hc_register_endpoint>
    3b59:	c9                   	leave  
    3b5a:	c3                   	ret    
    3b5b:	c7 44 24 08 3e 01 00 	movl   $0x13e,0x8(%esp)
    3b62:	00 
    3b63:	c7 44 24 04 7b c9 02 	movl   $0x2c97b,0x4(%esp)
    3b6a:	00 
    3b6b:	c7 04 24 87 c9 02 00 	movl   $0x2c987,(%esp)
    3b72:	e8 e9 3c 02 00       	call   27860 <assert_abort>
    3b77:	c7 44 24 08 3f 01 00 	movl   $0x13f,0x8(%esp)
    3b7e:	00 
    3b7f:	c7 44 24 04 7b c9 02 	movl   $0x2c97b,0x4(%esp)
    3b86:	00 
    3b87:	c7 04 24 8c c9 02 00 	movl   $0x2c98c,(%esp)
    3b8e:	e8 cd 3c 02 00       	call   27860 <assert_abort>
    3b93:	8d b6 00 00 00 00    	lea    0x0(%esi),%esi
    3b99:	8d bc 27 00 00 00 00 	lea    0x0(%edi,%eiz,1),%edi

00003ba0 <usb_pipe_unregister>:
    3ba0:	55                   	push   %ebp
    3ba1:	89 e5                	mov    %esp,%ebp
    3ba3:	83 ec 18             	sub    $0x18,%esp
    3ba6:	8b 45 08             	mov    0x8(%ebp),%eax
    3ba9:	85 c0                	test   %eax,%eax
    3bab:	74 29                	je     3bd6 <usb_pipe_unregister+0x36>
    3bad:	8b 10                	mov    (%eax),%edx
    3baf:	85 d2                	test   %edx,%edx
    3bb1:	74 3f                	je     3bf2 <usb_pipe_unregister+0x52>
    3bb3:	8b 48 0c             	mov    0xc(%eax),%ecx
    3bb6:	89 4c 24 0c          	mov    %ecx,0xc(%esp)
    3bba:	0f bf 40 04          	movswl 0x4(%eax),%eax
    3bbe:	89 44 24 08          	mov    %eax,0x8(%esp)
    3bc2:	0f bf 42 04          	movswl 0x4(%edx),%eax
    3bc6:	89 44 24 04          	mov    %eax,0x4(%esp)
    3bca:	8b 02                	mov    (%edx),%eax
    3bcc:	89 04 24             	mov    %eax,(%esp)
    3bcf:	e8 0c 35 00 00       	call   70e0 <usb_hc_unregister_endpoint>
    3bd4:	c9                   	leave  
    3bd5:	c3                   	ret    
    3bd6:	c7 44 24 08 4d 01 00 	movl   $0x14d,0x8(%esp)
    3bdd:	00 
    3bde:	c7 44 24 04 7b c9 02 	movl   $0x2c97b,0x4(%esp)
    3be5:	00 
    3be6:	c7 04 24 87 c9 02 00 	movl   $0x2c987,(%esp)
    3bed:	e8 6e 3c 02 00       	call   27860 <assert_abort>
    3bf2:	c7 44 24 08 4e 01 00 	movl   $0x14e,0x8(%esp)
    3bf9:	00 
    3bfa:	c7 44 24 04 7b c9 02 	movl   $0x2c97b,0x4(%esp)
    3c01:	00 
    3c02:	c7 04 24 8c c9 02 00 	movl   $0x2c98c,(%esp)
    3c09:	e8 52 3c 02 00       	call   27860 <assert_abort>
    3c0e:	66 90                	xchg   %ax,%ax

00003c10 <usb_pipe_initialize_from_configuration>:
    3c10:	55                   	push   %ebp
    3c11:	89 e5                	mov    %esp,%ebp
    3c13:	57                   	push   %edi
    3c14:	56                   	push   %esi
    3c15:	53                   	push   %ebx
    3c16:	83 ec 6c             	sub    $0x6c,%esp
    3c19:	8b 4d 18             	mov    0x18(%ebp),%ecx
    3c1c:	8b 5d 14             	mov    0x14(%ebp),%ebx
    3c1f:	85 c9                	test   %ecx,%ecx
    3c21:	0f 84 7d 02 00 00    	je     3ea4 <usb_pipe_initialize_from_configuration+0x294>
    3c27:	8b 55 10             	mov    0x10(%ebp),%edx
    3c2a:	85 d2                	test   %edx,%edx
    3c2c:	0f 84 68 02 00 00    	je     3e9a <usb_pipe_initialize_from_configuration+0x28a>
    3c32:	83 fb 08             	cmp    $0x8,%ebx
    3c35:	0f 86 4d 02 00 00    	jbe    3e88 <usb_pipe_initialize_from_configuration+0x278>
    3c3b:	8b 45 0c             	mov    0xc(%ebp),%eax
    3c3e:	85 c0                	test   %eax,%eax
    3c40:	74 27                	je     3c69 <usb_pipe_initialize_from_configuration+0x59>
    3c42:	8b 75 0c             	mov    0xc(%ebp),%esi
    3c45:	8b 45 08             	mov    0x8(%ebp),%eax
    3c48:	8d 14 76             	lea    (%esi,%esi,2),%edx
    3c4b:	c1 e2 04             	shl    $0x4,%edx
    3c4e:	01 c2                	add    %eax,%edx
    3c50:	c6 40 2c 00          	movb   $0x0,0x2c(%eax)
    3c54:	c7 40 24 00 00 00 00 	movl   $0x0,0x24(%eax)
    3c5b:	c7 40 28 00 00 00 00 	movl   $0x0,0x28(%eax)
    3c62:	83 c0 30             	add    $0x30,%eax
    3c65:	39 d0                	cmp    %edx,%eax
    3c67:	75 e7                	jne    3c50 <usb_pipe_initialize_from_configuration+0x40>
    3c69:	8b 55 10             	mov    0x10(%ebp),%edx
    3c6c:	8d 75 dc             	lea    -0x24(%ebp),%esi
    3c6f:	8d 7d d8             	lea    -0x28(%ebp),%edi
    3c72:	89 54 24 08          	mov    %edx,0x8(%esp)
    3c76:	89 74 24 04          	mov    %esi,0x4(%esp)
    3c7a:	89 3c 24             	mov    %edi,(%esp)
    3c7d:	c7 45 d8 00 ca 02 00 	movl   $0x2ca00,-0x28(%ebp)
    3c84:	89 55 dc             	mov    %edx,-0x24(%ebp)
    3c87:	89 5d e0             	mov    %ebx,-0x20(%ebp)
    3c8a:	89 4d e4             	mov    %ecx,-0x1c(%ebp)
    3c8d:	e8 4e 16 00 00       	call   52e0 <usb_dp_get_nested_descriptor>
    3c92:	85 c0                	test   %eax,%eax
    3c94:	0f 84 f8 01 00 00    	je     3e92 <usb_pipe_initialize_from_configuration+0x282>
    3c9a:	89 c6                	mov    %eax,%esi
    3c9c:	8d 74 26 00          	lea    0x0(%esi,%eiz,1),%esi
    3ca0:	8d 7d dc             	lea    -0x24(%ebp),%edi
    3ca3:	8d 45 d8             	lea    -0x28(%ebp),%eax
    3ca6:	89 7c 24 04          	mov    %edi,0x4(%esp)
    3caa:	89 74 24 08          	mov    %esi,0x8(%esp)
    3cae:	89 04 24             	mov    %eax,(%esp)
    3cb1:	e8 2a 16 00 00       	call   52e0 <usb_dp_get_nested_descriptor>
    3cb6:	89 c7                	mov    %eax,%edi
    3cb8:	85 c0                	test   %eax,%eax
    3cba:	74 30                	je     3cec <usb_pipe_initialize_from_configuration+0xdc>
    3cbc:	89 75 d0             	mov    %esi,-0x30(%ebp)
    3cbf:	90                   	nop
    3cc0:	80 7f 01 05          	cmpb   $0x5,0x1(%edi)
    3cc4:	74 5a                	je     3d20 <usb_pipe_initialize_from_configuration+0x110>
    3cc6:	8b 45 d0             	mov    -0x30(%ebp),%eax
    3cc9:	8d 55 dc             	lea    -0x24(%ebp),%edx
    3ccc:	8d 75 d8             	lea    -0x28(%ebp),%esi
    3ccf:	89 7c 24 0c          	mov    %edi,0xc(%esp)
    3cd3:	89 44 24 08          	mov    %eax,0x8(%esp)
    3cd7:	89 54 24 04          	mov    %edx,0x4(%esp)
    3cdb:	89 34 24             	mov    %esi,(%esp)
    3cde:	e8 1d 18 00 00       	call   5500 <usb_dp_get_sibling_descriptor>
    3ce3:	89 c7                	mov    %eax,%edi
    3ce5:	85 c0                	test   %eax,%eax
    3ce7:	75 d7                	jne    3cc0 <usb_pipe_initialize_from_configuration+0xb0>
    3ce9:	8b 75 d0             	mov    -0x30(%ebp),%esi
    3cec:	89 74 24 0c          	mov    %esi,0xc(%esp)
    3cf0:	8b 55 10             	mov    0x10(%ebp),%edx
    3cf3:	8d 75 dc             	lea    -0x24(%ebp),%esi
    3cf6:	8d 7d d8             	lea    -0x28(%ebp),%edi
    3cf9:	89 74 24 04          	mov    %esi,0x4(%esp)
    3cfd:	89 54 24 08          	mov    %edx,0x8(%esp)
    3d01:	89 3c 24             	mov    %edi,(%esp)
    3d04:	e8 f7 17 00 00       	call   5500 <usb_dp_get_sibling_descriptor>
    3d09:	89 c6                	mov    %eax,%esi
    3d0b:	85 c0                	test   %eax,%eax
    3d0d:	75 91                	jne    3ca0 <usb_pipe_initialize_from_configuration+0x90>
    3d0f:	31 c0                	xor    %eax,%eax
    3d11:	83 c4 6c             	add    $0x6c,%esp
    3d14:	5b                   	pop    %ebx
    3d15:	5e                   	pop    %esi
    3d16:	5f                   	pop    %edi
    3d17:	5d                   	pop    %ebp
    3d18:	c3                   	ret    
    3d19:	8d b4 26 00 00 00 00 	lea    0x0(%esi,%eiz,1),%esi
    3d20:	8b 45 e4             	mov    -0x1c(%ebp),%eax
    3d23:	8b 75 0c             	mov    0xc(%ebp),%esi
    3d26:	89 45 bc             	mov    %eax,-0x44(%ebp)
    3d29:	8b 5d 08             	mov    0x8(%ebp),%ebx
    3d2c:	0f be 47 02          	movsbl 0x2(%edi),%eax
    3d30:	88 c2                	mov    %al,%dl
    3d32:	89 c1                	mov    %eax,%ecx
    3d34:	83 e2 0f             	and    $0xf,%edx
    3d37:	31 c0                	xor    %eax,%eax
    3d39:	88 55 bb             	mov    %dl,-0x45(%ebp)
    3d3c:	8a 57 03             	mov    0x3(%edi),%dl
    3d3f:	83 e2 03             	and    $0x3,%edx
    3d42:	83 f1 ff             	xor    $0xffffffff,%ecx
    3d45:	c1 e9 1f             	shr    $0x1f,%ecx
    3d48:	89 55 c4             	mov    %edx,-0x3c(%ebp)
    3d4b:	8b 55 d0             	mov    -0x30(%ebp),%edx
    3d4e:	8a 42 05             	mov    0x5(%edx),%al
    3d51:	89 45 c0             	mov    %eax,-0x40(%ebp)
    3d54:	31 c0                	xor    %eax,%eax
    3d56:	8a 42 06             	mov    0x6(%edx),%al
    3d59:	89 45 b4             	mov    %eax,-0x4c(%ebp)
    3d5c:	31 c0                	xor    %eax,%eax
    3d5e:	8a 42 07             	mov    0x7(%edx),%al
    3d61:	89 45 ac             	mov    %eax,-0x54(%ebp)
    3d64:	31 c0                	xor    %eax,%eax
    3d66:	8a 42 03             	mov    0x3(%edx),%al
    3d69:	89 45 cc             	mov    %eax,-0x34(%ebp)
    3d6c:	31 c0                	xor    %eax,%eax
    3d6e:	8a 42 02             	mov    0x2(%edx),%al
    3d71:	85 f6                	test   %esi,%esi
    3d73:	89 45 c8             	mov    %eax,-0x38(%ebp)
    3d76:	0f 84 4a ff ff ff    	je     3cc6 <usb_pipe_initialize_from_configuration+0xb6>
    3d7c:	89 7d b0             	mov    %edi,-0x50(%ebp)
    3d7f:	eb 11                	jmp    3d92 <usb_pipe_initialize_from_configuration+0x182>
    3d81:	8d b4 26 00 00 00 00 	lea    0x0(%esi,%eiz,1),%esi
    3d88:	83 c3 30             	add    $0x30,%ebx
    3d8b:	4e                   	dec    %esi
    3d8c:	0f 84 ee 00 00 00    	je     3e80 <usb_pipe_initialize_from_configuration+0x270>
    3d92:	8b 43 1c             	mov    0x1c(%ebx),%eax
    3d95:	85 c0                	test   %eax,%eax
    3d97:	0f 88 d3 00 00 00    	js     3e70 <usb_pipe_initialize_from_configuration+0x260>
    3d9d:	39 45 c8             	cmp    %eax,-0x38(%ebp)
    3da0:	0f 94 c2             	sete   %dl
    3da3:	81 e2 ff 00 00 00    	and    $0xff,%edx
    3da9:	8b 43 20             	mov    0x20(%ebx),%eax
    3dac:	85 c0                	test   %eax,%eax
    3dae:	0f 88 ac 00 00 00    	js     3e60 <usb_pipe_initialize_from_configuration+0x250>
    3db4:	39 45 cc             	cmp    %eax,-0x34(%ebp)
    3db7:	0f 94 c0             	sete   %al
    3dba:	25 ff 00 00 00       	and    $0xff,%eax
    3dbf:	89 45 d4             	mov    %eax,-0x2c(%ebp)
    3dc2:	8b 43 18             	mov    0x18(%ebx),%eax
    3dc5:	3b 48 04             	cmp    0x4(%eax),%ecx
    3dc8:	75 be                	jne    3d88 <usb_pipe_initialize_from_configuration+0x178>
    3dca:	8b 7d c4             	mov    -0x3c(%ebp),%edi
    3dcd:	3b 38                	cmp    (%eax),%edi
    3dcf:	75 b7                	jne    3d88 <usb_pipe_initialize_from_configuration+0x178>
    3dd1:	8b 78 08             	mov    0x8(%eax),%edi
    3dd4:	85 ff                	test   %edi,%edi
    3dd6:	78 05                	js     3ddd <usb_pipe_initialize_from_configuration+0x1cd>
    3dd8:	39 7d c0             	cmp    %edi,-0x40(%ebp)
    3ddb:	75 ab                	jne    3d88 <usb_pipe_initialize_from_configuration+0x178>
    3ddd:	8b 78 0c             	mov    0xc(%eax),%edi
    3de0:	85 ff                	test   %edi,%edi
    3de2:	78 05                	js     3de9 <usb_pipe_initialize_from_configuration+0x1d9>
    3de4:	39 7d b4             	cmp    %edi,-0x4c(%ebp)
    3de7:	75 9f                	jne    3d88 <usb_pipe_initialize_from_configuration+0x178>
    3de9:	8b 40 10             	mov    0x10(%eax),%eax
    3dec:	85 c0                	test   %eax,%eax
    3dee:	78 05                	js     3df5 <usb_pipe_initialize_from_configuration+0x1e5>
    3df0:	39 45 ac             	cmp    %eax,-0x54(%ebp)
    3df3:	75 93                	jne    3d88 <usb_pipe_initialize_from_configuration+0x178>
    3df5:	85 55 d4             	test   %edx,-0x2c(%ebp)
    3df8:	74 8e                	je     3d88 <usb_pipe_initialize_from_configuration+0x178>
    3dfa:	8b 7d b0             	mov    -0x50(%ebp),%edi
    3dfd:	85 db                	test   %ebx,%ebx
    3dff:	0f 84 c1 fe ff ff    	je     3cc6 <usb_pipe_initialize_from_configuration+0xb6>
    3e05:	80 7b 2c 00          	cmpb   $0x0,0x2c(%ebx)
    3e09:	0f 85 b7 fe ff ff    	jne    3cc6 <usb_pipe_initialize_from_configuration+0xb6>
    3e0f:	89 4c 24 14          	mov    %ecx,0x14(%esp)
    3e13:	8b 55 bc             	mov    -0x44(%ebp),%edx
    3e16:	66 8b 47 04          	mov    0x4(%edi),%ax
    3e1a:	89 54 24 04          	mov    %edx,0x4(%esp)
    3e1e:	25 ff ff 00 00       	and    $0xffff,%eax
    3e23:	89 1c 24             	mov    %ebx,(%esp)
    3e26:	89 44 24 10          	mov    %eax,0x10(%esp)
    3e2a:	8b 45 c4             	mov    -0x3c(%ebp),%eax
    3e2d:	89 44 24 0c          	mov    %eax,0xc(%esp)
    3e31:	31 c0                	xor    %eax,%eax
    3e33:	8a 45 bb             	mov    -0x45(%ebp),%al
    3e36:	89 44 24 08          	mov    %eax,0x8(%esp)
    3e3a:	e8 e1 fb ff ff       	call   3a20 <usb_pipe_initialize>
    3e3f:	85 c0                	test   %eax,%eax
    3e41:	0f 85 7f fe ff ff    	jne    3cc6 <usb_pipe_initialize_from_configuration+0xb6>
    3e47:	8b 45 d0             	mov    -0x30(%ebp),%eax
    3e4a:	c6 43 2c 01          	movb   $0x1,0x2c(%ebx)
    3e4e:	89 7b 24             	mov    %edi,0x24(%ebx)
    3e51:	89 43 28             	mov    %eax,0x28(%ebx)
    3e54:	e9 6d fe ff ff       	jmp    3cc6 <usb_pipe_initialize_from_configuration+0xb6>
    3e59:	8d b4 26 00 00 00 00 	lea    0x0(%esi,%eiz,1),%esi
    3e60:	c7 45 d4 01 00 00 00 	movl   $0x1,-0x2c(%ebp)
    3e67:	e9 56 ff ff ff       	jmp    3dc2 <usb_pipe_initialize_from_configuration+0x1b2>
    3e6c:	8d 74 26 00          	lea    0x0(%esi,%eiz,1),%esi
    3e70:	ba 01 00 00 00       	mov    $0x1,%edx
    3e75:	e9 2f ff ff ff       	jmp    3da9 <usb_pipe_initialize_from_configuration+0x199>
    3e7a:	8d b6 00 00 00 00    	lea    0x0(%esi),%esi
    3e80:	8b 7d b0             	mov    -0x50(%ebp),%edi
    3e83:	e9 3e fe ff ff       	jmp    3cc6 <usb_pipe_initialize_from_configuration+0xb6>
    3e88:	b8 f9 fe ff ff       	mov    $0xfffffef9,%eax
    3e8d:	e9 7f fe ff ff       	jmp    3d11 <usb_pipe_initialize_from_configuration+0x101>
    3e92:	83 c8 ff             	or     $0xffffffff,%eax
    3e95:	e9 77 fe ff ff       	jmp    3d11 <usb_pipe_initialize_from_configuration+0x101>
    3e9a:	b8 f6 ff ff ff       	mov    $0xfffffff6,%eax
    3e9f:	e9 6d fe ff ff       	jmp    3d11 <usb_pipe_initialize_from_configuration+0x101>
    3ea4:	c7 44 24 08 1c 01 00 	movl   $0x11c,0x8(%esp)
    3eab:	00 
    3eac:	c7 44 24 04 e4 c9 02 	movl   $0x2c9e4,0x4(%esp)
    3eb3:	00 
    3eb4:	c7 04 24 c5 d3 02 00 	movl   $0x2d3c5,(%esp)
    3ebb:	e8 a0 39 02 00       	call   27860 <assert_abort>

00003ec0 <usb_pipe_probe_default_control>:
    3ec0:	55                   	push   %ebp
    3ec1:	89 e5                	mov    %esp,%ebp
    3ec3:	57                   	push   %edi
    3ec4:	56                   	push   %esi
    3ec5:	53                   	push   %ebx
    3ec6:	83 ec 4c             	sub    $0x4c,%esp
    3ec9:	8b 5d 08             	mov    0x8(%ebp),%ebx
    3ecc:	85 db                	test   %ebx,%ebx
    3ece:	0f 84 5b 01 00 00    	je     402f <usb_pipe_probe_default_control+0x16f>
    3ed4:	83 7b 0c 02          	cmpl   $0x2,0xc(%ebx)
    3ed8:	0f 85 42 01 00 00    	jne    4020 <usb_pipe_probe_default_control+0x160>
    3ede:	8b 4b 08             	mov    0x8(%ebx),%ecx
    3ee1:	85 c9                	test   %ecx,%ecx
    3ee3:	0f 85 37 01 00 00    	jne    4020 <usb_pipe_probe_default_control+0x160>
    3ee9:	66 83 7b 04 00       	cmpw   $0x0,0x4(%ebx)
    3eee:	0f 85 2c 01 00 00    	jne    4020 <usb_pipe_probe_default_control+0x160>
    3ef4:	89 1c 24             	mov    %ebx,(%esp)
    3ef7:	8d 7d dc             	lea    -0x24(%ebp),%edi
    3efa:	8d 75 e0             	lea    -0x20(%ebp),%esi
    3efd:	e8 6e f5 ff ff       	call   3470 <usb_pipe_start_long_transfer>
    3f02:	89 7c 24 20          	mov    %edi,0x20(%esp)
    3f06:	c7 44 24 1c 08 00 00 	movl   $0x8,0x1c(%esp)
    3f0d:	00 
    3f0e:	89 74 24 18          	mov    %esi,0x18(%esp)
    3f12:	c7 44 24 14 00 00 00 	movl   $0x0,0x14(%esp)
    3f19:	00 
    3f1a:	c7 44 24 10 00 00 00 	movl   $0x0,0x10(%esp)
    3f21:	00 
    3f22:	c7 44 24 0c 01 00 00 	movl   $0x1,0xc(%esp)
    3f29:	00 
    3f2a:	c7 44 24 08 00 00 00 	movl   $0x0,0x8(%esp)
    3f31:	00 
    3f32:	c7 44 24 04 00 00 00 	movl   $0x0,0x4(%esp)
    3f39:	00 
    3f3a:	89 1c 24             	mov    %ebx,(%esp)
    3f3d:	e8 ce 03 00 00       	call   4310 <usb_request_get_descriptor>
    3f42:	85 c0                	test   %eax,%eax
    3f44:	75 0a                	jne    3f50 <usb_pipe_probe_default_control+0x90>
    3f46:	83 7d dc 08          	cmpl   $0x8,-0x24(%ebp)
    3f4a:	0f 84 b0 00 00 00    	je     4000 <usb_pipe_probe_default_control+0x140>
    3f50:	89 7c 24 20          	mov    %edi,0x20(%esp)
    3f54:	c7 44 24 1c 08 00 00 	movl   $0x8,0x1c(%esp)
    3f5b:	00 
    3f5c:	89 74 24 18          	mov    %esi,0x18(%esp)
    3f60:	c7 44 24 14 00 00 00 	movl   $0x0,0x14(%esp)
    3f67:	00 
    3f68:	c7 44 24 10 00 00 00 	movl   $0x0,0x10(%esp)
    3f6f:	00 
    3f70:	c7 44 24 0c 01 00 00 	movl   $0x1,0xc(%esp)
    3f77:	00 
    3f78:	c7 44 24 08 00 00 00 	movl   $0x0,0x8(%esp)
    3f7f:	00 
    3f80:	c7 44 24 04 00 00 00 	movl   $0x0,0x4(%esp)
    3f87:	00 
    3f88:	89 1c 24             	mov    %ebx,(%esp)
    3f8b:	e8 80 03 00 00       	call   4310 <usb_request_get_descriptor>
    3f90:	85 c0                	test   %eax,%eax
    3f92:	75 06                	jne    3f9a <usb_pipe_probe_default_control+0xda>
    3f94:	83 7d dc 08          	cmpl   $0x8,-0x24(%ebp)
    3f98:	74 66                	je     4000 <usb_pipe_probe_default_control+0x140>
    3f9a:	89 74 24 18          	mov    %esi,0x18(%esp)
    3f9e:	89 7c 24 20          	mov    %edi,0x20(%esp)
    3fa2:	c7 44 24 1c 08 00 00 	movl   $0x8,0x1c(%esp)
    3fa9:	00 
    3faa:	c7 44 24 14 00 00 00 	movl   $0x0,0x14(%esp)
    3fb1:	00 
    3fb2:	c7 44 24 10 00 00 00 	movl   $0x0,0x10(%esp)
    3fb9:	00 
    3fba:	c7 44 24 0c 01 00 00 	movl   $0x1,0xc(%esp)
    3fc1:	00 
    3fc2:	c7 44 24 08 00 00 00 	movl   $0x0,0x8(%esp)
    3fc9:	00 
    3fca:	c7 44 24 04 00 00 00 	movl   $0x0,0x4(%esp)
    3fd1:	00 
    3fd2:	89 1c 24             	mov    %ebx,(%esp)
    3fd5:	e8 36 03 00 00       	call   4310 <usb_request_get_descriptor>
    3fda:	89 c6                	mov    %eax,%esi
    3fdc:	85 c0                	test   %eax,%eax
    3fde:	75 0b                	jne    3feb <usb_pipe_probe_default_control+0x12b>
    3fe0:	83 7d dc 08          	cmpl   $0x8,-0x24(%ebp)
    3fe4:	74 1a                	je     4000 <usb_pipe_probe_default_control+0x140>
    3fe6:	be fd ff ff ff       	mov    $0xfffffffd,%esi
    3feb:	89 1c 24             	mov    %ebx,(%esp)
    3fee:	e8 fd f4 ff ff       	call   34f0 <usb_pipe_end_long_transfer>
    3ff3:	83 c4 4c             	add    $0x4c,%esp
    3ff6:	89 f0                	mov    %esi,%eax
    3ff8:	5b                   	pop    %ebx
    3ff9:	5e                   	pop    %esi
    3ffa:	5f                   	pop    %edi
    3ffb:	5d                   	pop    %ebp
    3ffc:	c3                   	ret    
    3ffd:	8d 76 00             	lea    0x0(%esi),%esi
    4000:	89 1c 24             	mov    %ebx,(%esp)
    4003:	31 f6                	xor    %esi,%esi
    4005:	e8 e6 f4 ff ff       	call   34f0 <usb_pipe_end_long_transfer>
    400a:	31 c0                	xor    %eax,%eax
    400c:	8a 45 e7             	mov    -0x19(%ebp),%al
    400f:	89 43 10             	mov    %eax,0x10(%ebx)
    4012:	83 c4 4c             	add    $0x4c,%esp
    4015:	89 f0                	mov    %esi,%eax
    4017:	5b                   	pop    %ebx
    4018:	5e                   	pop    %esi
    4019:	5f                   	pop    %edi
    401a:	5d                   	pop    %ebp
    401b:	c3                   	ret    
    401c:	8d 74 26 00          	lea    0x0(%esi,%eiz,1),%esi
    4020:	83 c4 4c             	add    $0x4c,%esp
    4023:	be f2 ff ff ff       	mov    $0xfffffff2,%esi
    4028:	89 f0                	mov    %esi,%eax
    402a:	5b                   	pop    %ebx
    402b:	5e                   	pop    %esi
    402c:	5f                   	pop    %edi
    402d:	5d                   	pop    %ebp
    402e:	c3                   	ret    
    402f:	c7 44 24 08 55 01 00 	movl   $0x155,0x8(%esp)
    4036:	00 
    4037:	c7 44 24 04 e4 c9 02 	movl   $0x2c9e4,0x4(%esp)
    403e:	00 
    403f:	c7 04 24 87 c9 02 00 	movl   $0x2c987,(%esp)
    4046:	e8 15 38 02 00       	call   27860 <assert_abort>
    404b:	66 90                	xchg   %ax,%ax
    404d:	66 90                	xchg   %ax,%ax
    404f:	90                   	nop

00004050 <usb_control_request_set>:
    4050:	55                   	push   %ebp
    4051:	89 e5                	mov    %esp,%ebp
    4053:	57                   	push   %edi
    4054:	56                   	push   %esi
    4055:	53                   	push   %ebx
    4056:	83 ec 3c             	sub    $0x3c,%esp
    4059:	8b 7d 08             	mov    0x8(%ebp),%edi
    405c:	8b 45 24             	mov    0x24(%ebp),%eax
    405f:	8a 4d 14             	mov    0x14(%ebp),%cl
    4062:	8b 75 18             	mov    0x18(%ebp),%esi
    4065:	8b 5d 1c             	mov    0x1c(%ebp),%ebx
    4068:	85 ff                	test   %edi,%edi
    406a:	74 5b                	je     40c7 <usb_control_request_set+0x77>
    406c:	3d ff ff 00 00       	cmp    $0xffff,%eax
    4071:	77 5d                	ja     40d0 <usb_control_request_set+0x80>
    4073:	85 c0                	test   %eax,%eax
    4075:	75 49                	jne    40c0 <usb_control_request_set+0x70>
    4077:	8a 55 0c             	mov    0xc(%ebp),%dl
    407a:	66 89 45 e6          	mov    %ax,-0x1a(%ebp)
    407e:	c1 e2 05             	shl    $0x5,%edx
    4081:	89 44 24 10          	mov    %eax,0x10(%esp)
    4085:	8b 45 20             	mov    0x20(%ebp),%eax
    4088:	0b 55 10             	or     0x10(%ebp),%edx
    408b:	89 44 24 0c          	mov    %eax,0xc(%esp)
    408f:	8d 45 e0             	lea    -0x20(%ebp),%eax
    4092:	c7 44 24 08 08 00 00 	movl   $0x8,0x8(%esp)
    4099:	00 
    409a:	89 44 24 04          	mov    %eax,0x4(%esp)
    409e:	89 3c 24             	mov    %edi,(%esp)
    40a1:	88 55 e0             	mov    %dl,-0x20(%ebp)
    40a4:	88 4d e1             	mov    %cl,-0x1f(%ebp)
    40a7:	66 89 75 e2          	mov    %si,-0x1e(%ebp)
    40ab:	66 89 5d e4          	mov    %bx,-0x1c(%ebp)
    40af:	e8 1c f6 ff ff       	call   36d0 <usb_pipe_control_write>
    40b4:	83 c4 3c             	add    $0x3c,%esp
    40b7:	5b                   	pop    %ebx
    40b8:	5e                   	pop    %esi
    40b9:	5f                   	pop    %edi
    40ba:	5d                   	pop    %ebp
    40bb:	c3                   	ret    
    40bc:	8d 74 26 00          	lea    0x0(%esi,%eiz,1),%esi
    40c0:	8b 55 20             	mov    0x20(%ebp),%edx
    40c3:	85 d2                	test   %edx,%edx
    40c5:	75 b0                	jne    4077 <usb_control_request_set+0x27>
    40c7:	b8 f6 ff ff ff       	mov    $0xfffffff6,%eax
    40cc:	eb e6                	jmp    40b4 <usb_control_request_set+0x64>
    40ce:	66 90                	xchg   %ax,%ax
    40d0:	b8 f9 fe ff ff       	mov    $0xfffffef9,%eax
    40d5:	eb dd                	jmp    40b4 <usb_control_request_set+0x64>
    40d7:	89 f6                	mov    %esi,%esi
    40d9:	8d bc 27 00 00 00 00 	lea    0x0(%edi,%eiz,1),%edi

000040e0 <usb_control_request_get>:
    40e0:	55                   	push   %ebp
    40e1:	89 e5                	mov    %esp,%ebp
    40e3:	57                   	push   %edi
    40e4:	56                   	push   %esi
    40e5:	53                   	push   %ebx
    40e6:	83 ec 3c             	sub    $0x3c,%esp
    40e9:	8b 7d 08             	mov    0x8(%ebp),%edi
    40ec:	8b 55 24             	mov    0x24(%ebp),%edx
    40ef:	8a 4d 14             	mov    0x14(%ebp),%cl
    40f2:	8b 75 18             	mov    0x18(%ebp),%esi
    40f5:	8b 5d 1c             	mov    0x1c(%ebp),%ebx
    40f8:	85 ff                	test   %edi,%edi
    40fa:	74 63                	je     415f <usb_control_request_get+0x7f>
    40fc:	81 fa ff ff 00 00    	cmp    $0xffff,%edx
    4102:	77 64                	ja     4168 <usb_control_request_get+0x88>
    4104:	85 d2                	test   %edx,%edx
    4106:	75 50                	jne    4158 <usb_control_request_get+0x78>
    4108:	8a 45 0c             	mov    0xc(%ebp),%al
    410b:	89 54 24 10          	mov    %edx,0x10(%esp)
    410f:	c1 e0 05             	shl    $0x5,%eax
    4112:	c7 44 24 08 08 00 00 	movl   $0x8,0x8(%esp)
    4119:	00 
    411a:	0b 45 10             	or     0x10(%ebp),%eax
    411d:	89 3c 24             	mov    %edi,(%esp)
    4120:	83 c8 80             	or     $0xffffff80,%eax
    4123:	88 4d e1             	mov    %cl,-0x1f(%ebp)
    4126:	88 45 e0             	mov    %al,-0x20(%ebp)
    4129:	8b 45 28             	mov    0x28(%ebp),%eax
    412c:	89 44 24 14          	mov    %eax,0x14(%esp)
    4130:	8b 45 20             	mov    0x20(%ebp),%eax
    4133:	89 44 24 0c          	mov    %eax,0xc(%esp)
    4137:	8d 45 e0             	lea    -0x20(%ebp),%eax
    413a:	89 44 24 04          	mov    %eax,0x4(%esp)
    413e:	66 89 75 e2          	mov    %si,-0x1e(%ebp)
    4142:	66 89 5d e4          	mov    %bx,-0x1c(%ebp)
    4146:	66 89 55 e6          	mov    %dx,-0x1a(%ebp)
    414a:	e8 21 f4 ff ff       	call   3570 <usb_pipe_control_read>
    414f:	83 c4 3c             	add    $0x3c,%esp
    4152:	5b                   	pop    %ebx
    4153:	5e                   	pop    %esi
    4154:	5f                   	pop    %edi
    4155:	5d                   	pop    %ebp
    4156:	c3                   	ret    
    4157:	90                   	nop
    4158:	8b 45 20             	mov    0x20(%ebp),%eax
    415b:	85 c0                	test   %eax,%eax
    415d:	75 a9                	jne    4108 <usb_control_request_get+0x28>
    415f:	b8 f6 ff ff ff       	mov    $0xfffffff6,%eax
    4164:	eb e9                	jmp    414f <usb_control_request_get+0x6f>
    4166:	66 90                	xchg   %ax,%ax
    4168:	b8 f9 fe ff ff       	mov    $0xfffffef9,%eax
    416d:	eb e0                	jmp    414f <usb_control_request_get+0x6f>
    416f:	90                   	nop

00004170 <usb_request_get_status>:
    4170:	55                   	push   %ebp
    4171:	89 e5                	mov    %esp,%ebp
    4173:	53                   	push   %ebx
    4174:	83 ec 34             	sub    $0x34,%esp
    4177:	8b 45 10             	mov    0x10(%ebp),%eax
    417a:	8b 55 08             	mov    0x8(%ebp),%edx
    417d:	66 85 c0             	test   %ax,%ax
    4180:	8b 5d 14             	mov    0x14(%ebp),%ebx
    4183:	75 73                	jne    41f8 <usb_request_get_status+0x88>
    4185:	85 db                	test   %ebx,%ebx
    4187:	74 7f                	je     4208 <usb_request_get_status+0x98>
    4189:	85 d2                	test   %edx,%edx
    418b:	74 7b                	je     4208 <usb_request_get_status+0x98>
    418d:	66 89 45 f4          	mov    %ax,-0xc(%ebp)
    4191:	8d 45 ec             	lea    -0x14(%ebp),%eax
    4194:	89 44 24 14          	mov    %eax,0x14(%esp)
    4198:	8d 45 e8             	lea    -0x18(%ebp),%eax
    419b:	8b 4d 0c             	mov    0xc(%ebp),%ecx
    419e:	89 44 24 0c          	mov    %eax,0xc(%esp)
    41a2:	8d 45 f0             	lea    -0x10(%ebp),%eax
    41a5:	80 c9 80             	or     $0x80,%cl
    41a8:	c7 44 24 10 02 00 00 	movl   $0x2,0x10(%esp)
    41af:	00 
    41b0:	c7 44 24 08 08 00 00 	movl   $0x8,0x8(%esp)
    41b7:	00 
    41b8:	89 44 24 04          	mov    %eax,0x4(%esp)
    41bc:	89 14 24             	mov    %edx,(%esp)
    41bf:	88 4d f0             	mov    %cl,-0x10(%ebp)
    41c2:	c6 45 f1 00          	movb   $0x0,-0xf(%ebp)
    41c6:	66 c7 45 f2 00 00    	movw   $0x0,-0xe(%ebp)
    41cc:	66 c7 45 f6 02 00    	movw   $0x2,-0xa(%ebp)
    41d2:	e8 99 f3 ff ff       	call   3570 <usb_pipe_control_read>
    41d7:	85 c0                	test   %eax,%eax
    41d9:	75 0c                	jne    41e7 <usb_request_get_status+0x77>
    41db:	83 7d ec 02          	cmpl   $0x2,-0x14(%ebp)
    41df:	75 0f                	jne    41f0 <usb_request_get_status+0x80>
    41e1:	8b 55 e8             	mov    -0x18(%ebp),%edx
    41e4:	66 89 13             	mov    %dx,(%ebx)
    41e7:	83 c4 34             	add    $0x34,%esp
    41ea:	5b                   	pop    %ebx
    41eb:	5d                   	pop    %ebp
    41ec:	c3                   	ret    
    41ed:	8d 76 00             	lea    0x0(%esi),%esi
    41f0:	b8 fd ff ff ff       	mov    $0xfffffffd,%eax
    41f5:	eb f0                	jmp    41e7 <usb_request_get_status+0x77>
    41f7:	90                   	nop
    41f8:	8b 4d 0c             	mov    0xc(%ebp),%ecx
    41fb:	85 c9                	test   %ecx,%ecx
    41fd:	75 86                	jne    4185 <usb_request_get_status+0x15>
    41ff:	b8 f2 ff ff ff       	mov    $0xfffffff2,%eax
    4204:	eb e1                	jmp    41e7 <usb_request_get_status+0x77>
    4206:	66 90                	xchg   %ax,%ax
    4208:	b8 f6 ff ff ff       	mov    $0xfffffff6,%eax
    420d:	eb d8                	jmp    41e7 <usb_request_get_status+0x77>
    420f:	90                   	nop

00004210 <usb_request_clear_feature>:
    4210:	55                   	push   %ebp
    4211:	89 e5                	mov    %esp,%ebp
    4213:	53                   	push   %ebx
    4214:	83 ec 34             	sub    $0x34,%esp
    4217:	8b 45 0c             	mov    0xc(%ebp),%eax
    421a:	8b 55 08             	mov    0x8(%ebp),%edx
    421d:	8b 5d 14             	mov    0x14(%ebp),%ebx
    4220:	8b 4d 18             	mov    0x18(%ebp),%ecx
    4223:	85 c0                	test   %eax,%eax
    4225:	75 05                	jne    422c <usb_request_clear_feature+0x1c>
    4227:	66 85 c9             	test   %cx,%cx
    422a:	75 4c                	jne    4278 <usb_request_clear_feature+0x68>
    422c:	85 d2                	test   %edx,%edx
    422e:	74 55                	je     4285 <usb_request_clear_feature+0x75>
    4230:	c1 e0 05             	shl    $0x5,%eax
    4233:	c7 44 24 10 00 00 00 	movl   $0x0,0x10(%esp)
    423a:	00 
    423b:	0b 45 10             	or     0x10(%ebp),%eax
    423e:	c7 44 24 0c 00 00 00 	movl   $0x0,0xc(%esp)
    4245:	00 
    4246:	88 45 f0             	mov    %al,-0x10(%ebp)
    4249:	8d 45 f0             	lea    -0x10(%ebp),%eax
    424c:	c7 44 24 08 08 00 00 	movl   $0x8,0x8(%esp)
    4253:	00 
    4254:	89 44 24 04          	mov    %eax,0x4(%esp)
    4258:	89 14 24             	mov    %edx,(%esp)
    425b:	c6 45 f1 01          	movb   $0x1,-0xf(%ebp)
    425f:	66 89 5d f2          	mov    %bx,-0xe(%ebp)
    4263:	66 89 4d f4          	mov    %cx,-0xc(%ebp)
    4267:	66 c7 45 f6 00 00    	movw   $0x0,-0xa(%ebp)
    426d:	e8 5e f4 ff ff       	call   36d0 <usb_pipe_control_write>
    4272:	83 c4 34             	add    $0x34,%esp
    4275:	5b                   	pop    %ebx
    4276:	5d                   	pop    %ebp
    4277:	c3                   	ret    
    4278:	83 7d 10 00          	cmpl   $0x0,0x10(%ebp)
    427c:	75 ae                	jne    422c <usb_request_clear_feature+0x1c>
    427e:	b8 f2 ff ff ff       	mov    $0xfffffff2,%eax
    4283:	eb ed                	jmp    4272 <usb_request_clear_feature+0x62>
    4285:	b8 f6 ff ff ff       	mov    $0xfffffff6,%eax
    428a:	eb e6                	jmp    4272 <usb_request_clear_feature+0x62>
    428c:	8d 74 26 00          	lea    0x0(%esi,%eiz,1),%esi

00004290 <usb_request_set_feature>:
    4290:	55                   	push   %ebp
    4291:	89 e5                	mov    %esp,%ebp
    4293:	53                   	push   %ebx
    4294:	83 ec 34             	sub    $0x34,%esp
    4297:	8b 45 0c             	mov    0xc(%ebp),%eax
    429a:	8b 55 08             	mov    0x8(%ebp),%edx
    429d:	8b 5d 14             	mov    0x14(%ebp),%ebx
    42a0:	8b 4d 18             	mov    0x18(%ebp),%ecx
    42a3:	85 c0                	test   %eax,%eax
    42a5:	75 05                	jne    42ac <usb_request_set_feature+0x1c>
    42a7:	66 85 c9             	test   %cx,%cx
    42aa:	75 4c                	jne    42f8 <usb_request_set_feature+0x68>
    42ac:	85 d2                	test   %edx,%edx
    42ae:	74 55                	je     4305 <usb_request_set_feature+0x75>
    42b0:	c1 e0 05             	shl    $0x5,%eax
    42b3:	c7 44 24 10 00 00 00 	movl   $0x0,0x10(%esp)
    42ba:	00 
    42bb:	0b 45 10             	or     0x10(%ebp),%eax
    42be:	c7 44 24 0c 00 00 00 	movl   $0x0,0xc(%esp)
    42c5:	00 
    42c6:	88 45 f0             	mov    %al,-0x10(%ebp)
    42c9:	8d 45 f0             	lea    -0x10(%ebp),%eax
    42cc:	c7 44 24 08 08 00 00 	movl   $0x8,0x8(%esp)
    42d3:	00 
    42d4:	89 44 24 04          	mov    %eax,0x4(%esp)
    42d8:	89 14 24             	mov    %edx,(%esp)
    42db:	c6 45 f1 03          	movb   $0x3,-0xf(%ebp)
    42df:	66 89 5d f2          	mov    %bx,-0xe(%ebp)
    42e3:	66 89 4d f4          	mov    %cx,-0xc(%ebp)
    42e7:	66 c7 45 f6 00 00    	movw   $0x0,-0xa(%ebp)
    42ed:	e8 de f3 ff ff       	call   36d0 <usb_pipe_control_write>
    42f2:	83 c4 34             	add    $0x34,%esp
    42f5:	5b                   	pop    %ebx
    42f6:	5d                   	pop    %ebp
    42f7:	c3                   	ret    
    42f8:	83 7d 10 00          	cmpl   $0x0,0x10(%ebp)
    42fc:	75 ae                	jne    42ac <usb_request_set_feature+0x1c>
    42fe:	b8 f2 ff ff ff       	mov    $0xfffffff2,%eax
    4303:	eb ed                	jmp    42f2 <usb_request_set_feature+0x62>
    4305:	b8 f6 ff ff ff       	mov    $0xfffffff6,%eax
    430a:	eb e6                	jmp    42f2 <usb_request_set_feature+0x62>
    430c:	8d 74 26 00          	lea    0x0(%esi,%eiz,1),%esi

00004310 <usb_request_get_descriptor>:
    4310:	55                   	push   %ebp
    4311:	89 e5                	mov    %esp,%ebp
    4313:	57                   	push   %edi
    4314:	56                   	push   %esi
    4315:	53                   	push   %ebx
    4316:	83 ec 3c             	sub    $0x3c,%esp
    4319:	8b 5d 20             	mov    0x20(%ebp),%ebx
    431c:	8b 75 08             	mov    0x8(%ebp),%esi
    431f:	8b 7d 1c             	mov    0x1c(%ebp),%edi
    4322:	8b 55 24             	mov    0x24(%ebp),%edx
    4325:	8a 4d 14             	mov    0x14(%ebp),%cl
    4328:	8a 45 18             	mov    0x18(%ebp),%al
    432b:	85 db                	test   %ebx,%ebx
    432d:	74 79                	je     43a8 <usb_request_get_descriptor+0x98>
    432f:	85 d2                	test   %edx,%edx
    4331:	74 65                	je     4398 <usb_request_get_descriptor+0x88>
    4333:	c1 e1 08             	shl    $0x8,%ecx
    4336:	25 ff 00 00 00       	and    $0xff,%eax
    433b:	09 c1                	or     %eax,%ecx
    433d:	85 f6                	test   %esi,%esi
    433f:	74 67                	je     43a8 <usb_request_get_descriptor+0x98>
    4341:	81 fa ff ff 00 00    	cmp    $0xffff,%edx
    4347:	77 57                	ja     43a0 <usb_request_get_descriptor+0x90>
    4349:	8a 45 0c             	mov    0xc(%ebp),%al
    434c:	89 54 24 10          	mov    %edx,0x10(%esp)
    4350:	c1 e0 05             	shl    $0x5,%eax
    4353:	89 5c 24 0c          	mov    %ebx,0xc(%esp)
    4357:	0b 45 10             	or     0x10(%ebp),%eax
    435a:	c7 44 24 08 08 00 00 	movl   $0x8,0x8(%esp)
    4361:	00 
    4362:	83 c8 80             	or     $0xffffff80,%eax
    4365:	89 34 24             	mov    %esi,(%esp)
    4368:	88 45 e0             	mov    %al,-0x20(%ebp)
    436b:	8b 45 28             	mov    0x28(%ebp),%eax
    436e:	89 44 24 14          	mov    %eax,0x14(%esp)
    4372:	8d 45 e0             	lea    -0x20(%ebp),%eax
    4375:	89 44 24 04          	mov    %eax,0x4(%esp)
    4379:	c6 45 e1 06          	movb   $0x6,-0x1f(%ebp)
    437d:	66 89 4d e2          	mov    %cx,-0x1e(%ebp)
    4381:	66 89 7d e4          	mov    %di,-0x1c(%ebp)
    4385:	66 89 55 e6          	mov    %dx,-0x1a(%ebp)
    4389:	e8 e2 f1 ff ff       	call   3570 <usb_pipe_control_read>
    438e:	83 c4 3c             	add    $0x3c,%esp
    4391:	5b                   	pop    %ebx
    4392:	5e                   	pop    %esi
    4393:	5f                   	pop    %edi
    4394:	5d                   	pop    %ebp
    4395:	c3                   	ret    
    4396:	66 90                	xchg   %ax,%ax
    4398:	b8 f2 ff ff ff       	mov    $0xfffffff2,%eax
    439d:	eb ef                	jmp    438e <usb_request_get_descriptor+0x7e>
    439f:	90                   	nop
    43a0:	b8 f9 fe ff ff       	mov    $0xfffffef9,%eax
    43a5:	eb e7                	jmp    438e <usb_request_get_descriptor+0x7e>
    43a7:	90                   	nop
    43a8:	b8 f6 ff ff ff       	mov    $0xfffffff6,%eax
    43ad:	eb df                	jmp    438e <usb_request_get_descriptor+0x7e>
    43af:	90                   	nop

000043b0 <usb_request_get_descriptor_alloc>:
    43b0:	55                   	push   %ebp
    43b1:	89 e5                	mov    %esp,%ebp
    43b3:	57                   	push   %edi
    43b4:	56                   	push   %esi
    43b5:	53                   	push   %ebx
    43b6:	83 ec 5c             	sub    $0x5c,%esp
    43b9:	8b 55 20             	mov    0x20(%ebp),%edx
    43bc:	8b 7d 1c             	mov    0x1c(%ebp),%edi
    43bf:	8a 4d 14             	mov    0x14(%ebp),%cl
    43c2:	8a 45 18             	mov    0x18(%ebp),%al
    43c5:	85 d2                	test   %edx,%edx
    43c7:	0f 84 3b 01 00 00    	je     4508 <usb_request_get_descriptor_alloc+0x158>
    43cd:	89 ce                	mov    %ecx,%esi
    43cf:	25 ff 00 00 00       	and    $0xff,%eax
    43d4:	c1 e6 08             	shl    $0x8,%esi
    43d7:	09 c6                	or     %eax,%esi
    43d9:	8b 45 08             	mov    0x8(%ebp),%eax
    43dc:	85 c0                	test   %eax,%eax
    43de:	0f 84 24 01 00 00    	je     4508 <usb_request_get_descriptor_alloc+0x158>
    43e4:	8a 5d 0c             	mov    0xc(%ebp),%bl
    43e7:	8b 45 10             	mov    0x10(%ebp),%eax
    43ea:	c1 e3 05             	shl    $0x5,%ebx
    43ed:	8b 4d 08             	mov    0x8(%ebp),%ecx
    43f0:	09 c3                	or     %eax,%ebx
    43f2:	8d 45 d4             	lea    -0x2c(%ebp),%eax
    43f5:	89 44 24 14          	mov    %eax,0x14(%esp)
    43f9:	8d 45 d0             	lea    -0x30(%ebp),%eax
    43fc:	89 44 24 0c          	mov    %eax,0xc(%esp)
    4400:	8d 45 d8             	lea    -0x28(%ebp),%eax
    4403:	83 cb 80             	or     $0xffffff80,%ebx
    4406:	c7 44 24 10 01 00 00 	movl   $0x1,0x10(%esp)
    440d:	00 
    440e:	c7 44 24 08 08 00 00 	movl   $0x8,0x8(%esp)
    4415:	00 
    4416:	89 44 24 04          	mov    %eax,0x4(%esp)
    441a:	89 0c 24             	mov    %ecx,(%esp)
    441d:	88 5d d8             	mov    %bl,-0x28(%ebp)
    4420:	c6 45 d9 06          	movb   $0x6,-0x27(%ebp)
    4424:	66 89 75 da          	mov    %si,-0x26(%ebp)
    4428:	66 89 7d dc          	mov    %di,-0x24(%ebp)
    442c:	66 c7 45 de 01 00    	movw   $0x1,-0x22(%ebp)
    4432:	e8 39 f1 ff ff       	call   3570 <usb_pipe_control_read>
    4437:	85 c0                	test   %eax,%eax
    4439:	0f 85 9a 00 00 00    	jne    44d9 <usb_request_get_descriptor_alloc+0x129>
    443f:	83 7d d4 01          	cmpl   $0x1,-0x2c(%ebp)
    4443:	0f 85 9f 00 00 00    	jne    44e8 <usb_request_get_descriptor_alloc+0x138>
    4449:	8a 4d d0             	mov    -0x30(%ebp),%cl
    444c:	88 4d c3             	mov    %cl,-0x3d(%ebp)
    444f:	81 e1 ff 00 00 00    	and    $0xff,%ecx
    4455:	89 4d c4             	mov    %ecx,-0x3c(%ebp)
    4458:	85 c9                	test   %ecx,%ecx
    445a:	0f 84 88 00 00 00    	je     44e8 <usb_request_get_descriptor_alloc+0x138>
    4460:	89 0c 24             	mov    %ecx,(%esp)
    4463:	e8 98 8b 01 00       	call   1d000 <malloc>
    4468:	89 c1                	mov    %eax,%ecx
    446a:	85 c0                	test   %eax,%eax
    446c:	0f 84 ac 00 00 00    	je     451e <usb_request_get_descriptor_alloc+0x16e>
    4472:	88 5d e0             	mov    %bl,-0x20(%ebp)
    4475:	31 c0                	xor    %eax,%eax
    4477:	8d 5d d4             	lea    -0x2c(%ebp),%ebx
    447a:	8a 45 c3             	mov    -0x3d(%ebp),%al
    447d:	89 5c 24 14          	mov    %ebx,0x14(%esp)
    4481:	8b 5d c4             	mov    -0x3c(%ebp),%ebx
    4484:	66 89 45 e6          	mov    %ax,-0x1a(%ebp)
    4488:	89 5c 24 10          	mov    %ebx,0x10(%esp)
    448c:	8d 45 e0             	lea    -0x20(%ebp),%eax
    448f:	8b 5d 08             	mov    0x8(%ebp),%ebx
    4492:	89 4c 24 0c          	mov    %ecx,0xc(%esp)
    4496:	c7 44 24 08 08 00 00 	movl   $0x8,0x8(%esp)
    449d:	00 
    449e:	89 44 24 04          	mov    %eax,0x4(%esp)
    44a2:	89 1c 24             	mov    %ebx,(%esp)
    44a5:	89 4d bc             	mov    %ecx,-0x44(%ebp)
    44a8:	c6 45 e1 06          	movb   $0x6,-0x1f(%ebp)
    44ac:	66 89 75 e2          	mov    %si,-0x1e(%ebp)
    44b0:	66 89 7d e4          	mov    %di,-0x1c(%ebp)
    44b4:	e8 b7 f0 ff ff       	call   3570 <usb_pipe_control_read>
    44b9:	8b 4d bc             	mov    -0x44(%ebp),%ecx
    44bc:	85 c0                	test   %eax,%eax
    44be:	75 38                	jne    44f8 <usb_request_get_descriptor_alloc+0x148>
    44c0:	8b 55 d4             	mov    -0x2c(%ebp),%edx
    44c3:	3b 55 c4             	cmp    -0x3c(%ebp),%edx
    44c6:	75 47                	jne    450f <usb_request_get_descriptor_alloc+0x15f>
    44c8:	8b 5d 20             	mov    0x20(%ebp),%ebx
    44cb:	89 0b                	mov    %ecx,(%ebx)
    44cd:	8b 4d 24             	mov    0x24(%ebp),%ecx
    44d0:	85 c9                	test   %ecx,%ecx
    44d2:	74 05                	je     44d9 <usb_request_get_descriptor_alloc+0x129>
    44d4:	8b 4d 24             	mov    0x24(%ebp),%ecx
    44d7:	89 11                	mov    %edx,(%ecx)
    44d9:	83 c4 5c             	add    $0x5c,%esp
    44dc:	5b                   	pop    %ebx
    44dd:	5e                   	pop    %esi
    44de:	5f                   	pop    %edi
    44df:	5d                   	pop    %ebp
    44e0:	c3                   	ret    
    44e1:	8d b4 26 00 00 00 00 	lea    0x0(%esi,%eiz,1),%esi
    44e8:	83 c4 5c             	add    $0x5c,%esp
    44eb:	b8 d3 fe ff ff       	mov    $0xfffffed3,%eax
    44f0:	5b                   	pop    %ebx
    44f1:	5e                   	pop    %esi
    44f2:	5f                   	pop    %edi
    44f3:	5d                   	pop    %ebp
    44f4:	c3                   	ret    
    44f5:	8d 76 00             	lea    0x0(%esi),%esi
    44f8:	89 0c 24             	mov    %ecx,(%esp)
    44fb:	89 45 bc             	mov    %eax,-0x44(%ebp)
    44fe:	e8 0d 8c 01 00       	call   1d110 <free>
    4503:	8b 45 bc             	mov    -0x44(%ebp),%eax
    4506:	eb d1                	jmp    44d9 <usb_request_get_descriptor_alloc+0x129>
    4508:	b8 f6 ff ff ff       	mov    $0xfffffff6,%eax
    450d:	eb ca                	jmp    44d9 <usb_request_get_descriptor_alloc+0x129>
    450f:	89 0c 24             	mov    %ecx,(%esp)
    4512:	e8 f9 8b 01 00       	call   1d110 <free>
    4517:	b8 d3 fe ff ff       	mov    $0xfffffed3,%eax
    451c:	eb bb                	jmp    44d9 <usb_request_get_descriptor_alloc+0x129>
    451e:	b8 fe ff ff ff       	mov    $0xfffffffe,%eax
    4523:	eb b4                	jmp    44d9 <usb_request_get_descriptor_alloc+0x129>
    4525:	8d 74 26 00          	lea    0x0(%esi,%eiz,1),%esi
    4529:	8d bc 27 00 00 00 00 	lea    0x0(%edi,%eiz,1),%edi

00004530 <usb_request_get_device_descriptor>:
    4530:	55                   	push   %ebp
    4531:	89 e5                	mov    %esp,%ebp
    4533:	57                   	push   %edi
    4534:	56                   	push   %esi
    4535:	53                   	push   %ebx
    4536:	83 ec 4c             	sub    $0x4c,%esp
    4539:	8b 75 0c             	mov    0xc(%ebp),%esi
    453c:	8b 45 08             	mov    0x8(%ebp),%eax
    453f:	85 f6                	test   %esi,%esi
    4541:	0f 84 89 00 00 00    	je     45d0 <usb_request_get_device_descriptor+0xa0>
    4547:	c7 45 c8 00 00 00 00 	movl   $0x0,-0x38(%ebp)
    454e:	85 c0                	test   %eax,%eax
    4550:	74 7e                	je     45d0 <usb_request_get_device_descriptor+0xa0>
    4552:	8d 55 c8             	lea    -0x38(%ebp),%edx
    4555:	8d 7d d6             	lea    -0x2a(%ebp),%edi
    4558:	89 54 24 14          	mov    %edx,0x14(%esp)
    455c:	8d 55 ce             	lea    -0x32(%ebp),%edx
    455f:	c7 44 24 10 12 00 00 	movl   $0x12,0x10(%esp)
    4566:	00 
    4567:	89 7c 24 0c          	mov    %edi,0xc(%esp)
    456b:	c7 44 24 08 08 00 00 	movl   $0x8,0x8(%esp)
    4572:	00 
    4573:	89 54 24 04          	mov    %edx,0x4(%esp)
    4577:	89 04 24             	mov    %eax,(%esp)
    457a:	c6 45 ce 80          	movb   $0x80,-0x32(%ebp)
    457e:	c6 45 cf 06          	movb   $0x6,-0x31(%ebp)
    4582:	66 c7 45 d0 00 01    	movw   $0x100,-0x30(%ebp)
    4588:	66 c7 45 d2 00 00    	movw   $0x0,-0x2e(%ebp)
    458e:	66 c7 45 d4 12 00    	movw   $0x12,-0x2c(%ebp)
    4594:	e8 d7 ef ff ff       	call   3570 <usb_pipe_control_read>
    4599:	89 c3                	mov    %eax,%ebx
    459b:	85 c0                	test   %eax,%eax
    459d:	75 1a                	jne    45b9 <usb_request_get_device_descriptor+0x89>
    459f:	83 7d c8 11          	cmpl   $0x11,-0x38(%ebp)
    45a3:	76 23                	jbe    45c8 <usb_request_get_device_descriptor+0x98>
    45a5:	c7 44 24 08 12 00 00 	movl   $0x12,0x8(%esp)
    45ac:	00 
    45ad:	89 7c 24 04          	mov    %edi,0x4(%esp)
    45b1:	89 34 24             	mov    %esi,(%esp)
    45b4:	e8 e7 b5 00 00       	call   fba0 <memcpy>
    45b9:	83 c4 4c             	add    $0x4c,%esp
    45bc:	89 d8                	mov    %ebx,%eax
    45be:	5b                   	pop    %ebx
    45bf:	5e                   	pop    %esi
    45c0:	5f                   	pop    %edi
    45c1:	5d                   	pop    %ebp
    45c2:	c3                   	ret    
    45c3:	90                   	nop
    45c4:	8d 74 26 00          	lea    0x0(%esi,%eiz,1),%esi
    45c8:	bb fd ff ff ff       	mov    $0xfffffffd,%ebx
    45cd:	eb ea                	jmp    45b9 <usb_request_get_device_descriptor+0x89>
    45cf:	90                   	nop
    45d0:	bb f6 ff ff ff       	mov    $0xfffffff6,%ebx
    45d5:	eb e2                	jmp    45b9 <usb_request_get_device_descriptor+0x89>
    45d7:	89 f6                	mov    %esi,%esi
    45d9:	8d bc 27 00 00 00 00 	lea    0x0(%edi,%eiz,1),%edi

000045e0 <usb_request_get_bare_configuration_descriptor>:
    45e0:	55                   	push   %ebp
    45e1:	89 e5                	mov    %esp,%ebp
    45e3:	57                   	push   %edi
    45e4:	56                   	push   %esi
    45e5:	53                   	push   %ebx
    45e6:	83 ec 4c             	sub    $0x4c,%esp
    45e9:	8b 75 10             	mov    0x10(%ebp),%esi
    45ec:	8b 45 08             	mov    0x8(%ebp),%eax
    45ef:	85 f6                	test   %esi,%esi
    45f1:	0f 84 a0 00 00 00    	je     4697 <usb_request_get_bare_configuration_descriptor+0xb7>
    45f7:	81 7d 0c ff 00 00 00 	cmpl   $0xff,0xc(%ebp)
    45fe:	0f 87 8c 00 00 00    	ja     4690 <usb_request_get_bare_configuration_descriptor+0xb0>
    4604:	8b 55 0c             	mov    0xc(%ebp),%edx
    4607:	c7 45 d0 00 00 00 00 	movl   $0x0,-0x30(%ebp)
    460e:	80 ce 02             	or     $0x2,%dh
    4611:	85 c0                	test   %eax,%eax
    4613:	0f 84 7e 00 00 00    	je     4697 <usb_request_get_bare_configuration_descriptor+0xb7>
    4619:	66 89 55 d9          	mov    %dx,-0x27(%ebp)
    461d:	8d 55 d0             	lea    -0x30(%ebp),%edx
    4620:	89 54 24 14          	mov    %edx,0x14(%esp)
    4624:	8d 7d df             	lea    -0x21(%ebp),%edi
    4627:	8d 55 d7             	lea    -0x29(%ebp),%edx
    462a:	c7 44 24 10 09 00 00 	movl   $0x9,0x10(%esp)
    4631:	00 
    4632:	89 7c 24 0c          	mov    %edi,0xc(%esp)
    4636:	c7 44 24 08 08 00 00 	movl   $0x8,0x8(%esp)
    463d:	00 
    463e:	89 54 24 04          	mov    %edx,0x4(%esp)
    4642:	89 04 24             	mov    %eax,(%esp)
    4645:	c6 45 d7 80          	movb   $0x80,-0x29(%ebp)
    4649:	c6 45 d8 06          	movb   $0x6,-0x28(%ebp)
    464d:	66 c7 45 db 00 00    	movw   $0x0,-0x25(%ebp)
    4653:	66 c7 45 dd 09 00    	movw   $0x9,-0x23(%ebp)
    4659:	e8 12 ef ff ff       	call   3570 <usb_pipe_control_read>
    465e:	89 c3                	mov    %eax,%ebx
    4660:	85 c0                	test   %eax,%eax
    4662:	75 1a                	jne    467e <usb_request_get_bare_configuration_descriptor+0x9e>
    4664:	83 7d d0 08          	cmpl   $0x8,-0x30(%ebp)
    4668:	76 1e                	jbe    4688 <usb_request_get_bare_configuration_descriptor+0xa8>
    466a:	c7 44 24 08 09 00 00 	movl   $0x9,0x8(%esp)
    4671:	00 
    4672:	89 7c 24 04          	mov    %edi,0x4(%esp)
    4676:	89 34 24             	mov    %esi,(%esp)
    4679:	e8 22 b5 00 00       	call   fba0 <memcpy>
    467e:	83 c4 4c             	add    $0x4c,%esp
    4681:	89 d8                	mov    %ebx,%eax
    4683:	5b                   	pop    %ebx
    4684:	5e                   	pop    %esi
    4685:	5f                   	pop    %edi
    4686:	5d                   	pop    %ebp
    4687:	c3                   	ret    
    4688:	bb fd ff ff ff       	mov    $0xfffffffd,%ebx
    468d:	eb ef                	jmp    467e <usb_request_get_bare_configuration_descriptor+0x9e>
    468f:	90                   	nop
    4690:	bb f9 fe ff ff       	mov    $0xfffffef9,%ebx
    4695:	eb e7                	jmp    467e <usb_request_get_bare_configuration_descriptor+0x9e>
    4697:	bb f6 ff ff ff       	mov    $0xfffffff6,%ebx
    469c:	eb e0                	jmp    467e <usb_request_get_bare_configuration_descriptor+0x9e>
    469e:	66 90                	xchg   %ax,%ax

000046a0 <usb_request_get_full_configuration_descriptor>:
    46a0:	55                   	push   %ebp
    46a1:	89 e5                	mov    %esp,%ebp
    46a3:	53                   	push   %ebx
    46a4:	83 ec 34             	sub    $0x34,%esp
    46a7:	8b 4d 08             	mov    0x8(%ebp),%ecx
    46aa:	8b 55 10             	mov    0x10(%ebp),%edx
    46ad:	8b 45 14             	mov    0x14(%ebp),%eax
    46b0:	81 7d 0c ff 00 00 00 	cmpl   $0xff,0xc(%ebp)
    46b7:	77 5f                	ja     4718 <usb_request_get_full_configuration_descriptor+0x78>
    46b9:	85 d2                	test   %edx,%edx
    46bb:	74 73                	je     4730 <usb_request_get_full_configuration_descriptor+0x90>
    46bd:	85 c0                	test   %eax,%eax
    46bf:	74 67                	je     4728 <usb_request_get_full_configuration_descriptor+0x88>
    46c1:	8b 5d 0c             	mov    0xc(%ebp),%ebx
    46c4:	80 cf 02             	or     $0x2,%bh
    46c7:	85 c9                	test   %ecx,%ecx
    46c9:	74 65                	je     4730 <usb_request_get_full_configuration_descriptor+0x90>
    46cb:	3d ff ff 00 00       	cmp    $0xffff,%eax
    46d0:	77 46                	ja     4718 <usb_request_get_full_configuration_descriptor+0x78>
    46d2:	66 89 5d f2          	mov    %bx,-0xe(%ebp)
    46d6:	66 89 45 f6          	mov    %ax,-0xa(%ebp)
    46da:	8b 5d 18             	mov    0x18(%ebp),%ebx
    46dd:	89 44 24 10          	mov    %eax,0x10(%esp)
    46e1:	8d 45 f0             	lea    -0x10(%ebp),%eax
    46e4:	89 5c 24 14          	mov    %ebx,0x14(%esp)
    46e8:	89 54 24 0c          	mov    %edx,0xc(%esp)
    46ec:	c7 44 24 08 08 00 00 	movl   $0x8,0x8(%esp)
    46f3:	00 
    46f4:	89 44 24 04          	mov    %eax,0x4(%esp)
    46f8:	89 0c 24             	mov    %ecx,(%esp)
    46fb:	c6 45 f0 80          	movb   $0x80,-0x10(%ebp)
    46ff:	c6 45 f1 06          	movb   $0x6,-0xf(%ebp)
    4703:	66 c7 45 f4 00 00    	movw   $0x0,-0xc(%ebp)
    4709:	e8 62 ee ff ff       	call   3570 <usb_pipe_control_read>
    470e:	83 c4 34             	add    $0x34,%esp
    4711:	5b                   	pop    %ebx
    4712:	5d                   	pop    %ebp
    4713:	c3                   	ret    
    4714:	8d 74 26 00          	lea    0x0(%esi,%eiz,1),%esi
    4718:	83 c4 34             	add    $0x34,%esp
    471b:	b8 f9 fe ff ff       	mov    $0xfffffef9,%eax
    4720:	5b                   	pop    %ebx
    4721:	5d                   	pop    %ebp
    4722:	c3                   	ret    
    4723:	90                   	nop
    4724:	8d 74 26 00          	lea    0x0(%esi,%eiz,1),%esi
    4728:	b8 f2 ff ff ff       	mov    $0xfffffff2,%eax
    472d:	eb df                	jmp    470e <usb_request_get_full_configuration_descriptor+0x6e>
    472f:	90                   	nop
    4730:	b8 f6 ff ff ff       	mov    $0xfffffff6,%eax
    4735:	eb d7                	jmp    470e <usb_request_get_full_configuration_descriptor+0x6e>
    4737:	89 f6                	mov    %esi,%esi
    4739:	8d bc 27 00 00 00 00 	lea    0x0(%edi,%eiz,1),%edi

00004740 <usb_request_get_full_configuration_descriptor_alloc>:
    4740:	55                   	push   %ebp
    4741:	89 e5                	mov    %esp,%ebp
    4743:	57                   	push   %edi
    4744:	56                   	push   %esi
    4745:	53                   	push   %ebx
    4746:	83 ec 6c             	sub    $0x6c,%esp
    4749:	8b 45 10             	mov    0x10(%ebp),%eax
    474c:	85 c0                	test   %eax,%eax
    474e:	0f 84 74 01 00 00    	je     48c8 <usb_request_get_full_configuration_descriptor_alloc+0x188>
    4754:	81 7d 0c ff 00 00 00 	cmpl   $0xff,0xc(%ebp)
    475b:	0f 87 57 01 00 00    	ja     48b8 <usb_request_get_full_configuration_descriptor_alloc+0x178>
    4761:	8b 75 0c             	mov    0xc(%ebp),%esi
    4764:	8b 7d 08             	mov    0x8(%ebp),%edi
    4767:	81 ce 00 02 00 00    	or     $0x200,%esi
    476d:	c7 45 c0 00 00 00 00 	movl   $0x0,-0x40(%ebp)
    4774:	85 ff                	test   %edi,%edi
    4776:	0f 84 4c 01 00 00    	je     48c8 <usb_request_get_full_configuration_descriptor_alloc+0x188>
    477c:	8d 45 c4             	lea    -0x3c(%ebp),%eax
    477f:	8b 55 08             	mov    0x8(%ebp),%edx
    4782:	8d 7d c0             	lea    -0x40(%ebp),%edi
    4785:	8d 5d df             	lea    -0x21(%ebp),%ebx
    4788:	89 7c 24 14          	mov    %edi,0x14(%esp)
    478c:	c7 44 24 10 09 00 00 	movl   $0x9,0x10(%esp)
    4793:	00 
    4794:	89 5c 24 0c          	mov    %ebx,0xc(%esp)
    4798:	c7 44 24 08 08 00 00 	movl   $0x8,0x8(%esp)
    479f:	00 
    47a0:	89 44 24 04          	mov    %eax,0x4(%esp)
    47a4:	89 14 24             	mov    %edx,(%esp)
    47a7:	c6 45 c4 80          	movb   $0x80,-0x3c(%ebp)
    47ab:	c6 45 c5 06          	movb   $0x6,-0x3b(%ebp)
    47af:	66 89 75 c6          	mov    %si,-0x3a(%ebp)
    47b3:	66 c7 45 c8 00 00    	movw   $0x0,-0x38(%ebp)
    47b9:	66 c7 45 ca 09 00    	movw   $0x9,-0x36(%ebp)
    47bf:	e8 ac ed ff ff       	call   3570 <usb_pipe_control_read>
    47c4:	85 c0                	test   %eax,%eax
    47c6:	0f 85 bd 00 00 00    	jne    4889 <usb_request_get_full_configuration_descriptor_alloc+0x149>
    47cc:	83 7d c0 08          	cmpl   $0x8,-0x40(%ebp)
    47d0:	0f 86 c2 00 00 00    	jbe    4898 <usb_request_get_full_configuration_descriptor_alloc+0x158>
    47d6:	8d 45 d4             	lea    -0x2c(%ebp),%eax
    47d9:	c7 44 24 08 09 00 00 	movl   $0x9,0x8(%esp)
    47e0:	00 
    47e1:	89 5c 24 04          	mov    %ebx,0x4(%esp)
    47e5:	89 04 24             	mov    %eax,(%esp)
    47e8:	e8 b3 b3 00 00       	call   fba0 <memcpy>
    47ed:	80 7d d5 02          	cmpb   $0x2,-0x2b(%ebp)
    47f1:	0f 85 c9 00 00 00    	jne    48c0 <usb_request_get_full_configuration_descriptor_alloc+0x180>
    47f7:	66 8b 4d d6          	mov    -0x2a(%ebp),%cx
    47fb:	89 cb                	mov    %ecx,%ebx
    47fd:	81 e3 ff ff 00 00    	and    $0xffff,%ebx
    4803:	83 fb 08             	cmp    $0x8,%ebx
    4806:	0f 86 8c 00 00 00    	jbe    4898 <usb_request_get_full_configuration_descriptor_alloc+0x158>
    480c:	89 1c 24             	mov    %ebx,(%esp)
    480f:	89 4d b4             	mov    %ecx,-0x4c(%ebp)
    4812:	e8 e9 87 01 00       	call   1d000 <malloc>
    4817:	8b 4d b4             	mov    -0x4c(%ebp),%ecx
    481a:	89 c2                	mov    %eax,%edx
    481c:	85 c0                	test   %eax,%eax
    481e:	0f 84 ba 00 00 00    	je     48de <usb_request_get_full_configuration_descriptor_alloc+0x19e>
    4824:	89 44 24 0c          	mov    %eax,0xc(%esp)
    4828:	8d 45 cc             	lea    -0x34(%ebp),%eax
    482b:	89 44 24 04          	mov    %eax,0x4(%esp)
    482f:	8b 45 08             	mov    0x8(%ebp),%eax
    4832:	89 7c 24 14          	mov    %edi,0x14(%esp)
    4836:	89 5c 24 10          	mov    %ebx,0x10(%esp)
    483a:	c7 44 24 08 08 00 00 	movl   $0x8,0x8(%esp)
    4841:	00 
    4842:	89 04 24             	mov    %eax,(%esp)
    4845:	89 55 b4             	mov    %edx,-0x4c(%ebp)
    4848:	c7 45 c0 00 00 00 00 	movl   $0x0,-0x40(%ebp)
    484f:	c6 45 cc 80          	movb   $0x80,-0x34(%ebp)
    4853:	c6 45 cd 06          	movb   $0x6,-0x33(%ebp)
    4857:	66 89 75 ce          	mov    %si,-0x32(%ebp)
    485b:	66 c7 45 d0 00 00    	movw   $0x0,-0x30(%ebp)
    4861:	66 89 4d d2          	mov    %cx,-0x2e(%ebp)
    4865:	e8 06 ed ff ff       	call   3570 <usb_pipe_control_read>
    486a:	8b 55 b4             	mov    -0x4c(%ebp),%edx
    486d:	85 c0                	test   %eax,%eax
    486f:	75 37                	jne    48a8 <usb_request_get_full_configuration_descriptor_alloc+0x168>
    4871:	8b 4d c0             	mov    -0x40(%ebp),%ecx
    4874:	39 d9                	cmp    %ebx,%ecx
    4876:	75 57                	jne    48cf <usb_request_get_full_configuration_descriptor_alloc+0x18f>
    4878:	8b 5d 10             	mov    0x10(%ebp),%ebx
    487b:	89 13                	mov    %edx,(%ebx)
    487d:	8b 5d 14             	mov    0x14(%ebp),%ebx
    4880:	85 db                	test   %ebx,%ebx
    4882:	74 05                	je     4889 <usb_request_get_full_configuration_descriptor_alloc+0x149>
    4884:	8b 55 14             	mov    0x14(%ebp),%edx
    4887:	89 0a                	mov    %ecx,(%edx)
    4889:	83 c4 6c             	add    $0x6c,%esp
    488c:	5b                   	pop    %ebx
    488d:	5e                   	pop    %esi
    488e:	5f                   	pop    %edi
    488f:	5d                   	pop    %ebp
    4890:	c3                   	ret    
    4891:	8d b4 26 00 00 00 00 	lea    0x0(%esi,%eiz,1),%esi
    4898:	83 c4 6c             	add    $0x6c,%esp
    489b:	b8 fd ff ff ff       	mov    $0xfffffffd,%eax
    48a0:	5b                   	pop    %ebx
    48a1:	5e                   	pop    %esi
    48a2:	5f                   	pop    %edi
    48a3:	5d                   	pop    %ebp
    48a4:	c3                   	ret    
    48a5:	8d 76 00             	lea    0x0(%esi),%esi
    48a8:	89 14 24             	mov    %edx,(%esp)
    48ab:	89 45 b4             	mov    %eax,-0x4c(%ebp)
    48ae:	e8 5d 88 01 00       	call   1d110 <free>
    48b3:	8b 45 b4             	mov    -0x4c(%ebp),%eax
    48b6:	eb d1                	jmp    4889 <usb_request_get_full_configuration_descriptor_alloc+0x149>
    48b8:	b8 f9 fe ff ff       	mov    $0xfffffef9,%eax
    48bd:	eb ca                	jmp    4889 <usb_request_get_full_configuration_descriptor_alloc+0x149>
    48bf:	90                   	nop
    48c0:	83 c8 ff             	or     $0xffffffff,%eax
    48c3:	eb c4                	jmp    4889 <usb_request_get_full_configuration_descriptor_alloc+0x149>
    48c5:	8d 76 00             	lea    0x0(%esi),%esi
    48c8:	b8 f6 ff ff ff       	mov    $0xfffffff6,%eax
    48cd:	eb ba                	jmp    4889 <usb_request_get_full_configuration_descriptor_alloc+0x149>
    48cf:	89 14 24             	mov    %edx,(%esp)
    48d2:	e8 39 88 01 00       	call   1d110 <free>
    48d7:	b8 fd ff ff ff       	mov    $0xfffffffd,%eax
    48dc:	eb ab                	jmp    4889 <usb_request_get_full_configuration_descriptor_alloc+0x149>
    48de:	b8 fe ff ff ff       	mov    $0xfffffffe,%eax
    48e3:	eb a4                	jmp    4889 <usb_request_get_full_configuration_descriptor_alloc+0x149>
    48e5:	8d 74 26 00          	lea    0x0(%esi,%eiz,1),%esi
    48e9:	8d bc 27 00 00 00 00 	lea    0x0(%edi,%eiz,1),%edi

000048f0 <usb_request_set_descriptor>:
    48f0:	55                   	push   %ebp
    48f1:	89 e5                	mov    %esp,%ebp
    48f3:	57                   	push   %edi
    48f4:	56                   	push   %esi
    48f5:	53                   	push   %ebx
    48f6:	83 ec 3c             	sub    $0x3c,%esp
    48f9:	8b 5d 20             	mov    0x20(%ebp),%ebx
    48fc:	8b 75 08             	mov    0x8(%ebp),%esi
    48ff:	8b 7d 1c             	mov    0x1c(%ebp),%edi
    4902:	8b 45 24             	mov    0x24(%ebp),%eax
    4905:	8a 55 14             	mov    0x14(%ebp),%dl
    4908:	8a 4d 18             	mov    0x18(%ebp),%cl
    490b:	85 db                	test   %ebx,%ebx
    490d:	74 71                	je     4980 <usb_request_set_descriptor+0x90>
    490f:	85 c0                	test   %eax,%eax
    4911:	74 5d                	je     4970 <usb_request_set_descriptor+0x80>
    4913:	c1 e2 08             	shl    $0x8,%edx
    4916:	81 e1 ff 00 00 00    	and    $0xff,%ecx
    491c:	09 ca                	or     %ecx,%edx
    491e:	85 f6                	test   %esi,%esi
    4920:	74 5e                	je     4980 <usb_request_set_descriptor+0x90>
    4922:	3d ff ff 00 00       	cmp    $0xffff,%eax
    4927:	77 4f                	ja     4978 <usb_request_set_descriptor+0x88>
    4929:	8a 4d 0c             	mov    0xc(%ebp),%cl
    492c:	66 89 45 e6          	mov    %ax,-0x1a(%ebp)
    4930:	c1 e1 05             	shl    $0x5,%ecx
    4933:	89 44 24 10          	mov    %eax,0x10(%esp)
    4937:	0b 4d 10             	or     0x10(%ebp),%ecx
    493a:	8d 45 e0             	lea    -0x20(%ebp),%eax
    493d:	89 5c 24 0c          	mov    %ebx,0xc(%esp)
    4941:	c7 44 24 08 08 00 00 	movl   $0x8,0x8(%esp)
    4948:	00 
    4949:	89 44 24 04          	mov    %eax,0x4(%esp)
    494d:	89 34 24             	mov    %esi,(%esp)
    4950:	88 4d e0             	mov    %cl,-0x20(%ebp)
    4953:	c6 45 e1 07          	movb   $0x7,-0x1f(%ebp)
    4957:	66 89 55 e2          	mov    %dx,-0x1e(%ebp)
    495b:	66 89 7d e4          	mov    %di,-0x1c(%ebp)
    495f:	e8 6c ed ff ff       	call   36d0 <usb_pipe_control_write>
    4964:	83 c4 3c             	add    $0x3c,%esp
    4967:	5b                   	pop    %ebx
    4968:	5e                   	pop    %esi
    4969:	5f                   	pop    %edi
    496a:	5d                   	pop    %ebp
    496b:	c3                   	ret    
    496c:	8d 74 26 00          	lea    0x0(%esi,%eiz,1),%esi
    4970:	b8 f2 ff ff ff       	mov    $0xfffffff2,%eax
    4975:	eb ed                	jmp    4964 <usb_request_set_descriptor+0x74>
    4977:	90                   	nop
    4978:	b8 f9 fe ff ff       	mov    $0xfffffef9,%eax
    497d:	eb e5                	jmp    4964 <usb_request_set_descriptor+0x74>
    497f:	90                   	nop
    4980:	b8 f6 ff ff ff       	mov    $0xfffffff6,%eax
    4985:	eb dd                	jmp    4964 <usb_request_set_descriptor+0x74>
    4987:	89 f6                	mov    %esi,%esi
    4989:	8d bc 27 00 00 00 00 	lea    0x0(%edi,%eiz,1),%edi

00004990 <usb_request_get_configuration>:
    4990:	55                   	push   %ebp
    4991:	89 e5                	mov    %esp,%ebp
    4993:	53                   	push   %ebx
    4994:	83 ec 34             	sub    $0x34,%esp
    4997:	8b 45 08             	mov    0x8(%ebp),%eax
    499a:	8b 5d 0c             	mov    0xc(%ebp),%ebx
    499d:	85 c0                	test   %eax,%eax
    499f:	74 6e                	je     4a0f <usb_request_get_configuration+0x7f>
    49a1:	8d 55 ec             	lea    -0x14(%ebp),%edx
    49a4:	c7 44 24 10 01 00 00 	movl   $0x1,0x10(%esp)
    49ab:	00 
    49ac:	89 54 24 14          	mov    %edx,0x14(%esp)
    49b0:	8d 55 e8             	lea    -0x18(%ebp),%edx
    49b3:	89 54 24 0c          	mov    %edx,0xc(%esp)
    49b7:	8d 55 f0             	lea    -0x10(%ebp),%edx
    49ba:	c7 44 24 08 08 00 00 	movl   $0x8,0x8(%esp)
    49c1:	00 
    49c2:	89 54 24 04          	mov    %edx,0x4(%esp)
    49c6:	89 04 24             	mov    %eax,(%esp)
    49c9:	c6 45 f0 80          	movb   $0x80,-0x10(%ebp)
    49cd:	c6 45 f1 08          	movb   $0x8,-0xf(%ebp)
    49d1:	66 c7 45 f2 00 00    	movw   $0x0,-0xe(%ebp)
    49d7:	66 c7 45 f4 00 00    	movw   $0x0,-0xc(%ebp)
    49dd:	66 c7 45 f6 01 00    	movw   $0x1,-0xa(%ebp)
    49e3:	e8 88 eb ff ff       	call   3570 <usb_pipe_control_read>
    49e8:	85 c0                	test   %eax,%eax
    49ea:	75 0f                	jne    49fb <usb_request_get_configuration+0x6b>
    49ec:	83 7d ec 01          	cmpl   $0x1,-0x14(%ebp)
    49f0:	75 16                	jne    4a08 <usb_request_get_configuration+0x78>
    49f2:	85 db                	test   %ebx,%ebx
    49f4:	74 05                	je     49fb <usb_request_get_configuration+0x6b>
    49f6:	8a 55 e8             	mov    -0x18(%ebp),%dl
    49f9:	88 13                	mov    %dl,(%ebx)
    49fb:	83 c4 34             	add    $0x34,%esp
    49fe:	5b                   	pop    %ebx
    49ff:	5d                   	pop    %ebp
    4a00:	c3                   	ret    
    4a01:	8d b4 26 00 00 00 00 	lea    0x0(%esi,%eiz,1),%esi
    4a08:	b8 fd ff ff ff       	mov    $0xfffffffd,%eax
    4a0d:	eb ec                	jmp    49fb <usb_request_get_configuration+0x6b>
    4a0f:	b8 f6 ff ff ff       	mov    $0xfffffff6,%eax
    4a14:	eb e5                	jmp    49fb <usb_request_get_configuration+0x6b>
    4a16:	8d 76 00             	lea    0x0(%esi),%esi
    4a19:	8d bc 27 00 00 00 00 	lea    0x0(%edi,%eiz,1),%edi

00004a20 <usb_request_set_configuration>:
    4a20:	55                   	push   %ebp
    4a21:	31 d2                	xor    %edx,%edx
    4a23:	89 e5                	mov    %esp,%ebp
    4a25:	83 ec 38             	sub    $0x38,%esp
    4a28:	8b 45 08             	mov    0x8(%ebp),%eax
    4a2b:	8a 55 0c             	mov    0xc(%ebp),%dl
    4a2e:	85 c0                	test   %eax,%eax
    4a30:	74 41                	je     4a73 <usb_request_set_configuration+0x53>
    4a32:	66 89 55 f2          	mov    %dx,-0xe(%ebp)
    4a36:	8d 55 f0             	lea    -0x10(%ebp),%edx
    4a39:	c7 44 24 10 00 00 00 	movl   $0x0,0x10(%esp)
    4a40:	00 
    4a41:	c7 44 24 0c 00 00 00 	movl   $0x0,0xc(%esp)
    4a48:	00 
    4a49:	c7 44 24 08 08 00 00 	movl   $0x8,0x8(%esp)
    4a50:	00 
    4a51:	89 54 24 04          	mov    %edx,0x4(%esp)
    4a55:	89 04 24             	mov    %eax,(%esp)
    4a58:	c6 45 f0 00          	movb   $0x0,-0x10(%ebp)
    4a5c:	c6 45 f1 09          	movb   $0x9,-0xf(%ebp)
    4a60:	66 c7 45 f4 00 00    	movw   $0x0,-0xc(%ebp)
    4a66:	66 c7 45 f6 00 00    	movw   $0x0,-0xa(%ebp)
    4a6c:	e8 5f ec ff ff       	call   36d0 <usb_pipe_control_write>
    4a71:	c9                   	leave  
    4a72:	c3                   	ret    
    4a73:	b8 f6 ff ff ff       	mov    $0xfffffff6,%eax
    4a78:	c9                   	leave  
    4a79:	c3                   	ret    
    4a7a:	8d b6 00 00 00 00    	lea    0x0(%esi),%esi

00004a80 <usb_request_get_interface>:
    4a80:	55                   	push   %ebp
    4a81:	31 d2                	xor    %edx,%edx
    4a83:	89 e5                	mov    %esp,%ebp
    4a85:	53                   	push   %ebx
    4a86:	83 ec 34             	sub    $0x34,%esp
    4a89:	8b 45 08             	mov    0x8(%ebp),%eax
    4a8c:	8b 5d 10             	mov    0x10(%ebp),%ebx
    4a8f:	8a 55 0c             	mov    0xc(%ebp),%dl
    4a92:	85 c0                	test   %eax,%eax
    4a94:	74 69                	je     4aff <usb_request_get_interface+0x7f>
    4a96:	66 89 55 f4          	mov    %dx,-0xc(%ebp)
    4a9a:	8d 55 ec             	lea    -0x14(%ebp),%edx
    4a9d:	89 54 24 14          	mov    %edx,0x14(%esp)
    4aa1:	8d 55 e8             	lea    -0x18(%ebp),%edx
    4aa4:	89 54 24 0c          	mov    %edx,0xc(%esp)
    4aa8:	8d 55 f0             	lea    -0x10(%ebp),%edx
    4aab:	c7 44 24 10 01 00 00 	movl   $0x1,0x10(%esp)
    4ab2:	00 
    4ab3:	c7 44 24 08 08 00 00 	movl   $0x8,0x8(%esp)
    4aba:	00 
    4abb:	89 54 24 04          	mov    %edx,0x4(%esp)
    4abf:	89 04 24             	mov    %eax,(%esp)
    4ac2:	c6 45 f0 81          	movb   $0x81,-0x10(%ebp)
    4ac6:	c6 45 f1 0a          	movb   $0xa,-0xf(%ebp)
    4aca:	66 c7 45 f2 00 00    	movw   $0x0,-0xe(%ebp)
    4ad0:	66 c7 45 f6 01 00    	movw   $0x1,-0xa(%ebp)
    4ad6:	e8 95 ea ff ff       	call   3570 <usb_pipe_control_read>
    4adb:	85 c0                	test   %eax,%eax
    4add:	75 0f                	jne    4aee <usb_request_get_interface+0x6e>
    4adf:	83 7d ec 01          	cmpl   $0x1,-0x14(%ebp)
    4ae3:	75 13                	jne    4af8 <usb_request_get_interface+0x78>
    4ae5:	85 db                	test   %ebx,%ebx
    4ae7:	74 05                	je     4aee <usb_request_get_interface+0x6e>
    4ae9:	8a 55 e8             	mov    -0x18(%ebp),%dl
    4aec:	88 13                	mov    %dl,(%ebx)
    4aee:	83 c4 34             	add    $0x34,%esp
    4af1:	5b                   	pop    %ebx
    4af2:	5d                   	pop    %ebp
    4af3:	c3                   	ret    
    4af4:	8d 74 26 00          	lea    0x0(%esi,%eiz,1),%esi
    4af8:	b8 fd ff ff ff       	mov    $0xfffffffd,%eax
    4afd:	eb ef                	jmp    4aee <usb_request_get_interface+0x6e>
    4aff:	b8 f6 ff ff ff       	mov    $0xfffffff6,%eax
    4b04:	eb e8                	jmp    4aee <usb_request_get_interface+0x6e>
    4b06:	8d 76 00             	lea    0x0(%esi),%esi
    4b09:	8d bc 27 00 00 00 00 	lea    0x0(%edi,%eiz,1),%edi

00004b10 <usb_request_set_interface>:
    4b10:	55                   	push   %ebp
    4b11:	31 c9                	xor    %ecx,%ecx
    4b13:	89 e5                	mov    %esp,%ebp
    4b15:	83 ec 38             	sub    $0x38,%esp
    4b18:	31 d2                	xor    %edx,%edx
    4b1a:	8b 45 08             	mov    0x8(%ebp),%eax
    4b1d:	8a 4d 10             	mov    0x10(%ebp),%cl
    4b20:	8a 55 0c             	mov    0xc(%ebp),%dl
    4b23:	85 c0                	test   %eax,%eax
    4b25:	74 3f                	je     4b66 <usb_request_set_interface+0x56>
    4b27:	66 89 55 f4          	mov    %dx,-0xc(%ebp)
    4b2b:	8d 55 f0             	lea    -0x10(%ebp),%edx
    4b2e:	c7 44 24 10 00 00 00 	movl   $0x0,0x10(%esp)
    4b35:	00 
    4b36:	c7 44 24 0c 00 00 00 	movl   $0x0,0xc(%esp)
    4b3d:	00 
    4b3e:	c7 44 24 08 08 00 00 	movl   $0x8,0x8(%esp)
    4b45:	00 
    4b46:	89 54 24 04          	mov    %edx,0x4(%esp)
    4b4a:	89 04 24             	mov    %eax,(%esp)
    4b4d:	c6 45 f0 01          	movb   $0x1,-0x10(%ebp)
    4b51:	c6 45 f1 0b          	movb   $0xb,-0xf(%ebp)
    4b55:	66 89 4d f2          	mov    %cx,-0xe(%ebp)
    4b59:	66 c7 45 f6 00 00    	movw   $0x0,-0xa(%ebp)
    4b5f:	e8 6c eb ff ff       	call   36d0 <usb_pipe_control_write>
    4b64:	c9                   	leave  
    4b65:	c3                   	ret    
    4b66:	b8 f6 ff ff ff       	mov    $0xfffffff6,%eax
    4b6b:	c9                   	leave  
    4b6c:	c3                   	ret    
    4b6d:	8d 76 00             	lea    0x0(%esi),%esi

00004b70 <usb_request_get_supported_languages>:
    4b70:	55                   	push   %ebp
    4b71:	89 e5                	mov    %esp,%ebp
    4b73:	57                   	push   %edi
    4b74:	56                   	push   %esi
    4b75:	53                   	push   %ebx
    4b76:	83 ec 4c             	sub    $0x4c,%esp
    4b79:	8b 55 0c             	mov    0xc(%ebp),%edx
    4b7c:	85 d2                	test   %edx,%edx
    4b7e:	0f 84 ee 00 00 00    	je     4c72 <usb_request_get_supported_languages+0x102>
    4b84:	8b 45 10             	mov    0x10(%ebp),%eax
    4b87:	85 c0                	test   %eax,%eax
    4b89:	0f 84 e3 00 00 00    	je     4c72 <usb_request_get_supported_languages+0x102>
    4b8f:	8d 45 e4             	lea    -0x1c(%ebp),%eax
    4b92:	c7 44 24 14 00 00 00 	movl   $0x0,0x14(%esp)
    4b99:	00 
    4b9a:	89 44 24 1c          	mov    %eax,0x1c(%esp)
    4b9e:	8d 45 e0             	lea    -0x20(%ebp),%eax
    4ba1:	89 44 24 18          	mov    %eax,0x18(%esp)
    4ba5:	8b 45 08             	mov    0x8(%ebp),%eax
    4ba8:	c7 44 24 10 00 00 00 	movl   $0x0,0x10(%esp)
    4baf:	00 
    4bb0:	c7 44 24 0c 03 00 00 	movl   $0x3,0xc(%esp)
    4bb7:	00 
    4bb8:	c7 44 24 08 00 00 00 	movl   $0x0,0x8(%esp)
    4bbf:	00 
    4bc0:	c7 44 24 04 00 00 00 	movl   $0x0,0x4(%esp)
    4bc7:	00 
    4bc8:	89 04 24             	mov    %eax,(%esp)
    4bcb:	c7 45 e0 00 00 00 00 	movl   $0x0,-0x20(%ebp)
    4bd2:	c7 45 e4 00 00 00 00 	movl   $0x0,-0x1c(%ebp)
    4bd9:	e8 d2 f7 ff ff       	call   43b0 <usb_request_get_descriptor_alloc>
    4bde:	89 45 d4             	mov    %eax,-0x2c(%ebp)
    4be1:	85 c0                	test   %eax,%eax
    4be3:	0f 85 81 00 00 00    	jne    4c6a <usb_request_get_supported_languages+0xfa>
    4be9:	8b 7d e4             	mov    -0x1c(%ebp),%edi
    4bec:	83 ff 02             	cmp    $0x2,%edi
    4bef:	0f 86 a0 00 00 00    	jbe    4c95 <usb_request_get_supported_languages+0x125>
    4bf5:	83 ef 02             	sub    $0x2,%edi
    4bf8:	89 7d e4             	mov    %edi,-0x1c(%ebp)
    4bfb:	f7 c7 01 00 00 00    	test   $0x1,%edi
    4c01:	75 7b                	jne    4c7e <usb_request_get_supported_languages+0x10e>
    4c03:	d1 ef                	shr    %edi
    4c05:	8d 04 bd 00 00 00 00 	lea    0x0(,%edi,4),%eax
    4c0c:	89 04 24             	mov    %eax,(%esp)
    4c0f:	e8 ec 83 01 00       	call   1d000 <malloc>
    4c14:	85 c0                	test   %eax,%eax
    4c16:	0f 84 90 00 00 00    	je     4cac <usb_request_get_supported_languages+0x13c>
    4c1c:	8b 5d e0             	mov    -0x20(%ebp),%ebx
    4c1f:	85 ff                	test   %edi,%edi
    4c21:	74 2c                	je     4c4f <usb_request_get_supported_languages+0xdf>
    4c23:	31 d2                	xor    %edx,%edx
    4c25:	89 45 cc             	mov    %eax,-0x34(%ebp)
    4c28:	31 c9                	xor    %ecx,%ecx
    4c2a:	8a 4c 53 03          	mov    0x3(%ebx,%edx,2),%cl
    4c2e:	42                   	inc    %edx
    4c2f:	c1 e1 08             	shl    $0x8,%ecx
    4c32:	8a 04 53             	mov    (%ebx,%edx,2),%al
    4c35:	25 ff 00 00 00       	and    $0xff,%eax
    4c3a:	89 c6                	mov    %eax,%esi
    4c3c:	8b 45 cc             	mov    -0x34(%ebp),%eax
    4c3f:	01 f1                	add    %esi,%ecx
    4c41:	81 e1 ff ff 00 00    	and    $0xffff,%ecx
    4c47:	39 fa                	cmp    %edi,%edx
    4c49:	89 4c 90 fc          	mov    %ecx,-0x4(%eax,%edx,4)
    4c4d:	75 d9                	jne    4c28 <usb_request_get_supported_languages+0xb8>
    4c4f:	89 1c 24             	mov    %ebx,(%esp)
    4c52:	89 45 d0             	mov    %eax,-0x30(%ebp)
    4c55:	e8 b6 84 01 00       	call   1d110 <free>
    4c5a:	8b 55 0c             	mov    0xc(%ebp),%edx
    4c5d:	8b 45 d0             	mov    -0x30(%ebp),%eax
    4c60:	89 02                	mov    %eax,(%edx)
    4c62:	8b 55 10             	mov    0x10(%ebp),%edx
    4c65:	8b 45 d4             	mov    -0x2c(%ebp),%eax
    4c68:	89 3a                	mov    %edi,(%edx)
    4c6a:	83 c4 4c             	add    $0x4c,%esp
    4c6d:	5b                   	pop    %ebx
    4c6e:	5e                   	pop    %esi
    4c6f:	5f                   	pop    %edi
    4c70:	5d                   	pop    %ebp
    4c71:	c3                   	ret    
    4c72:	c7 45 d4 f6 ff ff ff 	movl   $0xfffffff6,-0x2c(%ebp)
    4c79:	8b 45 d4             	mov    -0x2c(%ebp),%eax
    4c7c:	eb ec                	jmp    4c6a <usb_request_get_supported_languages+0xfa>
    4c7e:	8b 45 e0             	mov    -0x20(%ebp),%eax
    4c81:	89 04 24             	mov    %eax,(%esp)
    4c84:	e8 87 84 01 00       	call   1d110 <free>
    4c89:	c7 45 d4 d3 fe ff ff 	movl   $0xfffffed3,-0x2c(%ebp)
    4c90:	8b 45 d4             	mov    -0x2c(%ebp),%eax
    4c93:	eb d5                	jmp    4c6a <usb_request_get_supported_languages+0xfa>
    4c95:	8b 45 e0             	mov    -0x20(%ebp),%eax
    4c98:	89 04 24             	mov    %eax,(%esp)
    4c9b:	e8 70 84 01 00       	call   1d110 <free>
    4ca0:	c7 45 d4 d2 fe ff ff 	movl   $0xfffffed2,-0x2c(%ebp)
    4ca7:	8b 45 d4             	mov    -0x2c(%ebp),%eax
    4caa:	eb be                	jmp    4c6a <usb_request_get_supported_languages+0xfa>
    4cac:	8b 45 e0             	mov    -0x20(%ebp),%eax
    4caf:	89 04 24             	mov    %eax,(%esp)
    4cb2:	e8 59 84 01 00       	call   1d110 <free>
    4cb7:	c7 45 d4 fe ff ff ff 	movl   $0xfffffffe,-0x2c(%ebp)
    4cbe:	8b 45 d4             	mov    -0x2c(%ebp),%eax
    4cc1:	eb a7                	jmp    4c6a <usb_request_get_supported_languages+0xfa>
    4cc3:	8d b6 00 00 00 00    	lea    0x0(%esi),%esi
    4cc9:	8d bc 27 00 00 00 00 	lea    0x0(%edi,%eiz,1),%edi

00004cd0 <usb_request_get_string>:
    4cd0:	55                   	push   %ebp
    4cd1:	89 e5                	mov    %esp,%ebp
    4cd3:	57                   	push   %edi
    4cd4:	56                   	push   %esi
    4cd5:	53                   	push   %ebx
    4cd6:	83 ec 4c             	sub    $0x4c,%esp
    4cd9:	8b 5d 14             	mov    0x14(%ebp),%ebx
    4cdc:	8b 45 0c             	mov    0xc(%ebp),%eax
    4cdf:	8b 55 10             	mov    0x10(%ebp),%edx
    4ce2:	85 db                	test   %ebx,%ebx
    4ce4:	0f 84 58 01 00 00    	je     4e42 <usb_request_get_string+0x172>
    4cea:	8d 48 ff             	lea    -0x1(%eax),%ecx
    4ced:	81 f9 fe 00 00 00    	cmp    $0xfe,%ecx
    4cf3:	0f 87 2f 01 00 00    	ja     4e28 <usb_request_get_string+0x158>
    4cf9:	81 fa ff ff 00 00    	cmp    $0xffff,%edx
    4cff:	0f 87 23 01 00 00    	ja     4e28 <usb_request_get_string+0x158>
    4d05:	8d 4d e4             	lea    -0x1c(%ebp),%ecx
    4d08:	89 44 24 10          	mov    %eax,0x10(%esp)
    4d0c:	89 4c 24 1c          	mov    %ecx,0x1c(%esp)
    4d10:	8b 45 08             	mov    0x8(%ebp),%eax
    4d13:	8d 4d e0             	lea    -0x20(%ebp),%ecx
    4d16:	89 54 24 14          	mov    %edx,0x14(%esp)
    4d1a:	89 4c 24 18          	mov    %ecx,0x18(%esp)
    4d1e:	c7 44 24 0c 03 00 00 	movl   $0x3,0xc(%esp)
    4d25:	00 
    4d26:	c7 44 24 08 00 00 00 	movl   $0x0,0x8(%esp)
    4d2d:	00 
    4d2e:	c7 44 24 04 00 00 00 	movl   $0x0,0x4(%esp)
    4d35:	00 
    4d36:	89 04 24             	mov    %eax,(%esp)
    4d39:	c7 45 e0 00 00 00 00 	movl   $0x0,-0x20(%ebp)
    4d40:	e8 6b f6 ff ff       	call   43b0 <usb_request_get_descriptor_alloc>
    4d45:	31 f6                	xor    %esi,%esi
    4d47:	89 c3                	mov    %eax,%ebx
    4d49:	85 c0                	test   %eax,%eax
    4d4b:	74 2b                	je     4d78 <usb_request_get_string+0xa8>
    4d4d:	8b 45 e0             	mov    -0x20(%ebp),%eax
    4d50:	85 c0                	test   %eax,%eax
    4d52:	74 08                	je     4d5c <usb_request_get_string+0x8c>
    4d54:	89 04 24             	mov    %eax,(%esp)
    4d57:	e8 b4 83 01 00       	call   1d110 <free>
    4d5c:	85 f6                	test   %esi,%esi
    4d5e:	74 08                	je     4d68 <usb_request_get_string+0x98>
    4d60:	89 34 24             	mov    %esi,(%esp)
    4d63:	e8 a8 83 01 00       	call   1d110 <free>
    4d68:	83 c4 4c             	add    $0x4c,%esp
    4d6b:	89 d8                	mov    %ebx,%eax
    4d6d:	5b                   	pop    %ebx
    4d6e:	5e                   	pop    %esi
    4d6f:	5f                   	pop    %edi
    4d70:	5d                   	pop    %ebp
    4d71:	c3                   	ret    
    4d72:	8d b6 00 00 00 00    	lea    0x0(%esi),%esi
    4d78:	8b 45 e4             	mov    -0x1c(%ebp),%eax
    4d7b:	83 f8 02             	cmp    $0x2,%eax
    4d7e:	76 18                	jbe    4d98 <usb_request_get_string+0xc8>
    4d80:	83 e8 02             	sub    $0x2,%eax
    4d83:	89 45 e4             	mov    %eax,-0x1c(%ebp)
    4d86:	a8 01                	test   $0x1,%al
    4d88:	74 1e                	je     4da8 <usb_request_get_string+0xd8>
    4d8a:	89 de                	mov    %ebx,%esi
    4d8c:	bb d3 fe ff ff       	mov    $0xfffffed3,%ebx
    4d91:	eb ba                	jmp    4d4d <usb_request_get_string+0x7d>
    4d93:	90                   	nop
    4d94:	8d 74 26 00          	lea    0x0(%esi,%eiz,1),%esi
    4d98:	89 de                	mov    %ebx,%esi
    4d9a:	bb d2 fe ff ff       	mov    $0xfffffed2,%ebx
    4d9f:	eb ac                	jmp    4d4d <usb_request_get_string+0x7d>
    4da1:	8d b4 26 00 00 00 00 	lea    0x0(%esi,%eiz,1),%esi
    4da8:	d1 e8                	shr    %eax
    4daa:	89 45 d4             	mov    %eax,-0x2c(%ebp)
    4dad:	8d 04 85 04 00 00 00 	lea    0x4(,%eax,4),%eax
    4db4:	89 04 24             	mov    %eax,(%esp)
    4db7:	e8 44 82 01 00       	call   1d000 <malloc>
    4dbc:	89 c6                	mov    %eax,%esi
    4dbe:	85 c0                	test   %eax,%eax
    4dc0:	74 76                	je     4e38 <usb_request_get_string+0x168>
    4dc2:	8b 4d d4             	mov    -0x2c(%ebp),%ecx
    4dc5:	85 c9                	test   %ecx,%ecx
    4dc7:	74 38                	je     4e01 <usb_request_get_string+0x131>
    4dc9:	8b 4d e0             	mov    -0x20(%ebp),%ecx
    4dcc:	31 c0                	xor    %eax,%eax
    4dce:	89 5d d0             	mov    %ebx,-0x30(%ebp)
    4dd1:	8d b4 26 00 00 00 00 	lea    0x0(%esi,%eiz,1),%esi
    4dd8:	31 d2                	xor    %edx,%edx
    4dda:	8a 54 41 03          	mov    0x3(%ecx,%eax,2),%dl
    4dde:	40                   	inc    %eax
    4ddf:	c1 e2 08             	shl    $0x8,%edx
    4de2:	8a 1c 41             	mov    (%ecx,%eax,2),%bl
    4de5:	81 e3 ff 00 00 00    	and    $0xff,%ebx
    4deb:	89 df                	mov    %ebx,%edi
    4ded:	01 fa                	add    %edi,%edx
    4def:	81 e2 ff ff 00 00    	and    $0xffff,%edx
    4df5:	3b 45 d4             	cmp    -0x2c(%ebp),%eax
    4df8:	89 54 86 fc          	mov    %edx,-0x4(%esi,%eax,4)
    4dfc:	75 da                	jne    4dd8 <usb_request_get_string+0x108>
    4dfe:	8b 5d d0             	mov    -0x30(%ebp),%ebx
    4e01:	8b 55 d4             	mov    -0x2c(%ebp),%edx
    4e04:	c7 04 96 00 00 00 00 	movl   $0x0,(%esi,%edx,4)
    4e0b:	89 34 24             	mov    %esi,(%esp)
    4e0e:	e8 dd d0 00 00       	call   11ef0 <wstr_to_astr>
    4e13:	85 c0                	test   %eax,%eax
    4e15:	74 21                	je     4e38 <usb_request_get_string+0x168>
    4e17:	8b 4d 14             	mov    0x14(%ebp),%ecx
    4e1a:	89 01                	mov    %eax,(%ecx)
