
remcons:     file format elf32-i386


Disassembly of section .init:

00001094 <__entry>:
    1094:	66 8c d0             	mov    %ss,%ax
    1097:	8e d8                	mov    %eax,%ds
    1099:	8e c0                	mov    %eax,%es
    109b:	8e e0                	mov    %eax,%fs
    109d:	b8 01 00 00 00       	mov    $0x1,%eax
    10a2:	0f a2                	cpuid  
    10a4:	0f ba e2 0b          	bt     $0xb,%edx
    10a8:	73 0c                	jae    10b6 <__entry+0x22>
    10aa:	8d 05 60 4b 02 00    	lea    0x24b60,%eax
    10b0:	c7 00 f7 f2 01 00    	movl   $0x1f2f7,(%eax)
    10b6:	6a 00                	push   $0x0
    10b8:	89 e5                	mov    %esp,%ebp
    10ba:	57                   	push   %edi
    10bb:	e8 d0 10 00 00       	call   2190 <__main>

Disassembly of section .text:

000010c0 <remcons_sync>:
    10c0:	55                   	push   %ebp
    10c1:	89 e5                	mov    %esp,%ebp
    10c3:	5d                   	pop    %ebp
    10c4:	c3                   	ret    
    10c5:	8d 74 26 00          	lea    0x0(%esi,%eiz,1),%esi
    10c9:	8d bc 27 00 00 00 00 	lea    0x0(%edi,%eiz,1),%edi

000010d0 <remcons_clear>:
    10d0:	55                   	push   %ebp
    10d1:	89 e5                	mov    %esp,%ebp
    10d3:	5d                   	pop    %ebp
    10d4:	c3                   	ret    
    10d5:	8d 74 26 00          	lea    0x0(%esi,%eiz,1),%esi
    10d9:	8d bc 27 00 00 00 00 	lea    0x0(%edi,%eiz,1),%edi

000010e0 <remcons_get_pos>:
    10e0:	55                   	push   %ebp
    10e1:	89 e5                	mov    %esp,%ebp
    10e3:	8b 45 08             	mov    0x8(%ebp),%eax
    10e6:	8b 00                	mov    (%eax),%eax
    10e8:	8b 40 04             	mov    0x4(%eax),%eax
    10eb:	8b 90 9c 00 00 00    	mov    0x9c(%eax),%edx
    10f1:	8b 45 0c             	mov    0xc(%ebp),%eax
    10f4:	89 10                	mov    %edx,(%eax)
    10f6:	8b 45 10             	mov    0x10(%ebp),%eax
    10f9:	c7 00 00 00 00 00    	movl   $0x0,(%eax)
    10ff:	31 c0                	xor    %eax,%eax
    1101:	5d                   	pop    %ebp
    1102:	c3                   	ret    
    1103:	8d b6 00 00 00 00    	lea    0x0(%esi),%esi
    1109:	8d bc 27 00 00 00 00 	lea    0x0(%edi,%eiz,1),%edi

00001110 <remcons_get_size>:
    1110:	55                   	push   %ebp
    1111:	89 e5                	mov    %esp,%ebp
    1113:	8b 45 0c             	mov    0xc(%ebp),%eax
    1116:	c7 00 64 00 00 00    	movl   $0x64,(%eax)
    111c:	8b 45 10             	mov    0x10(%ebp),%eax
    111f:	c7 00 01 00 00 00    	movl   $0x1,(%eax)
    1125:	31 c0                	xor    %eax,%eax
    1127:	5d                   	pop    %ebp
    1128:	c3                   	ret    
    1129:	8d b4 26 00 00 00 00 	lea    0x0(%esi,%eiz,1),%esi

00001130 <remcons_get_color_cap>:
    1130:	55                   	push   %ebp
    1131:	89 e5                	mov    %esp,%ebp
    1133:	8b 45 0c             	mov    0xc(%ebp),%eax
    1136:	c7 00 00 00 00 00    	movl   $0x0,(%eax)
    113c:	31 c0                	xor    %eax,%eax
    113e:	5d                   	pop    %ebp
    113f:	c3                   	ret    

00001140 <remcons_set_pos>:
    1140:	55                   	push   %ebp
    1141:	89 e5                	mov    %esp,%ebp
    1143:	8b 45 08             	mov    0x8(%ebp),%eax
    1146:	8b 00                	mov    (%eax),%eax
    1148:	8b 40 04             	mov    0x4(%eax),%eax
    114b:	89 45 08             	mov    %eax,0x8(%ebp)
    114e:	5d                   	pop    %ebp
    114f:	e9 cc 0e 00 00       	jmp    2020 <telnet_user_update_cursor_x>
    1154:	8d b6 00 00 00 00    	lea    0x0(%esi),%esi
    115a:	8d bf 00 00 00 00    	lea    0x0(%edi),%edi

00001160 <remcons_write>:
    1160:	55                   	push   %ebp
    1161:	89 e5                	mov    %esp,%ebp
    1163:	53                   	push   %ebx
    1164:	83 ec 14             	sub    $0x14,%esp
    1167:	8b 45 0c             	mov    0xc(%ebp),%eax
    116a:	8b 5d 10             	mov    0x10(%ebp),%ebx
    116d:	89 44 24 04          	mov    %eax,0x4(%esp)
    1171:	8b 45 08             	mov    0x8(%ebp),%eax
    1174:	89 5c 24 08          	mov    %ebx,0x8(%esp)
    1178:	8b 00                	mov    (%eax),%eax
    117a:	8b 40 04             	mov    0x4(%eax),%eax
    117d:	89 04 24             	mov    %eax,(%esp)
    1180:	e8 bb 0d 00 00       	call   1f40 <telnet_user_send_data>
    1185:	85 c0                	test   %eax,%eax
    1187:	75 02                	jne    118b <remcons_write+0x2b>
    1189:	89 d8                	mov    %ebx,%eax
    118b:	83 c4 14             	add    $0x14,%esp
    118e:	5b                   	pop    %ebx
    118f:	5d                   	pop    %ebp
    1190:	c3                   	ret    
    1191:	eb 0d                	jmp    11a0 <remcons_close>
    1193:	90                   	nop
    1194:	90                   	nop
    1195:	90                   	nop
    1196:	90                   	nop
    1197:	90                   	nop
    1198:	90                   	nop
    1199:	90                   	nop
    119a:	90                   	nop
    119b:	90                   	nop
    119c:	90                   	nop
    119d:	90                   	nop
    119e:	90                   	nop
    119f:	90                   	nop

000011a0 <remcons_close>:
    11a0:	55                   	push   %ebp
    11a1:	89 e5                	mov    %esp,%ebp
    11a3:	56                   	push   %esi
    11a4:	53                   	push   %ebx
    11a5:	83 ec 10             	sub    $0x10,%esp
    11a8:	8b 75 08             	mov    0x8(%ebp),%esi
    11ab:	8b 06                	mov    (%esi),%eax
    11ad:	8b 58 04             	mov    0x4(%eax),%ebx
    11b0:	89 1c 24             	mov    %ebx,(%esp)
    11b3:	e8 a8 09 00 00       	call   1b60 <telnet_user_notify_client_disconnected>
    11b8:	89 74 24 0c          	mov    %esi,0xc(%esp)
    11bc:	8b 43 18             	mov    0x18(%ebx),%eax
    11bf:	89 44 24 08          	mov    %eax,0x8(%esp)
    11c3:	8b 43 10             	mov    0x10(%ebx),%eax
    11c6:	c7 04 24 44 19 02 00 	movl   $0x21944,(%esp)
    11cd:	89 44 24 04          	mov    %eax,0x4(%esp)
    11d1:	e8 7a bc 00 00       	call   ce50 <printf>
    11d6:	83 c4 10             	add    $0x10,%esp
    11d9:	31 c0                	xor    %eax,%eax
    11db:	5b                   	pop    %ebx
    11dc:	5e                   	pop    %esi
    11dd:	5d                   	pop    %ebp
    11de:	c3                   	ret    
    11df:	90                   	nop

000011e0 <remcons_open>:
    11e0:	55                   	push   %ebp
    11e1:	89 e5                	mov    %esp,%ebp
    11e3:	53                   	push   %ebx
    11e4:	83 ec 14             	sub    $0x14,%esp
    11e7:	8b 45 0c             	mov    0xc(%ebp),%eax
    11ea:	8b 10                	mov    (%eax),%edx
    11ec:	8b 5a 04             	mov    0x4(%edx),%ebx
    11ef:	89 44 24 0c          	mov    %eax,0xc(%esp)
    11f3:	8b 43 18             	mov    0x18(%ebx),%eax
    11f6:	89 44 24 08          	mov    %eax,0x8(%esp)
    11fa:	8b 43 10             	mov    0x10(%ebx),%eax
    11fd:	c7 04 24 7c 19 02 00 	movl   $0x2197c,(%esp)
    1204:	89 44 24 04          	mov    %eax,0x4(%esp)
    1208:	e8 43 bc 00 00       	call   ce50 <printf>
    120d:	c7 44 24 0c 00 00 00 	movl   $0x0,0xc(%esp)
    1214:	00 
    1215:	c7 44 24 08 09 00 00 	movl   $0x9,0x8(%esp)
    121c:	00 
    121d:	c7 44 24 04 84 1c 02 	movl   $0x21c84,0x4(%esp)
    1224:	00 
    1225:	8b 43 14             	mov    0x14(%ebx),%eax
    1228:	89 04 24             	mov    %eax,(%esp)
    122b:	e8 b0 db 01 00       	call   1ede0 <send>
    1230:	83 c4 14             	add    $0x14,%esp
    1233:	31 c0                	xor    %eax,%eax
    1235:	5b                   	pop    %ebx
    1236:	5d                   	pop    %ebp
    1237:	c3                   	ret    
    1238:	90                   	nop
    1239:	8d b4 26 00 00 00 00 	lea    0x0(%esi,%eiz,1),%esi

00001240 <spawn_task_fibril>:
    1240:	55                   	push   %ebp
    1241:	89 e5                	mov    %esp,%ebp
    1243:	56                   	push   %esi
    1244:	53                   	push   %ebx
    1245:	81 ec 30 01 00 00    	sub    $0x130,%esp
    124b:	8d b5 f9 fe ff ff    	lea    -0x107(%ebp),%esi
    1251:	8b 5d 08             	mov    0x8(%ebp),%ebx
    1254:	8b 43 1c             	mov    0x1c(%ebx),%eax
    1257:	c7 44 24 0c e6 1b 02 	movl   $0x21be6,0xc(%esp)
    125e:	00 
    125f:	89 44 24 10          	mov    %eax,0x10(%esp)
    1263:	c7 44 24 08 eb 1b 02 	movl   $0x21beb,0x8(%esp)
    126a:	00 
    126b:	c7 44 24 04 ff 00 00 	movl   $0xff,0x4(%esp)
    1272:	00 
    1273:	89 34 24             	mov    %esi,(%esp)
    1276:	e8 75 be 00 00       	call   d0f0 <snprintf>
    127b:	8d 85 f0 fe ff ff    	lea    -0x110(%ebp),%eax
    1281:	c7 44 24 18 00 00 00 	movl   $0x0,0x18(%esp)
    1288:	00 
    1289:	c7 44 24 14 f1 1b 02 	movl   $0x21bf1,0x14(%esp)
    1290:	00 
    1291:	89 74 24 10          	mov    %esi,0x10(%esp)
    1295:	c7 44 24 0c fb 1b 02 	movl   $0x21bfb,0xc(%esp)
    129c:	00 
    129d:	c7 44 24 08 fe 1b 02 	movl   $0x21bfe,0x8(%esp)
    12a4:	00 
    12a5:	c7 44 24 04 fe 1b 02 	movl   $0x21bfe,0x4(%esp)
    12ac:	00 
    12ad:	89 04 24             	mov    %eax,(%esp)
    12b0:	e8 cb 92 00 00       	call   a580 <task_spawnl>
    12b5:	85 c0                	test   %eax,%eax
    12b7:	0f 85 d3 00 00 00    	jne    1390 <spawn_task_fibril+0x150>
    12bd:	89 1c 24             	mov    %ebx,(%esp)
    12c0:	e8 5b 7b 00 00       	call   8e20 <fibril_mutex_lock>
    12c5:	8b 85 f0 fe ff ff    	mov    -0x110(%ebp),%eax
    12cb:	8b 95 f4 fe ff ff    	mov    -0x10c(%ebp),%edx
    12d1:	89 83 80 00 00 00    	mov    %eax,0x80(%ebx)
    12d7:	89 93 84 00 00 00    	mov    %edx,0x84(%ebx)
    12dd:	89 1c 24             	mov    %ebx,(%esp)
    12e0:	e8 5b 7c 00 00       	call   8f40 <fibril_mutex_unlock>
    12e5:	8d 85 ec fe ff ff    	lea    -0x114(%ebp),%eax
    12eb:	89 44 24 0c          	mov    %eax,0xc(%esp)
    12ef:	8d 85 e8 fe ff ff    	lea    -0x118(%ebp),%eax
    12f5:	8b 95 f4 fe ff ff    	mov    -0x10c(%ebp),%edx
    12fb:	89 44 24 08          	mov    %eax,0x8(%esp)
    12ff:	8b 85 f0 fe ff ff    	mov    -0x110(%ebp),%eax
    1305:	89 54 24 04          	mov    %edx,0x4(%esp)
    1309:	89 04 24             	mov    %eax,(%esp)
    130c:	e8 7f 93 00 00       	call   a690 <task_wait>
    1311:	8b 8d e8 fe ff ff    	mov    -0x118(%ebp),%ecx
    1317:	8b 95 ec fe ff ff    	mov    -0x114(%ebp),%edx
    131d:	b8 d9 1b 02 00       	mov    $0x21bd9,%eax
    1322:	85 c9                	test   %ecx,%ecx
    1324:	74 62                	je     1388 <spawn_task_fibril+0x148>
    1326:	89 54 24 14          	mov    %edx,0x14(%esp)
    132a:	89 44 24 10          	mov    %eax,0x10(%esp)
    132e:	c7 44 24 0c fe 1b 02 	movl   $0x21bfe,0xc(%esp)
    1335:	00 
    1336:	8b 43 18             	mov    0x18(%ebx),%eax
    1339:	89 44 24 08          	mov    %eax,0x8(%esp)
    133d:	8b 43 10             	mov    0x10(%ebx),%eax
    1340:	c7 04 24 fc 19 02 00 	movl   $0x219fc,(%esp)
    1347:	89 44 24 04          	mov    %eax,0x4(%esp)
    134b:	e8 00 bb 00 00       	call   ce50 <printf>
    1350:	89 1c 24             	mov    %ebx,(%esp)
    1353:	e8 c8 7a 00 00       	call   8e20 <fibril_mutex_lock>
    1358:	8d 83 88 00 00 00    	lea    0x88(%ebx),%eax
    135e:	c6 83 90 00 00 00 01 	movb   $0x1,0x90(%ebx)
    1365:	c6 43 2c 01          	movb   $0x1,0x2c(%ebx)
    1369:	89 04 24             	mov    %eax,(%esp)
    136c:	e8 4f 87 00 00       	call   9ac0 <fibril_condvar_signal>
    1371:	89 1c 24             	mov    %ebx,(%esp)
    1374:	e8 c7 7b 00 00       	call   8f40 <fibril_mutex_unlock>
    1379:	81 c4 30 01 00 00    	add    $0x130,%esp
    137f:	31 c0                	xor    %eax,%eax
    1381:	5b                   	pop    %ebx
    1382:	5e                   	pop    %esi
    1383:	5d                   	pop    %ebp
    1384:	c3                   	ret    
    1385:	8d 76 00             	lea    0x0(%esi),%esi
    1388:	b8 d0 1b 02 00       	mov    $0x21bd0,%eax
    138d:	eb 97                	jmp    1326 <spawn_task_fibril+0xe6>
    138f:	90                   	nop
    1390:	89 04 24             	mov    %eax,(%esp)
    1393:	e8 98 70 00 00       	call   8430 <str_error>
    1398:	c7 44 24 18 f1 1b 02 	movl   $0x21bf1,0x18(%esp)
    139f:	00 
    13a0:	89 44 24 1c          	mov    %eax,0x1c(%esp)
    13a4:	89 74 24 14          	mov    %esi,0x14(%esp)
    13a8:	c7 44 24 10 fe 1b 02 	movl   $0x21bfe,0x10(%esp)
    13af:	00 
    13b0:	8b 43 18             	mov    0x18(%ebx),%eax
    13b3:	89 44 24 0c          	mov    %eax,0xc(%esp)
    13b7:	8b 43 10             	mov    0x10(%ebx),%eax
    13ba:	c7 44 24 04 b4 19 02 	movl   $0x219b4,0x4(%esp)
    13c1:	00 
    13c2:	89 44 24 08          	mov    %eax,0x8(%esp)
    13c6:	a1 cc 4b 02 00       	mov    0x24bcc,%eax
    13cb:	89 04 24             	mov    %eax,(%esp)
    13ce:	e8 4d ba 00 00       	call   ce20 <fprintf>
    13d3:	e9 78 ff ff ff       	jmp    1350 <spawn_task_fibril+0x110>
    13d8:	90                   	nop
    13d9:	8d b4 26 00 00 00 00 	lea    0x0(%esi,%eiz,1),%esi

000013e0 <client_connection>:
    13e0:	55                   	push   %ebp
    13e1:	89 e5                	mov    %esp,%ebp
    13e3:	56                   	push   %esi
    13e4:	53                   	push   %ebx
    13e5:	83 ec 10             	sub    $0x10,%esp
    13e8:	8b 5d 0c             	mov    0xc(%ebp),%ebx
    13eb:	8b 75 08             	mov    0x8(%ebp),%esi
    13ee:	8b 43 04             	mov    0x4(%ebx),%eax
    13f1:	89 04 24             	mov    %eax,(%esp)
    13f4:	e8 a7 06 00 00       	call   1aa0 <telnet_user_get_for_client_connection>
    13f9:	85 c0                	test   %eax,%eax
    13fb:	74 1b                	je     1418 <client_connection+0x38>
    13fd:	83 c0 20             	add    $0x20,%eax
    1400:	89 5d 0c             	mov    %ebx,0xc(%ebp)
    1403:	89 75 08             	mov    %esi,0x8(%ebp)
    1406:	89 45 10             	mov    %eax,0x10(%ebp)
    1409:	83 c4 10             	add    $0x10,%esp
    140c:	5b                   	pop    %ebx
    140d:	5e                   	pop    %esi
    140e:	5d                   	pop    %ebp
    140f:	e9 6c e6 00 00       	jmp    fa80 <con_conn>
    1414:	8d 74 26 00          	lea    0x0(%esi,%eiz,1),%esi
    1418:	89 75 08             	mov    %esi,0x8(%ebp)
    141b:	c7 45 0c ff ff ff ff 	movl   $0xffffffff,0xc(%ebp)
    1422:	83 c4 10             	add    $0x10,%esp
    1425:	5b                   	pop    %ebx
    1426:	5e                   	pop    %esi
    1427:	5d                   	pop    %ebp
    1428:	e9 03 39 01 00       	jmp    14d30 <async_answer_0>
    142d:	8d 76 00             	lea    0x0(%esi),%esi

00001430 <remcons_get_event>:
    1430:	55                   	push   %ebp
    1431:	89 e5                	mov    %esp,%ebp
    1433:	53                   	push   %ebx
    1434:	83 ec 14             	sub    $0x14,%esp
    1437:	8b 5d 0c             	mov    0xc(%ebp),%ebx
    143a:	8b 45 08             	mov    0x8(%ebp),%eax
    143d:	89 5c 24 04          	mov    %ebx,0x4(%esp)
    1441:	8b 00                	mov    (%eax),%eax
    1443:	8b 40 04             	mov    0x4(%eax),%eax
    1446:	89 04 24             	mov    %eax,(%esp)
    1449:	e8 b2 07 00 00       	call   1c00 <telnet_user_get_next_keyboard_event>
    144e:	85 c0                	test   %eax,%eax
    1450:	74 18                	je     146a <remcons_get_event+0x3a>
    1452:	c7 44 24 08 18 00 00 	movl   $0x18,0x8(%esp)
    1459:	00 
    145a:	c7 44 24 04 00 00 00 	movl   $0x0,0x4(%esp)
    1461:	00 
    1462:	89 1c 24             	mov    %ebx,(%esp)
    1465:	e8 56 37 00 00       	call   4bc0 <memset>
    146a:	83 c4 14             	add    $0x14,%esp
    146d:	31 c0                	xor    %eax,%eax
    146f:	5b                   	pop    %ebx
    1470:	5d                   	pop    %ebp
    1471:	c3                   	ret    
    1472:	8d b4 26 00 00 00 00 	lea    0x0(%esi,%eiz,1),%esi
    1479:	8d bc 27 00 00 00 00 	lea    0x0(%edi,%eiz,1),%edi

00001480 <network_user_fibril>:
    1480:	55                   	push   %ebp
    1481:	89 e5                	mov    %esp,%ebp
    1483:	56                   	push   %esi
    1484:	53                   	push   %ebx
    1485:	83 ec 20             	sub    $0x20,%esp
    1488:	8b 5d 08             	mov    0x8(%ebp),%ebx
    148b:	8d 43 18             	lea    0x18(%ebx),%eax
    148e:	89 44 24 04          	mov    %eax,0x4(%esp)
    1492:	8b 43 1c             	mov    0x1c(%ebx),%eax
    1495:	89 04 24             	mov    %eax,(%esp)
    1498:	e8 a3 1b 00 00       	call   3040 <loc_service_register>
    149d:	85 c0                	test   %eax,%eax
    149f:	0f 85 2b 01 00 00    	jne    15d0 <network_user_fibril+0x150>
    14a5:	8b 43 18             	mov    0x18(%ebx),%eax
    14a8:	89 44 24 10          	mov    %eax,0x10(%esp)
    14ac:	8b 53 1c             	mov    0x1c(%ebx),%edx
    14af:	89 44 24 08          	mov    %eax,0x8(%esp)
    14b3:	89 54 24 0c          	mov    %edx,0xc(%esp)
    14b7:	8b 43 10             	mov    0x10(%ebx),%eax
    14ba:	c7 04 24 80 1a 02 00 	movl   $0x21a80,(%esp)
    14c1:	89 44 24 04          	mov    %eax,0x4(%esp)
    14c5:	e8 86 b9 00 00       	call   ce50 <printf>
    14ca:	89 5c 24 04          	mov    %ebx,0x4(%esp)
    14ce:	c7 04 24 40 12 00 00 	movl   $0x1240,(%esp)
    14d5:	e8 66 74 00 00       	call   8940 <fibril_create>
    14da:	85 c0                	test   %eax,%eax
    14dc:	0f 84 69 01 00 00    	je     164b <network_user_fibril+0x1cb>
    14e2:	89 04 24             	mov    %eax,(%esp)
    14e5:	8d b3 88 00 00 00    	lea    0x88(%ebx),%esi
    14eb:	e8 90 75 00 00       	call   8a80 <fibril_add_ready>
    14f0:	89 1c 24             	mov    %ebx,(%esp)
    14f3:	e8 28 79 00 00       	call   8e20 <fibril_mutex_lock>
    14f8:	8a 83 98 00 00 00    	mov    0x98(%ebx),%al
    14fe:	66 90                	xchg   %ax,%ax
    1500:	80 bb 90 00 00 00 00 	cmpb   $0x0,0x90(%ebx)
    1507:	74 5f                	je     1568 <network_user_fibril+0xe8>
    1509:	84 c0                	test   %al,%al
    150b:	0f 84 8f 00 00 00    	je     15a0 <network_user_fibril+0x120>
    1511:	8b 83 94 00 00 00    	mov    0x94(%ebx),%eax
    1517:	85 c0                	test   %eax,%eax
    1519:	0f 85 81 00 00 00    	jne    15a0 <network_user_fibril+0x120>
    151f:	89 1c 24             	mov    %ebx,(%esp)
    1522:	e8 19 7a 00 00       	call   8f40 <fibril_mutex_unlock>
    1527:	8b 43 18             	mov    0x18(%ebx),%eax
    152a:	89 04 24             	mov    %eax,(%esp)
    152d:	e8 de 1c 00 00       	call   3210 <loc_service_unregister>
    1532:	85 c0                	test   %eax,%eax
    1534:	0f 85 d6 00 00 00    	jne    1610 <network_user_fibril+0x190>
    153a:	8b 43 18             	mov    0x18(%ebx),%eax
    153d:	89 44 24 08          	mov    %eax,0x8(%esp)
    1541:	8b 43 10             	mov    0x10(%ebx),%eax
    1544:	c7 04 24 14 1b 02 00 	movl   $0x21b14,(%esp)
    154b:	89 44 24 04          	mov    %eax,0x4(%esp)
    154f:	e8 fc b8 00 00       	call   ce50 <printf>
    1554:	89 1c 24             	mov    %ebx,(%esp)
    1557:	e8 c4 04 00 00       	call   1a20 <telnet_user_destroy>
    155c:	83 c4 20             	add    $0x20,%esp
    155f:	31 c0                	xor    %eax,%eax
    1561:	5b                   	pop    %ebx
    1562:	5e                   	pop    %esi
    1563:	5d                   	pop    %ebp
    1564:	c3                   	ret    
    1565:	8d 76 00             	lea    0x0(%esi),%esi
    1568:	84 c0                	test   %al,%al
    156a:	74 12                	je     157e <network_user_fibril+0xfe>
    156c:	8b 83 84 00 00 00    	mov    0x84(%ebx),%eax
    1572:	8b 93 80 00 00 00    	mov    0x80(%ebx),%edx
    1578:	89 c1                	mov    %eax,%ecx
    157a:	09 d1                	or     %edx,%ecx
    157c:	75 42                	jne    15c0 <network_user_fibril+0x140>
    157e:	c7 44 24 08 e8 03 00 	movl   $0x3e8,0x8(%esp)
    1585:	00 
    1586:	89 5c 24 04          	mov    %ebx,0x4(%esp)
    158a:	89 34 24             	mov    %esi,(%esp)
    158d:	e8 0e 7f 00 00       	call   94a0 <fibril_condvar_wait_timeout>
    1592:	8a 83 98 00 00 00    	mov    0x98(%ebx),%al
    1598:	e9 63 ff ff ff       	jmp    1500 <network_user_fibril+0x80>
    159d:	8d 76 00             	lea    0x0(%esi),%esi
    15a0:	8b 43 14             	mov    0x14(%ebx),%eax
    15a3:	89 04 24             	mov    %eax,(%esp)
    15a6:	e8 75 d6 01 00       	call   1ec20 <closesocket>
    15ab:	c6 83 98 00 00 00 01 	movb   $0x1,0x98(%ebx)
    15b2:	c6 43 2c 01          	movb   $0x1,0x2c(%ebx)
    15b6:	b0 01                	mov    $0x1,%al
    15b8:	e9 43 ff ff ff       	jmp    1500 <network_user_fibril+0x80>
    15bd:	8d 76 00             	lea    0x0(%esi),%esi
    15c0:	89 14 24             	mov    %edx,(%esp)
    15c3:	89 44 24 04          	mov    %eax,0x4(%esp)
    15c7:	e8 e4 8c 00 00       	call   a2b0 <task_kill>
    15cc:	eb b0                	jmp    157e <network_user_fibril+0xfe>
    15ce:	66 90                	xchg   %ax,%ax
    15d0:	89 04 24             	mov    %eax,(%esp)
    15d3:	e8 58 6e 00 00       	call   8430 <str_error>
    15d8:	89 44 24 14          	mov    %eax,0x14(%esp)
    15dc:	8b 43 1c             	mov    0x1c(%ebx),%eax
    15df:	89 44 24 10          	mov    %eax,0x10(%esp)
    15e3:	8b 43 18             	mov    0x18(%ebx),%eax
    15e6:	89 44 24 0c          	mov    %eax,0xc(%esp)
    15ea:	8b 43 10             	mov    0x10(%ebx),%eax
    15ed:	c7 44 24 04 38 1a 02 	movl   $0x21a38,0x4(%esp)
    15f4:	00 
    15f5:	89 44 24 08          	mov    %eax,0x8(%esp)
    15f9:	a1 cc 4b 02 00       	mov    0x24bcc,%eax
    15fe:	89 04 24             	mov    %eax,(%esp)
    1601:	e8 1a b8 00 00       	call   ce20 <fprintf>
    1606:	83 c4 20             	add    $0x20,%esp
    1609:	31 c0                	xor    %eax,%eax
    160b:	5b                   	pop    %ebx
    160c:	5e                   	pop    %esi
    160d:	5d                   	pop    %ebp
    160e:	c3                   	ret    
    160f:	90                   	nop
    1610:	89 04 24             	mov    %eax,(%esp)
    1613:	e8 18 6e 00 00       	call   8430 <str_error>
    1618:	89 44 24 14          	mov    %eax,0x14(%esp)
    161c:	8b 43 1c             	mov    0x1c(%ebx),%eax
    161f:	89 44 24 10          	mov    %eax,0x10(%esp)
    1623:	8b 43 18             	mov    0x18(%ebx),%eax
    1626:	89 44 24 0c          	mov    %eax,0xc(%esp)
    162a:	8b 43 10             	mov    0x10(%ebx),%eax
    162d:	c7 44 24 04 c0 1a 02 	movl   $0x21ac0,0x4(%esp)
    1634:	00 
    1635:	89 44 24 08          	mov    %eax,0x8(%esp)
    1639:	a1 cc 4b 02 00       	mov    0x24bcc,%eax
    163e:	89 04 24             	mov    %eax,(%esp)
    1641:	e8 da b7 00 00       	call   ce20 <fprintf>
    1646:	e9 ef fe ff ff       	jmp    153a <network_user_fibril+0xba>
    164b:	c7 44 24 08 23 01 00 	movl   $0x123,0x8(%esp)
    1652:	00 
    1653:	c7 44 24 04 0b 1c 02 	movl   $0x21c0b,0x4(%esp)
    165a:	00 
    165b:	c7 04 24 15 1c 02 00 	movl   $0x21c15,(%esp)
    1662:	e8 09 dc 01 00       	call   1f270 <assert_abort>
    1667:	66 90                	xchg   %ax,%ax
    1669:	66 90                	xchg   %ax,%ax
    166b:	66 90                	xchg   %ax,%ax
    166d:	66 90                	xchg   %ax,%ax
    166f:	90                   	nop

00001670 <main>:
    1670:	55                   	push   %ebp
    1671:	89 e5                	mov    %esp,%ebp
    1673:	57                   	push   %edi
    1674:	56                   	push   %esi
    1675:	53                   	push   %ebx
    1676:	83 e4 f0             	and    $0xfffffff0,%esp
    1679:	83 ec 40             	sub    $0x40,%esp
    167c:	c7 04 24 e0 13 00 00 	movl   $0x13e0,(%esp)
    1683:	e8 58 1e 01 00       	call   134e0 <async_set_client_connection>
    1688:	c7 04 24 22 1c 02 00 	movl   $0x21c22,(%esp)
    168f:	e8 9c 15 00 00       	call   2c30 <loc_server_register>
    1694:	89 c3                	mov    %eax,%ebx
    1696:	85 c0                	test   %eax,%eax
    1698:	0f 85 c4 00 00 00    	jne    1762 <main+0xf2>
    169e:	8d 44 24 24          	lea    0x24(%esp),%eax
    16a2:	c7 44 24 04 2a 1c 02 	movl   $0x21c2a,0x4(%esp)
    16a9:	00 
    16aa:	89 44 24 08          	mov    %eax,0x8(%esp)
    16ae:	c7 04 24 01 00 00 00 	movl   $0x1,(%esp)
    16b5:	66 c7 44 24 20 01 00 	movw   $0x1,0x20(%esp)
    16bc:	66 c7 44 24 22 08 af 	movw   $0xaf08,0x22(%esp)
    16c3:	e8 d8 b3 01 00       	call   1caa0 <inet_pton>
    16c8:	85 c0                	test   %eax,%eax
    16ca:	74 30                	je     16fc <main+0x8c>
    16cc:	89 04 24             	mov    %eax,(%esp)
    16cf:	bb 02 00 00 00       	mov    $0x2,%ebx
    16d4:	e8 57 6d 00 00       	call   8430 <str_error>
    16d9:	c7 44 24 04 60 1b 02 	movl   $0x21b60,0x4(%esp)
    16e0:	00 
    16e1:	89 44 24 08          	mov    %eax,0x8(%esp)
    16e5:	a1 cc 4b 02 00       	mov    0x24bcc,%eax
    16ea:	89 04 24             	mov    %eax,(%esp)
    16ed:	e8 2e b7 00 00       	call   ce20 <fprintf>
    16f2:	8d 65 f4             	lea    -0xc(%ebp),%esp
    16f5:	89 d8                	mov    %ebx,%eax
    16f7:	5b                   	pop    %ebx
    16f8:	5e                   	pop    %esi
    16f9:	5f                   	pop    %edi
    16fa:	5d                   	pop    %ebp
    16fb:	c3                   	ret    
    16fc:	c7 44 24 08 00 00 00 	movl   $0x0,0x8(%esp)
    1703:	00 
    1704:	c7 44 24 04 01 00 00 	movl   $0x1,0x4(%esp)
    170b:	00 
    170c:	c7 04 24 01 00 00 00 	movl   $0x1,(%esp)
    1713:	e8 78 c9 01 00       	call   1e090 <socket>
    1718:	89 c3                	mov    %eax,%ebx
    171a:	85 c0                	test   %eax,%eax
    171c:	78 66                	js     1784 <main+0x114>
    171e:	8d 44 24 20          	lea    0x20(%esp),%eax
    1722:	c7 44 24 08 10 00 00 	movl   $0x10,0x8(%esp)
    1729:	00 
    172a:	89 44 24 04          	mov    %eax,0x4(%esp)
    172e:	89 1c 24             	mov    %ebx,(%esp)
    1731:	e8 ca cd 01 00       	call   1e500 <bind>
    1736:	85 c0                	test   %eax,%eax
    1738:	74 75                	je     17af <main+0x13f>
    173a:	89 04 24             	mov    %eax,(%esp)
    173d:	bb 04 00 00 00       	mov    $0x4,%ebx
    1742:	e8 e9 6c 00 00       	call   8430 <str_error>
    1747:	c7 44 24 04 34 1c 02 	movl   $0x21c34,0x4(%esp)
    174e:	00 
    174f:	89 44 24 08          	mov    %eax,0x8(%esp)
    1753:	a1 cc 4b 02 00       	mov    0x24bcc,%eax
    1758:	89 04 24             	mov    %eax,(%esp)
    175b:	e8 c0 b6 00 00       	call   ce20 <fprintf>
    1760:	eb 90                	jmp    16f2 <main+0x82>
    1762:	a1 cc 4b 02 00       	mov    0x24bcc,%eax
    1767:	c7 44 24 08 22 1c 02 	movl   $0x21c22,0x8(%esp)
    176e:	00 
    176f:	c7 44 24 04 40 1b 02 	movl   $0x21b40,0x4(%esp)
    1776:	00 
    1777:	89 04 24             	mov    %eax,(%esp)
    177a:	e8 a1 b6 00 00       	call   ce20 <fprintf>
    177f:	e9 6e ff ff ff       	jmp    16f2 <main+0x82>
    1784:	89 04 24             	mov    %eax,(%esp)
    1787:	bb 03 00 00 00       	mov    $0x3,%ebx
    178c:	e8 9f 6c 00 00       	call   8430 <str_error>
    1791:	c7 44 24 04 84 1b 02 	movl   $0x21b84,0x4(%esp)
    1798:	00 
    1799:	89 44 24 08          	mov    %eax,0x8(%esp)
    179d:	a1 cc 4b 02 00       	mov    0x24bcc,%eax
    17a2:	89 04 24             	mov    %eax,(%esp)
    17a5:	e8 76 b6 00 00       	call   ce20 <fprintf>
    17aa:	e9 43 ff ff ff       	jmp    16f2 <main+0x82>
    17af:	c7 44 24 04 05 00 00 	movl   $0x5,0x4(%esp)
    17b6:	00 
    17b7:	89 1c 24             	mov    %ebx,(%esp)
    17ba:	e8 71 cd 01 00       	call   1e530 <listen>
    17bf:	85 c0                	test   %eax,%eax
    17c1:	74 2b                	je     17ee <main+0x17e>
    17c3:	89 04 24             	mov    %eax,(%esp)
    17c6:	bb 05 00 00 00       	mov    $0x5,%ebx
    17cb:	e8 60 6c 00 00       	call   8430 <str_error>
    17d0:	c7 44 24 04 4f 1c 02 	movl   $0x21c4f,0x4(%esp)
    17d7:	00 
    17d8:	89 44 24 08          	mov    %eax,0x8(%esp)
    17dc:	a1 cc 4b 02 00       	mov    0x24bcc,%eax
    17e1:	89 04 24             	mov    %eax,(%esp)
    17e4:	e8 37 b6 00 00       	call   ce20 <fprintf>
    17e9:	e9 04 ff ff ff       	jmp    16f2 <main+0x82>
    17ee:	c7 44 24 04 22 1c 02 	movl   $0x21c22,0x4(%esp)
    17f5:	00 
    17f6:	c7 04 24 ac 1b 02 00 	movl   $0x21bac,(%esp)
    17fd:	e8 4e b6 00 00       	call   ce50 <printf>
    1802:	c7 04 24 00 00 00 00 	movl   $0x0,(%esp)
    1809:	e8 62 8f 00 00       	call   a770 <task_retval>
    180e:	8d 7c 24 1c          	lea    0x1c(%esp),%edi
    1812:	eb 56                	jmp    186a <main+0x1fa>
    1814:	8d 74 26 00          	lea    0x0(%esi,%eiz,1),%esi
    1818:	89 04 24             	mov    %eax,(%esp)
    181b:	e8 d0 00 00 00       	call   18f0 <telnet_user_create>
    1820:	89 c6                	mov    %eax,%esi
    1822:	85 c0                	test   %eax,%eax
    1824:	0f 84 a3 00 00 00    	je     18cd <main+0x25d>
    182a:	8d 50 20             	lea    0x20(%eax),%edx
    182d:	89 14 24             	mov    %edx,(%esp)
    1830:	e8 2b e2 00 00       	call   fa60 <con_srvs_init>
    1835:	c7 46 20 20 49 02 00 	movl   $0x24920,0x20(%esi)
    183c:	89 76 24             	mov    %esi,0x24(%esi)
    183f:	c7 46 28 e8 03 00 00 	movl   $0x3e8,0x28(%esi)
    1846:	89 34 24             	mov    %esi,(%esp)
    1849:	e8 82 01 00 00       	call   19d0 <telnet_user_add>
    184e:	89 74 24 04          	mov    %esi,0x4(%esp)
    1852:	c7 04 24 80 14 00 00 	movl   $0x1480,(%esp)
    1859:	e8 e2 70 00 00       	call   8940 <fibril_create>
    185e:	85 c0                	test   %eax,%eax
    1860:	74 4f                	je     18b1 <main+0x241>
    1862:	89 04 24             	mov    %eax,(%esp)
    1865:	e8 16 72 00 00       	call   8a80 <fibril_add_ready>
    186a:	8d 44 24 30          	lea    0x30(%esp),%eax
    186e:	89 7c 24 08          	mov    %edi,0x8(%esp)
    1872:	89 44 24 04          	mov    %eax,0x4(%esp)
    1876:	89 1c 24             	mov    %ebx,(%esp)
    1879:	c7 44 24 1c 10 00 00 	movl   $0x10,0x1c(%esp)
    1880:	00 
    1881:	e8 4a ce 01 00       	call   1e6d0 <accept>
    1886:	85 c0                	test   %eax,%eax
    1888:	79 8e                	jns    1818 <main+0x1a8>
    188a:	c7 04 24 00 00 00 00 	movl   $0x0,(%esp)
    1891:	e8 9a 6b 00 00       	call   8430 <str_error>
    1896:	c7 44 24 04 65 1c 02 	movl   $0x21c65,0x4(%esp)
    189d:	00 
    189e:	89 44 24 08          	mov    %eax,0x8(%esp)
    18a2:	a1 cc 4b 02 00       	mov    0x24bcc,%eax
    18a7:	89 04 24             	mov    %eax,(%esp)
    18aa:	e8 71 b5 00 00       	call   ce20 <fprintf>
    18af:	eb b9                	jmp    186a <main+0x1fa>
    18b1:	c7 44 24 08 8a 01 00 	movl   $0x18a,0x8(%esp)
    18b8:	00 
    18b9:	c7 44 24 04 0b 1c 02 	movl   $0x21c0b,0x4(%esp)
    18c0:	00 
    18c1:	c7 04 24 80 1c 02 00 	movl   $0x21c80,(%esp)
    18c8:	e8 a3 d9 01 00       	call   1f270 <assert_abort>
    18cd:	c7 44 24 08 80 01 00 	movl   $0x180,0x8(%esp)
    18d4:	00 
    18d5:	c7 44 24 04 0b 1c 02 	movl   $0x21c0b,0x4(%esp)
    18dc:	00 
    18dd:	c7 04 24 7b 1c 02 00 	movl   $0x21c7b,(%esp)
    18e4:	e8 87 d9 01 00       	call   1f270 <assert_abort>
    18e9:	66 90                	xchg   %ax,%ax
    18eb:	66 90                	xchg   %ax,%ax
    18ed:	66 90                	xchg   %ax,%ax
    18ef:	90                   	nop

000018f0 <telnet_user_create>:
    18f0:	55                   	push   %ebp
    18f1:	89 e5                	mov    %esp,%ebp
    18f3:	53                   	push   %ebx
    18f4:	83 ec 14             	sub    $0x14,%esp
    18f7:	c7 04 24 a0 00 00 00 	movl   $0xa0,(%esp)
    18fe:	e8 ed 08 01 00       	call   121f0 <malloc>
    1903:	89 c3                	mov    %eax,%ebx
    1905:	85 c0                	test   %eax,%eax
    1907:	0f 84 9d 00 00 00    	je     19aa <telnet_user_create+0xba>
    190d:	a1 a0 4b 02 00       	mov    0x24ba0,%eax
    1912:	40                   	inc    %eax
    1913:	89 43 10             	mov    %eax,0x10(%ebx)
    1916:	a3 a0 4b 02 00       	mov    %eax,0x24ba0
    191b:	89 44 24 0c          	mov    %eax,0xc(%esp)
    191f:	8d 43 1c             	lea    0x1c(%ebx),%eax
    1922:	c7 44 24 08 06 1c 02 	movl   $0x21c06,0x8(%esp)
    1929:	00 
    192a:	c7 44 24 04 8d 1c 02 	movl   $0x21c8d,0x4(%esp)
    1931:	00 
    1932:	89 04 24             	mov    %eax,(%esp)
    1935:	e8 d6 8f 00 00       	call   a910 <asprintf>
    193a:	85 c0                	test   %eax,%eax
    193c:	78 7a                	js     19b8 <telnet_user_create+0xc8>
    193e:	8b 45 08             	mov    0x8(%ebp),%eax
    1941:	c7 43 18 ff ff ff ff 	movl   $0xffffffff,0x18(%ebx)
    1948:	89 43 14             	mov    %eax,0x14(%ebx)
    194b:	8d 43 30             	lea    0x30(%ebx),%eax
    194e:	89 04 24             	mov    %eax,(%esp)
    1951:	e8 fa 6f 01 00       	call   18950 <prodcons_initialize>
    1956:	8d 83 88 00 00 00    	lea    0x88(%ebx),%eax
    195c:	c7 43 50 00 00 00 00 	movl   $0x0,0x50(%ebx)
    1963:	c7 43 54 00 00 00 00 	movl   $0x0,0x54(%ebx)
    196a:	c7 43 78 00 00 00 00 	movl   $0x0,0x78(%ebx)
    1971:	c7 43 7c 00 00 00 00 	movl   $0x0,0x7c(%ebx)
    1978:	89 04 24             	mov    %eax,(%esp)
    197b:	e8 10 7b 00 00       	call   9490 <fibril_condvar_initialize>
    1980:	89 1c 24             	mov    %ebx,(%esp)
    1983:	e8 78 74 00 00       	call   8e00 <fibril_mutex_initialize>
    1988:	c6 83 90 00 00 00 00 	movb   $0x0,0x90(%ebx)
    198f:	c6 83 98 00 00 00 00 	movb   $0x0,0x98(%ebx)
    1996:	c7 83 94 00 00 00 00 	movl   $0x0,0x94(%ebx)
    199d:	00 00 00 
    19a0:	c7 83 9c 00 00 00 00 	movl   $0x0,0x9c(%ebx)
    19a7:	00 00 00 
    19aa:	83 c4 14             	add    $0x14,%esp
    19ad:	89 d8                	mov    %ebx,%eax
    19af:	5b                   	pop    %ebx
    19b0:	5d                   	pop    %ebp
    19b1:	c3                   	ret    
    19b2:	8d b6 00 00 00 00    	lea    0x0(%esi),%esi
    19b8:	89 1c 24             	mov    %ebx,(%esp)
    19bb:	31 db                	xor    %ebx,%ebx
    19bd:	e8 3e 09 01 00       	call   12300 <free>
    19c2:	eb e6                	jmp    19aa <telnet_user_create+0xba>
    19c4:	8d b6 00 00 00 00    	lea    0x0(%esi),%esi
    19ca:	8d bf 00 00 00 00    	lea    0x0(%edi),%edi

000019d0 <telnet_user_add>:
    19d0:	55                   	push   %ebp
    19d1:	89 e5                	mov    %esp,%ebp
    19d3:	53                   	push   %ebx
    19d4:	83 ec 14             	sub    $0x14,%esp
    19d7:	8b 5d 08             	mov    0x8(%ebp),%ebx
    19da:	c7 04 24 5c 49 02 00 	movl   $0x2495c,(%esp)
    19e1:	e8 3a 74 00 00       	call   8e20 <fibril_mutex_lock>
    19e6:	8b 15 6c 49 02 00    	mov    0x2496c,%edx
    19ec:	8d 43 50             	lea    0x50(%ebx),%eax
    19ef:	c7 43 54 6c 49 02 00 	movl   $0x2496c,0x54(%ebx)
    19f6:	89 53 50             	mov    %edx,0x50(%ebx)
    19f9:	89 42 04             	mov    %eax,0x4(%edx)
    19fc:	a3 6c 49 02 00       	mov    %eax,0x2496c
    1a01:	c7 45 08 5c 49 02 00 	movl   $0x2495c,0x8(%ebp)
    1a08:	83 c4 14             	add    $0x14,%esp
    1a0b:	5b                   	pop    %ebx
    1a0c:	5d                   	pop    %ebp
    1a0d:	e9 2e 75 00 00       	jmp    8f40 <fibril_mutex_unlock>
    1a12:	8d b4 26 00 00 00 00 	lea    0x0(%esi,%eiz,1),%esi
    1a19:	8d bc 27 00 00 00 00 	lea    0x0(%edi,%eiz,1),%edi

00001a20 <telnet_user_destroy>:
    1a20:	55                   	push   %ebp
    1a21:	89 e5                	mov    %esp,%ebp
    1a23:	53                   	push   %ebx
    1a24:	83 ec 14             	sub    $0x14,%esp
    1a27:	8b 5d 08             	mov    0x8(%ebp),%ebx
    1a2a:	85 db                	test   %ebx,%ebx
    1a2c:	74 49                	je     1a77 <telnet_user_destroy+0x57>
    1a2e:	c7 04 24 5c 49 02 00 	movl   $0x2495c,(%esp)
    1a35:	e8 e6 73 00 00       	call   8e20 <fibril_mutex_lock>
    1a3a:	8b 53 50             	mov    0x50(%ebx),%edx
    1a3d:	85 d2                	test   %edx,%edx
    1a3f:	74 0f                	je     1a50 <telnet_user_destroy+0x30>
    1a41:	8b 43 54             	mov    0x54(%ebx),%eax
    1a44:	85 c0                	test   %eax,%eax
    1a46:	74 08                	je     1a50 <telnet_user_destroy+0x30>
    1a48:	89 10                	mov    %edx,(%eax)
    1a4a:	8b 53 50             	mov    0x50(%ebx),%edx
    1a4d:	89 42 04             	mov    %eax,0x4(%edx)
    1a50:	c7 43 50 00 00 00 00 	movl   $0x0,0x50(%ebx)
    1a57:	c7 43 54 00 00 00 00 	movl   $0x0,0x54(%ebx)
    1a5e:	c7 04 24 5c 49 02 00 	movl   $0x2495c,(%esp)
    1a65:	e8 d6 74 00 00       	call   8f40 <fibril_mutex_unlock>
    1a6a:	89 5d 08             	mov    %ebx,0x8(%ebp)
    1a6d:	83 c4 14             	add    $0x14,%esp
    1a70:	5b                   	pop    %ebx
    1a71:	5d                   	pop    %ebp
    1a72:	e9 89 08 01 00       	jmp    12300 <free>
    1a77:	c7 44 24 08 70 00 00 	movl   $0x70,0x8(%esp)
    1a7e:	00 
    1a7f:	c7 44 24 04 99 1c 02 	movl   $0x21c99,0x4(%esp)
    1a86:	00 
    1a87:	c7 04 24 7b 1c 02 00 	movl   $0x21c7b,(%esp)
    1a8e:	e8 dd d7 01 00       	call   1f270 <assert_abort>
    1a93:	8d b6 00 00 00 00    	lea    0x0(%esi),%esi
    1a99:	8d bc 27 00 00 00 00 	lea    0x0(%edi,%eiz,1),%edi

00001aa0 <telnet_user_get_for_client_connection>:
    1aa0:	55                   	push   %ebp
    1aa1:	89 e5                	mov    %esp,%ebp
    1aa3:	53                   	push   %ebx
    1aa4:	83 ec 24             	sub    $0x24,%esp
    1aa7:	8b 5d 08             	mov    0x8(%ebp),%ebx
    1aaa:	c7 04 24 5c 49 02 00 	movl   $0x2495c,(%esp)
    1ab1:	e8 6a 73 00 00       	call   8e20 <fibril_mutex_lock>
    1ab6:	8b 15 70 49 02 00    	mov    0x24970,%edx
    1abc:	81 fa 6c 49 02 00    	cmp    $0x2496c,%edx
    1ac2:	75 0f                	jne    1ad3 <telnet_user_get_for_client_connection+0x33>
    1ac4:	eb 7a                	jmp    1b40 <telnet_user_get_for_client_connection+0xa0>
    1ac6:	66 90                	xchg   %ax,%ax
    1ac8:	8b 52 04             	mov    0x4(%edx),%edx
    1acb:	81 fa 6c 49 02 00    	cmp    $0x2496c,%edx
    1ad1:	74 6d                	je     1b40 <telnet_user_get_for_client_connection+0xa0>
    1ad3:	8d 42 b0             	lea    -0x50(%edx),%eax
    1ad6:	39 58 18             	cmp    %ebx,0x18(%eax)
    1ad9:	75 ed                	jne    1ac8 <telnet_user_get_for_client_connection+0x28>
    1adb:	89 04 24             	mov    %eax,(%esp)
    1ade:	89 c3                	mov    %eax,%ebx
    1ae0:	89 45 f4             	mov    %eax,-0xc(%ebp)
    1ae3:	e8 38 73 00 00       	call   8e20 <fibril_mutex_lock>
    1ae8:	8b 45 f4             	mov    -0xc(%ebp),%eax
    1aeb:	8b 90 94 00 00 00    	mov    0x94(%eax),%edx
    1af1:	42                   	inc    %edx
    1af2:	89 90 94 00 00 00    	mov    %edx,0x94(%eax)
    1af8:	80 b8 90 00 00 00 00 	cmpb   $0x0,0x90(%eax)
    1aff:	75 09                	jne    1b0a <telnet_user_get_for_client_connection+0x6a>
    1b01:	80 b8 98 00 00 00 00 	cmpb   $0x0,0x98(%eax)
    1b08:	74 0f                	je     1b19 <telnet_user_get_for_client_connection+0x79>
    1b0a:	8b 0d 94 00 00 00    	mov    0x94,%ecx
    1b10:	31 c0                	xor    %eax,%eax
    1b12:	49                   	dec    %ecx
    1b13:	89 0d 94 00 00 00    	mov    %ecx,0x94
    1b19:	89 1c 24             	mov    %ebx,(%esp)
    1b1c:	89 45 f4             	mov    %eax,-0xc(%ebp)
    1b1f:	e8 1c 74 00 00       	call   8f40 <fibril_mutex_unlock>
    1b24:	c7 04 24 5c 49 02 00 	movl   $0x2495c,(%esp)
    1b2b:	e8 10 74 00 00       	call   8f40 <fibril_mutex_unlock>
    1b30:	8b 45 f4             	mov    -0xc(%ebp),%eax
    1b33:	83 c4 24             	add    $0x24,%esp
    1b36:	5b                   	pop    %ebx
    1b37:	5d                   	pop    %ebp
    1b38:	c3                   	ret    
    1b39:	8d b4 26 00 00 00 00 	lea    0x0(%esi,%eiz,1),%esi
    1b40:	c7 04 24 5c 49 02 00 	movl   $0x2495c,(%esp)
    1b47:	e8 f4 73 00 00       	call   8f40 <fibril_mutex_unlock>
    1b4c:	83 c4 24             	add    $0x24,%esp
    1b4f:	31 c0                	xor    %eax,%eax
    1b51:	5b                   	pop    %ebx
    1b52:	5d                   	pop    %ebp
    1b53:	c3                   	ret    
    1b54:	8d b6 00 00 00 00    	lea    0x0(%esi),%esi
    1b5a:	8d bf 00 00 00 00    	lea    0x0(%edi),%edi

00001b60 <telnet_user_notify_client_disconnected>:
    1b60:	55                   	push   %ebp
    1b61:	89 e5                	mov    %esp,%ebp
    1b63:	53                   	push   %ebx
    1b64:	83 ec 14             	sub    $0x14,%esp
    1b67:	8b 5d 08             	mov    0x8(%ebp),%ebx
    1b6a:	89 1c 24             	mov    %ebx,(%esp)
    1b6d:	e8 ae 72 00 00       	call   8e20 <fibril_mutex_lock>
    1b72:	8b 83 94 00 00 00    	mov    0x94(%ebx),%eax
    1b78:	85 c0                	test   %eax,%eax
    1b7a:	7e 22                	jle    1b9e <telnet_user_notify_client_disconnected+0x3e>
    1b7c:	48                   	dec    %eax
    1b7d:	89 83 94 00 00 00    	mov    %eax,0x94(%ebx)
    1b83:	8d 83 88 00 00 00    	lea    0x88(%ebx),%eax
    1b89:	89 04 24             	mov    %eax,(%esp)
    1b8c:	e8 2f 7f 00 00       	call   9ac0 <fibril_condvar_signal>
    1b91:	89 5d 08             	mov    %ebx,0x8(%ebp)
    1b94:	83 c4 14             	add    $0x14,%esp
    1b97:	5b                   	pop    %ebx
    1b98:	5d                   	pop    %ebp
    1b99:	e9 a2 73 00 00       	jmp    8f40 <fibril_mutex_unlock>
    1b9e:	c7 44 24 08 aa 00 00 	movl   $0xaa,0x8(%esp)
    1ba5:	00 
    1ba6:	c7 44 24 04 99 1c 02 	movl   $0x21c99,0x4(%esp)
    1bad:	00 
    1bae:	c7 04 24 b0 1c 02 00 	movl   $0x21cb0,(%esp)
    1bb5:	e8 b6 d6 01 00       	call   1f270 <assert_abort>
    1bba:	8d b6 00 00 00 00    	lea    0x0(%esi),%esi

00001bc0 <telnet_user_is_zombie>:
    1bc0:	55                   	push   %ebp
    1bc1:	89 e5                	mov    %esp,%ebp
    1bc3:	53                   	push   %ebx
    1bc4:	83 ec 24             	sub    $0x24,%esp
    1bc7:	8b 5d 08             	mov    0x8(%ebp),%ebx
    1bca:	89 1c 24             	mov    %ebx,(%esp)
    1bcd:	e8 4e 72 00 00       	call   8e20 <fibril_mutex_lock>
    1bd2:	b0 01                	mov    $0x1,%al
    1bd4:	80 bb 98 00 00 00 00 	cmpb   $0x0,0x98(%ebx)
    1bdb:	75 06                	jne    1be3 <telnet_user_is_zombie+0x23>
    1bdd:	8a 83 90 00 00 00    	mov    0x90(%ebx),%al
    1be3:	89 1c 24             	mov    %ebx,(%esp)
    1be6:	88 45 f4             	mov    %al,-0xc(%ebp)
    1be9:	e8 52 73 00 00       	call   8f40 <fibril_mutex_unlock>
    1bee:	8a 45 f4             	mov    -0xc(%ebp),%al
    1bf1:	83 c4 24             	add    $0x24,%esp
    1bf4:	5b                   	pop    %ebx
    1bf5:	5d                   	pop    %ebp
    1bf6:	c3                   	ret    
    1bf7:	89 f6                	mov    %esi,%esi
    1bf9:	8d bc 27 00 00 00 00 	lea    0x0(%edi,%eiz,1),%edi

00001c00 <telnet_user_get_next_keyboard_event>:
    1c00:	55                   	push   %ebp
    1c01:	89 e5                	mov    %esp,%ebp
    1c03:	57                   	push   %edi
    1c04:	56                   	push   %esi
    1c05:	53                   	push   %ebx
    1c06:	83 ec 3c             	sub    $0x3c,%esp
    1c09:	8b 5d 08             	mov    0x8(%ebp),%ebx
    1c0c:	89 1c 24             	mov    %ebx,(%esp)
    1c0f:	e8 0c 72 00 00       	call   8e20 <fibril_mutex_lock>
    1c14:	8d 43 48             	lea    0x48(%ebx),%eax
    1c17:	8d 73 30             	lea    0x30(%ebx),%esi
    1c1a:	39 43 4c             	cmp    %eax,0x4c(%ebx)
    1c1d:	74 39                	je     1c58 <telnet_user_get_next_keyboard_event+0x58>
    1c1f:	89 34 24             	mov    %esi,(%esp)
    1c22:	e8 a9 6d 01 00       	call   189d0 <prodcons_consume>
    1c27:	89 1c 24             	mov    %ebx,(%esp)
    1c2a:	89 45 e0             	mov    %eax,-0x20(%ebp)
    1c2d:	e8 0e 73 00 00       	call   8f40 <fibril_mutex_unlock>
    1c32:	8b 45 e0             	mov    -0x20(%ebp),%eax
    1c35:	8b 7d 0c             	mov    0xc(%ebp),%edi
    1c38:	89 c6                	mov    %eax,%esi
    1c3a:	b9 06 00 00 00       	mov    $0x6,%ecx
    1c3f:	f3 a5                	rep movsl %ds:(%esi),%es:(%edi)
    1c41:	89 04 24             	mov    %eax,(%esp)
    1c44:	e8 b7 06 01 00       	call   12300 <free>
    1c49:	83 c4 3c             	add    $0x3c,%esp
    1c4c:	31 c0                	xor    %eax,%eax
    1c4e:	5b                   	pop    %ebx
    1c4f:	5e                   	pop    %esi
    1c50:	5f                   	pop    %edi
    1c51:	5d                   	pop    %ebp
    1c52:	c3                   	ret    
    1c53:	90                   	nop
    1c54:	8d 74 26 00          	lea    0x0(%esi,%eiz,1),%esi
    1c58:	8b 43 78             	mov    0x78(%ebx),%eax
    1c5b:	8d 4b 58             	lea    0x58(%ebx),%ecx
    1c5e:	8b 53 7c             	mov    0x7c(%ebx),%edx
    1c61:	31 f6                	xor    %esi,%esi
    1c63:	31 ff                	xor    %edi,%edi
    1c65:	89 4d e4             	mov    %ecx,-0x1c(%ebp)
    1c68:	89 45 dc             	mov    %eax,-0x24(%ebp)
    1c6b:	39 55 dc             	cmp    %edx,-0x24(%ebp)
    1c6e:	76 2b                	jbe    1c9b <telnet_user_get_next_keyboard_event+0x9b>
    1c70:	8d 4a 01             	lea    0x1(%edx),%ecx
    1c73:	89 f8                	mov    %edi,%eax
    1c75:	8a 54 13 58          	mov    0x58(%ebx,%edx,1),%dl
    1c79:	89 4b 7c             	mov    %ecx,0x7c(%ebx)
    1c7c:	84 c0                	test   %al,%al
    1c7e:	74 72                	je     1cf2 <telnet_user_get_next_keyboard_event+0xf2>
    1c80:	8d 7a 05             	lea    0x5(%edx),%edi
    1c83:	89 f8                	mov    %edi,%eax
    1c85:	3c 03                	cmp    $0x3,%al
    1c87:	0f 87 83 00 00 00    	ja     1d10 <telnet_user_get_next_keyboard_event+0x110>
    1c8d:	89 d6                	mov    %edx,%esi
    1c8f:	89 ca                	mov    %ecx,%edx
    1c91:	bf 01 00 00 00       	mov    $0x1,%edi
    1c96:	39 55 dc             	cmp    %edx,-0x24(%ebp)
    1c99:	77 d5                	ja     1c70 <telnet_user_get_next_keyboard_event+0x70>
    1c9b:	8b 4d e4             	mov    -0x1c(%ebp),%ecx
    1c9e:	c7 44 24 0c 00 00 00 	movl   $0x0,0xc(%esp)
    1ca5:	00 
    1ca6:	c7 44 24 08 20 00 00 	movl   $0x20,0x8(%esp)
    1cad:	00 
    1cae:	89 4c 24 04          	mov    %ecx,0x4(%esp)
    1cb2:	8b 43 14             	mov    0x14(%ebx),%eax
    1cb5:	89 04 24             	mov    %eax,(%esp)
    1cb8:	e8 a3 d1 01 00       	call   1ee60 <recv>
    1cbd:	3d b7 d8 ff ff       	cmp    $0xffffd8b7,%eax
    1cc2:	0f 84 a0 00 00 00    	je     1d68 <telnet_user_get_next_keyboard_event+0x168>
    1cc8:	85 c0                	test   %eax,%eax
    1cca:	0f 84 98 00 00 00    	je     1d68 <telnet_user_get_next_keyboard_event+0x168>
    1cd0:	85 c0                	test   %eax,%eax
    1cd2:	0f 88 a0 00 00 00    	js     1d78 <telnet_user_get_next_keyboard_event+0x178>
    1cd8:	31 d2                	xor    %edx,%edx
    1cda:	89 45 dc             	mov    %eax,-0x24(%ebp)
    1cdd:	89 43 78             	mov    %eax,0x78(%ebx)
    1ce0:	b9 01 00 00 00       	mov    $0x1,%ecx
    1ce5:	89 f8                	mov    %edi,%eax
    1ce7:	8a 54 13 58          	mov    0x58(%ebx,%edx,1),%dl
    1ceb:	89 4b 7c             	mov    %ecx,0x7c(%ebx)
    1cee:	84 c0                	test   %al,%al
    1cf0:	75 8e                	jne    1c80 <telnet_user_get_next_keyboard_event+0x80>
    1cf2:	80 fa ff             	cmp    $0xff,%dl
    1cf5:	74 61                	je     1d58 <telnet_user_get_next_keyboard_event+0x158>
    1cf7:	84 d2                	test   %dl,%dl
    1cf9:	0f 85 d1 00 00 00    	jne    1dd0 <telnet_user_get_next_keyboard_event+0x1d0>
    1cff:	8b 4b 78             	mov    0x78(%ebx),%ecx
    1d02:	8b 53 7c             	mov    0x7c(%ebx),%edx
    1d05:	89 4d dc             	mov    %ecx,-0x24(%ebp)
    1d08:	31 ff                	xor    %edi,%edi
    1d0a:	e9 5c ff ff ff       	jmp    1c6b <telnet_user_get_next_keyboard_event+0x6b>
    1d0f:	90                   	nop
    1d10:	8b 4b 10             	mov    0x10(%ebx),%ecx
    1d13:	89 f0                	mov    %esi,%eax
    1d15:	89 4d dc             	mov    %ecx,-0x24(%ebp)
    1d18:	84 c0                	test   %al,%al
    1d1a:	8b 4b 18             	mov    0x18(%ebx),%ecx
    1d1d:	88 d0                	mov    %dl,%al
    1d1f:	75 6f                	jne    1d90 <telnet_user_get_next_keyboard_event+0x190>
    1d21:	25 ff 00 00 00       	and    $0xff,%eax
    1d26:	89 4c 24 08          	mov    %ecx,0x8(%esp)
    1d2a:	8b 4d dc             	mov    -0x24(%ebp),%ecx
    1d2d:	89 44 24 10          	mov    %eax,0x10(%esp)
    1d31:	c7 44 24 0c ff 00 00 	movl   $0xff,0xc(%esp)
    1d38:	00 
    1d39:	89 4c 24 04          	mov    %ecx,0x4(%esp)
    1d3d:	c7 04 24 14 1d 02 00 	movl   $0x21d14,(%esp)
    1d44:	88 55 e0             	mov    %dl,-0x20(%ebp)
    1d47:	e8 04 b1 00 00       	call   ce50 <printf>
    1d4c:	8a 55 e0             	mov    -0x20(%ebp),%dl
    1d4f:	fe c2                	inc    %dl
    1d51:	75 ac                	jne    1cff <telnet_user_get_next_keyboard_event+0xff>
    1d53:	90                   	nop
    1d54:	8d 74 26 00          	lea    0x0(%esi,%eiz,1),%esi
    1d58:	8b 43 78             	mov    0x78(%ebx),%eax
    1d5b:	8b 4b 7c             	mov    0x7c(%ebx),%ecx
    1d5e:	89 45 dc             	mov    %eax,-0x24(%ebp)
    1d61:	e9 29 ff ff ff       	jmp    1c8f <telnet_user_get_next_keyboard_event+0x8f>
    1d66:	66 90                	xchg   %ax,%ax
    1d68:	c6 83 98 00 00 00 01 	movb   $0x1,0x98(%ebx)
    1d6f:	c6 43 2c 01          	movb   $0x1,0x2c(%ebx)
    1d73:	83 c8 ff             	or     $0xffffffff,%eax
    1d76:	66 90                	xchg   %ax,%ax
    1d78:	89 1c 24             	mov    %ebx,(%esp)
    1d7b:	89 45 e0             	mov    %eax,-0x20(%ebp)
    1d7e:	e8 bd 71 00 00       	call   8f40 <fibril_mutex_unlock>
    1d83:	8b 45 e0             	mov    -0x20(%ebp),%eax
    1d86:	83 c4 3c             	add    $0x3c,%esp
    1d89:	5b                   	pop    %ebx
    1d8a:	5e                   	pop    %esi
    1d8b:	5f                   	pop    %edi
    1d8c:	5d                   	pop    %ebp
    1d8d:	c3                   	ret    
    1d8e:	66 90                	xchg   %ax,%ax
    1d90:	25 ff 00 00 00       	and    $0xff,%eax
    1d95:	89 4c 24 08          	mov    %ecx,0x8(%esp)
    1d99:	89 44 24 14          	mov    %eax,0x14(%esp)
    1d9d:	89 f0                	mov    %esi,%eax
    1d9f:	25 ff 00 00 00       	and    $0xff,%eax
    1da4:	8b 4d dc             	mov    -0x24(%ebp),%ecx
    1da7:	89 44 24 10          	mov    %eax,0x10(%esp)
    1dab:	c7 44 24 0c ff 00 00 	movl   $0xff,0xc(%esp)
    1db2:	00 
    1db3:	89 4c 24 04          	mov    %ecx,0x4(%esp)
    1db7:	c7 04 24 d4 1c 02 00 	movl   $0x21cd4,(%esp)
    1dbe:	88 55 e0             	mov    %dl,-0x20(%ebp)
    1dc1:	e8 8a b0 00 00       	call   ce50 <printf>
    1dc6:	8a 55 e0             	mov    -0x20(%ebp),%dl
    1dc9:	eb 84                	jmp    1d4f <telnet_user_get_next_keyboard_event+0x14f>
    1dcb:	90                   	nop
    1dcc:	8d 74 26 00          	lea    0x0(%esi,%eiz,1),%esi
    1dd0:	80 fa 0d             	cmp    $0xd,%dl
    1dd3:	0f 84 0f 01 00 00    	je     1ee8 <telnet_user_get_next_keyboard_event+0x2e8>
    1dd9:	0f be f2             	movsbl %dl,%esi
    1ddc:	c7 04 24 18 00 00 00 	movl   $0x18,(%esp)
    1de3:	88 55 e0             	mov    %dl,-0x20(%ebp)
    1de6:	e8 05 04 01 00       	call   121f0 <malloc>
    1deb:	8a 55 e0             	mov    -0x20(%ebp),%dl
    1dee:	89 c7                	mov    %eax,%edi
    1df0:	85 c0                	test   %eax,%eax
    1df2:	0f 84 24 01 00 00    	je     1f1c <telnet_user_get_next_keyboard_event+0x31c>
    1df8:	c7 00 00 00 00 00    	movl   $0x0,(%eax)
    1dfe:	c7 40 04 00 00 00 00 	movl   $0x0,0x4(%eax)
    1e05:	c7 40 08 00 00 00 00 	movl   $0x0,0x8(%eax)
    1e0c:	89 70 14             	mov    %esi,0x14(%eax)
    1e0f:	c7 40 10 00 00 00 00 	movl   $0x0,0x10(%eax)
    1e16:	80 fa 09             	cmp    $0x9,%dl
    1e19:	0f 84 f1 00 00 00    	je     1f10 <telnet_user_get_next_keyboard_event+0x310>
    1e1f:	7f 17                	jg     1e38 <telnet_user_get_next_keyboard_event+0x238>
    1e21:	80 fa 08             	cmp    $0x8,%dl
    1e24:	75 1c                	jne    1e42 <telnet_user_get_next_keyboard_event+0x242>
    1e26:	c7 47 0c 0e 00 00 00 	movl   $0xe,0xc(%edi)
    1e2d:	c7 47 14 08 00 00 00 	movl   $0x8,0x14(%edi)
    1e34:	eb 13                	jmp    1e49 <telnet_user_get_next_keyboard_event+0x249>
    1e36:	66 90                	xchg   %ax,%ax
    1e38:	80 fa 0a             	cmp    $0xa,%dl
    1e3b:	74 7d                	je     1eba <telnet_user_get_next_keyboard_event+0x2ba>
    1e3d:	80 fa 7f             	cmp    $0x7f,%dl
    1e40:	74 e4                	je     1e26 <telnet_user_get_next_keyboard_event+0x226>
    1e42:	c7 47 0c 1d 00 00 00 	movl   $0x1d,0xc(%edi)
    1e49:	c7 04 24 18 00 00 00 	movl   $0x18,(%esp)
    1e50:	88 55 e0             	mov    %dl,-0x20(%ebp)
    1e53:	e8 98 03 01 00       	call   121f0 <malloc>
    1e58:	8a 55 e0             	mov    -0x20(%ebp),%dl
    1e5b:	85 c0                	test   %eax,%eax
    1e5d:	0f 84 b9 00 00 00    	je     1f1c <telnet_user_get_next_keyboard_event+0x31c>
    1e63:	c7 00 00 00 00 00    	movl   $0x0,(%eax)
    1e69:	c7 40 04 00 00 00 00 	movl   $0x0,0x4(%eax)
    1e70:	c7 40 08 01 00 00 00 	movl   $0x1,0x8(%eax)
    1e77:	89 70 14             	mov    %esi,0x14(%eax)
    1e7a:	c7 40 10 00 00 00 00 	movl   $0x0,0x10(%eax)
    1e81:	80 fa 09             	cmp    $0x9,%dl
    1e84:	74 72                	je     1ef8 <telnet_user_get_next_keyboard_event+0x2f8>
    1e86:	7f 40                	jg     1ec8 <telnet_user_get_next_keyboard_event+0x2c8>
    1e88:	80 fa 08             	cmp    $0x8,%dl
    1e8b:	74 45                	je     1ed2 <telnet_user_get_next_keyboard_event+0x2d2>
    1e8d:	c7 40 0c 1d 00 00 00 	movl   $0x1d,0xc(%eax)
    1e94:	8d 73 30             	lea    0x30(%ebx),%esi
    1e97:	89 7c 24 04          	mov    %edi,0x4(%esp)
    1e9b:	89 34 24             	mov    %esi,(%esp)
    1e9e:	89 45 e0             	mov    %eax,-0x20(%ebp)
    1ea1:	e8 da 6a 01 00       	call   18980 <prodcons_produce>
    1ea6:	8b 45 e0             	mov    -0x20(%ebp),%eax
    1ea9:	89 44 24 04          	mov    %eax,0x4(%esp)
    1ead:	89 34 24             	mov    %esi,(%esp)
    1eb0:	e8 cb 6a 01 00       	call   18980 <prodcons_produce>
    1eb5:	e9 65 fd ff ff       	jmp    1c1f <telnet_user_get_next_keyboard_event+0x1f>
    1eba:	c7 40 0c 29 00 00 00 	movl   $0x29,0xc(%eax)
    1ec1:	eb 86                	jmp    1e49 <telnet_user_get_next_keyboard_event+0x249>
    1ec3:	90                   	nop
    1ec4:	8d 74 26 00          	lea    0x0(%esi,%eiz,1),%esi
    1ec8:	80 fa 0a             	cmp    $0xa,%dl
    1ecb:	74 34                	je     1f01 <telnet_user_get_next_keyboard_event+0x301>
    1ecd:	80 fa 7f             	cmp    $0x7f,%dl
    1ed0:	75 bb                	jne    1e8d <telnet_user_get_next_keyboard_event+0x28d>
    1ed2:	c7 40 0c 0e 00 00 00 	movl   $0xe,0xc(%eax)
    1ed9:	c7 40 14 08 00 00 00 	movl   $0x8,0x14(%eax)
    1ee0:	eb b2                	jmp    1e94 <telnet_user_get_next_keyboard_event+0x294>
    1ee2:	8d b6 00 00 00 00    	lea    0x0(%esi),%esi
    1ee8:	be 0a 00 00 00       	mov    $0xa,%esi
    1eed:	b2 0a                	mov    $0xa,%dl
    1eef:	e9 e8 fe ff ff       	jmp    1ddc <telnet_user_get_next_keyboard_event+0x1dc>
    1ef4:	8d 74 26 00          	lea    0x0(%esi,%eiz,1),%esi
    1ef8:	c7 40 0c 0f 00 00 00 	movl   $0xf,0xc(%eax)
    1eff:	eb 93                	jmp    1e94 <telnet_user_get_next_keyboard_event+0x294>
    1f01:	c7 40 0c 29 00 00 00 	movl   $0x29,0xc(%eax)
    1f08:	eb 8a                	jmp    1e94 <telnet_user_get_next_keyboard_event+0x294>
    1f0a:	8d b6 00 00 00 00    	lea    0x0(%esi),%esi
    1f10:	c7 40 0c 0f 00 00 00 	movl   $0xf,0xc(%eax)
    1f17:	e9 2d ff ff ff       	jmp    1e49 <telnet_user_get_next_keyboard_event+0x249>
    1f1c:	c7 44 24 08 de 00 00 	movl   $0xde,0x8(%esp)
    1f23:	00 
    1f24:	c7 44 24 04 99 1c 02 	movl   $0x21c99,0x4(%esp)
    1f2b:	00 
    1f2c:	c7 04 24 a0 1c 02 00 	movl   $0x21ca0,(%esp)
    1f33:	e8 38 d3 01 00       	call   1f270 <assert_abort>
    1f38:	90                   	nop
    1f39:	8d b4 26 00 00 00 00 	lea    0x0(%esi,%eiz,1),%esi

00001f40 <telnet_user_send_data>:
    1f40:	55                   	push   %ebp
    1f41:	89 e5                	mov    %esp,%ebp
    1f43:	57                   	push   %edi
    1f44:	56                   	push   %esi
    1f45:	53                   	push   %ebx
    1f46:	83 ec 2c             	sub    $0x2c,%esp
    1f49:	8b 55 08             	mov    0x8(%ebp),%edx
    1f4c:	8b 75 10             	mov    0x10(%ebp),%esi
    1f4f:	89 14 24             	mov    %edx,(%esp)
    1f52:	e8 c9 6e 00 00       	call   8e20 <fibril_mutex_lock>
    1f57:	8d 44 76 01          	lea    0x1(%esi,%esi,2),%eax
    1f5b:	89 04 24             	mov    %eax,(%esp)
    1f5e:	8b 5d 08             	mov    0x8(%ebp),%ebx
    1f61:	e8 8a 02 01 00       	call   121f0 <malloc>
    1f66:	81 c3 9c 00 00 00    	add    $0x9c,%ebx
    1f6c:	89 c7                	mov    %eax,%edi
    1f6e:	85 c0                	test   %eax,%eax
    1f70:	0f 84 89 00 00 00    	je     1fff <telnet_user_send_data+0xbf>
    1f76:	31 c0                	xor    %eax,%eax
    1f78:	85 f6                	test   %esi,%esi
    1f7a:	74 3d                	je     1fb9 <telnet_user_send_data+0x79>
    1f7c:	8b 55 0c             	mov    0xc(%ebp),%edx
    1f7f:	31 c0                	xor    %eax,%eax
    1f81:	01 d6                	add    %edx,%esi
    1f83:	eb 16                	jmp    1f9b <telnet_user_send_data+0x5b>
    1f85:	8d 76 00             	lea    0x0(%esi),%esi
    1f88:	88 0c 07             	mov    %cl,(%edi,%eax,1)
    1f8b:	40                   	inc    %eax
    1f8c:	80 3a 08             	cmpb   $0x8,(%edx)
    1f8f:	74 67                	je     1ff8 <telnet_user_send_data+0xb8>
    1f91:	8b 0b                	mov    (%ebx),%ecx
    1f93:	41                   	inc    %ecx
    1f94:	89 0b                	mov    %ecx,(%ebx)
    1f96:	42                   	inc    %edx
    1f97:	39 f2                	cmp    %esi,%edx
    1f99:	74 1e                	je     1fb9 <telnet_user_send_data+0x79>
    1f9b:	8a 0a                	mov    (%edx),%cl
    1f9d:	80 f9 0a             	cmp    $0xa,%cl
    1fa0:	75 e6                	jne    1f88 <telnet_user_send_data+0x48>
    1fa2:	42                   	inc    %edx
    1fa3:	c6 04 07 0d          	movb   $0xd,(%edi,%eax,1)
    1fa7:	c6 44 07 01 0a       	movb   $0xa,0x1(%edi,%eax,1)
    1fac:	83 c0 02             	add    $0x2,%eax
    1faf:	c7 03 00 00 00 00    	movl   $0x0,(%ebx)
    1fb5:	39 f2                	cmp    %esi,%edx
    1fb7:	75 e2                	jne    1f9b <telnet_user_send_data+0x5b>
    1fb9:	8b 55 08             	mov    0x8(%ebp),%edx
    1fbc:	89 7c 24 04          	mov    %edi,0x4(%esp)
    1fc0:	c7 44 24 0c 00 00 00 	movl   $0x0,0xc(%esp)
    1fc7:	00 
    1fc8:	89 44 24 08          	mov    %eax,0x8(%esp)
    1fcc:	8b 42 14             	mov    0x14(%edx),%eax
    1fcf:	89 04 24             	mov    %eax,(%esp)
    1fd2:	e8 09 ce 01 00       	call   1ede0 <send>
    1fd7:	89 3c 24             	mov    %edi,(%esp)
    1fda:	89 45 e4             	mov    %eax,-0x1c(%ebp)
    1fdd:	e8 1e 03 01 00       	call   12300 <free>
    1fe2:	8b 55 08             	mov    0x8(%ebp),%edx
    1fe5:	89 14 24             	mov    %edx,(%esp)
    1fe8:	e8 53 6f 00 00       	call   8f40 <fibril_mutex_unlock>
    1fed:	8b 45 e4             	mov    -0x1c(%ebp),%eax
    1ff0:	83 c4 2c             	add    $0x2c,%esp
    1ff3:	5b                   	pop    %ebx
    1ff4:	5e                   	pop    %esi
    1ff5:	5f                   	pop    %edi
    1ff6:	5d                   	pop    %ebp
    1ff7:	c3                   	ret    
    1ff8:	8b 0b                	mov    (%ebx),%ecx
    1ffa:	49                   	dec    %ecx
    1ffb:	89 0b                	mov    %ecx,(%ebx)
    1ffd:	eb 97                	jmp    1f96 <telnet_user_send_data+0x56>
    1fff:	c7 44 24 08 57 01 00 	movl   $0x157,0x8(%esp)
    2006:	00 
    2007:	c7 44 24 04 99 1c 02 	movl   $0x21c99,0x4(%esp)
    200e:	00 
    200f:	c7 04 24 a6 1c 02 00 	movl   $0x21ca6,(%esp)
    2016:	e8 55 d2 01 00       	call   1f270 <assert_abort>
    201b:	90                   	nop
    201c:	8d 74 26 00          	lea    0x0(%esi,%eiz,1),%esi

00002020 <telnet_user_update_cursor_x>:
    2020:	55                   	push   %ebp
    2021:	89 e5                	mov    %esp,%ebp
    2023:	57                   	push   %edi
    2024:	56                   	push   %esi
    2025:	53                   	push   %ebx
    2026:	83 ec 1c             	sub    $0x1c,%esp
    2029:	8b 5d 08             	mov    0x8(%ebp),%ebx
    202c:	8b 75 0c             	mov    0xc(%ebp),%esi
    202f:	89 1c 24             	mov    %ebx,(%esp)
    2032:	e8 e9 6d 00 00       	call   8e20 <fibril_mutex_lock>
    2037:	8b 83 9c 00 00 00    	mov    0x9c(%ebx),%eax
    203d:	48                   	dec    %eax
    203e:	39 f0                	cmp    %esi,%eax
    2040:	74 16                	je     2058 <telnet_user_update_cursor_x+0x38>
    2042:	89 b3 9c 00 00 00    	mov    %esi,0x9c(%ebx)
    2048:	89 5d 08             	mov    %ebx,0x8(%ebp)
    204b:	83 c4 1c             	add    $0x1c,%esp
    204e:	5b                   	pop    %ebx
    204f:	5e                   	pop    %esi
    2050:	5f                   	pop    %edi
    2051:	5d                   	pop    %ebp
    2052:	e9 e9 6e 00 00       	jmp    8f40 <fibril_mutex_unlock>
    2057:	90                   	nop
    2058:	c7 04 24 04 00 00 00 	movl   $0x4,(%esp)
    205f:	e8 8c 01 01 00       	call   121f0 <malloc>
    2064:	89 c7                	mov    %eax,%edi
    2066:	85 c0                	test   %eax,%eax
    2068:	74 39                	je     20a3 <telnet_user_update_cursor_x+0x83>
    206a:	c6 00 08             	movb   $0x8,(%eax)
    206d:	8b 83 9c 00 00 00    	mov    0x9c(%ebx),%eax
    2073:	48                   	dec    %eax
    2074:	89 83 9c 00 00 00    	mov    %eax,0x9c(%ebx)
    207a:	c7 44 24 0c 00 00 00 	movl   $0x0,0xc(%esp)
    2081:	00 
    2082:	c7 44 24 08 01 00 00 	movl   $0x1,0x8(%esp)
    2089:	00 
    208a:	89 7c 24 04          	mov    %edi,0x4(%esp)
    208e:	8b 43 14             	mov    0x14(%ebx),%eax
    2091:	89 04 24             	mov    %eax,(%esp)
    2094:	e8 47 cd 01 00       	call   1ede0 <send>
    2099:	89 3c 24             	mov    %edi,(%esp)
    209c:	e8 5f 02 01 00       	call   12300 <free>
    20a1:	eb 9f                	jmp    2042 <telnet_user_update_cursor_x+0x22>
    20a3:	c7 44 24 08 57 01 00 	movl   $0x157,0x8(%esp)
    20aa:	00 
    20ab:	c7 44 24 04 99 1c 02 	movl   $0x21c99,0x4(%esp)
    20b2:	00 
    20b3:	c7 04 24 a6 1c 02 00 	movl   $0x21ca6,(%esp)
    20ba:	e8 b1 d1 01 00       	call   1f270 <assert_abort>
    20bf:	90                   	nop

000020c0 <exit>:
    20c0:	55                   	push   %ebp
    20c1:	89 e5                	mov    %esp,%ebp
    20c3:	83 ec 28             	sub    $0x28,%esp
    20c6:	80 3d a4 4b 02 00 00 	cmpb   $0x0,0x24ba4
    20cd:	75 3f                	jne    210e <exit+0x4e>
    20cf:	c7 44 24 18 0a 00 00 	movl   $0xa,0x18(%esp)
    20d6:	00 
    20d7:	c7 44 24 14 00 00 00 	movl   $0x0,0x14(%esp)
    20de:	00 
    20df:	c7 44 24 10 00 00 00 	movl   $0x0,0x10(%esp)
    20e6:	00 
    20e7:	c7 44 24 0c 00 00 00 	movl   $0x0,0xc(%esp)
    20ee:	00 
    20ef:	c7 44 24 08 00 00 00 	movl   $0x0,0x8(%esp)
    20f6:	00 
    20f7:	c7 44 24 04 00 00 00 	movl   $0x0,0x4(%esp)
    20fe:	00 
    20ff:	c7 04 24 00 00 00 00 	movl   $0x0,(%esp)
    2106:	ff 15 60 4b 02 00    	call   *0x24b60
    210c:	eb fe                	jmp    210c <exit+0x4c>
    210e:	e8 dd 8b 00 00       	call   acf0 <__stdio_done>
    2113:	8b 45 08             	mov    0x8(%ebp),%eax
    2116:	89 04 24             	mov    %eax,(%esp)
    2119:	e8 52 86 00 00       	call   a770 <task_retval>
    211e:	65 a1 00 00 00 00    	mov    %gs:0x0,%eax
    2124:	8b 40 04             	mov    0x4(%eax),%eax
    2127:	89 04 24             	mov    %eax,(%esp)
    212a:	e8 31 64 00 00       	call   8560 <fibril_teardown>
    212f:	eb 9e                	jmp    20cf <exit+0xf>
    2131:	eb 0d                	jmp    2140 <abort>
    2133:	90                   	nop
    2134:	90                   	nop
    2135:	90                   	nop
    2136:	90                   	nop
    2137:	90                   	nop
    2138:	90                   	nop
    2139:	90                   	nop
    213a:	90                   	nop
    213b:	90                   	nop
    213c:	90                   	nop
    213d:	90                   	nop
    213e:	90                   	nop
    213f:	90                   	nop

00002140 <abort>:
    2140:	55                   	push   %ebp
    2141:	89 e5                	mov    %esp,%ebp
    2143:	83 ec 28             	sub    $0x28,%esp
    2146:	c7 44 24 18 0a 00 00 	movl   $0xa,0x18(%esp)
    214d:	00 
    214e:	c7 44 24 14 00 00 00 	movl   $0x0,0x14(%esp)
    2155:	00 
    2156:	c7 44 24 10 00 00 00 	movl   $0x0,0x10(%esp)
    215d:	00 
    215e:	c7 44 24 0c 00 00 00 	movl   $0x0,0xc(%esp)
    2165:	00 
    2166:	c7 44 24 08 00 00 00 	movl   $0x0,0x8(%esp)
    216d:	00 
    216e:	c7 44 24 04 00 00 00 	movl   $0x0,0x4(%esp)
    2175:	00 
    2176:	c7 04 24 01 00 00 00 	movl   $0x1,(%esp)
    217d:	ff 15 60 4b 02 00    	call   *0x24b60
    2183:	eb fe                	jmp    2183 <abort+0x43>
    2185:	8d 74 26 00          	lea    0x0(%esi,%eiz,1),%esi
    2189:	8d bc 27 00 00 00 00 	lea    0x0(%edi,%eiz,1),%edi

00002190 <__main>:
    2190:	55                   	push   %ebp
    2191:	89 e5                	mov    %esp,%ebp
    2193:	57                   	push   %edi
    2194:	56                   	push   %esi
    2195:	53                   	push   %ebx
    2196:	83 ec 2c             	sub    $0x2c,%esp
    2199:	8b 5d 08             	mov    0x8(%ebp),%ebx
    219c:	e8 4f ff 00 00       	call   120f0 <__malloc_init>
    21a1:	e8 5a 1e 01 00       	call   14000 <__async_init>
    21a6:	e8 35 63 00 00       	call   84e0 <fibril_setup>
    21ab:	85 c0                	test   %eax,%eax
    21ad:	0f 84 82 00 00 00    	je     2235 <__main+0xa5>
    21b3:	c7 44 24 18 01 00 00 	movl   $0x1,0x18(%esp)
    21ba:	00 
    21bb:	c7 44 24 14 00 00 00 	movl   $0x0,0x14(%esp)
    21c2:	00 
    21c3:	c7 44 24 10 00 00 00 	movl   $0x0,0x10(%esp)
    21ca:	00 
    21cb:	c7 44 24 0c 00 00 00 	movl   $0x0,0xc(%esp)
    21d2:	00 
    21d3:	c7 44 24 08 00 00 00 	movl   $0x0,0x8(%esp)
    21da:	00 
    21db:	c7 44 24 04 00 00 00 	movl   $0x0,0x4(%esp)
    21e2:	00 
    21e3:	8b 40 30             	mov    0x30(%eax),%eax
    21e6:	89 04 24             	mov    %eax,(%esp)
    21e9:	ff 15 60 4b 02 00    	call   *0x24b60
    21ef:	89 1d 98 4b 02 00    	mov    %ebx,0x24b98
    21f5:	c6 05 a4 4b 02 00 01 	movb   $0x1,0x24ba4
    21fc:	85 db                	test   %ebx,%ebx
    21fe:	74 3a                	je     223a <__main+0xaa>
    2200:	8b 43 10             	mov    0x10(%ebx),%eax
    2203:	8b 73 08             	mov    0x8(%ebx),%esi
    2206:	8b 7b 0c             	mov    0xc(%ebx),%edi
    2209:	89 04 24             	mov    %eax,(%esp)
    220c:	e8 4f 88 00 00       	call   aa60 <__stdio_init>
    2211:	a1 98 4b 02 00       	mov    0x24b98,%eax
    2216:	8b 40 04             	mov    0x4(%eax),%eax
    2219:	89 04 24             	mov    %eax,(%esp)
    221c:	e8 3f 9c 01 00       	call   1be60 <chdir>
    2221:	89 7c 24 04          	mov    %edi,0x4(%esp)
    2225:	89 34 24             	mov    %esi,(%esp)
    2228:	e8 43 f4 ff ff       	call   1670 <main>
    222d:	89 04 24             	mov    %eax,(%esp)
    2230:	e8 8b fe ff ff       	call   20c0 <exit>
    2235:	e8 06 ff ff ff       	call   2140 <abort>
    223a:	c7 04 24 00 00 00 00 	movl   $0x0,(%esp)
    2241:	31 ff                	xor    %edi,%edi
    2243:	e8 18 88 00 00       	call   aa60 <__stdio_init>
    2248:	31 f6                	xor    %esi,%esi
    224a:	eb d5                	jmp    2221 <__main+0x91>
    224c:	66 90                	xchg   %ax,%ax
    224e:	66 90                	xchg   %ax,%ax

00002250 <loc_cb_conn>:
    2250:	55                   	push   %ebp
    2251:	89 e5                	mov    %esp,%ebp
    2253:	56                   	push   %esi
    2254:	53                   	push   %ebx
    2255:	83 ec 50             	sub    $0x50,%esp
    2258:	8d 5d d4             	lea    -0x2c(%ebp),%ebx
    225b:	90                   	nop
    225c:	8d 74 26 00          	lea    0x0(%esi,%eiz,1),%esi
    2260:	c7 44 24 04 00 00 00 	movl   $0x0,0x4(%esp)
    2267:	00 
    2268:	89 1c 24             	mov    %ebx,(%esp)
    226b:	e8 90 14 01 00       	call   13700 <async_get_call_timeout>
    2270:	8b 55 d4             	mov    -0x2c(%ebp),%edx
    2273:	85 d2                	test   %edx,%edx
    2275:	74 61                	je     22d8 <loc_cb_conn+0x88>
    2277:	81 fa 00 04 00 00    	cmp    $0x400,%edx
    227d:	74 19                	je     2298 <loc_cb_conn+0x48>
    227f:	c7 44 24 04 f5 ff ff 	movl   $0xfffffff5,0x4(%esp)
    2286:	ff 
    2287:	89 04 24             	mov    %eax,(%esp)
    228a:	e8 a1 2a 01 00       	call   14d30 <async_answer_0>
    228f:	eb cf                	jmp    2260 <loc_cb_conn+0x10>
    2291:	8d b4 26 00 00 00 00 	lea    0x0(%esi,%eiz,1),%esi
    2298:	c7 04 24 b4 49 02 00 	movl   $0x249b4,(%esp)
    229f:	89 45 c4             	mov    %eax,-0x3c(%ebp)
    22a2:	e8 79 6b 00 00       	call   8e20 <fibril_mutex_lock>
    22a7:	c7 04 24 b4 49 02 00 	movl   $0x249b4,(%esp)
    22ae:	8b 35 b8 4b 02 00    	mov    0x24bb8,%esi
    22b4:	e8 87 6c 00 00       	call   8f40 <fibril_mutex_unlock>
    22b9:	8b 45 c4             	mov    -0x3c(%ebp),%eax
    22bc:	c7 44 24 04 00 00 00 	movl   $0x0,0x4(%esp)
    22c3:	00 
    22c4:	89 04 24             	mov    %eax,(%esp)
    22c7:	e8 64 2a 01 00       	call   14d30 <async_answer_0>
    22cc:	85 f6                	test   %esi,%esi
    22ce:	74 90                	je     2260 <loc_cb_conn+0x10>
    22d0:	ff d6                	call   *%esi
    22d2:	eb 8c                	jmp    2260 <loc_cb_conn+0x10>
    22d4:	8d 74 26 00          	lea    0x0(%esi,%eiz,1),%esi
    22d8:	83 c4 50             	add    $0x50,%esp
    22db:	5b                   	pop    %ebx
    22dc:	5e                   	pop    %esi
    22dd:	5d                   	pop    %ebp
    22de:	c3                   	ret    
    22df:	90                   	nop

000022e0 <loc_exchange_begin.part.0>:
    22e0:	55                   	push   %ebp
    22e1:	89 e5                	mov    %esp,%ebp
    22e3:	83 ec 18             	sub    $0x18,%esp
    22e6:	c7 04 24 84 49 02 00 	movl   $0x24984,(%esp)
    22ed:	e8 2e 6b 00 00       	call   8e20 <fibril_mutex_lock>
    22f2:	a1 a8 4b 02 00       	mov    0x24ba8,%eax
    22f7:	85 c0                	test   %eax,%eax
    22f9:	74 25                	je     2320 <loc_exchange_begin.part.0+0x40>
    22fb:	c7 04 24 84 49 02 00 	movl   $0x24984,(%esp)
    2302:	e8 39 6c 00 00       	call   8f40 <fibril_mutex_unlock>
    2307:	a1 a8 4b 02 00       	mov    0x24ba8,%eax
    230c:	85 c0                	test   %eax,%eax
    230e:	74 40                	je     2350 <loc_exchange_begin.part.0+0x70>
    2310:	89 04 24             	mov    %eax,(%esp)
    2313:	e8 18 34 01 00       	call   15730 <async_exchange_begin>
    2318:	c9                   	leave  
    2319:	c3                   	ret    
    231a:	8d b6 00 00 00 00    	lea    0x0(%esi),%esi
    2320:	c7 44 24 0c 00 00 00 	movl   $0x0,0xc(%esp)
    2327:	00 
    2328:	c7 44 24 08 01 00 00 	movl   $0x1,0x8(%esp)
    232f:	00 
    2330:	c7 44 24 04 6c 6f 63 	movl   $0x20636f6c,0x4(%esp)
    2337:	20 
    2338:	c7 04 24 02 00 00 00 	movl   $0x2,(%esp)
    233f:	e8 bc 06 01 00       	call   12a00 <service_connect>
    2344:	a3 a8 4b 02 00       	mov    %eax,0x24ba8
    2349:	eb b0                	jmp    22fb <loc_exchange_begin.part.0+0x1b>
    234b:	90                   	nop
    234c:	8d 74 26 00          	lea    0x0(%esi,%eiz,1),%esi
    2350:	31 c0                	xor    %eax,%eax
    2352:	c9                   	leave  
    2353:	c3                   	ret    
    2354:	8d b6 00 00 00 00    	lea    0x0(%esi),%esi
    235a:	8d bf 00 00 00 00    	lea    0x0(%edi),%edi

00002360 <loc_get_name_internal>:
    2360:	55                   	push   %ebp
    2361:	89 e5                	mov    %esp,%ebp
    2363:	57                   	push   %edi
    2364:	56                   	push   %esi
    2365:	53                   	push   %ebx
    2366:	81 ec 8c 01 00 00    	sub    $0x18c,%esp
    236c:	c7 01 00 00 00 00    	movl   $0x0,(%ecx)
    2372:	89 85 94 fe ff ff    	mov    %eax,-0x16c(%ebp)
    2378:	89 d7                	mov    %edx,%edi
    237a:	c7 04 24 94 49 02 00 	movl   $0x24994,(%esp)
    2381:	89 ce                	mov    %ecx,%esi
    2383:	e8 98 6a 00 00       	call   8e20 <fibril_mutex_lock>
    2388:	a1 b4 4b 02 00       	mov    0x24bb4,%eax
    238d:	85 c0                	test   %eax,%eax
    238f:	75 39                	jne    23ca <loc_get_name_internal+0x6a>
    2391:	c7 04 24 a4 49 02 00 	movl   $0x249a4,(%esp)
    2398:	8b 1d b0 4b 02 00    	mov    0x24bb0,%ebx
    239e:	e8 7d 6a 00 00       	call   8e20 <fibril_mutex_lock>
    23a3:	a1 b4 4b 02 00       	mov    0x24bb4,%eax
    23a8:	85 c0                	test   %eax,%eax
    23aa:	0f 84 40 01 00 00    	je     24f0 <loc_get_name_internal+0x190>
    23b0:	c7 04 24 a4 49 02 00 	movl   $0x249a4,(%esp)
    23b7:	e8 84 6b 00 00       	call   8f40 <fibril_mutex_unlock>
    23bc:	8b 1d b4 4b 02 00    	mov    0x24bb4,%ebx
    23c2:	85 db                	test   %ebx,%ebx
    23c4:	0f 84 3e 01 00 00    	je     2508 <loc_get_name_internal+0x1a8>
    23ca:	c7 04 24 94 49 02 00 	movl   $0x24994,(%esp)
    23d1:	e8 6a 6b 00 00       	call   8f40 <fibril_mutex_unlock>
    23d6:	c7 04 24 a4 49 02 00 	movl   $0x249a4,(%esp)
    23dd:	8b 1d b4 4b 02 00    	mov    0x24bb4,%ebx
    23e3:	e8 38 6a 00 00       	call   8e20 <fibril_mutex_lock>
    23e8:	8b 0d b0 4b 02 00    	mov    0x24bb0,%ecx
    23ee:	85 c9                	test   %ecx,%ecx
    23f0:	0f 84 62 01 00 00    	je     2558 <loc_get_name_internal+0x1f8>
    23f6:	c7 04 24 a4 49 02 00 	movl   $0x249a4,(%esp)
    23fd:	e8 3e 6b 00 00       	call   8f40 <fibril_mutex_unlock>
    2402:	a1 b4 4b 02 00       	mov    0x24bb4,%eax
    2407:	89 04 24             	mov    %eax,(%esp)
    240a:	e8 21 33 01 00       	call   15730 <async_exchange_begin>
    240f:	89 7c 24 08          	mov    %edi,0x8(%esp)
    2413:	89 c3                	mov    %eax,%ebx
    2415:	8d 85 c4 fe ff ff    	lea    -0x13c(%ebp),%eax
    241b:	89 44 24 18          	mov    %eax,0x18(%esp)
    241f:	8b 85 94 fe ff ff    	mov    -0x16c(%ebp),%eax
    2425:	c7 44 24 14 00 00 00 	movl   $0x0,0x14(%esp)
    242c:	00 
    242d:	c7 44 24 10 00 00 00 	movl   $0x0,0x10(%esp)
    2434:	00 
    2435:	c7 44 24 0c 00 00 00 	movl   $0x0,0xc(%esp)
    243c:	00 
    243d:	89 44 24 04          	mov    %eax,0x4(%esp)
    2441:	89 1c 24             	mov    %ebx,(%esp)
    2444:	e8 87 1c 01 00       	call   140d0 <async_send_fast>
    2449:	c7 44 24 08 ff 00 00 	movl   $0xff,0x8(%esp)
    2450:	00 
    2451:	89 c7                	mov    %eax,%edi
    2453:	8d 85 a0 fe ff ff    	lea    -0x160(%ebp),%eax
    2459:	89 44 24 0c          	mov    %eax,0xc(%esp)
    245d:	8d 85 e8 fe ff ff    	lea    -0x118(%ebp),%eax
    2463:	89 44 24 04          	mov    %eax,0x4(%esp)
    2467:	89 1c 24             	mov    %ebx,(%esp)
    246a:	e8 b1 3b 01 00       	call   16020 <async_data_read>
    246f:	8d 8d 98 fe ff ff    	lea    -0x168(%ebp),%ecx
    2475:	89 4c 24 04          	mov    %ecx,0x4(%esp)
    2479:	89 04 24             	mov    %eax,(%esp)
    247c:	e8 1f 1e 01 00       	call   142a0 <async_wait_for>
    2481:	89 1c 24             	mov    %ebx,(%esp)
    2484:	e8 17 36 01 00       	call   15aa0 <async_exchange_end>
    2489:	8b 95 98 fe ff ff    	mov    -0x168(%ebp),%edx
    248f:	85 d2                	test   %edx,%edx
    2491:	0f 85 a1 00 00 00    	jne    2538 <loc_get_name_internal+0x1d8>
    2497:	8d 85 9c fe ff ff    	lea    -0x164(%ebp),%eax
    249d:	89 3c 24             	mov    %edi,(%esp)
    24a0:	89 44 24 04          	mov    %eax,0x4(%esp)
    24a4:	e8 f7 1d 01 00       	call   142a0 <async_wait_for>
    24a9:	8b 85 9c fe ff ff    	mov    -0x164(%ebp),%eax
    24af:	85 c0                	test   %eax,%eax
    24b1:	75 31                	jne    24e4 <loc_get_name_internal+0x184>
    24b3:	8b 85 a8 fe ff ff    	mov    -0x158(%ebp),%eax
    24b9:	3d ff 00 00 00       	cmp    $0xff,%eax
    24be:	0f 87 a7 00 00 00    	ja     256b <loc_get_name_internal+0x20b>
    24c4:	c6 84 05 e8 fe ff ff 	movb   $0x0,-0x118(%ebp,%eax,1)
    24cb:	00 
    24cc:	8d 85 e8 fe ff ff    	lea    -0x118(%ebp),%eax
    24d2:	89 04 24             	mov    %eax,(%esp)
    24d5:	e8 16 56 00 00       	call   7af0 <str_dup>
    24da:	83 f8 01             	cmp    $0x1,%eax
    24dd:	89 06                	mov    %eax,(%esi)
    24df:	19 c0                	sbb    %eax,%eax
    24e1:	83 e0 fe             	and    $0xfffffffe,%eax
    24e4:	81 c4 8c 01 00 00    	add    $0x18c,%esp
    24ea:	5b                   	pop    %ebx
    24eb:	5e                   	pop    %esi
    24ec:	5f                   	pop    %edi
    24ed:	5d                   	pop    %ebp
    24ee:	c3                   	ret    
    24ef:	90                   	nop
    24f0:	85 db                	test   %ebx,%ebx
    24f2:	0f 84 b8 fe ff ff    	je     23b0 <loc_get_name_internal+0x50>
    24f8:	89 1d b4 4b 02 00    	mov    %ebx,0x24bb4
    24fe:	e9 ad fe ff ff       	jmp    23b0 <loc_get_name_internal+0x50>
    2503:	90                   	nop
    2504:	8d 74 26 00          	lea    0x0(%esi,%eiz,1),%esi
    2508:	c7 44 24 0c 00 00 00 	movl   $0x0,0xc(%esp)
    250f:	00 
    2510:	c7 44 24 08 02 00 00 	movl   $0x2,0x8(%esp)
    2517:	00 
    2518:	c7 44 24 04 6c 6f 63 	movl   $0x20636f6c,0x4(%esp)
    251f:	20 
    2520:	c7 04 24 02 00 00 00 	movl   $0x2,(%esp)
    2527:	e8 54 05 01 00       	call   12a80 <service_connect_blocking>
    252c:	a3 b4 4b 02 00       	mov    %eax,0x24bb4
    2531:	e9 57 fe ff ff       	jmp    238d <loc_get_name_internal+0x2d>
    2536:	66 90                	xchg   %ax,%ax
    2538:	89 3c 24             	mov    %edi,(%esp)
    253b:	e8 b0 1f 01 00       	call   144f0 <async_forget>
    2540:	8b 85 98 fe ff ff    	mov    -0x168(%ebp),%eax
    2546:	81 c4 8c 01 00 00    	add    $0x18c,%esp
    254c:	5b                   	pop    %ebx
    254d:	5e                   	pop    %esi
    254e:	5f                   	pop    %edi
    254f:	5d                   	pop    %ebp
    2550:	c3                   	ret    
    2551:	8d b4 26 00 00 00 00 	lea    0x0(%esi,%eiz,1),%esi
    2558:	85 db                	test   %ebx,%ebx
    255a:	0f 84 96 fe ff ff    	je     23f6 <loc_get_name_internal+0x96>
    2560:	89 1d b0 4b 02 00    	mov    %ebx,0x24bb0
    2566:	e9 8b fe ff ff       	jmp    23f6 <loc_get_name_internal+0x96>
    256b:	c7 44 24 08 9e 01 00 	movl   $0x19e,0x8(%esp)
    2572:	00 
    2573:	c7 44 24 04 4f 1d 02 	movl   $0x21d4f,0x4(%esp)
    257a:	00 
    257b:	c7 04 24 5d 1d 02 00 	movl   $0x21d5d,(%esp)
    2582:	e8 e9 cc 01 00       	call   1f270 <assert_abort>
    2587:	89 f6                	mov    %esi,%esi
    2589:	8d bc 27 00 00 00 00 	lea    0x0(%edi,%eiz,1),%edi

00002590 <loc_get_ids_internal>:
    2590:	55                   	push   %ebp
    2591:	89 e5                	mov    %esp,%ebp
    2593:	57                   	push   %edi
    2594:	56                   	push   %esi
    2595:	53                   	push   %ebx
    2596:	83 ec 7c             	sub    $0x7c,%esp
    2599:	89 55 ac             	mov    %edx,-0x54(%ebp)
    259c:	8b 55 08             	mov    0x8(%ebp),%edx
    259f:	c7 01 00 00 00 00    	movl   $0x0,(%ecx)
    25a5:	89 45 b0             	mov    %eax,-0x50(%ebp)
    25a8:	89 4d a8             	mov    %ecx,-0x58(%ebp)
    25ab:	c7 02 00 00 00 00    	movl   $0x0,(%edx)
    25b1:	c7 04 24 94 49 02 00 	movl   $0x24994,(%esp)
    25b8:	e8 63 68 00 00       	call   8e20 <fibril_mutex_lock>
    25bd:	a1 b4 4b 02 00       	mov    0x24bb4,%eax
    25c2:	85 c0                	test   %eax,%eax
    25c4:	75 39                	jne    25ff <loc_get_ids_internal+0x6f>
    25c6:	c7 04 24 a4 49 02 00 	movl   $0x249a4,(%esp)
    25cd:	8b 1d b0 4b 02 00    	mov    0x24bb0,%ebx
    25d3:	e8 48 68 00 00       	call   8e20 <fibril_mutex_lock>
    25d8:	8b 15 b4 4b 02 00    	mov    0x24bb4,%edx
    25de:	85 d2                	test   %edx,%edx
    25e0:	0f 84 5a 02 00 00    	je     2840 <loc_get_ids_internal+0x2b0>
    25e6:	c7 04 24 a4 49 02 00 	movl   $0x249a4,(%esp)
    25ed:	e8 4e 69 00 00       	call   8f40 <fibril_mutex_unlock>
    25f2:	a1 b4 4b 02 00       	mov    0x24bb4,%eax
    25f7:	85 c0                	test   %eax,%eax
    25f9:	0f 84 59 02 00 00    	je     2858 <loc_get_ids_internal+0x2c8>
    25ff:	c7 04 24 94 49 02 00 	movl   $0x24994,(%esp)
    2606:	e8 35 69 00 00       	call   8f40 <fibril_mutex_unlock>
    260b:	c7 04 24 a4 49 02 00 	movl   $0x249a4,(%esp)
    2612:	8b 1d b4 4b 02 00    	mov    0x24bb4,%ebx
    2618:	e8 03 68 00 00       	call   8e20 <fibril_mutex_lock>
    261d:	a1 b0 4b 02 00       	mov    0x24bb0,%eax
    2622:	85 c0                	test   %eax,%eax
    2624:	0f 84 d5 02 00 00    	je     28ff <loc_get_ids_internal+0x36f>
    262a:	c7 04 24 a4 49 02 00 	movl   $0x249a4,(%esp)
    2631:	e8 0a 69 00 00       	call   8f40 <fibril_mutex_unlock>
    2636:	a1 b4 4b 02 00       	mov    0x24bb4,%eax
    263b:	89 04 24             	mov    %eax,(%esp)
    263e:	e8 ed 30 01 00       	call   15730 <async_exchange_begin>
    2643:	8b 55 ac             	mov    -0x54(%ebp),%edx
    2646:	89 c6                	mov    %eax,%esi
    2648:	8d 45 c4             	lea    -0x3c(%ebp),%eax
    264b:	89 44 24 18          	mov    %eax,0x18(%esp)
    264f:	8b 45 b0             	mov    -0x50(%ebp),%eax
    2652:	89 54 24 08          	mov    %edx,0x8(%esp)
    2656:	c7 44 24 14 00 00 00 	movl   $0x0,0x14(%esp)
    265d:	00 
    265e:	c7 44 24 10 00 00 00 	movl   $0x0,0x10(%esp)
    2665:	00 
    2666:	c7 44 24 0c 00 00 00 	movl   $0x0,0xc(%esp)
    266d:	00 
    266e:	89 44 24 04          	mov    %eax,0x4(%esp)
    2672:	89 34 24             	mov    %esi,(%esp)
    2675:	e8 56 1a 01 00       	call   140d0 <async_send_fast>
    267a:	c7 44 24 08 00 00 00 	movl   $0x0,0x8(%esp)
    2681:	00 
    2682:	c7 44 24 04 00 00 00 	movl   $0x0,0x4(%esp)
    2689:	00 
    268a:	89 34 24             	mov    %esi,(%esp)
    268d:	89 c3                	mov    %eax,%ebx
    268f:	e8 6c 3a 01 00       	call   16100 <async_data_read_start>
    2694:	89 34 24             	mov    %esi,(%esp)
    2697:	89 c7                	mov    %eax,%edi
    2699:	e8 02 34 01 00       	call   15aa0 <async_exchange_end>
    269e:	85 ff                	test   %edi,%edi
    26a0:	0f 85 3d 02 00 00    	jne    28e3 <loc_get_ids_internal+0x353>
    26a6:	8d 55 c0             	lea    -0x40(%ebp),%edx
    26a9:	89 1c 24             	mov    %ebx,(%esp)
    26ac:	89 54 24 04          	mov    %edx,0x4(%esp)
    26b0:	e8 eb 1b 01 00       	call   142a0 <async_wait_for>
    26b5:	8b 45 c0             	mov    -0x40(%ebp),%eax
    26b8:	85 c0                	test   %eax,%eax
    26ba:	0f 85 72 01 00 00    	jne    2832 <loc_get_ids_internal+0x2a2>
    26c0:	8b 7d c8             	mov    -0x38(%ebp),%edi
    26c3:	89 3c 24             	mov    %edi,(%esp)
    26c6:	e8 25 fb 00 00       	call   121f0 <malloc>
    26cb:	89 c6                	mov    %eax,%esi
    26cd:	85 c0                	test   %eax,%eax
    26cf:	0f 85 0a 01 00 00    	jne    27df <loc_get_ids_internal+0x24f>
    26d5:	e9 1b 02 00 00       	jmp    28f5 <loc_get_ids_internal+0x365>
    26da:	8d b6 00 00 00 00    	lea    0x0(%esi),%esi
    26e0:	c7 04 24 a4 49 02 00 	movl   $0x249a4,(%esp)
    26e7:	e8 54 68 00 00       	call   8f40 <fibril_mutex_unlock>
    26ec:	a1 b4 4b 02 00       	mov    0x24bb4,%eax
    26f1:	85 c0                	test   %eax,%eax
    26f3:	0f 84 8f 01 00 00    	je     2888 <loc_get_ids_internal+0x2f8>
    26f9:	c7 04 24 94 49 02 00 	movl   $0x24994,(%esp)
    2700:	e8 3b 68 00 00       	call   8f40 <fibril_mutex_unlock>
    2705:	c7 04 24 a4 49 02 00 	movl   $0x249a4,(%esp)
    270c:	8b 1d b4 4b 02 00    	mov    0x24bb4,%ebx
    2712:	e8 09 67 00 00       	call   8e20 <fibril_mutex_lock>
    2717:	a1 b0 4b 02 00       	mov    0x24bb0,%eax
    271c:	85 c0                	test   %eax,%eax
    271e:	0f 84 ac 01 00 00    	je     28d0 <loc_get_ids_internal+0x340>
    2724:	c7 04 24 a4 49 02 00 	movl   $0x249a4,(%esp)
    272b:	e8 10 68 00 00       	call   8f40 <fibril_mutex_unlock>
    2730:	a1 b4 4b 02 00       	mov    0x24bb4,%eax
    2735:	89 04 24             	mov    %eax,(%esp)
    2738:	e8 f3 2f 01 00       	call   15730 <async_exchange_begin>
    273d:	8b 55 ac             	mov    -0x54(%ebp),%edx
    2740:	89 c3                	mov    %eax,%ebx
    2742:	8d 45 c4             	lea    -0x3c(%ebp),%eax
    2745:	89 44 24 18          	mov    %eax,0x18(%esp)
    2749:	8b 45 b0             	mov    -0x50(%ebp),%eax
    274c:	89 54 24 08          	mov    %edx,0x8(%esp)
    2750:	c7 44 24 14 00 00 00 	movl   $0x0,0x14(%esp)
    2757:	00 
    2758:	c7 44 24 10 00 00 00 	movl   $0x0,0x10(%esp)
    275f:	00 
    2760:	c7 44 24 0c 00 00 00 	movl   $0x0,0xc(%esp)
    2767:	00 
    2768:	89 44 24 04          	mov    %eax,0x4(%esp)
    276c:	89 1c 24             	mov    %ebx,(%esp)
    276f:	e8 5c 19 01 00       	call   140d0 <async_send_fast>
    2774:	89 7c 24 08          	mov    %edi,0x8(%esp)
    2778:	89 74 24 04          	mov    %esi,0x4(%esp)
    277c:	89 1c 24             	mov    %ebx,(%esp)
    277f:	89 45 b4             	mov    %eax,-0x4c(%ebp)
    2782:	e8 79 39 01 00       	call   16100 <async_data_read_start>
    2787:	89 1c 24             	mov    %ebx,(%esp)
    278a:	89 45 a4             	mov    %eax,-0x5c(%ebp)
    278d:	e8 0e 33 01 00       	call   15aa0 <async_exchange_end>
    2792:	8b 45 a4             	mov    -0x5c(%ebp),%eax
    2795:	85 c0                	test   %eax,%eax
    2797:	0f 85 1b 01 00 00    	jne    28b8 <loc_get_ids_internal+0x328>
    279d:	8d 55 c0             	lea    -0x40(%ebp),%edx
    27a0:	89 45 a4             	mov    %eax,-0x5c(%ebp)
    27a3:	89 54 24 04          	mov    %edx,0x4(%esp)
    27a7:	8b 55 b4             	mov    -0x4c(%ebp),%edx
    27aa:	89 14 24             	mov    %edx,(%esp)
    27ad:	e8 ee 1a 01 00       	call   142a0 <async_wait_for>
    27b2:	8b 55 c0             	mov    -0x40(%ebp),%edx
    27b5:	85 d2                	test   %edx,%edx
    27b7:	8b 45 a4             	mov    -0x5c(%ebp),%eax
    27ba:	75 74                	jne    2830 <loc_get_ids_internal+0x2a0>
    27bc:	8b 5d c8             	mov    -0x38(%ebp),%ebx
    27bf:	39 df                	cmp    %ebx,%edi
    27c1:	0f 83 4b 01 00 00    	jae    2912 <loc_get_ids_internal+0x382>
    27c7:	89 34 24             	mov    %esi,(%esp)
    27ca:	89 5c 24 04          	mov    %ebx,0x4(%esp)
    27ce:	e8 7d fd 00 00       	call   12550 <realloc>
    27d3:	89 df                	mov    %ebx,%edi
    27d5:	89 c6                	mov    %eax,%esi
    27d7:	85 c0                	test   %eax,%eax
    27d9:	0f 84 16 01 00 00    	je     28f5 <loc_get_ids_internal+0x365>
    27df:	c7 04 24 94 49 02 00 	movl   $0x24994,(%esp)
    27e6:	e8 35 66 00 00       	call   8e20 <fibril_mutex_lock>
    27eb:	a1 b4 4b 02 00       	mov    0x24bb4,%eax
    27f0:	85 c0                	test   %eax,%eax
    27f2:	0f 85 01 ff ff ff    	jne    26f9 <loc_get_ids_internal+0x169>
    27f8:	c7 04 24 a4 49 02 00 	movl   $0x249a4,(%esp)
    27ff:	8b 1d b0 4b 02 00    	mov    0x24bb0,%ebx
    2805:	e8 16 66 00 00       	call   8e20 <fibril_mutex_lock>
    280a:	a1 b4 4b 02 00       	mov    0x24bb4,%eax
    280f:	85 c0                	test   %eax,%eax
    2811:	0f 85 c9 fe ff ff    	jne    26e0 <loc_get_ids_internal+0x150>
    2817:	85 db                	test   %ebx,%ebx
    2819:	0f 84 c1 fe ff ff    	je     26e0 <loc_get_ids_internal+0x150>
    281f:	89 1d b4 4b 02 00    	mov    %ebx,0x24bb4
    2825:	e9 b6 fe ff ff       	jmp    26e0 <loc_get_ids_internal+0x150>
    282a:	8d b6 00 00 00 00    	lea    0x0(%esi),%esi
    2830:	89 d0                	mov    %edx,%eax
    2832:	89 c7                	mov    %eax,%edi
    2834:	83 c4 7c             	add    $0x7c,%esp
    2837:	89 f8                	mov    %edi,%eax
    2839:	5b                   	pop    %ebx
    283a:	5e                   	pop    %esi
    283b:	5f                   	pop    %edi
    283c:	5d                   	pop    %ebp
    283d:	c3                   	ret    
    283e:	66 90                	xchg   %ax,%ax
    2840:	85 db                	test   %ebx,%ebx
    2842:	0f 84 9e fd ff ff    	je     25e6 <loc_get_ids_internal+0x56>
    2848:	89 1d b4 4b 02 00    	mov    %ebx,0x24bb4
    284e:	e9 93 fd ff ff       	jmp    25e6 <loc_get_ids_internal+0x56>
    2853:	90                   	nop
    2854:	8d 74 26 00          	lea    0x0(%esi,%eiz,1),%esi
    2858:	c7 44 24 0c 00 00 00 	movl   $0x0,0xc(%esp)
    285f:	00 
    2860:	c7 44 24 08 02 00 00 	movl   $0x2,0x8(%esp)
    2867:	00 
    2868:	c7 44 24 04 6c 6f 63 	movl   $0x20636f6c,0x4(%esp)
    286f:	20 
    2870:	c7 04 24 02 00 00 00 	movl   $0x2,(%esp)
    2877:	e8 04 02 01 00       	call   12a80 <service_connect_blocking>
    287c:	a3 b4 4b 02 00       	mov    %eax,0x24bb4
    2881:	e9 3c fd ff ff       	jmp    25c2 <loc_get_ids_internal+0x32>
    2886:	66 90                	xchg   %ax,%ax
    2888:	c7 44 24 0c 00 00 00 	movl   $0x0,0xc(%esp)
    288f:	00 
    2890:	c7 44 24 08 02 00 00 	movl   $0x2,0x8(%esp)
    2897:	00 
    2898:	c7 44 24 04 6c 6f 63 	movl   $0x20636f6c,0x4(%esp)
    289f:	20 
    28a0:	c7 04 24 02 00 00 00 	movl   $0x2,(%esp)
    28a7:	e8 d4 01 01 00       	call   12a80 <service_connect_blocking>
    28ac:	a3 b4 4b 02 00       	mov    %eax,0x24bb4
    28b1:	e9 3a ff ff ff       	jmp    27f0 <loc_get_ids_internal+0x260>
    28b6:	66 90                	xchg   %ax,%ax
    28b8:	89 c7                	mov    %eax,%edi
    28ba:	8b 45 b4             	mov    -0x4c(%ebp),%eax
    28bd:	89 04 24             	mov    %eax,(%esp)
    28c0:	e8 2b 1c 01 00       	call   144f0 <async_forget>
    28c5:	83 c4 7c             	add    $0x7c,%esp
    28c8:	89 f8                	mov    %edi,%eax
    28ca:	5b                   	pop    %ebx
    28cb:	5e                   	pop    %esi
    28cc:	5f                   	pop    %edi
    28cd:	5d                   	pop    %ebp
    28ce:	c3                   	ret    
    28cf:	90                   	nop
    28d0:	85 db                	test   %ebx,%ebx
    28d2:	0f 84 4c fe ff ff    	je     2724 <loc_get_ids_internal+0x194>
    28d8:	89 1d b0 4b 02 00    	mov    %ebx,0x24bb0
    28de:	e9 41 fe ff ff       	jmp    2724 <loc_get_ids_internal+0x194>
    28e3:	89 1c 24             	mov    %ebx,(%esp)
    28e6:	e8 05 1c 01 00       	call   144f0 <async_forget>
    28eb:	83 c4 7c             	add    $0x7c,%esp
    28ee:	89 f8                	mov    %edi,%eax
    28f0:	5b                   	pop    %ebx
    28f1:	5e                   	pop    %esi
    28f2:	5f                   	pop    %edi
    28f3:	5d                   	pop    %ebp
    28f4:	c3                   	ret    
    28f5:	bf fe ff ff ff       	mov    $0xfffffffe,%edi
    28fa:	e9 35 ff ff ff       	jmp    2834 <loc_get_ids_internal+0x2a4>
    28ff:	85 db                	test   %ebx,%ebx
    2901:	0f 84 23 fd ff ff    	je     262a <loc_get_ids_internal+0x9a>
    2907:	89 1d b0 4b 02 00    	mov    %ebx,0x24bb0
    290d:	e9 18 fd ff ff       	jmp    262a <loc_get_ids_internal+0x9a>
    2912:	89 c7                	mov    %eax,%edi
    2914:	8b 55 08             	mov    0x8(%ebp),%edx
    2917:	c1 eb 02             	shr    $0x2,%ebx
    291a:	8b 45 a8             	mov    -0x58(%ebp),%eax
    291d:	89 1a                	mov    %ebx,(%edx)
    291f:	89 30                	mov    %esi,(%eax)
    2921:	e9 0e ff ff ff       	jmp    2834 <loc_get_ids_internal+0x2a4>
    2926:	8d 76 00             	lea    0x0(%esi),%esi
    2929:	8d bc 27 00 00 00 00 	lea    0x0(%edi,%eiz,1),%edi

00002930 <loc_exchange_begin_blocking>:
    2930:	55                   	push   %ebp
    2931:	89 e5                	mov    %esp,%ebp
    2933:	53                   	push   %ebx
    2934:	83 ec 14             	sub    $0x14,%esp
    2937:	8b 45 08             	mov    0x8(%ebp),%eax
    293a:	83 f8 01             	cmp    $0x1,%eax
    293d:	74 11                	je     2950 <loc_exchange_begin_blocking+0x20>
    293f:	83 f8 02             	cmp    $0x2,%eax
    2942:	0f 84 b0 00 00 00    	je     29f8 <loc_exchange_begin_blocking+0xc8>
    2948:	83 c4 14             	add    $0x14,%esp
    294b:	31 c0                	xor    %eax,%eax
    294d:	5b                   	pop    %ebx
    294e:	5d                   	pop    %ebp
    294f:	c3                   	ret    
    2950:	c7 04 24 74 49 02 00 	movl   $0x24974,(%esp)
    2957:	e8 c4 64 00 00       	call   8e20 <fibril_mutex_lock>
    295c:	a1 ac 4b 02 00       	mov    0x24bac,%eax
    2961:	85 c0                	test   %eax,%eax
    2963:	75 34                	jne    2999 <loc_exchange_begin_blocking+0x69>
    2965:	c7 04 24 84 49 02 00 	movl   $0x24984,(%esp)
    296c:	8b 1d a8 4b 02 00    	mov    0x24ba8,%ebx
    2972:	e8 a9 64 00 00       	call   8e20 <fibril_mutex_lock>
    2977:	a1 ac 4b 02 00       	mov    0x24bac,%eax
    297c:	85 c0                	test   %eax,%eax
    297e:	74 68                	je     29e8 <loc_exchange_begin_blocking+0xb8>
    2980:	c7 04 24 84 49 02 00 	movl   $0x24984,(%esp)
    2987:	e8 b4 65 00 00       	call   8f40 <fibril_mutex_unlock>
    298c:	a1 ac 4b 02 00       	mov    0x24bac,%eax
    2991:	85 c0                	test   %eax,%eax
    2993:	0f 84 07 01 00 00    	je     2aa0 <loc_exchange_begin_blocking+0x170>
    2999:	c7 04 24 74 49 02 00 	movl   $0x24974,(%esp)
    29a0:	e8 9b 65 00 00       	call   8f40 <fibril_mutex_unlock>
    29a5:	c7 04 24 84 49 02 00 	movl   $0x24984,(%esp)
    29ac:	8b 1d ac 4b 02 00    	mov    0x24bac,%ebx
    29b2:	e8 69 64 00 00       	call   8e20 <fibril_mutex_lock>
    29b7:	a1 a8 4b 02 00       	mov    0x24ba8,%eax
    29bc:	85 c0                	test   %eax,%eax
    29be:	0f 84 3c 01 00 00    	je     2b00 <loc_exchange_begin_blocking+0x1d0>
    29c4:	c7 04 24 84 49 02 00 	movl   $0x24984,(%esp)
    29cb:	e8 70 65 00 00       	call   8f40 <fibril_mutex_unlock>
    29d0:	a1 ac 4b 02 00       	mov    0x24bac,%eax
    29d5:	89 45 08             	mov    %eax,0x8(%ebp)
    29d8:	83 c4 14             	add    $0x14,%esp
    29db:	5b                   	pop    %ebx
    29dc:	5d                   	pop    %ebp
    29dd:	e9 4e 2d 01 00       	jmp    15730 <async_exchange_begin>
    29e2:	8d b6 00 00 00 00    	lea    0x0(%esi),%esi
    29e8:	85 db                	test   %ebx,%ebx
    29ea:	74 94                	je     2980 <loc_exchange_begin_blocking+0x50>
    29ec:	89 1d ac 4b 02 00    	mov    %ebx,0x24bac
    29f2:	eb 8c                	jmp    2980 <loc_exchange_begin_blocking+0x50>
    29f4:	8d 74 26 00          	lea    0x0(%esi,%eiz,1),%esi
    29f8:	c7 04 24 94 49 02 00 	movl   $0x24994,(%esp)
    29ff:	e8 1c 64 00 00       	call   8e20 <fibril_mutex_lock>
    2a04:	a1 b4 4b 02 00       	mov    0x24bb4,%eax
    2a09:	85 c0                	test   %eax,%eax
    2a0b:	75 35                	jne    2a42 <loc_exchange_begin_blocking+0x112>
    2a0d:	c7 04 24 a4 49 02 00 	movl   $0x249a4,(%esp)
    2a14:	8b 1d b0 4b 02 00    	mov    0x24bb0,%ebx
    2a1a:	e8 01 64 00 00       	call   8e20 <fibril_mutex_lock>
    2a1f:	a1 b4 4b 02 00       	mov    0x24bb4,%eax
    2a24:	85 c0                	test   %eax,%eax
    2a26:	74 68                	je     2a90 <loc_exchange_begin_blocking+0x160>
    2a28:	c7 04 24 a4 49 02 00 	movl   $0x249a4,(%esp)
    2a2f:	e8 0c 65 00 00       	call   8f40 <fibril_mutex_unlock>
    2a34:	8b 1d b4 4b 02 00    	mov    0x24bb4,%ebx
    2a3a:	85 db                	test   %ebx,%ebx
    2a3c:	0f 84 8e 00 00 00    	je     2ad0 <loc_exchange_begin_blocking+0x1a0>
    2a42:	c7 04 24 94 49 02 00 	movl   $0x24994,(%esp)
    2a49:	e8 f2 64 00 00       	call   8f40 <fibril_mutex_unlock>
    2a4e:	c7 04 24 a4 49 02 00 	movl   $0x249a4,(%esp)
    2a55:	8b 1d b4 4b 02 00    	mov    0x24bb4,%ebx
    2a5b:	e8 c0 63 00 00       	call   8e20 <fibril_mutex_lock>
    2a60:	8b 0d b0 4b 02 00    	mov    0x24bb0,%ecx
    2a66:	85 c9                	test   %ecx,%ecx
    2a68:	0f 84 aa 00 00 00    	je     2b18 <loc_exchange_begin_blocking+0x1e8>
    2a6e:	c7 04 24 a4 49 02 00 	movl   $0x249a4,(%esp)
    2a75:	e8 c6 64 00 00       	call   8f40 <fibril_mutex_unlock>
    2a7a:	a1 b4 4b 02 00       	mov    0x24bb4,%eax
    2a7f:	89 45 08             	mov    %eax,0x8(%ebp)
    2a82:	83 c4 14             	add    $0x14,%esp
    2a85:	5b                   	pop    %ebx
    2a86:	5d                   	pop    %ebp
    2a87:	e9 a4 2c 01 00       	jmp    15730 <async_exchange_begin>
    2a8c:	8d 74 26 00          	lea    0x0(%esi,%eiz,1),%esi
    2a90:	85 db                	test   %ebx,%ebx
    2a92:	74 94                	je     2a28 <loc_exchange_begin_blocking+0xf8>
    2a94:	89 1d b4 4b 02 00    	mov    %ebx,0x24bb4
    2a9a:	eb 8c                	jmp    2a28 <loc_exchange_begin_blocking+0xf8>
    2a9c:	8d 74 26 00          	lea    0x0(%esi,%eiz,1),%esi
    2aa0:	c7 44 24 0c 00 00 00 	movl   $0x0,0xc(%esp)
    2aa7:	00 
    2aa8:	c7 44 24 08 01 00 00 	movl   $0x1,0x8(%esp)
    2aaf:	00 
    2ab0:	c7 44 24 04 6c 6f 63 	movl   $0x20636f6c,0x4(%esp)
    2ab7:	20 
    2ab8:	c7 04 24 02 00 00 00 	movl   $0x2,(%esp)
    2abf:	e8 bc ff 00 00       	call   12a80 <service_connect_blocking>
    2ac4:	a3 ac 4b 02 00       	mov    %eax,0x24bac
    2ac9:	e9 93 fe ff ff       	jmp    2961 <loc_exchange_begin_blocking+0x31>
    2ace:	66 90                	xchg   %ax,%ax
    2ad0:	c7 44 24 0c 00 00 00 	movl   $0x0,0xc(%esp)
    2ad7:	00 
    2ad8:	c7 44 24 08 02 00 00 	movl   $0x2,0x8(%esp)
    2adf:	00 
    2ae0:	c7 44 24 04 6c 6f 63 	movl   $0x20636f6c,0x4(%esp)
    2ae7:	20 
    2ae8:	c7 04 24 02 00 00 00 	movl   $0x2,(%esp)
    2aef:	e8 8c ff 00 00       	call   12a80 <service_connect_blocking>
    2af4:	a3 b4 4b 02 00       	mov    %eax,0x24bb4
    2af9:	e9 0b ff ff ff       	jmp    2a09 <loc_exchange_begin_blocking+0xd9>
    2afe:	66 90                	xchg   %ax,%ax
    2b00:	85 db                	test   %ebx,%ebx
    2b02:	0f 84 bc fe ff ff    	je     29c4 <loc_exchange_begin_blocking+0x94>
    2b08:	89 1d a8 4b 02 00    	mov    %ebx,0x24ba8
    2b0e:	e9 b1 fe ff ff       	jmp    29c4 <loc_exchange_begin_blocking+0x94>
    2b13:	90                   	nop
    2b14:	8d 74 26 00          	lea    0x0(%esi,%eiz,1),%esi
    2b18:	85 db                	test   %ebx,%ebx
    2b1a:	0f 84 4e ff ff ff    	je     2a6e <loc_exchange_begin_blocking+0x13e>
    2b20:	89 1d b0 4b 02 00    	mov    %ebx,0x24bb0
    2b26:	e9 43 ff ff ff       	jmp    2a6e <loc_exchange_begin_blocking+0x13e>
    2b2b:	90                   	nop
    2b2c:	8d 74 26 00          	lea    0x0(%esi,%eiz,1),%esi

00002b30 <loc_exchange_begin>:
    2b30:	55                   	push   %ebp
    2b31:	89 e5                	mov    %esp,%ebp
    2b33:	83 ec 18             	sub    $0x18,%esp
    2b36:	8b 45 08             	mov    0x8(%ebp),%eax
    2b39:	83 f8 01             	cmp    $0x1,%eax
    2b3c:	74 0a                	je     2b48 <loc_exchange_begin+0x18>
    2b3e:	83 f8 02             	cmp    $0x2,%eax
    2b41:	74 3d                	je     2b80 <loc_exchange_begin+0x50>
    2b43:	31 c0                	xor    %eax,%eax
    2b45:	c9                   	leave  
    2b46:	c3                   	ret    
    2b47:	90                   	nop
    2b48:	c7 04 24 84 49 02 00 	movl   $0x24984,(%esp)
    2b4f:	e8 cc 62 00 00       	call   8e20 <fibril_mutex_lock>
    2b54:	a1 a8 4b 02 00       	mov    0x24ba8,%eax
    2b59:	85 c0                	test   %eax,%eax
    2b5b:	74 5b                	je     2bb8 <loc_exchange_begin+0x88>
    2b5d:	c7 04 24 84 49 02 00 	movl   $0x24984,(%esp)
    2b64:	e8 d7 63 00 00       	call   8f40 <fibril_mutex_unlock>
    2b69:	a1 a8 4b 02 00       	mov    0x24ba8,%eax
    2b6e:	85 c0                	test   %eax,%eax
    2b70:	74 d1                	je     2b43 <loc_exchange_begin+0x13>
    2b72:	89 45 08             	mov    %eax,0x8(%ebp)
    2b75:	c9                   	leave  
    2b76:	e9 b5 2b 01 00       	jmp    15730 <async_exchange_begin>
    2b7b:	90                   	nop
    2b7c:	8d 74 26 00          	lea    0x0(%esi,%eiz,1),%esi
    2b80:	c7 04 24 a4 49 02 00 	movl   $0x249a4,(%esp)
    2b87:	e8 94 62 00 00       	call   8e20 <fibril_mutex_lock>
    2b8c:	a1 b0 4b 02 00       	mov    0x24bb0,%eax
    2b91:	85 c0                	test   %eax,%eax
    2b93:	74 53                	je     2be8 <loc_exchange_begin+0xb8>
    2b95:	c7 04 24 a4 49 02 00 	movl   $0x249a4,(%esp)
    2b9c:	e8 9f 63 00 00       	call   8f40 <fibril_mutex_unlock>
    2ba1:	a1 b0 4b 02 00       	mov    0x24bb0,%eax
    2ba6:	85 c0                	test   %eax,%eax
    2ba8:	74 99                	je     2b43 <loc_exchange_begin+0x13>
    2baa:	89 45 08             	mov    %eax,0x8(%ebp)
    2bad:	c9                   	leave  
    2bae:	e9 7d 2b 01 00       	jmp    15730 <async_exchange_begin>
    2bb3:	90                   	nop
    2bb4:	8d 74 26 00          	lea    0x0(%esi,%eiz,1),%esi
    2bb8:	c7 44 24 0c 00 00 00 	movl   $0x0,0xc(%esp)
    2bbf:	00 
    2bc0:	c7 44 24 08 01 00 00 	movl   $0x1,0x8(%esp)
    2bc7:	00 
    2bc8:	c7 44 24 04 6c 6f 63 	movl   $0x20636f6c,0x4(%esp)
    2bcf:	20 
    2bd0:	c7 04 24 02 00 00 00 	movl   $0x2,(%esp)
    2bd7:	e8 24 fe 00 00       	call   12a00 <service_connect>
    2bdc:	a3 a8 4b 02 00       	mov    %eax,0x24ba8
    2be1:	e9 77 ff ff ff       	jmp    2b5d <loc_exchange_begin+0x2d>
    2be6:	66 90                	xchg   %ax,%ax
    2be8:	c7 44 24 0c 00 00 00 	movl   $0x0,0xc(%esp)
    2bef:	00 
    2bf0:	c7 44 24 08 02 00 00 	movl   $0x2,0x8(%esp)
    2bf7:	00 
    2bf8:	c7 44 24 04 6c 6f 63 	movl   $0x20636f6c,0x4(%esp)
    2bff:	20 
    2c00:	c7 04 24 02 00 00 00 	movl   $0x2,(%esp)
    2c07:	e8 f4 fd 00 00       	call   12a00 <service_connect>
    2c0c:	a3 b0 4b 02 00       	mov    %eax,0x24bb0
    2c11:	eb 82                	jmp    2b95 <loc_exchange_begin+0x65>
    2c13:	8d b6 00 00 00 00    	lea    0x0(%esi),%esi
    2c19:	8d bc 27 00 00 00 00 	lea    0x0(%edi,%eiz,1),%edi

00002c20 <loc_exchange_end>:
    2c20:	55                   	push   %ebp
    2c21:	89 e5                	mov    %esp,%ebp
    2c23:	5d                   	pop    %ebp
    2c24:	e9 77 2e 01 00       	jmp    15aa0 <async_exchange_end>
    2c29:	8d b4 26 00 00 00 00 	lea    0x0(%esi,%eiz,1),%esi

00002c30 <loc_server_register>:
    2c30:	55                   	push   %ebp
    2c31:	89 e5                	mov    %esp,%ebp
    2c33:	57                   	push   %edi
    2c34:	56                   	push   %esi
    2c35:	53                   	push   %ebx
    2c36:	83 ec 5c             	sub    $0x5c,%esp
    2c39:	8b 75 08             	mov    0x8(%ebp),%esi
    2c3c:	c7 04 24 74 49 02 00 	movl   $0x24974,(%esp)
    2c43:	e8 d8 61 00 00       	call   8e20 <fibril_mutex_lock>
    2c48:	a1 ac 4b 02 00       	mov    0x24bac,%eax
    2c4d:	85 c0                	test   %eax,%eax
    2c4f:	75 38                	jne    2c89 <loc_server_register+0x59>
    2c51:	c7 04 24 84 49 02 00 	movl   $0x24984,(%esp)
    2c58:	8b 1d a8 4b 02 00    	mov    0x24ba8,%ebx
    2c5e:	e8 bd 61 00 00       	call   8e20 <fibril_mutex_lock>
    2c63:	a1 ac 4b 02 00       	mov    0x24bac,%eax
    2c68:	85 c0                	test   %eax,%eax
    2c6a:	0f 84 58 01 00 00    	je     2dc8 <loc_server_register+0x198>
    2c70:	c7 04 24 84 49 02 00 	movl   $0x24984,(%esp)
    2c77:	e8 c4 62 00 00       	call   8f40 <fibril_mutex_unlock>
    2c7c:	a1 ac 4b 02 00       	mov    0x24bac,%eax
    2c81:	85 c0                	test   %eax,%eax
    2c83:	0f 84 57 01 00 00    	je     2de0 <loc_server_register+0x1b0>
    2c89:	c7 04 24 74 49 02 00 	movl   $0x24974,(%esp)
    2c90:	e8 ab 62 00 00       	call   8f40 <fibril_mutex_unlock>
    2c95:	c7 04 24 84 49 02 00 	movl   $0x24984,(%esp)
    2c9c:	8b 1d ac 4b 02 00    	mov    0x24bac,%ebx
    2ca2:	e8 79 61 00 00       	call   8e20 <fibril_mutex_lock>
    2ca7:	8b 3d a8 4b 02 00    	mov    0x24ba8,%edi
    2cad:	85 ff                	test   %edi,%edi
    2caf:	0f 84 73 01 00 00    	je     2e28 <loc_server_register+0x1f8>
    2cb5:	c7 04 24 84 49 02 00 	movl   $0x24984,(%esp)
    2cbc:	e8 7f 62 00 00       	call   8f40 <fibril_mutex_unlock>
    2cc1:	a1 ac 4b 02 00       	mov    0x24bac,%eax
    2cc6:	89 04 24             	mov    %eax,(%esp)
    2cc9:	e8 62 2a 01 00       	call   15730 <async_exchange_begin>
    2cce:	c7 44 24 14 00 00 00 	movl   $0x0,0x14(%esp)
    2cd5:	00 
    2cd6:	89 c3                	mov    %eax,%ebx
    2cd8:	8d 45 c4             	lea    -0x3c(%ebp),%eax
    2cdb:	89 44 24 18          	mov    %eax,0x18(%esp)
    2cdf:	c7 44 24 10 00 00 00 	movl   $0x0,0x10(%esp)
    2ce6:	00 
    2ce7:	c7 44 24 0c 00 00 00 	movl   $0x0,0xc(%esp)
    2cee:	00 
    2cef:	c7 44 24 08 00 00 00 	movl   $0x0,0x8(%esp)
    2cf6:	00 
    2cf7:	c7 44 24 04 00 04 00 	movl   $0x400,0x4(%esp)
    2cfe:	00 
    2cff:	89 1c 24             	mov    %ebx,(%esp)
    2d02:	e8 c9 13 01 00       	call   140d0 <async_send_fast>
    2d07:	89 34 24             	mov    %esi,(%esp)
    2d0a:	89 c7                	mov    %eax,%edi
    2d0c:	e8 3f 2e 00 00       	call   5b50 <str_size>
    2d11:	89 74 24 04          	mov    %esi,0x4(%esp)
    2d15:	89 44 24 08          	mov    %eax,0x8(%esp)
    2d19:	89 1c 24             	mov    %ebx,(%esp)
    2d1c:	e8 ff 38 01 00       	call   16620 <async_data_write_start>
    2d21:	89 1c 24             	mov    %ebx,(%esp)
    2d24:	89 45 c0             	mov    %eax,-0x40(%ebp)
    2d27:	e8 74 2d 01 00       	call   15aa0 <async_exchange_end>
    2d2c:	8b 4d c0             	mov    -0x40(%ebp),%ecx
    2d2f:	85 c9                	test   %ecx,%ecx
    2d31:	0f 85 d9 00 00 00    	jne    2e10 <loc_server_register+0x1e0>
    2d37:	c7 04 24 84 49 02 00 	movl   $0x24984,(%esp)
    2d3e:	e8 dd 60 00 00       	call   8e20 <fibril_mutex_lock>
    2d43:	8b 15 a8 4b 02 00    	mov    0x24ba8,%edx
    2d49:	85 d2                	test   %edx,%edx
    2d4b:	0f 84 ea 00 00 00    	je     2e3b <loc_server_register+0x20b>
    2d51:	c7 04 24 84 49 02 00 	movl   $0x24984,(%esp)
    2d58:	e8 e3 61 00 00       	call   8f40 <fibril_mutex_unlock>
    2d5d:	a1 a8 4b 02 00       	mov    0x24ba8,%eax
    2d62:	85 c0                	test   %eax,%eax
    2d64:	0f 84 ff 00 00 00    	je     2e69 <loc_server_register+0x239>
    2d6a:	89 04 24             	mov    %eax,(%esp)
    2d6d:	e8 be 29 01 00       	call   15730 <async_exchange_begin>
    2d72:	89 c3                	mov    %eax,%ebx
    2d74:	89 1c 24             	mov    %ebx,(%esp)
    2d77:	c7 44 24 14 00 00 00 	movl   $0x0,0x14(%esp)
    2d7e:	00 
    2d7f:	c7 44 24 10 00 00 00 	movl   $0x0,0x10(%esp)
    2d86:	00 
    2d87:	c7 44 24 0c 00 00 00 	movl   $0x0,0xc(%esp)
    2d8e:	00 
    2d8f:	c7 44 24 08 00 00 00 	movl   $0x0,0x8(%esp)
    2d96:	00 
    2d97:	c7 44 24 04 00 00 00 	movl   $0x0,0x4(%esp)
    2d9e:	00 
    2d9f:	e8 2c 21 01 00       	call   14ed0 <async_connect_to_me>
    2da4:	89 1c 24             	mov    %ebx,(%esp)
    2da7:	e8 f4 2c 01 00       	call   15aa0 <async_exchange_end>
    2dac:	8d 45 c0             	lea    -0x40(%ebp),%eax
    2daf:	89 44 24 04          	mov    %eax,0x4(%esp)
    2db3:	89 3c 24             	mov    %edi,(%esp)
    2db6:	e8 e5 14 01 00       	call   142a0 <async_wait_for>
    2dbb:	8b 45 c0             	mov    -0x40(%ebp),%eax
    2dbe:	83 c4 5c             	add    $0x5c,%esp
    2dc1:	5b                   	pop    %ebx
    2dc2:	5e                   	pop    %esi
    2dc3:	5f                   	pop    %edi
    2dc4:	5d                   	pop    %ebp
    2dc5:	c3                   	ret    
    2dc6:	66 90                	xchg   %ax,%ax
    2dc8:	85 db                	test   %ebx,%ebx
    2dca:	0f 84 a0 fe ff ff    	je     2c70 <loc_server_register+0x40>
    2dd0:	89 1d ac 4b 02 00    	mov    %ebx,0x24bac
    2dd6:	e9 95 fe ff ff       	jmp    2c70 <loc_server_register+0x40>
    2ddb:	90                   	nop
    2ddc:	8d 74 26 00          	lea    0x0(%esi,%eiz,1),%esi
    2de0:	c7 44 24 0c 00 00 00 	movl   $0x0,0xc(%esp)
    2de7:	00 
    2de8:	c7 44 24 08 01 00 00 	movl   $0x1,0x8(%esp)
    2def:	00 
    2df0:	c7 44 24 04 6c 6f 63 	movl   $0x20636f6c,0x4(%esp)
    2df7:	20 
    2df8:	c7 04 24 02 00 00 00 	movl   $0x2,(%esp)
    2dff:	e8 7c fc 00 00       	call   12a80 <service_connect_blocking>
    2e04:	a3 ac 4b 02 00       	mov    %eax,0x24bac
    2e09:	e9 3f fe ff ff       	jmp    2c4d <loc_server_register+0x1d>
    2e0e:	66 90                	xchg   %ax,%ax
    2e10:	89 3c 24             	mov    %edi,(%esp)
    2e13:	e8 d8 16 01 00       	call   144f0 <async_forget>
    2e18:	8b 45 c0             	mov    -0x40(%ebp),%eax
    2e1b:	83 c4 5c             	add    $0x5c,%esp
    2e1e:	5b                   	pop    %ebx
    2e1f:	5e                   	pop    %esi
    2e20:	5f                   	pop    %edi
    2e21:	5d                   	pop    %ebp
    2e22:	c3                   	ret    
    2e23:	90                   	nop
    2e24:	8d 74 26 00          	lea    0x0(%esi,%eiz,1),%esi
    2e28:	85 db                	test   %ebx,%ebx
    2e2a:	0f 84 85 fe ff ff    	je     2cb5 <loc_server_register+0x85>
    2e30:	89 1d a8 4b 02 00    	mov    %ebx,0x24ba8
    2e36:	e9 7a fe ff ff       	jmp    2cb5 <loc_server_register+0x85>
    2e3b:	c7 44 24 0c 00 00 00 	movl   $0x0,0xc(%esp)
    2e42:	00 
    2e43:	c7 44 24 08 01 00 00 	movl   $0x1,0x8(%esp)
    2e4a:	00 
    2e4b:	c7 44 24 04 6c 6f 63 	movl   $0x20636f6c,0x4(%esp)
    2e52:	20 
    2e53:	c7 04 24 02 00 00 00 	movl   $0x2,(%esp)
    2e5a:	e8 a1 fb 00 00       	call   12a00 <service_connect>
    2e5f:	a3 a8 4b 02 00       	mov    %eax,0x24ba8
    2e64:	e9 e8 fe ff ff       	jmp    2d51 <loc_server_register+0x121>
    2e69:	31 db                	xor    %ebx,%ebx
    2e6b:	e9 04 ff ff ff       	jmp    2d74 <loc_server_register+0x144>

00002e70 <loc_service_register_with_iface>:
    2e70:	55                   	push   %ebp
    2e71:	89 e5                	mov    %esp,%ebp
    2e73:	57                   	push   %edi
    2e74:	56                   	push   %esi
    2e75:	53                   	push   %ebx
    2e76:	83 ec 5c             	sub    $0x5c,%esp
    2e79:	8b 75 08             	mov    0x8(%ebp),%esi
    2e7c:	c7 04 24 74 49 02 00 	movl   $0x24974,(%esp)
    2e83:	e8 98 5f 00 00       	call   8e20 <fibril_mutex_lock>
    2e88:	a1 ac 4b 02 00       	mov    0x24bac,%eax
    2e8d:	85 c0                	test   %eax,%eax
    2e8f:	75 38                	jne    2ec9 <loc_service_register_with_iface+0x59>
    2e91:	c7 04 24 84 49 02 00 	movl   $0x24984,(%esp)
    2e98:	8b 1d a8 4b 02 00    	mov    0x24ba8,%ebx
    2e9e:	e8 7d 5f 00 00       	call   8e20 <fibril_mutex_lock>
    2ea3:	a1 ac 4b 02 00       	mov    0x24bac,%eax
    2ea8:	85 c0                	test   %eax,%eax
    2eaa:	0f 84 f8 00 00 00    	je     2fa8 <loc_service_register_with_iface+0x138>
    2eb0:	c7 04 24 84 49 02 00 	movl   $0x24984,(%esp)
    2eb7:	e8 84 60 00 00       	call   8f40 <fibril_mutex_unlock>
    2ebc:	a1 ac 4b 02 00       	mov    0x24bac,%eax
    2ec1:	85 c0                	test   %eax,%eax
    2ec3:	0f 84 f7 00 00 00    	je     2fc0 <loc_service_register_with_iface+0x150>
    2ec9:	c7 04 24 74 49 02 00 	movl   $0x24974,(%esp)
    2ed0:	e8 6b 60 00 00       	call   8f40 <fibril_mutex_unlock>
    2ed5:	c7 04 24 84 49 02 00 	movl   $0x24984,(%esp)
    2edc:	8b 1d ac 4b 02 00    	mov    0x24bac,%ebx
    2ee2:	e8 39 5f 00 00       	call   8e20 <fibril_mutex_lock>
    2ee7:	8b 3d a8 4b 02 00    	mov    0x24ba8,%edi
    2eed:	85 ff                	test   %edi,%edi
    2eef:	0f 84 33 01 00 00    	je     3028 <loc_service_register_with_iface+0x1b8>
    2ef5:	c7 04 24 84 49 02 00 	movl   $0x24984,(%esp)
    2efc:	e8 3f 60 00 00       	call   8f40 <fibril_mutex_unlock>
    2f01:	a1 ac 4b 02 00       	mov    0x24bac,%eax
    2f06:	89 04 24             	mov    %eax,(%esp)
    2f09:	e8 22 28 01 00       	call   15730 <async_exchange_begin>
    2f0e:	c7 44 24 14 00 00 00 	movl   $0x0,0x14(%esp)
    2f15:	00 
    2f16:	89 c7                	mov    %eax,%edi
    2f18:	8d 45 c4             	lea    -0x3c(%ebp),%eax
    2f1b:	89 44 24 18          	mov    %eax,0x18(%esp)
    2f1f:	8b 45 10             	mov    0x10(%ebp),%eax
    2f22:	c7 44 24 10 00 00 00 	movl   $0x0,0x10(%esp)
    2f29:	00 
    2f2a:	c7 44 24 0c 00 00 00 	movl   $0x0,0xc(%esp)
    2f31:	00 
    2f32:	89 44 24 08          	mov    %eax,0x8(%esp)
    2f36:	c7 44 24 04 03 04 00 	movl   $0x403,0x4(%esp)
    2f3d:	00 
    2f3e:	89 3c 24             	mov    %edi,(%esp)
    2f41:	e8 8a 11 01 00       	call   140d0 <async_send_fast>
    2f46:	89 34 24             	mov    %esi,(%esp)
    2f49:	89 c3                	mov    %eax,%ebx
    2f4b:	e8 00 2c 00 00       	call   5b50 <str_size>
    2f50:	89 74 24 04          	mov    %esi,0x4(%esp)
    2f54:	89 44 24 08          	mov    %eax,0x8(%esp)
    2f58:	89 3c 24             	mov    %edi,(%esp)
    2f5b:	e8 c0 36 01 00       	call   16620 <async_data_write_start>
    2f60:	89 3c 24             	mov    %edi,(%esp)
    2f63:	89 45 c0             	mov    %eax,-0x40(%ebp)
    2f66:	e8 35 2b 01 00       	call   15aa0 <async_exchange_end>
    2f6b:	8b 4d c0             	mov    -0x40(%ebp),%ecx
    2f6e:	85 c9                	test   %ecx,%ecx
    2f70:	0f 85 9a 00 00 00    	jne    3010 <loc_service_register_with_iface+0x1a0>
    2f76:	8d 45 c0             	lea    -0x40(%ebp),%eax
    2f79:	89 1c 24             	mov    %ebx,(%esp)
    2f7c:	89 44 24 04          	mov    %eax,0x4(%esp)
    2f80:	e8 1b 13 01 00       	call   142a0 <async_wait_for>
    2f85:	8b 45 c0             	mov    -0x40(%ebp),%eax
    2f88:	85 c0                	test   %eax,%eax
    2f8a:	74 64                	je     2ff0 <loc_service_register_with_iface+0x180>
    2f8c:	8b 55 0c             	mov    0xc(%ebp),%edx
    2f8f:	85 d2                	test   %edx,%edx
    2f91:	74 09                	je     2f9c <loc_service_register_with_iface+0x12c>
    2f93:	8b 55 0c             	mov    0xc(%ebp),%edx
    2f96:	c7 02 ff ff ff ff    	movl   $0xffffffff,(%edx)
    2f9c:	83 c4 5c             	add    $0x5c,%esp
    2f9f:	5b                   	pop    %ebx
    2fa0:	5e                   	pop    %esi
    2fa1:	5f                   	pop    %edi
    2fa2:	5d                   	pop    %ebp
    2fa3:	c3                   	ret    
    2fa4:	8d 74 26 00          	lea    0x0(%esi,%eiz,1),%esi
    2fa8:	85 db                	test   %ebx,%ebx
    2faa:	0f 84 00 ff ff ff    	je     2eb0 <loc_service_register_with_iface+0x40>
    2fb0:	89 1d ac 4b 02 00    	mov    %ebx,0x24bac
    2fb6:	e9 f5 fe ff ff       	jmp    2eb0 <loc_service_register_with_iface+0x40>
    2fbb:	90                   	nop
    2fbc:	8d 74 26 00          	lea    0x0(%esi,%eiz,1),%esi
    2fc0:	c7 44 24 0c 00 00 00 	movl   $0x0,0xc(%esp)
    2fc7:	00 
    2fc8:	c7 44 24 08 01 00 00 	movl   $0x1,0x8(%esp)
    2fcf:	00 
    2fd0:	c7 44 24 04 6c 6f 63 	movl   $0x20636f6c,0x4(%esp)
    2fd7:	20 
    2fd8:	c7 04 24 02 00 00 00 	movl   $0x2,(%esp)
    2fdf:	e8 9c fa 00 00       	call   12a80 <service_connect_blocking>
    2fe4:	a3 ac 4b 02 00       	mov    %eax,0x24bac
    2fe9:	e9 9f fe ff ff       	jmp    2e8d <loc_service_register_with_iface+0x1d>
    2fee:	66 90                	xchg   %ax,%ax
    2ff0:	8b 45 0c             	mov    0xc(%ebp),%eax
    2ff3:	85 c0                	test   %eax,%eax
    2ff5:	74 08                	je     2fff <loc_service_register_with_iface+0x18f>
    2ff7:	8b 55 0c             	mov    0xc(%ebp),%edx
    2ffa:	8b 45 c8             	mov    -0x38(%ebp),%eax
    2ffd:	89 02                	mov    %eax,(%edx)
    2fff:	83 c4 5c             	add    $0x5c,%esp
    3002:	31 c0                	xor    %eax,%eax
    3004:	5b                   	pop    %ebx
    3005:	5e                   	pop    %esi
    3006:	5f                   	pop    %edi
    3007:	5d                   	pop    %ebp
    3008:	c3                   	ret    
    3009:	8d b4 26 00 00 00 00 	lea    0x0(%esi,%eiz,1),%esi
    3010:	89 1c 24             	mov    %ebx,(%esp)
    3013:	e8 d8 14 01 00       	call   144f0 <async_forget>
    3018:	8b 45 c0             	mov    -0x40(%ebp),%eax
    301b:	83 c4 5c             	add    $0x5c,%esp
    301e:	5b                   	pop    %ebx
    301f:	5e                   	pop    %esi
    3020:	5f                   	pop    %edi
    3021:	5d                   	pop    %ebp
    3022:	c3                   	ret    
    3023:	90                   	nop
    3024:	8d 74 26 00          	lea    0x0(%esi,%eiz,1),%esi
    3028:	85 db                	test   %ebx,%ebx
    302a:	0f 84 c5 fe ff ff    	je     2ef5 <loc_service_register_with_iface+0x85>
    3030:	89 1d a8 4b 02 00    	mov    %ebx,0x24ba8
    3036:	e9 ba fe ff ff       	jmp    2ef5 <loc_service_register_with_iface+0x85>
    303b:	90                   	nop
    303c:	8d 74 26 00          	lea    0x0(%esi,%eiz,1),%esi

00003040 <loc_service_register>:
    3040:	55                   	push   %ebp
    3041:	89 e5                	mov    %esp,%ebp
    3043:	57                   	push   %edi
    3044:	56                   	push   %esi
    3045:	53                   	push   %ebx
    3046:	83 ec 5c             	sub    $0x5c,%esp
    3049:	8b 75 08             	mov    0x8(%ebp),%esi
    304c:	c7 04 24 74 49 02 00 	movl   $0x24974,(%esp)
    3053:	e8 c8 5d 00 00       	call   8e20 <fibril_mutex_lock>
    3058:	a1 ac 4b 02 00       	mov    0x24bac,%eax
    305d:	85 c0                	test   %eax,%eax
    305f:	75 38                	jne    3099 <loc_service_register+0x59>
    3061:	c7 04 24 84 49 02 00 	movl   $0x24984,(%esp)
    3068:	8b 1d a8 4b 02 00    	mov    0x24ba8,%ebx
    306e:	e8 ad 5d 00 00       	call   8e20 <fibril_mutex_lock>
    3073:	a1 ac 4b 02 00       	mov    0x24bac,%eax
    3078:	85 c0                	test   %eax,%eax
    307a:	0f 84 f8 00 00 00    	je     3178 <loc_service_register+0x138>
    3080:	c7 04 24 84 49 02 00 	movl   $0x24984,(%esp)
    3087:	e8 b4 5e 00 00       	call   8f40 <fibril_mutex_unlock>
    308c:	a1 ac 4b 02 00       	mov    0x24bac,%eax
    3091:	85 c0                	test   %eax,%eax
    3093:	0f 84 f7 00 00 00    	je     3190 <loc_service_register+0x150>
    3099:	c7 04 24 74 49 02 00 	movl   $0x24974,(%esp)
    30a0:	e8 9b 5e 00 00       	call   8f40 <fibril_mutex_unlock>
    30a5:	c7 04 24 84 49 02 00 	movl   $0x24984,(%esp)
    30ac:	8b 1d ac 4b 02 00    	mov    0x24bac,%ebx
    30b2:	e8 69 5d 00 00       	call   8e20 <fibril_mutex_lock>
    30b7:	8b 3d a8 4b 02 00    	mov    0x24ba8,%edi
    30bd:	85 ff                	test   %edi,%edi
    30bf:	0f 84 33 01 00 00    	je     31f8 <loc_service_register+0x1b8>
    30c5:	c7 04 24 84 49 02 00 	movl   $0x24984,(%esp)
    30cc:	e8 6f 5e 00 00       	call   8f40 <fibril_mutex_unlock>
    30d1:	a1 ac 4b 02 00       	mov    0x24bac,%eax
    30d6:	89 04 24             	mov    %eax,(%esp)
    30d9:	e8 52 26 01 00       	call   15730 <async_exchange_begin>
    30de:	c7 44 24 14 00 00 00 	movl   $0x0,0x14(%esp)
    30e5:	00 
    30e6:	89 c7                	mov    %eax,%edi
    30e8:	8d 45 c4             	lea    -0x3c(%ebp),%eax
    30eb:	89 44 24 18          	mov    %eax,0x18(%esp)
    30ef:	c7 44 24 10 00 00 00 	movl   $0x0,0x10(%esp)
    30f6:	00 
    30f7:	c7 44 24 0c 00 00 00 	movl   $0x0,0xc(%esp)
    30fe:	00 
    30ff:	c7 44 24 08 00 00 00 	movl   $0x0,0x8(%esp)
    3106:	00 
    3107:	c7 44 24 04 03 04 00 	movl   $0x403,0x4(%esp)
    310e:	00 
    310f:	89 3c 24             	mov    %edi,(%esp)
    3112:	e8 b9 0f 01 00       	call   140d0 <async_send_fast>
    3117:	89 34 24             	mov    %esi,(%esp)
    311a:	89 c3                	mov    %eax,%ebx
    311c:	e8 2f 2a 00 00       	call   5b50 <str_size>
    3121:	89 74 24 04          	mov    %esi,0x4(%esp)
    3125:	89 44 24 08          	mov    %eax,0x8(%esp)
    3129:	89 3c 24             	mov    %edi,(%esp)
    312c:	e8 ef 34 01 00       	call   16620 <async_data_write_start>
    3131:	89 3c 24             	mov    %edi,(%esp)
    3134:	89 45 c0             	mov    %eax,-0x40(%ebp)
    3137:	e8 64 29 01 00       	call   15aa0 <async_exchange_end>
    313c:	8b 4d c0             	mov    -0x40(%ebp),%ecx
    313f:	85 c9                	test   %ecx,%ecx
    3141:	0f 85 99 00 00 00    	jne    31e0 <loc_service_register+0x1a0>
    3147:	8d 45 c0             	lea    -0x40(%ebp),%eax
    314a:	89 1c 24             	mov    %ebx,(%esp)
    314d:	89 44 24 04          	mov    %eax,0x4(%esp)
    3151:	e8 4a 11 01 00       	call   142a0 <async_wait_for>
    3156:	8b 45 c0             	mov    -0x40(%ebp),%eax
    3159:	85 c0                	test   %eax,%eax
    315b:	74 63                	je     31c0 <loc_service_register+0x180>
    315d:	8b 55 0c             	mov    0xc(%ebp),%edx
    3160:	85 d2                	test   %edx,%edx
    3162:	74 09                	je     316d <loc_service_register+0x12d>
    3164:	8b 55 0c             	mov    0xc(%ebp),%edx
    3167:	c7 02 ff ff ff ff    	movl   $0xffffffff,(%edx)
    316d:	83 c4 5c             	add    $0x5c,%esp
    3170:	5b                   	pop    %ebx
    3171:	5e                   	pop    %esi
    3172:	5f                   	pop    %edi
    3173:	5d                   	pop    %ebp
    3174:	c3                   	ret    
    3175:	8d 76 00             	lea    0x0(%esi),%esi
    3178:	85 db                	test   %ebx,%ebx
    317a:	0f 84 00 ff ff ff    	je     3080 <loc_service_register+0x40>
    3180:	89 1d ac 4b 02 00    	mov    %ebx,0x24bac
    3186:	e9 f5 fe ff ff       	jmp    3080 <loc_service_register+0x40>
    318b:	90                   	nop
    318c:	8d 74 26 00          	lea    0x0(%esi,%eiz,1),%esi
    3190:	c7 44 24 0c 00 00 00 	movl   $0x0,0xc(%esp)
    3197:	00 
    3198:	c7 44 24 08 01 00 00 	movl   $0x1,0x8(%esp)
    319f:	00 
    31a0:	c7 44 24 04 6c 6f 63 	movl   $0x20636f6c,0x4(%esp)
    31a7:	20 
    31a8:	c7 04 24 02 00 00 00 	movl   $0x2,(%esp)
    31af:	e8 cc f8 00 00       	call   12a80 <service_connect_blocking>
    31b4:	a3 ac 4b 02 00       	mov    %eax,0x24bac
    31b9:	e9 9f fe ff ff       	jmp    305d <loc_service_register+0x1d>
    31be:	66 90                	xchg   %ax,%ax
    31c0:	8b 45 0c             	mov    0xc(%ebp),%eax
    31c3:	85 c0                	test   %eax,%eax
    31c5:	74 08                	je     31cf <loc_service_register+0x18f>
    31c7:	8b 55 0c             	mov    0xc(%ebp),%edx
    31ca:	8b 45 c8             	mov    -0x38(%ebp),%eax
    31cd:	89 02                	mov    %eax,(%edx)
    31cf:	83 c4 5c             	add    $0x5c,%esp
    31d2:	31 c0                	xor    %eax,%eax
    31d4:	5b                   	pop    %ebx
    31d5:	5e                   	pop    %esi
    31d6:	5f                   	pop    %edi
    31d7:	5d                   	pop    %ebp
    31d8:	c3                   	ret    
    31d9:	8d b4 26 00 00 00 00 	lea    0x0(%esi,%eiz,1),%esi
    31e0:	89 1c 24             	mov    %ebx,(%esp)
    31e3:	e8 08 13 01 00       	call   144f0 <async_forget>
    31e8:	8b 45 c0             	mov    -0x40(%ebp),%eax
    31eb:	83 c4 5c             	add    $0x5c,%esp
    31ee:	5b                   	pop    %ebx
    31ef:	5e                   	pop    %esi
    31f0:	5f                   	pop    %edi
    31f1:	5d                   	pop    %ebp
    31f2:	c3                   	ret    
    31f3:	90                   	nop
    31f4:	8d 74 26 00          	lea    0x0(%esi,%eiz,1),%esi
    31f8:	85 db                	test   %ebx,%ebx
    31fa:	0f 84 c5 fe ff ff    	je     30c5 <loc_service_register+0x85>
    3200:	89 1d a8 4b 02 00    	mov    %ebx,0x24ba8
    3206:	e9 ba fe ff ff       	jmp    30c5 <loc_service_register+0x85>
    320b:	90                   	nop
    320c:	8d 74 26 00          	lea    0x0(%esi,%eiz,1),%esi

00003210 <loc_service_unregister>:
    3210:	55                   	push   %ebp
    3211:	89 e5                	mov    %esp,%ebp
    3213:	53                   	push   %ebx
    3214:	83 ec 44             	sub    $0x44,%esp
    3217:	c7 04 24 74 49 02 00 	movl   $0x24974,(%esp)
    321e:	e8 fd 5b 00 00       	call   8e20 <fibril_mutex_lock>
    3223:	a1 ac 4b 02 00       	mov    0x24bac,%eax
    3228:	85 c0                	test   %eax,%eax
    322a:	75 38                	jne    3264 <loc_service_unregister+0x54>
    322c:	c7 04 24 84 49 02 00 	movl   $0x24984,(%esp)
    3233:	8b 1d a8 4b 02 00    	mov    0x24ba8,%ebx
    3239:	e8 e2 5b 00 00       	call   8e20 <fibril_mutex_lock>
    323e:	a1 ac 4b 02 00       	mov    0x24bac,%eax
    3243:	85 c0                	test   %eax,%eax
    3245:	0f 84 cd 00 00 00    	je     3318 <loc_service_unregister+0x108>
    324b:	c7 04 24 84 49 02 00 	movl   $0x24984,(%esp)
    3252:	e8 e9 5c 00 00       	call   8f40 <fibril_mutex_unlock>
    3257:	a1 ac 4b 02 00       	mov    0x24bac,%eax
    325c:	85 c0                	test   %eax,%eax
    325e:	0f 84 cc 00 00 00    	je     3330 <loc_service_unregister+0x120>
    3264:	c7 04 24 74 49 02 00 	movl   $0x24974,(%esp)
    326b:	e8 d0 5c 00 00       	call   8f40 <fibril_mutex_unlock>
    3270:	c7 04 24 84 49 02 00 	movl   $0x24984,(%esp)
    3277:	8b 1d ac 4b 02 00    	mov    0x24bac,%ebx
    327d:	e8 9e 5b 00 00       	call   8e20 <fibril_mutex_lock>
    3282:	a1 a8 4b 02 00       	mov    0x24ba8,%eax
    3287:	85 c0                	test   %eax,%eax
    3289:	0f 84 d1 00 00 00    	je     3360 <loc_service_unregister+0x150>
    328f:	c7 04 24 84 49 02 00 	movl   $0x24984,(%esp)
    3296:	e8 a5 5c 00 00       	call   8f40 <fibril_mutex_unlock>
    329b:	a1 ac 4b 02 00       	mov    0x24bac,%eax
    32a0:	89 04 24             	mov    %eax,(%esp)
    32a3:	e8 88 24 01 00       	call   15730 <async_exchange_begin>
    32a8:	c7 44 24 28 00 00 00 	movl   $0x0,0x28(%esp)
    32af:	00 
    32b0:	89 c3                	mov    %eax,%ebx
    32b2:	8b 45 08             	mov    0x8(%ebp),%eax
    32b5:	89 1c 24             	mov    %ebx,(%esp)
    32b8:	c7 44 24 24 00 00 00 	movl   $0x0,0x24(%esp)
    32bf:	00 
    32c0:	c7 44 24 20 00 00 00 	movl   $0x0,0x20(%esp)
    32c7:	00 
    32c8:	c7 44 24 1c 00 00 00 	movl   $0x0,0x1c(%esp)
    32cf:	00 
    32d0:	c7 44 24 18 00 00 00 	movl   $0x0,0x18(%esp)
    32d7:	00 
    32d8:	c7 44 24 14 00 00 00 	movl   $0x0,0x14(%esp)
    32df:	00 
    32e0:	c7 44 24 10 00 00 00 	movl   $0x0,0x10(%esp)
    32e7:	00 
    32e8:	c7 44 24 0c 00 00 00 	movl   $0x0,0xc(%esp)
    32ef:	00 
    32f0:	89 44 24 08          	mov    %eax,0x8(%esp)
    32f4:	c7 44 24 04 04 04 00 	movl   $0x404,0x4(%esp)
    32fb:	00 
    32fc:	e8 df 13 01 00       	call   146e0 <async_req_fast>
    3301:	89 1c 24             	mov    %ebx,(%esp)
    3304:	89 45 f4             	mov    %eax,-0xc(%ebp)
    3307:	e8 94 27 01 00       	call   15aa0 <async_exchange_end>
    330c:	8b 45 f4             	mov    -0xc(%ebp),%eax
    330f:	83 c4 44             	add    $0x44,%esp
    3312:	5b                   	pop    %ebx
    3313:	5d                   	pop    %ebp
    3314:	c3                   	ret    
    3315:	8d 76 00             	lea    0x0(%esi),%esi
    3318:	85 db                	test   %ebx,%ebx
    331a:	0f 84 2b ff ff ff    	je     324b <loc_service_unregister+0x3b>
    3320:	89 1d ac 4b 02 00    	mov    %ebx,0x24bac
    3326:	e9 20 ff ff ff       	jmp    324b <loc_service_unregister+0x3b>
    332b:	90                   	nop
    332c:	8d 74 26 00          	lea    0x0(%esi,%eiz,1),%esi
    3330:	c7 44 24 0c 00 00 00 	movl   $0x0,0xc(%esp)
    3337:	00 
    3338:	c7 44 24 08 01 00 00 	movl   $0x1,0x8(%esp)
    333f:	00 
    3340:	c7 44 24 04 6c 6f 63 	movl   $0x20636f6c,0x4(%esp)
    3347:	20 
    3348:	c7 04 24 02 00 00 00 	movl   $0x2,(%esp)
    334f:	e8 2c f7 00 00       	call   12a80 <service_connect_blocking>
    3354:	a3 ac 4b 02 00       	mov    %eax,0x24bac
    3359:	e9 ca fe ff ff       	jmp    3228 <loc_service_unregister+0x18>
    335e:	66 90                	xchg   %ax,%ax
    3360:	85 db                	test   %ebx,%ebx
    3362:	0f 84 27 ff ff ff    	je     328f <loc_service_unregister+0x7f>
    3368:	89 1d a8 4b 02 00    	mov    %ebx,0x24ba8
    336e:	e9 1c ff ff ff       	jmp    328f <loc_service_unregister+0x7f>
    3373:	8d b6 00 00 00 00    	lea    0x0(%esi),%esi
    3379:	8d bc 27 00 00 00 00 	lea    0x0(%edi,%eiz,1),%edi

00003380 <loc_service_get_id>:
    3380:	55                   	push   %ebp
    3381:	89 e5                	mov    %esp,%ebp
    3383:	57                   	push   %edi
    3384:	56                   	push   %esi
    3385:	53                   	push   %ebx
    3386:	83 ec 5c             	sub    $0x5c,%esp
    3389:	8b 75 10             	mov    0x10(%ebp),%esi
    338c:	8b 7d 08             	mov    0x8(%ebp),%edi
    338f:	f7 c6 01 00 00 00    	test   $0x1,%esi
    3395:	0f 84 45 01 00 00    	je     34e0 <loc_service_get_id+0x160>
    339b:	c7 04 24 94 49 02 00 	movl   $0x24994,(%esp)
    33a2:	e8 79 5a 00 00       	call   8e20 <fibril_mutex_lock>
    33a7:	a1 b4 4b 02 00       	mov    0x24bb4,%eax
    33ac:	85 c0                	test   %eax,%eax
    33ae:	75 38                	jne    33e8 <loc_service_get_id+0x68>
    33b0:	c7 04 24 a4 49 02 00 	movl   $0x249a4,(%esp)
    33b7:	8b 1d b0 4b 02 00    	mov    0x24bb0,%ebx
    33bd:	e8 5e 5a 00 00       	call   8e20 <fibril_mutex_lock>
    33c2:	a1 b4 4b 02 00       	mov    0x24bb4,%eax
    33c7:	85 c0                	test   %eax,%eax
    33c9:	0f 84 f9 00 00 00    	je     34c8 <loc_service_get_id+0x148>
    33cf:	c7 04 24 a4 49 02 00 	movl   $0x249a4,(%esp)
    33d6:	e8 65 5b 00 00       	call   8f40 <fibril_mutex_unlock>
    33db:	a1 b4 4b 02 00       	mov    0x24bb4,%eax
    33e0:	85 c0                	test   %eax,%eax
    33e2:	0f 84 68 01 00 00    	je     3550 <loc_service_get_id+0x1d0>
    33e8:	c7 04 24 94 49 02 00 	movl   $0x24994,(%esp)
    33ef:	e8 4c 5b 00 00       	call   8f40 <fibril_mutex_unlock>
    33f4:	c7 04 24 a4 49 02 00 	movl   $0x249a4,(%esp)
    33fb:	8b 1d b4 4b 02 00    	mov    0x24bb4,%ebx
    3401:	e8 1a 5a 00 00       	call   8e20 <fibril_mutex_lock>
    3406:	a1 b0 4b 02 00       	mov    0x24bb0,%eax
    340b:	85 c0                	test   %eax,%eax
    340d:	0f 84 85 01 00 00    	je     3598 <loc_service_get_id+0x218>
    3413:	c7 04 24 a4 49 02 00 	movl   $0x249a4,(%esp)
    341a:	e8 21 5b 00 00       	call   8f40 <fibril_mutex_unlock>
    341f:	a1 b4 4b 02 00       	mov    0x24bb4,%eax
    3424:	89 04 24             	mov    %eax,(%esp)
    3427:	e8 04 23 01 00       	call   15730 <async_exchange_begin>
    342c:	89 c3                	mov    %eax,%ebx
    342e:	8d 45 c4             	lea    -0x3c(%ebp),%eax
    3431:	89 74 24 08          	mov    %esi,0x8(%esp)
    3435:	89 44 24 18          	mov    %eax,0x18(%esp)
    3439:	c7 44 24 14 00 00 00 	movl   $0x0,0x14(%esp)
    3440:	00 
    3441:	c7 44 24 10 00 00 00 	movl   $0x0,0x10(%esp)
    3448:	00 
    3449:	c7 44 24 0c 00 00 00 	movl   $0x0,0xc(%esp)
    3450:	00 
    3451:	c7 44 24 04 05 04 00 	movl   $0x405,0x4(%esp)
    3458:	00 
    3459:	89 1c 24             	mov    %ebx,(%esp)
    345c:	e8 6f 0c 01 00       	call   140d0 <async_send_fast>
    3461:	89 3c 24             	mov    %edi,(%esp)
    3464:	89 c6                	mov    %eax,%esi
    3466:	e8 e5 26 00 00       	call   5b50 <str_size>
    346b:	89 7c 24 04          	mov    %edi,0x4(%esp)
    346f:	89 44 24 08          	mov    %eax,0x8(%esp)
    3473:	89 1c 24             	mov    %ebx,(%esp)
    3476:	e8 a5 31 01 00       	call   16620 <async_data_write_start>
    347b:	89 1c 24             	mov    %ebx,(%esp)
    347e:	89 45 c0             	mov    %eax,-0x40(%ebp)
    3481:	e8 1a 26 01 00       	call   15aa0 <async_exchange_end>
    3486:	8b 4d c0             	mov    -0x40(%ebp),%ecx
    3489:	85 c9                	test   %ecx,%ecx
    348b:	0f 85 ef 00 00 00    	jne    3580 <loc_service_get_id+0x200>
    3491:	8d 45 c0             	lea    -0x40(%ebp),%eax
    3494:	89 34 24             	mov    %esi,(%esp)
    3497:	89 44 24 04          	mov    %eax,0x4(%esp)
    349b:	e8 00 0e 01 00       	call   142a0 <async_wait_for>
    34a0:	8b 45 c0             	mov    -0x40(%ebp),%eax
    34a3:	85 c0                	test   %eax,%eax
    34a5:	0f 84 85 00 00 00    	je     3530 <loc_service_get_id+0x1b0>
    34ab:	8b 55 0c             	mov    0xc(%ebp),%edx
    34ae:	85 d2                	test   %edx,%edx
    34b0:	74 09                	je     34bb <loc_service_get_id+0x13b>
    34b2:	8b 55 0c             	mov    0xc(%ebp),%edx
    34b5:	c7 02 ff ff ff ff    	movl   $0xffffffff,(%edx)
    34bb:	83 c4 5c             	add    $0x5c,%esp
    34be:	5b                   	pop    %ebx
    34bf:	5e                   	pop    %esi
    34c0:	5f                   	pop    %edi
    34c1:	5d                   	pop    %ebp
    34c2:	c3                   	ret    
    34c3:	90                   	nop
    34c4:	8d 74 26 00          	lea    0x0(%esi,%eiz,1),%esi
    34c8:	85 db                	test   %ebx,%ebx
    34ca:	0f 84 ff fe ff ff    	je     33cf <loc_service_get_id+0x4f>
    34d0:	89 1d b4 4b 02 00    	mov    %ebx,0x24bb4
    34d6:	e9 f4 fe ff ff       	jmp    33cf <loc_service_get_id+0x4f>
    34db:	90                   	nop
    34dc:	8d 74 26 00          	lea    0x0(%esi,%eiz,1),%esi
    34e0:	c7 04 24 a4 49 02 00 	movl   $0x249a4,(%esp)
    34e7:	e8 34 59 00 00       	call   8e20 <fibril_mutex_lock>
    34ec:	8b 1d b0 4b 02 00    	mov    0x24bb0,%ebx
    34f2:	85 db                	test   %ebx,%ebx
    34f4:	0f 84 b1 00 00 00    	je     35ab <loc_service_get_id+0x22b>
    34fa:	c7 04 24 a4 49 02 00 	movl   $0x249a4,(%esp)
    3501:	e8 3a 5a 00 00       	call   8f40 <fibril_mutex_unlock>
    3506:	a1 b0 4b 02 00       	mov    0x24bb0,%eax
    350b:	85 c0                	test   %eax,%eax
    350d:	74 12                	je     3521 <loc_service_get_id+0x1a1>
    350f:	89 04 24             	mov    %eax,(%esp)
    3512:	e8 19 22 01 00       	call   15730 <async_exchange_begin>
    3517:	89 c3                	mov    %eax,%ebx
    3519:	85 c0                	test   %eax,%eax
    351b:	0f 85 0d ff ff ff    	jne    342e <loc_service_get_id+0xae>
    3521:	e8 1a c7 01 00       	call   1fc40 <__errno>
    3526:	8b 00                	mov    (%eax),%eax
    3528:	eb 91                	jmp    34bb <loc_service_get_id+0x13b>
    352a:	8d b6 00 00 00 00    	lea    0x0(%esi),%esi
    3530:	8b 45 0c             	mov    0xc(%ebp),%eax
    3533:	85 c0                	test   %eax,%eax
    3535:	74 08                	je     353f <loc_service_get_id+0x1bf>
    3537:	8b 55 0c             	mov    0xc(%ebp),%edx
    353a:	8b 45 c8             	mov    -0x38(%ebp),%eax
    353d:	89 02                	mov    %eax,(%edx)
    353f:	83 c4 5c             	add    $0x5c,%esp
    3542:	31 c0                	xor    %eax,%eax
    3544:	5b                   	pop    %ebx
    3545:	5e                   	pop    %esi
    3546:	5f                   	pop    %edi
    3547:	5d                   	pop    %ebp
    3548:	c3                   	ret    
    3549:	8d b4 26 00 00 00 00 	lea    0x0(%esi,%eiz,1),%esi
    3550:	c7 44 24 0c 00 00 00 	movl   $0x0,0xc(%esp)
    3557:	00 
    3558:	c7 44 24 08 02 00 00 	movl   $0x2,0x8(%esp)
    355f:	00 
    3560:	c7 44 24 04 6c 6f 63 	movl   $0x20636f6c,0x4(%esp)
    3567:	20 
    3568:	c7 04 24 02 00 00 00 	movl   $0x2,(%esp)
    356f:	e8 0c f5 00 00       	call   12a80 <service_connect_blocking>
    3574:	a3 b4 4b 02 00       	mov    %eax,0x24bb4
    3579:	e9 2e fe ff ff       	jmp    33ac <loc_service_get_id+0x2c>
    357e:	66 90                	xchg   %ax,%ax
    3580:	89 34 24             	mov    %esi,(%esp)
    3583:	e8 68 0f 01 00       	call   144f0 <async_forget>
    3588:	8b 45 c0             	mov    -0x40(%ebp),%eax
    358b:	83 c4 5c             	add    $0x5c,%esp
    358e:	5b                   	pop    %ebx
    358f:	5e                   	pop    %esi
    3590:	5f                   	pop    %edi
    3591:	5d                   	pop    %ebp
    3592:	c3                   	ret    
    3593:	90                   	nop
    3594:	8d 74 26 00          	lea    0x0(%esi,%eiz,1),%esi
    3598:	85 db                	test   %ebx,%ebx
    359a:	0f 84 73 fe ff ff    	je     3413 <loc_service_get_id+0x93>
    35a0:	89 1d b0 4b 02 00    	mov    %ebx,0x24bb0
    35a6:	e9 68 fe ff ff       	jmp    3413 <loc_service_get_id+0x93>
    35ab:	c7 44 24 0c 00 00 00 	movl   $0x0,0xc(%esp)
    35b2:	00 
    35b3:	c7 44 24 08 02 00 00 	movl   $0x2,0x8(%esp)
    35ba:	00 
    35bb:	c7 44 24 04 6c 6f 63 	movl   $0x20636f6c,0x4(%esp)
    35c2:	20 
    35c3:	c7 04 24 02 00 00 00 	movl   $0x2,(%esp)
    35ca:	e8 31 f4 00 00       	call   12a00 <service_connect>
    35cf:	a3 b0 4b 02 00       	mov    %eax,0x24bb0
    35d4:	e9 21 ff ff ff       	jmp    34fa <loc_service_get_id+0x17a>
    35d9:	8d b4 26 00 00 00 00 	lea    0x0(%esi,%eiz,1),%esi

000035e0 <loc_category_get_name>:
    35e0:	55                   	push   %ebp
    35e1:	b8 0b 04 00 00       	mov    $0x40b,%eax
    35e6:	89 e5                	mov    %esp,%ebp
    35e8:	8b 4d 0c             	mov    0xc(%ebp),%ecx
    35eb:	8b 55 08             	mov    0x8(%ebp),%edx
    35ee:	5d                   	pop    %ebp
    35ef:	e9 6c ed ff ff       	jmp    2360 <loc_get_name_internal>
    35f4:	8d b6 00 00 00 00    	lea    0x0(%esi),%esi
    35fa:	8d bf 00 00 00 00    	lea    0x0(%edi),%edi

00003600 <loc_service_get_name>:
    3600:	55                   	push   %ebp
    3601:	b8 06 04 00 00       	mov    $0x406,%eax
    3606:	89 e5                	mov    %esp,%ebp
    3608:	8b 4d 0c             	mov    0xc(%ebp),%ecx
    360b:	8b 55 08             	mov    0x8(%ebp),%edx
    360e:	5d                   	pop    %ebp
    360f:	e9 4c ed ff ff       	jmp    2360 <loc_get_name_internal>
    3614:	8d b6 00 00 00 00    	lea    0x0(%esi),%esi
    361a:	8d bf 00 00 00 00    	lea    0x0(%edi),%edi

00003620 <loc_service_get_server_name>:
    3620:	55                   	push   %ebp
    3621:	b8 07 04 00 00       	mov    $0x407,%eax
    3626:	89 e5                	mov    %esp,%ebp
    3628:	8b 4d 0c             	mov    0xc(%ebp),%ecx
    362b:	8b 55 08             	mov    0x8(%ebp),%edx
    362e:	5d                   	pop    %ebp
    362f:	e9 2c ed ff ff       	jmp    2360 <loc_get_name_internal>
    3634:	8d b6 00 00 00 00    	lea    0x0(%esi),%esi
    363a:	8d bf 00 00 00 00    	lea    0x0(%edi),%edi

00003640 <loc_namespace_get_id>:
    3640:	55                   	push   %ebp
    3641:	89 e5                	mov    %esp,%ebp
    3643:	57                   	push   %edi
    3644:	56                   	push   %esi
    3645:	53                   	push   %ebx
    3646:	83 ec 5c             	sub    $0x5c,%esp
    3649:	8b 75 10             	mov    0x10(%ebp),%esi
    364c:	8b 7d 08             	mov    0x8(%ebp),%edi
    364f:	f7 c6 01 00 00 00    	test   $0x1,%esi
    3655:	0f 84 45 01 00 00    	je     37a0 <loc_namespace_get_id+0x160>
    365b:	c7 04 24 94 49 02 00 	movl   $0x24994,(%esp)
    3662:	e8 b9 57 00 00       	call   8e20 <fibril_mutex_lock>
    3667:	a1 b4 4b 02 00       	mov    0x24bb4,%eax
    366c:	85 c0                	test   %eax,%eax
    366e:	75 38                	jne    36a8 <loc_namespace_get_id+0x68>
    3670:	c7 04 24 a4 49 02 00 	movl   $0x249a4,(%esp)
    3677:	8b 1d b0 4b 02 00    	mov    0x24bb0,%ebx
    367d:	e8 9e 57 00 00       	call   8e20 <fibril_mutex_lock>
    3682:	a1 b4 4b 02 00       	mov    0x24bb4,%eax
    3687:	85 c0                	test   %eax,%eax
    3689:	0f 84 f9 00 00 00    	je     3788 <loc_namespace_get_id+0x148>
    368f:	c7 04 24 a4 49 02 00 	movl   $0x249a4,(%esp)
    3696:	e8 a5 58 00 00       	call   8f40 <fibril_mutex_unlock>
    369b:	a1 b4 4b 02 00       	mov    0x24bb4,%eax
    36a0:	85 c0                	test   %eax,%eax
    36a2:	0f 84 68 01 00 00    	je     3810 <loc_namespace_get_id+0x1d0>
    36a8:	c7 04 24 94 49 02 00 	movl   $0x24994,(%esp)
    36af:	e8 8c 58 00 00       	call   8f40 <fibril_mutex_unlock>
    36b4:	c7 04 24 a4 49 02 00 	movl   $0x249a4,(%esp)
    36bb:	8b 1d b4 4b 02 00    	mov    0x24bb4,%ebx
    36c1:	e8 5a 57 00 00       	call   8e20 <fibril_mutex_lock>
    36c6:	a1 b0 4b 02 00       	mov    0x24bb0,%eax
    36cb:	85 c0                	test   %eax,%eax
    36cd:	0f 84 85 01 00 00    	je     3858 <loc_namespace_get_id+0x218>
    36d3:	c7 04 24 a4 49 02 00 	movl   $0x249a4,(%esp)
    36da:	e8 61 58 00 00       	call   8f40 <fibril_mutex_unlock>
    36df:	a1 b4 4b 02 00       	mov    0x24bb4,%eax
    36e4:	89 04 24             	mov    %eax,(%esp)
    36e7:	e8 44 20 01 00       	call   15730 <async_exchange_begin>
    36ec:	89 c3                	mov    %eax,%ebx
    36ee:	8d 45 c4             	lea    -0x3c(%ebp),%eax
    36f1:	89 74 24 08          	mov    %esi,0x8(%esp)
    36f5:	89 44 24 18          	mov    %eax,0x18(%esp)
    36f9:	c7 44 24 14 00 00 00 	movl   $0x0,0x14(%esp)
    3700:	00 
    3701:	c7 44 24 10 00 00 00 	movl   $0x0,0x10(%esp)
    3708:	00 
    3709:	c7 44 24 0c 00 00 00 	movl   $0x0,0xc(%esp)
    3710:	00 
    3711:	c7 44 24 04 08 04 00 	movl   $0x408,0x4(%esp)
    3718:	00 
    3719:	89 1c 24             	mov    %ebx,(%esp)
    371c:	e8 af 09 01 00       	call   140d0 <async_send_fast>
    3721:	89 3c 24             	mov    %edi,(%esp)
    3724:	89 c6                	mov    %eax,%esi
    3726:	e8 25 24 00 00       	call   5b50 <str_size>
    372b:	89 7c 24 04          	mov    %edi,0x4(%esp)
    372f:	89 44 24 08          	mov    %eax,0x8(%esp)
    3733:	89 1c 24             	mov    %ebx,(%esp)
    3736:	e8 e5 2e 01 00       	call   16620 <async_data_write_start>
    373b:	89 1c 24             	mov    %ebx,(%esp)
    373e:	89 45 c0             	mov    %eax,-0x40(%ebp)
    3741:	e8 5a 23 01 00       	call   15aa0 <async_exchange_end>
    3746:	8b 4d c0             	mov    -0x40(%ebp),%ecx
    3749:	85 c9                	test   %ecx,%ecx
    374b:	0f 85 ef 00 00 00    	jne    3840 <loc_namespace_get_id+0x200>
    3751:	8d 45 c0             	lea    -0x40(%ebp),%eax
    3754:	89 34 24             	mov    %esi,(%esp)
    3757:	89 44 24 04          	mov    %eax,0x4(%esp)
    375b:	e8 40 0b 01 00       	call   142a0 <async_wait_for>
    3760:	8b 45 c0             	mov    -0x40(%ebp),%eax
    3763:	85 c0                	test   %eax,%eax
    3765:	0f 84 85 00 00 00    	je     37f0 <loc_namespace_get_id+0x1b0>
    376b:	8b 55 0c             	mov    0xc(%ebp),%edx
    376e:	85 d2                	test   %edx,%edx
    3770:	74 09                	je     377b <loc_namespace_get_id+0x13b>
    3772:	8b 55 0c             	mov    0xc(%ebp),%edx
    3775:	c7 02 ff ff ff ff    	movl   $0xffffffff,(%edx)
    377b:	83 c4 5c             	add    $0x5c,%esp
    377e:	5b                   	pop    %ebx
    377f:	5e                   	pop    %esi
    3780:	5f                   	pop    %edi
    3781:	5d                   	pop    %ebp
    3782:	c3                   	ret    
    3783:	90                   	nop
    3784:	8d 74 26 00          	lea    0x0(%esi,%eiz,1),%esi
    3788:	85 db                	test   %ebx,%ebx
    378a:	0f 84 ff fe ff ff    	je     368f <loc_namespace_get_id+0x4f>
    3790:	89 1d b4 4b 02 00    	mov    %ebx,0x24bb4
    3796:	e9 f4 fe ff ff       	jmp    368f <loc_namespace_get_id+0x4f>
    379b:	90                   	nop
    379c:	8d 74 26 00          	lea    0x0(%esi,%eiz,1),%esi
    37a0:	c7 04 24 a4 49 02 00 	movl   $0x249a4,(%esp)
    37a7:	e8 74 56 00 00       	call   8e20 <fibril_mutex_lock>
    37ac:	8b 1d b0 4b 02 00    	mov    0x24bb0,%ebx
    37b2:	85 db                	test   %ebx,%ebx
    37b4:	0f 84 b1 00 00 00    	je     386b <loc_namespace_get_id+0x22b>
    37ba:	c7 04 24 a4 49 02 00 	movl   $0x249a4,(%esp)
    37c1:	e8 7a 57 00 00       	call   8f40 <fibril_mutex_unlock>
    37c6:	a1 b0 4b 02 00       	mov    0x24bb0,%eax
    37cb:	85 c0                	test   %eax,%eax
    37cd:	74 12                	je     37e1 <loc_namespace_get_id+0x1a1>
    37cf:	89 04 24             	mov    %eax,(%esp)
    37d2:	e8 59 1f 01 00       	call   15730 <async_exchange_begin>
    37d7:	89 c3                	mov    %eax,%ebx
    37d9:	85 c0                	test   %eax,%eax
    37db:	0f 85 0d ff ff ff    	jne    36ee <loc_namespace_get_id+0xae>
    37e1:	e8 5a c4 01 00       	call   1fc40 <__errno>
    37e6:	8b 00                	mov    (%eax),%eax
    37e8:	eb 91                	jmp    377b <loc_namespace_get_id+0x13b>
    37ea:	8d b6 00 00 00 00    	lea    0x0(%esi),%esi
    37f0:	8b 45 0c             	mov    0xc(%ebp),%eax
    37f3:	85 c0                	test   %eax,%eax
    37f5:	74 08                	je     37ff <loc_namespace_get_id+0x1bf>
    37f7:	8b 55 0c             	mov    0xc(%ebp),%edx
    37fa:	8b 45 c8             	mov    -0x38(%ebp),%eax
    37fd:	89 02                	mov    %eax,(%edx)
    37ff:	83 c4 5c             	add    $0x5c,%esp
    3802:	31 c0                	xor    %eax,%eax
    3804:	5b                   	pop    %ebx
    3805:	5e                   	pop    %esi
    3806:	5f                   	pop    %edi
    3807:	5d                   	pop    %ebp
    3808:	c3                   	ret    
    3809:	8d b4 26 00 00 00 00 	lea    0x0(%esi,%eiz,1),%esi
    3810:	c7 44 24 0c 00 00 00 	movl   $0x0,0xc(%esp)
    3817:	00 
    3818:	c7 44 24 08 02 00 00 	movl   $0x2,0x8(%esp)
    381f:	00 
    3820:	c7 44 24 04 6c 6f 63 	movl   $0x20636f6c,0x4(%esp)
    3827:	20 
    3828:	c7 04 24 02 00 00 00 	movl   $0x2,(%esp)
    382f:	e8 4c f2 00 00       	call   12a80 <service_connect_blocking>
    3834:	a3 b4 4b 02 00       	mov    %eax,0x24bb4
    3839:	e9 2e fe ff ff       	jmp    366c <loc_namespace_get_id+0x2c>
    383e:	66 90                	xchg   %ax,%ax
    3840:	89 34 24             	mov    %esi,(%esp)
    3843:	e8 a8 0c 01 00       	call   144f0 <async_forget>
    3848:	8b 45 c0             	mov    -0x40(%ebp),%eax
    384b:	83 c4 5c             	add    $0x5c,%esp
    384e:	5b                   	pop    %ebx
    384f:	5e                   	pop    %esi
    3850:	5f                   	pop    %edi
    3851:	5d                   	pop    %ebp
    3852:	c3                   	ret    
    3853:	90                   	nop
    3854:	8d 74 26 00          	lea    0x0(%esi,%eiz,1),%esi
    3858:	85 db                	test   %ebx,%ebx
    385a:	0f 84 73 fe ff ff    	je     36d3 <loc_namespace_get_id+0x93>
    3860:	89 1d b0 4b 02 00    	mov    %ebx,0x24bb0
    3866:	e9 68 fe ff ff       	jmp    36d3 <loc_namespace_get_id+0x93>
    386b:	c7 44 24 0c 00 00 00 	movl   $0x0,0xc(%esp)
    3872:	00 
    3873:	c7 44 24 08 02 00 00 	movl   $0x2,0x8(%esp)
    387a:	00 
    387b:	c7 44 24 04 6c 6f 63 	movl   $0x20636f6c,0x4(%esp)
    3882:	20 
    3883:	c7 04 24 02 00 00 00 	movl   $0x2,(%esp)
    388a:	e8 71 f1 00 00       	call   12a00 <service_connect>
    388f:	a3 b0 4b 02 00       	mov    %eax,0x24bb0
    3894:	e9 21 ff ff ff       	jmp    37ba <loc_namespace_get_id+0x17a>
    3899:	8d b4 26 00 00 00 00 	lea    0x0(%esi,%eiz,1),%esi

000038a0 <loc_category_get_id>:
    38a0:	55                   	push   %ebp
    38a1:	89 e5                	mov    %esp,%ebp
    38a3:	57                   	push   %edi
    38a4:	56                   	push   %esi
    38a5:	53                   	push   %ebx
    38a6:	83 ec 5c             	sub    $0x5c,%esp
    38a9:	8b 75 08             	mov    0x8(%ebp),%esi
    38ac:	f6 45 10 01          	testb  $0x1,0x10(%ebp)
    38b0:	0f 84 4a 01 00 00    	je     3a00 <loc_category_get_id+0x160>
    38b6:	c7 04 24 94 49 02 00 	movl   $0x24994,(%esp)
    38bd:	e8 5e 55 00 00       	call   8e20 <fibril_mutex_lock>
    38c2:	a1 b4 4b 02 00       	mov    0x24bb4,%eax
    38c7:	85 c0                	test   %eax,%eax
    38c9:	75 38                	jne    3903 <loc_category_get_id+0x63>
    38cb:	c7 04 24 a4 49 02 00 	movl   $0x249a4,(%esp)
    38d2:	8b 1d b0 4b 02 00    	mov    0x24bb0,%ebx
    38d8:	e8 43 55 00 00       	call   8e20 <fibril_mutex_lock>
    38dd:	a1 b4 4b 02 00       	mov    0x24bb4,%eax
    38e2:	85 c0                	test   %eax,%eax
    38e4:	0f 84 fe 00 00 00    	je     39e8 <loc_category_get_id+0x148>
    38ea:	c7 04 24 a4 49 02 00 	movl   $0x249a4,(%esp)
    38f1:	e8 4a 56 00 00       	call   8f40 <fibril_mutex_unlock>
    38f6:	a1 b4 4b 02 00       	mov    0x24bb4,%eax
    38fb:	85 c0                	test   %eax,%eax
    38fd:	0f 84 6d 01 00 00    	je     3a70 <loc_category_get_id+0x1d0>
    3903:	c7 04 24 94 49 02 00 	movl   $0x24994,(%esp)
    390a:	e8 31 56 00 00       	call   8f40 <fibril_mutex_unlock>
    390f:	c7 04 24 a4 49 02 00 	movl   $0x249a4,(%esp)
    3916:	8b 1d b4 4b 02 00    	mov    0x24bb4,%ebx
    391c:	e8 ff 54 00 00       	call   8e20 <fibril_mutex_lock>
    3921:	8b 3d b0 4b 02 00    	mov    0x24bb0,%edi
    3927:	85 ff                	test   %edi,%edi
    3929:	0f 84 89 01 00 00    	je     3ab8 <loc_category_get_id+0x218>
    392f:	c7 04 24 a4 49 02 00 	movl   $0x249a4,(%esp)
    3936:	e8 05 56 00 00       	call   8f40 <fibril_mutex_unlock>
    393b:	a1 b4 4b 02 00       	mov    0x24bb4,%eax
    3940:	89 04 24             	mov    %eax,(%esp)
    3943:	e8 e8 1d 01 00       	call   15730 <async_exchange_begin>
    3948:	89 c3                	mov    %eax,%ebx
    394a:	8d 45 c4             	lea    -0x3c(%ebp),%eax
    394d:	c7 44 24 14 00 00 00 	movl   $0x0,0x14(%esp)
    3954:	00 
    3955:	89 44 24 18          	mov    %eax,0x18(%esp)
    3959:	c7 44 24 10 00 00 00 	movl   $0x0,0x10(%esp)
    3960:	00 
    3961:	c7 44 24 0c 00 00 00 	movl   $0x0,0xc(%esp)
    3968:	00 
    3969:	c7 44 24 08 00 00 00 	movl   $0x0,0x8(%esp)
    3970:	00 
    3971:	c7 44 24 04 0a 04 00 	movl   $0x40a,0x4(%esp)
    3978:	00 
    3979:	89 1c 24             	mov    %ebx,(%esp)
    397c:	e8 4f 07 01 00       	call   140d0 <async_send_fast>
    3981:	89 34 24             	mov    %esi,(%esp)
    3984:	89 c7                	mov    %eax,%edi
    3986:	e8 c5 21 00 00       	call   5b50 <str_size>
    398b:	89 74 24 04          	mov    %esi,0x4(%esp)
    398f:	89 44 24 08          	mov    %eax,0x8(%esp)
    3993:	89 1c 24             	mov    %ebx,(%esp)
    3996:	e8 85 2c 01 00       	call   16620 <async_data_write_start>
    399b:	89 1c 24             	mov    %ebx,(%esp)
    399e:	89 45 c0             	mov    %eax,-0x40(%ebp)
    39a1:	e8 fa 20 01 00       	call   15aa0 <async_exchange_end>
    39a6:	8b 4d c0             	mov    -0x40(%ebp),%ecx
    39a9:	85 c9                	test   %ecx,%ecx
    39ab:	0f 85 ef 00 00 00    	jne    3aa0 <loc_category_get_id+0x200>
    39b1:	8d 45 c0             	lea    -0x40(%ebp),%eax
    39b4:	89 3c 24             	mov    %edi,(%esp)
    39b7:	89 44 24 04          	mov    %eax,0x4(%esp)
    39bb:	e8 e0 08 01 00       	call   142a0 <async_wait_for>
    39c0:	8b 45 c0             	mov    -0x40(%ebp),%eax
    39c3:	85 c0                	test   %eax,%eax
    39c5:	0f 84 85 00 00 00    	je     3a50 <loc_category_get_id+0x1b0>
    39cb:	8b 55 0c             	mov    0xc(%ebp),%edx
    39ce:	85 d2                	test   %edx,%edx
    39d0:	74 09                	je     39db <loc_category_get_id+0x13b>
    39d2:	8b 55 0c             	mov    0xc(%ebp),%edx
    39d5:	c7 02 ff ff ff ff    	movl   $0xffffffff,(%edx)
    39db:	83 c4 5c             	add    $0x5c,%esp
    39de:	5b                   	pop    %ebx
    39df:	5e                   	pop    %esi
    39e0:	5f                   	pop    %edi
    39e1:	5d                   	pop    %ebp
    39e2:	c3                   	ret    
    39e3:	90                   	nop
    39e4:	8d 74 26 00          	lea    0x0(%esi,%eiz,1),%esi
    39e8:	85 db                	test   %ebx,%ebx
    39ea:	0f 84 fa fe ff ff    	je     38ea <loc_category_get_id+0x4a>
    39f0:	89 1d b4 4b 02 00    	mov    %ebx,0x24bb4
    39f6:	e9 ef fe ff ff       	jmp    38ea <loc_category_get_id+0x4a>
    39fb:	90                   	nop
    39fc:	8d 74 26 00          	lea    0x0(%esi,%eiz,1),%esi
    3a00:	c7 04 24 a4 49 02 00 	movl   $0x249a4,(%esp)
    3a07:	e8 14 54 00 00       	call   8e20 <fibril_mutex_lock>
    3a0c:	8b 1d b0 4b 02 00    	mov    0x24bb0,%ebx
    3a12:	85 db                	test   %ebx,%ebx
    3a14:	0f 84 b1 00 00 00    	je     3acb <loc_category_get_id+0x22b>
    3a1a:	c7 04 24 a4 49 02 00 	movl   $0x249a4,(%esp)
    3a21:	e8 1a 55 00 00       	call   8f40 <fibril_mutex_unlock>
    3a26:	a1 b0 4b 02 00       	mov    0x24bb0,%eax
    3a2b:	85 c0                	test   %eax,%eax
    3a2d:	74 12                	je     3a41 <loc_category_get_id+0x1a1>
    3a2f:	89 04 24             	mov    %eax,(%esp)
    3a32:	e8 f9 1c 01 00       	call   15730 <async_exchange_begin>
    3a37:	89 c3                	mov    %eax,%ebx
    3a39:	85 c0                	test   %eax,%eax
    3a3b:	0f 85 09 ff ff ff    	jne    394a <loc_category_get_id+0xaa>
    3a41:	e8 fa c1 01 00       	call   1fc40 <__errno>
    3a46:	8b 00                	mov    (%eax),%eax
    3a48:	eb 91                	jmp    39db <loc_category_get_id+0x13b>
    3a4a:	8d b6 00 00 00 00    	lea    0x0(%esi),%esi
    3a50:	8b 45 0c             	mov    0xc(%ebp),%eax
    3a53:	85 c0                	test   %eax,%eax
    3a55:	74 08                	je     3a5f <loc_category_get_id+0x1bf>
    3a57:	8b 55 0c             	mov    0xc(%ebp),%edx
    3a5a:	8b 45 c8             	mov    -0x38(%ebp),%eax
    3a5d:	89 02                	mov    %eax,(%edx)
    3a5f:	83 c4 5c             	add    $0x5c,%esp
    3a62:	31 c0                	xor    %eax,%eax
    3a64:	5b                   	pop    %ebx
    3a65:	5e                   	pop    %esi
    3a66:	5f                   	pop    %edi
    3a67:	5d                   	pop    %ebp
    3a68:	c3                   	ret    
    3a69:	8d b4 26 00 00 00 00 	lea    0x0(%esi,%eiz,1),%esi
    3a70:	c7 44 24 0c 00 00 00 	movl   $0x0,0xc(%esp)
    3a77:	00 
    3a78:	c7 44 24 08 02 00 00 	movl   $0x2,0x8(%esp)
    3a7f:	00 
    3a80:	c7 44 24 04 6c 6f 63 	movl   $0x20636f6c,0x4(%esp)
    3a87:	20 
    3a88:	c7 04 24 02 00 00 00 	movl   $0x2,(%esp)
    3a8f:	e8 ec ef 00 00       	call   12a80 <service_connect_blocking>
    3a94:	a3 b4 4b 02 00       	mov    %eax,0x24bb4
    3a99:	e9 29 fe ff ff       	jmp    38c7 <loc_category_get_id+0x27>
    3a9e:	66 90                	xchg   %ax,%ax
    3aa0:	89 3c 24             	mov    %edi,(%esp)
    3aa3:	e8 48 0a 01 00       	call   144f0 <async_forget>
    3aa8:	8b 45 c0             	mov    -0x40(%ebp),%eax
    3aab:	83 c4 5c             	add    $0x5c,%esp
    3aae:	5b                   	pop    %ebx
    3aaf:	5e                   	pop    %esi
    3ab0:	5f                   	pop    %edi
    3ab1:	5d                   	pop    %ebp
    3ab2:	c3                   	ret    
    3ab3:	90                   	nop
    3ab4:	8d 74 26 00          	lea    0x0(%esi,%eiz,1),%esi
    3ab8:	85 db                	test   %ebx,%ebx
    3aba:	0f 84 6f fe ff ff    	je     392f <loc_category_get_id+0x8f>
    3ac0:	89 1d b0 4b 02 00    	mov    %ebx,0x24bb0
    3ac6:	e9 64 fe ff ff       	jmp    392f <loc_category_get_id+0x8f>
    3acb:	c7 44 24 0c 00 00 00 	movl   $0x0,0xc(%esp)
    3ad2:	00 
    3ad3:	c7 44 24 08 02 00 00 	movl   $0x2,0x8(%esp)
    3ada:	00 
    3adb:	c7 44 24 04 6c 6f 63 	movl   $0x20636f6c,0x4(%esp)
    3ae2:	20 
    3ae3:	c7 04 24 02 00 00 00 	movl   $0x2,(%esp)
    3aea:	e8 11 ef 00 00       	call   12a00 <service_connect>
    3aef:	a3 b0 4b 02 00       	mov    %eax,0x24bb0
    3af4:	e9 21 ff ff ff       	jmp    3a1a <loc_category_get_id+0x17a>
    3af9:	8d b4 26 00 00 00 00 	lea    0x0(%esi,%eiz,1),%esi

00003b00 <loc_id_probe>:
    3b00:	55                   	push   %ebp
    3b01:	89 e5                	mov    %esp,%ebp
    3b03:	56                   	push   %esi
    3b04:	53                   	push   %ebx
    3b05:	83 ec 40             	sub    $0x40,%esp
    3b08:	c7 04 24 94 49 02 00 	movl   $0x24994,(%esp)
    3b0f:	e8 0c 53 00 00       	call   8e20 <fibril_mutex_lock>
    3b14:	a1 b4 4b 02 00       	mov    0x24bb4,%eax
    3b19:	85 c0                	test   %eax,%eax
    3b1b:	75 38                	jne    3b55 <loc_id_probe+0x55>
    3b1d:	c7 04 24 a4 49 02 00 	movl   $0x249a4,(%esp)
    3b24:	8b 1d b0 4b 02 00    	mov    0x24bb0,%ebx
    3b2a:	e8 f1 52 00 00       	call   8e20 <fibril_mutex_lock>
    3b2f:	a1 b4 4b 02 00       	mov    0x24bb4,%eax
    3b34:	85 c0                	test   %eax,%eax
    3b36:	0f 84 d4 00 00 00    	je     3c10 <loc_id_probe+0x110>
    3b3c:	c7 04 24 a4 49 02 00 	movl   $0x249a4,(%esp)
    3b43:	e8 f8 53 00 00       	call   8f40 <fibril_mutex_unlock>
    3b48:	a1 b4 4b 02 00       	mov    0x24bb4,%eax
    3b4d:	85 c0                	test   %eax,%eax
    3b4f:	0f 84 d3 00 00 00    	je     3c28 <loc_id_probe+0x128>
    3b55:	c7 04 24 94 49 02 00 	movl   $0x24994,(%esp)
    3b5c:	e8 df 53 00 00       	call   8f40 <fibril_mutex_unlock>
    3b61:	c7 04 24 a4 49 02 00 	movl   $0x249a4,(%esp)
    3b68:	8b 1d b4 4b 02 00    	mov    0x24bb4,%ebx
    3b6e:	e8 ad 52 00 00       	call   8e20 <fibril_mutex_lock>
    3b73:	a1 b0 4b 02 00       	mov    0x24bb0,%eax
    3b78:	85 c0                	test   %eax,%eax
    3b7a:	0f 84 d8 00 00 00    	je     3c58 <loc_id_probe+0x158>
    3b80:	c7 04 24 a4 49 02 00 	movl   $0x249a4,(%esp)
    3b87:	e8 b4 53 00 00       	call   8f40 <fibril_mutex_unlock>
    3b8c:	a1 b4 4b 02 00       	mov    0x24bb4,%eax
    3b91:	89 04 24             	mov    %eax,(%esp)
    3b94:	e8 97 1b 01 00       	call   15730 <async_exchange_begin>
    3b99:	c7 44 24 28 00 00 00 	movl   $0x0,0x28(%esp)
    3ba0:	00 
    3ba1:	89 c3                	mov    %eax,%ebx
    3ba3:	8d 45 f4             	lea    -0xc(%ebp),%eax
    3ba6:	89 44 24 18          	mov    %eax,0x18(%esp)
    3baa:	8b 45 08             	mov    0x8(%ebp),%eax
    3bad:	c7 44 24 24 00 00 00 	movl   $0x0,0x24(%esp)
    3bb4:	00 
    3bb5:	c7 44 24 20 00 00 00 	movl   $0x0,0x20(%esp)
    3bbc:	00 
    3bbd:	c7 44 24 1c 00 00 00 	movl   $0x0,0x1c(%esp)
    3bc4:	00 
    3bc5:	c7 44 24 14 00 00 00 	movl   $0x0,0x14(%esp)
    3bcc:	00 
    3bcd:	c7 44 24 10 00 00 00 	movl   $0x0,0x10(%esp)
    3bd4:	00 
    3bd5:	c7 44 24 0c 00 00 00 	movl   $0x0,0xc(%esp)
    3bdc:	00 
    3bdd:	89 44 24 08          	mov    %eax,0x8(%esp)
    3be1:	c7 44 24 04 0d 04 00 	movl   $0x40d,0x4(%esp)
    3be8:	00 
    3be9:	89 1c 24             	mov    %ebx,(%esp)
    3bec:	e8 ef 0a 01 00       	call   146e0 <async_req_fast>
    3bf1:	89 1c 24             	mov    %ebx,(%esp)
    3bf4:	89 c6                	mov    %eax,%esi
    3bf6:	e8 a5 1e 01 00       	call   15aa0 <async_exchange_end>
    3bfb:	31 c0                	xor    %eax,%eax
    3bfd:	85 f6                	test   %esi,%esi
    3bff:	75 03                	jne    3c04 <loc_id_probe+0x104>
    3c01:	8b 45 f4             	mov    -0xc(%ebp),%eax
    3c04:	83 c4 40             	add    $0x40,%esp
    3c07:	5b                   	pop    %ebx
    3c08:	5e                   	pop    %esi
    3c09:	5d                   	pop    %ebp
    3c0a:	c3                   	ret    
    3c0b:	90                   	nop
    3c0c:	8d 74 26 00          	lea    0x0(%esi,%eiz,1),%esi
    3c10:	85 db                	test   %ebx,%ebx
    3c12:	0f 84 24 ff ff ff    	je     3b3c <loc_id_probe+0x3c>
    3c18:	89 1d b4 4b 02 00    	mov    %ebx,0x24bb4
    3c1e:	e9 19 ff ff ff       	jmp    3b3c <loc_id_probe+0x3c>
    3c23:	90                   	nop
    3c24:	8d 74 26 00          	lea    0x0(%esi,%eiz,1),%esi
    3c28:	c7 44 24 0c 00 00 00 	movl   $0x0,0xc(%esp)
    3c2f:	00 
    3c30:	c7 44 24 08 02 00 00 	movl   $0x2,0x8(%esp)
    3c37:	00 
    3c38:	c7 44 24 04 6c 6f 63 	movl   $0x20636f6c,0x4(%esp)
    3c3f:	20 
    3c40:	c7 04 24 02 00 00 00 	movl   $0x2,(%esp)
    3c47:	e8 34 ee 00 00       	call   12a80 <service_connect_blocking>
    3c4c:	a3 b4 4b 02 00       	mov    %eax,0x24bb4
    3c51:	e9 c3 fe ff ff       	jmp    3b19 <loc_id_probe+0x19>
    3c56:	66 90                	xchg   %ax,%ax
    3c58:	85 db                	test   %ebx,%ebx
    3c5a:	0f 84 20 ff ff ff    	je     3b80 <loc_id_probe+0x80>
    3c60:	89 1d b0 4b 02 00    	mov    %ebx,0x24bb0
    3c66:	e9 15 ff ff ff       	jmp    3b80 <loc_id_probe+0x80>
    3c6b:	90                   	nop
    3c6c:	8d 74 26 00          	lea    0x0(%esi,%eiz,1),%esi

00003c70 <loc_service_connect>:
    3c70:	55                   	push   %ebp
    3c71:	89 e5                	mov    %esp,%ebp
    3c73:	83 ec 18             	sub    $0x18,%esp
    3c76:	8b 45 08             	mov    0x8(%ebp),%eax
    3c79:	8b 55 0c             	mov    0xc(%ebp),%edx
    3c7c:	f6 45 10 01          	testb  $0x1,0x10(%ebp)
    3c80:	89 54 24 0c          	mov    %edx,0xc(%esp)
    3c84:	c7 44 24 08 03 00 00 	movl   $0x3,0x8(%esp)
    3c8b:	00 
    3c8c:	c7 44 24 04 6c 6f 63 	movl   $0x20636f6c,0x4(%esp)
    3c93:	20 
    3c94:	89 04 24             	mov    %eax,(%esp)
    3c97:	75 07                	jne    3ca0 <loc_service_connect+0x30>
    3c99:	e8 62 ed 00 00       	call   12a00 <service_connect>
    3c9e:	c9                   	leave  
    3c9f:	c3                   	ret    
    3ca0:	e8 db ed 00 00       	call   12a80 <service_connect_blocking>
    3ca5:	c9                   	leave  
    3ca6:	c3                   	ret    
    3ca7:	89 f6                	mov    %esi,%esi
    3ca9:	8d bc 27 00 00 00 00 	lea    0x0(%edi,%eiz,1),%edi

00003cb0 <loc_null_create>:
    3cb0:	55                   	push   %ebp
    3cb1:	89 e5                	mov    %esp,%ebp
    3cb3:	56                   	push   %esi
    3cb4:	53                   	push   %ebx
    3cb5:	83 ec 40             	sub    $0x40,%esp
    3cb8:	c7 04 24 94 49 02 00 	movl   $0x24994,(%esp)
    3cbf:	e8 5c 51 00 00       	call   8e20 <fibril_mutex_lock>
    3cc4:	a1 b4 4b 02 00       	mov    0x24bb4,%eax
    3cc9:	85 c0                	test   %eax,%eax
    3ccb:	75 3a                	jne    3d07 <loc_null_create+0x57>
    3ccd:	c7 04 24 a4 49 02 00 	movl   $0x249a4,(%esp)
    3cd4:	8b 1d b0 4b 02 00    	mov    0x24bb0,%ebx
    3cda:	e8 41 51 00 00       	call   8e20 <fibril_mutex_lock>
    3cdf:	8b 0d b4 4b 02 00    	mov    0x24bb4,%ecx
    3ce5:	85 c9                	test   %ecx,%ecx
    3ce7:	0f 84 d3 00 00 00    	je     3dc0 <loc_null_create+0x110>
    3ced:	c7 04 24 a4 49 02 00 	movl   $0x249a4,(%esp)
    3cf4:	e8 47 52 00 00       	call   8f40 <fibril_mutex_unlock>
    3cf9:	8b 15 b4 4b 02 00    	mov    0x24bb4,%edx
    3cff:	85 d2                	test   %edx,%edx
    3d01:	0f 84 d1 00 00 00    	je     3dd8 <loc_null_create+0x128>
    3d07:	c7 04 24 94 49 02 00 	movl   $0x24994,(%esp)
    3d0e:	e8 2d 52 00 00       	call   8f40 <fibril_mutex_unlock>
    3d13:	c7 04 24 a4 49 02 00 	movl   $0x249a4,(%esp)
    3d1a:	8b 1d b4 4b 02 00    	mov    0x24bb4,%ebx
    3d20:	e8 fb 50 00 00       	call   8e20 <fibril_mutex_lock>
    3d25:	a1 b0 4b 02 00       	mov    0x24bb0,%eax
    3d2a:	85 c0                	test   %eax,%eax
    3d2c:	0f 84 d6 00 00 00    	je     3e08 <loc_null_create+0x158>
    3d32:	c7 04 24 a4 49 02 00 	movl   $0x249a4,(%esp)
    3d39:	e8 02 52 00 00       	call   8f40 <fibril_mutex_unlock>
    3d3e:	a1 b4 4b 02 00       	mov    0x24bb4,%eax
    3d43:	89 04 24             	mov    %eax,(%esp)
    3d46:	e8 e5 19 01 00       	call   15730 <async_exchange_begin>
    3d4b:	c7 44 24 28 00 00 00 	movl   $0x0,0x28(%esp)
    3d52:	00 
    3d53:	89 c3                	mov    %eax,%ebx
    3d55:	8d 45 f4             	lea    -0xc(%ebp),%eax
    3d58:	c7 44 24 24 00 00 00 	movl   $0x0,0x24(%esp)
    3d5f:	00 
    3d60:	c7 44 24 20 00 00 00 	movl   $0x0,0x20(%esp)
    3d67:	00 
    3d68:	c7 44 24 1c 00 00 00 	movl   $0x0,0x1c(%esp)
    3d6f:	00 
    3d70:	89 44 24 18          	mov    %eax,0x18(%esp)
    3d74:	c7 44 24 14 00 00 00 	movl   $0x0,0x14(%esp)
    3d7b:	00 
    3d7c:	c7 44 24 10 00 00 00 	movl   $0x0,0x10(%esp)
    3d83:	00 
    3d84:	c7 44 24 0c 00 00 00 	movl   $0x0,0xc(%esp)
    3d8b:	00 
    3d8c:	c7 44 24 08 00 00 00 	movl   $0x0,0x8(%esp)
    3d93:	00 
    3d94:	c7 44 24 04 0e 04 00 	movl   $0x40e,0x4(%esp)
    3d9b:	00 
    3d9c:	89 1c 24             	mov    %ebx,(%esp)
    3d9f:	e8 3c 09 01 00       	call   146e0 <async_req_fast>
    3da4:	89 1c 24             	mov    %ebx,(%esp)
    3da7:	89 c6                	mov    %eax,%esi
    3da9:	e8 f2 1c 01 00       	call   15aa0 <async_exchange_end>
    3dae:	85 f6                	test   %esi,%esi
    3db0:	75 69                	jne    3e1b <loc_null_create+0x16b>
    3db2:	8b 45 f4             	mov    -0xc(%ebp),%eax
    3db5:	83 c4 40             	add    $0x40,%esp
    3db8:	5b                   	pop    %ebx
    3db9:	5e                   	pop    %esi
    3dba:	5d                   	pop    %ebp
    3dbb:	c3                   	ret    
    3dbc:	8d 74 26 00          	lea    0x0(%esi,%eiz,1),%esi
    3dc0:	85 db                	test   %ebx,%ebx
    3dc2:	0f 84 25 ff ff ff    	je     3ced <loc_null_create+0x3d>
    3dc8:	89 1d b4 4b 02 00    	mov    %ebx,0x24bb4
    3dce:	e9 1a ff ff ff       	jmp    3ced <loc_null_create+0x3d>
    3dd3:	90                   	nop
    3dd4:	8d 74 26 00          	lea    0x0(%esi,%eiz,1),%esi
    3dd8:	c7 44 24 0c 00 00 00 	movl   $0x0,0xc(%esp)
    3ddf:	00 
    3de0:	c7 44 24 08 02 00 00 	movl   $0x2,0x8(%esp)
    3de7:	00 
    3de8:	c7 44 24 04 6c 6f 63 	movl   $0x20636f6c,0x4(%esp)
    3def:	20 
    3df0:	c7 04 24 02 00 00 00 	movl   $0x2,(%esp)
    3df7:	e8 84 ec 00 00       	call   12a80 <service_connect_blocking>
    3dfc:	a3 b4 4b 02 00       	mov    %eax,0x24bb4
    3e01:	e9 c3 fe ff ff       	jmp    3cc9 <loc_null_create+0x19>
    3e06:	66 90                	xchg   %ax,%ax
    3e08:	85 db                	test   %ebx,%ebx
    3e0a:	0f 84 22 ff ff ff    	je     3d32 <loc_null_create+0x82>
    3e10:	89 1d b0 4b 02 00    	mov    %ebx,0x24bb0
    3e16:	e9 17 ff ff ff       	jmp    3d32 <loc_null_create+0x82>
    3e1b:	83 c8 ff             	or     $0xffffffff,%eax
    3e1e:	eb 95                	jmp    3db5 <loc_null_create+0x105>

00003e20 <loc_null_destroy>:
    3e20:	55                   	push   %ebp
    3e21:	89 e5                	mov    %esp,%ebp
    3e23:	56                   	push   %esi
    3e24:	53                   	push   %ebx
    3e25:	83 ec 30             	sub    $0x30,%esp
    3e28:	8b 75 08             	mov    0x8(%ebp),%esi
    3e2b:	c7 04 24 94 49 02 00 	movl   $0x24994,(%esp)
    3e32:	e8 e9 4f 00 00       	call   8e20 <fibril_mutex_lock>
    3e37:	a1 b4 4b 02 00       	mov    0x24bb4,%eax
    3e3c:	85 c0                	test   %eax,%eax
    3e3e:	75 38                	jne    3e78 <loc_null_destroy+0x58>
    3e40:	c7 04 24 a4 49 02 00 	movl   $0x249a4,(%esp)
    3e47:	8b 1d b0 4b 02 00    	mov    0x24bb0,%ebx
    3e4d:	e8 ce 4f 00 00       	call   8e20 <fibril_mutex_lock>
    3e52:	a1 b4 4b 02 00       	mov    0x24bb4,%eax
    3e57:	85 c0                	test   %eax,%eax
    3e59:	0f 84 c1 00 00 00    	je     3f20 <loc_null_destroy+0x100>
    3e5f:	c7 04 24 a4 49 02 00 	movl   $0x249a4,(%esp)
    3e66:	e8 d5 50 00 00       	call   8f40 <fibril_mutex_unlock>
    3e6b:	a1 b4 4b 02 00       	mov    0x24bb4,%eax
    3e70:	85 c0                	test   %eax,%eax
    3e72:	0f 84 c0 00 00 00    	je     3f38 <loc_null_destroy+0x118>
    3e78:	c7 04 24 94 49 02 00 	movl   $0x24994,(%esp)
    3e7f:	e8 bc 50 00 00       	call   8f40 <fibril_mutex_unlock>
    3e84:	c7 04 24 a4 49 02 00 	movl   $0x249a4,(%esp)
    3e8b:	8b 1d b4 4b 02 00    	mov    0x24bb4,%ebx
    3e91:	e8 8a 4f 00 00       	call   8e20 <fibril_mutex_lock>
    3e96:	a1 b0 4b 02 00       	mov    0x24bb0,%eax
    3e9b:	85 c0                	test   %eax,%eax
    3e9d:	0f 84 c5 00 00 00    	je     3f68 <loc_null_destroy+0x148>
    3ea3:	c7 04 24 a4 49 02 00 	movl   $0x249a4,(%esp)
    3eaa:	e8 91 50 00 00       	call   8f40 <fibril_mutex_unlock>
    3eaf:	a1 b4 4b 02 00       	mov    0x24bb4,%eax
    3eb4:	89 04 24             	mov    %eax,(%esp)
    3eb7:	e8 74 18 01 00       	call   15730 <async_exchange_begin>
    3ebc:	89 74 24 08          	mov    %esi,0x8(%esp)
    3ec0:	c7 44 24 28 00 00 00 	movl   $0x0,0x28(%esp)
    3ec7:	00 
    3ec8:	c7 44 24 24 00 00 00 	movl   $0x0,0x24(%esp)
    3ecf:	00 
    3ed0:	c7 44 24 20 00 00 00 	movl   $0x0,0x20(%esp)
    3ed7:	00 
    3ed8:	c7 44 24 1c 00 00 00 	movl   $0x0,0x1c(%esp)
    3edf:	00 
    3ee0:	c7 44 24 18 00 00 00 	movl   $0x0,0x18(%esp)
    3ee7:	00 
    3ee8:	c7 44 24 14 00 00 00 	movl   $0x0,0x14(%esp)
    3eef:	00 
    3ef0:	c7 44 24 10 00 00 00 	movl   $0x0,0x10(%esp)
    3ef7:	00 
    3ef8:	c7 44 24 0c 00 00 00 	movl   $0x0,0xc(%esp)
    3eff:	00 
    3f00:	c7 44 24 04 0f 04 00 	movl   $0x40f,0x4(%esp)
    3f07:	00 
    3f08:	89 04 24             	mov    %eax,(%esp)
    3f0b:	89 c3                	mov    %eax,%ebx
    3f0d:	e8 ce 07 01 00       	call   146e0 <async_req_fast>
    3f12:	89 5d 08             	mov    %ebx,0x8(%ebp)
    3f15:	83 c4 30             	add    $0x30,%esp
    3f18:	5b                   	pop    %ebx
    3f19:	5e                   	pop    %esi
    3f1a:	5d                   	pop    %ebp
    3f1b:	e9 80 1b 01 00       	jmp    15aa0 <async_exchange_end>
    3f20:	85 db                	test   %ebx,%ebx
    3f22:	0f 84 37 ff ff ff    	je     3e5f <loc_null_destroy+0x3f>
    3f28:	89 1d b4 4b 02 00    	mov    %ebx,0x24bb4
    3f2e:	e9 2c ff ff ff       	jmp    3e5f <loc_null_destroy+0x3f>
    3f33:	90                   	nop
    3f34:	8d 74 26 00          	lea    0x0(%esi,%eiz,1),%esi
    3f38:	c7 44 24 0c 00 00 00 	movl   $0x0,0xc(%esp)
    3f3f:	00 
    3f40:	c7 44 24 08 02 00 00 	movl   $0x2,0x8(%esp)
    3f47:	00 
    3f48:	c7 44 24 04 6c 6f 63 	movl   $0x20636f6c,0x4(%esp)
    3f4f:	20 
    3f50:	c7 04 24 02 00 00 00 	movl   $0x2,(%esp)
    3f57:	e8 24 eb 00 00       	call   12a80 <service_connect_blocking>
    3f5c:	a3 b4 4b 02 00       	mov    %eax,0x24bb4
    3f61:	e9 d6 fe ff ff       	jmp    3e3c <loc_null_destroy+0x1c>
    3f66:	66 90                	xchg   %ax,%ax
    3f68:	85 db                	test   %ebx,%ebx
    3f6a:	0f 84 33 ff ff ff    	je     3ea3 <loc_null_destroy+0x83>
    3f70:	89 1d b0 4b 02 00    	mov    %ebx,0x24bb0
    3f76:	e9 28 ff ff ff       	jmp    3ea3 <loc_null_destroy+0x83>
    3f7b:	90                   	nop
    3f7c:	8d 74 26 00          	lea    0x0(%esi,%eiz,1),%esi

00003f80 <loc_service_add_to_cat>:
    3f80:	55                   	push   %ebp
    3f81:	89 e5                	mov    %esp,%ebp
    3f83:	53                   	push   %ebx
    3f84:	83 ec 44             	sub    $0x44,%esp
    3f87:	c7 04 24 74 49 02 00 	movl   $0x24974,(%esp)
    3f8e:	e8 8d 4e 00 00       	call   8e20 <fibril_mutex_lock>
    3f93:	a1 ac 4b 02 00       	mov    0x24bac,%eax
    3f98:	85 c0                	test   %eax,%eax
    3f9a:	75 38                	jne    3fd4 <loc_service_add_to_cat+0x54>
    3f9c:	c7 04 24 84 49 02 00 	movl   $0x24984,(%esp)
    3fa3:	8b 1d a8 4b 02 00    	mov    0x24ba8,%ebx
    3fa9:	e8 72 4e 00 00       	call   8e20 <fibril_mutex_lock>
    3fae:	a1 ac 4b 02 00       	mov    0x24bac,%eax
    3fb3:	85 c0                	test   %eax,%eax
    3fb5:	0f 84 cd 00 00 00    	je     4088 <loc_service_add_to_cat+0x108>
    3fbb:	c7 04 24 84 49 02 00 	movl   $0x24984,(%esp)
    3fc2:	e8 79 4f 00 00       	call   8f40 <fibril_mutex_unlock>
    3fc7:	a1 ac 4b 02 00       	mov    0x24bac,%eax
    3fcc:	85 c0                	test   %eax,%eax
    3fce:	0f 84 cc 00 00 00    	je     40a0 <loc_service_add_to_cat+0x120>
    3fd4:	c7 04 24 74 49 02 00 	movl   $0x24974,(%esp)
    3fdb:	e8 60 4f 00 00       	call   8f40 <fibril_mutex_unlock>
    3fe0:	c7 04 24 84 49 02 00 	movl   $0x24984,(%esp)
    3fe7:	8b 1d ac 4b 02 00    	mov    0x24bac,%ebx
    3fed:	e8 2e 4e 00 00       	call   8e20 <fibril_mutex_lock>
    3ff2:	a1 a8 4b 02 00       	mov    0x24ba8,%eax
    3ff7:	85 c0                	test   %eax,%eax
    3ff9:	0f 84 d1 00 00 00    	je     40d0 <loc_service_add_to_cat+0x150>
    3fff:	c7 04 24 84 49 02 00 	movl   $0x24984,(%esp)
    4006:	e8 35 4f 00 00       	call   8f40 <fibril_mutex_unlock>
    400b:	a1 ac 4b 02 00       	mov    0x24bac,%eax
    4010:	89 04 24             	mov    %eax,(%esp)
    4013:	e8 18 17 01 00       	call   15730 <async_exchange_begin>
    4018:	c7 44 24 28 00 00 00 	movl   $0x0,0x28(%esp)
    401f:	00 
    4020:	89 c3                	mov    %eax,%ebx
    4022:	8b 45 0c             	mov    0xc(%ebp),%eax
    4025:	89 44 24 0c          	mov    %eax,0xc(%esp)
    4029:	8b 45 08             	mov    0x8(%ebp),%eax
    402c:	89 1c 24             	mov    %ebx,(%esp)
    402f:	c7 44 24 24 00 00 00 	movl   $0x0,0x24(%esp)
    4036:	00 
    4037:	c7 44 24 20 00 00 00 	movl   $0x0,0x20(%esp)
    403e:	00 
    403f:	c7 44 24 1c 00 00 00 	movl   $0x0,0x1c(%esp)
    4046:	00 
    4047:	c7 44 24 18 00 00 00 	movl   $0x0,0x18(%esp)
    404e:	00 
    404f:	c7 44 24 14 00 00 00 	movl   $0x0,0x14(%esp)
    4056:	00 
    4057:	c7 44 24 10 00 00 00 	movl   $0x0,0x10(%esp)
    405e:	00 
    405f:	89 44 24 08          	mov    %eax,0x8(%esp)
    4063:	c7 44 24 04 02 04 00 	movl   $0x402,0x4(%esp)
    406a:	00 
    406b:	e8 70 06 01 00       	call   146e0 <async_req_fast>
    4070:	89 1c 24             	mov    %ebx,(%esp)
    4073:	89 45 f4             	mov    %eax,-0xc(%ebp)
    4076:	e8 25 1a 01 00       	call   15aa0 <async_exchange_end>
    407b:	8b 45 f4             	mov    -0xc(%ebp),%eax
    407e:	83 c4 44             	add    $0x44,%esp
    4081:	5b                   	pop    %ebx
    4082:	5d                   	pop    %ebp
    4083:	c3                   	ret    
    4084:	8d 74 26 00          	lea    0x0(%esi,%eiz,1),%esi
    4088:	85 db                	test   %ebx,%ebx
    408a:	0f 84 2b ff ff ff    	je     3fbb <loc_service_add_to_cat+0x3b>
    4090:	89 1d ac 4b 02 00    	mov    %ebx,0x24bac
    4096:	e9 20 ff ff ff       	jmp    3fbb <loc_service_add_to_cat+0x3b>
    409b:	90                   	nop
    409c:	8d 74 26 00          	lea    0x0(%esi,%eiz,1),%esi
    40a0:	c7 44 24 0c 00 00 00 	movl   $0x0,0xc(%esp)
    40a7:	00 
    40a8:	c7 44 24 08 01 00 00 	movl   $0x1,0x8(%esp)
    40af:	00 
    40b0:	c7 44 24 04 6c 6f 63 	movl   $0x20636f6c,0x4(%esp)
    40b7:	20 
    40b8:	c7 04 24 02 00 00 00 	movl   $0x2,(%esp)
    40bf:	e8 bc e9 00 00       	call   12a80 <service_connect_blocking>
    40c4:	a3 ac 4b 02 00       	mov    %eax,0x24bac
    40c9:	e9 ca fe ff ff       	jmp    3f98 <loc_service_add_to_cat+0x18>
    40ce:	66 90                	xchg   %ax,%ax
    40d0:	85 db                	test   %ebx,%ebx
    40d2:	0f 84 27 ff ff ff    	je     3fff <loc_service_add_to_cat+0x7f>
    40d8:	89 1d a8 4b 02 00    	mov    %ebx,0x24ba8
    40de:	e9 1c ff ff ff       	jmp    3fff <loc_service_add_to_cat+0x7f>
    40e3:	8d b6 00 00 00 00    	lea    0x0(%esi),%esi
    40e9:	8d bc 27 00 00 00 00 	lea    0x0(%edi,%eiz,1),%edi

000040f0 <loc_count_namespaces>:
    40f0:	55                   	push   %ebp
    40f1:	89 e5                	mov    %esp,%ebp
    40f3:	56                   	push   %esi
    40f4:	53                   	push   %ebx
    40f5:	83 ec 40             	sub    $0x40,%esp
    40f8:	c7 04 24 94 49 02 00 	movl   $0x24994,(%esp)
    40ff:	e8 1c 4d 00 00       	call   8e20 <fibril_mutex_lock>
    4104:	a1 b4 4b 02 00       	mov    0x24bb4,%eax
    4109:	85 c0                	test   %eax,%eax
    410b:	75 3a                	jne    4147 <loc_count_namespaces+0x57>
    410d:	c7 04 24 a4 49 02 00 	movl   $0x249a4,(%esp)
    4114:	8b 1d b0 4b 02 00    	mov    0x24bb0,%ebx
    411a:	e8 01 4d 00 00       	call   8e20 <fibril_mutex_lock>
    411f:	8b 35 b4 4b 02 00    	mov    0x24bb4,%esi
    4125:	85 f6                	test   %esi,%esi
    4127:	0f 84 d3 00 00 00    	je     4200 <loc_count_namespaces+0x110>
    412d:	c7 04 24 a4 49 02 00 	movl   $0x249a4,(%esp)
    4134:	e8 07 4e 00 00       	call   8f40 <fibril_mutex_unlock>
    4139:	8b 0d b4 4b 02 00    	mov    0x24bb4,%ecx
    413f:	85 c9                	test   %ecx,%ecx
    4141:	0f 84 d1 00 00 00    	je     4218 <loc_count_namespaces+0x128>
    4147:	c7 04 24 94 49 02 00 	movl   $0x24994,(%esp)
    414e:	e8 ed 4d 00 00       	call   8f40 <fibril_mutex_unlock>
    4153:	c7 04 24 a4 49 02 00 	movl   $0x249a4,(%esp)
    415a:	8b 1d b4 4b 02 00    	mov    0x24bb4,%ebx
    4160:	e8 bb 4c 00 00       	call   8e20 <fibril_mutex_lock>
    4165:	8b 15 b0 4b 02 00    	mov    0x24bb0,%edx
    416b:	85 d2                	test   %edx,%edx
    416d:	0f 84 d5 00 00 00    	je     4248 <loc_count_namespaces+0x158>
    4173:	c7 04 24 a4 49 02 00 	movl   $0x249a4,(%esp)
    417a:	31 f6                	xor    %esi,%esi
    417c:	e8 bf 4d 00 00       	call   8f40 <fibril_mutex_unlock>
    4181:	a1 b4 4b 02 00       	mov    0x24bb4,%eax
    4186:	89 04 24             	mov    %eax,(%esp)
    4189:	e8 a2 15 01 00       	call   15730 <async_exchange_begin>
    418e:	c7 44 24 28 00 00 00 	movl   $0x0,0x28(%esp)
    4195:	00 
    4196:	89 c3                	mov    %eax,%ebx
    4198:	8d 45 f4             	lea    -0xc(%ebp),%eax
    419b:	c7 44 24 24 00 00 00 	movl   $0x0,0x24(%esp)
    41a2:	00 
    41a3:	c7 44 24 20 00 00 00 	movl   $0x0,0x20(%esp)
    41aa:	00 
    41ab:	c7 44 24 1c 00 00 00 	movl   $0x0,0x1c(%esp)
    41b2:	00 
    41b3:	89 44 24 18          	mov    %eax,0x18(%esp)
    41b7:	c7 44 24 14 00 00 00 	movl   $0x0,0x14(%esp)
    41be:	00 
    41bf:	c7 44 24 10 00 00 00 	movl   $0x0,0x10(%esp)
    41c6:	00 
    41c7:	c7 44 24 0c 00 00 00 	movl   $0x0,0xc(%esp)
    41ce:	00 
    41cf:	c7 44 24 08 00 00 00 	movl   $0x0,0x8(%esp)
    41d6:	00 
    41d7:	c7 44 24 04 10 04 00 	movl   $0x410,0x4(%esp)
    41de:	00 
    41df:	89 1c 24             	mov    %ebx,(%esp)
    41e2:	e8 f9 04 01 00       	call   146e0 <async_req_fast>
    41e7:	85 c0                	test   %eax,%eax
    41e9:	75 03                	jne    41ee <loc_count_namespaces+0xfe>
    41eb:	8b 75 f4             	mov    -0xc(%ebp),%esi
    41ee:	89 1c 24             	mov    %ebx,(%esp)
    41f1:	e8 aa 18 01 00       	call   15aa0 <async_exchange_end>
    41f6:	83 c4 40             	add    $0x40,%esp
    41f9:	89 f0                	mov    %esi,%eax
    41fb:	5b                   	pop    %ebx
    41fc:	5e                   	pop    %esi
    41fd:	5d                   	pop    %ebp
    41fe:	c3                   	ret    
    41ff:	90                   	nop
    4200:	85 db                	test   %ebx,%ebx
    4202:	0f 84 25 ff ff ff    	je     412d <loc_count_namespaces+0x3d>
    4208:	89 1d b4 4b 02 00    	mov    %ebx,0x24bb4
    420e:	e9 1a ff ff ff       	jmp    412d <loc_count_namespaces+0x3d>
    4213:	90                   	nop
    4214:	8d 74 26 00          	lea    0x0(%esi,%eiz,1),%esi
    4218:	c7 44 24 0c 00 00 00 	movl   $0x0,0xc(%esp)
    421f:	00 
    4220:	c7 44 24 08 02 00 00 	movl   $0x2,0x8(%esp)
    4227:	00 
    4228:	c7 44 24 04 6c 6f 63 	movl   $0x20636f6c,0x4(%esp)
    422f:	20 
    4230:	c7 04 24 02 00 00 00 	movl   $0x2,(%esp)
    4237:	e8 44 e8 00 00       	call   12a80 <service_connect_blocking>
    423c:	a3 b4 4b 02 00       	mov    %eax,0x24bb4
    4241:	e9 c3 fe ff ff       	jmp    4109 <loc_count_namespaces+0x19>
    4246:	66 90                	xchg   %ax,%ax
    4248:	85 db                	test   %ebx,%ebx
    424a:	0f 84 23 ff ff ff    	je     4173 <loc_count_namespaces+0x83>
    4250:	89 1d b0 4b 02 00    	mov    %ebx,0x24bb0
    4256:	e9 18 ff ff ff       	jmp    4173 <loc_count_namespaces+0x83>
    425b:	90                   	nop
    425c:	8d 74 26 00          	lea    0x0(%esi,%eiz,1),%esi

00004260 <loc_count_services>:
    4260:	55                   	push   %ebp
    4261:	89 e5                	mov    %esp,%ebp
    4263:	56                   	push   %esi
    4264:	53                   	push   %ebx
    4265:	83 ec 40             	sub    $0x40,%esp
    4268:	c7 04 24 94 49 02 00 	movl   $0x24994,(%esp)
    426f:	e8 ac 4b 00 00       	call   8e20 <fibril_mutex_lock>
    4274:	a1 b4 4b 02 00       	mov    0x24bb4,%eax
    4279:	85 c0                	test   %eax,%eax
    427b:	75 38                	jne    42b5 <loc_count_services+0x55>
    427d:	c7 04 24 a4 49 02 00 	movl   $0x249a4,(%esp)
    4284:	8b 1d b0 4b 02 00    	mov    0x24bb0,%ebx
    428a:	e8 91 4b 00 00       	call   8e20 <fibril_mutex_lock>
    428f:	a1 b4 4b 02 00       	mov    0x24bb4,%eax
    4294:	85 c0                	test   %eax,%eax
    4296:	0f 84 d4 00 00 00    	je     4370 <loc_count_services+0x110>
    429c:	c7 04 24 a4 49 02 00 	movl   $0x249a4,(%esp)
    42a3:	e8 98 4c 00 00       	call   8f40 <fibril_mutex_unlock>
    42a8:	a1 b4 4b 02 00       	mov    0x24bb4,%eax
    42ad:	85 c0                	test   %eax,%eax
    42af:	0f 84 d3 00 00 00    	je     4388 <loc_count_services+0x128>
    42b5:	c7 04 24 94 49 02 00 	movl   $0x24994,(%esp)
    42bc:	e8 7f 4c 00 00       	call   8f40 <fibril_mutex_unlock>
    42c1:	c7 04 24 a4 49 02 00 	movl   $0x249a4,(%esp)
    42c8:	8b 1d b4 4b 02 00    	mov    0x24bb4,%ebx
    42ce:	e8 4d 4b 00 00       	call   8e20 <fibril_mutex_lock>
    42d3:	a1 b0 4b 02 00       	mov    0x24bb0,%eax
    42d8:	85 c0                	test   %eax,%eax
    42da:	0f 84 d8 00 00 00    	je     43b8 <loc_count_services+0x158>
    42e0:	c7 04 24 a4 49 02 00 	movl   $0x249a4,(%esp)
    42e7:	31 f6                	xor    %esi,%esi
    42e9:	e8 52 4c 00 00       	call   8f40 <fibril_mutex_unlock>
    42ee:	a1 b4 4b 02 00       	mov    0x24bb4,%eax
    42f3:	89 04 24             	mov    %eax,(%esp)
    42f6:	e8 35 14 01 00       	call   15730 <async_exchange_begin>
    42fb:	c7 44 24 28 00 00 00 	movl   $0x0,0x28(%esp)
    4302:	00 
    4303:	89 c3                	mov    %eax,%ebx
    4305:	8d 45 f4             	lea    -0xc(%ebp),%eax
    4308:	89 44 24 18          	mov    %eax,0x18(%esp)
    430c:	8b 45 08             	mov    0x8(%ebp),%eax
    430f:	c7 44 24 24 00 00 00 	movl   $0x0,0x24(%esp)
    4316:	00 
    4317:	c7 44 24 20 00 00 00 	movl   $0x0,0x20(%esp)
    431e:	00 
    431f:	c7 44 24 1c 00 00 00 	movl   $0x0,0x1c(%esp)
    4326:	00 
    4327:	c7 44 24 14 00 00 00 	movl   $0x0,0x14(%esp)
    432e:	00 
    432f:	c7 44 24 10 00 00 00 	movl   $0x0,0x10(%esp)
    4336:	00 
    4337:	c7 44 24 0c 00 00 00 	movl   $0x0,0xc(%esp)
    433e:	00 
    433f:	89 44 24 08          	mov    %eax,0x8(%esp)
    4343:	c7 44 24 04 11 04 00 	movl   $0x411,0x4(%esp)
    434a:	00 
    434b:	89 1c 24             	mov    %ebx,(%esp)
    434e:	e8 8d 03 01 00       	call   146e0 <async_req_fast>
    4353:	85 c0                	test   %eax,%eax
    4355:	75 03                	jne    435a <loc_count_services+0xfa>
    4357:	8b 75 f4             	mov    -0xc(%ebp),%esi
    435a:	89 1c 24             	mov    %ebx,(%esp)
    435d:	e8 3e 17 01 00       	call   15aa0 <async_exchange_end>
    4362:	83 c4 40             	add    $0x40,%esp
    4365:	89 f0                	mov    %esi,%eax
    4367:	5b                   	pop    %ebx
    4368:	5e                   	pop    %esi
    4369:	5d                   	pop    %ebp
    436a:	c3                   	ret    
    436b:	90                   	nop
    436c:	8d 74 26 00          	lea    0x0(%esi,%eiz,1),%esi
    4370:	85 db                	test   %ebx,%ebx
    4372:	0f 84 24 ff ff ff    	je     429c <loc_count_services+0x3c>
    4378:	89 1d b4 4b 02 00    	mov    %ebx,0x24bb4
    437e:	e9 19 ff ff ff       	jmp    429c <loc_count_services+0x3c>
    4383:	90                   	nop
    4384:	8d 74 26 00          	lea    0x0(%esi,%eiz,1),%esi
    4388:	c7 44 24 0c 00 00 00 	movl   $0x0,0xc(%esp)
    438f:	00 
    4390:	c7 44 24 08 02 00 00 	movl   $0x2,0x8(%esp)
    4397:	00 
    4398:	c7 44 24 04 6c 6f 63 	movl   $0x20636f6c,0x4(%esp)
    439f:	20 
    43a0:	c7 04 24 02 00 00 00 	movl   $0x2,(%esp)
    43a7:	e8 d4 e6 00 00       	call   12a80 <service_connect_blocking>
    43ac:	a3 b4 4b 02 00       	mov    %eax,0x24bb4
    43b1:	e9 c3 fe ff ff       	jmp    4279 <loc_count_services+0x19>
    43b6:	66 90                	xchg   %ax,%ax
    43b8:	85 db                	test   %ebx,%ebx
    43ba:	0f 84 20 ff ff ff    	je     42e0 <loc_count_services+0x80>
    43c0:	89 1d b0 4b 02 00    	mov    %ebx,0x24bb0
    43c6:	e9 15 ff ff ff       	jmp    42e0 <loc_count_services+0x80>
    43cb:	90                   	nop
    43cc:	8d 74 26 00          	lea    0x0(%esi,%eiz,1),%esi

000043d0 <loc_get_namespaces>:
    43d0:	55                   	push   %ebp
    43d1:	89 e5                	mov    %esp,%ebp
    43d3:	57                   	push   %edi
    43d4:	56                   	push   %esi
    43d5:	53                   	push   %ebx
    43d6:	83 ec 7c             	sub    $0x7c,%esp
    43d9:	c7 04 24 94 49 02 00 	movl   $0x24994,(%esp)
    43e0:	e8 3b 4a 00 00       	call   8e20 <fibril_mutex_lock>
    43e5:	a1 b4 4b 02 00       	mov    0x24bb4,%eax
    43ea:	85 c0                	test   %eax,%eax
    43ec:	75 3a                	jne    4428 <loc_get_namespaces+0x58>
    43ee:	c7 04 24 a4 49 02 00 	movl   $0x249a4,(%esp)
    43f5:	8b 1d b0 4b 02 00    	mov    0x24bb0,%ebx
    43fb:	e8 20 4a 00 00       	call   8e20 <fibril_mutex_lock>
    4400:	8b 0d b4 4b 02 00    	mov    0x24bb4,%ecx
    4406:	85 c9                	test   %ecx,%ecx
    4408:	0f 84 da 01 00 00    	je     45e8 <loc_get_namespaces+0x218>
    440e:	c7 04 24 a4 49 02 00 	movl   $0x249a4,(%esp)
    4415:	e8 26 4b 00 00       	call   8f40 <fibril_mutex_unlock>
    441a:	8b 15 b4 4b 02 00    	mov    0x24bb4,%edx
    4420:	85 d2                	test   %edx,%edx
    4422:	0f 84 d8 01 00 00    	je     4600 <loc_get_namespaces+0x230>
    4428:	c7 04 24 94 49 02 00 	movl   $0x24994,(%esp)
    442f:	e8 0c 4b 00 00       	call   8f40 <fibril_mutex_unlock>
    4434:	c7 04 24 a4 49 02 00 	movl   $0x249a4,(%esp)
    443b:	8b 1d b4 4b 02 00    	mov    0x24bb4,%ebx
    4441:	e8 da 49 00 00       	call   8e20 <fibril_mutex_lock>
    4446:	a1 b0 4b 02 00       	mov    0x24bb0,%eax
    444b:	85 c0                	test   %eax,%eax
    444d:	0f 84 fd 01 00 00    	je     4650 <loc_get_namespaces+0x280>
    4453:	c7 04 24 a4 49 02 00 	movl   $0x249a4,(%esp)
    445a:	e8 e1 4a 00 00       	call   8f40 <fibril_mutex_unlock>
    445f:	a1 b4 4b 02 00       	mov    0x24bb4,%eax
    4464:	89 04 24             	mov    %eax,(%esp)
    4467:	e8 c4 12 01 00       	call   15730 <async_exchange_begin>
    446c:	c7 44 24 28 00 00 00 	movl   $0x0,0x28(%esp)
    4473:	00 
    4474:	89 c6                	mov    %eax,%esi
    4476:	8d 45 c0             	lea    -0x40(%ebp),%eax
    4479:	c7 44 24 24 00 00 00 	movl   $0x0,0x24(%esp)
    4480:	00 
    4481:	c7 44 24 20 00 00 00 	movl   $0x0,0x20(%esp)
    4488:	00 
    4489:	c7 44 24 1c 00 00 00 	movl   $0x0,0x1c(%esp)
    4490:	00 
    4491:	89 44 24 18          	mov    %eax,0x18(%esp)
    4495:	c7 44 24 14 00 00 00 	movl   $0x0,0x14(%esp)
    449c:	00 
    449d:	c7 44 24 10 00 00 00 	movl   $0x0,0x10(%esp)
    44a4:	00 
    44a5:	c7 44 24 0c 00 00 00 	movl   $0x0,0xc(%esp)
    44ac:	00 
    44ad:	c7 44 24 08 00 00 00 	movl   $0x0,0x8(%esp)
    44b4:	00 
    44b5:	c7 44 24 04 10 04 00 	movl   $0x410,0x4(%esp)
    44bc:	00 
    44bd:	89 34 24             	mov    %esi,(%esp)
    44c0:	e8 1b 02 01 00       	call   146e0 <async_req_fast>
    44c5:	85 c0                	test   %eax,%eax
    44c7:	0f 85 03 01 00 00    	jne    45d0 <loc_get_namespaces+0x200>
    44cd:	8b 5d c0             	mov    -0x40(%ebp),%ebx
    44d0:	89 34 24             	mov    %esi,(%esp)
    44d3:	e8 c8 15 01 00       	call   15aa0 <async_exchange_end>
    44d8:	85 db                	test   %ebx,%ebx
    44da:	0f 84 f8 00 00 00    	je     45d8 <loc_get_namespaces+0x208>
    44e0:	c7 44 24 04 04 01 00 	movl   $0x104,0x4(%esp)
    44e7:	00 
    44e8:	89 1c 24             	mov    %ebx,(%esp)
    44eb:	e8 a0 dc 00 00       	call   12190 <calloc>
    44f0:	89 c7                	mov    %eax,%edi
    44f2:	85 c0                	test   %eax,%eax
    44f4:	0f 84 de 00 00 00    	je     45d8 <loc_get_namespaces+0x208>
    44fa:	c7 04 24 a4 49 02 00 	movl   $0x249a4,(%esp)
    4501:	e8 1a 49 00 00       	call   8e20 <fibril_mutex_lock>
    4506:	a1 b0 4b 02 00       	mov    0x24bb0,%eax
    450b:	85 c0                	test   %eax,%eax
    450d:	0f 84 5d 01 00 00    	je     4670 <loc_get_namespaces+0x2a0>
    4513:	c7 04 24 a4 49 02 00 	movl   $0x249a4,(%esp)
    451a:	e8 21 4a 00 00       	call   8f40 <fibril_mutex_unlock>
    451f:	a1 b0 4b 02 00       	mov    0x24bb0,%eax
    4524:	85 c0                	test   %eax,%eax
    4526:	0f 84 72 01 00 00    	je     469e <loc_get_namespaces+0x2ce>
    452c:	89 04 24             	mov    %eax,(%esp)
    452f:	e8 fc 11 01 00       	call   15730 <async_exchange_begin>
    4534:	89 c6                	mov    %eax,%esi
    4536:	8d 45 c4             	lea    -0x3c(%ebp),%eax
    4539:	c7 44 24 14 00 00 00 	movl   $0x0,0x14(%esp)
    4540:	00 
    4541:	89 44 24 18          	mov    %eax,0x18(%esp)
    4545:	c7 44 24 10 00 00 00 	movl   $0x0,0x10(%esp)
    454c:	00 
    454d:	c7 44 24 0c 00 00 00 	movl   $0x0,0xc(%esp)
    4554:	00 
    4555:	c7 44 24 08 00 00 00 	movl   $0x0,0x8(%esp)
    455c:	00 
    455d:	c7 44 24 04 13 04 00 	movl   $0x413,0x4(%esp)
    4564:	00 
    4565:	89 34 24             	mov    %esi,(%esp)
    4568:	e8 63 fb 00 00       	call   140d0 <async_send_fast>
    456d:	89 7c 24 04          	mov    %edi,0x4(%esp)
    4571:	89 45 b4             	mov    %eax,-0x4c(%ebp)
    4574:	89 d8                	mov    %ebx,%eax
    4576:	c1 e0 08             	shl    $0x8,%eax
    4579:	89 34 24             	mov    %esi,(%esp)
    457c:	8d 04 98             	lea    (%eax,%ebx,4),%eax
    457f:	89 44 24 08          	mov    %eax,0x8(%esp)
    4583:	e8 78 1b 01 00       	call   16100 <async_data_read_start>
    4588:	89 34 24             	mov    %esi,(%esp)
    458b:	89 45 b0             	mov    %eax,-0x50(%ebp)
    458e:	e8 0d 15 01 00       	call   15aa0 <async_exchange_end>
    4593:	8b 45 b0             	mov    -0x50(%ebp),%eax
    4596:	83 f8 f0             	cmp    $0xfffffff0,%eax
    4599:	0f 84 c4 00 00 00    	je     4663 <loc_get_namespaces+0x293>
    459f:	85 c0                	test   %eax,%eax
    45a1:	0f 85 89 00 00 00    	jne    4630 <loc_get_namespaces+0x260>
    45a7:	8d 45 c0             	lea    -0x40(%ebp),%eax
    45aa:	89 44 24 04          	mov    %eax,0x4(%esp)
    45ae:	8b 45 b4             	mov    -0x4c(%ebp),%eax
    45b1:	89 04 24             	mov    %eax,(%esp)
    45b4:	e8 e7 fc 00 00       	call   142a0 <async_wait_for>
    45b9:	8b 45 c0             	mov    -0x40(%ebp),%eax
    45bc:	85 c0                	test   %eax,%eax
    45be:	75 18                	jne    45d8 <loc_get_namespaces+0x208>
    45c0:	8b 45 08             	mov    0x8(%ebp),%eax
    45c3:	89 38                	mov    %edi,(%eax)
    45c5:	83 c4 7c             	add    $0x7c,%esp
    45c8:	89 d8                	mov    %ebx,%eax
    45ca:	5b                   	pop    %ebx
    45cb:	5e                   	pop    %esi
    45cc:	5f                   	pop    %edi
    45cd:	5d                   	pop    %ebp
    45ce:	c3                   	ret    
    45cf:	90                   	nop
    45d0:	89 34 24             	mov    %esi,(%esp)
    45d3:	e8 c8 14 01 00       	call   15aa0 <async_exchange_end>
    45d8:	83 c4 7c             	add    $0x7c,%esp
    45db:	31 db                	xor    %ebx,%ebx
    45dd:	89 d8                	mov    %ebx,%eax
    45df:	5b                   	pop    %ebx
    45e0:	5e                   	pop    %esi
    45e1:	5f                   	pop    %edi
    45e2:	5d                   	pop    %ebp
    45e3:	c3                   	ret    
    45e4:	8d 74 26 00          	lea    0x0(%esi,%eiz,1),%esi
    45e8:	85 db                	test   %ebx,%ebx
    45ea:	0f 84 1e fe ff ff    	je     440e <loc_get_namespaces+0x3e>
    45f0:	89 1d b4 4b 02 00    	mov    %ebx,0x24bb4
    45f6:	e9 13 fe ff ff       	jmp    440e <loc_get_namespaces+0x3e>
    45fb:	90                   	nop
    45fc:	8d 74 26 00          	lea    0x0(%esi,%eiz,1),%esi
    4600:	c7 44 24 0c 00 00 00 	movl   $0x0,0xc(%esp)
    4607:	00 
    4608:	c7 44 24 08 02 00 00 	movl   $0x2,0x8(%esp)
    460f:	00 
    4610:	c7 44 24 04 6c 6f 63 	movl   $0x20636f6c,0x4(%esp)
    4617:	20 
    4618:	c7 04 24 02 00 00 00 	movl   $0x2,(%esp)
    461f:	e8 5c e4 00 00       	call   12a80 <service_connect_blocking>
    4624:	a3 b4 4b 02 00       	mov    %eax,0x24bb4
    4629:	e9 bc fd ff ff       	jmp    43ea <loc_get_namespaces+0x1a>
    462e:	66 90                	xchg   %ax,%ax
    4630:	8b 45 b4             	mov    -0x4c(%ebp),%eax
    4633:	31 db                	xor    %ebx,%ebx
    4635:	89 04 24             	mov    %eax,(%esp)
    4638:	e8 b3 fe 00 00       	call   144f0 <async_forget>
    463d:	89 3c 24             	mov    %edi,(%esp)
    4640:	e8 bb dc 00 00       	call   12300 <free>
    4645:	83 c4 7c             	add    $0x7c,%esp
    4648:	89 d8                	mov    %ebx,%eax
    464a:	5b                   	pop    %ebx
    464b:	5e                   	pop    %esi
    464c:	5f                   	pop    %edi
    464d:	5d                   	pop    %ebp
    464e:	c3                   	ret    
    464f:	90                   	nop
    4650:	85 db                	test   %ebx,%ebx
    4652:	0f 84 fb fd ff ff    	je     4453 <loc_get_namespaces+0x83>
    4658:	89 1d b0 4b 02 00    	mov    %ebx,0x24bb0
    465e:	e9 f0 fd ff ff       	jmp    4453 <loc_get_namespaces+0x83>
    4663:	89 3c 24             	mov    %edi,(%esp)
    4666:	e8 95 dc 00 00       	call   12300 <free>
    466b:	e9 69 fd ff ff       	jmp    43d9 <loc_get_namespaces+0x9>
    4670:	c7 44 24 0c 00 00 00 	movl   $0x0,0xc(%esp)
    4677:	00 
    4678:	c7 44 24 08 02 00 00 	movl   $0x2,0x8(%esp)
    467f:	00 
    4680:	c7 44 24 04 6c 6f 63 	movl   $0x20636f6c,0x4(%esp)
    4687:	20 
    4688:	c7 04 24 02 00 00 00 	movl   $0x2,(%esp)
    468f:	e8 6c e3 00 00       	call   12a00 <service_connect>
    4694:	a3 b0 4b 02 00       	mov    %eax,0x24bb0
    4699:	e9 75 fe ff ff       	jmp    4513 <loc_get_namespaces+0x143>
    469e:	31 f6                	xor    %esi,%esi
    46a0:	e9 91 fe ff ff       	jmp    4536 <loc_get_namespaces+0x166>
    46a5:	8d 74 26 00          	lea    0x0(%esi,%eiz,1),%esi
    46a9:	8d bc 27 00 00 00 00 	lea    0x0(%edi,%eiz,1),%edi

000046b0 <loc_get_services>:
    46b0:	55                   	push   %ebp
    46b1:	89 e5                	mov    %esp,%ebp
    46b3:	57                   	push   %edi
    46b4:	56                   	push   %esi
    46b5:	53                   	push   %ebx
    46b6:	83 ec 7c             	sub    $0x7c,%esp
    46b9:	c7 04 24 94 49 02 00 	movl   $0x24994,(%esp)
    46c0:	e8 5b 47 00 00       	call   8e20 <fibril_mutex_lock>
    46c5:	a1 b4 4b 02 00       	mov    0x24bb4,%eax
    46ca:	85 c0                	test   %eax,%eax
    46cc:	75 38                	jne    4706 <loc_get_services+0x56>
    46ce:	c7 04 24 a4 49 02 00 	movl   $0x249a4,(%esp)
    46d5:	8b 1d b0 4b 02 00    	mov    0x24bb0,%ebx
    46db:	e8 40 47 00 00       	call   8e20 <fibril_mutex_lock>
    46e0:	a1 b4 4b 02 00       	mov    0x24bb4,%eax
    46e5:	85 c0                	test   %eax,%eax
    46e7:	0f 84 db 01 00 00    	je     48c8 <loc_get_services+0x218>
    46ed:	c7 04 24 a4 49 02 00 	movl   $0x249a4,(%esp)
    46f4:	e8 47 48 00 00       	call   8f40 <fibril_mutex_unlock>
    46f9:	a1 b4 4b 02 00       	mov    0x24bb4,%eax
    46fe:	85 c0                	test   %eax,%eax
    4700:	0f 84 da 01 00 00    	je     48e0 <loc_get_services+0x230>
    4706:	c7 04 24 94 49 02 00 	movl   $0x24994,(%esp)
    470d:	e8 2e 48 00 00       	call   8f40 <fibril_mutex_unlock>
    4712:	c7 04 24 a4 49 02 00 	movl   $0x249a4,(%esp)
    4719:	8b 1d b4 4b 02 00    	mov    0x24bb4,%ebx
    471f:	e8 fc 46 00 00       	call   8e20 <fibril_mutex_lock>
    4724:	a1 b0 4b 02 00       	mov    0x24bb0,%eax
    4729:	85 c0                	test   %eax,%eax
    472b:	0f 84 ff 01 00 00    	je     4930 <loc_get_services+0x280>
    4731:	c7 04 24 a4 49 02 00 	movl   $0x249a4,(%esp)
    4738:	e8 03 48 00 00       	call   8f40 <fibril_mutex_unlock>
    473d:	a1 b4 4b 02 00       	mov    0x24bb4,%eax
    4742:	89 04 24             	mov    %eax,(%esp)
    4745:	e8 e6 0f 01 00       	call   15730 <async_exchange_begin>
    474a:	c7 44 24 28 00 00 00 	movl   $0x0,0x28(%esp)
    4751:	00 
    4752:	89 c6                	mov    %eax,%esi
    4754:	8d 45 c0             	lea    -0x40(%ebp),%eax
    4757:	89 44 24 18          	mov    %eax,0x18(%esp)
    475b:	8b 45 08             	mov    0x8(%ebp),%eax
    475e:	c7 44 24 24 00 00 00 	movl   $0x0,0x24(%esp)
    4765:	00 
    4766:	c7 44 24 20 00 00 00 	movl   $0x0,0x20(%esp)
    476d:	00 
    476e:	c7 44 24 1c 00 00 00 	movl   $0x0,0x1c(%esp)
    4775:	00 
    4776:	c7 44 24 14 00 00 00 	movl   $0x0,0x14(%esp)
    477d:	00 
    477e:	c7 44 24 10 00 00 00 	movl   $0x0,0x10(%esp)
    4785:	00 
    4786:	c7 44 24 0c 00 00 00 	movl   $0x0,0xc(%esp)
    478d:	00 
    478e:	89 44 24 08          	mov    %eax,0x8(%esp)
    4792:	c7 44 24 04 11 04 00 	movl   $0x411,0x4(%esp)
    4799:	00 
    479a:	89 34 24             	mov    %esi,(%esp)
    479d:	e8 3e ff 00 00       	call   146e0 <async_req_fast>
    47a2:	85 c0                	test   %eax,%eax
    47a4:	0f 85 06 01 00 00    	jne    48b0 <loc_get_services+0x200>
    47aa:	8b 5d c0             	mov    -0x40(%ebp),%ebx
    47ad:	89 34 24             	mov    %esi,(%esp)
    47b0:	e8 eb 12 01 00       	call   15aa0 <async_exchange_end>
    47b5:	85 db                	test   %ebx,%ebx
    47b7:	0f 84 fb 00 00 00    	je     48b8 <loc_get_services+0x208>
    47bd:	c7 44 24 04 04 01 00 	movl   $0x104,0x4(%esp)
    47c4:	00 
    47c5:	89 1c 24             	mov    %ebx,(%esp)
    47c8:	e8 c3 d9 00 00       	call   12190 <calloc>
    47cd:	89 c7                	mov    %eax,%edi
    47cf:	85 c0                	test   %eax,%eax
    47d1:	0f 84 e1 00 00 00    	je     48b8 <loc_get_services+0x208>
    47d7:	c7 04 24 a4 49 02 00 	movl   $0x249a4,(%esp)
    47de:	e8 3d 46 00 00       	call   8e20 <fibril_mutex_lock>
    47e3:	a1 b0 4b 02 00       	mov    0x24bb0,%eax
    47e8:	85 c0                	test   %eax,%eax
    47ea:	0f 84 60 01 00 00    	je     4950 <loc_get_services+0x2a0>
    47f0:	c7 04 24 a4 49 02 00 	movl   $0x249a4,(%esp)
    47f7:	e8 44 47 00 00       	call   8f40 <fibril_mutex_unlock>
    47fc:	a1 b0 4b 02 00       	mov    0x24bb0,%eax
    4801:	85 c0                	test   %eax,%eax
    4803:	0f 84 75 01 00 00    	je     497e <loc_get_services+0x2ce>
    4809:	89 04 24             	mov    %eax,(%esp)
    480c:	e8 1f 0f 01 00       	call   15730 <async_exchange_begin>
    4811:	89 c6                	mov    %eax,%esi
    4813:	8d 45 c4             	lea    -0x3c(%ebp),%eax
    4816:	c7 44 24 14 00 00 00 	movl   $0x0,0x14(%esp)
    481d:	00 
    481e:	89 44 24 18          	mov    %eax,0x18(%esp)
    4822:	8b 45 08             	mov    0x8(%ebp),%eax
    4825:	c7 44 24 10 00 00 00 	movl   $0x0,0x10(%esp)
    482c:	00 
    482d:	c7 44 24 0c 00 00 00 	movl   $0x0,0xc(%esp)
    4834:	00 
    4835:	89 44 24 08          	mov    %eax,0x8(%esp)
    4839:	c7 44 24 04 14 04 00 	movl   $0x414,0x4(%esp)
    4840:	00 
    4841:	89 34 24             	mov    %esi,(%esp)
    4844:	e8 87 f8 00 00       	call   140d0 <async_send_fast>
    4849:	89 7c 24 04          	mov    %edi,0x4(%esp)
    484d:	89 45 b4             	mov    %eax,-0x4c(%ebp)
    4850:	89 d8                	mov    %ebx,%eax
    4852:	c1 e0 08             	shl    $0x8,%eax
    4855:	89 34 24             	mov    %esi,(%esp)
    4858:	8d 04 98             	lea    (%eax,%ebx,4),%eax
    485b:	89 44 24 08          	mov    %eax,0x8(%esp)
    485f:	e8 9c 18 01 00       	call   16100 <async_data_read_start>
    4864:	89 34 24             	mov    %esi,(%esp)
    4867:	89 45 b0             	mov    %eax,-0x50(%ebp)
    486a:	e8 31 12 01 00       	call   15aa0 <async_exchange_end>
    486f:	8b 45 b0             	mov    -0x50(%ebp),%eax
    4872:	83 f8 f0             	cmp    $0xfffffff0,%eax
    4875:	0f 84 c8 00 00 00    	je     4943 <loc_get_services+0x293>
    487b:	85 c0                	test   %eax,%eax
    487d:	0f 85 8d 00 00 00    	jne    4910 <loc_get_services+0x260>
    4883:	8d 45 c0             	lea    -0x40(%ebp),%eax
    4886:	89 44 24 04          	mov    %eax,0x4(%esp)
    488a:	8b 45 b4             	mov    -0x4c(%ebp),%eax
    488d:	89 04 24             	mov    %eax,(%esp)
    4890:	e8 0b fa 00 00       	call   142a0 <async_wait_for>
    4895:	8b 75 c0             	mov    -0x40(%ebp),%esi
    4898:	85 f6                	test   %esi,%esi
    489a:	75 1c                	jne    48b8 <loc_get_services+0x208>
    489c:	8b 45 0c             	mov    0xc(%ebp),%eax
    489f:	89 38                	mov    %edi,(%eax)
    48a1:	83 c4 7c             	add    $0x7c,%esp
    48a4:	89 d8                	mov    %ebx,%eax
    48a6:	5b                   	pop    %ebx
    48a7:	5e                   	pop    %esi
    48a8:	5f                   	pop    %edi
    48a9:	5d                   	pop    %ebp
    48aa:	c3                   	ret    
    48ab:	90                   	nop
    48ac:	8d 74 26 00          	lea    0x0(%esi,%eiz,1),%esi
    48b0:	89 34 24             	mov    %esi,(%esp)
    48b3:	e8 e8 11 01 00       	call   15aa0 <async_exchange_end>
    48b8:	83 c4 7c             	add    $0x7c,%esp
    48bb:	31 db                	xor    %ebx,%ebx
    48bd:	89 d8                	mov    %ebx,%eax
    48bf:	5b                   	pop    %ebx
    48c0:	5e                   	pop    %esi
    48c1:	5f                   	pop    %edi
    48c2:	5d                   	pop    %ebp
    48c3:	c3                   	ret    
    48c4:	8d 74 26 00          	lea    0x0(%esi,%eiz,1),%esi
    48c8:	85 db                	test   %ebx,%ebx
    48ca:	0f 84 1d fe ff ff    	je     46ed <loc_get_services+0x3d>
    48d0:	89 1d b4 4b 02 00    	mov    %ebx,0x24bb4
    48d6:	e9 12 fe ff ff       	jmp    46ed <loc_get_services+0x3d>
    48db:	90                   	nop
    48dc:	8d 74 26 00          	lea    0x0(%esi,%eiz,1),%esi
    48e0:	c7 44 24 0c 00 00 00 	movl   $0x0,0xc(%esp)
    48e7:	00 
    48e8:	c7 44 24 08 02 00 00 	movl   $0x2,0x8(%esp)
    48ef:	00 
    48f0:	c7 44 24 04 6c 6f 63 	movl   $0x20636f6c,0x4(%esp)
    48f7:	20 
    48f8:	c7 04 24 02 00 00 00 	movl   $0x2,(%esp)
    48ff:	e8 7c e1 00 00       	call   12a80 <service_connect_blocking>
    4904:	a3 b4 4b 02 00       	mov    %eax,0x24bb4
    4909:	e9 bc fd ff ff       	jmp    46ca <loc_get_services+0x1a>
    490e:	66 90                	xchg   %ax,%ax
    4910:	8b 45 b4             	mov    -0x4c(%ebp),%eax
    4913:	31 db                	xor    %ebx,%ebx
    4915:	89 04 24             	mov    %eax,(%esp)
    4918:	e8 d3 fb 00 00       	call   144f0 <async_forget>
    491d:	89 3c 24             	mov    %edi,(%esp)
    4920:	e8 db d9 00 00       	call   12300 <free>
    4925:	83 c4 7c             	add    $0x7c,%esp
    4928:	89 d8                	mov    %ebx,%eax
    492a:	5b                   	pop    %ebx
    492b:	5e                   	pop    %esi
    492c:	5f                   	pop    %edi
    492d:	5d                   	pop    %ebp
    492e:	c3                   	ret    
    492f:	90                   	nop
    4930:	85 db                	test   %ebx,%ebx
    4932:	0f 84 f9 fd ff ff    	je     4731 <loc_get_services+0x81>
    4938:	89 1d b0 4b 02 00    	mov    %ebx,0x24bb0
    493e:	e9 ee fd ff ff       	jmp    4731 <loc_get_services+0x81>
    4943:	89 3c 24             	mov    %edi,(%esp)
    4946:	e8 b5 d9 00 00       	call   12300 <free>
    494b:	e9 69 fd ff ff       	jmp    46b9 <loc_get_services+0x9>
    4950:	c7 44 24 0c 00 00 00 	movl   $0x0,0xc(%esp)
    4957:	00 
    4958:	c7 44 24 08 02 00 00 	movl   $0x2,0x8(%esp)
    495f:	00 
    4960:	c7 44 24 04 6c 6f 63 	movl   $0x20636f6c,0x4(%esp)
    4967:	20 
    4968:	c7 04 24 02 00 00 00 	movl   $0x2,(%esp)
    496f:	e8 8c e0 00 00       	call   12a00 <service_connect>
    4974:	a3 b0 4b 02 00       	mov    %eax,0x24bb0
    4979:	e9 72 fe ff ff       	jmp    47f0 <loc_get_services+0x140>
    497e:	31 f6                	xor    %esi,%esi
    4980:	e9 8e fe ff ff       	jmp    4813 <loc_get_services+0x163>
    4985:	8d 74 26 00          	lea    0x0(%esi,%eiz,1),%esi
    4989:	8d bc 27 00 00 00 00 	lea    0x0(%edi,%eiz,1),%edi

00004990 <loc_category_get_svcs>:
    4990:	55                   	push   %ebp
    4991:	89 e5                	mov    %esp,%ebp
    4993:	8b 45 10             	mov    0x10(%ebp),%eax
    4996:	8b 55 08             	mov    0x8(%ebp),%edx
    4999:	8b 4d 0c             	mov    0xc(%ebp),%ecx
    499c:	89 45 08             	mov    %eax,0x8(%ebp)
    499f:	b8 0c 04 00 00       	mov    $0x40c,%eax
    49a4:	5d                   	pop    %ebp
    49a5:	e9 e6 db ff ff       	jmp    2590 <loc_get_ids_internal>
    49aa:	8d b6 00 00 00 00    	lea    0x0(%esi),%esi

000049b0 <loc_get_categories>:
    49b0:	55                   	push   %ebp
    49b1:	31 d2                	xor    %edx,%edx
    49b3:	89 e5                	mov    %esp,%ebp
    49b5:	8b 45 0c             	mov    0xc(%ebp),%eax
    49b8:	8b 4d 08             	mov    0x8(%ebp),%ecx
    49bb:	89 45 08             	mov    %eax,0x8(%ebp)
    49be:	b8 12 04 00 00       	mov    $0x412,%eax
    49c3:	5d                   	pop    %ebp
    49c4:	e9 c7 db ff ff       	jmp    2590 <loc_get_ids_internal>
    49c9:	8d b4 26 00 00 00 00 	lea    0x0(%esi,%eiz,1),%esi

000049d0 <loc_register_cat_change_cb>:
    49d0:	55                   	push   %ebp
    49d1:	89 e5                	mov    %esp,%ebp
    49d3:	57                   	push   %edi
    49d4:	56                   	push   %esi
    49d5:	53                   	push   %ebx
    49d6:	83 ec 5c             	sub    $0x5c,%esp
    49d9:	c7 04 24 b4 49 02 00 	movl   $0x249b4,(%esp)
    49e0:	e8 3b 44 00 00       	call   8e20 <fibril_mutex_lock>
    49e5:	80 3d bc 4b 02 00 00 	cmpb   $0x0,0x24bbc
    49ec:	74 22                	je     4a10 <loc_register_cat_change_cb+0x40>
    49ee:	8b 45 08             	mov    0x8(%ebp),%eax
    49f1:	c7 04 24 b4 49 02 00 	movl   $0x249b4,(%esp)
    49f8:	a3 b8 4b 02 00       	mov    %eax,0x24bb8
    49fd:	e8 3e 45 00 00       	call   8f40 <fibril_mutex_unlock>
    4a02:	83 c4 5c             	add    $0x5c,%esp
    4a05:	31 c0                	xor    %eax,%eax
    4a07:	5b                   	pop    %ebx
    4a08:	5e                   	pop    %esi
    4a09:	5f                   	pop    %edi
    4a0a:	5d                   	pop    %ebp
    4a0b:	c3                   	ret    
    4a0c:	8d 74 26 00          	lea    0x0(%esi,%eiz,1),%esi
    4a10:	c7 04 24 94 49 02 00 	movl   $0x24994,(%esp)
    4a17:	e8 04 44 00 00       	call   8e20 <fibril_mutex_lock>
    4a1c:	a1 b4 4b 02 00       	mov    0x24bb4,%eax
    4a21:	85 c0                	test   %eax,%eax
    4a23:	75 3a                	jne    4a5f <loc_register_cat_change_cb+0x8f>
    4a25:	c7 04 24 a4 49 02 00 	movl   $0x249a4,(%esp)
    4a2c:	8b 1d b0 4b 02 00    	mov    0x24bb0,%ebx
    4a32:	e8 e9 43 00 00       	call   8e20 <fibril_mutex_lock>
    4a37:	8b 0d b4 4b 02 00    	mov    0x24bb4,%ecx
    4a3d:	85 c9                	test   %ecx,%ecx
    4a3f:	0f 84 f3 00 00 00    	je     4b38 <loc_register_cat_change_cb+0x168>
    4a45:	c7 04 24 a4 49 02 00 	movl   $0x249a4,(%esp)
    4a4c:	e8 ef 44 00 00       	call   8f40 <fibril_mutex_unlock>
    4a51:	8b 15 b4 4b 02 00    	mov    0x24bb4,%edx
    4a57:	85 d2                	test   %edx,%edx
    4a59:	0f 84 f1 00 00 00    	je     4b50 <loc_register_cat_change_cb+0x180>
    4a5f:	c7 04 24 94 49 02 00 	movl   $0x24994,(%esp)
    4a66:	e8 d5 44 00 00       	call   8f40 <fibril_mutex_unlock>
    4a6b:	c7 04 24 a4 49 02 00 	movl   $0x249a4,(%esp)
    4a72:	8b 1d b4 4b 02 00    	mov    0x24bb4,%ebx
    4a78:	e8 a3 43 00 00       	call   8e20 <fibril_mutex_lock>
    4a7d:	a1 b0 4b 02 00       	mov    0x24bb0,%eax
    4a82:	85 c0                	test   %eax,%eax
    4a84:	0f 84 1e 01 00 00    	je     4ba8 <loc_register_cat_change_cb+0x1d8>
    4a8a:	c7 04 24 a4 49 02 00 	movl   $0x249a4,(%esp)
    4a91:	e8 aa 44 00 00       	call   8f40 <fibril_mutex_unlock>
    4a96:	a1 b4 4b 02 00       	mov    0x24bb4,%eax
    4a9b:	89 04 24             	mov    %eax,(%esp)
    4a9e:	e8 8d 0c 01 00       	call   15730 <async_exchange_begin>
    4aa3:	c7 44 24 14 00 00 00 	movl   $0x0,0x14(%esp)
    4aaa:	00 
    4aab:	89 c3                	mov    %eax,%ebx
    4aad:	8d 45 c4             	lea    -0x3c(%ebp),%eax
    4ab0:	89 44 24 18          	mov    %eax,0x18(%esp)
    4ab4:	c7 44 24 10 00 00 00 	movl   $0x0,0x10(%esp)
    4abb:	00 
    4abc:	c7 44 24 0c 00 00 00 	movl   $0x0,0xc(%esp)
    4ac3:	00 
    4ac4:	c7 44 24 08 00 00 00 	movl   $0x0,0x8(%esp)
    4acb:	00 
    4acc:	c7 44 24 04 09 04 00 	movl   $0x409,0x4(%esp)
    4ad3:	00 
    4ad4:	89 1c 24             	mov    %ebx,(%esp)
    4ad7:	e8 f4 f5 00 00       	call   140d0 <async_send_fast>
    4adc:	c7 44 24 14 00 00 00 	movl   $0x0,0x14(%esp)
    4ae3:	00 
    4ae4:	c7 44 24 10 50 22 00 	movl   $0x2250,0x10(%esp)
    4aeb:	00 
    4aec:	c7 44 24 0c 00 00 00 	movl   $0x0,0xc(%esp)
    4af3:	00 
    4af4:	c7 44 24 08 00 00 00 	movl   $0x0,0x8(%esp)
    4afb:	00 
    4afc:	c7 44 24 04 00 00 00 	movl   $0x0,0x4(%esp)
    4b03:	00 
    4b04:	89 1c 24             	mov    %ebx,(%esp)
    4b07:	89 c7                	mov    %eax,%edi
    4b09:	e8 c2 03 01 00       	call   14ed0 <async_connect_to_me>
    4b0e:	89 1c 24             	mov    %ebx,(%esp)
    4b11:	89 c6                	mov    %eax,%esi
    4b13:	e8 88 0f 01 00       	call   15aa0 <async_exchange_end>
    4b18:	85 f6                	test   %esi,%esi
    4b1a:	74 64                	je     4b80 <loc_register_cat_change_cb+0x1b0>
    4b1c:	c7 04 24 b4 49 02 00 	movl   $0x249b4,(%esp)
    4b23:	e8 18 44 00 00       	call   8f40 <fibril_mutex_unlock>
    4b28:	83 c4 5c             	add    $0x5c,%esp
    4b2b:	b8 f7 fe ff ff       	mov    $0xfffffef7,%eax
    4b30:	5b                   	pop    %ebx
    4b31:	5e                   	pop    %esi
    4b32:	5f                   	pop    %edi
    4b33:	5d                   	pop    %ebp
    4b34:	c3                   	ret    
    4b35:	8d 76 00             	lea    0x0(%esi),%esi
    4b38:	85 db                	test   %ebx,%ebx
    4b3a:	0f 84 05 ff ff ff    	je     4a45 <loc_register_cat_change_cb+0x75>
    4b40:	89 1d b4 4b 02 00    	mov    %ebx,0x24bb4
    4b46:	e9 fa fe ff ff       	jmp    4a45 <loc_register_cat_change_cb+0x75>
    4b4b:	90                   	nop
    4b4c:	8d 74 26 00          	lea    0x0(%esi,%eiz,1),%esi
    4b50:	c7 44 24 0c 00 00 00 	movl   $0x0,0xc(%esp)
    4b57:	00 
    4b58:	c7 44 24 08 02 00 00 	movl   $0x2,0x8(%esp)
    4b5f:	00 
    4b60:	c7 44 24 04 6c 6f 63 	movl   $0x20636f6c,0x4(%esp)
    4b67:	20 
    4b68:	c7 04 24 02 00 00 00 	movl   $0x2,(%esp)
    4b6f:	e8 0c df 00 00       	call   12a80 <service_connect_blocking>
    4b74:	a3 b4 4b 02 00       	mov    %eax,0x24bb4
    4b79:	e9 a3 fe ff ff       	jmp    4a21 <loc_register_cat_change_cb+0x51>
    4b7e:	66 90                	xchg   %ax,%ax
    4b80:	8d 45 c0             	lea    -0x40(%ebp),%eax
    4b83:	89 3c 24             	mov    %edi,(%esp)
    4b86:	89 44 24 04          	mov    %eax,0x4(%esp)
    4b8a:	e8 11 f7 00 00       	call   142a0 <async_wait_for>
    4b8f:	8b 45 c0             	mov    -0x40(%ebp),%eax
    4b92:	85 c0                	test   %eax,%eax
    4b94:	75 86                	jne    4b1c <loc_register_cat_change_cb+0x14c>
    4b96:	c6 05 bc 4b 02 00 01 	movb   $0x1,0x24bbc
    4b9d:	e9 4c fe ff ff       	jmp    49ee <loc_register_cat_change_cb+0x1e>
    4ba2:	8d b6 00 00 00 00    	lea    0x0(%esi),%esi
    4ba8:	85 db                	test   %ebx,%ebx
    4baa:	0f 84 da fe ff ff    	je     4a8a <loc_register_cat_change_cb+0xba>
    4bb0:	89 1d b0 4b 02 00    	mov    %ebx,0x24bb0
    4bb6:	e9 cf fe ff ff       	jmp    4a8a <loc_register_cat_change_cb+0xba>
    4bbb:	66 90                	xchg   %ax,%ax
    4bbd:	66 90                	xchg   %ax,%ax
    4bbf:	90                   	nop

00004bc0 <memset>:
    4bc0:	55                   	push   %ebp
    4bc1:	89 e5                	mov    %esp,%ebp
    4bc3:	57                   	push   %edi
    4bc4:	56                   	push   %esi
    4bc5:	53                   	push   %ebx
    4bc6:	83 ec 20             	sub    $0x20,%esp
    4bc9:	c7 45 f0 04 00 00 00 	movl   $0x4,-0x10(%ebp)
    4bd0:	8b 45 08             	mov    0x8(%ebp),%eax
    4bd3:	8b 75 f0             	mov    -0x10(%ebp),%esi
    4bd6:	89 c2                	mov    %eax,%edx
    4bd8:	83 e2 03             	and    $0x3,%edx
    4bdb:	29 d6                	sub    %edx,%esi
    4bdd:	8b 55 10             	mov    0x10(%ebp),%edx
    4be0:	89 75 f0             	mov    %esi,-0x10(%ebp)
    4be3:	39 55 f0             	cmp    %edx,-0x10(%ebp)
    4be6:	76 03                	jbe    4beb <memset+0x2b>
    4be8:	89 55 f0             	mov    %edx,-0x10(%ebp)
    4beb:	8b 7d f0             	mov    -0x10(%ebp),%edi
    4bee:	8b 5d f0             	mov    -0x10(%ebp),%ebx
    4bf1:	4f                   	dec    %edi
    4bf2:	85 db                	test   %ebx,%ebx
    4bf4:	0f 84 2e 01 00 00    	je     4d28 <memset+0x168>
    4bfa:	89 c1                	mov    %eax,%ecx
    4bfc:	8b 55 f0             	mov    -0x10(%ebp),%edx
    4bff:	f7 d9                	neg    %ecx
    4c01:	83 e1 03             	and    $0x3,%ecx
    4c04:	8a 5d 0c             	mov    0xc(%ebp),%bl
    4c07:	89 4d ec             	mov    %ecx,-0x14(%ebp)
    4c0a:	39 d1                	cmp    %edx,%ecx
    4c0c:	0f 87 0e 01 00 00    	ja     4d20 <memset+0x160>
    4c12:	83 7d f0 06          	cmpl   $0x6,-0x10(%ebp)
    4c16:	0f 87 10 01 00 00    	ja     4d2c <memset+0x16c>
    4c1c:	8b 4d f0             	mov    -0x10(%ebp),%ecx
    4c1f:	89 4d ec             	mov    %ecx,-0x14(%ebp)
    4c22:	8b 75 ec             	mov    -0x14(%ebp),%esi
    4c25:	89 c2                	mov    %eax,%edx
    4c27:	90                   	nop
    4c28:	88 1a                	mov    %bl,(%edx)
    4c2a:	42                   	inc    %edx
    4c2b:	89 d1                	mov    %edx,%ecx
    4c2d:	4f                   	dec    %edi
    4c2e:	29 c1                	sub    %eax,%ecx
    4c30:	39 f1                	cmp    %esi,%ecx
    4c32:	72 f4                	jb     4c28 <memset+0x68>
    4c34:	89 55 d4             	mov    %edx,-0x2c(%ebp)
    4c37:	8b 55 ec             	mov    -0x14(%ebp),%edx
    4c3a:	39 55 f0             	cmp    %edx,-0x10(%ebp)
    4c3d:	0f 84 84 00 00 00    	je     4cc7 <memset+0x107>
    4c43:	8b 4d f0             	mov    -0x10(%ebp),%ecx
    4c46:	8b 55 ec             	mov    -0x14(%ebp),%edx
    4c49:	29 d1                	sub    %edx,%ecx
    4c4b:	89 4d dc             	mov    %ecx,-0x24(%ebp)
    4c4e:	c1 e9 02             	shr    $0x2,%ecx
    4c51:	89 4d e4             	mov    %ecx,-0x1c(%ebp)
    4c54:	c1 e1 02             	shl    $0x2,%ecx
    4c57:	89 4d e0             	mov    %ecx,-0x20(%ebp)
    4c5a:	74 59                	je     4cb5 <memset+0xf5>
    4c5c:	31 c9                	xor    %ecx,%ecx
    4c5e:	31 d2                	xor    %edx,%edx
    4c60:	88 d9                	mov    %bl,%cl
    4c62:	88 da                	mov    %bl,%dl
    4c64:	8a 6d 0c             	mov    0xc(%ebp),%ch
    4c67:	89 55 e8             	mov    %edx,-0x18(%ebp)
    4c6a:	c1 e2 10             	shl    $0x10,%edx
    4c6d:	89 ce                	mov    %ecx,%esi
    4c6f:	81 e6 ff ff 00 00    	and    $0xffff,%esi
    4c75:	8b 4d e8             	mov    -0x18(%ebp),%ecx
    4c78:	c1 e1 18             	shl    $0x18,%ecx
    4c7b:	09 d6                	or     %edx,%esi
    4c7d:	09 ce                	or     %ecx,%esi
    4c7f:	8b 4d ec             	mov    -0x14(%ebp),%ecx
    4c82:	01 c1                	add    %eax,%ecx
    4c84:	89 7d e8             	mov    %edi,-0x18(%ebp)
    4c87:	89 4d ec             	mov    %ecx,-0x14(%ebp)
    4c8a:	8b 55 d4             	mov    -0x2c(%ebp),%edx
    4c8d:	8b 7d ec             	mov    -0x14(%ebp),%edi
    4c90:	31 c9                	xor    %ecx,%ecx
    4c92:	89 45 ec             	mov    %eax,-0x14(%ebp)
    4c95:	8b 45 e4             	mov    -0x1c(%ebp),%eax
    4c98:	89 34 8f             	mov    %esi,(%edi,%ecx,4)
    4c9b:	41                   	inc    %ecx
    4c9c:	39 c8                	cmp    %ecx,%eax
    4c9e:	77 f8                	ja     4c98 <memset+0xd8>
    4ca0:	8b 4d e0             	mov    -0x20(%ebp),%ecx
    4ca3:	8b 7d e8             	mov    -0x18(%ebp),%edi
    4ca6:	01 ca                	add    %ecx,%edx
    4ca8:	29 cf                	sub    %ecx,%edi
    4caa:	8b 45 ec             	mov    -0x14(%ebp),%eax
    4cad:	89 55 d4             	mov    %edx,-0x2c(%ebp)
    4cb0:	39 4d dc             	cmp    %ecx,-0x24(%ebp)
    4cb3:	74 12                	je     4cc7 <memset+0x107>
    4cb5:	8b 55 d4             	mov    -0x2c(%ebp),%edx
    4cb8:	8d 4c 3a 01          	lea    0x1(%edx,%edi,1),%ecx
    4cbc:	8d 74 26 00          	lea    0x0(%esi,%eiz,1),%esi
    4cc0:	88 1a                	mov    %bl,(%edx)
    4cc2:	42                   	inc    %edx
    4cc3:	39 ca                	cmp    %ecx,%edx
    4cc5:	75 f9                	jne    4cc0 <memset+0x100>
    4cc7:	8b 5d f0             	mov    -0x10(%ebp),%ebx
    4cca:	01 c3                	add    %eax,%ebx
    4ccc:	8b 75 10             	mov    0x10(%ebp),%esi
    4ccf:	2b 75 f0             	sub    -0x10(%ebp),%esi
    4cd2:	74 43                	je     4d17 <memset+0x157>
    4cd4:	0f b6 55 0c          	movzbl 0xc(%ebp),%edx
    4cd8:	89 d1                	mov    %edx,%ecx
    4cda:	89 f7                	mov    %esi,%edi
    4cdc:	c1 e1 08             	shl    $0x8,%ecx
    4cdf:	83 e7 03             	and    $0x3,%edi
    4ce2:	09 d1                	or     %edx,%ecx
    4ce4:	c1 e1 08             	shl    $0x8,%ecx
    4ce7:	09 d1                	or     %edx,%ecx
    4ce9:	c1 e1 08             	shl    $0x8,%ecx
    4cec:	09 d1                	or     %edx,%ecx
    4cee:	c1 ee 02             	shr    $0x2,%esi
    4cf1:	74 10                	je     4d03 <memset+0x143>
    4cf3:	31 d2                	xor    %edx,%edx
    4cf5:	8d 76 00             	lea    0x0(%esi),%esi
    4cf8:	89 0c 93             	mov    %ecx,(%ebx,%edx,4)
    4cfb:	42                   	inc    %edx
    4cfc:	39 f2                	cmp    %esi,%edx
    4cfe:	75 f8                	jne    4cf8 <memset+0x138>
    4d00:	8d 1c 93             	lea    (%ebx,%edx,4),%ebx
    4d03:	85 ff                	test   %edi,%edi
    4d05:	74 10                	je     4d17 <memset+0x157>
    4d07:	8a 55 0c             	mov    0xc(%ebp),%dl
    4d0a:	01 df                	add    %ebx,%edi
    4d0c:	8d 74 26 00          	lea    0x0(%esi,%eiz,1),%esi
    4d10:	88 13                	mov    %dl,(%ebx)
    4d12:	43                   	inc    %ebx
    4d13:	39 fb                	cmp    %edi,%ebx
    4d15:	75 f9                	jne    4d10 <memset+0x150>
    4d17:	83 c4 20             	add    $0x20,%esp
    4d1a:	5b                   	pop    %ebx
    4d1b:	5e                   	pop    %esi
    4d1c:	5f                   	pop    %edi
    4d1d:	5d                   	pop    %ebp
    4d1e:	c3                   	ret    
    4d1f:	90                   	nop
    4d20:	89 55 ec             	mov    %edx,-0x14(%ebp)
    4d23:	e9 ea fe ff ff       	jmp    4c12 <memset+0x52>
    4d28:	89 c3                	mov    %eax,%ebx
    4d2a:	eb a0                	jmp    4ccc <memset+0x10c>
    4d2c:	8b 4d ec             	mov    -0x14(%ebp),%ecx
    4d2f:	85 c9                	test   %ecx,%ecx
    4d31:	0f 85 eb fe ff ff    	jne    4c22 <memset+0x62>
    4d37:	89 45 d4             	mov    %eax,-0x2c(%ebp)
    4d3a:	e9 04 ff ff ff       	jmp    4c43 <memset+0x83>
    4d3f:	90                   	nop

00004d40 <memcpy>:
    4d40:	55                   	push   %ebp
    4d41:	89 e5                	mov    %esp,%ebp
    4d43:	57                   	push   %edi
    4d44:	56                   	push   %esi
    4d45:	53                   	push   %ebx
    4d46:	83 ec 0c             	sub    $0xc,%esp
    4d49:	8b 4d 0c             	mov    0xc(%ebp),%ecx
    4d4c:	8b 45 08             	mov    0x8(%ebp),%eax
    4d4f:	89 ca                	mov    %ecx,%edx
    4d51:	31 c2                	xor    %eax,%edx
    4d53:	83 e2 03             	and    $0x3,%edx
    4d56:	0f 85 84 01 00 00    	jne    4ee0 <memcpy+0x1a0>
    4d5c:	c7 45 ec 04 00 00 00 	movl   $0x4,-0x14(%ebp)
    4d63:	89 c2                	mov    %eax,%edx
    4d65:	83 e2 03             	and    $0x3,%edx
    4d68:	8b 75 ec             	mov    -0x14(%ebp),%esi
    4d6b:	29 d6                	sub    %edx,%esi
    4d6d:	8b 55 10             	mov    0x10(%ebp),%edx
    4d70:	89 75 ec             	mov    %esi,-0x14(%ebp)
    4d73:	39 55 ec             	cmp    %edx,-0x14(%ebp)
    4d76:	0f 87 5c 01 00 00    	ja     4ed8 <memcpy+0x198>
    4d7c:	8b 5d ec             	mov    -0x14(%ebp),%ebx
    4d7f:	4b                   	dec    %ebx
    4d80:	89 5d f0             	mov    %ebx,-0x10(%ebp)
    4d83:	8b 5d ec             	mov    -0x14(%ebp),%ebx
    4d86:	85 db                	test   %ebx,%ebx
    4d88:	0f 84 91 01 00 00    	je     4f1f <memcpy+0x1df>
    4d8e:	8d 51 04             	lea    0x4(%ecx),%edx
    4d91:	8b 5d ec             	mov    -0x14(%ebp),%ebx
    4d94:	c1 eb 02             	shr    $0x2,%ebx
    4d97:	39 d0                	cmp    %edx,%eax
    4d99:	0f 93 c2             	setae  %dl
    4d9c:	89 d6                	mov    %edx,%esi
    4d9e:	8d 50 04             	lea    0x4(%eax),%edx
    4da1:	39 d1                	cmp    %edx,%ecx
    4da3:	8d 3c 9d 00 00 00 00 	lea    0x0(,%ebx,4),%edi
    4daa:	0f 93 c2             	setae  %dl
    4dad:	09 d6                	or     %edx,%esi
    4daf:	83 7d ec 09          	cmpl   $0x9,-0x14(%ebp)
    4db3:	0f 97 c2             	seta   %dl
    4db6:	21 d6                	and    %edx,%esi
    4db8:	89 ca                	mov    %ecx,%edx
    4dba:	09 c2                	or     %eax,%edx
    4dbc:	83 e2 03             	and    $0x3,%edx
    4dbf:	89 f2                	mov    %esi,%edx
    4dc1:	0f 94 45 e8          	sete   -0x18(%ebp)
    4dc5:	84 55 e8             	test   %dl,-0x18(%ebp)
    4dc8:	0f 84 58 01 00 00    	je     4f26 <memcpy+0x1e6>
    4dce:	85 ff                	test   %edi,%edi
    4dd0:	0f 84 50 01 00 00    	je     4f26 <memcpy+0x1e6>
    4dd6:	31 d2                	xor    %edx,%edx
    4dd8:	8b 34 91             	mov    (%ecx,%edx,4),%esi
    4ddb:	89 34 90             	mov    %esi,(%eax,%edx,4)
    4dde:	42                   	inc    %edx
    4ddf:	39 d3                	cmp    %edx,%ebx
    4de1:	77 f5                	ja     4dd8 <memcpy+0x98>
    4de3:	8b 55 f0             	mov    -0x10(%ebp),%edx
    4de6:	8d 1c 39             	lea    (%ecx,%edi,1),%ebx
    4de9:	29 fa                	sub    %edi,%edx
    4deb:	8d 34 38             	lea    (%eax,%edi,1),%esi
    4dee:	89 55 f0             	mov    %edx,-0x10(%ebp)
    4df1:	39 7d ec             	cmp    %edi,-0x14(%ebp)
    4df4:	74 18                	je     4e0e <memcpy+0xce>
    4df6:	8b 7d f0             	mov    -0x10(%ebp),%edi
    4df9:	31 d2                	xor    %edx,%edx
    4dfb:	47                   	inc    %edi
    4dfc:	89 45 f0             	mov    %eax,-0x10(%ebp)
    4dff:	90                   	nop
    4e00:	8a 04 13             	mov    (%ebx,%edx,1),%al
    4e03:	88 04 16             	mov    %al,(%esi,%edx,1)
    4e06:	42                   	inc    %edx
    4e07:	39 fa                	cmp    %edi,%edx
    4e09:	75 f5                	jne    4e00 <memcpy+0xc0>
    4e0b:	8b 45 f0             	mov    -0x10(%ebp),%eax
    4e0e:	8b 55 ec             	mov    -0x14(%ebp),%edx
    4e11:	8b 7d ec             	mov    -0x14(%ebp),%edi
    4e14:	01 c2                	add    %eax,%edx
    4e16:	01 f9                	add    %edi,%ecx
    4e18:	8b 5d 10             	mov    0x10(%ebp),%ebx
    4e1b:	2b 5d ec             	sub    -0x14(%ebp),%ebx
    4e1e:	0f 84 a9 00 00 00    	je     4ecd <memcpy+0x18d>
    4e24:	89 df                	mov    %ebx,%edi
    4e26:	c1 ef 02             	shr    $0x2,%edi
    4e29:	8d 34 bd 00 00 00 00 	lea    0x0(,%edi,4),%esi
    4e30:	29 f3                	sub    %esi,%ebx
    4e32:	85 ff                	test   %edi,%edi
    4e34:	89 5d ec             	mov    %ebx,-0x14(%ebp)
    4e37:	74 1c                	je     4e55 <memcpy+0x115>
    4e39:	31 db                	xor    %ebx,%ebx
    4e3b:	89 45 f0             	mov    %eax,-0x10(%ebp)
    4e3e:	66 90                	xchg   %ax,%ax
    4e40:	8b 04 99             	mov    (%ecx,%ebx,4),%eax
    4e43:	89 04 9a             	mov    %eax,(%edx,%ebx,4)
    4e46:	43                   	inc    %ebx
    4e47:	39 fb                	cmp    %edi,%ebx
    4e49:	75 f5                	jne    4e40 <memcpy+0x100>
    4e4b:	8b 45 f0             	mov    -0x10(%ebp),%eax
    4e4e:	01 f2                	add    %esi,%edx
    4e50:	01 f1                	add    %esi,%ecx
    4e52:	8b 5d ec             	mov    -0x14(%ebp),%ebx
    4e55:	4b                   	dec    %ebx
    4e56:	8b 75 ec             	mov    -0x14(%ebp),%esi
    4e59:	89 5d e8             	mov    %ebx,-0x18(%ebp)
    4e5c:	85 f6                	test   %esi,%esi
    4e5e:	74 6d                	je     4ecd <memcpy+0x18d>
    4e60:	8d 5a 04             	lea    0x4(%edx),%ebx
    4e63:	8b 75 ec             	mov    -0x14(%ebp),%esi
    4e66:	c1 ee 02             	shr    $0x2,%esi
    4e69:	39 d9                	cmp    %ebx,%ecx
    4e6b:	8d 59 04             	lea    0x4(%ecx),%ebx
    4e6e:	0f 93 45 f0          	setae  -0x10(%ebp)
    4e72:	39 da                	cmp    %ebx,%edx
    4e74:	8d 3c b5 00 00 00 00 	lea    0x0(,%esi,4),%edi
    4e7b:	0f 93 c3             	setae  %bl
    4e7e:	08 5d f0             	or     %bl,-0x10(%ebp)
    4e81:	83 7d ec 08          	cmpl   $0x8,-0x14(%ebp)
    4e85:	0f 97 c3             	seta   %bl
    4e88:	84 5d f0             	test   %bl,-0x10(%ebp)
    4e8b:	74 2a                	je     4eb7 <memcpy+0x177>
    4e8d:	85 ff                	test   %edi,%edi
    4e8f:	74 26                	je     4eb7 <memcpy+0x177>
    4e91:	31 db                	xor    %ebx,%ebx
    4e93:	89 45 f0             	mov    %eax,-0x10(%ebp)
    4e96:	66 90                	xchg   %ax,%ax
    4e98:	8b 04 99             	mov    (%ecx,%ebx,4),%eax
    4e9b:	89 04 9a             	mov    %eax,(%edx,%ebx,4)
    4e9e:	43                   	inc    %ebx
    4e9f:	39 de                	cmp    %ebx,%esi
    4ea1:	77 f5                	ja     4e98 <memcpy+0x158>
    4ea3:	8b 5d e8             	mov    -0x18(%ebp),%ebx
    4ea6:	01 f9                	add    %edi,%ecx
    4ea8:	29 fb                	sub    %edi,%ebx
    4eaa:	01 fa                	add    %edi,%edx
    4eac:	8b 45 f0             	mov    -0x10(%ebp),%eax
    4eaf:	89 5d e8             	mov    %ebx,-0x18(%ebp)
    4eb2:	39 7d ec             	cmp    %edi,-0x14(%ebp)
    4eb5:	74 16                	je     4ecd <memcpy+0x18d>
    4eb7:	8b 75 e8             	mov    -0x18(%ebp),%esi
    4eba:	31 db                	xor    %ebx,%ebx
    4ebc:	46                   	inc    %esi
    4ebd:	89 c7                	mov    %eax,%edi
    4ebf:	90                   	nop
    4ec0:	8a 04 19             	mov    (%ecx,%ebx,1),%al
    4ec3:	88 04 1a             	mov    %al,(%edx,%ebx,1)
    4ec6:	43                   	inc    %ebx
    4ec7:	39 f3                	cmp    %esi,%ebx
    4ec9:	75 f5                	jne    4ec0 <memcpy+0x180>
    4ecb:	89 f8                	mov    %edi,%eax
    4ecd:	83 c4 0c             	add    $0xc,%esp
    4ed0:	5b                   	pop    %ebx
    4ed1:	5e                   	pop    %esi
    4ed2:	5f                   	pop    %edi
    4ed3:	5d                   	pop    %ebp
    4ed4:	c3                   	ret    
    4ed5:	8d 76 00             	lea    0x0(%esi),%esi
    4ed8:	89 55 ec             	mov    %edx,-0x14(%ebp)
    4edb:	e9 9c fe ff ff       	jmp    4d7c <memcpy+0x3c>
    4ee0:	8b 75 10             	mov    0x10(%ebp),%esi
    4ee3:	31 d2                	xor    %edx,%edx
    4ee5:	c1 ee 02             	shr    $0x2,%esi
    4ee8:	74 11                	je     4efb <memcpy+0x1bb>
    4eea:	8d b6 00 00 00 00    	lea    0x0(%esi),%esi
    4ef0:	8b 1c 91             	mov    (%ecx,%edx,4),%ebx
    4ef3:	89 1c 90             	mov    %ebx,(%eax,%edx,4)
    4ef6:	42                   	inc    %edx
    4ef7:	39 f2                	cmp    %esi,%edx
    4ef9:	75 f5                	jne    4ef0 <memcpy+0x1b0>
    4efb:	8b 75 10             	mov    0x10(%ebp),%esi
    4efe:	83 e6 03             	and    $0x3,%esi
    4f01:	74 ca                	je     4ecd <memcpy+0x18d>
    4f03:	c1 e2 02             	shl    $0x2,%edx
    4f06:	31 db                	xor    %ebx,%ebx
    4f08:	01 d1                	add    %edx,%ecx
    4f0a:	89 c7                	mov    %eax,%edi
    4f0c:	01 c2                	add    %eax,%edx
    4f0e:	66 90                	xchg   %ax,%ax
    4f10:	8a 04 19             	mov    (%ecx,%ebx,1),%al
    4f13:	88 04 1a             	mov    %al,(%edx,%ebx,1)
    4f16:	43                   	inc    %ebx
    4f17:	39 de                	cmp    %ebx,%esi
    4f19:	77 f5                	ja     4f10 <memcpy+0x1d0>
    4f1b:	89 f8                	mov    %edi,%eax
    4f1d:	eb ae                	jmp    4ecd <memcpy+0x18d>
    4f1f:	89 c2                	mov    %eax,%edx
    4f21:	e9 f2 fe ff ff       	jmp    4e18 <memcpy+0xd8>
    4f26:	89 c6                	mov    %eax,%esi
    4f28:	89 cb                	mov    %ecx,%ebx
    4f2a:	e9 c7 fe ff ff       	jmp    4df6 <memcpy+0xb6>
    4f2f:	90                   	nop

00004f30 <memmove>:
    4f30:	55                   	push   %ebp
    4f31:	89 e5                	mov    %esp,%ebp
    4f33:	57                   	push   %edi
    4f34:	56                   	push   %esi
    4f35:	53                   	push   %ebx
    4f36:	83 ec 0c             	sub    $0xc,%esp
    4f39:	8b 45 08             	mov    0x8(%ebp),%eax
    4f3c:	8b 55 0c             	mov    0xc(%ebp),%edx
    4f3f:	39 c2                	cmp    %eax,%edx
    4f41:	0f 84 b6 00 00 00    	je     4ffd <memmove+0xcd>
    4f47:	8b 4d 10             	mov    0x10(%ebp),%ecx
    4f4a:	01 d1                	add    %edx,%ecx
    4f4c:	39 c8                	cmp    %ecx,%eax
    4f4e:	0f 83 b4 00 00 00    	jae    5008 <memmove+0xd8>
    4f54:	8b 4d 10             	mov    0x10(%ebp),%ecx
    4f57:	01 c1                	add    %eax,%ecx
    4f59:	39 ca                	cmp    %ecx,%edx
    4f5b:	0f 83 a7 00 00 00    	jae    5008 <memmove+0xd8>
    4f61:	39 c2                	cmp    %eax,%edx
    4f63:	0f 86 47 02 00 00    	jbe    51b0 <memmove+0x280>
    4f69:	8b 7d 10             	mov    0x10(%ebp),%edi
    4f6c:	8b 4d 10             	mov    0x10(%ebp),%ecx
    4f6f:	4f                   	dec    %edi
    4f70:	85 c9                	test   %ecx,%ecx
    4f72:	0f 84 85 00 00 00    	je     4ffd <memmove+0xcd>
    4f78:	8d 5a 04             	lea    0x4(%edx),%ebx
    4f7b:	8b 4d 10             	mov    0x10(%ebp),%ecx
    4f7e:	c1 e9 02             	shr    $0x2,%ecx
    4f81:	39 d8                	cmp    %ebx,%eax
    4f83:	8d 58 04             	lea    0x4(%eax),%ebx
    4f86:	0f 93 45 f0          	setae  -0x10(%ebp)
    4f8a:	39 da                	cmp    %ebx,%edx
    4f8c:	8d 34 8d 00 00 00 00 	lea    0x0(,%ecx,4),%esi
    4f93:	0f 93 c3             	setae  %bl
    4f96:	08 5d f0             	or     %bl,-0x10(%ebp)
    4f99:	83 7d 10 09          	cmpl   $0x9,0x10(%ebp)
    4f9d:	0f 97 c3             	seta   %bl
    4fa0:	20 5d f0             	and    %bl,-0x10(%ebp)
    4fa3:	89 d3                	mov    %edx,%ebx
    4fa5:	09 c3                	or     %eax,%ebx
    4fa7:	83 e3 03             	and    $0x3,%ebx
    4faa:	0f 94 c3             	sete   %bl
    4fad:	84 5d f0             	test   %bl,-0x10(%ebp)
    4fb0:	0f 84 8b 02 00 00    	je     5241 <memmove+0x311>
    4fb6:	85 f6                	test   %esi,%esi
    4fb8:	0f 84 83 02 00 00    	je     5241 <memmove+0x311>
    4fbe:	31 db                	xor    %ebx,%ebx
    4fc0:	89 75 f0             	mov    %esi,-0x10(%ebp)
    4fc3:	90                   	nop
    4fc4:	8d 74 26 00          	lea    0x0(%esi,%eiz,1),%esi
    4fc8:	8b 34 9a             	mov    (%edx,%ebx,4),%esi
    4fcb:	89 34 98             	mov    %esi,(%eax,%ebx,4)
    4fce:	43                   	inc    %ebx
    4fcf:	39 d9                	cmp    %ebx,%ecx
    4fd1:	77 f5                	ja     4fc8 <memmove+0x98>
    4fd3:	8b 75 f0             	mov    -0x10(%ebp),%esi
    4fd6:	01 f2                	add    %esi,%edx
    4fd8:	29 f7                	sub    %esi,%edi
    4fda:	8d 0c 30             	lea    (%eax,%esi,1),%ecx
    4fdd:	39 75 10             	cmp    %esi,0x10(%ebp)
    4fe0:	74 1b                	je     4ffd <memmove+0xcd>
    4fe2:	8d 77 01             	lea    0x1(%edi),%esi
    4fe5:	31 db                	xor    %ebx,%ebx
    4fe7:	89 c7                	mov    %eax,%edi
    4fe9:	8d b4 26 00 00 00 00 	lea    0x0(%esi,%eiz,1),%esi
    4ff0:	8a 04 1a             	mov    (%edx,%ebx,1),%al
    4ff3:	88 04 19             	mov    %al,(%ecx,%ebx,1)
    4ff6:	43                   	inc    %ebx
    4ff7:	39 f3                	cmp    %esi,%ebx
    4ff9:	75 f5                	jne    4ff0 <memmove+0xc0>
    4ffb:	89 f8                	mov    %edi,%eax
    4ffd:	83 c4 0c             	add    $0xc,%esp
    5000:	5b                   	pop    %ebx
    5001:	5e                   	pop    %esi
    5002:	5f                   	pop    %edi
    5003:	5d                   	pop    %ebp
    5004:	c3                   	ret    
    5005:	8d 76 00             	lea    0x0(%esi),%esi
    5008:	89 d1                	mov    %edx,%ecx
    500a:	31 c1                	xor    %eax,%ecx
    500c:	83 e1 03             	and    $0x3,%ecx
    500f:	0f 85 db 01 00 00    	jne    51f0 <memmove+0x2c0>
    5015:	c7 45 e8 04 00 00 00 	movl   $0x4,-0x18(%ebp)
    501c:	89 c1                	mov    %eax,%ecx
    501e:	83 e1 03             	and    $0x3,%ecx
    5021:	8b 75 e8             	mov    -0x18(%ebp),%esi
    5024:	29 ce                	sub    %ecx,%esi
    5026:	8b 4d 10             	mov    0x10(%ebp),%ecx
    5029:	89 75 e8             	mov    %esi,-0x18(%ebp)
    502c:	39 4d e8             	cmp    %ecx,-0x18(%ebp)
    502f:	0f 87 b3 01 00 00    	ja     51e8 <memmove+0x2b8>
    5035:	8b 5d e8             	mov    -0x18(%ebp),%ebx
    5038:	4b                   	dec    %ebx
    5039:	89 5d f0             	mov    %ebx,-0x10(%ebp)
    503c:	8b 5d e8             	mov    -0x18(%ebp),%ebx
    503f:	85 db                	test   %ebx,%ebx
    5041:	0f 84 f3 01 00 00    	je     523a <memmove+0x30a>
    5047:	8d 4a 04             	lea    0x4(%edx),%ecx
    504a:	8b 5d e8             	mov    -0x18(%ebp),%ebx
    504d:	c1 eb 02             	shr    $0x2,%ebx
    5050:	39 c8                	cmp    %ecx,%eax
    5052:	0f 93 c1             	setae  %cl
    5055:	89 ce                	mov    %ecx,%esi
    5057:	8d 48 04             	lea    0x4(%eax),%ecx
    505a:	39 ca                	cmp    %ecx,%edx
    505c:	8d 3c 9d 00 00 00 00 	lea    0x0(,%ebx,4),%edi
    5063:	0f 93 c1             	setae  %cl
    5066:	09 ce                	or     %ecx,%esi
    5068:	83 7d e8 09          	cmpl   $0x9,-0x18(%ebp)
    506c:	0f 97 c1             	seta   %cl
    506f:	21 ce                	and    %ecx,%esi
    5071:	89 d1                	mov    %edx,%ecx
    5073:	09 c1                	or     %eax,%ecx
    5075:	83 e1 03             	and    $0x3,%ecx
    5078:	89 f1                	mov    %esi,%ecx
    507a:	0f 94 45 ec          	sete   -0x14(%ebp)
    507e:	84 4d ec             	test   %cl,-0x14(%ebp)
    5081:	0f 84 c1 01 00 00    	je     5248 <memmove+0x318>
    5087:	85 ff                	test   %edi,%edi
    5089:	0f 84 b9 01 00 00    	je     5248 <memmove+0x318>
    508f:	31 c9                	xor    %ecx,%ecx
    5091:	8d b4 26 00 00 00 00 	lea    0x0(%esi,%eiz,1),%esi
    5098:	8b 34 8a             	mov    (%edx,%ecx,4),%esi
    509b:	89 34 88             	mov    %esi,(%eax,%ecx,4)
    509e:	41                   	inc    %ecx
    509f:	39 cb                	cmp    %ecx,%ebx
    50a1:	77 f5                	ja     5098 <memmove+0x168>
    50a3:	8b 4d f0             	mov    -0x10(%ebp),%ecx
    50a6:	8d 1c 3a             	lea    (%edx,%edi,1),%ebx
    50a9:	29 f9                	sub    %edi,%ecx
    50ab:	8d 34 38             	lea    (%eax,%edi,1),%esi
    50ae:	89 4d f0             	mov    %ecx,-0x10(%ebp)
    50b1:	39 7d e8             	cmp    %edi,-0x18(%ebp)
    50b4:	74 18                	je     50ce <memmove+0x19e>
    50b6:	8b 7d f0             	mov    -0x10(%ebp),%edi
    50b9:	31 c9                	xor    %ecx,%ecx
    50bb:	47                   	inc    %edi
    50bc:	89 45 f0             	mov    %eax,-0x10(%ebp)
    50bf:	90                   	nop
    50c0:	8a 04 0b             	mov    (%ebx,%ecx,1),%al
    50c3:	88 04 0e             	mov    %al,(%esi,%ecx,1)
    50c6:	41                   	inc    %ecx
    50c7:	39 f9                	cmp    %edi,%ecx
    50c9:	75 f5                	jne    50c0 <memmove+0x190>
    50cb:	8b 45 f0             	mov    -0x10(%ebp),%eax
    50ce:	8b 4d e8             	mov    -0x18(%ebp),%ecx
    50d1:	8b 7d e8             	mov    -0x18(%ebp),%edi
    50d4:	01 c1                	add    %eax,%ecx
    50d6:	01 fa                	add    %edi,%edx
    50d8:	8b 5d 10             	mov    0x10(%ebp),%ebx
    50db:	2b 5d e8             	sub    -0x18(%ebp),%ebx
    50de:	0f 84 19 ff ff ff    	je     4ffd <memmove+0xcd>
    50e4:	89 de                	mov    %ebx,%esi
    50e6:	c1 ee 02             	shr    $0x2,%esi
    50e9:	8d 3c b5 00 00 00 00 	lea    0x0(,%esi,4),%edi
    50f0:	29 fb                	sub    %edi,%ebx
    50f2:	85 f6                	test   %esi,%esi
    50f4:	89 5d ec             	mov    %ebx,-0x14(%ebp)
    50f7:	74 1c                	je     5115 <memmove+0x1e5>
    50f9:	31 db                	xor    %ebx,%ebx
    50fb:	89 45 f0             	mov    %eax,-0x10(%ebp)
    50fe:	66 90                	xchg   %ax,%ax
    5100:	8b 04 9a             	mov    (%edx,%ebx,4),%eax
    5103:	89 04 99             	mov    %eax,(%ecx,%ebx,4)
    5106:	43                   	inc    %ebx
    5107:	39 f3                	cmp    %esi,%ebx
    5109:	75 f5                	jne    5100 <memmove+0x1d0>
    510b:	8b 45 f0             	mov    -0x10(%ebp),%eax
    510e:	01 f9                	add    %edi,%ecx
    5110:	01 fa                	add    %edi,%edx
    5112:	8b 5d ec             	mov    -0x14(%ebp),%ebx
    5115:	4b                   	dec    %ebx
    5116:	8b 75 ec             	mov    -0x14(%ebp),%esi
    5119:	89 5d e8             	mov    %ebx,-0x18(%ebp)
    511c:	85 f6                	test   %esi,%esi
    511e:	0f 84 d9 fe ff ff    	je     4ffd <memmove+0xcd>
    5124:	8d 59 04             	lea    0x4(%ecx),%ebx
    5127:	8b 75 ec             	mov    -0x14(%ebp),%esi
    512a:	c1 ee 02             	shr    $0x2,%esi
    512d:	39 da                	cmp    %ebx,%edx
    512f:	8d 5a 04             	lea    0x4(%edx),%ebx
    5132:	0f 93 45 f0          	setae  -0x10(%ebp)
    5136:	39 d9                	cmp    %ebx,%ecx
    5138:	8d 3c b5 00 00 00 00 	lea    0x0(,%esi,4),%edi
    513f:	0f 93 c3             	setae  %bl
    5142:	08 5d f0             	or     %bl,-0x10(%ebp)
    5145:	83 7d ec 09          	cmpl   $0x9,-0x14(%ebp)
    5149:	0f 97 c3             	seta   %bl
    514c:	20 5d f0             	and    %bl,-0x10(%ebp)
    514f:	89 cb                	mov    %ecx,%ebx
    5151:	09 d3                	or     %edx,%ebx
    5153:	83 e3 03             	and    $0x3,%ebx
    5156:	0f 94 c3             	sete   %bl
    5159:	84 5d f0             	test   %bl,-0x10(%ebp)
    515c:	74 2d                	je     518b <memmove+0x25b>
    515e:	85 ff                	test   %edi,%edi
    5160:	74 29                	je     518b <memmove+0x25b>
    5162:	31 db                	xor    %ebx,%ebx
    5164:	89 45 f0             	mov    %eax,-0x10(%ebp)
    5167:	90                   	nop
    5168:	8b 04 9a             	mov    (%edx,%ebx,4),%eax
    516b:	89 04 99             	mov    %eax,(%ecx,%ebx,4)
    516e:	43                   	inc    %ebx
    516f:	39 de                	cmp    %ebx,%esi
    5171:	77 f5                	ja     5168 <memmove+0x238>
    5173:	8b 5d e8             	mov    -0x18(%ebp),%ebx
    5176:	01 fa                	add    %edi,%edx
    5178:	29 fb                	sub    %edi,%ebx
    517a:	01 f9                	add    %edi,%ecx
    517c:	8b 45 f0             	mov    -0x10(%ebp),%eax
    517f:	89 5d e8             	mov    %ebx,-0x18(%ebp)
    5182:	39 7d ec             	cmp    %edi,-0x14(%ebp)
    5185:	0f 84 72 fe ff ff    	je     4ffd <memmove+0xcd>
    518b:	8b 75 e8             	mov    -0x18(%ebp),%esi
    518e:	31 db                	xor    %ebx,%ebx
    5190:	46                   	inc    %esi
    5191:	89 c7                	mov    %eax,%edi
    5193:	90                   	nop
    5194:	8d 74 26 00          	lea    0x0(%esi,%eiz,1),%esi
    5198:	8a 04 1a             	mov    (%edx,%ebx,1),%al
    519b:	88 04 19             	mov    %al,(%ecx,%ebx,1)
    519e:	43                   	inc    %ebx
    519f:	39 f3                	cmp    %esi,%ebx
    51a1:	75 f5                	jne    5198 <memmove+0x268>
    51a3:	89 f8                	mov    %edi,%eax
    51a5:	e9 53 fe ff ff       	jmp    4ffd <memmove+0xcd>
    51aa:	8d b6 00 00 00 00    	lea    0x0(%esi),%esi
    51b0:	8b 4d 10             	mov    0x10(%ebp),%ecx
    51b3:	8b 7d 10             	mov    0x10(%ebp),%edi
    51b6:	49                   	dec    %ecx
    51b7:	01 ca                	add    %ecx,%edx
    51b9:	85 ff                	test   %edi,%edi
    51bb:	8d 1c 08             	lea    (%eax,%ecx,1),%ebx
    51be:	0f 84 39 fe ff ff    	je     4ffd <memmove+0xcd>
    51c4:	8b 75 10             	mov    0x10(%ebp),%esi
    51c7:	f7 de                	neg    %esi
    51c9:	01 f2                	add    %esi,%edx
    51cb:	01 f3                	add    %esi,%ebx
    51cd:	89 c6                	mov    %eax,%esi
    51cf:	90                   	nop
    51d0:	8a 44 0a 01          	mov    0x1(%edx,%ecx,1),%al
    51d4:	88 44 0b 01          	mov    %al,0x1(%ebx,%ecx,1)
    51d8:	49                   	dec    %ecx
    51d9:	83 f9 ff             	cmp    $0xffffffff,%ecx
    51dc:	75 f2                	jne    51d0 <memmove+0x2a0>
    51de:	83 c4 0c             	add    $0xc,%esp
    51e1:	89 f0                	mov    %esi,%eax
    51e3:	5b                   	pop    %ebx
    51e4:	5e                   	pop    %esi
    51e5:	5f                   	pop    %edi
    51e6:	5d                   	pop    %ebp
    51e7:	c3                   	ret    
    51e8:	89 4d e8             	mov    %ecx,-0x18(%ebp)
    51eb:	e9 45 fe ff ff       	jmp    5035 <memmove+0x105>
    51f0:	8b 75 10             	mov    0x10(%ebp),%esi
    51f3:	31 c9                	xor    %ecx,%ecx
    51f5:	c1 ee 02             	shr    $0x2,%esi
    51f8:	74 11                	je     520b <memmove+0x2db>
    51fa:	8d b6 00 00 00 00    	lea    0x0(%esi),%esi
    5200:	8b 1c 8a             	mov    (%edx,%ecx,4),%ebx
    5203:	89 1c 88             	mov    %ebx,(%eax,%ecx,4)
    5206:	41                   	inc    %ecx
    5207:	39 f1                	cmp    %esi,%ecx
    5209:	75 f5                	jne    5200 <memmove+0x2d0>
    520b:	8b 75 10             	mov    0x10(%ebp),%esi
    520e:	83 e6 03             	and    $0x3,%esi
    5211:	0f 84 e6 fd ff ff    	je     4ffd <memmove+0xcd>
    5217:	c1 e1 02             	shl    $0x2,%ecx
    521a:	31 db                	xor    %ebx,%ebx
    521c:	01 ca                	add    %ecx,%edx
    521e:	89 c7                	mov    %eax,%edi
    5220:	01 c1                	add    %eax,%ecx
    5222:	8d b6 00 00 00 00    	lea    0x0(%esi),%esi
    5228:	8a 04 1a             	mov    (%edx,%ebx,1),%al
    522b:	88 04 19             	mov    %al,(%ecx,%ebx,1)
    522e:	43                   	inc    %ebx
    522f:	39 de                	cmp    %ebx,%esi
    5231:	77 f5                	ja     5228 <memmove+0x2f8>
    5233:	89 f8                	mov    %edi,%eax
    5235:	e9 c3 fd ff ff       	jmp    4ffd <memmove+0xcd>
    523a:	89 c1                	mov    %eax,%ecx
    523c:	e9 97 fe ff ff       	jmp    50d8 <memmove+0x1a8>
    5241:	89 c1                	mov    %eax,%ecx
    5243:	e9 9a fd ff ff       	jmp    4fe2 <memmove+0xb2>
    5248:	89 c6                	mov    %eax,%esi
    524a:	89 d3                	mov    %edx,%ebx
    524c:	e9 65 fe ff ff       	jmp    50b6 <memmove+0x186>
    5251:	eb 0d                	jmp    5260 <bcmp>
    5253:	90                   	nop
    5254:	90                   	nop
    5255:	90                   	nop
    5256:	90                   	nop
    5257:	90                   	nop
    5258:	90                   	nop
    5259:	90                   	nop
    525a:	90                   	nop
    525b:	90                   	nop
    525c:	90                   	nop
    525d:	90                   	nop
    525e:	90                   	nop
    525f:	90                   	nop

00005260 <bcmp>:
    5260:	55                   	push   %ebp
    5261:	89 e5                	mov    %esp,%ebp
    5263:	57                   	push   %edi
    5264:	56                   	push   %esi
    5265:	53                   	push   %ebx
    5266:	8b 45 10             	mov    0x10(%ebp),%eax
    5269:	8b 7d 08             	mov    0x8(%ebp),%edi
    526c:	8b 75 0c             	mov    0xc(%ebp),%esi
    526f:	85 c0                	test   %eax,%eax
    5271:	74 1d                	je     5290 <bcmp+0x30>
    5273:	8a 0e                	mov    (%esi),%cl
    5275:	31 d2                	xor    %edx,%edx
    5277:	38 0f                	cmp    %cl,(%edi)
    5279:	74 12                	je     528d <bcmp+0x2d>
    527b:	eb 15                	jmp    5292 <bcmp+0x32>
    527d:	8d 76 00             	lea    0x0(%esi),%esi
    5280:	8a 5c 17 01          	mov    0x1(%edi,%edx,1),%bl
    5284:	8a 4c 16 01          	mov    0x1(%esi,%edx,1),%cl
    5288:	42                   	inc    %edx
    5289:	38 cb                	cmp    %cl,%bl
    528b:	75 05                	jne    5292 <bcmp+0x32>
    528d:	48                   	dec    %eax
    528e:	75 f0                	jne    5280 <bcmp+0x20>
    5290:	31 c0                	xor    %eax,%eax
    5292:	5b                   	pop    %ebx
    5293:	5e                   	pop    %esi
    5294:	5f                   	pop    %edi
    5295:	5d                   	pop    %ebp
    5296:	c3                   	ret    
    5297:	66 90                	xchg   %ax,%ax
    5299:	66 90                	xchg   %ax,%ax
    529b:	66 90                	xchg   %ax,%ax
    529d:	66 90                	xchg   %ax,%ax
    529f:	90                   	nop

000052a0 <_strtoul>:
    52a0:	55                   	push   %ebp
    52a1:	89 e5                	mov    %esp,%ebp
    52a3:	57                   	push   %edi
    52a4:	56                   	push   %esi
    52a5:	53                   	push   %ebx
    52a6:	83 ec 08             	sub    $0x8,%esp
    52a9:	89 45 f0             	mov    %eax,-0x10(%ebp)
    52ac:	8a 00                	mov    (%eax),%al
    52ae:	89 55 ec             	mov    %edx,-0x14(%ebp)
    52b1:	0f be d0             	movsbl %al,%edx
    52b4:	83 ea 09             	sub    $0x9,%edx
    52b7:	8b 5d f0             	mov    -0x10(%ebp),%ebx
    52ba:	83 fa 17             	cmp    $0x17,%edx
    52bd:	77 23                	ja     52e2 <_strtoul+0x42>
    52bf:	8b 3c 95 c0 1e 02 00 	mov    0x21ec0(,%edx,4),%edi
    52c6:	85 ff                	test   %edi,%edi
    52c8:	0f 84 94 01 00 00    	je     5462 <_strtoul+0x1c2>
    52ce:	66 90                	xchg   %ax,%ax
    52d0:	43                   	inc    %ebx
    52d1:	8a 03                	mov    (%ebx),%al
    52d3:	0f be d0             	movsbl %al,%edx
    52d6:	83 ea 09             	sub    $0x9,%edx
    52d9:	83 fa 17             	cmp    $0x17,%edx
    52dc:	0f 86 a6 00 00 00    	jbe    5388 <_strtoul+0xe8>
    52e2:	3c 2d                	cmp    $0x2d,%al
    52e4:	0f 84 1e 01 00 00    	je     5408 <_strtoul+0x168>
    52ea:	3c 2b                	cmp    $0x2b,%al
    52ec:	0f 94 c0             	sete   %al
    52ef:	25 ff 00 00 00       	and    $0xff,%eax
    52f4:	01 c3                	add    %eax,%ebx
    52f6:	85 c9                	test   %ecx,%ecx
    52f8:	0f 84 a2 00 00 00    	je     53a0 <_strtoul+0x100>
    52fe:	83 f9 24             	cmp    $0x24,%ecx
    5301:	0f 8f 21 01 00 00    	jg     5428 <_strtoul+0x188>
    5307:	83 f9 01             	cmp    $0x1,%ecx
    530a:	0f 84 18 01 00 00    	je     5428 <_strtoul+0x188>
    5310:	8a 13                	mov    (%ebx),%dl
    5312:	83 f9 10             	cmp    $0x10,%ecx
    5315:	0f 84 16 01 00 00    	je     5431 <_strtoul+0x191>
    531b:	84 d2                	test   %dl,%dl
    531d:	0f 84 2c 01 00 00    	je     544f <_strtoul+0x1af>
    5323:	89 de                	mov    %ebx,%esi
    5325:	31 c0                	xor    %eax,%eax
    5327:	eb 4a                	jmp    5373 <_strtoul+0xd3>
    5329:	8d b4 26 00 00 00 00 	lea    0x0(%esi,%eiz,1),%esi
    5330:	83 ea 57             	sub    $0x57,%edx
    5333:	81 e2 ff 00 00 00    	and    $0xff,%edx
    5339:	39 d1                	cmp    %edx,%ecx
