
usbhub:     file format elf32-i386


Disassembly of section .init:

00001094 <__entry>:
    1094:	66 8c d0             	mov    %ss,%ax
    1097:	8e d8                	mov    %eax,%ds
    1099:	8e c0                	mov    %eax,%es
    109b:	8e e0                	mov    %eax,%fs
    109d:	b8 01 00 00 00       	mov    $0x1,%eax
    10a2:	0f a2                	cpuid  
    10a4:	0f ba e2 0b          	bt     $0xb,%edx
    10a8:	73 0c                	jae    10b6 <__entry+0x22>
    10aa:	8d 05 10 26 03 00    	lea    0x32610,%eax
    10b0:	c7 00 a7 96 02 00    	movl   $0x296a7,(%eax)
    10b6:	6a 00                	push   $0x0
    10b8:	89 e5                	mov    %esp,%ebp
    10ba:	57                   	push   %edi
    10bb:	e8 60 e2 00 00       	call   f320 <__main>

Disassembly of section .text:

000010c0 <main>:
    10c0:	55                   	push   %ebp
    10c1:	89 e5                	mov    %esp,%ebp
    10c3:	83 e4 f0             	and    $0xfffffff0,%esp
    10c6:	83 ec 10             	sub    $0x10,%esp
    10c9:	c7 04 24 74 dc 02 00 	movl   $0x2dc74,(%esp)
    10d0:	e8 cb 87 01 00       	call   198a0 <printf>
    10d5:	c7 04 24 95 dc 02 00 	movl   $0x2dc95,(%esp)
    10dc:	e8 9f 88 01 00       	call   19980 <log_init>
    10e1:	c7 04 24 9c dc 02 00 	movl   $0x2dc9c,(%esp)
    10e8:	e8 a3 19 00 00       	call   2a90 <usb_driver_main>
    10ed:	c9                   	leave  
    10ee:	c3                   	ret    
    10ef:	90                   	nop

000010f0 <hub_port_changes_callback>:
    10f0:	55                   	push   %ebp
    10f1:	89 e5                	mov    %esp,%ebp
    10f3:	57                   	push   %edi
    10f4:	56                   	push   %esi
    10f5:	53                   	push   %ebx
    10f6:	83 ec 4c             	sub    $0x4c,%esp
    10f9:	8b 75 14             	mov    0x14(%ebp),%esi
    10fc:	c7 44 24 08 cc dc 02 	movl   $0x2dccc,0x8(%esp)
    1103:	00 
    1104:	c7 44 24 04 04 00 00 	movl   $0x4,0x4(%esp)
    110b:	00 
    110c:	c7 04 24 ff ff ff ff 	movl   $0xffffffff,(%esp)
    1113:	e8 38 8a 01 00       	call   19b50 <log_msg>
    1118:	85 f6                	test   %esi,%esi
    111a:	0f 84 8c 02 00 00    	je     13ac <hub_port_changes_callback+0x2bc>
    1120:	8b 4d 10             	mov    0x10(%ebp),%ecx
    1123:	85 c9                	test   %ecx,%ecx
    1125:	74 69                	je     1190 <hub_port_changes_callback+0xa0>
    1127:	8b 45 0c             	mov    0xc(%ebp),%eax
    112a:	f6 00 01             	testb  $0x1,(%eax)
    112d:	75 71                	jne    11a0 <hub_port_changes_callback+0xb0>
    112f:	8b 06                	mov    (%esi),%eax
    1131:	31 ff                	xor    %edi,%edi
    1133:	31 db                	xor    %ebx,%ebx
    1135:	8d 50 01             	lea    0x1(%eax),%edx
    1138:	eb 09                	jmp    1143 <hub_port_changes_callback+0x53>
    113a:	8d b6 00 00 00 00    	lea    0x0(%esi),%esi
    1140:	83 c7 2c             	add    $0x2c,%edi
    1143:	39 d3                	cmp    %edx,%ebx
    1145:	73 39                	jae    1180 <hub_port_changes_callback+0x90>
    1147:	43                   	inc    %ebx
    1148:	8b 4d 0c             	mov    0xc(%ebp),%ecx
    114b:	89 d8                	mov    %ebx,%eax
    114d:	c1 e8 03             	shr    $0x3,%eax
    1150:	8a 04 01             	mov    (%ecx,%eax,1),%al
    1153:	89 d9                	mov    %ebx,%ecx
    1155:	25 ff 00 00 00       	and    $0xff,%eax
    115a:	83 e1 07             	and    $0x7,%ecx
    115d:	d3 f8                	sar    %cl,%eax
    115f:	a8 01                	test   $0x1,%al
    1161:	74 dd                	je     1140 <hub_port_changes_callback+0x50>
    1163:	89 74 24 04          	mov    %esi,0x4(%esp)
    1167:	8b 46 04             	mov    0x4(%esi),%eax
    116a:	01 f8                	add    %edi,%eax
    116c:	89 04 24             	mov    %eax,(%esp)
    116f:	e8 5c 12 00 00       	call   23d0 <usb_hub_port_process_interrupt>
    1174:	8b 06                	mov    (%esi),%eax
    1176:	8d 50 01             	lea    0x1(%eax),%edx
    1179:	eb c5                	jmp    1140 <hub_port_changes_callback+0x50>
    117b:	90                   	nop
    117c:	8d 74 26 00          	lea    0x0(%esi,%eiz,1),%esi
    1180:	83 c4 4c             	add    $0x4c,%esp
    1183:	b0 01                	mov    $0x1,%al
    1185:	5b                   	pop    %ebx
    1186:	5e                   	pop    %esi
    1187:	5f                   	pop    %edi
    1188:	5d                   	pop    %ebp
    1189:	c3                   	ret    
    118a:	8d b6 00 00 00 00    	lea    0x0(%esi),%esi
    1190:	83 c4 4c             	add    $0x4c,%esp
    1193:	31 c0                	xor    %eax,%eax
    1195:	5b                   	pop    %ebx
    1196:	5e                   	pop    %esi
    1197:	5f                   	pop    %edi
    1198:	5d                   	pop    %ebp
    1199:	c3                   	ret    
    119a:	8d b6 00 00 00 00    	lea    0x0(%esi),%esi
    11a0:	8b 56 08             	mov    0x8(%esi),%edx
    11a3:	85 d2                	test   %edx,%edx
    11a5:	0f 84 1d 02 00 00    	je     13c8 <hub_port_changes_callback+0x2d8>
    11ab:	c7 44 24 08 04 dd 02 	movl   $0x2dd04,0x8(%esp)
    11b2:	00 
    11b3:	c7 44 24 04 04 00 00 	movl   $0x4,0x4(%esp)
    11ba:	00 
    11bb:	c7 04 24 ff ff ff ff 	movl   $0xffffffff,(%esp)
    11c2:	e8 89 89 01 00       	call   19b50 <log_msg>
    11c7:	8b 5e 08             	mov    0x8(%esi),%ebx
    11ca:	8d 45 e4             	lea    -0x1c(%ebp),%eax
    11cd:	83 c3 24             	add    $0x24,%ebx
    11d0:	89 44 24 14          	mov    %eax,0x14(%esp)
    11d4:	8d 45 e0             	lea    -0x20(%ebp),%eax
    11d7:	c7 44 24 10 04 00 00 	movl   $0x4,0x10(%esp)
    11de:	00 
    11df:	89 44 24 0c          	mov    %eax,0xc(%esp)
    11e3:	c7 44 24 08 08 00 00 	movl   $0x8,0x8(%esp)
    11ea:	00 
    11eb:	c7 44 24 04 ea e1 02 	movl   $0x2e1ea,0x4(%esp)
    11f2:	00 
    11f3:	89 1c 24             	mov    %ebx,(%esp)
    11f6:	e8 15 2f 00 00       	call   4110 <usb_pipe_control_read>
    11fb:	85 c0                	test   %eax,%eax
    11fd:	75 69                	jne    1268 <hub_port_changes_callback+0x178>
    11ff:	83 7d e4 04          	cmpl   $0x4,-0x1c(%ebp)
    1203:	74 21                	je     1226 <hub_port_changes_callback+0x136>
    1205:	c7 44 24 08 ec dd 02 	movl   $0x2ddec,0x8(%esp)
    120c:	00 
    120d:	c7 44 24 04 01 00 00 	movl   $0x1,0x4(%esp)
    1214:	00 
    1215:	c7 04 24 ff ff ff ff 	movl   $0xffffffff,(%esp)
    121c:	e8 2f 89 01 00       	call   19b50 <log_msg>
    1221:	e9 09 ff ff ff       	jmp    112f <hub_port_changes_callback+0x3f>
    1226:	8b 45 e0             	mov    -0x20(%ebp),%eax
    1229:	a9 00 00 02 00       	test   $0x20000,%eax
    122e:	75 65                	jne    1295 <hub_port_changes_callback+0x1a5>
    1230:	a9 00 00 01 00       	test   $0x10000,%eax
    1235:	0f 84 f4 fe ff ff    	je     112f <hub_port_changes_callback+0x3f>
    123b:	c7 44 24 10 00 00 00 	movl   $0x0,0x10(%esp)
    1242:	00 
    1243:	c7 44 24 0c 00 00 00 	movl   $0x0,0xc(%esp)
    124a:	00 
    124b:	c7 44 24 08 00 00 00 	movl   $0x0,0x8(%esp)
    1252:	00 
    1253:	c7 44 24 04 01 00 00 	movl   $0x1,0x4(%esp)
    125a:	00 
    125b:	89 1c 24             	mov    %ebx,(%esp)
    125e:	e8 1d 4d 00 00       	call   5f80 <usb_request_clear_feature>
    1263:	e9 c7 fe ff ff       	jmp    112f <hub_port_changes_callback+0x3f>
    1268:	89 04 24             	mov    %eax,(%esp)
    126b:	e8 10 3c 01 00       	call   14e80 <str_error>
    1270:	c7 44 24 08 1f dd 02 	movl   $0x2dd1f,0x8(%esp)
    1277:	00 
    1278:	89 44 24 0c          	mov    %eax,0xc(%esp)
    127c:	c7 44 24 04 01 00 00 	movl   $0x1,0x4(%esp)
    1283:	00 
    1284:	c7 04 24 ff ff ff ff 	movl   $0xffffffff,(%esp)
    128b:	e8 c0 88 01 00       	call   19b50 <log_msg>
    1290:	e9 9a fe ff ff       	jmp    112f <hub_port_changes_callback+0x3f>
    1295:	a8 02                	test   $0x2,%al
    1297:	0f 85 86 00 00 00    	jne    1323 <hub_port_changes_callback+0x233>
    129d:	80 7e 2d 00          	cmpb   $0x0,0x2d(%esi)
    12a1:	0f 84 98 00 00 00    	je     133f <hub_port_changes_callback+0x24f>
    12a7:	8b 06                	mov    (%esi),%eax
    12a9:	85 c0                	test   %eax,%eax
    12ab:	0f 84 8e 00 00 00    	je     133f <hub_port_changes_callback+0x24f>
    12b1:	31 d2                	xor    %edx,%edx
    12b3:	89 5d d4             	mov    %ebx,-0x2c(%ebp)
    12b6:	31 ff                	xor    %edi,%edi
    12b8:	89 d3                	mov    %edx,%ebx
    12ba:	eb 1a                	jmp    12d6 <hub_port_changes_callback+0x1e6>
    12bc:	8d 74 26 00          	lea    0x0(%esi,%eiz,1),%esi
    12c0:	80 7e 2e 00          	cmpb   $0x0,0x2e(%esi)
    12c4:	0f 84 af 00 00 00    	je     1379 <hub_port_changes_callback+0x289>
    12ca:	43                   	inc    %ebx
    12cb:	83 c7 2c             	add    $0x2c,%edi
    12ce:	3b 1e                	cmp    (%esi),%ebx
    12d0:	0f 83 a3 00 00 00    	jae    1379 <hub_port_changes_callback+0x289>
    12d6:	c7 44 24 04 08 00 00 	movl   $0x8,0x4(%esp)
    12dd:	00 
    12de:	8b 46 04             	mov    0x4(%esi),%eax
    12e1:	01 f8                	add    %edi,%eax
    12e3:	89 04 24             	mov    %eax,(%esp)
    12e6:	e8 15 10 00 00       	call   2300 <usb_hub_port_set_feature>
    12eb:	85 c0                	test   %eax,%eax
    12ed:	74 d1                	je     12c0 <hub_port_changes_callback+0x1d0>
    12ef:	89 04 24             	mov    %eax,(%esp)
    12f2:	e8 89 3b 01 00       	call   14e80 <str_error>
    12f7:	89 44 24 10          	mov    %eax,0x10(%esp)
    12fb:	8b 46 04             	mov    0x4(%esi),%eax
    12fe:	8b 04 38             	mov    (%eax,%edi,1),%eax
    1301:	c7 44 24 08 58 de 02 	movl   $0x2de58,0x8(%esp)
    1308:	00 
    1309:	89 44 24 0c          	mov    %eax,0xc(%esp)
    130d:	c7 44 24 04 02 00 00 	movl   $0x2,0x4(%esp)
    1314:	00 
    1315:	c7 04 24 ff ff ff ff 	movl   $0xffffffff,(%esp)
    131c:	e8 2f 88 01 00       	call   19b50 <log_msg>
    1321:	eb a7                	jmp    12ca <hub_port_changes_callback+0x1da>
    1323:	c7 44 24 08 10 de 02 	movl   $0x2de10,0x8(%esp)
    132a:	00 
    132b:	c7 44 24 04 02 00 00 	movl   $0x2,0x4(%esp)
    1332:	00 
    1333:	c7 04 24 ff ff ff ff 	movl   $0xffffffff,(%esp)
    133a:	e8 11 88 01 00       	call   19b50 <log_msg>
    133f:	c7 44 24 10 00 00 00 	movl   $0x0,0x10(%esp)
    1346:	00 
    1347:	c7 44 24 0c 01 00 00 	movl   $0x1,0xc(%esp)
    134e:	00 
    134f:	c7 44 24 08 00 00 00 	movl   $0x0,0x8(%esp)
    1356:	00 
    1357:	c7 44 24 04 01 00 00 	movl   $0x1,0x4(%esp)
    135e:	00 
    135f:	8b 46 08             	mov    0x8(%esi),%eax
    1362:	83 c0 24             	add    $0x24,%eax
    1365:	89 04 24             	mov    %eax,(%esp)
    1368:	e8 13 4c 00 00       	call   5f80 <usb_request_clear_feature>
    136d:	85 c0                	test   %eax,%eax
    136f:	75 0d                	jne    137e <hub_port_changes_callback+0x28e>
    1371:	8b 45 e0             	mov    -0x20(%ebp),%eax
    1374:	e9 b7 fe ff ff       	jmp    1230 <hub_port_changes_callback+0x140>
    1379:	8b 5d d4             	mov    -0x2c(%ebp),%ebx
    137c:	eb c1                	jmp    133f <hub_port_changes_callback+0x24f>
    137e:	c7 04 24 00 00 00 00 	movl   $0x0,(%esp)
    1385:	e8 f6 3a 01 00       	call   14e80 <str_error>
    138a:	c7 44 24 08 90 de 02 	movl   $0x2de90,0x8(%esp)
    1391:	00 
    1392:	89 44 24 0c          	mov    %eax,0xc(%esp)
    1396:	c7 44 24 04 01 00 00 	movl   $0x1,0x4(%esp)
    139d:	00 
    139e:	c7 04 24 ff ff ff ff 	movl   $0xffffffff,(%esp)
    13a5:	e8 a6 87 01 00       	call   19b50 <log_msg>
    13aa:	eb c5                	jmp    1371 <hub_port_changes_callback+0x281>
    13ac:	c7 44 24 08 eb 00 00 	movl   $0xeb,0x8(%esp)
    13b3:	00 
    13b4:	c7 44 24 04 e7 dc 02 	movl   $0x2dce7,0x4(%esp)
    13bb:	00 
    13bc:	c7 04 24 98 dc 02 00 	movl   $0x2dc98,(%esp)
    13c3:	e8 88 80 02 00       	call   29450 <assert_abort>
    13c8:	c7 44 24 08 ac 01 00 	movl   $0x1ac,0x8(%esp)
    13cf:	00 
    13d0:	c7 44 24 04 e7 dc 02 	movl   $0x2dce7,0x4(%esp)
    13d7:	00 
    13d8:	c7 04 24 f0 dc 02 00 	movl   $0x2dcf0,(%esp)
    13df:	e8 6c 80 02 00       	call   29450 <assert_abort>
    13e4:	8d b6 00 00 00 00    	lea    0x0(%esi),%esi
    13ea:	8d bf 00 00 00 00    	lea    0x0(%edi),%edi

000013f0 <usb_hub_polling_terminated_callback>:
    13f0:	55                   	push   %ebp
    13f1:	89 e5                	mov    %esp,%ebp
    13f3:	57                   	push   %edi
    13f4:	56                   	push   %esi
    13f5:	53                   	push   %ebx
    13f6:	83 ec 2c             	sub    $0x2c,%esp
    13f9:	8b 5d 10             	mov    0x10(%ebp),%ebx
    13fc:	85 db                	test   %ebx,%ebx
    13fe:	74 77                	je     1477 <usb_hub_polling_terminated_callback+0x87>
    1400:	8d 7b 10             	lea    0x10(%ebx),%edi
    1403:	89 3c 24             	mov    %edi,(%esp)
    1406:	e8 65 44 01 00       	call   15870 <fibril_mutex_lock>
    140b:	8b 43 0c             	mov    0xc(%ebx),%eax
    140e:	85 c0                	test   %eax,%eax
    1410:	74 51                	je     1463 <usb_hub_polling_terminated_callback+0x73>
    1412:	8b 03                	mov    (%ebx),%eax
    1414:	31 f6                	xor    %esi,%esi
    1416:	c7 45 e4 00 00 00 00 	movl   $0x0,-0x1c(%ebp)
    141d:	85 c0                	test   %eax,%eax
    141f:	74 2c                	je     144d <usb_hub_polling_terminated_callback+0x5d>
    1421:	8d b4 26 00 00 00 00 	lea    0x0(%esi,%eiz,1),%esi
    1428:	8b 43 04             	mov    0x4(%ebx),%eax
    142b:	8b 55 e4             	mov    -0x1c(%ebp),%edx
    142e:	01 c2                	add    %eax,%edx
    1430:	46                   	inc    %esi
    1431:	89 14 24             	mov    %edx,(%esp)
    1434:	e8 37 0f 00 00       	call   2370 <usb_hub_port_reset_fail>
    1439:	8b 45 e4             	mov    -0x1c(%ebp),%eax
    143c:	83 c0 2c             	add    $0x2c,%eax
    143f:	39 33                	cmp    %esi,(%ebx)
    1441:	89 45 e4             	mov    %eax,-0x1c(%ebp)
    1444:	77 e2                	ja     1428 <usb_hub_polling_terminated_callback+0x38>
    1446:	8b 43 0c             	mov    0xc(%ebx),%eax
    1449:	85 c0                	test   %eax,%eax
    144b:	74 16                	je     1463 <usb_hub_polling_terminated_callback+0x73>
    144d:	8d 73 20             	lea    0x20(%ebx),%esi
    1450:	89 7c 24 04          	mov    %edi,0x4(%esp)
    1454:	89 34 24             	mov    %esi,(%esp)
    1457:	e8 64 50 01 00       	call   164c0 <fibril_condvar_wait>
    145c:	8b 43 0c             	mov    0xc(%ebx),%eax
    145f:	85 c0                	test   %eax,%eax
    1461:	75 ed                	jne    1450 <usb_hub_polling_terminated_callback+0x60>
    1463:	89 3c 24             	mov    %edi,(%esp)
    1466:	e8 25 45 01 00       	call   15990 <fibril_mutex_unlock>
    146b:	c6 43 2c 00          	movb   $0x0,0x2c(%ebx)
    146f:	83 c4 2c             	add    $0x2c,%esp
    1472:	5b                   	pop    %ebx
    1473:	5e                   	pop    %esi
    1474:	5f                   	pop    %edi
    1475:	5d                   	pop    %ebp
    1476:	c3                   	ret    
    1477:	c7 44 24 08 f4 01 00 	movl   $0x1f4,0x8(%esp)
    147e:	00 
    147f:	c7 44 24 04 e7 dc 02 	movl   $0x2dce7,0x4(%esp)
    1486:	00 
    1487:	c7 04 24 98 dc 02 00 	movl   $0x2dc98,(%esp)
    148e:	e8 bd 7f 02 00       	call   29450 <assert_abort>
    1493:	8d b6 00 00 00 00    	lea    0x0(%esi),%esi
    1499:	8d bc 27 00 00 00 00 	lea    0x0(%edi,%eiz,1),%edi

000014a0 <usb_hub_device_add>:
    14a0:	55                   	push   %ebp
    14a1:	89 e5                	mov    %esp,%ebp
    14a3:	57                   	push   %edi
    14a4:	56                   	push   %esi
    14a5:	53                   	push   %ebx
    14a6:	83 ec 5c             	sub    $0x5c,%esp
    14a9:	8b 75 08             	mov    0x8(%ebp),%esi
    14ac:	85 f6                	test   %esi,%esi
    14ae:	0f 84 55 06 00 00    	je     1b09 <usb_hub_device_add+0x669>
    14b4:	c7 44 24 04 30 00 00 	movl   $0x30,0x4(%esp)
    14bb:	00 
    14bc:	89 34 24             	mov    %esi,(%esp)
    14bf:	e8 3c 21 00 00       	call   3600 <usb_device_data_alloc>
    14c4:	89 c3                	mov    %eax,%ebx
    14c6:	85 c0                	test   %eax,%eax
    14c8:	0f 84 be 05 00 00    	je     1a8c <usb_hub_device_add+0x5ec>
    14ce:	89 70 08             	mov    %esi,0x8(%eax)
    14d1:	c7 40 0c 00 00 00 00 	movl   $0x0,0xc(%eax)
    14d8:	c6 40 2c 00          	movb   $0x0,0x2c(%eax)
    14dc:	8d 40 10             	lea    0x10(%eax),%eax
    14df:	89 04 24             	mov    %eax,(%esp)
    14e2:	e8 69 43 01 00       	call   15850 <fibril_mutex_initialize>
    14e7:	8d 43 20             	lea    0x20(%ebx),%eax
    14ea:	89 04 24             	mov    %eax,(%esp)
    14ed:	e8 ee 49 01 00       	call   15ee0 <fibril_condvar_initialize>
    14f2:	8d 46 24             	lea    0x24(%esi),%eax
    14f5:	89 04 24             	mov    %eax,(%esp)
    14f8:	89 45 d0             	mov    %eax,-0x30(%ebp)
    14fb:	e8 10 2b 00 00       	call   4010 <usb_pipe_start_long_transfer>
    1500:	89 c7                	mov    %eax,%edi
    1502:	85 c0                	test   %eax,%eax
    1504:	0f 85 de 02 00 00    	jne    17e8 <usb_hub_device_add+0x348>
    150a:	8a 46 65             	mov    0x65(%esi),%al
    150d:	c7 44 24 08 45 dd 02 	movl   $0x2dd45,0x8(%esp)
    1514:	00 
    1515:	25 ff 00 00 00       	and    $0xff,%eax
    151a:	c7 44 24 04 04 00 00 	movl   $0x4,0x4(%esp)
    1521:	00 
    1522:	89 c7                	mov    %eax,%edi
    1524:	89 44 24 0c          	mov    %eax,0xc(%esp)
    1528:	c7 04 24 ff ff ff ff 	movl   $0xffffffff,(%esp)
    152f:	e8 1c 86 01 00       	call   19b50 <log_msg>
    1534:	85 ff                	test   %edi,%edi
    1536:	0f 84 2a 05 00 00    	je     1a66 <usb_hub_device_add+0x5c6>
    153c:	83 7e 6c 08          	cmpl   $0x8,0x6c(%esi)
    1540:	0f 86 fa 04 00 00    	jbe    1a40 <usb_hub_device_add+0x5a0>
    1546:	8b 76 68             	mov    0x68(%esi),%esi
    1549:	31 c0                	xor    %eax,%eax
    154b:	8a 46 05             	mov    0x5(%esi),%al
    154e:	89 44 24 04          	mov    %eax,0x4(%esp)
    1552:	8b 45 d0             	mov    -0x30(%ebp),%eax
    1555:	89 04 24             	mov    %eax,(%esp)
    1558:	e8 33 52 00 00       	call   6790 <usb_request_set_configuration>
    155d:	89 c7                	mov    %eax,%edi
    155f:	85 c0                	test   %eax,%eax
    1561:	74 65                	je     15c8 <usb_hub_device_add+0x128>
    1563:	89 04 24             	mov    %eax,(%esp)
    1566:	e8 15 39 01 00       	call   14e80 <str_error>
    156b:	c7 44 24 08 9c df 02 	movl   $0x2df9c,0x8(%esp)
    1572:	00 
    1573:	89 44 24 0c          	mov    %eax,0xc(%esp)
    1577:	c7 44 24 04 01 00 00 	movl   $0x1,0x4(%esp)
    157e:	00 
    157f:	c7 04 24 ff ff ff ff 	movl   $0xffffffff,(%esp)
    1586:	e8 c5 85 01 00       	call   19b50 <log_msg>
    158b:	8b 45 d0             	mov    -0x30(%ebp),%eax
    158e:	89 04 24             	mov    %eax,(%esp)
    1591:	e8 fa 2a 00 00       	call   4090 <usb_pipe_end_long_transfer>
    1596:	89 3c 24             	mov    %edi,(%esp)
    1599:	e8 e2 38 01 00       	call   14e80 <str_error>
    159e:	c7 44 24 08 28 e1 02 	movl   $0x2e128,0x8(%esp)
    15a5:	00 
    15a6:	89 44 24 0c          	mov    %eax,0xc(%esp)
    15aa:	c7 44 24 04 01 00 00 	movl   $0x1,0x4(%esp)
    15b1:	00 
    15b2:	c7 04 24 ff ff ff ff 	movl   $0xffffffff,(%esp)
    15b9:	e8 92 85 01 00       	call   19b50 <log_msg>
    15be:	83 c4 5c             	add    $0x5c,%esp
    15c1:	89 f8                	mov    %edi,%eax
    15c3:	5b                   	pop    %ebx
    15c4:	5e                   	pop    %esi
    15c5:	5f                   	pop    %edi
    15c6:	5d                   	pop    %ebp
    15c7:	c3                   	ret    
    15c8:	31 c0                	xor    %eax,%eax
    15ca:	8a 46 05             	mov    0x5(%esi),%al
    15cd:	c7 44 24 08 62 dd 02 	movl   $0x2dd62,0x8(%esp)
    15d4:	00 
    15d5:	89 44 24 0c          	mov    %eax,0xc(%esp)
    15d9:	c7 44 24 04 04 00 00 	movl   $0x4,0x4(%esp)
    15e0:	00 
    15e1:	c7 04 24 ff ff ff ff 	movl   $0xffffffff,(%esp)
    15e8:	e8 63 85 01 00       	call   19b50 <log_msg>
    15ed:	c7 44 24 08 7a dd 02 	movl   $0x2dd7a,0x8(%esp)
    15f4:	00 
    15f5:	c7 44 24 04 04 00 00 	movl   $0x4,0x4(%esp)
    15fc:	00 
    15fd:	c7 04 24 ff ff ff ff 	movl   $0xffffffff,(%esp)
    1604:	e8 47 85 01 00       	call   19b50 <log_msg>
    1609:	8b 43 08             	mov    0x8(%ebx),%eax
    160c:	83 c0 24             	add    $0x24,%eax
    160f:	c7 44 24 1c 07 00 00 	movl   $0x7,0x1c(%esp)
    1616:	00 
    1617:	89 45 cc             	mov    %eax,-0x34(%ebp)
    161a:	8d 45 dc             	lea    -0x24(%ebp),%eax
    161d:	89 44 24 20          	mov    %eax,0x20(%esp)
    1621:	8d 45 e0             	lea    -0x20(%ebp),%eax
    1624:	89 44 24 18          	mov    %eax,0x18(%esp)
    1628:	8b 45 cc             	mov    -0x34(%ebp),%eax
    162b:	c7 44 24 14 00 00 00 	movl   $0x0,0x14(%esp)
    1632:	00 
    1633:	c7 44 24 10 00 00 00 	movl   $0x0,0x10(%esp)
    163a:	00 
    163b:	c7 44 24 0c 29 00 00 	movl   $0x29,0xc(%esp)
    1642:	00 
    1643:	c7 44 24 08 00 00 00 	movl   $0x0,0x8(%esp)
    164a:	00 
    164b:	c7 44 24 04 01 00 00 	movl   $0x1,0x4(%esp)
    1652:	00 
    1653:	89 04 24             	mov    %eax,(%esp)
    1656:	e8 25 4a 00 00       	call   6080 <usb_request_get_descriptor>
    165b:	89 c7                	mov    %eax,%edi
    165d:	85 c0                	test   %eax,%eax
    165f:	0f 85 bb 01 00 00    	jne    1820 <usb_hub_device_add+0x380>
    1665:	31 c0                	xor    %eax,%eax
    1667:	c7 44 24 08 91 dd 02 	movl   $0x2dd91,0x8(%esp)
    166e:	00 
    166f:	8a 45 e2             	mov    -0x1e(%ebp),%al
    1672:	c7 44 24 04 04 00 00 	movl   $0x4,0x4(%esp)
    1679:	00 
    167a:	89 44 24 0c          	mov    %eax,0xc(%esp)
    167e:	c7 04 24 ff ff ff ff 	movl   $0xffffffff,(%esp)
    1685:	e8 c6 84 01 00       	call   19b50 <log_msg>
    168a:	31 c0                	xor    %eax,%eax
    168c:	8a 45 e2             	mov    -0x1e(%ebp),%al
    168f:	89 03                	mov    %eax,(%ebx)
    1691:	c7 44 24 04 2c 00 00 	movl   $0x2c,0x4(%esp)
    1698:	00 
    1699:	89 04 24             	mov    %eax,(%esp)
    169c:	e8 ef d4 01 00       	call   1eb90 <calloc>
    16a1:	89 c6                	mov    %eax,%esi
    16a3:	89 43 04             	mov    %eax,0x4(%ebx)
    16a6:	85 c0                	test   %eax,%eax
    16a8:	0f 84 35 04 00 00    	je     1ae3 <usb_hub_device_add+0x643>
    16ae:	8b 03                	mov    (%ebx),%eax
    16b0:	c7 45 d4 2c 00 00 00 	movl   $0x2c,-0x2c(%ebp)
    16b7:	bf 01 00 00 00       	mov    $0x1,%edi
    16bc:	85 c0                	test   %eax,%eax
    16be:	75 22                	jne    16e2 <usb_hub_device_add+0x242>
    16c0:	eb 4f                	jmp    1711 <usb_hub_device_add+0x271>
    16c2:	8d b6 00 00 00 00    	lea    0x0(%esi),%esi
    16c8:	8b 75 d4             	mov    -0x2c(%ebp),%esi
    16cb:	8b 45 d4             	mov    -0x2c(%ebp),%eax
    16ce:	8b 4b 04             	mov    0x4(%ebx),%ecx
    16d1:	83 c0 2c             	add    $0x2c,%eax
    16d4:	01 ce                	add    %ecx,%esi
    16d6:	47                   	inc    %edi
    16d7:	89 45 d4             	mov    %eax,-0x2c(%ebp)
    16da:	85 f6                	test   %esi,%esi
    16dc:	0f 84 0b 04 00 00    	je     1aed <usb_hub_device_add+0x64d>
    16e2:	8d 4e 08             	lea    0x8(%esi),%ecx
    16e5:	8b 45 cc             	mov    -0x34(%ebp),%eax
    16e8:	89 46 04             	mov    %eax,0x4(%esi)
    16eb:	66 c7 46 24 ff ff    	movw   $0xffff,0x24(%esi)
    16f1:	c7 46 28 00 00 00 00 	movl   $0x0,0x28(%esi)
    16f8:	89 3e                	mov    %edi,(%esi)
    16fa:	89 0c 24             	mov    %ecx,(%esp)
    16fd:	83 c6 18             	add    $0x18,%esi
    1700:	e8 4b 41 01 00       	call   15850 <fibril_mutex_initialize>
    1705:	89 34 24             	mov    %esi,(%esp)
    1708:	e8 d3 47 01 00       	call   15ee0 <fibril_condvar_initialize>
    170d:	3b 3b                	cmp    (%ebx),%edi
    170f:	72 b7                	jb     16c8 <usb_hub_device_add+0x228>
    1711:	8a 45 e3             	mov    -0x1d(%ebp),%al
    1714:	8a 55 e3             	mov    -0x1d(%ebp),%dl
    1717:	d0 e8                	shr    %al
    1719:	83 e2 01             	and    $0x1,%edx
    171c:	83 f0 01             	xor    $0x1,%eax
    171f:	88 53 2e             	mov    %dl,0x2e(%ebx)
    1722:	83 e0 01             	and    $0x1,%eax
    1725:	80 63 2e 01          	andb   $0x1,0x2e(%ebx)
    1729:	88 43 2d             	mov    %al,0x2d(%ebx)
    172c:	84 c0                	test   %al,%al
    172e:	0f 84 54 01 00 00    	je     1888 <usb_hub_device_add+0x3e8>
    1734:	c7 44 24 08 24 e0 02 	movl   $0x2e024,0x8(%esp)
    173b:	00 
    173c:	c7 44 24 04 03 00 00 	movl   $0x3,0x4(%esp)
    1743:	00 
    1744:	c7 04 24 ff ff ff ff 	movl   $0xffffffff,(%esp)
    174b:	e8 00 84 01 00       	call   19b50 <log_msg>
    1750:	8b 13                	mov    (%ebx),%edx
    1752:	85 d2                	test   %edx,%edx
    1754:	0f 84 4a 01 00 00    	je     18a4 <usb_hub_device_add+0x404>
    175a:	31 f6                	xor    %esi,%esi
    175c:	31 ff                	xor    %edi,%edi
    175e:	eb 16                	jmp    1776 <usb_hub_device_add+0x2d6>
    1760:	80 7b 2e 00          	cmpb   $0x0,0x2e(%ebx)
    1764:	0f 84 5e 02 00 00    	je     19c8 <usb_hub_device_add+0x528>
    176a:	47                   	inc    %edi
    176b:	83 c6 2c             	add    $0x2c,%esi
    176e:	3b 3b                	cmp    (%ebx),%edi
    1770:	0f 83 2e 01 00 00    	jae    18a4 <usb_hub_device_add+0x404>
    1776:	89 7c 24 0c          	mov    %edi,0xc(%esp)
    177a:	c7 44 24 08 b8 dd 02 	movl   $0x2ddb8,0x8(%esp)
    1781:	00 
    1782:	c7 44 24 04 04 00 00 	movl   $0x4,0x4(%esp)
    1789:	00 
    178a:	c7 04 24 ff ff ff ff 	movl   $0xffffffff,(%esp)
    1791:	e8 ba 83 01 00       	call   19b50 <log_msg>
    1796:	c7 44 24 04 08 00 00 	movl   $0x8,0x4(%esp)
    179d:	00 
    179e:	8b 43 04             	mov    0x4(%ebx),%eax
    17a1:	01 f0                	add    %esi,%eax
    17a3:	89 04 24             	mov    %eax,(%esp)
    17a6:	e8 55 0b 00 00       	call   2300 <usb_hub_port_set_feature>
    17ab:	85 c0                	test   %eax,%eax
    17ad:	74 b1                	je     1760 <usb_hub_device_add+0x2c0>
    17af:	89 04 24             	mov    %eax,(%esp)
    17b2:	e8 c9 36 01 00       	call   14e80 <str_error>
    17b7:	89 44 24 10          	mov    %eax,0x10(%esp)
    17bb:	8b 43 04             	mov    0x4(%ebx),%eax
    17be:	8b 04 30             	mov    (%eax,%esi,1),%eax
    17c1:	c7 44 24 08 48 e0 02 	movl   $0x2e048,0x8(%esp)
    17c8:	00 
    17c9:	89 44 24 0c          	mov    %eax,0xc(%esp)
    17cd:	c7 44 24 04 01 00 00 	movl   $0x1,0x4(%esp)
    17d4:	00 
    17d5:	c7 04 24 ff ff ff ff 	movl   $0xffffffff,(%esp)
    17dc:	e8 6f 83 01 00       	call   19b50 <log_msg>
    17e1:	eb 87                	jmp    176a <usb_hub_device_add+0x2ca>
    17e3:	90                   	nop
    17e4:	8d 74 26 00          	lea    0x0(%esi,%eiz,1),%esi
    17e8:	89 04 24             	mov    %eax,(%esp)
    17eb:	e8 90 36 01 00       	call   14e80 <str_error>
    17f0:	c7 44 24 08 ec de 02 	movl   $0x2deec,0x8(%esp)
    17f7:	00 
    17f8:	89 44 24 0c          	mov    %eax,0xc(%esp)
    17fc:	c7 44 24 04 01 00 00 	movl   $0x1,0x4(%esp)
    1803:	00 
    1804:	c7 04 24 ff ff ff ff 	movl   $0xffffffff,(%esp)
    180b:	e8 40 83 01 00       	call   19b50 <log_msg>
    1810:	83 c4 5c             	add    $0x5c,%esp
    1813:	89 f8                	mov    %edi,%eax
    1815:	5b                   	pop    %ebx
    1816:	5e                   	pop    %esi
    1817:	5f                   	pop    %edi
    1818:	5d                   	pop    %ebp
    1819:	c3                   	ret    
    181a:	8d b6 00 00 00 00    	lea    0x0(%esi),%esi
    1820:	89 04 24             	mov    %eax,(%esp)
    1823:	e8 58 36 01 00       	call   14e80 <str_error>
    1828:	c7 44 24 08 c4 df 02 	movl   $0x2dfc4,0x8(%esp)
    182f:	00 
    1830:	89 44 24 0c          	mov    %eax,0xc(%esp)
    1834:	c7 44 24 04 01 00 00 	movl   $0x1,0x4(%esp)
    183b:	00 
    183c:	c7 04 24 ff ff ff ff 	movl   $0xffffffff,(%esp)
    1843:	e8 08 83 01 00       	call   19b50 <log_msg>
    1848:	8b 45 d0             	mov    -0x30(%ebp),%eax
    184b:	89 04 24             	mov    %eax,(%esp)
    184e:	e8 3d 28 00 00       	call   4090 <usb_pipe_end_long_transfer>
    1853:	89 3c 24             	mov    %edi,(%esp)
    1856:	e8 25 36 01 00       	call   14e80 <str_error>
    185b:	c7 44 24 08 50 e1 02 	movl   $0x2e150,0x8(%esp)
    1862:	00 
    1863:	89 44 24 0c          	mov    %eax,0xc(%esp)
    1867:	c7 44 24 04 01 00 00 	movl   $0x1,0x4(%esp)
    186e:	00 
    186f:	c7 04 24 ff ff ff ff 	movl   $0xffffffff,(%esp)
    1876:	e8 d5 82 01 00       	call   19b50 <log_msg>
    187b:	83 c4 5c             	add    $0x5c,%esp
    187e:	89 f8                	mov    %edi,%eax
    1880:	5b                   	pop    %ebx
    1881:	5e                   	pop    %esi
    1882:	5f                   	pop    %edi
    1883:	5d                   	pop    %ebp
    1884:	c3                   	ret    
    1885:	8d 76 00             	lea    0x0(%esi),%esi
    1888:	c7 44 24 08 ec df 02 	movl   $0x2dfec,0x8(%esp)
    188f:	00 
    1890:	c7 44 24 04 03 00 00 	movl   $0x3,0x4(%esp)
    1897:	00 
    1898:	c7 04 24 ff ff ff ff 	movl   $0xffffffff,(%esp)
    189f:	e8 ac 82 01 00       	call   19b50 <log_msg>
    18a4:	c7 44 24 08 cc dd 02 	movl   $0x2ddcc,0x8(%esp)
    18ab:	00 
    18ac:	c7 44 24 04 04 00 00 	movl   $0x4,0x4(%esp)
    18b3:	00 
    18b4:	c7 04 24 ff ff ff ff 	movl   $0xffffffff,(%esp)
    18bb:	e8 90 82 01 00       	call   19b50 <log_msg>
    18c0:	c7 44 24 08 98 dc 02 	movl   $0x2dc98,0x8(%esp)
    18c7:	00 
    18c8:	c7 44 24 04 02 00 00 	movl   $0x2,0x4(%esp)
    18cf:	00 
    18d0:	8b 43 08             	mov    0x8(%ebx),%eax
    18d3:	8b 40 70             	mov    0x70(%eax),%eax
    18d6:	89 04 24             	mov    %eax,(%esp)
    18d9:	e8 d2 87 00 00       	call   a0b0 <ddf_fun_create>
    18de:	89 43 28             	mov    %eax,0x28(%ebx)
    18e1:	85 c0                	test   %eax,%eax
    18e3:	0f 84 c9 01 00 00    	je     1ab2 <usb_hub_device_add+0x612>
    18e9:	89 04 24             	mov    %eax,(%esp)
    18ec:	e8 4f 8a 00 00       	call   a340 <ddf_fun_bind>
    18f1:	89 c7                	mov    %eax,%edi
    18f3:	85 c0                	test   %eax,%eax
    18f5:	0f 85 85 00 00 00    	jne    1980 <usb_hub_device_add+0x4e0>
    18fb:	89 5c 24 14          	mov    %ebx,0x14(%esp)
    18ff:	c7 44 24 10 f0 13 00 	movl   $0x13f0,0x10(%esp)
    1906:	00 
    1907:	8b 03                	mov    (%ebx),%eax
    1909:	c7 44 24 08 f0 10 00 	movl   $0x10f0,0x8(%esp)
    1910:	00 
    1911:	83 c0 09             	add    $0x9,%eax
    1914:	c7 44 24 04 00 00 00 	movl   $0x0,0x4(%esp)
    191b:	00 
    191c:	c1 e8 03             	shr    $0x3,%eax
    191f:	89 44 24 0c          	mov    %eax,0xc(%esp)
    1923:	8b 43 08             	mov    0x8(%ebx),%eax
    1926:	89 04 24             	mov    %eax,(%esp)
    1929:	e8 d2 21 00 00       	call   3b00 <usb_device_auto_poll>
    192e:	89 c7                	mov    %eax,%edi
    1930:	85 c0                	test   %eax,%eax
    1932:	0f 85 b8 00 00 00    	jne    19f0 <usb_hub_device_add+0x550>
    1938:	8b 43 08             	mov    0x8(%ebx),%eax
    193b:	8b 33                	mov    (%ebx),%esi
    193d:	c6 43 2c 01          	movb   $0x1,0x2c(%ebx)
    1941:	8b 40 70             	mov    0x70(%eax),%eax
    1944:	89 04 24             	mov    %eax,(%esp)
    1947:	e8 84 86 00 00       	call   9fd0 <ddf_dev_get_name>
    194c:	89 74 24 10          	mov    %esi,0x10(%esp)
    1950:	89 44 24 0c          	mov    %eax,0xc(%esp)
    1954:	c7 44 24 08 04 e1 02 	movl   $0x2e104,0x8(%esp)
    195b:	00 
    195c:	c7 44 24 04 03 00 00 	movl   $0x3,0x4(%esp)
    1963:	00 
    1964:	c7 04 24 ff ff ff ff 	movl   $0xffffffff,(%esp)
    196b:	e8 e0 81 01 00       	call   19b50 <log_msg>
    1970:	8b 45 d0             	mov    -0x30(%ebp),%eax
    1973:	89 04 24             	mov    %eax,(%esp)
    1976:	e8 15 27 00 00       	call   4090 <usb_pipe_end_long_transfer>
    197b:	e9 3e fc ff ff       	jmp    15be <usb_hub_device_add+0x11e>
    1980:	8b 45 d0             	mov    -0x30(%ebp),%eax
    1983:	89 04 24             	mov    %eax,(%esp)
    1986:	e8 05 27 00 00       	call   4090 <usb_pipe_end_long_transfer>
    198b:	89 3c 24             	mov    %edi,(%esp)
    198e:	e8 ed 34 01 00       	call   14e80 <str_error>
    1993:	c7 44 24 08 b8 e0 02 	movl   $0x2e0b8,0x8(%esp)
    199a:	00 
    199b:	89 44 24 0c          	mov    %eax,0xc(%esp)
    199f:	c7 44 24 04 01 00 00 	movl   $0x1,0x4(%esp)
    19a6:	00 
    19a7:	c7 04 24 ff ff ff ff 	movl   $0xffffffff,(%esp)
    19ae:	e8 9d 81 01 00       	call   19b50 <log_msg>
    19b3:	8b 43 28             	mov    0x28(%ebx),%eax
    19b6:	89 04 24             	mov    %eax,(%esp)
    19b9:	e8 72 88 00 00       	call   a230 <ddf_fun_destroy>
    19be:	e9 fb fb ff ff       	jmp    15be <usb_hub_device_add+0x11e>
    19c3:	90                   	nop
    19c4:	8d 74 26 00          	lea    0x0(%esi,%eiz,1),%esi
    19c8:	c7 44 24 08 68 e0 02 	movl   $0x2e068,0x8(%esp)
    19cf:	00 
    19d0:	c7 44 24 04 04 00 00 	movl   $0x4,0x4(%esp)
    19d7:	00 
    19d8:	c7 04 24 ff ff ff ff 	movl   $0xffffffff,(%esp)
    19df:	e8 6c 81 01 00       	call   19b50 <log_msg>
    19e4:	e9 bb fe ff ff       	jmp    18a4 <usb_hub_device_add+0x404>
    19e9:	8d b4 26 00 00 00 00 	lea    0x0(%esi,%eiz,1),%esi
    19f0:	8b 45 d0             	mov    -0x30(%ebp),%eax
    19f3:	89 04 24             	mov    %eax,(%esp)
    19f6:	e8 95 26 00 00       	call   4090 <usb_pipe_end_long_transfer>
    19fb:	8b 43 28             	mov    0x28(%ebx),%eax
    19fe:	89 04 24             	mov    %eax,(%esp)
    1a01:	e8 4a 8a 00 00       	call   a450 <ddf_fun_unbind>
    1a06:	8b 43 28             	mov    0x28(%ebx),%eax
    1a09:	89 04 24             	mov    %eax,(%esp)
    1a0c:	e8 1f 88 00 00       	call   a230 <ddf_fun_destroy>
    1a11:	89 3c 24             	mov    %edi,(%esp)
    1a14:	e8 67 34 01 00       	call   14e80 <str_error>
    1a19:	c7 44 24 08 dc e0 02 	movl   $0x2e0dc,0x8(%esp)
    1a20:	00 
    1a21:	89 44 24 0c          	mov    %eax,0xc(%esp)
    1a25:	c7 44 24 04 01 00 00 	movl   $0x1,0x4(%esp)
    1a2c:	00 
    1a2d:	c7 04 24 ff ff ff ff 	movl   $0xffffffff,(%esp)
    1a34:	e8 17 81 01 00       	call   19b50 <log_msg>
    1a39:	e9 80 fb ff ff       	jmp    15be <usb_hub_device_add+0x11e>
    1a3e:	66 90                	xchg   %ax,%ax
    1a40:	c7 44 24 08 44 df 02 	movl   $0x2df44,0x8(%esp)
    1a47:	00 
    1a48:	c7 44 24 04 01 00 00 	movl   $0x1,0x4(%esp)
    1a4f:	00 
    1a50:	c7 04 24 ff ff ff ff 	movl   $0xffffffff,(%esp)
    1a57:	bf f0 ff ff ff       	mov    $0xfffffff0,%edi
    1a5c:	e8 ef 80 01 00       	call   19b50 <log_msg>
    1a61:	e9 25 fb ff ff       	jmp    158b <usb_hub_device_add+0xeb>
    1a66:	c7 44 24 08 1c df 02 	movl   $0x2df1c,0x8(%esp)
    1a6d:	00 
    1a6e:	c7 44 24 04 01 00 00 	movl   $0x1,0x4(%esp)
    1a75:	00 
    1a76:	c7 04 24 ff ff ff ff 	movl   $0xffffffff,(%esp)
    1a7d:	bf f2 ff ff ff       	mov    $0xfffffff2,%edi
    1a82:	e8 c9 80 01 00       	call   19b50 <log_msg>
    1a87:	e9 ff fa ff ff       	jmp    158b <usb_hub_device_add+0xeb>
    1a8c:	c7 44 24 08 c4 de 02 	movl   $0x2dec4,0x8(%esp)
    1a93:	00 
    1a94:	c7 44 24 04 01 00 00 	movl   $0x1,0x4(%esp)
    1a9b:	00 
    1a9c:	c7 04 24 ff ff ff ff 	movl   $0xffffffff,(%esp)
    1aa3:	bf fe ff ff ff       	mov    $0xfffffffe,%edi
    1aa8:	e8 a3 80 01 00       	call   19b50 <log_msg>
    1aad:	e9 0c fb ff ff       	jmp    15be <usb_hub_device_add+0x11e>
    1ab2:	8b 45 d0             	mov    -0x30(%ebp),%eax
    1ab5:	bf fe ff ff ff       	mov    $0xfffffffe,%edi
    1aba:	89 04 24             	mov    %eax,(%esp)
    1abd:	e8 ce 25 00 00       	call   4090 <usb_pipe_end_long_transfer>
    1ac2:	c7 44 24 08 98 e0 02 	movl   $0x2e098,0x8(%esp)
    1ac9:	00 
    1aca:	c7 44 24 04 01 00 00 	movl   $0x1,0x4(%esp)
    1ad1:	00 
    1ad2:	c7 04 24 ff ff ff ff 	movl   $0xffffffff,(%esp)
    1ad9:	e8 72 80 01 00       	call   19b50 <log_msg>
    1ade:	e9 db fa ff ff       	jmp    15be <usb_hub_device_add+0x11e>
    1ae3:	bf fe ff ff ff       	mov    $0xfffffffe,%edi
    1ae8:	e9 5b fd ff ff       	jmp    1848 <usb_hub_device_add+0x3a8>
    1aed:	c7 44 24 08 48 00 00 	movl   $0x48,0x8(%esp)
    1af4:	00 
    1af5:	c7 44 24 04 ac dd 02 	movl   $0x2ddac,0x4(%esp)
    1afc:	00 
    1afd:	c7 04 24 b3 dd 02 00 	movl   $0x2ddb3,(%esp)
    1b04:	e8 47 79 02 00       	call   29450 <assert_abort>
    1b09:	c7 44 24 08 57 00 00 	movl   $0x57,0x8(%esp)
    1b10:	00 
    1b11:	c7 44 24 04 e7 dc 02 	movl   $0x2dce7,0x4(%esp)
    1b18:	00 
    1b19:	c7 04 24 3d dd 02 00 	movl   $0x2dd3d,(%esp)
    1b20:	e8 2b 79 02 00       	call   29450 <assert_abort>
    1b25:	8d 74 26 00          	lea    0x0(%esi,%eiz,1),%esi
    1b29:	8d bc 27 00 00 00 00 	lea    0x0(%edi,%eiz,1),%edi

00001b30 <usb_hub_device_remove>:
    1b30:	55                   	push   %ebp
    1b31:	b8 f5 ff ff ff       	mov    $0xfffffff5,%eax
    1b36:	89 e5                	mov    %esp,%ebp
    1b38:	5d                   	pop    %ebp
    1b39:	c3                   	ret    
    1b3a:	8d b6 00 00 00 00    	lea    0x0(%esi),%esi

00001b40 <usb_hub_device_gone>:
    1b40:	55                   	push   %ebp
    1b41:	89 e5                	mov    %esp,%ebp
    1b43:	57                   	push   %edi
    1b44:	56                   	push   %esi
    1b45:	53                   	push   %ebx
    1b46:	83 ec 2c             	sub    $0x2c,%esp
    1b49:	8b 45 08             	mov    0x8(%ebp),%eax
    1b4c:	85 c0                	test   %eax,%eax
    1b4e:	0f 84 cb 01 00 00    	je     1d1f <usb_hub_device_gone+0x1df>
    1b54:	8b 58 74             	mov    0x74(%eax),%ebx
    1b57:	85 db                	test   %ebx,%ebx
    1b59:	0f 84 dc 01 00 00    	je     1d3b <usb_hub_device_gone+0x1fb>
    1b5f:	80 7b 2c 00          	cmpb   $0x0,0x2c(%ebx)
    1b63:	0f 84 ff 00 00 00    	je     1c68 <usb_hub_device_gone+0x128>
    1b69:	c7 04 24 a0 86 01 00 	movl   $0x186a0,(%esp)
    1b70:	e8 3b f4 01 00       	call   20fb0 <async_usleep>
    1b75:	80 7b 2c 00          	cmpb   $0x0,0x2c(%ebx)
    1b79:	0f 84 e9 00 00 00    	je     1c68 <usb_hub_device_gone+0x128>
    1b7f:	c7 04 24 a0 86 01 00 	movl   $0x186a0,(%esp)
    1b86:	e8 25 f4 01 00       	call   20fb0 <async_usleep>
    1b8b:	80 7b 2c 00          	cmpb   $0x0,0x2c(%ebx)
    1b8f:	0f 84 d3 00 00 00    	je     1c68 <usb_hub_device_gone+0x128>
    1b95:	c7 04 24 a0 86 01 00 	movl   $0x186a0,(%esp)
    1b9c:	e8 0f f4 01 00       	call   20fb0 <async_usleep>
    1ba1:	80 7b 2c 00          	cmpb   $0x0,0x2c(%ebx)
    1ba5:	0f 84 bd 00 00 00    	je     1c68 <usb_hub_device_gone+0x128>
    1bab:	c7 04 24 a0 86 01 00 	movl   $0x186a0,(%esp)
    1bb2:	e8 f9 f3 01 00       	call   20fb0 <async_usleep>
    1bb7:	80 7b 2c 00          	cmpb   $0x0,0x2c(%ebx)
    1bbb:	0f 84 a7 00 00 00    	je     1c68 <usb_hub_device_gone+0x128>
    1bc1:	c7 04 24 a0 86 01 00 	movl   $0x186a0,(%esp)
    1bc8:	e8 e3 f3 01 00       	call   20fb0 <async_usleep>
    1bcd:	80 7b 2c 00          	cmpb   $0x0,0x2c(%ebx)
    1bd1:	0f 84 91 00 00 00    	je     1c68 <usb_hub_device_gone+0x128>
    1bd7:	c7 04 24 a0 86 01 00 	movl   $0x186a0,(%esp)
    1bde:	e8 cd f3 01 00       	call   20fb0 <async_usleep>
    1be3:	80 7b 2c 00          	cmpb   $0x0,0x2c(%ebx)
    1be7:	74 7f                	je     1c68 <usb_hub_device_gone+0x128>
    1be9:	c7 04 24 a0 86 01 00 	movl   $0x186a0,(%esp)
    1bf0:	e8 bb f3 01 00       	call   20fb0 <async_usleep>
    1bf5:	80 7b 2c 00          	cmpb   $0x0,0x2c(%ebx)
    1bf9:	74 6d                	je     1c68 <usb_hub_device_gone+0x128>
    1bfb:	c7 04 24 a0 86 01 00 	movl   $0x186a0,(%esp)
    1c02:	e8 a9 f3 01 00       	call   20fb0 <async_usleep>
    1c07:	80 7b 2c 00          	cmpb   $0x0,0x2c(%ebx)
    1c0b:	74 5b                	je     1c68 <usb_hub_device_gone+0x128>
    1c0d:	c7 04 24 a0 86 01 00 	movl   $0x186a0,(%esp)
    1c14:	e8 97 f3 01 00       	call   20fb0 <async_usleep>
    1c19:	80 7b 2c 00          	cmpb   $0x0,0x2c(%ebx)
    1c1d:	74 49                	je     1c68 <usb_hub_device_gone+0x128>
    1c1f:	c7 04 24 a0 86 01 00 	movl   $0x186a0,(%esp)
    1c26:	e8 85 f3 01 00       	call   20fb0 <async_usleep>
    1c2b:	80 7b 2c 00          	cmpb   $0x0,0x2c(%ebx)
    1c2f:	74 37                	je     1c68 <usb_hub_device_gone+0x128>
    1c31:	c7 04 24 a0 86 01 00 	movl   $0x186a0,(%esp)
    1c38:	e8 73 f3 01 00       	call   20fb0 <async_usleep>
    1c3d:	c7 44 24 08 78 e1 02 	movl   $0x2e178,0x8(%esp)
    1c44:	00 
    1c45:	c7 44 24 04 01 00 00 	movl   $0x1,0x4(%esp)
    1c4c:	00 
    1c4d:	c7 04 24 ff ff ff ff 	movl   $0xffffffff,(%esp)
    1c54:	e8 f7 7e 01 00       	call   19b50 <log_msg>
    1c59:	b8 cc d8 ff ff       	mov    $0xffffd8cc,%eax
    1c5e:	83 c4 2c             	add    $0x2c,%esp
    1c61:	5b                   	pop    %ebx
    1c62:	5e                   	pop    %esi
    1c63:	5f                   	pop    %edi
    1c64:	5d                   	pop    %ebp
    1c65:	c3                   	ret    
    1c66:	66 90                	xchg   %ax,%ax
    1c68:	8b 0b                	mov    (%ebx),%ecx
    1c6a:	31 f6                	xor    %esi,%esi
    1c6c:	31 ff                	xor    %edi,%edi
    1c6e:	8b 53 04             	mov    0x4(%ebx),%edx
    1c71:	85 c9                	test   %ecx,%ecx
    1c73:	74 29                	je     1c9e <usb_hub_device_gone+0x15e>
    1c75:	8d 76 00             	lea    0x0(%esi),%esi
    1c78:	8d 04 32             	lea    (%edx,%esi,1),%eax
    1c7b:	83 78 28 00          	cmpl   $0x0,0x28(%eax)
    1c7f:	74 15                	je     1c96 <usb_hub_device_gone+0x156>
    1c81:	89 5c 24 04          	mov    %ebx,0x4(%esp)
    1c85:	89 04 24             	mov    %eax,(%esp)
    1c88:	e8 c3 05 00 00       	call   2250 <usb_hub_port_fini>
    1c8d:	85 c0                	test   %eax,%eax
    1c8f:	75 cd                	jne    1c5e <usb_hub_device_gone+0x11e>
    1c91:	8b 53 04             	mov    0x4(%ebx),%edx
    1c94:	8b 0b                	mov    (%ebx),%ecx
    1c96:	47                   	inc    %edi
    1c97:	83 c6 2c             	add    $0x2c,%esi
    1c9a:	39 cf                	cmp    %ecx,%edi
    1c9c:	72 da                	jb     1c78 <usb_hub_device_gone+0x138>
    1c9e:	89 14 24             	mov    %edx,(%esp)
    1ca1:	e8 5a d0 01 00       	call   1ed00 <free>
    1ca6:	8b 43 28             	mov    0x28(%ebx),%eax
    1ca9:	89 04 24             	mov    %eax,(%esp)
    1cac:	e8 9f 87 00 00       	call   a450 <ddf_fun_unbind>
    1cb1:	89 c6                	mov    %eax,%esi
    1cb3:	85 c0                	test   %eax,%eax
    1cb5:	75 31                	jne    1ce8 <usb_hub_device_gone+0x1a8>
    1cb7:	8b 43 28             	mov    0x28(%ebx),%eax
    1cba:	89 04 24             	mov    %eax,(%esp)
    1cbd:	e8 6e 85 00 00       	call   a230 <ddf_fun_destroy>
    1cc2:	c7 44 24 08 c4 e1 02 	movl   $0x2e1c4,0x8(%esp)
    1cc9:	00 
    1cca:	c7 44 24 04 03 00 00 	movl   $0x3,0x4(%esp)
    1cd1:	00 
    1cd2:	c7 04 24 ff ff ff ff 	movl   $0xffffffff,(%esp)
    1cd9:	e8 72 7e 01 00       	call   19b50 <log_msg>
    1cde:	83 c4 2c             	add    $0x2c,%esp
    1ce1:	31 c0                	xor    %eax,%eax
    1ce3:	5b                   	pop    %ebx
    1ce4:	5e                   	pop    %esi
    1ce5:	5f                   	pop    %edi
    1ce6:	5d                   	pop    %ebp
    1ce7:	c3                   	ret    
    1ce8:	89 04 24             	mov    %eax,(%esp)
    1ceb:	e8 90 31 01 00       	call   14e80 <str_error>
    1cf0:	c7 44 24 0c 98 dc 02 	movl   $0x2dc98,0xc(%esp)
    1cf7:	00 
    1cf8:	89 44 24 10          	mov    %eax,0x10(%esp)
    1cfc:	c7 44 24 08 9c e1 02 	movl   $0x2e19c,0x8(%esp)
    1d03:	00 
    1d04:	c7 44 24 04 01 00 00 	movl   $0x1,0x4(%esp)
    1d0b:	00 
    1d0c:	c7 04 24 ff ff ff ff 	movl   $0xffffffff,(%esp)
    1d13:	e8 38 7e 01 00       	call   19b50 <log_msg>
    1d18:	89 f0                	mov    %esi,%eax
    1d1a:	e9 3f ff ff ff       	jmp    1c5e <usb_hub_device_gone+0x11e>
    1d1f:	c7 44 24 08 ba 00 00 	movl   $0xba,0x8(%esp)
    1d26:	00 
    1d27:	c7 44 24 04 e7 dc 02 	movl   $0x2dce7,0x4(%esp)
    1d2e:	00 
    1d2f:	c7 04 24 3d dd 02 00 	movl   $0x2dd3d,(%esp)
    1d36:	e8 15 77 02 00       	call   29450 <assert_abort>
    1d3b:	c7 44 24 08 bc 00 00 	movl   $0xbc,0x8(%esp)
    1d42:	00 
    1d43:	c7 44 24 04 e7 dc 02 	movl   $0x2dce7,0x4(%esp)
    1d4a:	00 
    1d4b:	c7 04 24 98 dc 02 00 	movl   $0x2dc98,(%esp)
    1d52:	e8 f9 76 02 00       	call   29450 <assert_abort>
    1d57:	66 90                	xchg   %ax,%ax
    1d59:	66 90                	xchg   %ax,%ax
    1d5b:	66 90                	xchg   %ax,%ax
    1d5d:	66 90                	xchg   %ax,%ax
    1d5f:	90                   	nop

00001d60 <add_device_phase1_worker_fibril>:
    1d60:	55                   	push   %ebp
    1d61:	89 e5                	mov    %esp,%ebp
    1d63:	57                   	push   %edi
    1d64:	56                   	push   %esi
    1d65:	53                   	push   %ebx
    1d66:	83 ec 5c             	sub    $0x5c,%esp
    1d69:	8b 5d 08             	mov    0x8(%ebp),%ebx
    1d6c:	85 db                	test   %ebx,%ebx
    1d6e:	0f 84 75 01 00 00    	je     1ee9 <add_device_phase1_worker_fibril+0x189>
    1d74:	8b 03                	mov    (%ebx),%eax
    1d76:	8d 55 e4             	lea    -0x1c(%ebp),%edx
    1d79:	8b 40 08             	mov    0x8(%eax),%eax
    1d7c:	89 54 24 20          	mov    %edx,0x20(%esp)
    1d80:	8d 55 e2             	lea    -0x1e(%ebp),%edx
    1d83:	c7 44 24 1c 00 00 00 	movl   $0x0,0x1c(%esp)
    1d8a:	00 
    1d8b:	c7 44 24 18 00 00 00 	movl   $0x0,0x18(%esp)
    1d92:	00 
    1d93:	89 54 24 14          	mov    %edx,0x14(%esp)
    1d97:	8b 53 04             	mov    0x4(%ebx),%edx
    1d9a:	c7 44 24 0c 10 1f 00 	movl   $0x1f10,0xc(%esp)
    1da1:	00 
    1da2:	89 54 24 10          	mov    %edx,0x10(%esp)
    1da6:	8b 53 08             	mov    0x8(%ebx),%edx
    1da9:	89 44 24 04          	mov    %eax,0x4(%esp)
    1dad:	89 54 24 08          	mov    %edx,0x8(%esp)
    1db1:	8b 40 70             	mov    0x70(%eax),%eax
    1db4:	89 04 24             	mov    %eax,(%esp)
    1db7:	e8 14 1e 00 00       	call   3bd0 <usb_hc_new_device_wrapper>
    1dbc:	89 c6                	mov    %eax,%esi
    1dbe:	85 c0                	test   %eax,%eax
    1dc0:	74 7e                	je     1e40 <add_device_phase1_worker_fibril+0xe0>
    1dc2:	89 04 24             	mov    %eax,(%esp)
    1dc5:	e8 b6 30 01 00       	call   14e80 <str_error>
    1dca:	89 44 24 10          	mov    %eax,0x10(%esp)
    1dce:	8b 43 04             	mov    0x4(%ebx),%eax
    1dd1:	8b 00                	mov    (%eax),%eax
    1dd3:	c7 44 24 08 0c e3 02 	movl   $0x2e30c,0x8(%esp)
    1dda:	00 
    1ddb:	89 44 24 0c          	mov    %eax,0xc(%esp)
    1ddf:	c7 44 24 04 01 00 00 	movl   $0x1,0x4(%esp)
    1de6:	00 
    1de7:	c7 04 24 ff ff ff ff 	movl   $0xffffffff,(%esp)
    1dee:	e8 5d 7d 01 00       	call   19b50 <log_msg>
    1df3:	8b 03                	mov    (%ebx),%eax
    1df5:	83 c0 10             	add    $0x10,%eax
    1df8:	89 04 24             	mov    %eax,(%esp)
    1dfb:	e8 70 3a 01 00       	call   15870 <fibril_mutex_lock>
    1e00:	8b 13                	mov    (%ebx),%edx
    1e02:	8b 42 0c             	mov    0xc(%edx),%eax
    1e05:	85 c0                	test   %eax,%eax
    1e07:	0f 84 c0 00 00 00    	je     1ecd <add_device_phase1_worker_fibril+0x16d>
    1e0d:	48                   	dec    %eax
    1e0e:	89 42 0c             	mov    %eax,0xc(%edx)
    1e11:	83 c2 20             	add    $0x20,%edx
    1e14:	89 14 24             	mov    %edx,(%esp)
    1e17:	e8 f4 46 01 00       	call   16510 <fibril_condvar_signal>
    1e1c:	8b 03                	mov    (%ebx),%eax
    1e1e:	83 c0 10             	add    $0x10,%eax
    1e21:	89 04 24             	mov    %eax,(%esp)
    1e24:	e8 67 3b 01 00       	call   15990 <fibril_mutex_unlock>
    1e29:	89 1c 24             	mov    %ebx,(%esp)
    1e2c:	e8 cf ce 01 00       	call   1ed00 <free>
    1e31:	83 c4 5c             	add    $0x5c,%esp
    1e34:	89 f0                	mov    %esi,%eax
    1e36:	5b                   	pop    %ebx
    1e37:	5e                   	pop    %esi
    1e38:	5f                   	pop    %edi
    1e39:	5d                   	pop    %ebp
    1e3a:	c3                   	ret    
    1e3b:	90                   	nop
    1e3c:	8d 74 26 00          	lea    0x0(%esi,%eiz,1),%esi
    1e40:	8b 43 04             	mov    0x4(%ebx),%eax
    1e43:	83 c0 08             	add    $0x8,%eax
    1e46:	89 04 24             	mov    %eax,(%esp)
    1e49:	e8 22 3a 01 00       	call   15870 <fibril_mutex_lock>
    1e4e:	8b 43 04             	mov    0x4(%ebx),%eax
    1e51:	8b 55 e4             	mov    -0x1c(%ebp),%edx
    1e54:	89 50 28             	mov    %edx,0x28(%eax)
    1e57:	66 8b 55 e2          	mov    -0x1e(%ebp),%dx
    1e5b:	66 89 50 24          	mov    %dx,0x24(%eax)
    1e5f:	83 c0 08             	add    $0x8,%eax
    1e62:	89 04 24             	mov    %eax,(%esp)
    1e65:	e8 26 3b 01 00       	call   15990 <fibril_mutex_unlock>
    1e6a:	8b 45 e4             	mov    -0x1c(%ebp),%eax
    1e6d:	89 04 24             	mov    %eax,(%esp)
    1e70:	e8 2b 82 00 00       	call   a0a0 <ddf_fun_get_handle>
    1e75:	89 c1                	mov    %eax,%ecx
    1e77:	8b 43 04             	mov    0x4(%ebx),%eax
    1e7a:	0f bf 55 e2          	movswl -0x1e(%ebp),%edx
    1e7e:	8b 38                	mov    (%eax),%edi
    1e80:	8b 03                	mov    (%ebx),%eax
    1e82:	8b 40 08             	mov    0x8(%eax),%eax
    1e85:	8b 40 70             	mov    0x70(%eax),%eax
    1e88:	89 55 d0             	mov    %edx,-0x30(%ebp)
    1e8b:	89 04 24             	mov    %eax,(%esp)
    1e8e:	89 4d d4             	mov    %ecx,-0x2c(%ebp)
    1e91:	e8 3a 81 00 00       	call   9fd0 <ddf_dev_get_name>
    1e96:	8b 4d d4             	mov    -0x2c(%ebp),%ecx
    1e99:	8b 55 d0             	mov    -0x30(%ebp),%edx
    1e9c:	89 4c 24 18          	mov    %ecx,0x18(%esp)
    1ea0:	89 54 24 14          	mov    %edx,0x14(%esp)
    1ea4:	89 7c 24 10          	mov    %edi,0x10(%esp)
    1ea8:	89 44 24 0c          	mov    %eax,0xc(%esp)
    1eac:	c7 44 24 08 c8 e2 02 	movl   $0x2e2c8,0x8(%esp)
    1eb3:	00 
    1eb4:	c7 44 24 04 03 00 00 	movl   $0x3,0x4(%esp)
    1ebb:	00 
    1ebc:	c7 04 24 ff ff ff ff 	movl   $0xffffffff,(%esp)
    1ec3:	e8 88 7c 01 00       	call   19b50 <log_msg>
    1ec8:	e9 26 ff ff ff       	jmp    1df3 <add_device_phase1_worker_fibril+0x93>
    1ecd:	c7 44 24 08 c0 01 00 	movl   $0x1c0,0x8(%esp)
    1ed4:	00 
    1ed5:	c7 44 24 04 f2 e1 02 	movl   $0x2e1f2,0x4(%esp)
    1edc:	00 
    1edd:	c7 04 24 38 e3 02 00 	movl   $0x2e338,(%esp)
    1ee4:	e8 67 75 02 00       	call   29450 <assert_abort>
    1ee9:	c7 44 24 08 a5 01 00 	movl   $0x1a5,0x8(%esp)
    1ef0:	00 
    1ef1:	c7 44 24 04 f2 e1 02 	movl   $0x2e1f2,0x4(%esp)
    1ef8:	00 
    1ef9:	c7 04 24 cd 03 03 00 	movl   $0x303cd,(%esp)
    1f00:	e8 4b 75 02 00       	call   29450 <assert_abort>
    1f05:	8d 74 26 00          	lea    0x0(%esi,%eiz,1),%esi
    1f09:	8d bc 27 00 00 00 00 	lea    0x0(%edi,%eiz,1),%edi

00001f10 <enable_port_callback>:
    1f10:	55                   	push   %ebp
    1f11:	89 e5                	mov    %esp,%ebp
    1f13:	57                   	push   %edi
    1f14:	56                   	push   %esi
    1f15:	53                   	push   %ebx
    1f16:	83 ec 4c             	sub    $0x4c,%esp
    1f19:	8b 5d 08             	mov    0x8(%ebp),%ebx
    1f1c:	85 db                	test   %ebx,%ebx
    1f1e:	0f 84 df 00 00 00    	je     2003 <enable_port_callback+0xf3>
    1f24:	8b 03                	mov    (%ebx),%eax
    1f26:	c7 44 24 10 00 00 00 	movl   $0x0,0x10(%esp)
    1f2d:	00 
    1f2e:	66 89 45 e4          	mov    %ax,-0x1c(%ebp)
    1f32:	8d 45 e0             	lea    -0x20(%ebp),%eax
    1f35:	c7 44 24 0c 00 00 00 	movl   $0x0,0xc(%esp)
    1f3c:	00 
    1f3d:	c7 44 24 08 08 00 00 	movl   $0x8,0x8(%esp)
    1f44:	00 
    1f45:	89 44 24 04          	mov    %eax,0x4(%esp)
    1f49:	c6 45 e0 23          	movb   $0x23,-0x20(%ebp)
    1f4d:	8b 43 04             	mov    0x4(%ebx),%eax
    1f50:	c6 45 e1 03          	movb   $0x3,-0x1f(%ebp)
    1f54:	89 04 24             	mov    %eax,(%esp)
    1f57:	66 c7 45 e2 04 00    	movw   $0x4,-0x1e(%ebp)
    1f5d:	66 c7 45 e6 00 00    	movw   $0x0,-0x1a(%ebp)
    1f63:	e8 08 23 00 00       	call   4270 <usb_pipe_control_write>
    1f68:	89 45 d4             	mov    %eax,-0x2c(%ebp)
    1f6b:	85 c0                	test   %eax,%eax
    1f6d:	75 61                	jne    1fd0 <enable_port_callback+0xc0>
    1f6f:	8d 73 08             	lea    0x8(%ebx),%esi
    1f72:	8d 7b 18             	lea    0x18(%ebx),%edi
    1f75:	89 34 24             	mov    %esi,(%esp)
    1f78:	e8 f3 38 01 00       	call   15870 <fibril_mutex_lock>
    1f7d:	80 7b 20 00          	cmpb   $0x0,0x20(%ebx)
    1f81:	75 17                	jne    1f9a <enable_port_callback+0x8a>
    1f83:	90                   	nop
    1f84:	8d 74 26 00          	lea    0x0(%esi,%eiz,1),%esi
    1f88:	89 74 24 04          	mov    %esi,0x4(%esp)
    1f8c:	89 3c 24             	mov    %edi,(%esp)
    1f8f:	e8 2c 45 01 00       	call   164c0 <fibril_condvar_wait>
    1f94:	80 7b 20 00          	cmpb   $0x0,0x20(%ebx)
    1f98:	74 ee                	je     1f88 <enable_port_callback+0x78>
    1f9a:	89 34 24             	mov    %esi,(%esp)
    1f9d:	e8 ee 39 01 00       	call   15990 <fibril_mutex_unlock>
    1fa2:	80 7b 21 00          	cmpb   $0x0,0x21(%ebx)
    1fa6:	74 10                	je     1fb8 <enable_port_callback+0xa8>
    1fa8:	8b 45 d4             	mov    -0x2c(%ebp),%eax
    1fab:	83 c4 4c             	add    $0x4c,%esp
    1fae:	5b                   	pop    %ebx
    1faf:	5e                   	pop    %esi
    1fb0:	5f                   	pop    %edi
    1fb1:	5d                   	pop    %ebp
    1fb2:	c3                   	ret    
    1fb3:	90                   	nop
    1fb4:	8d 74 26 00          	lea    0x0(%esi,%eiz,1),%esi
    1fb8:	c7 45 d4 d3 fe ff ff 	movl   $0xfffffed3,-0x2c(%ebp)
    1fbf:	8b 45 d4             	mov    -0x2c(%ebp),%eax
    1fc2:	83 c4 4c             	add    $0x4c,%esp
    1fc5:	5b                   	pop    %ebx
    1fc6:	5e                   	pop    %esi
    1fc7:	5f                   	pop    %edi
    1fc8:	5d                   	pop    %ebp
    1fc9:	c3                   	ret    
    1fca:	8d b6 00 00 00 00    	lea    0x0(%esi),%esi
    1fd0:	89 04 24             	mov    %eax,(%esp)
    1fd3:	e8 a8 2e 01 00       	call   14e80 <str_error>
    1fd8:	c7 44 24 08 f9 e1 02 	movl   $0x2e1f9,0x8(%esp)
    1fdf:	00 
    1fe0:	89 44 24 0c          	mov    %eax,0xc(%esp)
    1fe4:	c7 44 24 04 02 00 00 	movl   $0x2,0x4(%esp)
    1feb:	00 
    1fec:	c7 04 24 ff ff ff ff 	movl   $0xffffffff,(%esp)
    1ff3:	e8 58 7b 01 00       	call   19b50 <log_msg>
    1ff8:	8b 45 d4             	mov    -0x2c(%ebp),%eax
    1ffb:	83 c4 4c             	add    $0x4c,%esp
    1ffe:	5b                   	pop    %ebx
    1fff:	5e                   	pop    %esi
    2000:	5f                   	pop    %edi
    2001:	5d                   	pop    %ebp
    2002:	c3                   	ret    
    2003:	c7 44 24 08 86 01 00 	movl   $0x186,0x8(%esp)
    200a:	00 
    200b:	c7 44 24 04 f2 e1 02 	movl   $0x2e1f2,0x4(%esp)
    2012:	00 
    2013:	c7 04 24 b3 dd 02 00 	movl   $0x2ddb3,(%esp)
    201a:	e8 31 74 02 00       	call   29450 <assert_abort>
    201f:	90                   	nop

00002020 <usb_hub_port_device_gone>:
    2020:	55                   	push   %ebp
    2021:	89 e5                	mov    %esp,%ebp
    2023:	57                   	push   %edi
    2024:	56                   	push   %esi
    2025:	53                   	push   %ebx
    2026:	83 ec 3c             	sub    $0x3c,%esp
    2029:	89 c7                	mov    %eax,%edi
    202b:	85 c0                	test   %eax,%eax
    202d:	0f 84 a2 01 00 00    	je     21d5 <usb_hub_port_device_gone+0x1b5>
    2033:	89 d6                	mov    %edx,%esi
    2035:	85 d2                	test   %edx,%edx
    2037:	0f 84 b4 01 00 00    	je     21f1 <usb_hub_port_device_gone+0x1d1>
    203d:	66 83 78 24 00       	cmpw   $0x0,0x24(%eax)
    2042:	0f 88 08 01 00 00    	js     2150 <usb_hub_port_device_gone+0x130>
    2048:	8d 40 08             	lea    0x8(%eax),%eax
    204b:	89 04 24             	mov    %eax,(%esp)
    204e:	89 45 e4             	mov    %eax,-0x1c(%ebp)
    2051:	e8 1a 38 01 00       	call   15870 <fibril_mutex_lock>
    2056:	8b 47 28             	mov    0x28(%edi),%eax
    2059:	85 c0                	test   %eax,%eax
    205b:	0f 84 ac 01 00 00    	je     220d <usb_hub_port_device_gone+0x1ed>
    2061:	8b 07                	mov    (%edi),%eax
    2063:	c7 44 24 08 2b e2 02 	movl   $0x2e22b,0x8(%esp)
    206a:	00 
    206b:	89 44 24 0c          	mov    %eax,0xc(%esp)
    206f:	c7 44 24 04 04 00 00 	movl   $0x4,0x4(%esp)
    2076:	00 
    2077:	c7 04 24 ff ff ff ff 	movl   $0xffffffff,(%esp)
    207e:	e8 cd 7a 01 00       	call   19b50 <log_msg>
    2083:	8b 47 28             	mov    0x28(%edi),%eax
    2086:	89 04 24             	mov    %eax,(%esp)
    2089:	e8 c2 83 00 00       	call   a450 <ddf_fun_unbind>
    208e:	89 c3                	mov    %eax,%ebx
    2090:	85 c0                	test   %eax,%eax
    2092:	75 74                	jne    2108 <usb_hub_port_device_gone+0xe8>
    2094:	8b 47 28             	mov    0x28(%edi),%eax
    2097:	89 04 24             	mov    %eax,(%esp)
    209a:	e8 91 81 00 00       	call   a230 <ddf_fun_destroy>
    209f:	8b 46 08             	mov    0x8(%esi),%eax
    20a2:	c7 47 28 00 00 00 00 	movl   $0x0,0x28(%edi)
    20a9:	85 c0                	test   %eax,%eax
    20ab:	0f 84 78 01 00 00    	je     2229 <usb_hub_port_device_gone+0x209>
    20b1:	0f bf 57 24          	movswl 0x24(%edi),%edx
    20b5:	89 04 24             	mov    %eax,(%esp)
    20b8:	89 54 24 04          	mov    %edx,0x4(%esp)
    20bc:	e8 ef 6c 00 00       	call   8db0 <usb_hc_release_address>
    20c1:	85 c0                	test   %eax,%eax
    20c3:	0f 85 df 00 00 00    	jne    21a8 <usb_hub_port_device_gone+0x188>
    20c9:	8b 45 e4             	mov    -0x1c(%ebp),%eax
    20cc:	66 c7 47 24 ff ff    	movw   $0xffff,0x24(%edi)
    20d2:	89 04 24             	mov    %eax,(%esp)
    20d5:	e8 b6 38 01 00       	call   15990 <fibril_mutex_unlock>
    20da:	8b 07                	mov    (%edi),%eax
    20dc:	89 44 24 0c          	mov    %eax,0xc(%esp)
    20e0:	c7 44 24 08 4e e2 02 	movl   $0x2e24e,0x8(%esp)
    20e7:	00 
    20e8:	c7 44 24 04 03 00 00 	movl   $0x3,0x4(%esp)
    20ef:	00 
    20f0:	c7 04 24 ff ff ff ff 	movl   $0xffffffff,(%esp)
    20f7:	e8 54 7a 01 00       	call   19b50 <log_msg>
    20fc:	83 c4 3c             	add    $0x3c,%esp
    20ff:	89 d8                	mov    %ebx,%eax
    2101:	5b                   	pop    %ebx
    2102:	5e                   	pop    %esi
    2103:	5f                   	pop    %edi
    2104:	5d                   	pop    %ebp
    2105:	c3                   	ret    
    2106:	66 90                	xchg   %ax,%ax
    2108:	89 04 24             	mov    %eax,(%esp)
    210b:	e8 70 2d 01 00       	call   14e80 <str_error>
    2110:	c7 44 24 08 94 e3 02 	movl   $0x2e394,0x8(%esp)
    2117:	00 
    2118:	89 44 24 10          	mov    %eax,0x10(%esp)
    211c:	8b 07                	mov    (%edi),%eax
    211e:	89 44 24 0c          	mov    %eax,0xc(%esp)
    2122:	c7 44 24 04 01 00 00 	movl   $0x1,0x4(%esp)
    2129:	00 
    212a:	c7 04 24 ff ff ff ff 	movl   $0xffffffff,(%esp)
    2131:	e8 1a 7a 01 00       	call   19b50 <log_msg>
    2136:	8b 45 e4             	mov    -0x1c(%ebp),%eax
    2139:	89 04 24             	mov    %eax,(%esp)
    213c:	e8 4f 38 01 00       	call   15990 <fibril_mutex_unlock>
    2141:	83 c4 3c             	add    $0x3c,%esp
    2144:	89 d8                	mov    %ebx,%eax
    2146:	5b                   	pop    %ebx
    2147:	5e                   	pop    %esi
    2148:	5f                   	pop    %edi
    2149:	5d                   	pop    %ebp
    214a:	c3                   	ret    
    214b:	90                   	nop
    214c:	8d 74 26 00          	lea    0x0(%esi,%eiz,1),%esi
    2150:	8b 00                	mov    (%eax),%eax
    2152:	8d 5f 08             	lea    0x8(%edi),%ebx
    2155:	89 44 24 0c          	mov    %eax,0xc(%esp)
    2159:	c7 44 24 08 5c e3 02 	movl   $0x2e35c,0x8(%esp)
    2160:	00 
    2161:	c7 44 24 04 02 00 00 	movl   $0x2,0x4(%esp)
    2168:	00 
    2169:	c7 04 24 ff ff ff ff 	movl   $0xffffffff,(%esp)
    2170:	e8 db 79 01 00       	call   19b50 <log_msg>
    2175:	89 1c 24             	mov    %ebx,(%esp)
    2178:	e8 f3 36 01 00       	call   15870 <fibril_mutex_lock>
    217d:	8d 4f 18             	lea    0x18(%edi),%ecx
    2180:	89 0c 24             	mov    %ecx,(%esp)
    2183:	c6 47 20 01          	movb   $0x1,0x20(%edi)
    2187:	c6 47 21 00          	movb   $0x0,0x21(%edi)
    218b:	e8 00 44 01 00       	call   16590 <fibril_condvar_broadcast>
    2190:	89 1c 24             	mov    %ebx,(%esp)
    2193:	e8 f8 37 01 00       	call   15990 <fibril_mutex_unlock>
    2198:	83 c4 3c             	add    $0x3c,%esp
    219b:	31 db                	xor    %ebx,%ebx
    219d:	89 d8                	mov    %ebx,%eax
    219f:	5b                   	pop    %ebx
    21a0:	5e                   	pop    %esi
    21a1:	5f                   	pop    %edi
    21a2:	5d                   	pop    %ebp
    21a3:	c3                   	ret    
    21a4:	8d 74 26 00          	lea    0x0(%esi,%eiz,1),%esi
    21a8:	89 04 24             	mov    %eax,(%esp)
    21ab:	e8 d0 2c 01 00       	call   14e80 <str_error>
    21b0:	c7 44 24 08 f8 e3 02 	movl   $0x2e3f8,0x8(%esp)
    21b7:	00 
    21b8:	89 44 24 0c          	mov    %eax,0xc(%esp)
    21bc:	c7 44 24 04 02 00 00 	movl   $0x2,0x4(%esp)
    21c3:	00 
    21c4:	c7 04 24 ff ff ff ff 	movl   $0xffffffff,(%esp)
    21cb:	e8 80 79 01 00       	call   19b50 <log_msg>
    21d0:	e9 f4 fe ff ff       	jmp    20c9 <usb_hub_port_device_gone+0xa9>
    21d5:	c7 44 24 08 03 01 00 	movl   $0x103,0x8(%esp)
    21dc:	00 
    21dd:	c7 44 24 04 f2 e1 02 	movl   $0x2e1f2,0x4(%esp)
    21e4:	00 
    21e5:	c7 04 24 b3 dd 02 00 	movl   $0x2ddb3,(%esp)
    21ec:	e8 5f 72 02 00       	call   29450 <assert_abort>
    21f1:	c7 44 24 08 04 01 00 	movl   $0x104,0x8(%esp)
    21f8:	00 
    21f9:	c7 44 24 04 f2 e1 02 	movl   $0x2e1f2,0x4(%esp)
    2200:	00 
    2201:	c7 04 24 98 dc 02 00 	movl   $0x2dc98,(%esp)
    2208:	e8 43 72 02 00       	call   29450 <assert_abort>
    220d:	c7 44 24 08 14 01 00 	movl   $0x114,0x8(%esp)
    2214:	00 
    2215:	c7 44 24 04 f2 e1 02 	movl   $0x2e1f2,0x4(%esp)
    221c:	00 
    221d:	c7 04 24 11 e2 02 00 	movl   $0x2e211,(%esp)
    2224:	e8 27 72 02 00       	call   29450 <assert_abort>
    2229:	c7 44 24 08 45 00 00 	movl   $0x45,0x8(%esp)
    2230:	00 
    2231:	c7 44 24 04 c8 e3 02 	movl   $0x2e3c8,0x4(%esp)
    2238:	00 
    2239:	c7 04 24 49 e2 02 00 	movl   $0x2e249,(%esp)
    2240:	e8 0b 72 02 00       	call   29450 <assert_abort>
    2245:	8d 74 26 00          	lea    0x0(%esi,%eiz,1),%esi
    2249:	8d bc 27 00 00 00 00 	lea    0x0(%edi,%eiz,1),%edi

00002250 <usb_hub_port_fini>:
    2250:	55                   	push   %ebp
    2251:	89 e5                	mov    %esp,%ebp
    2253:	83 ec 18             	sub    $0x18,%esp
    2256:	8b 45 08             	mov    0x8(%ebp),%eax
    2259:	8b 55 0c             	mov    0xc(%ebp),%edx
    225c:	85 c0                	test   %eax,%eax
    225e:	74 14                	je     2274 <usb_hub_port_fini+0x24>
    2260:	8b 48 28             	mov    0x28(%eax),%ecx
    2263:	85 c9                	test   %ecx,%ecx
    2265:	74 09                	je     2270 <usb_hub_port_fini+0x20>
    2267:	c9                   	leave  
    2268:	e9 b3 fd ff ff       	jmp    2020 <usb_hub_port_device_gone>
    226d:	8d 76 00             	lea    0x0(%esi),%esi
    2270:	31 c0                	xor    %eax,%eax
    2272:	c9                   	leave  
    2273:	c3                   	ret    
    2274:	c7 44 24 08 43 00 00 	movl   $0x43,0x8(%esp)
    227b:	00 
    227c:	c7 44 24 04 f2 e1 02 	movl   $0x2e1f2,0x4(%esp)
    2283:	00 
    2284:	c7 04 24 b3 dd 02 00 	movl   $0x2ddb3,(%esp)
    228b:	e8 c0 71 02 00       	call   29450 <assert_abort>

00002290 <usb_hub_port_clear_feature>:
    2290:	55                   	push   %ebp
    2291:	89 e5                	mov    %esp,%ebp
    2293:	83 ec 38             	sub    $0x38,%esp
    2296:	8b 45 08             	mov    0x8(%ebp),%eax
    2299:	85 c0                	test   %eax,%eax
    229b:	74 47                	je     22e4 <usb_hub_port_clear_feature+0x54>
    229d:	8b 55 0c             	mov    0xc(%ebp),%edx
    22a0:	c6 45 f0 23          	movb   $0x23,-0x10(%ebp)
    22a4:	66 89 55 f2          	mov    %dx,-0xe(%ebp)
    22a8:	8b 10                	mov    (%eax),%edx
    22aa:	66 89 55 f4          	mov    %dx,-0xc(%ebp)
    22ae:	8d 55 f0             	lea    -0x10(%ebp),%edx
    22b1:	c7 44 24 10 00 00 00 	movl   $0x0,0x10(%esp)
    22b8:	00 
    22b9:	c7 44 24 0c 00 00 00 	movl   $0x0,0xc(%esp)
    22c0:	00 
    22c1:	c7 44 24 08 08 00 00 	movl   $0x8,0x8(%esp)
    22c8:	00 
    22c9:	89 54 24 04          	mov    %edx,0x4(%esp)
    22cd:	8b 40 04             	mov    0x4(%eax),%eax
    22d0:	c6 45 f1 01          	movb   $0x1,-0xf(%ebp)
    22d4:	89 04 24             	mov    %eax,(%esp)
    22d7:	66 c7 45 f6 00 00    	movw   $0x0,-0xa(%ebp)
    22dd:	e8 8e 1f 00 00       	call   4270 <usb_pipe_control_write>
    22e2:	c9                   	leave  
    22e3:	c3                   	ret    
    22e4:	c7 44 24 08 53 00 00 	movl   $0x53,0x8(%esp)
    22eb:	00 
    22ec:	c7 44 24 04 f2 e1 02 	movl   $0x2e1f2,0x4(%esp)
    22f3:	00 
    22f4:	c7 04 24 b3 dd 02 00 	movl   $0x2ddb3,(%esp)
    22fb:	e8 50 71 02 00       	call   29450 <assert_abort>

00002300 <usb_hub_port_set_feature>:
    2300:	55                   	push   %ebp
    2301:	89 e5                	mov    %esp,%ebp
    2303:	83 ec 38             	sub    $0x38,%esp
    2306:	8b 45 08             	mov    0x8(%ebp),%eax
    2309:	85 c0                	test   %eax,%eax
    230b:	74 47                	je     2354 <usb_hub_port_set_feature+0x54>
    230d:	8b 55 0c             	mov    0xc(%ebp),%edx
    2310:	c6 45 f0 23          	movb   $0x23,-0x10(%ebp)
    2314:	66 89 55 f2          	mov    %dx,-0xe(%ebp)
    2318:	8b 10                	mov    (%eax),%edx
    231a:	66 89 55 f4          	mov    %dx,-0xc(%ebp)
    231e:	8d 55 f0             	lea    -0x10(%ebp),%edx
    2321:	c7 44 24 10 00 00 00 	movl   $0x0,0x10(%esp)
    2328:	00 
    2329:	c7 44 24 0c 00 00 00 	movl   $0x0,0xc(%esp)
    2330:	00 
    2331:	c7 44 24 08 08 00 00 	movl   $0x8,0x8(%esp)
    2338:	00 
    2339:	89 54 24 04          	mov    %edx,0x4(%esp)
    233d:	8b 40 04             	mov    0x4(%eax),%eax
    2340:	c6 45 f1 03          	movb   $0x3,-0xf(%ebp)
    2344:	89 04 24             	mov    %eax,(%esp)
    2347:	66 c7 45 f6 00 00    	movw   $0x0,-0xa(%ebp)
    234d:	e8 1e 1f 00 00       	call   4270 <usb_pipe_control_write>
    2352:	c9                   	leave  
    2353:	c3                   	ret    
    2354:	c7 44 24 08 69 00 00 	movl   $0x69,0x8(%esp)
    235b:	00 
    235c:	c7 44 24 04 f2 e1 02 	movl   $0x2e1f2,0x4(%esp)
    2363:	00 
    2364:	c7 04 24 b3 dd 02 00 	movl   $0x2ddb3,(%esp)
    236b:	e8 e0 70 02 00       	call   29450 <assert_abort>

00002370 <usb_hub_port_reset_fail>:
    2370:	55                   	push   %ebp
    2371:	89 e5                	mov    %esp,%ebp
    2373:	56                   	push   %esi
    2374:	53                   	push   %ebx
    2375:	83 ec 10             	sub    $0x10,%esp
    2378:	8b 5d 08             	mov    0x8(%ebp),%ebx
    237b:	85 db                	test   %ebx,%ebx
    237d:	74 2c                	je     23ab <usb_hub_port_reset_fail+0x3b>
    237f:	8d 73 08             	lea    0x8(%ebx),%esi
    2382:	89 34 24             	mov    %esi,(%esp)
    2385:	e8 e6 34 01 00       	call   15870 <fibril_mutex_lock>
    238a:	c6 43 20 01          	movb   $0x1,0x20(%ebx)
    238e:	c6 43 21 00          	movb   $0x0,0x21(%ebx)
    2392:	83 c3 18             	add    $0x18,%ebx
    2395:	89 1c 24             	mov    %ebx,(%esp)
    2398:	e8 f3 41 01 00       	call   16590 <fibril_condvar_broadcast>
    239d:	89 75 08             	mov    %esi,0x8(%ebp)
    23a0:	83 c4 10             	add    $0x10,%esp
    23a3:	5b                   	pop    %ebx
    23a4:	5e                   	pop    %esi
    23a5:	5d                   	pop    %ebp
    23a6:	e9 e5 35 01 00       	jmp    15990 <fibril_mutex_unlock>
    23ab:	c7 44 24 08 7c 00 00 	movl   $0x7c,0x8(%esp)
    23b2:	00 
    23b3:	c7 44 24 04 f2 e1 02 	movl   $0x2e1f2,0x4(%esp)
    23ba:	00 
    23bb:	c7 04 24 b3 dd 02 00 	movl   $0x2ddb3,(%esp)
    23c2:	e8 89 70 02 00       	call   29450 <assert_abort>
    23c7:	89 f6                	mov    %esi,%esi
    23c9:	8d bc 27 00 00 00 00 	lea    0x0(%edi,%eiz,1),%edi

000023d0 <usb_hub_port_process_interrupt>:
    23d0:	55                   	push   %ebp
    23d1:	89 e5                	mov    %esp,%ebp
    23d3:	57                   	push   %edi
    23d4:	56                   	push   %esi
    23d5:	53                   	push   %ebx
    23d6:	83 ec 7c             	sub    $0x7c,%esp
    23d9:	8b 7d 08             	mov    0x8(%ebp),%edi
    23dc:	85 ff                	test   %edi,%edi
    23de:	0f 84 84 06 00 00    	je     2a68 <usb_hub_port_process_interrupt+0x698>
    23e4:	8b 45 0c             	mov    0xc(%ebp),%eax
    23e7:	85 c0                	test   %eax,%eax
    23e9:	0f 84 5d 06 00 00    	je     2a4c <usb_hub_port_process_interrupt+0x67c>
    23ef:	8b 07                	mov    (%edi),%eax
    23f1:	c7 44 24 08 7c e2 02 	movl   $0x2e27c,0x8(%esp)
    23f8:	00 
    23f9:	89 44 24 0c          	mov    %eax,0xc(%esp)
    23fd:	c7 44 24 04 04 00 00 	movl   $0x4,0x4(%esp)
    2404:	00 
    2405:	c7 04 24 ff ff ff ff 	movl   $0xffffffff,(%esp)
    240c:	e8 3f 77 01 00       	call   19b50 <log_msg>
    2411:	8b 07                	mov    (%edi),%eax
    2413:	66 89 45 b4          	mov    %ax,-0x4c(%ebp)
    2417:	8d 45 a8             	lea    -0x58(%ebp),%eax
    241a:	89 44 24 14          	mov    %eax,0x14(%esp)
    241e:	8d 45 ac             	lea    -0x54(%ebp),%eax
    2421:	89 44 24 0c          	mov    %eax,0xc(%esp)
    2425:	8d 45 b0             	lea    -0x50(%ebp),%eax
    2428:	c7 44 24 10 04 00 00 	movl   $0x4,0x10(%esp)
    242f:	00 
    2430:	c7 44 24 08 08 00 00 	movl   $0x8,0x8(%esp)
    2437:	00 
    2438:	89 44 24 04          	mov    %eax,0x4(%esp)
    243c:	c6 45 b0 a3          	movb   $0xa3,-0x50(%ebp)
    2440:	8b 47 04             	mov    0x4(%edi),%eax
    2443:	c6 45 b1 00          	movb   $0x0,-0x4f(%ebp)
    2447:	89 04 24             	mov    %eax,(%esp)
    244a:	66 c7 45 b2 00 00    	movw   $0x0,-0x4e(%ebp)
    2450:	66 c7 45 b6 04 00    	movw   $0x4,-0x4a(%ebp)
    2456:	e8 b5 1c 00 00       	call   4110 <usb_pipe_control_read>
    245b:	85 c0                	test   %eax,%eax
    245d:	0f 85 b5 01 00 00    	jne    2618 <usb_hub_port_process_interrupt+0x248>
    2463:	83 7d a8 04          	cmpl   $0x4,-0x58(%ebp)
    2467:	0f 85 a3 01 00 00    	jne    2610 <usb_hub_port_process_interrupt+0x240>
    246d:	8b 75 ac             	mov    -0x54(%ebp),%esi
    2470:	f7 c6 00 00 01 00    	test   $0x10000,%esi
    2476:	75 60                	jne    24d8 <usb_hub_port_process_interrupt+0x108>
    2478:	f7 c6 00 00 02 00    	test   $0x20000,%esi
    247e:	0f 85 cc 01 00 00    	jne    2650 <usb_hub_port_process_interrupt+0x280>
    2484:	f7 c6 00 00 04 00    	test   $0x40000,%esi
    248a:	0f 85 70 02 00 00    	jne    2700 <usb_hub_port_process_interrupt+0x330>
    2490:	f7 c6 00 00 08 00    	test   $0x80000,%esi
    2496:	0f 85 e4 03 00 00    	jne    2880 <usb_hub_port_process_interrupt+0x4b0>
    249c:	f7 c6 00 00 10 00    	test   $0x100000,%esi
    24a2:	0f 85 00 03 00 00    	jne    27a8 <usb_hub_port_process_interrupt+0x3d8>
    24a8:	89 74 24 10          	mov    %esi,0x10(%esp)
    24ac:	8b 07                	mov    (%edi),%eax
    24ae:	c7 44 24 08 ad e2 02 	movl   $0x2e2ad,0x8(%esp)
    24b5:	00 
    24b6:	89 44 24 0c          	mov    %eax,0xc(%esp)
    24ba:	c7 44 24 04 04 00 00 	movl   $0x4,0x4(%esp)
    24c1:	00 
    24c2:	c7 04 24 ff ff ff ff 	movl   $0xffffffff,(%esp)
    24c9:	e8 82 76 01 00       	call   19b50 <log_msg>
    24ce:	83 c4 7c             	add    $0x7c,%esp
    24d1:	5b                   	pop    %ebx
    24d2:	5e                   	pop    %esi
    24d3:	5f                   	pop    %edi
    24d4:	5d                   	pop    %ebp
    24d5:	c3                   	ret    
    24d6:	66 90                	xchg   %ax,%ax
    24d8:	89 f3                	mov    %esi,%ebx
    24da:	b8 74 e2 02 00       	mov    $0x2e274,%eax
    24df:	83 e3 01             	and    $0x1,%ebx
    24e2:	0f 85 a0 04 00 00    	jne    2988 <usb_hub_port_process_interrupt+0x5b8>
    24e8:	89 44 24 10          	mov    %eax,0x10(%esp)
    24ec:	8b 07                	mov    (%edi),%eax
    24ee:	c7 44 24 08 34 e4 02 	movl   $0x2e434,0x8(%esp)
    24f5:	00 
    24f6:	89 44 24 0c          	mov    %eax,0xc(%esp)
    24fa:	c7 44 24 04 04 00 00 	movl   $0x4,0x4(%esp)
    2501:	00 
    2502:	c7 04 24 ff ff ff ff 	movl   $0xffffffff,(%esp)
    2509:	e8 42 76 01 00       	call   19b50 <log_msg>
    250e:	8b 07                	mov    (%edi),%eax
    2510:	66 89 45 bc          	mov    %ax,-0x44(%ebp)
    2514:	8d 45 b8             	lea    -0x48(%ebp),%eax
    2517:	c7 44 24 10 00 00 00 	movl   $0x0,0x10(%esp)
    251e:	00 
    251f:	c7 44 24 0c 00 00 00 	movl   $0x0,0xc(%esp)
    2526:	00 
    2527:	c7 44 24 08 08 00 00 	movl   $0x8,0x8(%esp)
    252e:	00 
    252f:	89 44 24 04          	mov    %eax,0x4(%esp)
    2533:	8b 47 04             	mov    0x4(%edi),%eax
    2536:	c6 45 b8 23          	movb   $0x23,-0x48(%ebp)
    253a:	89 04 24             	mov    %eax,(%esp)
    253d:	c6 45 b9 01          	movb   $0x1,-0x47(%ebp)
    2541:	66 c7 45 ba 10 00    	movw   $0x10,-0x46(%ebp)
    2547:	66 c7 45 be 00 00    	movw   $0x0,-0x42(%ebp)
    254d:	e8 1e 1d 00 00       	call   4270 <usb_pipe_control_write>
    2552:	85 c0                	test   %eax,%eax
    2554:	0f 85 86 04 00 00    	jne    29e0 <usb_hub_port_process_interrupt+0x610>
    255a:	84 db                	test   %bl,%bl
    255c:	0f 84 36 04 00 00    	je     2998 <usb_hub_port_process_interrupt+0x5c8>
    2562:	31 d2                	xor    %edx,%edx
    2564:	f7 c6 00 02 00 00    	test   $0x200,%esi
    256a:	75 0f                	jne    257b <usb_hub_port_process_interrupt+0x1ab>
    256c:	89 f0                	mov    %esi,%eax
    256e:	25 00 04 00 00       	and    $0x400,%eax
    2573:	83 f8 01             	cmp    $0x1,%eax
    2576:	19 d2                	sbb    %edx,%edx
    2578:	83 c2 02             	add    $0x2,%edx
    257b:	c7 04 24 0c 00 00 00 	movl   $0xc,(%esp)
    2582:	89 55 a4             	mov    %edx,-0x5c(%ebp)
    2585:	e8 66 c6 01 00       	call   1ebf0 <malloc>
    258a:	8b 55 a4             	mov    -0x5c(%ebp),%edx
    258d:	89 c3                	mov    %eax,%ebx
    258f:	85 c0                	test   %eax,%eax
    2591:	0f 84 7e 04 00 00    	je     2a15 <usb_hub_port_process_interrupt+0x645>
    2597:	8b 45 0c             	mov    0xc(%ebp),%eax
    259a:	89 53 08             	mov    %edx,0x8(%ebx)
    259d:	89 03                	mov    %eax,(%ebx)
    259f:	8d 47 08             	lea    0x8(%edi),%eax
    25a2:	89 7b 04             	mov    %edi,0x4(%ebx)
    25a5:	89 04 24             	mov    %eax,(%esp)
    25a8:	89 45 a4             	mov    %eax,-0x5c(%ebp)
    25ab:	e8 c0 32 01 00       	call   15870 <fibril_mutex_lock>
    25b0:	8b 45 a4             	mov    -0x5c(%ebp),%eax
    25b3:	c6 47 20 00          	movb   $0x0,0x20(%edi)
    25b7:	89 04 24             	mov    %eax,(%esp)
    25ba:	e8 d1 33 01 00       	call   15990 <fibril_mutex_unlock>
    25bf:	89 5c 24 04          	mov    %ebx,0x4(%esp)
    25c3:	c7 04 24 60 1d 00 00 	movl   $0x1d60,(%esp)
    25ca:	e8 c1 2d 01 00       	call   15390 <fibril_create>
    25cf:	85 c0                	test   %eax,%eax
    25d1:	0f 84 36 04 00 00    	je     2a0d <usb_hub_port_process_interrupt+0x63d>
    25d7:	8b 5d 0c             	mov    0xc(%ebp),%ebx
    25da:	89 45 a4             	mov    %eax,-0x5c(%ebp)
    25dd:	83 c3 10             	add    $0x10,%ebx
    25e0:	89 1c 24             	mov    %ebx,(%esp)
    25e3:	e8 88 32 01 00       	call   15870 <fibril_mutex_lock>
    25e8:	8b 55 0c             	mov    0xc(%ebp),%edx
    25eb:	8b 42 0c             	mov    0xc(%edx),%eax
    25ee:	40                   	inc    %eax
    25ef:	89 42 0c             	mov    %eax,0xc(%edx)
    25f2:	89 1c 24             	mov    %ebx,(%esp)
    25f5:	e8 96 33 01 00       	call   15990 <fibril_mutex_unlock>
    25fa:	8b 45 a4             	mov    -0x5c(%ebp),%eax
    25fd:	89 04 24             	mov    %eax,(%esp)
    2600:	e8 cb 2e 01 00       	call   154d0 <fibril_add_ready>
    2605:	e9 6e fe ff ff       	jmp    2478 <usb_hub_port_process_interrupt+0xa8>
    260a:	8d b6 00 00 00 00    	lea    0x0(%esi),%esi
    2610:	b8 fd ff ff ff       	mov    $0xfffffffd,%eax
    2615:	8d 76 00             	lea    0x0(%esi),%esi
    2618:	89 04 24             	mov    %eax,(%esp)
    261b:	e8 60 28 01 00       	call   14e80 <str_error>
    2620:	89 44 24 10          	mov    %eax,0x10(%esp)
    2624:	8b 07                	mov    (%edi),%eax
    2626:	c7 44 24 08 4c e6 02 	movl   $0x2e64c,0x8(%esp)
    262d:	00 
    262e:	89 44 24 0c          	mov    %eax,0xc(%esp)
    2632:	c7 44 24 04 01 00 00 	movl   $0x1,0x4(%esp)
    2639:	00 
    263a:	c7 04 24 ff ff ff ff 	movl   $0xffffffff,(%esp)
    2641:	e8 0a 75 01 00       	call   19b50 <log_msg>
    2646:	83 c4 7c             	add    $0x7c,%esp
    2649:	5b                   	pop    %ebx
    264a:	5e                   	pop    %esi
    264b:	5f                   	pop    %edi
    264c:	5d                   	pop    %ebp
    264d:	c3                   	ret    
    264e:	66 90                	xchg   %ax,%ax
    2650:	8b 07                	mov    (%edi),%eax
    2652:	c7 44 24 08 94 e4 02 	movl   $0x2e494,0x8(%esp)
    2659:	00 
    265a:	89 44 24 0c          	mov    %eax,0xc(%esp)
    265e:	c7 44 24 04 03 00 00 	movl   $0x3,0x4(%esp)
    2665:	00 
    2666:	c7 04 24 ff ff ff ff 	movl   $0xffffffff,(%esp)
    266d:	e8 de 74 01 00       	call   19b50 <log_msg>
    2672:	8b 55 0c             	mov    0xc(%ebp),%edx
    2675:	89 f8                	mov    %edi,%eax
    2677:	e8 a4 f9 ff ff       	call   2020 <usb_hub_port_device_gone>
    267c:	8b 07                	mov    (%edi),%eax
    267e:	66 89 45 c4          	mov    %ax,-0x3c(%ebp)
    2682:	8d 45 c0             	lea    -0x40(%ebp),%eax
    2685:	c7 44 24 10 00 00 00 	movl   $0x0,0x10(%esp)
    268c:	00 
    268d:	c7 44 24 0c 00 00 00 	movl   $0x0,0xc(%esp)
    2694:	00 
    2695:	c7 44 24 08 08 00 00 	movl   $0x8,0x8(%esp)
    269c:	00 
    269d:	89 44 24 04          	mov    %eax,0x4(%esp)
    26a1:	8b 47 04             	mov    0x4(%edi),%eax
    26a4:	c6 45 c0 23          	movb   $0x23,-0x40(%ebp)
    26a8:	89 04 24             	mov    %eax,(%esp)
    26ab:	c6 45 c1 01          	movb   $0x1,-0x3f(%ebp)
    26af:	66 c7 45 c2 11 00    	movw   $0x11,-0x3e(%ebp)
    26b5:	66 c7 45 c6 00 00    	movw   $0x0,-0x3a(%ebp)
    26bb:	e8 b0 1b 00 00       	call   4270 <usb_pipe_control_write>
    26c0:	85 c0                	test   %eax,%eax
    26c2:	0f 84 bc fd ff ff    	je     2484 <usb_hub_port_process_interrupt+0xb4>
    26c8:	89 04 24             	mov    %eax,(%esp)
    26cb:	e8 b0 27 01 00       	call   14e80 <str_error>
    26d0:	89 44 24 10          	mov    %eax,0x10(%esp)
    26d4:	8b 07                	mov    (%edi),%eax
    26d6:	c7 44 24 08 bc e4 02 	movl   $0x2e4bc,0x8(%esp)
    26dd:	00 
    26de:	89 44 24 0c          	mov    %eax,0xc(%esp)
    26e2:	c7 44 24 04 01 00 00 	movl   $0x1,0x4(%esp)
    26e9:	00 
    26ea:	c7 04 24 ff ff ff ff 	movl   $0xffffffff,(%esp)
    26f1:	e8 5a 74 01 00       	call   19b50 <log_msg>
    26f6:	e9 89 fd ff ff       	jmp    2484 <usb_hub_port_process_interrupt+0xb4>
    26fb:	90                   	nop
    26fc:	8d 74 26 00          	lea    0x0(%esi,%eiz,1),%esi
    2700:	8b 07                	mov    (%edi),%eax
    2702:	c7 44 24 08 f4 e4 02 	movl   $0x2e4f4,0x8(%esp)
    2709:	00 
    270a:	89 44 24 0c          	mov    %eax,0xc(%esp)
    270e:	c7 44 24 04 01 00 00 	movl   $0x1,0x4(%esp)
    2715:	00 
    2716:	c7 04 24 ff ff ff ff 	movl   $0xffffffff,(%esp)
    271d:	e8 2e 74 01 00       	call   19b50 <log_msg>
    2722:	8b 07                	mov    (%edi),%eax
    2724:	66 89 45 cc          	mov    %ax,-0x34(%ebp)
    2728:	8d 45 c8             	lea    -0x38(%ebp),%eax
    272b:	c7 44 24 10 00 00 00 	movl   $0x0,0x10(%esp)
    2732:	00 
    2733:	c7 44 24 0c 00 00 00 	movl   $0x0,0xc(%esp)
    273a:	00 
    273b:	c7 44 24 08 08 00 00 	movl   $0x8,0x8(%esp)
    2742:	00 
    2743:	89 44 24 04          	mov    %eax,0x4(%esp)
    2747:	8b 47 04             	mov    0x4(%edi),%eax
    274a:	c6 45 c8 23          	movb   $0x23,-0x38(%ebp)
    274e:	89 04 24             	mov    %eax,(%esp)
    2751:	c6 45 c9 01          	movb   $0x1,-0x37(%ebp)
    2755:	66 c7 45 ca 12 00    	movw   $0x12,-0x36(%ebp)
    275b:	66 c7 45 ce 00 00    	movw   $0x0,-0x32(%ebp)
    2761:	e8 0a 1b 00 00       	call   4270 <usb_pipe_control_write>
    2766:	85 c0                	test   %eax,%eax
    2768:	0f 84 22 fd ff ff    	je     2490 <usb_hub_port_process_interrupt+0xc0>
    276e:	89 04 24             	mov    %eax,(%esp)
    2771:	e8 0a 27 01 00       	call   14e80 <str_error>
    2776:	89 44 24 10          	mov    %eax,0x10(%esp)
    277a:	8b 07                	mov    (%edi),%eax
    277c:	c7 44 24 08 50 e5 02 	movl   $0x2e550,0x8(%esp)
    2783:	00 
    2784:	89 44 24 0c          	mov    %eax,0xc(%esp)
    2788:	c7 44 24 04 01 00 00 	movl   $0x1,0x4(%esp)
    278f:	00 
    2790:	c7 04 24 ff ff ff ff 	movl   $0xffffffff,(%esp)
    2797:	e8 b4 73 01 00       	call   19b50 <log_msg>
    279c:	e9 ef fc ff ff       	jmp    2490 <usb_hub_port_process_interrupt+0xc0>
    27a1:	8d b4 26 00 00 00 00 	lea    0x0(%esi,%eiz,1),%esi
    27a8:	8d 5f 08             	lea    0x8(%edi),%ebx
    27ab:	89 1c 24             	mov    %ebx,(%esp)
    27ae:	e8 bd 30 01 00       	call   15870 <fibril_mutex_lock>
    27b3:	89 f0                	mov    %esi,%eax
    27b5:	d1 e8                	shr    %eax
    27b7:	c6 47 20 01          	movb   $0x1,0x20(%edi)
    27bb:	83 e0 01             	and    $0x1,%eax
    27be:	88 47 21             	mov    %al,0x21(%edi)
    27c1:	84 c0                	test   %al,%al
    27c3:	8b 07                	mov    (%edi),%eax
    27c5:	89 44 24 0c          	mov    %eax,0xc(%esp)
    27c9:	0f 85 e9 01 00 00    	jne    29b8 <usb_hub_port_process_interrupt+0x5e8>
    27cf:	c7 44 24 08 e8 e5 02 	movl   $0x2e5e8,0x8(%esp)
    27d6:	00 
    27d7:	c7 44 24 04 02 00 00 	movl   $0x2,0x4(%esp)
    27de:	00 
    27df:	c7 04 24 ff ff ff ff 	movl   $0xffffffff,(%esp)
    27e6:	e8 65 73 01 00       	call   19b50 <log_msg>
    27eb:	8d 47 18             	lea    0x18(%edi),%eax
    27ee:	89 04 24             	mov    %eax,(%esp)
    27f1:	e8 9a 3d 01 00       	call   16590 <fibril_condvar_broadcast>
    27f6:	89 1c 24             	mov    %ebx,(%esp)
    27f9:	e8 92 31 01 00       	call   15990 <fibril_mutex_unlock>
    27fe:	8b 07                	mov    (%edi),%eax
    2800:	66 89 45 e4          	mov    %ax,-0x1c(%ebp)
    2804:	8d 45 e0             	lea    -0x20(%ebp),%eax
    2807:	c7 44 24 10 00 00 00 	movl   $0x0,0x10(%esp)
    280e:	00 
    280f:	c7 44 24 0c 00 00 00 	movl   $0x0,0xc(%esp)
    2816:	00 
    2817:	c7 44 24 08 08 00 00 	movl   $0x8,0x8(%esp)
    281e:	00 
    281f:	89 44 24 04          	mov    %eax,0x4(%esp)
    2823:	8b 47 04             	mov    0x4(%edi),%eax
    2826:	c6 45 e0 23          	movb   $0x23,-0x20(%ebp)
    282a:	89 04 24             	mov    %eax,(%esp)
    282d:	c6 45 e1 01          	movb   $0x1,-0x1f(%ebp)
    2831:	66 c7 45 e2 14 00    	movw   $0x14,-0x1e(%ebp)
    2837:	66 c7 45 e6 00 00    	movw   $0x0,-0x1a(%ebp)
    283d:	e8 2e 1a 00 00       	call   4270 <usb_pipe_control_write>
    2842:	85 c0                	test   %eax,%eax
    2844:	0f 84 5e fc ff ff    	je     24a8 <usb_hub_port_process_interrupt+0xd8>
    284a:	89 04 24             	mov    %eax,(%esp)
    284d:	e8 2e 26 01 00       	call   14e80 <str_error>
    2852:	89 44 24 10          	mov    %eax,0x10(%esp)
    2856:	8b 07                	mov    (%edi),%eax
    2858:	c7 44 24 08 18 e6 02 	movl   $0x2e618,0x8(%esp)
    285f:	00 
    2860:	89 44 24 0c          	mov    %eax,0xc(%esp)
    2864:	c7 44 24 04 01 00 00 	movl   $0x1,0x4(%esp)
    286b:	00 
    286c:	c7 04 24 ff ff ff ff 	movl   $0xffffffff,(%esp)
    2873:	e8 d8 72 01 00       	call   19b50 <log_msg>
    2878:	e9 2b fc ff ff       	jmp    24a8 <usb_hub_port_process_interrupt+0xd8>
    287d:	8d 76 00             	lea    0x0(%esi),%esi
    2880:	8b 07                	mov    (%edi),%eax
    2882:	c7 44 24 10 00 00 00 	movl   $0x0,0x10(%esp)
    2889:	00 
    288a:	66 89 45 d4          	mov    %ax,-0x2c(%ebp)
    288e:	8d 45 d0             	lea    -0x30(%ebp),%eax
    2891:	c7 44 24 0c 00 00 00 	movl   $0x0,0xc(%esp)
    2898:	00 
    2899:	c7 44 24 08 08 00 00 	movl   $0x8,0x8(%esp)
    28a0:	00 
    28a1:	89 44 24 04          	mov    %eax,0x4(%esp)
    28a5:	c6 45 d0 23          	movb   $0x23,-0x30(%ebp)
    28a9:	8b 47 04             	mov    0x4(%edi),%eax
    28ac:	c6 45 d1 01          	movb   $0x1,-0x2f(%ebp)
    28b0:	89 04 24             	mov    %eax,(%esp)
    28b3:	66 c7 45 d2 13 00    	movw   $0x13,-0x2e(%ebp)
    28b9:	66 c7 45 d6 00 00    	movw   $0x0,-0x2a(%ebp)
    28bf:	e8 ac 19 00 00       	call   4270 <usb_pipe_control_write>
    28c4:	85 c0                	test   %eax,%eax
    28c6:	74 2e                	je     28f6 <usb_hub_port_process_interrupt+0x526>
    28c8:	89 04 24             	mov    %eax,(%esp)
    28cb:	e8 b0 25 01 00       	call   14e80 <str_error>
    28d0:	89 44 24 10          	mov    %eax,0x10(%esp)
    28d4:	8b 07                	mov    (%edi),%eax
    28d6:	c7 44 24 08 88 e5 02 	movl   $0x2e588,0x8(%esp)
    28dd:	00 
    28de:	89 44 24 0c          	mov    %eax,0xc(%esp)
    28e2:	c7 44 24 04 01 00 00 	movl   $0x1,0x4(%esp)
    28e9:	00 
    28ea:	c7 04 24 ff ff ff ff 	movl   $0xffffffff,(%esp)
    28f1:	e8 5a 72 01 00       	call   19b50 <log_msg>
    28f6:	f7 c6 f7 ff ff ff    	test   $0xfffffff7,%esi
    28fc:	0f 85 9a fb ff ff    	jne    249c <usb_hub_port_process_interrupt+0xcc>
    2902:	8b 07                	mov    (%edi),%eax
    2904:	c7 44 24 10 00 00 00 	movl   $0x0,0x10(%esp)
    290b:	00 
    290c:	66 89 45 dc          	mov    %ax,-0x24(%ebp)
    2910:	8d 45 d8             	lea    -0x28(%ebp),%eax
    2913:	c7 44 24 0c 00 00 00 	movl   $0x0,0xc(%esp)
    291a:	00 
    291b:	c7 44 24 08 08 00 00 	movl   $0x8,0x8(%esp)
    2922:	00 
    2923:	89 44 24 04          	mov    %eax,0x4(%esp)
    2927:	c6 45 d8 23          	movb   $0x23,-0x28(%ebp)
    292b:	8b 47 04             	mov    0x4(%edi),%eax
    292e:	c6 45 d9 03          	movb   $0x3,-0x27(%ebp)
    2932:	89 04 24             	mov    %eax,(%esp)
    2935:	66 c7 45 da 08 00    	movw   $0x8,-0x26(%ebp)
    293b:	66 c7 45 de 00 00    	movw   $0x0,-0x22(%ebp)
    2941:	e8 2a 19 00 00       	call   4270 <usb_pipe_control_write>
    2946:	85 c0                	test   %eax,%eax
    2948:	0f 84 4e fb ff ff    	je     249c <usb_hub_port_process_interrupt+0xcc>
    294e:	89 04 24             	mov    %eax,(%esp)
    2951:	e8 2a 25 01 00       	call   14e80 <str_error>
    2956:	89 44 24 10          	mov    %eax,0x10(%esp)
    295a:	8b 07                	mov    (%edi),%eax
    295c:	c7 44 24 08 bc e5 02 	movl   $0x2e5bc,0x8(%esp)
    2963:	00 
    2964:	89 44 24 0c          	mov    %eax,0xc(%esp)
    2968:	c7 44 24 04 01 00 00 	movl   $0x1,0x4(%esp)
    296f:	00 
    2970:	c7 04 24 ff ff ff ff 	movl   $0xffffffff,(%esp)
    2977:	e8 d4 71 01 00       	call   19b50 <log_msg>
    297c:	e9 1b fb ff ff       	jmp    249c <usb_hub_port_process_interrupt+0xcc>
    2981:	8d b4 26 00 00 00 00 	lea    0x0(%esi,%eiz,1),%esi
    2988:	b8 6b e2 02 00       	mov    $0x2e26b,%eax
    298d:	e9 56 fb ff ff       	jmp    24e8 <usb_hub_port_process_interrupt+0x118>
    2992:	8d b6 00 00 00 00    	lea    0x0(%esi),%esi
    2998:	f7 c6 00 00 02 00    	test   $0x20000,%esi
    299e:	0f 85 ac fc ff ff    	jne    2650 <usb_hub_port_process_interrupt+0x280>
    29a4:	8b 55 0c             	mov    0xc(%ebp),%edx
    29a7:	89 f8                	mov    %edi,%eax
    29a9:	e8 72 f6 ff ff       	call   2020 <usb_hub_port_device_gone>
    29ae:	e9 d1 fa ff ff       	jmp    2484 <usb_hub_port_process_interrupt+0xb4>
    29b3:	90                   	nop
    29b4:	8d 74 26 00          	lea    0x0(%esi,%eiz,1),%esi
    29b8:	c7 44 24 08 93 e2 02 	movl   $0x2e293,0x8(%esp)
    29bf:	00 
    29c0:	c7 44 24 04 04 00 00 	movl   $0x4,0x4(%esp)
    29c7:	00 
    29c8:	c7 04 24 ff ff ff ff 	movl   $0xffffffff,(%esp)
    29cf:	e8 7c 71 01 00       	call   19b50 <log_msg>
    29d4:	e9 12 fe ff ff       	jmp    27eb <usb_hub_port_process_interrupt+0x41b>
    29d9:	8d b4 26 00 00 00 00 	lea    0x0(%esi,%eiz,1),%esi
    29e0:	89 04 24             	mov    %eax,(%esp)
    29e3:	e8 98 24 01 00       	call   14e80 <str_error>
    29e8:	c7 44 24 08 60 e4 02 	movl   $0x2e460,0x8(%esp)
    29ef:	00 
    29f0:	89 44 24 0c          	mov    %eax,0xc(%esp)
    29f4:	c7 44 24 04 02 00 00 	movl   $0x2,0x4(%esp)
    29fb:	00 
    29fc:	c7 04 24 ff ff ff ff 	movl   $0xffffffff,(%esp)
    2a03:	e8 48 71 01 00       	call   19b50 <log_msg>
    2a08:	e9 4d fb ff ff       	jmp    255a <usb_hub_port_process_interrupt+0x18a>
    2a0d:	89 1c 24             	mov    %ebx,(%esp)
    2a10:	e8 eb c2 01 00       	call   1ed00 <free>
    2a15:	c7 04 24 fe ff ff ff 	movl   $0xfffffffe,(%esp)
    2a1c:	e8 5f 24 01 00       	call   14e80 <str_error>
    2a21:	89 44 24 10          	mov    %eax,0x10(%esp)
    2a25:	8b 07                	mov    (%edi),%eax
    2a27:	c7 44 24 08 70 e6 02 	movl   $0x2e670,0x8(%esp)
    2a2e:	00 
    2a2f:	89 44 24 0c          	mov    %eax,0xc(%esp)
    2a33:	c7 44 24 04 01 00 00 	movl   $0x1,0x4(%esp)
    2a3a:	00 
    2a3b:	c7 04 24 ff ff ff ff 	movl   $0xffffffff,(%esp)
    2a42:	e8 09 71 01 00       	call   19b50 <log_msg>
    2a47:	e9 2c fa ff ff       	jmp    2478 <usb_hub_port_process_interrupt+0xa8>
    2a4c:	c7 44 24 08 8e 00 00 	movl   $0x8e,0x8(%esp)
    2a53:	00 
    2a54:	c7 44 24 04 f2 e1 02 	movl   $0x2e1f2,0x4(%esp)
    2a5b:	00 
    2a5c:	c7 04 24 98 dc 02 00 	movl   $0x2dc98,(%esp)
    2a63:	e8 e8 69 02 00       	call   29450 <assert_abort>
    2a68:	c7 44 24 08 8d 00 00 	movl   $0x8d,0x8(%esp)
    2a6f:	00 
    2a70:	c7 44 24 04 f2 e1 02 	movl   $0x2e1f2,0x4(%esp)
    2a77:	00 
    2a78:	c7 04 24 b3 dd 02 00 	movl   $0x2ddb3,(%esp)
    2a7f:	e8 cc 69 02 00       	call   29450 <assert_abort>
    2a84:	66 90                	xchg   %ax,%ax
    2a86:	66 90                	xchg   %ax,%ax
    2a88:	66 90                	xchg   %ax,%ax
    2a8a:	66 90                	xchg   %ax,%ax
    2a8c:	66 90                	xchg   %ax,%ax
    2a8e:	66 90                	xchg   %ax,%ax

00002a90 <usb_driver_main>:
    2a90:	55                   	push   %ebp
    2a91:	89 e5                	mov    %esp,%ebp
    2a93:	83 ec 18             	sub    $0x18,%esp
    2a96:	8b 45 08             	mov    0x8(%ebp),%eax
    2a99:	85 c0                	test   %eax,%eax
    2a9b:	74 1a                	je     2ab7 <usb_driver_main+0x27>
    2a9d:	8b 10                	mov    (%eax),%edx
    2a9f:	a3 84 26 03 00       	mov    %eax,0x32684
    2aa4:	89 15 88 21 03 00    	mov    %edx,0x32188
    2aaa:	c7 45 08 88 21 03 00 	movl   $0x32188,0x8(%ebp)
    2ab1:	c9                   	leave  
    2ab2:	e9 69 7c 00 00       	jmp    a720 <ddf_driver_main>
    2ab7:	c7 44 24 08 43 00 00 	movl   $0x43,0x8(%esp)
    2abe:	00 
    2abf:	c7 44 24 04 97 e6 02 	movl   $0x2e697,0x4(%esp)
    2ac6:	00 
    2ac7:	c7 04 24 a4 e6 02 00 	movl   $0x2e6a4,(%esp)
    2ace:	e8 7d 69 02 00       	call   29450 <assert_abort>
    2ad3:	8d b6 00 00 00 00    	lea    0x0(%esi),%esi
    2ad9:	8d bc 27 00 00 00 00 	lea    0x0(%edi,%eiz,1),%edi

00002ae0 <usb_device_retrieve_descriptors>:
    2ae0:	55                   	push   %ebp
    2ae1:	89 e5                	mov    %esp,%ebp
    2ae3:	57                   	push   %edi
    2ae4:	56                   	push   %esi
    2ae5:	53                   	push   %ebx
    2ae6:	83 ec 1c             	sub    $0x1c,%esp
    2ae9:	8b 5d 0c             	mov    0xc(%ebp),%ebx
    2aec:	8b 75 08             	mov    0x8(%ebp),%esi
    2aef:	85 db                	test   %ebx,%ebx
    2af1:	74 53                	je     2b46 <usb_device_retrieve_descriptors+0x66>
    2af3:	c7 43 14 00 00 00 00 	movl   $0x0,0x14(%ebx)
    2afa:	89 34 24             	mov    %esi,(%esp)
    2afd:	e8 0e 15 00 00       	call   4010 <usb_pipe_start_long_transfer>
    2b02:	89 5c 24 04          	mov    %ebx,0x4(%esp)
    2b06:	89 34 24             	mov    %esi,(%esp)
    2b09:	e8 92 37 00 00       	call   62a0 <usb_request_get_device_descriptor>
    2b0e:	89 c7                	mov    %eax,%edi
    2b10:	85 c0                	test   %eax,%eax
    2b12:	75 20                	jne    2b34 <usb_device_retrieve_descriptors+0x54>
    2b14:	8d 43 18             	lea    0x18(%ebx),%eax
    2b17:	83 c3 14             	add    $0x14,%ebx
    2b1a:	89 44 24 0c          	mov    %eax,0xc(%esp)
    2b1e:	89 5c 24 08          	mov    %ebx,0x8(%esp)
    2b22:	c7 44 24 04 00 00 00 	movl   $0x0,0x4(%esp)
    2b29:	00 
    2b2a:	89 34 24             	mov    %esi,(%esp)
    2b2d:	e8 7e 39 00 00       	call   64b0 <usb_request_get_full_configuration_descriptor_alloc>
    2b32:	89 c7                	mov    %eax,%edi
    2b34:	89 34 24             	mov    %esi,(%esp)
    2b37:	e8 54 15 00 00       	call   4090 <usb_pipe_end_long_transfer>
    2b3c:	83 c4 1c             	add    $0x1c,%esp
    2b3f:	89 f8                	mov    %edi,%eax
    2b41:	5b                   	pop    %ebx
    2b42:	5e                   	pop    %esi
    2b43:	5f                   	pop    %edi
    2b44:	5d                   	pop    %ebp
    2b45:	c3                   	ret    
    2b46:	c7 44 24 08 ee 00 00 	movl   $0xee,0x8(%esp)
    2b4d:	00 
    2b4e:	c7 44 24 04 97 e6 02 	movl   $0x2e697,0x4(%esp)
    2b55:	00 
    2b56:	c7 04 24 b0 e6 02 00 	movl   $0x2e6b0,(%esp)
    2b5d:	e8 ee 68 02 00       	call   29450 <assert_abort>
    2b62:	8d b4 26 00 00 00 00 	lea    0x0(%esi,%eiz,1),%esi
    2b69:	8d bc 27 00 00 00 00 	lea    0x0(%edi,%eiz,1),%edi

00002b70 <usb_device_release_descriptors>:
    2b70:	55                   	push   %ebp
    2b71:	89 e5                	mov    %esp,%ebp
    2b73:	53                   	push   %ebx
    2b74:	83 ec 14             	sub    $0x14,%esp
    2b77:	8b 5d 08             	mov    0x8(%ebp),%ebx
    2b7a:	85 db                	test   %ebx,%ebx
    2b7c:	74 18                	je     2b96 <usb_device_release_descriptors+0x26>
    2b7e:	8b 43 14             	mov    0x14(%ebx),%eax
    2b81:	89 04 24             	mov    %eax,(%esp)
    2b84:	e8 77 c1 01 00       	call   1ed00 <free>
    2b89:	c7 43 14 00 00 00 00 	movl   $0x0,0x14(%ebx)
    2b90:	83 c4 14             	add    $0x14,%esp
    2b93:	5b                   	pop    %ebx
    2b94:	5d                   	pop    %ebp
    2b95:	c3                   	ret    
    2b96:	c7 44 24 08 0e 01 00 	movl   $0x10e,0x8(%esp)
    2b9d:	00 
    2b9e:	c7 44 24 04 97 e6 02 	movl   $0x2e697,0x4(%esp)
    2ba5:	00 
    2ba6:	c7 04 24 c4 e6 02 00 	movl   $0x2e6c4,(%esp)
    2bad:	e8 9e 68 02 00       	call   29450 <assert_abort>
    2bb2:	8d b4 26 00 00 00 00 	lea    0x0(%esi,%eiz,1),%esi
    2bb9:	8d bc 27 00 00 00 00 	lea    0x0(%edi,%eiz,1),%edi

00002bc0 <usb_device_create_pipes>:
    2bc0:	55                   	push   %ebp
    2bc1:	89 e5                	mov    %esp,%ebp
    2bc3:	57                   	push   %edi
    2bc4:	56                   	push   %esi
    2bc5:	53                   	push   %ebx
    2bc6:	83 ec 3c             	sub    $0x3c,%esp
    2bc9:	8b 45 08             	mov    0x8(%ebp),%eax
    2bcc:	8b 55 0c             	mov    0xc(%ebp),%edx
    2bcf:	8b 7d 18             	mov    0x18(%ebp),%edi
    2bd2:	8b 75 1c             	mov    0x1c(%ebp),%esi
    2bd5:	85 c0                	test   %eax,%eax
    2bd7:	0f 84 ef 01 00 00    	je     2dcc <usb_device_create_pipes+0x20c>
    2bdd:	8b 45 10             	mov    0x10(%ebp),%eax
    2be0:	85 c0                	test   %eax,%eax
    2be2:	0f 84 c8 01 00 00    	je     2db0 <usb_device_create_pipes+0x1f0>
    2be8:	8b 45 14             	mov    0x14(%ebp),%eax
    2beb:	85 c0                	test   %eax,%eax
    2bed:	0f 84 a1 01 00 00    	je     2d94 <usb_device_create_pipes+0x1d4>
    2bf3:	8b 45 20             	mov    0x20(%ebp),%eax
    2bf6:	85 c0                	test   %eax,%eax
    2bf8:	0f 84 7a 01 00 00    	je     2d78 <usb_device_create_pipes+0x1b8>
    2bfe:	85 d2                	test   %edx,%edx
    2c00:	74 1a                	je     2c1c <usb_device_create_pipes+0x5c>
    2c02:	8b 02                	mov    (%edx),%eax
    2c04:	bb 01 00 00 00       	mov    $0x1,%ebx
    2c09:	85 c0                	test   %eax,%eax
    2c0b:	75 04                	jne    2c11 <usb_device_create_pipes+0x51>
    2c0d:	eb 0d                	jmp    2c1c <usb_device_create_pipes+0x5c>
    2c0f:	90                   	nop
    2c10:	43                   	inc    %ebx
    2c11:	8b 0c 9a             	mov    (%edx,%ebx,4),%ecx
    2c14:	85 c9                	test   %ecx,%ecx
    2c16:	75 f8                	jne    2c10 <usb_device_create_pipes+0x50>
    2c18:	85 db                	test   %ebx,%ebx
    2c1a:	75 2c                	jne    2c48 <usb_device_create_pipes+0x88>
    2c1c:	8b 55 24             	mov    0x24(%ebp),%edx
    2c1f:	85 d2                	test   %edx,%edx
    2c21:	74 09                	je     2c2c <usb_device_create_pipes+0x6c>
    2c23:	8b 4d 24             	mov    0x24(%ebp),%ecx
    2c26:	c7 01 00 00 00 00    	movl   $0x0,(%ecx)
    2c2c:	8b 5d 20             	mov    0x20(%ebp),%ebx
    2c2f:	31 d2                	xor    %edx,%edx
    2c31:	c7 03 00 00 00 00    	movl   $0x0,(%ebx)
    2c37:	83 c4 3c             	add    $0x3c,%esp
    2c3a:	89 d0                	mov    %edx,%eax
    2c3c:	5b                   	pop    %ebx
    2c3d:	5e                   	pop    %esi
    2c3e:	5f                   	pop    %edi
    2c3f:	5d                   	pop    %ebp
    2c40:	c3                   	ret    
    2c41:	8d b4 26 00 00 00 00 	lea    0x0(%esi,%eiz,1),%esi
    2c48:	c7 44 24 04 30 00 00 	movl   $0x30,0x4(%esp)
    2c4f:	00 
    2c50:	89 1c 24             	mov    %ebx,(%esp)
    2c53:	89 55 d8             	mov    %edx,-0x28(%ebp)
    2c56:	e8 35 bf 01 00       	call   1eb90 <calloc>
    2c5b:	8b 55 d8             	mov    -0x28(%ebp),%edx
    2c5e:	89 45 e0             	mov    %eax,-0x20(%ebp)
    2c61:	85 c0                	test   %eax,%eax
    2c63:	0f 84 05 01 00 00    	je     2d6e <usb_device_create_pipes+0x1ae>
    2c69:	89 45 dc             	mov    %eax,-0x24(%ebp)
    2c6c:	8d 0c 9a             	lea    (%edx,%ebx,4),%ecx
    2c6f:	89 5d e4             	mov    %ebx,-0x1c(%ebp)
    2c72:	8d b6 00 00 00 00    	lea    0x0(%esi),%esi
    2c78:	8b 1a                	mov    (%edx),%ebx
    2c7a:	83 c2 04             	add    $0x4,%edx
    2c7d:	89 58 18             	mov    %ebx,0x18(%eax)
    2c80:	89 78 1c             	mov    %edi,0x1c(%eax)
    2c83:	89 70 20             	mov    %esi,0x20(%eax)
    2c86:	83 c0 30             	add    $0x30,%eax
    2c89:	39 ca                	cmp    %ecx,%edx
    2c8b:	75 eb                	jne    2c78 <usb_device_create_pipes+0xb8>
    2c8d:	8b 4d 08             	mov    0x8(%ebp),%ecx
    2c90:	8b 5d e4             	mov    -0x1c(%ebp),%ebx
    2c93:	89 4c 24 10          	mov    %ecx,0x10(%esp)
    2c97:	8b 4d 14             	mov    0x14(%ebp),%ecx
    2c9a:	89 4c 24 0c          	mov    %ecx,0xc(%esp)
    2c9e:	8b 45 e0             	mov    -0x20(%ebp),%eax
    2ca1:	8b 4d 10             	mov    0x10(%ebp),%ecx
    2ca4:	89 5c 24 04          	mov    %ebx,0x4(%esp)
    2ca8:	89 4c 24 08          	mov    %ecx,0x8(%esp)
    2cac:	89 04 24             	mov    %eax,(%esp)
    2caf:	e8 fc 1a 00 00       	call   47b0 <usb_pipe_initialize_from_configuration>
    2cb4:	89 c2                	mov    %eax,%edx
    2cb6:	85 c0                	test   %eax,%eax
    2cb8:	0f 85 7f 00 00 00    	jne    2d3d <usb_device_create_pipes+0x17d>
    2cbe:	8b 75 e0             	mov    -0x20(%ebp),%esi
    2cc1:	31 ff                	xor    %edi,%edi
    2cc3:	89 45 e4             	mov    %eax,-0x1c(%ebp)
    2cc6:	eb 08                	jmp    2cd0 <usb_device_create_pipes+0x110>
    2cc8:	47                   	inc    %edi
    2cc9:	83 c6 30             	add    $0x30,%esi
    2ccc:	39 df                	cmp    %ebx,%edi
    2cce:	74 48                	je     2d18 <usb_device_create_pipes+0x158>
    2cd0:	80 7e 2c 00          	cmpb   $0x0,0x2c(%esi)
    2cd4:	74 f2                	je     2cc8 <usb_device_create_pipes+0x108>
    2cd6:	8b 46 24             	mov    0x24(%esi),%eax
    2cd9:	8a 40 06             	mov    0x6(%eax),%al
    2cdc:	89 34 24             	mov    %esi,(%esp)
    2cdf:	25 ff 00 00 00       	and    $0xff,%eax
    2ce4:	89 44 24 04          	mov    %eax,0x4(%esp)
    2ce8:	e8 c3 19 00 00       	call   46b0 <usb_pipe_register>
    2ced:	85 c0                	test   %eax,%eax
    2cef:	74 d7                	je     2cc8 <usb_device_create_pipes+0x108>
    2cf1:	31 f6                	xor    %esi,%esi
    2cf3:	89 45 e4             	mov    %eax,-0x1c(%ebp)
    2cf6:	8b 7d dc             	mov    -0x24(%ebp),%edi
    2cf9:	eb 0d                	jmp    2d08 <usb_device_create_pipes+0x148>
    2cfb:	90                   	nop
    2cfc:	8d 74 26 00          	lea    0x0(%esi,%eiz,1),%esi
    2d00:	46                   	inc    %esi
    2d01:	83 c7 30             	add    $0x30,%edi
    2d04:	39 de                	cmp    %ebx,%esi
    2d06:	74 4b                	je     2d53 <usb_device_create_pipes+0x193>
    2d08:	80 7f 2c 00          	cmpb   $0x0,0x2c(%edi)
    2d0c:	74 f2                	je     2d00 <usb_device_create_pipes+0x140>
    2d0e:	89 3c 24             	mov    %edi,(%esp)
    2d11:	e8 2a 1a 00 00       	call   4740 <usb_pipe_unregister>
    2d16:	eb e8                	jmp    2d00 <usb_device_create_pipes+0x140>
    2d18:	8b 4d 20             	mov    0x20(%ebp),%ecx
    2d1b:	8b 45 e0             	mov    -0x20(%ebp),%eax
    2d1e:	8b 55 e4             	mov    -0x1c(%ebp),%edx
    2d21:	89 01                	mov    %eax,(%ecx)
    2d23:	8b 45 24             	mov    0x24(%ebp),%eax
    2d26:	85 c0                	test   %eax,%eax
    2d28:	0f 84 09 ff ff ff    	je     2c37 <usb_device_create_pipes+0x77>
    2d2e:	8b 4d 24             	mov    0x24(%ebp),%ecx
    2d31:	89 d0                	mov    %edx,%eax
    2d33:	89 39                	mov    %edi,(%ecx)
    2d35:	83 c4 3c             	add    $0x3c,%esp
    2d38:	5b                   	pop    %ebx
    2d39:	5e                   	pop    %esi
    2d3a:	5f                   	pop    %edi
    2d3b:	5d                   	pop    %ebp
    2d3c:	c3                   	ret    
    2d3d:	8b 45 e0             	mov    -0x20(%ebp),%eax
    2d40:	89 55 d8             	mov    %edx,-0x28(%ebp)
    2d43:	89 04 24             	mov    %eax,(%esp)
    2d46:	e8 b5 bf 01 00       	call   1ed00 <free>
    2d4b:	8b 55 d8             	mov    -0x28(%ebp),%edx
    2d4e:	e9 e4 fe ff ff       	jmp    2c37 <usb_device_create_pipes+0x77>
    2d53:	8b 45 e0             	mov    -0x20(%ebp),%eax
    2d56:	8b 4d e4             	mov    -0x1c(%ebp),%ecx
    2d59:	89 04 24             	mov    %eax,(%esp)
    2d5c:	89 4d d8             	mov    %ecx,-0x28(%ebp)
    2d5f:	e8 9c bf 01 00       	call   1ed00 <free>
    2d64:	8b 4d d8             	mov    -0x28(%ebp),%ecx
    2d67:	89 ca                	mov    %ecx,%edx
    2d69:	e9 c9 fe ff ff       	jmp    2c37 <usb_device_create_pipes+0x77>
    2d6e:	ba fe ff ff ff       	mov    $0xfffffffe,%edx
    2d73:	e9 bf fe ff ff       	jmp    2c37 <usb_device_create_pipes+0x77>
    2d78:	c7 44 24 08 2f 01 00 	movl   $0x12f,0x8(%esp)
    2d7f:	00 
    2d80:	c7 44 24 04 97 e6 02 	movl   $0x2e697,0x4(%esp)
    2d87:	00 
    2d88:	c7 04 24 fb e6 02 00 	movl   $0x2e6fb,(%esp)
    2d8f:	e8 bc 66 02 00       	call   29450 <assert_abort>
    2d94:	c7 44 24 08 2e 01 00 	movl   $0x12e,0x8(%esp)
    2d9b:	00 
    2d9c:	c7 44 24 04 97 e6 02 	movl   $0x2e697,0x4(%esp)
    2da3:	00 
    2da4:	c7 04 24 e5 e6 02 00 	movl   $0x2e6e5,(%esp)
    2dab:	e8 a0 66 02 00       	call   29450 <assert_abort>
    2db0:	c7 44 24 08 2d 01 00 	movl   $0x12d,0x8(%esp)
    2db7:	00 
    2db8:	c7 44 24 04 97 e6 02 	movl   $0x2e697,0x4(%esp)
    2dbf:	00 
    2dc0:	c7 04 24 d0 e6 02 00 	movl   $0x2e6d0,(%esp)
    2dc7:	e8 84 66 02 00       	call   29450 <assert_abort>
    2dcc:	c7 44 24 08 2c 01 00 	movl   $0x12c,0x8(%esp)
    2dd3:	00 
    2dd4:	c7 44 24 04 97 e6 02 	movl   $0x2e697,0x4(%esp)
    2ddb:	00 
    2ddc:	c7 04 24 c4 e9 02 00 	movl   $0x2e9c4,(%esp)
    2de3:	e8 68 66 02 00       	call   29450 <assert_abort>
    2de8:	90                   	nop
    2de9:	8d b4 26 00 00 00 00 	lea    0x0(%esi,%eiz,1),%esi

00002df0 <usb_device_select_interface>:
    2df0:	55                   	push   %ebp
    2df1:	89 e5                	mov    %esp,%ebp
    2df3:	57                   	push   %edi
    2df4:	56                   	push   %esi
    2df5:	53                   	push   %ebx
    2df6:	83 ec 3c             	sub    $0x3c,%esp
    2df9:	8b 7d 08             	mov    0x8(%ebp),%edi
    2dfc:	8a 45 0c             	mov    0xc(%ebp),%al
    2dff:	88 45 df             	mov    %al,-0x21(%ebp)
    2e02:	8b 4f 44             	mov    0x44(%edi),%ecx
    2e05:	85 c9                	test   %ecx,%ecx
    2e07:	0f 88 f0 00 00 00    	js     2efd <usb_device_select_interface+0x10d>
    2e0d:	8b 47 40             	mov    0x40(%edi),%eax
    2e10:	89 45 e0             	mov    %eax,-0x20(%ebp)
    2e13:	8b 47 3c             	mov    0x3c(%edi),%eax
    2e16:	8b 55 e0             	mov    -0x20(%ebp),%edx
    2e19:	89 45 e4             	mov    %eax,-0x1c(%ebp)
    2e1c:	85 d2                	test   %edx,%edx
    2e1e:	74 57                	je     2e77 <usb_device_select_interface+0x87>
    2e20:	85 c0                	test   %eax,%eax
    2e22:	0f 84 dc 00 00 00    	je     2f04 <usb_device_select_interface+0x114>
    2e28:	8b 5d e4             	mov    -0x1c(%ebp),%ebx
    2e2b:	31 f6                	xor    %esi,%esi
    2e2d:	b8 0d e7 02 00       	mov    $0x2e70d,%eax
    2e32:	80 7b 2c 00          	cmpb   $0x0,0x2c(%ebx)
    2e36:	74 05                	je     2e3d <usb_device_select_interface+0x4d>
    2e38:	b8 81 06 03 00       	mov    $0x30681,%eax
    2e3d:	89 44 24 10          	mov    %eax,0x10(%esp)
    2e41:	89 74 24 0c          	mov    %esi,0xc(%esp)
    2e45:	c7 44 24 08 dc e7 02 	movl   $0x2e7dc,0x8(%esp)
    2e4c:	00 
    2e4d:	c7 44 24 04 05 00 00 	movl   $0x5,0x4(%esp)
    2e54:	00 
    2e55:	c7 04 24 ff ff ff ff 	movl   $0xffffffff,(%esp)
    2e5c:	e8 ef 6c 01 00       	call   19b50 <log_msg>
    2e61:	80 7b 2c 00          	cmpb   $0x0,0x2c(%ebx)
    2e65:	0f 85 85 00 00 00    	jne    2ef0 <usb_device_select_interface+0x100>
    2e6b:	46                   	inc    %esi
    2e6c:	83 c3 30             	add    $0x30,%ebx
    2e6f:	3b 75 e0             	cmp    -0x20(%ebp),%esi
    2e72:	75 b9                	jne    2e2d <usb_device_select_interface+0x3d>
    2e74:	8b 45 e4             	mov    -0x1c(%ebp),%eax
    2e77:	89 04 24             	mov    %eax,(%esp)
    2e7a:	31 db                	xor    %ebx,%ebx
    2e7c:	e8 7f be 01 00       	call   1ed00 <free>
    2e81:	8a 5d df             	mov    -0x21(%ebp),%bl
    2e84:	c7 47 3c 00 00 00 00 	movl   $0x0,0x3c(%edi)
    2e8b:	c7 47 40 00 00 00 00 	movl   $0x0,0x40(%edi)
    2e92:	31 c0                	xor    %eax,%eax
    2e94:	89 5c 24 08          	mov    %ebx,0x8(%esp)
    2e98:	8a 47 44             	mov    0x44(%edi),%al
    2e9b:	89 44 24 04          	mov    %eax,0x4(%esp)
    2e9f:	8d 47 24             	lea    0x24(%edi),%eax
    2ea2:	89 04 24             	mov    %eax,(%esp)
    2ea5:	e8 d6 39 00 00       	call   6880 <usb_request_set_interface>
    2eaa:	85 c0                	test   %eax,%eax
    2eac:	75 39                	jne    2ee7 <usb_device_select_interface+0xf7>
    2eae:	8d 47 40             	lea    0x40(%edi),%eax
    2eb1:	89 5c 24 14          	mov    %ebx,0x14(%esp)
    2eb5:	89 44 24 1c          	mov    %eax,0x1c(%esp)
    2eb9:	8d 47 3c             	lea    0x3c(%edi),%eax
    2ebc:	89 44 24 18          	mov    %eax,0x18(%esp)
    2ec0:	8b 47 44             	mov    0x44(%edi),%eax
    2ec3:	89 44 24 10          	mov    %eax,0x10(%esp)
    2ec7:	8b 47 6c             	mov    0x6c(%edi),%eax
    2eca:	89 44 24 0c          	mov    %eax,0xc(%esp)
    2ece:	8b 47 68             	mov    0x68(%edi),%eax
    2ed1:	83 c7 1c             	add    $0x1c,%edi
    2ed4:	89 44 24 08          	mov    %eax,0x8(%esp)
    2ed8:	8b 45 10             	mov    0x10(%ebp),%eax
    2edb:	89 44 24 04          	mov    %eax,0x4(%esp)
    2edf:	89 3c 24             	mov    %edi,(%esp)
    2ee2:	e8 d9 fc ff ff       	call   2bc0 <usb_device_create_pipes>
    2ee7:	83 c4 3c             	add    $0x3c,%esp
    2eea:	5b                   	pop    %ebx
    2eeb:	5e                   	pop    %esi
    2eec:	5f                   	pop    %edi
    2eed:	5d                   	pop    %ebp
    2eee:	c3                   	ret    
    2eef:	90                   	nop
    2ef0:	89 1c 24             	mov    %ebx,(%esp)
    2ef3:	e8 48 18 00 00       	call   4740 <usb_pipe_unregister>
    2ef8:	e9 6e ff ff ff       	jmp    2e6b <usb_device_select_interface+0x7b>
    2efd:	b8 f2 ff ff ff       	mov    $0xfffffff2,%eax
    2f02:	eb e3                	jmp    2ee7 <usb_device_select_interface+0xf7>
    2f04:	c7 44 24 08 7d 01 00 	movl   $0x17d,0x8(%esp)
    2f0b:	00 
    2f0c:	c7 44 24 04 97 e6 02 	movl   $0x2e697,0x4(%esp)
    2f13:	00 
    2f14:	c7 04 24 12 e7 02 00 	movl   $0x2e712,(%esp)
    2f1b:	e8 30 65 02 00       	call   29450 <assert_abort>

00002f20 <usb_device_destroy_pipes>:
    2f20:	55                   	push   %ebp
    2f21:	89 e5                	mov    %esp,%ebp
    2f23:	57                   	push   %edi
    2f24:	56                   	push   %esi
    2f25:	53                   	push   %ebx
    2f26:	83 ec 3c             	sub    $0x3c,%esp
    2f29:	8b 45 0c             	mov    0xc(%ebp),%eax
    2f2c:	8b 7d 08             	mov    0x8(%ebp),%edi
    2f2f:	89 45 e4             	mov    %eax,-0x1c(%ebp)
    2f32:	85 c0                	test   %eax,%eax
    2f34:	74 4b                	je     2f81 <usb_device_destroy_pipes+0x61>
    2f36:	85 ff                	test   %edi,%edi
    2f38:	74 60                	je     2f9a <usb_device_destroy_pipes+0x7a>
    2f3a:	89 fb                	mov    %edi,%ebx
    2f3c:	31 f6                	xor    %esi,%esi
    2f3e:	b8 0d e7 02 00       	mov    $0x2e70d,%eax
    2f43:	80 7b 2c 00          	cmpb   $0x0,0x2c(%ebx)
    2f47:	74 05                	je     2f4e <usb_device_destroy_pipes+0x2e>
    2f49:	b8 81 06 03 00       	mov    $0x30681,%eax
    2f4e:	89 44 24 10          	mov    %eax,0x10(%esp)
    2f52:	89 74 24 0c          	mov    %esi,0xc(%esp)
    2f56:	c7 44 24 08 dc e7 02 	movl   $0x2e7dc,0x8(%esp)
    2f5d:	00 
    2f5e:	c7 44 24 04 05 00 00 	movl   $0x5,0x4(%esp)
    2f65:	00 
    2f66:	c7 04 24 ff ff ff ff 	movl   $0xffffffff,(%esp)
    2f6d:	e8 de 6b 01 00       	call   19b50 <log_msg>
    2f72:	80 7b 2c 00          	cmpb   $0x0,0x2c(%ebx)
    2f76:	75 18                	jne    2f90 <usb_device_destroy_pipes+0x70>
    2f78:	46                   	inc    %esi
    2f79:	83 c3 30             	add    $0x30,%ebx
    2f7c:	3b 75 e4             	cmp    -0x1c(%ebp),%esi
    2f7f:	75 bd                	jne    2f3e <usb_device_destroy_pipes+0x1e>
    2f81:	89 7d 08             	mov    %edi,0x8(%ebp)
    2f84:	83 c4 3c             	add    $0x3c,%esp
    2f87:	5b                   	pop    %ebx
    2f88:	5e                   	pop    %esi
    2f89:	5f                   	pop    %edi
    2f8a:	5d                   	pop    %ebp
    2f8b:	e9 70 bd 01 00       	jmp    1ed00 <free>
    2f90:	89 1c 24             	mov    %ebx,(%esp)
    2f93:	e8 a8 17 00 00       	call   4740 <usb_pipe_unregister>
    2f98:	eb de                	jmp    2f78 <usb_device_destroy_pipes+0x58>
    2f9a:	c7 44 24 08 7d 01 00 	movl   $0x17d,0x8(%esp)
    2fa1:	00 
    2fa2:	c7 44 24 04 97 e6 02 	movl   $0x2e697,0x4(%esp)
    2fa9:	00 
    2faa:	c7 04 24 12 e7 02 00 	movl   $0x2e712,(%esp)
    2fb1:	e8 9a 64 02 00       	call   29450 <assert_abort>
    2fb6:	8d 76 00             	lea    0x0(%esi),%esi
    2fb9:	8d bc 27 00 00 00 00 	lea    0x0(%edi,%eiz,1),%edi

00002fc0 <usb_device_init>:
    2fc0:	55                   	push   %ebp
    2fc1:	89 e5                	mov    %esp,%ebp
    2fc3:	57                   	push   %edi
    2fc4:	56                   	push   %esi
    2fc5:	53                   	push   %ebx
    2fc6:	83 ec 4c             	sub    $0x4c,%esp
    2fc9:	8b 5d 08             	mov    0x8(%ebp),%ebx
    2fcc:	8b 45 0c             	mov    0xc(%ebp),%eax
    2fcf:	85 db                	test   %ebx,%ebx
    2fd1:	0f 84 3a 02 00 00    	je     3211 <usb_device_init+0x251>
    2fd7:	85 c0                	test   %eax,%eax
    2fd9:	0f 84 16 02 00 00    	je     31f5 <usb_device_init+0x235>
    2fdf:	8b 55 14             	mov    0x14(%ebp),%edx
    2fe2:	c7 02 00 00 00 00    	movl   $0x0,(%edx)
    2fe8:	89 43 70             	mov    %eax,0x70(%ebx)
    2feb:	c7 43 74 00 00 00 00 	movl   $0x0,0x74(%ebx)
    2ff2:	c7 43 68 00 00 00 00 	movl   $0x0,0x68(%ebx)
    2ff9:	c7 43 40 00 00 00 00 	movl   $0x0,0x40(%ebx)
    3000:	c7 43 3c 00 00 00 00 	movl   $0x0,0x3c(%ebx)
    3007:	89 04 24             	mov    %eax,(%esp)
    300a:	e8 b1 6f 00 00       	call   9fc0 <ddf_dev_get_handle>
    300f:	8d 4b 44             	lea    0x44(%ebx),%ecx
    3012:	89 4c 24 0c          	mov    %ecx,0xc(%esp)
    3016:	8d 4d e2             	lea    -0x1e(%ebp),%ecx
    3019:	89 4c 24 08          	mov    %ecx,0x8(%esp)
    301d:	8d 4d e4             	lea    -0x1c(%ebp),%ecx
    3020:	89 4c 24 04          	mov    %ecx,0x4(%esp)
    3024:	89 04 24             	mov    %eax,(%esp)
    3027:	e8 74 4f 00 00       	call   7fa0 <usb_get_info_by_handle>
    302c:	89 c1                	mov    %eax,%ecx
    302e:	85 c0                	test   %eax,%eax
    3030:	74 16                	je     3048 <usb_device_init+0x88>
    3032:	8b 55 14             	mov    0x14(%ebp),%edx
    3035:	c7 02 38 e7 02 00    	movl   $0x2e738,(%edx)
    303b:	83 c4 4c             	add    $0x4c,%esp
    303e:	89 c8                	mov    %ecx,%eax
    3040:	5b                   	pop    %ebx
    3041:	5e                   	pop    %esi
    3042:	5f                   	pop    %edi
    3043:	5d                   	pop    %ebp
    3044:	c3                   	ret    
    3045:	8d 76 00             	lea    0x0(%esi),%esi
    3048:	8b 45 e4             	mov    -0x1c(%ebp),%eax
    304b:	c7 43 04 00 00 00 00 	movl   $0x0,0x4(%ebx)
    3052:	89 03                	mov    %eax,(%ebx)
    3054:	8d 43 08             	lea    0x8(%ebx),%eax
    3057:	c7 43 18 00 00 00 00 	movl   $0x0,0x18(%ebx)
    305e:	89 04 24             	mov    %eax,(%esp)
    3061:	e8 ea 27 01 00       	call   15850 <fibril_mutex_initialize>
    3066:	66 8b 45 e2          	mov    -0x1e(%ebp),%ax
    306a:	66 83 f8 7f          	cmp    $0x7f,%ax
    306e:	8d 7b 1c             	lea    0x1c(%ebx),%edi
    3071:	0f 87 95 00 00 00    	ja     310c <usb_device_init+0x14c>
    3077:	8d 73 24             	lea    0x24(%ebx),%esi
    307a:	89 5b 1c             	mov    %ebx,0x1c(%ebx)
    307d:	66 89 43 20          	mov    %ax,0x20(%ebx)
    3081:	89 7c 24 04          	mov    %edi,0x4(%esp)
    3085:	89 34 24             	mov    %esi,(%esp)
    3088:	e8 a3 15 00 00       	call   4630 <usb_pipe_initialize_default_control>
    308d:	89 c1                	mov    %eax,%ecx
    308f:	85 c0                	test   %eax,%eax
    3091:	74 0d                	je     30a0 <usb_device_init+0xe0>
    3093:	8b 55 14             	mov    0x14(%ebp),%edx
    3096:	c7 02 00 e8 02 00    	movl   $0x2e800,(%edx)
    309c:	eb 9d                	jmp    303b <usb_device_init+0x7b>
    309e:	66 90                	xchg   %ax,%ax
    30a0:	89 1c 24             	mov    %ebx,(%esp)
    30a3:	e8 98 56 00 00       	call   8740 <usb_hc_connection_open>
    30a8:	89 c1                	mov    %eax,%ecx
    30aa:	85 c0                	test   %eax,%eax
    30ac:	74 12                	je     30c0 <usb_device_init+0x100>
    30ae:	8b 55 14             	mov    0x14(%ebp),%edx
    30b1:	c7 02 54 e7 02 00    	movl   $0x2e754,(%edx)
    30b7:	eb 82                	jmp    303b <usb_device_init+0x7b>
    30b9:	8d b4 26 00 00 00 00 	lea    0x0(%esi,%eiz,1),%esi
    30c0:	c7 43 68 00 00 00 00 	movl   $0x0,0x68(%ebx)
    30c7:	89 34 24             	mov    %esi,(%esp)
    30ca:	e8 41 0f 00 00       	call   4010 <usb_pipe_start_long_transfer>
    30cf:	8d 43 54             	lea    0x54(%ebx),%eax
    30d2:	89 44 24 04          	mov    %eax,0x4(%esp)
    30d6:	89 34 24             	mov    %esi,(%esp)
    30d9:	e8 c2 31 00 00       	call   62a0 <usb_request_get_device_descriptor>
    30de:	85 c0                	test   %eax,%eax
    30e0:	74 3d                	je     311f <usb_device_init+0x15f>
    30e2:	89 34 24             	mov    %esi,(%esp)
    30e5:	89 45 d4             	mov    %eax,-0x2c(%ebp)
    30e8:	e8 a3 0f 00 00       	call   4090 <usb_pipe_end_long_transfer>
    30ed:	8b 4d d4             	mov    -0x2c(%ebp),%ecx
    30f0:	8b 55 14             	mov    0x14(%ebp),%edx
    30f3:	c7 02 67 e7 02 00    	movl   $0x2e767,(%edx)
    30f9:	89 1c 24             	mov    %ebx,(%esp)
    30fc:	89 4d d4             	mov    %ecx,-0x2c(%ebp)
    30ff:	e8 ec 56 00 00       	call   87f0 <usb_hc_connection_close>
    3104:	8b 4d d4             	mov    -0x2c(%ebp),%ecx
    3107:	e9 2f ff ff ff       	jmp    303b <usb_device_init+0x7b>
    310c:	8b 55 14             	mov    0x14(%ebp),%edx
    310f:	b9 f2 ff ff ff       	mov    $0xfffffff2,%ecx
    3114:	c7 02 24 e8 02 00    	movl   $0x2e824,(%edx)
    311a:	e9 1c ff ff ff       	jmp    303b <usb_device_init+0x7b>
    311f:	8d 43 6c             	lea    0x6c(%ebx),%eax
    3122:	c7 44 24 04 00 00 00 	movl   $0x0,0x4(%esp)
    3129:	00 
    312a:	89 44 24 0c          	mov    %eax,0xc(%esp)
    312e:	8d 43 68             	lea    0x68(%ebx),%eax
    3131:	89 44 24 08          	mov    %eax,0x8(%esp)
    3135:	89 34 24             	mov    %esi,(%esp)
    3138:	e8 73 33 00 00       	call   64b0 <usb_request_get_full_configuration_descriptor_alloc>
    313d:	89 34 24             	mov    %esi,(%esp)
    3140:	89 45 d4             	mov    %eax,-0x2c(%ebp)
    3143:	e8 48 0f 00 00       	call   4090 <usb_pipe_end_long_transfer>
    3148:	8b 4d d4             	mov    -0x2c(%ebp),%ecx
    314b:	85 c9                	test   %ecx,%ecx
    314d:	75 a1                	jne    30f0 <usb_device_init+0x130>
    314f:	8b 43 44             	mov    0x44(%ebx),%eax
    3152:	8d 73 48             	lea    0x48(%ebx),%esi
    3155:	89 44 24 0c          	mov    %eax,0xc(%esp)
    3159:	8b 43 6c             	mov    0x6c(%ebx),%eax
    315c:	89 44 24 08          	mov    %eax,0x8(%esp)
    3160:	8b 43 68             	mov    0x68(%ebx),%eax
    3163:	89 34 24             	mov    %esi,(%esp)
    3166:	89 44 24 04          	mov    %eax,0x4(%esp)
    316a:	e8 81 3c 00 00       	call   6df0 <usb_alternate_interfaces_init>
    316f:	31 c9                	xor    %ecx,%ecx
    3171:	85 c0                	test   %eax,%eax
    3173:	75 03                	jne    3178 <usb_device_init+0x1b8>
    3175:	8b 4b 50             	mov    0x50(%ebx),%ecx
    3178:	8d 43 40             	lea    0x40(%ebx),%eax
    317b:	89 4c 24 14          	mov    %ecx,0x14(%esp)
    317f:	89 44 24 1c          	mov    %eax,0x1c(%esp)
    3183:	8d 43 3c             	lea    0x3c(%ebx),%eax
    3186:	89 44 24 18          	mov    %eax,0x18(%esp)
    318a:	8b 43 44             	mov    0x44(%ebx),%eax
    318d:	89 44 24 10          	mov    %eax,0x10(%esp)
    3191:	8b 43 6c             	mov    0x6c(%ebx),%eax
    3194:	89 44 24 0c          	mov    %eax,0xc(%esp)
    3198:	8b 43 68             	mov    0x68(%ebx),%eax
    319b:	89 3c 24             	mov    %edi,(%esp)
    319e:	89 44 24 08          	mov    %eax,0x8(%esp)
    31a2:	8b 45 10             	mov    0x10(%ebp),%eax
    31a5:	89 44 24 04          	mov    %eax,0x4(%esp)
    31a9:	e8 12 fa ff ff       	call   2bc0 <usb_device_create_pipes>
    31ae:	89 1c 24             	mov    %ebx,(%esp)
    31b1:	89 45 d4             	mov    %eax,-0x2c(%ebp)
    31b4:	85 c0                	test   %eax,%eax
    31b6:	75 0d                	jne    31c5 <usb_device_init+0x205>
    31b8:	e8 33 56 00 00       	call   87f0 <usb_hc_connection_close>
    31bd:	8b 4d d4             	mov    -0x2c(%ebp),%ecx
    31c0:	e9 76 fe ff ff       	jmp    303b <usb_device_init+0x7b>
    31c5:	e8 26 56 00 00       	call   87f0 <usb_hc_connection_close>
    31ca:	8b 43 68             	mov    0x68(%ebx),%eax
    31cd:	89 04 24             	mov    %eax,(%esp)
    31d0:	e8 2b bb 01 00       	call   1ed00 <free>
    31d5:	c7 43 68 00 00 00 00 	movl   $0x0,0x68(%ebx)
    31dc:	89 34 24             	mov    %esi,(%esp)
    31df:	e8 3c 3e 00 00       	call   7020 <usb_alternate_interfaces_deinit>
    31e4:	8b 55 14             	mov    0x14(%ebp),%edx
    31e7:	8b 4d d4             	mov    -0x2c(%ebp),%ecx
    31ea:	c7 02 7c e7 02 00    	movl   $0x2e77c,(%edx)
    31f0:	e9 46 fe ff ff       	jmp    303b <usb_device_init+0x7b>
    31f5:	c7 44 24 08 93 01 00 	movl   $0x193,0x8(%esp)
    31fc:	00 
    31fd:	c7 44 24 04 97 e6 02 	movl   $0x2e697,0x4(%esp)
    3204:	00 
    3205:	c7 04 24 28 e7 02 00 	movl   $0x2e728,(%esp)
    320c:	e8 3f 62 02 00       	call   29450 <assert_abort>
    3211:	c7 44 24 08 92 01 00 	movl   $0x192,0x8(%esp)
    3218:	00 
    3219:	c7 44 24 04 97 e6 02 	movl   $0x2e697,0x4(%esp)
    3220:	00 
    3221:	c7 04 24 18 e7 02 00 	movl   $0x2e718,(%esp)
    3228:	e8 23 62 02 00       	call   29450 <assert_abort>
    322d:	8d 76 00             	lea    0x0(%esi),%esi

00003230 <usb_device_deinit>:
    3230:	55                   	push   %ebp
    3231:	89 e5                	mov    %esp,%ebp
    3233:	57                   	push   %edi
    3234:	56                   	push   %esi
    3235:	53                   	push   %ebx
    3236:	83 ec 3c             	sub    $0x3c,%esp
    3239:	8b 75 08             	mov    0x8(%ebp),%esi
    323c:	85 f6                	test   %esi,%esi
    323e:	0f 84 c4 00 00 00    	je     3308 <usb_device_deinit+0xd8>
    3244:	8b 55 08             	mov    0x8(%ebp),%edx
    3247:	8b 52 40             	mov    0x40(%edx),%edx
    324a:	89 55 e4             	mov    %edx,-0x1c(%ebp)
    324d:	8b 55 08             	mov    0x8(%ebp),%edx
    3250:	8b 5d e4             	mov    -0x1c(%ebp),%ebx
    3253:	8b 7a 3c             	mov    0x3c(%edx),%edi
    3256:	85 db                	test   %ebx,%ebx
    3258:	74 4f                	je     32a9 <usb_device_deinit+0x79>
    325a:	85 ff                	test   %edi,%edi
    325c:	0f 84 b8 00 00 00    	je     331a <usb_device_deinit+0xea>
    3262:	89 fb                	mov    %edi,%ebx
    3264:	31 f6                	xor    %esi,%esi
    3266:	b8 0d e7 02 00       	mov    $0x2e70d,%eax
    326b:	80 7b 2c 00          	cmpb   $0x0,0x2c(%ebx)
    326f:	74 05                	je     3276 <usb_device_deinit+0x46>
    3271:	b8 81 06 03 00       	mov    $0x30681,%eax
    3276:	89 44 24 10          	mov    %eax,0x10(%esp)
    327a:	89 74 24 0c          	mov    %esi,0xc(%esp)
    327e:	c7 44 24 08 dc e7 02 	movl   $0x2e7dc,0x8(%esp)
    3285:	00 
    3286:	c7 44 24 04 05 00 00 	movl   $0x5,0x4(%esp)
    328d:	00 
    328e:	c7 04 24 ff ff ff ff 	movl   $0xffffffff,(%esp)
    3295:	e8 b6 68 01 00       	call   19b50 <log_msg>
    329a:	80 7b 2c 00          	cmpb   $0x0,0x2c(%ebx)
    329e:	75 70                	jne    3310 <usb_device_deinit+0xe0>
    32a0:	46                   	inc    %esi
    32a1:	83 c3 30             	add    $0x30,%ebx
    32a4:	3b 75 e4             	cmp    -0x1c(%ebp),%esi
    32a7:	75 bd                	jne    3266 <usb_device_deinit+0x36>
    32a9:	89 3c 24             	mov    %edi,(%esp)
    32ac:	e8 4f ba 01 00       	call   1ed00 <free>
    32b1:	8b 55 08             	mov    0x8(%ebp),%edx
    32b4:	c7 42 3c 00 00 00 00 	movl   $0x0,0x3c(%edx)
    32bb:	c7 42 40 00 00 00 00 	movl   $0x0,0x40(%edx)
    32c2:	89 14 24             	mov    %edx,(%esp)
    32c5:	e8 c6 53 00 00       	call   8690 <usb_hc_connection_deinitialize>
    32ca:	8b 45 08             	mov    0x8(%ebp),%eax
    32cd:	83 c0 48             	add    $0x48,%eax
    32d0:	89 04 24             	mov    %eax,(%esp)
    32d3:	e8 48 3d 00 00       	call   7020 <usb_alternate_interfaces_deinit>
    32d8:	8b 55 08             	mov    0x8(%ebp),%edx
    32db:	8b 42 68             	mov    0x68(%edx),%eax
    32de:	89 04 24             	mov    %eax,(%esp)
    32e1:	e8 1a ba 01 00       	call   1ed00 <free>
    32e6:	8b 55 08             	mov    0x8(%ebp),%edx
    32e9:	8b 42 74             	mov    0x74(%edx),%eax
    32ec:	c7 42 68 00 00 00 00 	movl   $0x0,0x68(%edx)
    32f3:	89 04 24             	mov    %eax,(%esp)
    32f6:	e8 05 ba 01 00       	call   1ed00 <free>
    32fb:	8b 55 08             	mov    0x8(%ebp),%edx
    32fe:	c7 42 74 00 00 00 00 	movl   $0x0,0x74(%edx)
    3305:	8d 76 00             	lea    0x0(%esi),%esi
    3308:	83 c4 3c             	add    $0x3c,%esp
    330b:	5b                   	pop    %ebx
    330c:	5e                   	pop    %esi
    330d:	5f                   	pop    %edi
    330e:	5d                   	pop    %ebp
    330f:	c3                   	ret    
    3310:	89 1c 24             	mov    %ebx,(%esp)
    3313:	e8 28 14 00 00       	call   4740 <usb_pipe_unregister>
    3318:	eb 86                	jmp    32a0 <usb_device_deinit+0x70>
    331a:	c7 44 24 08 7d 01 00 	movl   $0x17d,0x8(%esp)
    3321:	00 
    3322:	c7 44 24 04 97 e6 02 	movl   $0x2e697,0x4(%esp)
    3329:	00 
    332a:	c7 04 24 12 e7 02 00 	movl   $0x2e712,(%esp)
    3331:	e8 1a 61 02 00       	call   29450 <assert_abort>
    3336:	8d 76 00             	lea    0x0(%esi),%esi
    3339:	8d bc 27 00 00 00 00 	lea    0x0(%edi,%eiz,1),%edi

00003340 <generic_device_gone>:
    3340:	55                   	push   %ebp
    3341:	89 e5                	mov    %esp,%ebp
    3343:	56                   	push   %esi
    3344:	83 ec 24             	sub    $0x24,%esp
    3347:	a1 84 26 03 00       	mov    0x32684,%eax
    334c:	85 c0                	test   %eax,%eax
    334e:	74 73                	je     33c3 <generic_device_gone+0x83>
    3350:	8b 40 08             	mov    0x8(%eax),%eax
    3353:	85 c0                	test   %eax,%eax
    3355:	74 50                	je     33a7 <generic_device_gone+0x67>
    3357:	8b 40 08             	mov    0x8(%eax),%eax
    335a:	85 c0                	test   %eax,%eax
    335c:	74 42                	je     33a0 <generic_device_gone+0x60>
    335e:	8b 45 08             	mov    0x8(%ebp),%eax
    3361:	89 04 24             	mov    %eax,(%esp)
    3364:	e8 47 6c 00 00       	call   9fb0 <ddf_dev_data_get>
    3369:	89 c6                	mov    %eax,%esi
    336b:	a1 84 26 03 00       	mov    0x32684,%eax
    3370:	8b 40 08             	mov    0x8(%eax),%eax
    3373:	89 34 24             	mov    %esi,(%esp)
    3376:	ff 50 08             	call   *0x8(%eax)
    3379:	85 c0                	test   %eax,%eax
    337b:	74 0b                	je     3388 <generic_device_gone+0x48>
    337d:	83 c4 24             	add    $0x24,%esp
    3380:	5e                   	pop    %esi
    3381:	5d                   	pop    %ebp
    3382:	c3                   	ret    
    3383:	90                   	nop
    3384:	8d 74 26 00          	lea    0x0(%esi,%eiz,1),%esi
    3388:	89 34 24             	mov    %esi,(%esp)
    338b:	89 45 f4             	mov    %eax,-0xc(%ebp)
    338e:	e8 9d fe ff ff       	call   3230 <usb_device_deinit>
    3393:	8b 45 f4             	mov    -0xc(%ebp),%eax
    3396:	83 c4 24             	add    $0x24,%esp
    3399:	5e                   	pop    %esi
    339a:	5d                   	pop    %ebp
    339b:	c3                   	ret    
    339c:	8d 74 26 00          	lea    0x0(%esi,%eiz,1),%esi
    33a0:	b8 f5 ff ff ff       	mov    $0xfffffff5,%eax
    33a5:	eb d6                	jmp    337d <generic_device_gone+0x3d>
    33a7:	c7 44 24 08 9f 00 00 	movl   $0x9f,0x8(%esp)
    33ae:	00 
    33af:	c7 44 24 04 97 e6 02 	movl   $0x2e697,0x4(%esp)
    33b6:	00 
    33b7:	c7 04 24 98 e7 02 00 	movl   $0x2e798,(%esp)
    33be:	e8 8d 60 02 00       	call   29450 <assert_abort>
    33c3:	c7 44 24 08 9e 00 00 	movl   $0x9e,0x8(%esp)
    33ca:	00 
    33cb:	c7 44 24 04 97 e6 02 	movl   $0x2e697,0x4(%esp)
    33d2:	00 
    33d3:	c7 04 24 91 e7 02 00 	movl   $0x2e791,(%esp)
    33da:	e8 71 60 02 00       	call   29450 <assert_abort>
    33df:	90                   	nop

000033e0 <generic_device_remove>:
    33e0:	55                   	push   %ebp
    33e1:	89 e5                	mov    %esp,%ebp
    33e3:	56                   	push   %esi
    33e4:	83 ec 24             	sub    $0x24,%esp
    33e7:	a1 84 26 03 00       	mov    0x32684,%eax
    33ec:	85 c0                	test   %eax,%eax
    33ee:	74 6b                	je     345b <generic_device_remove+0x7b>
    33f0:	8b 40 08             	mov    0x8(%eax),%eax
    33f3:	85 c0                	test   %eax,%eax
    33f5:	74 48                	je     343f <generic_device_remove+0x5f>
    33f7:	8b 40 04             	mov    0x4(%eax),%eax
    33fa:	85 c0                	test   %eax,%eax
    33fc:	74 3a                	je     3438 <generic_device_remove+0x58>
    33fe:	8b 45 08             	mov    0x8(%ebp),%eax
    3401:	89 04 24             	mov    %eax,(%esp)
    3404:	e8 a7 6b 00 00       	call   9fb0 <ddf_dev_data_get>
    3409:	89 c6                	mov    %eax,%esi
    340b:	a1 84 26 03 00       	mov    0x32684,%eax
    3410:	8b 40 08             	mov    0x8(%eax),%eax
    3413:	89 34 24             	mov    %esi,(%esp)
    3416:	ff 50 04             	call   *0x4(%eax)
    3419:	85 c0                	test   %eax,%eax
    341b:	75 0e                	jne    342b <generic_device_remove+0x4b>
    341d:	89 34 24             	mov    %esi,(%esp)
    3420:	89 45 f4             	mov    %eax,-0xc(%ebp)
    3423:	e8 08 fe ff ff       	call   3230 <usb_device_deinit>
    3428:	8b 45 f4             	mov    -0xc(%ebp),%eax
    342b:	83 c4 24             	add    $0x24,%esp
    342e:	5e                   	pop    %esi
    342f:	5d                   	pop    %ebp
    3430:	c3                   	ret    
    3431:	8d b4 26 00 00 00 00 	lea    0x0(%esi,%eiz,1),%esi
    3438:	b8 f5 ff ff ff       	mov    $0xfffffff5,%eax
    343d:	eb ec                	jmp    342b <generic_device_remove+0x4b>
    343f:	c7 44 24 08 89 00 00 	movl   $0x89,0x8(%esp)
    3446:	00 
    3447:	c7 44 24 04 97 e6 02 	movl   $0x2e697,0x4(%esp)
    344e:	00 
    344f:	c7 04 24 98 e7 02 00 	movl   $0x2e798,(%esp)
    3456:	e8 f5 5f 02 00       	call   29450 <assert_abort>
    345b:	c7 44 24 08 88 00 00 	movl   $0x88,0x8(%esp)
    3462:	00 
    3463:	c7 44 24 04 97 e6 02 	movl   $0x2e697,0x4(%esp)
    346a:	00 
    346b:	c7 04 24 91 e7 02 00 	movl   $0x2e791,(%esp)
    3472:	e8 d9 5f 02 00       	call   29450 <assert_abort>
    3477:	89 f6                	mov    %esi,%esi
    3479:	8d bc 27 00 00 00 00 	lea    0x0(%edi,%eiz,1),%edi

00003480 <generic_device_add>:
    3480:	55                   	push   %ebp
    3481:	89 e5                	mov    %esp,%ebp
    3483:	57                   	push   %edi
    3484:	56                   	push   %esi
    3485:	53                   	push   %ebx
    3486:	83 ec 4c             	sub    $0x4c,%esp
    3489:	a1 84 26 03 00       	mov    0x32684,%eax
    348e:	8b 7d 08             	mov    0x8(%ebp),%edi
    3491:	85 c0                	test   %eax,%eax
    3493:	0f 84 2f 01 00 00    	je     35c8 <generic_device_add+0x148>
    3499:	8b 40 08             	mov    0x8(%eax),%eax
    349c:	85 c0                	test   %eax,%eax
    349e:	0f 84 08 01 00 00    	je     35ac <generic_device_add+0x12c>
    34a4:	8b 00                	mov    (%eax),%eax
    34a6:	85 c0                	test   %eax,%eax
    34a8:	0f 84 36 01 00 00    	je     35e4 <generic_device_add+0x164>
    34ae:	c7 44 24 04 78 00 00 	movl   $0x78,0x4(%esp)
    34b5:	00 
    34b6:	89 3c 24             	mov    %edi,(%esp)
    34b9:	e8 62 6a 00 00       	call   9f20 <ddf_dev_data_alloc>
    34be:	89 c6                	mov    %eax,%esi
    34c0:	85 c0                	test   %eax,%eax
    34c2:	0f 84 b2 00 00 00    	je     357a <generic_device_add+0xfa>
    34c8:	8d 45 e4             	lea    -0x1c(%ebp),%eax
    34cb:	c7 45 e4 00 00 00 00 	movl   $0x0,-0x1c(%ebp)
    34d2:	89 44 24 0c          	mov    %eax,0xc(%esp)
    34d6:	a1 84 26 03 00       	mov    0x32684,%eax
    34db:	8b 40 04             	mov    0x4(%eax),%eax
    34de:	89 7c 24 04          	mov    %edi,0x4(%esp)
    34e2:	89 44 24 08          	mov    %eax,0x8(%esp)
    34e6:	89 34 24             	mov    %esi,(%esp)
    34e9:	e8 d2 fa ff ff       	call   2fc0 <usb_device_init>
    34ee:	89 c3                	mov    %eax,%ebx
    34f0:	85 c0                	test   %eax,%eax
    34f2:	75 24                	jne    3518 <generic_device_add+0x98>
    34f4:	a1 84 26 03 00       	mov    0x32684,%eax
    34f9:	8b 40 08             	mov    0x8(%eax),%eax
    34fc:	89 34 24             	mov    %esi,(%esp)
    34ff:	ff 10                	call   *(%eax)
    3501:	89 c3                	mov    %eax,%ebx
    3503:	85 c0                	test   %eax,%eax
    3505:	75 61                	jne    3568 <generic_device_add+0xe8>
    3507:	83 c4 4c             	add    $0x4c,%esp
    350a:	89 d8                	mov    %ebx,%eax
    350c:	5b                   	pop    %ebx
    350d:	5e                   	pop    %esi
    350e:	5f                   	pop    %edi
    350f:	5d                   	pop    %ebp
    3510:	c3                   	ret    
    3511:	8d b4 26 00 00 00 00 	lea    0x0(%esi,%eiz,1),%esi
    3518:	89 04 24             	mov    %eax,(%esp)
    351b:	e8 60 19 01 00       	call   14e80 <str_error>
    3520:	89 3c 24             	mov    %edi,(%esp)
    3523:	8b 75 e4             	mov    -0x1c(%ebp),%esi
    3526:	89 45 d4             	mov    %eax,-0x2c(%ebp)
    3529:	e8 a2 6a 00 00       	call   9fd0 <ddf_dev_get_name>
    352e:	8b 55 d4             	mov    -0x2c(%ebp),%edx
    3531:	89 74 24 10          	mov    %esi,0x10(%esp)
    3535:	89 44 24 0c          	mov    %eax,0xc(%esp)
    3539:	89 54 24 14          	mov    %edx,0x14(%esp)
    353d:	c7 44 24 08 78 e8 02 	movl   $0x2e878,0x8(%esp)
    3544:	00 
    3545:	c7 44 24 04 01 00 00 	movl   $0x1,0x4(%esp)
    354c:	00 
    354d:	c7 04 24 ff ff ff ff 	movl   $0xffffffff,(%esp)
    3554:	e8 f7 65 01 00       	call   19b50 <log_msg>
    3559:	83 c4 4c             	add    $0x4c,%esp
    355c:	89 d8                	mov    %ebx,%eax
    355e:	5b                   	pop    %ebx
    355f:	5e                   	pop    %esi
    3560:	5f                   	pop    %edi
    3561:	5d                   	pop    %ebp
    3562:	c3                   	ret    
    3563:	90                   	nop
    3564:	8d 74 26 00          	lea    0x0(%esi,%eiz,1),%esi
    3568:	89 34 24             	mov    %esi,(%esp)
    356b:	e8 c0 fc ff ff       	call   3230 <usb_device_deinit>
    3570:	83 c4 4c             	add    $0x4c,%esp
    3573:	89 d8                	mov    %ebx,%eax
    3575:	5b                   	pop    %ebx
    3576:	5e                   	pop    %esi
    3577:	5f                   	pop    %edi
    3578:	5d                   	pop    %ebp
    3579:	c3                   	ret    
    357a:	89 3c 24             	mov    %edi,(%esp)
    357d:	bb fe ff ff ff       	mov    $0xfffffffe,%ebx
    3582:	e8 49 6a 00 00       	call   9fd0 <ddf_dev_get_name>
    3587:	c7 44 24 08 48 e8 02 	movl   $0x2e848,0x8(%esp)
    358e:	00 
    358f:	89 44 24 0c          	mov    %eax,0xc(%esp)
    3593:	c7 44 24 04 01 00 00 	movl   $0x1,0x4(%esp)
    359a:	00 
    359b:	c7 04 24 ff ff ff ff 	movl   $0xffffffff,(%esp)
    35a2:	e8 a9 65 01 00       	call   19b50 <log_msg>
    35a7:	e9 5b ff ff ff       	jmp    3507 <generic_device_add+0x87>
    35ac:	c7 44 24 08 64 00 00 	movl   $0x64,0x8(%esp)
    35b3:	00 
    35b4:	c7 44 24 04 97 e6 02 	movl   $0x2e697,0x4(%esp)
    35bb:	00 
    35bc:	c7 04 24 98 e7 02 00 	movl   $0x2e798,(%esp)
    35c3:	e8 88 5e 02 00       	call   29450 <assert_abort>
    35c8:	c7 44 24 08 63 00 00 	movl   $0x63,0x8(%esp)
    35cf:	00 
    35d0:	c7 44 24 04 97 e6 02 	movl   $0x2e697,0x4(%esp)
    35d7:	00 
    35d8:	c7 04 24 91 e7 02 00 	movl   $0x2e791,(%esp)
    35df:	e8 6c 5e 02 00       	call   29450 <assert_abort>
    35e4:	c7 44 24 08 65 00 00 	movl   $0x65,0x8(%esp)
    35eb:	00 
    35ec:	c7 44 24 04 97 e6 02 	movl   $0x2e697,0x4(%esp)
    35f3:	00 
    35f4:	c7 04 24 a4 e7 02 00 	movl   $0x2e7a4,(%esp)
    35fb:	e8 50 5e 02 00       	call   29450 <assert_abort>

00003600 <usb_device_data_alloc>:
    3600:	55                   	push   %ebp
    3601:	89 e5                	mov    %esp,%ebp
    3603:	53                   	push   %ebx
    3604:	83 ec 14             	sub    $0x14,%esp
    3607:	8b 5d 08             	mov    0x8(%ebp),%ebx
    360a:	85 db                	test   %ebx,%ebx
    360c:	74 23                	je     3631 <usb_device_data_alloc+0x31>
    360e:	8b 43 74             	mov    0x74(%ebx),%eax
    3611:	85 c0                	test   %eax,%eax
    3613:	75 38                	jne    364d <usb_device_data_alloc+0x4d>
    3615:	8b 45 0c             	mov    0xc(%ebp),%eax
    3618:	c7 04 24 01 00 00 00 	movl   $0x1,(%esp)
    361f:	89 44 24 04          	mov    %eax,0x4(%esp)
    3623:	e8 68 b5 01 00       	call   1eb90 <calloc>
    3628:	89 43 74             	mov    %eax,0x74(%ebx)
    362b:	83 c4 14             	add    $0x14,%esp
    362e:	5b                   	pop    %ebx
    362f:	5d                   	pop    %ebp
    3630:	c3                   	ret    
    3631:	c7 44 24 08 05 02 00 	movl   $0x205,0x8(%esp)
    3638:	00 
    3639:	c7 44 24 04 97 e6 02 	movl   $0x2e697,0x4(%esp)
    3640:	00 
    3641:	c7 04 24 3d dd 02 00 	movl   $0x2dd3d,(%esp)
    3648:	e8 03 5e 02 00       	call   29450 <assert_abort>
    364d:	c7 44 24 08 06 02 00 	movl   $0x206,0x8(%esp)
    3654:	00 
    3655:	c7 44 24 04 97 e6 02 	movl   $0x2e697,0x4(%esp)
    365c:	00 
    365d:	c7 04 24 bc e7 02 00 	movl   $0x2e7bc,(%esp)
    3664:	e8 e7 5d 02 00       	call   29450 <assert_abort>
    3669:	66 90                	xchg   %ax,%ax
    366b:	66 90                	xchg   %ax,%ax
    366d:	66 90                	xchg   %ax,%ax
    366f:	90                   	nop

00003670 <polling_fibril>:
    3670:	55                   	push   %ebp
    3671:	89 e5                	mov    %esp,%ebp
    3673:	57                   	push   %edi
    3674:	56                   	push   %esi
    3675:	53                   	push   %ebx
    3676:	83 ec 6c             	sub    $0x6c,%esp
    3679:	8b 7d 08             	mov    0x8(%ebp),%edi
    367c:	85 ff                	test   %edi,%edi
    367e:	0f 84 17 03 00 00    	je     399b <polling_fibril+0x32b>
    3684:	8b 47 24             	mov    0x24(%edi),%eax
    3687:	8b 4f 20             	mov    0x20(%edi),%ecx
    368a:	8d 34 40             	lea    (%eax,%eax,2),%esi
    368d:	8b 51 3c             	mov    0x3c(%ecx),%edx
    3690:	c1 e6 04             	shl    $0x4,%esi
    3693:	8b 0f                	mov    (%edi),%ecx
    3695:	01 d6                	add    %edx,%esi
    3697:	85 c9                	test   %ecx,%ecx
    3699:	0f 8e 95 00 00 00    	jle    3734 <polling_fibril+0xc4>
    369f:	8b 46 28             	mov    0x28(%esi),%eax
    36a2:	8b 57 28             	mov    0x28(%edi),%edx
    36a5:	89 55 d4             	mov    %edx,-0x2c(%ebp)
    36a8:	31 d2                	xor    %edx,%edx
    36aa:	8a 50 07             	mov    0x7(%eax),%dl
    36ad:	8b 4e 10             	mov    0x10(%esi),%ecx
    36b0:	89 55 d0             	mov    %edx,-0x30(%ebp)
    36b3:	31 d2                	xor    %edx,%edx
    36b5:	8a 50 06             	mov    0x6(%eax),%dl
    36b8:	8a 40 05             	mov    0x5(%eax),%al
    36bb:	25 ff 00 00 00       	and    $0xff,%eax
    36c0:	89 4d c4             	mov    %ecx,-0x3c(%ebp)
    36c3:	89 04 24             	mov    %eax,(%esp)
    36c6:	89 55 cc             	mov    %edx,-0x34(%ebp)
    36c9:	e8 22 46 00 00       	call   7cf0 <usb_str_class>
    36ce:	31 db                	xor    %ebx,%ebx
    36d0:	89 c2                	mov    %eax,%edx
    36d2:	8b 46 28             	mov    0x28(%esi),%eax
    36d5:	8a 58 02             	mov    0x2(%eax),%bl
    36d8:	8b 47 20             	mov    0x20(%edi),%eax
    36db:	8b 40 70             	mov    0x70(%eax),%eax
    36de:	89 55 c8             	mov    %edx,-0x38(%ebp)
    36e1:	89 04 24             	mov    %eax,(%esp)
    36e4:	e8 e7 68 00 00       	call   9fd0 <ddf_dev_get_name>
    36e9:	8b 4d c4             	mov    -0x3c(%ebp),%ecx
    36ec:	89 4c 24 28          	mov    %ecx,0x28(%esp)
    36f0:	8b 4d d4             	mov    -0x2c(%ebp),%ecx
    36f3:	89 4c 24 24          	mov    %ecx,0x24(%esp)
    36f7:	8b 4d d0             	mov    -0x30(%ebp),%ecx
    36fa:	89 4c 24 20          	mov    %ecx,0x20(%esp)
    36fe:	8b 55 c8             	mov    -0x38(%ebp),%edx
    3701:	8b 4d cc             	mov    -0x34(%ebp),%ecx
    3704:	89 54 24 18          	mov    %edx,0x18(%esp)
    3708:	89 4c 24 1c          	mov    %ecx,0x1c(%esp)
    370c:	89 5c 24 14          	mov    %ebx,0x14(%esp)
    3710:	89 44 24 10          	mov    %eax,0x10(%esp)
    3714:	89 7c 24 0c          	mov    %edi,0xc(%esp)
    3718:	c7 44 24 08 e0 e8 02 	movl   $0x2e8e0,0x8(%esp)
    371f:	00 
    3720:	c7 44 24 04 04 00 00 	movl   $0x4,0x4(%esp)
    3727:	00 
    3728:	c7 04 24 ff ff ff ff 	movl   $0xffffffff,(%esp)
    372f:	e8 1c 64 01 00       	call   19b50 <log_msg>
    3734:	89 34 24             	mov    %esi,(%esp)
    3737:	31 db                	xor    %ebx,%ebx
    3739:	e8 d2 08 00 00       	call   4010 <usb_pipe_start_long_transfer>
    373e:	66 90                	xchg   %ax,%ax
    3740:	8d 45 e4             	lea    -0x1c(%ebp),%eax
    3743:	89 44 24 0c          	mov    %eax,0xc(%esp)
    3747:	8b 47 28             	mov    0x28(%edi),%eax
    374a:	89 44 24 08          	mov    %eax,0x8(%esp)
    374e:	8b 47 2c             	mov    0x2c(%edi),%eax
    3751:	89 34 24             	mov    %esi,(%esp)
    3754:	89 44 24 04          	mov    %eax,0x4(%esp)
    3758:	e8 73 0c 00 00       	call   43d0 <usb_pipe_read>
    375d:	83 3f 01             	cmpl   $0x1,(%edi)
    3760:	89 c2                	mov    %eax,%edx
    3762:	0f 8e 90 00 00 00    	jle    37f8 <polling_fibril+0x188>
    3768:	85 c0                	test   %eax,%eax
    376a:	0f 85 50 01 00 00    	jne    38c0 <polling_fibril+0x250>
    3770:	8b 5d e4             	mov    -0x1c(%ebp),%ebx
    3773:	c7 44 24 08 10 00 00 	movl   $0x10,0x8(%esp)
    377a:	00 
    377b:	89 5c 24 04          	mov    %ebx,0x4(%esp)
    377f:	8b 47 2c             	mov    0x2c(%edi),%eax
    3782:	89 04 24             	mov    %eax,(%esp)
    3785:	e8 b6 4d 00 00       	call   8540 <usb_debug_str_buffer>
    378a:	89 5c 24 14          	mov    %ebx,0x14(%esp)
    378e:	89 44 24 10          	mov    %eax,0x10(%esp)
    3792:	89 7c 24 0c          	mov    %edi,0xc(%esp)
    3796:	c7 44 24 08 28 e9 02 	movl   $0x2e928,0x8(%esp)
    379d:	00 
    379e:	c7 44 24 04 04 00 00 	movl   $0x4,0x4(%esp)
    37a5:	00 
    37a6:	c7 04 24 ff ff ff ff 	movl   $0xffffffff,(%esp)
    37ad:	e8 9e 63 01 00       	call   19b50 <log_msg>
    37b2:	8b 47 10             	mov    0x10(%edi),%eax
    37b5:	85 c0                	test   %eax,%eax
    37b7:	0f 84 c2 01 00 00    	je     397f <polling_fibril+0x30f>
    37bd:	8b 57 1c             	mov    0x1c(%edi),%edx
    37c0:	89 54 24 0c          	mov    %edx,0xc(%esp)
    37c4:	8b 55 e4             	mov    -0x1c(%ebp),%edx
    37c7:	89 54 24 08          	mov    %edx,0x8(%esp)
    37cb:	8b 57 2c             	mov    0x2c(%edi),%edx
    37ce:	89 54 24 04          	mov    %edx,0x4(%esp)
    37d2:	8b 57 20             	mov    0x20(%edi),%edx
    37d5:	89 14 24             	mov    %edx,(%esp)
    37d8:	ff d0                	call   *%eax
    37da:	84 c0                	test   %al,%al
    37dc:	0f 84 96 01 00 00    	je     3978 <polling_fibril+0x308>
    37e2:	8b 47 08             	mov    0x8(%edi),%eax
    37e5:	31 db                	xor    %ebx,%ebx
    37e7:	89 04 24             	mov    %eax,(%esp)
    37ea:	e8 c1 d7 01 00       	call   20fb0 <async_usleep>
    37ef:	e9 4c ff ff ff       	jmp    3740 <polling_fibril+0xd0>
    37f4:	8d 74 26 00          	lea    0x0(%esi,%eiz,1),%esi
    37f8:	3d d3 fe ff ff       	cmp    $0xfffffed3,%eax
    37fd:	0f 84 fb 00 00 00    	je     38fe <polling_fibril+0x28e>
    3803:	85 c0                	test   %eax,%eax
    3805:	74 ab                	je     37b2 <polling_fibril+0x142>
    3807:	8b 47 18             	mov    0x18(%edi),%eax
    380a:	85 c0                	test   %eax,%eax
    380c:	0f 84 26 01 00 00    	je     3938 <polling_fibril+0x2c8>
    3812:	8b 4f 1c             	mov    0x1c(%edi),%ecx
    3815:	89 54 24 04          	mov    %edx,0x4(%esp)
    3819:	89 4c 24 08          	mov    %ecx,0x8(%esp)
    381d:	8b 57 20             	mov    0x20(%edi),%edx
    3820:	89 14 24             	mov    %edx,(%esp)
    3823:	ff d0                	call   *%eax
    3825:	84 c0                	test   %al,%al
    3827:	0f 85 0b 01 00 00    	jne    3938 <polling_fibril+0x2c8>
    382d:	8b 5f 04             	mov    0x4(%edi),%ebx
    3830:	89 d8                	mov    %ebx,%eax
    3832:	39 c3                	cmp    %eax,%ebx
    3834:	0f 86 06 ff ff ff    	jbe    3740 <polling_fibril+0xd0>
    383a:	85 db                	test   %ebx,%ebx
    383c:	0f 95 c3             	setne  %bl
    383f:	89 34 24             	mov    %esi,(%esp)
    3842:	e8 49 08 00 00       	call   4090 <usb_pipe_end_long_transfer>
    3847:	8b 47 14             	mov    0x14(%edi),%eax
    384a:	85 c0                	test   %eax,%eax
    384c:	74 17                	je     3865 <polling_fibril+0x1f5>
    384e:	8b 4f 1c             	mov    0x1c(%edi),%ecx
    3851:	89 4c 24 08          	mov    %ecx,0x8(%esp)
    3855:	31 c9                	xor    %ecx,%ecx
    3857:	88 d9                	mov    %bl,%cl
    3859:	89 4c 24 04          	mov    %ecx,0x4(%esp)
    385d:	8b 4f 20             	mov    0x20(%edi),%ecx
    3860:	89 0c 24             	mov    %ecx,(%esp)
    3863:	ff d0                	call   *%eax
    3865:	8b 07                	mov    (%edi),%eax
    3867:	85 c0                	test   %eax,%eax
    3869:	7e 36                	jle    38a1 <polling_fibril+0x231>
    386b:	8b 47 20             	mov    0x20(%edi),%eax
    386e:	84 db                	test   %bl,%bl
    3870:	8b 40 70             	mov    0x70(%eax),%eax
    3873:	89 04 24             	mov    %eax,(%esp)
    3876:	0f 85 cc 00 00 00    	jne    3948 <polling_fibril+0x2d8>
    387c:	e8 4f 67 00 00       	call   9fd0 <ddf_dev_get_name>
    3881:	c7 44 24 08 80 e9 02 	movl   $0x2e980,0x8(%esp)
    3888:	00 
    3889:	89 44 24 0c          	mov    %eax,0xc(%esp)
    388d:	c7 44 24 04 04 00 00 	movl   $0x4,0x4(%esp)
    3894:	00 
    3895:	c7 04 24 ff ff ff ff 	movl   $0xffffffff,(%esp)
    389c:	e8 af 62 01 00       	call   19b50 <log_msg>
    38a1:	8b 47 2c             	mov    0x2c(%edi),%eax
    38a4:	89 04 24             	mov    %eax,(%esp)
    38a7:	e8 54 b4 01 00       	call   1ed00 <free>
    38ac:	89 3c 24             	mov    %edi,(%esp)
    38af:	e8 4c b4 01 00       	call   1ed00 <free>
    38b4:	83 c4 6c             	add    $0x6c,%esp
    38b7:	31 c0                	xor    %eax,%eax
    38b9:	5b                   	pop    %ebx
    38ba:	5e                   	pop    %esi
    38bb:	5f                   	pop    %edi
    38bc:	5d                   	pop    %ebp
    38bd:	c3                   	ret    
    38be:	66 90                	xchg   %ax,%ax
    38c0:	89 04 24             	mov    %eax,(%esp)
    38c3:	89 45 c8             	mov    %eax,-0x38(%ebp)
    38c6:	e8 b5 15 01 00       	call   14e80 <str_error>
    38cb:	89 7c 24 0c          	mov    %edi,0xc(%esp)
    38cf:	89 44 24 10          	mov    %eax,0x10(%esp)
    38d3:	c7 44 24 08 b1 e8 02 	movl   $0x2e8b1,0x8(%esp)
    38da:	00 
    38db:	c7 44 24 04 04 00 00 	movl   $0x4,0x4(%esp)
    38e2:	00 
    38e3:	c7 04 24 ff ff ff ff 	movl   $0xffffffff,(%esp)
    38ea:	e8 61 62 01 00       	call   19b50 <log_msg>
    38ef:	8b 55 c8             	mov    -0x38(%ebp),%edx
    38f2:	81 fa d3 fe ff ff    	cmp    $0xfffffed3,%edx
    38f8:	0f 85 09 ff ff ff    	jne    3807 <polling_fibril+0x197>
    38fe:	80 7f 0c 00          	cmpb   $0x0,0xc(%edi)
    3902:	0f 84 ff fe ff ff    	je     3807 <polling_fibril+0x197>
    3908:	8b 46 04             	mov    0x4(%esi),%eax
    390b:	25 ff ff 00 00       	and    $0xffff,%eax
    3910:	89 44 24 04          	mov    %eax,0x4(%esp)
    3914:	8b 47 20             	mov    0x20(%edi),%eax
    3917:	89 55 c8             	mov    %edx,-0x38(%ebp)
    391a:	83 c0 24             	add    $0x24,%eax
    391d:	89 04 24             	mov    %eax,(%esp)
    3920:	e8 9b 32 00 00       	call   6bc0 <usb_request_clear_endpoint_halt>
    3925:	8b 47 18             	mov    0x18(%edi),%eax
    3928:	8b 55 c8             	mov    -0x38(%ebp),%edx
    392b:	85 c0                	test   %eax,%eax
    392d:	0f 85 df fe ff ff    	jne    3812 <polling_fibril+0x1a2>
    3933:	90                   	nop
    3934:	8d 74 26 00          	lea    0x0(%esi,%eiz,1),%esi
    3938:	43                   	inc    %ebx
    3939:	8b 47 04             	mov    0x4(%edi),%eax
    393c:	e9 f1 fe ff ff       	jmp    3832 <polling_fibril+0x1c2>
    3941:	8d b4 26 00 00 00 00 	lea    0x0(%esi,%eiz,1),%esi
    3948:	e8 83 66 00 00       	call   9fd0 <ddf_dev_get_name>
    394d:	c7 44 24 08 48 e9 02 	movl   $0x2e948,0x8(%esp)
    3954:	00 
    3955:	89 44 24 0c          	mov    %eax,0xc(%esp)
    3959:	c7 44 24 04 01 00 00 	movl   $0x1,0x4(%esp)
    3960:	00 
    3961:	c7 04 24 ff ff ff ff 	movl   $0xffffffff,(%esp)
    3968:	e8 e3 61 01 00       	call   19b50 <log_msg>
    396d:	e9 2f ff ff ff       	jmp    38a1 <polling_fibril+0x231>
    3972:	8d b6 00 00 00 00    	lea    0x0(%esi),%esi
    3978:	31 db                	xor    %ebx,%ebx
    397a:	e9 c0 fe ff ff       	jmp    383f <polling_fibril+0x1cf>
    397f:	c7 44 24 08 85 00 00 	movl   $0x85,0x8(%esp)
    3986:	00 
    3987:	c7 44 24 04 9f e8 02 	movl   $0x2e89f,0x4(%esp)
    398e:	00 
    398f:	c7 04 24 ce e8 02 00 	movl   $0x2e8ce,(%esp)
    3996:	e8 b5 5a 02 00       	call   29450 <assert_abort>
    399b:	c7 44 24 08 45 00 00 	movl   $0x45,0x8(%esp)
    39a2:	00 
    39a3:	c7 44 24 04 9f e8 02 	movl   $0x2e89f,0x4(%esp)
    39aa:	00 
    39ab:	c7 04 24 ad e8 02 00 	movl   $0x2e8ad,(%esp)
    39b2:	e8 99 5a 02 00       	call   29450 <assert_abort>
    39b7:	89 f6                	mov    %esi,%esi
    39b9:	8d bc 27 00 00 00 00 	lea    0x0(%edi,%eiz,1),%edi

000039c0 <usb_device_auto_polling>:
    39c0:	55                   	push   %ebp
    39c1:	89 e5                	mov    %esp,%ebp
    39c3:	57                   	push   %edi
    39c4:	56                   	push   %esi
    39c5:	53                   	push   %ebx
    39c6:	83 ec 2c             	sub    $0x2c,%esp
    39c9:	8b 45 10             	mov    0x10(%ebp),%eax
    39cc:	8b 75 0c             	mov    0xc(%ebp),%esi
    39cf:	8b 7d 14             	mov    0x14(%ebp),%edi
    39d2:	85 c0                	test   %eax,%eax
    39d4:	0f 84 ee 00 00 00    	je     3ac8 <usb_device_auto_polling+0x108>
    39da:	8b 45 08             	mov    0x8(%ebp),%eax
    39dd:	85 c0                	test   %eax,%eax
    39df:	0f 84 e3 00 00 00    	je     3ac8 <usb_device_auto_polling+0x108>
    39e5:	8b 45 10             	mov    0x10(%ebp),%eax
    39e8:	8b 58 10             	mov    0x10(%eax),%ebx
    39eb:	85 db                	test   %ebx,%ebx
    39ed:	0f 84 d5 00 00 00    	je     3ac8 <usb_device_auto_polling+0x108>
    39f3:	8b 55 08             	mov    0x8(%ebp),%edx
    39f6:	39 72 40             	cmp    %esi,0x40(%edx)
    39f9:	0f 86 a1 00 00 00    	jbe    3aa0 <usb_device_auto_polling+0xe0>
    39ff:	85 ff                	test   %edi,%edi
    3a01:	0f 84 99 00 00 00    	je     3aa0 <usb_device_auto_polling+0xe0>
    3a07:	8d 14 76             	lea    (%esi,%esi,2),%edx
    3a0a:	c1 e2 04             	shl    $0x4,%edx
    3a0d:	89 d0                	mov    %edx,%eax
    3a0f:	89 55 e4             	mov    %edx,-0x1c(%ebp)
    3a12:	8b 55 08             	mov    0x8(%ebp),%edx
    3a15:	8b 4a 3c             	mov    0x3c(%edx),%ecx
    3a18:	01 c8                	add    %ecx,%eax
    3a1a:	83 78 08 03          	cmpl   $0x3,0x8(%eax)
    3a1e:	0f 85 7c 00 00 00    	jne    3aa0 <usb_device_auto_polling+0xe0>
    3a24:	8b 40 0c             	mov    0xc(%eax),%eax
    3a27:	85 c0                	test   %eax,%eax
    3a29:	75 75                	jne    3aa0 <usb_device_auto_polling+0xe0>
    3a2b:	c7 04 24 30 00 00 00 	movl   $0x30,(%esp)
    3a32:	e8 b9 b1 01 00       	call   1ebf0 <malloc>
    3a37:	89 c3                	mov    %eax,%ebx
    3a39:	85 c0                	test   %eax,%eax
    3a3b:	0f 84 af 00 00 00    	je     3af0 <usb_device_auto_polling+0x130>
    3a41:	c7 04 24 04 00 00 00 	movl   $0x4,(%esp)
    3a48:	e8 a3 b1 01 00       	call   1ebf0 <malloc>
    3a4d:	89 43 2c             	mov    %eax,0x2c(%ebx)
    3a50:	85 c0                	test   %eax,%eax
    3a52:	0f 84 83 00 00 00    	je     3adb <usb_device_auto_polling+0x11b>
    3a58:	8b 55 08             	mov    0x8(%ebp),%edx
    3a5b:	89 7b 28             	mov    %edi,0x28(%ebx)
    3a5e:	89 73 24             	mov    %esi,0x24(%ebx)
    3a61:	89 53 20             	mov    %edx,0x20(%ebx)
    3a64:	b9 08 00 00 00       	mov    $0x8,%ecx
    3a69:	89 df                	mov    %ebx,%edi
    3a6b:	8b 75 10             	mov    0x10(%ebp),%esi
    3a6e:	f3 a5                	rep movsl %ds:(%esi),%es:(%edi)
    3a70:	8b 45 10             	mov    0x10(%ebp),%eax
    3a73:	8b 70 08             	mov    0x8(%eax),%esi
    3a76:	85 f6                	test   %esi,%esi
    3a78:	78 36                	js     3ab0 <usb_device_auto_polling+0xf0>
    3a7a:	89 5c 24 04          	mov    %ebx,0x4(%esp)
    3a7e:	c7 04 24 70 36 00 00 	movl   $0x3670,(%esp)
    3a85:	e8 06 19 01 00       	call   15390 <fibril_create>
    3a8a:	85 c0                	test   %eax,%eax
    3a8c:	74 42                	je     3ad0 <usb_device_auto_polling+0x110>
    3a8e:	89 04 24             	mov    %eax,(%esp)
    3a91:	e8 3a 1a 01 00       	call   154d0 <fibril_add_ready>
    3a96:	31 c0                	xor    %eax,%eax
    3a98:	83 c4 2c             	add    $0x2c,%esp
    3a9b:	5b                   	pop    %ebx
    3a9c:	5e                   	pop    %esi
    3a9d:	5f                   	pop    %edi
    3a9e:	5d                   	pop    %ebp
    3a9f:	c3                   	ret    
    3aa0:	83 c4 2c             	add    $0x2c,%esp
    3aa3:	b8 f2 ff ff ff       	mov    $0xfffffff2,%eax
    3aa8:	5b                   	pop    %ebx
    3aa9:	5e                   	pop    %esi
    3aaa:	5f                   	pop    %edi
    3aab:	5d                   	pop    %ebp
    3aac:	c3                   	ret    
    3aad:	8d 76 00             	lea    0x0(%esi),%esi
    3ab0:	8b 42 3c             	mov    0x3c(%edx),%eax
    3ab3:	8b 55 e4             	mov    -0x1c(%ebp),%edx
    3ab6:	8b 44 10 24          	mov    0x24(%eax,%edx,1),%eax
    3aba:	8a 40 06             	mov    0x6(%eax),%al
    3abd:	25 ff 00 00 00       	and    $0xff,%eax
    3ac2:	89 43 08             	mov    %eax,0x8(%ebx)
    3ac5:	eb b3                	jmp    3a7a <usb_device_auto_polling+0xba>
    3ac7:	90                   	nop
    3ac8:	b8 f6 ff ff ff       	mov    $0xfffffff6,%eax
    3acd:	eb c9                	jmp    3a98 <usb_device_auto_polling+0xd8>
    3acf:	90                   	nop
    3ad0:	8b 43 2c             	mov    0x2c(%ebx),%eax
    3ad3:	89 04 24             	mov    %eax,(%esp)
    3ad6:	e8 25 b2 01 00       	call   1ed00 <free>
    3adb:	89 1c 24             	mov    %ebx,(%esp)
    3ade:	e8 1d b2 01 00       	call   1ed00 <free>
    3ae3:	b8 fe ff ff ff       	mov    $0xfffffffe,%eax
    3ae8:	eb ae                	jmp    3a98 <usb_device_auto_polling+0xd8>
    3aea:	8d b6 00 00 00 00    	lea    0x0(%esi),%esi
    3af0:	b8 fe ff ff ff       	mov    $0xfffffffe,%eax
    3af5:	eb a1                	jmp    3a98 <usb_device_auto_polling+0xd8>
    3af7:	89 f6                	mov    %esi,%esi
    3af9:	8d bc 27 00 00 00 00 	lea    0x0(%edi,%eiz,1),%edi

00003b00 <usb_device_auto_poll>:
    3b00:	55                   	push   %ebp
    3b01:	89 e5                	mov    %esp,%ebp
    3b03:	83 ec 38             	sub    $0x38,%esp
    3b06:	8b 45 10             	mov    0x10(%ebp),%eax
    3b09:	c7 45 d8 01 00 00 00 	movl   $0x1,-0x28(%ebp)
    3b10:	89 45 e8             	mov    %eax,-0x18(%ebp)
    3b13:	8b 45 18             	mov    0x18(%ebp),%eax
    3b16:	89 45 ec             	mov    %eax,-0x14(%ebp)
    3b19:	8b 45 1c             	mov    0x1c(%ebp),%eax
    3b1c:	89 45 f4             	mov    %eax,-0xc(%ebp)
    3b1f:	8b 45 14             	mov    0x14(%ebp),%eax
    3b22:	89 44 24 0c          	mov    %eax,0xc(%esp)
    3b26:	8d 45 d8             	lea    -0x28(%ebp),%eax
    3b29:	89 44 24 08          	mov    %eax,0x8(%esp)
    3b2d:	8b 45 0c             	mov    0xc(%ebp),%eax
    3b30:	89 44 24 04          	mov    %eax,0x4(%esp)
    3b34:	8b 45 08             	mov    0x8(%ebp),%eax
    3b37:	89 04 24             	mov    %eax,(%esp)
    3b3a:	c7 45 dc 03 00 00 00 	movl   $0x3,-0x24(%ebp)
    3b41:	c7 45 e0 00 00 00 00 	movl   $0x0,-0x20(%ebp)
    3b48:	c6 45 e4 01          	movb   $0x1,-0x1c(%ebp)
    3b4c:	c7 45 f0 00 00 00 00 	movl   $0x0,-0x10(%ebp)
    3b53:	e8 68 fe ff ff       	call   39c0 <usb_device_auto_polling>
    3b58:	c9                   	leave  
    3b59:	c3                   	ret    
    3b5a:	66 90                	xchg   %ax,%ax
    3b5c:	66 90                	xchg   %ax,%ax
    3b5e:	66 90                	xchg   %ax,%ax

00003b60 <usb_hub_register_device>:
    3b60:	55                   	push   %ebp
    3b61:	89 e5                	mov    %esp,%ebp
    3b63:	56                   	push   %esi
    3b64:	53                   	push   %ebx
    3b65:	83 ec 10             	sub    $0x10,%esp
    3b68:	8b 75 08             	mov    0x8(%ebp),%esi
    3b6b:	8b 5d 0c             	mov    0xc(%ebp),%ebx
    3b6e:	85 f6                	test   %esi,%esi
    3b70:	74 35                	je     3ba7 <usb_hub_register_device+0x47>
    3b72:	85 db                	test   %ebx,%ebx
    3b74:	74 2a                	je     3ba0 <usb_hub_register_device+0x40>
    3b76:	8b 43 04             	mov    0x4(%ebx),%eax
    3b79:	85 c0                	test   %eax,%eax
    3b7b:	74 23                	je     3ba0 <usb_hub_register_device+0x40>
    3b7d:	89 04 24             	mov    %eax,(%esp)
    3b80:	e8 1b 65 00 00       	call   a0a0 <ddf_fun_get_handle>
    3b85:	89 44 24 08          	mov    %eax,0x8(%esp)
    3b89:	0f bf 03             	movswl (%ebx),%eax
    3b8c:	89 34 24             	mov    %esi,(%esp)
    3b8f:	89 44 24 04          	mov    %eax,0x4(%esp)
    3b93:	e8 d8 4e 00 00       	call   8a70 <usb_hc_bind_address>
    3b98:	83 c4 10             	add    $0x10,%esp
    3b9b:	5b                   	pop    %ebx
    3b9c:	5e                   	pop    %esi
    3b9d:	5d                   	pop    %ebp
    3b9e:	c3                   	ret    
    3b9f:	90                   	nop
    3ba0:	b8 f6 ff ff ff       	mov    $0xfffffff6,%eax
    3ba5:	eb f1                	jmp    3b98 <usb_hub_register_device+0x38>
    3ba7:	c7 44 24 08 3d 00 00 	movl   $0x3d,0x8(%esp)
    3bae:	00 
    3baf:	c7 44 24 04 b4 e9 02 	movl   $0x2e9b4,0x4(%esp)
    3bb6:	00 
    3bb7:	c7 04 24 85 f8 02 00 	movl   $0x2f885,(%esp)
    3bbe:	e8 8d 58 02 00       	call   29450 <assert_abort>
    3bc3:	8d b6 00 00 00 00    	lea    0x0(%esi),%esi
    3bc9:	8d bc 27 00 00 00 00 	lea    0x0(%edi,%eiz,1),%edi

00003bd0 <usb_hc_new_device_wrapper>:
    3bd0:	55                   	push   %ebp
    3bd1:	89 e5                	mov    %esp,%ebp
    3bd3:	57                   	push   %edi
    3bd4:	56                   	push   %esi
    3bd5:	53                   	push   %ebx
    3bd6:	83 ec 7c             	sub    $0x7c,%esp
    3bd9:	8b 45 28             	mov    0x28(%ebp),%eax
    3bdc:	8b 5d 0c             	mov    0xc(%ebp),%ebx
    3bdf:	85 c0                	test   %eax,%eax
    3be1:	0f 84 b9 01 00 00    	je     3da0 <usb_hc_new_device_wrapper+0x1d0>
    3be7:	85 db                	test   %ebx,%ebx
    3be9:	0f 84 b1 01 00 00    	je     3da0 <usb_hc_new_device_wrapper+0x1d0>
    3bef:	8d 75 b0             	lea    -0x50(%ebp),%esi
    3bf2:	c7 44 24 04 00 00 00 	movl   $0x0,0x4(%esp)
    3bf9:	00 
    3bfa:	89 34 24             	mov    %esi,(%esp)
    3bfd:	e8 ce 21 02 00       	call   25dd0 <gettimeofday>
    3c02:	89 c2                	mov    %eax,%edx
    3c04:	85 c0                	test   %eax,%eax
    3c06:	74 10                	je     3c18 <usb_hc_new_device_wrapper+0x48>
    3c08:	83 c4 7c             	add    $0x7c,%esp
    3c0b:	89 d0                	mov    %edx,%eax
    3c0d:	5b                   	pop    %ebx
    3c0e:	5e                   	pop    %esi
    3c0f:	5f                   	pop    %edi
    3c10:	5d                   	pop    %ebp
    3c11:	c3                   	ret    
    3c12:	8d b6 00 00 00 00    	lea    0x0(%esi),%esi
    3c18:	89 1c 24             	mov    %ebx,(%esp)
    3c1b:	e8 20 4b 00 00       	call   8740 <usb_hc_connection_open>
    3c20:	89 c2                	mov    %eax,%edx
    3c22:	85 c0                	test   %eax,%eax
    3c24:	75 e2                	jne    3c08 <usb_hc_new_device_wrapper+0x38>
    3c26:	8b 45 10             	mov    0x10(%ebp),%eax
    3c29:	c7 44 24 08 00 00 00 	movl   $0x0,0x8(%esp)
    3c30:	00 
    3c31:	89 44 24 0c          	mov    %eax,0xc(%esp)
    3c35:	c7 44 24 04 00 00 00 	movl   $0x0,0x4(%esp)
    3c3c:	00 
    3c3d:	89 1c 24             	mov    %ebx,(%esp)
    3c40:	e8 7b 4c 00 00       	call   88c0 <usb_hc_request_address>
    3c45:	0f bf f8             	movswl %ax,%edi
    3c48:	66 85 ff             	test   %di,%di
    3c4b:	0f 88 5f 01 00 00    	js     3db0 <usb_hc_new_device_wrapper+0x1e0>
    3c51:	8d 45 b8             	lea    -0x48(%ebp),%eax
    3c54:	8d 4d d0             	lea    -0x30(%ebp),%ecx
    3c57:	89 44 24 04          	mov    %eax,0x4(%esp)
    3c5b:	89 0c 24             	mov    %ecx,(%esp)
    3c5e:	89 5d b8             	mov    %ebx,-0x48(%ebp)
    3c61:	66 c7 45 bc 00 00    	movw   $0x0,-0x44(%ebp)
    3c67:	e8 c4 09 00 00       	call   4630 <usb_pipe_initialize_default_control>
    3c6c:	85 c0                	test   %eax,%eax
    3c6e:	0f 85 44 01 00 00    	jne    3db8 <usb_hc_new_device_wrapper+0x1e8>
    3c74:	8b 45 10             	mov    0x10(%ebp),%eax
    3c77:	c7 44 24 08 01 00 00 	movl   $0x1,0x8(%esp)
    3c7e:	00 
    3c7f:	89 44 24 0c          	mov    %eax,0xc(%esp)
    3c83:	c7 44 24 04 00 00 00 	movl   $0x0,0x4(%esp)
    3c8a:	00 
    3c8b:	89 1c 24             	mov    %ebx,(%esp)
    3c8e:	e8 2d 4c 00 00       	call   88c0 <usb_hc_request_address>
    3c93:	0f bf d0             	movswl %ax,%edx
    3c96:	83 fa ff             	cmp    $0xffffffff,%edx
    3c99:	0f 84 89 01 00 00    	je     3e28 <usb_hc_new_device_wrapper+0x258>
    3c9f:	85 d2                	test   %edx,%edx
    3ca1:	0f 88 81 00 00 00    	js     3d28 <usb_hc_new_device_wrapper+0x158>
    3ca7:	8d 4d d0             	lea    -0x30(%ebp),%ecx
    3caa:	c7 44 24 04 00 00 00 	movl   $0x0,0x4(%esp)
    3cb1:	00 
    3cb2:	89 0c 24             	mov    %ecx,(%esp)
    3cb5:	e8 f6 09 00 00       	call   46b0 <usb_pipe_register>
    3cba:	85 c0                	test   %eax,%eax
    3cbc:	0f 85 77 01 00 00    	jne    3e39 <usb_hc_new_device_wrapper+0x269>
    3cc2:	8d 4d c0             	lea    -0x40(%ebp),%ecx
    3cc5:	c7 44 24 04 00 00 00 	movl   $0x0,0x4(%esp)
    3ccc:	00 
    3ccd:	89 0c 24             	mov    %ecx,(%esp)
    3cd0:	89 4d a4             	mov    %ecx,-0x5c(%ebp)
    3cd3:	e8 f8 20 02 00       	call   25dd0 <gettimeofday>
    3cd8:	8b 4d a4             	mov    -0x5c(%ebp),%ecx
    3cdb:	89 c2                	mov    %eax,%edx
    3cdd:	85 c0                	test   %eax,%eax
    3cdf:	0f 84 5e 01 00 00    	je     3e43 <usb_hc_new_device_wrapper+0x273>
    3ce5:	c7 44 24 04 00 00 00 	movl   $0x0,0x4(%esp)
    3cec:	00 
    3ced:	89 1c 24             	mov    %ebx,(%esp)
    3cf0:	89 55 a4             	mov    %edx,-0x5c(%ebp)
    3cf3:	e8 b8 50 00 00       	call   8db0 <usb_hc_release_address>
    3cf8:	8b 55 a4             	mov    -0x5c(%ebp),%edx
    3cfb:	85 c0                	test   %eax,%eax
    3cfd:	74 29                	je     3d28 <usb_hc_new_device_wrapper+0x158>
    3cff:	c7 44 24 0c a4 ea 02 	movl   $0x2eaa4,0xc(%esp)
    3d06:	00 
    3d07:	c7 44 24 08 0c ea 02 	movl   $0x2ea0c,0x8(%esp)
    3d0e:	00 
    3d0f:	c7 44 24 04 02 00 00 	movl   $0x2,0x4(%esp)
    3d16:	00 
    3d17:	c7 04 24 ff ff ff ff 	movl   $0xffffffff,(%esp)
    3d1e:	e8 2d 5e 01 00       	call   19b50 <log_msg>
    3d23:	8b 55 a4             	mov    -0x5c(%ebp),%edx
    3d26:	66 90                	xchg   %ax,%ax
    3d28:	8d 45 d0             	lea    -0x30(%ebp),%eax
    3d2b:	89 55 a4             	mov    %edx,-0x5c(%ebp)
    3d2e:	89 04 24             	mov    %eax,(%esp)
    3d31:	e8 0a 0a 00 00       	call   4740 <usb_pipe_unregister>
    3d36:	8b 55 a4             	mov    -0x5c(%ebp),%edx
    3d39:	85 c0                	test   %eax,%eax
    3d3b:	0f 85 87 00 00 00    	jne    3dc8 <usb_hc_new_device_wrapper+0x1f8>
    3d41:	89 7c 24 04          	mov    %edi,0x4(%esp)
    3d45:	89 1c 24             	mov    %ebx,(%esp)
    3d48:	89 55 a4             	mov    %edx,-0x5c(%ebp)
    3d4b:	e8 60 50 00 00       	call   8db0 <usb_hc_release_address>
    3d50:	8b 55 a4             	mov    -0x5c(%ebp),%edx
    3d53:	85 c0                	test   %eax,%eax
    3d55:	0f 85 9d 00 00 00    	jne    3df8 <usb_hc_new_device_wrapper+0x228>
    3d5b:	89 1c 24             	mov    %ebx,(%esp)
    3d5e:	89 55 a4             	mov    %edx,-0x5c(%ebp)
    3d61:	e8 8a 4a 00 00       	call   87f0 <usb_hc_connection_close>
    3d66:	8b 55 a4             	mov    -0x5c(%ebp),%edx
    3d69:	85 c0                	test   %eax,%eax
    3d6b:	0f 84 97 fe ff ff    	je     3c08 <usb_hc_new_device_wrapper+0x38>
    3d71:	c7 44 24 0c a4 ea 02 	movl   $0x2eaa4,0xc(%esp)
    3d78:	00 
    3d79:	c7 44 24 08 80 ea 02 	movl   $0x2ea80,0x8(%esp)
    3d80:	00 
    3d81:	c7 44 24 04 02 00 00 	movl   $0x2,0x4(%esp)
    3d88:	00 
    3d89:	c7 04 24 ff ff ff ff 	movl   $0xffffffff,(%esp)
    3d90:	e8 bb 5d 01 00       	call   19b50 <log_msg>
    3d95:	8b 55 a4             	mov    -0x5c(%ebp),%edx
    3d98:	e9 6b fe ff ff       	jmp    3c08 <usb_hc_new_device_wrapper+0x38>
    3d9d:	8d 76 00             	lea    0x0(%esi),%esi
    3da0:	ba f2 ff ff ff       	mov    $0xfffffff2,%edx
    3da5:	e9 5e fe ff ff       	jmp    3c08 <usb_hc_new_device_wrapper+0x38>
    3daa:	8d b6 00 00 00 00    	lea    0x0(%esi),%esi
    3db0:	ba f4 ff ff ff       	mov    $0xfffffff4,%edx
    3db5:	eb a4                	jmp    3d5b <usb_hc_new_device_wrapper+0x18b>
    3db7:	90                   	nop
    3db8:	ba b7 d8 ff ff       	mov    $0xffffd8b7,%edx
    3dbd:	e9 66 ff ff ff       	jmp    3d28 <usb_hc_new_device_wrapper+0x158>
    3dc2:	8d b6 00 00 00 00    	lea    0x0(%esi),%esi
    3dc8:	c7 44 24 0c a4 ea 02 	movl   $0x2eaa4,0xc(%esp)
    3dcf:	00 
    3dd0:	c7 44 24 08 34 ea 02 	movl   $0x2ea34,0x8(%esp)
    3dd7:	00 
    3dd8:	c7 44 24 04 02 00 00 	movl   $0x2,0x4(%esp)
    3ddf:	00 
    3de0:	c7 04 24 ff ff ff ff 	movl   $0xffffffff,(%esp)
    3de7:	e8 64 5d 01 00       	call   19b50 <log_msg>
    3dec:	8b 55 a4             	mov    -0x5c(%ebp),%edx
    3def:	e9 4d ff ff ff       	jmp    3d41 <usb_hc_new_device_wrapper+0x171>
    3df4:	8d 74 26 00          	lea    0x0(%esi,%eiz,1),%esi
    3df8:	89 7c 24 10          	mov    %edi,0x10(%esp)
    3dfc:	c7 44 24 0c a4 ea 02 	movl   $0x2eaa4,0xc(%esp)
    3e03:	00 
    3e04:	c7 44 24 08 5c ea 02 	movl   $0x2ea5c,0x8(%esp)
    3e0b:	00 
    3e0c:	c7 44 24 04 02 00 00 	movl   $0x2,0x4(%esp)
    3e13:	00 
    3e14:	c7 04 24 ff ff ff ff 	movl   $0xffffffff,(%esp)
    3e1b:	e8 30 5d 01 00       	call   19b50 <log_msg>
    3e20:	8b 55 a4             	mov    -0x5c(%ebp),%edx
    3e23:	e9 33 ff ff ff       	jmp    3d5b <usb_hc_new_device_wrapper+0x18b>
    3e28:	c7 04 24 e0 2e 00 00 	movl   $0x2ee0,(%esp)
    3e2f:	e8 7c d1 01 00       	call   20fb0 <async_usleep>
    3e34:	e9 3b fe ff ff       	jmp    3c74 <usb_hc_new_device_wrapper+0xa4>
    3e39:	ba b7 d8 ff ff       	mov    $0xffffd8b7,%edx
    3e3e:	e9 a2 fe ff ff       	jmp    3ce5 <usb_hc_new_device_wrapper+0x115>
    3e43:	89 74 24 04          	mov    %esi,0x4(%esp)
    3e47:	89 0c 24             	mov    %ecx,(%esp)
    3e4a:	e8 11 1e 02 00       	call   25c60 <tv_sub>
    3e4f:	3d 9f 86 01 00       	cmp    $0x1869f,%eax
    3e54:	0f 8e 9b 00 00 00    	jle    3ef5 <usb_hc_new_device_wrapper+0x325>
    3e5a:	8b 45 18             	mov    0x18(%ebp),%eax
    3e5d:	89 04 24             	mov    %eax,(%esp)
    3e60:	ff 55 14             	call   *0x14(%ebp)
    3e63:	89 c2                	mov    %eax,%edx
    3e65:	85 c0                	test   %eax,%eax
    3e67:	0f 85 78 fe ff ff    	jne    3ce5 <usb_hc_new_device_wrapper+0x115>
    3e6d:	c7 04 24 10 27 00 00 	movl   $0x2710,(%esp)
    3e74:	e8 37 d1 01 00       	call   20fb0 <async_usleep>
    3e79:	8d 45 d0             	lea    -0x30(%ebp),%eax
    3e7c:	89 04 24             	mov    %eax,(%esp)
    3e7f:	e8 dc 0b 00 00       	call   4a60 <usb_pipe_probe_default_control>
    3e84:	ba d3 fe ff ff       	mov    $0xfffffed3,%edx
    3e89:	85 c0                	test   %eax,%eax
    3e8b:	0f 85 54 fe ff ff    	jne    3ce5 <usb_hc_new_device_wrapper+0x115>
    3e91:	66 83 ff 7f          	cmp    $0x7f,%di
    3e95:	77 54                	ja     3eeb <usb_hc_new_device_wrapper+0x31b>
    3e97:	83 7d d0 00          	cmpl   $0x0,-0x30(%ebp)
    3e9b:	0f 84 44 01 00 00    	je     3fe5 <usb_hc_new_device_wrapper+0x415>
    3ea1:	89 f8                	mov    %edi,%eax
    3ea3:	8d 4d d0             	lea    -0x30(%ebp),%ecx
    3ea6:	25 ff ff 00 00       	and    $0xffff,%eax
    3eab:	c7 44 24 1c 00 00 00 	movl   $0x0,0x1c(%esp)
    3eb2:	00 
    3eb3:	c7 44 24 18 00 00 00 	movl   $0x0,0x18(%esp)
    3eba:	00 
    3ebb:	c7 44 24 14 00 00 00 	movl   $0x0,0x14(%esp)
    3ec2:	00 
    3ec3:	89 44 24 10          	mov    %eax,0x10(%esp)
    3ec7:	c7 44 24 0c 05 00 00 	movl   $0x5,0xc(%esp)
    3ece:	00 
    3ecf:	c7 44 24 08 00 00 00 	movl   $0x0,0x8(%esp)
    3ed6:	00 
    3ed7:	c7 44 24 04 00 00 00 	movl   $0x0,0x4(%esp)
    3ede:	00 
    3edf:	89 0c 24             	mov    %ecx,(%esp)
    3ee2:	e8 d9 1e 00 00       	call   5dc0 <usb_control_request_set>
    3ee7:	85 c0                	test   %eax,%eax
    3ee9:	74 1e                	je     3f09 <usb_hc_new_device_wrapper+0x339>
    3eeb:	ba d3 fe ff ff       	mov    $0xfffffed3,%edx
    3ef0:	e9 f0 fd ff ff       	jmp    3ce5 <usb_hc_new_device_wrapper+0x115>
    3ef5:	ba a0 86 01 00       	mov    $0x186a0,%edx
    3efa:	29 c2                	sub    %eax,%edx
    3efc:	89 14 24             	mov    %edx,(%esp)
    3eff:	e8 ac d0 01 00       	call   20fb0 <async_usleep>
    3f04:	e9 51 ff ff ff       	jmp    3e5a <usb_hc_new_device_wrapper+0x28a>
    3f09:	8d 45 d0             	lea    -0x30(%ebp),%eax
    3f0c:	89 04 24             	mov    %eax,(%esp)
    3f0f:	e8 2c 08 00 00       	call   4740 <usb_pipe_unregister>
    3f14:	85 c0                	test   %eax,%eax
    3f16:	74 1c                	je     3f34 <usb_hc_new_device_wrapper+0x364>
    3f18:	c7 44 24 08 d4 e9 02 	movl   $0x2e9d4,0x8(%esp)
    3f1f:	00 
    3f20:	c7 44 24 04 02 00 00 	movl   $0x2,0x4(%esp)
    3f27:	00 
    3f28:	c7 04 24 ff ff ff ff 	movl   $0xffffffff,(%esp)
    3f2f:	e8 1c 5c 01 00       	call   19b50 <log_msg>
    3f34:	8b 45 d0             	mov    -0x30(%ebp),%eax
    3f37:	0f bf 50 04          	movswl 0x4(%eax),%edx
    3f3b:	89 54 24 04          	mov    %edx,0x4(%esp)
    3f3f:	8b 00                	mov    (%eax),%eax
    3f41:	89 04 24             	mov    %eax,(%esp)
    3f44:	e8 67 4e 00 00       	call   8db0 <usb_hc_release_address>
    3f49:	8b 45 d0             	mov    -0x30(%ebp),%eax
    3f4c:	8d 4d d0             	lea    -0x30(%ebp),%ecx
    3f4f:	66 89 78 04          	mov    %di,0x4(%eax)
    3f53:	c7 44 24 04 00 00 00 	movl   $0x0,0x4(%esp)
    3f5a:	00 
    3f5b:	89 0c 24             	mov    %ecx,(%esp)
    3f5e:	e8 4d 07 00 00       	call   46b0 <usb_pipe_register>
    3f63:	85 c0                	test   %eax,%eax
    3f65:	75 84                	jne    3eeb <usb_hc_new_device_wrapper+0x31b>
    3f67:	8d 45 ac             	lea    -0x54(%ebp),%eax
    3f6a:	8d 4d d0             	lea    -0x30(%ebp),%ecx
    3f6d:	89 44 24 10          	mov    %eax,0x10(%esp)
    3f71:	8b 45 24             	mov    0x24(%ebp),%eax
    3f74:	89 44 24 0c          	mov    %eax,0xc(%esp)
    3f78:	8b 45 20             	mov    0x20(%ebp),%eax
    3f7b:	89 44 24 08          	mov    %eax,0x8(%esp)
    3f7f:	8b 45 08             	mov    0x8(%ebp),%eax
    3f82:	89 44 24 04          	mov    %eax,0x4(%esp)
    3f86:	89 0c 24             	mov    %ecx,(%esp)
    3f89:	e8 b2 1b 00 00       	call   5b40 <usb_device_register_child_in_devman>
    3f8e:	89 c2                	mov    %eax,%edx
    3f90:	85 c0                	test   %eax,%eax
    3f92:	0f 85 90 fd ff ff    	jne    3d28 <usb_hc_new_device_wrapper+0x158>
    3f98:	8b 45 ac             	mov    -0x54(%ebp),%eax
    3f9b:	89 1c 24             	mov    %ebx,(%esp)
    3f9e:	89 45 cc             	mov    %eax,-0x34(%ebp)
    3fa1:	8d 45 c8             	lea    -0x38(%ebp),%eax
    3fa4:	89 44 24 04          	mov    %eax,0x4(%esp)
    3fa8:	66 89 7d c8          	mov    %di,-0x38(%ebp)
    3fac:	e8 af fb ff ff       	call   3b60 <usb_hub_register_device>
    3fb1:	89 c2                	mov    %eax,%edx
    3fb3:	85 c0                	test   %eax,%eax
    3fb5:	75 19                	jne    3fd0 <usb_hc_new_device_wrapper+0x400>
    3fb7:	83 7d 1c 00          	cmpl   $0x0,0x1c(%ebp)
    3fbb:	74 06                	je     3fc3 <usb_hc_new_device_wrapper+0x3f3>
    3fbd:	8b 45 1c             	mov    0x1c(%ebp),%eax
    3fc0:	66 89 38             	mov    %di,(%eax)
    3fc3:	8b 4d 28             	mov    0x28(%ebp),%ecx
    3fc6:	8b 45 ac             	mov    -0x54(%ebp),%eax
    3fc9:	89 01                	mov    %eax,(%ecx)
    3fcb:	e9 8b fd ff ff       	jmp    3d5b <usb_hc_new_device_wrapper+0x18b>
    3fd0:	8b 45 ac             	mov    -0x54(%ebp),%eax
    3fd3:	89 04 24             	mov    %eax,(%esp)
    3fd6:	e8 55 62 00 00       	call   a230 <ddf_fun_destroy>
    3fdb:	ba c9 d8 ff ff       	mov    $0xffffd8c9,%edx
    3fe0:	e9 43 fd ff ff       	jmp    3d28 <usb_hc_new_device_wrapper+0x158>
    3fe5:	c7 44 24 08 58 00 00 	movl   $0x58,0x8(%esp)
    3fec:	00 
    3fed:	c7 44 24 04 b4 e9 02 	movl   $0x2e9b4,0x4(%esp)
    3ff4:	00 
    3ff5:	c7 04 24 be e9 02 00 	movl   $0x2e9be,(%esp)
    3ffc:	e8 4f 54 02 00       	call   29450 <assert_abort>
    4001:	66 90                	xchg   %ax,%ax
    4003:	66 90                	xchg   %ax,%ax
    4005:	66 90                	xchg   %ax,%ax
    4007:	66 90                	xchg   %ax,%ax
    4009:	66 90                	xchg   %ax,%ax
    400b:	66 90                	xchg   %ax,%ax
    400d:	66 90                	xchg   %ax,%ax
    400f:	90                   	nop

00004010 <usb_pipe_start_long_transfer>:
    4010:	55                   	push   %ebp
    4011:	89 e5                	mov    %esp,%ebp
    4013:	83 ec 18             	sub    $0x18,%esp
    4016:	8b 45 08             	mov    0x8(%ebp),%eax
    4019:	85 c0                	test   %eax,%eax
    401b:	74 15                	je     4032 <usb_pipe_start_long_transfer+0x22>
    401d:	8b 00                	mov    (%eax),%eax
    401f:	85 c0                	test   %eax,%eax
    4021:	74 47                	je     406a <usb_pipe_start_long_transfer+0x5a>
    4023:	8b 00                	mov    (%eax),%eax
    4025:	85 c0                	test   %eax,%eax
    4027:	74 25                	je     404e <usb_pipe_start_long_transfer+0x3e>
    4029:	89 45 08             	mov    %eax,0x8(%ebp)
    402c:	c9                   	leave  
    402d:	e9 0e 47 00 00       	jmp    8740 <usb_hc_connection_open>
    4032:	c7 44 24 08 33 00 00 	movl   $0x33,0x8(%esp)
    4039:	00 
    403a:	c7 44 24 04 be ea 02 	movl   $0x2eabe,0x4(%esp)
    4041:	00 
    4042:	c7 04 24 ef eb 02 00 	movl   $0x2ebef,(%esp)
    4049:	e8 02 54 02 00       	call   29450 <assert_abort>
    404e:	c7 44 24 08 35 00 00 	movl   $0x35,0x8(%esp)
    4055:	00 
    4056:	c7 44 24 04 be ea 02 	movl   $0x2eabe,0x4(%esp)
    405d:	00 
    405e:	c7 04 24 d5 ea 02 00 	movl   $0x2ead5,(%esp)
    4065:	e8 e6 53 02 00       	call   29450 <assert_abort>
    406a:	c7 44 24 08 34 00 00 	movl   $0x34,0x8(%esp)
    4071:	00 
    4072:	c7 44 24 04 be ea 02 	movl   $0x2eabe,0x4(%esp)
    4079:	00 
    407a:	c7 04 24 ca ea 02 00 	movl   $0x2eaca,(%esp)
    4081:	e8 ca 53 02 00       	call   29450 <assert_abort>
    4086:	8d 76 00             	lea    0x0(%esi),%esi
    4089:	8d bc 27 00 00 00 00 	lea    0x0(%edi,%eiz,1),%edi

00004090 <usb_pipe_end_long_transfer>:
    4090:	55                   	push   %ebp
    4091:	89 e5                	mov    %esp,%ebp
    4093:	83 ec 18             	sub    $0x18,%esp
    4096:	8b 45 08             	mov    0x8(%ebp),%eax
    4099:	85 c0                	test   %eax,%eax
    409b:	74 15                	je     40b2 <usb_pipe_end_long_transfer+0x22>
    409d:	8b 00                	mov    (%eax),%eax
    409f:	85 c0                	test   %eax,%eax
    40a1:	74 47                	je     40ea <usb_pipe_end_long_transfer+0x5a>
    40a3:	8b 00                	mov    (%eax),%eax
    40a5:	85 c0                	test   %eax,%eax
    40a7:	74 25                	je     40ce <usb_pipe_end_long_transfer+0x3e>
    40a9:	89 45 08             	mov    %eax,0x8(%ebp)
    40ac:	c9                   	leave  
    40ad:	e9 3e 47 00 00       	jmp    87f0 <usb_hc_connection_close>
    40b2:	c7 44 24 08 40 00 00 	movl   $0x40,0x8(%esp)
    40b9:	00 
    40ba:	c7 44 24 04 be ea 02 	movl   $0x2eabe,0x4(%esp)
    40c1:	00 
    40c2:	c7 04 24 ef eb 02 00 	movl   $0x2ebef,(%esp)
    40c9:	e8 82 53 02 00       	call   29450 <assert_abort>
    40ce:	c7 44 24 08 42 00 00 	movl   $0x42,0x8(%esp)
    40d5:	00 
    40d6:	c7 44 24 04 be ea 02 	movl   $0x2eabe,0x4(%esp)
    40dd:	00 
    40de:	c7 04 24 d5 ea 02 00 	movl   $0x2ead5,(%esp)
    40e5:	e8 66 53 02 00       	call   29450 <assert_abort>
    40ea:	c7 44 24 08 41 00 00 	movl   $0x41,0x8(%esp)
    40f1:	00 
    40f2:	c7 44 24 04 be ea 02 	movl   $0x2eabe,0x4(%esp)
    40f9:	00 
    40fa:	c7 04 24 ca ea 02 00 	movl   $0x2eaca,(%esp)
    4101:	e8 4a 53 02 00       	call   29450 <assert_abort>
    4106:	8d 76 00             	lea    0x0(%esi),%esi
    4109:	8d bc 27 00 00 00 00 	lea    0x0(%edi,%eiz,1),%edi

00004110 <usb_pipe_control_read>:
    4110:	55                   	push   %ebp
    4111:	89 e5                	mov    %esp,%ebp
    4113:	57                   	push   %edi
    4114:	56                   	push   %esi
    4115:	53                   	push   %ebx
    4116:	83 ec 3c             	sub    $0x3c,%esp
    4119:	8b 5d 08             	mov    0x8(%ebp),%ebx
    411c:	8b 45 0c             	mov    0xc(%ebp),%eax
    411f:	85 db                	test   %ebx,%ebx
    4121:	0f 84 08 01 00 00    	je     422f <usb_pipe_control_read+0x11f>
    4127:	83 7d 10 08          	cmpl   $0x8,0x10(%ebp)
    412b:	0f 85 f7 00 00 00    	jne    4228 <usb_pipe_control_read+0x118>
    4131:	85 c0                	test   %eax,%eax
    4133:	0f 84 ef 00 00 00    	je     4228 <usb_pipe_control_read+0x118>
    4139:	8b 75 18             	mov    0x18(%ebp),%esi
    413c:	85 f6                	test   %esi,%esi
    413e:	0f 84 e4 00 00 00    	je     4228 <usb_pipe_control_read+0x118>
    4144:	8b 4d 14             	mov    0x14(%ebp),%ecx
    4147:	85 c9                	test   %ecx,%ecx
    4149:	0f 84 d9 00 00 00    	je     4228 <usb_pipe_control_read+0x118>
    414f:	83 7b 0c 02          	cmpl   $0x2,0xc(%ebx)
    4153:	0f 85 97 00 00 00    	jne    41f0 <usb_pipe_control_read+0xe0>
    4159:	8b 53 08             	mov    0x8(%ebx),%edx
    415c:	85 d2                	test   %edx,%edx
    415e:	0f 85 8c 00 00 00    	jne    41f0 <usb_pipe_control_read+0xe0>
    4164:	89 44 24 04          	mov    %eax,0x4(%esp)
    4168:	8d 45 e0             	lea    -0x20(%ebp),%eax
    416b:	c7 44 24 08 08 00 00 	movl   $0x8,0x8(%esp)
    4172:	00 
    4173:	89 04 24             	mov    %eax,(%esp)
    4176:	e8 15 d6 00 00       	call   11790 <memcpy>
    417b:	8b 0b                	mov    (%ebx),%ecx
    417d:	c7 45 dc 00 00 00 00 	movl   $0x0,-0x24(%ebp)
    4184:	8b 45 e0             	mov    -0x20(%ebp),%eax
    4187:	8b 55 e4             	mov    -0x1c(%ebp),%edx
    418a:	85 c9                	test   %ecx,%ecx
    418c:	0f bf 73 04          	movswl 0x4(%ebx),%esi
    4190:	0f 84 b5 00 00 00    	je     424b <usb_pipe_control_read+0x13b>
    4196:	8d 7d dc             	lea    -0x24(%ebp),%edi
    4199:	89 74 24 08          	mov    %esi,0x8(%esp)
    419d:	89 7c 24 1c          	mov    %edi,0x1c(%esp)
    41a1:	8b 7d 18             	mov    0x18(%ebp),%edi
    41a4:	89 7c 24 18          	mov    %edi,0x18(%esp)
    41a8:	8b 7d 14             	mov    0x14(%ebp),%edi
    41ab:	89 7c 24 14          	mov    %edi,0x14(%esp)
    41af:	89 44 24 0c          	mov    %eax,0xc(%esp)
    41b3:	89 54 24 10          	mov    %edx,0x10(%esp)
    41b7:	0f bf 41 04          	movswl 0x4(%ecx),%eax
    41bb:	89 44 24 04          	mov    %eax,0x4(%esp)
    41bf:	8b 01                	mov    (%ecx),%eax
    41c1:	89 04 24             	mov    %eax,(%esp)
    41c4:	e8 e7 50 00 00       	call   92b0 <usb_hc_read>
    41c9:	89 c6                	mov    %eax,%esi
    41cb:	3d d3 fe ff ff       	cmp    $0xfffffed3,%eax
    41d0:	74 2e                	je     4200 <usb_pipe_control_read+0xf0>
    41d2:	85 c0                	test   %eax,%eax
    41d4:	75 0f                	jne    41e5 <usb_pipe_control_read+0xd5>
    41d6:	8b 45 1c             	mov    0x1c(%ebp),%eax
    41d9:	85 c0                	test   %eax,%eax
    41db:	74 08                	je     41e5 <usb_pipe_control_read+0xd5>
    41dd:	8b 55 1c             	mov    0x1c(%ebp),%edx
    41e0:	8b 45 dc             	mov    -0x24(%ebp),%eax
    41e3:	89 02                	mov    %eax,(%edx)
    41e5:	83 c4 3c             	add    $0x3c,%esp
    41e8:	89 f0                	mov    %esi,%eax
    41ea:	5b                   	pop    %ebx
    41eb:	5e                   	pop    %esi
    41ec:	5f                   	pop    %edi
    41ed:	5d                   	pop    %ebp
    41ee:	c3                   	ret    
    41ef:	90                   	nop
    41f0:	83 c4 3c             	add    $0x3c,%esp
    41f3:	be fa fe ff ff       	mov    $0xfffffefa,%esi
    41f8:	89 f0                	mov    %esi,%eax
    41fa:	5b                   	pop    %ebx
    41fb:	5e                   	pop    %esi
    41fc:	5f                   	pop    %edi
    41fd:	5d                   	pop    %ebp
    41fe:	c3                   	ret    
    41ff:	90                   	nop
    4200:	80 7b 14 00          	cmpb   $0x0,0x14(%ebx)
    4204:	74 df                	je     41e5 <usb_pipe_control_read+0xd5>
    4206:	66 83 7b 04 00       	cmpw   $0x0,0x4(%ebx)
    420b:	75 d8                	jne    41e5 <usb_pipe_control_read+0xd5>
    420d:	c6 43 14 00          	movb   $0x0,0x14(%ebx)
    4211:	c7 44 24 04 00 00 00 	movl   $0x0,0x4(%esp)
    4218:	00 
    4219:	89 1c 24             	mov    %ebx,(%esp)
    421c:	e8 9f 29 00 00       	call   6bc0 <usb_request_clear_endpoint_halt>
    4221:	c6 43 14 01          	movb   $0x1,0x14(%ebx)
    4225:	eb be                	jmp    41e5 <usb_pipe_control_read+0xd5>
    4227:	90                   	nop
    4228:	be f2 ff ff ff       	mov    $0xfffffff2,%esi
    422d:	eb b6                	jmp    41e5 <usb_pipe_control_read+0xd5>
    422f:	c7 44 24 08 69 00 00 	movl   $0x69,0x8(%esp)
    4236:	00 
    4237:	c7 44 24 04 be ea 02 	movl   $0x2eabe,0x4(%esp)
    423e:	00 
    423f:	c7 04 24 ef eb 02 00 	movl   $0x2ebef,(%esp)
    4246:	e8 05 52 02 00       	call   29450 <assert_abort>
    424b:	c7 44 24 08 78 00 00 	movl   $0x78,0x8(%esp)
    4252:	00 
    4253:	c7 44 24 04 f8 ea 02 	movl   $0x2eaf8,0x4(%esp)
    425a:	00 
    425b:	c7 04 24 ef ea 02 00 	movl   $0x2eaef,(%esp)
    4262:	e8 e9 51 02 00       	call   29450 <assert_abort>
    4267:	89 f6                	mov    %esi,%esi
    4269:	8d bc 27 00 00 00 00 	lea    0x0(%edi,%eiz,1),%edi

00004270 <usb_pipe_control_write>:
    4270:	55                   	push   %ebp
    4271:	89 e5                	mov    %esp,%ebp
    4273:	57                   	push   %edi
    4274:	56                   	push   %esi
    4275:	53                   	push   %ebx
    4276:	83 ec 3c             	sub    $0x3c,%esp
    4279:	8b 5d 08             	mov    0x8(%ebp),%ebx
    427c:	8b 45 0c             	mov    0xc(%ebp),%eax
    427f:	8b 75 18             	mov    0x18(%ebp),%esi
    4282:	85 db                	test   %ebx,%ebx
    4284:	0f 84 03 01 00 00    	je     438d <usb_pipe_control_write+0x11d>
    428a:	83 7d 10 08          	cmpl   $0x8,0x10(%ebp)
    428e:	0f 85 b4 00 00 00    	jne    4348 <usb_pipe_control_write+0xd8>
    4294:	85 c0                	test   %eax,%eax
    4296:	0f 84 ac 00 00 00    	je     4348 <usb_pipe_control_write+0xd8>
    429c:	85 f6                	test   %esi,%esi
    429e:	0f 85 dc 00 00 00    	jne    4380 <usb_pipe_control_write+0x110>
    42a4:	85 f6                	test   %esi,%esi
    42a6:	0f 84 8c 00 00 00    	je     4338 <usb_pipe_control_write+0xc8>
    42ac:	83 7b 0c 02          	cmpl   $0x2,0xc(%ebx)
    42b0:	75 76                	jne    4328 <usb_pipe_control_write+0xb8>
    42b2:	8b 7b 08             	mov    0x8(%ebx),%edi
    42b5:	85 ff                	test   %edi,%edi
    42b7:	75 6f                	jne    4328 <usb_pipe_control_write+0xb8>
    42b9:	89 44 24 04          	mov    %eax,0x4(%esp)
    42bd:	8d 45 e0             	lea    -0x20(%ebp),%eax
    42c0:	c7 44 24 08 08 00 00 	movl   $0x8,0x8(%esp)
    42c7:	00 
    42c8:	89 04 24             	mov    %eax,(%esp)
    42cb:	e8 c0 d4 00 00       	call   11790 <memcpy>
    42d0:	8b 0b                	mov    (%ebx),%ecx
    42d2:	8b 45 e0             	mov    -0x20(%ebp),%eax
    42d5:	8b 55 e4             	mov    -0x1c(%ebp),%edx
    42d8:	8b 7b 04             	mov    0x4(%ebx),%edi
    42db:	85 c9                	test   %ecx,%ecx
    42dd:	0f 84 c6 00 00 00    	je     43a9 <usb_pipe_control_write+0x139>
    42e3:	89 74 24 18          	mov    %esi,0x18(%esp)
    42e7:	89 44 24 0c          	mov    %eax,0xc(%esp)
    42eb:	8b 75 14             	mov    0x14(%ebp),%esi
    42ee:	89 54 24 10          	mov    %edx,0x10(%esp)
    42f2:	0f bf c7             	movswl %di,%eax
    42f5:	89 74 24 14          	mov    %esi,0x14(%esp)
    42f9:	89 44 24 08          	mov    %eax,0x8(%esp)
    42fd:	0f bf 41 04          	movswl 0x4(%ecx),%eax
    4301:	89 44 24 04          	mov    %eax,0x4(%esp)
    4305:	8b 01                	mov    (%ecx),%eax
    4307:	89 04 24             	mov    %eax,(%esp)
    430a:	e8 71 51 00 00       	call   9480 <usb_hc_write>
    430f:	89 c6                	mov    %eax,%esi
    4311:	3d d3 fe ff ff       	cmp    $0xfffffed3,%eax
    4316:	74 40                	je     4358 <usb_pipe_control_write+0xe8>
    4318:	83 c4 3c             	add    $0x3c,%esp
    431b:	89 f0                	mov    %esi,%eax
    431d:	5b                   	pop    %ebx
    431e:	5e                   	pop    %esi
    431f:	5f                   	pop    %edi
    4320:	5d                   	pop    %ebp
    4321:	c3                   	ret    
    4322:	8d b6 00 00 00 00    	lea    0x0(%esi),%esi
    4328:	83 c4 3c             	add    $0x3c,%esp
    432b:	be fa fe ff ff       	mov    $0xfffffefa,%esi
    4330:	89 f0                	mov    %esi,%eax
    4332:	5b                   	pop    %ebx
    4333:	5e                   	pop    %esi
    4334:	5f                   	pop    %edi
    4335:	5d                   	pop    %ebp
    4336:	c3                   	ret    
    4337:	90                   	nop
    4338:	8b 55 14             	mov    0x14(%ebp),%edx
    433b:	85 d2                	test   %edx,%edx
    433d:	0f 84 69 ff ff ff    	je     42ac <usb_pipe_control_write+0x3c>
    4343:	90                   	nop
    4344:	8d 74 26 00          	lea    0x0(%esi,%eiz,1),%esi
    4348:	83 c4 3c             	add    $0x3c,%esp
    434b:	be f2 ff ff ff       	mov    $0xfffffff2,%esi
    4350:	89 f0                	mov    %esi,%eax
    4352:	5b                   	pop    %ebx
    4353:	5e                   	pop    %esi
    4354:	5f                   	pop    %edi
    4355:	5d                   	pop    %ebp
    4356:	c3                   	ret    
    4357:	90                   	nop
    4358:	80 7b 14 00          	cmpb   $0x0,0x14(%ebx)
    435c:	74 ba                	je     4318 <usb_pipe_control_write+0xa8>
    435e:	66 83 7b 04 00       	cmpw   $0x0,0x4(%ebx)
    4363:	75 b3                	jne    4318 <usb_pipe_control_write+0xa8>
    4365:	c6 43 14 00          	movb   $0x0,0x14(%ebx)
    4369:	c7 44 24 04 00 00 00 	movl   $0x0,0x4(%esp)
    4370:	00 
    4371:	89 1c 24             	mov    %ebx,(%esp)
    4374:	e8 47 28 00 00       	call   6bc0 <usb_request_clear_endpoint_halt>
    4379:	c6 43 14 01          	movb   $0x1,0x14(%ebx)
    437d:	eb 99                	jmp    4318 <usb_pipe_control_write+0xa8>
    437f:	90                   	nop
    4380:	8b 4d 14             	mov    0x14(%ebp),%ecx
    4383:	85 c9                	test   %ecx,%ecx
    4385:	0f 85 19 ff ff ff    	jne    42a4 <usb_pipe_control_write+0x34>
    438b:	eb bb                	jmp    4348 <usb_pipe_control_write+0xd8>
    438d:	c7 44 24 08 99 00 00 	movl   $0x99,0x8(%esp)
    4394:	00 
    4395:	c7 44 24 04 be ea 02 	movl   $0x2eabe,0x4(%esp)
    439c:	00 
    439d:	c7 04 24 ef eb 02 00 	movl   $0x2ebef,(%esp)
    43a4:	e8 a7 50 02 00       	call   29450 <assert_abort>
    43a9:	c7 44 24 08 88 00 00 	movl   $0x88,0x8(%esp)
    43b0:	00 
    43b1:	c7 44 24 04 f8 ea 02 	movl   $0x2eaf8,0x4(%esp)
    43b8:	00 
    43b9:	c7 04 24 ef ea 02 00 	movl   $0x2eaef,(%esp)
    43c0:	e8 8b 50 02 00       	call   29450 <assert_abort>
    43c5:	8d 74 26 00          	lea    0x0(%esi,%eiz,1),%esi
    43c9:	8d bc 27 00 00 00 00 	lea    0x0(%edi,%eiz,1),%edi

000043d0 <usb_pipe_read>:
    43d0:	55                   	push   %ebp
    43d1:	89 e5                	mov    %esp,%ebp
    43d3:	56                   	push   %esi
    43d4:	53                   	push   %ebx
    43d5:	83 ec 30             	sub    $0x30,%esp
    43d8:	8b 45 08             	mov    0x8(%ebp),%eax
    43db:	8b 4d 0c             	mov    0xc(%ebp),%ecx
    43de:	8b 5d 10             	mov    0x10(%ebp),%ebx
    43e1:	85 c0                	test   %eax,%eax
    43e3:	0f 84 be 00 00 00    	je     44a7 <usb_pipe_read+0xd7>
    43e9:	85 c9                	test   %ecx,%ecx
    43eb:	0f 84 af 00 00 00    	je     44a0 <usb_pipe_read+0xd0>
    43f1:	85 db                	test   %ebx,%ebx
    43f3:	0f 84 a7 00 00 00    	je     44a0 <usb_pipe_read+0xd0>
    43f9:	8b 70 0c             	mov    0xc(%eax),%esi
    43fc:	85 f6                	test   %esi,%esi
    43fe:	0f 85 94 00 00 00    	jne    4498 <usb_pipe_read+0xc8>
    4404:	8b 50 08             	mov    0x8(%eax),%edx
    4407:	85 d2                	test   %edx,%edx
    4409:	0f 84 89 00 00 00    	je     4498 <usb_pipe_read+0xc8>
    440f:	83 ea 02             	sub    $0x2,%edx
    4412:	83 fa 01             	cmp    $0x1,%edx
    4415:	77 71                	ja     4488 <usb_pipe_read+0xb8>
    4417:	0f bf 50 04          	movswl 0x4(%eax),%edx
    441b:	8b 00                	mov    (%eax),%eax
    441d:	c7 45 f4 00 00 00 00 	movl   $0x0,-0xc(%ebp)
    4424:	85 c0                	test   %eax,%eax
    4426:	0f 84 97 00 00 00    	je     44c3 <usb_pipe_read+0xf3>
    442c:	8d 75 f4             	lea    -0xc(%ebp),%esi
    442f:	89 5c 24 18          	mov    %ebx,0x18(%esp)
    4433:	89 74 24 1c          	mov    %esi,0x1c(%esp)
    4437:	89 4c 24 14          	mov    %ecx,0x14(%esp)
    443b:	c7 44 24 0c 00 00 00 	movl   $0x0,0xc(%esp)
    4442:	00 
    4443:	c7 44 24 10 00 00 00 	movl   $0x0,0x10(%esp)
    444a:	00 
    444b:	89 54 24 08          	mov    %edx,0x8(%esp)
    444f:	0f bf 50 04          	movswl 0x4(%eax),%edx
    4453:	89 54 24 04          	mov    %edx,0x4(%esp)
    4457:	8b 00                	mov    (%eax),%eax
    4459:	89 04 24             	mov    %eax,(%esp)
    445c:	e8 4f 4e 00 00       	call   92b0 <usb_hc_read>
    4461:	85 c0                	test   %eax,%eax
    4463:	74 0b                	je     4470 <usb_pipe_read+0xa0>
    4465:	83 c4 30             	add    $0x30,%esp
    4468:	5b                   	pop    %ebx
    4469:	5e                   	pop    %esi
    446a:	5d                   	pop    %ebp
    446b:	c3                   	ret    
    446c:	8d 74 26 00          	lea    0x0(%esi,%eiz,1),%esi
    4470:	8b 5d 14             	mov    0x14(%ebp),%ebx
    4473:	85 db                	test   %ebx,%ebx
    4475:	74 ee                	je     4465 <usb_pipe_read+0x95>
    4477:	8b 55 14             	mov    0x14(%ebp),%edx
    447a:	8b 45 f4             	mov    -0xc(%ebp),%eax
    447d:	89 02                	mov    %eax,(%edx)
    447f:	83 c4 30             	add    $0x30,%esp
    4482:	31 c0                	xor    %eax,%eax
    4484:	5b                   	pop    %ebx
    4485:	5e                   	pop    %esi
    4486:	5d                   	pop    %ebp
    4487:	c3                   	ret    
    4488:	83 c4 30             	add    $0x30,%esp
    448b:	b8 f5 ff ff ff       	mov    $0xfffffff5,%eax
    4490:	5b                   	pop    %ebx
    4491:	5e                   	pop    %esi
    4492:	5d                   	pop    %ebp
    4493:	c3                   	ret    
    4494:	8d 74 26 00          	lea    0x0(%esi,%eiz,1),%esi
    4498:	b8 fa fe ff ff       	mov    $0xfffffefa,%eax
    449d:	eb c6                	jmp    4465 <usb_pipe_read+0x95>
    449f:	90                   	nop
    44a0:	b8 f2 ff ff ff       	mov    $0xfffffff2,%eax
    44a5:	eb be                	jmp    4465 <usb_pipe_read+0x95>
    44a7:	c7 44 24 08 c4 00 00 	movl   $0xc4,0x8(%esp)
    44ae:	00 
    44af:	c7 44 24 04 be ea 02 	movl   $0x2eabe,0x4(%esp)
    44b6:	00 
    44b7:	c7 04 24 ef eb 02 00 	movl   $0x2ebef,(%esp)
    44be:	e8 8d 4f 02 00       	call   29450 <assert_abort>
    44c3:	c7 44 24 08 78 00 00 	movl   $0x78,0x8(%esp)
    44ca:	00 
    44cb:	c7 44 24 04 f8 ea 02 	movl   $0x2eaf8,0x4(%esp)
    44d2:	00 
    44d3:	c7 04 24 ef ea 02 00 	movl   $0x2eaef,(%esp)
    44da:	e8 71 4f 02 00       	call   29450 <assert_abort>
    44df:	90                   	nop

000044e0 <usb_pipe_write>:
    44e0:	55                   	push   %ebp
    44e1:	89 e5                	mov    %esp,%ebp
    44e3:	53                   	push   %ebx
    44e4:	83 ec 24             	sub    $0x24,%esp
    44e7:	8b 45 08             	mov    0x8(%ebp),%eax
    44ea:	8b 4d 0c             	mov    0xc(%ebp),%ecx
    44ed:	8b 55 10             	mov    0x10(%ebp),%edx
    44f0:	85 c0                	test   %eax,%eax
    44f2:	0f 84 87 00 00 00    	je     457f <usb_pipe_write+0x9f>
    44f8:	85 d2                	test   %edx,%edx
    44fa:	74 7c                	je     4578 <usb_pipe_write+0x98>
    44fc:	85 c9                	test   %ecx,%ecx
    44fe:	74 78                	je     4578 <usb_pipe_write+0x98>
    4500:	83 78 0c 01          	cmpl   $0x1,0xc(%eax)
    4504:	75 62                	jne    4568 <usb_pipe_write+0x88>
    4506:	8b 58 08             	mov    0x8(%eax),%ebx
    4509:	85 db                	test   %ebx,%ebx
    450b:	74 5b                	je     4568 <usb_pipe_write+0x88>
    450d:	83 eb 02             	sub    $0x2,%ebx
    4510:	83 fb 01             	cmp    $0x1,%ebx
    4513:	77 43                	ja     4558 <usb_pipe_write+0x78>
    4515:	0f bf 58 04          	movswl 0x4(%eax),%ebx
    4519:	8b 00                	mov    (%eax),%eax
    451b:	85 c0                	test   %eax,%eax
    451d:	74 7c                	je     459b <usb_pipe_write+0xbb>
    451f:	89 54 24 18          	mov    %edx,0x18(%esp)
    4523:	89 4c 24 14          	mov    %ecx,0x14(%esp)
    4527:	c7 44 24 0c 00 00 00 	movl   $0x0,0xc(%esp)
    452e:	00 
    452f:	c7 44 24 10 00 00 00 	movl   $0x0,0x10(%esp)
    4536:	00 
    4537:	89 5c 24 08          	mov    %ebx,0x8(%esp)
    453b:	0f bf 50 04          	movswl 0x4(%eax),%edx
    453f:	89 54 24 04          	mov    %edx,0x4(%esp)
    4543:	8b 00                	mov    (%eax),%eax
    4545:	89 04 24             	mov    %eax,(%esp)
    4548:	e8 33 4f 00 00       	call   9480 <usb_hc_write>
    454d:	83 c4 24             	add    $0x24,%esp
    4550:	5b                   	pop    %ebx
    4551:	5d                   	pop    %ebp
    4552:	c3                   	ret    
    4553:	90                   	nop
    4554:	8d 74 26 00          	lea    0x0(%esi,%eiz,1),%esi
    4558:	83 c4 24             	add    $0x24,%esp
    455b:	b8 f5 ff ff ff       	mov    $0xfffffff5,%eax
    4560:	5b                   	pop    %ebx
    4561:	5d                   	pop    %ebp
    4562:	c3                   	ret    
    4563:	90                   	nop
    4564:	8d 74 26 00          	lea    0x0(%esi,%eiz,1),%esi
    4568:	83 c4 24             	add    $0x24,%esp
    456b:	b8 fa fe ff ff       	mov    $0xfffffefa,%eax
    4570:	5b                   	pop    %ebx
    4571:	5d                   	pop    %ebp
    4572:	c3                   	ret    
    4573:	90                   	nop
    4574:	8d 74 26 00          	lea    0x0(%esi,%eiz,1),%esi
    4578:	b8 f2 ff ff ff       	mov    $0xfffffff2,%eax
    457d:	eb ce                	jmp    454d <usb_pipe_write+0x6d>
    457f:	c7 44 24 08 ef 00 00 	movl   $0xef,0x8(%esp)
    4586:	00 
    4587:	c7 44 24 04 be ea 02 	movl   $0x2eabe,0x4(%esp)
    458e:	00 
    458f:	c7 04 24 ef eb 02 00 	movl   $0x2ebef,(%esp)
    4596:	e8 b5 4e 02 00       	call   29450 <assert_abort>
    459b:	c7 44 24 08 88 00 00 	movl   $0x88,0x8(%esp)
    45a2:	00 
    45a3:	c7 44 24 04 f8 ea 02 	movl   $0x2eaf8,0x4(%esp)
    45aa:	00 
    45ab:	c7 04 24 ef ea 02 00 	movl   $0x2eaef,(%esp)
    45b2:	e8 99 4e 02 00       	call   29450 <assert_abort>
    45b7:	89 f6                	mov    %esi,%esi
    45b9:	8d bc 27 00 00 00 00 	lea    0x0(%edi,%eiz,1),%edi

000045c0 <usb_pipe_initialize>:
    45c0:	55                   	push   %ebp
    45c1:	89 e5                	mov    %esp,%ebp
    45c3:	83 ec 18             	sub    $0x18,%esp
    45c6:	8b 45 08             	mov    0x8(%ebp),%eax
    45c9:	8b 55 0c             	mov    0xc(%ebp),%edx
    45cc:	8b 4d 10             	mov    0x10(%ebp),%ecx
    45cf:	85 c0                	test   %eax,%eax
    45d1:	74 24                	je     45f7 <usb_pipe_initialize+0x37>
    45d3:	85 d2                	test   %edx,%edx
    45d5:	74 3c                	je     4613 <usb_pipe_initialize+0x53>
    45d7:	89 10                	mov    %edx,(%eax)
    45d9:	8b 55 14             	mov    0x14(%ebp),%edx
    45dc:	89 50 08             	mov    %edx,0x8(%eax)
    45df:	8b 55 18             	mov    0x18(%ebp),%edx
    45e2:	89 50 10             	mov    %edx,0x10(%eax)
    45e5:	8b 55 1c             	mov    0x1c(%ebp),%edx
    45e8:	66 89 48 04          	mov    %cx,0x4(%eax)
    45ec:	89 50 0c             	mov    %edx,0xc(%eax)
    45ef:	c6 40 14 00          	movb   $0x0,0x14(%eax)
    45f3:	31 c0                	xor    %eax,%eax
    45f5:	c9                   	leave  
    45f6:	c3                   	ret    
    45f7:	c7 44 24 08 15 01 00 	movl   $0x115,0x8(%esp)
    45fe:	00 
    45ff:	c7 44 24 04 be ea 02 	movl   $0x2eabe,0x4(%esp)
    4606:	00 
    4607:	c7 04 24 ef eb 02 00 	movl   $0x2ebef,(%esp)
    460e:	e8 3d 4e 02 00       	call   29450 <assert_abort>
    4613:	c7 44 24 08 16 01 00 	movl   $0x116,0x8(%esp)
    461a:	00 
    461b:	c7 44 24 04 be ea 02 	movl   $0x2eabe,0x4(%esp)
    4622:	00 
    4623:	c7 04 24 85 f8 02 00 	movl   $0x2f885,(%esp)
    462a:	e8 21 4e 02 00       	call   29450 <assert_abort>
    462f:	90                   	nop

00004630 <usb_pipe_initialize_default_control>:
    4630:	55                   	push   %ebp
    4631:	89 e5                	mov    %esp,%ebp
    4633:	83 ec 18             	sub    $0x18,%esp
    4636:	8b 45 08             	mov    0x8(%ebp),%eax
    4639:	8b 55 0c             	mov    0xc(%ebp),%edx
    463c:	85 c0                	test   %eax,%eax
    463e:	74 29                	je     4669 <usb_pipe_initialize_default_control+0x39>
    4640:	85 d2                	test   %edx,%edx
    4642:	74 41                	je     4685 <usb_pipe_initialize_default_control+0x55>
    4644:	89 10                	mov    %edx,(%eax)
    4646:	66 c7 40 04 00 00    	movw   $0x0,0x4(%eax)
    464c:	c7 40 08 00 00 00 00 	movl   $0x0,0x8(%eax)
    4653:	c7 40 10 08 00 00 00 	movl   $0x8,0x10(%eax)
    465a:	c7 40 0c 02 00 00 00 	movl   $0x2,0xc(%eax)
    4661:	c6 40 14 01          	movb   $0x1,0x14(%eax)
    4665:	c9                   	leave  
    4666:	31 c0                	xor    %eax,%eax
    4668:	c3                   	ret    
    4669:	c7 44 24 08 2b 01 00 	movl   $0x12b,0x8(%esp)
    4670:	00 
    4671:	c7 44 24 04 be ea 02 	movl   $0x2eabe,0x4(%esp)
    4678:	00 
    4679:	c7 04 24 ef eb 02 00 	movl   $0x2ebef,(%esp)
    4680:	e8 cb 4d 02 00       	call   29450 <assert_abort>
    4685:	c7 44 24 08 2c 01 00 	movl   $0x12c,0x8(%esp)
    468c:	00 
    468d:	c7 44 24 04 be ea 02 	movl   $0x2eabe,0x4(%esp)
    4694:	00 
    4695:	c7 04 24 85 f8 02 00 	movl   $0x2f885,(%esp)
    469c:	e8 af 4d 02 00       	call   29450 <assert_abort>
    46a1:	eb 0d                	jmp    46b0 <usb_pipe_register>
    46a3:	90                   	nop
    46a4:	90                   	nop
    46a5:	90                   	nop
    46a6:	90                   	nop
    46a7:	90                   	nop
    46a8:	90                   	nop
    46a9:	90                   	nop
    46aa:	90                   	nop
    46ab:	90                   	nop
    46ac:	90                   	nop
    46ad:	90                   	nop
    46ae:	90                   	nop
    46af:	90                   	nop

000046b0 <usb_pipe_register>:
    46b0:	55                   	push   %ebp
    46b1:	89 e5                	mov    %esp,%ebp
    46b3:	83 ec 28             	sub    $0x28,%esp
    46b6:	8b 45 08             	mov    0x8(%ebp),%eax
    46b9:	85 c0                	test   %eax,%eax
    46bb:	74 3e                	je     46fb <usb_pipe_register+0x4b>
    46bd:	8b 10                	mov    (%eax),%edx
    46bf:	85 d2                	test   %edx,%edx
    46c1:	74 54                	je     4717 <usb_pipe_register+0x67>
    46c3:	8b 4d 0c             	mov    0xc(%ebp),%ecx
    46c6:	89 4c 24 18          	mov    %ecx,0x18(%esp)
    46ca:	8b 48 10             	mov    0x10(%eax),%ecx
    46cd:	89 4c 24 14          	mov    %ecx,0x14(%esp)
    46d1:	8b 48 0c             	mov    0xc(%eax),%ecx
    46d4:	89 4c 24 10          	mov    %ecx,0x10(%esp)
    46d8:	8b 48 08             	mov    0x8(%eax),%ecx
    46db:	89 4c 24 0c          	mov    %ecx,0xc(%esp)
    46df:	0f bf 40 04          	movswl 0x4(%eax),%eax
    46e3:	89 44 24 08          	mov    %eax,0x8(%esp)
    46e7:	0f bf 42 04          	movswl 0x4(%edx),%eax
    46eb:	89 44 24 04          	mov    %eax,0x4(%esp)
    46ef:	8b 02                	mov    (%edx),%eax
    46f1:	89 04 24             	mov    %eax,(%esp)
    46f4:	e8 47 48 00 00       	call   8f40 <usb_hc_register_endpoint>
    46f9:	c9                   	leave  
    46fa:	c3                   	ret    
    46fb:	c7 44 24 08 3e 01 00 	movl   $0x13e,0x8(%esp)
    4702:	00 
    4703:	c7 44 24 04 be ea 02 	movl   $0x2eabe,0x4(%esp)
    470a:	00 
    470b:	c7 04 24 ef eb 02 00 	movl   $0x2ebef,(%esp)
    4712:	e8 39 4d 02 00       	call   29450 <assert_abort>
    4717:	c7 44 24 08 3f 01 00 	movl   $0x13f,0x8(%esp)
    471e:	00 
    471f:	c7 44 24 04 be ea 02 	movl   $0x2eabe,0x4(%esp)
    4726:	00 
    4727:	c7 04 24 ca ea 02 00 	movl   $0x2eaca,(%esp)
    472e:	e8 1d 4d 02 00       	call   29450 <assert_abort>
    4733:	8d b6 00 00 00 00    	lea    0x0(%esi),%esi
    4739:	8d bc 27 00 00 00 00 	lea    0x0(%edi,%eiz,1),%edi

00004740 <usb_pipe_unregister>:
    4740:	55                   	push   %ebp
    4741:	89 e5                	mov    %esp,%ebp
    4743:	83 ec 18             	sub    $0x18,%esp
    4746:	8b 45 08             	mov    0x8(%ebp),%eax
    4749:	85 c0                	test   %eax,%eax
    474b:	74 29                	je     4776 <usb_pipe_unregister+0x36>
    474d:	8b 10                	mov    (%eax),%edx
    474f:	85 d2                	test   %edx,%edx
    4751:	74 3f                	je     4792 <usb_pipe_unregister+0x52>
    4753:	8b 48 0c             	mov    0xc(%eax),%ecx
    4756:	89 4c 24 0c          	mov    %ecx,0xc(%esp)
    475a:	0f bf 40 04          	movswl 0x4(%eax),%eax
    475e:	89 44 24 08          	mov    %eax,0x8(%esp)
    4762:	0f bf 42 04          	movswl 0x4(%edx),%eax
    4766:	89 44 24 04          	mov    %eax,0x4(%esp)
    476a:	8b 02                	mov    (%edx),%eax
    476c:	89 04 24             	mov    %eax,(%esp)
    476f:	e8 8c 49 00 00       	call   9100 <usb_hc_unregister_endpoint>
    4774:	c9                   	leave  
    4775:	c3                   	ret    
    4776:	c7 44 24 08 4d 01 00 	movl   $0x14d,0x8(%esp)
    477d:	00 
    477e:	c7 44 24 04 be ea 02 	movl   $0x2eabe,0x4(%esp)
    4785:	00 
    4786:	c7 04 24 ef eb 02 00 	movl   $0x2ebef,(%esp)
    478d:	e8 be 4c 02 00       	call   29450 <assert_abort>
    4792:	c7 44 24 08 4e 01 00 	movl   $0x14e,0x8(%esp)
    4799:	00 
    479a:	c7 44 24 04 be ea 02 	movl   $0x2eabe,0x4(%esp)
    47a1:	00 
    47a2:	c7 04 24 ca ea 02 00 	movl   $0x2eaca,(%esp)
    47a9:	e8 a2 4c 02 00       	call   29450 <assert_abort>
    47ae:	66 90                	xchg   %ax,%ax

000047b0 <usb_pipe_initialize_from_configuration>:
    47b0:	55                   	push   %ebp
    47b1:	89 e5                	mov    %esp,%ebp
    47b3:	57                   	push   %edi
    47b4:	56                   	push   %esi
    47b5:	53                   	push   %ebx
    47b6:	83 ec 6c             	sub    $0x6c,%esp
    47b9:	8b 4d 18             	mov    0x18(%ebp),%ecx
    47bc:	8b 5d 14             	mov    0x14(%ebp),%ebx
    47bf:	85 c9                	test   %ecx,%ecx
    47c1:	0f 84 7d 02 00 00    	je     4a44 <usb_pipe_initialize_from_configuration+0x294>
    47c7:	8b 55 10             	mov    0x10(%ebp),%edx
    47ca:	85 d2                	test   %edx,%edx
    47cc:	0f 84 68 02 00 00    	je     4a3a <usb_pipe_initialize_from_configuration+0x28a>
    47d2:	83 fb 08             	cmp    $0x8,%ebx
    47d5:	0f 86 4d 02 00 00    	jbe    4a28 <usb_pipe_initialize_from_configuration+0x278>
    47db:	8b 45 0c             	mov    0xc(%ebp),%eax
    47de:	85 c0                	test   %eax,%eax
    47e0:	74 27                	je     4809 <usb_pipe_initialize_from_configuration+0x59>
    47e2:	8b 75 0c             	mov    0xc(%ebp),%esi
    47e5:	8b 45 08             	mov    0x8(%ebp),%eax
    47e8:	8d 14 76             	lea    (%esi,%esi,2),%edx
    47eb:	c1 e2 04             	shl    $0x4,%edx
    47ee:	01 c2                	add    %eax,%edx
    47f0:	c6 40 2c 00          	movb   $0x0,0x2c(%eax)
    47f4:	c7 40 24 00 00 00 00 	movl   $0x0,0x24(%eax)
    47fb:	c7 40 28 00 00 00 00 	movl   $0x0,0x28(%eax)
    4802:	83 c0 30             	add    $0x30,%eax
    4805:	39 d0                	cmp    %edx,%eax
    4807:	75 e7                	jne    47f0 <usb_pipe_initialize_from_configuration+0x40>
    4809:	8b 55 10             	mov    0x10(%ebp),%edx
    480c:	8d 75 dc             	lea    -0x24(%ebp),%esi
    480f:	8d 7d d8             	lea    -0x28(%ebp),%edi
    4812:	89 54 24 08          	mov    %edx,0x8(%esp)
    4816:	89 74 24 04          	mov    %esi,0x4(%esp)
    481a:	89 3c 24             	mov    %edi,(%esp)
    481d:	c7 45 d8 40 eb 02 00 	movl   $0x2eb40,-0x28(%ebp)
    4824:	89 55 dc             	mov    %edx,-0x24(%ebp)
    4827:	89 5d e0             	mov    %ebx,-0x20(%ebp)
    482a:	89 4d e4             	mov    %ecx,-0x1c(%ebp)
    482d:	e8 1e 28 00 00       	call   7050 <usb_dp_get_nested_descriptor>
    4832:	85 c0                	test   %eax,%eax
    4834:	0f 84 f8 01 00 00    	je     4a32 <usb_pipe_initialize_from_configuration+0x282>
    483a:	89 c6                	mov    %eax,%esi
    483c:	8d 74 26 00          	lea    0x0(%esi,%eiz,1),%esi
    4840:	8d 7d dc             	lea    -0x24(%ebp),%edi
    4843:	8d 45 d8             	lea    -0x28(%ebp),%eax
    4846:	89 7c 24 04          	mov    %edi,0x4(%esp)
    484a:	89 74 24 08          	mov    %esi,0x8(%esp)
    484e:	89 04 24             	mov    %eax,(%esp)
    4851:	e8 fa 27 00 00       	call   7050 <usb_dp_get_nested_descriptor>
    4856:	89 c7                	mov    %eax,%edi
    4858:	85 c0                	test   %eax,%eax
    485a:	74 30                	je     488c <usb_pipe_initialize_from_configuration+0xdc>
    485c:	89 75 d0             	mov    %esi,-0x30(%ebp)
    485f:	90                   	nop
    4860:	80 7f 01 05          	cmpb   $0x5,0x1(%edi)
    4864:	74 5a                	je     48c0 <usb_pipe_initialize_from_configuration+0x110>
    4866:	8b 45 d0             	mov    -0x30(%ebp),%eax
    4869:	8d 55 dc             	lea    -0x24(%ebp),%edx
    486c:	8d 75 d8             	lea    -0x28(%ebp),%esi
    486f:	89 7c 24 0c          	mov    %edi,0xc(%esp)
    4873:	89 44 24 08          	mov    %eax,0x8(%esp)
    4877:	89 54 24 04          	mov    %edx,0x4(%esp)
    487b:	89 34 24             	mov    %esi,(%esp)
    487e:	e8 ed 29 00 00       	call   7270 <usb_dp_get_sibling_descriptor>
    4883:	89 c7                	mov    %eax,%edi
    4885:	85 c0                	test   %eax,%eax
    4887:	75 d7                	jne    4860 <usb_pipe_initialize_from_configuration+0xb0>
    4889:	8b 75 d0             	mov    -0x30(%ebp),%esi
    488c:	89 74 24 0c          	mov    %esi,0xc(%esp)
    4890:	8b 55 10             	mov    0x10(%ebp),%edx
    4893:	8d 75 dc             	lea    -0x24(%ebp),%esi
    4896:	8d 7d d8             	lea    -0x28(%ebp),%edi
    4899:	89 74 24 04          	mov    %esi,0x4(%esp)
    489d:	89 54 24 08          	mov    %edx,0x8(%esp)
    48a1:	89 3c 24             	mov    %edi,(%esp)
    48a4:	e8 c7 29 00 00       	call   7270 <usb_dp_get_sibling_descriptor>
    48a9:	89 c6                	mov    %eax,%esi
    48ab:	85 c0                	test   %eax,%eax
    48ad:	75 91                	jne    4840 <usb_pipe_initialize_from_configuration+0x90>
    48af:	31 c0                	xor    %eax,%eax
    48b1:	83 c4 6c             	add    $0x6c,%esp
    48b4:	5b                   	pop    %ebx
    48b5:	5e                   	pop    %esi
    48b6:	5f                   	pop    %edi
    48b7:	5d                   	pop    %ebp
    48b8:	c3                   	ret    
    48b9:	8d b4 26 00 00 00 00 	lea    0x0(%esi,%eiz,1),%esi
    48c0:	8b 45 e4             	mov    -0x1c(%ebp),%eax
    48c3:	8b 75 0c             	mov    0xc(%ebp),%esi
    48c6:	89 45 bc             	mov    %eax,-0x44(%ebp)
    48c9:	8b 5d 08             	mov    0x8(%ebp),%ebx
    48cc:	0f be 47 02          	movsbl 0x2(%edi),%eax
    48d0:	88 c2                	mov    %al,%dl
    48d2:	89 c1                	mov    %eax,%ecx
    48d4:	83 e2 0f             	and    $0xf,%edx
    48d7:	31 c0                	xor    %eax,%eax
    48d9:	88 55 bb             	mov    %dl,-0x45(%ebp)
    48dc:	8a 57 03             	mov    0x3(%edi),%dl
    48df:	83 e2 03             	and    $0x3,%edx
    48e2:	83 f1 ff             	xor    $0xffffffff,%ecx
    48e5:	c1 e9 1f             	shr    $0x1f,%ecx
    48e8:	89 55 c4             	mov    %edx,-0x3c(%ebp)
    48eb:	8b 55 d0             	mov    -0x30(%ebp),%edx
    48ee:	8a 42 05             	mov    0x5(%edx),%al
    48f1:	89 45 c0             	mov    %eax,-0x40(%ebp)
    48f4:	31 c0                	xor    %eax,%eax
    48f6:	8a 42 06             	mov    0x6(%edx),%al
    48f9:	89 45 b4             	mov    %eax,-0x4c(%ebp)
    48fc:	31 c0                	xor    %eax,%eax
    48fe:	8a 42 07             	mov    0x7(%edx),%al
    4901:	89 45 ac             	mov    %eax,-0x54(%ebp)
    4904:	31 c0                	xor    %eax,%eax
    4906:	8a 42 03             	mov    0x3(%edx),%al
    4909:	89 45 cc             	mov    %eax,-0x34(%ebp)
    490c:	31 c0                	xor    %eax,%eax
    490e:	8a 42 02             	mov    0x2(%edx),%al
    4911:	85 f6                	test   %esi,%esi
    4913:	89 45 c8             	mov    %eax,-0x38(%ebp)
    4916:	0f 84 4a ff ff ff    	je     4866 <usb_pipe_initialize_from_configuration+0xb6>
    491c:	89 7d b0             	mov    %edi,-0x50(%ebp)
    491f:	eb 11                	jmp    4932 <usb_pipe_initialize_from_configuration+0x182>
    4921:	8d b4 26 00 00 00 00 	lea    0x0(%esi,%eiz,1),%esi
    4928:	83 c3 30             	add    $0x30,%ebx
    492b:	4e                   	dec    %esi
    492c:	0f 84 ee 00 00 00    	je     4a20 <usb_pipe_initialize_from_configuration+0x270>
    4932:	8b 43 1c             	mov    0x1c(%ebx),%eax
    4935:	85 c0                	test   %eax,%eax
    4937:	0f 88 d3 00 00 00    	js     4a10 <usb_pipe_initialize_from_configuration+0x260>
    493d:	39 45 c8             	cmp    %eax,-0x38(%ebp)
    4940:	0f 94 c2             	sete   %dl
    4943:	81 e2 ff 00 00 00    	and    $0xff,%edx
    4949:	8b 43 20             	mov    0x20(%ebx),%eax
    494c:	85 c0                	test   %eax,%eax
    494e:	0f 88 ac 00 00 00    	js     4a00 <usb_pipe_initialize_from_configuration+0x250>
    4954:	39 45 cc             	cmp    %eax,-0x34(%ebp)
    4957:	0f 94 c0             	sete   %al
    495a:	25 ff 00 00 00       	and    $0xff,%eax
    495f:	89 45 d4             	mov    %eax,-0x2c(%ebp)
    4962:	8b 43 18             	mov    0x18(%ebx),%eax
    4965:	3b 48 04             	cmp    0x4(%eax),%ecx
    4968:	75 be                	jne    4928 <usb_pipe_initialize_from_configuration+0x178>
    496a:	8b 7d c4             	mov    -0x3c(%ebp),%edi
    496d:	3b 38                	cmp    (%eax),%edi
    496f:	75 b7                	jne    4928 <usb_pipe_initialize_from_configuration+0x178>
    4971:	8b 78 08             	mov    0x8(%eax),%edi
    4974:	85 ff                	test   %edi,%edi
    4976:	78 05                	js     497d <usb_pipe_initialize_from_configuration+0x1cd>
    4978:	39 7d c0             	cmp    %edi,-0x40(%ebp)
    497b:	75 ab                	jne    4928 <usb_pipe_initialize_from_configuration+0x178>
    497d:	8b 78 0c             	mov    0xc(%eax),%edi
    4980:	85 ff                	test   %edi,%edi
    4982:	78 05                	js     4989 <usb_pipe_initialize_from_configuration+0x1d9>
    4984:	39 7d b4             	cmp    %edi,-0x4c(%ebp)
    4987:	75 9f                	jne    4928 <usb_pipe_initialize_from_configuration+0x178>
    4989:	8b 40 10             	mov    0x10(%eax),%eax
    498c:	85 c0                	test   %eax,%eax
    498e:	78 05                	js     4995 <usb_pipe_initialize_from_configuration+0x1e5>
    4990:	39 45 ac             	cmp    %eax,-0x54(%ebp)
    4993:	75 93                	jne    4928 <usb_pipe_initialize_from_configuration+0x178>
    4995:	85 55 d4             	test   %edx,-0x2c(%ebp)
    4998:	74 8e                	je     4928 <usb_pipe_initialize_from_configuration+0x178>
    499a:	8b 7d b0             	mov    -0x50(%ebp),%edi
    499d:	85 db                	test   %ebx,%ebx
    499f:	0f 84 c1 fe ff ff    	je     4866 <usb_pipe_initialize_from_configuration+0xb6>
    49a5:	80 7b 2c 00          	cmpb   $0x0,0x2c(%ebx)
    49a9:	0f 85 b7 fe ff ff    	jne    4866 <usb_pipe_initialize_from_configuration+0xb6>
    49af:	89 4c 24 14          	mov    %ecx,0x14(%esp)
    49b3:	8b 55 bc             	mov    -0x44(%ebp),%edx
    49b6:	66 8b 47 04          	mov    0x4(%edi),%ax
    49ba:	89 54 24 04          	mov    %edx,0x4(%esp)
    49be:	25 ff ff 00 00       	and    $0xffff,%eax
    49c3:	89 1c 24             	mov    %ebx,(%esp)
    49c6:	89 44 24 10          	mov    %eax,0x10(%esp)
    49ca:	8b 45 c4             	mov    -0x3c(%ebp),%eax
    49cd:	89 44 24 0c          	mov    %eax,0xc(%esp)
    49d1:	31 c0                	xor    %eax,%eax
    49d3:	8a 45 bb             	mov    -0x45(%ebp),%al
    49d6:	89 44 24 08          	mov    %eax,0x8(%esp)
    49da:	e8 e1 fb ff ff       	call   45c0 <usb_pipe_initialize>
    49df:	85 c0                	test   %eax,%eax
    49e1:	0f 85 7f fe ff ff    	jne    4866 <usb_pipe_initialize_from_configuration+0xb6>
    49e7:	8b 45 d0             	mov    -0x30(%ebp),%eax
    49ea:	c6 43 2c 01          	movb   $0x1,0x2c(%ebx)
    49ee:	89 7b 24             	mov    %edi,0x24(%ebx)
    49f1:	89 43 28             	mov    %eax,0x28(%ebx)
    49f4:	e9 6d fe ff ff       	jmp    4866 <usb_pipe_initialize_from_configuration+0xb6>
    49f9:	8d b4 26 00 00 00 00 	lea    0x0(%esi,%eiz,1),%esi
    4a00:	c7 45 d4 01 00 00 00 	movl   $0x1,-0x2c(%ebp)
    4a07:	e9 56 ff ff ff       	jmp    4962 <usb_pipe_initialize_from_configuration+0x1b2>
    4a0c:	8d 74 26 00          	lea    0x0(%esi,%eiz,1),%esi
    4a10:	ba 01 00 00 00       	mov    $0x1,%edx
    4a15:	e9 2f ff ff ff       	jmp    4949 <usb_pipe_initialize_from_configuration+0x199>
    4a1a:	8d b6 00 00 00 00    	lea    0x0(%esi),%esi
    4a20:	8b 7d b0             	mov    -0x50(%ebp),%edi
    4a23:	e9 3e fe ff ff       	jmp    4866 <usb_pipe_initialize_from_configuration+0xb6>
    4a28:	b8 f9 fe ff ff       	mov    $0xfffffef9,%eax
    4a2d:	e9 7f fe ff ff       	jmp    48b1 <usb_pipe_initialize_from_configuration+0x101>
    4a32:	83 c8 ff             	or     $0xffffffff,%eax
    4a35:	e9 77 fe ff ff       	jmp    48b1 <usb_pipe_initialize_from_configuration+0x101>
    4a3a:	b8 f6 ff ff ff       	mov    $0xfffffff6,%eax
    4a3f:	e9 6d fe ff ff       	jmp    48b1 <usb_pipe_initialize_from_configuration+0x101>
    4a44:	c7 44 24 08 1c 01 00 	movl   $0x11c,0x8(%esp)
    4a4b:	00 
    4a4c:	c7 44 24 04 20 eb 02 	movl   $0x2eb20,0x4(%esp)
    4a53:	00 
    4a54:	c7 04 24 85 f8 02 00 	movl   $0x2f885,(%esp)
    4a5b:	e8 f0 49 02 00       	call   29450 <assert_abort>

00004a60 <usb_pipe_probe_default_control>:
    4a60:	55                   	push   %ebp
    4a61:	89 e5                	mov    %esp,%ebp
    4a63:	57                   	push   %edi
    4a64:	56                   	push   %esi
    4a65:	53                   	push   %ebx
    4a66:	83 ec 4c             	sub    $0x4c,%esp
    4a69:	8b 5d 08             	mov    0x8(%ebp),%ebx
    4a6c:	85 db                	test   %ebx,%ebx
    4a6e:	0f 84 5b 01 00 00    	je     4bcf <usb_pipe_probe_default_control+0x16f>
    4a74:	83 7b 0c 02          	cmpl   $0x2,0xc(%ebx)
    4a78:	0f 85 42 01 00 00    	jne    4bc0 <usb_pipe_probe_default_control+0x160>
    4a7e:	8b 4b 08             	mov    0x8(%ebx),%ecx
    4a81:	85 c9                	test   %ecx,%ecx
    4a83:	0f 85 37 01 00 00    	jne    4bc0 <usb_pipe_probe_default_control+0x160>
    4a89:	66 83 7b 04 00       	cmpw   $0x0,0x4(%ebx)
    4a8e:	0f 85 2c 01 00 00    	jne    4bc0 <usb_pipe_probe_default_control+0x160>
    4a94:	89 1c 24             	mov    %ebx,(%esp)
    4a97:	8d 7d dc             	lea    -0x24(%ebp),%edi
    4a9a:	8d 75 e0             	lea    -0x20(%ebp),%esi
    4a9d:	e8 6e f5 ff ff       	call   4010 <usb_pipe_start_long_transfer>
    4aa2:	89 7c 24 20          	mov    %edi,0x20(%esp)
    4aa6:	c7 44 24 1c 08 00 00 	movl   $0x8,0x1c(%esp)
    4aad:	00 
    4aae:	89 74 24 18          	mov    %esi,0x18(%esp)
    4ab2:	c7 44 24 14 00 00 00 	movl   $0x0,0x14(%esp)
    4ab9:	00 
    4aba:	c7 44 24 10 00 00 00 	movl   $0x0,0x10(%esp)
    4ac1:	00 
    4ac2:	c7 44 24 0c 01 00 00 	movl   $0x1,0xc(%esp)
    4ac9:	00 
    4aca:	c7 44 24 08 00 00 00 	movl   $0x0,0x8(%esp)
    4ad1:	00 
    4ad2:	c7 44 24 04 00 00 00 	movl   $0x0,0x4(%esp)
    4ad9:	00 
    4ada:	89 1c 24             	mov    %ebx,(%esp)
    4add:	e8 9e 15 00 00       	call   6080 <usb_request_get_descriptor>
    4ae2:	85 c0                	test   %eax,%eax
    4ae4:	75 0a                	jne    4af0 <usb_pipe_probe_default_control+0x90>
    4ae6:	83 7d dc 08          	cmpl   $0x8,-0x24(%ebp)
    4aea:	0f 84 b0 00 00 00    	je     4ba0 <usb_pipe_probe_default_control+0x140>
    4af0:	89 7c 24 20          	mov    %edi,0x20(%esp)
    4af4:	c7 44 24 1c 08 00 00 	movl   $0x8,0x1c(%esp)
    4afb:	00 
    4afc:	89 74 24 18          	mov    %esi,0x18(%esp)
    4b00:	c7 44 24 14 00 00 00 	movl   $0x0,0x14(%esp)
    4b07:	00 
    4b08:	c7 44 24 10 00 00 00 	movl   $0x0,0x10(%esp)
    4b0f:	00 
    4b10:	c7 44 24 0c 01 00 00 	movl   $0x1,0xc(%esp)
    4b17:	00 
    4b18:	c7 44 24 08 00 00 00 	movl   $0x0,0x8(%esp)
    4b1f:	00 
    4b20:	c7 44 24 04 00 00 00 	movl   $0x0,0x4(%esp)
    4b27:	00 
    4b28:	89 1c 24             	mov    %ebx,(%esp)
    4b2b:	e8 50 15 00 00       	call   6080 <usb_request_get_descriptor>
    4b30:	85 c0                	test   %eax,%eax
    4b32:	75 06                	jne    4b3a <usb_pipe_probe_default_control+0xda>
    4b34:	83 7d dc 08          	cmpl   $0x8,-0x24(%ebp)
    4b38:	74 66                	je     4ba0 <usb_pipe_probe_default_control+0x140>
    4b3a:	89 74 24 18          	mov    %esi,0x18(%esp)
    4b3e:	89 7c 24 20          	mov    %edi,0x20(%esp)
    4b42:	c7 44 24 1c 08 00 00 	movl   $0x8,0x1c(%esp)
    4b49:	00 
    4b4a:	c7 44 24 14 00 00 00 	movl   $0x0,0x14(%esp)
    4b51:	00 
    4b52:	c7 44 24 10 00 00 00 	movl   $0x0,0x10(%esp)
    4b59:	00 
    4b5a:	c7 44 24 0c 01 00 00 	movl   $0x1,0xc(%esp)
    4b61:	00 
    4b62:	c7 44 24 08 00 00 00 	movl   $0x0,0x8(%esp)
    4b69:	00 
    4b6a:	c7 44 24 04 00 00 00 	movl   $0x0,0x4(%esp)
    4b71:	00 
    4b72:	89 1c 24             	mov    %ebx,(%esp)
    4b75:	e8 06 15 00 00       	call   6080 <usb_request_get_descriptor>
    4b7a:	89 c6                	mov    %eax,%esi
    4b7c:	85 c0                	test   %eax,%eax
    4b7e:	75 0b                	jne    4b8b <usb_pipe_probe_default_control+0x12b>
    4b80:	83 7d dc 08          	cmpl   $0x8,-0x24(%ebp)
    4b84:	74 1a                	je     4ba0 <usb_pipe_probe_default_control+0x140>
    4b86:	be fd ff ff ff       	mov    $0xfffffffd,%esi
    4b8b:	89 1c 24             	mov    %ebx,(%esp)
    4b8e:	e8 fd f4 ff ff       	call   4090 <usb_pipe_end_long_transfer>
    4b93:	83 c4 4c             	add    $0x4c,%esp
    4b96:	89 f0                	mov    %esi,%eax
    4b98:	5b                   	pop    %ebx
    4b99:	5e                   	pop    %esi
    4b9a:	5f                   	pop    %edi
    4b9b:	5d                   	pop    %ebp
    4b9c:	c3                   	ret    
    4b9d:	8d 76 00             	lea    0x0(%esi),%esi
    4ba0:	89 1c 24             	mov    %ebx,(%esp)
    4ba3:	31 f6                	xor    %esi,%esi
    4ba5:	e8 e6 f4 ff ff       	call   4090 <usb_pipe_end_long_transfer>
    4baa:	31 c0                	xor    %eax,%eax
    4bac:	8a 45 e7             	mov    -0x19(%ebp),%al
    4baf:	89 43 10             	mov    %eax,0x10(%ebx)
    4bb2:	83 c4 4c             	add    $0x4c,%esp
    4bb5:	89 f0                	mov    %esi,%eax
    4bb7:	5b                   	pop    %ebx
    4bb8:	5e                   	pop    %esi
    4bb9:	5f                   	pop    %edi
    4bba:	5d                   	pop    %ebp
    4bbb:	c3                   	ret    
    4bbc:	8d 74 26 00          	lea    0x0(%esi,%eiz,1),%esi
    4bc0:	83 c4 4c             	add    $0x4c,%esp
    4bc3:	be f2 ff ff ff       	mov    $0xfffffff2,%esi
    4bc8:	89 f0                	mov    %esi,%eax
    4bca:	5b                   	pop    %ebx
    4bcb:	5e                   	pop    %esi
    4bcc:	5f                   	pop    %edi
    4bcd:	5d                   	pop    %ebp
    4bce:	c3                   	ret    
    4bcf:	c7 44 24 08 55 01 00 	movl   $0x155,0x8(%esp)
    4bd6:	00 
    4bd7:	c7 44 24 04 20 eb 02 	movl   $0x2eb20,0x4(%esp)
    4bde:	00 
    4bdf:	c7 04 24 ef eb 02 00 	movl   $0x2ebef,(%esp)
    4be6:	e8 65 48 02 00       	call   29450 <assert_abort>
    4beb:	66 90                	xchg   %ax,%ax
    4bed:	66 90                	xchg   %ax,%ax
    4bef:	90                   	nop

00004bf0 <usb_device_create_match_ids_from_interface>:
    4bf0:	55                   	push   %ebp
    4bf1:	89 e5                	mov    %esp,%ebp
    4bf3:	57                   	push   %edi
    4bf4:	56                   	push   %esi
    4bf5:	53                   	push   %ebx
    4bf6:	83 ec 5c             	sub    $0x5c,%esp
    4bf9:	8b 5d 10             	mov    0x10(%ebp),%ebx
    4bfc:	8b 75 08             	mov    0x8(%ebp),%esi
    4bff:	85 db                	test   %ebx,%ebx
    4c01:	0f 84 09 0a 00 00    	je     5610 <usb_device_create_match_ids_from_interface+0xa20>
    4c07:	8b 45 0c             	mov    0xc(%ebp),%eax
    4c0a:	85 c0                	test   %eax,%eax
    4c0c:	0f 84 fe 09 00 00    	je     5610 <usb_device_create_match_ids_from_interface+0xa20>
    4c12:	8b 55 0c             	mov    0xc(%ebp),%edx
    4c15:	8a 42 05             	mov    0x5(%edx),%al
    4c18:	84 c0                	test   %al,%al
    4c1a:	0f 84 d8 09 00 00    	je     55f8 <usb_device_create_match_ids_from_interface+0xa08>
    4c20:	25 ff 00 00 00       	and    $0xff,%eax
    4c25:	89 04 24             	mov    %eax,(%esp)
    4c28:	e8 c3 30 00 00       	call   7cf0 <usb_str_class>
    4c2d:	89 c7                	mov    %eax,%edi
    4c2f:	85 c0                	test   %eax,%eax
    4c31:	0f 84 31 0a 00 00    	je     5668 <usb_device_create_match_ids_from_interface+0xa78>
    4c37:	85 f6                	test   %esi,%esi
    4c39:	0f 84 c1 09 00 00    	je     5600 <usb_device_create_match_ids_from_interface+0xa10>
    4c3f:	66 8b 46 08          	mov    0x8(%esi),%ax
    4c43:	8d 55 e4             	lea    -0x1c(%ebp),%edx
    4c46:	66 85 c0             	test   %ax,%ax
    4c49:	89 55 d0             	mov    %edx,-0x30(%ebp)
    4c4c:	0f 85 a6 02 00 00    	jne    4ef8 <usb_device_create_match_ids_from_interface+0x308>
    4c52:	8b 55 0c             	mov    0xc(%ebp),%edx
    4c55:	31 c0                	xor    %eax,%eax
    4c57:	8b 4d d0             	mov    -0x30(%ebp),%ecx
    4c5a:	c7 45 e4 00 00 00 00 	movl   $0x0,-0x1c(%ebp)
    4c61:	8a 42 07             	mov    0x7(%edx),%al
    4c64:	89 44 24 10          	mov    %eax,0x10(%esp)
    4c68:	31 c0                	xor    %eax,%eax
    4c6a:	8a 42 06             	mov    0x6(%edx),%al
    4c6d:	89 7c 24 08          	mov    %edi,0x8(%esp)
    4c71:	89 44 24 0c          	mov    %eax,0xc(%esp)
    4c75:	c7 44 24 04 74 ee 02 	movl   $0x2ee74,0x4(%esp)
    4c7c:	00 
    4c7d:	89 0c 24             	mov    %ecx,(%esp)
    4c80:	e8 db 26 01 00       	call   17360 <asprintf>
    4c85:	83 f8 00             	cmp    $0x0,%eax
    4c88:	0f 8e 1a 02 00 00    	jle    4ea8 <usb_device_create_match_ids_from_interface+0x2b8>
    4c8e:	8b 55 e4             	mov    -0x1c(%ebp),%edx
    4c91:	c7 04 24 10 00 00 00 	movl   $0x10,(%esp)
    4c98:	89 55 cc             	mov    %edx,-0x34(%ebp)
    4c9b:	e8 50 9f 01 00       	call   1ebf0 <malloc>
    4ca0:	c7 44 24 08 10 00 00 	movl   $0x10,0x8(%esp)
    4ca7:	00 
    4ca8:	89 c6                	mov    %eax,%esi
    4caa:	c7 44 24 04 00 00 00 	movl   $0x0,0x4(%esp)
    4cb1:	00 
    4cb2:	89 04 24             	mov    %eax,(%esp)
    4cb5:	e8 56 c9 00 00       	call   11610 <memset>
    4cba:	85 f6                	test   %esi,%esi
    4cbc:	8b 55 cc             	mov    -0x34(%ebp),%edx
    4cbf:	0f 84 81 09 00 00    	je     5646 <usb_device_create_match_ids_from_interface+0xa56>
    4cc5:	89 56 08             	mov    %edx,0x8(%esi)
    4cc8:	8b 53 04             	mov    0x4(%ebx),%edx
    4ccb:	c7 46 0c a0 00 00 00 	movl   $0xa0,0xc(%esi)
    4cd2:	39 d3                	cmp    %edx,%ebx
    4cd4:	75 09                	jne    4cdf <usb_device_create_match_ids_from_interface+0xef>
    4cd6:	eb 10                	jmp    4ce8 <usb_device_create_match_ids_from_interface+0xf8>
    4cd8:	8b 52 04             	mov    0x4(%edx),%edx
    4cdb:	39 d3                	cmp    %edx,%ebx
    4cdd:	74 09                	je     4ce8 <usb_device_create_match_ids_from_interface+0xf8>
    4cdf:	81 7a 0c 9f 00 00 00 	cmpl   $0x9f,0xc(%edx)
    4ce6:	77 f0                	ja     4cd8 <usb_device_create_match_ids_from_interface+0xe8>
    4ce8:	8b 02                	mov    (%edx),%eax
    4cea:	89 56 04             	mov    %edx,0x4(%esi)
    4ced:	89 06                	mov    %eax,(%esi)
    4cef:	8b 02                	mov    (%edx),%eax
    4cf1:	89 32                	mov    %esi,(%edx)
    4cf3:	89 70 04             	mov    %esi,0x4(%eax)
    4cf6:	8b 55 0c             	mov    0xc(%ebp),%edx
    4cf9:	31 c0                	xor    %eax,%eax
    4cfb:	8b 4d d0             	mov    -0x30(%ebp),%ecx
    4cfe:	c7 45 e4 00 00 00 00 	movl   $0x0,-0x1c(%ebp)
    4d05:	8a 42 06             	mov    0x6(%edx),%al
    4d08:	89 7c 24 08          	mov    %edi,0x8(%esp)
    4d0c:	89 44 24 0c          	mov    %eax,0xc(%esp)
    4d10:	c7 44 24 04 ac ee 02 	movl   $0x2eeac,0x4(%esp)
    4d17:	00 
    4d18:	89 0c 24             	mov    %ecx,(%esp)
    4d1b:	e8 40 26 01 00       	call   17360 <asprintf>
    4d20:	83 f8 00             	cmp    $0x0,%eax
    4d23:	0f 8e c7 01 00 00    	jle    4ef0 <usb_device_create_match_ids_from_interface+0x300>
    4d29:	8b 55 e4             	mov    -0x1c(%ebp),%edx
    4d2c:	c7 04 24 10 00 00 00 	movl   $0x10,(%esp)
    4d33:	89 55 d4             	mov    %edx,-0x2c(%ebp)
    4d36:	e8 b5 9e 01 00       	call   1ebf0 <malloc>
    4d3b:	c7 44 24 08 10 00 00 	movl   $0x10,0x8(%esp)
    4d42:	00 
    4d43:	89 c6                	mov    %eax,%esi
    4d45:	c7 44 24 04 00 00 00 	movl   $0x0,0x4(%esp)
    4d4c:	00 
    4d4d:	89 04 24             	mov    %eax,(%esp)
    4d50:	e8 bb c8 00 00       	call   11610 <memset>
    4d55:	85 f6                	test   %esi,%esi
    4d57:	0f 84 e9 08 00 00    	je     5646 <usb_device_create_match_ids_from_interface+0xa56>
    4d5d:	8b 4d d4             	mov    -0x2c(%ebp),%ecx
    4d60:	8b 53 04             	mov    0x4(%ebx),%edx
    4d63:	89 4e 08             	mov    %ecx,0x8(%esi)
    4d66:	c7 46 0c 96 00 00 00 	movl   $0x96,0xc(%esi)
    4d6d:	39 d3                	cmp    %edx,%ebx
    4d6f:	0f 85 5e 01 00 00    	jne    4ed3 <usb_device_create_match_ids_from_interface+0x2e3>
    4d75:	8d 76 00             	lea    0x0(%esi),%esi
    4d78:	8b 02                	mov    (%edx),%eax
    4d7a:	89 56 04             	mov    %edx,0x4(%esi)
    4d7d:	89 06                	mov    %eax,(%esi)
    4d7f:	8b 02                	mov    (%edx),%eax
    4d81:	89 32                	mov    %esi,(%edx)
    4d83:	89 70 04             	mov    %esi,0x4(%eax)
    4d86:	8b 55 d0             	mov    -0x30(%ebp),%edx
    4d89:	89 7c 24 08          	mov    %edi,0x8(%esp)
    4d8d:	c7 44 24 04 92 eb 02 	movl   $0x2eb92,0x4(%esp)
    4d94:	00 
    4d95:	89 14 24             	mov    %edx,(%esp)
    4d98:	c7 45 e4 00 00 00 00 	movl   $0x0,-0x1c(%ebp)
    4d9f:	e8 bc 25 01 00       	call   17360 <asprintf>
    4da4:	83 f8 00             	cmp    $0x0,%eax
    4da7:	0f 8e 3b 01 00 00    	jle    4ee8 <usb_device_create_match_ids_from_interface+0x2f8>
    4dad:	c7 04 24 10 00 00 00 	movl   $0x10,(%esp)
    4db4:	8b 75 e4             	mov    -0x1c(%ebp),%esi
    4db7:	e8 34 9e 01 00       	call   1ebf0 <malloc>
    4dbc:	c7 44 24 08 10 00 00 	movl   $0x10,0x8(%esp)
    4dc3:	00 
    4dc4:	89 c7                	mov    %eax,%edi
    4dc6:	c7 44 24 04 00 00 00 	movl   $0x0,0x4(%esp)
    4dcd:	00 
    4dce:	89 04 24             	mov    %eax,(%esp)
    4dd1:	e8 3a c8 00 00       	call   11610 <memset>
    4dd6:	85 ff                	test   %edi,%edi
    4dd8:	0f 84 68 08 00 00    	je     5646 <usb_device_create_match_ids_from_interface+0xa56>
    4dde:	8b 53 04             	mov    0x4(%ebx),%edx
    4de1:	89 77 08             	mov    %esi,0x8(%edi)
    4de4:	c7 47 0c 8c 00 00 00 	movl   $0x8c,0xc(%edi)
    4deb:	39 d3                	cmp    %edx,%ebx
    4ded:	75 10                	jne    4dff <usb_device_create_match_ids_from_interface+0x20f>
    4def:	eb 17                	jmp    4e08 <usb_device_create_match_ids_from_interface+0x218>
    4df1:	8d b4 26 00 00 00 00 	lea    0x0(%esi,%eiz,1),%esi
    4df8:	8b 52 04             	mov    0x4(%edx),%edx
    4dfb:	39 d3                	cmp    %edx,%ebx
    4dfd:	74 09                	je     4e08 <usb_device_create_match_ids_from_interface+0x218>
    4dff:	81 7a 0c 8b 00 00 00 	cmpl   $0x8b,0xc(%edx)
    4e06:	77 f0                	ja     4df8 <usb_device_create_match_ids_from_interface+0x208>
    4e08:	8b 02                	mov    (%edx),%eax
    4e0a:	89 57 04             	mov    %edx,0x4(%edi)
    4e0d:	89 07                	mov    %eax,(%edi)
    4e0f:	8b 02                	mov    (%edx),%eax
    4e11:	89 3a                	mov    %edi,(%edx)
    4e13:	89 78 04             	mov    %edi,0x4(%eax)
    4e16:	8b 4d d0             	mov    -0x30(%ebp),%ecx
    4e19:	c7 44 24 04 a9 eb 02 	movl   $0x2eba9,0x4(%esp)
    4e20:	00 
    4e21:	89 0c 24             	mov    %ecx,(%esp)
    4e24:	c7 45 e4 00 00 00 00 	movl   $0x0,-0x1c(%ebp)
    4e2b:	e8 30 25 01 00       	call   17360 <asprintf>
    4e30:	83 f8 00             	cmp    $0x0,%eax
    4e33:	0f 8e 9f 07 00 00    	jle    55d8 <usb_device_create_match_ids_from_interface+0x9e8>
    4e39:	c7 04 24 10 00 00 00 	movl   $0x10,(%esp)
    4e40:	8b 7d e4             	mov    -0x1c(%ebp),%edi
    4e43:	e8 a8 9d 01 00       	call   1ebf0 <malloc>
    4e48:	c7 44 24 08 10 00 00 	movl   $0x10,0x8(%esp)
    4e4f:	00 
    4e50:	89 c6                	mov    %eax,%esi
    4e52:	c7 44 24 04 00 00 00 	movl   $0x0,0x4(%esp)
    4e59:	00 
    4e5a:	89 04 24             	mov    %eax,(%esp)
    4e5d:	e8 ae c7 00 00       	call   11610 <memset>
    4e62:	85 f6                	test   %esi,%esi
    4e64:	0f 84 dc 07 00 00    	je     5646 <usb_device_create_match_ids_from_interface+0xa56>
    4e6a:	8b 53 04             	mov    0x4(%ebx),%edx
    4e6d:	89 7e 08             	mov    %edi,0x8(%esi)
    4e70:	c7 46 0c 0a 00 00 00 	movl   $0xa,0xc(%esi)
    4e77:	39 d3                	cmp    %edx,%ebx
    4e79:	75 0c                	jne    4e87 <usb_device_create_match_ids_from_interface+0x297>
    4e7b:	eb 10                	jmp    4e8d <usb_device_create_match_ids_from_interface+0x29d>
    4e7d:	8d 76 00             	lea    0x0(%esi),%esi
    4e80:	8b 52 04             	mov    0x4(%edx),%edx
    4e83:	39 d3                	cmp    %edx,%ebx
    4e85:	74 06                	je     4e8d <usb_device_create_match_ids_from_interface+0x29d>
    4e87:	83 7a 0c 09          	cmpl   $0x9,0xc(%edx)
    4e8b:	77 f3                	ja     4e80 <usb_device_create_match_ids_from_interface+0x290>
    4e8d:	8b 02                	mov    (%edx),%eax
    4e8f:	89 56 04             	mov    %edx,0x4(%esi)
    4e92:	89 06                	mov    %eax,(%esi)
    4e94:	8b 02                	mov    (%edx),%eax
    4e96:	89 32                	mov    %esi,(%edx)
    4e98:	89 70 04             	mov    %esi,0x4(%eax)
    4e9b:	31 c0                	xor    %eax,%eax
    4e9d:	83 c4 5c             	add    $0x5c,%esp
    4ea0:	5b                   	pop    %ebx
    4ea1:	5e                   	pop    %esi
    4ea2:	5f                   	pop    %edi
    4ea3:	5d                   	pop    %ebp
    4ea4:	c3                   	ret    
    4ea5:	8d 76 00             	lea    0x0(%esi),%esi
    4ea8:	0f 84 48 fe ff ff    	je     4cf6 <usb_device_create_match_ids_from_interface+0x106>
    4eae:	8b 55 e4             	mov    -0x1c(%ebp),%edx
    4eb1:	89 45 cc             	mov    %eax,-0x34(%ebp)
    4eb4:	89 14 24             	mov    %edx,(%esp)
    4eb7:	e8 44 9e 01 00       	call   1ed00 <free>
    4ebc:	8b 45 cc             	mov    -0x34(%ebp),%eax
    4ebf:	83 c4 5c             	add    $0x5c,%esp
    4ec2:	5b                   	pop    %ebx
    4ec3:	5e                   	pop    %esi
    4ec4:	5f                   	pop    %edi
    4ec5:	5d                   	pop    %ebp
    4ec6:	c3                   	ret    
    4ec7:	90                   	nop
    4ec8:	8b 52 04             	mov    0x4(%edx),%edx
    4ecb:	39 d3                	cmp    %edx,%ebx
    4ecd:	0f 84 a5 fe ff ff    	je     4d78 <usb_device_create_match_ids_from_interface+0x188>
    4ed3:	81 7a 0c 95 00 00 00 	cmpl   $0x95,0xc(%edx)
    4eda:	77 ec                	ja     4ec8 <usb_device_create_match_ids_from_interface+0x2d8>
    4edc:	e9 97 fe ff ff       	jmp    4d78 <usb_device_create_match_ids_from_interface+0x188>
    4ee1:	8d b4 26 00 00 00 00 	lea    0x0(%esi,%eiz,1),%esi
    4ee8:	0f 84 28 ff ff ff    	je     4e16 <usb_device_create_match_ids_from_interface+0x226>
    4eee:	eb be                	jmp    4eae <usb_device_create_match_ids_from_interface+0x2be>
    4ef0:	0f 84 90 fe ff ff    	je     4d86 <usb_device_create_match_ids_from_interface+0x196>
    4ef6:	eb b6                	jmp    4eae <usb_device_create_match_ids_from_interface+0x2be>
    4ef8:	8b 4d 0c             	mov    0xc(%ebp),%ecx
    4efb:	31 d2                	xor    %edx,%edx
    4efd:	25 ff ff 00 00       	and    $0xffff,%eax
    4f02:	c7 45 e4 00 00 00 00 	movl   $0x0,-0x1c(%ebp)
    4f09:	8a 51 07             	mov    0x7(%ecx),%dl
    4f0c:	89 54 24 20          	mov    %edx,0x20(%esp)
    4f10:	31 d2                	xor    %edx,%edx
    4f12:	8a 51 06             	mov    0x6(%ecx),%dl
    4f15:	89 7c 24 18          	mov    %edi,0x18(%esp)
    4f19:	89 54 24 1c          	mov    %edx,0x1c(%esp)
    4f1d:	31 d2                	xor    %edx,%edx
    4f1f:	8a 56 0c             	mov    0xc(%esi),%dl
    4f22:	89 54 24 14          	mov    %edx,0x14(%esp)
    4f26:	66 8b 4e 0c          	mov    0xc(%esi),%cx
    4f2a:	0f b6 d5             	movzbl %ch,%edx
    4f2d:	89 54 24 10          	mov    %edx,0x10(%esp)
    4f31:	66 8b 56 0a          	mov    0xa(%esi),%dx
    4f35:	89 44 24 08          	mov    %eax,0x8(%esp)
    4f39:	81 e2 ff ff 00 00    	and    $0xffff,%edx
    4f3f:	c7 44 24 04 04 ec 02 	movl   $0x2ec04,0x4(%esp)
    4f46:	00 
    4f47:	89 54 24 0c          	mov    %edx,0xc(%esp)
    4f4b:	8b 55 d0             	mov    -0x30(%ebp),%edx
    4f4e:	89 14 24             	mov    %edx,(%esp)
    4f51:	e8 0a 24 01 00       	call   17360 <asprintf>
    4f56:	83 f8 00             	cmp    $0x0,%eax
    4f59:	0f 8e 09 02 00 00    	jle    5168 <usb_device_create_match_ids_from_interface+0x578>
    4f5f:	8b 55 e4             	mov    -0x1c(%ebp),%edx
    4f62:	c7 04 24 10 00 00 00 	movl   $0x10,(%esp)
    4f69:	89 55 cc             	mov    %edx,-0x34(%ebp)
    4f6c:	e8 7f 9c 01 00       	call   1ebf0 <malloc>
    4f71:	c7 44 24 08 10 00 00 	movl   $0x10,0x8(%esp)
    4f78:	00 
    4f79:	c7 44 24 04 00 00 00 	movl   $0x0,0x4(%esp)
    4f80:	00 
    4f81:	89 04 24             	mov    %eax,(%esp)
    4f84:	89 45 c8             	mov    %eax,-0x38(%ebp)
    4f87:	e8 84 c6 00 00       	call   11610 <memset>
    4f8c:	8b 4d c8             	mov    -0x38(%ebp),%ecx
    4f8f:	85 c9                	test   %ecx,%ecx
    4f91:	8b 55 cc             	mov    -0x34(%ebp),%edx
    4f94:	0f 84 ac 06 00 00    	je     5646 <usb_device_create_match_ids_from_interface+0xa56>
    4f9a:	89 51 08             	mov    %edx,0x8(%ecx)
    4f9d:	8b 53 04             	mov    0x4(%ebx),%edx
    4fa0:	c7 41 0c fa 00 00 00 	movl   $0xfa,0xc(%ecx)
    4fa7:	39 da                	cmp    %ebx,%edx
    4fa9:	75 0c                	jne    4fb7 <usb_device_create_match_ids_from_interface+0x3c7>
    4fab:	eb 13                	jmp    4fc0 <usb_device_create_match_ids_from_interface+0x3d0>
    4fad:	8d 76 00             	lea    0x0(%esi),%esi
    4fb0:	8b 52 04             	mov    0x4(%edx),%edx
    4fb3:	39 da                	cmp    %ebx,%edx
    4fb5:	74 09                	je     4fc0 <usb_device_create_match_ids_from_interface+0x3d0>
    4fb7:	81 7a 0c f9 00 00 00 	cmpl   $0xf9,0xc(%edx)
    4fbe:	77 f0                	ja     4fb0 <usb_device_create_match_ids_from_interface+0x3c0>
    4fc0:	8b 02                	mov    (%edx),%eax
    4fc2:	89 51 04             	mov    %edx,0x4(%ecx)
    4fc5:	89 01                	mov    %eax,(%ecx)
    4fc7:	8b 02                	mov    (%edx),%eax
    4fc9:	89 0a                	mov    %ecx,(%edx)
    4fcb:	89 48 04             	mov    %ecx,0x4(%eax)
    4fce:	8b 4d 0c             	mov    0xc(%ebp),%ecx
    4fd1:	31 c0                	xor    %eax,%eax
    4fd3:	c7 45 e4 00 00 00 00 	movl   $0x0,-0x1c(%ebp)
    4fda:	8a 41 06             	mov    0x6(%ecx),%al
    4fdd:	89 7c 24 18          	mov    %edi,0x18(%esp)
    4fe1:	89 44 24 1c          	mov    %eax,0x1c(%esp)
    4fe5:	31 c0                	xor    %eax,%eax
    4fe7:	8a 46 0c             	mov    0xc(%esi),%al
    4fea:	8b 4d d0             	mov    -0x30(%ebp),%ecx
    4fed:	89 44 24 14          	mov    %eax,0x14(%esp)
    4ff1:	66 8b 56 0c          	mov    0xc(%esi),%dx
    4ff5:	0f b6 c6             	movzbl %dh,%eax
    4ff8:	89 44 24 10          	mov    %eax,0x10(%esp)
    4ffc:	66 8b 46 0a          	mov    0xa(%esi),%ax
    5000:	25 ff ff 00 00       	and    $0xffff,%eax
    5005:	89 44 24 0c          	mov    %eax,0xc(%esp)
    5009:	66 8b 46 08          	mov    0x8(%esi),%ax
    500d:	c7 44 24 04 68 ec 02 	movl   $0x2ec68,0x4(%esp)
    5014:	00 
    5015:	25 ff ff 00 00       	and    $0xffff,%eax
    501a:	89 0c 24             	mov    %ecx,(%esp)
    501d:	89 44 24 08          	mov    %eax,0x8(%esp)
    5021:	e8 3a 23 01 00       	call   17360 <asprintf>
    5026:	83 f8 00             	cmp    $0x0,%eax
    5029:	0f 8e b9 05 00 00    	jle    55e8 <usb_device_create_match_ids_from_interface+0x9f8>
    502f:	8b 55 e4             	mov    -0x1c(%ebp),%edx
    5032:	c7 04 24 10 00 00 00 	movl   $0x10,(%esp)
    5039:	89 55 cc             	mov    %edx,-0x34(%ebp)
    503c:	e8 af 9b 01 00       	call   1ebf0 <malloc>
    5041:	c7 44 24 08 10 00 00 	movl   $0x10,0x8(%esp)
    5048:	00 
    5049:	c7 44 24 04 00 00 00 	movl   $0x0,0x4(%esp)
    5050:	00 
    5051:	89 04 24             	mov    %eax,(%esp)
    5054:	89 45 c8             	mov    %eax,-0x38(%ebp)
    5057:	e8 b4 c5 00 00       	call   11610 <memset>
    505c:	8b 4d c8             	mov    -0x38(%ebp),%ecx
    505f:	85 c9                	test   %ecx,%ecx
    5061:	8b 55 cc             	mov    -0x34(%ebp),%edx
    5064:	0f 84 dc 05 00 00    	je     5646 <usb_device_create_match_ids_from_interface+0xa56>
    506a:	89 51 08             	mov    %edx,0x8(%ecx)
    506d:	8b 53 04             	mov    0x4(%ebx),%edx
    5070:	c7 41 0c f0 00 00 00 	movl   $0xf0,0xc(%ecx)
    5077:	39 d3                	cmp    %edx,%ebx
    5079:	75 0c                	jne    5087 <usb_device_create_match_ids_from_interface+0x497>
    507b:	eb 13                	jmp    5090 <usb_device_create_match_ids_from_interface+0x4a0>
    507d:	8d 76 00             	lea    0x0(%esi),%esi
    5080:	8b 52 04             	mov    0x4(%edx),%edx
    5083:	39 d3                	cmp    %edx,%ebx
    5085:	74 09                	je     5090 <usb_device_create_match_ids_from_interface+0x4a0>
    5087:	81 7a 0c ef 00 00 00 	cmpl   $0xef,0xc(%edx)
    508e:	77 f0                	ja     5080 <usb_device_create_match_ids_from_interface+0x490>
    5090:	8b 02                	mov    (%edx),%eax
    5092:	89 51 04             	mov    %edx,0x4(%ecx)
    5095:	89 01                	mov    %eax,(%ecx)
    5097:	8b 02                	mov    (%edx),%eax
    5099:	89 0a                	mov    %ecx,(%edx)
    509b:	89 48 04             	mov    %ecx,0x4(%eax)
    509e:	89 7c 24 18          	mov    %edi,0x18(%esp)
    50a2:	31 c0                	xor    %eax,%eax
    50a4:	8a 46 0c             	mov    0xc(%esi),%al
    50a7:	8b 4d d0             	mov    -0x30(%ebp),%ecx
    50aa:	89 44 24 14          	mov    %eax,0x14(%esp)
    50ae:	c7 45 e4 00 00 00 00 	movl   $0x0,-0x1c(%ebp)
    50b5:	66 8b 56 0c          	mov    0xc(%esi),%dx
    50b9:	0f b6 c6             	movzbl %dh,%eax
    50bc:	89 44 24 10          	mov    %eax,0x10(%esp)
    50c0:	66 8b 46 0a          	mov    0xa(%esi),%ax
    50c4:	25 ff ff 00 00       	and    $0xffff,%eax
    50c9:	89 44 24 0c          	mov    %eax,0xc(%esp)
    50cd:	66 8b 46 08          	mov    0x8(%esi),%ax
    50d1:	c7 44 24 04 bc ec 02 	movl   $0x2ecbc,0x4(%esp)
    50d8:	00 
    50d9:	25 ff ff 00 00       	and    $0xffff,%eax
    50de:	89 0c 24             	mov    %ecx,(%esp)
    50e1:	89 44 24 08          	mov    %eax,0x8(%esp)
    50e5:	e8 76 22 01 00       	call   17360 <asprintf>
    50ea:	83 f8 00             	cmp    $0x0,%eax
    50ed:	0f 8e 85 00 00 00    	jle    5178 <usb_device_create_match_ids_from_interface+0x588>
    50f3:	8b 55 e4             	mov    -0x1c(%ebp),%edx
    50f6:	c7 04 24 10 00 00 00 	movl   $0x10,(%esp)
    50fd:	89 55 cc             	mov    %edx,-0x34(%ebp)
    5100:	e8 eb 9a 01 00       	call   1ebf0 <malloc>
    5105:	c7 44 24 08 10 00 00 	movl   $0x10,0x8(%esp)
    510c:	00 
    510d:	c7 44 24 04 00 00 00 	movl   $0x0,0x4(%esp)
    5114:	00 
    5115:	89 04 24             	mov    %eax,(%esp)
    5118:	89 45 c8             	mov    %eax,-0x38(%ebp)
    511b:	e8 f0 c4 00 00       	call   11610 <memset>
    5120:	8b 4d c8             	mov    -0x38(%ebp),%ecx
    5123:	85 c9                	test   %ecx,%ecx
    5125:	8b 55 cc             	mov    -0x34(%ebp),%edx
    5128:	0f 84 18 05 00 00    	je     5646 <usb_device_create_match_ids_from_interface+0xa56>
    512e:	89 51 08             	mov    %edx,0x8(%ecx)
    5131:	8b 53 04             	mov    0x4(%ebx),%edx
    5134:	c7 41 0c e6 00 00 00 	movl   $0xe6,0xc(%ecx)
    513b:	39 da                	cmp    %ebx,%edx
    513d:	75 10                	jne    514f <usb_device_create_match_ids_from_interface+0x55f>
    513f:	eb 17                	jmp    5158 <usb_device_create_match_ids_from_interface+0x568>
    5141:	8d b4 26 00 00 00 00 	lea    0x0(%esi,%eiz,1),%esi
    5148:	8b 52 04             	mov    0x4(%edx),%edx
    514b:	39 da                	cmp    %ebx,%edx
    514d:	74 09                	je     5158 <usb_device_create_match_ids_from_interface+0x568>
    514f:	81 7a 0c e5 00 00 00 	cmpl   $0xe5,0xc(%edx)
    5156:	77 f0                	ja     5148 <usb_device_create_match_ids_from_interface+0x558>
    5158:	8b 02                	mov    (%edx),%eax
    515a:	89 51 04             	mov    %edx,0x4(%ecx)
    515d:	89 01                	mov    %eax,(%ecx)
    515f:	8b 02                	mov    (%edx),%eax
    5161:	89 0a                	mov    %ecx,(%edx)
    5163:	89 48 04             	mov    %ecx,0x4(%eax)
    5166:	eb 16                	jmp    517e <usb_device_create_match_ids_from_interface+0x58e>
    5168:	0f 84 60 fe ff ff    	je     4fce <usb_device_create_match_ids_from_interface+0x3de>
    516e:	e9 3b fd ff ff       	jmp    4eae <usb_device_create_match_ids_from_interface+0x2be>
    5173:	90                   	nop
    5174:	8d 74 26 00          	lea    0x0(%esi,%eiz,1),%esi
    5178:	0f 85 30 fd ff ff    	jne    4eae <usb_device_create_match_ids_from_interface+0x2be>
    517e:	8b 55 0c             	mov    0xc(%ebp),%edx
    5181:	31 c0                	xor    %eax,%eax
    5183:	8b 4d d0             	mov    -0x30(%ebp),%ecx
    5186:	c7 45 e4 00 00 00 00 	movl   $0x0,-0x1c(%ebp)
    518d:	8a 42 07             	mov    0x7(%edx),%al
    5190:	89 44 24 18          	mov    %eax,0x18(%esp)
    5194:	31 c0                	xor    %eax,%eax
    5196:	8a 42 06             	mov    0x6(%edx),%al
    5199:	89 7c 24 10          	mov    %edi,0x10(%esp)
    519d:	89 44 24 14          	mov    %eax,0x14(%esp)
    51a1:	66 8b 46 0a          	mov    0xa(%esi),%ax
    51a5:	25 ff ff 00 00       	and    $0xffff,%eax
    51aa:	89 44 24 0c          	mov    %eax,0xc(%esp)
    51ae:	66 8b 46 08          	mov    0x8(%esi),%ax
    51b2:	c7 44 24 04 00 ed 02 	movl   $0x2ed00,0x4(%esp)
    51b9:	00 
