
usbmid:     file format elf32-i386


Disassembly of section .init:

00001094 <__entry>:
    1094:	66 8c d0             	mov    %ss,%ax
    1097:	8e d8                	mov    %eax,%ds
    1099:	8e c0                	mov    %eax,%es
    109b:	8e e0                	mov    %eax,%fs
    109d:	b8 01 00 00 00       	mov    $0x1,%eax
    10a2:	0f a2                	cpuid  
    10a4:	0f ba e2 0b          	bt     $0xb,%edx
    10a8:	73 0c                	jae    10b6 <__entry+0x22>
    10aa:	8d 05 f0 05 03 00    	lea    0x305f0,%eax
    10b0:	c7 00 e7 7e 02 00    	movl   $0x27ee7,(%eax)
    10b6:	6a 00                	push   $0x0
    10b8:	89 e5                	mov    %esp,%ebp
    10ba:	57                   	push   %edi
    10bb:	e8 a0 ca 00 00       	call   db60 <__main>

Disassembly of section .text:

000010c0 <dump_tree_internal>:
    10c0:	55                   	push   %ebp
    10c1:	89 e5                	mov    %esp,%ebp
    10c3:	57                   	push   %edi
    10c4:	56                   	push   %esi
    10c5:	53                   	push   %ebx
    10c6:	83 ec 5c             	sub    $0x5c,%esp
    10c9:	89 4d c8             	mov    %ecx,-0x38(%ebp)
    10cc:	85 c9                	test   %ecx,%ecx
    10ce:	0f 84 fe 02 00 00    	je     13d2 <dump_tree_internal+0x312>
    10d4:	89 c7                	mov    %eax,%edi
    10d6:	89 d6                	mov    %edx,%esi
    10d8:	89 c8                	mov    %ecx,%eax
    10da:	80 79 01 04          	cmpb   $0x4,0x1(%ecx)
    10de:	75 4f                	jne    112f <dump_tree_internal+0x6f>
    10e0:	31 db                	xor    %ebx,%ebx
    10e2:	31 c9                	xor    %ecx,%ecx
    10e4:	8a 58 05             	mov    0x5(%eax),%bl
    10e7:	31 d2                	xor    %edx,%edx
    10e9:	8a 48 07             	mov    0x7(%eax),%cl
    10ec:	8a 50 06             	mov    0x6(%eax),%dl
    10ef:	89 1c 24             	mov    %ebx,(%esp)
    10f2:	89 55 c0             	mov    %edx,-0x40(%ebp)
    10f5:	89 4d c4             	mov    %ecx,-0x3c(%ebp)
    10f8:	e8 c3 57 00 00       	call   68c0 <usb_str_class>
    10fd:	8b 4d c4             	mov    -0x3c(%ebp),%ecx
    1100:	8b 55 c0             	mov    -0x40(%ebp),%edx
    1103:	89 4c 24 18          	mov    %ecx,0x18(%esp)
    1107:	89 54 24 14          	mov    %edx,0x14(%esp)
    110b:	89 5c 24 10          	mov    %ebx,0x10(%esp)
    110f:	89 44 24 0c          	mov    %eax,0xc(%esp)
    1113:	c7 44 24 08 b4 c4 02 	movl   $0x2c4b4,0x8(%esp)
    111a:	00 
    111b:	c7 44 24 04 03 00 00 	movl   $0x3,0x4(%esp)
    1122:	00 
    1123:	c7 04 24 ff ff ff ff 	movl   $0xffffffff,(%esp)
    112a:	e8 61 72 01 00       	call   18390 <log_msg>
    112f:	8b 45 c8             	mov    -0x38(%ebp),%eax
    1132:	89 74 24 04          	mov    %esi,0x4(%esp)
    1136:	89 44 24 08          	mov    %eax,0x8(%esp)
    113a:	89 3c 24             	mov    %edi,(%esp)
    113d:	e8 9e 1a 00 00       	call   2be0 <usb_dp_get_nested_descriptor>
    1142:	89 45 d4             	mov    %eax,-0x2c(%ebp)
    1145:	85 c0                	test   %eax,%eax
    1147:	0f 84 60 02 00 00    	je     13ad <dump_tree_internal+0x2ed>
    114d:	80 78 01 04          	cmpb   $0x4,0x1(%eax)
    1151:	75 52                	jne    11a5 <dump_tree_internal+0xe5>
    1153:	31 db                	xor    %ebx,%ebx
    1155:	31 c9                	xor    %ecx,%ecx
    1157:	8a 58 05             	mov    0x5(%eax),%bl
    115a:	31 d2                	xor    %edx,%edx
    115c:	8a 48 07             	mov    0x7(%eax),%cl
    115f:	8a 50 06             	mov    0x6(%eax),%dl
    1162:	89 1c 24             	mov    %ebx,(%esp)
    1165:	89 55 c0             	mov    %edx,-0x40(%ebp)
    1168:	89 4d c4             	mov    %ecx,-0x3c(%ebp)
    116b:	e8 50 57 00 00       	call   68c0 <usb_str_class>
    1170:	8b 4d c4             	mov    -0x3c(%ebp),%ecx
    1173:	8b 55 c0             	mov    -0x40(%ebp),%edx
    1176:	89 44 24 0c          	mov    %eax,0xc(%esp)
    117a:	89 4c 24 18          	mov    %ecx,0x18(%esp)
    117e:	89 54 24 14          	mov    %edx,0x14(%esp)
    1182:	89 5c 24 10          	mov    %ebx,0x10(%esp)
    1186:	c7 44 24 08 b4 c4 02 	movl   $0x2c4b4,0x8(%esp)
    118d:	00 
    118e:	c7 44 24 04 03 00 00 	movl   $0x3,0x4(%esp)
    1195:	00 
    1196:	c7 04 24 ff ff ff ff 	movl   $0xffffffff,(%esp)
    119d:	e8 ee 71 01 00       	call   18390 <log_msg>
    11a2:	8b 45 d4             	mov    -0x2c(%ebp),%eax
    11a5:	89 44 24 08          	mov    %eax,0x8(%esp)
    11a9:	89 74 24 04          	mov    %esi,0x4(%esp)
    11ad:	89 3c 24             	mov    %edi,(%esp)
    11b0:	e8 2b 1a 00 00       	call   2be0 <usb_dp_get_nested_descriptor>
    11b5:	89 45 d0             	mov    %eax,-0x30(%ebp)
    11b8:	85 c0                	test   %eax,%eax
    11ba:	0f 84 c8 01 00 00    	je     1388 <dump_tree_internal+0x2c8>
    11c0:	80 78 01 04          	cmpb   $0x4,0x1(%eax)
    11c4:	75 52                	jne    1218 <dump_tree_internal+0x158>
    11c6:	31 db                	xor    %ebx,%ebx
    11c8:	31 c9                	xor    %ecx,%ecx
    11ca:	8a 58 05             	mov    0x5(%eax),%bl
    11cd:	31 d2                	xor    %edx,%edx
    11cf:	8a 48 07             	mov    0x7(%eax),%cl
    11d2:	8a 50 06             	mov    0x6(%eax),%dl
    11d5:	89 1c 24             	mov    %ebx,(%esp)
    11d8:	89 55 c0             	mov    %edx,-0x40(%ebp)
    11db:	89 4d c4             	mov    %ecx,-0x3c(%ebp)
    11de:	e8 dd 56 00 00       	call   68c0 <usb_str_class>
    11e3:	8b 4d c4             	mov    -0x3c(%ebp),%ecx
    11e6:	8b 55 c0             	mov    -0x40(%ebp),%edx
    11e9:	89 44 24 0c          	mov    %eax,0xc(%esp)
    11ed:	89 4c 24 18          	mov    %ecx,0x18(%esp)
    11f1:	89 54 24 14          	mov    %edx,0x14(%esp)
    11f5:	89 5c 24 10          	mov    %ebx,0x10(%esp)
    11f9:	c7 44 24 08 b4 c4 02 	movl   $0x2c4b4,0x8(%esp)
    1200:	00 
    1201:	c7 44 24 04 03 00 00 	movl   $0x3,0x4(%esp)
    1208:	00 
    1209:	c7 04 24 ff ff ff ff 	movl   $0xffffffff,(%esp)
    1210:	e8 7b 71 01 00       	call   18390 <log_msg>
    1215:	8b 45 d0             	mov    -0x30(%ebp),%eax
    1218:	89 44 24 08          	mov    %eax,0x8(%esp)
    121c:	89 74 24 04          	mov    %esi,0x4(%esp)
    1220:	89 3c 24             	mov    %edi,(%esp)
    1223:	e8 b8 19 00 00       	call   2be0 <usb_dp_get_nested_descriptor>
    1228:	89 45 cc             	mov    %eax,-0x34(%ebp)
    122b:	85 c0                	test   %eax,%eax
    122d:	0f 84 30 01 00 00    	je     1363 <dump_tree_internal+0x2a3>
    1233:	80 78 01 04          	cmpb   $0x4,0x1(%eax)
    1237:	0f 84 a8 02 00 00    	je     14e5 <dump_tree_internal+0x425>
    123d:	89 44 24 08          	mov    %eax,0x8(%esp)
    1241:	89 74 24 04          	mov    %esi,0x4(%esp)
    1245:	89 3c 24             	mov    %edi,(%esp)
    1248:	e8 93 19 00 00       	call   2be0 <usb_dp_get_nested_descriptor>
    124d:	89 45 d8             	mov    %eax,-0x28(%ebp)
    1250:	85 c0                	test   %eax,%eax
    1252:	75 25                	jne    1279 <dump_tree_internal+0x1b9>
    1254:	8b 45 d8             	mov    -0x28(%ebp),%eax
    1257:	89 74 24 04          	mov    %esi,0x4(%esp)
    125b:	89 44 24 0c          	mov    %eax,0xc(%esp)
    125f:	8b 45 cc             	mov    -0x34(%ebp),%eax
    1262:	89 44 24 08          	mov    %eax,0x8(%esp)
    1266:	89 3c 24             	mov    %edi,(%esp)
    1269:	e8 92 1b 00 00       	call   2e00 <usb_dp_get_sibling_descriptor>
    126e:	89 45 d8             	mov    %eax,-0x28(%ebp)
    1271:	85 c0                	test   %eax,%eax
    1273:	0f 84 ea 00 00 00    	je     1363 <dump_tree_internal+0x2a3>
    1279:	80 78 01 04          	cmpb   $0x4,0x1(%eax)
    127d:	0f 84 0b 02 00 00    	je     148e <dump_tree_internal+0x3ce>
    1283:	89 44 24 08          	mov    %eax,0x8(%esp)
    1287:	89 74 24 04          	mov    %esi,0x4(%esp)
    128b:	89 3c 24             	mov    %edi,(%esp)
    128e:	e8 4d 19 00 00       	call   2be0 <usb_dp_get_nested_descriptor>
    1293:	89 45 dc             	mov    %eax,-0x24(%ebp)
    1296:	85 c0                	test   %eax,%eax
    1298:	75 27                	jne    12c1 <dump_tree_internal+0x201>
    129a:	8d b6 00 00 00 00    	lea    0x0(%esi),%esi
    12a0:	8b 45 dc             	mov    -0x24(%ebp),%eax
    12a3:	89 74 24 04          	mov    %esi,0x4(%esp)
    12a7:	89 44 24 0c          	mov    %eax,0xc(%esp)
    12ab:	8b 45 d8             	mov    -0x28(%ebp),%eax
    12ae:	89 44 24 08          	mov    %eax,0x8(%esp)
    12b2:	89 3c 24             	mov    %edi,(%esp)
    12b5:	e8 46 1b 00 00       	call   2e00 <usb_dp_get_sibling_descriptor>
    12ba:	89 45 dc             	mov    %eax,-0x24(%ebp)
    12bd:	85 c0                	test   %eax,%eax
    12bf:	74 93                	je     1254 <dump_tree_internal+0x194>
    12c1:	80 78 01 04          	cmpb   $0x4,0x1(%eax)
    12c5:	0f 84 6c 01 00 00    	je     1437 <dump_tree_internal+0x377>
    12cb:	89 44 24 08          	mov    %eax,0x8(%esp)
    12cf:	89 74 24 04          	mov    %esi,0x4(%esp)
    12d3:	89 3c 24             	mov    %edi,(%esp)
    12d6:	e8 05 19 00 00       	call   2be0 <usb_dp_get_nested_descriptor>
    12db:	89 45 e4             	mov    %eax,-0x1c(%ebp)
    12de:	85 c0                	test   %eax,%eax
    12e0:	75 24                	jne    1306 <dump_tree_internal+0x246>
    12e2:	8d b6 00 00 00 00    	lea    0x0(%esi),%esi
    12e8:	89 44 24 0c          	mov    %eax,0xc(%esp)
    12ec:	8b 45 dc             	mov    -0x24(%ebp),%eax
    12ef:	89 44 24 08          	mov    %eax,0x8(%esp)
    12f3:	89 74 24 04          	mov    %esi,0x4(%esp)
    12f7:	89 3c 24             	mov    %edi,(%esp)
    12fa:	e8 01 1b 00 00       	call   2e00 <usb_dp_get_sibling_descriptor>
    12ff:	89 45 e4             	mov    %eax,-0x1c(%ebp)
    1302:	85 c0                	test   %eax,%eax
    1304:	74 9a                	je     12a0 <dump_tree_internal+0x1e0>
    1306:	80 78 01 04          	cmpb   $0x4,0x1(%eax)
    130a:	0f 84 d0 00 00 00    	je     13e0 <dump_tree_internal+0x320>
    1310:	89 44 24 08          	mov    %eax,0x8(%esp)
    1314:	89 74 24 04          	mov    %esi,0x4(%esp)
    1318:	89 3c 24             	mov    %edi,(%esp)
    131b:	e8 c0 18 00 00       	call   2be0 <usb_dp_get_nested_descriptor>
    1320:	89 c3                	mov    %eax,%ebx
    1322:	8b 45 08             	mov    0x8(%ebp),%eax
    1325:	83 c0 07             	add    $0x7,%eax
    1328:	89 45 e0             	mov    %eax,-0x20(%ebp)
    132b:	90                   	nop
    132c:	8d 74 26 00          	lea    0x0(%esi,%eiz,1),%esi
    1330:	8b 45 e0             	mov    -0x20(%ebp),%eax
    1333:	89 d9                	mov    %ebx,%ecx
    1335:	89 04 24             	mov    %eax,(%esp)
    1338:	89 f2                	mov    %esi,%edx
    133a:	89 f8                	mov    %edi,%eax
    133c:	e8 7f fd ff ff       	call   10c0 <dump_tree_internal>
    1341:	8b 45 e4             	mov    -0x1c(%ebp),%eax
    1344:	89 5c 24 0c          	mov    %ebx,0xc(%esp)
    1348:	89 44 24 08          	mov    %eax,0x8(%esp)
    134c:	89 74 24 04          	mov    %esi,0x4(%esp)
    1350:	89 3c 24             	mov    %edi,(%esp)
    1353:	e8 a8 1a 00 00       	call   2e00 <usb_dp_get_sibling_descriptor>
    1358:	89 c3                	mov    %eax,%ebx
    135a:	85 c0                	test   %eax,%eax
    135c:	75 d2                	jne    1330 <dump_tree_internal+0x270>
    135e:	8b 45 e4             	mov    -0x1c(%ebp),%eax
    1361:	eb 85                	jmp    12e8 <dump_tree_internal+0x228>
    1363:	8b 45 cc             	mov    -0x34(%ebp),%eax
    1366:	89 74 24 04          	mov    %esi,0x4(%esp)
    136a:	89 44 24 0c          	mov    %eax,0xc(%esp)
    136e:	8b 45 d0             	mov    -0x30(%ebp),%eax
    1371:	89 44 24 08          	mov    %eax,0x8(%esp)
    1375:	89 3c 24             	mov    %edi,(%esp)
    1378:	e8 83 1a 00 00       	call   2e00 <usb_dp_get_sibling_descriptor>
    137d:	89 45 cc             	mov    %eax,-0x34(%ebp)
    1380:	85 c0                	test   %eax,%eax
    1382:	0f 85 ab fe ff ff    	jne    1233 <dump_tree_internal+0x173>
    1388:	8b 45 d0             	mov    -0x30(%ebp),%eax
    138b:	89 74 24 04          	mov    %esi,0x4(%esp)
    138f:	89 44 24 0c          	mov    %eax,0xc(%esp)
    1393:	8b 45 d4             	mov    -0x2c(%ebp),%eax
    1396:	89 44 24 08          	mov    %eax,0x8(%esp)
    139a:	89 3c 24             	mov    %edi,(%esp)
    139d:	e8 5e 1a 00 00       	call   2e00 <usb_dp_get_sibling_descriptor>
    13a2:	89 45 d0             	mov    %eax,-0x30(%ebp)
    13a5:	85 c0                	test   %eax,%eax
    13a7:	0f 85 13 fe ff ff    	jne    11c0 <dump_tree_internal+0x100>
    13ad:	8b 45 d4             	mov    -0x2c(%ebp),%eax
    13b0:	89 74 24 04          	mov    %esi,0x4(%esp)
    13b4:	89 44 24 0c          	mov    %eax,0xc(%esp)
    13b8:	8b 45 c8             	mov    -0x38(%ebp),%eax
    13bb:	89 44 24 08          	mov    %eax,0x8(%esp)
    13bf:	89 3c 24             	mov    %edi,(%esp)
    13c2:	e8 39 1a 00 00       	call   2e00 <usb_dp_get_sibling_descriptor>
    13c7:	89 45 d4             	mov    %eax,-0x2c(%ebp)
    13ca:	85 c0                	test   %eax,%eax
    13cc:	0f 85 7b fd ff ff    	jne    114d <dump_tree_internal+0x8d>
    13d2:	83 c4 5c             	add    $0x5c,%esp
    13d5:	5b                   	pop    %ebx
    13d6:	5e                   	pop    %esi
    13d7:	5f                   	pop    %edi
    13d8:	5d                   	pop    %ebp
    13d9:	c3                   	ret    
    13da:	8d b6 00 00 00 00    	lea    0x0(%esi),%esi
    13e0:	31 db                	xor    %ebx,%ebx
    13e2:	31 d2                	xor    %edx,%edx
    13e4:	8a 58 05             	mov    0x5(%eax),%bl
    13e7:	31 c9                	xor    %ecx,%ecx
    13e9:	8a 50 07             	mov    0x7(%eax),%dl
    13ec:	8a 48 06             	mov    0x6(%eax),%cl
    13ef:	89 1c 24             	mov    %ebx,(%esp)
    13f2:	89 55 c0             	mov    %edx,-0x40(%ebp)
    13f5:	89 4d c4             	mov    %ecx,-0x3c(%ebp)
    13f8:	e8 c3 54 00 00       	call   68c0 <usb_str_class>
    13fd:	8b 55 c0             	mov    -0x40(%ebp),%edx
    1400:	8b 4d c4             	mov    -0x3c(%ebp),%ecx
    1403:	89 44 24 0c          	mov    %eax,0xc(%esp)
    1407:	89 54 24 18          	mov    %edx,0x18(%esp)
    140b:	89 4c 24 14          	mov    %ecx,0x14(%esp)
    140f:	89 5c 24 10          	mov    %ebx,0x10(%esp)
    1413:	c7 44 24 08 b4 c4 02 	movl   $0x2c4b4,0x8(%esp)
    141a:	00 
    141b:	c7 44 24 04 03 00 00 	movl   $0x3,0x4(%esp)
    1422:	00 
    1423:	c7 04 24 ff ff ff ff 	movl   $0xffffffff,(%esp)
    142a:	e8 61 6f 01 00       	call   18390 <log_msg>
    142f:	8b 45 e4             	mov    -0x1c(%ebp),%eax
    1432:	e9 d9 fe ff ff       	jmp    1310 <dump_tree_internal+0x250>
    1437:	31 db                	xor    %ebx,%ebx
    1439:	31 c9                	xor    %ecx,%ecx
    143b:	8a 58 05             	mov    0x5(%eax),%bl
    143e:	31 d2                	xor    %edx,%edx
    1440:	8a 48 07             	mov    0x7(%eax),%cl
    1443:	8a 50 06             	mov    0x6(%eax),%dl
    1446:	89 1c 24             	mov    %ebx,(%esp)
    1449:	89 55 c0             	mov    %edx,-0x40(%ebp)
    144c:	89 4d c4             	mov    %ecx,-0x3c(%ebp)
    144f:	e8 6c 54 00 00       	call   68c0 <usb_str_class>
    1454:	8b 4d c4             	mov    -0x3c(%ebp),%ecx
    1457:	8b 55 c0             	mov    -0x40(%ebp),%edx
    145a:	89 44 24 0c          	mov    %eax,0xc(%esp)
    145e:	89 4c 24 18          	mov    %ecx,0x18(%esp)
    1462:	89 54 24 14          	mov    %edx,0x14(%esp)
    1466:	89 5c 24 10          	mov    %ebx,0x10(%esp)
    146a:	c7 44 24 08 b4 c4 02 	movl   $0x2c4b4,0x8(%esp)
    1471:	00 
    1472:	c7 44 24 04 03 00 00 	movl   $0x3,0x4(%esp)
    1479:	00 
    147a:	c7 04 24 ff ff ff ff 	movl   $0xffffffff,(%esp)
    1481:	e8 0a 6f 01 00       	call   18390 <log_msg>
    1486:	8b 45 dc             	mov    -0x24(%ebp),%eax
    1489:	e9 3d fe ff ff       	jmp    12cb <dump_tree_internal+0x20b>
    148e:	31 db                	xor    %ebx,%ebx
    1490:	31 c9                	xor    %ecx,%ecx
    1492:	8a 58 05             	mov    0x5(%eax),%bl
    1495:	31 d2                	xor    %edx,%edx
    1497:	8a 48 07             	mov    0x7(%eax),%cl
    149a:	8a 50 06             	mov    0x6(%eax),%dl
    149d:	89 1c 24             	mov    %ebx,(%esp)
    14a0:	89 55 c0             	mov    %edx,-0x40(%ebp)
    14a3:	89 4d c4             	mov    %ecx,-0x3c(%ebp)
    14a6:	e8 15 54 00 00       	call   68c0 <usb_str_class>
    14ab:	8b 4d c4             	mov    -0x3c(%ebp),%ecx
    14ae:	8b 55 c0             	mov    -0x40(%ebp),%edx
    14b1:	89 44 24 0c          	mov    %eax,0xc(%esp)
    14b5:	89 4c 24 18          	mov    %ecx,0x18(%esp)
    14b9:	89 54 24 14          	mov    %edx,0x14(%esp)
    14bd:	89 5c 24 10          	mov    %ebx,0x10(%esp)
    14c1:	c7 44 24 08 b4 c4 02 	movl   $0x2c4b4,0x8(%esp)
    14c8:	00 
    14c9:	c7 44 24 04 03 00 00 	movl   $0x3,0x4(%esp)
    14d0:	00 
    14d1:	c7 04 24 ff ff ff ff 	movl   $0xffffffff,(%esp)
    14d8:	e8 b3 6e 01 00       	call   18390 <log_msg>
    14dd:	8b 45 d8             	mov    -0x28(%ebp),%eax
    14e0:	e9 9e fd ff ff       	jmp    1283 <dump_tree_internal+0x1c3>
    14e5:	31 db                	xor    %ebx,%ebx
    14e7:	31 c9                	xor    %ecx,%ecx
    14e9:	8a 58 05             	mov    0x5(%eax),%bl
    14ec:	31 d2                	xor    %edx,%edx
    14ee:	8a 48 07             	mov    0x7(%eax),%cl
    14f1:	8a 50 06             	mov    0x6(%eax),%dl
    14f4:	89 1c 24             	mov    %ebx,(%esp)
    14f7:	89 55 c0             	mov    %edx,-0x40(%ebp)
    14fa:	89 4d c4             	mov    %ecx,-0x3c(%ebp)
    14fd:	e8 be 53 00 00       	call   68c0 <usb_str_class>
    1502:	8b 4d c4             	mov    -0x3c(%ebp),%ecx
    1505:	8b 55 c0             	mov    -0x40(%ebp),%edx
    1508:	89 44 24 0c          	mov    %eax,0xc(%esp)
    150c:	89 4c 24 18          	mov    %ecx,0x18(%esp)
    1510:	89 54 24 14          	mov    %edx,0x14(%esp)
    1514:	89 5c 24 10          	mov    %ebx,0x10(%esp)
    1518:	c7 44 24 08 b4 c4 02 	movl   $0x2c4b4,0x8(%esp)
    151f:	00 
    1520:	c7 44 24 04 03 00 00 	movl   $0x3,0x4(%esp)
    1527:	00 
    1528:	c7 04 24 ff ff ff ff 	movl   $0xffffffff,(%esp)
    152f:	e8 5c 6e 01 00       	call   18390 <log_msg>
    1534:	8b 45 cc             	mov    -0x34(%ebp),%eax
    1537:	e9 01 fd ff ff       	jmp    123d <dump_tree_internal+0x17d>
    153c:	8d 74 26 00          	lea    0x0(%esi,%eiz,1),%esi

00001540 <usbmid_dump_descriptors>:
    1540:	55                   	push   %ebp
    1541:	89 e5                	mov    %esp,%ebp
    1543:	83 ec 28             	sub    $0x28,%esp
    1546:	8b 45 0c             	mov    0xc(%ebp),%eax
    1549:	8b 4d 08             	mov    0x8(%ebp),%ecx
    154c:	89 45 f0             	mov    %eax,-0x10(%ebp)
    154f:	c7 04 24 00 00 00 00 	movl   $0x0,(%esp)
    1556:	8d 55 ec             	lea    -0x14(%ebp),%edx
    1559:	8d 45 e8             	lea    -0x18(%ebp),%eax
    155c:	89 4d ec             	mov    %ecx,-0x14(%ebp)
    155f:	c7 45 f4 00 00 00 00 	movl   $0x0,-0xc(%ebp)
    1566:	c7 45 e8 a0 ca 02 00 	movl   $0x2caa0,-0x18(%ebp)
    156d:	e8 4e fb ff ff       	call   10c0 <dump_tree_internal>
    1572:	c9                   	leave  
    1573:	c3                   	ret    
    1574:	66 90                	xchg   %ax,%ax
    1576:	66 90                	xchg   %ax,%ax
    1578:	66 90                	xchg   %ax,%ax
    157a:	66 90                	xchg   %ax,%ax
    157c:	66 90                	xchg   %ax,%ax
    157e:	66 90                	xchg   %ax,%ax

00001580 <usbmid_explore_device>:
    1580:	55                   	push   %ebp
    1581:	89 e5                	mov    %esp,%ebp
    1583:	57                   	push   %edi
    1584:	56                   	push   %esi
    1585:	53                   	push   %ebx
    1586:	83 ec 4c             	sub    $0x4c,%esp
    1589:	31 db                	xor    %ebx,%ebx
    158b:	8b 55 08             	mov    0x8(%ebp),%edx
    158e:	8a 5a 58             	mov    0x58(%edx),%bl
    1591:	85 db                	test   %ebx,%ebx
    1593:	0f 85 9f 01 00 00    	jne    1738 <usbmid_explore_device+0x1b8>
    1599:	8b 72 68             	mov    0x68(%edx),%esi
    159c:	31 c0                	xor    %eax,%eax
    159e:	8b 7a 6c             	mov    0x6c(%edx),%edi
    15a1:	8a 46 05             	mov    0x5(%esi),%al
    15a4:	89 44 24 04          	mov    %eax,0x4(%esp)
    15a8:	89 d0                	mov    %edx,%eax
    15aa:	83 c0 24             	add    $0x24,%eax
    15ad:	89 04 24             	mov    %eax,(%esp)
    15b0:	e8 4b 4a 00 00       	call   6000 <usb_request_set_configuration>
    15b5:	85 c0                	test   %eax,%eax
    15b7:	0f 85 43 01 00 00    	jne    1700 <usbmid_explore_device+0x180>
    15bd:	8b 55 08             	mov    0x8(%ebp),%edx
    15c0:	c7 44 24 04 0c 00 00 	movl   $0xc,0x4(%esp)
    15c7:	00 
    15c8:	89 14 24             	mov    %edx,(%esp)
    15cb:	e8 a0 15 00 00       	call   2b70 <usb_device_data_alloc>
    15d0:	89 45 cc             	mov    %eax,-0x34(%ebp)
    15d3:	85 c0                	test   %eax,%eax
    15d5:	0f 84 ca 02 00 00    	je     18a5 <usbmid_explore_device+0x325>
    15db:	8b 55 08             	mov    0x8(%ebp),%edx
    15de:	c7 44 24 08 2b c6 02 	movl   $0x2c62b,0x8(%esp)
    15e5:	00 
    15e6:	c7 44 24 04 02 00 00 	movl   $0x2,0x4(%esp)
    15ed:	00 
    15ee:	8b 42 70             	mov    0x70(%edx),%eax
    15f1:	89 04 24             	mov    %eax,(%esp)
    15f4:	e8 d7 75 00 00       	call   8bd0 <ddf_fun_create>
    15f9:	8b 55 cc             	mov    -0x34(%ebp),%edx
    15fc:	85 c0                	test   %eax,%eax
    15fe:	89 02                	mov    %eax,(%edx)
    1600:	0f 84 c2 02 00 00    	je     18c8 <usbmid_explore_device+0x348>
    1606:	89 04 24             	mov    %eax,(%esp)
    1609:	c7 44 24 04 00 01 03 	movl   $0x30100,0x4(%esp)
    1610:	00 
    1611:	e8 4a 7b 00 00       	call   9160 <ddf_fun_set_ops>
    1616:	8b 55 cc             	mov    -0x34(%ebp),%edx
    1619:	8b 02                	mov    (%edx),%eax
    161b:	89 04 24             	mov    %eax,(%esp)
    161e:	e8 3d 78 00 00       	call   8e60 <ddf_fun_bind>
    1623:	85 c0                	test   %eax,%eax
    1625:	0f 85 6d 01 00 00    	jne    1798 <usbmid_explore_device+0x218>
    162b:	8b 45 cc             	mov    -0x34(%ebp),%eax
    162e:	8b 5d cc             	mov    -0x34(%ebp),%ebx
    1631:	83 c3 04             	add    $0x4,%ebx
    1634:	89 75 dc             	mov    %esi,-0x24(%ebp)
    1637:	89 58 04             	mov    %ebx,0x4(%eax)
    163a:	89 7d e0             	mov    %edi,-0x20(%ebp)
    163d:	8d 7d dc             	lea    -0x24(%ebp),%edi
    1640:	89 58 08             	mov    %ebx,0x8(%eax)
    1643:	89 74 24 08          	mov    %esi,0x8(%esp)
    1647:	89 7c 24 04          	mov    %edi,0x4(%esp)
    164b:	c7 04 24 30 c6 02 00 	movl   $0x2c630,(%esp)
    1652:	c7 45 e4 00 00 00 00 	movl   $0x0,-0x1c(%ebp)
    1659:	e8 82 15 00 00       	call   2be0 <usb_dp_get_nested_descriptor>
    165e:	85 c0                	test   %eax,%eax
    1660:	0f 84 72 01 00 00    	je     17d8 <usbmid_explore_device+0x258>
    1666:	89 75 d0             	mov    %esi,-0x30(%ebp)
    1669:	89 c6                	mov    %eax,%esi
    166b:	eb 28                	jmp    1695 <usbmid_explore_device+0x115>
    166d:	8d 76 00             	lea    0x0(%esi),%esi
    1670:	8b 55 d0             	mov    -0x30(%ebp),%edx
    1673:	89 74 24 0c          	mov    %esi,0xc(%esp)
    1677:	89 54 24 08          	mov    %edx,0x8(%esp)
    167b:	89 7c 24 04          	mov    %edi,0x4(%esp)
    167f:	c7 04 24 30 c6 02 00 	movl   $0x2c630,(%esp)
    1686:	e8 75 17 00 00       	call   2e00 <usb_dp_get_sibling_descriptor>
    168b:	89 c6                	mov    %eax,%esi
    168d:	85 c0                	test   %eax,%eax
    168f:	0f 84 43 01 00 00    	je     17d8 <usbmid_explore_device+0x258>
    1695:	80 7e 01 04          	cmpb   $0x4,0x1(%esi)
    1699:	75 d5                	jne    1670 <usbmid_explore_device+0xf0>
    169b:	31 c9                	xor    %ecx,%ecx
    169d:	8b 43 04             	mov    0x4(%ebx),%eax
    16a0:	8a 4e 02             	mov    0x2(%esi),%cl
    16a3:	39 d8                	cmp    %ebx,%eax
    16a5:	74 0d                	je     16b4 <usbmid_explore_device+0x134>
    16a7:	90                   	nop
    16a8:	3b 48 fc             	cmp    -0x4(%eax),%ecx
    16ab:	74 c3                	je     1670 <usbmid_explore_device+0xf0>
    16ad:	8b 40 04             	mov    0x4(%eax),%eax
    16b0:	39 d8                	cmp    %ebx,%eax
    16b2:	75 f4                	jne    16a8 <usbmid_explore_device+0x128>
    16b4:	c7 04 24 14 00 00 00 	movl   $0x14,(%esp)
    16bb:	e8 70 bd 01 00       	call   1d430 <malloc>
    16c0:	85 c0                	test   %eax,%eax
    16c2:	0f 84 10 01 00 00    	je     17d8 <usbmid_explore_device+0x258>
    16c8:	c7 40 0c 00 00 00 00 	movl   $0x0,0xc(%eax)
    16cf:	c7 40 10 00 00 00 00 	movl   $0x0,0x10(%eax)
    16d6:	c7 00 00 00 00 00    	movl   $0x0,(%eax)
    16dc:	8b 13                	mov    (%ebx),%edx
    16de:	31 c9                	xor    %ecx,%ecx
    16e0:	8a 4e 02             	mov    0x2(%esi),%cl
    16e3:	89 50 0c             	mov    %edx,0xc(%eax)
    16e6:	89 48 08             	mov    %ecx,0x8(%eax)
    16e9:	89 70 04             	mov    %esi,0x4(%eax)
    16ec:	8d 48 0c             	lea    0xc(%eax),%ecx
    16ef:	89 58 10             	mov    %ebx,0x10(%eax)
    16f2:	8b 03                	mov    (%ebx),%eax
    16f4:	89 0b                	mov    %ecx,(%ebx)
    16f6:	89 48 04             	mov    %ecx,0x4(%eax)
    16f9:	e9 72 ff ff ff       	jmp    1670 <usbmid_explore_device+0xf0>
    16fe:	66 90                	xchg   %ax,%ax
    1700:	89 04 24             	mov    %eax,(%esp)
    1703:	e8 b8 1f 01 00       	call   136c0 <str_error>
    1708:	c7 44 24 08 3c c5 02 	movl   $0x2c53c,0x8(%esp)
    170f:	00 
    1710:	89 44 24 0c          	mov    %eax,0xc(%esp)
    1714:	c7 44 24 04 01 00 00 	movl   $0x1,0x4(%esp)
    171b:	00 
    171c:	c7 04 24 ff ff ff ff 	movl   $0xffffffff,(%esp)
    1723:	e8 68 6c 01 00       	call   18390 <log_msg>
    1728:	31 c0                	xor    %eax,%eax
    172a:	83 c4 4c             	add    $0x4c,%esp
    172d:	5b                   	pop    %ebx
    172e:	5e                   	pop    %esi
    172f:	5f                   	pop    %edi
    1730:	5d                   	pop    %ebp
    1731:	c3                   	ret    
    1732:	8d b6 00 00 00 00    	lea    0x0(%esi),%esi
    1738:	89 1c 24             	mov    %ebx,(%esp)
    173b:	e8 80 51 00 00       	call   68c0 <usb_str_class>
    1740:	89 5c 24 0c          	mov    %ebx,0xc(%esp)
    1744:	89 44 24 10          	mov    %eax,0x10(%esp)
    1748:	c7 44 24 14 00 00 00 	movl   $0x0,0x14(%esp)
    174f:	00 
    1750:	c7 44 24 08 e4 c4 02 	movl   $0x2c4e4,0x8(%esp)
    1757:	00 
    1758:	c7 44 24 04 02 00 00 	movl   $0x2,0x4(%esp)
    175f:	00 
    1760:	c7 04 24 ff ff ff ff 	movl   $0xffffffff,(%esp)
    1767:	e8 24 6c 01 00       	call   18390 <log_msg>
    176c:	c7 44 24 08 14 c5 02 	movl   $0x2c514,0x8(%esp)
    1773:	00 
    1774:	c7 44 24 04 01 00 00 	movl   $0x1,0x4(%esp)
    177b:	00 
    177c:	c7 04 24 ff ff ff ff 	movl   $0xffffffff,(%esp)
    1783:	e8 08 6c 01 00       	call   18390 <log_msg>
    1788:	83 c4 4c             	add    $0x4c,%esp
    178b:	31 c0                	xor    %eax,%eax
    178d:	5b                   	pop    %ebx
    178e:	5e                   	pop    %esi
    178f:	5f                   	pop    %edi
    1790:	5d                   	pop    %ebp
    1791:	c3                   	ret    
    1792:	8d b6 00 00 00 00    	lea    0x0(%esi),%esi
    1798:	89 04 24             	mov    %eax,(%esp)
    179b:	e8 20 1f 01 00       	call   136c0 <str_error>
    17a0:	c7 44 24 08 b4 c5 02 	movl   $0x2c5b4,0x8(%esp)
    17a7:	00 
    17a8:	89 44 24 0c          	mov    %eax,0xc(%esp)
    17ac:	c7 44 24 04 01 00 00 	movl   $0x1,0x4(%esp)
    17b3:	00 
    17b4:	c7 04 24 ff ff ff ff 	movl   $0xffffffff,(%esp)
    17bb:	e8 d0 6b 01 00       	call   18390 <log_msg>
    17c0:	8b 55 cc             	mov    -0x34(%ebp),%edx
    17c3:	8b 02                	mov    (%edx),%eax
    17c5:	89 04 24             	mov    %eax,(%esp)
    17c8:	e8 83 75 00 00       	call   8d50 <ddf_fun_destroy>
    17cd:	83 c4 4c             	add    $0x4c,%esp
    17d0:	31 c0                	xor    %eax,%eax
    17d2:	5b                   	pop    %ebx
    17d3:	5e                   	pop    %esi
    17d4:	5f                   	pop    %edi
    17d5:	5d                   	pop    %ebp
    17d6:	c3                   	ret    
    17d7:	90                   	nop
    17d8:	8b 45 cc             	mov    -0x34(%ebp),%eax
    17db:	8b 55 08             	mov    0x8(%ebp),%edx
    17de:	83 c2 54             	add    $0x54,%edx
    17e1:	8b 70 08             	mov    0x8(%eax),%esi
    17e4:	89 55 d0             	mov    %edx,-0x30(%ebp)
    17e7:	39 de                	cmp    %ebx,%esi
    17e9:	0f 84 ac 00 00 00    	je     189b <usbmid_explore_device+0x31b>
    17ef:	89 5d d4             	mov    %ebx,-0x2c(%ebp)
    17f2:	8b 7d 08             	mov    0x8(%ebp),%edi
    17f5:	89 f3                	mov    %esi,%ebx
    17f7:	eb 13                	jmp    180c <usbmid_explore_device+0x28c>
    17f9:	8d b4 26 00 00 00 00 	lea    0x0(%esi,%eiz,1),%esi
    1800:	8b 5b 04             	mov    0x4(%ebx),%ebx
    1803:	3b 5d d4             	cmp    -0x2c(%ebp),%ebx
    1806:	0f 84 8f 00 00 00    	je     189b <usbmid_explore_device+0x31b>
    180c:	8b 43 f8             	mov    -0x8(%ebx),%eax
    180f:	8d 73 f4             	lea    -0xc(%ebx),%esi
    1812:	8a 40 05             	mov    0x5(%eax),%al
    1815:	25 ff 00 00 00       	and    $0xff,%eax
    181a:	89 04 24             	mov    %eax,(%esp)
    181d:	e8 9e 50 00 00       	call   68c0 <usb_str_class>
    1822:	89 44 24 10          	mov    %eax,0x10(%esp)
    1826:	8b 43 fc             	mov    -0x4(%ebx),%eax
    1829:	c7 44 24 08 dc c5 02 	movl   $0x2c5dc,0x8(%esp)
    1830:	00 
    1831:	89 44 24 0c          	mov    %eax,0xc(%esp)
    1835:	c7 44 24 04 03 00 00 	movl   $0x3,0x4(%esp)
    183c:	00 
    183d:	c7 04 24 ff ff ff ff 	movl   $0xffffffff,(%esp)
    1844:	e8 47 6b 01 00       	call   18390 <log_msg>
    1849:	8b 43 f8             	mov    -0x8(%ebx),%eax
    184c:	8b 55 d0             	mov    -0x30(%ebp),%edx
    184f:	89 44 24 0c          	mov    %eax,0xc(%esp)
    1853:	89 54 24 08          	mov    %edx,0x8(%esp)
    1857:	89 74 24 04          	mov    %esi,0x4(%esp)
    185b:	89 3c 24             	mov    %edi,(%esp)
    185e:	e8 cd 05 00 00       	call   1e30 <usbmid_spawn_interface_child>
    1863:	85 c0                	test   %eax,%eax
    1865:	74 99                	je     1800 <usbmid_explore_device+0x280>
    1867:	89 04 24             	mov    %eax,(%esp)
    186a:	e8 51 1e 01 00       	call   136c0 <str_error>
    186f:	c7 44 24 08 04 c6 02 	movl   $0x2c604,0x8(%esp)
    1876:	00 
    1877:	89 44 24 0c          	mov    %eax,0xc(%esp)
    187b:	c7 44 24 04 01 00 00 	movl   $0x1,0x4(%esp)
    1882:	00 
    1883:	c7 04 24 ff ff ff ff 	movl   $0xffffffff,(%esp)
    188a:	e8 01 6b 01 00       	call   18390 <log_msg>
    188f:	8b 5b 04             	mov    0x4(%ebx),%ebx
    1892:	3b 5d d4             	cmp    -0x2c(%ebp),%ebx
    1895:	0f 85 71 ff ff ff    	jne    180c <usbmid_explore_device+0x28c>
    189b:	83 c4 4c             	add    $0x4c,%esp
    189e:	b0 01                	mov    $0x1,%al
    18a0:	5b                   	pop    %ebx
    18a1:	5e                   	pop    %esi
    18a2:	5f                   	pop    %edi
    18a3:	5d                   	pop    %ebp
    18a4:	c3                   	ret    
    18a5:	c7 44 24 08 68 c5 02 	movl   $0x2c568,0x8(%esp)
    18ac:	00 
    18ad:	c7 44 24 04 01 00 00 	movl   $0x1,0x4(%esp)
    18b4:	00 
    18b5:	c7 04 24 ff ff ff ff 	movl   $0xffffffff,(%esp)
    18bc:	e8 cf 6a 01 00       	call   18390 <log_msg>
    18c1:	31 c0                	xor    %eax,%eax
    18c3:	e9 62 fe ff ff       	jmp    172a <usbmid_explore_device+0x1aa>
    18c8:	c7 44 24 08 90 c5 02 	movl   $0x2c590,0x8(%esp)
    18cf:	00 
    18d0:	c7 44 24 04 01 00 00 	movl   $0x1,0x4(%esp)
    18d7:	00 
    18d8:	c7 04 24 ff ff ff ff 	movl   $0xffffffff,(%esp)
    18df:	e8 ac 6a 01 00       	call   18390 <log_msg>
    18e4:	31 c0                	xor    %eax,%eax
    18e6:	e9 3f fe ff ff       	jmp    172a <usbmid_explore_device+0x1aa>
    18eb:	66 90                	xchg   %ax,%ax
    18ed:	66 90                	xchg   %ax,%ax
    18ef:	90                   	nop

000018f0 <usbmid_device_gone>:
    18f0:	55                   	push   %ebp
    18f1:	89 e5                	mov    %esp,%ebp
    18f3:	57                   	push   %edi
    18f4:	56                   	push   %esi
    18f5:	53                   	push   %ebx
    18f6:	83 ec 3c             	sub    $0x3c,%esp
    18f9:	8b 45 08             	mov    0x8(%ebp),%eax
    18fc:	85 c0                	test   %eax,%eax
    18fe:	0f 84 93 01 00 00    	je     1a97 <usbmid_device_gone+0x1a7>
    1904:	8b 70 74             	mov    0x74(%eax),%esi
    1907:	85 f6                	test   %esi,%esi
    1909:	0f 84 6c 01 00 00    	je     1a7b <usbmid_device_gone+0x18b>
    190f:	8b 40 70             	mov    0x70(%eax),%eax
    1912:	89 04 24             	mov    %eax,(%esp)
    1915:	e8 d6 71 00 00       	call   8af0 <ddf_dev_get_name>
    191a:	c7 44 24 08 43 c6 02 	movl   $0x2c643,0x8(%esp)
    1921:	00 
    1922:	89 44 24 0c          	mov    %eax,0xc(%esp)
    1926:	c7 44 24 04 03 00 00 	movl   $0x3,0x4(%esp)
    192d:	00 
    192e:	c7 04 24 ff ff ff ff 	movl   $0xffffffff,(%esp)
    1935:	e8 56 6a 01 00       	call   18390 <log_msg>
    193a:	8b 06                	mov    (%esi),%eax
    193c:	89 04 24             	mov    %eax,(%esp)
    193f:	e8 2c 76 00 00       	call   8f70 <ddf_fun_unbind>
    1944:	89 45 e4             	mov    %eax,-0x1c(%ebp)
    1947:	85 c0                	test   %eax,%eax
    1949:	0f 85 f9 00 00 00    	jne    1a48 <usbmid_device_gone+0x158>
    194f:	8b 06                	mov    (%esi),%eax
    1951:	8d 7e 04             	lea    0x4(%esi),%edi
    1954:	89 04 24             	mov    %eax,(%esp)
    1957:	e8 f4 73 00 00       	call   8d50 <ddf_fun_destroy>
    195c:	8d 74 26 00          	lea    0x0(%esi,%eiz,1),%esi
    1960:	8b 5e 08             	mov    0x8(%esi),%ebx
    1963:	39 fb                	cmp    %edi,%ebx
    1965:	0f 84 cd 00 00 00    	je     1a38 <usbmid_device_gone+0x148>
    196b:	8b 13                	mov    (%ebx),%edx
    196d:	85 d2                	test   %edx,%edx
    196f:	74 0e                	je     197f <usbmid_device_gone+0x8f>
    1971:	8b 43 04             	mov    0x4(%ebx),%eax
    1974:	85 c0                	test   %eax,%eax
    1976:	74 07                	je     197f <usbmid_device_gone+0x8f>
    1978:	89 10                	mov    %edx,(%eax)
    197a:	8b 13                	mov    (%ebx),%edx
    197c:	89 42 04             	mov    %eax,0x4(%edx)
    197f:	8b 43 f8             	mov    -0x8(%ebx),%eax
    1982:	c7 03 00 00 00 00    	movl   $0x0,(%ebx)
    1988:	c7 43 04 00 00 00 00 	movl   $0x0,0x4(%ebx)
    198f:	8a 40 05             	mov    0x5(%eax),%al
    1992:	25 ff 00 00 00       	and    $0xff,%eax
    1997:	89 04 24             	mov    %eax,(%esp)
    199a:	e8 21 4f 00 00       	call   68c0 <usb_str_class>
    199f:	89 44 24 10          	mov    %eax,0x10(%esp)
    19a3:	8b 43 fc             	mov    -0x4(%ebx),%eax
    19a6:	83 eb 0c             	sub    $0xc,%ebx
    19a9:	89 44 24 0c          	mov    %eax,0xc(%esp)
    19ad:	c7 44 24 08 ac c6 02 	movl   $0x2c6ac,0x8(%esp)
    19b4:	00 
    19b5:	c7 44 24 04 03 00 00 	movl   $0x3,0x4(%esp)
    19bc:	00 
    19bd:	c7 04 24 ff ff ff ff 	movl   $0xffffffff,(%esp)
    19c4:	e8 c7 69 01 00       	call   18390 <log_msg>
    19c9:	89 1c 24             	mov    %ebx,(%esp)
    19cc:	e8 df 03 00 00       	call   1db0 <usbmid_interface_destroy>
    19d1:	85 c0                	test   %eax,%eax
    19d3:	74 8b                	je     1960 <usbmid_device_gone+0x70>
    19d5:	89 04 24             	mov    %eax,(%esp)
    19d8:	89 45 e0             	mov    %eax,-0x20(%ebp)
    19db:	e8 e0 1c 01 00       	call   136c0 <str_error>
    19e0:	89 c1                	mov    %eax,%ecx
    19e2:	8b 43 04             	mov    0x4(%ebx),%eax
    19e5:	8a 40 05             	mov    0x5(%eax),%al
    19e8:	89 4d dc             	mov    %ecx,-0x24(%ebp)
    19eb:	25 ff 00 00 00       	and    $0xff,%eax
    19f0:	89 04 24             	mov    %eax,(%esp)
    19f3:	e8 c8 4e 00 00       	call   68c0 <usb_str_class>
    19f8:	8b 4d dc             	mov    -0x24(%ebp),%ecx
    19fb:	89 4c 24 14          	mov    %ecx,0x14(%esp)
    19ff:	89 44 24 10          	mov    %eax,0x10(%esp)
    1a03:	8b 43 08             	mov    0x8(%ebx),%eax
    1a06:	c7 44 24 08 d0 c6 02 	movl   $0x2c6d0,0x8(%esp)
    1a0d:	00 
    1a0e:	89 44 24 0c          	mov    %eax,0xc(%esp)
    1a12:	c7 44 24 04 01 00 00 	movl   $0x1,0x4(%esp)
    1a19:	00 
    1a1a:	c7 04 24 ff ff ff ff 	movl   $0xffffffff,(%esp)
    1a21:	e8 6a 69 01 00       	call   18390 <log_msg>
    1a26:	8b 55 e0             	mov    -0x20(%ebp),%edx
    1a29:	8b 5e 08             	mov    0x8(%esi),%ebx
    1a2c:	89 55 e4             	mov    %edx,-0x1c(%ebp)
    1a2f:	39 fb                	cmp    %edi,%ebx
    1a31:	0f 85 34 ff ff ff    	jne    196b <usbmid_device_gone+0x7b>
    1a37:	90                   	nop
    1a38:	8b 45 e4             	mov    -0x1c(%ebp),%eax
    1a3b:	83 c4 3c             	add    $0x3c,%esp
    1a3e:	5b                   	pop    %ebx
    1a3f:	5e                   	pop    %esi
    1a40:	5f                   	pop    %edi
    1a41:	5d                   	pop    %ebp
    1a42:	c3                   	ret    
    1a43:	90                   	nop
    1a44:	8d 74 26 00          	lea    0x0(%esi,%eiz,1),%esi
    1a48:	89 04 24             	mov    %eax,(%esp)
    1a4b:	e8 70 1c 01 00       	call   136c0 <str_error>
    1a50:	c7 44 24 08 80 c6 02 	movl   $0x2c680,0x8(%esp)
    1a57:	00 
    1a58:	89 44 24 0c          	mov    %eax,0xc(%esp)
    1a5c:	c7 44 24 04 01 00 00 	movl   $0x1,0x4(%esp)
    1a63:	00 
    1a64:	c7 04 24 ff ff ff ff 	movl   $0xffffffff,(%esp)
    1a6b:	e8 20 69 01 00       	call   18390 <log_msg>
    1a70:	8b 45 e4             	mov    -0x1c(%ebp),%eax
    1a73:	83 c4 3c             	add    $0x3c,%esp
    1a76:	5b                   	pop    %ebx
    1a77:	5e                   	pop    %esi
    1a78:	5f                   	pop    %edi
    1a79:	5d                   	pop    %ebp
    1a7a:	c3                   	ret    
    1a7b:	c7 44 24 08 7f 00 00 	movl   $0x7f,0x8(%esp)
    1a82:	00 
    1a83:	c7 44 24 04 34 c6 02 	movl   $0x2c634,0x4(%esp)
    1a8a:	00 
    1a8b:	c7 04 24 3b c6 02 00 	movl   $0x2c63b,(%esp)
    1a92:	e8 f9 61 02 00       	call   27c90 <assert_abort>
    1a97:	c7 44 24 08 7d 00 00 	movl   $0x7d,0x8(%esp)
    1a9e:	00 
    1a9f:	c7 44 24 04 34 c6 02 	movl   $0x2c634,0x4(%esp)
    1aa6:	00 
    1aa7:	c7 04 24 73 c9 02 00 	movl   $0x2c973,(%esp)
    1aae:	e8 dd 61 02 00       	call   27c90 <assert_abort>
    1ab3:	8d b6 00 00 00 00    	lea    0x0(%esi),%esi
    1ab9:	8d bc 27 00 00 00 00 	lea    0x0(%edi,%eiz,1),%edi

00001ac0 <usbmid_device_remove>:
    1ac0:	55                   	push   %ebp
    1ac1:	89 e5                	mov    %esp,%ebp
    1ac3:	57                   	push   %edi
    1ac4:	56                   	push   %esi
    1ac5:	53                   	push   %ebx
    1ac6:	83 ec 3c             	sub    $0x3c,%esp
    1ac9:	8b 45 08             	mov    0x8(%ebp),%eax
    1acc:	85 c0                	test   %eax,%eax
    1ace:	0f 84 e3 01 00 00    	je     1cb7 <usbmid_device_remove+0x1f7>
    1ad4:	8b 70 74             	mov    0x74(%eax),%esi
    1ad7:	85 f6                	test   %esi,%esi
    1ad9:	0f 84 bc 01 00 00    	je     1c9b <usbmid_device_remove+0x1db>
    1adf:	8b 06                	mov    (%esi),%eax
    1ae1:	89 04 24             	mov    %eax,(%esp)
    1ae4:	e8 87 74 00 00       	call   8f70 <ddf_fun_unbind>
    1ae9:	89 45 e0             	mov    %eax,-0x20(%ebp)
    1aec:	85 c0                	test   %eax,%eax
    1aee:	0f 85 74 01 00 00    	jne    1c68 <usbmid_device_remove+0x1a8>
    1af4:	8b 06                	mov    (%esi),%eax
    1af6:	89 04 24             	mov    %eax,(%esp)
    1af9:	e8 52 72 00 00       	call   8d50 <ddf_fun_destroy>
    1afe:	8d 46 04             	lea    0x4(%esi),%eax
    1b01:	89 45 e4             	mov    %eax,-0x1c(%ebp)
    1b04:	eb 12                	jmp    1b18 <usbmid_device_remove+0x58>
    1b06:	66 90                	xchg   %ax,%ax
    1b08:	89 1c 24             	mov    %ebx,(%esp)
    1b0b:	e8 a0 02 00 00       	call   1db0 <usbmid_interface_destroy>
    1b10:	85 c0                	test   %eax,%eax
    1b12:	0f 85 de 00 00 00    	jne    1bf6 <usbmid_device_remove+0x136>
    1b18:	8b 7e 08             	mov    0x8(%esi),%edi
    1b1b:	3b 7d e4             	cmp    -0x1c(%ebp),%edi
    1b1e:	0f 84 34 01 00 00    	je     1c58 <usbmid_device_remove+0x198>
    1b24:	8b 0f                	mov    (%edi),%ecx
    1b26:	85 c9                	test   %ecx,%ecx
    1b28:	74 0e                	je     1b38 <usbmid_device_remove+0x78>
    1b2a:	8b 47 04             	mov    0x4(%edi),%eax
    1b2d:	85 c0                	test   %eax,%eax
    1b2f:	74 07                	je     1b38 <usbmid_device_remove+0x78>
    1b31:	89 08                	mov    %ecx,(%eax)
    1b33:	8b 0f                	mov    (%edi),%ecx
    1b35:	89 41 04             	mov    %eax,0x4(%ecx)
    1b38:	8d 5f f4             	lea    -0xc(%edi),%ebx
    1b3b:	c7 07 00 00 00 00    	movl   $0x0,(%edi)
    1b41:	c7 47 04 00 00 00 00 	movl   $0x0,0x4(%edi)
    1b48:	8b 43 04             	mov    0x4(%ebx),%eax
    1b4b:	8a 40 05             	mov    0x5(%eax),%al
    1b4e:	25 ff 00 00 00       	and    $0xff,%eax
    1b53:	89 04 24             	mov    %eax,(%esp)
    1b56:	e8 65 4d 00 00       	call   68c0 <usb_str_class>
    1b5b:	89 44 24 10          	mov    %eax,0x10(%esp)
    1b5f:	8b 43 08             	mov    0x8(%ebx),%eax
    1b62:	c7 44 24 08 04 c7 02 	movl   $0x2c704,0x8(%esp)
    1b69:	00 
    1b6a:	89 44 24 0c          	mov    %eax,0xc(%esp)
    1b6e:	c7 44 24 04 03 00 00 	movl   $0x3,0x4(%esp)
    1b75:	00 
    1b76:	c7 04 24 ff ff ff ff 	movl   $0xffffffff,(%esp)
    1b7d:	e8 0e 68 01 00       	call   18390 <log_msg>
    1b82:	8b 47 f4             	mov    -0xc(%edi),%eax
    1b85:	89 04 24             	mov    %eax,(%esp)
    1b88:	e8 c3 74 00 00       	call   9050 <ddf_fun_offline>
    1b8d:	85 c0                	test   %eax,%eax
    1b8f:	0f 84 73 ff ff ff    	je     1b08 <usbmid_device_remove+0x48>
    1b95:	89 04 24             	mov    %eax,(%esp)
    1b98:	89 45 dc             	mov    %eax,-0x24(%ebp)
    1b9b:	e8 20 1b 01 00       	call   136c0 <str_error>
    1ba0:	89 c7                	mov    %eax,%edi
    1ba2:	8b 43 04             	mov    0x4(%ebx),%eax
    1ba5:	8a 40 05             	mov    0x5(%eax),%al
    1ba8:	25 ff 00 00 00       	and    $0xff,%eax
    1bad:	89 04 24             	mov    %eax,(%esp)
    1bb0:	e8 0b 4d 00 00       	call   68c0 <usb_str_class>
    1bb5:	89 7c 24 14          	mov    %edi,0x14(%esp)
    1bb9:	89 44 24 10          	mov    %eax,0x10(%esp)
    1bbd:	8b 43 08             	mov    0x8(%ebx),%eax
    1bc0:	c7 44 24 08 2c c7 02 	movl   $0x2c72c,0x8(%esp)
    1bc7:	00 
    1bc8:	89 44 24 0c          	mov    %eax,0xc(%esp)
    1bcc:	c7 44 24 04 02 00 00 	movl   $0x2,0x4(%esp)
    1bd3:	00 
    1bd4:	c7 04 24 ff ff ff ff 	movl   $0xffffffff,(%esp)
    1bdb:	e8 b0 67 01 00       	call   18390 <log_msg>
    1be0:	8b 55 dc             	mov    -0x24(%ebp),%edx
    1be3:	89 1c 24             	mov    %ebx,(%esp)
    1be6:	89 55 e0             	mov    %edx,-0x20(%ebp)
    1be9:	e8 c2 01 00 00       	call   1db0 <usbmid_interface_destroy>
    1bee:	85 c0                	test   %eax,%eax
    1bf0:	0f 84 22 ff ff ff    	je     1b18 <usbmid_device_remove+0x58>
    1bf6:	89 04 24             	mov    %eax,(%esp)
    1bf9:	89 45 dc             	mov    %eax,-0x24(%ebp)
    1bfc:	e8 bf 1a 01 00       	call   136c0 <str_error>
    1c01:	89 c7                	mov    %eax,%edi
    1c03:	8b 43 04             	mov    0x4(%ebx),%eax
    1c06:	8a 40 05             	mov    0x5(%eax),%al
    1c09:	25 ff 00 00 00       	and    $0xff,%eax
    1c0e:	89 04 24             	mov    %eax,(%esp)
    1c11:	e8 aa 4c 00 00       	call   68c0 <usb_str_class>
    1c16:	89 7c 24 14          	mov    %edi,0x14(%esp)
    1c1a:	89 44 24 10          	mov    %eax,0x10(%esp)
    1c1e:	8b 43 08             	mov    0x8(%ebx),%eax
    1c21:	c7 44 24 08 60 c7 02 	movl   $0x2c760,0x8(%esp)
    1c28:	00 
    1c29:	89 44 24 0c          	mov    %eax,0xc(%esp)
    1c2d:	c7 44 24 04 01 00 00 	movl   $0x1,0x4(%esp)
    1c34:	00 
    1c35:	c7 04 24 ff ff ff ff 	movl   $0xffffffff,(%esp)
    1c3c:	e8 4f 67 01 00       	call   18390 <log_msg>
    1c41:	8b 55 dc             	mov    -0x24(%ebp),%edx
    1c44:	8b 7e 08             	mov    0x8(%esi),%edi
    1c47:	89 55 e0             	mov    %edx,-0x20(%ebp)
    1c4a:	3b 7d e4             	cmp    -0x1c(%ebp),%edi
    1c4d:	0f 85 d1 fe ff ff    	jne    1b24 <usbmid_device_remove+0x64>
    1c53:	90                   	nop
    1c54:	8d 74 26 00          	lea    0x0(%esi,%eiz,1),%esi
    1c58:	8b 45 e0             	mov    -0x20(%ebp),%eax
    1c5b:	83 c4 3c             	add    $0x3c,%esp
    1c5e:	5b                   	pop    %ebx
    1c5f:	5e                   	pop    %esi
    1c60:	5f                   	pop    %edi
    1c61:	5d                   	pop    %ebp
    1c62:	c3                   	ret    
    1c63:	90                   	nop
    1c64:	8d 74 26 00          	lea    0x0(%esi,%eiz,1),%esi
    1c68:	89 04 24             	mov    %eax,(%esp)
    1c6b:	e8 50 1a 01 00       	call   136c0 <str_error>
    1c70:	c7 44 24 08 80 c6 02 	movl   $0x2c680,0x8(%esp)
    1c77:	00 
    1c78:	89 44 24 0c          	mov    %eax,0xc(%esp)
    1c7c:	c7 44 24 04 01 00 00 	movl   $0x1,0x4(%esp)
    1c83:	00 
    1c84:	c7 04 24 ff ff ff ff 	movl   $0xffffffff,(%esp)
    1c8b:	e8 00 67 01 00       	call   18390 <log_msg>
    1c90:	8b 45 e0             	mov    -0x20(%ebp),%eax
    1c93:	83 c4 3c             	add    $0x3c,%esp
    1c96:	5b                   	pop    %ebx
    1c97:	5e                   	pop    %esi
    1c98:	5f                   	pop    %edi
    1c99:	5d                   	pop    %ebp
    1c9a:	c3                   	ret    
    1c9b:	c7 44 24 08 49 00 00 	movl   $0x49,0x8(%esp)
    1ca2:	00 
    1ca3:	c7 44 24 04 34 c6 02 	movl   $0x2c634,0x4(%esp)
    1caa:	00 
    1cab:	c7 04 24 3b c6 02 00 	movl   $0x2c63b,(%esp)
    1cb2:	e8 d9 5f 02 00       	call   27c90 <assert_abort>
    1cb7:	c7 44 24 08 47 00 00 	movl   $0x47,0x8(%esp)
    1cbe:	00 
    1cbf:	c7 44 24 04 34 c6 02 	movl   $0x2c634,0x4(%esp)
    1cc6:	00 
    1cc7:	c7 04 24 73 c9 02 00 	movl   $0x2c973,(%esp)
    1cce:	e8 bd 5f 02 00       	call   27c90 <assert_abort>
    1cd3:	8d b6 00 00 00 00    	lea    0x0(%esi),%esi
    1cd9:	8d bc 27 00 00 00 00 	lea    0x0(%edi,%eiz,1),%edi

00001ce0 <usbmid_device_add>:
    1ce0:	55                   	push   %ebp
    1ce1:	89 e5                	mov    %esp,%ebp
    1ce3:	53                   	push   %ebx
    1ce4:	83 ec 14             	sub    $0x14,%esp
    1ce7:	8b 5d 08             	mov    0x8(%ebp),%ebx
    1cea:	8b 43 70             	mov    0x70(%ebx),%eax
    1ced:	89 04 24             	mov    %eax,(%esp)
    1cf0:	e8 fb 6d 00 00       	call   8af0 <ddf_dev_get_name>
    1cf5:	c7 44 24 08 58 c6 02 	movl   $0x2c658,0x8(%esp)
    1cfc:	00 
    1cfd:	89 44 24 0c          	mov    %eax,0xc(%esp)
    1d01:	c7 44 24 04 03 00 00 	movl   $0x3,0x4(%esp)
    1d08:	00 
    1d09:	c7 04 24 ff ff ff ff 	movl   $0xffffffff,(%esp)
    1d10:	e8 7b 66 01 00       	call   18390 <log_msg>
    1d15:	89 1c 24             	mov    %ebx,(%esp)
    1d18:	e8 63 f8 ff ff       	call   1580 <usbmid_explore_device>
    1d1d:	3c 01                	cmp    $0x1,%al
    1d1f:	19 c0                	sbb    %eax,%eax
    1d21:	83 c4 14             	add    $0x14,%esp
    1d24:	83 e0 f5             	and    $0xfffffff5,%eax
    1d27:	5b                   	pop    %ebx
    1d28:	5d                   	pop    %ebp
    1d29:	c3                   	ret    
    1d2a:	66 90                	xchg   %ax,%ax
    1d2c:	66 90                	xchg   %ax,%ax
    1d2e:	66 90                	xchg   %ax,%ax

00001d30 <main>:
    1d30:	55                   	push   %ebp
    1d31:	89 e5                	mov    %esp,%ebp
    1d33:	83 e4 f0             	and    $0xfffffff0,%esp
    1d36:	83 ec 10             	sub    $0x10,%esp
    1d39:	c7 04 24 94 c7 02 00 	movl   $0x2c794,(%esp)
    1d40:	e8 9b 63 01 00       	call   180e0 <printf>
    1d45:	c7 04 24 76 c6 02 00 	movl   $0x2c676,(%esp)
    1d4c:	e8 6f 64 01 00       	call   181c0 <log_init>
    1d51:	c7 04 24 c0 c7 02 00 	movl   $0x2c7c0,(%esp)
    1d58:	e8 a3 02 00 00       	call   2000 <usb_driver_main>
    1d5d:	c9                   	leave  
    1d5e:	c3                   	ret    
    1d5f:	90                   	nop

00001d60 <usb_iface_get_interface_impl>:
    1d60:	55                   	push   %ebp
    1d61:	89 e5                	mov    %esp,%ebp
    1d63:	53                   	push   %ebx
    1d64:	83 ec 14             	sub    $0x14,%esp
    1d67:	8b 45 08             	mov    0x8(%ebp),%eax
    1d6a:	8b 5d 0c             	mov    0xc(%ebp),%ebx
    1d6d:	89 04 24             	mov    %eax,(%esp)
    1d70:	e8 bb 6f 00 00       	call   8d30 <ddf_fun_data_get>
    1d75:	85 c0                	test   %eax,%eax
    1d77:	74 11                	je     1d8a <usb_iface_get_interface_impl+0x2a>
    1d79:	85 db                	test   %ebx,%ebx
    1d7b:	74 05                	je     1d82 <usb_iface_get_interface_impl+0x22>
    1d7d:	8b 40 08             	mov    0x8(%eax),%eax
    1d80:	89 03                	mov    %eax,(%ebx)
    1d82:	83 c4 14             	add    $0x14,%esp
    1d85:	31 c0                	xor    %eax,%eax
    1d87:	5b                   	pop    %ebx
    1d88:	5d                   	pop    %ebp
    1d89:	c3                   	ret    
    1d8a:	c7 44 24 08 36 00 00 	movl   $0x36,0x8(%esp)
    1d91:	00 
    1d92:	c7 44 24 04 d8 c7 02 	movl   $0x2c7d8,0x4(%esp)
    1d99:	00 
    1d9a:	c7 04 24 e5 c7 02 00 	movl   $0x2c7e5,(%esp)
    1da1:	e8 ea 5e 02 00       	call   27c90 <assert_abort>
    1da6:	8d 76 00             	lea    0x0(%esi),%esi
    1da9:	8d bc 27 00 00 00 00 	lea    0x0(%edi,%eiz,1),%edi

00001db0 <usbmid_interface_destroy>:
    1db0:	55                   	push   %ebp
    1db1:	89 e5                	mov    %esp,%ebp
    1db3:	53                   	push   %ebx
    1db4:	83 ec 24             	sub    $0x24,%esp
    1db7:	8b 5d 08             	mov    0x8(%ebp),%ebx
    1dba:	85 db                	test   %ebx,%ebx
    1dbc:	74 4e                	je     1e0c <usbmid_interface_destroy+0x5c>
    1dbe:	8b 53 0c             	mov    0xc(%ebx),%edx
    1dc1:	85 d2                	test   %edx,%edx
    1dc3:	75 2b                	jne    1df0 <usbmid_interface_destroy+0x40>
    1dc5:	8b 43 10             	mov    0x10(%ebx),%eax
    1dc8:	85 c0                	test   %eax,%eax
    1dca:	75 24                	jne    1df0 <usbmid_interface_destroy+0x40>
    1dcc:	8b 03                	mov    (%ebx),%eax
    1dce:	89 04 24             	mov    %eax,(%esp)
    1dd1:	e8 9a 71 00 00       	call   8f70 <ddf_fun_unbind>
    1dd6:	85 c0                	test   %eax,%eax
    1dd8:	75 10                	jne    1dea <usbmid_interface_destroy+0x3a>
    1dda:	8b 13                	mov    (%ebx),%edx
    1ddc:	89 45 f4             	mov    %eax,-0xc(%ebp)
    1ddf:	89 14 24             	mov    %edx,(%esp)
    1de2:	e8 69 6f 00 00       	call   8d50 <ddf_fun_destroy>
    1de7:	8b 45 f4             	mov    -0xc(%ebp),%eax
    1dea:	83 c4 24             	add    $0x24,%esp
    1ded:	5b                   	pop    %ebx
    1dee:	5d                   	pop    %ebp
    1def:	c3                   	ret    
    1df0:	c7 44 24 08 4e 00 00 	movl   $0x4e,0x8(%esp)
    1df7:	00 
    1df8:	c7 44 24 04 d8 c7 02 	movl   $0x2c7d8,0x4(%esp)
    1dff:	00 
    1e00:	c7 04 24 f4 c7 02 00 	movl   $0x2c7f4,(%esp)
    1e07:	e8 84 5e 02 00       	call   27c90 <assert_abort>
    1e0c:	c7 44 24 08 4d 00 00 	movl   $0x4d,0x8(%esp)
    1e13:	00 
    1e14:	c7 44 24 04 d8 c7 02 	movl   $0x2c7d8,0x4(%esp)
    1e1b:	00 
    1e1c:	c7 04 24 e1 c7 02 00 	movl   $0x2c7e1,(%esp)
    1e23:	e8 68 5e 02 00       	call   27c90 <assert_abort>
    1e28:	90                   	nop
    1e29:	8d b4 26 00 00 00 00 	lea    0x0(%esi,%eiz,1),%esi

00001e30 <usbmid_spawn_interface_child>:
    1e30:	55                   	push   %ebp
    1e31:	89 e5                	mov    %esp,%ebp
    1e33:	57                   	push   %edi
    1e34:	56                   	push   %esi
    1e35:	53                   	push   %ebx
    1e36:	83 ec 3c             	sub    $0x3c,%esp
    1e39:	c7 45 dc 00 00 00 00 	movl   $0x0,-0x24(%ebp)
    1e40:	8b 5d 14             	mov    0x14(%ebp),%ebx
    1e43:	8a 43 02             	mov    0x2(%ebx),%al
    1e46:	25 ff 00 00 00       	and    $0xff,%eax
    1e4b:	89 c6                	mov    %eax,%esi
    1e4d:	31 c0                	xor    %eax,%eax
    1e4f:	8a 43 05             	mov    0x5(%ebx),%al
    1e52:	89 04 24             	mov    %eax,(%esp)
    1e55:	e8 66 4a 00 00       	call   68c0 <usb_str_class>
    1e5a:	89 74 24 0c          	mov    %esi,0xc(%esp)
    1e5e:	89 44 24 08          	mov    %eax,0x8(%esp)
    1e62:	8d 45 dc             	lea    -0x24(%ebp),%eax
    1e65:	c7 44 24 04 eb c7 02 	movl   $0x2c7eb,0x4(%esp)
    1e6c:	00 
    1e6d:	89 04 24             	mov    %eax,(%esp)
    1e70:	e8 2b 3d 01 00       	call   15ba0 <asprintf>
    1e75:	85 c0                	test   %eax,%eax
    1e77:	0f 88 75 01 00 00    	js     1ff2 <usbmid_spawn_interface_child+0x1c2>
    1e7d:	8b 45 dc             	mov    -0x24(%ebp),%eax
    1e80:	c7 44 24 04 01 00 00 	movl   $0x1,0x4(%esp)
    1e87:	00 
    1e88:	89 44 24 08          	mov    %eax,0x8(%esp)
    1e8c:	8b 45 08             	mov    0x8(%ebp),%eax
    1e8f:	8b 40 70             	mov    0x70(%eax),%eax
    1e92:	89 04 24             	mov    %eax,(%esp)
    1e95:	e8 36 6d 00 00       	call   8bd0 <ddf_fun_create>
    1e9a:	89 c7                	mov    %eax,%edi
    1e9c:	8b 45 dc             	mov    -0x24(%ebp),%eax
    1e9f:	89 04 24             	mov    %eax,(%esp)
    1ea2:	e8 99 b6 01 00       	call   1d540 <free>
    1ea7:	85 ff                	test   %edi,%edi
    1ea9:	0f 84 43 01 00 00    	je     1ff2 <usbmid_spawn_interface_child+0x1c2>
    1eaf:	8d 75 e0             	lea    -0x20(%ebp),%esi
    1eb2:	8b 45 10             	mov    0x10(%ebp),%eax
    1eb5:	89 74 24 08          	mov    %esi,0x8(%esp)
    1eb9:	89 5c 24 04          	mov    %ebx,0x4(%esp)
    1ebd:	89 04 24             	mov    %eax,(%esp)
    1ec0:	89 75 e0             	mov    %esi,-0x20(%ebp)
    1ec3:	89 75 e4             	mov    %esi,-0x1c(%ebp)
    1ec6:	e8 95 25 00 00       	call   4460 <usb_device_create_match_ids_from_interface>
    1ecb:	85 c0                	test   %eax,%eax
    1ecd:	0f 85 88 00 00 00    	jne    1f5b <usbmid_spawn_interface_child+0x12b>
    1ed3:	8b 5d e4             	mov    -0x1c(%ebp),%ebx
    1ed6:	39 f3                	cmp    %esi,%ebx
    1ed8:	75 11                	jne    1eeb <usbmid_spawn_interface_child+0xbb>
    1eda:	e9 d8 00 00 00       	jmp    1fb7 <usbmid_spawn_interface_child+0x187>
    1edf:	90                   	nop
    1ee0:	8b 5b 04             	mov    0x4(%ebx),%ebx
    1ee3:	39 f3                	cmp    %esi,%ebx
    1ee5:	0f 84 c5 00 00 00    	je     1fb0 <usbmid_spawn_interface_child+0x180>
    1eeb:	8b 43 0c             	mov    0xc(%ebx),%eax
    1eee:	89 44 24 08          	mov    %eax,0x8(%esp)
    1ef2:	8b 43 08             	mov    0x8(%ebx),%eax
    1ef5:	89 3c 24             	mov    %edi,(%esp)
    1ef8:	89 44 24 04          	mov    %eax,0x4(%esp)
    1efc:	e8 8f 71 00 00       	call   9090 <ddf_fun_add_match_id>
    1f01:	85 c0                	test   %eax,%eax
    1f03:	74 db                	je     1ee0 <usbmid_spawn_interface_child+0xb0>
    1f05:	8b 5d e4             	mov    -0x1c(%ebp),%ebx
    1f08:	39 f3                	cmp    %esi,%ebx
    1f0a:	74 4f                	je     1f5b <usbmid_spawn_interface_child+0x12b>
    1f0c:	8d 74 26 00          	lea    0x0(%esi,%eiz,1),%esi
    1f10:	8b 0b                	mov    (%ebx),%ecx
    1f12:	85 c9                	test   %ecx,%ecx
    1f14:	74 0e                	je     1f24 <usbmid_spawn_interface_child+0xf4>
    1f16:	8b 53 04             	mov    0x4(%ebx),%edx
    1f19:	85 d2                	test   %edx,%edx
    1f1b:	74 07                	je     1f24 <usbmid_spawn_interface_child+0xf4>
    1f1d:	89 0a                	mov    %ecx,(%edx)
    1f1f:	8b 0b                	mov    (%ebx),%ecx
    1f21:	89 51 04             	mov    %edx,0x4(%ecx)
    1f24:	8b 53 08             	mov    0x8(%ebx),%edx
    1f27:	c7 03 00 00 00 00    	movl   $0x0,(%ebx)
    1f2d:	c7 43 04 00 00 00 00 	movl   $0x0,0x4(%ebx)
    1f34:	85 d2                	test   %edx,%edx
    1f36:	74 0e                	je     1f46 <usbmid_spawn_interface_child+0x116>
    1f38:	89 14 24             	mov    %edx,(%esp)
    1f3b:	89 45 d4             	mov    %eax,-0x2c(%ebp)
    1f3e:	e8 fd b5 01 00       	call   1d540 <free>
    1f43:	8b 45 d4             	mov    -0x2c(%ebp),%eax
    1f46:	89 1c 24             	mov    %ebx,(%esp)
    1f49:	89 45 d4             	mov    %eax,-0x2c(%ebp)
    1f4c:	e8 ef b5 01 00       	call   1d540 <free>
    1f51:	8b 5d e4             	mov    -0x1c(%ebp),%ebx
    1f54:	39 f3                	cmp    %esi,%ebx
    1f56:	8b 45 d4             	mov    -0x2c(%ebp),%eax
    1f59:	75 b5                	jne    1f10 <usbmid_spawn_interface_child+0xe0>
    1f5b:	89 3c 24             	mov    %edi,(%esp)
    1f5e:	89 45 d4             	mov    %eax,-0x2c(%ebp)
    1f61:	e8 ea 6d 00 00       	call   8d50 <ddf_fun_destroy>
    1f66:	8b 45 d4             	mov    -0x2c(%ebp),%eax
    1f69:	83 c4 3c             	add    $0x3c,%esp
    1f6c:	5b                   	pop    %ebx
    1f6d:	5e                   	pop    %esi
    1f6e:	5f                   	pop    %edi
    1f6f:	5d                   	pop    %ebp
    1f70:	c3                   	ret    
    1f71:	8d b4 26 00 00 00 00 	lea    0x0(%esi,%eiz,1),%esi
    1f78:	8b 13                	mov    (%ebx),%edx
    1f7a:	85 d2                	test   %edx,%edx
    1f7c:	74 0e                	je     1f8c <usbmid_spawn_interface_child+0x15c>
    1f7e:	8b 43 04             	mov    0x4(%ebx),%eax
    1f81:	85 c0                	test   %eax,%eax
    1f83:	74 07                	je     1f8c <usbmid_spawn_interface_child+0x15c>
    1f85:	89 10                	mov    %edx,(%eax)
    1f87:	8b 13                	mov    (%ebx),%edx
    1f89:	89 42 04             	mov    %eax,0x4(%edx)
    1f8c:	8b 43 08             	mov    0x8(%ebx),%eax
    1f8f:	c7 03 00 00 00 00    	movl   $0x0,(%ebx)
    1f95:	c7 43 04 00 00 00 00 	movl   $0x0,0x4(%ebx)
    1f9c:	85 c0                	test   %eax,%eax
    1f9e:	74 08                	je     1fa8 <usbmid_spawn_interface_child+0x178>
    1fa0:	89 04 24             	mov    %eax,(%esp)
    1fa3:	e8 98 b5 01 00       	call   1d540 <free>
    1fa8:	89 1c 24             	mov    %ebx,(%esp)
    1fab:	e8 90 b5 01 00       	call   1d540 <free>
    1fb0:	8b 5d e4             	mov    -0x1c(%ebp),%ebx
    1fb3:	39 f3                	cmp    %esi,%ebx
    1fb5:	75 c1                	jne    1f78 <usbmid_spawn_interface_child+0x148>
    1fb7:	89 3c 24             	mov    %edi,(%esp)
    1fba:	e8 a1 6e 00 00       	call   8e60 <ddf_fun_bind>
    1fbf:	85 c0                	test   %eax,%eax
    1fc1:	75 98                	jne    1f5b <usbmid_spawn_interface_child+0x12b>
    1fc3:	8b 55 0c             	mov    0xc(%ebp),%edx
    1fc6:	89 3a                	mov    %edi,(%edx)
    1fc8:	89 54 24 04          	mov    %edx,0x4(%esp)
    1fcc:	89 3c 24             	mov    %edi,(%esp)
    1fcf:	89 45 d4             	mov    %eax,-0x2c(%ebp)
    1fd2:	e8 b9 6a 00 00       	call   8a90 <ddf_fun_data_implant>
    1fd7:	89 3c 24             	mov    %edi,(%esp)
    1fda:	c7 44 24 04 40 01 03 	movl   $0x30140,0x4(%esp)
    1fe1:	00 
    1fe2:	e8 79 71 00 00       	call   9160 <ddf_fun_set_ops>
    1fe7:	8b 45 d4             	mov    -0x2c(%ebp),%eax
    1fea:	83 c4 3c             	add    $0x3c,%esp
    1fed:	5b                   	pop    %ebx
    1fee:	5e                   	pop    %esi
    1fef:	5f                   	pop    %edi
    1ff0:	5d                   	pop    %ebp
    1ff1:	c3                   	ret    
    1ff2:	b8 fe ff ff ff       	mov    $0xfffffffe,%eax
    1ff7:	e9 6d ff ff ff       	jmp    1f69 <usbmid_spawn_interface_child+0x139>
    1ffc:	66 90                	xchg   %ax,%ax
    1ffe:	66 90                	xchg   %ax,%ax

00002000 <usb_driver_main>:
    2000:	55                   	push   %ebp
    2001:	89 e5                	mov    %esp,%ebp
    2003:	83 ec 18             	sub    $0x18,%esp
    2006:	8b 45 08             	mov    0x8(%ebp),%eax
    2009:	85 c0                	test   %eax,%eax
    200b:	74 1a                	je     2027 <usb_driver_main+0x27>
    200d:	8b 10                	mov    (%eax),%edx
    200f:	a3 64 06 03 00       	mov    %eax,0x30664
    2014:	89 15 84 01 03 00    	mov    %edx,0x30184
    201a:	c7 45 08 84 01 03 00 	movl   $0x30184,0x8(%ebp)
    2021:	c9                   	leave  
    2022:	e9 19 72 00 00       	jmp    9240 <ddf_driver_main>
    2027:	c7 44 24 08 43 00 00 	movl   $0x43,0x8(%esp)
    202e:	00 
    202f:	c7 44 24 04 3d c8 02 	movl   $0x2c83d,0x4(%esp)
    2036:	00 
    2037:	c7 04 24 4a c8 02 00 	movl   $0x2c84a,(%esp)
    203e:	e8 4d 5c 02 00       	call   27c90 <assert_abort>
    2043:	8d b6 00 00 00 00    	lea    0x0(%esi),%esi
    2049:	8d bc 27 00 00 00 00 	lea    0x0(%edi,%eiz,1),%edi

00002050 <usb_device_retrieve_descriptors>:
    2050:	55                   	push   %ebp
    2051:	89 e5                	mov    %esp,%ebp
    2053:	57                   	push   %edi
    2054:	56                   	push   %esi
    2055:	53                   	push   %ebx
    2056:	83 ec 1c             	sub    $0x1c,%esp
    2059:	8b 5d 0c             	mov    0xc(%ebp),%ebx
    205c:	8b 75 08             	mov    0x8(%ebp),%esi
    205f:	85 db                	test   %ebx,%ebx
    2061:	74 53                	je     20b6 <usb_device_retrieve_descriptors+0x66>
    2063:	c7 43 14 00 00 00 00 	movl   $0x0,0x14(%ebx)
    206a:	89 34 24             	mov    %esi,(%esp)
    206d:	e8 0e 18 00 00       	call   3880 <usb_pipe_start_long_transfer>
    2072:	89 5c 24 04          	mov    %ebx,0x4(%esp)
    2076:	89 34 24             	mov    %esi,(%esp)
    2079:	e8 92 3a 00 00       	call   5b10 <usb_request_get_device_descriptor>
    207e:	89 c7                	mov    %eax,%edi
    2080:	85 c0                	test   %eax,%eax
    2082:	75 20                	jne    20a4 <usb_device_retrieve_descriptors+0x54>
    2084:	8d 43 18             	lea    0x18(%ebx),%eax
    2087:	83 c3 14             	add    $0x14,%ebx
    208a:	89 44 24 0c          	mov    %eax,0xc(%esp)
    208e:	89 5c 24 08          	mov    %ebx,0x8(%esp)
    2092:	c7 44 24 04 00 00 00 	movl   $0x0,0x4(%esp)
    2099:	00 
    209a:	89 34 24             	mov    %esi,(%esp)
    209d:	e8 7e 3c 00 00       	call   5d20 <usb_request_get_full_configuration_descriptor_alloc>
    20a2:	89 c7                	mov    %eax,%edi
    20a4:	89 34 24             	mov    %esi,(%esp)
    20a7:	e8 54 18 00 00       	call   3900 <usb_pipe_end_long_transfer>
    20ac:	83 c4 1c             	add    $0x1c,%esp
    20af:	89 f8                	mov    %edi,%eax
    20b1:	5b                   	pop    %ebx
    20b2:	5e                   	pop    %esi
    20b3:	5f                   	pop    %edi
    20b4:	5d                   	pop    %ebp
    20b5:	c3                   	ret    
    20b6:	c7 44 24 08 ee 00 00 	movl   $0xee,0x8(%esp)
    20bd:	00 
    20be:	c7 44 24 04 3d c8 02 	movl   $0x2c83d,0x4(%esp)
    20c5:	00 
    20c6:	c7 04 24 56 c8 02 00 	movl   $0x2c856,(%esp)
    20cd:	e8 be 5b 02 00       	call   27c90 <assert_abort>
    20d2:	8d b4 26 00 00 00 00 	lea    0x0(%esi,%eiz,1),%esi
    20d9:	8d bc 27 00 00 00 00 	lea    0x0(%edi,%eiz,1),%edi

000020e0 <usb_device_release_descriptors>:
    20e0:	55                   	push   %ebp
    20e1:	89 e5                	mov    %esp,%ebp
    20e3:	53                   	push   %ebx
    20e4:	83 ec 14             	sub    $0x14,%esp
    20e7:	8b 5d 08             	mov    0x8(%ebp),%ebx
    20ea:	85 db                	test   %ebx,%ebx
    20ec:	74 18                	je     2106 <usb_device_release_descriptors+0x26>
    20ee:	8b 43 14             	mov    0x14(%ebx),%eax
    20f1:	89 04 24             	mov    %eax,(%esp)
    20f4:	e8 47 b4 01 00       	call   1d540 <free>
    20f9:	c7 43 14 00 00 00 00 	movl   $0x0,0x14(%ebx)
    2100:	83 c4 14             	add    $0x14,%esp
    2103:	5b                   	pop    %ebx
    2104:	5d                   	pop    %ebp
    2105:	c3                   	ret    
    2106:	c7 44 24 08 0e 01 00 	movl   $0x10e,0x8(%esp)
    210d:	00 
    210e:	c7 44 24 04 3d c8 02 	movl   $0x2c83d,0x4(%esp)
    2115:	00 
    2116:	c7 04 24 6a c8 02 00 	movl   $0x2c86a,(%esp)
    211d:	e8 6e 5b 02 00       	call   27c90 <assert_abort>
    2122:	8d b4 26 00 00 00 00 	lea    0x0(%esi,%eiz,1),%esi
    2129:	8d bc 27 00 00 00 00 	lea    0x0(%edi,%eiz,1),%edi

00002130 <usb_device_create_pipes>:
    2130:	55                   	push   %ebp
    2131:	89 e5                	mov    %esp,%ebp
    2133:	57                   	push   %edi
    2134:	56                   	push   %esi
    2135:	53                   	push   %ebx
    2136:	83 ec 3c             	sub    $0x3c,%esp
    2139:	8b 45 08             	mov    0x8(%ebp),%eax
    213c:	8b 55 0c             	mov    0xc(%ebp),%edx
    213f:	8b 7d 18             	mov    0x18(%ebp),%edi
    2142:	8b 75 1c             	mov    0x1c(%ebp),%esi
    2145:	85 c0                	test   %eax,%eax
    2147:	0f 84 ef 01 00 00    	je     233c <usb_device_create_pipes+0x20c>
    214d:	8b 45 10             	mov    0x10(%ebp),%eax
    2150:	85 c0                	test   %eax,%eax
    2152:	0f 84 c8 01 00 00    	je     2320 <usb_device_create_pipes+0x1f0>
    2158:	8b 45 14             	mov    0x14(%ebp),%eax
    215b:	85 c0                	test   %eax,%eax
    215d:	0f 84 a1 01 00 00    	je     2304 <usb_device_create_pipes+0x1d4>
    2163:	8b 45 20             	mov    0x20(%ebp),%eax
    2166:	85 c0                	test   %eax,%eax
    2168:	0f 84 7a 01 00 00    	je     22e8 <usb_device_create_pipes+0x1b8>
    216e:	85 d2                	test   %edx,%edx
    2170:	74 1a                	je     218c <usb_device_create_pipes+0x5c>
    2172:	8b 02                	mov    (%edx),%eax
    2174:	bb 01 00 00 00       	mov    $0x1,%ebx
    2179:	85 c0                	test   %eax,%eax
    217b:	75 04                	jne    2181 <usb_device_create_pipes+0x51>
    217d:	eb 0d                	jmp    218c <usb_device_create_pipes+0x5c>
    217f:	90                   	nop
    2180:	43                   	inc    %ebx
    2181:	8b 0c 9a             	mov    (%edx,%ebx,4),%ecx
    2184:	85 c9                	test   %ecx,%ecx
    2186:	75 f8                	jne    2180 <usb_device_create_pipes+0x50>
    2188:	85 db                	test   %ebx,%ebx
    218a:	75 2c                	jne    21b8 <usb_device_create_pipes+0x88>
    218c:	8b 55 24             	mov    0x24(%ebp),%edx
    218f:	85 d2                	test   %edx,%edx
    2191:	74 09                	je     219c <usb_device_create_pipes+0x6c>
    2193:	8b 4d 24             	mov    0x24(%ebp),%ecx
    2196:	c7 01 00 00 00 00    	movl   $0x0,(%ecx)
    219c:	8b 5d 20             	mov    0x20(%ebp),%ebx
    219f:	31 d2                	xor    %edx,%edx
    21a1:	c7 03 00 00 00 00    	movl   $0x0,(%ebx)
    21a7:	83 c4 3c             	add    $0x3c,%esp
    21aa:	89 d0                	mov    %edx,%eax
    21ac:	5b                   	pop    %ebx
    21ad:	5e                   	pop    %esi
    21ae:	5f                   	pop    %edi
    21af:	5d                   	pop    %ebp
    21b0:	c3                   	ret    
    21b1:	8d b4 26 00 00 00 00 	lea    0x0(%esi,%eiz,1),%esi
    21b8:	c7 44 24 04 30 00 00 	movl   $0x30,0x4(%esp)
    21bf:	00 
    21c0:	89 1c 24             	mov    %ebx,(%esp)
    21c3:	89 55 d8             	mov    %edx,-0x28(%ebp)
    21c6:	e8 05 b2 01 00       	call   1d3d0 <calloc>
    21cb:	8b 55 d8             	mov    -0x28(%ebp),%edx
    21ce:	89 45 e0             	mov    %eax,-0x20(%ebp)
    21d1:	85 c0                	test   %eax,%eax
    21d3:	0f 84 05 01 00 00    	je     22de <usb_device_create_pipes+0x1ae>
    21d9:	89 45 dc             	mov    %eax,-0x24(%ebp)
    21dc:	8d 0c 9a             	lea    (%edx,%ebx,4),%ecx
    21df:	89 5d e4             	mov    %ebx,-0x1c(%ebp)
    21e2:	8d b6 00 00 00 00    	lea    0x0(%esi),%esi
    21e8:	8b 1a                	mov    (%edx),%ebx
    21ea:	83 c2 04             	add    $0x4,%edx
    21ed:	89 58 18             	mov    %ebx,0x18(%eax)
    21f0:	89 78 1c             	mov    %edi,0x1c(%eax)
    21f3:	89 70 20             	mov    %esi,0x20(%eax)
    21f6:	83 c0 30             	add    $0x30,%eax
    21f9:	39 ca                	cmp    %ecx,%edx
    21fb:	75 eb                	jne    21e8 <usb_device_create_pipes+0xb8>
    21fd:	8b 4d 08             	mov    0x8(%ebp),%ecx
    2200:	8b 5d e4             	mov    -0x1c(%ebp),%ebx
    2203:	89 4c 24 10          	mov    %ecx,0x10(%esp)
    2207:	8b 4d 14             	mov    0x14(%ebp),%ecx
    220a:	89 4c 24 0c          	mov    %ecx,0xc(%esp)
    220e:	8b 45 e0             	mov    -0x20(%ebp),%eax
    2211:	8b 4d 10             	mov    0x10(%ebp),%ecx
    2214:	89 5c 24 04          	mov    %ebx,0x4(%esp)
    2218:	89 4c 24 08          	mov    %ecx,0x8(%esp)
    221c:	89 04 24             	mov    %eax,(%esp)
    221f:	e8 fc 1d 00 00       	call   4020 <usb_pipe_initialize_from_configuration>
    2224:	89 c2                	mov    %eax,%edx
    2226:	85 c0                	test   %eax,%eax
    2228:	0f 85 7f 00 00 00    	jne    22ad <usb_device_create_pipes+0x17d>
    222e:	8b 75 e0             	mov    -0x20(%ebp),%esi
    2231:	31 ff                	xor    %edi,%edi
    2233:	89 45 e4             	mov    %eax,-0x1c(%ebp)
    2236:	eb 08                	jmp    2240 <usb_device_create_pipes+0x110>
    2238:	47                   	inc    %edi
    2239:	83 c6 30             	add    $0x30,%esi
    223c:	39 df                	cmp    %ebx,%edi
    223e:	74 48                	je     2288 <usb_device_create_pipes+0x158>
    2240:	80 7e 2c 00          	cmpb   $0x0,0x2c(%esi)
    2244:	74 f2                	je     2238 <usb_device_create_pipes+0x108>
    2246:	8b 46 24             	mov    0x24(%esi),%eax
    2249:	8a 40 06             	mov    0x6(%eax),%al
    224c:	89 34 24             	mov    %esi,(%esp)
    224f:	25 ff 00 00 00       	and    $0xff,%eax
    2254:	89 44 24 04          	mov    %eax,0x4(%esp)
    2258:	e8 c3 1c 00 00       	call   3f20 <usb_pipe_register>
    225d:	85 c0                	test   %eax,%eax
    225f:	74 d7                	je     2238 <usb_device_create_pipes+0x108>
    2261:	31 f6                	xor    %esi,%esi
    2263:	89 45 e4             	mov    %eax,-0x1c(%ebp)
    2266:	8b 7d dc             	mov    -0x24(%ebp),%edi
    2269:	eb 0d                	jmp    2278 <usb_device_create_pipes+0x148>
    226b:	90                   	nop
    226c:	8d 74 26 00          	lea    0x0(%esi,%eiz,1),%esi
    2270:	46                   	inc    %esi
    2271:	83 c7 30             	add    $0x30,%edi
    2274:	39 de                	cmp    %ebx,%esi
    2276:	74 4b                	je     22c3 <usb_device_create_pipes+0x193>
    2278:	80 7f 2c 00          	cmpb   $0x0,0x2c(%edi)
    227c:	74 f2                	je     2270 <usb_device_create_pipes+0x140>
    227e:	89 3c 24             	mov    %edi,(%esp)
    2281:	e8 2a 1d 00 00       	call   3fb0 <usb_pipe_unregister>
    2286:	eb e8                	jmp    2270 <usb_device_create_pipes+0x140>
    2288:	8b 4d 20             	mov    0x20(%ebp),%ecx
    228b:	8b 45 e0             	mov    -0x20(%ebp),%eax
    228e:	8b 55 e4             	mov    -0x1c(%ebp),%edx
    2291:	89 01                	mov    %eax,(%ecx)
    2293:	8b 45 24             	mov    0x24(%ebp),%eax
    2296:	85 c0                	test   %eax,%eax
    2298:	0f 84 09 ff ff ff    	je     21a7 <usb_device_create_pipes+0x77>
    229e:	8b 4d 24             	mov    0x24(%ebp),%ecx
    22a1:	89 d0                	mov    %edx,%eax
    22a3:	89 39                	mov    %edi,(%ecx)
    22a5:	83 c4 3c             	add    $0x3c,%esp
    22a8:	5b                   	pop    %ebx
    22a9:	5e                   	pop    %esi
    22aa:	5f                   	pop    %edi
    22ab:	5d                   	pop    %ebp
    22ac:	c3                   	ret    
    22ad:	8b 45 e0             	mov    -0x20(%ebp),%eax
    22b0:	89 55 d8             	mov    %edx,-0x28(%ebp)
    22b3:	89 04 24             	mov    %eax,(%esp)
    22b6:	e8 85 b2 01 00       	call   1d540 <free>
    22bb:	8b 55 d8             	mov    -0x28(%ebp),%edx
    22be:	e9 e4 fe ff ff       	jmp    21a7 <usb_device_create_pipes+0x77>
    22c3:	8b 45 e0             	mov    -0x20(%ebp),%eax
    22c6:	8b 4d e4             	mov    -0x1c(%ebp),%ecx
    22c9:	89 04 24             	mov    %eax,(%esp)
    22cc:	89 4d d8             	mov    %ecx,-0x28(%ebp)
    22cf:	e8 6c b2 01 00       	call   1d540 <free>
    22d4:	8b 4d d8             	mov    -0x28(%ebp),%ecx
    22d7:	89 ca                	mov    %ecx,%edx
    22d9:	e9 c9 fe ff ff       	jmp    21a7 <usb_device_create_pipes+0x77>
    22de:	ba fe ff ff ff       	mov    $0xfffffffe,%edx
    22e3:	e9 bf fe ff ff       	jmp    21a7 <usb_device_create_pipes+0x77>
    22e8:	c7 44 24 08 2f 01 00 	movl   $0x12f,0x8(%esp)
    22ef:	00 
    22f0:	c7 44 24 04 3d c8 02 	movl   $0x2c83d,0x4(%esp)
    22f7:	00 
    22f8:	c7 04 24 ae c8 02 00 	movl   $0x2c8ae,(%esp)
    22ff:	e8 8c 59 02 00       	call   27c90 <assert_abort>
    2304:	c7 44 24 08 2e 01 00 	movl   $0x12e,0x8(%esp)
    230b:	00 
    230c:	c7 44 24 04 3d c8 02 	movl   $0x2c83d,0x4(%esp)
    2313:	00 
    2314:	c7 04 24 98 c8 02 00 	movl   $0x2c898,(%esp)
    231b:	e8 70 59 02 00       	call   27c90 <assert_abort>
    2320:	c7 44 24 08 2d 01 00 	movl   $0x12d,0x8(%esp)
    2327:	00 
    2328:	c7 44 24 04 3d c8 02 	movl   $0x2c83d,0x4(%esp)
    232f:	00 
    2330:	c7 04 24 83 c8 02 00 	movl   $0x2c883,(%esp)
    2337:	e8 54 59 02 00       	call   27c90 <assert_abort>
    233c:	c7 44 24 08 2c 01 00 	movl   $0x12c,0x8(%esp)
    2343:	00 
    2344:	c7 44 24 04 3d c8 02 	movl   $0x2c83d,0x4(%esp)
    234b:	00 
    234c:	c7 04 24 76 c8 02 00 	movl   $0x2c876,(%esp)
    2353:	e8 38 59 02 00       	call   27c90 <assert_abort>
    2358:	90                   	nop
    2359:	8d b4 26 00 00 00 00 	lea    0x0(%esi,%eiz,1),%esi

00002360 <usb_device_select_interface>:
    2360:	55                   	push   %ebp
    2361:	89 e5                	mov    %esp,%ebp
    2363:	57                   	push   %edi
    2364:	56                   	push   %esi
    2365:	53                   	push   %ebx
    2366:	83 ec 3c             	sub    $0x3c,%esp
    2369:	8b 7d 08             	mov    0x8(%ebp),%edi
    236c:	8a 45 0c             	mov    0xc(%ebp),%al
    236f:	88 45 df             	mov    %al,-0x21(%ebp)
    2372:	8b 4f 44             	mov    0x44(%edi),%ecx
    2375:	85 c9                	test   %ecx,%ecx
    2377:	0f 88 f0 00 00 00    	js     246d <usb_device_select_interface+0x10d>
    237d:	8b 47 40             	mov    0x40(%edi),%eax
    2380:	89 45 e0             	mov    %eax,-0x20(%ebp)
    2383:	8b 47 3c             	mov    0x3c(%edi),%eax
    2386:	8b 55 e0             	mov    -0x20(%ebp),%edx
    2389:	89 45 e4             	mov    %eax,-0x1c(%ebp)
    238c:	85 d2                	test   %edx,%edx
    238e:	74 57                	je     23e7 <usb_device_select_interface+0x87>
    2390:	85 c0                	test   %eax,%eax
    2392:	0f 84 dc 00 00 00    	je     2474 <usb_device_select_interface+0x114>
    2398:	8b 5d e4             	mov    -0x1c(%ebp),%ebx
    239b:	31 f6                	xor    %esi,%esi
    239d:	b8 c0 c8 02 00       	mov    $0x2c8c0,%eax
    23a2:	80 7b 2c 00          	cmpb   $0x0,0x2c(%ebx)
    23a6:	74 05                	je     23ad <usb_device_select_interface+0x4d>
    23a8:	b8 e5 e5 02 00       	mov    $0x2e5e5,%eax
    23ad:	89 44 24 10          	mov    %eax,0x10(%esp)
    23b1:	89 74 24 0c          	mov    %esi,0xc(%esp)
    23b5:	c7 44 24 08 94 c9 02 	movl   $0x2c994,0x8(%esp)
    23bc:	00 
    23bd:	c7 44 24 04 05 00 00 	movl   $0x5,0x4(%esp)
    23c4:	00 
    23c5:	c7 04 24 ff ff ff ff 	movl   $0xffffffff,(%esp)
    23cc:	e8 bf 5f 01 00       	call   18390 <log_msg>
    23d1:	80 7b 2c 00          	cmpb   $0x0,0x2c(%ebx)
    23d5:	0f 85 85 00 00 00    	jne    2460 <usb_device_select_interface+0x100>
    23db:	46                   	inc    %esi
    23dc:	83 c3 30             	add    $0x30,%ebx
    23df:	3b 75 e0             	cmp    -0x20(%ebp),%esi
    23e2:	75 b9                	jne    239d <usb_device_select_interface+0x3d>
    23e4:	8b 45 e4             	mov    -0x1c(%ebp),%eax
    23e7:	89 04 24             	mov    %eax,(%esp)
    23ea:	31 db                	xor    %ebx,%ebx
    23ec:	e8 4f b1 01 00       	call   1d540 <free>
    23f1:	8a 5d df             	mov    -0x21(%ebp),%bl
    23f4:	c7 47 3c 00 00 00 00 	movl   $0x0,0x3c(%edi)
    23fb:	c7 47 40 00 00 00 00 	movl   $0x0,0x40(%edi)
    2402:	31 c0                	xor    %eax,%eax
    2404:	89 5c 24 08          	mov    %ebx,0x8(%esp)
    2408:	8a 47 44             	mov    0x44(%edi),%al
    240b:	89 44 24 04          	mov    %eax,0x4(%esp)
    240f:	8d 47 24             	lea    0x24(%edi),%eax
    2412:	89 04 24             	mov    %eax,(%esp)
    2415:	e8 d6 3c 00 00       	call   60f0 <usb_request_set_interface>
    241a:	85 c0                	test   %eax,%eax
    241c:	75 39                	jne    2457 <usb_device_select_interface+0xf7>
    241e:	8d 47 40             	lea    0x40(%edi),%eax
    2421:	89 5c 24 14          	mov    %ebx,0x14(%esp)
    2425:	89 44 24 1c          	mov    %eax,0x1c(%esp)
    2429:	8d 47 3c             	lea    0x3c(%edi),%eax
    242c:	89 44 24 18          	mov    %eax,0x18(%esp)
    2430:	8b 47 44             	mov    0x44(%edi),%eax
    2433:	89 44 24 10          	mov    %eax,0x10(%esp)
    2437:	8b 47 6c             	mov    0x6c(%edi),%eax
    243a:	89 44 24 0c          	mov    %eax,0xc(%esp)
    243e:	8b 47 68             	mov    0x68(%edi),%eax
    2441:	83 c7 1c             	add    $0x1c,%edi
    2444:	89 44 24 08          	mov    %eax,0x8(%esp)
    2448:	8b 45 10             	mov    0x10(%ebp),%eax
    244b:	89 44 24 04          	mov    %eax,0x4(%esp)
    244f:	89 3c 24             	mov    %edi,(%esp)
    2452:	e8 d9 fc ff ff       	call   2130 <usb_device_create_pipes>
    2457:	83 c4 3c             	add    $0x3c,%esp
    245a:	5b                   	pop    %ebx
    245b:	5e                   	pop    %esi
    245c:	5f                   	pop    %edi
    245d:	5d                   	pop    %ebp
    245e:	c3                   	ret    
    245f:	90                   	nop
    2460:	89 1c 24             	mov    %ebx,(%esp)
    2463:	e8 48 1b 00 00       	call   3fb0 <usb_pipe_unregister>
    2468:	e9 6e ff ff ff       	jmp    23db <usb_device_select_interface+0x7b>
    246d:	b8 f2 ff ff ff       	mov    $0xfffffff2,%eax
    2472:	eb e3                	jmp    2457 <usb_device_select_interface+0xf7>
    2474:	c7 44 24 08 7d 01 00 	movl   $0x17d,0x8(%esp)
    247b:	00 
    247c:	c7 44 24 04 3d c8 02 	movl   $0x2c83d,0x4(%esp)
    2483:	00 
    2484:	c7 04 24 c5 c8 02 00 	movl   $0x2c8c5,(%esp)
    248b:	e8 00 58 02 00       	call   27c90 <assert_abort>

00002490 <usb_device_destroy_pipes>:
    2490:	55                   	push   %ebp
    2491:	89 e5                	mov    %esp,%ebp
    2493:	57                   	push   %edi
    2494:	56                   	push   %esi
    2495:	53                   	push   %ebx
    2496:	83 ec 3c             	sub    $0x3c,%esp
    2499:	8b 45 0c             	mov    0xc(%ebp),%eax
    249c:	8b 7d 08             	mov    0x8(%ebp),%edi
    249f:	89 45 e4             	mov    %eax,-0x1c(%ebp)
    24a2:	85 c0                	test   %eax,%eax
    24a4:	74 4b                	je     24f1 <usb_device_destroy_pipes+0x61>
    24a6:	85 ff                	test   %edi,%edi
    24a8:	74 60                	je     250a <usb_device_destroy_pipes+0x7a>
    24aa:	89 fb                	mov    %edi,%ebx
    24ac:	31 f6                	xor    %esi,%esi
    24ae:	b8 c0 c8 02 00       	mov    $0x2c8c0,%eax
    24b3:	80 7b 2c 00          	cmpb   $0x0,0x2c(%ebx)
    24b7:	74 05                	je     24be <usb_device_destroy_pipes+0x2e>
    24b9:	b8 e5 e5 02 00       	mov    $0x2e5e5,%eax
    24be:	89 44 24 10          	mov    %eax,0x10(%esp)
    24c2:	89 74 24 0c          	mov    %esi,0xc(%esp)
    24c6:	c7 44 24 08 94 c9 02 	movl   $0x2c994,0x8(%esp)
    24cd:	00 
    24ce:	c7 44 24 04 05 00 00 	movl   $0x5,0x4(%esp)
    24d5:	00 
    24d6:	c7 04 24 ff ff ff ff 	movl   $0xffffffff,(%esp)
    24dd:	e8 ae 5e 01 00       	call   18390 <log_msg>
    24e2:	80 7b 2c 00          	cmpb   $0x0,0x2c(%ebx)
    24e6:	75 18                	jne    2500 <usb_device_destroy_pipes+0x70>
    24e8:	46                   	inc    %esi
    24e9:	83 c3 30             	add    $0x30,%ebx
    24ec:	3b 75 e4             	cmp    -0x1c(%ebp),%esi
    24ef:	75 bd                	jne    24ae <usb_device_destroy_pipes+0x1e>
    24f1:	89 7d 08             	mov    %edi,0x8(%ebp)
    24f4:	83 c4 3c             	add    $0x3c,%esp
    24f7:	5b                   	pop    %ebx
    24f8:	5e                   	pop    %esi
    24f9:	5f                   	pop    %edi
    24fa:	5d                   	pop    %ebp
    24fb:	e9 40 b0 01 00       	jmp    1d540 <free>
    2500:	89 1c 24             	mov    %ebx,(%esp)
    2503:	e8 a8 1a 00 00       	call   3fb0 <usb_pipe_unregister>
    2508:	eb de                	jmp    24e8 <usb_device_destroy_pipes+0x58>
    250a:	c7 44 24 08 7d 01 00 	movl   $0x17d,0x8(%esp)
    2511:	00 
    2512:	c7 44 24 04 3d c8 02 	movl   $0x2c83d,0x4(%esp)
    2519:	00 
    251a:	c7 04 24 c5 c8 02 00 	movl   $0x2c8c5,(%esp)
    2521:	e8 6a 57 02 00       	call   27c90 <assert_abort>
    2526:	8d 76 00             	lea    0x0(%esi),%esi
    2529:	8d bc 27 00 00 00 00 	lea    0x0(%edi,%eiz,1),%edi

00002530 <usb_device_init>:
    2530:	55                   	push   %ebp
    2531:	89 e5                	mov    %esp,%ebp
    2533:	57                   	push   %edi
    2534:	56                   	push   %esi
    2535:	53                   	push   %ebx
    2536:	83 ec 4c             	sub    $0x4c,%esp
    2539:	8b 5d 08             	mov    0x8(%ebp),%ebx
    253c:	8b 45 0c             	mov    0xc(%ebp),%eax
    253f:	85 db                	test   %ebx,%ebx
    2541:	0f 84 3a 02 00 00    	je     2781 <usb_device_init+0x251>
    2547:	85 c0                	test   %eax,%eax
    2549:	0f 84 16 02 00 00    	je     2765 <usb_device_init+0x235>
    254f:	8b 55 14             	mov    0x14(%ebp),%edx
    2552:	c7 02 00 00 00 00    	movl   $0x0,(%edx)
    2558:	89 43 70             	mov    %eax,0x70(%ebx)
    255b:	c7 43 74 00 00 00 00 	movl   $0x0,0x74(%ebx)
    2562:	c7 43 68 00 00 00 00 	movl   $0x0,0x68(%ebx)
    2569:	c7 43 40 00 00 00 00 	movl   $0x0,0x40(%ebx)
    2570:	c7 43 3c 00 00 00 00 	movl   $0x0,0x3c(%ebx)
    2577:	89 04 24             	mov    %eax,(%esp)
    257a:	e8 61 65 00 00       	call   8ae0 <ddf_dev_get_handle>
    257f:	8d 4b 44             	lea    0x44(%ebx),%ecx
    2582:	89 4c 24 0c          	mov    %ecx,0xc(%esp)
    2586:	8d 4d e2             	lea    -0x1e(%ebp),%ecx
    2589:	89 4c 24 08          	mov    %ecx,0x8(%esp)
    258d:	8d 4d e4             	lea    -0x1c(%ebp),%ecx
    2590:	89 4c 24 04          	mov    %ecx,0x4(%esp)
    2594:	89 04 24             	mov    %eax,(%esp)
    2597:	e8 d4 45 00 00       	call   6b70 <usb_get_info_by_handle>
    259c:	89 c1                	mov    %eax,%ecx
    259e:	85 c0                	test   %eax,%eax
    25a0:	74 16                	je     25b8 <usb_device_init+0x88>
    25a2:	8b 55 14             	mov    0x14(%ebp),%edx
    25a5:	c7 02 eb c8 02 00    	movl   $0x2c8eb,(%edx)
    25ab:	83 c4 4c             	add    $0x4c,%esp
    25ae:	89 c8                	mov    %ecx,%eax
    25b0:	5b                   	pop    %ebx
    25b1:	5e                   	pop    %esi
    25b2:	5f                   	pop    %edi
    25b3:	5d                   	pop    %ebp
    25b4:	c3                   	ret    
    25b5:	8d 76 00             	lea    0x0(%esi),%esi
    25b8:	8b 45 e4             	mov    -0x1c(%ebp),%eax
    25bb:	c7 43 04 00 00 00 00 	movl   $0x0,0x4(%ebx)
    25c2:	89 03                	mov    %eax,(%ebx)
    25c4:	8d 43 08             	lea    0x8(%ebx),%eax
    25c7:	c7 43 18 00 00 00 00 	movl   $0x0,0x18(%ebx)
    25ce:	89 04 24             	mov    %eax,(%esp)
    25d1:	e8 ba 1a 01 00       	call   14090 <fibril_mutex_initialize>
    25d6:	66 8b 45 e2          	mov    -0x1e(%ebp),%ax
    25da:	66 83 f8 7f          	cmp    $0x7f,%ax
    25de:	8d 7b 1c             	lea    0x1c(%ebx),%edi
    25e1:	0f 87 95 00 00 00    	ja     267c <usb_device_init+0x14c>
    25e7:	8d 73 24             	lea    0x24(%ebx),%esi
    25ea:	89 5b 1c             	mov    %ebx,0x1c(%ebx)
    25ed:	66 89 43 20          	mov    %ax,0x20(%ebx)
    25f1:	89 7c 24 04          	mov    %edi,0x4(%esp)
    25f5:	89 34 24             	mov    %esi,(%esp)
    25f8:	e8 a3 18 00 00       	call   3ea0 <usb_pipe_initialize_default_control>
    25fd:	89 c1                	mov    %eax,%ecx
    25ff:	85 c0                	test   %eax,%eax
    2601:	74 0d                	je     2610 <usb_device_init+0xe0>
    2603:	8b 55 14             	mov    0x14(%ebp),%edx
    2606:	c7 02 b8 c9 02 00    	movl   $0x2c9b8,(%edx)
    260c:	eb 9d                	jmp    25ab <usb_device_init+0x7b>
    260e:	66 90                	xchg   %ax,%ax
    2610:	89 1c 24             	mov    %ebx,(%esp)
    2613:	e8 48 4c 00 00       	call   7260 <usb_hc_connection_open>
    2618:	89 c1                	mov    %eax,%ecx
    261a:	85 c0                	test   %eax,%eax
    261c:	74 12                	je     2630 <usb_device_init+0x100>
    261e:	8b 55 14             	mov    0x14(%ebp),%edx
    2621:	c7 02 07 c9 02 00    	movl   $0x2c907,(%edx)
    2627:	eb 82                	jmp    25ab <usb_device_init+0x7b>
    2629:	8d b4 26 00 00 00 00 	lea    0x0(%esi,%eiz,1),%esi
    2630:	c7 43 68 00 00 00 00 	movl   $0x0,0x68(%ebx)
    2637:	89 34 24             	mov    %esi,(%esp)
    263a:	e8 41 12 00 00       	call   3880 <usb_pipe_start_long_transfer>
    263f:	8d 43 54             	lea    0x54(%ebx),%eax
    2642:	89 44 24 04          	mov    %eax,0x4(%esp)
    2646:	89 34 24             	mov    %esi,(%esp)
    2649:	e8 c2 34 00 00       	call   5b10 <usb_request_get_device_descriptor>
    264e:	85 c0                	test   %eax,%eax
    2650:	74 3d                	je     268f <usb_device_init+0x15f>
    2652:	89 34 24             	mov    %esi,(%esp)
    2655:	89 45 d4             	mov    %eax,-0x2c(%ebp)
    2658:	e8 a3 12 00 00       	call   3900 <usb_pipe_end_long_transfer>
    265d:	8b 4d d4             	mov    -0x2c(%ebp),%ecx
    2660:	8b 55 14             	mov    0x14(%ebp),%edx
    2663:	c7 02 1a c9 02 00    	movl   $0x2c91a,(%edx)
    2669:	89 1c 24             	mov    %ebx,(%esp)
    266c:	89 4d d4             	mov    %ecx,-0x2c(%ebp)
    266f:	e8 9c 4c 00 00       	call   7310 <usb_hc_connection_close>
    2674:	8b 4d d4             	mov    -0x2c(%ebp),%ecx
    2677:	e9 2f ff ff ff       	jmp    25ab <usb_device_init+0x7b>
    267c:	8b 55 14             	mov    0x14(%ebp),%edx
    267f:	b9 f2 ff ff ff       	mov    $0xfffffff2,%ecx
    2684:	c7 02 dc c9 02 00    	movl   $0x2c9dc,(%edx)
    268a:	e9 1c ff ff ff       	jmp    25ab <usb_device_init+0x7b>
    268f:	8d 43 6c             	lea    0x6c(%ebx),%eax
    2692:	c7 44 24 04 00 00 00 	movl   $0x0,0x4(%esp)
    2699:	00 
    269a:	89 44 24 0c          	mov    %eax,0xc(%esp)
    269e:	8d 43 68             	lea    0x68(%ebx),%eax
    26a1:	89 44 24 08          	mov    %eax,0x8(%esp)
    26a5:	89 34 24             	mov    %esi,(%esp)
    26a8:	e8 73 36 00 00       	call   5d20 <usb_request_get_full_configuration_descriptor_alloc>
    26ad:	89 34 24             	mov    %esi,(%esp)
    26b0:	89 45 d4             	mov    %eax,-0x2c(%ebp)
    26b3:	e8 48 12 00 00       	call   3900 <usb_pipe_end_long_transfer>
    26b8:	8b 4d d4             	mov    -0x2c(%ebp),%ecx
    26bb:	85 c9                	test   %ecx,%ecx
    26bd:	75 a1                	jne    2660 <usb_device_init+0x130>
    26bf:	8b 43 44             	mov    0x44(%ebx),%eax
    26c2:	8d 73 48             	lea    0x48(%ebx),%esi
    26c5:	89 44 24 0c          	mov    %eax,0xc(%esp)
    26c9:	8b 43 6c             	mov    0x6c(%ebx),%eax
    26cc:	89 44 24 08          	mov    %eax,0x8(%esp)
    26d0:	8b 43 68             	mov    0x68(%ebx),%eax
    26d3:	89 34 24             	mov    %esi,(%esp)
    26d6:	89 44 24 04          	mov    %eax,0x4(%esp)
    26da:	e8 81 3f 00 00       	call   6660 <usb_alternate_interfaces_init>
    26df:	31 c9                	xor    %ecx,%ecx
    26e1:	85 c0                	test   %eax,%eax
    26e3:	75 03                	jne    26e8 <usb_device_init+0x1b8>
    26e5:	8b 4b 50             	mov    0x50(%ebx),%ecx
    26e8:	8d 43 40             	lea    0x40(%ebx),%eax
    26eb:	89 4c 24 14          	mov    %ecx,0x14(%esp)
    26ef:	89 44 24 1c          	mov    %eax,0x1c(%esp)
    26f3:	8d 43 3c             	lea    0x3c(%ebx),%eax
    26f6:	89 44 24 18          	mov    %eax,0x18(%esp)
    26fa:	8b 43 44             	mov    0x44(%ebx),%eax
    26fd:	89 44 24 10          	mov    %eax,0x10(%esp)
    2701:	8b 43 6c             	mov    0x6c(%ebx),%eax
    2704:	89 44 24 0c          	mov    %eax,0xc(%esp)
    2708:	8b 43 68             	mov    0x68(%ebx),%eax
    270b:	89 3c 24             	mov    %edi,(%esp)
    270e:	89 44 24 08          	mov    %eax,0x8(%esp)
    2712:	8b 45 10             	mov    0x10(%ebp),%eax
    2715:	89 44 24 04          	mov    %eax,0x4(%esp)
    2719:	e8 12 fa ff ff       	call   2130 <usb_device_create_pipes>
    271e:	89 1c 24             	mov    %ebx,(%esp)
    2721:	89 45 d4             	mov    %eax,-0x2c(%ebp)
    2724:	85 c0                	test   %eax,%eax
    2726:	75 0d                	jne    2735 <usb_device_init+0x205>
    2728:	e8 e3 4b 00 00       	call   7310 <usb_hc_connection_close>
    272d:	8b 4d d4             	mov    -0x2c(%ebp),%ecx
    2730:	e9 76 fe ff ff       	jmp    25ab <usb_device_init+0x7b>
    2735:	e8 d6 4b 00 00       	call   7310 <usb_hc_connection_close>
    273a:	8b 43 68             	mov    0x68(%ebx),%eax
    273d:	89 04 24             	mov    %eax,(%esp)
    2740:	e8 fb ad 01 00       	call   1d540 <free>
    2745:	c7 43 68 00 00 00 00 	movl   $0x0,0x68(%ebx)
    274c:	89 34 24             	mov    %esi,(%esp)
    274f:	e8 3c 41 00 00       	call   6890 <usb_alternate_interfaces_deinit>
    2754:	8b 55 14             	mov    0x14(%ebp),%edx
    2757:	8b 4d d4             	mov    -0x2c(%ebp),%ecx
    275a:	c7 02 2f c9 02 00    	movl   $0x2c92f,(%edx)
    2760:	e9 46 fe ff ff       	jmp    25ab <usb_device_init+0x7b>
    2765:	c7 44 24 08 93 01 00 	movl   $0x193,0x8(%esp)
    276c:	00 
    276d:	c7 44 24 04 3d c8 02 	movl   $0x2c83d,0x4(%esp)
    2774:	00 
    2775:	c7 04 24 db c8 02 00 	movl   $0x2c8db,(%esp)
    277c:	e8 0f 55 02 00       	call   27c90 <assert_abort>
    2781:	c7 44 24 08 92 01 00 	movl   $0x192,0x8(%esp)
    2788:	00 
    2789:	c7 44 24 04 3d c8 02 	movl   $0x2c83d,0x4(%esp)
    2790:	00 
    2791:	c7 04 24 cb c8 02 00 	movl   $0x2c8cb,(%esp)
    2798:	e8 f3 54 02 00       	call   27c90 <assert_abort>
    279d:	8d 76 00             	lea    0x0(%esi),%esi

000027a0 <usb_device_deinit>:
    27a0:	55                   	push   %ebp
    27a1:	89 e5                	mov    %esp,%ebp
    27a3:	57                   	push   %edi
    27a4:	56                   	push   %esi
    27a5:	53                   	push   %ebx
    27a6:	83 ec 3c             	sub    $0x3c,%esp
    27a9:	8b 75 08             	mov    0x8(%ebp),%esi
    27ac:	85 f6                	test   %esi,%esi
    27ae:	0f 84 c4 00 00 00    	je     2878 <usb_device_deinit+0xd8>
    27b4:	8b 55 08             	mov    0x8(%ebp),%edx
    27b7:	8b 52 40             	mov    0x40(%edx),%edx
    27ba:	89 55 e4             	mov    %edx,-0x1c(%ebp)
    27bd:	8b 55 08             	mov    0x8(%ebp),%edx
    27c0:	8b 5d e4             	mov    -0x1c(%ebp),%ebx
    27c3:	8b 7a 3c             	mov    0x3c(%edx),%edi
    27c6:	85 db                	test   %ebx,%ebx
    27c8:	74 4f                	je     2819 <usb_device_deinit+0x79>
    27ca:	85 ff                	test   %edi,%edi
    27cc:	0f 84 b8 00 00 00    	je     288a <usb_device_deinit+0xea>
    27d2:	89 fb                	mov    %edi,%ebx
    27d4:	31 f6                	xor    %esi,%esi
    27d6:	b8 c0 c8 02 00       	mov    $0x2c8c0,%eax
    27db:	80 7b 2c 00          	cmpb   $0x0,0x2c(%ebx)
    27df:	74 05                	je     27e6 <usb_device_deinit+0x46>
    27e1:	b8 e5 e5 02 00       	mov    $0x2e5e5,%eax
    27e6:	89 44 24 10          	mov    %eax,0x10(%esp)
    27ea:	89 74 24 0c          	mov    %esi,0xc(%esp)
    27ee:	c7 44 24 08 94 c9 02 	movl   $0x2c994,0x8(%esp)
    27f5:	00 
    27f6:	c7 44 24 04 05 00 00 	movl   $0x5,0x4(%esp)
    27fd:	00 
    27fe:	c7 04 24 ff ff ff ff 	movl   $0xffffffff,(%esp)
    2805:	e8 86 5b 01 00       	call   18390 <log_msg>
    280a:	80 7b 2c 00          	cmpb   $0x0,0x2c(%ebx)
    280e:	75 70                	jne    2880 <usb_device_deinit+0xe0>
    2810:	46                   	inc    %esi
    2811:	83 c3 30             	add    $0x30,%ebx
    2814:	3b 75 e4             	cmp    -0x1c(%ebp),%esi
    2817:	75 bd                	jne    27d6 <usb_device_deinit+0x36>
    2819:	89 3c 24             	mov    %edi,(%esp)
    281c:	e8 1f ad 01 00       	call   1d540 <free>
    2821:	8b 55 08             	mov    0x8(%ebp),%edx
    2824:	c7 42 3c 00 00 00 00 	movl   $0x0,0x3c(%edx)
    282b:	c7 42 40 00 00 00 00 	movl   $0x0,0x40(%edx)
    2832:	89 14 24             	mov    %edx,(%esp)
    2835:	e8 76 49 00 00       	call   71b0 <usb_hc_connection_deinitialize>
    283a:	8b 45 08             	mov    0x8(%ebp),%eax
    283d:	83 c0 48             	add    $0x48,%eax
    2840:	89 04 24             	mov    %eax,(%esp)
    2843:	e8 48 40 00 00       	call   6890 <usb_alternate_interfaces_deinit>
    2848:	8b 55 08             	mov    0x8(%ebp),%edx
    284b:	8b 42 68             	mov    0x68(%edx),%eax
    284e:	89 04 24             	mov    %eax,(%esp)
    2851:	e8 ea ac 01 00       	call   1d540 <free>
    2856:	8b 55 08             	mov    0x8(%ebp),%edx
    2859:	8b 42 74             	mov    0x74(%edx),%eax
    285c:	c7 42 68 00 00 00 00 	movl   $0x0,0x68(%edx)
    2863:	89 04 24             	mov    %eax,(%esp)
    2866:	e8 d5 ac 01 00       	call   1d540 <free>
    286b:	8b 55 08             	mov    0x8(%ebp),%edx
    286e:	c7 42 74 00 00 00 00 	movl   $0x0,0x74(%edx)
    2875:	8d 76 00             	lea    0x0(%esi),%esi
    2878:	83 c4 3c             	add    $0x3c,%esp
    287b:	5b                   	pop    %ebx
    287c:	5e                   	pop    %esi
    287d:	5f                   	pop    %edi
    287e:	5d                   	pop    %ebp
    287f:	c3                   	ret    
    2880:	89 1c 24             	mov    %ebx,(%esp)
    2883:	e8 28 17 00 00       	call   3fb0 <usb_pipe_unregister>
    2888:	eb 86                	jmp    2810 <usb_device_deinit+0x70>
    288a:	c7 44 24 08 7d 01 00 	movl   $0x17d,0x8(%esp)
    2891:	00 
    2892:	c7 44 24 04 3d c8 02 	movl   $0x2c83d,0x4(%esp)
    2899:	00 
    289a:	c7 04 24 c5 c8 02 00 	movl   $0x2c8c5,(%esp)
    28a1:	e8 ea 53 02 00       	call   27c90 <assert_abort>
    28a6:	8d 76 00             	lea    0x0(%esi),%esi
    28a9:	8d bc 27 00 00 00 00 	lea    0x0(%edi,%eiz,1),%edi

000028b0 <generic_device_gone>:
    28b0:	55                   	push   %ebp
    28b1:	89 e5                	mov    %esp,%ebp
    28b3:	56                   	push   %esi
    28b4:	83 ec 24             	sub    $0x24,%esp
    28b7:	a1 64 06 03 00       	mov    0x30664,%eax
    28bc:	85 c0                	test   %eax,%eax
    28be:	74 73                	je     2933 <generic_device_gone+0x83>
    28c0:	8b 40 08             	mov    0x8(%eax),%eax
    28c3:	85 c0                	test   %eax,%eax
    28c5:	74 50                	je     2917 <generic_device_gone+0x67>
    28c7:	8b 40 08             	mov    0x8(%eax),%eax
    28ca:	85 c0                	test   %eax,%eax
    28cc:	74 42                	je     2910 <generic_device_gone+0x60>
    28ce:	8b 45 08             	mov    0x8(%ebp),%eax
    28d1:	89 04 24             	mov    %eax,(%esp)
    28d4:	e8 f7 61 00 00       	call   8ad0 <ddf_dev_data_get>
    28d9:	89 c6                	mov    %eax,%esi
    28db:	a1 64 06 03 00       	mov    0x30664,%eax
    28e0:	8b 40 08             	mov    0x8(%eax),%eax
    28e3:	89 34 24             	mov    %esi,(%esp)
    28e6:	ff 50 08             	call   *0x8(%eax)
    28e9:	85 c0                	test   %eax,%eax
    28eb:	74 0b                	je     28f8 <generic_device_gone+0x48>
    28ed:	83 c4 24             	add    $0x24,%esp
    28f0:	5e                   	pop    %esi
    28f1:	5d                   	pop    %ebp
    28f2:	c3                   	ret    
    28f3:	90                   	nop
    28f4:	8d 74 26 00          	lea    0x0(%esi,%eiz,1),%esi
    28f8:	89 34 24             	mov    %esi,(%esp)
    28fb:	89 45 f4             	mov    %eax,-0xc(%ebp)
    28fe:	e8 9d fe ff ff       	call   27a0 <usb_device_deinit>
    2903:	8b 45 f4             	mov    -0xc(%ebp),%eax
    2906:	83 c4 24             	add    $0x24,%esp
    2909:	5e                   	pop    %esi
    290a:	5d                   	pop    %ebp
    290b:	c3                   	ret    
    290c:	8d 74 26 00          	lea    0x0(%esi,%eiz,1),%esi
    2910:	b8 f5 ff ff ff       	mov    $0xfffffff5,%eax
    2915:	eb d6                	jmp    28ed <generic_device_gone+0x3d>
    2917:	c7 44 24 08 9f 00 00 	movl   $0x9f,0x8(%esp)
    291e:	00 
    291f:	c7 44 24 04 3d c8 02 	movl   $0x2c83d,0x4(%esp)
    2926:	00 
    2927:	c7 04 24 4b c9 02 00 	movl   $0x2c94b,(%esp)
    292e:	e8 5d 53 02 00       	call   27c90 <assert_abort>
    2933:	c7 44 24 08 9e 00 00 	movl   $0x9e,0x8(%esp)
    293a:	00 
    293b:	c7 44 24 04 3d c8 02 	movl   $0x2c83d,0x4(%esp)
    2942:	00 
    2943:	c7 04 24 44 c9 02 00 	movl   $0x2c944,(%esp)
    294a:	e8 41 53 02 00       	call   27c90 <assert_abort>
    294f:	90                   	nop

00002950 <generic_device_remove>:
    2950:	55                   	push   %ebp
    2951:	89 e5                	mov    %esp,%ebp
    2953:	56                   	push   %esi
    2954:	83 ec 24             	sub    $0x24,%esp
    2957:	a1 64 06 03 00       	mov    0x30664,%eax
    295c:	85 c0                	test   %eax,%eax
    295e:	74 6b                	je     29cb <generic_device_remove+0x7b>
    2960:	8b 40 08             	mov    0x8(%eax),%eax
    2963:	85 c0                	test   %eax,%eax
    2965:	74 48                	je     29af <generic_device_remove+0x5f>
    2967:	8b 40 04             	mov    0x4(%eax),%eax
    296a:	85 c0                	test   %eax,%eax
    296c:	74 3a                	je     29a8 <generic_device_remove+0x58>
    296e:	8b 45 08             	mov    0x8(%ebp),%eax
    2971:	89 04 24             	mov    %eax,(%esp)
    2974:	e8 57 61 00 00       	call   8ad0 <ddf_dev_data_get>
    2979:	89 c6                	mov    %eax,%esi
    297b:	a1 64 06 03 00       	mov    0x30664,%eax
    2980:	8b 40 08             	mov    0x8(%eax),%eax
    2983:	89 34 24             	mov    %esi,(%esp)
    2986:	ff 50 04             	call   *0x4(%eax)
    2989:	85 c0                	test   %eax,%eax
    298b:	75 0e                	jne    299b <generic_device_remove+0x4b>
    298d:	89 34 24             	mov    %esi,(%esp)
    2990:	89 45 f4             	mov    %eax,-0xc(%ebp)
    2993:	e8 08 fe ff ff       	call   27a0 <usb_device_deinit>
    2998:	8b 45 f4             	mov    -0xc(%ebp),%eax
    299b:	83 c4 24             	add    $0x24,%esp
    299e:	5e                   	pop    %esi
    299f:	5d                   	pop    %ebp
    29a0:	c3                   	ret    
    29a1:	8d b4 26 00 00 00 00 	lea    0x0(%esi,%eiz,1),%esi
    29a8:	b8 f5 ff ff ff       	mov    $0xfffffff5,%eax
    29ad:	eb ec                	jmp    299b <generic_device_remove+0x4b>
    29af:	c7 44 24 08 89 00 00 	movl   $0x89,0x8(%esp)
    29b6:	00 
    29b7:	c7 44 24 04 3d c8 02 	movl   $0x2c83d,0x4(%esp)
    29be:	00 
    29bf:	c7 04 24 4b c9 02 00 	movl   $0x2c94b,(%esp)
    29c6:	e8 c5 52 02 00       	call   27c90 <assert_abort>
    29cb:	c7 44 24 08 88 00 00 	movl   $0x88,0x8(%esp)
    29d2:	00 
    29d3:	c7 44 24 04 3d c8 02 	movl   $0x2c83d,0x4(%esp)
    29da:	00 
    29db:	c7 04 24 44 c9 02 00 	movl   $0x2c944,(%esp)
    29e2:	e8 a9 52 02 00       	call   27c90 <assert_abort>
    29e7:	89 f6                	mov    %esi,%esi
    29e9:	8d bc 27 00 00 00 00 	lea    0x0(%edi,%eiz,1),%edi

000029f0 <generic_device_add>:
    29f0:	55                   	push   %ebp
    29f1:	89 e5                	mov    %esp,%ebp
    29f3:	57                   	push   %edi
    29f4:	56                   	push   %esi
    29f5:	53                   	push   %ebx
    29f6:	83 ec 4c             	sub    $0x4c,%esp
    29f9:	a1 64 06 03 00       	mov    0x30664,%eax
    29fe:	8b 7d 08             	mov    0x8(%ebp),%edi
    2a01:	85 c0                	test   %eax,%eax
    2a03:	0f 84 2f 01 00 00    	je     2b38 <generic_device_add+0x148>
    2a09:	8b 40 08             	mov    0x8(%eax),%eax
    2a0c:	85 c0                	test   %eax,%eax
    2a0e:	0f 84 08 01 00 00    	je     2b1c <generic_device_add+0x12c>
    2a14:	8b 00                	mov    (%eax),%eax
    2a16:	85 c0                	test   %eax,%eax
    2a18:	0f 84 36 01 00 00    	je     2b54 <generic_device_add+0x164>
    2a1e:	c7 44 24 04 78 00 00 	movl   $0x78,0x4(%esp)
    2a25:	00 
    2a26:	89 3c 24             	mov    %edi,(%esp)
    2a29:	e8 12 60 00 00       	call   8a40 <ddf_dev_data_alloc>
    2a2e:	89 c6                	mov    %eax,%esi
    2a30:	85 c0                	test   %eax,%eax
    2a32:	0f 84 b2 00 00 00    	je     2aea <generic_device_add+0xfa>
    2a38:	8d 45 e4             	lea    -0x1c(%ebp),%eax
    2a3b:	c7 45 e4 00 00 00 00 	movl   $0x0,-0x1c(%ebp)
    2a42:	89 44 24 0c          	mov    %eax,0xc(%esp)
    2a46:	a1 64 06 03 00       	mov    0x30664,%eax
    2a4b:	8b 40 04             	mov    0x4(%eax),%eax
    2a4e:	89 7c 24 04          	mov    %edi,0x4(%esp)
    2a52:	89 44 24 08          	mov    %eax,0x8(%esp)
    2a56:	89 34 24             	mov    %esi,(%esp)
    2a59:	e8 d2 fa ff ff       	call   2530 <usb_device_init>
    2a5e:	89 c3                	mov    %eax,%ebx
    2a60:	85 c0                	test   %eax,%eax
    2a62:	75 24                	jne    2a88 <generic_device_add+0x98>
    2a64:	a1 64 06 03 00       	mov    0x30664,%eax
    2a69:	8b 40 08             	mov    0x8(%eax),%eax
    2a6c:	89 34 24             	mov    %esi,(%esp)
    2a6f:	ff 10                	call   *(%eax)
    2a71:	89 c3                	mov    %eax,%ebx
    2a73:	85 c0                	test   %eax,%eax
    2a75:	75 61                	jne    2ad8 <generic_device_add+0xe8>
    2a77:	83 c4 4c             	add    $0x4c,%esp
    2a7a:	89 d8                	mov    %ebx,%eax
    2a7c:	5b                   	pop    %ebx
    2a7d:	5e                   	pop    %esi
    2a7e:	5f                   	pop    %edi
    2a7f:	5d                   	pop    %ebp
    2a80:	c3                   	ret    
    2a81:	8d b4 26 00 00 00 00 	lea    0x0(%esi,%eiz,1),%esi
    2a88:	89 04 24             	mov    %eax,(%esp)
    2a8b:	e8 30 0c 01 00       	call   136c0 <str_error>
    2a90:	89 3c 24             	mov    %edi,(%esp)
    2a93:	8b 75 e4             	mov    -0x1c(%ebp),%esi
    2a96:	89 45 d4             	mov    %eax,-0x2c(%ebp)
    2a99:	e8 52 60 00 00       	call   8af0 <ddf_dev_get_name>
    2a9e:	8b 55 d4             	mov    -0x2c(%ebp),%edx
    2aa1:	89 74 24 10          	mov    %esi,0x10(%esp)
    2aa5:	89 44 24 0c          	mov    %eax,0xc(%esp)
    2aa9:	89 54 24 14          	mov    %edx,0x14(%esp)
    2aad:	c7 44 24 08 30 ca 02 	movl   $0x2ca30,0x8(%esp)
    2ab4:	00 
    2ab5:	c7 44 24 04 01 00 00 	movl   $0x1,0x4(%esp)
    2abc:	00 
    2abd:	c7 04 24 ff ff ff ff 	movl   $0xffffffff,(%esp)
    2ac4:	e8 c7 58 01 00       	call   18390 <log_msg>
    2ac9:	83 c4 4c             	add    $0x4c,%esp
    2acc:	89 d8                	mov    %ebx,%eax
    2ace:	5b                   	pop    %ebx
    2acf:	5e                   	pop    %esi
    2ad0:	5f                   	pop    %edi
    2ad1:	5d                   	pop    %ebp
    2ad2:	c3                   	ret    
    2ad3:	90                   	nop
    2ad4:	8d 74 26 00          	lea    0x0(%esi,%eiz,1),%esi
    2ad8:	89 34 24             	mov    %esi,(%esp)
    2adb:	e8 c0 fc ff ff       	call   27a0 <usb_device_deinit>
    2ae0:	83 c4 4c             	add    $0x4c,%esp
    2ae3:	89 d8                	mov    %ebx,%eax
    2ae5:	5b                   	pop    %ebx
    2ae6:	5e                   	pop    %esi
    2ae7:	5f                   	pop    %edi
    2ae8:	5d                   	pop    %ebp
    2ae9:	c3                   	ret    
    2aea:	89 3c 24             	mov    %edi,(%esp)
    2aed:	bb fe ff ff ff       	mov    $0xfffffffe,%ebx
    2af2:	e8 f9 5f 00 00       	call   8af0 <ddf_dev_get_name>
    2af7:	c7 44 24 08 00 ca 02 	movl   $0x2ca00,0x8(%esp)
    2afe:	00 
    2aff:	89 44 24 0c          	mov    %eax,0xc(%esp)
    2b03:	c7 44 24 04 01 00 00 	movl   $0x1,0x4(%esp)
    2b0a:	00 
    2b0b:	c7 04 24 ff ff ff ff 	movl   $0xffffffff,(%esp)
    2b12:	e8 79 58 01 00       	call   18390 <log_msg>
    2b17:	e9 5b ff ff ff       	jmp    2a77 <generic_device_add+0x87>
    2b1c:	c7 44 24 08 64 00 00 	movl   $0x64,0x8(%esp)
    2b23:	00 
    2b24:	c7 44 24 04 3d c8 02 	movl   $0x2c83d,0x4(%esp)
    2b2b:	00 
    2b2c:	c7 04 24 4b c9 02 00 	movl   $0x2c94b,(%esp)
    2b33:	e8 58 51 02 00       	call   27c90 <assert_abort>
    2b38:	c7 44 24 08 63 00 00 	movl   $0x63,0x8(%esp)
    2b3f:	00 
    2b40:	c7 44 24 04 3d c8 02 	movl   $0x2c83d,0x4(%esp)
    2b47:	00 
    2b48:	c7 04 24 44 c9 02 00 	movl   $0x2c944,(%esp)
    2b4f:	e8 3c 51 02 00       	call   27c90 <assert_abort>
    2b54:	c7 44 24 08 65 00 00 	movl   $0x65,0x8(%esp)
    2b5b:	00 
    2b5c:	c7 44 24 04 3d c8 02 	movl   $0x2c83d,0x4(%esp)
    2b63:	00 
    2b64:	c7 04 24 57 c9 02 00 	movl   $0x2c957,(%esp)
    2b6b:	e8 20 51 02 00       	call   27c90 <assert_abort>

00002b70 <usb_device_data_alloc>:
    2b70:	55                   	push   %ebp
    2b71:	89 e5                	mov    %esp,%ebp
    2b73:	53                   	push   %ebx
    2b74:	83 ec 14             	sub    $0x14,%esp
    2b77:	8b 5d 08             	mov    0x8(%ebp),%ebx
    2b7a:	85 db                	test   %ebx,%ebx
    2b7c:	74 23                	je     2ba1 <usb_device_data_alloc+0x31>
    2b7e:	8b 43 74             	mov    0x74(%ebx),%eax
    2b81:	85 c0                	test   %eax,%eax
    2b83:	75 38                	jne    2bbd <usb_device_data_alloc+0x4d>
    2b85:	8b 45 0c             	mov    0xc(%ebp),%eax
    2b88:	c7 04 24 01 00 00 00 	movl   $0x1,(%esp)
    2b8f:	89 44 24 04          	mov    %eax,0x4(%esp)
    2b93:	e8 38 a8 01 00       	call   1d3d0 <calloc>
    2b98:	89 43 74             	mov    %eax,0x74(%ebx)
    2b9b:	83 c4 14             	add    $0x14,%esp
    2b9e:	5b                   	pop    %ebx
    2b9f:	5d                   	pop    %ebp
    2ba0:	c3                   	ret    
    2ba1:	c7 44 24 08 05 02 00 	movl   $0x205,0x8(%esp)
    2ba8:	00 
    2ba9:	c7 44 24 04 3d c8 02 	movl   $0x2c83d,0x4(%esp)
    2bb0:	00 
    2bb1:	c7 04 24 6f c9 02 00 	movl   $0x2c96f,(%esp)
    2bb8:	e8 d3 50 02 00       	call   27c90 <assert_abort>
    2bbd:	c7 44 24 08 06 02 00 	movl   $0x206,0x8(%esp)
    2bc4:	00 
    2bc5:	c7 44 24 04 3d c8 02 	movl   $0x2c83d,0x4(%esp)
    2bcc:	00 
    2bcd:	c7 04 24 77 c9 02 00 	movl   $0x2c977,(%esp)
    2bd4:	e8 b7 50 02 00       	call   27c90 <assert_abort>
    2bd9:	66 90                	xchg   %ax,%ax
    2bdb:	66 90                	xchg   %ax,%ax
    2bdd:	66 90                	xchg   %ax,%ax
    2bdf:	90                   	nop

00002be0 <usb_dp_get_nested_descriptor>:
    2be0:	55                   	push   %ebp
    2be1:	89 e5                	mov    %esp,%ebp
    2be3:	57                   	push   %edi
    2be4:	56                   	push   %esi
    2be5:	53                   	push   %ebx
    2be6:	8b 55 10             	mov    0x10(%ebp),%edx
    2be9:	8b 5d 0c             	mov    0xc(%ebp),%ebx
    2bec:	85 d2                	test   %edx,%edx
    2bee:	0f 84 94 00 00 00    	je     2c88 <usb_dp_get_nested_descriptor+0xa8>
    2bf4:	8b 0b                	mov    (%ebx),%ecx
    2bf6:	31 c0                	xor    %eax,%eax
    2bf8:	39 ca                	cmp    %ecx,%edx
    2bfa:	0f 82 80 00 00 00    	jb     2c80 <usb_dp_get_nested_descriptor+0xa0>
    2c00:	89 d6                	mov    %edx,%esi
    2c02:	8b 5b 04             	mov    0x4(%ebx),%ebx
    2c05:	29 ce                	sub    %ecx,%esi
    2c07:	39 de                	cmp    %ebx,%esi
    2c09:	73 75                	jae    2c80 <usb_dp_get_nested_descriptor+0xa0>
    2c0b:	31 c0                	xor    %eax,%eax
    2c0d:	8a 02                	mov    (%edx),%al
    2c0f:	01 d0                	add    %edx,%eax
    2c11:	74 6d                	je     2c80 <usb_dp_get_nested_descriptor+0xa0>
    2c13:	39 c1                	cmp    %eax,%ecx
    2c15:	77 71                	ja     2c88 <usb_dp_get_nested_descriptor+0xa8>
    2c17:	89 c6                	mov    %eax,%esi
    2c19:	29 ce                	sub    %ecx,%esi
    2c1b:	39 f3                	cmp    %esi,%ebx
    2c1d:	76 69                	jbe    2c88 <usb_dp_get_nested_descriptor+0xa8>
    2c1f:	89 d6                	mov    %edx,%esi
    2c21:	83 cf ff             	or     $0xffffffff,%edi
    2c24:	46                   	inc    %esi
    2c25:	74 15                	je     2c3c <usb_dp_get_nested_descriptor+0x5c>
    2c27:	39 f1                	cmp    %esi,%ecx
    2c29:	77 11                	ja     2c3c <usb_dp_get_nested_descriptor+0x5c>
    2c2b:	29 ce                	sub    %ecx,%esi
    2c2d:	39 f3                	cmp    %esi,%ebx
    2c2f:	76 0b                	jbe    2c3c <usb_dp_get_nested_descriptor+0x5c>
    2c31:	8a 52 01             	mov    0x1(%edx),%dl
    2c34:	81 e2 ff 00 00 00    	and    $0xff,%edx
    2c3a:	89 d7                	mov    %edx,%edi
    2c3c:	89 c2                	mov    %eax,%edx
    2c3e:	83 ce ff             	or     $0xffffffff,%esi
    2c41:	42                   	inc    %edx
    2c42:	74 15                	je     2c59 <usb_dp_get_nested_descriptor+0x79>
    2c44:	39 d1                	cmp    %edx,%ecx
    2c46:	77 11                	ja     2c59 <usb_dp_get_nested_descriptor+0x79>
    2c48:	29 ca                	sub    %ecx,%edx
    2c4a:	39 d3                	cmp    %edx,%ebx
    2c4c:	76 0b                	jbe    2c59 <usb_dp_get_nested_descriptor+0x79>
    2c4e:	8a 50 01             	mov    0x1(%eax),%dl
    2c51:	81 e2 ff 00 00 00    	and    $0xff,%edx
    2c57:	89 d6                	mov    %edx,%esi
    2c59:	8b 55 08             	mov    0x8(%ebp),%edx
    2c5c:	8b 12                	mov    (%edx),%edx
    2c5e:	8b 0a                	mov    (%edx),%ecx
    2c60:	85 c9                	test   %ecx,%ecx
    2c62:	7f 0d                	jg     2c71 <usb_dp_get_nested_descriptor+0x91>
    2c64:	eb 22                	jmp    2c88 <usb_dp_get_nested_descriptor+0xa8>
    2c66:	66 90                	xchg   %ax,%ax
    2c68:	83 c2 08             	add    $0x8,%edx
    2c6b:	8b 0a                	mov    (%edx),%ecx
    2c6d:	85 c9                	test   %ecx,%ecx
    2c6f:	7e 17                	jle    2c88 <usb_dp_get_nested_descriptor+0xa8>
    2c71:	8b 5a 04             	mov    0x4(%edx),%ebx
    2c74:	85 db                	test   %ebx,%ebx
    2c76:	7e 10                	jle    2c88 <usb_dp_get_nested_descriptor+0xa8>
    2c78:	39 ce                	cmp    %ecx,%esi
    2c7a:	75 ec                	jne    2c68 <usb_dp_get_nested_descriptor+0x88>
    2c7c:	39 df                	cmp    %ebx,%edi
    2c7e:	75 e8                	jne    2c68 <usb_dp_get_nested_descriptor+0x88>
    2c80:	5b                   	pop    %ebx
    2c81:	5e                   	pop    %esi
    2c82:	5f                   	pop    %edi
    2c83:	5d                   	pop    %ebp
    2c84:	c3                   	ret    
    2c85:	8d 76 00             	lea    0x0(%esi),%esi
    2c88:	5b                   	pop    %ebx
    2c89:	31 c0                	xor    %eax,%eax
    2c8b:	5e                   	pop    %esi
    2c8c:	5f                   	pop    %edi
    2c8d:	5d                   	pop    %ebp
    2c8e:	c3                   	ret    
    2c8f:	90                   	nop

00002c90 <skip_nested_descriptors>:
    2c90:	55                   	push   %ebp
    2c91:	89 e5                	mov    %esp,%ebp
    2c93:	57                   	push   %edi
    2c94:	56                   	push   %esi
    2c95:	53                   	push   %ebx
    2c96:	83 ec 3c             	sub    $0x3c,%esp
    2c99:	89 45 d0             	mov    %eax,-0x30(%ebp)
    2c9c:	89 55 e4             	mov    %edx,-0x1c(%ebp)
    2c9f:	89 4d d4             	mov    %ecx,-0x2c(%ebp)
    2ca2:	89 4c 24 08          	mov    %ecx,0x8(%esp)
    2ca6:	89 54 24 04          	mov    %edx,0x4(%esp)
    2caa:	89 04 24             	mov    %eax,(%esp)
    2cad:	e8 2e ff ff ff       	call   2be0 <usb_dp_get_nested_descriptor>
    2cb2:	85 c0                	test   %eax,%eax
    2cb4:	0f 84 ee 00 00 00    	je     2da8 <skip_nested_descriptors+0x118>
    2cba:	89 c1                	mov    %eax,%ecx
    2cbc:	8b 55 e4             	mov    -0x1c(%ebp),%edx
    2cbf:	8b 45 d0             	mov    -0x30(%ebp),%eax
    2cc2:	e8 c9 ff ff ff       	call   2c90 <skip_nested_descriptors>
    2cc7:	8b 75 d0             	mov    -0x30(%ebp),%esi
    2cca:	8b 36                	mov    (%esi),%esi
    2ccc:	89 75 e0             	mov    %esi,-0x20(%ebp)
    2ccf:	8b 1e                	mov    (%esi),%ebx
    2cd1:	8b 75 d4             	mov    -0x2c(%ebp),%esi
    2cd4:	46                   	inc    %esi
    2cd5:	89 5d dc             	mov    %ebx,-0x24(%ebp)
    2cd8:	8b 5d d4             	mov    -0x2c(%ebp),%ebx
    2cdb:	89 75 d8             	mov    %esi,-0x28(%ebp)
    2cde:	85 db                	test   %ebx,%ebx
    2ce0:	0f 84 a2 00 00 00    	je     2d88 <skip_nested_descriptors+0xf8>
    2ce6:	8b 4d d8             	mov    -0x28(%ebp),%ecx
    2ce9:	85 c9                	test   %ecx,%ecx
    2ceb:	0f 84 97 00 00 00    	je     2d88 <skip_nested_descriptors+0xf8>
    2cf1:	8b 4d e4             	mov    -0x1c(%ebp),%ecx
    2cf4:	8b 11                	mov    (%ecx),%edx
    2cf6:	83 c9 ff             	or     $0xffffffff,%ecx
    2cf9:	39 55 d8             	cmp    %edx,-0x28(%ebp)
    2cfc:	72 15                	jb     2d13 <skip_nested_descriptors+0x83>
    2cfe:	8b 5d d8             	mov    -0x28(%ebp),%ebx
    2d01:	8b 75 e4             	mov    -0x1c(%ebp),%esi
    2d04:	29 d3                	sub    %edx,%ebx
    2d06:	3b 5e 04             	cmp    0x4(%esi),%ebx
    2d09:	73 08                	jae    2d13 <skip_nested_descriptors+0x83>
    2d0b:	8b 55 d4             	mov    -0x2c(%ebp),%edx
    2d0e:	31 c9                	xor    %ecx,%ecx
    2d10:	8a 4a 01             	mov    0x1(%edx),%cl
    2d13:	85 c0                	test   %eax,%eax
    2d15:	74 79                	je     2d90 <skip_nested_descriptors+0x100>
    2d17:	89 c2                	mov    %eax,%edx
    2d19:	42                   	inc    %edx
    2d1a:	74 74                	je     2d90 <skip_nested_descriptors+0x100>
    2d1c:	8b 75 e4             	mov    -0x1c(%ebp),%esi
    2d1f:	83 cf ff             	or     $0xffffffff,%edi
    2d22:	8b 1e                	mov    (%esi),%ebx
    2d24:	39 da                	cmp    %ebx,%edx
    2d26:	72 12                	jb     2d3a <skip_nested_descriptors+0xaa>
    2d28:	29 da                	sub    %ebx,%edx
    2d2a:	3b 56 04             	cmp    0x4(%esi),%edx
    2d2d:	73 0b                	jae    2d3a <skip_nested_descriptors+0xaa>
    2d2f:	8a 58 01             	mov    0x1(%eax),%bl
    2d32:	81 e3 ff 00 00 00    	and    $0xff,%ebx
    2d38:	89 df                	mov    %ebx,%edi
    2d3a:	8b 55 dc             	mov    -0x24(%ebp),%edx
    2d3d:	85 d2                	test   %edx,%edx
    2d3f:	7e 5f                	jle    2da0 <skip_nested_descriptors+0x110>
    2d41:	8b 5d e0             	mov    -0x20(%ebp),%ebx
    2d44:	8b 73 04             	mov    0x4(%ebx),%esi
    2d47:	85 f6                	test   %esi,%esi
    2d49:	7e 55                	jle    2da0 <skip_nested_descriptors+0x110>
    2d4b:	89 da                	mov    %ebx,%edx
    2d4d:	8b 5d dc             	mov    -0x24(%ebp),%ebx
    2d50:	eb 16                	jmp    2d68 <skip_nested_descriptors+0xd8>
    2d52:	8d b6 00 00 00 00    	lea    0x0(%esi),%esi
    2d58:	83 c2 08             	add    $0x8,%edx
    2d5b:	8b 1a                	mov    (%edx),%ebx
    2d5d:	85 db                	test   %ebx,%ebx
    2d5f:	7e 3f                	jle    2da0 <skip_nested_descriptors+0x110>
    2d61:	8b 72 04             	mov    0x4(%edx),%esi
    2d64:	85 f6                	test   %esi,%esi
    2d66:	7e 38                	jle    2da0 <skip_nested_descriptors+0x110>
    2d68:	39 df                	cmp    %ebx,%edi
    2d6a:	75 ec                	jne    2d58 <skip_nested_descriptors+0xc8>
    2d6c:	39 f1                	cmp    %esi,%ecx
    2d6e:	75 e8                	jne    2d58 <skip_nested_descriptors+0xc8>
    2d70:	89 c1                	mov    %eax,%ecx
    2d72:	8b 55 e4             	mov    -0x1c(%ebp),%edx
    2d75:	8b 45 d0             	mov    -0x30(%ebp),%eax
    2d78:	e8 13 ff ff ff       	call   2c90 <skip_nested_descriptors>
    2d7d:	8b 5d d4             	mov    -0x2c(%ebp),%ebx
    2d80:	85 db                	test   %ebx,%ebx
    2d82:	0f 85 5e ff ff ff    	jne    2ce6 <skip_nested_descriptors+0x56>
    2d88:	83 c9 ff             	or     $0xffffffff,%ecx
    2d8b:	85 c0                	test   %eax,%eax
    2d8d:	75 88                	jne    2d17 <skip_nested_descriptors+0x87>
    2d8f:	90                   	nop
    2d90:	8b 55 dc             	mov    -0x24(%ebp),%edx
    2d93:	83 cf ff             	or     $0xffffffff,%edi
    2d96:	85 d2                	test   %edx,%edx
    2d98:	7f a7                	jg     2d41 <skip_nested_descriptors+0xb1>
    2d9a:	8d b6 00 00 00 00    	lea    0x0(%esi),%esi
    2da0:	83 c4 3c             	add    $0x3c,%esp
    2da3:	5b                   	pop    %ebx
    2da4:	5e                   	pop    %esi
    2da5:	5f                   	pop    %edi
    2da6:	5d                   	pop    %ebp
    2da7:	c3                   	ret    
    2da8:	8b 75 d4             	mov    -0x2c(%ebp),%esi
    2dab:	85 f6                	test   %esi,%esi
    2dad:	74 3a                	je     2de9 <skip_nested_descriptors+0x159>
    2daf:	8b 45 e4             	mov    -0x1c(%ebp),%eax
    2db2:	8b 10                	mov    (%eax),%edx
    2db4:	39 55 d4             	cmp    %edx,-0x2c(%ebp)
    2db7:	72 30                	jb     2de9 <skip_nested_descriptors+0x159>
    2db9:	8b 48 04             	mov    0x4(%eax),%ecx
    2dbc:	8b 45 d4             	mov    -0x2c(%ebp),%eax
    2dbf:	29 d0                	sub    %edx,%eax
    2dc1:	39 c8                	cmp    %ecx,%eax
    2dc3:	73 24                	jae    2de9 <skip_nested_descriptors+0x159>
    2dc5:	8b 75 d4             	mov    -0x2c(%ebp),%esi
    2dc8:	31 c0                	xor    %eax,%eax
    2dca:	8a 06                	mov    (%esi),%al
    2dcc:	01 f0                	add    %esi,%eax
    2dce:	74 d0                	je     2da0 <skip_nested_descriptors+0x110>
    2dd0:	39 c2                	cmp    %eax,%edx
    2dd2:	77 1a                	ja     2dee <skip_nested_descriptors+0x15e>
    2dd4:	89 c3                	mov    %eax,%ebx
    2dd6:	29 d3                	sub    %edx,%ebx
    2dd8:	39 d9                	cmp    %ebx,%ecx
    2dda:	0f 97 c2             	seta   %dl
    2ddd:	81 e2 ff 00 00 00    	and    $0xff,%edx
    2de3:	f7 da                	neg    %edx
    2de5:	21 d0                	and    %edx,%eax
    2de7:	eb b7                	jmp    2da0 <skip_nested_descriptors+0x110>
    2de9:	e8 63 0a 00 00       	call   3851 <get_next_descriptor.part.1>
    2dee:	31 c0                	xor    %eax,%eax
    2df0:	eb ae                	jmp    2da0 <skip_nested_descriptors+0x110>
    2df2:	8d b4 26 00 00 00 00 	lea    0x0(%esi,%eiz,1),%esi
    2df9:	8d bc 27 00 00 00 00 	lea    0x0(%edi,%eiz,1),%edi

00002e00 <usb_dp_get_sibling_descriptor>:
    2e00:	55                   	push   %ebp
    2e01:	89 e5                	mov    %esp,%ebp
    2e03:	57                   	push   %edi
    2e04:	56                   	push   %esi
    2e05:	53                   	push   %ebx
    2e06:	83 ec 0c             	sub    $0xc,%esp
    2e09:	8b 75 10             	mov    0x10(%ebp),%esi
    2e0c:	8b 55 0c             	mov    0xc(%ebp),%edx
    2e0f:	85 f6                	test   %esi,%esi
    2e11:	0f 84 a1 00 00 00    	je     2eb8 <usb_dp_get_sibling_descriptor+0xb8>
    2e17:	8b 1a                	mov    (%edx),%ebx
    2e19:	31 c0                	xor    %eax,%eax
    2e1b:	39 de                	cmp    %ebx,%esi
    2e1d:	0f 82 8d 00 00 00    	jb     2eb0 <usb_dp_get_sibling_descriptor+0xb0>
    2e23:	89 f1                	mov    %esi,%ecx
    2e25:	8b 7a 04             	mov    0x4(%edx),%edi
    2e28:	29 d9                	sub    %ebx,%ecx
    2e2a:	39 f9                	cmp    %edi,%ecx
    2e2c:	0f 83 7e 00 00 00    	jae    2eb0 <usb_dp_get_sibling_descriptor+0xb0>
    2e32:	8b 4d 14             	mov    0x14(%ebp),%ecx
    2e35:	85 c9                	test   %ecx,%ecx
    2e37:	74 77                	je     2eb0 <usb_dp_get_sibling_descriptor+0xb0>
    2e39:	39 5d 14             	cmp    %ebx,0x14(%ebp)
    2e3c:	72 72                	jb     2eb0 <usb_dp_get_sibling_descriptor+0xb0>
    2e3e:	8b 4d 14             	mov    0x14(%ebp),%ecx
    2e41:	29 d9                	sub    %ebx,%ecx
    2e43:	39 cf                	cmp    %ecx,%edi
    2e45:	76 69                	jbe    2eb0 <usb_dp_get_sibling_descriptor+0xb0>
    2e47:	8b 4d 14             	mov    0x14(%ebp),%ecx
    2e4a:	8b 45 08             	mov    0x8(%ebp),%eax
    2e4d:	e8 3e fe ff ff       	call   2c90 <skip_nested_descriptors>
    2e52:	85 c0                	test   %eax,%eax
    2e54:	74 5a                	je     2eb0 <usb_dp_get_sibling_descriptor+0xb0>
    2e56:	89 f2                	mov    %esi,%edx
    2e58:	83 c9 ff             	or     $0xffffffff,%ecx
    2e5b:	42                   	inc    %edx
    2e5c:	74 0f                	je     2e6d <usb_dp_get_sibling_descriptor+0x6d>
    2e5e:	39 d3                	cmp    %edx,%ebx
    2e60:	77 0b                	ja     2e6d <usb_dp_get_sibling_descriptor+0x6d>
    2e62:	29 da                	sub    %ebx,%edx
    2e64:	39 d7                	cmp    %edx,%edi
    2e66:	76 05                	jbe    2e6d <usb_dp_get_sibling_descriptor+0x6d>
    2e68:	31 c9                	xor    %ecx,%ecx
    2e6a:	8a 4e 01             	mov    0x1(%esi),%cl
    2e6d:	89 c2                	mov    %eax,%edx
    2e6f:	83 ce ff             	or     $0xffffffff,%esi
    2e72:	42                   	inc    %edx
    2e73:	74 15                	je     2e8a <usb_dp_get_sibling_descriptor+0x8a>
    2e75:	39 d3                	cmp    %edx,%ebx
    2e77:	77 11                	ja     2e8a <usb_dp_get_sibling_descriptor+0x8a>
    2e79:	29 da                	sub    %ebx,%edx
    2e7b:	39 d7                	cmp    %edx,%edi
    2e7d:	76 0b                	jbe    2e8a <usb_dp_get_sibling_descriptor+0x8a>
    2e7f:	8a 50 01             	mov    0x1(%eax),%dl
    2e82:	81 e2 ff 00 00 00    	and    $0xff,%edx
    2e88:	89 d6                	mov    %edx,%esi
    2e8a:	8b 5d 08             	mov    0x8(%ebp),%ebx
    2e8d:	8b 13                	mov    (%ebx),%edx
    2e8f:	8b 1a                	mov    (%edx),%ebx
    2e91:	85 db                	test   %ebx,%ebx
    2e93:	7f 0c                	jg     2ea1 <usb_dp_get_sibling_descriptor+0xa1>
    2e95:	eb 21                	jmp    2eb8 <usb_dp_get_sibling_descriptor+0xb8>
    2e97:	90                   	nop
    2e98:	83 c2 08             	add    $0x8,%edx
    2e9b:	8b 1a                	mov    (%edx),%ebx
    2e9d:	85 db                	test   %ebx,%ebx
    2e9f:	7e 17                	jle    2eb8 <usb_dp_get_sibling_descriptor+0xb8>
    2ea1:	8b 7a 04             	mov    0x4(%edx),%edi
    2ea4:	85 ff                	test   %edi,%edi
    2ea6:	7e 10                	jle    2eb8 <usb_dp_get_sibling_descriptor+0xb8>
    2ea8:	39 de                	cmp    %ebx,%esi
    2eaa:	75 ec                	jne    2e98 <usb_dp_get_sibling_descriptor+0x98>
    2eac:	39 f9                	cmp    %edi,%ecx
    2eae:	75 e8                	jne    2e98 <usb_dp_get_sibling_descriptor+0x98>
    2eb0:	83 c4 0c             	add    $0xc,%esp
    2eb3:	5b                   	pop    %ebx
    2eb4:	5e                   	pop    %esi
    2eb5:	5f                   	pop    %edi
    2eb6:	5d                   	pop    %ebp
    2eb7:	c3                   	ret    
    2eb8:	83 c4 0c             	add    $0xc,%esp
    2ebb:	31 c0                	xor    %eax,%eax
    2ebd:	5b                   	pop    %ebx
    2ebe:	5e                   	pop    %esi
    2ebf:	5f                   	pop    %edi
    2ec0:	5d                   	pop    %ebp
    2ec1:	c3                   	ret    
    2ec2:	8d b4 26 00 00 00 00 	lea    0x0(%esi,%eiz,1),%esi
    2ec9:	8d bc 27 00 00 00 00 	lea    0x0(%edi,%eiz,1),%edi

00002ed0 <usb_dp_browse_simple_internal>:
    2ed0:	55                   	push   %ebp
    2ed1:	89 e5                	mov    %esp,%ebp
    2ed3:	57                   	push   %edi
    2ed4:	56                   	push   %esi
    2ed5:	53                   	push   %ebx
    2ed6:	83 ec 6c             	sub    $0x6c,%esp
    2ed9:	89 4d b0             	mov    %ecx,-0x50(%ebp)
    2edc:	85 c9                	test   %ecx,%ecx
    2ede:	0f 84 7e 06 00 00    	je     3562 <usb_dp_browse_simple_internal+0x692>
    2ee4:	8b 5d 10             	mov    0x10(%ebp),%ebx
    2ee7:	89 0c 24             	mov    %ecx,(%esp)
    2eea:	89 5c 24 08          	mov    %ebx,0x8(%esp)
    2eee:	8b 5d 08             	mov    0x8(%ebp),%ebx
    2ef1:	89 5c 24 04          	mov    %ebx,0x4(%esp)
    2ef5:	8b 5d 0c             	mov    0xc(%ebp),%ebx
    2ef8:	89 c6                	mov    %eax,%esi
    2efa:	89 d7                	mov    %edx,%edi
    2efc:	ff d3                	call   *%ebx
    2efe:	8b 4d b0             	mov    -0x50(%ebp),%ecx
    2f01:	89 4c 24 08          	mov    %ecx,0x8(%esp)
    2f05:	89 7c 24 04          	mov    %edi,0x4(%esp)
    2f09:	89 34 24             	mov    %esi,(%esp)
    2f0c:	e8 cf fc ff ff       	call   2be0 <usb_dp_get_nested_descriptor>
    2f11:	8b 5d 08             	mov    0x8(%ebp),%ebx
    2f14:	43                   	inc    %ebx
    2f15:	89 45 b8             	mov    %eax,-0x48(%ebp)
    2f18:	89 5d ac             	mov    %ebx,-0x54(%ebp)
    2f1b:	85 c0                	test   %eax,%eax
    2f1d:	0f 84 1a 06 00 00    	je     353d <usb_dp_browse_simple_internal+0x66d>
    2f23:	8b 5d 10             	mov    0x10(%ebp),%ebx
    2f26:	89 04 24             	mov    %eax,(%esp)
    2f29:	89 5c 24 08          	mov    %ebx,0x8(%esp)
    2f2d:	8b 5d ac             	mov    -0x54(%ebp),%ebx
    2f30:	89 5c 24 04          	mov    %ebx,0x4(%esp)
    2f34:	8b 5d 0c             	mov    0xc(%ebp),%ebx
    2f37:	ff d3                	call   *%ebx
    2f39:	8b 07                	mov    (%edi),%eax
    2f3b:	c7 45 c8 00 00 00 00 	movl   $0x0,-0x38(%ebp)
    2f42:	39 45 b8             	cmp    %eax,-0x48(%ebp)
    2f45:	72 10                	jb     2f57 <usb_dp_browse_simple_internal+0x87>
    2f47:	8b 4d b8             	mov    -0x48(%ebp),%ecx
    2f4a:	8b 57 04             	mov    0x4(%edi),%edx
    2f4d:	29 c1                	sub    %eax,%ecx
    2f4f:	39 d1                	cmp    %edx,%ecx
    2f51:	0f 82 39 06 00 00    	jb     3590 <usb_dp_browse_simple_internal+0x6c0>
    2f57:	8b 5d 08             	mov    0x8(%ebp),%ebx
    2f5a:	8b 45 c8             	mov    -0x38(%ebp),%eax
    2f5d:	83 c3 02             	add    $0x2,%ebx
    2f60:	85 c0                	test   %eax,%eax
    2f62:	89 5d a4             	mov    %ebx,-0x5c(%ebp)
    2f65:	0f 84 ad 05 00 00    	je     3518 <usb_dp_browse_simple_internal+0x648>
    2f6b:	8b 5d 10             	mov    0x10(%ebp),%ebx
    2f6e:	8b 45 c8             	mov    -0x38(%ebp),%eax
    2f71:	89 5c 24 08          	mov    %ebx,0x8(%esp)
    2f75:	8b 5d a4             	mov    -0x5c(%ebp),%ebx
    2f78:	89 5c 24 04          	mov    %ebx,0x4(%esp)
    2f7c:	89 04 24             	mov    %eax,(%esp)
    2f7f:	8b 5d 0c             	mov    0xc(%ebp),%ebx
    2f82:	ff d3                	call   *%ebx
    2f84:	8b 07                	mov    (%edi),%eax
    2f86:	c7 45 c4 00 00 00 00 	movl   $0x0,-0x3c(%ebp)
    2f8d:	39 45 c8             	cmp    %eax,-0x38(%ebp)
    2f90:	72 10                	jb     2fa2 <usb_dp_browse_simple_internal+0xd2>
    2f92:	8b 4d c8             	mov    -0x38(%ebp),%ecx
    2f95:	8b 57 04             	mov    0x4(%edi),%edx
    2f98:	29 c1                	sub    %eax,%ecx
    2f9a:	39 d1                	cmp    %edx,%ecx
    2f9c:	0f 82 7f 06 00 00    	jb     3621 <usb_dp_browse_simple_internal+0x751>
    2fa2:	8b 5d 08             	mov    0x8(%ebp),%ebx
    2fa5:	8b 45 c4             	mov    -0x3c(%ebp),%eax
    2fa8:	83 c3 03             	add    $0x3,%ebx
    2fab:	85 c0                	test   %eax,%eax
    2fad:	89 5d a0             	mov    %ebx,-0x60(%ebp)
    2fb0:	0f 84 3d 05 00 00    	je     34f3 <usb_dp_browse_simple_internal+0x623>
    2fb6:	8b 5d 10             	mov    0x10(%ebp),%ebx
    2fb9:	8b 45 c4             	mov    -0x3c(%ebp),%eax
    2fbc:	89 5c 24 08          	mov    %ebx,0x8(%esp)
    2fc0:	8b 5d a0             	mov    -0x60(%ebp),%ebx
    2fc3:	89 5c 24 04          	mov    %ebx,0x4(%esp)
    2fc7:	89 04 24             	mov    %eax,(%esp)
    2fca:	8b 5d 0c             	mov    0xc(%ebp),%ebx
    2fcd:	ff d3                	call   *%ebx
    2fcf:	8b 07                	mov    (%edi),%eax
    2fd1:	c7 45 c0 00 00 00 00 	movl   $0x0,-0x40(%ebp)
    2fd8:	39 45 c4             	cmp    %eax,-0x3c(%ebp)
    2fdb:	72 10                	jb     2fed <usb_dp_browse_simple_internal+0x11d>
    2fdd:	8b 4d c4             	mov    -0x3c(%ebp),%ecx
    2fe0:	8b 57 04             	mov    0x4(%edi),%edx
    2fe3:	29 c1                	sub    %eax,%ecx
    2fe5:	39 d1                	cmp    %edx,%ecx
    2fe7:	0f 82 c4 06 00 00    	jb     36b1 <usb_dp_browse_simple_internal+0x7e1>
    2fed:	8b 5d 08             	mov    0x8(%ebp),%ebx
    2ff0:	8b 45 c0             	mov    -0x40(%ebp),%eax
    2ff3:	83 c3 04             	add    $0x4,%ebx
    2ff6:	85 c0                	test   %eax,%eax
    2ff8:	89 5d 9c             	mov    %ebx,-0x64(%ebp)
    2ffb:	0f 84 cd 04 00 00    	je     34ce <usb_dp_browse_simple_internal+0x5fe>
    3001:	8b 5d 10             	mov    0x10(%ebp),%ebx
    3004:	8b 45 c0             	mov    -0x40(%ebp),%eax
    3007:	89 5c 24 08          	mov    %ebx,0x8(%esp)
    300b:	8b 5d 9c             	mov    -0x64(%ebp),%ebx
    300e:	89 5c 24 04          	mov    %ebx,0x4(%esp)
    3012:	89 04 24             	mov    %eax,(%esp)
    3015:	8b 5d 0c             	mov    0xc(%ebp),%ebx
    3018:	ff d3                	call   *%ebx
    301a:	8b 07                	mov    (%edi),%eax
    301c:	c7 45 bc 00 00 00 00 	movl   $0x0,-0x44(%ebp)
    3023:	39 45 c0             	cmp    %eax,-0x40(%ebp)
    3026:	72 10                	jb     3038 <usb_dp_browse_simple_internal+0x168>
    3028:	8b 4d c0             	mov    -0x40(%ebp),%ecx
    302b:	8b 57 04             	mov    0x4(%edi),%edx
    302e:	29 c1                	sub    %eax,%ecx
    3030:	39 d1                	cmp    %edx,%ecx
    3032:	0f 82 12 07 00 00    	jb     374a <usb_dp_browse_simple_internal+0x87a>
    3038:	8b 5d 08             	mov    0x8(%ebp),%ebx
    303b:	8b 45 bc             	mov    -0x44(%ebp),%eax
    303e:	83 c3 05             	add    $0x5,%ebx
    3041:	85 c0                	test   %eax,%eax
    3043:	89 5d a8             	mov    %ebx,-0x58(%ebp)
    3046:	0f 84 5d 04 00 00    	je     34a9 <usb_dp_browse_simple_internal+0x5d9>
    304c:	8b 5d 10             	mov    0x10(%ebp),%ebx
    304f:	8b 45 bc             	mov    -0x44(%ebp),%eax
    3052:	89 5c 24 08          	mov    %ebx,0x8(%esp)
    3056:	8b 5d a8             	mov    -0x58(%ebp),%ebx
    3059:	89 5c 24 04          	mov    %ebx,0x4(%esp)
    305d:	89 04 24             	mov    %eax,(%esp)
    3060:	8b 5d 0c             	mov    0xc(%ebp),%ebx
    3063:	ff d3                	call   *%ebx
    3065:	8b 07                	mov    (%edi),%eax
    3067:	c7 45 cc 00 00 00 00 	movl   $0x0,-0x34(%ebp)
    306e:	39 45 bc             	cmp    %eax,-0x44(%ebp)
    3071:	0f 82 a2 00 00 00    	jb     3119 <usb_dp_browse_simple_internal+0x249>
    3077:	8b 4d bc             	mov    -0x44(%ebp),%ecx
    307a:	8b 57 04             	mov    0x4(%edi),%edx
    307d:	29 c1                	sub    %eax,%ecx
    307f:	39 d1                	cmp    %edx,%ecx
    3081:	0f 83 92 00 00 00    	jae    3119 <usb_dp_browse_simple_internal+0x249>
    3087:	8b 5d bc             	mov    -0x44(%ebp),%ebx
    308a:	31 c9                	xor    %ecx,%ecx
    308c:	8a 0b                	mov    (%ebx),%cl
    308e:	01 d9                	add    %ebx,%ecx
    3090:	89 4d cc             	mov    %ecx,-0x34(%ebp)
    3093:	0f 84 80 00 00 00    	je     3119 <usb_dp_browse_simple_internal+0x249>
    3099:	3b 45 cc             	cmp    -0x34(%ebp),%eax
    309c:	77 74                	ja     3112 <usb_dp_browse_simple_internal+0x242>
    309e:	8b 4d cc             	mov    -0x34(%ebp),%ecx
    30a1:	29 c1                	sub    %eax,%ecx
    30a3:	39 ca                	cmp    %ecx,%edx
    30a5:	76 6b                	jbe    3112 <usb_dp_browse_simple_internal+0x242>
    30a7:	8b 4d bc             	mov    -0x44(%ebp),%ecx
    30aa:	83 cb ff             	or     $0xffffffff,%ebx
    30ad:	41                   	inc    %ecx
    30ae:	74 12                	je     30c2 <usb_dp_browse_simple_internal+0x1f2>
    30b0:	39 c8                	cmp    %ecx,%eax
    30b2:	77 0e                	ja     30c2 <usb_dp_browse_simple_internal+0x1f2>
    30b4:	29 c1                	sub    %eax,%ecx
    30b6:	39 ca                	cmp    %ecx,%edx
    30b8:	76 08                	jbe    30c2 <usb_dp_browse_simple_internal+0x1f2>
    30ba:	8b 4d bc             	mov    -0x44(%ebp),%ecx
    30bd:	31 db                	xor    %ebx,%ebx
    30bf:	8a 59 01             	mov    0x1(%ecx),%bl
    30c2:	8b 4d cc             	mov    -0x34(%ebp),%ecx
    30c5:	c7 45 e4 ff ff ff ff 	movl   $0xffffffff,-0x1c(%ebp)
    30cc:	41                   	inc    %ecx
    30cd:	74 15                	je     30e4 <usb_dp_browse_simple_internal+0x214>
    30cf:	39 c8                	cmp    %ecx,%eax
    30d1:	77 11                	ja     30e4 <usb_dp_browse_simple_internal+0x214>
    30d3:	29 c1                	sub    %eax,%ecx
    30d5:	39 ca                	cmp    %ecx,%edx
    30d7:	76 0b                	jbe    30e4 <usb_dp_browse_simple_internal+0x214>
    30d9:	8b 55 cc             	mov    -0x34(%ebp),%edx
    30dc:	31 c0                	xor    %eax,%eax
    30de:	8a 42 01             	mov    0x1(%edx),%al
    30e1:	89 45 e4             	mov    %eax,-0x1c(%ebp)
    30e4:	8b 06                	mov    (%esi),%eax
    30e6:	8b 08                	mov    (%eax),%ecx
    30e8:	85 c9                	test   %ecx,%ecx
    30ea:	7f 0d                	jg     30f9 <usb_dp_browse_simple_internal+0x229>
    30ec:	eb 24                	jmp    3112 <usb_dp_browse_simple_internal+0x242>
    30ee:	66 90                	xchg   %ax,%ax
    30f0:	83 c0 08             	add    $0x8,%eax
    30f3:	8b 08                	mov    (%eax),%ecx
    30f5:	85 c9                	test   %ecx,%ecx
    30f7:	7e 19                	jle    3112 <usb_dp_browse_simple_internal+0x242>
    30f9:	8b 50 04             	mov    0x4(%eax),%edx
    30fc:	85 d2                	test   %edx,%edx
    30fe:	7e 12                	jle    3112 <usb_dp_browse_simple_internal+0x242>
    3100:	39 4d e4             	cmp    %ecx,-0x1c(%ebp)
    3103:	75 eb                	jne    30f0 <usb_dp_browse_simple_internal+0x220>
    3105:	39 d3                	cmp    %edx,%ebx
    3107:	74 10                	je     3119 <usb_dp_browse_simple_internal+0x249>
    3109:	83 c0 08             	add    $0x8,%eax
    310c:	8b 08                	mov    (%eax),%ecx
    310e:	85 c9                	test   %ecx,%ecx
    3110:	7f e7                	jg     30f9 <usb_dp_browse_simple_internal+0x229>
    3112:	c7 45 cc 00 00 00 00 	movl   $0x0,-0x34(%ebp)
    3119:	8b 5d 08             	mov    0x8(%ebp),%ebx
    311c:	8b 45 cc             	mov    -0x34(%ebp),%eax
    311f:	83 c3 06             	add    $0x6,%ebx
    3122:	85 c0                	test   %eax,%eax
    3124:	89 5d 98             	mov    %ebx,-0x68(%ebp)
    3127:	75 25                	jne    314e <usb_dp_browse_simple_internal+0x27e>
    3129:	8b 45 cc             	mov    -0x34(%ebp),%eax
    312c:	89 7c 24 04          	mov    %edi,0x4(%esp)
    3130:	89 44 24 0c          	mov    %eax,0xc(%esp)
    3134:	8b 45 bc             	mov    -0x44(%ebp),%eax
    3137:	89 44 24 08          	mov    %eax,0x8(%esp)
    313b:	89 34 24             	mov    %esi,(%esp)
    313e:	e8 bd fc ff ff       	call   2e00 <usb_dp_get_sibling_descriptor>
    3143:	89 45 cc             	mov    %eax,-0x34(%ebp)
    3146:	85 c0                	test   %eax,%eax
    3148:	0f 84 5b 03 00 00    	je     34a9 <usb_dp_browse_simple_internal+0x5d9>
    314e:	8b 5d 10             	mov    0x10(%ebp),%ebx
    3151:	8b 45 cc             	mov    -0x34(%ebp),%eax
    3154:	89 5c 24 08          	mov    %ebx,0x8(%esp)
    3158:	8b 5d 98             	mov    -0x68(%ebp),%ebx
    315b:	89 5c 24 04          	mov    %ebx,0x4(%esp)
    315f:	89 04 24             	mov    %eax,(%esp)
    3162:	8b 5d 0c             	mov    0xc(%ebp),%ebx
    3165:	ff d3                	call   *%ebx
    3167:	8b 07                	mov    (%edi),%eax
    3169:	c7 45 dc 00 00 00 00 	movl   $0x0,-0x24(%ebp)
    3170:	39 45 cc             	cmp    %eax,-0x34(%ebp)
    3173:	0f 82 a8 00 00 00    	jb     3221 <usb_dp_browse_simple_internal+0x351>
    3179:	8b 4d cc             	mov    -0x34(%ebp),%ecx
    317c:	8b 57 04             	mov    0x4(%edi),%edx
    317f:	29 c1                	sub    %eax,%ecx
    3181:	39 d1                	cmp    %edx,%ecx
    3183:	0f 83 98 00 00 00    	jae    3221 <usb_dp_browse_simple_internal+0x351>
    3189:	8b 5d cc             	mov    -0x34(%ebp),%ebx
    318c:	31 c9                	xor    %ecx,%ecx
    318e:	8a 0b                	mov    (%ebx),%cl
    3190:	01 d9                	add    %ebx,%ecx
    3192:	89 4d dc             	mov    %ecx,-0x24(%ebp)
    3195:	0f 84 86 00 00 00    	je     3221 <usb_dp_browse_simple_internal+0x351>
    319b:	3b 45 dc             	cmp    -0x24(%ebp),%eax
    319e:	0f 87 e0 03 00 00    	ja     3584 <usb_dp_browse_simple_internal+0x6b4>
    31a4:	8b 4d dc             	mov    -0x24(%ebp),%ecx
    31a7:	29 c1                	sub    %eax,%ecx
    31a9:	39 ca                	cmp    %ecx,%edx
    31ab:	0f 86 d3 03 00 00    	jbe    3584 <usb_dp_browse_simple_internal+0x6b4>
    31b1:	8b 4d cc             	mov    -0x34(%ebp),%ecx
    31b4:	c7 45 e4 ff ff ff ff 	movl   $0xffffffff,-0x1c(%ebp)
    31bb:	41                   	inc    %ecx
    31bc:	74 15                	je     31d3 <usb_dp_browse_simple_internal+0x303>
    31be:	39 c8                	cmp    %ecx,%eax
    31c0:	77 11                	ja     31d3 <usb_dp_browse_simple_internal+0x303>
    31c2:	29 c1                	sub    %eax,%ecx
    31c4:	39 ca                	cmp    %ecx,%edx
    31c6:	76 0b                	jbe    31d3 <usb_dp_browse_simple_internal+0x303>
    31c8:	8b 5d cc             	mov    -0x34(%ebp),%ebx
    31cb:	31 c9                	xor    %ecx,%ecx
    31cd:	8a 4b 01             	mov    0x1(%ebx),%cl
    31d0:	89 4d e4             	mov    %ecx,-0x1c(%ebp)
    31d3:	8b 4d dc             	mov    -0x24(%ebp),%ecx
    31d6:	83 cb ff             	or     $0xffffffff,%ebx
    31d9:	41                   	inc    %ecx
    31da:	74 12                	je     31ee <usb_dp_browse_simple_internal+0x31e>
    31dc:	39 c8                	cmp    %ecx,%eax
    31de:	77 0e                	ja     31ee <usb_dp_browse_simple_internal+0x31e>
    31e0:	29 c1                	sub    %eax,%ecx
    31e2:	39 ca                	cmp    %ecx,%edx
    31e4:	76 08                	jbe    31ee <usb_dp_browse_simple_internal+0x31e>
    31e6:	8b 45 dc             	mov    -0x24(%ebp),%eax
    31e9:	31 db                	xor    %ebx,%ebx
    31eb:	8a 58 01             	mov    0x1(%eax),%bl
    31ee:	8b 06                	mov    (%esi),%eax
    31f0:	8b 10                	mov    (%eax),%edx
    31f2:	85 d2                	test   %edx,%edx
    31f4:	7f 17                	jg     320d <usb_dp_browse_simple_internal+0x33d>
    31f6:	e9 89 03 00 00       	jmp    3584 <usb_dp_browse_simple_internal+0x6b4>
    31fb:	90                   	nop
    31fc:	8d 74 26 00          	lea    0x0(%esi,%eiz,1),%esi
    3200:	83 c0 08             	add    $0x8,%eax
    3203:	8b 10                	mov    (%eax),%edx
    3205:	85 d2                	test   %edx,%edx
    3207:	0f 8e 77 03 00 00    	jle    3584 <usb_dp_browse_simple_internal+0x6b4>
    320d:	8b 48 04             	mov    0x4(%eax),%ecx
    3210:	85 c9                	test   %ecx,%ecx
    3212:	0f 8e 6c 03 00 00    	jle    3584 <usb_dp_browse_simple_internal+0x6b4>
    3218:	39 d3                	cmp    %edx,%ebx
    321a:	75 e4                	jne    3200 <usb_dp_browse_simple_internal+0x330>
    321c:	39 4d e4             	cmp    %ecx,-0x1c(%ebp)
    321f:	75 df                	jne    3200 <usb_dp_browse_simple_internal+0x330>
    3221:	8b 5d 08             	mov    0x8(%ebp),%ebx
    3224:	8b 45 dc             	mov    -0x24(%ebp),%eax
    3227:	83 c3 07             	add    $0x7,%ebx
    322a:	85 c0                	test   %eax,%eax
    322c:	89 5d b4             	mov    %ebx,-0x4c(%ebp)
    322f:	75 2c                	jne    325d <usb_dp_browse_simple_internal+0x38d>
    3231:	8d b4 26 00 00 00 00 	lea    0x0(%esi,%eiz,1),%esi
    3238:	8b 45 dc             	mov    -0x24(%ebp),%eax
    323b:	89 7c 24 04          	mov    %edi,0x4(%esp)
    323f:	89 44 24 0c          	mov    %eax,0xc(%esp)
    3243:	8b 45 cc             	mov    -0x34(%ebp),%eax
    3246:	89 44 24 08          	mov    %eax,0x8(%esp)
    324a:	89 34 24             	mov    %esi,(%esp)
    324d:	e8 ae fb ff ff       	call   2e00 <usb_dp_get_sibling_descriptor>
    3252:	89 45 dc             	mov    %eax,-0x24(%ebp)
    3255:	85 c0                	test   %eax,%eax
    3257:	0f 84 cc fe ff ff    	je     3129 <usb_dp_browse_simple_internal+0x259>
    325d:	8b 5d 10             	mov    0x10(%ebp),%ebx
    3260:	8b 45 dc             	mov    -0x24(%ebp),%eax
    3263:	89 5c 24 08          	mov    %ebx,0x8(%esp)
    3267:	8b 5d b4             	mov    -0x4c(%ebp),%ebx
    326a:	89 5c 24 04          	mov    %ebx,0x4(%esp)
    326e:	89 04 24             	mov    %eax,(%esp)
    3271:	8b 5d 0c             	mov    0xc(%ebp),%ebx
    3274:	ff d3                	call   *%ebx
    3276:	8b 07                	mov    (%edi),%eax
    3278:	c7 45 e4 00 00 00 00 	movl   $0x0,-0x1c(%ebp)
    327f:	39 45 dc             	cmp    %eax,-0x24(%ebp)
    3282:	0f 82 b0 00 00 00    	jb     3338 <usb_dp_browse_simple_internal+0x468>
    3288:	8b 55 dc             	mov    -0x24(%ebp),%edx
    328b:	8b 4f 04             	mov    0x4(%edi),%ecx
    328e:	29 c2                	sub    %eax,%edx
    3290:	39 ca                	cmp    %ecx,%edx
    3292:	0f 83 a0 00 00 00    	jae    3338 <usb_dp_browse_simple_internal+0x468>
    3298:	8b 5d dc             	mov    -0x24(%ebp),%ebx
    329b:	31 d2                	xor    %edx,%edx
    329d:	8a 13                	mov    (%ebx),%dl
    329f:	01 da                	add    %ebx,%edx
    32a1:	89 55 e4             	mov    %edx,-0x1c(%ebp)
    32a4:	0f 84 8e 00 00 00    	je     3338 <usb_dp_browse_simple_internal+0x468>
    32aa:	3b 45 e4             	cmp    -0x1c(%ebp),%eax
    32ad:	0f 87 c5 02 00 00    	ja     3578 <usb_dp_browse_simple_internal+0x6a8>
    32b3:	8b 55 e4             	mov    -0x1c(%ebp),%edx
    32b6:	29 c2                	sub    %eax,%edx
    32b8:	39 d1                	cmp    %edx,%ecx
    32ba:	0f 86 b8 02 00 00    	jbe    3578 <usb_dp_browse_simple_internal+0x6a8>
    32c0:	8b 55 dc             	mov    -0x24(%ebp),%edx
    32c3:	c7 45 e0 ff ff ff ff 	movl   $0xffffffff,-0x20(%ebp)
    32ca:	42                   	inc    %edx
    32cb:	74 15                	je     32e2 <usb_dp_browse_simple_internal+0x412>
    32cd:	39 d0                	cmp    %edx,%eax
    32cf:	77 11                	ja     32e2 <usb_dp_browse_simple_internal+0x412>
    32d1:	29 c2                	sub    %eax,%edx
    32d3:	39 d1                	cmp    %edx,%ecx
    32d5:	76 0b                	jbe    32e2 <usb_dp_browse_simple_internal+0x412>
    32d7:	8b 5d dc             	mov    -0x24(%ebp),%ebx
    32da:	31 d2                	xor    %edx,%edx
    32dc:	8a 53 01             	mov    0x1(%ebx),%dl
    32df:	89 55 e0             	mov    %edx,-0x20(%ebp)
    32e2:	8b 55 e4             	mov    -0x1c(%ebp),%edx
    32e5:	83 cb ff             	or     $0xffffffff,%ebx
    32e8:	42                   	inc    %edx
    32e9:	74 12                	je     32fd <usb_dp_browse_simple_internal+0x42d>
    32eb:	39 d0                	cmp    %edx,%eax
    32ed:	77 0e                	ja     32fd <usb_dp_browse_simple_internal+0x42d>
    32ef:	29 c2                	sub    %eax,%edx
    32f1:	39 d1                	cmp    %edx,%ecx
    32f3:	76 08                	jbe    32fd <usb_dp_browse_simple_internal+0x42d>
    32f5:	8b 45 e4             	mov    -0x1c(%ebp),%eax
    32f8:	31 db                	xor    %ebx,%ebx
    32fa:	8a 58 01             	mov    0x1(%eax),%bl
    32fd:	8b 06                	mov    (%esi),%eax
    32ff:	8b 10                	mov    (%eax),%edx
    3301:	85 d2                	test   %edx,%edx
    3303:	7f 18                	jg     331d <usb_dp_browse_simple_internal+0x44d>
    3305:	e9 6e 02 00 00       	jmp    3578 <usb_dp_browse_simple_internal+0x6a8>
    330a:	8d b6 00 00 00 00    	lea    0x0(%esi),%esi
    3310:	83 c0 08             	add    $0x8,%eax
    3313:	8b 10                	mov    (%eax),%edx
    3315:	85 d2                	test   %edx,%edx
    3317:	0f 8e 5b 02 00 00    	jle    3578 <usb_dp_browse_simple_internal+0x6a8>
    331d:	8b 48 04             	mov    0x4(%eax),%ecx
    3320:	85 c9                	test   %ecx,%ecx
    3322:	0f 8e 50 02 00 00    	jle    3578 <usb_dp_browse_simple_internal+0x6a8>
    3328:	39 d3                	cmp    %edx,%ebx
    332a:	75 e4                	jne    3310 <usb_dp_browse_simple_internal+0x440>
    332c:	39 4d e0             	cmp    %ecx,-0x20(%ebp)
    332f:	75 df                	jne    3310 <usb_dp_browse_simple_internal+0x440>
    3331:	8d b4 26 00 00 00 00 	lea    0x0(%esi,%eiz,1),%esi
    3338:	8b 5d 08             	mov    0x8(%ebp),%ebx
    333b:	83 c3 08             	add    $0x8,%ebx
    333e:	89 5d d4             	mov    %ebx,-0x2c(%ebp)
    3341:	8b 5d e4             	mov    -0x1c(%ebp),%ebx
    3344:	85 db                	test   %ebx,%ebx
    3346:	75 25                	jne    336d <usb_dp_browse_simple_internal+0x49d>
    3348:	8b 45 e4             	mov    -0x1c(%ebp),%eax
    334b:	89 7c 24 04          	mov    %edi,0x4(%esp)
    334f:	89 44 24 0c          	mov    %eax,0xc(%esp)
    3353:	8b 45 dc             	mov    -0x24(%ebp),%eax
    3356:	89 44 24 08          	mov    %eax,0x8(%esp)
    335a:	89 34 24             	mov    %esi,(%esp)
    335d:	e8 9e fa ff ff       	call   2e00 <usb_dp_get_sibling_descriptor>
    3362:	89 45 e4             	mov    %eax,-0x1c(%ebp)
    3365:	85 c0                	test   %eax,%eax
    3367:	0f 84 cb fe ff ff    	je     3238 <usb_dp_browse_simple_internal+0x368>
    336d:	8b 5d 10             	mov    0x10(%ebp),%ebx
    3370:	8b 45 e4             	mov    -0x1c(%ebp),%eax
    3373:	89 5c 24 08          	mov    %ebx,0x8(%esp)
    3377:	8b 5d d4             	mov    -0x2c(%ebp),%ebx
    337a:	89 5c 24 04          	mov    %ebx,0x4(%esp)
    337e:	89 04 24             	mov    %eax,(%esp)
    3381:	8b 5d 0c             	mov    0xc(%ebp),%ebx
    3384:	ff d3                	call   *%ebx
    3386:	8b 07                	mov    (%edi),%eax
    3388:	31 db                	xor    %ebx,%ebx
    338a:	39 45 e4             	cmp    %eax,-0x1c(%ebp)
    338d:	0f 82 c5 00 00 00    	jb     3458 <usb_dp_browse_simple_internal+0x588>
    3393:	8b 57 04             	mov    0x4(%edi),%edx
    3396:	89 55 d0             	mov    %edx,-0x30(%ebp)
    3399:	8b 55 e4             	mov    -0x1c(%ebp),%edx
    339c:	29 c2                	sub    %eax,%edx
    339e:	3b 55 d0             	cmp    -0x30(%ebp),%edx
    33a1:	0f 83 b1 00 00 00    	jae    3458 <usb_dp_browse_simple_internal+0x588>
    33a7:	8b 55 e4             	mov    -0x1c(%ebp),%edx
    33aa:	31 db                	xor    %ebx,%ebx
    33ac:	8a 1a                	mov    (%edx),%bl
    33ae:	01 d3                	add    %edx,%ebx
    33b0:	0f 84 a2 00 00 00    	je     3458 <usb_dp_browse_simple_internal+0x588>
    33b6:	39 d8                	cmp    %ebx,%eax
    33b8:	0f 87 b2 01 00 00    	ja     3570 <usb_dp_browse_simple_internal+0x6a0>
    33be:	89 da                	mov    %ebx,%edx
    33c0:	29 c2                	sub    %eax,%edx
    33c2:	39 55 d0             	cmp    %edx,-0x30(%ebp)
    33c5:	0f 86 a5 01 00 00    	jbe    3570 <usb_dp_browse_simple_internal+0x6a0>
    33cb:	8b 55 e4             	mov    -0x1c(%ebp),%edx
    33ce:	c7 45 e0 ff ff ff ff 	movl   $0xffffffff,-0x20(%ebp)
    33d5:	42                   	inc    %edx
    33d6:	74 16                	je     33ee <usb_dp_browse_simple_internal+0x51e>
    33d8:	39 d0                	cmp    %edx,%eax
    33da:	77 12                	ja     33ee <usb_dp_browse_simple_internal+0x51e>
    33dc:	29 c2                	sub    %eax,%edx
    33de:	39 55 d0             	cmp    %edx,-0x30(%ebp)
    33e1:	76 0b                	jbe    33ee <usb_dp_browse_simple_internal+0x51e>
    33e3:	8b 55 e4             	mov    -0x1c(%ebp),%edx
    33e6:	31 c9                	xor    %ecx,%ecx
    33e8:	8a 4a 01             	mov    0x1(%edx),%cl
    33eb:	89 4d e0             	mov    %ecx,-0x20(%ebp)
    33ee:	89 da                	mov    %ebx,%edx
    33f0:	c7 45 d8 ff ff ff ff 	movl   $0xffffffff,-0x28(%ebp)
    33f7:	42                   	inc    %edx
    33f8:	74 13                	je     340d <usb_dp_browse_simple_internal+0x53d>
    33fa:	39 d0                	cmp    %edx,%eax
    33fc:	77 0f                	ja     340d <usb_dp_browse_simple_internal+0x53d>
    33fe:	29 c2                	sub    %eax,%edx
    3400:	39 55 d0             	cmp    %edx,-0x30(%ebp)
    3403:	76 08                	jbe    340d <usb_dp_browse_simple_internal+0x53d>
    3405:	31 c9                	xor    %ecx,%ecx
    3407:	8a 4b 01             	mov    0x1(%ebx),%cl
    340a:	89 4d d8             	mov    %ecx,-0x28(%ebp)
    340d:	8b 16                	mov    (%esi),%edx
    340f:	8b 02                	mov    (%edx),%eax
    3411:	85 c0                	test   %eax,%eax
    3413:	0f 8e 57 01 00 00    	jle    3570 <usb_dp_browse_simple_internal+0x6a0>
    3419:	8b 4a 04             	mov    0x4(%edx),%ecx
    341c:	85 c9                	test   %ecx,%ecx
    341e:	0f 8e 4c 01 00 00    	jle    3570 <usb_dp_browse_simple_internal+0x6a0>
    3424:	89 5d d0             	mov    %ebx,-0x30(%ebp)
    3427:	8b 5d d8             	mov    -0x28(%ebp),%ebx
    342a:	eb 1c                	jmp    3448 <usb_dp_browse_simple_internal+0x578>
    342c:	8d 74 26 00          	lea    0x0(%esi,%eiz,1),%esi
    3430:	83 c2 08             	add    $0x8,%edx
    3433:	8b 02                	mov    (%edx),%eax
    3435:	85 c0                	test   %eax,%eax
    3437:	0f 8e 33 01 00 00    	jle    3570 <usb_dp_browse_simple_internal+0x6a0>
    343d:	8b 4a 04             	mov    0x4(%edx),%ecx
    3440:	85 c9                	test   %ecx,%ecx
    3442:	0f 8e 28 01 00 00    	jle    3570 <usb_dp_browse_simple_internal+0x6a0>
    3448:	39 c3                	cmp    %eax,%ebx
    344a:	75 e4                	jne    3430 <usb_dp_browse_simple_internal+0x560>
    344c:	39 4d e0             	cmp    %ecx,-0x20(%ebp)
    344f:	75 df                	jne    3430 <usb_dp_browse_simple_internal+0x560>
    3451:	8b 5d d0             	mov    -0x30(%ebp),%ebx
    3454:	8d 74 26 00          	lea    0x0(%esi,%eiz,1),%esi
    3458:	8b 4d 08             	mov    0x8(%ebp),%ecx
    345b:	83 c1 09             	add    $0x9,%ecx
    345e:	89 4d e0             	mov    %ecx,-0x20(%ebp)
    3461:	8d b4 26 00 00 00 00 	lea    0x0(%esi,%eiz,1),%esi
    3468:	8b 45 10             	mov    0x10(%ebp),%eax
    346b:	8b 55 0c             	mov    0xc(%ebp),%edx
    346e:	8b 4d e0             	mov    -0x20(%ebp),%ecx
    3471:	89 44 24 08          	mov    %eax,0x8(%esp)
    3475:	89 54 24 04          	mov    %edx,0x4(%esp)
    3479:	89 0c 24             	mov    %ecx,(%esp)
    347c:	89 fa                	mov    %edi,%edx
    347e:	89 d9                	mov    %ebx,%ecx
    3480:	89 f0                	mov    %esi,%eax
    3482:	e8 49 fa ff ff       	call   2ed0 <usb_dp_browse_simple_internal>
    3487:	8b 45 e4             	mov    -0x1c(%ebp),%eax
    348a:	89 5c 24 0c          	mov    %ebx,0xc(%esp)
    348e:	89 44 24 08          	mov    %eax,0x8(%esp)
    3492:	89 7c 24 04          	mov    %edi,0x4(%esp)
    3496:	89 34 24             	mov    %esi,(%esp)
    3499:	e8 62 f9 ff ff       	call   2e00 <usb_dp_get_sibling_descriptor>
    349e:	89 c3                	mov    %eax,%ebx
    34a0:	85 c0                	test   %eax,%eax
    34a2:	75 c4                	jne    3468 <usb_dp_browse_simple_internal+0x598>
    34a4:	e9 9f fe ff ff       	jmp    3348 <usb_dp_browse_simple_internal+0x478>
    34a9:	8b 45 bc             	mov    -0x44(%ebp),%eax
    34ac:	89 7c 24 04          	mov    %edi,0x4(%esp)
    34b0:	89 44 24 0c          	mov    %eax,0xc(%esp)
    34b4:	8b 45 c0             	mov    -0x40(%ebp),%eax
    34b7:	89 44 24 08          	mov    %eax,0x8(%esp)
    34bb:	89 34 24             	mov    %esi,(%esp)
    34be:	e8 3d f9 ff ff       	call   2e00 <usb_dp_get_sibling_descriptor>
    34c3:	89 45 bc             	mov    %eax,-0x44(%ebp)
    34c6:	85 c0                	test   %eax,%eax
    34c8:	0f 85 7e fb ff ff    	jne    304c <usb_dp_browse_simple_internal+0x17c>
    34ce:	8b 45 c0             	mov    -0x40(%ebp),%eax
    34d1:	89 7c 24 04          	mov    %edi,0x4(%esp)
    34d5:	89 44 24 0c          	mov    %eax,0xc(%esp)
    34d9:	8b 45 c4             	mov    -0x3c(%ebp),%eax
    34dc:	89 44 24 08          	mov    %eax,0x8(%esp)
    34e0:	89 34 24             	mov    %esi,(%esp)
    34e3:	e8 18 f9 ff ff       	call   2e00 <usb_dp_get_sibling_descriptor>
    34e8:	89 45 c0             	mov    %eax,-0x40(%ebp)
    34eb:	85 c0                	test   %eax,%eax
    34ed:	0f 85 0e fb ff ff    	jne    3001 <usb_dp_browse_simple_internal+0x131>
    34f3:	8b 45 c4             	mov    -0x3c(%ebp),%eax
    34f6:	89 7c 24 04          	mov    %edi,0x4(%esp)
    34fa:	89 44 24 0c          	mov    %eax,0xc(%esp)
    34fe:	8b 45 c8             	mov    -0x38(%ebp),%eax
    3501:	89 44 24 08          	mov    %eax,0x8(%esp)
    3505:	89 34 24             	mov    %esi,(%esp)
    3508:	e8 f3 f8 ff ff       	call   2e00 <usb_dp_get_sibling_descriptor>
    350d:	89 45 c4             	mov    %eax,-0x3c(%ebp)
    3510:	85 c0                	test   %eax,%eax
    3512:	0f 85 9e fa ff ff    	jne    2fb6 <usb_dp_browse_simple_internal+0xe6>
    3518:	8b 45 c8             	mov    -0x38(%ebp),%eax
    351b:	89 7c 24 04          	mov    %edi,0x4(%esp)
    351f:	89 44 24 0c          	mov    %eax,0xc(%esp)
    3523:	8b 45 b8             	mov    -0x48(%ebp),%eax
    3526:	89 44 24 08          	mov    %eax,0x8(%esp)
    352a:	89 34 24             	mov    %esi,(%esp)
    352d:	e8 ce f8 ff ff       	call   2e00 <usb_dp_get_sibling_descriptor>
    3532:	89 45 c8             	mov    %eax,-0x38(%ebp)
    3535:	85 c0                	test   %eax,%eax
    3537:	0f 85 2e fa ff ff    	jne    2f6b <usb_dp_browse_simple_internal+0x9b>
    353d:	8b 45 b8             	mov    -0x48(%ebp),%eax
    3540:	8b 4d b0             	mov    -0x50(%ebp),%ecx
    3543:	89 44 24 0c          	mov    %eax,0xc(%esp)
    3547:	89 4c 24 08          	mov    %ecx,0x8(%esp)
    354b:	89 7c 24 04          	mov    %edi,0x4(%esp)
    354f:	89 34 24             	mov    %esi,(%esp)
    3552:	e8 a9 f8 ff ff       	call   2e00 <usb_dp_get_sibling_descriptor>
    3557:	89 45 b8             	mov    %eax,-0x48(%ebp)
    355a:	85 c0                	test   %eax,%eax
    355c:	0f 85 c1 f9 ff ff    	jne    2f23 <usb_dp_browse_simple_internal+0x53>
    3562:	83 c4 6c             	add    $0x6c,%esp
    3565:	5b                   	pop    %ebx
    3566:	5e                   	pop    %esi
    3567:	5f                   	pop    %edi
    3568:	5d                   	pop    %ebp
    3569:	c3                   	ret    
    356a:	8d b6 00 00 00 00    	lea    0x0(%esi),%esi
    3570:	31 db                	xor    %ebx,%ebx
    3572:	e9 e1 fe ff ff       	jmp    3458 <usb_dp_browse_simple_internal+0x588>
    3577:	90                   	nop
    3578:	c7 45 e4 00 00 00 00 	movl   $0x0,-0x1c(%ebp)
    357f:	e9 b4 fd ff ff       	jmp    3338 <usb_dp_browse_simple_internal+0x468>
    3584:	c7 45 dc 00 00 00 00 	movl   $0x0,-0x24(%ebp)
    358b:	e9 91 fc ff ff       	jmp    3221 <usb_dp_browse_simple_internal+0x351>
    3590:	8b 5d b8             	mov    -0x48(%ebp),%ebx
    3593:	31 c9                	xor    %ecx,%ecx
    3595:	8a 0b                	mov    (%ebx),%cl
    3597:	01 d9                	add    %ebx,%ecx
    3599:	89 4d c8             	mov    %ecx,-0x38(%ebp)
    359c:	0f 84 b5 f9 ff ff    	je     2f57 <usb_dp_browse_simple_internal+0x87>
    35a2:	3b 45 c8             	cmp    -0x38(%ebp),%eax
    35a5:	77 63                	ja     360a <usb_dp_browse_simple_internal+0x73a>
    35a7:	8b 4d c8             	mov    -0x38(%ebp),%ecx
    35aa:	29 c1                	sub    %eax,%ecx
    35ac:	39 ca                	cmp    %ecx,%edx
    35ae:	76 5a                	jbe    360a <usb_dp_browse_simple_internal+0x73a>
    35b0:	8b 4d b8             	mov    -0x48(%ebp),%ecx
    35b3:	83 cb ff             	or     $0xffffffff,%ebx
    35b6:	41                   	inc    %ecx
    35b7:	74 12                	je     35cb <usb_dp_browse_simple_internal+0x6fb>
    35b9:	39 c8                	cmp    %ecx,%eax
    35bb:	77 0e                	ja     35cb <usb_dp_browse_simple_internal+0x6fb>
    35bd:	29 c1                	sub    %eax,%ecx
    35bf:	39 ca                	cmp    %ecx,%edx
    35c1:	76 08                	jbe    35cb <usb_dp_browse_simple_internal+0x6fb>
    35c3:	8b 4d b8             	mov    -0x48(%ebp),%ecx
    35c6:	31 db                	xor    %ebx,%ebx
    35c8:	8a 59 01             	mov    0x1(%ecx),%bl
    35cb:	8b 4d c8             	mov    -0x38(%ebp),%ecx
    35ce:	c7 45 e4 ff ff ff ff 	movl   $0xffffffff,-0x1c(%ebp)
    35d5:	41                   	inc    %ecx
    35d6:	74 15                	je     35ed <usb_dp_browse_simple_internal+0x71d>
    35d8:	39 c8                	cmp    %ecx,%eax
    35da:	77 11                	ja     35ed <usb_dp_browse_simple_internal+0x71d>
    35dc:	29 c1                	sub    %eax,%ecx
    35de:	39 ca                	cmp    %ecx,%edx
    35e0:	76 0b                	jbe    35ed <usb_dp_browse_simple_internal+0x71d>
    35e2:	8b 55 c8             	mov    -0x38(%ebp),%edx
    35e5:	31 c0                	xor    %eax,%eax
    35e7:	8a 42 01             	mov    0x1(%edx),%al
    35ea:	89 45 e4             	mov    %eax,-0x1c(%ebp)
    35ed:	8b 06                	mov    (%esi),%eax
    35ef:	8b 08                	mov    (%eax),%ecx
    35f1:	85 c9                	test   %ecx,%ecx
    35f3:	7e 15                	jle    360a <usb_dp_browse_simple_internal+0x73a>
    35f5:	8b 50 04             	mov    0x4(%eax),%edx
    35f8:	85 d2                	test   %edx,%edx
    35fa:	7e 0e                	jle    360a <usb_dp_browse_simple_internal+0x73a>
    35fc:	39 4d e4             	cmp    %ecx,-0x1c(%ebp)
    35ff:	74 17                	je     3618 <usb_dp_browse_simple_internal+0x748>
    3601:	83 c0 08             	add    $0x8,%eax
    3604:	8b 08                	mov    (%eax),%ecx
    3606:	85 c9                	test   %ecx,%ecx
    3608:	7f eb                	jg     35f5 <usb_dp_browse_simple_internal+0x725>
    360a:	c7 45 c8 00 00 00 00 	movl   $0x0,-0x38(%ebp)
    3611:	e9 41 f9 ff ff       	jmp    2f57 <usb_dp_browse_simple_internal+0x87>
    3616:	66 90                	xchg   %ax,%ax
    3618:	39 d3                	cmp    %edx,%ebx
    361a:	75 e5                	jne    3601 <usb_dp_browse_simple_internal+0x731>
    361c:	e9 36 f9 ff ff       	jmp    2f57 <usb_dp_browse_simple_internal+0x87>
    3621:	8b 5d c8             	mov    -0x38(%ebp),%ebx
    3624:	31 c9                	xor    %ecx,%ecx
    3626:	8a 0b                	mov    (%ebx),%cl
    3628:	01 d9                	add    %ebx,%ecx
    362a:	89 4d c4             	mov    %ecx,-0x3c(%ebp)
    362d:	0f 84 6f f9 ff ff    	je     2fa2 <usb_dp_browse_simple_internal+0xd2>
    3633:	3b 45 c4             	cmp    -0x3c(%ebp),%eax
    3636:	77 63                	ja     369b <usb_dp_browse_simple_internal+0x7cb>
    3638:	8b 4d c4             	mov    -0x3c(%ebp),%ecx
    363b:	29 c1                	sub    %eax,%ecx
    363d:	39 ca                	cmp    %ecx,%edx
    363f:	76 5a                	jbe    369b <usb_dp_browse_simple_internal+0x7cb>
    3641:	8b 4d c8             	mov    -0x38(%ebp),%ecx
    3644:	83 cb ff             	or     $0xffffffff,%ebx
    3647:	41                   	inc    %ecx
    3648:	74 12                	je     365c <usb_dp_browse_simple_internal+0x78c>
    364a:	39 c8                	cmp    %ecx,%eax
    364c:	77 0e                	ja     365c <usb_dp_browse_simple_internal+0x78c>
    364e:	29 c1                	sub    %eax,%ecx
    3650:	39 ca                	cmp    %ecx,%edx
    3652:	76 08                	jbe    365c <usb_dp_browse_simple_internal+0x78c>
    3654:	8b 4d c8             	mov    -0x38(%ebp),%ecx
    3657:	31 db                	xor    %ebx,%ebx
    3659:	8a 59 01             	mov    0x1(%ecx),%bl
    365c:	8b 4d c4             	mov    -0x3c(%ebp),%ecx
    365f:	c7 45 e4 ff ff ff ff 	movl   $0xffffffff,-0x1c(%ebp)
    3666:	41                   	inc    %ecx
    3667:	74 15                	je     367e <usb_dp_browse_simple_internal+0x7ae>
    3669:	39 c8                	cmp    %ecx,%eax
    366b:	77 11                	ja     367e <usb_dp_browse_simple_internal+0x7ae>
    366d:	29 c1                	sub    %eax,%ecx
    366f:	39 ca                	cmp    %ecx,%edx
    3671:	76 0b                	jbe    367e <usb_dp_browse_simple_internal+0x7ae>
    3673:	8b 55 c4             	mov    -0x3c(%ebp),%edx
    3676:	31 c0                	xor    %eax,%eax
    3678:	8a 42 01             	mov    0x1(%edx),%al
    367b:	89 45 e4             	mov    %eax,-0x1c(%ebp)
    367e:	8b 06                	mov    (%esi),%eax
    3680:	8b 08                	mov    (%eax),%ecx
    3682:	85 c9                	test   %ecx,%ecx
    3684:	7e 15                	jle    369b <usb_dp_browse_simple_internal+0x7cb>
    3686:	8b 50 04             	mov    0x4(%eax),%edx
    3689:	85 d2                	test   %edx,%edx
    368b:	7e 0e                	jle    369b <usb_dp_browse_simple_internal+0x7cb>
    368d:	39 4d e4             	cmp    %ecx,-0x1c(%ebp)
    3690:	74 16                	je     36a8 <usb_dp_browse_simple_internal+0x7d8>
    3692:	83 c0 08             	add    $0x8,%eax
    3695:	8b 08                	mov    (%eax),%ecx
    3697:	85 c9                	test   %ecx,%ecx
    3699:	7f eb                	jg     3686 <usb_dp_browse_simple_internal+0x7b6>
    369b:	c7 45 c4 00 00 00 00 	movl   $0x0,-0x3c(%ebp)
    36a2:	e9 fb f8 ff ff       	jmp    2fa2 <usb_dp_browse_simple_internal+0xd2>
    36a7:	90                   	nop
    36a8:	39 d3                	cmp    %edx,%ebx
    36aa:	75 e6                	jne    3692 <usb_dp_browse_simple_internal+0x7c2>
    36ac:	e9 f1 f8 ff ff       	jmp    2fa2 <usb_dp_browse_simple_internal+0xd2>
    36b1:	8b 5d c4             	mov    -0x3c(%ebp),%ebx
    36b4:	31 c9                	xor    %ecx,%ecx
    36b6:	8a 0b                	mov    (%ebx),%cl
    36b8:	01 d9                	add    %ebx,%ecx
    36ba:	89 4d c0             	mov    %ecx,-0x40(%ebp)
    36bd:	0f 84 2a f9 ff ff    	je     2fed <usb_dp_browse_simple_internal+0x11d>
    36c3:	3b 45 c0             	cmp    -0x40(%ebp),%eax
    36c6:	77 76                	ja     373e <usb_dp_browse_simple_internal+0x86e>
    36c8:	8b 4d c0             	mov    -0x40(%ebp),%ecx
    36cb:	29 c1                	sub    %eax,%ecx
    36cd:	39 ca                	cmp    %ecx,%edx
    36cf:	76 6d                	jbe    373e <usb_dp_browse_simple_internal+0x86e>
    36d1:	8b 4d c4             	mov    -0x3c(%ebp),%ecx
    36d4:	83 cb ff             	or     $0xffffffff,%ebx
    36d7:	41                   	inc    %ecx
    36d8:	74 12                	je     36ec <usb_dp_browse_simple_internal+0x81c>
    36da:	39 c8                	cmp    %ecx,%eax
    36dc:	77 0e                	ja     36ec <usb_dp_browse_simple_internal+0x81c>
    36de:	29 c1                	sub    %eax,%ecx
    36e0:	39 ca                	cmp    %ecx,%edx
    36e2:	76 08                	jbe    36ec <usb_dp_browse_simple_internal+0x81c>
    36e4:	8b 4d c4             	mov    -0x3c(%ebp),%ecx
    36e7:	31 db                	xor    %ebx,%ebx
    36e9:	8a 59 01             	mov    0x1(%ecx),%bl
    36ec:	8b 4d c0             	mov    -0x40(%ebp),%ecx
    36ef:	c7 45 e4 ff ff ff ff 	movl   $0xffffffff,-0x1c(%ebp)
    36f6:	41                   	inc    %ecx
    36f7:	74 15                	je     370e <usb_dp_browse_simple_internal+0x83e>
    36f9:	39 c8                	cmp    %ecx,%eax
    36fb:	77 11                	ja     370e <usb_dp_browse_simple_internal+0x83e>
    36fd:	29 c1                	sub    %eax,%ecx
    36ff:	39 ca                	cmp    %ecx,%edx
    3701:	76 0b                	jbe    370e <usb_dp_browse_simple_internal+0x83e>
    3703:	8b 55 c0             	mov    -0x40(%ebp),%edx
    3706:	31 c0                	xor    %eax,%eax
    3708:	8a 42 01             	mov    0x1(%edx),%al
    370b:	89 45 e4             	mov    %eax,-0x1c(%ebp)
    370e:	8b 06                	mov    (%esi),%eax
    3710:	8b 08                	mov    (%eax),%ecx
    3712:	85 c9                	test   %ecx,%ecx
    3714:	7f 0b                	jg     3721 <usb_dp_browse_simple_internal+0x851>
    3716:	eb 26                	jmp    373e <usb_dp_browse_simple_internal+0x86e>
    3718:	83 c0 08             	add    $0x8,%eax
    371b:	8b 08                	mov    (%eax),%ecx
    371d:	85 c9                	test   %ecx,%ecx
    371f:	7e 1d                	jle    373e <usb_dp_browse_simple_internal+0x86e>
    3721:	8b 50 04             	mov    0x4(%eax),%edx
    3724:	85 d2                	test   %edx,%edx
    3726:	7e 16                	jle    373e <usb_dp_browse_simple_internal+0x86e>
    3728:	39 4d e4             	cmp    %ecx,-0x1c(%ebp)
    372b:	75 eb                	jne    3718 <usb_dp_browse_simple_internal+0x848>
    372d:	39 d3                	cmp    %edx,%ebx
    372f:	0f 84 b8 f8 ff ff    	je     2fed <usb_dp_browse_simple_internal+0x11d>
    3735:	83 c0 08             	add    $0x8,%eax
    3738:	8b 08                	mov    (%eax),%ecx
    373a:	85 c9                	test   %ecx,%ecx
    373c:	7f e3                	jg     3721 <usb_dp_browse_simple_internal+0x851>
    373e:	c7 45 c0 00 00 00 00 	movl   $0x0,-0x40(%ebp)
    3745:	e9 a3 f8 ff ff       	jmp    2fed <usb_dp_browse_simple_internal+0x11d>
    374a:	8b 5d c0             	mov    -0x40(%ebp),%ebx
    374d:	31 c9                	xor    %ecx,%ecx
    374f:	8a 0b                	mov    (%ebx),%cl
    3751:	01 d9                	add    %ebx,%ecx
    3753:	89 4d bc             	mov    %ecx,-0x44(%ebp)
    3756:	0f 84 dc f8 ff ff    	je     3038 <usb_dp_browse_simple_internal+0x168>
    375c:	3b 45 bc             	cmp    -0x44(%ebp),%eax
    375f:	77 7d                	ja     37de <usb_dp_browse_simple_internal+0x90e>
    3761:	8b 4d bc             	mov    -0x44(%ebp),%ecx
    3764:	29 c1                	sub    %eax,%ecx
    3766:	39 ca                	cmp    %ecx,%edx
    3768:	76 74                	jbe    37de <usb_dp_browse_simple_internal+0x90e>
    376a:	8b 4d c0             	mov    -0x40(%ebp),%ecx
    376d:	83 cb ff             	or     $0xffffffff,%ebx
    3770:	41                   	inc    %ecx
    3771:	74 12                	je     3785 <usb_dp_browse_simple_internal+0x8b5>
    3773:	39 c8                	cmp    %ecx,%eax
    3775:	77 0e                	ja     3785 <usb_dp_browse_simple_internal+0x8b5>
    3777:	29 c1                	sub    %eax,%ecx
    3779:	39 ca                	cmp    %ecx,%edx
    377b:	76 08                	jbe    3785 <usb_dp_browse_simple_internal+0x8b5>
    377d:	8b 4d c0             	mov    -0x40(%ebp),%ecx
    3780:	31 db                	xor    %ebx,%ebx
    3782:	8a 59 01             	mov    0x1(%ecx),%bl
    3785:	8b 4d bc             	mov    -0x44(%ebp),%ecx
    3788:	c7 45 e4 ff ff ff ff 	movl   $0xffffffff,-0x1c(%ebp)
    378f:	41                   	inc    %ecx
    3790:	74 15                	je     37a7 <usb_dp_browse_simple_internal+0x8d7>
    3792:	39 c8                	cmp    %ecx,%eax
    3794:	77 11                	ja     37a7 <usb_dp_browse_simple_internal+0x8d7>
    3796:	29 c1                	sub    %eax,%ecx
    3798:	39 ca                	cmp    %ecx,%edx
    379a:	76 0b                	jbe    37a7 <usb_dp_browse_simple_internal+0x8d7>
    379c:	8b 55 bc             	mov    -0x44(%ebp),%edx
    379f:	31 c0                	xor    %eax,%eax
    37a1:	8a 42 01             	mov    0x1(%edx),%al
    37a4:	89 45 e4             	mov    %eax,-0x1c(%ebp)
    37a7:	8b 06                	mov    (%esi),%eax
    37a9:	8b 08                	mov    (%eax),%ecx
    37ab:	85 c9                	test   %ecx,%ecx
    37ad:	7f 12                	jg     37c1 <usb_dp_browse_simple_internal+0x8f1>
    37af:	eb 2d                	jmp    37de <usb_dp_browse_simple_internal+0x90e>
    37b1:	8d b4 26 00 00 00 00 	lea    0x0(%esi,%eiz,1),%esi
    37b8:	83 c0 08             	add    $0x8,%eax
    37bb:	8b 08                	mov    (%eax),%ecx
    37bd:	85 c9                	test   %ecx,%ecx
    37bf:	7e 1d                	jle    37de <usb_dp_browse_simple_internal+0x90e>
    37c1:	8b 50 04             	mov    0x4(%eax),%edx
    37c4:	85 d2                	test   %edx,%edx
    37c6:	7e 16                	jle    37de <usb_dp_browse_simple_internal+0x90e>
    37c8:	39 4d e4             	cmp    %ecx,-0x1c(%ebp)
    37cb:	75 eb                	jne    37b8 <usb_dp_browse_simple_internal+0x8e8>
    37cd:	39 d3                	cmp    %edx,%ebx
    37cf:	0f 84 63 f8 ff ff    	je     3038 <usb_dp_browse_simple_internal+0x168>
    37d5:	83 c0 08             	add    $0x8,%eax
    37d8:	8b 08                	mov    (%eax),%ecx
    37da:	85 c9                	test   %ecx,%ecx
    37dc:	7f e3                	jg     37c1 <usb_dp_browse_simple_internal+0x8f1>
    37de:	c7 45 bc 00 00 00 00 	movl   $0x0,-0x44(%ebp)
    37e5:	e9 4e f8 ff ff       	jmp    3038 <usb_dp_browse_simple_internal+0x168>
    37ea:	8d b6 00 00 00 00    	lea    0x0(%esi),%esi

000037f0 <usb_dp_walk_simple>:
    37f0:	55                   	push   %ebp
    37f1:	89 e5                	mov    %esp,%ebp
    37f3:	83 ec 28             	sub    $0x28,%esp
    37f6:	8b 45 0c             	mov    0xc(%ebp),%eax
    37f9:	85 c0                	test   %eax,%eax
    37fb:	74 07                	je     3804 <usb_dp_walk_simple+0x14>
    37fd:	8b 55 08             	mov    0x8(%ebp),%edx
    3800:	85 d2                	test   %edx,%edx
    3802:	75 04                	jne    3808 <usb_dp_walk_simple+0x18>
    3804:	c9                   	leave  
    3805:	c3                   	ret    
    3806:	66 90                	xchg   %ax,%ax
    3808:	8b 4d 14             	mov    0x14(%ebp),%ecx
    380b:	85 c9                	test   %ecx,%ecx
    380d:	74 f5                	je     3804 <usb_dp_walk_simple+0x14>
    380f:	8b 55 10             	mov    0x10(%ebp),%edx
    3812:	85 d2                	test   %edx,%edx
    3814:	74 ee                	je     3804 <usb_dp_walk_simple+0x14>
    3816:	8b 55 08             	mov    0x8(%ebp),%edx
    3819:	89 45 f0             	mov    %eax,-0x10(%ebp)
    381c:	8b 45 10             	mov    0x10(%ebp),%eax
    381f:	89 55 ec             	mov    %edx,-0x14(%ebp)
    3822:	89 45 e8             	mov    %eax,-0x18(%ebp)
    3825:	8b 55 14             	mov    0x14(%ebp),%edx
    3828:	8b 45 18             	mov    0x18(%ebp),%eax
    382b:	89 54 24 04          	mov    %edx,0x4(%esp)
    382f:	89 44 24 08          	mov    %eax,0x8(%esp)
    3833:	c7 04 24 00 00 00 00 	movl   $0x0,(%esp)
    383a:	8b 4d 08             	mov    0x8(%ebp),%ecx
    383d:	8d 55 ec             	lea    -0x14(%ebp),%edx
    3840:	8d 45 e8             	lea    -0x18(%ebp),%eax
    3843:	c7 45 f4 00 00 00 00 	movl   $0x0,-0xc(%ebp)
    384a:	e8 81 f6 ff ff       	call   2ed0 <usb_dp_browse_simple_internal>
    384f:	c9                   	leave  
    3850:	c3                   	ret    

00003851 <get_next_descriptor.part.1>:
    3851:	55                   	push   %ebp
    3852:	89 e5                	mov    %esp,%ebp
    3854:	83 ec 18             	sub    $0x18,%esp
    3857:	c7 44 24 08 69 00 00 	movl   $0x69,0x8(%esp)
    385e:	00 
    385f:	c7 44 24 04 57 ca 02 	movl   $0x2ca57,0x4(%esp)
    3866:	00 
    3867:	c7 04 24 60 ca 02 00 	movl   $0x2ca60,(%esp)
    386e:	e8 1d 44 02 00       	call   27c90 <assert_abort>
    3873:	66 90                	xchg   %ax,%ax
    3875:	66 90                	xchg   %ax,%ax
    3877:	66 90                	xchg   %ax,%ax
    3879:	66 90                	xchg   %ax,%ax
    387b:	66 90                	xchg   %ax,%ax
    387d:	66 90                	xchg   %ax,%ax
    387f:	90                   	nop

00003880 <usb_pipe_start_long_transfer>:
    3880:	55                   	push   %ebp
    3881:	89 e5                	mov    %esp,%ebp
    3883:	83 ec 18             	sub    $0x18,%esp
    3886:	8b 45 08             	mov    0x8(%ebp),%eax
    3889:	85 c0                	test   %eax,%eax
    388b:	74 15                	je     38a2 <usb_pipe_start_long_transfer+0x22>
    388d:	8b 00                	mov    (%eax),%eax
    388f:	85 c0                	test   %eax,%eax
    3891:	74 47                	je     38da <usb_pipe_start_long_transfer+0x5a>
    3893:	8b 00                	mov    (%eax),%eax
    3895:	85 c0                	test   %eax,%eax
    3897:	74 25                	je     38be <usb_pipe_start_long_transfer+0x3e>
    3899:	89 45 08             	mov    %eax,0x8(%ebp)
    389c:	c9                   	leave  
    389d:	e9 be 39 00 00       	jmp    7260 <usb_hc_connection_open>
    38a2:	c7 44 24 08 33 00 00 	movl   $0x33,0x8(%esp)
    38a9:	00 
    38aa:	c7 44 24 04 d0 ca 02 	movl   $0x2cad0,0x4(%esp)
    38b1:	00 
    38b2:	c7 04 24 0f cc 02 00 	movl   $0x2cc0f,(%esp)
    38b9:	e8 d2 43 02 00       	call   27c90 <assert_abort>
    38be:	c7 44 24 08 35 00 00 	movl   $0x35,0x8(%esp)
    38c5:	00 
    38c6:	c7 44 24 04 d0 ca 02 	movl   $0x2cad0,0x4(%esp)
    38cd:	00 
    38ce:	c7 04 24 e7 ca 02 00 	movl   $0x2cae7,(%esp)
    38d5:	e8 b6 43 02 00       	call   27c90 <assert_abort>
    38da:	c7 44 24 08 34 00 00 	movl   $0x34,0x8(%esp)
    38e1:	00 
    38e2:	c7 44 24 04 d0 ca 02 	movl   $0x2cad0,0x4(%esp)
    38e9:	00 
    38ea:	c7 04 24 dc ca 02 00 	movl   $0x2cadc,(%esp)
    38f1:	e8 9a 43 02 00       	call   27c90 <assert_abort>
    38f6:	8d 76 00             	lea    0x0(%esi),%esi
    38f9:	8d bc 27 00 00 00 00 	lea    0x0(%edi,%eiz,1),%edi

00003900 <usb_pipe_end_long_transfer>:
    3900:	55                   	push   %ebp
    3901:	89 e5                	mov    %esp,%ebp
    3903:	83 ec 18             	sub    $0x18,%esp
    3906:	8b 45 08             	mov    0x8(%ebp),%eax
    3909:	85 c0                	test   %eax,%eax
    390b:	74 15                	je     3922 <usb_pipe_end_long_transfer+0x22>
    390d:	8b 00                	mov    (%eax),%eax
    390f:	85 c0                	test   %eax,%eax
    3911:	74 47                	je     395a <usb_pipe_end_long_transfer+0x5a>
    3913:	8b 00                	mov    (%eax),%eax
    3915:	85 c0                	test   %eax,%eax
    3917:	74 25                	je     393e <usb_pipe_end_long_transfer+0x3e>
    3919:	89 45 08             	mov    %eax,0x8(%ebp)
    391c:	c9                   	leave  
    391d:	e9 ee 39 00 00       	jmp    7310 <usb_hc_connection_close>
    3922:	c7 44 24 08 40 00 00 	movl   $0x40,0x8(%esp)
    3929:	00 
    392a:	c7 44 24 04 d0 ca 02 	movl   $0x2cad0,0x4(%esp)
    3931:	00 
    3932:	c7 04 24 0f cc 02 00 	movl   $0x2cc0f,(%esp)
    3939:	e8 52 43 02 00       	call   27c90 <assert_abort>
    393e:	c7 44 24 08 42 00 00 	movl   $0x42,0x8(%esp)
    3945:	00 
    3946:	c7 44 24 04 d0 ca 02 	movl   $0x2cad0,0x4(%esp)
    394d:	00 
    394e:	c7 04 24 e7 ca 02 00 	movl   $0x2cae7,(%esp)
    3955:	e8 36 43 02 00       	call   27c90 <assert_abort>
    395a:	c7 44 24 08 41 00 00 	movl   $0x41,0x8(%esp)
    3961:	00 
    3962:	c7 44 24 04 d0 ca 02 	movl   $0x2cad0,0x4(%esp)
    3969:	00 
    396a:	c7 04 24 dc ca 02 00 	movl   $0x2cadc,(%esp)
    3971:	e8 1a 43 02 00       	call   27c90 <assert_abort>
    3976:	8d 76 00             	lea    0x0(%esi),%esi
    3979:	8d bc 27 00 00 00 00 	lea    0x0(%edi,%eiz,1),%edi

00003980 <usb_pipe_control_read>:
    3980:	55                   	push   %ebp
    3981:	89 e5                	mov    %esp,%ebp
    3983:	57                   	push   %edi
    3984:	56                   	push   %esi
    3985:	53                   	push   %ebx
    3986:	83 ec 3c             	sub    $0x3c,%esp
    3989:	8b 5d 08             	mov    0x8(%ebp),%ebx
    398c:	8b 45 0c             	mov    0xc(%ebp),%eax
    398f:	85 db                	test   %ebx,%ebx
    3991:	0f 84 08 01 00 00    	je     3a9f <usb_pipe_control_read+0x11f>
    3997:	83 7d 10 08          	cmpl   $0x8,0x10(%ebp)
    399b:	0f 85 f7 00 00 00    	jne    3a98 <usb_pipe_control_read+0x118>
    39a1:	85 c0                	test   %eax,%eax
    39a3:	0f 84 ef 00 00 00    	je     3a98 <usb_pipe_control_read+0x118>
    39a9:	8b 75 18             	mov    0x18(%ebp),%esi
    39ac:	85 f6                	test   %esi,%esi
    39ae:	0f 84 e4 00 00 00    	je     3a98 <usb_pipe_control_read+0x118>
    39b4:	8b 4d 14             	mov    0x14(%ebp),%ecx
    39b7:	85 c9                	test   %ecx,%ecx
    39b9:	0f 84 d9 00 00 00    	je     3a98 <usb_pipe_control_read+0x118>
    39bf:	83 7b 0c 02          	cmpl   $0x2,0xc(%ebx)
    39c3:	0f 85 97 00 00 00    	jne    3a60 <usb_pipe_control_read+0xe0>
    39c9:	8b 53 08             	mov    0x8(%ebx),%edx
    39cc:	85 d2                	test   %edx,%edx
    39ce:	0f 85 8c 00 00 00    	jne    3a60 <usb_pipe_control_read+0xe0>
    39d4:	89 44 24 04          	mov    %eax,0x4(%esp)
    39d8:	8d 45 e0             	lea    -0x20(%ebp),%eax
    39db:	c7 44 24 08 08 00 00 	movl   $0x8,0x8(%esp)
    39e2:	00 
    39e3:	89 04 24             	mov    %eax,(%esp)
    39e6:	e8 e5 c5 00 00       	call   ffd0 <memcpy>
    39eb:	8b 0b                	mov    (%ebx),%ecx
    39ed:	c7 45 dc 00 00 00 00 	movl   $0x0,-0x24(%ebp)
    39f4:	8b 45 e0             	mov    -0x20(%ebp),%eax
    39f7:	8b 55 e4             	mov    -0x1c(%ebp),%edx
    39fa:	85 c9                	test   %ecx,%ecx
    39fc:	0f bf 73 04          	movswl 0x4(%ebx),%esi
    3a00:	0f 84 b5 00 00 00    	je     3abb <usb_pipe_control_read+0x13b>
    3a06:	8d 7d dc             	lea    -0x24(%ebp),%edi
    3a09:	89 74 24 08          	mov    %esi,0x8(%esp)
    3a0d:	89 7c 24 1c          	mov    %edi,0x1c(%esp)
    3a11:	8b 7d 18             	mov    0x18(%ebp),%edi
    3a14:	89 7c 24 18          	mov    %edi,0x18(%esp)
    3a18:	8b 7d 14             	mov    0x14(%ebp),%edi
    3a1b:	89 7c 24 14          	mov    %edi,0x14(%esp)
    3a1f:	89 44 24 0c          	mov    %eax,0xc(%esp)
    3a23:	89 54 24 10          	mov    %edx,0x10(%esp)
    3a27:	0f bf 41 04          	movswl 0x4(%ecx),%eax
    3a2b:	89 44 24 04          	mov    %eax,0x4(%esp)
    3a2f:	8b 01                	mov    (%ecx),%eax
    3a31:	89 04 24             	mov    %eax,(%esp)
    3a34:	e8 97 43 00 00       	call   7dd0 <usb_hc_read>
    3a39:	89 c6                	mov    %eax,%esi
    3a3b:	3d d3 fe ff ff       	cmp    $0xfffffed3,%eax
    3a40:	74 2e                	je     3a70 <usb_pipe_control_read+0xf0>
    3a42:	85 c0                	test   %eax,%eax
    3a44:	75 0f                	jne    3a55 <usb_pipe_control_read+0xd5>
    3a46:	8b 45 1c             	mov    0x1c(%ebp),%eax
    3a49:	85 c0                	test   %eax,%eax
    3a4b:	74 08                	je     3a55 <usb_pipe_control_read+0xd5>
    3a4d:	8b 55 1c             	mov    0x1c(%ebp),%edx
    3a50:	8b 45 dc             	mov    -0x24(%ebp),%eax
    3a53:	89 02                	mov    %eax,(%edx)
    3a55:	83 c4 3c             	add    $0x3c,%esp
    3a58:	89 f0                	mov    %esi,%eax
    3a5a:	5b                   	pop    %ebx
    3a5b:	5e                   	pop    %esi
    3a5c:	5f                   	pop    %edi
    3a5d:	5d                   	pop    %ebp
    3a5e:	c3                   	ret    
    3a5f:	90                   	nop
    3a60:	83 c4 3c             	add    $0x3c,%esp
    3a63:	be fa fe ff ff       	mov    $0xfffffefa,%esi
    3a68:	89 f0                	mov    %esi,%eax
    3a6a:	5b                   	pop    %ebx
    3a6b:	5e                   	pop    %esi
    3a6c:	5f                   	pop    %edi
    3a6d:	5d                   	pop    %ebp
    3a6e:	c3                   	ret    
    3a6f:	90                   	nop
    3a70:	80 7b 14 00          	cmpb   $0x0,0x14(%ebx)
    3a74:	74 df                	je     3a55 <usb_pipe_control_read+0xd5>
    3a76:	66 83 7b 04 00       	cmpw   $0x0,0x4(%ebx)
    3a7b:	75 d8                	jne    3a55 <usb_pipe_control_read+0xd5>
    3a7d:	c6 43 14 00          	movb   $0x0,0x14(%ebx)
    3a81:	c7 44 24 04 00 00 00 	movl   $0x0,0x4(%esp)
    3a88:	00 
    3a89:	89 1c 24             	mov    %ebx,(%esp)
    3a8c:	e8 9f 29 00 00       	call   6430 <usb_request_clear_endpoint_halt>
    3a91:	c6 43 14 01          	movb   $0x1,0x14(%ebx)
    3a95:	eb be                	jmp    3a55 <usb_pipe_control_read+0xd5>
    3a97:	90                   	nop
    3a98:	be f2 ff ff ff       	mov    $0xfffffff2,%esi
    3a9d:	eb b6                	jmp    3a55 <usb_pipe_control_read+0xd5>
    3a9f:	c7 44 24 08 69 00 00 	movl   $0x69,0x8(%esp)
    3aa6:	00 
    3aa7:	c7 44 24 04 d0 ca 02 	movl   $0x2cad0,0x4(%esp)
    3aae:	00 
    3aaf:	c7 04 24 0f cc 02 00 	movl   $0x2cc0f,(%esp)
    3ab6:	e8 d5 41 02 00       	call   27c90 <assert_abort>
    3abb:	c7 44 24 08 78 00 00 	movl   $0x78,0x8(%esp)
    3ac2:	00 
    3ac3:	c7 44 24 04 0c cb 02 	movl   $0x2cb0c,0x4(%esp)
    3aca:	00 
    3acb:	c7 04 24 01 cb 02 00 	movl   $0x2cb01,(%esp)
    3ad2:	e8 b9 41 02 00       	call   27c90 <assert_abort>
    3ad7:	89 f6                	mov    %esi,%esi
    3ad9:	8d bc 27 00 00 00 00 	lea    0x0(%edi,%eiz,1),%edi

00003ae0 <usb_pipe_control_write>:
    3ae0:	55                   	push   %ebp
    3ae1:	89 e5                	mov    %esp,%ebp
    3ae3:	57                   	push   %edi
    3ae4:	56                   	push   %esi
    3ae5:	53                   	push   %ebx
    3ae6:	83 ec 3c             	sub    $0x3c,%esp
    3ae9:	8b 5d 08             	mov    0x8(%ebp),%ebx
    3aec:	8b 45 0c             	mov    0xc(%ebp),%eax
    3aef:	8b 75 18             	mov    0x18(%ebp),%esi
    3af2:	85 db                	test   %ebx,%ebx
    3af4:	0f 84 03 01 00 00    	je     3bfd <usb_pipe_control_write+0x11d>
    3afa:	83 7d 10 08          	cmpl   $0x8,0x10(%ebp)
    3afe:	0f 85 b4 00 00 00    	jne    3bb8 <usb_pipe_control_write+0xd8>
    3b04:	85 c0                	test   %eax,%eax
    3b06:	0f 84 ac 00 00 00    	je     3bb8 <usb_pipe_control_write+0xd8>
    3b0c:	85 f6                	test   %esi,%esi
    3b0e:	0f 85 dc 00 00 00    	jne    3bf0 <usb_pipe_control_write+0x110>
    3b14:	85 f6                	test   %esi,%esi
    3b16:	0f 84 8c 00 00 00    	je     3ba8 <usb_pipe_control_write+0xc8>
    3b1c:	83 7b 0c 02          	cmpl   $0x2,0xc(%ebx)
    3b20:	75 76                	jne    3b98 <usb_pipe_control_write+0xb8>
    3b22:	8b 7b 08             	mov    0x8(%ebx),%edi
    3b25:	85 ff                	test   %edi,%edi
    3b27:	75 6f                	jne    3b98 <usb_pipe_control_write+0xb8>
    3b29:	89 44 24 04          	mov    %eax,0x4(%esp)
    3b2d:	8d 45 e0             	lea    -0x20(%ebp),%eax
    3b30:	c7 44 24 08 08 00 00 	movl   $0x8,0x8(%esp)
    3b37:	00 
    3b38:	89 04 24             	mov    %eax,(%esp)
    3b3b:	e8 90 c4 00 00       	call   ffd0 <memcpy>
    3b40:	8b 0b                	mov    (%ebx),%ecx
    3b42:	8b 45 e0             	mov    -0x20(%ebp),%eax
    3b45:	8b 55 e4             	mov    -0x1c(%ebp),%edx
    3b48:	8b 7b 04             	mov    0x4(%ebx),%edi
    3b4b:	85 c9                	test   %ecx,%ecx
    3b4d:	0f 84 c6 00 00 00    	je     3c19 <usb_pipe_control_write+0x139>
    3b53:	89 74 24 18          	mov    %esi,0x18(%esp)
    3b57:	89 44 24 0c          	mov    %eax,0xc(%esp)
    3b5b:	8b 75 14             	mov    0x14(%ebp),%esi
    3b5e:	89 54 24 10          	mov    %edx,0x10(%esp)
    3b62:	0f bf c7             	movswl %di,%eax
    3b65:	89 74 24 14          	mov    %esi,0x14(%esp)
    3b69:	89 44 24 08          	mov    %eax,0x8(%esp)
    3b6d:	0f bf 41 04          	movswl 0x4(%ecx),%eax
    3b71:	89 44 24 04          	mov    %eax,0x4(%esp)
    3b75:	8b 01                	mov    (%ecx),%eax
    3b77:	89 04 24             	mov    %eax,(%esp)
    3b7a:	e8 21 44 00 00       	call   7fa0 <usb_hc_write>
    3b7f:	89 c6                	mov    %eax,%esi
    3b81:	3d d3 fe ff ff       	cmp    $0xfffffed3,%eax
    3b86:	74 40                	je     3bc8 <usb_pipe_control_write+0xe8>
    3b88:	83 c4 3c             	add    $0x3c,%esp
    3b8b:	89 f0                	mov    %esi,%eax
    3b8d:	5b                   	pop    %ebx
    3b8e:	5e                   	pop    %esi
    3b8f:	5f                   	pop    %edi
    3b90:	5d                   	pop    %ebp
    3b91:	c3                   	ret    
    3b92:	8d b6 00 00 00 00    	lea    0x0(%esi),%esi
    3b98:	83 c4 3c             	add    $0x3c,%esp
    3b9b:	be fa fe ff ff       	mov    $0xfffffefa,%esi
    3ba0:	89 f0                	mov    %esi,%eax
    3ba2:	5b                   	pop    %ebx
    3ba3:	5e                   	pop    %esi
    3ba4:	5f                   	pop    %edi
    3ba5:	5d                   	pop    %ebp
    3ba6:	c3                   	ret    
    3ba7:	90                   	nop
    3ba8:	8b 55 14             	mov    0x14(%ebp),%edx
    3bab:	85 d2                	test   %edx,%edx
    3bad:	0f 84 69 ff ff ff    	je     3b1c <usb_pipe_control_write+0x3c>
    3bb3:	90                   	nop
    3bb4:	8d 74 26 00          	lea    0x0(%esi,%eiz,1),%esi
    3bb8:	83 c4 3c             	add    $0x3c,%esp
    3bbb:	be f2 ff ff ff       	mov    $0xfffffff2,%esi
    3bc0:	89 f0                	mov    %esi,%eax
    3bc2:	5b                   	pop    %ebx
    3bc3:	5e                   	pop    %esi
    3bc4:	5f                   	pop    %edi
    3bc5:	5d                   	pop    %ebp
    3bc6:	c3                   	ret    
    3bc7:	90                   	nop
    3bc8:	80 7b 14 00          	cmpb   $0x0,0x14(%ebx)
    3bcc:	74 ba                	je     3b88 <usb_pipe_control_write+0xa8>
    3bce:	66 83 7b 04 00       	cmpw   $0x0,0x4(%ebx)
    3bd3:	75 b3                	jne    3b88 <usb_pipe_control_write+0xa8>
    3bd5:	c6 43 14 00          	movb   $0x0,0x14(%ebx)
    3bd9:	c7 44 24 04 00 00 00 	movl   $0x0,0x4(%esp)
    3be0:	00 
    3be1:	89 1c 24             	mov    %ebx,(%esp)
    3be4:	e8 47 28 00 00       	call   6430 <usb_request_clear_endpoint_halt>
    3be9:	c6 43 14 01          	movb   $0x1,0x14(%ebx)
    3bed:	eb 99                	jmp    3b88 <usb_pipe_control_write+0xa8>
    3bef:	90                   	nop
    3bf0:	8b 4d 14             	mov    0x14(%ebp),%ecx
    3bf3:	85 c9                	test   %ecx,%ecx
    3bf5:	0f 85 19 ff ff ff    	jne    3b14 <usb_pipe_control_write+0x34>
    3bfb:	eb bb                	jmp    3bb8 <usb_pipe_control_write+0xd8>
    3bfd:	c7 44 24 08 99 00 00 	movl   $0x99,0x8(%esp)
    3c04:	00 
    3c05:	c7 44 24 04 d0 ca 02 	movl   $0x2cad0,0x4(%esp)
    3c0c:	00 
    3c0d:	c7 04 24 0f cc 02 00 	movl   $0x2cc0f,(%esp)
    3c14:	e8 77 40 02 00       	call   27c90 <assert_abort>
    3c19:	c7 44 24 08 88 00 00 	movl   $0x88,0x8(%esp)
    3c20:	00 
    3c21:	c7 44 24 04 0c cb 02 	movl   $0x2cb0c,0x4(%esp)
    3c28:	00 
    3c29:	c7 04 24 01 cb 02 00 	movl   $0x2cb01,(%esp)
    3c30:	e8 5b 40 02 00       	call   27c90 <assert_abort>
    3c35:	8d 74 26 00          	lea    0x0(%esi,%eiz,1),%esi
    3c39:	8d bc 27 00 00 00 00 	lea    0x0(%edi,%eiz,1),%edi

00003c40 <usb_pipe_read>:
    3c40:	55                   	push   %ebp
    3c41:	89 e5                	mov    %esp,%ebp
    3c43:	56                   	push   %esi
    3c44:	53                   	push   %ebx
    3c45:	83 ec 30             	sub    $0x30,%esp
    3c48:	8b 45 08             	mov    0x8(%ebp),%eax
    3c4b:	8b 4d 0c             	mov    0xc(%ebp),%ecx
    3c4e:	8b 5d 10             	mov    0x10(%ebp),%ebx
    3c51:	85 c0                	test   %eax,%eax
    3c53:	0f 84 be 00 00 00    	je     3d17 <usb_pipe_read+0xd7>
    3c59:	85 c9                	test   %ecx,%ecx
    3c5b:	0f 84 af 00 00 00    	je     3d10 <usb_pipe_read+0xd0>
    3c61:	85 db                	test   %ebx,%ebx
    3c63:	0f 84 a7 00 00 00    	je     3d10 <usb_pipe_read+0xd0>
    3c69:	8b 70 0c             	mov    0xc(%eax),%esi
    3c6c:	85 f6                	test   %esi,%esi
    3c6e:	0f 85 94 00 00 00    	jne    3d08 <usb_pipe_read+0xc8>
    3c74:	8b 50 08             	mov    0x8(%eax),%edx
    3c77:	85 d2                	test   %edx,%edx
    3c79:	0f 84 89 00 00 00    	je     3d08 <usb_pipe_read+0xc8>
    3c7f:	83 ea 02             	sub    $0x2,%edx
    3c82:	83 fa 01             	cmp    $0x1,%edx
    3c85:	77 71                	ja     3cf8 <usb_pipe_read+0xb8>
    3c87:	0f bf 50 04          	movswl 0x4(%eax),%edx
    3c8b:	8b 00                	mov    (%eax),%eax
    3c8d:	c7 45 f4 00 00 00 00 	movl   $0x0,-0xc(%ebp)
    3c94:	85 c0                	test   %eax,%eax
    3c96:	0f 84 97 00 00 00    	je     3d33 <usb_pipe_read+0xf3>
    3c9c:	8d 75 f4             	lea    -0xc(%ebp),%esi
    3c9f:	89 5c 24 18          	mov    %ebx,0x18(%esp)
    3ca3:	89 74 24 1c          	mov    %esi,0x1c(%esp)
    3ca7:	89 4c 24 14          	mov    %ecx,0x14(%esp)
    3cab:	c7 44 24 0c 00 00 00 	movl   $0x0,0xc(%esp)
    3cb2:	00 
    3cb3:	c7 44 24 10 00 00 00 	movl   $0x0,0x10(%esp)
    3cba:	00 
    3cbb:	89 54 24 08          	mov    %edx,0x8(%esp)
    3cbf:	0f bf 50 04          	movswl 0x4(%eax),%edx
    3cc3:	89 54 24 04          	mov    %edx,0x4(%esp)
    3cc7:	8b 00                	mov    (%eax),%eax
    3cc9:	89 04 24             	mov    %eax,(%esp)
    3ccc:	e8 ff 40 00 00       	call   7dd0 <usb_hc_read>
    3cd1:	85 c0                	test   %eax,%eax
    3cd3:	74 0b                	je     3ce0 <usb_pipe_read+0xa0>
    3cd5:	83 c4 30             	add    $0x30,%esp
    3cd8:	5b                   	pop    %ebx
    3cd9:	5e                   	pop    %esi
    3cda:	5d                   	pop    %ebp
    3cdb:	c3                   	ret    
    3cdc:	8d 74 26 00          	lea    0x0(%esi,%eiz,1),%esi
    3ce0:	8b 5d 14             	mov    0x14(%ebp),%ebx
    3ce3:	85 db                	test   %ebx,%ebx
    3ce5:	74 ee                	je     3cd5 <usb_pipe_read+0x95>
    3ce7:	8b 55 14             	mov    0x14(%ebp),%edx
    3cea:	8b 45 f4             	mov    -0xc(%ebp),%eax
    3ced:	89 02                	mov    %eax,(%edx)
    3cef:	83 c4 30             	add    $0x30,%esp
    3cf2:	31 c0                	xor    %eax,%eax
    3cf4:	5b                   	pop    %ebx
    3cf5:	5e                   	pop    %esi
    3cf6:	5d                   	pop    %ebp
    3cf7:	c3                   	ret    
    3cf8:	83 c4 30             	add    $0x30,%esp
    3cfb:	b8 f5 ff ff ff       	mov    $0xfffffff5,%eax
    3d00:	5b                   	pop    %ebx
    3d01:	5e                   	pop    %esi
    3d02:	5d                   	pop    %ebp
    3d03:	c3                   	ret    
    3d04:	8d 74 26 00          	lea    0x0(%esi,%eiz,1),%esi
    3d08:	b8 fa fe ff ff       	mov    $0xfffffefa,%eax
    3d0d:	eb c6                	jmp    3cd5 <usb_pipe_read+0x95>
    3d0f:	90                   	nop
    3d10:	b8 f2 ff ff ff       	mov    $0xfffffff2,%eax
    3d15:	eb be                	jmp    3cd5 <usb_pipe_read+0x95>
    3d17:	c7 44 24 08 c4 00 00 	movl   $0xc4,0x8(%esp)
    3d1e:	00 
    3d1f:	c7 44 24 04 d0 ca 02 	movl   $0x2cad0,0x4(%esp)
    3d26:	00 
    3d27:	c7 04 24 0f cc 02 00 	movl   $0x2cc0f,(%esp)
    3d2e:	e8 5d 3f 02 00       	call   27c90 <assert_abort>
    3d33:	c7 44 24 08 78 00 00 	movl   $0x78,0x8(%esp)
    3d3a:	00 
    3d3b:	c7 44 24 04 0c cb 02 	movl   $0x2cb0c,0x4(%esp)
    3d42:	00 
    3d43:	c7 04 24 01 cb 02 00 	movl   $0x2cb01,(%esp)
    3d4a:	e8 41 3f 02 00       	call   27c90 <assert_abort>
    3d4f:	90                   	nop

00003d50 <usb_pipe_write>:
    3d50:	55                   	push   %ebp
    3d51:	89 e5                	mov    %esp,%ebp
    3d53:	53                   	push   %ebx
    3d54:	83 ec 24             	sub    $0x24,%esp
    3d57:	8b 45 08             	mov    0x8(%ebp),%eax
    3d5a:	8b 4d 0c             	mov    0xc(%ebp),%ecx
    3d5d:	8b 55 10             	mov    0x10(%ebp),%edx
    3d60:	85 c0                	test   %eax,%eax
    3d62:	0f 84 87 00 00 00    	je     3def <usb_pipe_write+0x9f>
    3d68:	85 d2                	test   %edx,%edx
    3d6a:	74 7c                	je     3de8 <usb_pipe_write+0x98>
    3d6c:	85 c9                	test   %ecx,%ecx
    3d6e:	74 78                	je     3de8 <usb_pipe_write+0x98>
    3d70:	83 78 0c 01          	cmpl   $0x1,0xc(%eax)
    3d74:	75 62                	jne    3dd8 <usb_pipe_write+0x88>
    3d76:	8b 58 08             	mov    0x8(%eax),%ebx
    3d79:	85 db                	test   %ebx,%ebx
    3d7b:	74 5b                	je     3dd8 <usb_pipe_write+0x88>
    3d7d:	83 eb 02             	sub    $0x2,%ebx
    3d80:	83 fb 01             	cmp    $0x1,%ebx
    3d83:	77 43                	ja     3dc8 <usb_pipe_write+0x78>
    3d85:	0f bf 58 04          	movswl 0x4(%eax),%ebx
    3d89:	8b 00                	mov    (%eax),%eax
    3d8b:	85 c0                	test   %eax,%eax
    3d8d:	74 7c                	je     3e0b <usb_pipe_write+0xbb>
    3d8f:	89 54 24 18          	mov    %edx,0x18(%esp)
    3d93:	89 4c 24 14          	mov    %ecx,0x14(%esp)
    3d97:	c7 44 24 0c 00 00 00 	movl   $0x0,0xc(%esp)
    3d9e:	00 
    3d9f:	c7 44 24 10 00 00 00 	movl   $0x0,0x10(%esp)
    3da6:	00 
    3da7:	89 5c 24 08          	mov    %ebx,0x8(%esp)
    3dab:	0f bf 50 04          	movswl 0x4(%eax),%edx
    3daf:	89 54 24 04          	mov    %edx,0x4(%esp)
    3db3:	8b 00                	mov    (%eax),%eax
    3db5:	89 04 24             	mov    %eax,(%esp)
    3db8:	e8 e3 41 00 00       	call   7fa0 <usb_hc_write>
    3dbd:	83 c4 24             	add    $0x24,%esp
    3dc0:	5b                   	pop    %ebx
    3dc1:	5d                   	pop    %ebp
    3dc2:	c3                   	ret    
    3dc3:	90                   	nop
    3dc4:	8d 74 26 00          	lea    0x0(%esi,%eiz,1),%esi
    3dc8:	83 c4 24             	add    $0x24,%esp
    3dcb:	b8 f5 ff ff ff       	mov    $0xfffffff5,%eax
    3dd0:	5b                   	pop    %ebx
    3dd1:	5d                   	pop    %ebp
    3dd2:	c3                   	ret    
    3dd3:	90                   	nop
    3dd4:	8d 74 26 00          	lea    0x0(%esi,%eiz,1),%esi
    3dd8:	83 c4 24             	add    $0x24,%esp
    3ddb:	b8 fa fe ff ff       	mov    $0xfffffefa,%eax
    3de0:	5b                   	pop    %ebx
    3de1:	5d                   	pop    %ebp
    3de2:	c3                   	ret    
    3de3:	90                   	nop
    3de4:	8d 74 26 00          	lea    0x0(%esi,%eiz,1),%esi
    3de8:	b8 f2 ff ff ff       	mov    $0xfffffff2,%eax
    3ded:	eb ce                	jmp    3dbd <usb_pipe_write+0x6d>
    3def:	c7 44 24 08 ef 00 00 	movl   $0xef,0x8(%esp)
    3df6:	00 
    3df7:	c7 44 24 04 d0 ca 02 	movl   $0x2cad0,0x4(%esp)
    3dfe:	00 
    3dff:	c7 04 24 0f cc 02 00 	movl   $0x2cc0f,(%esp)
    3e06:	e8 85 3e 02 00       	call   27c90 <assert_abort>
    3e0b:	c7 44 24 08 88 00 00 	movl   $0x88,0x8(%esp)
    3e12:	00 
    3e13:	c7 44 24 04 0c cb 02 	movl   $0x2cb0c,0x4(%esp)
    3e1a:	00 
    3e1b:	c7 04 24 01 cb 02 00 	movl   $0x2cb01,(%esp)
    3e22:	e8 69 3e 02 00       	call   27c90 <assert_abort>
    3e27:	89 f6                	mov    %esi,%esi
    3e29:	8d bc 27 00 00 00 00 	lea    0x0(%edi,%eiz,1),%edi

00003e30 <usb_pipe_initialize>:
    3e30:	55                   	push   %ebp
    3e31:	89 e5                	mov    %esp,%ebp
    3e33:	83 ec 18             	sub    $0x18,%esp
    3e36:	8b 45 08             	mov    0x8(%ebp),%eax
    3e39:	8b 55 0c             	mov    0xc(%ebp),%edx
    3e3c:	8b 4d 10             	mov    0x10(%ebp),%ecx
    3e3f:	85 c0                	test   %eax,%eax
    3e41:	74 24                	je     3e67 <usb_pipe_initialize+0x37>
    3e43:	85 d2                	test   %edx,%edx
    3e45:	74 3c                	je     3e83 <usb_pipe_initialize+0x53>
    3e47:	89 10                	mov    %edx,(%eax)
    3e49:	8b 55 14             	mov    0x14(%ebp),%edx
    3e4c:	89 50 08             	mov    %edx,0x8(%eax)
    3e4f:	8b 55 18             	mov    0x18(%ebp),%edx
    3e52:	89 50 10             	mov    %edx,0x10(%eax)
    3e55:	8b 55 1c             	mov    0x1c(%ebp),%edx
    3e58:	66 89 48 04          	mov    %cx,0x4(%eax)
    3e5c:	89 50 0c             	mov    %edx,0xc(%eax)
    3e5f:	c6 40 14 00          	movb   $0x0,0x14(%eax)
    3e63:	31 c0                	xor    %eax,%eax
    3e65:	c9                   	leave  
    3e66:	c3                   	ret    
    3e67:	c7 44 24 08 15 01 00 	movl   $0x115,0x8(%esp)
    3e6e:	00 
    3e6f:	c7 44 24 04 d0 ca 02 	movl   $0x2cad0,0x4(%esp)
    3e76:	00 
    3e77:	c7 04 24 0f cc 02 00 	movl   $0x2cc0f,(%esp)
    3e7e:	e8 0d 3e 02 00       	call   27c90 <assert_abort>
    3e83:	c7 44 24 08 16 01 00 	movl   $0x116,0x8(%esp)
    3e8a:	00 
    3e8b:	c7 44 24 04 d0 ca 02 	movl   $0x2cad0,0x4(%esp)
    3e92:	00 
    3e93:	c7 04 24 e5 d7 02 00 	movl   $0x2d7e5,(%esp)
    3e9a:	e8 f1 3d 02 00       	call   27c90 <assert_abort>
    3e9f:	90                   	nop

00003ea0 <usb_pipe_initialize_default_control>:
    3ea0:	55                   	push   %ebp
    3ea1:	89 e5                	mov    %esp,%ebp
    3ea3:	83 ec 18             	sub    $0x18,%esp
    3ea6:	8b 45 08             	mov    0x8(%ebp),%eax
    3ea9:	8b 55 0c             	mov    0xc(%ebp),%edx
    3eac:	85 c0                	test   %eax,%eax
    3eae:	74 29                	je     3ed9 <usb_pipe_initialize_default_control+0x39>
    3eb0:	85 d2                	test   %edx,%edx
    3eb2:	74 41                	je     3ef5 <usb_pipe_initialize_default_control+0x55>
    3eb4:	89 10                	mov    %edx,(%eax)
    3eb6:	66 c7 40 04 00 00    	movw   $0x0,0x4(%eax)
    3ebc:	c7 40 08 00 00 00 00 	movl   $0x0,0x8(%eax)
    3ec3:	c7 40 10 08 00 00 00 	movl   $0x8,0x10(%eax)
    3eca:	c7 40 0c 02 00 00 00 	movl   $0x2,0xc(%eax)
    3ed1:	c6 40 14 01          	movb   $0x1,0x14(%eax)
    3ed5:	c9                   	leave  
    3ed6:	31 c0                	xor    %eax,%eax
    3ed8:	c3                   	ret    
    3ed9:	c7 44 24 08 2b 01 00 	movl   $0x12b,0x8(%esp)
    3ee0:	00 
    3ee1:	c7 44 24 04 d0 ca 02 	movl   $0x2cad0,0x4(%esp)
    3ee8:	00 
    3ee9:	c7 04 24 0f cc 02 00 	movl   $0x2cc0f,(%esp)
    3ef0:	e8 9b 3d 02 00       	call   27c90 <assert_abort>
    3ef5:	c7 44 24 08 2c 01 00 	movl   $0x12c,0x8(%esp)
    3efc:	00 
    3efd:	c7 44 24 04 d0 ca 02 	movl   $0x2cad0,0x4(%esp)
    3f04:	00 
    3f05:	c7 04 24 e5 d7 02 00 	movl   $0x2d7e5,(%esp)
    3f0c:	e8 7f 3d 02 00       	call   27c90 <assert_abort>
    3f11:	eb 0d                	jmp    3f20 <usb_pipe_register>
    3f13:	90                   	nop
    3f14:	90                   	nop
    3f15:	90                   	nop
    3f16:	90                   	nop
    3f17:	90                   	nop
    3f18:	90                   	nop
    3f19:	90                   	nop
    3f1a:	90                   	nop
    3f1b:	90                   	nop
    3f1c:	90                   	nop
    3f1d:	90                   	nop
    3f1e:	90                   	nop
    3f1f:	90                   	nop

00003f20 <usb_pipe_register>:
    3f20:	55                   	push   %ebp
    3f21:	89 e5                	mov    %esp,%ebp
    3f23:	83 ec 28             	sub    $0x28,%esp
    3f26:	8b 45 08             	mov    0x8(%ebp),%eax
    3f29:	85 c0                	test   %eax,%eax
    3f2b:	74 3e                	je     3f6b <usb_pipe_register+0x4b>
    3f2d:	8b 10                	mov    (%eax),%edx
    3f2f:	85 d2                	test   %edx,%edx
    3f31:	74 54                	je     3f87 <usb_pipe_register+0x67>
    3f33:	8b 4d 0c             	mov    0xc(%ebp),%ecx
    3f36:	89 4c 24 18          	mov    %ecx,0x18(%esp)
    3f3a:	8b 48 10             	mov    0x10(%eax),%ecx
    3f3d:	89 4c 24 14          	mov    %ecx,0x14(%esp)
    3f41:	8b 48 0c             	mov    0xc(%eax),%ecx
    3f44:	89 4c 24 10          	mov    %ecx,0x10(%esp)
    3f48:	8b 48 08             	mov    0x8(%eax),%ecx
    3f4b:	89 4c 24 0c          	mov    %ecx,0xc(%esp)
    3f4f:	0f bf 40 04          	movswl 0x4(%eax),%eax
    3f53:	89 44 24 08          	mov    %eax,0x8(%esp)
    3f57:	0f bf 42 04          	movswl 0x4(%edx),%eax
    3f5b:	89 44 24 04          	mov    %eax,0x4(%esp)
    3f5f:	8b 02                	mov    (%edx),%eax
    3f61:	89 04 24             	mov    %eax,(%esp)
    3f64:	e8 f7 3a 00 00       	call   7a60 <usb_hc_register_endpoint>
    3f69:	c9                   	leave  
    3f6a:	c3                   	ret    
    3f6b:	c7 44 24 08 3e 01 00 	movl   $0x13e,0x8(%esp)
    3f72:	00 
    3f73:	c7 44 24 04 d0 ca 02 	movl   $0x2cad0,0x4(%esp)
    3f7a:	00 
    3f7b:	c7 04 24 0f cc 02 00 	movl   $0x2cc0f,(%esp)
    3f82:	e8 09 3d 02 00       	call   27c90 <assert_abort>
    3f87:	c7 44 24 08 3f 01 00 	movl   $0x13f,0x8(%esp)
    3f8e:	00 
    3f8f:	c7 44 24 04 d0 ca 02 	movl   $0x2cad0,0x4(%esp)
    3f96:	00 
    3f97:	c7 04 24 dc ca 02 00 	movl   $0x2cadc,(%esp)
    3f9e:	e8 ed 3c 02 00       	call   27c90 <assert_abort>
    3fa3:	8d b6 00 00 00 00    	lea    0x0(%esi),%esi
    3fa9:	8d bc 27 00 00 00 00 	lea    0x0(%edi,%eiz,1),%edi

00003fb0 <usb_pipe_unregister>:
    3fb0:	55                   	push   %ebp
    3fb1:	89 e5                	mov    %esp,%ebp
    3fb3:	83 ec 18             	sub    $0x18,%esp
    3fb6:	8b 45 08             	mov    0x8(%ebp),%eax
    3fb9:	85 c0                	test   %eax,%eax
    3fbb:	74 29                	je     3fe6 <usb_pipe_unregister+0x36>
    3fbd:	8b 10                	mov    (%eax),%edx
    3fbf:	85 d2                	test   %edx,%edx
    3fc1:	74 3f                	je     4002 <usb_pipe_unregister+0x52>
    3fc3:	8b 48 0c             	mov    0xc(%eax),%ecx
    3fc6:	89 4c 24 0c          	mov    %ecx,0xc(%esp)
    3fca:	0f bf 40 04          	movswl 0x4(%eax),%eax
    3fce:	89 44 24 08          	mov    %eax,0x8(%esp)
    3fd2:	0f bf 42 04          	movswl 0x4(%edx),%eax
    3fd6:	89 44 24 04          	mov    %eax,0x4(%esp)
    3fda:	8b 02                	mov    (%edx),%eax
    3fdc:	89 04 24             	mov    %eax,(%esp)
    3fdf:	e8 3c 3c 00 00       	call   7c20 <usb_hc_unregister_endpoint>
    3fe4:	c9                   	leave  
    3fe5:	c3                   	ret    
    3fe6:	c7 44 24 08 4d 01 00 	movl   $0x14d,0x8(%esp)
    3fed:	00 
    3fee:	c7 44 24 04 d0 ca 02 	movl   $0x2cad0,0x4(%esp)
    3ff5:	00 
    3ff6:	c7 04 24 0f cc 02 00 	movl   $0x2cc0f,(%esp)
    3ffd:	e8 8e 3c 02 00       	call   27c90 <assert_abort>
    4002:	c7 44 24 08 4e 01 00 	movl   $0x14e,0x8(%esp)
    4009:	00 
    400a:	c7 44 24 04 d0 ca 02 	movl   $0x2cad0,0x4(%esp)
    4011:	00 
    4012:	c7 04 24 dc ca 02 00 	movl   $0x2cadc,(%esp)
    4019:	e8 72 3c 02 00       	call   27c90 <assert_abort>
    401e:	66 90                	xchg   %ax,%ax

00004020 <usb_pipe_initialize_from_configuration>:
    4020:	55                   	push   %ebp
    4021:	89 e5                	mov    %esp,%ebp
    4023:	57                   	push   %edi
    4024:	56                   	push   %esi
    4025:	53                   	push   %ebx
    4026:	83 ec 6c             	sub    $0x6c,%esp
    4029:	8b 4d 18             	mov    0x18(%ebp),%ecx
    402c:	8b 5d 14             	mov    0x14(%ebp),%ebx
    402f:	85 c9                	test   %ecx,%ecx
    4031:	0f 84 7d 02 00 00    	je     42b4 <usb_pipe_initialize_from_configuration+0x294>
    4037:	8b 55 10             	mov    0x10(%ebp),%edx
    403a:	85 d2                	test   %edx,%edx
    403c:	0f 84 68 02 00 00    	je     42aa <usb_pipe_initialize_from_configuration+0x28a>
    4042:	83 fb 08             	cmp    $0x8,%ebx
    4045:	0f 86 4d 02 00 00    	jbe    4298 <usb_pipe_initialize_from_configuration+0x278>
    404b:	8b 45 0c             	mov    0xc(%ebp),%eax
    404e:	85 c0                	test   %eax,%eax
    4050:	74 27                	je     4079 <usb_pipe_initialize_from_configuration+0x59>
    4052:	8b 75 0c             	mov    0xc(%ebp),%esi
    4055:	8b 45 08             	mov    0x8(%ebp),%eax
    4058:	8d 14 76             	lea    (%esi,%esi,2),%edx
    405b:	c1 e2 04             	shl    $0x4,%edx
    405e:	01 c2                	add    %eax,%edx
    4060:	c6 40 2c 00          	movb   $0x0,0x2c(%eax)
    4064:	c7 40 24 00 00 00 00 	movl   $0x0,0x24(%eax)
    406b:	c7 40 28 00 00 00 00 	movl   $0x0,0x28(%eax)
    4072:	83 c0 30             	add    $0x30,%eax
    4075:	39 d0                	cmp    %edx,%eax
    4077:	75 e7                	jne    4060 <usb_pipe_initialize_from_configuration+0x40>
    4079:	8b 55 10             	mov    0x10(%ebp),%edx
    407c:	8d 75 dc             	lea    -0x24(%ebp),%esi
    407f:	8d 7d d8             	lea    -0x28(%ebp),%edi
    4082:	89 54 24 08          	mov    %edx,0x8(%esp)
    4086:	89 74 24 04          	mov    %esi,0x4(%esp)
    408a:	89 3c 24             	mov    %edi,(%esp)
    408d:	c7 45 d8 60 cb 02 00 	movl   $0x2cb60,-0x28(%ebp)
    4094:	89 55 dc             	mov    %edx,-0x24(%ebp)
    4097:	89 5d e0             	mov    %ebx,-0x20(%ebp)
    409a:	89 4d e4             	mov    %ecx,-0x1c(%ebp)
    409d:	e8 3e eb ff ff       	call   2be0 <usb_dp_get_nested_descriptor>
    40a2:	85 c0                	test   %eax,%eax
    40a4:	0f 84 f8 01 00 00    	je     42a2 <usb_pipe_initialize_from_configuration+0x282>
    40aa:	89 c6                	mov    %eax,%esi
    40ac:	8d 74 26 00          	lea    0x0(%esi,%eiz,1),%esi
    40b0:	8d 7d dc             	lea    -0x24(%ebp),%edi
    40b3:	8d 45 d8             	lea    -0x28(%ebp),%eax
    40b6:	89 7c 24 04          	mov    %edi,0x4(%esp)
    40ba:	89 74 24 08          	mov    %esi,0x8(%esp)
    40be:	89 04 24             	mov    %eax,(%esp)
    40c1:	e8 1a eb ff ff       	call   2be0 <usb_dp_get_nested_descriptor>
    40c6:	89 c7                	mov    %eax,%edi
    40c8:	85 c0                	test   %eax,%eax
    40ca:	74 30                	je     40fc <usb_pipe_initialize_from_configuration+0xdc>
    40cc:	89 75 d0             	mov    %esi,-0x30(%ebp)
    40cf:	90                   	nop
    40d0:	80 7f 01 05          	cmpb   $0x5,0x1(%edi)
    40d4:	74 5a                	je     4130 <usb_pipe_initialize_from_configuration+0x110>
    40d6:	8b 45 d0             	mov    -0x30(%ebp),%eax
    40d9:	8d 55 dc             	lea    -0x24(%ebp),%edx
    40dc:	8d 75 d8             	lea    -0x28(%ebp),%esi
    40df:	89 7c 24 0c          	mov    %edi,0xc(%esp)
    40e3:	89 44 24 08          	mov    %eax,0x8(%esp)
    40e7:	89 54 24 04          	mov    %edx,0x4(%esp)
    40eb:	89 34 24             	mov    %esi,(%esp)
    40ee:	e8 0d ed ff ff       	call   2e00 <usb_dp_get_sibling_descriptor>
    40f3:	89 c7                	mov    %eax,%edi
    40f5:	85 c0                	test   %eax,%eax
    40f7:	75 d7                	jne    40d0 <usb_pipe_initialize_from_configuration+0xb0>
    40f9:	8b 75 d0             	mov    -0x30(%ebp),%esi
    40fc:	89 74 24 0c          	mov    %esi,0xc(%esp)
    4100:	8b 55 10             	mov    0x10(%ebp),%edx
    4103:	8d 75 dc             	lea    -0x24(%ebp),%esi
    4106:	8d 7d d8             	lea    -0x28(%ebp),%edi
    4109:	89 74 24 04          	mov    %esi,0x4(%esp)
    410d:	89 54 24 08          	mov    %edx,0x8(%esp)
    4111:	89 3c 24             	mov    %edi,(%esp)
    4114:	e8 e7 ec ff ff       	call   2e00 <usb_dp_get_sibling_descriptor>
    4119:	89 c6                	mov    %eax,%esi
    411b:	85 c0                	test   %eax,%eax
    411d:	75 91                	jne    40b0 <usb_pipe_initialize_from_configuration+0x90>
    411f:	31 c0                	xor    %eax,%eax
    4121:	83 c4 6c             	add    $0x6c,%esp
    4124:	5b                   	pop    %ebx
    4125:	5e                   	pop    %esi
    4126:	5f                   	pop    %edi
    4127:	5d                   	pop    %ebp
    4128:	c3                   	ret    
    4129:	8d b4 26 00 00 00 00 	lea    0x0(%esi,%eiz,1),%esi
    4130:	8b 45 e4             	mov    -0x1c(%ebp),%eax
    4133:	8b 75 0c             	mov    0xc(%ebp),%esi
    4136:	89 45 bc             	mov    %eax,-0x44(%ebp)
    4139:	8b 5d 08             	mov    0x8(%ebp),%ebx
    413c:	0f be 47 02          	movsbl 0x2(%edi),%eax
    4140:	88 c2                	mov    %al,%dl
    4142:	89 c1                	mov    %eax,%ecx
    4144:	83 e2 0f             	and    $0xf,%edx
    4147:	31 c0                	xor    %eax,%eax
    4149:	88 55 bb             	mov    %dl,-0x45(%ebp)
    414c:	8a 57 03             	mov    0x3(%edi),%dl
    414f:	83 e2 03             	and    $0x3,%edx
    4152:	83 f1 ff             	xor    $0xffffffff,%ecx
    4155:	c1 e9 1f             	shr    $0x1f,%ecx
    4158:	89 55 c4             	mov    %edx,-0x3c(%ebp)
    415b:	8b 55 d0             	mov    -0x30(%ebp),%edx
    415e:	8a 42 05             	mov    0x5(%edx),%al
    4161:	89 45 c0             	mov    %eax,-0x40(%ebp)
    4164:	31 c0                	xor    %eax,%eax
    4166:	8a 42 06             	mov    0x6(%edx),%al
    4169:	89 45 b4             	mov    %eax,-0x4c(%ebp)
    416c:	31 c0                	xor    %eax,%eax
    416e:	8a 42 07             	mov    0x7(%edx),%al
    4171:	89 45 ac             	mov    %eax,-0x54(%ebp)
    4174:	31 c0                	xor    %eax,%eax
    4176:	8a 42 03             	mov    0x3(%edx),%al
    4179:	89 45 cc             	mov    %eax,-0x34(%ebp)
    417c:	31 c0                	xor    %eax,%eax
    417e:	8a 42 02             	mov    0x2(%edx),%al
    4181:	85 f6                	test   %esi,%esi
    4183:	89 45 c8             	mov    %eax,-0x38(%ebp)
    4186:	0f 84 4a ff ff ff    	je     40d6 <usb_pipe_initialize_from_configuration+0xb6>
    418c:	89 7d b0             	mov    %edi,-0x50(%ebp)
    418f:	eb 11                	jmp    41a2 <usb_pipe_initialize_from_configuration+0x182>
    4191:	8d b4 26 00 00 00 00 	lea    0x0(%esi,%eiz,1),%esi
    4198:	83 c3 30             	add    $0x30,%ebx
    419b:	4e                   	dec    %esi
    419c:	0f 84 ee 00 00 00    	je     4290 <usb_pipe_initialize_from_configuration+0x270>
    41a2:	8b 43 1c             	mov    0x1c(%ebx),%eax
    41a5:	85 c0                	test   %eax,%eax
    41a7:	0f 88 d3 00 00 00    	js     4280 <usb_pipe_initialize_from_configuration+0x260>
    41ad:	39 45 c8             	cmp    %eax,-0x38(%ebp)
    41b0:	0f 94 c2             	sete   %dl
    41b3:	81 e2 ff 00 00 00    	and    $0xff,%edx
    41b9:	8b 43 20             	mov    0x20(%ebx),%eax
    41bc:	85 c0                	test   %eax,%eax
    41be:	0f 88 ac 00 00 00    	js     4270 <usb_pipe_initialize_from_configuration+0x250>
    41c4:	39 45 cc             	cmp    %eax,-0x34(%ebp)
    41c7:	0f 94 c0             	sete   %al
    41ca:	25 ff 00 00 00       	and    $0xff,%eax
    41cf:	89 45 d4             	mov    %eax,-0x2c(%ebp)
    41d2:	8b 43 18             	mov    0x18(%ebx),%eax
    41d5:	3b 48 04             	cmp    0x4(%eax),%ecx
    41d8:	75 be                	jne    4198 <usb_pipe_initialize_from_configuration+0x178>
    41da:	8b 7d c4             	mov    -0x3c(%ebp),%edi
    41dd:	3b 38                	cmp    (%eax),%edi
    41df:	75 b7                	jne    4198 <usb_pipe_initialize_from_configuration+0x178>
    41e1:	8b 78 08             	mov    0x8(%eax),%edi
    41e4:	85 ff                	test   %edi,%edi
    41e6:	78 05                	js     41ed <usb_pipe_initialize_from_configuration+0x1cd>
    41e8:	39 7d c0             	cmp    %edi,-0x40(%ebp)
    41eb:	75 ab                	jne    4198 <usb_pipe_initialize_from_configuration+0x178>
    41ed:	8b 78 0c             	mov    0xc(%eax),%edi
    41f0:	85 ff                	test   %edi,%edi
    41f2:	78 05                	js     41f9 <usb_pipe_initialize_from_configuration+0x1d9>
    41f4:	39 7d b4             	cmp    %edi,-0x4c(%ebp)
    41f7:	75 9f                	jne    4198 <usb_pipe_initialize_from_configuration+0x178>
    41f9:	8b 40 10             	mov    0x10(%eax),%eax
    41fc:	85 c0                	test   %eax,%eax
    41fe:	78 05                	js     4205 <usb_pipe_initialize_from_configuration+0x1e5>
    4200:	39 45 ac             	cmp    %eax,-0x54(%ebp)
    4203:	75 93                	jne    4198 <usb_pipe_initialize_from_configuration+0x178>
    4205:	85 55 d4             	test   %edx,-0x2c(%ebp)
    4208:	74 8e                	je     4198 <usb_pipe_initialize_from_configuration+0x178>
    420a:	8b 7d b0             	mov    -0x50(%ebp),%edi
    420d:	85 db                	test   %ebx,%ebx
    420f:	0f 84 c1 fe ff ff    	je     40d6 <usb_pipe_initialize_from_configuration+0xb6>
    4215:	80 7b 2c 00          	cmpb   $0x0,0x2c(%ebx)
    4219:	0f 85 b7 fe ff ff    	jne    40d6 <usb_pipe_initialize_from_configuration+0xb6>
    421f:	89 4c 24 14          	mov    %ecx,0x14(%esp)
    4223:	8b 55 bc             	mov    -0x44(%ebp),%edx
    4226:	66 8b 47 04          	mov    0x4(%edi),%ax
    422a:	89 54 24 04          	mov    %edx,0x4(%esp)
    422e:	25 ff ff 00 00       	and    $0xffff,%eax
    4233:	89 1c 24             	mov    %ebx,(%esp)
    4236:	89 44 24 10          	mov    %eax,0x10(%esp)
    423a:	8b 45 c4             	mov    -0x3c(%ebp),%eax
    423d:	89 44 24 0c          	mov    %eax,0xc(%esp)
    4241:	31 c0                	xor    %eax,%eax
    4243:	8a 45 bb             	mov    -0x45(%ebp),%al
    4246:	89 44 24 08          	mov    %eax,0x8(%esp)
    424a:	e8 e1 fb ff ff       	call   3e30 <usb_pipe_initialize>
    424f:	85 c0                	test   %eax,%eax
    4251:	0f 85 7f fe ff ff    	jne    40d6 <usb_pipe_initialize_from_configuration+0xb6>
    4257:	8b 45 d0             	mov    -0x30(%ebp),%eax
    425a:	c6 43 2c 01          	movb   $0x1,0x2c(%ebx)
    425e:	89 7b 24             	mov    %edi,0x24(%ebx)
    4261:	89 43 28             	mov    %eax,0x28(%ebx)
    4264:	e9 6d fe ff ff       	jmp    40d6 <usb_pipe_initialize_from_configuration+0xb6>
    4269:	8d b4 26 00 00 00 00 	lea    0x0(%esi,%eiz,1),%esi
    4270:	c7 45 d4 01 00 00 00 	movl   $0x1,-0x2c(%ebp)
    4277:	e9 56 ff ff ff       	jmp    41d2 <usb_pipe_initialize_from_configuration+0x1b2>
    427c:	8d 74 26 00          	lea    0x0(%esi,%eiz,1),%esi
    4280:	ba 01 00 00 00       	mov    $0x1,%edx
    4285:	e9 2f ff ff ff       	jmp    41b9 <usb_pipe_initialize_from_configuration+0x199>
    428a:	8d b6 00 00 00 00    	lea    0x0(%esi),%esi
    4290:	8b 7d b0             	mov    -0x50(%ebp),%edi
    4293:	e9 3e fe ff ff       	jmp    40d6 <usb_pipe_initialize_from_configuration+0xb6>
    4298:	b8 f9 fe ff ff       	mov    $0xfffffef9,%eax
    429d:	e9 7f fe ff ff       	jmp    4121 <usb_pipe_initialize_from_configuration+0x101>
    42a2:	83 c8 ff             	or     $0xffffffff,%eax
    42a5:	e9 77 fe ff ff       	jmp    4121 <usb_pipe_initialize_from_configuration+0x101>
    42aa:	b8 f6 ff ff ff       	mov    $0xfffffff6,%eax
    42af:	e9 6d fe ff ff       	jmp    4121 <usb_pipe_initialize_from_configuration+0x101>
    42b4:	c7 44 24 08 1c 01 00 	movl   $0x11c,0x8(%esp)
    42bb:	00 
    42bc:	c7 44 24 04 34 cb 02 	movl   $0x2cb34,0x4(%esp)
    42c3:	00 
    42c4:	c7 04 24 e5 d7 02 00 	movl   $0x2d7e5,(%esp)
    42cb:	e8 c0 39 02 00       	call   27c90 <assert_abort>

000042d0 <usb_pipe_probe_default_control>:
    42d0:	55                   	push   %ebp
    42d1:	89 e5                	mov    %esp,%ebp
    42d3:	57                   	push   %edi
    42d4:	56                   	push   %esi
    42d5:	53                   	push   %ebx
    42d6:	83 ec 4c             	sub    $0x4c,%esp
    42d9:	8b 5d 08             	mov    0x8(%ebp),%ebx
    42dc:	85 db                	test   %ebx,%ebx
    42de:	0f 84 5b 01 00 00    	je     443f <usb_pipe_probe_default_control+0x16f>
    42e4:	83 7b 0c 02          	cmpl   $0x2,0xc(%ebx)
    42e8:	0f 85 42 01 00 00    	jne    4430 <usb_pipe_probe_default_control+0x160>
    42ee:	8b 4b 08             	mov    0x8(%ebx),%ecx
    42f1:	85 c9                	test   %ecx,%ecx
    42f3:	0f 85 37 01 00 00    	jne    4430 <usb_pipe_probe_default_control+0x160>
    42f9:	66 83 7b 04 00       	cmpw   $0x0,0x4(%ebx)
    42fe:	0f 85 2c 01 00 00    	jne    4430 <usb_pipe_probe_default_control+0x160>
    4304:	89 1c 24             	mov    %ebx,(%esp)
    4307:	8d 7d dc             	lea    -0x24(%ebp),%edi
    430a:	8d 75 e0             	lea    -0x20(%ebp),%esi
    430d:	e8 6e f5 ff ff       	call   3880 <usb_pipe_start_long_transfer>
    4312:	89 7c 24 20          	mov    %edi,0x20(%esp)
    4316:	c7 44 24 1c 08 00 00 	movl   $0x8,0x1c(%esp)
    431d:	00 
    431e:	89 74 24 18          	mov    %esi,0x18(%esp)
    4322:	c7 44 24 14 00 00 00 	movl   $0x0,0x14(%esp)
    4329:	00 
    432a:	c7 44 24 10 00 00 00 	movl   $0x0,0x10(%esp)
    4331:	00 
    4332:	c7 44 24 0c 01 00 00 	movl   $0x1,0xc(%esp)
    4339:	00 
    433a:	c7 44 24 08 00 00 00 	movl   $0x0,0x8(%esp)
    4341:	00 
    4342:	c7 44 24 04 00 00 00 	movl   $0x0,0x4(%esp)
    4349:	00 
    434a:	89 1c 24             	mov    %ebx,(%esp)
    434d:	e8 9e 15 00 00       	call   58f0 <usb_request_get_descriptor>
    4352:	85 c0                	test   %eax,%eax
    4354:	75 0a                	jne    4360 <usb_pipe_probe_default_control+0x90>
    4356:	83 7d dc 08          	cmpl   $0x8,-0x24(%ebp)
    435a:	0f 84 b0 00 00 00    	je     4410 <usb_pipe_probe_default_control+0x140>
    4360:	89 7c 24 20          	mov    %edi,0x20(%esp)
    4364:	c7 44 24 1c 08 00 00 	movl   $0x8,0x1c(%esp)
    436b:	00 
    436c:	89 74 24 18          	mov    %esi,0x18(%esp)
    4370:	c7 44 24 14 00 00 00 	movl   $0x0,0x14(%esp)
    4377:	00 
    4378:	c7 44 24 10 00 00 00 	movl   $0x0,0x10(%esp)
    437f:	00 
    4380:	c7 44 24 0c 01 00 00 	movl   $0x1,0xc(%esp)
    4387:	00 
    4388:	c7 44 24 08 00 00 00 	movl   $0x0,0x8(%esp)
    438f:	00 
    4390:	c7 44 24 04 00 00 00 	movl   $0x0,0x4(%esp)
    4397:	00 
    4398:	89 1c 24             	mov    %ebx,(%esp)
    439b:	e8 50 15 00 00       	call   58f0 <usb_request_get_descriptor>
    43a0:	85 c0                	test   %eax,%eax
    43a2:	75 06                	jne    43aa <usb_pipe_probe_default_control+0xda>
    43a4:	83 7d dc 08          	cmpl   $0x8,-0x24(%ebp)
    43a8:	74 66                	je     4410 <usb_pipe_probe_default_control+0x140>
    43aa:	89 74 24 18          	mov    %esi,0x18(%esp)
    43ae:	89 7c 24 20          	mov    %edi,0x20(%esp)
    43b2:	c7 44 24 1c 08 00 00 	movl   $0x8,0x1c(%esp)
    43b9:	00 
    43ba:	c7 44 24 14 00 00 00 	movl   $0x0,0x14(%esp)
    43c1:	00 
    43c2:	c7 44 24 10 00 00 00 	movl   $0x0,0x10(%esp)
    43c9:	00 
    43ca:	c7 44 24 0c 01 00 00 	movl   $0x1,0xc(%esp)
    43d1:	00 
    43d2:	c7 44 24 08 00 00 00 	movl   $0x0,0x8(%esp)
    43d9:	00 
    43da:	c7 44 24 04 00 00 00 	movl   $0x0,0x4(%esp)
    43e1:	00 
    43e2:	89 1c 24             	mov    %ebx,(%esp)
    43e5:	e8 06 15 00 00       	call   58f0 <usb_request_get_descriptor>
    43ea:	89 c6                	mov    %eax,%esi
    43ec:	85 c0                	test   %eax,%eax
    43ee:	75 0b                	jne    43fb <usb_pipe_probe_default_control+0x12b>
    43f0:	83 7d dc 08          	cmpl   $0x8,-0x24(%ebp)
    43f4:	74 1a                	je     4410 <usb_pipe_probe_default_control+0x140>
    43f6:	be fd ff ff ff       	mov    $0xfffffffd,%esi
    43fb:	89 1c 24             	mov    %ebx,(%esp)
    43fe:	e8 fd f4 ff ff       	call   3900 <usb_pipe_end_long_transfer>
    4403:	83 c4 4c             	add    $0x4c,%esp
    4406:	89 f0                	mov    %esi,%eax
    4408:	5b                   	pop    %ebx
    4409:	5e                   	pop    %esi
    440a:	5f                   	pop    %edi
    440b:	5d                   	pop    %ebp
    440c:	c3                   	ret    
    440d:	8d 76 00             	lea    0x0(%esi),%esi
    4410:	89 1c 24             	mov    %ebx,(%esp)
    4413:	31 f6                	xor    %esi,%esi
    4415:	e8 e6 f4 ff ff       	call   3900 <usb_pipe_end_long_transfer>
    441a:	31 c0                	xor    %eax,%eax
    441c:	8a 45 e7             	mov    -0x19(%ebp),%al
    441f:	89 43 10             	mov    %eax,0x10(%ebx)
    4422:	83 c4 4c             	add    $0x4c,%esp
    4425:	89 f0                	mov    %esi,%eax
    4427:	5b                   	pop    %ebx
    4428:	5e                   	pop    %esi
    4429:	5f                   	pop    %edi
    442a:	5d                   	pop    %ebp
    442b:	c3                   	ret    
    442c:	8d 74 26 00          	lea    0x0(%esi,%eiz,1),%esi
    4430:	83 c4 4c             	add    $0x4c,%esp
    4433:	be f2 ff ff ff       	mov    $0xfffffff2,%esi
    4438:	89 f0                	mov    %esi,%eax
    443a:	5b                   	pop    %ebx
    443b:	5e                   	pop    %esi
    443c:	5f                   	pop    %edi
    443d:	5d                   	pop    %ebp
    443e:	c3                   	ret    
    443f:	c7 44 24 08 55 01 00 	movl   $0x155,0x8(%esp)
    4446:	00 
    4447:	c7 44 24 04 34 cb 02 	movl   $0x2cb34,0x4(%esp)
    444e:	00 
    444f:	c7 04 24 0f cc 02 00 	movl   $0x2cc0f,(%esp)
    4456:	e8 35 38 02 00       	call   27c90 <assert_abort>
    445b:	66 90                	xchg   %ax,%ax
    445d:	66 90                	xchg   %ax,%ax
    445f:	90                   	nop

00004460 <usb_device_create_match_ids_from_interface>:
    4460:	55                   	push   %ebp
    4461:	89 e5                	mov    %esp,%ebp
    4463:	57                   	push   %edi
    4464:	56                   	push   %esi
    4465:	53                   	push   %ebx
    4466:	83 ec 5c             	sub    $0x5c,%esp
    4469:	8b 5d 10             	mov    0x10(%ebp),%ebx
    446c:	8b 75 08             	mov    0x8(%ebp),%esi
    446f:	85 db                	test   %ebx,%ebx
    4471:	0f 84 09 0a 00 00    	je     4e80 <usb_device_create_match_ids_from_interface+0xa20>
    4477:	8b 45 0c             	mov    0xc(%ebp),%eax
    447a:	85 c0                	test   %eax,%eax
    447c:	0f 84 fe 09 00 00    	je     4e80 <usb_device_create_match_ids_from_interface+0xa20>
    4482:	8b 55 0c             	mov    0xc(%ebp),%edx
    4485:	8a 42 05             	mov    0x5(%edx),%al
    4488:	84 c0                	test   %al,%al
    448a:	0f 84 d8 09 00 00    	je     4e68 <usb_device_create_match_ids_from_interface+0xa08>
    4490:	25 ff 00 00 00       	and    $0xff,%eax
    4495:	89 04 24             	mov    %eax,(%esp)
    4498:	e8 23 24 00 00       	call   68c0 <usb_str_class>
    449d:	89 c7                	mov    %eax,%edi
    449f:	85 c0                	test   %eax,%eax
    44a1:	0f 84 31 0a 00 00    	je     4ed8 <usb_device_create_match_ids_from_interface+0xa78>
    44a7:	85 f6                	test   %esi,%esi
    44a9:	0f 84 c1 09 00 00    	je     4e70 <usb_device_create_match_ids_from_interface+0xa10>
    44af:	66 8b 46 08          	mov    0x8(%esi),%ax
    44b3:	8d 55 e4             	lea    -0x1c(%ebp),%edx
    44b6:	66 85 c0             	test   %ax,%ax
    44b9:	89 55 d0             	mov    %edx,-0x30(%ebp)
    44bc:	0f 85 a6 02 00 00    	jne    4768 <usb_device_create_match_ids_from_interface+0x308>
    44c2:	8b 55 0c             	mov    0xc(%ebp),%edx
    44c5:	31 c0                	xor    %eax,%eax
    44c7:	8b 4d d0             	mov    -0x30(%ebp),%ecx
    44ca:	c7 45 e4 00 00 00 00 	movl   $0x0,-0x1c(%ebp)
    44d1:	8a 42 07             	mov    0x7(%edx),%al
    44d4:	89 44 24 10          	mov    %eax,0x10(%esp)
    44d8:	31 c0                	xor    %eax,%eax
    44da:	8a 42 06             	mov    0x6(%edx),%al
    44dd:	89 7c 24 08          	mov    %edi,0x8(%esp)
    44e1:	89 44 24 0c          	mov    %eax,0xc(%esp)
    44e5:	c7 44 24 04 94 ce 02 	movl   $0x2ce94,0x4(%esp)
    44ec:	00 
    44ed:	89 0c 24             	mov    %ecx,(%esp)
    44f0:	e8 ab 16 01 00       	call   15ba0 <asprintf>
    44f5:	83 f8 00             	cmp    $0x0,%eax
    44f8:	0f 8e 1a 02 00 00    	jle    4718 <usb_device_create_match_ids_from_interface+0x2b8>
    44fe:	8b 55 e4             	mov    -0x1c(%ebp),%edx
    4501:	c7 04 24 10 00 00 00 	movl   $0x10,(%esp)
    4508:	89 55 cc             	mov    %edx,-0x34(%ebp)
    450b:	e8 20 8f 01 00       	call   1d430 <malloc>
    4510:	c7 44 24 08 10 00 00 	movl   $0x10,0x8(%esp)
    4517:	00 
    4518:	89 c6                	mov    %eax,%esi
    451a:	c7 44 24 04 00 00 00 	movl   $0x0,0x4(%esp)
    4521:	00 
    4522:	89 04 24             	mov    %eax,(%esp)
    4525:	e8 26 b9 00 00       	call   fe50 <memset>
    452a:	85 f6                	test   %esi,%esi
    452c:	8b 55 cc             	mov    -0x34(%ebp),%edx
    452f:	0f 84 81 09 00 00    	je     4eb6 <usb_device_create_match_ids_from_interface+0xa56>
    4535:	89 56 08             	mov    %edx,0x8(%esi)
    4538:	8b 53 04             	mov    0x4(%ebx),%edx
    453b:	c7 46 0c a0 00 00 00 	movl   $0xa0,0xc(%esi)
    4542:	39 d3                	cmp    %edx,%ebx
    4544:	75 09                	jne    454f <usb_device_create_match_ids_from_interface+0xef>
    4546:	eb 10                	jmp    4558 <usb_device_create_match_ids_from_interface+0xf8>
    4548:	8b 52 04             	mov    0x4(%edx),%edx
    454b:	39 d3                	cmp    %edx,%ebx
    454d:	74 09                	je     4558 <usb_device_create_match_ids_from_interface+0xf8>
    454f:	81 7a 0c 9f 00 00 00 	cmpl   $0x9f,0xc(%edx)
    4556:	77 f0                	ja     4548 <usb_device_create_match_ids_from_interface+0xe8>
    4558:	8b 02                	mov    (%edx),%eax
    455a:	89 56 04             	mov    %edx,0x4(%esi)
    455d:	89 06                	mov    %eax,(%esi)
    455f:	8b 02                	mov    (%edx),%eax
    4561:	89 32                	mov    %esi,(%edx)
    4563:	89 70 04             	mov    %esi,0x4(%eax)
    4566:	8b 55 0c             	mov    0xc(%ebp),%edx
    4569:	31 c0                	xor    %eax,%eax
    456b:	8b 4d d0             	mov    -0x30(%ebp),%ecx
    456e:	c7 45 e4 00 00 00 00 	movl   $0x0,-0x1c(%ebp)
    4575:	8a 42 06             	mov    0x6(%edx),%al
    4578:	89 7c 24 08          	mov    %edi,0x8(%esp)
    457c:	89 44 24 0c          	mov    %eax,0xc(%esp)
    4580:	c7 44 24 04 cc ce 02 	movl   $0x2cecc,0x4(%esp)
    4587:	00 
    4588:	89 0c 24             	mov    %ecx,(%esp)
    458b:	e8 10 16 01 00       	call   15ba0 <asprintf>
    4590:	83 f8 00             	cmp    $0x0,%eax
    4593:	0f 8e c7 01 00 00    	jle    4760 <usb_device_create_match_ids_from_interface+0x300>
    4599:	8b 55 e4             	mov    -0x1c(%ebp),%edx
    459c:	c7 04 24 10 00 00 00 	movl   $0x10,(%esp)
    45a3:	89 55 d4             	mov    %edx,-0x2c(%ebp)
    45a6:	e8 85 8e 01 00       	call   1d430 <malloc>
    45ab:	c7 44 24 08 10 00 00 	movl   $0x10,0x8(%esp)
    45b2:	00 
    45b3:	89 c6                	mov    %eax,%esi
    45b5:	c7 44 24 04 00 00 00 	movl   $0x0,0x4(%esp)
    45bc:	00 
    45bd:	89 04 24             	mov    %eax,(%esp)
    45c0:	e8 8b b8 00 00       	call   fe50 <memset>
    45c5:	85 f6                	test   %esi,%esi
    45c7:	0f 84 e9 08 00 00    	je     4eb6 <usb_device_create_match_ids_from_interface+0xa56>
    45cd:	8b 4d d4             	mov    -0x2c(%ebp),%ecx
    45d0:	8b 53 04             	mov    0x4(%ebx),%edx
    45d3:	89 4e 08             	mov    %ecx,0x8(%esi)
    45d6:	c7 46 0c 96 00 00 00 	movl   $0x96,0xc(%esi)
    45dd:	39 d3                	cmp    %edx,%ebx
    45df:	0f 85 5e 01 00 00    	jne    4743 <usb_device_create_match_ids_from_interface+0x2e3>
    45e5:	8d 76 00             	lea    0x0(%esi),%esi
    45e8:	8b 02                	mov    (%edx),%eax
    45ea:	89 56 04             	mov    %edx,0x4(%esi)
    45ed:	89 06                	mov    %eax,(%esi)
    45ef:	8b 02                	mov    (%edx),%eax
    45f1:	89 32                	mov    %esi,(%edx)
    45f3:	89 70 04             	mov    %esi,0x4(%eax)
    45f6:	8b 55 d0             	mov    -0x30(%ebp),%edx
    45f9:	89 7c 24 08          	mov    %edi,0x8(%esp)
    45fd:	c7 44 24 04 b2 cb 02 	movl   $0x2cbb2,0x4(%esp)
    4604:	00 
    4605:	89 14 24             	mov    %edx,(%esp)
    4608:	c7 45 e4 00 00 00 00 	movl   $0x0,-0x1c(%ebp)
    460f:	e8 8c 15 01 00       	call   15ba0 <asprintf>
    4614:	83 f8 00             	cmp    $0x0,%eax
    4617:	0f 8e 3b 01 00 00    	jle    4758 <usb_device_create_match_ids_from_interface+0x2f8>
    461d:	c7 04 24 10 00 00 00 	movl   $0x10,(%esp)
    4624:	8b 75 e4             	mov    -0x1c(%ebp),%esi
    4627:	e8 04 8e 01 00       	call   1d430 <malloc>
    462c:	c7 44 24 08 10 00 00 	movl   $0x10,0x8(%esp)
    4633:	00 
    4634:	89 c7                	mov    %eax,%edi
    4636:	c7 44 24 04 00 00 00 	movl   $0x0,0x4(%esp)
    463d:	00 
    463e:	89 04 24             	mov    %eax,(%esp)
    4641:	e8 0a b8 00 00       	call   fe50 <memset>
    4646:	85 ff                	test   %edi,%edi
    4648:	0f 84 68 08 00 00    	je     4eb6 <usb_device_create_match_ids_from_interface+0xa56>
    464e:	8b 53 04             	mov    0x4(%ebx),%edx
    4651:	89 77 08             	mov    %esi,0x8(%edi)
    4654:	c7 47 0c 8c 00 00 00 	movl   $0x8c,0xc(%edi)
    465b:	39 d3                	cmp    %edx,%ebx
    465d:	75 10                	jne    466f <usb_device_create_match_ids_from_interface+0x20f>
    465f:	eb 17                	jmp    4678 <usb_device_create_match_ids_from_interface+0x218>
    4661:	8d b4 26 00 00 00 00 	lea    0x0(%esi,%eiz,1),%esi
    4668:	8b 52 04             	mov    0x4(%edx),%edx
    466b:	39 d3                	cmp    %edx,%ebx
    466d:	74 09                	je     4678 <usb_device_create_match_ids_from_interface+0x218>
    466f:	81 7a 0c 8b 00 00 00 	cmpl   $0x8b,0xc(%edx)
    4676:	77 f0                	ja     4668 <usb_device_create_match_ids_from_interface+0x208>
    4678:	8b 02                	mov    (%edx),%eax
    467a:	89 57 04             	mov    %edx,0x4(%edi)
    467d:	89 07                	mov    %eax,(%edi)
    467f:	8b 02                	mov    (%edx),%eax
    4681:	89 3a                	mov    %edi,(%edx)
    4683:	89 78 04             	mov    %edi,0x4(%eax)
    4686:	8b 4d d0             	mov    -0x30(%ebp),%ecx
    4689:	c7 44 24 04 c9 cb 02 	movl   $0x2cbc9,0x4(%esp)
    4690:	00 
    4691:	89 0c 24             	mov    %ecx,(%esp)
    4694:	c7 45 e4 00 00 00 00 	movl   $0x0,-0x1c(%ebp)
    469b:	e8 00 15 01 00       	call   15ba0 <asprintf>
    46a0:	83 f8 00             	cmp    $0x0,%eax
    46a3:	0f 8e 9f 07 00 00    	jle    4e48 <usb_device_create_match_ids_from_interface+0x9e8>
    46a9:	c7 04 24 10 00 00 00 	movl   $0x10,(%esp)
    46b0:	8b 7d e4             	mov    -0x1c(%ebp),%edi
    46b3:	e8 78 8d 01 00       	call   1d430 <malloc>
    46b8:	c7 44 24 08 10 00 00 	movl   $0x10,0x8(%esp)
    46bf:	00 
    46c0:	89 c6                	mov    %eax,%esi
    46c2:	c7 44 24 04 00 00 00 	movl   $0x0,0x4(%esp)
    46c9:	00 
    46ca:	89 04 24             	mov    %eax,(%esp)
    46cd:	e8 7e b7 00 00       	call   fe50 <memset>
    46d2:	85 f6                	test   %esi,%esi
    46d4:	0f 84 dc 07 00 00    	je     4eb6 <usb_device_create_match_ids_from_interface+0xa56>
    46da:	8b 53 04             	mov    0x4(%ebx),%edx
    46dd:	89 7e 08             	mov    %edi,0x8(%esi)
    46e0:	c7 46 0c 0a 00 00 00 	movl   $0xa,0xc(%esi)
    46e7:	39 d3                	cmp    %edx,%ebx
    46e9:	75 0c                	jne    46f7 <usb_device_create_match_ids_from_interface+0x297>
    46eb:	eb 10                	jmp    46fd <usb_device_create_match_ids_from_interface+0x29d>
    46ed:	8d 76 00             	lea    0x0(%esi),%esi
    46f0:	8b 52 04             	mov    0x4(%edx),%edx
    46f3:	39 d3                	cmp    %edx,%ebx
    46f5:	74 06                	je     46fd <usb_device_create_match_ids_from_interface+0x29d>
    46f7:	83 7a 0c 09          	cmpl   $0x9,0xc(%edx)
    46fb:	77 f3                	ja     46f0 <usb_device_create_match_ids_from_interface+0x290>
    46fd:	8b 02                	mov    (%edx),%eax
    46ff:	89 56 04             	mov    %edx,0x4(%esi)
    4702:	89 06                	mov    %eax,(%esi)
    4704:	8b 02                	mov    (%edx),%eax
    4706:	89 32                	mov    %esi,(%edx)
    4708:	89 70 04             	mov    %esi,0x4(%eax)
    470b:	31 c0                	xor    %eax,%eax
    470d:	83 c4 5c             	add    $0x5c,%esp
    4710:	5b                   	pop    %ebx
    4711:	5e                   	pop    %esi
    4712:	5f                   	pop    %edi
    4713:	5d                   	pop    %ebp
    4714:	c3                   	ret    
    4715:	8d 76 00             	lea    0x0(%esi),%esi
    4718:	0f 84 48 fe ff ff    	je     4566 <usb_device_create_match_ids_from_interface+0x106>
    471e:	8b 55 e4             	mov    -0x1c(%ebp),%edx
    4721:	89 45 cc             	mov    %eax,-0x34(%ebp)
    4724:	89 14 24             	mov    %edx,(%esp)
    4727:	e8 14 8e 01 00       	call   1d540 <free>
    472c:	8b 45 cc             	mov    -0x34(%ebp),%eax
    472f:	83 c4 5c             	add    $0x5c,%esp
    4732:	5b                   	pop    %ebx
    4733:	5e                   	pop    %esi
    4734:	5f                   	pop    %edi
    4735:	5d                   	pop    %ebp
    4736:	c3                   	ret    
    4737:	90                   	nop
    4738:	8b 52 04             	mov    0x4(%edx),%edx
    473b:	39 d3                	cmp    %edx,%ebx
    473d:	0f 84 a5 fe ff ff    	je     45e8 <usb_device_create_match_ids_from_interface+0x188>
    4743:	81 7a 0c 95 00 00 00 	cmpl   $0x95,0xc(%edx)
    474a:	77 ec                	ja     4738 <usb_device_create_match_ids_from_interface+0x2d8>
    474c:	e9 97 fe ff ff       	jmp    45e8 <usb_device_create_match_ids_from_interface+0x188>
    4751:	8d b4 26 00 00 00 00 	lea    0x0(%esi,%eiz,1),%esi
    4758:	0f 84 28 ff ff ff    	je     4686 <usb_device_create_match_ids_from_interface+0x226>
    475e:	eb be                	jmp    471e <usb_device_create_match_ids_from_interface+0x2be>
    4760:	0f 84 90 fe ff ff    	je     45f6 <usb_device_create_match_ids_from_interface+0x196>
    4766:	eb b6                	jmp    471e <usb_device_create_match_ids_from_interface+0x2be>
    4768:	8b 4d 0c             	mov    0xc(%ebp),%ecx
    476b:	31 d2                	xor    %edx,%edx
    476d:	25 ff ff 00 00       	and    $0xffff,%eax
    4772:	c7 45 e4 00 00 00 00 	movl   $0x0,-0x1c(%ebp)
    4779:	8a 51 07             	mov    0x7(%ecx),%dl
    477c:	89 54 24 20          	mov    %edx,0x20(%esp)
    4780:	31 d2                	xor    %edx,%edx
    4782:	8a 51 06             	mov    0x6(%ecx),%dl
    4785:	89 7c 24 18          	mov    %edi,0x18(%esp)
    4789:	89 54 24 1c          	mov    %edx,0x1c(%esp)
    478d:	31 d2                	xor    %edx,%edx
    478f:	8a 56 0c             	mov    0xc(%esi),%dl
    4792:	89 54 24 14          	mov    %edx,0x14(%esp)
    4796:	66 8b 4e 0c          	mov    0xc(%esi),%cx
    479a:	0f b6 d5             	movzbl %ch,%edx
    479d:	89 54 24 10          	mov    %edx,0x10(%esp)
    47a1:	66 8b 56 0a          	mov    0xa(%esi),%dx
    47a5:	89 44 24 08          	mov    %eax,0x8(%esp)
    47a9:	81 e2 ff ff 00 00    	and    $0xffff,%edx
    47af:	c7 44 24 04 24 cc 02 	movl   $0x2cc24,0x4(%esp)
    47b6:	00 
    47b7:	89 54 24 0c          	mov    %edx,0xc(%esp)
    47bb:	8b 55 d0             	mov    -0x30(%ebp),%edx
    47be:	89 14 24             	mov    %edx,(%esp)
    47c1:	e8 da 13 01 00       	call   15ba0 <asprintf>
    47c6:	83 f8 00             	cmp    $0x0,%eax
    47c9:	0f 8e 09 02 00 00    	jle    49d8 <usb_device_create_match_ids_from_interface+0x578>
    47cf:	8b 55 e4             	mov    -0x1c(%ebp),%edx
    47d2:	c7 04 24 10 00 00 00 	movl   $0x10,(%esp)
    47d9:	89 55 cc             	mov    %edx,-0x34(%ebp)
    47dc:	e8 4f 8c 01 00       	call   1d430 <malloc>
    47e1:	c7 44 24 08 10 00 00 	movl   $0x10,0x8(%esp)
    47e8:	00 
    47e9:	c7 44 24 04 00 00 00 	movl   $0x0,0x4(%esp)
    47f0:	00 
    47f1:	89 04 24             	mov    %eax,(%esp)
    47f4:	89 45 c8             	mov    %eax,-0x38(%ebp)
    47f7:	e8 54 b6 00 00       	call   fe50 <memset>
    47fc:	8b 4d c8             	mov    -0x38(%ebp),%ecx
    47ff:	85 c9                	test   %ecx,%ecx
    4801:	8b 55 cc             	mov    -0x34(%ebp),%edx
    4804:	0f 84 ac 06 00 00    	je     4eb6 <usb_device_create_match_ids_from_interface+0xa56>
    480a:	89 51 08             	mov    %edx,0x8(%ecx)
    480d:	8b 53 04             	mov    0x4(%ebx),%edx
    4810:	c7 41 0c fa 00 00 00 	movl   $0xfa,0xc(%ecx)
    4817:	39 da                	cmp    %ebx,%edx
    4819:	75 0c                	jne    4827 <usb_device_create_match_ids_from_interface+0x3c7>
    481b:	eb 13                	jmp    4830 <usb_device_create_match_ids_from_interface+0x3d0>
    481d:	8d 76 00             	lea    0x0(%esi),%esi
    4820:	8b 52 04             	mov    0x4(%edx),%edx
    4823:	39 da                	cmp    %ebx,%edx
    4825:	74 09                	je     4830 <usb_device_create_match_ids_from_interface+0x3d0>
    4827:	81 7a 0c f9 00 00 00 	cmpl   $0xf9,0xc(%edx)
    482e:	77 f0                	ja     4820 <usb_device_create_match_ids_from_interface+0x3c0>
    4830:	8b 02                	mov    (%edx),%eax
    4832:	89 51 04             	mov    %edx,0x4(%ecx)
    4835:	89 01                	mov    %eax,(%ecx)
    4837:	8b 02                	mov    (%edx),%eax
    4839:	89 0a                	mov    %ecx,(%edx)
    483b:	89 48 04             	mov    %ecx,0x4(%eax)
    483e:	8b 4d 0c             	mov    0xc(%ebp),%ecx
    4841:	31 c0                	xor    %eax,%eax
    4843:	c7 45 e4 00 00 00 00 	movl   $0x0,-0x1c(%ebp)
    484a:	8a 41 06             	mov    0x6(%ecx),%al
    484d:	89 7c 24 18          	mov    %edi,0x18(%esp)
    4851:	89 44 24 1c          	mov    %eax,0x1c(%esp)
    4855:	31 c0                	xor    %eax,%eax
    4857:	8a 46 0c             	mov    0xc(%esi),%al
    485a:	8b 4d d0             	mov    -0x30(%ebp),%ecx
    485d:	89 44 24 14          	mov    %eax,0x14(%esp)
    4861:	66 8b 56 0c          	mov    0xc(%esi),%dx
    4865:	0f b6 c6             	movzbl %dh,%eax
    4868:	89 44 24 10          	mov    %eax,0x10(%esp)
    486c:	66 8b 46 0a          	mov    0xa(%esi),%ax
    4870:	25 ff ff 00 00       	and    $0xffff,%eax
    4875:	89 44 24 0c          	mov    %eax,0xc(%esp)
    4879:	66 8b 46 08          	mov    0x8(%esi),%ax
    487d:	c7 44 24 04 88 cc 02 	movl   $0x2cc88,0x4(%esp)
    4884:	00 
    4885:	25 ff ff 00 00       	and    $0xffff,%eax
    488a:	89 0c 24             	mov    %ecx,(%esp)
    488d:	89 44 24 08          	mov    %eax,0x8(%esp)
    4891:	e8 0a 13 01 00       	call   15ba0 <asprintf>
    4896:	83 f8 00             	cmp    $0x0,%eax
    4899:	0f 8e b9 05 00 00    	jle    4e58 <usb_device_create_match_ids_from_interface+0x9f8>
    489f:	8b 55 e4             	mov    -0x1c(%ebp),%edx
    48a2:	c7 04 24 10 00 00 00 	movl   $0x10,(%esp)
    48a9:	89 55 cc             	mov    %edx,-0x34(%ebp)
    48ac:	e8 7f 8b 01 00       	call   1d430 <malloc>
    48b1:	c7 44 24 08 10 00 00 	movl   $0x10,0x8(%esp)
    48b8:	00 
    48b9:	c7 44 24 04 00 00 00 	movl   $0x0,0x4(%esp)
    48c0:	00 
    48c1:	89 04 24             	mov    %eax,(%esp)
    48c4:	89 45 c8             	mov    %eax,-0x38(%ebp)
    48c7:	e8 84 b5 00 00       	call   fe50 <memset>
    48cc:	8b 4d c8             	mov    -0x38(%ebp),%ecx
    48cf:	85 c9                	test   %ecx,%ecx
    48d1:	8b 55 cc             	mov    -0x34(%ebp),%edx
    48d4:	0f 84 dc 05 00 00    	je     4eb6 <usb_device_create_match_ids_from_interface+0xa56>
    48da:	89 51 08             	mov    %edx,0x8(%ecx)
    48dd:	8b 53 04             	mov    0x4(%ebx),%edx
    48e0:	c7 41 0c f0 00 00 00 	movl   $0xf0,0xc(%ecx)
    48e7:	39 d3                	cmp    %edx,%ebx
    48e9:	75 0c                	jne    48f7 <usb_device_create_match_ids_from_interface+0x497>
    48eb:	eb 13                	jmp    4900 <usb_device_create_match_ids_from_interface+0x4a0>
    48ed:	8d 76 00             	lea    0x0(%esi),%esi
    48f0:	8b 52 04             	mov    0x4(%edx),%edx
    48f3:	39 d3                	cmp    %edx,%ebx
    48f5:	74 09                	je     4900 <usb_device_create_match_ids_from_interface+0x4a0>
    48f7:	81 7a 0c ef 00 00 00 	cmpl   $0xef,0xc(%edx)
    48fe:	77 f0                	ja     48f0 <usb_device_create_match_ids_from_interface+0x490>
    4900:	8b 02                	mov    (%edx),%eax
    4902:	89 51 04             	mov    %edx,0x4(%ecx)
    4905:	89 01                	mov    %eax,(%ecx)
    4907:	8b 02                	mov    (%edx),%eax
    4909:	89 0a                	mov    %ecx,(%edx)
    490b:	89 48 04             	mov    %ecx,0x4(%eax)
    490e:	89 7c 24 18          	mov    %edi,0x18(%esp)
    4912:	31 c0                	xor    %eax,%eax
    4914:	8a 46 0c             	mov    0xc(%esi),%al
    4917:	8b 4d d0             	mov    -0x30(%ebp),%ecx
    491a:	89 44 24 14          	mov    %eax,0x14(%esp)
    491e:	c7 45 e4 00 00 00 00 	movl   $0x0,-0x1c(%ebp)
    4925:	66 8b 56 0c          	mov    0xc(%esi),%dx
    4929:	0f b6 c6             	movzbl %dh,%eax
    492c:	89 44 24 10          	mov    %eax,0x10(%esp)
    4930:	66 8b 46 0a          	mov    0xa(%esi),%ax
    4934:	25 ff ff 00 00       	and    $0xffff,%eax
    4939:	89 44 24 0c          	mov    %eax,0xc(%esp)
    493d:	66 8b 46 08          	mov    0x8(%esi),%ax
    4941:	c7 44 24 04 dc cc 02 	movl   $0x2ccdc,0x4(%esp)
    4948:	00 
    4949:	25 ff ff 00 00       	and    $0xffff,%eax
    494e:	89 0c 24             	mov    %ecx,(%esp)
    4951:	89 44 24 08          	mov    %eax,0x8(%esp)
    4955:	e8 46 12 01 00       	call   15ba0 <asprintf>
    495a:	83 f8 00             	cmp    $0x0,%eax
    495d:	0f 8e 85 00 00 00    	jle    49e8 <usb_device_create_match_ids_from_interface+0x588>
    4963:	8b 55 e4             	mov    -0x1c(%ebp),%edx
    4966:	c7 04 24 10 00 00 00 	movl   $0x10,(%esp)
    496d:	89 55 cc             	mov    %edx,-0x34(%ebp)
    4970:	e8 bb 8a 01 00       	call   1d430 <malloc>
    4975:	c7 44 24 08 10 00 00 	movl   $0x10,0x8(%esp)
    497c:	00 
    497d:	c7 44 24 04 00 00 00 	movl   $0x0,0x4(%esp)
    4984:	00 
    4985:	89 04 24             	mov    %eax,(%esp)
    4988:	89 45 c8             	mov    %eax,-0x38(%ebp)
    498b:	e8 c0 b4 00 00       	call   fe50 <memset>
    4990:	8b 4d c8             	mov    -0x38(%ebp),%ecx
    4993:	85 c9                	test   %ecx,%ecx
    4995:	8b 55 cc             	mov    -0x34(%ebp),%edx
    4998:	0f 84 18 05 00 00    	je     4eb6 <usb_device_create_match_ids_from_interface+0xa56>
    499e:	89 51 08             	mov    %edx,0x8(%ecx)
    49a1:	8b 53 04             	mov    0x4(%ebx),%edx
    49a4:	c7 41 0c e6 00 00 00 	movl   $0xe6,0xc(%ecx)
    49ab:	39 da                	cmp    %ebx,%edx
    49ad:	75 10                	jne    49bf <usb_device_create_match_ids_from_interface+0x55f>
    49af:	eb 17                	jmp    49c8 <usb_device_create_match_ids_from_interface+0x568>
    49b1:	8d b4 26 00 00 00 00 	lea    0x0(%esi,%eiz,1),%esi
    49b8:	8b 52 04             	mov    0x4(%edx),%edx
    49bb:	39 da                	cmp    %ebx,%edx
    49bd:	74 09                	je     49c8 <usb_device_create_match_ids_from_interface+0x568>
    49bf:	81 7a 0c e5 00 00 00 	cmpl   $0xe5,0xc(%edx)
    49c6:	77 f0                	ja     49b8 <usb_device_create_match_ids_from_interface+0x558>
    49c8:	8b 02                	mov    (%edx),%eax
    49ca:	89 51 04             	mov    %edx,0x4(%ecx)
    49cd:	89 01                	mov    %eax,(%ecx)
    49cf:	8b 02                	mov    (%edx),%eax
    49d1:	89 0a                	mov    %ecx,(%edx)
    49d3:	89 48 04             	mov    %ecx,0x4(%eax)
    49d6:	eb 16                	jmp    49ee <usb_device_create_match_ids_from_interface+0x58e>
    49d8:	0f 84 60 fe ff ff    	je     483e <usb_device_create_match_ids_from_interface+0x3de>
    49de:	e9 3b fd ff ff       	jmp    471e <usb_device_create_match_ids_from_interface+0x2be>
    49e3:	90                   	nop
    49e4:	8d 74 26 00          	lea    0x0(%esi,%eiz,1),%esi
    49e8:	0f 85 30 fd ff ff    	jne    471e <usb_device_create_match_ids_from_interface+0x2be>
    49ee:	8b 55 0c             	mov    0xc(%ebp),%edx
    49f1:	31 c0                	xor    %eax,%eax
    49f3:	8b 4d d0             	mov    -0x30(%ebp),%ecx
    49f6:	c7 45 e4 00 00 00 00 	movl   $0x0,-0x1c(%ebp)
    49fd:	8a 42 07             	mov    0x7(%edx),%al
    4a00:	89 44 24 18          	mov    %eax,0x18(%esp)
    4a04:	31 c0                	xor    %eax,%eax
    4a06:	8a 42 06             	mov    0x6(%edx),%al
    4a09:	89 7c 24 10          	mov    %edi,0x10(%esp)
    4a0d:	89 44 24 14          	mov    %eax,0x14(%esp)
    4a11:	66 8b 46 0a          	mov    0xa(%esi),%ax
    4a15:	25 ff ff 00 00       	and    $0xffff,%eax
    4a1a:	89 44 24 0c          	mov    %eax,0xc(%esp)
    4a1e:	66 8b 46 08          	mov    0x8(%esi),%ax
    4a22:	c7 44 24 04 20 cd 02 	movl   $0x2cd20,0x4(%esp)
    4a29:	00 
    4a2a:	25 ff ff 00 00       	and    $0xffff,%eax
    4a2f:	89 0c 24             	mov    %ecx,(%esp)
    4a32:	89 44 24 08          	mov    %eax,0x8(%esp)
    4a36:	e8 65 11 01 00       	call   15ba0 <asprintf>
    4a3b:	83 f8 00             	cmp    $0x0,%eax
    4a3e:	0f 8e f4 03 00 00    	jle    4e38 <usb_device_create_match_ids_from_interface+0x9d8>
    4a44:	8b 55 e4             	mov    -0x1c(%ebp),%edx
    4a47:	c7 04 24 10 00 00 00 	movl   $0x10,(%esp)
    4a4e:	89 55 cc             	mov    %edx,-0x34(%ebp)
    4a51:	e8 da 89 01 00       	call   1d430 <malloc>
    4a56:	c7 44 24 08 10 00 00 	movl   $0x10,0x8(%esp)
    4a5d:	00 
    4a5e:	c7 44 24 04 00 00 00 	movl   $0x0,0x4(%esp)
    4a65:	00 
    4a66:	89 04 24             	mov    %eax,(%esp)
    4a69:	89 45 c8             	mov    %eax,-0x38(%ebp)
    4a6c:	e8 df b3 00 00       	call   fe50 <memset>
    4a71:	8b 4d c8             	mov    -0x38(%ebp),%ecx
    4a74:	85 c9                	test   %ecx,%ecx
    4a76:	8b 55 cc             	mov    -0x34(%ebp),%edx
    4a79:	0f 84 37 04 00 00    	je     4eb6 <usb_device_create_match_ids_from_interface+0xa56>
    4a7f:	89 51 08             	mov    %edx,0x8(%ecx)
    4a82:	8b 53 04             	mov    0x4(%ebx),%edx
    4a85:	c7 41 0c dc 00 00 00 	movl   $0xdc,0xc(%ecx)
    4a8c:	39 da                	cmp    %ebx,%edx
    4a8e:	75 0f                	jne    4a9f <usb_device_create_match_ids_from_interface+0x63f>
    4a90:	eb 16                	jmp    4aa8 <usb_device_create_match_ids_from_interface+0x648>
    4a92:	8d b6 00 00 00 00    	lea    0x0(%esi),%esi
    4a98:	8b 52 04             	mov    0x4(%edx),%edx
