
ehci:     file format elf32-i386


Disassembly of section .init:

00001094 <__entry>:
    1094:	66 8c d0             	mov    %ss,%ax
    1097:	8e d8                	mov    %eax,%ds
    1099:	8e c0                	mov    %eax,%es
    109b:	8e e0                	mov    %eax,%fs
    109d:	b8 01 00 00 00       	mov    $0x1,%eax
    10a2:	0f a2                	cpuid  
    10a4:	0f ba e2 0b          	bt     $0xb,%edx
    10a8:	73 0c                	jae    10b6 <__entry+0x22>
    10aa:	8d 05 b0 c8 02 00    	lea    0x2c8b0,%eax
    10b0:	c7 00 67 44 02 00    	movl   $0x24467,(%eax)
    10b6:	6a 00                	push   $0x0
    10b8:	89 e5                	mov    %esp,%ebp
    10ba:	57                   	push   %edi
    10bb:	e8 00 88 00 00       	call   98c0 <__main>

Disassembly of section .text:

000010c0 <ehci_dev_add>:
    10c0:	55                   	push   %ebp
    10c1:	89 e5                	mov    %esp,%ebp
    10c3:	57                   	push   %edi
    10c4:	56                   	push   %esi
    10c5:	53                   	push   %ebx
    10c6:	83 ec 3c             	sub    $0x3c,%esp
    10c9:	8b 75 08             	mov    0x8(%ebp),%esi
    10cc:	85 f6                	test   %esi,%esi
    10ce:	0f 84 c2 02 00 00    	je     1396 <ehci_dev_add+0x2d6>
    10d4:	8d 45 e4             	lea    -0x1c(%ebp),%eax
    10d7:	89 34 24             	mov    %esi,(%esp)
    10da:	89 44 24 0c          	mov    %eax,0xc(%esp)
    10de:	8d 45 e0             	lea    -0x20(%ebp),%eax
    10e1:	89 44 24 08          	mov    %eax,0x8(%esp)
    10e5:	8d 45 dc             	lea    -0x24(%ebp),%eax
    10e8:	89 44 24 04          	mov    %eax,0x4(%esp)
    10ec:	c7 45 dc 00 00 00 00 	movl   $0x0,-0x24(%ebp)
    10f3:	c7 45 e0 00 00 00 00 	movl   $0x0,-0x20(%ebp)
    10fa:	c7 45 e4 00 00 00 00 	movl   $0x0,-0x1c(%ebp)
    1101:	e8 ea 02 00 00       	call   13f0 <get_my_registers>
    1106:	89 c3                	mov    %eax,%ebx
    1108:	85 c0                	test   %eax,%eax
    110a:	0f 85 98 01 00 00    	jne    12a8 <ehci_dev_add+0x1e8>
    1110:	8b 45 e4             	mov    -0x1c(%ebp),%eax
    1113:	c7 44 24 08 80 8a 02 	movl   $0x28a80,0x8(%esp)
    111a:	00 
    111b:	89 44 24 14          	mov    %eax,0x14(%esp)
    111f:	8b 45 e0             	mov    -0x20(%ebp),%eax
    1122:	89 44 24 10          	mov    %eax,0x10(%esp)
    1126:	8b 45 dc             	mov    -0x24(%ebp),%eax
    1129:	89 44 24 0c          	mov    %eax,0xc(%esp)
    112d:	c7 44 24 04 03 00 00 	movl   $0x3,0x4(%esp)
    1134:	00 
    1135:	c7 04 24 ff ff ff ff 	movl   $0xffffffff,(%esp)
    113c:	e8 cf 37 01 00       	call   14910 <log_msg>
    1141:	8b 45 e0             	mov    -0x20(%ebp),%eax
    1144:	89 44 24 08          	mov    %eax,0x8(%esp)
    1148:	8b 45 dc             	mov    -0x24(%ebp),%eax
    114b:	89 44 24 04          	mov    %eax,0x4(%esp)
    114f:	89 34 24             	mov    %esi,(%esp)
    1152:	e8 89 04 00 00       	call   15e0 <disable_legacy>
    1157:	89 c3                	mov    %eax,%ebx
    1159:	85 c0                	test   %eax,%eax
    115b:	0f 85 0f 01 00 00    	jne    1270 <ehci_dev_add+0x1b0>
    1161:	c7 44 24 08 40 8a 02 	movl   $0x28a40,0x8(%esp)
    1168:	00 
    1169:	c7 44 24 04 02 00 00 	movl   $0x2,0x4(%esp)
    1170:	00 
    1171:	89 34 24             	mov    %esi,(%esp)
    1174:	e8 b7 37 00 00       	call   4930 <ddf_fun_create>
    1179:	89 c7                	mov    %eax,%edi
    117b:	85 c0                	test   %eax,%eax
    117d:	0f 84 ed 01 00 00    	je     1370 <ehci_dev_add+0x2b0>
    1183:	c7 44 24 04 8c 06 00 	movl   $0x68c,0x4(%esp)
    118a:	00 
    118b:	89 04 24             	mov    %eax,(%esp)
    118e:	e8 8d 38 00 00       	call   4a20 <ddf_fun_data_alloc>
    1193:	89 c3                	mov    %eax,%ebx
    1195:	85 c0                	test   %eax,%eax
    1197:	0f 84 ad 01 00 00    	je     134a <ehci_dev_add+0x28a>
    119d:	89 04 24             	mov    %eax,(%esp)
    11a0:	c7 44 24 04 02 00 00 	movl   $0x2,0x4(%esp)
    11a7:	00 
    11a8:	e8 63 15 00 00       	call   2710 <usb_device_manager_init>
    11ad:	8d 83 24 06 00 00    	lea    0x624(%ebx),%eax
    11b3:	c7 44 24 08 00 00 00 	movl   $0x0,0x8(%esp)
    11ba:	00 
    11bb:	c7 44 24 04 00 00 00 	movl   $0x0,0x4(%esp)
    11c2:	00 
    11c3:	89 04 24             	mov    %eax,(%esp)
    11c6:	e8 55 1c 00 00       	call   2e20 <usb_endpoint_manager_init>
    11cb:	c7 83 7c 06 00 00 00 	movl   $0x0,0x67c(%ebx)
    11d2:	00 00 00 
    11d5:	c7 83 80 06 00 00 00 	movl   $0x0,0x680(%ebx)
    11dc:	00 00 00 
    11df:	c7 83 84 06 00 00 00 	movl   $0x0,0x684(%ebx)
    11e6:	00 00 00 
    11e9:	c7 83 88 06 00 00 00 	movl   $0x0,0x688(%ebx)
    11f0:	00 00 00 
    11f3:	c7 44 24 04 40 c4 02 	movl   $0x2c440,0x4(%esp)
    11fa:	00 
    11fb:	89 3c 24             	mov    %edi,(%esp)
    11fe:	e8 bd 3c 00 00       	call   4ec0 <ddf_fun_set_ops>
    1203:	89 3c 24             	mov    %edi,(%esp)
    1206:	e8 b5 39 00 00       	call   4bc0 <ddf_fun_bind>
    120b:	89 c3                	mov    %eax,%ebx
    120d:	85 c0                	test   %eax,%eax
    120f:	0f 85 03 01 00 00    	jne    1318 <ehci_dev_add+0x258>
    1215:	c7 44 24 04 48 8a 02 	movl   $0x28a48,0x4(%esp)
    121c:	00 
    121d:	89 3c 24             	mov    %edi,(%esp)
    1220:	e8 1b 3d 00 00       	call   4f40 <ddf_fun_add_to_category>
    1225:	89 c3                	mov    %eax,%ebx
    1227:	85 c0                	test   %eax,%eax
    1229:	0f 85 b9 00 00 00    	jne    12e8 <ehci_dev_add+0x228>
    122f:	89 34 24             	mov    %esi,(%esp)
    1232:	e8 09 36 00 00       	call   4840 <ddf_dev_get_handle>
    1237:	89 34 24             	mov    %esi,(%esp)
    123a:	89 c7                	mov    %eax,%edi
    123c:	e8 0f 36 00 00       	call   4850 <ddf_dev_get_name>
    1241:	89 7c 24 10          	mov    %edi,0x10(%esp)
    1245:	89 44 24 0c          	mov    %eax,0xc(%esp)
    1249:	c7 44 24 08 68 8b 02 	movl   $0x28b68,0x8(%esp)
    1250:	00 
    1251:	c7 44 24 04 03 00 00 	movl   $0x3,0x4(%esp)
    1258:	00 
    1259:	c7 04 24 ff ff ff ff 	movl   $0xffffffff,(%esp)
    1260:	e8 ab 36 01 00       	call   14910 <log_msg>
    1265:	83 c4 3c             	add    $0x3c,%esp
    1268:	89 d8                	mov    %ebx,%eax
    126a:	5b                   	pop    %ebx
    126b:	5e                   	pop    %esi
    126c:	5f                   	pop    %edi
    126d:	5d                   	pop    %ebp
    126e:	c3                   	ret    
    126f:	90                   	nop
    1270:	89 04 24             	mov    %eax,(%esp)
    1273:	e8 68 ea 00 00       	call   fce0 <str_error>
    1278:	c7 44 24 08 b0 8a 02 	movl   $0x28ab0,0x8(%esp)
    127f:	00 
    1280:	89 44 24 0c          	mov    %eax,0xc(%esp)
    1284:	c7 44 24 04 01 00 00 	movl   $0x1,0x4(%esp)
    128b:	00 
    128c:	c7 04 24 ff ff ff ff 	movl   $0xffffffff,(%esp)
    1293:	e8 78 36 01 00       	call   14910 <log_msg>
    1298:	83 c4 3c             	add    $0x3c,%esp
    129b:	89 d8                	mov    %ebx,%eax
    129d:	5b                   	pop    %ebx
    129e:	5e                   	pop    %esi
    129f:	5f                   	pop    %edi
    12a0:	5d                   	pop    %ebp
    12a1:	c3                   	ret    
    12a2:	8d b6 00 00 00 00    	lea    0x0(%esi),%esi
    12a8:	89 04 24             	mov    %eax,(%esp)
    12ab:	e8 30 ea 00 00       	call   fce0 <str_error>
    12b0:	89 34 24             	mov    %esi,(%esp)
    12b3:	89 c7                	mov    %eax,%edi
    12b5:	e8 86 35 00 00       	call   4840 <ddf_dev_get_handle>
    12ba:	89 7c 24 10          	mov    %edi,0x10(%esp)
    12be:	89 44 24 0c          	mov    %eax,0xc(%esp)
    12c2:	c7 44 24 08 54 8a 02 	movl   $0x28a54,0x8(%esp)
    12c9:	00 
    12ca:	c7 44 24 04 01 00 00 	movl   $0x1,0x4(%esp)
    12d1:	00 
    12d2:	c7 04 24 ff ff ff ff 	movl   $0xffffffff,(%esp)
    12d9:	e8 32 36 01 00       	call   14910 <log_msg>
    12de:	83 c4 3c             	add    $0x3c,%esp
    12e1:	89 d8                	mov    %ebx,%eax
    12e3:	5b                   	pop    %ebx
    12e4:	5e                   	pop    %esi
    12e5:	5f                   	pop    %edi
    12e6:	5d                   	pop    %ebp
    12e7:	c3                   	ret    
    12e8:	89 04 24             	mov    %eax,(%esp)
    12eb:	e8 f0 e9 00 00       	call   fce0 <str_error>
    12f0:	c7 44 24 08 40 8b 02 	movl   $0x28b40,0x8(%esp)
    12f7:	00 
    12f8:	89 44 24 0c          	mov    %eax,0xc(%esp)
    12fc:	c7 44 24 04 01 00 00 	movl   $0x1,0x4(%esp)
    1303:	00 
    1304:	c7 04 24 ff ff ff ff 	movl   $0xffffffff,(%esp)
    130b:	e8 00 36 01 00       	call   14910 <log_msg>
    1310:	eb 86                	jmp    1298 <ehci_dev_add+0x1d8>
    1312:	8d b6 00 00 00 00    	lea    0x0(%esi),%esi
    1318:	89 04 24             	mov    %eax,(%esp)
    131b:	e8 c0 e9 00 00       	call   fce0 <str_error>
    1320:	c7 44 24 08 1c 8b 02 	movl   $0x28b1c,0x8(%esp)
    1327:	00 
    1328:	89 44 24 0c          	mov    %eax,0xc(%esp)
    132c:	c7 44 24 04 01 00 00 	movl   $0x1,0x4(%esp)
    1333:	00 
    1334:	c7 04 24 ff ff ff ff 	movl   $0xffffffff,(%esp)
    133b:	e8 d0 35 01 00       	call   14910 <log_msg>
    1340:	83 c4 3c             	add    $0x3c,%esp
    1343:	89 d8                	mov    %ebx,%eax
    1345:	5b                   	pop    %ebx
    1346:	5e                   	pop    %esi
    1347:	5f                   	pop    %edi
    1348:	5d                   	pop    %ebp
    1349:	c3                   	ret    
    134a:	c7 44 24 08 f8 8a 02 	movl   $0x28af8,0x8(%esp)
    1351:	00 
    1352:	c7 44 24 04 01 00 00 	movl   $0x1,0x4(%esp)
    1359:	00 
    135a:	c7 04 24 ff ff ff ff 	movl   $0xffffffff,(%esp)
    1361:	bb fe ff ff ff       	mov    $0xfffffffe,%ebx
    1366:	e8 a5 35 01 00       	call   14910 <log_msg>
    136b:	e9 28 ff ff ff       	jmp    1298 <ehci_dev_add+0x1d8>
    1370:	c7 44 24 08 d4 8a 02 	movl   $0x28ad4,0x8(%esp)
    1377:	00 
    1378:	c7 44 24 04 01 00 00 	movl   $0x1,0x4(%esp)
    137f:	00 
    1380:	c7 04 24 ff ff ff ff 	movl   $0xffffffff,(%esp)
    1387:	bb fe ff ff ff       	mov    $0xfffffffe,%ebx
    138c:	e8 7f 35 01 00       	call   14910 <log_msg>
    1391:	e9 02 ff ff ff       	jmp    1298 <ehci_dev_add+0x1d8>
    1396:	c7 44 24 08 48 00 00 	movl   $0x48,0x8(%esp)
    139d:	00 
    139e:	c7 44 24 04 32 8a 02 	movl   $0x28a32,0x4(%esp)
    13a5:	00 
    13a6:	c7 04 24 39 8a 02 00 	movl   $0x28a39,(%esp)
    13ad:	e8 5e 2e 02 00       	call   24210 <assert_abort>
    13b2:	66 90                	xchg   %ax,%ax
    13b4:	66 90                	xchg   %ax,%ax
    13b6:	66 90                	xchg   %ax,%ax
    13b8:	66 90                	xchg   %ax,%ax
    13ba:	66 90                	xchg   %ax,%ax
    13bc:	66 90                	xchg   %ax,%ax
    13be:	66 90                	xchg   %ax,%ax

000013c0 <main>:
    13c0:	55                   	push   %ebp
    13c1:	89 e5                	mov    %esp,%ebp
    13c3:	83 e4 f0             	and    $0xfffffff0,%esp
    13c6:	83 ec 10             	sub    $0x10,%esp
    13c9:	c7 04 24 4e 8a 02 00 	movl   $0x28a4e,(%esp)
    13d0:	e8 6b 33 01 00       	call   14740 <log_init>
    13d5:	c7 04 24 20 c4 02 00 	movl   $0x2c420,(%esp)
    13dc:	e8 bf 3b 00 00       	call   4fa0 <ddf_driver_main>
    13e1:	c9                   	leave  
    13e2:	c3                   	ret    
    13e3:	66 90                	xchg   %ax,%ax
    13e5:	66 90                	xchg   %ax,%ax
    13e7:	66 90                	xchg   %ax,%ax
    13e9:	66 90                	xchg   %ax,%ax
    13eb:	66 90                	xchg   %ax,%ax
    13ed:	66 90                	xchg   %ax,%ax
    13ef:	90                   	nop

000013f0 <get_my_registers>:
    13f0:	55                   	push   %ebp
    13f1:	89 e5                	mov    %esp,%ebp
    13f3:	57                   	push   %edi
    13f4:	56                   	push   %esi
    13f5:	53                   	push   %ebx
    13f6:	83 ec 3c             	sub    $0x3c,%esp
    13f9:	8b 45 08             	mov    0x8(%ebp),%eax
    13fc:	85 c0                	test   %eax,%eax
    13fe:	0f 84 53 01 00 00    	je     1557 <get_my_registers+0x167>
    1404:	89 04 24             	mov    %eax,(%esp)
    1407:	e8 34 34 00 00       	call   4840 <ddf_dev_get_handle>
    140c:	c7 44 24 08 01 00 00 	movl   $0x1,0x8(%esp)
    1413:	00 
    1414:	89 44 24 04          	mov    %eax,0x4(%esp)
    1418:	c7 04 24 02 00 00 00 	movl   $0x2,(%esp)
    141f:	e8 1c 98 00 00       	call   ac40 <devman_parent_device_connect>
    1424:	89 c3                	mov    %eax,%ebx
    1426:	85 c0                	test   %eax,%eax
    1428:	0f 84 22 01 00 00    	je     1550 <get_my_registers+0x160>
    142e:	8d 75 c8             	lea    -0x38(%ebp),%esi
    1431:	c7 44 24 08 20 00 00 	movl   $0x20,0x8(%esp)
    1438:	00 
    1439:	c7 44 24 04 00 00 00 	movl   $0x0,0x4(%esp)
    1440:	00 
    1441:	89 34 24             	mov    %esi,(%esp)
    1444:	e8 27 b0 00 00       	call   c470 <memset>
    1449:	c7 44 24 08 00 00 00 	movl   $0x0,0x8(%esp)
    1450:	00 
    1451:	89 74 24 04          	mov    %esi,0x4(%esp)
    1455:	89 1c 24             	mov    %ebx,(%esp)
    1458:	e8 f3 ab 00 00       	call   c050 <hw_res_get_list_parsed>
    145d:	89 1c 24             	mov    %ebx,(%esp)
    1460:	89 c7                	mov    %eax,%edi
    1462:	e8 89 b9 01 00       	call   1cdf0 <async_hangup>
    1467:	89 f8                	mov    %edi,%eax
    1469:	85 ff                	test   %edi,%edi
    146b:	0f 85 87 00 00 00    	jne    14f8 <get_my_registers+0x108>
    1471:	83 7d c8 01          	cmpl   $0x1,-0x38(%ebp)
    1475:	0f 85 85 00 00 00    	jne    1500 <get_my_registers+0x110>
    147b:	83 7d d8 01          	cmpl   $0x1,-0x28(%ebp)
    147f:	75 7f                	jne    1500 <get_my_registers+0x110>
    1481:	8b 5d 0c             	mov    0xc(%ebp),%ebx
    1484:	85 db                	test   %ebx,%ebx
    1486:	74 0a                	je     1492 <get_my_registers+0xa2>
    1488:	8b 45 dc             	mov    -0x24(%ebp),%eax
    148b:	8b 55 0c             	mov    0xc(%ebp),%edx
    148e:	8b 00                	mov    (%eax),%eax
    1490:	89 02                	mov    %eax,(%edx)
    1492:	8b 4d 10             	mov    0x10(%ebp),%ecx
    1495:	85 c9                	test   %ecx,%ecx
    1497:	74 0b                	je     14a4 <get_my_registers+0xb4>
    1499:	8b 45 dc             	mov    -0x24(%ebp),%eax
    149c:	8b 4d 10             	mov    0x10(%ebp),%ecx
    149f:	8b 40 0c             	mov    0xc(%eax),%eax
    14a2:	89 01                	mov    %eax,(%ecx)
    14a4:	8b 55 14             	mov    0x14(%ebp),%edx
    14a7:	8b 45 cc             	mov    -0x34(%ebp),%eax
    14aa:	85 d2                	test   %edx,%edx
    14ac:	74 07                	je     14b5 <get_my_registers+0xc5>
    14ae:	8b 4d 14             	mov    0x14(%ebp),%ecx
    14b1:	8b 10                	mov    (%eax),%edx
    14b3:	89 11                	mov    %edx,(%ecx)
    14b5:	89 04 24             	mov    %eax,(%esp)
    14b8:	e8 03 86 01 00       	call   19ac0 <free>
    14bd:	8b 45 e4             	mov    -0x1c(%ebp),%eax
    14c0:	89 04 24             	mov    %eax,(%esp)
    14c3:	e8 f8 85 01 00       	call   19ac0 <free>
    14c8:	8b 45 dc             	mov    -0x24(%ebp),%eax
    14cb:	89 04 24             	mov    %eax,(%esp)
    14ce:	e8 ed 85 01 00       	call   19ac0 <free>
    14d3:	8b 45 d4             	mov    -0x2c(%ebp),%eax
    14d6:	89 04 24             	mov    %eax,(%esp)
    14d9:	e8 e2 85 01 00       	call   19ac0 <free>
    14de:	c7 44 24 08 20 00 00 	movl   $0x20,0x8(%esp)
    14e5:	00 
    14e6:	c7 44 24 04 00 00 00 	movl   $0x0,0x4(%esp)
    14ed:	00 
    14ee:	89 34 24             	mov    %esi,(%esp)
    14f1:	e8 7a af 00 00       	call   c470 <memset>
    14f6:	31 c0                	xor    %eax,%eax
    14f8:	83 c4 3c             	add    $0x3c,%esp
    14fb:	5b                   	pop    %ebx
    14fc:	5e                   	pop    %esi
    14fd:	5f                   	pop    %edi
    14fe:	5d                   	pop    %ebp
    14ff:	c3                   	ret    
    1500:	8b 45 cc             	mov    -0x34(%ebp),%eax
    1503:	89 04 24             	mov    %eax,(%esp)
    1506:	e8 b5 85 01 00       	call   19ac0 <free>
    150b:	8b 45 e4             	mov    -0x1c(%ebp),%eax
    150e:	89 04 24             	mov    %eax,(%esp)
    1511:	e8 aa 85 01 00       	call   19ac0 <free>
    1516:	8b 45 dc             	mov    -0x24(%ebp),%eax
    1519:	89 04 24             	mov    %eax,(%esp)
    151c:	e8 9f 85 01 00       	call   19ac0 <free>
    1521:	8b 45 d4             	mov    -0x2c(%ebp),%eax
    1524:	89 04 24             	mov    %eax,(%esp)
    1527:	e8 94 85 01 00       	call   19ac0 <free>
    152c:	c7 44 24 08 20 00 00 	movl   $0x20,0x8(%esp)
    1533:	00 
    1534:	c7 44 24 04 00 00 00 	movl   $0x0,0x4(%esp)
    153b:	00 
    153c:	89 34 24             	mov    %esi,(%esp)
    153f:	e8 2c af 00 00       	call   c470 <memset>
    1544:	83 c8 ff             	or     $0xffffffff,%eax
    1547:	eb af                	jmp    14f8 <get_my_registers+0x108>
    1549:	8d b4 26 00 00 00 00 	lea    0x0(%esi,%eiz,1),%esi
    1550:	b8 fe ff ff ff       	mov    $0xfffffffe,%eax
    1555:	eb a1                	jmp    14f8 <get_my_registers+0x108>
    1557:	c7 44 24 08 51 00 00 	movl   $0x51,0x8(%esp)
    155e:	00 
    155f:	c7 44 24 04 97 8b 02 	movl   $0x28b97,0x4(%esp)
    1566:	00 
    1567:	c7 04 24 9d 8b 02 00 	movl   $0x28b9d,(%esp)
    156e:	e8 9d 2c 02 00       	call   24210 <assert_abort>
    1573:	8d b6 00 00 00 00    	lea    0x0(%esi),%esi
    1579:	8d bc 27 00 00 00 00 	lea    0x0(%edi,%eiz,1),%edi

00001580 <enable_interrupts>:
    1580:	55                   	push   %ebp
    1581:	89 e5                	mov    %esp,%ebp
    1583:	56                   	push   %esi
    1584:	53                   	push   %ebx
    1585:	83 ec 10             	sub    $0x10,%esp
    1588:	8b 45 08             	mov    0x8(%ebp),%eax
    158b:	89 04 24             	mov    %eax,(%esp)
    158e:	e8 ad 32 00 00       	call   4840 <ddf_dev_get_handle>
    1593:	c7 44 24 08 01 00 00 	movl   $0x1,0x8(%esp)
    159a:	00 
    159b:	89 44 24 04          	mov    %eax,0x4(%esp)
    159f:	c7 04 24 02 00 00 00 	movl   $0x2,(%esp)
    15a6:	e8 95 96 00 00       	call   ac40 <devman_parent_device_connect>
    15ab:	89 c3                	mov    %eax,%ebx
    15ad:	85 c0                	test   %eax,%eax
    15af:	74 27                	je     15d8 <enable_interrupts+0x58>
    15b1:	89 04 24             	mov    %eax,(%esp)
    15b4:	e8 07 a7 00 00       	call   bcc0 <hw_res_enable_interrupt>
    15b9:	89 1c 24             	mov    %ebx,(%esp)
    15bc:	89 c6                	mov    %eax,%esi
    15be:	e8 2d b8 01 00       	call   1cdf0 <async_hangup>
    15c3:	89 f0                	mov    %esi,%eax
    15c5:	3c 01                	cmp    $0x1,%al
    15c7:	19 c0                	sbb    %eax,%eax
    15c9:	25 f7 fe ff ff       	and    $0xfffffef7,%eax
    15ce:	83 c4 10             	add    $0x10,%esp
    15d1:	5b                   	pop    %ebx
    15d2:	5e                   	pop    %esi
    15d3:	5d                   	pop    %ebp
    15d4:	c3                   	ret    
    15d5:	8d 76 00             	lea    0x0(%esi),%esi
    15d8:	b8 fe ff ff ff       	mov    $0xfffffffe,%eax
    15dd:	eb ef                	jmp    15ce <enable_interrupts+0x4e>
    15df:	90                   	nop

000015e0 <disable_legacy>:
    15e0:	55                   	push   %ebp
    15e1:	89 e5                	mov    %esp,%ebp
    15e3:	57                   	push   %edi
    15e4:	56                   	push   %esi
    15e5:	53                   	push   %ebx
    15e6:	83 ec 5c             	sub    $0x5c,%esp
    15e9:	8b 7d 08             	mov    0x8(%ebp),%edi
    15ec:	8b 75 0c             	mov    0xc(%ebp),%esi
    15ef:	85 ff                	test   %edi,%edi
    15f1:	0f 84 af 05 00 00    	je     1ba6 <disable_legacy+0x5c6>
    15f7:	c7 44 24 08 64 8c 02 	movl   $0x28c64,0x8(%esp)
    15fe:	00 
    15ff:	c7 44 24 04 04 00 00 	movl   $0x4,0x4(%esp)
    1606:	00 
    1607:	c7 04 24 ff ff ff ff 	movl   $0xffffffff,(%esp)
    160e:	e8 fd 32 01 00       	call   14910 <log_msg>
    1613:	8d 45 dc             	lea    -0x24(%ebp),%eax
    1616:	89 44 24 08          	mov    %eax,0x8(%esp)
    161a:	8b 45 10             	mov    0x10(%ebp),%eax
    161d:	89 44 24 04          	mov    %eax,0x4(%esp)
    1621:	89 34 24             	mov    %esi,(%esp)
    1624:	c7 45 dc 00 00 00 00 	movl   $0x0,-0x24(%ebp)
    162b:	e8 20 85 00 00       	call   9b50 <pio_enable>
    1630:	89 45 d4             	mov    %eax,-0x2c(%ebp)
    1633:	85 c0                	test   %eax,%eax
    1635:	0f 85 a5 02 00 00    	jne    18e0 <disable_legacy+0x300>
    163b:	8b 45 dc             	mov    -0x24(%ebp),%eax
    163e:	c7 44 24 08 a1 8b 02 	movl   $0x28ba1,0x8(%esp)
    1645:	00 
    1646:	89 44 24 0c          	mov    %eax,0xc(%esp)
    164a:	c7 44 24 04 05 00 00 	movl   $0x5,0x4(%esp)
    1651:	00 
    1652:	c7 04 24 ff ff ff ff 	movl   $0xffffffff,(%esp)
    1659:	e8 b2 32 01 00       	call   14910 <log_msg>
    165e:	8b 45 dc             	mov    -0x24(%ebp),%eax
    1661:	8b 58 08             	mov    0x8(%eax),%ebx
    1664:	c7 44 24 08 a8 8c 02 	movl   $0x28ca8,0x8(%esp)
    166b:	00 
    166c:	0f b6 f7             	movzbl %bh,%esi
    166f:	89 5c 24 0c          	mov    %ebx,0xc(%esp)
    1673:	c7 44 24 04 04 00 00 	movl   $0x4,0x4(%esp)
    167a:	00 
    167b:	c7 04 24 ff ff ff ff 	movl   $0xffffffff,(%esp)
    1682:	e8 89 32 01 00       	call   14910 <log_msg>
    1687:	89 74 24 0c          	mov    %esi,0xc(%esp)
    168b:	c7 44 24 08 bb 8b 02 	movl   $0x28bbb,0x8(%esp)
    1692:	00 
    1693:	c7 44 24 04 04 00 00 	movl   $0x4,0x4(%esp)
    169a:	00 
    169b:	c7 04 24 ff ff ff ff 	movl   $0xffffffff,(%esp)
    16a2:	e8 69 32 01 00       	call   14910 <log_msg>
    16a7:	85 f6                	test   %esi,%esi
    16a9:	0f 85 09 01 00 00    	jne    17b8 <disable_legacy+0x1d8>
    16af:	8b 45 dc             	mov    -0x24(%ebp),%eax
    16b2:	8a 00                	mov    (%eax),%al
    16b4:	c7 44 24 08 3a 8c 02 	movl   $0x28c3a,0x8(%esp)
    16bb:	00 
    16bc:	25 ff 00 00 00       	and    $0xff,%eax
    16c1:	c7 44 24 04 04 00 00 	movl   $0x4,0x4(%esp)
    16c8:	00 
    16c9:	89 44 24 0c          	mov    %eax,0xc(%esp)
    16cd:	c7 04 24 ff ff ff ff 	movl   $0xffffffff,(%esp)
    16d4:	89 c6                	mov    %eax,%esi
    16d6:	e8 35 32 01 00       	call   14910 <log_msg>
    16db:	8b 55 dc             	mov    -0x24(%ebp),%edx
    16de:	8d 1c 32             	lea    (%edx,%esi,1),%ebx
    16e1:	8d 44 32 40          	lea    0x40(%edx,%esi,1),%eax
    16e5:	8d 7c 32 04          	lea    0x4(%edx,%esi,1),%edi
    16e9:	8d 74 32 08          	lea    0x8(%edx,%esi,1),%esi
    16ed:	8b 13                	mov    (%ebx),%edx
    16ef:	c7 44 24 08 4e 8c 02 	movl   $0x28c4e,0x8(%esp)
    16f6:	00 
    16f7:	89 54 24 0c          	mov    %edx,0xc(%esp)
    16fb:	c7 44 24 04 04 00 00 	movl   $0x4,0x4(%esp)
    1702:	00 
    1703:	c7 04 24 ff ff ff ff 	movl   $0xffffffff,(%esp)
    170a:	89 45 d0             	mov    %eax,-0x30(%ebp)
    170d:	e8 fe 31 01 00       	call   14910 <log_msg>
    1712:	8b 13                	mov    (%ebx),%edx
    1714:	83 e2 01             	and    $0x1,%edx
    1717:	0f 84 63 02 00 00    	je     1980 <disable_legacy+0x3a0>
    171d:	8b 45 d0             	mov    -0x30(%ebp),%eax
    1720:	c7 07 3f 00 00 00    	movl   $0x3f,(%edi)
    1726:	c7 06 00 00 00 00    	movl   $0x0,(%esi)
    172c:	c7 00 00 00 00 00    	movl   $0x0,(%eax)
    1732:	c7 03 00 00 00 00    	movl   $0x0,(%ebx)
    1738:	8b 07                	mov    (%edi),%eax
    173a:	f6 c4 10             	test   $0x10,%ah
    173d:	74 f9                	je     1738 <disable_legacy+0x158>
    173f:	c7 44 24 08 11 8c 02 	movl   $0x28c11,0x8(%esp)
    1746:	00 
    1747:	c7 44 24 04 03 00 00 	movl   $0x3,0x4(%esp)
    174e:	00 
    174f:	c7 04 24 ff ff ff ff 	movl   $0xffffffff,(%esp)
    1756:	e8 b5 31 01 00       	call   14910 <log_msg>
    175b:	8b 45 d0             	mov    -0x30(%ebp),%eax
    175e:	8b 10                	mov    (%eax),%edx
    1760:	8b 06                	mov    (%esi),%eax
    1762:	89 45 c8             	mov    %eax,-0x38(%ebp)
    1765:	8b 0f                	mov    (%edi),%ecx
    1767:	8b 03                	mov    (%ebx),%eax
    1769:	89 74 24 1c          	mov    %esi,0x1c(%esp)
    176d:	89 44 24 10          	mov    %eax,0x10(%esp)
    1771:	8b 45 d0             	mov    -0x30(%ebp),%eax
    1774:	89 44 24 24          	mov    %eax,0x24(%esp)
    1778:	8b 45 c8             	mov    -0x38(%ebp),%eax
    177b:	89 44 24 20          	mov    %eax,0x20(%esp)
    177f:	89 7c 24 14          	mov    %edi,0x14(%esp)
    1783:	89 5c 24 0c          	mov    %ebx,0xc(%esp)
    1787:	89 54 24 28          	mov    %edx,0x28(%esp)
    178b:	89 4c 24 18          	mov    %ecx,0x18(%esp)
    178f:	c7 44 24 08 04 8e 02 	movl   $0x28e04,0x8(%esp)
    1796:	00 
    1797:	c7 44 24 04 04 00 00 	movl   $0x4,0x4(%esp)
    179e:	00 
    179f:	c7 04 24 ff ff ff ff 	movl   $0xffffffff,(%esp)
    17a6:	e8 65 31 01 00       	call   14910 <log_msg>
    17ab:	8b 45 d4             	mov    -0x2c(%ebp),%eax
    17ae:	83 c4 5c             	add    $0x5c,%esp
    17b1:	5b                   	pop    %ebx
    17b2:	5e                   	pop    %esi
    17b3:	5f                   	pop    %edi
    17b4:	5d                   	pop    %ebp
    17b5:	c3                   	ret    
    17b6:	66 90                	xchg   %ax,%ax
    17b8:	89 3c 24             	mov    %edi,(%esp)
    17bb:	e8 80 30 00 00       	call   4840 <ddf_dev_get_handle>
    17c0:	c7 44 24 08 01 00 00 	movl   $0x1,0x8(%esp)
    17c7:	00 
    17c8:	89 44 24 04          	mov    %eax,0x4(%esp)
    17cc:	c7 04 24 02 00 00 00 	movl   $0x2,(%esp)
    17d3:	e8 68 94 00 00       	call   ac40 <devman_parent_device_connect>
    17d8:	89 c7                	mov    %eax,%edi
    17da:	85 c0                	test   %eax,%eax
    17dc:	0f 84 4f 03 00 00    	je     1b31 <disable_legacy+0x551>
    17e2:	8d 45 e0             	lea    -0x20(%ebp),%eax
    17e5:	89 74 24 04          	mov    %esi,0x4(%esp)
    17e9:	89 44 24 08          	mov    %eax,0x8(%esp)
    17ed:	89 3c 24             	mov    %edi,(%esp)
    17f0:	e8 4b aa 00 00       	call   c240 <pci_config_space_read_32>
    17f5:	89 c3                	mov    %eax,%ebx
    17f7:	85 c0                	test   %eax,%eax
    17f9:	0f 85 19 01 00 00    	jne    1918 <disable_legacy+0x338>
    17ff:	8b 45 e0             	mov    -0x20(%ebp),%eax
    1802:	c7 44 24 08 cf 8b 02 	movl   $0x28bcf,0x8(%esp)
    1809:	00 
    180a:	89 44 24 0c          	mov    %eax,0xc(%esp)
    180e:	c7 44 24 04 04 00 00 	movl   $0x4,0x4(%esp)
    1815:	00 
    1816:	c7 04 24 ff ff ff ff 	movl   $0xffffffff,(%esp)
    181d:	e8 ee 30 01 00       	call   14910 <log_msg>
    1822:	c7 44 24 08 df 8b 02 	movl   $0x28bdf,0x8(%esp)
    1829:	00 
    182a:	c7 44 24 04 04 00 00 	movl   $0x4,0x4(%esp)
    1831:	00 
    1832:	c7 04 24 ff ff ff ff 	movl   $0xffffffff,(%esp)
    1839:	e8 d2 30 01 00       	call   14910 <log_msg>
    183e:	8d 46 03             	lea    0x3(%esi),%eax
    1841:	c7 44 24 08 01 00 00 	movl   $0x1,0x8(%esp)
    1848:	00 
    1849:	89 44 24 04          	mov    %eax,0x4(%esp)
    184d:	89 3c 24             	mov    %edi,(%esp)
    1850:	e8 7b aa 00 00       	call   c2d0 <pci_config_space_write_8>
    1855:	89 c3                	mov    %eax,%ebx
    1857:	85 c0                	test   %eax,%eax
    1859:	0f 85 49 01 00 00    	jne    19a8 <disable_legacy+0x3c8>
    185f:	8d 45 e0             	lea    -0x20(%ebp),%eax
    1862:	89 74 24 04          	mov    %esi,0x4(%esp)
    1866:	89 44 24 08          	mov    %eax,0x8(%esp)
    186a:	89 3c 24             	mov    %edi,(%esp)
    186d:	e8 ce a9 00 00       	call   c240 <pci_config_space_read_32>
    1872:	31 db                	xor    %ebx,%ebx
    1874:	eb 30                	jmp    18a6 <disable_legacy+0x2c6>
    1876:	66 90                	xchg   %ax,%ax
    1878:	c7 04 24 0a 00 00 00 	movl   $0xa,(%esp)
    187f:	83 c3 0a             	add    $0xa,%ebx
    1882:	e8 e9 a4 01 00       	call   1bd70 <async_usleep>
    1887:	8d 45 e0             	lea    -0x20(%ebp),%eax
    188a:	89 44 24 08          	mov    %eax,0x8(%esp)
    188e:	89 74 24 04          	mov    %esi,0x4(%esp)
    1892:	89 3c 24             	mov    %edi,(%esp)
    1895:	e8 a6 a9 00 00       	call   c240 <pci_config_space_read_32>
    189a:	81 fb e8 03 00 00    	cmp    $0x3e8,%ebx
    18a0:	0f 84 1b 01 00 00    	je     19c1 <disable_legacy+0x3e1>
    18a6:	f6 45 e2 01          	testb  $0x1,-0x1e(%ebp)
    18aa:	75 cc                	jne    1878 <disable_legacy+0x298>
    18ac:	89 5c 24 0c          	mov    %ebx,0xc(%esp)
    18b0:	c7 44 24 08 14 8d 02 	movl   $0x28d14,0x8(%esp)
    18b7:	00 
    18b8:	c7 44 24 04 03 00 00 	movl   $0x3,0x4(%esp)
    18bf:	00 
    18c0:	c7 04 24 ff ff ff ff 	movl   $0xffffffff,(%esp)
    18c7:	e8 44 30 01 00       	call   14910 <log_msg>
    18cc:	89 3c 24             	mov    %edi,(%esp)
    18cf:	e8 1c b5 01 00       	call   1cdf0 <async_hangup>
    18d4:	e9 d6 fd ff ff       	jmp    16af <disable_legacy+0xcf>
    18d9:	8d b4 26 00 00 00 00 	lea    0x0(%esi,%eiz,1),%esi
    18e0:	89 04 24             	mov    %eax,(%esp)
    18e3:	e8 f8 e3 00 00       	call   fce0 <str_error>
    18e8:	89 74 24 0c          	mov    %esi,0xc(%esp)
    18ec:	89 44 24 10          	mov    %eax,0x10(%esp)
    18f0:	c7 44 24 08 84 8c 02 	movl   $0x28c84,0x8(%esp)
    18f7:	00 
    18f8:	c7 44 24 04 01 00 00 	movl   $0x1,0x4(%esp)
    18ff:	00 
    1900:	c7 04 24 ff ff ff ff 	movl   $0xffffffff,(%esp)
    1907:	e8 04 30 01 00       	call   14910 <log_msg>
    190c:	8b 45 d4             	mov    -0x2c(%ebp),%eax
    190f:	83 c4 5c             	add    $0x5c,%esp
    1912:	5b                   	pop    %ebx
    1913:	5e                   	pop    %esi
    1914:	5f                   	pop    %edi
    1915:	5d                   	pop    %ebp
    1916:	c3                   	ret    
    1917:	90                   	nop
    1918:	89 1c 24             	mov    %ebx,(%esp)
    191b:	e8 c0 e3 00 00       	call   fce0 <str_error>
    1920:	c7 44 24 08 cc 8c 02 	movl   $0x28ccc,0x8(%esp)
    1927:	00 
    1928:	89 44 24 0c          	mov    %eax,0xc(%esp)
    192c:	c7 44 24 04 01 00 00 	movl   $0x1,0x4(%esp)
    1933:	00 
    1934:	c7 04 24 ff ff ff ff 	movl   $0xffffffff,(%esp)
    193b:	e8 d0 2f 01 00       	call   14910 <log_msg>
    1940:	89 3c 24             	mov    %edi,(%esp)
    1943:	e8 a8 b4 01 00       	call   1cdf0 <async_hangup>
    1948:	89 5d d4             	mov    %ebx,-0x2c(%ebp)
    194b:	89 d8                	mov    %ebx,%eax
    194d:	89 04 24             	mov    %eax,(%esp)
    1950:	e8 8b e3 00 00       	call   fce0 <str_error>
    1955:	c7 44 24 08 dc 8e 02 	movl   $0x28edc,0x8(%esp)
    195c:	00 
    195d:	89 44 24 0c          	mov    %eax,0xc(%esp)
    1961:	c7 44 24 04 01 00 00 	movl   $0x1,0x4(%esp)
    1968:	00 
    1969:	c7 04 24 ff ff ff ff 	movl   $0xffffffff,(%esp)
    1970:	e8 9b 2f 01 00       	call   14910 <log_msg>
    1975:	8b 45 d4             	mov    -0x2c(%ebp),%eax
    1978:	83 c4 5c             	add    $0x5c,%esp
    197b:	5b                   	pop    %ebx
    197c:	5e                   	pop    %esi
    197d:	5f                   	pop    %edi
    197e:	5d                   	pop    %ebp
    197f:	c3                   	ret    
    1980:	c7 44 24 08 23 8c 02 	movl   $0x28c23,0x8(%esp)
    1987:	00 
    1988:	c7 44 24 04 03 00 00 	movl   $0x3,0x4(%esp)
    198f:	00 
    1990:	c7 04 24 ff ff ff ff 	movl   $0xffffffff,(%esp)
    1997:	e8 74 2f 01 00       	call   14910 <log_msg>
    199c:	e9 ba fd ff ff       	jmp    175b <disable_legacy+0x17b>
    19a1:	8d b4 26 00 00 00 00 	lea    0x0(%esi,%eiz,1),%esi
    19a8:	89 04 24             	mov    %eax,(%esp)
    19ab:	e8 30 e3 00 00       	call   fce0 <str_error>
    19b0:	c7 44 24 08 ec 8c 02 	movl   $0x28cec,0x8(%esp)
    19b7:	00 
    19b8:	89 44 24 0c          	mov    %eax,0xc(%esp)
    19bc:	e9 6b ff ff ff       	jmp    192c <disable_legacy+0x34c>
    19c1:	f6 45 e2 01          	testb  $0x1,-0x1e(%ebp)
    19c5:	0f 84 e1 fe ff ff    	je     18ac <disable_legacy+0x2cc>
    19cb:	c7 44 24 0c e8 03 00 	movl   $0x3e8,0xc(%esp)
    19d2:	00 
    19d3:	c7 44 24 08 3c 8d 02 	movl   $0x28d3c,0x8(%esp)
    19da:	00 
    19db:	c7 44 24 04 02 00 00 	movl   $0x2,0x4(%esp)
    19e2:	00 
    19e3:	c7 04 24 ff ff ff ff 	movl   $0xffffffff,(%esp)
    19ea:	e8 21 2f 01 00       	call   14910 <log_msg>
    19ef:	c7 44 24 08 00 00 00 	movl   $0x1000000,0x8(%esp)
    19f6:	01 
    19f7:	89 74 24 04          	mov    %esi,0x4(%esp)
    19fb:	89 3c 24             	mov    %edi,(%esp)
    19fe:	e8 ed a9 00 00       	call   c3f0 <pci_config_space_write_32>
    1a03:	89 c3                	mov    %eax,%ebx
    1a05:	85 c0                	test   %eax,%eax
    1a07:	0f 85 ad 00 00 00    	jne    1aba <disable_legacy+0x4da>
    1a0d:	80 7d e0 01          	cmpb   $0x1,-0x20(%ebp)
    1a11:	74 4d                	je     1a60 <disable_legacy+0x480>
    1a13:	8d 45 e0             	lea    -0x20(%ebp),%eax
    1a16:	89 74 24 04          	mov    %esi,0x4(%esp)
    1a1a:	89 44 24 08          	mov    %eax,0x8(%esp)
    1a1e:	89 3c 24             	mov    %edi,(%esp)
    1a21:	e8 1a a8 00 00       	call   c240 <pci_config_space_read_32>
    1a26:	89 c3                	mov    %eax,%ebx
    1a28:	85 c0                	test   %eax,%eax
    1a2a:	0f 85 e8 fe ff ff    	jne    1918 <disable_legacy+0x338>
    1a30:	8b 45 e0             	mov    -0x20(%ebp),%eax
    1a33:	c7 44 24 08 cf 8b 02 	movl   $0x28bcf,0x8(%esp)
    1a3a:	00 
    1a3b:	89 44 24 0c          	mov    %eax,0xc(%esp)
    1a3f:	c7 44 24 04 04 00 00 	movl   $0x4,0x4(%esp)
    1a46:	00 
    1a47:	c7 04 24 ff ff ff ff 	movl   $0xffffffff,(%esp)
    1a4e:	e8 bd 2e 01 00       	call   14910 <log_msg>
    1a53:	89 3c 24             	mov    %edi,(%esp)
    1a56:	e8 95 b3 01 00       	call   1cdf0 <async_hangup>
    1a5b:	e9 4f fc ff ff       	jmp    16af <disable_legacy+0xcf>
    1a60:	8d 45 e4             	lea    -0x1c(%ebp),%eax
    1a63:	8d 5e 04             	lea    0x4(%esi),%ebx
    1a66:	89 44 24 08          	mov    %eax,0x8(%esp)
    1a6a:	89 5c 24 04          	mov    %ebx,0x4(%esp)
    1a6e:	89 3c 24             	mov    %edi,(%esp)
    1a71:	e8 ca a7 00 00       	call   c240 <pci_config_space_read_32>
    1a76:	85 c0                	test   %eax,%eax
    1a78:	74 59                	je     1ad3 <disable_legacy+0x4f3>
    1a7a:	89 04 24             	mov    %eax,(%esp)
    1a7d:	89 45 cc             	mov    %eax,-0x34(%ebp)
    1a80:	e8 5b e2 00 00       	call   fce0 <str_error>
    1a85:	c7 44 24 08 9c 8d 02 	movl   $0x28d9c,0x8(%esp)
    1a8c:	00 
    1a8d:	89 44 24 0c          	mov    %eax,0xc(%esp)
    1a91:	c7 44 24 04 01 00 00 	movl   $0x1,0x4(%esp)
    1a98:	00 
    1a99:	c7 04 24 ff ff ff ff 	movl   $0xffffffff,(%esp)
    1aa0:	e8 6b 2e 01 00       	call   14910 <log_msg>
    1aa5:	89 3c 24             	mov    %edi,(%esp)
    1aa8:	e8 43 b3 01 00       	call   1cdf0 <async_hangup>
    1aad:	8b 55 cc             	mov    -0x34(%ebp),%edx
    1ab0:	89 55 d4             	mov    %edx,-0x2c(%ebp)
    1ab3:	89 d0                	mov    %edx,%eax
    1ab5:	e9 93 fe ff ff       	jmp    194d <disable_legacy+0x36d>
    1aba:	89 04 24             	mov    %eax,(%esp)
    1abd:	e8 1e e2 00 00       	call   fce0 <str_error>
    1ac2:	c7 44 24 08 78 8d 02 	movl   $0x28d78,0x8(%esp)
    1ac9:	00 
    1aca:	89 44 24 0c          	mov    %eax,0xc(%esp)
    1ace:	e9 59 fe ff ff       	jmp    192c <disable_legacy+0x34c>
    1ad3:	8b 45 e4             	mov    -0x1c(%ebp),%eax
    1ad6:	c7 44 24 08 fe 8b 02 	movl   $0x28bfe,0x8(%esp)
    1add:	00 
    1ade:	89 44 24 0c          	mov    %eax,0xc(%esp)
    1ae2:	c7 44 24 04 04 00 00 	movl   $0x4,0x4(%esp)
    1ae9:	00 
    1aea:	c7 04 24 ff ff ff ff 	movl   $0xffffffff,(%esp)
    1af1:	e8 1a 2e 01 00       	call   14910 <log_msg>
    1af6:	c7 44 24 08 00 00 00 	movl   $0xe0000000,0x8(%esp)
    1afd:	e0 
    1afe:	89 5c 24 04          	mov    %ebx,0x4(%esp)
    1b02:	89 3c 24             	mov    %edi,(%esp)
    1b05:	e8 e6 a8 00 00       	call   c3f0 <pci_config_space_write_32>
    1b0a:	85 c0                	test   %eax,%eax
    1b0c:	74 32                	je     1b40 <disable_legacy+0x560>
    1b0e:	89 44 24 0c          	mov    %eax,0xc(%esp)
    1b12:	c7 44 24 08 c0 8d 02 	movl   $0x28dc0,0x8(%esp)
    1b19:	00 
    1b1a:	c7 44 24 04 01 00 00 	movl   $0x1,0x4(%esp)
    1b21:	00 
    1b22:	c7 04 24 ff ff ff ff 	movl   $0xffffffff,(%esp)
    1b29:	89 45 cc             	mov    %eax,-0x34(%ebp)
    1b2c:	e9 6f ff ff ff       	jmp    1aa0 <disable_legacy+0x4c0>
    1b31:	c7 45 d4 fe ff ff ff 	movl   $0xfffffffe,-0x2c(%ebp)
    1b38:	8b 45 d4             	mov    -0x2c(%ebp),%eax
    1b3b:	e9 0d fe ff ff       	jmp    194d <disable_legacy+0x36d>
    1b40:	c7 04 24 0a 00 00 00 	movl   $0xa,(%esp)
    1b47:	e8 94 f2 01 00       	call   20de0 <udelay>
    1b4c:	8d 45 e4             	lea    -0x1c(%ebp),%eax
    1b4f:	89 5c 24 04          	mov    %ebx,0x4(%esp)
    1b53:	89 44 24 08          	mov    %eax,0x8(%esp)
    1b57:	89 3c 24             	mov    %edi,(%esp)
    1b5a:	e8 e1 a6 00 00       	call   c240 <pci_config_space_read_32>
    1b5f:	89 c3                	mov    %eax,%ebx
    1b61:	85 c0                	test   %eax,%eax
    1b63:	74 19                	je     1b7e <disable_legacy+0x59e>
    1b65:	89 04 24             	mov    %eax,(%esp)
    1b68:	e8 73 e1 00 00       	call   fce0 <str_error>
    1b6d:	c7 44 24 08 e0 8d 02 	movl   $0x28de0,0x8(%esp)
    1b74:	00 
    1b75:	89 44 24 0c          	mov    %eax,0xc(%esp)
    1b79:	e9 ae fd ff ff       	jmp    192c <disable_legacy+0x34c>
    1b7e:	8b 45 e4             	mov    -0x1c(%ebp),%eax
    1b81:	c7 44 24 08 f7 8b 02 	movl   $0x28bf7,0x8(%esp)
    1b88:	00 
    1b89:	89 44 24 0c          	mov    %eax,0xc(%esp)
    1b8d:	c7 44 24 04 04 00 00 	movl   $0x4,0x4(%esp)
    1b94:	00 
    1b95:	c7 04 24 ff ff ff ff 	movl   $0xffffffff,(%esp)
    1b9c:	e8 6f 2d 01 00       	call   14910 <log_msg>
    1ba1:	e9 6d fe ff ff       	jmp    1a13 <disable_legacy+0x433>
    1ba6:	c7 44 24 08 ee 00 00 	movl   $0xee,0x8(%esp)
    1bad:	00 
    1bae:	c7 44 24 04 97 8b 02 	movl   $0x28b97,0x4(%esp)
    1bb5:	00 
    1bb6:	c7 04 24 39 8a 02 00 	movl   $0x28a39,(%esp)
    1bbd:	e8 4e 26 02 00       	call   24210 <assert_abort>
    1bc2:	66 90                	xchg   %ax,%ax
    1bc4:	66 90                	xchg   %ax,%ax
    1bc6:	66 90                	xchg   %ax,%ax
    1bc8:	66 90                	xchg   %ax,%ax
    1bca:	66 90                	xchg   %ax,%ax
    1bcc:	66 90                	xchg   %ax,%ax
    1bce:	66 90                	xchg   %ax,%ax

00001bd0 <register_endpoint>:
    1bd0:	55                   	push   %ebp
    1bd1:	89 e5                	mov    %esp,%ebp
    1bd3:	57                   	push   %edi
    1bd4:	56                   	push   %esi
    1bd5:	53                   	push   %ebx
    1bd6:	83 ec 5c             	sub    $0x5c,%esp
    1bd9:	8b 45 08             	mov    0x8(%ebp),%eax
    1bdc:	0f bf 75 0c          	movswl 0xc(%ebp),%esi
    1be0:	0f bf 7d 10          	movswl 0x10(%ebp),%edi
    1be4:	85 c0                	test   %eax,%eax
    1be6:	0f 84 0f 01 00 00    	je     1cfb <register_endpoint+0x12b>
    1bec:	89 04 24             	mov    %eax,(%esp)
    1bef:	e8 9c 2e 00 00       	call   4a90 <ddf_fun_data_get>
    1bf4:	89 c3                	mov    %eax,%ebx
    1bf6:	85 c0                	test   %eax,%eax
    1bf8:	0f 84 e1 00 00 00    	je     1cdf <register_endpoint+0x10f>
    1bfe:	8d 45 e4             	lea    -0x1c(%ebp),%eax
    1c01:	c7 44 24 08 00 00 00 	movl   $0x0,0x8(%esp)
    1c08:	00 
    1c09:	89 44 24 0c          	mov    %eax,0xc(%esp)
    1c0d:	89 74 24 04          	mov    %esi,0x4(%esp)
    1c11:	89 1c 24             	mov    %ebx,(%esp)
    1c14:	c7 45 e4 03 00 00 00 	movl   $0x3,-0x1c(%ebp)
    1c1b:	e8 a0 0f 00 00       	call   2bc0 <usb_device_manager_get_info_by_address>
    1c20:	85 c0                	test   %eax,%eax
    1c22:	0f 85 af 00 00 00    	jne    1cd7 <register_endpoint+0x107>
    1c28:	8b 45 e4             	mov    -0x1c(%ebp),%eax
    1c2b:	89 04 24             	mov    %eax,(%esp)
    1c2e:	e8 7d 22 00 00       	call   3eb0 <usb_str_speed>
    1c33:	89 c1                	mov    %eax,%ecx
    1c35:	8b 45 18             	mov    0x18(%ebp),%eax
    1c38:	89 04 24             	mov    %eax,(%esp)
    1c3b:	89 4d d4             	mov    %ecx,-0x2c(%ebp)
    1c3e:	e8 4d 22 00 00       	call   3e90 <usb_str_direction>
    1c43:	8b 55 14             	mov    0x14(%ebp),%edx
    1c46:	89 14 24             	mov    %edx,(%esp)
    1c49:	89 45 cc             	mov    %eax,-0x34(%ebp)
    1c4c:	e8 ff 21 00 00       	call   3e50 <usb_str_transfer_type>
    1c51:	8b 55 20             	mov    0x20(%ebp),%edx
    1c54:	89 54 24 24          	mov    %edx,0x24(%esp)
    1c58:	8b 55 1c             	mov    0x1c(%ebp),%edx
    1c5b:	89 54 24 20          	mov    %edx,0x20(%esp)
    1c5f:	8b 4d d4             	mov    -0x2c(%ebp),%ecx
    1c62:	8b 55 cc             	mov    -0x34(%ebp),%edx
    1c65:	89 44 24 14          	mov    %eax,0x14(%esp)
    1c69:	89 54 24 18          	mov    %edx,0x18(%esp)
    1c6d:	89 4c 24 1c          	mov    %ecx,0x1c(%esp)
    1c71:	89 7c 24 10          	mov    %edi,0x10(%esp)
    1c75:	89 74 24 0c          	mov    %esi,0xc(%esp)
    1c79:	c7 44 24 08 70 8f 02 	movl   $0x28f70,0x8(%esp)
    1c80:	00 
    1c81:	c7 44 24 04 04 00 00 	movl   $0x4,0x4(%esp)
    1c88:	00 
    1c89:	c7 04 24 ff ff ff ff 	movl   $0xffffffff,(%esp)
    1c90:	e8 7b 2c 01 00       	call   14910 <log_msg>
    1c95:	8b 55 1c             	mov    0x1c(%ebp),%edx
    1c98:	8b 45 e4             	mov    -0x1c(%ebp),%eax
    1c9b:	89 5c 24 24          	mov    %ebx,0x24(%esp)
    1c9f:	89 54 24 1c          	mov    %edx,0x1c(%esp)
    1ca3:	89 54 24 18          	mov    %edx,0x18(%esp)
    1ca7:	89 44 24 14          	mov    %eax,0x14(%esp)
    1cab:	8b 55 18             	mov    0x18(%ebp),%edx
    1cae:	8b 45 14             	mov    0x14(%ebp),%eax
    1cb1:	81 c3 24 06 00 00    	add    $0x624,%ebx
    1cb7:	c7 44 24 20 90 1e 00 	movl   $0x1e90,0x20(%esp)
    1cbe:	00 
    1cbf:	89 44 24 10          	mov    %eax,0x10(%esp)
    1cc3:	89 54 24 0c          	mov    %edx,0xc(%esp)
    1cc7:	89 7c 24 08          	mov    %edi,0x8(%esp)
    1ccb:	89 74 24 04          	mov    %esi,0x4(%esp)
    1ccf:	89 1c 24             	mov    %ebx,(%esp)
    1cd2:	e8 d9 15 00 00       	call   32b0 <usb_endpoint_manager_add_ep>
    1cd7:	83 c4 5c             	add    $0x5c,%esp
    1cda:	5b                   	pop    %ebx
    1cdb:	5e                   	pop    %esi
    1cdc:	5f                   	pop    %edi
    1cdd:	5d                   	pop    %ebp
    1cde:	c3                   	ret    
    1cdf:	c7 44 24 08 f0 00 00 	movl   $0xf0,0x8(%esp)
    1ce6:	00 
    1ce7:	c7 44 24 04 0a 8f 02 	movl   $0x28f0a,0x4(%esp)
    1cee:	00 
    1cef:	c7 04 24 1a 8f 02 00 	movl   $0x28f1a,(%esp)
    1cf6:	e8 15 25 02 00       	call   24210 <assert_abort>
    1cfb:	c7 44 24 08 ee 00 00 	movl   $0xee,0x8(%esp)
    1d02:	00 
    1d03:	c7 44 24 04 0a 8f 02 	movl   $0x28f0a,0x4(%esp)
    1d0a:	00 
    1d0b:	c7 04 24 16 8f 02 00 	movl   $0x28f16,(%esp)
    1d12:	e8 f9 24 02 00       	call   24210 <assert_abort>
    1d17:	89 f6                	mov    %esi,%esi
    1d19:	8d bc 27 00 00 00 00 	lea    0x0(%edi,%eiz,1),%edi

00001d20 <request_address>:
    1d20:	55                   	push   %ebp
    1d21:	89 e5                	mov    %esp,%ebp
    1d23:	57                   	push   %edi
    1d24:	56                   	push   %esi
    1d25:	53                   	push   %ebx
    1d26:	83 ec 3c             	sub    $0x3c,%esp
    1d29:	8b 45 08             	mov    0x8(%ebp),%eax
    1d2c:	8a 55 10             	mov    0x10(%ebp),%dl
    1d2f:	8b 5d 0c             	mov    0xc(%ebp),%ebx
    1d32:	8b 7d 14             	mov    0x14(%ebp),%edi
    1d35:	88 55 e7             	mov    %dl,-0x19(%ebp)
    1d38:	85 c0                	test   %eax,%eax
    1d3a:	0f 84 bd 00 00 00    	je     1dfd <request_address+0xdd>
    1d40:	89 04 24             	mov    %eax,(%esp)
    1d43:	e8 48 2d 00 00       	call   4a90 <ddf_fun_data_get>
    1d48:	89 c2                	mov    %eax,%edx
    1d4a:	85 c0                	test   %eax,%eax
    1d4c:	0f 84 8f 00 00 00    	je     1de1 <request_address+0xc1>
    1d52:	85 db                	test   %ebx,%ebx
    1d54:	74 6f                	je     1dc5 <request_address+0xa5>
    1d56:	b9 22 8f 02 00       	mov    $0x28f22,%ecx
    1d5b:	80 7d e7 00          	cmpb   $0x0,-0x19(%ebp)
    1d5f:	74 05                	je     1d66 <request_address+0x46>
    1d61:	b9 1e 8f 02 00       	mov    $0x28f1e,%ecx
    1d66:	0f bf 33             	movswl (%ebx),%esi
    1d69:	89 3c 24             	mov    %edi,(%esp)
    1d6c:	89 55 e0             	mov    %edx,-0x20(%ebp)
    1d6f:	89 4d dc             	mov    %ecx,-0x24(%ebp)
    1d72:	e8 39 21 00 00       	call   3eb0 <usb_str_speed>
    1d77:	8b 4d dc             	mov    -0x24(%ebp),%ecx
    1d7a:	89 74 24 10          	mov    %esi,0x10(%esp)
    1d7e:	89 44 24 0c          	mov    %eax,0xc(%esp)
    1d82:	89 4c 24 14          	mov    %ecx,0x14(%esp)
    1d86:	c7 44 24 08 a0 8f 02 	movl   $0x28fa0,0x8(%esp)
    1d8d:	00 
    1d8e:	c7 44 24 04 04 00 00 	movl   $0x4,0x4(%esp)
    1d95:	00 
    1d96:	c7 04 24 ff ff ff ff 	movl   $0xffffffff,(%esp)
    1d9d:	e8 6e 2b 01 00       	call   14910 <log_msg>
    1da2:	8a 45 e7             	mov    -0x19(%ebp),%al
    1da5:	8b 55 e0             	mov    -0x20(%ebp),%edx
    1da8:	25 ff 00 00 00       	and    $0xff,%eax
    1dad:	89 7d 14             	mov    %edi,0x14(%ebp)
    1db0:	89 5d 0c             	mov    %ebx,0xc(%ebp)
    1db3:	89 45 10             	mov    %eax,0x10(%ebp)
    1db6:	89 55 08             	mov    %edx,0x8(%ebp)
    1db9:	83 c4 3c             	add    $0x3c,%esp
    1dbc:	5b                   	pop    %ebx
    1dbd:	5e                   	pop    %esi
    1dbe:	5f                   	pop    %edi
    1dbf:	5d                   	pop    %ebp
    1dc0:	e9 cb 09 00 00       	jmp    2790 <usb_device_manager_request_address>
    1dc5:	c7 44 24 08 a1 00 00 	movl   $0xa1,0x8(%esp)
    1dcc:	00 
    1dcd:	c7 44 24 04 0a 8f 02 	movl   $0x28f0a,0x4(%esp)
    1dd4:	00 
    1dd5:	c7 04 24 90 97 02 00 	movl   $0x29790,(%esp)
    1ddc:	e8 2f 24 02 00       	call   24210 <assert_abort>
    1de1:	c7 44 24 08 a0 00 00 	movl   $0xa0,0x8(%esp)
    1de8:	00 
    1de9:	c7 44 24 04 0a 8f 02 	movl   $0x28f0a,0x4(%esp)
    1df0:	00 
    1df1:	c7 04 24 1a 8f 02 00 	movl   $0x28f1a,(%esp)
    1df8:	e8 13 24 02 00       	call   24210 <assert_abort>
    1dfd:	c7 44 24 08 9e 00 00 	movl   $0x9e,0x8(%esp)
    1e04:	00 
    1e05:	c7 44 24 04 0a 8f 02 	movl   $0x28f0a,0x4(%esp)
    1e0c:	00 
    1e0d:	c7 04 24 16 8f 02 00 	movl   $0x28f16,(%esp)
    1e14:	e8 f7 23 02 00       	call   24210 <assert_abort>
    1e19:	8d b4 26 00 00 00 00 	lea    0x0(%esi,%eiz,1),%esi

00001e20 <unregister_helper>:
    1e20:	55                   	push   %ebp
    1e21:	89 e5                	mov    %esp,%ebp
    1e23:	83 ec 18             	sub    $0x18,%esp
    1e26:	8b 55 08             	mov    0x8(%ebp),%edx
    1e29:	8b 45 0c             	mov    0xc(%ebp),%eax
    1e2c:	85 d2                	test   %edx,%edx
    1e2e:	74 36                	je     1e66 <unregister_helper+0x46>
    1e30:	85 c0                	test   %eax,%eax
    1e32:	74 16                	je     1e4a <unregister_helper+0x2a>
    1e34:	8b 88 88 06 00 00    	mov    0x688(%eax),%ecx
    1e3a:	85 c9                	test   %ecx,%ecx
    1e3c:	74 0a                	je     1e48 <unregister_helper+0x28>
    1e3e:	89 55 0c             	mov    %edx,0xc(%ebp)
    1e41:	89 45 08             	mov    %eax,0x8(%ebp)
    1e44:	c9                   	leave  
    1e45:	ff e1                	jmp    *%ecx
    1e47:	90                   	nop
    1e48:	c9                   	leave  
    1e49:	c3                   	ret    
    1e4a:	c7 44 24 08 7e 00 00 	movl   $0x7e,0x8(%esp)
    1e51:	00 
    1e52:	c7 44 24 04 0a 8f 02 	movl   $0x28f0a,0x4(%esp)
    1e59:	00 
    1e5a:	c7 04 24 1a 8f 02 00 	movl   $0x28f1a,(%esp)
    1e61:	e8 aa 23 02 00       	call   24210 <assert_abort>
    1e66:	c7 44 24 08 7d 00 00 	movl   $0x7d,0x8(%esp)
    1e6d:	00 
    1e6e:	c7 44 24 04 0a 8f 02 	movl   $0x28f0a,0x4(%esp)
    1e75:	00 
    1e76:	c7 04 24 da a9 02 00 	movl   $0x2a9da,(%esp)
    1e7d:	e8 8e 23 02 00       	call   24210 <assert_abort>
    1e82:	8d b4 26 00 00 00 00 	lea    0x0(%esi,%eiz,1),%esi
    1e89:	8d bc 27 00 00 00 00 	lea    0x0(%edi,%eiz,1),%edi

00001e90 <register_helper>:
    1e90:	55                   	push   %ebp
    1e91:	89 e5                	mov    %esp,%ebp
    1e93:	83 ec 18             	sub    $0x18,%esp
    1e96:	8b 55 08             	mov    0x8(%ebp),%edx
    1e99:	8b 45 0c             	mov    0xc(%ebp),%eax
    1e9c:	85 d2                	test   %edx,%edx
    1e9e:	74 38                	je     1ed8 <register_helper+0x48>
    1ea0:	85 c0                	test   %eax,%eax
    1ea2:	74 18                	je     1ebc <register_helper+0x2c>
    1ea4:	8b 88 84 06 00 00    	mov    0x684(%eax),%ecx
    1eaa:	85 c9                	test   %ecx,%ecx
    1eac:	74 0a                	je     1eb8 <register_helper+0x28>
    1eae:	89 55 0c             	mov    %edx,0xc(%ebp)
    1eb1:	89 45 08             	mov    %eax,0x8(%ebp)
    1eb4:	c9                   	leave  
    1eb5:	ff e1                	jmp    *%ecx
    1eb7:	90                   	nop
    1eb8:	31 c0                	xor    %eax,%eax
    1eba:	c9                   	leave  
    1ebb:	c3                   	ret    
    1ebc:	c7 44 24 08 70 00 00 	movl   $0x70,0x8(%esp)
    1ec3:	00 
    1ec4:	c7 44 24 04 0a 8f 02 	movl   $0x28f0a,0x4(%esp)
    1ecb:	00 
    1ecc:	c7 04 24 1a 8f 02 00 	movl   $0x28f1a,(%esp)
    1ed3:	e8 38 23 02 00       	call   24210 <assert_abort>
    1ed8:	c7 44 24 08 6f 00 00 	movl   $0x6f,0x8(%esp)
    1edf:	00 
    1ee0:	c7 44 24 04 0a 8f 02 	movl   $0x28f0a,0x4(%esp)
    1ee7:	00 
    1ee8:	c7 04 24 da a9 02 00 	movl   $0x2a9da,(%esp)
    1eef:	e8 1c 23 02 00       	call   24210 <assert_abort>
    1ef4:	8d b6 00 00 00 00    	lea    0x0(%esi),%esi
    1efa:	8d bf 00 00 00 00    	lea    0x0(%edi),%edi

00001f00 <usb_read>:
    1f00:	55                   	push   %ebp
    1f01:	89 e5                	mov    %esp,%ebp
    1f03:	57                   	push   %edi
    1f04:	56                   	push   %esi
    1f05:	53                   	push   %ebx
    1f06:	83 ec 4c             	sub    $0x4c,%esp
    1f09:	8b 55 14             	mov    0x14(%ebp),%edx
    1f0c:	8b 7d 0c             	mov    0xc(%ebp),%edi
    1f0f:	8b 45 10             	mov    0x10(%ebp),%eax
    1f12:	89 55 e4             	mov    %edx,-0x1c(%ebp)
    1f15:	8b 55 08             	mov    0x8(%ebp),%edx
    1f18:	89 fe                	mov    %edi,%esi
    1f1a:	c1 ef 10             	shr    $0x10,%edi
    1f1d:	89 45 e0             	mov    %eax,-0x20(%ebp)
    1f20:	85 d2                	test   %edx,%edx
    1f22:	0f 84 11 02 00 00    	je     2139 <usb_read+0x239>
    1f28:	8b 55 08             	mov    0x8(%ebp),%edx
    1f2b:	89 14 24             	mov    %edx,(%esp)
    1f2e:	e8 5d 2b 00 00       	call   4a90 <ddf_fun_data_get>
    1f33:	89 c3                	mov    %eax,%ebx
    1f35:	85 c0                	test   %eax,%eax
    1f37:	0f 84 e0 01 00 00    	je     211d <usb_read+0x21d>
    1f3d:	0f bf d6             	movswl %si,%edx
    1f40:	8d 80 24 06 00 00    	lea    0x624(%eax),%eax
    1f46:	89 54 24 04          	mov    %edx,0x4(%esp)
    1f4a:	0f bf ff             	movswl %di,%edi
    1f4d:	c7 44 24 0c 00 00 00 	movl   $0x0,0xc(%esp)
    1f54:	00 
    1f55:	89 7c 24 08          	mov    %edi,0x8(%esp)
    1f59:	89 04 24             	mov    %eax,(%esp)
    1f5c:	89 55 dc             	mov    %edx,-0x24(%ebp)
    1f5f:	e8 dc 12 00 00       	call   3240 <usb_endpoint_manager_find_ep>
    1f64:	8b 55 dc             	mov    -0x24(%ebp),%edx
    1f67:	89 c6                	mov    %eax,%esi
    1f69:	85 c0                	test   %eax,%eax
    1f6b:	0f 84 52 01 00 00    	je     20c3 <usb_read+0x1c3>
    1f71:	8b 40 18             	mov    0x18(%eax),%eax
    1f74:	89 54 24 10          	mov    %edx,0x10(%esp)
    1f78:	89 44 24 1c          	mov    %eax,0x1c(%esp)
    1f7c:	8b 45 1c             	mov    0x1c(%ebp),%eax
    1f7f:	89 44 24 18          	mov    %eax,0x18(%esp)
    1f83:	89 7c 24 14          	mov    %edi,0x14(%esp)
    1f87:	c7 44 24 0c 25 8f 02 	movl   $0x28f25,0xc(%esp)
    1f8e:	00 
    1f8f:	c7 44 24 08 2a 8f 02 	movl   $0x28f2a,0x8(%esp)
    1f96:	00 
    1f97:	c7 44 24 04 05 00 00 	movl   $0x5,0x4(%esp)
    1f9e:	00 
    1f9f:	c7 04 24 ff ff ff ff 	movl   $0xffffffff,(%esp)
    1fa6:	e8 65 29 01 00       	call   14910 <log_msg>
    1fab:	8b 46 18             	mov    0x18(%esi),%eax
    1fae:	8b 55 1c             	mov    0x1c(%ebp),%edx
    1fb1:	89 44 24 0c          	mov    %eax,0xc(%esp)
    1fb5:	89 54 24 08          	mov    %edx,0x8(%esp)
    1fb9:	8b 46 10             	mov    0x10(%esi),%eax
    1fbc:	89 44 24 04          	mov    %eax,0x4(%esp)
    1fc0:	8b 46 14             	mov    0x14(%esi),%eax
    1fc3:	89 04 24             	mov    %eax,(%esp)
    1fc6:	e8 a5 0d 00 00       	call   2d70 <bandwidth_count_usb11>
    1fcb:	8b 56 1c             	mov    0x1c(%esi),%edx
    1fce:	39 d0                	cmp    %edx,%eax
    1fd0:	0f 87 aa 00 00 00    	ja     2080 <usb_read+0x180>
    1fd6:	8b 83 80 06 00 00    	mov    0x680(%ebx),%eax
    1fdc:	85 c0                	test   %eax,%eax
    1fde:	0f 84 13 01 00 00    	je     20f7 <usb_read+0x1f7>
    1fe4:	8b 45 24             	mov    0x24(%ebp),%eax
    1fe7:	8b 55 08             	mov    0x8(%ebp),%edx
    1fea:	89 44 24 1c          	mov    %eax,0x1c(%esp)
    1fee:	8b 45 20             	mov    0x20(%ebp),%eax
    1ff1:	89 54 24 20          	mov    %edx,0x20(%esp)
    1ff5:	89 44 24 14          	mov    %eax,0x14(%esp)
    1ff9:	8b 55 e4             	mov    -0x1c(%ebp),%edx
    1ffc:	8b 45 e0             	mov    -0x20(%ebp),%eax
    1fff:	89 44 24 0c          	mov    %eax,0xc(%esp)
    2003:	89 54 24 10          	mov    %edx,0x10(%esp)
    2007:	8b 45 18             	mov    0x18(%ebp),%eax
    200a:	8b 55 1c             	mov    0x1c(%ebp),%edx
    200d:	89 34 24             	mov    %esi,(%esp)
    2010:	c7 44 24 28 00 00 00 	movl   $0x0,0x28(%esp)
    2017:	00 
    2018:	c7 44 24 24 00 00 00 	movl   $0x0,0x24(%esp)
    201f:	00 
    2020:	c7 44 24 18 00 00 00 	movl   $0x0,0x18(%esp)
    2027:	00 
    2028:	89 54 24 08          	mov    %edx,0x8(%esp)
    202c:	89 44 24 04          	mov    %eax,0x4(%esp)
    2030:	e8 9b 16 00 00       	call   36d0 <usb_transfer_batch_create>
    2035:	89 c6                	mov    %eax,%esi
    2037:	85 c0                	test   %eax,%eax
    2039:	74 3d                	je     2078 <usb_read+0x178>
    203b:	89 44 24 04          	mov    %eax,0x4(%esp)
    203f:	89 1c 24             	mov    %ebx,(%esp)
    2042:	ff 93 80 06 00 00    	call   *0x680(%ebx)
    2048:	31 d2                	xor    %edx,%edx
    204a:	85 c0                	test   %eax,%eax
    204c:	75 0a                	jne    2058 <usb_read+0x158>
    204e:	83 c4 4c             	add    $0x4c,%esp
    2051:	89 d0                	mov    %edx,%eax
    2053:	5b                   	pop    %ebx
    2054:	5e                   	pop    %esi
    2055:	5f                   	pop    %edi
    2056:	5d                   	pop    %ebp
    2057:	c3                   	ret    
    2058:	89 34 24             	mov    %esi,(%esp)
    205b:	89 45 dc             	mov    %eax,-0x24(%ebp)
    205e:	e8 6d 17 00 00       	call   37d0 <usb_transfer_batch_destroy>
    2063:	8b 45 dc             	mov    -0x24(%ebp),%eax
    2066:	83 c4 4c             	add    $0x4c,%esp
    2069:	89 c2                	mov    %eax,%edx
    206b:	89 d0                	mov    %edx,%eax
    206d:	5b                   	pop    %ebx
    206e:	5e                   	pop    %esi
    206f:	5f                   	pop    %edi
    2070:	5d                   	pop    %ebp
    2071:	c3                   	ret    
    2072:	8d b6 00 00 00 00    	lea    0x0(%esi),%esi
    2078:	ba fe ff ff ff       	mov    $0xfffffffe,%edx
    207d:	eb cf                	jmp    204e <usb_read+0x14e>
    207f:	90                   	nop
    2080:	89 54 24 1c          	mov    %edx,0x1c(%esp)
    2084:	89 44 24 18          	mov    %eax,0x18(%esp)
    2088:	c7 44 24 14 25 8f 02 	movl   $0x28f25,0x14(%esp)
    208f:	00 
    2090:	0f bf 46 0a          	movswl 0xa(%esi),%eax
    2094:	89 44 24 10          	mov    %eax,0x10(%esp)
    2098:	0f bf 46 08          	movswl 0x8(%esi),%eax
    209c:	c7 44 24 08 00 90 02 	movl   $0x29000,0x8(%esp)
    20a3:	00 
    20a4:	89 44 24 0c          	mov    %eax,0xc(%esp)
    20a8:	c7 44 24 04 01 00 00 	movl   $0x1,0x4(%esp)
    20af:	00 
    20b0:	c7 04 24 ff ff ff ff 	movl   $0xffffffff,(%esp)
    20b7:	e8 54 28 01 00       	call   14910 <log_msg>
    20bc:	ba fd fe ff ff       	mov    $0xfffffefd,%edx
    20c1:	eb 8b                	jmp    204e <usb_read+0x14e>
    20c3:	89 54 24 0c          	mov    %edx,0xc(%esp)
    20c7:	c7 44 24 14 25 8f 02 	movl   $0x28f25,0x14(%esp)
    20ce:	00 
    20cf:	89 7c 24 10          	mov    %edi,0x10(%esp)
    20d3:	c7 44 24 08 d8 8f 02 	movl   $0x28fd8,0x8(%esp)
    20da:	00 
    20db:	c7 44 24 04 01 00 00 	movl   $0x1,0x4(%esp)
    20e2:	00 
    20e3:	c7 04 24 ff ff ff ff 	movl   $0xffffffff,(%esp)
    20ea:	e8 21 28 01 00       	call   14910 <log_msg>
    20ef:	83 ca ff             	or     $0xffffffff,%edx
    20f2:	e9 57 ff ff ff       	jmp    204e <usb_read+0x14e>
    20f7:	c7 44 24 08 3c 90 02 	movl   $0x2903c,0x8(%esp)
    20fe:	00 
    20ff:	c7 44 24 04 01 00 00 	movl   $0x1,0x4(%esp)
    2106:	00 
    2107:	c7 04 24 ff ff ff ff 	movl   $0xffffffff,(%esp)
    210e:	e8 fd 27 01 00       	call   14910 <log_msg>
    2113:	ba f5 ff ff ff       	mov    $0xfffffff5,%edx
    2118:	e9 31 ff ff ff       	jmp    204e <usb_read+0x14e>
    211d:	c7 44 24 08 3d 00 00 	movl   $0x3d,0x8(%esp)
    2124:	00 
    2125:	c7 44 24 04 0a 8f 02 	movl   $0x28f0a,0x4(%esp)
    212c:	00 
    212d:	c7 04 24 1a 8f 02 00 	movl   $0x28f1a,(%esp)
    2134:	e8 d7 20 02 00       	call   24210 <assert_abort>
    2139:	c7 44 24 08 3b 00 00 	movl   $0x3b,0x8(%esp)
    2140:	00 
    2141:	c7 44 24 04 0a 8f 02 	movl   $0x28f0a,0x4(%esp)
    2148:	00 
    2149:	c7 04 24 16 8f 02 00 	movl   $0x28f16,(%esp)
    2150:	e8 bb 20 02 00       	call   24210 <assert_abort>
    2155:	8d 74 26 00          	lea    0x0(%esi,%eiz,1),%esi
    2159:	8d bc 27 00 00 00 00 	lea    0x0(%edi,%eiz,1),%edi

00002160 <unregister_helper_warn>:
    2160:	55                   	push   %ebp
    2161:	89 e5                	mov    %esp,%ebp
    2163:	56                   	push   %esi
    2164:	53                   	push   %ebx
    2165:	83 ec 20             	sub    $0x20,%esp
    2168:	8b 5d 08             	mov    0x8(%ebp),%ebx
    216b:	8b 75 0c             	mov    0xc(%ebp),%esi
    216e:	85 db                	test   %ebx,%ebx
    2170:	0f 84 7d 00 00 00    	je     21f3 <unregister_helper_warn+0x93>
    2176:	85 f6                	test   %esi,%esi
    2178:	74 5d                	je     21d7 <unregister_helper_warn+0x77>
    217a:	8b 43 0c             	mov    0xc(%ebx),%eax
    217d:	89 04 24             	mov    %eax,(%esp)
    2180:	e8 0b 1d 00 00       	call   3e90 <usb_str_direction>
    2185:	89 44 24 14          	mov    %eax,0x14(%esp)
    2189:	0f bf 43 0a          	movswl 0xa(%ebx),%eax
    218d:	89 44 24 10          	mov    %eax,0x10(%esp)
    2191:	0f bf 43 08          	movswl 0x8(%ebx),%eax
    2195:	c7 44 24 08 60 90 02 	movl   $0x29060,0x8(%esp)
    219c:	00 
    219d:	89 44 24 0c          	mov    %eax,0xc(%esp)
    21a1:	c7 44 24 04 02 00 00 	movl   $0x2,0x4(%esp)
    21a8:	00 
    21a9:	c7 04 24 ff ff ff ff 	movl   $0xffffffff,(%esp)
    21b0:	e8 5b 27 01 00       	call   14910 <log_msg>
    21b5:	8b 86 88 06 00 00    	mov    0x688(%esi),%eax
    21bb:	85 c0                	test   %eax,%eax
    21bd:	74 11                	je     21d0 <unregister_helper_warn+0x70>
    21bf:	89 5d 0c             	mov    %ebx,0xc(%ebp)
    21c2:	89 75 08             	mov    %esi,0x8(%ebp)
    21c5:	83 c4 20             	add    $0x20,%esp
    21c8:	5b                   	pop    %ebx
    21c9:	5e                   	pop    %esi
    21ca:	5d                   	pop    %ebp
    21cb:	ff e0                	jmp    *%eax
    21cd:	8d 76 00             	lea    0x0(%esi),%esi
    21d0:	83 c4 20             	add    $0x20,%esp
    21d3:	5b                   	pop    %ebx
    21d4:	5e                   	pop    %esi
    21d5:	5d                   	pop    %ebp
    21d6:	c3                   	ret    
    21d7:	c7 44 24 08 8b 00 00 	movl   $0x8b,0x8(%esp)
    21de:	00 
    21df:	c7 44 24 04 0a 8f 02 	movl   $0x28f0a,0x4(%esp)
    21e6:	00 
    21e7:	c7 04 24 1a 8f 02 00 	movl   $0x28f1a,(%esp)
    21ee:	e8 1d 20 02 00       	call   24210 <assert_abort>
    21f3:	c7 44 24 08 8a 00 00 	movl   $0x8a,0x8(%esp)
    21fa:	00 
    21fb:	c7 44 24 04 0a 8f 02 	movl   $0x28f0a,0x4(%esp)
    2202:	00 
    2203:	c7 04 24 da a9 02 00 	movl   $0x2a9da,(%esp)
    220a:	e8 01 20 02 00       	call   24210 <assert_abort>
    220f:	90                   	nop

00002210 <unregister_endpoint>:
    2210:	55                   	push   %ebp
    2211:	89 e5                	mov    %esp,%ebp
    2213:	57                   	push   %edi
    2214:	56                   	push   %esi
    2215:	53                   	push   %ebx
    2216:	83 ec 2c             	sub    $0x2c,%esp
    2219:	8b 45 08             	mov    0x8(%ebp),%eax
    221c:	0f bf 75 0c          	movswl 0xc(%ebp),%esi
    2220:	0f bf 7d 10          	movswl 0x10(%ebp),%edi
    2224:	85 c0                	test   %eax,%eax
    2226:	74 76                	je     229e <unregister_endpoint+0x8e>
    2228:	89 04 24             	mov    %eax,(%esp)
    222b:	e8 60 28 00 00       	call   4a90 <ddf_fun_data_get>
    2230:	89 c3                	mov    %eax,%ebx
    2232:	85 c0                	test   %eax,%eax
    2234:	0f 84 80 00 00 00    	je     22ba <unregister_endpoint+0xaa>
    223a:	8b 55 14             	mov    0x14(%ebp),%edx
    223d:	89 14 24             	mov    %edx,(%esp)
    2240:	e8 4b 1c 00 00       	call   3e90 <usb_str_direction>
    2245:	89 7c 24 10          	mov    %edi,0x10(%esp)
    2249:	89 44 24 14          	mov    %eax,0x14(%esp)
    224d:	89 74 24 0c          	mov    %esi,0xc(%esp)
    2251:	c7 44 24 08 90 90 02 	movl   $0x29090,0x8(%esp)
    2258:	00 
    2259:	c7 44 24 04 04 00 00 	movl   $0x4,0x4(%esp)
    2260:	00 
    2261:	c7 04 24 ff ff ff ff 	movl   $0xffffffff,(%esp)
    2268:	e8 a3 26 01 00       	call   14910 <log_msg>
    226d:	8b 55 14             	mov    0x14(%ebp),%edx
    2270:	89 54 24 0c          	mov    %edx,0xc(%esp)
    2274:	8d 93 24 06 00 00    	lea    0x624(%ebx),%edx
    227a:	89 5c 24 14          	mov    %ebx,0x14(%esp)
    227e:	89 7c 24 08          	mov    %edi,0x8(%esp)
    2282:	89 74 24 04          	mov    %esi,0x4(%esp)
    2286:	c7 44 24 10 20 1e 00 	movl   $0x1e20,0x10(%esp)
    228d:	00 
    228e:	89 14 24             	mov    %edx,(%esp)
    2291:	e8 fa 11 00 00       	call   3490 <usb_endpoint_manager_remove_ep>
    2296:	83 c4 2c             	add    $0x2c,%esp
    2299:	5b                   	pop    %ebx
    229a:	5e                   	pop    %esi
    229b:	5f                   	pop    %edi
    229c:	5d                   	pop    %ebp
    229d:	c3                   	ret    
    229e:	c7 44 24 08 0e 01 00 	movl   $0x10e,0x8(%esp)
    22a5:	00 
    22a6:	c7 44 24 04 0a 8f 02 	movl   $0x28f0a,0x4(%esp)
    22ad:	00 
    22ae:	c7 04 24 16 8f 02 00 	movl   $0x28f16,(%esp)
    22b5:	e8 56 1f 02 00       	call   24210 <assert_abort>
    22ba:	c7 44 24 08 10 01 00 	movl   $0x110,0x8(%esp)
    22c1:	00 
    22c2:	c7 44 24 04 0a 8f 02 	movl   $0x28f0a,0x4(%esp)
    22c9:	00 
    22ca:	c7 04 24 1a 8f 02 00 	movl   $0x28f1a,(%esp)
    22d1:	e8 3a 1f 02 00       	call   24210 <assert_abort>
    22d6:	8d 76 00             	lea    0x0(%esi),%esi
    22d9:	8d bc 27 00 00 00 00 	lea    0x0(%edi,%eiz,1),%edi

000022e0 <find_by_address>:
    22e0:	55                   	push   %ebp
    22e1:	89 e5                	mov    %esp,%ebp
    22e3:	53                   	push   %ebx
    22e4:	83 ec 14             	sub    $0x14,%esp
    22e7:	8b 45 08             	mov    0x8(%ebp),%eax
    22ea:	0f bf 5d 0c          	movswl 0xc(%ebp),%ebx
    22ee:	85 c0                	test   %eax,%eax
    22f0:	74 2d                	je     231f <find_by_address+0x3f>
    22f2:	89 04 24             	mov    %eax,(%esp)
    22f5:	e8 96 27 00 00       	call   4a90 <ddf_fun_data_get>
    22fa:	85 c0                	test   %eax,%eax
    22fc:	74 3d                	je     233b <find_by_address+0x5b>
    22fe:	8b 55 10             	mov    0x10(%ebp),%edx
    2301:	89 5c 24 04          	mov    %ebx,0x4(%esp)
    2305:	c7 44 24 0c 00 00 00 	movl   $0x0,0xc(%esp)
    230c:	00 
    230d:	89 54 24 08          	mov    %edx,0x8(%esp)
    2311:	89 04 24             	mov    %eax,(%esp)
    2314:	e8 a7 08 00 00       	call   2bc0 <usb_device_manager_get_info_by_address>
    2319:	83 c4 14             	add    $0x14,%esp
    231c:	5b                   	pop    %ebx
    231d:	5d                   	pop    %ebp
    231e:	c3                   	ret    
    231f:	c7 44 24 08 c6 00 00 	movl   $0xc6,0x8(%esp)
    2326:	00 
    2327:	c7 44 24 04 0a 8f 02 	movl   $0x28f0a,0x4(%esp)
    232e:	00 
    232f:	c7 04 24 16 8f 02 00 	movl   $0x28f16,(%esp)
    2336:	e8 d5 1e 02 00       	call   24210 <assert_abort>
    233b:	c7 44 24 08 c8 00 00 	movl   $0xc8,0x8(%esp)
    2342:	00 
    2343:	c7 44 24 04 0a 8f 02 	movl   $0x28f0a,0x4(%esp)
    234a:	00 
    234b:	c7 04 24 1a 8f 02 00 	movl   $0x28f1a,(%esp)
    2352:	e8 b9 1e 02 00       	call   24210 <assert_abort>
    2357:	89 f6                	mov    %esi,%esi
    2359:	8d bc 27 00 00 00 00 	lea    0x0(%edi,%eiz,1),%edi

00002360 <release_address>:
    2360:	55                   	push   %ebp
    2361:	89 e5                	mov    %esp,%ebp
    2363:	56                   	push   %esi
    2364:	53                   	push   %ebx
    2365:	83 ec 10             	sub    $0x10,%esp
    2368:	8b 45 08             	mov    0x8(%ebp),%eax
    236b:	0f bf 75 0c          	movswl 0xc(%ebp),%esi
    236f:	85 c0                	test   %eax,%eax
    2371:	74 61                	je     23d4 <release_address+0x74>
    2373:	89 04 24             	mov    %eax,(%esp)
    2376:	e8 15 27 00 00       	call   4a90 <ddf_fun_data_get>
    237b:	89 c3                	mov    %eax,%ebx
    237d:	85 c0                	test   %eax,%eax
    237f:	74 6f                	je     23f0 <release_address+0x90>
    2381:	89 74 24 0c          	mov    %esi,0xc(%esp)
    2385:	c7 44 24 08 3e 8f 02 	movl   $0x28f3e,0x8(%esp)
    238c:	00 
    238d:	c7 44 24 04 04 00 00 	movl   $0x4,0x4(%esp)
    2394:	00 
    2395:	c7 04 24 ff ff ff ff 	movl   $0xffffffff,(%esp)
    239c:	e8 6f 25 01 00       	call   14910 <log_msg>
    23a1:	89 74 24 04          	mov    %esi,0x4(%esp)
    23a5:	89 1c 24             	mov    %ebx,(%esp)
    23a8:	e8 c3 06 00 00       	call   2a70 <usb_device_manager_release_address>
    23ad:	89 5c 24 0c          	mov    %ebx,0xc(%esp)
    23b1:	81 c3 24 06 00 00    	add    $0x624,%ebx
    23b7:	89 74 24 04          	mov    %esi,0x4(%esp)
    23bb:	89 1c 24             	mov    %ebx,(%esp)
    23be:	c7 44 24 08 60 21 00 	movl   $0x2160,0x8(%esp)
    23c5:	00 
    23c6:	e8 a5 11 00 00       	call   3570 <usb_endpoint_manager_remove_address>
    23cb:	83 c4 10             	add    $0x10,%esp
    23ce:	31 c0                	xor    %eax,%eax
    23d0:	5b                   	pop    %ebx
    23d1:	5e                   	pop    %esi
    23d2:	5d                   	pop    %ebp
    23d3:	c3                   	ret    
    23d4:	c7 44 24 08 d5 00 00 	movl   $0xd5,0x8(%esp)
    23db:	00 
    23dc:	c7 44 24 04 0a 8f 02 	movl   $0x28f0a,0x4(%esp)
    23e3:	00 
    23e4:	c7 04 24 16 8f 02 00 	movl   $0x28f16,(%esp)
    23eb:	e8 20 1e 02 00       	call   24210 <assert_abort>
    23f0:	c7 44 24 08 d7 00 00 	movl   $0xd7,0x8(%esp)
    23f7:	00 
    23f8:	c7 44 24 04 0a 8f 02 	movl   $0x28f0a,0x4(%esp)
    23ff:	00 
    2400:	c7 04 24 1a 8f 02 00 	movl   $0x28f1a,(%esp)
    2407:	e8 04 1e 02 00       	call   24210 <assert_abort>
    240c:	8d 74 26 00          	lea    0x0(%esi,%eiz,1),%esi

00002410 <bind_address>:
    2410:	55                   	push   %ebp
    2411:	89 e5                	mov    %esp,%ebp
    2413:	57                   	push   %edi
    2414:	56                   	push   %esi
    2415:	53                   	push   %ebx
    2416:	83 ec 2c             	sub    $0x2c,%esp
    2419:	8b 45 08             	mov    0x8(%ebp),%eax
    241c:	8b 5d 10             	mov    0x10(%ebp),%ebx
    241f:	0f bf 75 0c          	movswl 0xc(%ebp),%esi
    2423:	85 c0                	test   %eax,%eax
    2425:	74 47                	je     246e <bind_address+0x5e>
    2427:	89 04 24             	mov    %eax,(%esp)
    242a:	e8 61 26 00 00       	call   4a90 <ddf_fun_data_get>
    242f:	89 c7                	mov    %eax,%edi
    2431:	85 c0                	test   %eax,%eax
    2433:	74 55                	je     248a <bind_address+0x7a>
    2435:	89 5c 24 10          	mov    %ebx,0x10(%esp)
    2439:	89 74 24 0c          	mov    %esi,0xc(%esp)
    243d:	c7 44 24 08 53 8f 02 	movl   $0x28f53,0x8(%esp)
    2444:	00 
    2445:	c7 44 24 04 04 00 00 	movl   $0x4,0x4(%esp)
    244c:	00 
    244d:	c7 04 24 ff ff ff ff 	movl   $0xffffffff,(%esp)
    2454:	e8 b7 24 01 00       	call   14910 <log_msg>
    2459:	89 5d 10             	mov    %ebx,0x10(%ebp)
    245c:	89 75 0c             	mov    %esi,0xc(%ebp)
    245f:	89 7d 08             	mov    %edi,0x8(%ebp)
    2462:	83 c4 2c             	add    $0x2c,%esp
    2465:	5b                   	pop    %ebx
    2466:	5e                   	pop    %esi
    2467:	5f                   	pop    %edi
    2468:	5d                   	pop    %ebp
    2469:	e9 62 05 00 00       	jmp    29d0 <usb_device_manager_bind_address>
    246e:	c7 44 24 08 b3 00 00 	movl   $0xb3,0x8(%esp)
    2475:	00 
    2476:	c7 44 24 04 0a 8f 02 	movl   $0x28f0a,0x4(%esp)
    247d:	00 
    247e:	c7 04 24 16 8f 02 00 	movl   $0x28f16,(%esp)
    2485:	e8 86 1d 02 00       	call   24210 <assert_abort>
    248a:	c7 44 24 08 b5 00 00 	movl   $0xb5,0x8(%esp)
    2491:	00 
    2492:	c7 44 24 04 0a 8f 02 	movl   $0x28f0a,0x4(%esp)
    2499:	00 
    249a:	c7 04 24 1a 8f 02 00 	movl   $0x28f1a,(%esp)
    24a1:	e8 6a 1d 02 00       	call   24210 <assert_abort>
    24a6:	8d 76 00             	lea    0x0(%esi),%esi
    24a9:	8d bc 27 00 00 00 00 	lea    0x0(%edi,%eiz,1),%edi

000024b0 <usb_write>:
    24b0:	55                   	push   %ebp
    24b1:	89 e5                	mov    %esp,%ebp
    24b3:	57                   	push   %edi
    24b4:	56                   	push   %esi
    24b5:	53                   	push   %ebx
    24b6:	83 ec 4c             	sub    $0x4c,%esp
    24b9:	8b 7d 0c             	mov    0xc(%ebp),%edi
    24bc:	8b 45 10             	mov    0x10(%ebp),%eax
    24bf:	8b 55 14             	mov    0x14(%ebp),%edx
    24c2:	8b 5d 08             	mov    0x8(%ebp),%ebx
    24c5:	89 fe                	mov    %edi,%esi
    24c7:	89 45 e0             	mov    %eax,-0x20(%ebp)
    24ca:	c1 ef 10             	shr    $0x10,%edi
    24cd:	89 55 e4             	mov    %edx,-0x1c(%ebp)
    24d0:	85 db                	test   %ebx,%ebx
    24d2:	0f 84 11 02 00 00    	je     26e9 <usb_write+0x239>
    24d8:	8b 55 08             	mov    0x8(%ebp),%edx
    24db:	89 14 24             	mov    %edx,(%esp)
    24de:	e8 ad 25 00 00       	call   4a90 <ddf_fun_data_get>
    24e3:	89 c3                	mov    %eax,%ebx
    24e5:	85 c0                	test   %eax,%eax
    24e7:	0f 84 e0 01 00 00    	je     26cd <usb_write+0x21d>
    24ed:	0f bf d6             	movswl %si,%edx
    24f0:	8d 80 24 06 00 00    	lea    0x624(%eax),%eax
    24f6:	89 54 24 04          	mov    %edx,0x4(%esp)
    24fa:	0f bf ff             	movswl %di,%edi
    24fd:	c7 44 24 0c 01 00 00 	movl   $0x1,0xc(%esp)
    2504:	00 
    2505:	89 7c 24 08          	mov    %edi,0x8(%esp)
    2509:	89 04 24             	mov    %eax,(%esp)
    250c:	89 55 dc             	mov    %edx,-0x24(%ebp)
    250f:	e8 2c 0d 00 00       	call   3240 <usb_endpoint_manager_find_ep>
    2514:	8b 55 dc             	mov    -0x24(%ebp),%edx
    2517:	89 c6                	mov    %eax,%esi
    2519:	85 c0                	test   %eax,%eax
    251b:	0f 84 52 01 00 00    	je     2673 <usb_write+0x1c3>
    2521:	8b 40 18             	mov    0x18(%eax),%eax
    2524:	89 54 24 10          	mov    %edx,0x10(%esp)
    2528:	89 44 24 1c          	mov    %eax,0x1c(%esp)
    252c:	8b 45 1c             	mov    0x1c(%ebp),%eax
    252f:	89 44 24 18          	mov    %eax,0x18(%esp)
    2533:	89 7c 24 14          	mov    %edi,0x14(%esp)
    2537:	c7 44 24 0c 68 8f 02 	movl   $0x28f68,0xc(%esp)
    253e:	00 
    253f:	c7 44 24 08 2a 8f 02 	movl   $0x28f2a,0x8(%esp)
    2546:	00 
    2547:	c7 44 24 04 05 00 00 	movl   $0x5,0x4(%esp)
    254e:	00 
    254f:	c7 04 24 ff ff ff ff 	movl   $0xffffffff,(%esp)
    2556:	e8 b5 23 01 00       	call   14910 <log_msg>
    255b:	8b 46 18             	mov    0x18(%esi),%eax
    255e:	8b 55 1c             	mov    0x1c(%ebp),%edx
    2561:	89 44 24 0c          	mov    %eax,0xc(%esp)
    2565:	89 54 24 08          	mov    %edx,0x8(%esp)
    2569:	8b 46 10             	mov    0x10(%esi),%eax
    256c:	89 44 24 04          	mov    %eax,0x4(%esp)
    2570:	8b 46 14             	mov    0x14(%esi),%eax
    2573:	89 04 24             	mov    %eax,(%esp)
    2576:	e8 f5 07 00 00       	call   2d70 <bandwidth_count_usb11>
    257b:	8b 56 1c             	mov    0x1c(%esi),%edx
    257e:	39 d0                	cmp    %edx,%eax
    2580:	0f 87 aa 00 00 00    	ja     2630 <usb_write+0x180>
    2586:	8b 8b 80 06 00 00    	mov    0x680(%ebx),%ecx
    258c:	85 c9                	test   %ecx,%ecx
    258e:	0f 84 13 01 00 00    	je     26a7 <usb_write+0x1f7>
    2594:	8b 45 24             	mov    0x24(%ebp),%eax
    2597:	8b 55 08             	mov    0x8(%ebp),%edx
    259a:	89 44 24 1c          	mov    %eax,0x1c(%esp)
    259e:	8b 45 20             	mov    0x20(%ebp),%eax
    25a1:	89 54 24 20          	mov    %edx,0x20(%esp)
    25a5:	89 44 24 18          	mov    %eax,0x18(%esp)
    25a9:	8b 55 e4             	mov    -0x1c(%ebp),%edx
    25ac:	8b 45 e0             	mov    -0x20(%ebp),%eax
    25af:	89 44 24 0c          	mov    %eax,0xc(%esp)
    25b3:	89 54 24 10          	mov    %edx,0x10(%esp)
    25b7:	8b 45 18             	mov    0x18(%ebp),%eax
    25ba:	8b 55 1c             	mov    0x1c(%ebp),%edx
    25bd:	89 34 24             	mov    %esi,(%esp)
    25c0:	c7 44 24 28 00 00 00 	movl   $0x0,0x28(%esp)
    25c7:	00 
    25c8:	c7 44 24 24 00 00 00 	movl   $0x0,0x24(%esp)
    25cf:	00 
    25d0:	c7 44 24 14 00 00 00 	movl   $0x0,0x14(%esp)
    25d7:	00 
    25d8:	89 54 24 08          	mov    %edx,0x8(%esp)
    25dc:	89 44 24 04          	mov    %eax,0x4(%esp)
    25e0:	e8 eb 10 00 00       	call   36d0 <usb_transfer_batch_create>
    25e5:	89 c6                	mov    %eax,%esi
    25e7:	85 c0                	test   %eax,%eax
    25e9:	74 3d                	je     2628 <usb_write+0x178>
    25eb:	89 44 24 04          	mov    %eax,0x4(%esp)
    25ef:	89 1c 24             	mov    %ebx,(%esp)
    25f2:	ff 93 80 06 00 00    	call   *0x680(%ebx)
    25f8:	31 d2                	xor    %edx,%edx
    25fa:	85 c0                	test   %eax,%eax
    25fc:	75 0a                	jne    2608 <usb_write+0x158>
    25fe:	83 c4 4c             	add    $0x4c,%esp
    2601:	89 d0                	mov    %edx,%eax
    2603:	5b                   	pop    %ebx
    2604:	5e                   	pop    %esi
    2605:	5f                   	pop    %edi
    2606:	5d                   	pop    %ebp
    2607:	c3                   	ret    
    2608:	89 34 24             	mov    %esi,(%esp)
    260b:	89 45 dc             	mov    %eax,-0x24(%ebp)
    260e:	e8 bd 11 00 00       	call   37d0 <usb_transfer_batch_destroy>
    2613:	8b 45 dc             	mov    -0x24(%ebp),%eax
    2616:	83 c4 4c             	add    $0x4c,%esp
    2619:	89 c2                	mov    %eax,%edx
    261b:	89 d0                	mov    %edx,%eax
    261d:	5b                   	pop    %ebx
    261e:	5e                   	pop    %esi
    261f:	5f                   	pop    %edi
    2620:	5d                   	pop    %ebp
    2621:	c3                   	ret    
    2622:	8d b6 00 00 00 00    	lea    0x0(%esi),%esi
    2628:	ba fe ff ff ff       	mov    $0xfffffffe,%edx
    262d:	eb cf                	jmp    25fe <usb_write+0x14e>
    262f:	90                   	nop
    2630:	89 54 24 1c          	mov    %edx,0x1c(%esp)
    2634:	89 44 24 18          	mov    %eax,0x18(%esp)
    2638:	c7 44 24 14 68 8f 02 	movl   $0x28f68,0x14(%esp)
    263f:	00 
    2640:	0f bf 46 0a          	movswl 0xa(%esi),%eax
    2644:	89 44 24 10          	mov    %eax,0x10(%esp)
    2648:	0f bf 46 08          	movswl 0x8(%esi),%eax
    264c:	c7 44 24 08 00 90 02 	movl   $0x29000,0x8(%esp)
    2653:	00 
    2654:	89 44 24 0c          	mov    %eax,0xc(%esp)
    2658:	c7 44 24 04 01 00 00 	movl   $0x1,0x4(%esp)
    265f:	00 
    2660:	c7 04 24 ff ff ff ff 	movl   $0xffffffff,(%esp)
    2667:	e8 a4 22 01 00       	call   14910 <log_msg>
    266c:	ba fd fe ff ff       	mov    $0xfffffefd,%edx
    2671:	eb 8b                	jmp    25fe <usb_write+0x14e>
    2673:	89 54 24 0c          	mov    %edx,0xc(%esp)
    2677:	c7 44 24 14 68 8f 02 	movl   $0x28f68,0x14(%esp)
    267e:	00 
    267f:	89 7c 24 10          	mov    %edi,0x10(%esp)
    2683:	c7 44 24 08 d8 8f 02 	movl   $0x28fd8,0x8(%esp)
    268a:	00 
    268b:	c7 44 24 04 01 00 00 	movl   $0x1,0x4(%esp)
    2692:	00 
    2693:	c7 04 24 ff ff ff ff 	movl   $0xffffffff,(%esp)
    269a:	e8 71 22 01 00       	call   14910 <log_msg>
    269f:	83 ca ff             	or     $0xffffffff,%edx
    26a2:	e9 57 ff ff ff       	jmp    25fe <usb_write+0x14e>
    26a7:	c7 44 24 08 3c 90 02 	movl   $0x2903c,0x8(%esp)
    26ae:	00 
    26af:	c7 44 24 04 01 00 00 	movl   $0x1,0x4(%esp)
    26b6:	00 
    26b7:	c7 04 24 ff ff ff ff 	movl   $0xffffffff,(%esp)
    26be:	e8 4d 22 01 00       	call   14910 <log_msg>
    26c3:	ba f5 ff ff ff       	mov    $0xfffffff5,%edx
    26c8:	e9 31 ff ff ff       	jmp    25fe <usb_write+0x14e>
    26cd:	c7 44 24 08 3d 00 00 	movl   $0x3d,0x8(%esp)
    26d4:	00 
    26d5:	c7 44 24 04 0a 8f 02 	movl   $0x28f0a,0x4(%esp)
    26dc:	00 
    26dd:	c7 04 24 1a 8f 02 00 	movl   $0x28f1a,(%esp)
    26e4:	e8 27 1b 02 00       	call   24210 <assert_abort>
    26e9:	c7 44 24 08 3b 00 00 	movl   $0x3b,0x8(%esp)
    26f0:	00 
    26f1:	c7 44 24 04 0a 8f 02 	movl   $0x28f0a,0x4(%esp)
    26f8:	00 
    26f9:	c7 04 24 16 8f 02 00 	movl   $0x28f16,(%esp)
    2700:	e8 0b 1b 02 00       	call   24210 <assert_abort>
    2705:	66 90                	xchg   %ax,%ax
    2707:	66 90                	xchg   %ax,%ax
    2709:	66 90                	xchg   %ax,%ax
    270b:	66 90                	xchg   %ax,%ax
    270d:	66 90                	xchg   %ax,%ax
    270f:	90                   	nop

00002710 <usb_device_manager_init>:
    2710:	55                   	push   %ebp
    2711:	89 e5                	mov    %esp,%ebp
    2713:	53                   	push   %ebx
    2714:	83 ec 14             	sub    $0x14,%esp
    2717:	8b 4d 08             	mov    0x8(%ebp),%ecx
    271a:	8b 5d 0c             	mov    0xc(%ebp),%ebx
    271d:	85 c9                	test   %ecx,%ecx
    271f:	74 46                	je     2767 <usb_device_manager_init+0x57>
    2721:	8d 41 04             	lea    0x4(%ecx),%eax
    2724:	31 d2                	xor    %edx,%edx
    2726:	66 90                	xchg   %ax,%ax
    2728:	42                   	inc    %edx
    2729:	c6 00 00             	movb   $0x0,(%eax)
    272c:	c7 40 04 00 00 00 00 	movl   $0x0,0x4(%eax)
    2733:	c7 40 fc 03 00 00 00 	movl   $0x3,-0x4(%eax)
    273a:	83 c0 0c             	add    $0xc,%eax
    273d:	81 fa 81 00 00 00    	cmp    $0x81,%edx
    2743:	75 e3                	jne    2728 <usb_device_manager_init+0x18>
    2745:	66 c7 81 20 06 00 00 	movw   $0x1,0x620(%ecx)
    274c:	01 00 
    274e:	89 99 0c 06 00 00    	mov    %ebx,0x60c(%ecx)
    2754:	81 c1 10 06 00 00    	add    $0x610,%ecx
    275a:	89 4d 08             	mov    %ecx,0x8(%ebp)
    275d:	83 c4 14             	add    $0x14,%esp
    2760:	5b                   	pop    %ebx
    2761:	5d                   	pop    %ebp
    2762:	e9 49 df 00 00       	jmp    106b0 <fibril_mutex_initialize>
    2767:	c7 44 24 08 4a 00 00 	movl   $0x4a,0x8(%esp)
    276e:	00 
    276f:	c7 44 24 04 af 90 02 	movl   $0x290af,0x4(%esp)
    2776:	00 
    2777:	c7 04 24 c8 90 02 00 	movl   $0x290c8,(%esp)
    277e:	e8 8d 1a 02 00       	call   24210 <assert_abort>
    2783:	8d b6 00 00 00 00    	lea    0x0(%esi),%esi
    2789:	8d bc 27 00 00 00 00 	lea    0x0(%edi,%eiz,1),%edi

00002790 <usb_device_manager_request_address>:
    2790:	55                   	push   %ebp
    2791:	89 e5                	mov    %esp,%ebp
    2793:	57                   	push   %edi
    2794:	56                   	push   %esi
    2795:	53                   	push   %ebx
    2796:	83 ec 2c             	sub    $0x2c,%esp
    2799:	8b 5d 08             	mov    0x8(%ebp),%ebx
    279c:	8a 4d 10             	mov    0x10(%ebp),%cl
    279f:	88 4d e3             	mov    %cl,-0x1d(%ebp)
    27a2:	85 db                	test   %ebx,%ebx
    27a4:	0f 84 8d 01 00 00    	je     2937 <usb_device_manager_request_address+0x1a7>
    27aa:	8b 55 0c             	mov    0xc(%ebp),%edx
    27ad:	85 d2                	test   %edx,%edx
    27af:	0f 84 9e 01 00 00    	je     2953 <usb_device_manager_request_address+0x1c3>
    27b5:	8b 75 14             	mov    0x14(%ebp),%esi
    27b8:	39 b3 0c 06 00 00    	cmp    %esi,0x60c(%ebx)
    27be:	0f 82 6c 01 00 00    	jb     2930 <usb_device_manager_request_address+0x1a0>
    27c4:	8b 4d 0c             	mov    0xc(%ebp),%ecx
    27c7:	66 81 39 80 00       	cmpw   $0x80,(%ecx)
    27cc:	0f 87 2e 01 00 00    	ja     2900 <usb_device_manager_request_address+0x170>
    27d2:	8d b3 10 06 00 00    	lea    0x610(%ebx),%esi
    27d8:	89 34 24             	mov    %esi,(%esp)
    27db:	89 75 e4             	mov    %esi,-0x1c(%ebp)
    27de:	e8 ed de 00 00       	call   106d0 <fibril_mutex_lock>
    27e3:	8b 75 0c             	mov    0xc(%ebp),%esi
    27e6:	0f bf 0e             	movswl (%esi),%ecx
    27e9:	66 85 c9             	test   %cx,%cx
    27ec:	75 2a                	jne    2818 <usb_device_manager_request_address+0x88>
    27ee:	80 7d e3 00          	cmpb   $0x0,-0x1d(%ebp)
    27f2:	0f 84 d0 00 00 00    	je     28c8 <usb_device_manager_request_address+0x138>
    27f8:	80 7b 04 00          	cmpb   $0x0,0x4(%ebx)
    27fc:	0f 84 c1 01 00 00    	je     29c3 <usb_device_manager_request_address+0x233>
    2802:	8b 4d e4             	mov    -0x1c(%ebp),%ecx
    2805:	89 0c 24             	mov    %ecx,(%esp)
    2808:	e8 e3 df 00 00       	call   107f0 <fibril_mutex_unlock>
    280d:	83 c8 ff             	or     $0xffffffff,%eax
    2810:	e9 a4 00 00 00       	jmp    28b9 <usb_device_manager_request_address+0x129>
    2815:	8d 76 00             	lea    0x0(%esi),%esi
    2818:	8d 04 49             	lea    (%ecx,%ecx,2),%eax
    281b:	8d 04 83             	lea    (%ebx,%eax,4),%eax
    281e:	80 78 04 00          	cmpb   $0x0,0x4(%eax)
    2822:	0f 84 df 00 00 00    	je     2907 <usb_device_manager_request_address+0x177>
    2828:	80 7d e3 00          	cmpb   $0x0,-0x1d(%ebp)
    282c:	75 d4                	jne    2802 <usb_device_manager_request_address+0x72>
    282e:	8b b3 20 06 00 00    	mov    0x620(%ebx),%esi
    2834:	0f bf c6             	movswl %si,%eax
    2837:	40                   	inc    %eax
    2838:	b9 81 00 00 00       	mov    $0x81,%ecx
    283d:	89 c2                	mov    %eax,%edx
    283f:	c1 fa 1f             	sar    $0x1f,%edx
    2842:	f7 f9                	idiv   %ecx
    2844:	66 85 d2             	test   %dx,%dx
    2847:	75 02                	jne    284b <usb_device_manager_request_address+0xbb>
    2849:	b2 01                	mov    $0x1,%dl
    284b:	66 39 d6             	cmp    %dx,%si
    284e:	0f 84 94 00 00 00    	je     28e8 <usb_device_manager_request_address+0x158>
    2854:	0f bf ca             	movswl %dx,%ecx
    2857:	89 c8                	mov    %ecx,%eax
    2859:	8d 3c 49             	lea    (%ecx,%ecx,2),%edi
    285c:	80 7c bb 04 00       	cmpb   $0x0,0x4(%ebx,%edi,4)
    2861:	75 d4                	jne    2837 <usb_device_manager_request_address+0xa7>
    2863:	66 85 d2             	test   %dx,%dx
    2866:	0f 84 1f 01 00 00    	je     298b <usb_device_manager_request_address+0x1fb>
    286c:	66 89 93 20 06 00 00 	mov    %dx,0x620(%ebx)
    2873:	31 c0                	xor    %eax,%eax
    2875:	8b 75 0c             	mov    0xc(%ebp),%esi
    2878:	84 c0                	test   %al,%al
    287a:	66 89 16             	mov    %dx,(%esi)
    287d:	0f 85 24 01 00 00    	jne    29a7 <usb_device_manager_request_address+0x217>
    2883:	8d 04 49             	lea    (%ecx,%ecx,2),%eax
    2886:	8b 44 83 08          	mov    0x8(%ebx,%eax,4),%eax
    288a:	85 c0                	test   %eax,%eax
    288c:	75 7f                	jne    290d <usb_device_manager_request_address+0x17d>
    288e:	66 85 d2             	test   %dx,%dx
    2891:	75 0a                	jne    289d <usb_device_manager_request_address+0x10d>
    2893:	80 7d e3 00          	cmpb   $0x0,-0x1d(%ebp)
    2897:	0f 84 d2 00 00 00    	je     296f <usb_device_manager_request_address+0x1df>
    289d:	8d 04 49             	lea    (%ecx,%ecx,2),%eax
    28a0:	8b 75 e4             	mov    -0x1c(%ebp),%esi
    28a3:	8b 4d 14             	mov    0x14(%ebp),%ecx
    28a6:	8d 04 83             	lea    (%ebx,%eax,4),%eax
    28a9:	c6 40 04 01          	movb   $0x1,0x4(%eax)
    28ad:	89 08                	mov    %ecx,(%eax)
    28af:	89 34 24             	mov    %esi,(%esp)
    28b2:	e8 39 df 00 00       	call   107f0 <fibril_mutex_unlock>
    28b7:	31 c0                	xor    %eax,%eax
    28b9:	83 c4 2c             	add    $0x2c,%esp
    28bc:	5b                   	pop    %ebx
    28bd:	5e                   	pop    %esi
    28be:	5f                   	pop    %edi
    28bf:	5d                   	pop    %ebp
    28c0:	c3                   	ret    
    28c1:	8d b4 26 00 00 00 00 	lea    0x0(%esi,%eiz,1),%esi
    28c8:	8b 93 20 06 00 00    	mov    0x620(%ebx),%edx
    28ce:	0f bf ca             	movswl %dx,%ecx
    28d1:	66 89 16             	mov    %dx,(%esi)
    28d4:	8d 04 49             	lea    (%ecx,%ecx,2),%eax
    28d7:	80 7c 83 04 00       	cmpb   $0x0,0x4(%ebx,%eax,4)
    28dc:	0f 85 4c ff ff ff    	jne    282e <usb_device_manager_request_address+0x9e>
    28e2:	eb 9f                	jmp    2883 <usb_device_manager_request_address+0xf3>
    28e4:	8d 74 26 00          	lea    0x0(%esi,%eiz,1),%esi
    28e8:	8a 83 e0 f3 ff ff    	mov    -0xc20(%ebx),%al
    28ee:	b9 fd fe ff ff       	mov    $0xfffffefd,%ecx
    28f3:	ba fd fe ff ff       	mov    $0xfffffefd,%edx
    28f8:	e9 78 ff ff ff       	jmp    2875 <usb_device_manager_request_address+0xe5>
    28fd:	8d 76 00             	lea    0x0(%esi),%esi
    2900:	b8 f2 ff ff ff       	mov    $0xfffffff2,%eax
    2905:	eb b2                	jmp    28b9 <usb_device_manager_request_address+0x129>
    2907:	83 78 08 00          	cmpl   $0x0,0x8(%eax)
    290b:	74 90                	je     289d <usb_device_manager_request_address+0x10d>
    290d:	c7 44 24 08 75 00 00 	movl   $0x75,0x8(%esp)
    2914:	00 
    2915:	c7 44 24 04 af 90 02 	movl   $0x290af,0x4(%esp)
    291c:	00 
    291d:	c7 04 24 28 91 02 00 	movl   $0x29128,(%esp)
    2924:	e8 e7 18 02 00       	call   24210 <assert_abort>
    2929:	8d b4 26 00 00 00 00 	lea    0x0(%esi,%eiz,1),%esi
    2930:	b8 f5 ff ff ff       	mov    $0xfffffff5,%eax
    2935:	eb 82                	jmp    28b9 <usb_device_manager_request_address+0x129>
    2937:	c7 44 24 08 5f 00 00 	movl   $0x5f,0x8(%esp)
    293e:	00 
    293f:	c7 44 24 04 af 90 02 	movl   $0x290af,0x4(%esp)
    2946:	00 
    2947:	c7 04 24 c8 90 02 00 	movl   $0x290c8,(%esp)
    294e:	e8 bd 18 02 00       	call   24210 <assert_abort>
    2953:	c7 44 24 08 60 00 00 	movl   $0x60,0x8(%esp)
    295a:	00 
    295b:	c7 44 24 04 af 90 02 	movl   $0x290af,0x4(%esp)
    2962:	00 
    2963:	c7 04 24 90 97 02 00 	movl   $0x29790,(%esp)
    296a:	e8 a1 18 02 00       	call   24210 <assert_abort>
    296f:	c7 44 24 08 76 00 00 	movl   $0x76,0x8(%esp)
    2976:	00 
    2977:	c7 44 24 04 af 90 02 	movl   $0x290af,0x4(%esp)
    297e:	00 
    297f:	c7 04 24 50 91 02 00 	movl   $0x29150,(%esp)
    2986:	e8 85 18 02 00       	call   24210 <assert_abort>
    298b:	c7 44 24 08 3a 00 00 	movl   $0x3a,0x8(%esp)
    2992:	00 
    2993:	c7 44 24 04 af 90 02 	movl   $0x290af,0x4(%esp)
    299a:	00 
    299b:	c7 04 24 d4 90 02 00 	movl   $0x290d4,(%esp)
    29a2:	e8 69 18 02 00       	call   24210 <assert_abort>
    29a7:	c7 44 24 08 74 00 00 	movl   $0x74,0x8(%esp)
    29ae:	00 
    29af:	c7 44 24 04 af 90 02 	movl   $0x290af,0x4(%esp)
    29b6:	00 
    29b7:	c7 04 24 f8 90 02 00 	movl   $0x290f8,(%esp)
    29be:	e8 4d 18 02 00       	call   24210 <assert_abort>
    29c3:	31 c9                	xor    %ecx,%ecx
    29c5:	31 d2                	xor    %edx,%edx
    29c7:	e9 b7 fe ff ff       	jmp    2883 <usb_device_manager_request_address+0xf3>
    29cc:	8d 74 26 00          	lea    0x0(%esi,%eiz,1),%esi

000029d0 <usb_device_manager_bind_address>:
    29d0:	55                   	push   %ebp
    29d1:	89 e5                	mov    %esp,%ebp
    29d3:	57                   	push   %edi
    29d4:	56                   	push   %esi
    29d5:	53                   	push   %ebx
    29d6:	83 ec 1c             	sub    $0x1c,%esp
    29d9:	0f bf 75 0c          	movswl 0xc(%ebp),%esi
    29dd:	8b 5d 08             	mov    0x8(%ebp),%ebx
    29e0:	8d 46 ff             	lea    -0x1(%esi),%eax
    29e3:	66 83 f8 7f          	cmp    $0x7f,%ax
    29e7:	77 3f                	ja     2a28 <usb_device_manager_bind_address+0x58>
    29e9:	85 db                	test   %ebx,%ebx
    29eb:	74 60                	je     2a4d <usb_device_manager_bind_address+0x7d>
    29ed:	8d bb 10 06 00 00    	lea    0x610(%ebx),%edi
    29f3:	89 3c 24             	mov    %edi,(%esp)
    29f6:	e8 d5 dc 00 00       	call   106d0 <fibril_mutex_lock>
    29fb:	8d 04 76             	lea    (%esi,%esi,2),%eax
    29fe:	8d 04 83             	lea    (%ebx,%eax,4),%eax
    2a01:	80 78 04 00          	cmpb   $0x0,0x4(%eax)
    2a05:	74 39                	je     2a40 <usb_device_manager_bind_address+0x70>
    2a07:	8b 48 08             	mov    0x8(%eax),%ecx
    2a0a:	85 c9                	test   %ecx,%ecx
    2a0c:	75 22                	jne    2a30 <usb_device_manager_bind_address+0x60>
    2a0e:	8b 55 10             	mov    0x10(%ebp),%edx
    2a11:	89 50 08             	mov    %edx,0x8(%eax)
    2a14:	89 3c 24             	mov    %edi,(%esp)
    2a17:	e8 d4 dd 00 00       	call   107f0 <fibril_mutex_unlock>
    2a1c:	31 c0                	xor    %eax,%eax
    2a1e:	83 c4 1c             	add    $0x1c,%esp
    2a21:	5b                   	pop    %ebx
    2a22:	5e                   	pop    %esi
    2a23:	5f                   	pop    %edi
    2a24:	5d                   	pop    %ebp
    2a25:	c3                   	ret    
    2a26:	66 90                	xchg   %ax,%ax
    2a28:	b8 f2 ff ff ff       	mov    $0xfffffff2,%eax
    2a2d:	eb ef                	jmp    2a1e <usb_device_manager_bind_address+0x4e>
    2a2f:	90                   	nop
    2a30:	89 3c 24             	mov    %edi,(%esp)
    2a33:	e8 b8 dd 00 00       	call   107f0 <fibril_mutex_unlock>
    2a38:	b8 f7 ff ff ff       	mov    $0xfffffff7,%eax
    2a3d:	eb df                	jmp    2a1e <usb_device_manager_bind_address+0x4e>
    2a3f:	90                   	nop
    2a40:	89 3c 24             	mov    %edi,(%esp)
    2a43:	e8 a8 dd 00 00       	call   107f0 <fibril_mutex_unlock>
    2a48:	83 c8 ff             	or     $0xffffffff,%eax
    2a4b:	eb d1                	jmp    2a1e <usb_device_manager_bind_address+0x4e>
    2a4d:	c7 44 24 08 8d 00 00 	movl   $0x8d,0x8(%esp)
    2a54:	00 
    2a55:	c7 44 24 04 af 90 02 	movl   $0x290af,0x4(%esp)
    2a5c:	00 
    2a5d:	c7 04 24 c8 90 02 00 	movl   $0x290c8,(%esp)
    2a64:	e8 a7 17 02 00       	call   24210 <assert_abort>
    2a69:	8d b4 26 00 00 00 00 	lea    0x0(%esi,%eiz,1),%esi

00002a70 <usb_device_manager_release_address>:
    2a70:	55                   	push   %ebp
    2a71:	89 e5                	mov    %esp,%ebp
    2a73:	57                   	push   %edi
    2a74:	56                   	push   %esi
    2a75:	53                   	push   %ebx
    2a76:	83 ec 1c             	sub    $0x1c,%esp
    2a79:	0f bf 75 0c          	movswl 0xc(%ebp),%esi
    2a7d:	66 81 fe 80 00       	cmp    $0x80,%si
    2a82:	8b 5d 08             	mov    0x8(%ebp),%ebx
    2a85:	77 41                	ja     2ac8 <usb_device_manager_release_address+0x58>
    2a87:	85 db                	test   %ebx,%ebx
    2a89:	74 52                	je     2add <usb_device_manager_release_address+0x6d>
    2a8b:	8d bb 10 06 00 00    	lea    0x610(%ebx),%edi
    2a91:	89 3c 24             	mov    %edi,(%esp)
    2a94:	e8 37 dc 00 00       	call   106d0 <fibril_mutex_lock>
    2a99:	8d 04 76             	lea    (%esi,%esi,2),%eax
    2a9c:	8d 04 83             	lea    (%ebx,%eax,4),%eax
    2a9f:	80 78 04 00          	cmpb   $0x0,0x4(%eax)
    2aa3:	74 2b                	je     2ad0 <usb_device_manager_release_address+0x60>
    2aa5:	c6 40 04 00          	movb   $0x0,0x4(%eax)
    2aa9:	c7 40 08 00 00 00 00 	movl   $0x0,0x8(%eax)
    2ab0:	89 3c 24             	mov    %edi,(%esp)
    2ab3:	e8 38 dd 00 00       	call   107f0 <fibril_mutex_unlock>
    2ab8:	31 c0                	xor    %eax,%eax
    2aba:	83 c4 1c             	add    $0x1c,%esp
    2abd:	5b                   	pop    %ebx
    2abe:	5e                   	pop    %esi
    2abf:	5f                   	pop    %edi
    2ac0:	5d                   	pop    %ebp
    2ac1:	c3                   	ret    
    2ac2:	8d b6 00 00 00 00    	lea    0x0(%esi),%esi
    2ac8:	b8 f2 ff ff ff       	mov    $0xfffffff2,%eax
    2acd:	eb eb                	jmp    2aba <usb_device_manager_release_address+0x4a>
    2acf:	90                   	nop
    2ad0:	89 3c 24             	mov    %edi,(%esp)
    2ad3:	e8 18 dd 00 00       	call   107f0 <fibril_mutex_unlock>
    2ad8:	83 c8 ff             	or     $0xffffffff,%eax
    2adb:	eb dd                	jmp    2aba <usb_device_manager_release_address+0x4a>
    2add:	c7 44 24 08 ab 00 00 	movl   $0xab,0x8(%esp)
    2ae4:	00 
    2ae5:	c7 44 24 04 af 90 02 	movl   $0x290af,0x4(%esp)
    2aec:	00 
    2aed:	c7 04 24 c8 90 02 00 	movl   $0x290c8,(%esp)
    2af4:	e8 17 17 02 00       	call   24210 <assert_abort>
    2af9:	8d b4 26 00 00 00 00 	lea    0x0(%esi,%eiz,1),%esi

00002b00 <usb_device_manager_find_address>:
    2b00:	55                   	push   %ebp
    2b01:	89 e5                	mov    %esp,%ebp
    2b03:	57                   	push   %edi
    2b04:	56                   	push   %esi
    2b05:	53                   	push   %ebx
    2b06:	83 ec 2c             	sub    $0x2c,%esp
    2b09:	8b 7d 08             	mov    0x8(%ebp),%edi
    2b0c:	8b 75 0c             	mov    0xc(%ebp),%esi
    2b0f:	85 ff                	test   %edi,%edi
    2b11:	0f 84 82 00 00 00    	je     2b99 <usb_device_manager_find_address+0x99>
    2b17:	8d 87 10 06 00 00    	lea    0x610(%edi),%eax
    2b1d:	89 04 24             	mov    %eax,(%esp)
    2b20:	89 45 e4             	mov    %eax,-0x1c(%ebp)
    2b23:	e8 a8 db 00 00       	call   106d0 <fibril_mutex_lock>
    2b28:	8d 4f 14             	lea    0x14(%edi),%ecx
    2b2b:	ba 01 00 00 00       	mov    $0x1,%edx
    2b30:	8b 45 e4             	mov    -0x1c(%ebp),%eax
    2b33:	eb 0f                	jmp    2b44 <usb_device_manager_find_address+0x44>
    2b35:	8d 76 00             	lea    0x0(%esi),%esi
    2b38:	42                   	inc    %edx
    2b39:	83 c1 0c             	add    $0xc,%ecx
    2b3c:	81 fa 81 00 00 00    	cmp    $0x81,%edx
    2b42:	74 24                	je     2b68 <usb_device_manager_find_address+0x68>
    2b44:	89 d3                	mov    %edx,%ebx
    2b46:	39 31                	cmp    %esi,(%ecx)
    2b48:	75 ee                	jne    2b38 <usb_device_manager_find_address+0x38>
    2b4a:	8d 14 52             	lea    (%edx,%edx,2),%edx
    2b4d:	80 7c 97 04 00       	cmpb   $0x0,0x4(%edi,%edx,4)
    2b52:	74 29                	je     2b7d <usb_device_manager_find_address+0x7d>
    2b54:	89 04 24             	mov    %eax,(%esp)
    2b57:	e8 94 dc 00 00       	call   107f0 <fibril_mutex_unlock>
    2b5c:	83 c4 2c             	add    $0x2c,%esp
    2b5f:	89 d8                	mov    %ebx,%eax
    2b61:	5b                   	pop    %ebx
    2b62:	5e                   	pop    %esi
    2b63:	5f                   	pop    %edi
    2b64:	5d                   	pop    %ebp
    2b65:	c3                   	ret    
    2b66:	66 90                	xchg   %ax,%ax
    2b68:	89 04 24             	mov    %eax,(%esp)
    2b6b:	83 cb ff             	or     $0xffffffff,%ebx
    2b6e:	e8 7d dc 00 00       	call   107f0 <fibril_mutex_unlock>
    2b73:	83 c4 2c             	add    $0x2c,%esp
    2b76:	89 d8                	mov    %ebx,%eax
    2b78:	5b                   	pop    %ebx
    2b79:	5e                   	pop    %esi
    2b7a:	5f                   	pop    %edi
    2b7b:	5d                   	pop    %ebp
    2b7c:	c3                   	ret    
    2b7d:	c7 44 24 08 c7 00 00 	movl   $0xc7,0x8(%esp)
    2b84:	00 
    2b85:	c7 44 24 04 af 90 02 	movl   $0x290af,0x4(%esp)
    2b8c:	00 
    2b8d:	c7 04 24 7c 91 02 00 	movl   $0x2917c,(%esp)
    2b94:	e8 77 16 02 00       	call   24210 <assert_abort>
    2b99:	c7 44 24 08 c2 00 00 	movl   $0xc2,0x8(%esp)
    2ba0:	00 
    2ba1:	c7 44 24 04 af 90 02 	movl   $0x290af,0x4(%esp)
    2ba8:	00 
    2ba9:	c7 04 24 c8 90 02 00 	movl   $0x290c8,(%esp)
    2bb0:	e8 5b 16 02 00       	call   24210 <assert_abort>
    2bb5:	8d 74 26 00          	lea    0x0(%esi,%eiz,1),%esi
    2bb9:	8d bc 27 00 00 00 00 	lea    0x0(%edi,%eiz,1),%edi

00002bc0 <usb_device_manager_get_info_by_address>:
    2bc0:	55                   	push   %ebp
    2bc1:	89 e5                	mov    %esp,%ebp
    2bc3:	57                   	push   %edi
    2bc4:	56                   	push   %esi
    2bc5:	53                   	push   %ebx
    2bc6:	83 ec 1c             	sub    $0x1c,%esp
    2bc9:	8b 5d 08             	mov    0x8(%ebp),%ebx
    2bcc:	8b 7d 0c             	mov    0xc(%ebp),%edi
    2bcf:	85 db                	test   %ebx,%ebx
    2bd1:	74 72                	je     2c45 <usb_device_manager_get_info_by_address+0x85>
    2bd3:	66 81 ff 80 00       	cmp    $0x80,%di
    2bd8:	77 56                	ja     2c30 <usb_device_manager_get_info_by_address+0x70>
    2bda:	8d b3 10 06 00 00    	lea    0x610(%ebx),%esi
    2be0:	89 34 24             	mov    %esi,(%esp)
    2be3:	e8 e8 da 00 00       	call   106d0 <fibril_mutex_lock>
    2be8:	0f bf c7             	movswl %di,%eax
    2beb:	8d 0c 40             	lea    (%eax,%eax,2),%ecx
    2bee:	8d 0c 8b             	lea    (%ebx,%ecx,4),%ecx
    2bf1:	80 79 04 00          	cmpb   $0x0,0x4(%ecx)
    2bf5:	74 41                	je     2c38 <usb_device_manager_get_info_by_address+0x78>
    2bf7:	8b 55 10             	mov    0x10(%ebp),%edx
    2bfa:	85 d2                	test   %edx,%edx
    2bfc:	74 08                	je     2c06 <usb_device_manager_get_info_by_address+0x46>
    2bfe:	8b 55 10             	mov    0x10(%ebp),%edx
    2c01:	8b 49 08             	mov    0x8(%ecx),%ecx
    2c04:	89 0a                	mov    %ecx,(%edx)
    2c06:	8b 7d 14             	mov    0x14(%ebp),%edi
    2c09:	85 ff                	test   %edi,%edi
    2c0b:	74 0b                	je     2c18 <usb_device_manager_get_info_by_address+0x58>
    2c0d:	8d 04 40             	lea    (%eax,%eax,2),%eax
    2c10:	8b 55 14             	mov    0x14(%ebp),%edx
    2c13:	8b 04 83             	mov    (%ebx,%eax,4),%eax
    2c16:	89 02                	mov    %eax,(%edx)
    2c18:	89 34 24             	mov    %esi,(%esp)
    2c1b:	e8 d0 db 00 00       	call   107f0 <fibril_mutex_unlock>
    2c20:	31 c0                	xor    %eax,%eax
    2c22:	83 c4 1c             	add    $0x1c,%esp
    2c25:	5b                   	pop    %ebx
    2c26:	5e                   	pop    %esi
    2c27:	5f                   	pop    %edi
    2c28:	5d                   	pop    %ebp
    2c29:	c3                   	ret    
    2c2a:	8d b6 00 00 00 00    	lea    0x0(%esi),%esi
    2c30:	b8 f2 ff ff ff       	mov    $0xfffffff2,%eax
    2c35:	eb eb                	jmp    2c22 <usb_device_manager_get_info_by_address+0x62>
    2c37:	90                   	nop
    2c38:	89 34 24             	mov    %esi,(%esp)
    2c3b:	e8 b0 db 00 00       	call   107f0 <fibril_mutex_unlock>
    2c40:	83 c8 ff             	or     $0xffffffff,%eax
    2c43:	eb dd                	jmp    2c22 <usb_device_manager_get_info_by_address+0x62>
    2c45:	c7 44 24 08 db 00 00 	movl   $0xdb,0x8(%esp)
    2c4c:	00 
    2c4d:	c7 44 24 04 af 90 02 	movl   $0x290af,0x4(%esp)
    2c54:	00 
    2c55:	c7 04 24 c8 90 02 00 	movl   $0x290c8,(%esp)
    2c5c:	e8 af 15 02 00       	call   24210 <assert_abort>
    2c61:	66 90                	xchg   %ax,%ax
    2c63:	66 90                	xchg   %ax,%ax
    2c65:	66 90                	xchg   %ax,%ax
    2c67:	66 90                	xchg   %ax,%ax
    2c69:	66 90                	xchg   %ax,%ax
    2c6b:	66 90                	xchg   %ax,%ax
    2c6d:	66 90                	xchg   %ax,%ax
    2c6f:	90                   	nop

00002c70 <find_locked>:
    2c70:	55                   	push   %ebp
    2c71:	89 e5                	mov    %esp,%ebp
    2c73:	57                   	push   %edi
    2c74:	56                   	push   %esi
    2c75:	53                   	push   %ebx
    2c76:	83 ec 1c             	sub    $0x1c,%esp
    2c79:	89 c7                	mov    %eax,%edi
    2c7b:	85 c0                	test   %eax,%eax
    2c7d:	0f 84 cf 00 00 00    	je     2d52 <find_locked+0xe2>
    2c83:	8d 40 40             	lea    0x40(%eax),%eax
    2c86:	89 d3                	mov    %edx,%ebx
    2c88:	89 04 24             	mov    %eax,(%esp)
    2c8b:	89 ce                	mov    %ecx,%esi
    2c8d:	e8 6e dc 00 00       	call   10900 <fibril_mutex_is_locked>
    2c92:	84 c0                	test   %al,%al
    2c94:	0f 84 9c 00 00 00    	je     2d36 <find_locked+0xc6>
    2c9a:	66 85 db             	test   %bx,%bx
    2c9d:	78 71                	js     2d10 <find_locked+0xa0>
    2c9f:	89 d8                	mov    %ebx,%eax
    2ca1:	83 e0 07             	and    $0x7,%eax
    2ca4:	8d 3c c7             	lea    (%edi,%eax,8),%edi
    2ca7:	8b 47 04             	mov    0x4(%edi),%eax
    2caa:	39 c7                	cmp    %eax,%edi
    2cac:	74 62                	je     2d10 <find_locked+0xa0>
    2cae:	85 c0                	test   %eax,%eax
    2cb0:	74 68                	je     2d1a <find_locked+0xaa>
    2cb2:	83 7d 08 02          	cmpl   $0x2,0x8(%ebp)
    2cb6:	75 18                	jne    2cd0 <find_locked+0x60>
    2cb8:	eb 47                	jmp    2d01 <find_locked+0x91>
    2cba:	8d b6 00 00 00 00    	lea    0x0(%esi),%esi
    2cc0:	83 f9 02             	cmp    $0x2,%ecx
    2cc3:	74 13                	je     2cd8 <find_locked+0x68>
    2cc5:	8b 40 04             	mov    0x4(%eax),%eax
    2cc8:	39 c7                	cmp    %eax,%edi
    2cca:	74 44                	je     2d10 <find_locked+0xa0>
    2ccc:	85 c0                	test   %eax,%eax
    2cce:	74 4a                	je     2d1a <find_locked+0xaa>
    2cd0:	8b 48 0c             	mov    0xc(%eax),%ecx
    2cd3:	39 4d 08             	cmp    %ecx,0x8(%ebp)
    2cd6:	75 e8                	jne    2cc0 <find_locked+0x50>
    2cd8:	66 3b 70 0a          	cmp    0xa(%eax),%si
    2cdc:	75 e7                	jne    2cc5 <find_locked+0x55>
    2cde:	66 3b 58 08          	cmp    0x8(%eax),%bx
    2ce2:	75 e1                	jne    2cc5 <find_locked+0x55>
    2ce4:	83 c4 1c             	add    $0x1c,%esp
    2ce7:	5b                   	pop    %ebx
    2ce8:	5e                   	pop    %esi
    2ce9:	5f                   	pop    %edi
    2cea:	5d                   	pop    %ebp
    2ceb:	c3                   	ret    
    2cec:	8d 74 26 00          	lea    0x0(%esi,%eiz,1),%esi
    2cf0:	66 3b 58 08          	cmp    0x8(%eax),%bx
    2cf4:	74 ee                	je     2ce4 <find_locked+0x74>
    2cf6:	8b 40 04             	mov    0x4(%eax),%eax
    2cf9:	39 c7                	cmp    %eax,%edi
    2cfb:	74 13                	je     2d10 <find_locked+0xa0>
    2cfd:	85 c0                	test   %eax,%eax
    2cff:	74 19                	je     2d1a <find_locked+0xaa>
    2d01:	66 3b 70 0a          	cmp    0xa(%eax),%si
    2d05:	74 e9                	je     2cf0 <find_locked+0x80>
    2d07:	8b 40 04             	mov    0x4(%eax),%eax
    2d0a:	39 c7                	cmp    %eax,%edi
    2d0c:	75 ef                	jne    2cfd <find_locked+0x8d>
    2d0e:	66 90                	xchg   %ax,%ax
    2d10:	83 c4 1c             	add    $0x1c,%esp
    2d13:	31 c0                	xor    %eax,%eax
    2d15:	5b                   	pop    %ebx
    2d16:	5e                   	pop    %esi
    2d17:	5f                   	pop    %edi
    2d18:	5d                   	pop    %ebp
    2d19:	c3                   	ret    
    2d1a:	c7 44 24 08 37 00 00 	movl   $0x37,0x8(%esp)
    2d21:	00 
    2d22:	c7 44 24 04 a0 91 02 	movl   $0x291a0,0x4(%esp)
    2d29:	00 
    2d2a:	c7 04 24 da a9 02 00 	movl   $0x2a9da,(%esp)
    2d31:	e8 da 14 02 00       	call   24210 <assert_abort>
    2d36:	c7 44 24 08 59 00 00 	movl   $0x59,0x8(%esp)
    2d3d:	00 
    2d3e:	c7 44 24 04 a0 91 02 	movl   $0x291a0,0x4(%esp)
    2d45:	00 
    2d46:	c7 04 24 d4 91 02 00 	movl   $0x291d4,(%esp)
    2d4d:	e8 be 14 02 00       	call   24210 <assert_abort>
    2d52:	c7 44 24 08 58 00 00 	movl   $0x58,0x8(%esp)
    2d59:	00 
    2d5a:	c7 44 24 04 a0 91 02 	movl   $0x291a0,0x4(%esp)
    2d61:	00 
    2d62:	c7 04 24 c8 90 02 00 	movl   $0x290c8,(%esp)
    2d69:	e8 a2 14 02 00       	call   24210 <assert_abort>
    2d6e:	66 90                	xchg   %ax,%ax

00002d70 <bandwidth_count_usb11>:
    2d70:	55                   	push   %ebp
    2d71:	89 e5                	mov    %esp,%ebp
    2d73:	53                   	push   %ebx
    2d74:	83 ec 14             	sub    $0x14,%esp
    2d77:	8b 45 0c             	mov    0xc(%ebp),%eax
    2d7a:	8b 4d 14             	mov    0x14(%ebp),%ecx
    2d7d:	83 e0 fd             	and    $0xfffffffd,%eax
    2d80:	48                   	dec    %eax
    2d81:	75 33                	jne    2db6 <bandwidth_count_usb11+0x46>
    2d83:	8b 45 10             	mov    0x10(%ebp),%eax
    2d86:	31 d2                	xor    %edx,%edx
    2d88:	8d 44 08 ff          	lea    -0x1(%eax,%ecx,1),%eax
    2d8c:	f7 f1                	div    %ecx
    2d8e:	89 c3                	mov    %eax,%ebx
    2d90:	8b 45 08             	mov    0x8(%ebp),%eax
    2d93:	85 c0                	test   %eax,%eax
    2d95:	75 19                	jne    2db0 <bandwidth_count_usb11+0x40>
    2d97:	83 7d 0c 03          	cmpl   $0x3,0xc(%ebp)
    2d9b:	75 67                	jne    2e04 <bandwidth_count_usb11+0x94>
    2d9d:	83 c4 14             	add    $0x14,%esp
    2da0:	8d 04 cd 68 00 00 00 	lea    0x68(,%ecx,8),%eax
    2da7:	0f af c3             	imul   %ebx,%eax
    2daa:	5b                   	pop    %ebx
    2dab:	5d                   	pop    %ebp
    2dac:	c3                   	ret    
    2dad:	8d 76 00             	lea    0x0(%esi),%esi
    2db0:	83 7d 08 01          	cmpl   $0x1,0x8(%ebp)
    2db4:	74 0a                	je     2dc0 <bandwidth_count_usb11+0x50>
    2db6:	31 c0                	xor    %eax,%eax
    2db8:	83 c4 14             	add    $0x14,%esp
    2dbb:	5b                   	pop    %ebx
    2dbc:	5d                   	pop    %ebp
    2dbd:	c3                   	ret    
    2dbe:	66 90                	xchg   %ax,%ax
    2dc0:	83 7d 0c 03          	cmpl   $0x3,0xc(%ebp)
    2dc4:	74 1a                	je     2de0 <bandwidth_count_usb11+0x70>
    2dc6:	83 7d 0c 01          	cmpl   $0x1,0xc(%ebp)
    2dca:	75 1c                	jne    2de8 <bandwidth_count_usb11+0x78>
    2dcc:	83 c4 14             	add    $0x14,%esp
    2dcf:	89 d8                	mov    %ebx,%eax
    2dd1:	83 c1 09             	add    $0x9,%ecx
    2dd4:	0f af c1             	imul   %ecx,%eax
    2dd7:	5b                   	pop    %ebx
    2dd8:	5d                   	pop    %ebp
    2dd9:	c3                   	ret    
    2dda:	8d b6 00 00 00 00    	lea    0x0(%esi),%esi
    2de0:	8d 41 0d             	lea    0xd(%ecx),%eax
    2de3:	0f af c3             	imul   %ebx,%eax
    2de6:	eb d0                	jmp    2db8 <bandwidth_count_usb11+0x48>
    2de8:	c7 44 24 08 89 00 00 	movl   $0x89,0x8(%esp)
    2def:	00 
    2df0:	c7 44 24 04 a0 91 02 	movl   $0x291a0,0x4(%esp)
    2df7:	00 
    2df8:	c7 04 24 20 92 02 00 	movl   $0x29220,(%esp)
    2dff:	e8 0c 14 02 00       	call   24210 <assert_abort>
    2e04:	c7 44 24 08 7c 00 00 	movl   $0x7c,0x8(%esp)
    2e0b:	00 
    2e0c:	c7 44 24 04 a0 91 02 	movl   $0x291a0,0x4(%esp)
    2e13:	00 
    2e14:	c7 04 24 00 92 02 00 	movl   $0x29200,(%esp)
    2e1b:	e8 f0 13 02 00       	call   24210 <assert_abort>

00002e20 <usb_endpoint_manager_init>:
    2e20:	55                   	push   %ebp
    2e21:	89 e5                	mov    %esp,%ebp
    2e23:	53                   	push   %ebx
    2e24:	83 ec 14             	sub    $0x14,%esp
    2e27:	8b 5d 08             	mov    0x8(%ebp),%ebx
    2e2a:	85 db                	test   %ebx,%ebx
    2e2c:	74 63                	je     2e91 <usb_endpoint_manager_init+0x71>
    2e2e:	8d 43 40             	lea    0x40(%ebx),%eax
    2e31:	89 04 24             	mov    %eax,(%esp)
    2e34:	e8 77 d8 00 00       	call   106b0 <fibril_mutex_initialize>
    2e39:	8b 45 0c             	mov    0xc(%ebp),%eax
    2e3c:	89 43 50             	mov    %eax,0x50(%ebx)
    2e3f:	8b 45 10             	mov    0x10(%ebp),%eax
    2e42:	89 43 54             	mov    %eax,0x54(%ebx)
    2e45:	8d 43 08             	lea    0x8(%ebx),%eax
    2e48:	89 43 08             	mov    %eax,0x8(%ebx)
    2e4b:	89 43 0c             	mov    %eax,0xc(%ebx)
    2e4e:	8d 43 10             	lea    0x10(%ebx),%eax
    2e51:	89 1b                	mov    %ebx,(%ebx)
    2e53:	89 43 10             	mov    %eax,0x10(%ebx)
    2e56:	89 43 14             	mov    %eax,0x14(%ebx)
    2e59:	8d 43 18             	lea    0x18(%ebx),%eax
    2e5c:	89 5b 04             	mov    %ebx,0x4(%ebx)
    2e5f:	89 43 18             	mov    %eax,0x18(%ebx)
    2e62:	89 43 1c             	mov    %eax,0x1c(%ebx)
    2e65:	8d 43 20             	lea    0x20(%ebx),%eax
    2e68:	89 43 20             	mov    %eax,0x20(%ebx)
    2e6b:	89 43 24             	mov    %eax,0x24(%ebx)
    2e6e:	8d 43 28             	lea    0x28(%ebx),%eax
    2e71:	89 43 28             	mov    %eax,0x28(%ebx)
    2e74:	89 43 2c             	mov    %eax,0x2c(%ebx)
    2e77:	8d 43 30             	lea    0x30(%ebx),%eax
    2e7a:	89 43 30             	mov    %eax,0x30(%ebx)
    2e7d:	89 43 34             	mov    %eax,0x34(%ebx)
    2e80:	8d 43 38             	lea    0x38(%ebx),%eax
    2e83:	89 43 38             	mov    %eax,0x38(%ebx)
    2e86:	89 43 3c             	mov    %eax,0x3c(%ebx)
    2e89:	83 c4 14             	add    $0x14,%esp
    2e8c:	31 c0                	xor    %eax,%eax
    2e8e:	5b                   	pop    %ebx
    2e8f:	5d                   	pop    %ebp
    2e90:	c3                   	ret    
    2e91:	c7 44 24 08 a1 00 00 	movl   $0xa1,0x8(%esp)
    2e98:	00 
    2e99:	c7 44 24 04 a0 91 02 	movl   $0x291a0,0x4(%esp)
    2ea0:	00 
    2ea1:	c7 04 24 c8 90 02 00 	movl   $0x290c8,(%esp)
    2ea8:	e8 63 13 02 00       	call   24210 <assert_abort>
    2ead:	8d 76 00             	lea    0x0(%esi),%esi

00002eb0 <usb_endpoint_manager_reset_eps_if_need>:
    2eb0:	55                   	push   %ebp
    2eb1:	89 e5                	mov    %esp,%ebp
    2eb3:	57                   	push   %edi
    2eb4:	56                   	push   %esi
    2eb5:	53                   	push   %ebx
    2eb6:	83 ec 2c             	sub    $0x2c,%esp
    2eb9:	8b 55 08             	mov    0x8(%ebp),%edx
    2ebc:	8b 45 0c             	mov    0xc(%ebp),%eax
    2ebf:	8b 5d 10             	mov    0x10(%ebp),%ebx
    2ec2:	85 d2                	test   %edx,%edx
    2ec4:	0f 84 55 01 00 00    	je     301f <usb_endpoint_manager_reset_eps_if_need+0x16f>
    2eca:	89 c6                	mov    %eax,%esi
    2ecc:	c1 f8 10             	sar    $0x10,%eax
    2ecf:	66 83 f8 0f          	cmp    $0xf,%ax
    2ed3:	77 33                	ja     2f08 <usb_endpoint_manager_reset_eps_if_need+0x58>
    2ed5:	66 83 fe 7f          	cmp    $0x7f,%si
    2ed9:	7f 2d                	jg     2f08 <usb_endpoint_manager_reset_eps_if_need+0x58>
    2edb:	66 85 f6             	test   %si,%si
    2ede:	78 28                	js     2f08 <usb_endpoint_manager_reset_eps_if_need+0x58>
    2ee0:	85 db                	test   %ebx,%ebx
    2ee2:	0f 84 53 01 00 00    	je     303b <usb_endpoint_manager_reset_eps_if_need+0x18b>
    2ee8:	8a 43 01             	mov    0x1(%ebx),%al
    2eeb:	3c 09                	cmp    $0x9,%al
    2eed:	74 41                	je     2f30 <usb_endpoint_manager_reset_eps_if_need+0x80>
    2eef:	3c 11                	cmp    $0x11,%al
    2ef1:	74 3d                	je     2f30 <usb_endpoint_manager_reset_eps_if_need+0x80>
    2ef3:	fe c8                	dec    %al
    2ef5:	0f 84 95 00 00 00    	je     2f90 <usb_endpoint_manager_reset_eps_if_need+0xe0>
    2efb:	83 c4 2c             	add    $0x2c,%esp
    2efe:	5b                   	pop    %ebx
    2eff:	5e                   	pop    %esi
    2f00:	5f                   	pop    %edi
    2f01:	5d                   	pop    %ebp
    2f02:	c3                   	ret    
    2f03:	90                   	nop
    2f04:	8d 74 26 00          	lea    0x0(%esi,%eiz,1),%esi
    2f08:	c7 45 10 44 92 02 00 	movl   $0x29244,0x10(%ebp)
    2f0f:	c7 45 0c 01 00 00 00 	movl   $0x1,0xc(%ebp)
    2f16:	c7 45 08 ff ff ff ff 	movl   $0xffffffff,0x8(%ebp)
    2f1d:	83 c4 2c             	add    $0x2c,%esp
    2f20:	5b                   	pop    %ebx
    2f21:	5e                   	pop    %esi
    2f22:	5f                   	pop    %edi
    2f23:	5d                   	pop    %ebp
    2f24:	e9 e7 19 01 00       	jmp    14910 <log_msg>
    2f29:	8d b4 26 00 00 00 00 	lea    0x0(%esi,%eiz,1),%esi
    2f30:	f6 03 0f             	testb  $0xf,(%ebx)
    2f33:	75 c6                	jne    2efb <usb_endpoint_manager_reset_eps_if_need+0x4b>
    2f35:	8d 7a 40             	lea    0x40(%edx),%edi
    2f38:	89 55 e4             	mov    %edx,-0x1c(%ebp)
    2f3b:	89 3c 24             	mov    %edi,(%esp)
    2f3e:	e8 8d d7 00 00       	call   106d0 <fibril_mutex_lock>
    2f43:	89 f0                	mov    %esi,%eax
    2f45:	83 e0 07             	and    $0x7,%eax
    2f48:	8b 55 e4             	mov    -0x1c(%ebp),%edx
    2f4b:	8d 04 c2             	lea    (%edx,%eax,8),%eax
    2f4e:	8b 58 04             	mov    0x4(%eax),%ebx
    2f51:	39 c3                	cmp    %eax,%ebx
    2f53:	75 16                	jne    2f6b <usb_endpoint_manager_reset_eps_if_need+0xbb>
    2f55:	e9 b6 00 00 00       	jmp    3010 <usb_endpoint_manager_reset_eps_if_need+0x160>
    2f5a:	8d b6 00 00 00 00    	lea    0x0(%esi),%esi
    2f60:	8b 5b 04             	mov    0x4(%ebx),%ebx
    2f63:	39 c3                	cmp    %eax,%ebx
    2f65:	0f 84 a5 00 00 00    	je     3010 <usb_endpoint_manager_reset_eps_if_need+0x160>
    2f6b:	66 3b 73 08          	cmp    0x8(%ebx),%si
    2f6f:	75 ef                	jne    2f60 <usb_endpoint_manager_reset_eps_if_need+0xb0>
    2f71:	c7 44 24 04 00 00 00 	movl   $0x0,0x4(%esp)
    2f78:	00 
    2f79:	89 1c 24             	mov    %ebx,(%esp)
    2f7c:	89 45 e0             	mov    %eax,-0x20(%ebp)
    2f7f:	e8 3c 0e 00 00       	call   3dc0 <endpoint_toggle_set>
    2f84:	8b 45 e0             	mov    -0x20(%ebp),%eax
    2f87:	eb d7                	jmp    2f60 <usb_endpoint_manager_reset_eps_if_need+0xb0>
    2f89:	8d b4 26 00 00 00 00 	lea    0x0(%esi,%eiz,1),%esi
    2f90:	8a 03                	mov    (%ebx),%al
    2f92:	83 e0 0f             	and    $0xf,%eax
    2f95:	fe c8                	dec    %al
    2f97:	0f 85 5e ff ff ff    	jne    2efb <usb_endpoint_manager_reset_eps_if_need+0x4b>
    2f9d:	8a 43 03             	mov    0x3(%ebx),%al
    2fa0:	0a 43 02             	or     0x2(%ebx),%al
    2fa3:	0f 85 52 ff ff ff    	jne    2efb <usb_endpoint_manager_reset_eps_if_need+0x4b>
    2fa9:	8d 7a 40             	lea    0x40(%edx),%edi
    2fac:	89 55 e4             	mov    %edx,-0x1c(%ebp)
    2faf:	89 3c 24             	mov    %edi,(%esp)
    2fb2:	e8 19 d7 00 00       	call   106d0 <fibril_mutex_lock>
    2fb7:	89 f0                	mov    %esi,%eax
    2fb9:	83 e0 07             	and    $0x7,%eax
    2fbc:	8b 55 e4             	mov    -0x1c(%ebp),%edx
    2fbf:	8d 14 c2             	lea    (%edx,%eax,8),%edx
    2fc2:	8b 42 04             	mov    0x4(%edx),%eax
    2fc5:	39 d0                	cmp    %edx,%eax
    2fc7:	75 0e                	jne    2fd7 <usb_endpoint_manager_reset_eps_if_need+0x127>
    2fc9:	eb 45                	jmp    3010 <usb_endpoint_manager_reset_eps_if_need+0x160>
    2fcb:	90                   	nop
    2fcc:	8d 74 26 00          	lea    0x0(%esi,%eiz,1),%esi
    2fd0:	8b 40 04             	mov    0x4(%eax),%eax
    2fd3:	39 d0                	cmp    %edx,%eax
    2fd5:	74 39                	je     3010 <usb_endpoint_manager_reset_eps_if_need+0x160>
    2fd7:	66 39 70 08          	cmp    %si,0x8(%eax)
    2fdb:	75 f3                	jne    2fd0 <usb_endpoint_manager_reset_eps_if_need+0x120>
    2fdd:	31 c9                	xor    %ecx,%ecx
    2fdf:	8a 4b 04             	mov    0x4(%ebx),%cl
    2fe2:	66 85 c9             	test   %cx,%cx
    2fe5:	66 89 48 0a          	mov    %cx,0xa(%eax)
    2fe9:	74 e5                	je     2fd0 <usb_endpoint_manager_reset_eps_if_need+0x120>
    2feb:	89 04 24             	mov    %eax,(%esp)
    2fee:	c7 44 24 04 00 00 00 	movl   $0x0,0x4(%esp)
    2ff5:	00 
    2ff6:	89 45 e0             	mov    %eax,-0x20(%ebp)
    2ff9:	89 55 e4             	mov    %edx,-0x1c(%ebp)
    2ffc:	e8 bf 0d 00 00       	call   3dc0 <endpoint_toggle_set>
    3001:	8b 55 e4             	mov    -0x1c(%ebp),%edx
    3004:	8b 45 e0             	mov    -0x20(%ebp),%eax
    3007:	eb c7                	jmp    2fd0 <usb_endpoint_manager_reset_eps_if_need+0x120>
    3009:	8d b4 26 00 00 00 00 	lea    0x0(%esi,%eiz,1),%esi
    3010:	89 7d 08             	mov    %edi,0x8(%ebp)
    3013:	83 c4 2c             	add    $0x2c,%esp
    3016:	5b                   	pop    %ebx
    3017:	5e                   	pop    %esi
    3018:	5f                   	pop    %edi
    3019:	5d                   	pop    %ebp
    301a:	e9 d1 d7 00 00       	jmp    107f0 <fibril_mutex_unlock>
    301f:	c7 44 24 08 b7 00 00 	movl   $0xb7,0x8(%esp)
    3026:	00 
    3027:	c7 44 24 04 a0 91 02 	movl   $0x291a0,0x4(%esp)
    302e:	00 
    302f:	c7 04 24 c8 90 02 00 	movl   $0x290c8,(%esp)
    3036:	e8 d5 11 02 00       	call   24210 <assert_abort>
    303b:	c7 44 24 08 bd 00 00 	movl   $0xbd,0x8(%esp)
    3042:	00 
    3043:	c7 44 24 04 a0 91 02 	movl   $0x291a0,0x4(%esp)
    304a:	00 
    304b:	c7 04 24 59 a6 02 00 	movl   $0x2a659,(%esp)
    3052:	e8 b9 11 02 00       	call   24210 <assert_abort>
    3057:	89 f6                	mov    %esi,%esi
    3059:	8d bc 27 00 00 00 00 	lea    0x0(%edi,%eiz,1),%edi

00003060 <usb_endpoint_manager_register_ep>:
    3060:	55                   	push   %ebp
    3061:	89 e5                	mov    %esp,%ebp
    3063:	57                   	push   %edi
    3064:	56                   	push   %esi
    3065:	53                   	push   %ebx
    3066:	83 ec 1c             	sub    $0x1c,%esp
    3069:	8b 75 08             	mov    0x8(%ebp),%esi
    306c:	8b 5d 0c             	mov    0xc(%ebp),%ebx
    306f:	85 f6                	test   %esi,%esi
    3071:	0f 84 a8 00 00 00    	je     311f <usb_endpoint_manager_register_ep+0xbf>
    3077:	85 db                	test   %ebx,%ebx
    3079:	0f 84 89 00 00 00    	je     3108 <usb_endpoint_manager_register_ep+0xa8>
    307f:	66 83 7b 08 00       	cmpw   $0x0,0x8(%ebx)
    3084:	0f 88 7e 00 00 00    	js     3108 <usb_endpoint_manager_register_ep+0xa8>
    308a:	8d 7e 40             	lea    0x40(%esi),%edi
    308d:	89 3c 24             	mov    %edi,(%esp)
    3090:	e8 3b d6 00 00       	call   106d0 <fibril_mutex_lock>
    3095:	8b 46 50             	mov    0x50(%esi),%eax
    3098:	39 43 1c             	cmp    %eax,0x1c(%ebx)
    309b:	77 73                	ja     3110 <usb_endpoint_manager_register_ep+0xb0>
    309d:	8b 43 0c             	mov    0xc(%ebx),%eax
    30a0:	0f bf 4b 0a          	movswl 0xa(%ebx),%ecx
    30a4:	0f bf 53 08          	movswl 0x8(%ebx),%edx
    30a8:	89 04 24             	mov    %eax,(%esp)
    30ab:	89 f0                	mov    %esi,%eax
    30ad:	e8 be fb ff ff       	call   2c70 <find_locked>
    30b2:	85 c0                	test   %eax,%eax
    30b4:	75 3a                	jne    30f0 <usb_endpoint_manager_register_ep+0x90>
    30b6:	8b 43 08             	mov    0x8(%ebx),%eax
    30b9:	66 85 c0             	test   %ax,%ax
    30bc:	78 7d                	js     313b <usb_endpoint_manager_register_ep+0xdb>
    30be:	83 e0 07             	and    $0x7,%eax
    30c1:	8d 04 c6             	lea    (%esi,%eax,8),%eax
    30c4:	89 43 04             	mov    %eax,0x4(%ebx)
    30c7:	8b 10                	mov    (%eax),%edx
    30c9:	89 13                	mov    %edx,(%ebx)
    30cb:	8b 10                	mov    (%eax),%edx
    30cd:	89 18                	mov    %ebx,(%eax)
    30cf:	8b 43 1c             	mov    0x1c(%ebx),%eax
    30d2:	89 5a 04             	mov    %ebx,0x4(%edx)
    30d5:	8b 56 50             	mov    0x50(%esi),%edx
    30d8:	29 c2                	sub    %eax,%edx
    30da:	89 56 50             	mov    %edx,0x50(%esi)
    30dd:	89 3c 24             	mov    %edi,(%esp)
    30e0:	e8 0b d7 00 00       	call   107f0 <fibril_mutex_unlock>
    30e5:	31 c0                	xor    %eax,%eax
    30e7:	83 c4 1c             	add    $0x1c,%esp
    30ea:	5b                   	pop    %ebx
    30eb:	5e                   	pop    %esi
    30ec:	5f                   	pop    %edi
    30ed:	5d                   	pop    %ebp
    30ee:	c3                   	ret    
    30ef:	90                   	nop
    30f0:	89 3c 24             	mov    %edi,(%esp)
    30f3:	e8 f8 d6 00 00       	call   107f0 <fibril_mutex_unlock>
    30f8:	83 c4 1c             	add    $0x1c,%esp
    30fb:	b8 f7 ff ff ff       	mov    $0xfffffff7,%eax
    3100:	5b                   	pop    %ebx
    3101:	5e                   	pop    %esi
    3102:	5f                   	pop    %edi
    3103:	5d                   	pop    %ebp
    3104:	c3                   	ret    
    3105:	8d 76 00             	lea    0x0(%esi),%esi
    3108:	b8 f2 ff ff ff       	mov    $0xfffffff2,%eax
    310d:	eb d8                	jmp    30e7 <usb_endpoint_manager_register_ep+0x87>
    310f:	90                   	nop
    3110:	89 3c 24             	mov    %edi,(%esp)
    3113:	e8 d8 d6 00 00       	call   107f0 <fibril_mutex_unlock>
    3118:	b8 fd fe ff ff       	mov    $0xfffffefd,%eax
    311d:	eb c8                	jmp    30e7 <usb_endpoint_manager_register_ep+0x87>
    311f:	c7 44 24 08 f0 00 00 	movl   $0xf0,0x8(%esp)
    3126:	00 
    3127:	c7 44 24 04 a0 91 02 	movl   $0x291a0,0x4(%esp)
    312e:	00 
    312f:	c7 04 24 c8 90 02 00 	movl   $0x290c8,(%esp)
    3136:	e8 d5 10 02 00       	call   24210 <assert_abort>
    313b:	c7 44 24 08 48 00 00 	movl   $0x48,0x8(%esp)
    3142:	00 
    3143:	c7 44 24 04 a0 91 02 	movl   $0x291a0,0x4(%esp)
    314a:	00 
    314b:	c7 04 24 bb 91 02 00 	movl   $0x291bb,(%esp)
    3152:	e8 b9 10 02 00       	call   24210 <assert_abort>
    3157:	89 f6                	mov    %esi,%esi
    3159:	8d bc 27 00 00 00 00 	lea    0x0(%edi,%eiz,1),%edi

00003160 <usb_endpoint_manager_unregister_ep>:
    3160:	55                   	push   %ebp
    3161:	89 e5                	mov    %esp,%ebp
    3163:	57                   	push   %edi
    3164:	56                   	push   %esi
    3165:	53                   	push   %ebx
    3166:	83 ec 1c             	sub    $0x1c,%esp
    3169:	8b 75 08             	mov    0x8(%ebp),%esi
    316c:	8b 5d 0c             	mov    0xc(%ebp),%ebx
    316f:	85 f6                	test   %esi,%esi
    3171:	0f 84 8e 00 00 00    	je     3205 <usb_endpoint_manager_unregister_ep+0xa5>
    3177:	85 db                	test   %ebx,%ebx
    3179:	74 75                	je     31f0 <usb_endpoint_manager_unregister_ep+0x90>
    317b:	66 83 7b 08 00       	cmpw   $0x0,0x8(%ebx)
    3180:	78 6e                	js     31f0 <usb_endpoint_manager_unregister_ep+0x90>
    3182:	8d 7e 40             	lea    0x40(%esi),%edi
    3185:	89 3c 24             	mov    %edi,(%esp)
    3188:	e8 43 d5 00 00       	call   106d0 <fibril_mutex_lock>
    318d:	8b 43 08             	mov    0x8(%ebx),%eax
    3190:	66 85 c0             	test   %ax,%ax
    3193:	0f 88 88 00 00 00    	js     3221 <usb_endpoint_manager_unregister_ep+0xc1>
    3199:	83 e0 07             	and    $0x7,%eax
    319c:	89 1c 24             	mov    %ebx,(%esp)
    319f:	8d 04 c6             	lea    (%esi,%eax,8),%eax
    31a2:	89 44 24 04          	mov    %eax,0x4(%esp)
    31a6:	e8 25 c3 01 00       	call   1f4d0 <list_member>
    31ab:	85 c0                	test   %eax,%eax
    31ad:	74 49                	je     31f8 <usb_endpoint_manager_unregister_ep+0x98>
    31af:	8b 13                	mov    (%ebx),%edx
    31b1:	85 d2                	test   %edx,%edx
    31b3:	74 0e                	je     31c3 <usb_endpoint_manager_unregister_ep+0x63>
    31b5:	8b 43 04             	mov    0x4(%ebx),%eax
    31b8:	85 c0                	test   %eax,%eax
    31ba:	74 07                	je     31c3 <usb_endpoint_manager_unregister_ep+0x63>
    31bc:	89 10                	mov    %edx,(%eax)
    31be:	8b 13                	mov    (%ebx),%edx
    31c0:	89 42 04             	mov    %eax,0x4(%edx)
    31c3:	8b 43 1c             	mov    0x1c(%ebx),%eax
    31c6:	8b 4e 50             	mov    0x50(%esi),%ecx
    31c9:	01 c1                	add    %eax,%ecx
    31cb:	c7 03 00 00 00 00    	movl   $0x0,(%ebx)
    31d1:	c7 43 04 00 00 00 00 	movl   $0x0,0x4(%ebx)
    31d8:	89 4e 50             	mov    %ecx,0x50(%esi)
    31db:	89 3c 24             	mov    %edi,(%esp)
    31de:	e8 0d d6 00 00       	call   107f0 <fibril_mutex_unlock>
    31e3:	31 c0                	xor    %eax,%eax
    31e5:	83 c4 1c             	add    $0x1c,%esp
    31e8:	5b                   	pop    %ebx
    31e9:	5e                   	pop    %esi
    31ea:	5f                   	pop    %edi
    31eb:	5d                   	pop    %ebp
    31ec:	c3                   	ret    
    31ed:	8d 76 00             	lea    0x0(%esi),%esi
    31f0:	b8 f2 ff ff ff       	mov    $0xfffffff2,%eax
    31f5:	eb ee                	jmp    31e5 <usb_endpoint_manager_unregister_ep+0x85>
    31f7:	90                   	nop
    31f8:	89 3c 24             	mov    %edi,(%esp)
    31fb:	e8 f0 d5 00 00       	call   107f0 <fibril_mutex_unlock>
    3200:	83 c8 ff             	or     $0xffffffff,%eax
    3203:	eb e0                	jmp    31e5 <usb_endpoint_manager_unregister_ep+0x85>
    3205:	c7 44 24 08 12 01 00 	movl   $0x112,0x8(%esp)
    320c:	00 
    320d:	c7 44 24 04 a0 91 02 	movl   $0x291a0,0x4(%esp)
    3214:	00 
    3215:	c7 04 24 c8 90 02 00 	movl   $0x290c8,(%esp)
    321c:	e8 ef 0f 02 00       	call   24210 <assert_abort>
    3221:	c7 44 24 08 48 00 00 	movl   $0x48,0x8(%esp)
    3228:	00 
    3229:	c7 44 24 04 a0 91 02 	movl   $0x291a0,0x4(%esp)
    3230:	00 
    3231:	c7 04 24 bb 91 02 00 	movl   $0x291bb,(%esp)
    3238:	e8 d3 0f 02 00       	call   24210 <assert_abort>
    323d:	8d 76 00             	lea    0x0(%esi),%esi

00003240 <usb_endpoint_manager_find_ep>:
    3240:	55                   	push   %ebp
    3241:	89 e5                	mov    %esp,%ebp
    3243:	57                   	push   %edi
    3244:	56                   	push   %esi
    3245:	53                   	push   %ebx
    3246:	83 ec 2c             	sub    $0x2c,%esp
    3249:	8b 45 08             	mov    0x8(%ebp),%eax
    324c:	8b 75 0c             	mov    0xc(%ebp),%esi
    324f:	8b 7d 10             	mov    0x10(%ebp),%edi
    3252:	85 c0                	test   %eax,%eax
    3254:	74 38                	je     328e <usb_endpoint_manager_find_ep+0x4e>
    3256:	8d 58 40             	lea    0x40(%eax),%ebx
    3259:	89 45 e4             	mov    %eax,-0x1c(%ebp)
    325c:	89 1c 24             	mov    %ebx,(%esp)
    325f:	e8 6c d4 00 00       	call   106d0 <fibril_mutex_lock>
    3264:	8b 45 e4             	mov    -0x1c(%ebp),%eax
    3267:	0f bf d6             	movswl %si,%edx
    326a:	8b 75 14             	mov    0x14(%ebp),%esi
    326d:	0f bf cf             	movswl %di,%ecx
    3270:	89 34 24             	mov    %esi,(%esp)
    3273:	e8 f8 f9 ff ff       	call   2c70 <find_locked>
    3278:	89 1c 24             	mov    %ebx,(%esp)
    327b:	89 45 e4             	mov    %eax,-0x1c(%ebp)
    327e:	e8 6d d5 00 00       	call   107f0 <fibril_mutex_unlock>
    3283:	8b 45 e4             	mov    -0x1c(%ebp),%eax
    3286:	83 c4 2c             	add    $0x2c,%esp
    3289:	5b                   	pop    %ebx
    328a:	5e                   	pop    %esi
    328b:	5f                   	pop    %edi
    328c:	5d                   	pop    %ebp
    328d:	c3                   	ret    
    328e:	c7 44 24 08 28 01 00 	movl   $0x128,0x8(%esp)
    3295:	00 
    3296:	c7 44 24 04 a0 91 02 	movl   $0x291a0,0x4(%esp)
    329d:	00 
    329e:	c7 04 24 c8 90 02 00 	movl   $0x290c8,(%esp)
    32a5:	e8 66 0f 02 00       	call   24210 <assert_abort>
    32aa:	8d b6 00 00 00 00    	lea    0x0(%esi),%esi

000032b0 <usb_endpoint_manager_add_ep>:
    32b0:	55                   	push   %ebp
    32b1:	89 e5                	mov    %esp,%ebp
    32b3:	57                   	push   %edi
    32b4:	56                   	push   %esi
    32b5:	53                   	push   %ebx
    32b6:	83 ec 3c             	sub    $0x3c,%esp
    32b9:	8b 45 08             	mov    0x8(%ebp),%eax
    32bc:	0f bf 75 0c          	movswl 0xc(%ebp),%esi
    32c0:	0f bf 7d 10          	movswl 0x10(%ebp),%edi
    32c4:	85 c0                	test   %eax,%eax
    32c6:	0f 84 7f 01 00 00    	je     344b <usb_endpoint_manager_add_ep+0x19b>
    32cc:	8b 55 08             	mov    0x8(%ebp),%edx
    32cf:	8b 42 54             	mov    0x54(%edx),%eax
    32d2:	85 c0                	test   %eax,%eax
    32d4:	0f 84 55 01 00 00    	je     342f <usb_endpoint_manager_add_ep+0x17f>
    32da:	66 85 f6             	test   %si,%si
    32dd:	0f 88 45 01 00 00    	js     3428 <usb_endpoint_manager_add_ep+0x178>
    32e3:	8b 55 20             	mov    0x20(%ebp),%edx
    32e6:	89 54 24 0c          	mov    %edx,0xc(%esp)
    32ea:	8b 55 24             	mov    0x24(%ebp),%edx
    32ed:	89 54 24 08          	mov    %edx,0x8(%esp)
    32f1:	8b 55 18             	mov    0x18(%ebp),%edx
    32f4:	89 54 24 04          	mov    %edx,0x4(%esp)
    32f8:	8b 55 1c             	mov    0x1c(%ebp),%edx
    32fb:	89 14 24             	mov    %edx,(%esp)
    32fe:	ff d0                	call   *%eax
    3300:	89 c3                	mov    %eax,%ebx
    3302:	8b 45 08             	mov    0x8(%ebp),%eax
    3305:	83 c0 40             	add    $0x40,%eax
    3308:	89 04 24             	mov    %eax,(%esp)
    330b:	89 45 e4             	mov    %eax,-0x1c(%ebp)
    330e:	e8 bd d3 00 00       	call   106d0 <fibril_mutex_lock>
    3313:	8b 55 08             	mov    0x8(%ebp),%edx
    3316:	3b 5a 50             	cmp    0x50(%edx),%ebx
    3319:	0f 87 f1 00 00 00    	ja     3410 <usb_endpoint_manager_add_ep+0x160>
    331f:	89 d0                	mov    %edx,%eax
    3321:	8b 55 14             	mov    0x14(%ebp),%edx
    3324:	89 14 24             	mov    %edx,(%esp)
    3327:	89 f9                	mov    %edi,%ecx
    3329:	89 f2                	mov    %esi,%edx
    332b:	e8 40 f9 ff ff       	call   2c70 <find_locked>
    3330:	85 c0                	test   %eax,%eax
    3332:	0f 85 c0 00 00 00    	jne    33f8 <usb_endpoint_manager_add_ep+0x148>
    3338:	8b 55 20             	mov    0x20(%ebp),%edx
    333b:	8b 45 1c             	mov    0x1c(%ebp),%eax
    333e:	89 54 24 14          	mov    %edx,0x14(%esp)
    3342:	89 44 24 10          	mov    %eax,0x10(%esp)
    3346:	8b 55 18             	mov    0x18(%ebp),%edx
    3349:	8b 45 14             	mov    0x14(%ebp),%eax
    334c:	89 5c 24 18          	mov    %ebx,0x18(%esp)
    3350:	89 54 24 0c          	mov    %edx,0xc(%esp)
    3354:	89 44 24 08          	mov    %eax,0x8(%esp)
    3358:	89 7c 24 04          	mov    %edi,0x4(%esp)
    335c:	89 34 24             	mov    %esi,(%esp)
    335f:	e8 1c 07 00 00       	call   3a80 <endpoint_create>
    3364:	89 c3                	mov    %eax,%ebx
    3366:	85 c0                	test   %eax,%eax
    3368:	0f 84 c8 00 00 00    	je     3436 <usb_endpoint_manager_add_ep+0x186>
    336e:	8b 75 28             	mov    0x28(%ebp),%esi
    3371:	85 f6                	test   %esi,%esi
    3373:	74 13                	je     3388 <usb_endpoint_manager_add_ep+0xd8>
    3375:	8b 45 2c             	mov    0x2c(%ebp),%eax
    3378:	89 1c 24             	mov    %ebx,(%esp)
    337b:	89 44 24 04          	mov    %eax,0x4(%esp)
    337f:	8b 55 28             	mov    0x28(%ebp),%edx
    3382:	ff d2                	call   *%edx
    3384:	85 c0                	test   %eax,%eax
    3386:	75 48                	jne    33d0 <usb_endpoint_manager_add_ep+0x120>
    3388:	8b 43 08             	mov    0x8(%ebx),%eax
    338b:	66 85 c0             	test   %ax,%ax
    338e:	0f 88 d3 00 00 00    	js     3467 <usb_endpoint_manager_add_ep+0x1b7>
    3394:	8b 55 08             	mov    0x8(%ebp),%edx
    3397:	83 e0 07             	and    $0x7,%eax
    339a:	8d 04 c2             	lea    (%edx,%eax,8),%eax
    339d:	89 43 04             	mov    %eax,0x4(%ebx)
    33a0:	8b 10                	mov    (%eax),%edx
    33a2:	89 13                	mov    %edx,(%ebx)
    33a4:	8b 10                	mov    (%eax),%edx
    33a6:	89 18                	mov    %ebx,(%eax)
    33a8:	8b 43 1c             	mov    0x1c(%ebx),%eax
    33ab:	89 5a 04             	mov    %ebx,0x4(%edx)
    33ae:	8b 55 08             	mov    0x8(%ebp),%edx
    33b1:	8b 5a 50             	mov    0x50(%edx),%ebx
    33b4:	29 c3                	sub    %eax,%ebx
    33b6:	8b 45 e4             	mov    -0x1c(%ebp),%eax
    33b9:	89 5a 50             	mov    %ebx,0x50(%edx)
    33bc:	89 04 24             	mov    %eax,(%esp)
    33bf:	e8 2c d4 00 00       	call   107f0 <fibril_mutex_unlock>
    33c4:	31 c0                	xor    %eax,%eax
    33c6:	83 c4 3c             	add    $0x3c,%esp
    33c9:	5b                   	pop    %ebx
    33ca:	5e                   	pop    %esi
    33cb:	5f                   	pop    %edi
    33cc:	5d                   	pop    %ebp
    33cd:	c3                   	ret    
    33ce:	66 90                	xchg   %ax,%ax
    33d0:	8b 55 e4             	mov    -0x1c(%ebp),%edx
    33d3:	89 45 e0             	mov    %eax,-0x20(%ebp)
    33d6:	89 14 24             	mov    %edx,(%esp)
    33d9:	e8 12 d4 00 00       	call   107f0 <fibril_mutex_unlock>
    33de:	89 1c 24             	mov    %ebx,(%esp)
    33e1:	e8 3a 07 00 00       	call   3b20 <endpoint_destroy>
    33e6:	8b 45 e0             	mov    -0x20(%ebp),%eax
    33e9:	83 c4 3c             	add    $0x3c,%esp
    33ec:	5b                   	pop    %ebx
    33ed:	5e                   	pop    %esi
    33ee:	5f                   	pop    %edi
    33ef:	5d                   	pop    %ebp
    33f0:	c3                   	ret    
    33f1:	8d b4 26 00 00 00 00 	lea    0x0(%esi,%eiz,1),%esi
    33f8:	8b 45 e4             	mov    -0x1c(%ebp),%eax
    33fb:	89 04 24             	mov    %eax,(%esp)
    33fe:	e8 ed d3 00 00       	call   107f0 <fibril_mutex_unlock>
    3403:	83 c4 3c             	add    $0x3c,%esp
    3406:	b8 f7 ff ff ff       	mov    $0xfffffff7,%eax
    340b:	5b                   	pop    %ebx
    340c:	5e                   	pop    %esi
    340d:	5f                   	pop    %edi
    340e:	5d                   	pop    %ebp
    340f:	c3                   	ret    
    3410:	8b 45 e4             	mov    -0x1c(%ebp),%eax
    3413:	89 04 24             	mov    %eax,(%esp)
    3416:	e8 d5 d3 00 00       	call   107f0 <fibril_mutex_unlock>
    341b:	b8 fd fe ff ff       	mov    $0xfffffefd,%eax
    3420:	eb a4                	jmp    33c6 <usb_endpoint_manager_add_ep+0x116>
    3422:	8d b6 00 00 00 00    	lea    0x0(%esi),%esi
    3428:	b8 f2 ff ff ff       	mov    $0xfffffff2,%eax
    342d:	eb 97                	jmp    33c6 <usb_endpoint_manager_add_ep+0x116>
    342f:	b8 f5 ff ff ff       	mov    $0xfffffff5,%eax
    3434:	eb 90                	jmp    33c6 <usb_endpoint_manager_add_ep+0x116>
    3436:	8b 55 e4             	mov    -0x1c(%ebp),%edx
    3439:	89 14 24             	mov    %edx,(%esp)
    343c:	e8 af d3 00 00       	call   107f0 <fibril_mutex_unlock>
    3441:	b8 fe ff ff ff       	mov    $0xfffffffe,%eax
    3446:	e9 7b ff ff ff       	jmp    33c6 <usb_endpoint_manager_add_ep+0x116>
    344b:	c7 44 24 08 42 01 00 	movl   $0x142,0x8(%esp)
    3452:	00 
    3453:	c7 44 24 04 a0 91 02 	movl   $0x291a0,0x4(%esp)
    345a:	00 
    345b:	c7 04 24 c8 90 02 00 	movl   $0x290c8,(%esp)
    3462:	e8 a9 0d 02 00       	call   24210 <assert_abort>
    3467:	c7 44 24 08 48 00 00 	movl   $0x48,0x8(%esp)
    346e:	00 
    346f:	c7 44 24 04 a0 91 02 	movl   $0x291a0,0x4(%esp)
    3476:	00 
    3477:	c7 04 24 bb 91 02 00 	movl   $0x291bb,(%esp)
    347e:	e8 8d 0d 02 00       	call   24210 <assert_abort>
    3483:	8d b6 00 00 00 00    	lea    0x0(%esi),%esi
    3489:	8d bc 27 00 00 00 00 	lea    0x0(%edi,%eiz,1),%edi

00003490 <usb_endpoint_manager_remove_ep>:
    3490:	55                   	push   %ebp
    3491:	89 e5                	mov    %esp,%ebp
    3493:	57                   	push   %edi
    3494:	56                   	push   %esi
    3495:	53                   	push   %ebx
    3496:	83 ec 2c             	sub    $0x2c,%esp
    3499:	8b 5d 08             	mov    0x8(%ebp),%ebx
    349c:	8b 75 0c             	mov    0xc(%ebp),%esi
    349f:	8b 7d 10             	mov    0x10(%ebp),%edi
    34a2:	85 db                	test   %ebx,%ebx
    34a4:	0f 84 9c 00 00 00    	je     3546 <usb_endpoint_manager_remove_ep+0xb6>
    34aa:	8d 43 40             	lea    0x40(%ebx),%eax
    34ad:	89 04 24             	mov    %eax,(%esp)
    34b0:	89 45 e4             	mov    %eax,-0x1c(%ebp)
    34b3:	e8 18 d2 00 00       	call   106d0 <fibril_mutex_lock>
    34b8:	8b 45 14             	mov    0x14(%ebp),%eax
    34bb:	0f bf d6             	movswl %si,%edx
    34be:	89 04 24             	mov    %eax,(%esp)
    34c1:	89 d8                	mov    %ebx,%eax
    34c3:	0f bf cf             	movswl %di,%ecx
    34c6:	e8 a5 f7 ff ff       	call   2c70 <find_locked>
    34cb:	89 c6                	mov    %eax,%esi
    34cd:	85 c0                	test   %eax,%eax
    34cf:	74 5f                	je     3530 <usb_endpoint_manager_remove_ep+0xa0>
    34d1:	8b 10                	mov    (%eax),%edx
    34d3:	85 d2                	test   %edx,%edx
    34d5:	74 0e                	je     34e5 <usb_endpoint_manager_remove_ep+0x55>
    34d7:	8b 40 04             	mov    0x4(%eax),%eax
    34da:	85 c0                	test   %eax,%eax
    34dc:	74 07                	je     34e5 <usb_endpoint_manager_remove_ep+0x55>
    34de:	89 10                	mov    %edx,(%eax)
    34e0:	8b 16                	mov    (%esi),%edx
    34e2:	89 42 04             	mov    %eax,0x4(%edx)
    34e5:	8b 46 1c             	mov    0x1c(%esi),%eax
    34e8:	8b 53 50             	mov    0x50(%ebx),%edx
    34eb:	01 c2                	add    %eax,%edx
    34ed:	8b 45 e4             	mov    -0x1c(%ebp),%eax
    34f0:	c7 06 00 00 00 00    	movl   $0x0,(%esi)
    34f6:	c7 46 04 00 00 00 00 	movl   $0x0,0x4(%esi)
    34fd:	89 53 50             	mov    %edx,0x50(%ebx)
    3500:	89 04 24             	mov    %eax,(%esp)
    3503:	e8 e8 d2 00 00       	call   107f0 <fibril_mutex_unlock>
    3508:	8b 4d 18             	mov    0x18(%ebp),%ecx
    350b:	85 c9                	test   %ecx,%ecx
    350d:	74 0f                	je     351e <usb_endpoint_manager_remove_ep+0x8e>
    350f:	8b 45 1c             	mov    0x1c(%ebp),%eax
    3512:	89 34 24             	mov    %esi,(%esp)
    3515:	89 44 24 04          	mov    %eax,0x4(%esp)
    3519:	8b 45 18             	mov    0x18(%ebp),%eax
    351c:	ff d0                	call   *%eax
    351e:	89 34 24             	mov    %esi,(%esp)
    3521:	e8 fa 05 00 00       	call   3b20 <endpoint_destroy>
    3526:	83 c4 2c             	add    $0x2c,%esp
    3529:	31 c0                	xor    %eax,%eax
    352b:	5b                   	pop    %ebx
    352c:	5e                   	pop    %esi
    352d:	5f                   	pop    %edi
    352e:	5d                   	pop    %ebp
    352f:	c3                   	ret    
    3530:	8b 45 e4             	mov    -0x1c(%ebp),%eax
    3533:	89 04 24             	mov    %eax,(%esp)
    3536:	e8 b5 d2 00 00       	call   107f0 <fibril_mutex_unlock>
    353b:	83 c4 2c             	add    $0x2c,%esp
    353e:	83 c8 ff             	or     $0xffffffff,%eax
    3541:	5b                   	pop    %ebx
    3542:	5e                   	pop    %esi
    3543:	5f                   	pop    %edi
    3544:	5d                   	pop    %ebp
    3545:	c3                   	ret    
    3546:	c7 44 24 08 7c 01 00 	movl   $0x17c,0x8(%esp)
    354d:	00 
    354e:	c7 44 24 04 a0 91 02 	movl   $0x291a0,0x4(%esp)
    3555:	00 
    3556:	c7 04 24 c8 90 02 00 	movl   $0x290c8,(%esp)
    355d:	e8 ae 0c 02 00       	call   24210 <assert_abort>
    3562:	8d b4 26 00 00 00 00 	lea    0x0(%esi,%eiz,1),%esi
    3569:	8d bc 27 00 00 00 00 	lea    0x0(%edi,%eiz,1),%edi

00003570 <usb_endpoint_manager_remove_address>:
    3570:	55                   	push   %ebp
    3571:	89 e5                	mov    %esp,%ebp
    3573:	57                   	push   %edi
    3574:	56                   	push   %esi
    3575:	53                   	push   %ebx
    3576:	83 ec 2c             	sub    $0x2c,%esp
    3579:	8b 45 10             	mov    0x10(%ebp),%eax
    357c:	8b 55 14             	mov    0x14(%ebp),%edx
    357f:	8b 7d 0c             	mov    0xc(%ebp),%edi
    3582:	8b 5d 08             	mov    0x8(%ebp),%ebx
    3585:	89 45 e4             	mov    %eax,-0x1c(%ebp)
    3588:	89 55 dc             	mov    %edx,-0x24(%ebp)
    358b:	66 85 ff             	test   %di,%di
    358e:	0f 88 de 00 00 00    	js     3672 <usb_endpoint_manager_remove_address+0x102>
    3594:	85 db                	test   %ebx,%ebx
    3596:	0f 84 f2 00 00 00    	je     368e <usb_endpoint_manager_remove_address+0x11e>
    359c:	8d 43 40             	lea    0x40(%ebx),%eax
    359f:	89 04 24             	mov    %eax,(%esp)
    35a2:	89 45 e0             	mov    %eax,-0x20(%ebp)
    35a5:	e8 26 d1 00 00       	call   106d0 <fibril_mutex_lock>
    35aa:	89 fa                	mov    %edi,%edx
    35ac:	83 e2 07             	and    $0x7,%edx
    35af:	8d 34 d3             	lea    (%ebx,%edx,8),%esi
    35b2:	8b 5e 04             	mov    0x4(%esi),%ebx
    35b5:	39 f3                	cmp    %esi,%ebx
    35b7:	74 67                	je     3620 <usb_endpoint_manager_remove_address+0xb0>
    35b9:	89 f0                	mov    %esi,%eax
    35bb:	8b 75 e4             	mov    -0x1c(%ebp),%esi
    35be:	85 f6                	test   %esi,%esi
    35c0:	75 0d                	jne    35cf <usb_endpoint_manager_remove_address+0x5f>
    35c2:	e9 a3 00 00 00       	jmp    366a <usb_endpoint_manager_remove_address+0xfa>
    35c7:	90                   	nop
    35c8:	8b 5b 04             	mov    0x4(%ebx),%ebx
    35cb:	39 c3                	cmp    %eax,%ebx
    35cd:	74 51                	je     3620 <usb_endpoint_manager_remove_address+0xb0>
    35cf:	66 39 7b 08          	cmp    %di,0x8(%ebx)
    35d3:	75 f3                	jne    35c8 <usb_endpoint_manager_remove_address+0x58>
    35d5:	8b 0b                	mov    (%ebx),%ecx
    35d7:	8b 73 04             	mov    0x4(%ebx),%esi
    35da:	85 c9                	test   %ecx,%ecx
    35dc:	74 0b                	je     35e9 <usb_endpoint_manager_remove_address+0x79>
    35de:	85 f6                	test   %esi,%esi
    35e0:	74 07                	je     35e9 <usb_endpoint_manager_remove_address+0x79>
    35e2:	89 0e                	mov    %ecx,(%esi)
    35e4:	8b 0b                	mov    (%ebx),%ecx
    35e6:	89 71 04             	mov    %esi,0x4(%ecx)
    35e9:	8b 55 dc             	mov    -0x24(%ebp),%edx
    35ec:	c7 03 00 00 00 00    	movl   $0x0,(%ebx)
    35f2:	c7 43 04 00 00 00 00 	movl   $0x0,0x4(%ebx)
    35f9:	89 45 d8             	mov    %eax,-0x28(%ebp)
    35fc:	89 54 24 04          	mov    %edx,0x4(%esp)
    3600:	89 1c 24             	mov    %ebx,(%esp)
    3603:	8b 55 e4             	mov    -0x1c(%ebp),%edx
    3606:	ff d2                	call   *%edx
    3608:	89 1c 24             	mov    %ebx,(%esp)
    360b:	89 f3                	mov    %esi,%ebx
    360d:	e8 0e 05 00 00       	call   3b20 <endpoint_destroy>
    3612:	8b 45 d8             	mov    -0x28(%ebp),%eax
    3615:	8b 5b 04             	mov    0x4(%ebx),%ebx
    3618:	39 c3                	cmp    %eax,%ebx
    361a:	75 b3                	jne    35cf <usb_endpoint_manager_remove_address+0x5f>
    361c:	8d 74 26 00          	lea    0x0(%esi,%eiz,1),%esi
    3620:	8b 55 e0             	mov    -0x20(%ebp),%edx
    3623:	89 55 08             	mov    %edx,0x8(%ebp)
    3626:	83 c4 2c             	add    $0x2c,%esp
    3629:	5b                   	pop    %ebx
    362a:	5e                   	pop    %esi
    362b:	5f                   	pop    %edi
    362c:	5d                   	pop    %ebp
    362d:	e9 be d1 00 00       	jmp    107f0 <fibril_mutex_unlock>
    3632:	8b 13                	mov    (%ebx),%edx
    3634:	8b 73 04             	mov    0x4(%ebx),%esi
    3637:	85 d2                	test   %edx,%edx
    3639:	74 0b                	je     3646 <usb_endpoint_manager_remove_address+0xd6>
    363b:	85 f6                	test   %esi,%esi
    363d:	74 07                	je     3646 <usb_endpoint_manager_remove_address+0xd6>
    363f:	89 16                	mov    %edx,(%esi)
    3641:	8b 13                	mov    (%ebx),%edx
    3643:	89 72 04             	mov    %esi,0x4(%edx)
    3646:	c7 03 00 00 00 00    	movl   $0x0,(%ebx)
    364c:	c7 43 04 00 00 00 00 	movl   $0x0,0x4(%ebx)
    3653:	89 1c 24             	mov    %ebx,(%esp)
    3656:	89 45 d8             	mov    %eax,-0x28(%ebp)
    3659:	89 f3                	mov    %esi,%ebx
    365b:	e8 c0 04 00 00       	call   3b20 <endpoint_destroy>
    3660:	8b 45 d8             	mov    -0x28(%ebp),%eax
    3663:	8b 5b 04             	mov    0x4(%ebx),%ebx
    3666:	39 c3                	cmp    %eax,%ebx
    3668:	74 b6                	je     3620 <usb_endpoint_manager_remove_address+0xb0>
    366a:	66 39 7b 08          	cmp    %di,0x8(%ebx)
    366e:	75 f3                	jne    3663 <usb_endpoint_manager_remove_address+0xf3>
    3670:	eb c0                	jmp    3632 <usb_endpoint_manager_remove_address+0xc2>
    3672:	c7 44 24 08 9a 01 00 	movl   $0x19a,0x8(%esp)
    3679:	00 
    367a:	c7 44 24 04 a0 91 02 	movl   $0x291a0,0x4(%esp)
    3681:	00 
    3682:	c7 04 24 c5 91 02 00 	movl   $0x291c5,(%esp)
    3689:	e8 82 0b 02 00       	call   24210 <assert_abort>
    368e:	c7 44 24 08 9b 01 00 	movl   $0x19b,0x8(%esp)
    3695:	00 
    3696:	c7 44 24 04 a0 91 02 	movl   $0x291a0,0x4(%esp)
    369d:	00 
    369e:	c7 04 24 c8 90 02 00 	movl   $0x290c8,(%esp)
    36a5:	e8 66 0b 02 00       	call   24210 <assert_abort>

000036aa <get_list.part.0>:
    36aa:	55                   	push   %ebp
    36ab:	89 e5                	mov    %esp,%ebp
    36ad:	83 ec 18             	sub    $0x18,%esp
    36b0:	c7 44 24 08 47 00 00 	movl   $0x47,0x8(%esp)
    36b7:	00 
    36b8:	c7 44 24 04 a0 91 02 	movl   $0x291a0,0x4(%esp)
    36bf:	00 
    36c0:	c7 04 24 c8 90 02 00 	movl   $0x290c8,(%esp)
    36c7:	e8 44 0b 02 00       	call   24210 <assert_abort>
    36cc:	66 90                	xchg   %ax,%ax
    36ce:	66 90                	xchg   %ax,%ax

000036d0 <usb_transfer_batch_create>:
    36d0:	55                   	push   %ebp
    36d1:	89 e5                	mov    %esp,%ebp
    36d3:	57                   	push   %edi
    36d4:	56                   	push   %esi
    36d5:	53                   	push   %ebx
    36d6:	83 ec 2c             	sub    $0x2c,%esp
    36d9:	8b 45 14             	mov    0x14(%ebp),%eax
    36dc:	8b 75 20             	mov    0x20(%ebp),%esi
    36df:	89 45 e0             	mov    %eax,-0x20(%ebp)
    36e2:	8b 45 18             	mov    0x18(%ebp),%eax
    36e5:	8b 7d 08             	mov    0x8(%ebp),%edi
    36e8:	89 45 e4             	mov    %eax,-0x1c(%ebp)
    36eb:	85 f6                	test   %esi,%esi
    36ed:	0f 84 c5 00 00 00    	je     37b8 <usb_transfer_batch_create+0xe8>
    36f3:	85 f6                	test   %esi,%esi
    36f5:	75 79                	jne    3770 <usb_transfer_batch_create+0xa0>
    36f7:	c7 04 24 38 00 00 00 	movl   $0x38,(%esp)
    36fe:	e8 ad 62 01 00       	call   199b0 <malloc>
    3703:	89 c3                	mov    %eax,%ebx
    3705:	85 c0                	test   %eax,%eax
    3707:	74 6e                	je     3777 <usb_transfer_batch_create+0xa7>
    3709:	89 38                	mov    %edi,(%eax)
    370b:	8b 45 1c             	mov    0x1c(%ebp),%eax
    370e:	89 43 04             	mov    %eax,0x4(%ebx)
    3711:	8b 45 24             	mov    0x24(%ebp),%eax
    3714:	89 43 0c             	mov    %eax,0xc(%ebx)
    3717:	8b 45 0c             	mov    0xc(%ebp),%eax
    371a:	89 43 10             	mov    %eax,0x10(%ebx)
    371d:	8b 45 10             	mov    0x10(%ebp),%eax
    3720:	89 43 14             	mov    %eax,0x14(%ebx)
    3723:	8b 45 28             	mov    0x28(%ebp),%eax
    3726:	89 43 24             	mov    %eax,0x24(%ebx)
    3729:	8b 45 2c             	mov    0x2c(%ebp),%eax
    372c:	89 43 30             	mov    %eax,0x30(%ebx)
    372f:	8b 45 30             	mov    0x30(%ebp),%eax
    3732:	89 73 08             	mov    %esi,0x8(%ebx)
    3735:	c7 43 20 00 00 00 00 	movl   $0x0,0x20(%ebx)
    373c:	89 43 34             	mov    %eax,0x34(%ebx)
    373f:	c7 43 28 00 00 00 00 	movl   $0x0,0x28(%ebx)
    3746:	c7 43 2c 00 00 00 00 	movl   $0x0,0x2c(%ebx)
    374d:	85 ff                	test   %edi,%edi
    374f:	74 0f                	je     3760 <usb_transfer_batch_create+0x90>
    3751:	8b 47 10             	mov    0x10(%edi),%eax
    3754:	85 c0                	test   %eax,%eax
    3756:	74 30                	je     3788 <usb_transfer_batch_create+0xb8>
    3758:	89 3c 24             	mov    %edi,(%esp)
    375b:	e8 10 05 00 00       	call   3c70 <endpoint_use>
    3760:	83 c4 2c             	add    $0x2c,%esp
    3763:	89 d8                	mov    %ebx,%eax
    3765:	5b                   	pop    %ebx
    3766:	5e                   	pop    %esi
    3767:	5f                   	pop    %edi
    3768:	5d                   	pop    %ebp
    3769:	c3                   	ret    
    376a:	8d b6 00 00 00 00    	lea    0x0(%esi),%esi
    3770:	8b 55 1c             	mov    0x1c(%ebp),%edx
    3773:	85 d2                	test   %edx,%edx
    3775:	74 80                	je     36f7 <usb_transfer_batch_create+0x27>
    3777:	31 db                	xor    %ebx,%ebx
    3779:	83 c4 2c             	add    $0x2c,%esp
    377c:	89 d8                	mov    %ebx,%eax
    377e:	5b                   	pop    %ebx
    377f:	5e                   	pop    %esi
    3780:	5f                   	pop    %edi
    3781:	5d                   	pop    %ebp
    3782:	c3                   	ret    
    3783:	90                   	nop
    3784:	8d 74 26 00          	lea    0x0(%esi,%eiz,1),%esi
    3788:	8d 45 e0             	lea    -0x20(%ebp),%eax
    378b:	c7 44 24 08 08 00 00 	movl   $0x8,0x8(%esp)
    3792:	00 
    3793:	89 44 24 04          	mov    %eax,0x4(%esp)
    3797:	8d 43 18             	lea    0x18(%ebx),%eax
    379a:	89 04 24             	mov    %eax,(%esp)
    379d:	e8 4e 8e 00 00       	call   c5f0 <memcpy>
    37a2:	8b 3b                	mov    (%ebx),%edi
    37a4:	c7 43 20 08 00 00 00 	movl   $0x8,0x20(%ebx)
    37ab:	85 ff                	test   %edi,%edi
    37ad:	74 b1                	je     3760 <usb_transfer_batch_create+0x90>
    37af:	eb a7                	jmp    3758 <usb_transfer_batch_create+0x88>
    37b1:	8d b4 26 00 00 00 00 	lea    0x0(%esi,%eiz,1),%esi
    37b8:	8b 4d 1c             	mov    0x1c(%ebp),%ecx
    37bb:	85 c9                	test   %ecx,%ecx
    37bd:	0f 85 30 ff ff ff    	jne    36f3 <usb_transfer_batch_create+0x23>
    37c3:	31 db                	xor    %ebx,%ebx
    37c5:	eb b2                	jmp    3779 <usb_transfer_batch_create+0xa9>
    37c7:	89 f6                	mov    %esi,%esi
    37c9:	8d bc 27 00 00 00 00 	lea    0x0(%edi,%eiz,1),%edi

000037d0 <usb_transfer_batch_destroy>:
    37d0:	55                   	push   %ebp
    37d1:	89 e5                	mov    %esp,%ebp
    37d3:	57                   	push   %edi
    37d4:	56                   	push   %esi
    37d5:	53                   	push   %ebx
    37d6:	83 ec 4c             	sub    $0x4c,%esp
    37d9:	8b 5d 08             	mov    0x8(%ebp),%ebx
    37dc:	85 db                	test   %ebx,%ebx
    37de:	0f 84 b4 00 00 00    	je     3898 <usb_transfer_batch_destroy+0xc8>
    37e4:	8b 03                	mov    (%ebx),%eax
    37e6:	8b 53 14             	mov    0x14(%ebx),%edx
    37e9:	89 55 e4             	mov    %edx,-0x1c(%ebp)
    37ec:	8b 48 18             	mov    0x18(%eax),%ecx
    37ef:	8b 40 0c             	mov    0xc(%eax),%eax
    37f2:	89 04 24             	mov    %eax,(%esp)
    37f5:	89 4d e0             	mov    %ecx,-0x20(%ebp)
    37f8:	e8 93 06 00 00       	call   3e90 <usb_str_direction>
    37fd:	89 c7                	mov    %eax,%edi
    37ff:	8b 03                	mov    (%ebx),%eax
    3801:	8b 40 10             	mov    0x10(%eax),%eax
    3804:	89 04 24             	mov    %eax,(%esp)
    3807:	e8 64 06 00 00       	call   3e70 <usb_str_transfer_type_short>
    380c:	89 c6                	mov    %eax,%esi
    380e:	8b 03                	mov    (%ebx),%eax
    3810:	8b 40 14             	mov    0x14(%eax),%eax
    3813:	89 04 24             	mov    %eax,(%esp)
    3816:	e8 95 06 00 00       	call   3eb0 <usb_str_speed>
    381b:	8b 4d e0             	mov    -0x20(%ebp),%ecx
    381e:	8b 13                	mov    (%ebx),%edx
    3820:	89 4c 24 28          	mov    %ecx,0x28(%esp)
    3824:	8b 4d e4             	mov    -0x1c(%ebp),%ecx
    3827:	89 7c 24 20          	mov    %edi,0x20(%esp)
    382b:	89 4c 24 24          	mov    %ecx,0x24(%esp)
    382f:	89 74 24 1c          	mov    %esi,0x1c(%esp)
    3833:	89 44 24 18          	mov    %eax,0x18(%esp)
    3837:	0f bf 42 0a          	movswl 0xa(%edx),%eax
    383b:	89 44 24 14          	mov    %eax,0x14(%esp)
    383f:	0f bf 42 08          	movswl 0x8(%edx),%eax
    3843:	89 5c 24 0c          	mov    %ebx,0xc(%esp)
    3847:	89 44 24 10          	mov    %eax,0x10(%esp)
    384b:	c7 44 24 08 74 92 02 	movl   $0x29274,0x8(%esp)
    3852:	00 
    3853:	c7 44 24 04 05 00 00 	movl   $0x5,0x4(%esp)
    385a:	00 
    385b:	c7 04 24 ff ff ff ff 	movl   $0xffffffff,(%esp)
    3862:	e8 a9 10 01 00       	call   14910 <log_msg>
    3867:	8b 03                	mov    (%ebx),%eax
    3869:	85 c0                	test   %eax,%eax
    386b:	74 08                	je     3875 <usb_transfer_batch_destroy+0xa5>
    386d:	89 04 24             	mov    %eax,(%esp)
    3870:	e8 6b 04 00 00       	call   3ce0 <endpoint_release>
    3875:	8b 43 30             	mov    0x30(%ebx),%eax
    3878:	85 c0                	test   %eax,%eax
    387a:	74 0c                	je     3888 <usb_transfer_batch_destroy+0xb8>
    387c:	8b 53 34             	mov    0x34(%ebx),%edx
    387f:	85 d2                	test   %edx,%edx
    3881:	74 1d                	je     38a0 <usb_transfer_batch_destroy+0xd0>
    3883:	89 04 24             	mov    %eax,(%esp)
    3886:	ff d2                	call   *%edx
    3888:	89 5d 08             	mov    %ebx,0x8(%ebp)
    388b:	83 c4 4c             	add    $0x4c,%esp
    388e:	5b                   	pop    %ebx
    388f:	5e                   	pop    %esi
    3890:	5f                   	pop    %edi
    3891:	5d                   	pop    %ebp
    3892:	e9 29 62 01 00       	jmp    19ac0 <free>
    3897:	90                   	nop
    3898:	83 c4 4c             	add    $0x4c,%esp
    389b:	5b                   	pop    %ebx
    389c:	5e                   	pop    %esi
    389d:	5f                   	pop    %edi
    389e:	5d                   	pop    %ebp
    389f:	c3                   	ret    
    38a0:	c7 44 24 08 71 00 00 	movl   $0x71,0x8(%esp)
    38a7:	00 
    38a8:	c7 44 24 04 d3 92 02 	movl   $0x292d3,0x4(%esp)
    38af:	00 
    38b0:	c7 04 24 ec 92 02 00 	movl   $0x292ec,(%esp)
    38b7:	e8 54 09 02 00       	call   24210 <assert_abort>
    38bc:	8d 74 26 00          	lea    0x0(%esi,%eiz,1),%esi

000038c0 <usb_transfer_batch_finish_error>:
    38c0:	55                   	push   %ebp
    38c1:	89 e5                	mov    %esp,%ebp
    38c3:	57                   	push   %edi
    38c4:	56                   	push   %esi
    38c5:	53                   	push   %ebx
    38c6:	83 ec 5c             	sub    $0x5c,%esp
    38c9:	8b 5d 08             	mov    0x8(%ebp),%ebx
    38cc:	8b 55 0c             	mov    0xc(%ebp),%edx
    38cf:	8b 4d 10             	mov    0x10(%ebp),%ecx
    38d2:	89 55 e4             	mov    %edx,-0x1c(%ebp)
    38d5:	89 4d d8             	mov    %ecx,-0x28(%ebp)
    38d8:	8b 7d 14             	mov    0x14(%ebp),%edi
    38db:	85 db                	test   %ebx,%ebx
    38dd:	0f 84 65 01 00 00    	je     3a48 <usb_transfer_batch_finish_error+0x188>
    38e3:	8b 03                	mov    (%ebx),%eax
    38e5:	8b 53 14             	mov    0x14(%ebx),%edx
    38e8:	89 55 e0             	mov    %edx,-0x20(%ebp)
    38eb:	8b 48 18             	mov    0x18(%eax),%ecx
    38ee:	8b 40 0c             	mov    0xc(%eax),%eax
    38f1:	89 04 24             	mov    %eax,(%esp)
    38f4:	89 4d d4             	mov    %ecx,-0x2c(%ebp)
    38f7:	e8 94 05 00 00       	call   3e90 <usb_str_direction>
    38fc:	89 45 dc             	mov    %eax,-0x24(%ebp)
    38ff:	8b 03                	mov    (%ebx),%eax
    3901:	8b 40 10             	mov    0x10(%eax),%eax
    3904:	89 04 24             	mov    %eax,(%esp)
    3907:	e8 64 05 00 00       	call   3e70 <usb_str_transfer_type_short>
    390c:	89 c6                	mov    %eax,%esi
    390e:	8b 03                	mov    (%ebx),%eax
    3910:	8b 40 14             	mov    0x14(%eax),%eax
    3913:	89 04 24             	mov    %eax,(%esp)
    3916:	e8 95 05 00 00       	call   3eb0 <usb_str_speed>
    391b:	8b 4d d4             	mov    -0x2c(%ebp),%ecx
    391e:	8b 13                	mov    (%ebx),%edx
    3920:	89 4c 24 28          	mov    %ecx,0x28(%esp)
    3924:	8b 4d e0             	mov    -0x20(%ebp),%ecx
    3927:	89 74 24 1c          	mov    %esi,0x1c(%esp)
    392b:	89 4c 24 24          	mov    %ecx,0x24(%esp)
    392f:	8b 4d dc             	mov    -0x24(%ebp),%ecx
    3932:	89 4c 24 20          	mov    %ecx,0x20(%esp)
    3936:	89 44 24 18          	mov    %eax,0x18(%esp)
    393a:	0f bf 42 0a          	movswl 0xa(%edx),%eax
    393e:	89 44 24 14          	mov    %eax,0x14(%esp)
    3942:	0f bf 42 08          	movswl 0x8(%edx),%eax
    3946:	89 5c 24 0c          	mov    %ebx,0xc(%esp)
    394a:	89 44 24 10          	mov    %eax,0x10(%esp)
    394e:	c7 44 24 08 a4 92 02 	movl   $0x292a4,0x8(%esp)
    3955:	00 
    3956:	c7 44 24 04 05 00 00 	movl   $0x5,0x4(%esp)
    395d:	00 
    395e:	c7 04 24 ff ff ff ff 	movl   $0xffffffff,(%esp)
    3965:	e8 a6 0f 01 00       	call   14910 <log_msg>
    396a:	8b 53 08             	mov    0x8(%ebx),%edx
    396d:	85 d2                	test   %edx,%edx
    396f:	74 1c                	je     398d <usb_transfer_batch_finish_error+0xcd>
    3971:	8b 03                	mov    (%ebx),%eax
    3973:	8b 48 10             	mov    0x10(%eax),%ecx
    3976:	85 c9                	test   %ecx,%ecx
    3978:	74 6e                	je     39e8 <usb_transfer_batch_finish_error+0x128>
    397a:	8b 43 0c             	mov    0xc(%ebx),%eax
    397d:	89 7c 24 04          	mov    %edi,0x4(%esp)
    3981:	89 44 24 08          	mov    %eax,0x8(%esp)
    3985:	8b 43 24             	mov    0x24(%ebx),%eax
    3988:	89 04 24             	mov    %eax,(%esp)
    398b:	ff d2                	call   *%edx
    398d:	8b 43 04             	mov    0x4(%ebx),%eax
    3990:	85 c0                	test   %eax,%eax
    3992:	0f 84 a8 00 00 00    	je     3a40 <usb_transfer_batch_finish_error+0x180>
    3998:	8b 53 14             	mov    0x14(%ebx),%edx
    399b:	8b 75 d8             	mov    -0x28(%ebp),%esi
    399e:	39 d6                	cmp    %edx,%esi
    39a0:	77 3e                	ja     39e0 <usb_transfer_batch_finish_error+0x120>
    39a2:	8b 55 e4             	mov    -0x1c(%ebp),%edx
    39a5:	85 d2                	test   %edx,%edx
    39a7:	74 19                	je     39c2 <usb_transfer_batch_finish_error+0x102>
    39a9:	8b 55 e4             	mov    -0x1c(%ebp),%edx
    39ac:	89 74 24 08          	mov    %esi,0x8(%esp)
    39b0:	89 54 24 04          	mov    %edx,0x4(%esp)
    39b4:	8b 43 10             	mov    0x10(%ebx),%eax
    39b7:	89 04 24             	mov    %eax,(%esp)
    39ba:	e8 31 8c 00 00       	call   c5f0 <memcpy>
    39bf:	8b 43 04             	mov    0x4(%ebx),%eax
    39c2:	8b 53 0c             	mov    0xc(%ebx),%edx
    39c5:	89 75 10             	mov    %esi,0x10(%ebp)
    39c8:	89 7d 0c             	mov    %edi,0xc(%ebp)
    39cb:	89 55 14             	mov    %edx,0x14(%ebp)
    39ce:	8b 53 24             	mov    0x24(%ebx),%edx
    39d1:	89 55 08             	mov    %edx,0x8(%ebp)
    39d4:	83 c4 5c             	add    $0x5c,%esp
    39d7:	5b                   	pop    %ebx
    39d8:	5e                   	pop    %esi
    39d9:	5f                   	pop    %edi
    39da:	5d                   	pop    %ebp
    39db:	ff e0                	jmp    *%eax
    39dd:	8d 76 00             	lea    0x0(%esi),%esi
    39e0:	89 d6                	mov    %edx,%esi
    39e2:	eb be                	jmp    39a2 <usb_transfer_batch_finish_error+0xe2>
    39e4:	8d 74 26 00          	lea    0x0(%esi,%eiz,1),%esi
    39e8:	85 ff                	test   %edi,%edi
    39ea:	75 8e                	jne    397a <usb_transfer_batch_finish_error+0xba>
    39ec:	8b 70 08             	mov    0x8(%eax),%esi
    39ef:	66 8b 40 0a          	mov    0xa(%eax),%ax
    39f3:	66 89 45 e0          	mov    %ax,-0x20(%ebp)
    39f7:	8b 43 24             	mov    0x24(%ebx),%eax
    39fa:	8d 53 18             	lea    0x18(%ebx),%edx
    39fd:	89 04 24             	mov    %eax,(%esp)
    3a00:	89 55 dc             	mov    %edx,-0x24(%ebp)
    3a03:	e8 88 10 00 00       	call   4a90 <ddf_fun_data_get>
    3a08:	8b 4d e0             	mov    -0x20(%ebp),%ecx
    3a0b:	89 f2                	mov    %esi,%edx
    3a0d:	c1 e1 10             	shl    $0x10,%ecx
    3a10:	81 e2 ff ff 00 00    	and    $0xffff,%edx
    3a16:	09 ca                	or     %ecx,%edx
    3a18:	85 c0                	test   %eax,%eax
    3a1a:	74 48                	je     3a64 <usb_transfer_batch_finish_error+0x1a4>
    3a1c:	8b 4d dc             	mov    -0x24(%ebp),%ecx
    3a1f:	05 24 06 00 00       	add    $0x624,%eax
    3a24:	89 54 24 04          	mov    %edx,0x4(%esp)
    3a28:	89 4c 24 08          	mov    %ecx,0x8(%esp)
    3a2c:	89 04 24             	mov    %eax,(%esp)
    3a2f:	e8 7c f4 ff ff       	call   2eb0 <usb_endpoint_manager_reset_eps_if_need>
    3a34:	8b 53 08             	mov    0x8(%ebx),%edx
    3a37:	e9 3e ff ff ff       	jmp    397a <usb_transfer_batch_finish_error+0xba>
    3a3c:	8d 74 26 00          	lea    0x0(%esi,%eiz,1),%esi
    3a40:	83 c4 5c             	add    $0x5c,%esp
    3a43:	5b                   	pop    %ebx
    3a44:	5e                   	pop    %esi
    3a45:	5f                   	pop    %edi
    3a46:	5d                   	pop    %ebp
    3a47:	c3                   	ret    
    3a48:	c7 44 24 08 81 00 00 	movl   $0x81,0x8(%esp)
    3a4f:	00 
    3a50:	c7 44 24 04 d3 92 02 	movl   $0x292d3,0x4(%esp)
    3a57:	00 
    3a58:	c7 04 24 c8 90 02 00 	movl   $0x290c8,(%esp)
    3a5f:	e8 ac 07 02 00       	call   24210 <assert_abort>
    3a64:	c7 44 24 08 5b 00 00 	movl   $0x5b,0x8(%esp)
    3a6b:	00 
    3a6c:	c7 44 24 04 08 93 02 	movl   $0x29308,0x4(%esp)
    3a73:	00 
    3a74:	c7 04 24 1a 8f 02 00 	movl   $0x28f1a,(%esp)
    3a7b:	e8 90 07 02 00       	call   24210 <assert_abort>

00003a80 <endpoint_create>:
    3a80:	55                   	push   %ebp
    3a81:	89 e5                	mov    %esp,%ebp
    3a83:	57                   	push   %edi
    3a84:	56                   	push   %esi
    3a85:	53                   	push   %ebx
    3a86:	83 ec 1c             	sub    $0x1c,%esp
    3a89:	8b 7d 08             	mov    0x8(%ebp),%edi
    3a8c:	8b 75 0c             	mov    0xc(%ebp),%esi
    3a8f:	c7 04 24 48 00 00 00 	movl   $0x48,(%esp)
    3a96:	e8 15 5f 01 00       	call   199b0 <malloc>
    3a9b:	89 c3                	mov    %eax,%ebx
    3a9d:	85 c0                	test   %eax,%eax
    3a9f:	74 66                	je     3b07 <endpoint_create+0x87>
    3aa1:	66 89 78 08          	mov    %di,0x8(%eax)
    3aa5:	66 89 70 0a          	mov    %si,0xa(%eax)
    3aa9:	8b 45 10             	mov    0x10(%ebp),%eax
    3aac:	c6 43 21 00          	movb   $0x0,0x21(%ebx)
    3ab0:	89 43 0c             	mov    %eax,0xc(%ebx)
    3ab3:	8b 45 14             	mov    0x14(%ebp),%eax
    3ab6:	89 43 10             	mov    %eax,0x10(%ebx)
    3ab9:	8b 45 18             	mov    0x18(%ebp),%eax
    3abc:	89 43 14             	mov    %eax,0x14(%ebx)
    3abf:	8b 45 1c             	mov    0x1c(%ebp),%eax
    3ac2:	89 43 18             	mov    %eax,0x18(%ebx)
    3ac5:	8b 45 20             	mov    0x20(%ebp),%eax
    3ac8:	89 43 1c             	mov    %eax,0x1c(%ebx)
    3acb:	8d 43 24             	lea    0x24(%ebx),%eax
    3ace:	89 04 24             	mov    %eax,(%esp)
    3ad1:	c7 43 3c 00 00 00 00 	movl   $0x0,0x3c(%ebx)
    3ad8:	80 63 20 fe          	andb   $0xfe,0x20(%ebx)
    3adc:	c7 43 40 00 00 00 00 	movl   $0x0,0x40(%ebx)
    3ae3:	c7 43 44 00 00 00 00 	movl   $0x0,0x44(%ebx)
    3aea:	c7 03 00 00 00 00    	movl   $0x0,(%ebx)
    3af0:	c7 43 04 00 00 00 00 	movl   $0x0,0x4(%ebx)
    3af7:	e8 b4 cb 00 00       	call   106b0 <fibril_mutex_initialize>
    3afc:	8d 43 34             	lea    0x34(%ebx),%eax
    3aff:	89 04 24             	mov    %eax,(%esp)
    3b02:	e8 39 d2 00 00       	call   10d40 <fibril_condvar_initialize>
    3b07:	83 c4 1c             	add    $0x1c,%esp
    3b0a:	89 d8                	mov    %ebx,%eax
    3b0c:	5b                   	pop    %ebx
    3b0d:	5e                   	pop    %esi
    3b0e:	5f                   	pop    %edi
    3b0f:	5d                   	pop    %ebp
    3b10:	c3                   	ret    
    3b11:	eb 0d                	jmp    3b20 <endpoint_destroy>
    3b13:	90                   	nop
    3b14:	90                   	nop
    3b15:	90                   	nop
    3b16:	90                   	nop
    3b17:	90                   	nop
    3b18:	90                   	nop
    3b19:	90                   	nop
    3b1a:	90                   	nop
    3b1b:	90                   	nop
    3b1c:	90                   	nop
    3b1d:	90                   	nop
    3b1e:	90                   	nop
    3b1f:	90                   	nop

00003b20 <endpoint_destroy>:
    3b20:	55                   	push   %ebp
    3b21:	89 e5                	mov    %esp,%ebp
    3b23:	83 ec 18             	sub    $0x18,%esp
    3b26:	8b 45 08             	mov    0x8(%ebp),%eax
    3b29:	85 c0                	test   %eax,%eax
    3b2b:	74 17                	je     3b44 <endpoint_destroy+0x24>
    3b2d:	8a 50 21             	mov    0x21(%eax),%dl
    3b30:	84 d2                	test   %dl,%dl
    3b32:	75 48                	jne    3b7c <endpoint_destroy+0x5c>
    3b34:	8b 50 3c             	mov    0x3c(%eax),%edx
    3b37:	85 d2                	test   %edx,%edx
    3b39:	75 25                	jne    3b60 <endpoint_destroy+0x40>
    3b3b:	89 45 08             	mov    %eax,0x8(%ebp)
    3b3e:	c9                   	leave  
    3b3f:	e9 7c 5f 01 00       	jmp    19ac0 <free>
    3b44:	c7 44 24 08 50 00 00 	movl   $0x50,0x8(%esp)
    3b4b:	00 
    3b4c:	c7 44 24 04 1f 93 02 	movl   $0x2931f,0x4(%esp)
    3b53:	00 
    3b54:	c7 04 24 c8 90 02 00 	movl   $0x290c8,(%esp)
    3b5b:	e8 b0 06 02 00       	call   24210 <assert_abort>
    3b60:	c7 44 24 08 53 00 00 	movl   $0x53,0x8(%esp)
    3b67:	00 
    3b68:	c7 44 24 04 1f 93 02 	movl   $0x2931f,0x4(%esp)
    3b6f:	00 
    3b70:	c7 04 24 5c 93 02 00 	movl   $0x2935c,(%esp)
    3b77:	e8 94 06 02 00       	call   24210 <assert_abort>
    3b7c:	c7 44 24 08 52 00 00 	movl   $0x52,0x8(%esp)
    3b83:	00 
    3b84:	c7 44 24 04 1f 93 02 	movl   $0x2931f,0x4(%esp)
    3b8b:	00 
    3b8c:	c7 04 24 2e 93 02 00 	movl   $0x2932e,(%esp)
    3b93:	e8 78 06 02 00       	call   24210 <assert_abort>
    3b98:	90                   	nop
    3b99:	8d b4 26 00 00 00 00 	lea    0x0(%esi,%eiz,1),%esi

00003ba0 <endpoint_set_hc_data>:
    3ba0:	55                   	push   %ebp
    3ba1:	89 e5                	mov    %esp,%ebp
    3ba3:	57                   	push   %edi
    3ba4:	56                   	push   %esi
    3ba5:	53                   	push   %ebx
    3ba6:	83 ec 2c             	sub    $0x2c,%esp
    3ba9:	8b 5d 08             	mov    0x8(%ebp),%ebx
    3bac:	8b 55 0c             	mov    0xc(%ebp),%edx
    3baf:	8b 45 10             	mov    0x10(%ebp),%eax
    3bb2:	8b 7d 14             	mov    0x14(%ebp),%edi
    3bb5:	85 db                	test   %ebx,%ebx
    3bb7:	74 2f                	je     3be8 <endpoint_set_hc_data+0x48>
    3bb9:	8d 73 24             	lea    0x24(%ebx),%esi
    3bbc:	89 45 e0             	mov    %eax,-0x20(%ebp)
    3bbf:	89 34 24             	mov    %esi,(%esp)
    3bc2:	89 55 e4             	mov    %edx,-0x1c(%ebp)
    3bc5:	e8 06 cb 00 00       	call   106d0 <fibril_mutex_lock>
    3bca:	8b 55 e4             	mov    -0x1c(%ebp),%edx
    3bcd:	8b 45 e0             	mov    -0x20(%ebp),%eax
    3bd0:	89 53 3c             	mov    %edx,0x3c(%ebx)
    3bd3:	89 43 40             	mov    %eax,0x40(%ebx)
    3bd6:	89 7b 44             	mov    %edi,0x44(%ebx)
    3bd9:	89 75 08             	mov    %esi,0x8(%ebp)
    3bdc:	83 c4 2c             	add    $0x2c,%esp
    3bdf:	5b                   	pop    %ebx
    3be0:	5e                   	pop    %esi
    3be1:	5f                   	pop    %edi
    3be2:	5d                   	pop    %ebp
    3be3:	e9 08 cc 00 00       	jmp    107f0 <fibril_mutex_unlock>
    3be8:	c7 44 24 08 60 00 00 	movl   $0x60,0x8(%esp)
    3bef:	00 
    3bf0:	c7 44 24 04 1f 93 02 	movl   $0x2931f,0x4(%esp)
    3bf7:	00 
    3bf8:	c7 04 24 c8 90 02 00 	movl   $0x290c8,(%esp)
    3bff:	e8 0c 06 02 00       	call   24210 <assert_abort>
    3c04:	8d b6 00 00 00 00    	lea    0x0(%esi),%esi
    3c0a:	8d bf 00 00 00 00    	lea    0x0(%edi),%edi

00003c10 <endpoint_clear_hc_data>:
    3c10:	55                   	push   %ebp
    3c11:	89 e5                	mov    %esp,%ebp
    3c13:	56                   	push   %esi
    3c14:	53                   	push   %ebx
    3c15:	83 ec 10             	sub    $0x10,%esp
    3c18:	8b 5d 08             	mov    0x8(%ebp),%ebx
    3c1b:	85 db                	test   %ebx,%ebx
    3c1d:	74 2e                	je     3c4d <endpoint_clear_hc_data+0x3d>
    3c1f:	8d 73 24             	lea    0x24(%ebx),%esi
    3c22:	89 34 24             	mov    %esi,(%esp)
    3c25:	e8 a6 ca 00 00       	call   106d0 <fibril_mutex_lock>
    3c2a:	c7 43 3c 00 00 00 00 	movl   $0x0,0x3c(%ebx)
    3c31:	c7 43 40 00 00 00 00 	movl   $0x0,0x40(%ebx)
    3c38:	c7 43 44 00 00 00 00 	movl   $0x0,0x44(%ebx)
    3c3f:	89 75 08             	mov    %esi,0x8(%ebp)
    3c42:	83 c4 10             	add    $0x10,%esp
    3c45:	5b                   	pop    %ebx
    3c46:	5e                   	pop    %esi
    3c47:	5d                   	pop    %ebp
    3c48:	e9 a3 cb 00 00       	jmp    107f0 <fibril_mutex_unlock>
    3c4d:	c7 44 24 08 6e 00 00 	movl   $0x6e,0x8(%esp)
    3c54:	00 
    3c55:	c7 44 24 04 1f 93 02 	movl   $0x2931f,0x4(%esp)
    3c5c:	00 
    3c5d:	c7 04 24 c8 90 02 00 	movl   $0x290c8,(%esp)
    3c64:	e8 a7 05 02 00       	call   24210 <assert_abort>
    3c69:	8d b4 26 00 00 00 00 	lea    0x0(%esi,%eiz,1),%esi

00003c70 <endpoint_use>:
    3c70:	55                   	push   %ebp
    3c71:	89 e5                	mov    %esp,%ebp
    3c73:	57                   	push   %edi
    3c74:	56                   	push   %esi
    3c75:	53                   	push   %ebx
    3c76:	83 ec 1c             	sub    $0x1c,%esp
    3c79:	8b 5d 08             	mov    0x8(%ebp),%ebx
    3c7c:	85 db                	test   %ebx,%ebx
    3c7e:	74 3e                	je     3cbe <endpoint_use+0x4e>
    3c80:	8d 73 24             	lea    0x24(%ebx),%esi
    3c83:	8d 7b 34             	lea    0x34(%ebx),%edi
    3c86:	89 34 24             	mov    %esi,(%esp)
    3c89:	e8 42 ca 00 00       	call   106d0 <fibril_mutex_lock>
    3c8e:	8a 43 21             	mov    0x21(%ebx),%al
    3c91:	84 c0                	test   %al,%al
    3c93:	74 16                	je     3cab <endpoint_use+0x3b>
    3c95:	8d 76 00             	lea    0x0(%esi),%esi
    3c98:	89 74 24 04          	mov    %esi,0x4(%esp)
    3c9c:	89 3c 24             	mov    %edi,(%esp)
    3c9f:	e8 7c d6 00 00       	call   11320 <fibril_condvar_wait>
    3ca4:	8a 43 21             	mov    0x21(%ebx),%al
    3ca7:	84 c0                	test   %al,%al
    3ca9:	75 ed                	jne    3c98 <endpoint_use+0x28>
    3cab:	c6 43 21 01          	movb   $0x1,0x21(%ebx)
    3caf:	89 75 08             	mov    %esi,0x8(%ebp)
    3cb2:	83 c4 1c             	add    $0x1c,%esp
    3cb5:	5b                   	pop    %ebx
    3cb6:	5e                   	pop    %esi
    3cb7:	5f                   	pop    %edi
    3cb8:	5d                   	pop    %ebp
    3cb9:	e9 32 cb 00 00       	jmp    107f0 <fibril_mutex_unlock>
    3cbe:	c7 44 24 08 7b 00 00 	movl   $0x7b,0x8(%esp)
    3cc5:	00 
    3cc6:	c7 44 24 04 1f 93 02 	movl   $0x2931f,0x4(%esp)
    3ccd:	00 
    3cce:	c7 04 24 c8 90 02 00 	movl   $0x290c8,(%esp)
    3cd5:	e8 36 05 02 00       	call   24210 <assert_abort>
    3cda:	8d b6 00 00 00 00    	lea    0x0(%esi),%esi

00003ce0 <endpoint_release>:
    3ce0:	55                   	push   %ebp
    3ce1:	89 e5                	mov    %esp,%ebp
    3ce3:	56                   	push   %esi
    3ce4:	53                   	push   %ebx
    3ce5:	83 ec 10             	sub    $0x10,%esp
    3ce8:	8b 5d 08             	mov    0x8(%ebp),%ebx
    3ceb:	85 db                	test   %ebx,%ebx
    3ced:	74 28                	je     3d17 <endpoint_release+0x37>
    3cef:	8d 73 24             	lea    0x24(%ebx),%esi
    3cf2:	89 34 24             	mov    %esi,(%esp)
    3cf5:	e8 d6 c9 00 00       	call   106d0 <fibril_mutex_lock>
    3cfa:	c6 43 21 00          	movb   $0x0,0x21(%ebx)
    3cfe:	89 34 24             	mov    %esi,(%esp)
    3d01:	83 c3 34             	add    $0x34,%ebx
    3d04:	e8 e7 ca 00 00       	call   107f0 <fibril_mutex_unlock>
    3d09:	89 5d 08             	mov    %ebx,0x8(%ebp)
    3d0c:	83 c4 10             	add    $0x10,%esp
    3d0f:	5b                   	pop    %ebx
    3d10:	5e                   	pop    %esi
    3d11:	5d                   	pop    %ebp
    3d12:	e9 59 d6 00 00       	jmp    11370 <fibril_condvar_signal>
    3d17:	c7 44 24 08 88 00 00 	movl   $0x88,0x8(%esp)
    3d1e:	00 
    3d1f:	c7 44 24 04 1f 93 02 	movl   $0x2931f,0x4(%esp)
    3d26:	00 
    3d27:	c7 04 24 c8 90 02 00 	movl   $0x290c8,(%esp)
    3d2e:	e8 dd 04 02 00       	call   24210 <assert_abort>
    3d33:	8d b6 00 00 00 00    	lea    0x0(%esi),%esi
    3d39:	8d bc 27 00 00 00 00 	lea    0x0(%edi,%eiz,1),%edi

00003d40 <endpoint_toggle_get>:
    3d40:	55                   	push   %ebp
    3d41:	89 e5                	mov    %esp,%ebp
    3d43:	57                   	push   %edi
    3d44:	56                   	push   %esi
    3d45:	53                   	push   %ebx
    3d46:	83 ec 1c             	sub    $0x1c,%esp
    3d49:	8b 5d 08             	mov    0x8(%ebp),%ebx
    3d4c:	85 db                	test   %ebx,%ebx
    3d4e:	74 51                	je     3da1 <endpoint_toggle_get+0x61>
    3d50:	8d 73 24             	lea    0x24(%ebx),%esi
    3d53:	89 34 24             	mov    %esi,(%esp)
    3d56:	e8 75 c9 00 00       	call   106d0 <fibril_mutex_lock>
    3d5b:	8b 43 40             	mov    0x40(%ebx),%eax
    3d5e:	85 c0                	test   %eax,%eax
    3d60:	74 36                	je     3d98 <endpoint_toggle_get+0x58>
    3d62:	8b 53 3c             	mov    0x3c(%ebx),%edx
    3d65:	89 14 24             	mov    %edx,(%esp)
    3d68:	ff d0                	call   *%eax
    3d6a:	8a 53 20             	mov    0x20(%ebx),%dl
    3d6d:	83 e0 01             	and    $0x1,%eax
    3d70:	83 e2 fe             	and    $0xfffffffe,%edx
    3d73:	89 c7                	mov    %eax,%edi
    3d75:	09 fa                	or     %edi,%edx
    3d77:	88 53 20             	mov    %dl,0x20(%ebx)
    3d7a:	89 34 24             	mov    %esi,(%esp)
    3d7d:	e8 6e ca 00 00       	call   107f0 <fibril_mutex_unlock>
    3d82:	83 c4 1c             	add    $0x1c,%esp
    3d85:	89 f8                	mov    %edi,%eax
    3d87:	5b                   	pop    %ebx
    3d88:	25 ff 00 00 00       	and    $0xff,%eax
    3d8d:	5e                   	pop    %esi
    3d8e:	5f                   	pop    %edi
    3d8f:	5d                   	pop    %ebp
    3d90:	c3                   	ret    
    3d91:	8d b4 26 00 00 00 00 	lea    0x0(%esi,%eiz,1),%esi
    3d98:	0f b6 7b 20          	movzbl 0x20(%ebx),%edi
    3d9c:	83 e7 01             	and    $0x1,%edi
    3d9f:	eb d9                	jmp    3d7a <endpoint_toggle_get+0x3a>
    3da1:	c7 44 24 08 95 00 00 	movl   $0x95,0x8(%esp)
    3da8:	00 
    3da9:	c7 44 24 04 1f 93 02 	movl   $0x2931f,0x4(%esp)
    3db0:	00 
    3db1:	c7 04 24 c8 90 02 00 	movl   $0x290c8,(%esp)
    3db8:	e8 53 04 02 00       	call   24210 <assert_abort>
    3dbd:	8d 76 00             	lea    0x0(%esi),%esi

00003dc0 <endpoint_toggle_set>:
    3dc0:	55                   	push   %ebp
    3dc1:	89 e5                	mov    %esp,%ebp
    3dc3:	57                   	push   %edi
    3dc4:	56                   	push   %esi
    3dc5:	53                   	push   %ebx
    3dc6:	83 ec 1c             	sub    $0x1c,%esp
    3dc9:	8b 5d 08             	mov    0x8(%ebp),%ebx
    3dcc:	8b 7d 0c             	mov    0xc(%ebp),%edi
    3dcf:	85 db                	test   %ebx,%ebx
    3dd1:	74 42                	je     3e15 <endpoint_toggle_set+0x55>
    3dd3:	83 ff 01             	cmp    $0x1,%edi
    3dd6:	77 59                	ja     3e31 <endpoint_toggle_set+0x71>
    3dd8:	8d 73 24             	lea    0x24(%ebx),%esi
    3ddb:	89 34 24             	mov    %esi,(%esp)
    3dde:	e8 ed c8 00 00       	call   106d0 <fibril_mutex_lock>
    3de3:	8a 43 20             	mov    0x20(%ebx),%al
    3de6:	89 fa                	mov    %edi,%edx
    3de8:	83 e0 fe             	and    $0xfffffffe,%eax
    3deb:	83 e2 01             	and    $0x1,%edx
    3dee:	09 d0                	or     %edx,%eax
    3df0:	88 43 20             	mov    %al,0x20(%ebx)
    3df3:	8b 43 44             	mov    0x44(%ebx),%eax
    3df6:	85 c0                	test   %eax,%eax
    3df8:	74 0c                	je     3e06 <endpoint_toggle_set+0x46>
    3dfa:	89 7c 24 04          	mov    %edi,0x4(%esp)
    3dfe:	8b 53 3c             	mov    0x3c(%ebx),%edx
    3e01:	89 14 24             	mov    %edx,(%esp)
    3e04:	ff d0                	call   *%eax
    3e06:	89 75 08             	mov    %esi,0x8(%ebp)
    3e09:	83 c4 1c             	add    $0x1c,%esp
    3e0c:	5b                   	pop    %ebx
    3e0d:	5e                   	pop    %esi
    3e0e:	5f                   	pop    %edi
    3e0f:	5d                   	pop    %ebp
    3e10:	e9 db c9 00 00       	jmp    107f0 <fibril_mutex_unlock>
    3e15:	c7 44 24 08 a5 00 00 	movl   $0xa5,0x8(%esp)
    3e1c:	00 
    3e1d:	c7 44 24 04 1f 93 02 	movl   $0x2931f,0x4(%esp)
    3e24:	00 
    3e25:	c7 04 24 c8 90 02 00 	movl   $0x290c8,(%esp)
    3e2c:	e8 df 03 02 00       	call   24210 <assert_abort>
    3e31:	c7 44 24 08 a6 00 00 	movl   $0xa6,0x8(%esp)
    3e38:	00 
    3e39:	c7 44 24 04 1f 93 02 	movl   $0x2931f,0x4(%esp)
    3e40:	00 
    3e41:	c7 04 24 40 93 02 00 	movl   $0x29340,(%esp)
    3e48:	e8 c3 03 02 00       	call   24210 <assert_abort>
    3e4d:	66 90                	xchg   %ax,%ax
    3e4f:	90                   	nop

00003e50 <usb_str_transfer_type>:
    3e50:	55                   	push   %ebp
    3e51:	b8 7b 93 02 00       	mov    $0x2937b,%eax
    3e56:	89 e5                	mov    %esp,%ebp
    3e58:	8b 55 08             	mov    0x8(%ebp),%edx
    3e5b:	83 fa 03             	cmp    $0x3,%edx
    3e5e:	77 07                	ja     3e67 <usb_str_transfer_type+0x17>
    3e60:	8b 04 95 d4 93 02 00 	mov    0x293d4(,%edx,4),%eax
    3e67:	5d                   	pop    %ebp
    3e68:	c3                   	ret    
    3e69:	8d b4 26 00 00 00 00 	lea    0x0(%esi,%eiz,1),%esi

00003e70 <usb_str_transfer_type_short>:
    3e70:	55                   	push   %ebp
    3e71:	b8 83 93 02 00       	mov    $0x29383,%eax
    3e76:	89 e5                	mov    %esp,%ebp
    3e78:	8b 55 08             	mov    0x8(%ebp),%edx
    3e7b:	83 fa 03             	cmp    $0x3,%edx
    3e7e:	77 07                	ja     3e87 <usb_str_transfer_type_short+0x17>
    3e80:	8b 04 95 e4 93 02 00 	mov    0x293e4(,%edx,4),%eax
    3e87:	5d                   	pop    %ebp
    3e88:	c3                   	ret    
    3e89:	8d b4 26 00 00 00 00 	lea    0x0(%esi,%eiz,1),%esi

00003e90 <usb_str_direction>:
    3e90:	55                   	push   %ebp
    3e91:	b8 7b 93 02 00       	mov    $0x2937b,%eax
    3e96:	89 e5                	mov    %esp,%ebp
    3e98:	8b 55 08             	mov    0x8(%ebp),%edx
    3e9b:	83 fa 02             	cmp    $0x2,%edx
    3e9e:	77 07                	ja     3ea7 <usb_str_direction+0x17>
    3ea0:	8b 04 95 f4 93 02 00 	mov    0x293f4(,%edx,4),%eax
    3ea7:	5d                   	pop    %ebp
    3ea8:	c3                   	ret    
    3ea9:	8d b4 26 00 00 00 00 	lea    0x0(%esi,%eiz,1),%esi

00003eb0 <usb_str_speed>:
    3eb0:	55                   	push   %ebp
    3eb1:	b8 7b 93 02 00       	mov    $0x2937b,%eax
    3eb6:	89 e5                	mov    %esp,%ebp
    3eb8:	8b 55 08             	mov    0x8(%ebp),%edx
    3ebb:	83 fa 02             	cmp    $0x2,%edx
    3ebe:	77 07                	ja     3ec7 <usb_str_speed+0x17>
    3ec0:	8b 04 95 00 94 02 00 	mov    0x29400(,%edx,4),%eax
    3ec7:	5d                   	pop    %ebp
    3ec8:	c3                   	ret    
    3ec9:	66 90                	xchg   %ax,%ax
    3ecb:	66 90                	xchg   %ax,%ax
    3ecd:	66 90                	xchg   %ax,%ax
    3ecf:	90                   	nop

00003ed0 <driver_connection_gen.isra.8>:
    3ed0:	55                   	push   %ebp
    3ed1:	89 e5                	mov    %esp,%ebp
    3ed3:	57                   	push   %edi
    3ed4:	56                   	push   %esi
    3ed5:	53                   	push   %ebx
    3ed6:	83 ec 5c             	sub    $0x5c,%esp
    3ed9:	89 c6                	mov    %eax,%esi
    3edb:	8b 7a 08             	mov    0x8(%edx),%edi
    3ede:	89 55 a8             	mov    %edx,-0x58(%ebp)
    3ee1:	c7 04 24 c0 c4 02 00 	movl   $0x2c4c0,(%esp)
    3ee8:	e8 e3 c7 00 00       	call   106d0 <fibril_mutex_lock>
    3eed:	c7 04 24 c0 c4 02 00 	movl   $0x2c4c0,(%esp)
    3ef4:	e8 07 ca 00 00       	call   10900 <fibril_mutex_is_locked>
    3ef9:	8b 55 a8             	mov    -0x58(%ebp),%edx
    3efc:	84 c0                	test   %al,%al
    3efe:	0f 84 a6 02 00 00    	je     41aa <driver_connection_gen.isra.8+0x2da>
    3f04:	a1 d4 c4 02 00       	mov    0x2c4d4,%eax
    3f09:	3d d0 c4 02 00       	cmp    $0x2c4d0,%eax
    3f0e:	75 12                	jne    3f22 <driver_connection_gen.isra.8+0x52>
    3f10:	eb 46                	jmp    3f58 <driver_connection_gen.isra.8+0x88>
    3f12:	8d b6 00 00 00 00    	lea    0x0(%esi),%esi
    3f18:	8b 40 04             	mov    0x4(%eax),%eax
    3f1b:	3d d0 c4 02 00       	cmp    $0x2c4d0,%eax
    3f20:	74 36                	je     3f58 <driver_connection_gen.isra.8+0x88>
    3f22:	8d 58 d4             	lea    -0x2c(%eax),%ebx
    3f25:	3b 7b 04             	cmp    0x4(%ebx),%edi
    3f28:	75 ee                	jne    3f18 <driver_connection_gen.isra.8+0x48>
    3f2a:	c7 04 24 c0 c4 02 00 	movl   $0x2c4c0,(%esp)
    3f31:	89 55 a8             	mov    %edx,-0x58(%ebp)
    3f34:	e8 b7 c8 00 00       	call   107f0 <fibril_mutex_unlock>
    3f39:	8b 43 28             	mov    0x28(%ebx),%eax
    3f3c:	85 c0                	test   %eax,%eax
    3f3e:	8b 55 a8             	mov    -0x58(%ebp),%edx
    3f41:	74 55                	je     3f98 <driver_connection_gen.isra.8+0xc8>
    3f43:	89 5c 24 08          	mov    %ebx,0x8(%esp)
    3f47:	89 34 24             	mov    %esi,(%esp)
    3f4a:	89 54 24 04          	mov    %edx,0x4(%esp)
    3f4e:	ff d0                	call   *%eax
    3f50:	83 c4 5c             	add    $0x5c,%esp
    3f53:	5b                   	pop    %ebx
    3f54:	5e                   	pop    %esi
    3f55:	5f                   	pop    %edi
    3f56:	5d                   	pop    %ebp
    3f57:	c3                   	ret    
    3f58:	c7 04 24 c0 c4 02 00 	movl   $0x2c4c0,(%esp)
    3f5f:	e8 8c c8 00 00       	call   107f0 <fibril_mutex_unlock>
    3f64:	a1 20 c9 02 00       	mov    0x2c920,%eax
    3f69:	89 7c 24 08          	mov    %edi,0x8(%esp)
    3f6d:	8b 00                	mov    (%eax),%eax
    3f6f:	c7 04 24 54 96 02 00 	movl   $0x29654,(%esp)
    3f76:	89 44 24 04          	mov    %eax,0x4(%esp)
    3f7a:	e8 e1 06 01 00       	call   14660 <printf>
    3f7f:	c7 44 24 04 ff ff ff 	movl   $0xffffffff,0x4(%esp)
    3f86:	ff 
    3f87:	89 34 24             	mov    %esi,(%esp)
    3f8a:	e8 61 85 01 00       	call   1c4f0 <async_answer_0>
    3f8f:	83 c4 5c             	add    $0x5c,%esp
    3f92:	5b                   	pop    %ebx
    3f93:	5e                   	pop    %esi
    3f94:	5f                   	pop    %edi
    3f95:	5d                   	pop    %ebp
    3f96:	c3                   	ret    
    3f97:	90                   	nop
    3f98:	8b 43 24             	mov    0x24(%ebx),%eax
    3f9b:	85 c0                	test   %eax,%eax
    3f9d:	0f 84 cd 01 00 00    	je     4170 <driver_connection_gen.isra.8+0x2a0>
    3fa3:	8b 00                	mov    (%eax),%eax
    3fa5:	85 c0                	test   %eax,%eax
    3fa7:	0f 84 c3 01 00 00    	je     4170 <driver_connection_gen.isra.8+0x2a0>
    3fad:	89 1c 24             	mov    %ebx,(%esp)
    3fb0:	ff d0                	call   *%eax
    3fb2:	89 34 24             	mov    %esi,(%esp)
    3fb5:	89 44 24 04          	mov    %eax,0x4(%esp)
    3fb9:	89 45 a8             	mov    %eax,-0x58(%ebp)
    3fbc:	e8 2f 85 01 00       	call   1c4f0 <async_answer_0>
    3fc1:	8b 55 a8             	mov    -0x58(%ebp),%edx
    3fc4:	85 d2                	test   %edx,%edx
    3fc6:	75 c7                	jne    3f8f <driver_connection_gen.isra.8+0xbf>
    3fc8:	8d 55 c4             	lea    -0x3c(%ebp),%edx
    3fcb:	89 7d ac             	mov    %edi,-0x54(%ebp)
    3fce:	89 55 b4             	mov    %edx,-0x4c(%ebp)
    3fd1:	8d b4 26 00 00 00 00 	lea    0x0(%esi,%eiz,1),%esi
    3fd8:	c7 44 24 04 00 00 00 	movl   $0x0,0x4(%esp)
    3fdf:	00 
    3fe0:	89 14 24             	mov    %edx,(%esp)
    3fe3:	e8 d8 6e 01 00       	call   1aec0 <async_get_call_timeout>
    3fe8:	8b 75 c4             	mov    -0x3c(%ebp),%esi
    3feb:	89 c7                	mov    %eax,%edi
    3fed:	85 f6                	test   %esi,%esi
    3fef:	0f 84 eb 00 00 00    	je     40e0 <driver_connection_gen.isra.8+0x210>
    3ff5:	81 ee 00 04 00 00    	sub    $0x400,%esi
    3ffb:	89 34 24             	mov    %esi,(%esp)
    3ffe:	e8 8d 10 00 00       	call   5090 <is_valid_iface_idx>
    4003:	84 c0                	test   %al,%al
    4005:	75 31                	jne    4038 <driver_connection_gen.isra.8+0x168>
    4007:	8b 43 24             	mov    0x24(%ebx),%eax
    400a:	85 c0                	test   %eax,%eax
    400c:	0f 84 96 00 00 00    	je     40a8 <driver_connection_gen.isra.8+0x1d8>
    4012:	8b 40 34             	mov    0x34(%eax),%eax
    4015:	85 c0                	test   %eax,%eax
    4017:	0f 84 8b 00 00 00    	je     40a8 <driver_connection_gen.isra.8+0x1d8>
    401d:	8b 55 b4             	mov    -0x4c(%ebp),%edx
    4020:	89 7c 24 04          	mov    %edi,0x4(%esp)
    4024:	89 54 24 08          	mov    %edx,0x8(%esp)
    4028:	89 1c 24             	mov    %ebx,(%esp)
    402b:	ff d0                	call   *%eax
    402d:	8b 55 b4             	mov    -0x4c(%ebp),%edx
    4030:	eb a6                	jmp    3fd8 <driver_connection_gen.isra.8+0x108>
    4032:	8d b6 00 00 00 00    	lea    0x0(%esi),%esi
    4038:	89 34 24             	mov    %esi,(%esp)
    403b:	e8 50 10 00 00       	call   5090 <is_valid_iface_idx>
    4040:	84 c0                	test   %al,%al
    4042:	0f 84 46 01 00 00    	je     418e <driver_connection_gen.isra.8+0x2be>
    4048:	8b 43 24             	mov    0x24(%ebx),%eax
    404b:	85 c0                	test   %eax,%eax
    404d:	0f 84 bd 00 00 00    	je     4110 <driver_connection_gen.isra.8+0x240>
    4053:	8b 44 b0 08          	mov    0x8(%eax,%esi,4),%eax
    4057:	89 45 b0             	mov    %eax,-0x50(%ebp)
    405a:	85 c0                	test   %eax,%eax
    405c:	0f 84 ae 00 00 00    	je     4110 <driver_connection_gen.isra.8+0x240>
    4062:	89 34 24             	mov    %esi,(%esp)
    4065:	e8 c6 0f 00 00       	call   5030 <get_remote_iface>
    406a:	85 c0                	test   %eax,%eax
    406c:	0f 84 54 01 00 00    	je     41c6 <driver_connection_gen.isra.8+0x2f6>
    4072:	8b 55 c8             	mov    -0x38(%ebp),%edx
    4075:	89 04 24             	mov    %eax,(%esp)
    4078:	89 54 24 04          	mov    %edx,0x4(%esp)
    407c:	e8 ef 0f 00 00       	call   5070 <get_remote_method>
    4081:	85 c0                	test   %eax,%eax
    4083:	0f 84 b7 00 00 00    	je     4140 <driver_connection_gen.isra.8+0x270>
    4089:	8b 55 b4             	mov    -0x4c(%ebp),%edx
    408c:	89 7c 24 08          	mov    %edi,0x8(%esp)
    4090:	89 54 24 0c          	mov    %edx,0xc(%esp)
    4094:	8b 55 b0             	mov    -0x50(%ebp),%edx
    4097:	89 54 24 04          	mov    %edx,0x4(%esp)
    409b:	89 1c 24             	mov    %ebx,(%esp)
    409e:	ff d0                	call   *%eax
    40a0:	8b 55 b4             	mov    -0x4c(%ebp),%edx
    40a3:	e9 30 ff ff ff       	jmp    3fd8 <driver_connection_gen.isra.8+0x108>
    40a8:	a1 20 c9 02 00       	mov    0x2c920,%eax
    40ad:	89 74 24 08          	mov    %esi,0x8(%esp)
    40b1:	8b 00                	mov    (%eax),%eax
    40b3:	c7 04 24 80 95 02 00 	movl   $0x29580,(%esp)
    40ba:	89 44 24 04          	mov    %eax,0x4(%esp)
    40be:	e8 9d 05 01 00       	call   14660 <printf>
    40c3:	c7 44 24 04 f5 ff ff 	movl   $0xfffffff5,0x4(%esp)
    40ca:	ff 
    40cb:	89 3c 24             	mov    %edi,(%esp)
    40ce:	e8 1d 84 01 00       	call   1c4f0 <async_answer_0>
    40d3:	8b 55 b4             	mov    -0x4c(%ebp),%edx
    40d6:	e9 fd fe ff ff       	jmp    3fd8 <driver_connection_gen.isra.8+0x108>
    40db:	90                   	nop
    40dc:	8d 74 26 00          	lea    0x0(%esi,%eiz,1),%esi
    40e0:	8b 43 24             	mov    0x24(%ebx),%eax
    40e3:	85 c0                	test   %eax,%eax
    40e5:	74 0c                	je     40f3 <driver_connection_gen.isra.8+0x223>
    40e7:	8b 40 04             	mov    0x4(%eax),%eax
    40ea:	85 c0                	test   %eax,%eax
    40ec:	74 05                	je     40f3 <driver_connection_gen.isra.8+0x223>
    40ee:	89 1c 24             	mov    %ebx,(%esp)
    40f1:	ff d0                	call   *%eax
    40f3:	89 3c 24             	mov    %edi,(%esp)
    40f6:	c7 44 24 04 00 00 00 	movl   $0x0,0x4(%esp)
    40fd:	00 
    40fe:	e8 ed 83 01 00       	call   1c4f0 <async_answer_0>
    4103:	83 c4 5c             	add    $0x5c,%esp
    4106:	5b                   	pop    %ebx
    4107:	5e                   	pop    %esi
    4108:	5f                   	pop    %edi
    4109:	5d                   	pop    %ebp
    410a:	c3                   	ret    
    410b:	90                   	nop
    410c:	8d 74 26 00          	lea    0x0(%esi,%eiz,1),%esi
    4110:	a1 20 c9 02 00       	mov    0x2c920,%eax
    4115:	8b 00                	mov    (%eax),%eax
    4117:	c7 04 24 bc 95 02 00 	movl   $0x295bc,(%esp)
    411e:	89 44 24 04          	mov    %eax,0x4(%esp)
    4122:	e8 39 05 01 00       	call   14660 <printf>
    4127:	8b 55 ac             	mov    -0x54(%ebp),%edx
    412a:	89 74 24 08          	mov    %esi,0x8(%esp)
    412e:	89 54 24 04          	mov    %edx,0x4(%esp)
    4132:	c7 04 24 e0 95 02 00 	movl   $0x295e0,(%esp)
    4139:	eb 83                	jmp    40be <driver_connection_gen.isra.8+0x1ee>
    413b:	90                   	nop
    413c:	8d 74 26 00          	lea    0x0(%esi,%eiz,1),%esi
    4140:	a1 20 c9 02 00       	mov    0x2c920,%eax
    4145:	8b 00                	mov    (%eax),%eax
    4147:	c7 04 24 18 96 02 00 	movl   $0x29618,(%esp)
    414e:	89 44 24 04          	mov    %eax,0x4(%esp)
    4152:	e8 09 05 01 00       	call   14660 <printf>
    4157:	c7 44 24 04 f5 ff ff 	movl   $0xfffffff5,0x4(%esp)
    415e:	ff 
    415f:	89 3c 24             	mov    %edi,(%esp)
    4162:	e8 89 83 01 00       	call   1c4f0 <async_answer_0>
    4167:	8b 55 b4             	mov    -0x4c(%ebp),%edx
    416a:	e9 69 fe ff ff       	jmp    3fd8 <driver_connection_gen.isra.8+0x108>
    416f:	90                   	nop
    4170:	c7 44 24 04 00 00 00 	movl   $0x0,0x4(%esp)
    4177:	00 
    4178:	89 34 24             	mov    %esi,(%esp)
    417b:	e8 70 83 01 00       	call   1c4f0 <async_answer_0>
    4180:	8d 55 c4             	lea    -0x3c(%ebp),%edx
    4183:	89 55 b4             	mov    %edx,-0x4c(%ebp)
    4186:	89 7d ac             	mov    %edi,-0x54(%ebp)
    4189:	e9 4a fe ff ff       	jmp    3fd8 <driver_connection_gen.isra.8+0x108>
    418e:	c7 44 24 08 1e 03 00 	movl   $0x31e,0x8(%esp)
    4195:	00 
    4196:	c7 44 24 04 0c 94 02 	movl   $0x2940c,0x4(%esp)
    419d:	00 
    419e:	c7 04 24 1d 94 02 00 	movl   $0x2941d,(%esp)
    41a5:	e8 66 00 02 00       	call   24210 <assert_abort>
    41aa:	c7 44 24 08 75 00 00 	movl   $0x75,0x8(%esp)
    41b1:	00 
    41b2:	c7 44 24 04 0c 94 02 	movl   $0x2940c,0x4(%esp)
    41b9:	00 
    41ba:	c7 04 24 54 95 02 00 	movl   $0x29554,(%esp)
    41c1:	e8 4a 00 02 00       	call   24210 <assert_abort>
    41c6:	c7 44 24 08 a6 01 00 	movl   $0x1a6,0x8(%esp)
    41cd:	00 
    41ce:	c7 44 24 04 0c 94 02 	movl   $0x2940c,0x4(%esp)
    41d5:	00 
    41d6:	c7 04 24 35 94 02 00 	movl   $0x29435,(%esp)
    41dd:	e8 2e 00 02 00       	call   24210 <assert_abort>
    41e2:	8d b4 26 00 00 00 00 	lea    0x0(%esi,%eiz,1),%esi
    41e9:	8d bc 27 00 00 00 00 	lea    0x0(%edi,%eiz,1),%edi

000041f0 <driver_connection>:
    41f0:	55                   	push   %ebp
    41f1:	89 e5                	mov    %esp,%ebp
    41f3:	57                   	push   %edi
    41f4:	56                   	push   %esi
    41f5:	53                   	push   %ebx
    41f6:	83 ec 6c             	sub    $0x6c,%esp
    41f9:	8b 45 08             	mov    0x8(%ebp),%eax
    41fc:	85 c0                	test   %eax,%eax
    41fe:	75 58                	jne    4258 <driver_connection+0x68>
    4200:	c7 44 24 04 00 00 00 	movl   $0x0,0x4(%esp)
    4207:	00 
    4208:	89 04 24             	mov    %eax,(%esp)
    420b:	e8 e0 82 01 00       	call   1c4f0 <async_answer_0>
    4210:	8d 45 c4             	lea    -0x3c(%ebp),%eax
    4213:	c7 44 24 04 00 00 00 	movl   $0x0,0x4(%esp)
    421a:	00 
    421b:	89 04 24             	mov    %eax,(%esp)
    421e:	e8 9d 6c 01 00       	call   1aec0 <async_get_call_timeout>
    4223:	89 c6                	mov    %eax,%esi
    4225:	8b 45 c4             	mov    -0x3c(%ebp),%eax
    4228:	85 c0                	test   %eax,%eax
    422a:	74 3e                	je     426a <driver_connection+0x7a>
    422c:	2d 00 04 00 00       	sub    $0x400,%eax
    4231:	83 f8 04             	cmp    $0x4,%eax
    4234:	76 12                	jbe    4248 <driver_connection+0x58>
    4236:	c7 44 24 04 f5 ff ff 	movl   $0xfffffff5,0x4(%esp)
    423d:	ff 
    423e:	89 34 24             	mov    %esi,(%esp)
    4241:	e8 aa 82 01 00       	call   1c4f0 <async_answer_0>
    4246:	eb c8                	jmp    4210 <driver_connection+0x20>
    4248:	8b 7d c8             	mov    -0x38(%ebp),%edi
    424b:	ff 24 85 04 97 02 00 	jmp    *0x29704(,%eax,4)
    4252:	8d b6 00 00 00 00    	lea    0x0(%esi),%esi
    4258:	8b 4d 0c             	mov    0xc(%ebp),%ecx
    425b:	8b 51 04             	mov    0x4(%ecx),%edx
    425e:	83 fa 02             	cmp    $0x2,%edx
    4261:	75 15                	jne    4278 <driver_connection+0x88>
    4263:	89 ca                	mov    %ecx,%edx
    4265:	e8 66 fc ff ff       	call   3ed0 <driver_connection_gen.isra.8>
    426a:	83 c4 6c             	add    $0x6c,%esp
    426d:	5b                   	pop    %ebx
    426e:	5e                   	pop    %esi
    426f:	5f                   	pop    %edi
    4270:	5d                   	pop    %ebp
    4271:	c3                   	ret    
    4272:	8d b6 00 00 00 00    	lea    0x0(%esi),%esi
    4278:	83 fa 03             	cmp    $0x3,%edx
    427b:	0f 84 2f 03 00 00    	je     45b0 <driver_connection+0x3c0>
    4281:	4a                   	dec    %edx
    4282:	0f 84 78 ff ff ff    	je     4200 <driver_connection+0x10>
    4288:	c7 44 24 04 ff ff ff 	movl   $0xffffffff,0x4(%esp)
    428f:	ff 
    4290:	89 04 24             	mov    %eax,(%esp)
    4293:	e8 58 82 01 00       	call   1c4f0 <async_answer_0>
    4298:	83 c4 6c             	add    $0x6c,%esp
    429b:	5b                   	pop    %ebx
    429c:	5e                   	pop    %esi
    429d:	5f                   	pop    %edi
    429e:	5d                   	pop    %ebp
    429f:	c3                   	ret    
    42a0:	c7 04 24 c0 c4 02 00 	movl   $0x2c4c0,(%esp)
    42a7:	e8 24 c4 00 00       	call   106d0 <fibril_mutex_lock>
    42ac:	c7 04 24 c0 c4 02 00 	movl   $0x2c4c0,(%esp)
    42b3:	e8 48 c6 00 00       	call   10900 <fibril_mutex_is_locked>
    42b8:	84 c0                	test   %al,%al
    42ba:	0f 84 a0 04 00 00    	je     4760 <driver_connection+0x570>
    42c0:	a1 d4 c4 02 00       	mov    0x2c4d4,%eax
    42c5:	3d d0 c4 02 00       	cmp    $0x2c4d0,%eax
    42ca:	75 1a                	jne    42e6 <driver_connection+0xf6>
    42cc:	e9 87 03 00 00       	jmp    4658 <driver_connection+0x468>
    42d1:	8d b4 26 00 00 00 00 	lea    0x0(%esi,%eiz,1),%esi
    42d8:	8b 40 04             	mov    0x4(%eax),%eax
    42db:	3d d0 c4 02 00       	cmp    $0x2c4d0,%eax
    42e0:	0f 84 72 03 00 00    	je     4658 <driver_connection+0x468>
    42e6:	8d 58 d4             	lea    -0x2c(%eax),%ebx
    42e9:	3b 7b 04             	cmp    0x4(%ebx),%edi
    42ec:	75 ea                	jne    42d8 <driver_connection+0xe8>
    42ee:	8b 43 0c             	mov    0xc(%ebx),%eax
    42f1:	f0 ff 40 04          	lock incl 0x4(%eax)
    42f5:	8d 7b 08             	lea    0x8(%ebx),%edi
    42f8:	f0 ff 43 08          	lock incl 0x8(%ebx)
    42fc:	c7 04 24 c0 c4 02 00 	movl   $0x2c4c0,(%esp)
    4303:	e8 e8 c4 00 00       	call   107f0 <fibril_mutex_unlock>
    4308:	a1 20 c9 02 00       	mov    0x2c920,%eax
    430d:	8b 40 04             	mov    0x4(%eax),%eax
    4310:	8b 40 0c             	mov    0xc(%eax),%eax
    4313:	85 c0                	test   %eax,%eax
    4315:	0f 84 e5 02 00 00    	je     4600 <driver_connection+0x410>
    431b:	89 1c 24             	mov    %ebx,(%esp)
    431e:	ff d0                	call   *%eax
    4320:	89 45 b0             	mov    %eax,-0x50(%ebp)
    4323:	8b 4b 0c             	mov    0xc(%ebx),%ecx
    4326:	83 c8 ff             	or     $0xffffffff,%eax
    4329:	89 4d b4             	mov    %ecx,-0x4c(%ebp)
    432c:	f0 0f c1 07          	lock xadd %eax,(%edi)
    4330:	48                   	dec    %eax
    4331:	0f 84 81 03 00 00    	je     46b8 <driver_connection+0x4c8>
    4337:	83 c8 ff             	or     $0xffffffff,%eax
    433a:	8b 55 b4             	mov    -0x4c(%ebp),%edx
    433d:	f0 0f c1 42 04       	lock xadd %eax,0x4(%edx)
    4342:	48                   	dec    %eax
    4343:	0f 84 37 03 00 00    	je     4680 <driver_connection+0x490>
    4349:	8b 45 b0             	mov    -0x50(%ebp),%eax
    434c:	e9 88 00 00 00       	jmp    43d9 <driver_connection+0x1e9>
    4351:	8d b4 26 00 00 00 00 	lea    0x0(%esi,%eiz,1),%esi
    4358:	c7 04 24 d8 c4 02 00 	movl   $0x2c4d8,(%esp)
    435f:	e8 6c c3 00 00       	call   106d0 <fibril_mutex_lock>
    4364:	c7 04 24 d8 c4 02 00 	movl   $0x2c4d8,(%esp)
    436b:	e8 90 c5 00 00       	call   10900 <fibril_mutex_is_locked>
    4370:	84 c0                	test   %al,%al
    4372:	0f 84 04 04 00 00    	je     477c <driver_connection+0x58c>
    4378:	a1 ec c4 02 00       	mov    0x2c4ec,%eax
    437d:	3d e8 c4 02 00       	cmp    $0x2c4e8,%eax
    4382:	75 1a                	jne    439e <driver_connection+0x1ae>
    4384:	e9 a7 02 00 00       	jmp    4630 <driver_connection+0x440>
    4389:	8d b4 26 00 00 00 00 	lea    0x0(%esi,%eiz,1),%esi
    4390:	8b 40 04             	mov    0x4(%eax),%eax
    4393:	3d e8 c4 02 00       	cmp    $0x2c4e8,%eax
    4398:	0f 84 92 02 00 00    	je     4630 <driver_connection+0x440>
    439e:	8d 58 ec             	lea    -0x14(%eax),%ebx
    43a1:	3b 78 ec             	cmp    -0x14(%eax),%edi
    43a4:	75 ea                	jne    4390 <driver_connection+0x1a0>
    43a6:	8d 7b 04             	lea    0x4(%ebx),%edi
    43a9:	f0 ff 43 04          	lock incl 0x4(%ebx)
    43ad:	c7 04 24 d8 c4 02 00 	movl   $0x2c4d8,(%esp)
    43b4:	e8 37 c4 00 00       	call   107f0 <fibril_mutex_unlock>
    43b9:	a1 20 c9 02 00       	mov    0x2c920,%eax
    43be:	8b 40 04             	mov    0x4(%eax),%eax
    43c1:	8b 40 08             	mov    0x8(%eax),%eax
    43c4:	85 c0                	test   %eax,%eax
    43c6:	0f 84 58 01 00 00    	je     4524 <driver_connection+0x334>
    43cc:	89 1c 24             	mov    %ebx,(%esp)
    43cf:	ff d0                	call   *%eax
    43d1:	85 c0                	test   %eax,%eax
    43d3:	0f 84 e7 01 00 00    	je     45c0 <driver_connection+0x3d0>
    43d9:	89 44 24 04          	mov    %eax,0x4(%esp)
    43dd:	89 34 24             	mov    %esi,(%esp)
    43e0:	e8 0b 81 01 00       	call   1c4f0 <async_answer_0>
    43e5:	e9 26 fe ff ff       	jmp    4210 <driver_connection+0x20>
    43ea:	8d b6 00 00 00 00    	lea    0x0(%esi),%esi
    43f0:	c7 44 24 04 1c 00 00 	movl   $0x1c,0x4(%esp)
    43f7:	00 
    43f8:	c7 04 24 01 00 00 00 	movl   $0x1,(%esp)
    43ff:	e8 4c 55 01 00       	call   19950 <calloc>
    4404:	89 c3                	mov    %eax,%ebx
    4406:	f0 ff 40 04          	lock incl 0x4(%eax)
    440a:	8d 55 c0             	lea    -0x40(%ebp),%edx
    440d:	89 38                	mov    %edi,(%eax)
    440f:	89 14 24             	mov    %edx,(%esp)
    4412:	c7 44 24 14 00 00 00 	movl   $0x0,0x14(%esp)
    4419:	00 
    441a:	c7 44 24 10 00 00 00 	movl   $0x0,0x10(%esp)
    4421:	00 
    4422:	c7 44 24 0c 00 00 00 	movl   $0x0,0xc(%esp)
    4429:	00 
    442a:	c7 44 24 08 00 00 00 	movl   $0x0,0x8(%esp)
    4431:	00 
    4432:	c7 44 24 04 01 00 00 	movl   $0x1,0x4(%esp)
    4439:	00 
    443a:	c7 45 c0 00 00 00 00 	movl   $0x0,-0x40(%ebp)
    4441:	e8 ca 9b 01 00       	call   1e010 <async_data_write_accept>
    4446:	8b 45 c0             	mov    -0x40(%ebp),%eax
    4449:	89 43 0c             	mov    %eax,0xc(%ebx)
    444c:	a1 20 c9 02 00       	mov    0x2c920,%eax
    4451:	8b 40 04             	mov    0x4(%eax),%eax
    4454:	89 1c 24             	mov    %ebx,(%esp)
    4457:	ff 10                	call   *(%eax)
    4459:	89 c7                	mov    %eax,%edi
    445b:	85 c0                	test   %eax,%eax
    445d:	0f 85 ad 01 00 00    	jne    4610 <driver_connection+0x420>
    4463:	c7 04 24 d8 c4 02 00 	movl   $0x2c4d8,(%esp)
    446a:	e8 61 c2 00 00       	call   106d0 <fibril_mutex_lock>
    446f:	8b 15 e8 c4 02 00    	mov    0x2c4e8,%edx
    4475:	8d 43 14             	lea    0x14(%ebx),%eax
    4478:	c7 43 18 e8 c4 02 00 	movl   $0x2c4e8,0x18(%ebx)
    447f:	89 53 14             	mov    %edx,0x14(%ebx)
    4482:	89 42 04             	mov    %eax,0x4(%edx)
    4485:	c7 04 24 d8 c4 02 00 	movl   $0x2c4d8,(%esp)
    448c:	a3 e8 c4 02 00       	mov    %eax,0x2c4e8
    4491:	e8 5a c3 00 00       	call   107f0 <fibril_mutex_unlock>
    4496:	c7 44 24 04 00 00 00 	movl   $0x0,0x4(%esp)
    449d:	00 
    449e:	89 34 24             	mov    %esi,(%esp)
    44a1:	e8 4a 80 01 00       	call   1c4f0 <async_answer_0>
    44a6:	e9 65 fd ff ff       	jmp    4210 <driver_connection+0x20>
    44ab:	90                   	nop
    44ac:	8d 74 26 00          	lea    0x0(%esi,%eiz,1),%esi
    44b0:	c7 04 24 d8 c4 02 00 	movl   $0x2c4d8,(%esp)
    44b7:	e8 14 c2 00 00       	call   106d0 <fibril_mutex_lock>
    44bc:	c7 04 24 d8 c4 02 00 	movl   $0x2c4d8,(%esp)
    44c3:	e8 38 c4 00 00       	call   10900 <fibril_mutex_is_locked>
    44c8:	84 c0                	test   %al,%al
    44ca:	0f 84 ac 02 00 00    	je     477c <driver_connection+0x58c>
    44d0:	a1 ec c4 02 00       	mov    0x2c4ec,%eax
    44d5:	3d e8 c4 02 00       	cmp    $0x2c4e8,%eax
    44da:	75 1a                	jne    44f6 <driver_connection+0x306>
    44dc:	e9 4f 01 00 00       	jmp    4630 <driver_connection+0x440>
    44e1:	8d b4 26 00 00 00 00 	lea    0x0(%esi,%eiz,1),%esi
    44e8:	8b 40 04             	mov    0x4(%eax),%eax
    44eb:	3d e8 c4 02 00       	cmp    $0x2c4e8,%eax
    44f0:	0f 84 3a 01 00 00    	je     4630 <driver_connection+0x440>
    44f6:	8d 58 ec             	lea    -0x14(%eax),%ebx
    44f9:	3b 78 ec             	cmp    -0x14(%eax),%edi
    44fc:	75 ea                	jne    44e8 <driver_connection+0x2f8>
    44fe:	8d 7b 04             	lea    0x4(%ebx),%edi
    4501:	f0 ff 43 04          	lock incl 0x4(%ebx)
    4505:	c7 04 24 d8 c4 02 00 	movl   $0x2c4d8,(%esp)
    450c:	e8 df c2 00 00       	call   107f0 <fibril_mutex_unlock>
    4511:	a1 20 c9 02 00       	mov    0x2c920,%eax
    4516:	8b 40 04             	mov    0x4(%eax),%eax
    4519:	8b 40 04             	mov    0x4(%eax),%eax
    451c:	85 c0                	test   %eax,%eax
    451e:	0f 85 a8 fe ff ff    	jne    43cc <driver_connection+0x1dc>
    4524:	b8 f5 ff ff ff       	mov    $0xfffffff5,%eax
    4529:	e9 ab fe ff ff       	jmp    43d9 <driver_connection+0x1e9>
    452e:	66 90                	xchg   %ax,%ax
    4530:	c7 04 24 c0 c4 02 00 	movl   $0x2c4c0,(%esp)
    4537:	e8 94 c1 00 00       	call   106d0 <fibril_mutex_lock>
    453c:	c7 04 24 c0 c4 02 00 	movl   $0x2c4c0,(%esp)
    4543:	e8 b8 c3 00 00       	call   10900 <fibril_mutex_is_locked>
    4548:	84 c0                	test   %al,%al
    454a:	0f 84 10 02 00 00    	je     4760 <driver_connection+0x570>
    4550:	a1 d4 c4 02 00       	mov    0x2c4d4,%eax
    4555:	3d d0 c4 02 00       	cmp    $0x2c4d0,%eax
    455a:	75 1a                	jne    4576 <driver_connection+0x386>
    455c:	e9 f7 00 00 00       	jmp    4658 <driver_connection+0x468>
    4561:	8d b4 26 00 00 00 00 	lea    0x0(%esi,%eiz,1),%esi
    4568:	8b 40 04             	mov    0x4(%eax),%eax
    456b:	3d d0 c4 02 00       	cmp    $0x2c4d0,%eax
    4570:	0f 84 e2 00 00 00    	je     4658 <driver_connection+0x468>
    4576:	8d 58 d4             	lea    -0x2c(%eax),%ebx
    4579:	3b 7b 04             	cmp    0x4(%ebx),%edi
    457c:	75 ea                	jne    4568 <driver_connection+0x378>
    457e:	8b 43 0c             	mov    0xc(%ebx),%eax
    4581:	f0 ff 40 04          	lock incl 0x4(%eax)
    4585:	f0 ff 43 08          	lock incl 0x8(%ebx)
    4589:	c7 04 24 c0 c4 02 00 	movl   $0x2c4c0,(%esp)
    4590:	e8 5b c2 00 00       	call   107f0 <fibril_mutex_unlock>
    4595:	a1 20 c9 02 00       	mov    0x2c920,%eax
    459a:	8b 40 04             	mov    0x4(%eax),%eax
    459d:	8b 40 10             	mov    0x10(%eax),%eax
    45a0:	85 c0                	test   %eax,%eax
    45a2:	74 80                	je     4524 <driver_connection+0x334>
    45a4:	89 1c 24             	mov    %ebx,(%esp)
    45a7:	ff d0                	call   *%eax
    45a9:	e9 2b fe ff ff       	jmp    43d9 <driver_connection+0x1e9>
    45ae:	66 90                	xchg   %ax,%ax
    45b0:	8b 55 0c             	mov    0xc(%ebp),%edx
    45b3:	e8 18 f9 ff ff       	call   3ed0 <driver_connection_gen.isra.8>
    45b8:	83 c4 6c             	add    $0x6c,%esp
    45bb:	5b                   	pop    %ebx
    45bc:	5e                   	pop    %esi
    45bd:	5f                   	pop    %edi
    45be:	5d                   	pop    %ebp
    45bf:	c3                   	ret    
    45c0:	83 ca ff             	or     $0xffffffff,%edx
    45c3:	f0 0f c1 17          	lock xadd %edx,(%edi)
    45c7:	4a                   	dec    %edx
    45c8:	0f 85 0b fe ff ff    	jne    43d9 <driver_connection+0x1e9>
    45ce:	8b 43 08             	mov    0x8(%ebx),%eax
    45d1:	85 c0                	test   %eax,%eax
    45d3:	74 08                	je     45dd <driver_connection+0x3ed>
    45d5:	89 04 24             	mov    %eax,(%esp)
    45d8:	e8 13 88 01 00       	call   1cdf0 <async_hangup>
    45dd:	8b 43 10             	mov    0x10(%ebx),%eax
    45e0:	85 c0                	test   %eax,%eax
    45e2:	74 08                	je     45ec <driver_connection+0x3fc>
    45e4:	89 04 24             	mov    %eax,(%esp)
    45e7:	e8 d4 54 01 00       	call   19ac0 <free>
    45ec:	89 1c 24             	mov    %ebx,(%esp)
    45ef:	e8 cc 54 01 00       	call   19ac0 <free>
    45f4:	31 c0                	xor    %eax,%eax
    45f6:	e9 de fd ff ff       	jmp    43d9 <driver_connection+0x1e9>
    45fb:	90                   	nop
    45fc:	8d 74 26 00          	lea    0x0(%esi,%eiz,1),%esi
    4600:	c7 45 b0 f5 ff ff ff 	movl   $0xfffffff5,-0x50(%ebp)
    4607:	e9 17 fd ff ff       	jmp    4323 <driver_connection+0x133>
    460c:	8d 74 26 00          	lea    0x0(%esi,%eiz,1),%esi
    4610:	83 c8 ff             	or     $0xffffffff,%eax
    4613:	f0 0f c1 43 04       	lock xadd %eax,0x4(%ebx)
    4618:	48                   	dec    %eax
    4619:	0f 84 16 01 00 00    	je     4735 <driver_connection+0x545>
    461f:	89 7c 24 04          	mov    %edi,0x4(%esp)
    4623:	89 34 24             	mov    %esi,(%esp)
    4626:	e8 c5 7e 01 00       	call   1c4f0 <async_answer_0>
    462b:	e9 e0 fb ff ff       	jmp    4210 <driver_connection+0x20>
    4630:	c7 04 24 d8 c4 02 00 	movl   $0x2c4d8,(%esp)
    4637:	e8 b4 c1 00 00       	call   107f0 <fibril_mutex_unlock>
    463c:	c7 44 24 04 ff ff ff 	movl   $0xffffffff,0x4(%esp)
    4643:	ff 
    4644:	89 34 24             	mov    %esi,(%esp)
    4647:	e8 a4 7e 01 00       	call   1c4f0 <async_answer_0>
    464c:	e9 bf fb ff ff       	jmp    4210 <driver_connection+0x20>
    4651:	8d b4 26 00 00 00 00 	lea    0x0(%esi,%eiz,1),%esi
    4658:	c7 04 24 c0 c4 02 00 	movl   $0x2c4c0,(%esp)
    465f:	e8 8c c1 00 00       	call   107f0 <fibril_mutex_unlock>
    4664:	c7 44 24 04 ff ff ff 	movl   $0xffffffff,0x4(%esp)
    466b:	ff 
    466c:	89 34 24             	mov    %esi,(%esp)
    466f:	e8 7c 7e 01 00       	call   1c4f0 <async_answer_0>
    4674:	e9 97 fb ff ff       	jmp    4210 <driver_connection+0x20>
    4679:	8d b4 26 00 00 00 00 	lea    0x0(%esi,%eiz,1),%esi
    4680:	8b 42 08             	mov    0x8(%edx),%eax
    4683:	85 c0                	test   %eax,%eax
    4685:	74 08                	je     468f <driver_connection+0x49f>
    4687:	89 04 24             	mov    %eax,(%esp)
    468a:	e8 61 87 01 00       	call   1cdf0 <async_hangup>
    468f:	8b 4d b4             	mov    -0x4c(%ebp),%ecx
    4692:	8b 41 10             	mov    0x10(%ecx),%eax
    4695:	85 c0                	test   %eax,%eax
    4697:	74 08                	je     46a1 <driver_connection+0x4b1>
    4699:	89 04 24             	mov    %eax,(%esp)
    469c:	e8 1f 54 01 00       	call   19ac0 <free>
    46a1:	8b 55 b4             	mov    -0x4c(%ebp),%edx
    46a4:	89 14 24             	mov    %edx,(%esp)
    46a7:	e8 14 54 01 00       	call   19ac0 <free>
    46ac:	e9 98 fc ff ff       	jmp    4349 <driver_connection+0x159>
    46b1:	8d b4 26 00 00 00 00 	lea    0x0(%esi,%eiz,1),%esi
    46b8:	8d 7b 18             	lea    0x18(%ebx),%edi
    46bb:	8b 43 1c             	mov    0x1c(%ebx),%eax
    46be:	39 f8                	cmp    %edi,%eax
    46c0:	74 48                	je     470a <driver_connection+0x51a>
    46c2:	89 5d ac             	mov    %ebx,-0x54(%ebp)
    46c5:	89 c3                	mov    %eax,%ebx
    46c7:	90                   	nop
    46c8:	8b 0b                	mov    (%ebx),%ecx
    46ca:	85 c9                	test   %ecx,%ecx
    46cc:	74 0e                	je     46dc <driver_connection+0x4ec>
    46ce:	8b 53 04             	mov    0x4(%ebx),%edx
    46d1:	85 d2                	test   %edx,%edx
    46d3:	74 07                	je     46dc <driver_connection+0x4ec>
    46d5:	89 0a                	mov    %ecx,(%edx)
    46d7:	8b 0b                	mov    (%ebx),%ecx
    46d9:	89 51 04             	mov    %edx,0x4(%ecx)
    46dc:	8b 53 08             	mov    0x8(%ebx),%edx
    46df:	c7 03 00 00 00 00    	movl   $0x0,(%ebx)
    46e5:	c7 43 04 00 00 00 00 	movl   $0x0,0x4(%ebx)
    46ec:	85 d2                	test   %edx,%edx
    46ee:	74 08                	je     46f8 <driver_connection+0x508>
    46f0:	89 14 24             	mov    %edx,(%esp)
    46f3:	e8 c8 53 01 00       	call   19ac0 <free>
    46f8:	89 1c 24             	mov    %ebx,(%esp)
    46fb:	e8 c0 53 01 00       	call   19ac0 <free>
    4700:	8b 5f 04             	mov    0x4(%edi),%ebx
    4703:	39 fb                	cmp    %edi,%ebx
    4705:	75 c1                	jne    46c8 <driver_connection+0x4d8>
    4707:	8b 5d ac             	mov    -0x54(%ebp),%ebx
    470a:	8b 43 20             	mov    0x20(%ebx),%eax
    470d:	85 c0                	test   %eax,%eax
    470f:	74 08                	je     4719 <driver_connection+0x529>
    4711:	89 04 24             	mov    %eax,(%esp)
    4714:	e8 a7 53 01 00       	call   19ac0 <free>
    4719:	8b 43 14             	mov    0x14(%ebx),%eax
    471c:	85 c0                	test   %eax,%eax
    471e:	74 08                	je     4728 <driver_connection+0x538>
    4720:	89 04 24             	mov    %eax,(%esp)
    4723:	e8 98 53 01 00       	call   19ac0 <free>
    4728:	89 1c 24             	mov    %ebx,(%esp)
    472b:	e8 90 53 01 00       	call   19ac0 <free>
    4730:	e9 02 fc ff ff       	jmp    4337 <driver_connection+0x147>
    4735:	8b 43 08             	mov    0x8(%ebx),%eax
    4738:	85 c0                	test   %eax,%eax
    473a:	74 08                	je     4744 <driver_connection+0x554>
    473c:	89 04 24             	mov    %eax,(%esp)
    473f:	e8 ac 86 01 00       	call   1cdf0 <async_hangup>
    4744:	8b 43 10             	mov    0x10(%ebx),%eax
    4747:	85 c0                	test   %eax,%eax
    4749:	74 08                	je     4753 <driver_connection+0x563>
    474b:	89 04 24             	mov    %eax,(%esp)
    474e:	e8 6d 53 01 00       	call   19ac0 <free>
    4753:	89 1c 24             	mov    %ebx,(%esp)
    4756:	e8 65 53 01 00       	call   19ac0 <free>
    475b:	e9 bf fe ff ff       	jmp    461f <driver_connection+0x42f>
    4760:	c7 44 24 08 75 00 00 	movl   $0x75,0x8(%esp)
    4767:	00 
    4768:	c7 44 24 04 0c 94 02 	movl   $0x2940c,0x4(%esp)
    476f:	00 
    4770:	c7 04 24 54 95 02 00 	movl   $0x29554,(%esp)
    4777:	e8 94 fa 01 00       	call   24210 <assert_abort>
    477c:	c7 44 24 08 66 00 00 	movl   $0x66,0x8(%esp)
    4783:	00 
    4784:	c7 44 24 04 0c 94 02 	movl   $0x2940c,0x4(%esp)
    478b:	00 
    478c:	c7 04 24 a0 96 02 00 	movl   $0x296a0,(%esp)
    4793:	e8 78 fa 01 00       	call   24210 <assert_abort>
    4798:	90                   	nop
    4799:	8d b4 26 00 00 00 00 	lea    0x0(%esi,%eiz,1),%esi

000047a0 <ddf_dev_data_alloc>:
    47a0:	55                   	push   %ebp
    47a1:	89 e5                	mov    %esp,%ebp
    47a3:	53                   	push   %ebx
    47a4:	83 ec 14             	sub    $0x14,%esp
    47a7:	8b 5d 08             	mov    0x8(%ebp),%ebx
    47aa:	8b 43 10             	mov    0x10(%ebx),%eax
    47ad:	85 c0                	test   %eax,%eax
    47af:	75 20                	jne    47d1 <ddf_dev_data_alloc+0x31>
    47b1:	8b 45 0c             	mov    0xc(%ebp),%eax
    47b4:	c7 04 24 01 00 00 00 	movl   $0x1,(%esp)
    47bb:	89 44 24 04          	mov    %eax,0x4(%esp)
    47bf:	e8 8c 51 01 00       	call   19950 <calloc>
    47c4:	85 c0                	test   %eax,%eax
    47c6:	74 03                	je     47cb <ddf_dev_data_alloc+0x2b>
    47c8:	89 43 10             	mov    %eax,0x10(%ebx)
    47cb:	83 c4 14             	add    $0x14,%esp
    47ce:	5b                   	pop    %ebx
    47cf:	5d                   	pop    %ebp
    47d0:	c3                   	ret    
    47d1:	c7 44 24 08 52 02 00 	movl   $0x252,0x8(%esp)
    47d8:	00 
    47d9:	c7 44 24 04 0c 94 02 	movl   $0x2940c,0x4(%esp)
    47e0:	00 
    47e1:	c7 04 24 47 94 02 00 	movl   $0x29447,(%esp)
    47e8:	e8 23 fa 01 00       	call   24210 <assert_abort>
    47ed:	8d 76 00             	lea    0x0(%esi),%esi

000047f0 <ddf_fun_data_implant>:
    47f0:	55                   	push   %ebp
    47f1:	89 e5                	mov    %esp,%ebp
    47f3:	83 ec 18             	sub    $0x18,%esp
    47f6:	8b 45 08             	mov    0x8(%ebp),%eax
    47f9:	8b 50 20             	mov    0x20(%eax),%edx
    47fc:	85 d2                	test   %edx,%edx
    47fe:	75 08                	jne    4808 <ddf_fun_data_implant+0x18>
    4800:	8b 55 0c             	mov    0xc(%ebp),%edx
    4803:	89 50 20             	mov    %edx,0x20(%eax)
    4806:	c9                   	leave  
    4807:	c3                   	ret    
    4808:	c7 44 24 08 63 02 00 	movl   $0x263,0x8(%esp)
    480f:	00 
    4810:	c7 44 24 04 0c 94 02 	movl   $0x2940c,0x4(%esp)
    4817:	00 
    4818:	c7 04 24 60 94 02 00 	movl   $0x29460,(%esp)
    481f:	e8 ec f9 01 00       	call   24210 <assert_abort>
    4824:	8d b6 00 00 00 00    	lea    0x0(%esi),%esi
    482a:	8d bf 00 00 00 00    	lea    0x0(%edi),%edi

00004830 <ddf_dev_data_get>:
    4830:	55                   	push   %ebp
    4831:	89 e5                	mov    %esp,%ebp
    4833:	8b 45 08             	mov    0x8(%ebp),%eax
    4836:	5d                   	pop    %ebp
    4837:	8b 40 10             	mov    0x10(%eax),%eax
    483a:	c3                   	ret    
    483b:	90                   	nop
    483c:	8d 74 26 00          	lea    0x0(%esi,%eiz,1),%esi

00004840 <ddf_dev_get_handle>:
    4840:	55                   	push   %ebp
    4841:	89 e5                	mov    %esp,%ebp
    4843:	8b 45 08             	mov    0x8(%ebp),%eax
    4846:	5d                   	pop    %ebp
    4847:	8b 00                	mov    (%eax),%eax
    4849:	c3                   	ret    
    484a:	8d b6 00 00 00 00    	lea    0x0(%esi),%esi

00004850 <ddf_dev_get_name>:
    4850:	55                   	push   %ebp
    4851:	89 e5                	mov    %esp,%ebp
    4853:	8b 45 08             	mov    0x8(%ebp),%eax
    4856:	5d                   	pop    %ebp
    4857:	8b 40 0c             	mov    0xc(%eax),%eax
    485a:	c3                   	ret    
    485b:	90                   	nop
    485c:	8d 74 26 00          	lea    0x0(%esi,%eiz,1),%esi

00004860 <ddf_dev_parent_sess_create>:
    4860:	55                   	push   %ebp
    4861:	89 e5                	mov    %esp,%ebp
    4863:	53                   	push   %ebx
    4864:	83 ec 14             	sub    $0x14,%esp
    4867:	8b 5d 08             	mov    0x8(%ebp),%ebx
    486a:	8b 4b 08             	mov    0x8(%ebx),%ecx
    486d:	85 c9                	test   %ecx,%ecx
    486f:	75 22                	jne    4893 <ddf_dev_parent_sess_create+0x33>
    4871:	c7 44 24 08 01 00 00 	movl   $0x1,0x8(%esp)
    4878:	00 
    4879:	8b 03                	mov    (%ebx),%eax
    487b:	89 44 24 04          	mov    %eax,0x4(%esp)
    487f:	8b 45 0c             	mov    0xc(%ebp),%eax
    4882:	89 04 24             	mov    %eax,(%esp)
    4885:	e8 b6 63 00 00       	call   ac40 <devman_parent_device_connect>
    488a:	89 43 08             	mov    %eax,0x8(%ebx)
    488d:	83 c4 14             	add    $0x14,%esp
    4890:	5b                   	pop    %ebx
    4891:	5d                   	pop    %ebp
    4892:	c3                   	ret    
    4893:	c7 44 24 08 87 02 00 	movl   $0x287,0x8(%esp)
    489a:	00 
    489b:	c7 44 24 04 0c 94 02 	movl   $0x2940c,0x4(%esp)
    48a2:	00 
    48a3:	c7 04 24 79 94 02 00 	movl   $0x29479,(%esp)
    48aa:	e8 61 f9 01 00       	call   24210 <assert_abort>
    48af:	90                   	nop

000048b0 <ddf_dev_parent_sess_get>:
    48b0:	55                   	push   %ebp
    48b1:	89 e5                	mov    %esp,%ebp
    48b3:	8b 45 08             	mov    0x8(%ebp),%eax
    48b6:	5d                   	pop    %ebp
    48b7:	8b 40 08             	mov    0x8(%eax),%eax
    48ba:	c3                   	ret    
    48bb:	90                   	nop
    48bc:	8d 74 26 00          	lea    0x0(%esi,%eiz,1),%esi

000048c0 <ddf_fun_set_name>:
    48c0:	55                   	push   %ebp
    48c1:	89 e5                	mov    %esp,%ebp
    48c3:	53                   	push   %ebx
    48c4:	83 ec 14             	sub    $0x14,%esp
    48c7:	8b 5d 08             	mov    0x8(%ebp),%ebx
    48ca:	8b 43 14             	mov    0x14(%ebx),%eax
    48cd:	85 c0                	test   %eax,%eax
    48cf:	75 19                	jne    48ea <ddf_fun_set_name+0x2a>
    48d1:	8b 45 0c             	mov    0xc(%ebp),%eax
    48d4:	89 04 24             	mov    %eax,(%esp)
    48d7:	e8 c4 aa 00 00       	call   f3a0 <str_dup>
    48dc:	83 f8 01             	cmp    $0x1,%eax
    48df:	89 43 14             	mov    %eax,0x14(%ebx)
    48e2:	19 c0                	sbb    %eax,%eax
    48e4:	83 c4 14             	add    $0x14,%esp
    48e7:	5b                   	pop    %ebx
    48e8:	5d                   	pop    %ebp
    48e9:	c3                   	ret    
    48ea:	c7 44 24 08 a0 02 00 	movl   $0x2a0,0x8(%esp)
    48f1:	00 
    48f2:	c7 44 24 04 0c 94 02 	movl   $0x2940c,0x4(%esp)
    48f9:	00 
    48fa:	c7 04 24 92 94 02 00 	movl   $0x29492,(%esp)
    4901:	e8 0a f9 01 00       	call   24210 <assert_abort>
    4906:	8d 76 00             	lea    0x0(%esi),%esi
    4909:	8d bc 27 00 00 00 00 	lea    0x0(%edi,%eiz,1),%edi

00004910 <ddf_fun_get_dev>:
    4910:	55                   	push   %ebp
    4911:	89 e5                	mov    %esp,%ebp
    4913:	8b 45 08             	mov    0x8(%ebp),%eax
    4916:	5d                   	pop    %ebp
    4917:	8b 40 0c             	mov    0xc(%eax),%eax
    491a:	c3                   	ret    
    491b:	90                   	nop
    491c:	8d 74 26 00          	lea    0x0(%esi,%eiz,1),%esi

00004920 <ddf_fun_get_handle>:
    4920:	55                   	push   %ebp
    4921:	89 e5                	mov    %esp,%ebp
    4923:	8b 45 08             	mov    0x8(%ebp),%eax
    4926:	5d                   	pop    %ebp
    4927:	8b 40 04             	mov    0x4(%eax),%eax
    492a:	c3                   	ret    
    492b:	90                   	nop
    492c:	8d 74 26 00          	lea    0x0(%esi,%eiz,1),%esi

00004930 <ddf_fun_create>:
    4930:	55                   	push   %ebp
    4931:	89 e5                	mov    %esp,%ebp
    4933:	57                   	push   %edi
    4934:	56                   	push   %esi
    4935:	53                   	push   %ebx
    4936:	83 ec 1c             	sub    $0x1c,%esp
    4939:	8b 75 08             	mov    0x8(%ebp),%esi
    493c:	c7 44 24 04 34 00 00 	movl   $0x34,0x4(%esp)
    4943:	00 
    4944:	c7 04 24 01 00 00 00 	movl   $0x1,(%esp)
    494b:	e8 00 50 01 00       	call   19950 <calloc>
    4950:	89 c3                	mov    %eax,%ebx
    4952:	85 c0                	test   %eax,%eax
    4954:	74 44                	je     499a <ddf_fun_create+0x6a>
    4956:	8d 78 18             	lea    0x18(%eax),%edi
    4959:	c7 40 2c 00 00 00 00 	movl   $0x0,0x2c(%eax)
    4960:	89 78 18             	mov    %edi,0x18(%eax)
    4963:	89 78 1c             	mov    %edi,0x1c(%eax)
    4966:	c7 40 30 00 00 00 00 	movl   $0x0,0x30(%eax)
    496d:	89 70 0c             	mov    %esi,0xc(%eax)
    4970:	f0 ff 46 04          	lock incl 0x4(%esi)
    4974:	f0 ff 40 08          	lock incl 0x8(%eax)
    4978:	c6 00 00             	movb   $0x0,(%eax)
    497b:	8b 45 0c             	mov    0xc(%ebp),%eax
    497e:	89 43 10             	mov    %eax,0x10(%ebx)
    4981:	8b 45 10             	mov    0x10(%ebp),%eax
    4984:	85 c0                	test   %eax,%eax
    4986:	74 12                	je     499a <ddf_fun_create+0x6a>
    4988:	8b 45 10             	mov    0x10(%ebp),%eax
    498b:	89 04 24             	mov    %eax,(%esp)
    498e:	e8 0d aa 00 00       	call   f3a0 <str_dup>
    4993:	89 43 14             	mov    %eax,0x14(%ebx)
    4996:	85 c0                	test   %eax,%eax
    4998:	74 0a                	je     49a4 <ddf_fun_create+0x74>
    499a:	83 c4 1c             	add    $0x1c,%esp
    499d:	89 d8                	mov    %ebx,%eax
    499f:	5b                   	pop    %ebx
    49a0:	5e                   	pop    %esi
    49a1:	5f                   	pop    %edi
    49a2:	5d                   	pop    %ebp
    49a3:	c3                   	ret    
    49a4:	8b 73 1c             	mov    0x1c(%ebx),%esi
    49a7:	39 fe                	cmp    %edi,%esi
    49a9:	74 44                	je     49ef <ddf_fun_create+0xbf>
    49ab:	90                   	nop
    49ac:	8d 74 26 00          	lea    0x0(%esi,%eiz,1),%esi
    49b0:	8b 0e                	mov    (%esi),%ecx
    49b2:	85 c9                	test   %ecx,%ecx
    49b4:	74 0e                	je     49c4 <ddf_fun_create+0x94>
    49b6:	8b 46 04             	mov    0x4(%esi),%eax
    49b9:	85 c0                	test   %eax,%eax
    49bb:	74 07                	je     49c4 <ddf_fun_create+0x94>
    49bd:	89 08                	mov    %ecx,(%eax)
    49bf:	8b 0e                	mov    (%esi),%ecx
    49c1:	89 41 04             	mov    %eax,0x4(%ecx)
    49c4:	8b 46 08             	mov    0x8(%esi),%eax
    49c7:	c7 06 00 00 00 00    	movl   $0x0,(%esi)
    49cd:	c7 46 04 00 00 00 00 	movl   $0x0,0x4(%esi)
    49d4:	85 c0                	test   %eax,%eax
    49d6:	74 08                	je     49e0 <ddf_fun_create+0xb0>
    49d8:	89 04 24             	mov    %eax,(%esp)
    49db:	e8 e0 50 01 00       	call   19ac0 <free>
    49e0:	89 34 24             	mov    %esi,(%esp)
    49e3:	e8 d8 50 01 00       	call   19ac0 <free>
    49e8:	8b 77 04             	mov    0x4(%edi),%esi
    49eb:	39 fe                	cmp    %edi,%esi
    49ed:	75 c1                	jne    49b0 <ddf_fun_create+0x80>
    49ef:	8b 43 20             	mov    0x20(%ebx),%eax
    49f2:	85 c0                	test   %eax,%eax
    49f4:	74 08                	je     49fe <ddf_fun_create+0xce>
    49f6:	89 04 24             	mov    %eax,(%esp)
    49f9:	e8 c2 50 01 00       	call   19ac0 <free>
    49fe:	8b 43 14             	mov    0x14(%ebx),%eax
    4a01:	85 c0                	test   %eax,%eax
    4a03:	74 08                	je     4a0d <ddf_fun_create+0xdd>
    4a05:	89 04 24             	mov    %eax,(%esp)
    4a08:	e8 b3 50 01 00       	call   19ac0 <free>
    4a0d:	89 1c 24             	mov    %ebx,(%esp)
    4a10:	31 db                	xor    %ebx,%ebx
    4a12:	e8 a9 50 01 00       	call   19ac0 <free>
    4a17:	eb 81                	jmp    499a <ddf_fun_create+0x6a>
    4a19:	8d b4 26 00 00 00 00 	lea    0x0(%esi,%eiz,1),%esi

00004a20 <ddf_fun_data_alloc>:
    4a20:	55                   	push   %ebp
    4a21:	89 e5                	mov    %esp,%ebp
    4a23:	53                   	push   %ebx
    4a24:	83 ec 14             	sub    $0x14,%esp
    4a27:	8b 5d 08             	mov    0x8(%ebp),%ebx
    4a2a:	80 3b 00             	cmpb   $0x0,(%ebx)
    4a2d:	75 27                	jne    4a56 <ddf_fun_data_alloc+0x36>
    4a2f:	8b 43 20             	mov    0x20(%ebx),%eax
    4a32:	85 c0                	test   %eax,%eax
    4a34:	75 3c                	jne    4a72 <ddf_fun_data_alloc+0x52>
    4a36:	8b 45 0c             	mov    0xc(%ebp),%eax
    4a39:	c7 04 24 01 00 00 00 	movl   $0x1,(%esp)
    4a40:	89 44 24 04          	mov    %eax,0x4(%esp)
    4a44:	e8 07 4f 01 00       	call   19950 <calloc>
    4a49:	85 c0                	test   %eax,%eax
    4a4b:	74 03                	je     4a50 <ddf_fun_data_alloc+0x30>
    4a4d:	89 43 20             	mov    %eax,0x20(%ebx)
    4a50:	83 c4 14             	add    $0x14,%esp
    4a53:	5b                   	pop    %ebx
    4a54:	5d                   	pop    %ebp
    4a55:	c3                   	ret    
    4a56:	c7 44 24 08 ec 02 00 	movl   $0x2ec,0x8(%esp)
    4a5d:	00 
    4a5e:	c7 44 24 04 0c 94 02 	movl   $0x2940c,0x4(%esp)
    4a65:	00 
    4a66:	c7 04 24 a4 94 02 00 	movl   $0x294a4,(%esp)
    4a6d:	e8 9e f7 01 00       	call   24210 <assert_abort>
    4a72:	c7 44 24 08 ed 02 00 	movl   $0x2ed,0x8(%esp)
    4a79:	00 
    4a7a:	c7 44 24 04 0c 94 02 	movl   $0x2940c,0x4(%esp)
    4a81:	00 
    4a82:	c7 04 24 60 94 02 00 	movl   $0x29460,(%esp)
    4a89:	e8 82 f7 01 00       	call   24210 <assert_abort>
    4a8e:	66 90                	xchg   %ax,%ax

00004a90 <ddf_fun_data_get>:
    4a90:	55                   	push   %ebp
    4a91:	89 e5                	mov    %esp,%ebp
    4a93:	8b 45 08             	mov    0x8(%ebp),%eax
    4a96:	5d                   	pop    %ebp
    4a97:	8b 40 20             	mov    0x20(%eax),%eax
    4a9a:	c3                   	ret    
    4a9b:	90                   	nop
    4a9c:	8d 74 26 00          	lea    0x0(%esi,%eiz,1),%esi

00004aa0 <ddf_fun_get_name>:
    4aa0:	55                   	push   %ebp
    4aa1:	89 e5                	mov    %esp,%ebp
    4aa3:	8b 45 08             	mov    0x8(%ebp),%eax
    4aa6:	5d                   	pop    %ebp
    4aa7:	8b 40 14             	mov    0x14(%eax),%eax
    4aaa:	c3                   	ret    
    4aab:	90                   	nop
    4aac:	8d 74 26 00          	lea    0x0(%esi,%eiz,1),%esi

00004ab0 <ddf_fun_destroy>:
    4ab0:	55                   	push   %ebp
    4ab1:	89 e5                	mov    %esp,%ebp
    4ab3:	57                   	push   %edi
    4ab4:	56                   	push   %esi
    4ab5:	53                   	push   %ebx
    4ab6:	83 ec 2c             	sub    $0x2c,%esp
    4ab9:	8b 5d 08             	mov    0x8(%ebp),%ebx
    4abc:	80 3b 00             	cmpb   $0x0,(%ebx)
    4abf:	0f 85 d8 00 00 00    	jne    4b9d <ddf_fun_destroy+0xed>
    4ac5:	8b 73 0c             	mov    0xc(%ebx),%esi
    4ac8:	83 c8 ff             	or     $0xffffffff,%eax
    4acb:	f0 0f c1 43 08       	lock xadd %eax,0x8(%ebx)
    4ad0:	48                   	dec    %eax
    4ad1:	74 1d                	je     4af0 <ddf_fun_destroy+0x40>
    4ad3:	83 c8 ff             	or     $0xffffffff,%eax
    4ad6:	f0 0f c1 46 04       	lock xadd %eax,0x4(%esi)
    4adb:	48                   	dec    %eax
    4adc:	0f 84 8e 00 00 00    	je     4b70 <ddf_fun_destroy+0xc0>
    4ae2:	83 c4 2c             	add    $0x2c,%esp
    4ae5:	5b                   	pop    %ebx
    4ae6:	5e                   	pop    %esi
    4ae7:	5f                   	pop    %edi
    4ae8:	5d                   	pop    %ebp
    4ae9:	c3                   	ret    
    4aea:	8d b6 00 00 00 00    	lea    0x0(%esi),%esi
    4af0:	8d 7b 18             	lea    0x18(%ebx),%edi
    4af3:	8b 43 1c             	mov    0x1c(%ebx),%eax
    4af6:	39 f8                	cmp    %edi,%eax
    4af8:	74 4b                	je     4b45 <ddf_fun_destroy+0x95>
    4afa:	8d b6 00 00 00 00    	lea    0x0(%esi),%esi
    4b00:	8b 08                	mov    (%eax),%ecx
    4b02:	85 c9                	test   %ecx,%ecx
    4b04:	74 0e                	je     4b14 <ddf_fun_destroy+0x64>
    4b06:	8b 50 04             	mov    0x4(%eax),%edx
    4b09:	85 d2                	test   %edx,%edx
    4b0b:	74 07                	je     4b14 <ddf_fun_destroy+0x64>
    4b0d:	89 0a                	mov    %ecx,(%edx)
    4b0f:	8b 08                	mov    (%eax),%ecx
    4b11:	89 51 04             	mov    %edx,0x4(%ecx)
    4b14:	8b 50 08             	mov    0x8(%eax),%edx
    4b17:	c7 00 00 00 00 00    	movl   $0x0,(%eax)
    4b1d:	c7 40 04 00 00 00 00 	movl   $0x0,0x4(%eax)
    4b24:	85 d2                	test   %edx,%edx
    4b26:	74 0e                	je     4b36 <ddf_fun_destroy+0x86>
    4b28:	89 14 24             	mov    %edx,(%esp)
    4b2b:	89 45 e4             	mov    %eax,-0x1c(%ebp)
    4b2e:	e8 8d 4f 01 00       	call   19ac0 <free>
    4b33:	8b 45 e4             	mov    -0x1c(%ebp),%eax
    4b36:	89 04 24             	mov    %eax,(%esp)
    4b39:	e8 82 4f 01 00       	call   19ac0 <free>
    4b3e:	8b 47 04             	mov    0x4(%edi),%eax
    4b41:	39 f8                	cmp    %edi,%eax
    4b43:	75 bb                	jne    4b00 <ddf_fun_destroy+0x50>
    4b45:	8b 43 20             	mov    0x20(%ebx),%eax
    4b48:	85 c0                	test   %eax,%eax
    4b4a:	74 08                	je     4b54 <ddf_fun_destroy+0xa4>
    4b4c:	89 04 24             	mov    %eax,(%esp)
    4b4f:	e8 6c 4f 01 00       	call   19ac0 <free>
    4b54:	8b 43 14             	mov    0x14(%ebx),%eax
    4b57:	85 c0                	test   %eax,%eax
    4b59:	74 08                	je     4b63 <ddf_fun_destroy+0xb3>
    4b5b:	89 04 24             	mov    %eax,(%esp)
    4b5e:	e8 5d 4f 01 00       	call   19ac0 <free>
    4b63:	89 1c 24             	mov    %ebx,(%esp)
    4b66:	e8 55 4f 01 00       	call   19ac0 <free>
    4b6b:	e9 63 ff ff ff       	jmp    4ad3 <ddf_fun_destroy+0x23>
    4b70:	8b 46 08             	mov    0x8(%esi),%eax
    4b73:	85 c0                	test   %eax,%eax
    4b75:	74 08                	je     4b7f <ddf_fun_destroy+0xcf>
    4b77:	89 04 24             	mov    %eax,(%esp)
    4b7a:	e8 71 82 01 00       	call   1cdf0 <async_hangup>
    4b7f:	8b 46 10             	mov    0x10(%esi),%eax
    4b82:	85 c0                	test   %eax,%eax
    4b84:	74 08                	je     4b8e <ddf_fun_destroy+0xde>
    4b86:	89 04 24             	mov    %eax,(%esp)
    4b89:	e8 32 4f 01 00       	call   19ac0 <free>
    4b8e:	89 75 08             	mov    %esi,0x8(%ebp)
    4b91:	83 c4 2c             	add    $0x2c,%esp
    4b94:	5b                   	pop    %ebx
    4b95:	5e                   	pop    %esi
    4b96:	5f                   	pop    %edi
    4b97:	5d                   	pop    %ebp
    4b98:	e9 23 4f 01 00       	jmp    19ac0 <free>
    4b9d:	c7 44 24 08 11 03 00 	movl   $0x311,0x8(%esp)
    4ba4:	00 
    4ba5:	c7 44 24 04 0c 94 02 	movl   $0x2940c,0x4(%esp)
    4bac:	00 
    4bad:	c7 04 24 a4 94 02 00 	movl   $0x294a4,(%esp)
    4bb4:	e8 57 f6 01 00       	call   24210 <assert_abort>
    4bb9:	8d b4 26 00 00 00 00 	lea    0x0(%esi,%eiz,1),%esi

00004bc0 <ddf_fun_bind>:
    4bc0:	55                   	push   %ebp
    4bc1:	89 e5                	mov    %esp,%ebp
    4bc3:	53                   	push   %ebx
    4bc4:	83 ec 34             	sub    $0x34,%esp
    4bc7:	8b 5d 08             	mov    0x8(%ebp),%ebx
    4bca:	80 3b 00             	cmpb   $0x0,(%ebx)
    4bcd:	0f 85 c3 00 00 00    	jne    4c96 <ddf_fun_bind+0xd6>
    4bd3:	8b 43 14             	mov    0x14(%ebx),%eax
    4bd6:	85 c0                	test   %eax,%eax
    4bd8:	0f 84 d4 00 00 00    	je     4cb2 <ddf_fun_bind+0xf2>
    4bde:	c7 04 24 c0 c4 02 00 	movl   $0x2c4c0,(%esp)
    4be5:	e8 e6 ba 00 00       	call   106d0 <fibril_mutex_lock>
    4bea:	8b 15 d0 c4 02 00    	mov    0x2c4d0,%edx
    4bf0:	8d 43 2c             	lea    0x2c(%ebx),%eax
    4bf3:	c7 43 30 d0 c4 02 00 	movl   $0x2c4d0,0x30(%ebx)
    4bfa:	89 53 2c             	mov    %edx,0x2c(%ebx)
    4bfd:	89 42 04             	mov    %eax,0x4(%edx)
    4c00:	c7 04 24 c0 c4 02 00 	movl   $0x2c4c0,(%esp)
    4c07:	a3 d0 c4 02 00       	mov    %eax,0x2c4d0
    4c0c:	e8 df bb 00 00       	call   107f0 <fibril_mutex_unlock>
    4c11:	8d 43 04             	lea    0x4(%ebx),%eax
    4c14:	89 44 24 10          	mov    %eax,0x10(%esp)
    4c18:	8b 43 0c             	mov    0xc(%ebx),%eax
    4c1b:	8b 00                	mov    (%eax),%eax
    4c1d:	89 44 24 0c          	mov    %eax,0xc(%esp)
    4c21:	8d 43 18             	lea    0x18(%ebx),%eax
    4c24:	89 44 24 08          	mov    %eax,0x8(%esp)
    4c28:	8b 43 10             	mov    0x10(%ebx),%eax
    4c2b:	89 44 24 04          	mov    %eax,0x4(%esp)
    4c2f:	8b 43 14             	mov    0x14(%ebx),%eax
    4c32:	89 04 24             	mov    %eax,(%esp)
    4c35:	e8 16 58 00 00       	call   a450 <devman_add_function>
    4c3a:	85 c0                	test   %eax,%eax
    4c3c:	75 0a                	jne    4c48 <ddf_fun_bind+0x88>
    4c3e:	c6 03 01             	movb   $0x1,(%ebx)
    4c41:	83 c4 34             	add    $0x34,%esp
    4c44:	5b                   	pop    %ebx
    4c45:	5d                   	pop    %ebp
    4c46:	c3                   	ret    
    4c47:	90                   	nop
    4c48:	c7 04 24 c0 c4 02 00 	movl   $0x2c4c0,(%esp)
    4c4f:	89 45 f4             	mov    %eax,-0xc(%ebp)
    4c52:	e8 79 ba 00 00       	call   106d0 <fibril_mutex_lock>
    4c57:	8b 4b 2c             	mov    0x2c(%ebx),%ecx
    4c5a:	85 c9                	test   %ecx,%ecx
    4c5c:	8b 45 f4             	mov    -0xc(%ebp),%eax
    4c5f:	74 0f                	je     4c70 <ddf_fun_bind+0xb0>
    4c61:	8b 53 30             	mov    0x30(%ebx),%edx
    4c64:	85 d2                	test   %edx,%edx
    4c66:	74 08                	je     4c70 <ddf_fun_bind+0xb0>
    4c68:	89 0a                	mov    %ecx,(%edx)
    4c6a:	8b 4b 2c             	mov    0x2c(%ebx),%ecx
    4c6d:	89 51 04             	mov    %edx,0x4(%ecx)
    4c70:	c7 43 2c 00 00 00 00 	movl   $0x0,0x2c(%ebx)
    4c77:	c7 43 30 00 00 00 00 	movl   $0x0,0x30(%ebx)
    4c7e:	c7 04 24 c0 c4 02 00 	movl   $0x2c4c0,(%esp)
    4c85:	89 45 f4             	mov    %eax,-0xc(%ebp)
    4c88:	e8 63 bb 00 00       	call   107f0 <fibril_mutex_unlock>
    4c8d:	8b 45 f4             	mov    -0xc(%ebp),%eax
    4c90:	83 c4 34             	add    $0x34,%esp
    4c93:	5b                   	pop    %ebx
    4c94:	5d                   	pop    %ebp
    4c95:	c3                   	ret    
    4c96:	c7 44 24 08 35 03 00 	movl   $0x335,0x8(%esp)
    4c9d:	00 
    4c9e:	c7 44 24 04 0c 94 02 	movl   $0x2940c,0x4(%esp)
    4ca5:	00 
    4ca6:	c7 04 24 a4 94 02 00 	movl   $0x294a4,(%esp)
    4cad:	e8 5e f5 01 00       	call   24210 <assert_abort>
    4cb2:	c7 44 24 08 36 03 00 	movl   $0x336,0x8(%esp)
    4cb9:	00 
    4cba:	c7 44 24 04 0c 94 02 	movl   $0x2940c,0x4(%esp)
    4cc1:	00 
    4cc2:	c7 04 24 b8 94 02 00 	movl   $0x294b8,(%esp)
    4cc9:	e8 42 f5 01 00       	call   24210 <assert_abort>
    4cce:	66 90                	xchg   %ax,%ax

00004cd0 <ddf_fun_unbind>:
    4cd0:	55                   	push   %ebp
    4cd1:	89 e5                	mov    %esp,%ebp
    4cd3:	53                   	push   %ebx
    4cd4:	83 ec 24             	sub    $0x24,%esp
    4cd7:	8b 5d 08             	mov    0x8(%ebp),%ebx
    4cda:	80 3b 00             	cmpb   $0x0,(%ebx)
    4cdd:	74 6a                	je     4d49 <ddf_fun_unbind+0x79>
    4cdf:	8b 43 04             	mov    0x4(%ebx),%eax
    4ce2:	89 04 24             	mov    %eax,(%esp)
    4ce5:	e8 06 5c 00 00       	call   a8f0 <devman_remove_function>
    4cea:	85 c0                	test   %eax,%eax
    4cec:	74 0a                	je     4cf8 <ddf_fun_unbind+0x28>
    4cee:	83 c4 24             	add    $0x24,%esp
    4cf1:	5b                   	pop    %ebx
    4cf2:	5d                   	pop    %ebp
    4cf3:	c3                   	ret    
    4cf4:	8d 74 26 00          	lea    0x0(%esi,%eiz,1),%esi
    4cf8:	c7 04 24 c0 c4 02 00 	movl   $0x2c4c0,(%esp)
    4cff:	89 45 f4             	mov    %eax,-0xc(%ebp)
    4d02:	e8 c9 b9 00 00       	call   106d0 <fibril_mutex_lock>
    4d07:	8b 4b 2c             	mov    0x2c(%ebx),%ecx
    4d0a:	85 c9                	test   %ecx,%ecx
    4d0c:	8b 45 f4             	mov    -0xc(%ebp),%eax
    4d0f:	74 0f                	je     4d20 <ddf_fun_unbind+0x50>
    4d11:	8b 53 30             	mov    0x30(%ebx),%edx
    4d14:	85 d2                	test   %edx,%edx
    4d16:	74 08                	je     4d20 <ddf_fun_unbind+0x50>
    4d18:	89 0a                	mov    %ecx,(%edx)
    4d1a:	8b 4b 2c             	mov    0x2c(%ebx),%ecx
    4d1d:	89 51 04             	mov    %edx,0x4(%ecx)
    4d20:	c7 43 2c 00 00 00 00 	movl   $0x0,0x2c(%ebx)
    4d27:	c7 43 30 00 00 00 00 	movl   $0x0,0x30(%ebx)
    4d2e:	c7 04 24 c0 c4 02 00 	movl   $0x2c4c0,(%esp)
    4d35:	89 45 f4             	mov    %eax,-0xc(%ebp)
    4d38:	e8 b3 ba 00 00       	call   107f0 <fibril_mutex_unlock>
    4d3d:	c6 03 00             	movb   $0x0,(%ebx)
    4d40:	8b 45 f4             	mov    -0xc(%ebp),%eax
    4d43:	83 c4 24             	add    $0x24,%esp
    4d46:	5b                   	pop    %ebx
    4d47:	5d                   	pop    %ebp
    4d48:	c3                   	ret    
    4d49:	c7 44 24 08 50 03 00 	movl   $0x350,0x8(%esp)
    4d50:	00 
    4d51:	c7 44 24 04 0c 94 02 	movl   $0x2940c,0x4(%esp)
    4d58:	00 
    4d59:	c7 04 24 ca 94 02 00 	movl   $0x294ca,(%esp)
    4d60:	e8 ab f4 01 00       	call   24210 <assert_abort>
    4d65:	8d 74 26 00          	lea    0x0(%esi,%eiz,1),%esi
    4d69:	8d bc 27 00 00 00 00 	lea    0x0(%edi,%eiz,1),%edi

00004d70 <ddf_fun_online>:
    4d70:	55                   	push   %ebp
    4d71:	89 e5                	mov    %esp,%ebp
    4d73:	83 ec 18             	sub    $0x18,%esp
    4d76:	8b 45 08             	mov    0x8(%ebp),%eax
    4d79:	80 38 00             	cmpb   $0x0,(%eax)
    4d7c:	74 0c                	je     4d8a <ddf_fun_online+0x1a>
    4d7e:	8b 40 04             	mov    0x4(%eax),%eax
    4d81:	89 45 08             	mov    %eax,0x8(%ebp)
    4d84:	c9                   	leave  
    4d85:	e9 d6 5c 00 00       	jmp    aa60 <devman_drv_fun_online>
    4d8a:	c7 44 24 08 65 03 00 	movl   $0x365,0x8(%esp)
    4d91:	00 
    4d92:	c7 44 24 04 0c 94 02 	movl   $0x2940c,0x4(%esp)
    4d99:	00 
    4d9a:	c7 04 24 ca 94 02 00 	movl   $0x294ca,(%esp)
    4da1:	e8 6a f4 01 00       	call   24210 <assert_abort>
    4da6:	8d 76 00             	lea    0x0(%esi),%esi
    4da9:	8d bc 27 00 00 00 00 	lea    0x0(%edi,%eiz,1),%edi

00004db0 <ddf_fun_offline>:
    4db0:	55                   	push   %ebp
    4db1:	89 e5                	mov    %esp,%ebp
    4db3:	83 ec 18             	sub    $0x18,%esp
    4db6:	8b 45 08             	mov    0x8(%ebp),%eax
    4db9:	80 38 00             	cmpb   $0x0,(%eax)
    4dbc:	74 0c                	je     4dca <ddf_fun_offline+0x1a>
    4dbe:	8b 40 04             	mov    0x4(%eax),%eax
    4dc1:	89 45 08             	mov    %eax,0x8(%ebp)
    4dc4:	c9                   	leave  
    4dc5:	e9 86 5d 00 00       	jmp    ab50 <devman_drv_fun_offline>
    4dca:	c7 44 24 08 77 03 00 	movl   $0x377,0x8(%esp)
    4dd1:	00 
    4dd2:	c7 44 24 04 0c 94 02 	movl   $0x2940c,0x4(%esp)
    4dd9:	00 
    4dda:	c7 04 24 ca 94 02 00 	movl   $0x294ca,(%esp)
    4de1:	e8 2a f4 01 00       	call   24210 <assert_abort>
    4de6:	8d 76 00             	lea    0x0(%esi),%esi
    4de9:	8d bc 27 00 00 00 00 	lea    0x0(%edi,%eiz,1),%edi

00004df0 <ddf_fun_add_match_id>:
    4df0:	55                   	push   %ebp
    4df1:	89 e5                	mov    %esp,%ebp
    4df3:	57                   	push   %edi
    4df4:	56                   	push   %esi
    4df5:	53                   	push   %ebx
    4df6:	83 ec 1c             	sub    $0x1c,%esp
    4df9:	8b 75 08             	mov    0x8(%ebp),%esi
    4dfc:	8b 5d 10             	mov    0x10(%ebp),%ebx
    4dff:	80 3e 00             	cmpb   $0x0,(%esi)
    4e02:	0f 85 97 00 00 00    	jne    4e9f <ddf_fun_add_match_id+0xaf>
    4e08:	83 7e 10 01          	cmpl   $0x1,0x10(%esi)
    4e0c:	75 75                	jne    4e83 <ddf_fun_add_match_id+0x93>
    4e0e:	c7 04 24 10 00 00 00 	movl   $0x10,(%esp)
    4e15:	e8 96 4b 01 00       	call   199b0 <malloc>
    4e1a:	c7 44 24 08 10 00 00 	movl   $0x10,0x8(%esp)
    4e21:	00 
    4e22:	89 c7                	mov    %eax,%edi
    4e24:	c7 44 24 04 00 00 00 	movl   $0x0,0x4(%esp)
    4e2b:	00 
    4e2c:	89 04 24             	mov    %eax,(%esp)
    4e2f:	e8 3c 76 00 00       	call   c470 <memset>
    4e34:	85 ff                	test   %edi,%edi
    4e36:	74 44                	je     4e7c <ddf_fun_add_match_id+0x8c>
    4e38:	8b 45 0c             	mov    0xc(%ebp),%eax
    4e3b:	89 04 24             	mov    %eax,(%esp)
    4e3e:	e8 5d a5 00 00       	call   f3a0 <str_dup>
    4e43:	8b 56 1c             	mov    0x1c(%esi),%edx
    4e46:	8d 4e 18             	lea    0x18(%esi),%ecx
    4e49:	89 47 08             	mov    %eax,0x8(%edi)
    4e4c:	89 5f 0c             	mov    %ebx,0xc(%edi)
    4e4f:	39 ca                	cmp    %ecx,%edx
    4e51:	75 0c                	jne    4e5f <ddf_fun_add_match_id+0x6f>
    4e53:	eb 0f                	jmp    4e64 <ddf_fun_add_match_id+0x74>
    4e55:	8d 76 00             	lea    0x0(%esi),%esi
    4e58:	8b 52 04             	mov    0x4(%edx),%edx
    4e5b:	39 ca                	cmp    %ecx,%edx
    4e5d:	74 05                	je     4e64 <ddf_fun_add_match_id+0x74>
    4e5f:	3b 5a 0c             	cmp    0xc(%edx),%ebx
    4e62:	76 f4                	jbe    4e58 <ddf_fun_add_match_id+0x68>
    4e64:	8b 02                	mov    (%edx),%eax
    4e66:	89 57 04             	mov    %edx,0x4(%edi)
    4e69:	89 07                	mov    %eax,(%edi)
    4e6b:	8b 02                	mov    (%edx),%eax
    4e6d:	89 3a                	mov    %edi,(%edx)
    4e6f:	89 78 04             	mov    %edi,0x4(%eax)
    4e72:	31 c0                	xor    %eax,%eax
    4e74:	83 c4 1c             	add    $0x1c,%esp
    4e77:	5b                   	pop    %ebx
    4e78:	5e                   	pop    %esi
    4e79:	5f                   	pop    %edi
    4e7a:	5d                   	pop    %ebp
    4e7b:	c3                   	ret    
    4e7c:	b8 fe ff ff ff       	mov    $0xfffffffe,%eax
    4e81:	eb f1                	jmp    4e74 <ddf_fun_add_match_id+0x84>
    4e83:	c7 44 24 08 91 03 00 	movl   $0x391,0x8(%esp)
    4e8a:	00 
    4e8b:	c7 44 24 04 0c 94 02 	movl   $0x2940c,0x4(%esp)
    4e92:	00 
    4e93:	c7 04 24 dd 94 02 00 	movl   $0x294dd,(%esp)
    4e9a:	e8 71 f3 01 00       	call   24210 <assert_abort>
    4e9f:	c7 44 24 08 90 03 00 	movl   $0x390,0x8(%esp)
    4ea6:	00 
    4ea7:	c7 44 24 04 0c 94 02 	movl   $0x2940c,0x4(%esp)
    4eae:	00 
    4eaf:	c7 04 24 a4 94 02 00 	movl   $0x294a4,(%esp)
    4eb6:	e8 55 f3 01 00       	call   24210 <assert_abort>
    4ebb:	90                   	nop
    4ebc:	8d 74 26 00          	lea    0x0(%esi,%eiz,1),%esi

00004ec0 <ddf_fun_set_ops>:
    4ec0:	55                   	push   %ebp
    4ec1:	89 e5                	mov    %esp,%ebp
    4ec3:	83 ec 18             	sub    $0x18,%esp
    4ec6:	8b 45 08             	mov    0x8(%ebp),%eax
    4ec9:	8b 50 28             	mov    0x28(%eax),%edx
    4ecc:	85 d2                	test   %edx,%edx
    4ece:	75 08                	jne    4ed8 <ddf_fun_set_ops+0x18>
    4ed0:	8b 55 0c             	mov    0xc(%ebp),%edx
    4ed3:	89 50 24             	mov    %edx,0x24(%eax)
    4ed6:	c9                   	leave  
    4ed7:	c3                   	ret    
    4ed8:	c7 44 24 08 a1 03 00 	movl   $0x3a1,0x8(%esp)
    4edf:	00 
    4ee0:	c7 44 24 04 0c 94 02 	movl   $0x2940c,0x4(%esp)
    4ee7:	00 
    4ee8:	c7 04 24 f5 94 02 00 	movl   $0x294f5,(%esp)
    4eef:	e8 1c f3 01 00       	call   24210 <assert_abort>
    4ef4:	8d b6 00 00 00 00    	lea    0x0(%esi),%esi
    4efa:	8d bf 00 00 00 00    	lea    0x0(%edi),%edi

00004f00 <ddf_fun_set_conn_handler>:
    4f00:	55                   	push   %ebp
    4f01:	89 e5                	mov    %esp,%ebp
    4f03:	83 ec 18             	sub    $0x18,%esp
    4f06:	8b 45 08             	mov    0x8(%ebp),%eax
    4f09:	8b 48 24             	mov    0x24(%eax),%ecx
    4f0c:	85 c9                	test   %ecx,%ecx
    4f0e:	75 08                	jne    4f18 <ddf_fun_set_conn_handler+0x18>
