
compositor:     file format elf32-i386


Disassembly of section .init:

00001094 <__entry>:
    1094:	66 8c d0             	mov    %ss,%ax
    1097:	8e d8                	mov    %eax,%ds
    1099:	8e c0                	mov    %eax,%es
    109b:	8e e0                	mov    %eax,%fs
    109d:	b8 01 00 00 00       	mov    $0x1,%eax
    10a2:	0f a2                	cpuid  
    10a4:	0f ba e2 0b          	bt     $0xb,%edx
    10a8:	73 0c                	jae    10b6 <__entry+0x22>
    10aa:	8d 05 74 c9 03 00    	lea    0x3c974,%eax
    10b0:	c7 00 27 74 02 00    	movl   $0x27427,(%eax)
    10b6:	6a 00                	push   $0x0
    10b8:	89 e5                	mov    %esp,%ebp
    10ba:	57                   	push   %edi
    10bb:	e8 a0 95 00 00       	call   a660 <__main>

Disassembly of section .text:

000010c0 <comp_recalc_transform>:
    10c0:	55                   	push   %ebp
    10c1:	89 e5                	mov    %esp,%ebp
    10c3:	57                   	push   %edi
    10c4:	56                   	push   %esi
    10c5:	53                   	push   %ebx
    10c6:	81 ec ac 01 00 00    	sub    $0x1ac,%esp
    10cc:	89 c3                	mov    %eax,%ebx
    10ce:	8d 85 80 fe ff ff    	lea    -0x180(%ebp),%eax
    10d4:	89 04 24             	mov    %eax,(%esp)
    10d7:	e8 74 8e 00 00       	call   9f50 <transform_identity>
    10dc:	8d 85 80 fe ff ff    	lea    -0x180(%ebp),%eax
    10e2:	dd 83 80 00 00 00    	fldl   0x80(%ebx)
    10e8:	89 04 24             	mov    %eax,(%esp)
    10eb:	dd 5c 24 0c          	fstpl  0xc(%esp)
    10ef:	dd 43 78             	fldl   0x78(%ebx)
    10f2:	dd 5c 24 04          	fstpl  0x4(%esp)
    10f6:	e8 85 8e 00 00       	call   9f80 <transform_translate>
    10fb:	8d 95 c8 fe ff ff    	lea    -0x138(%ebp),%edx
    1101:	89 14 24             	mov    %edx,(%esp)
    1104:	e8 47 8e 00 00       	call   9f50 <transform_identity>
    1109:	dd 83 88 00 00 00    	fldl   0x88(%ebx)
    110f:	d9 e8                	fld1   
    1111:	d9 c9                	fxch   %st(1)
    1113:	dd e1                	fucom  %st(1)
    1115:	df e0                	fnstsw %ax
    1117:	80 e4 45             	and    $0x45,%ah
    111a:	dd 83 90 00 00 00    	fldl   0x90(%ebx)
    1120:	80 fc 40             	cmp    $0x40,%ah
    1123:	0f 85 1f 01 00 00    	jne    1248 <comp_recalc_transform+0x188>
    1129:	dd e2                	fucom  %st(2)
    112b:	df e0                	fnstsw %ax
    112d:	dd da                	fstp   %st(2)
    112f:	80 e4 45             	and    $0x45,%ah
    1132:	80 fc 40             	cmp    $0x40,%ah
    1135:	0f 85 15 01 00 00    	jne    1250 <comp_recalc_transform+0x190>
    113b:	dd d8                	fstp   %st(0)
    113d:	dd d8                	fstp   %st(0)
    113f:	8d 95 10 ff ff ff    	lea    -0xf0(%ebp),%edx
    1145:	89 14 24             	mov    %edx,(%esp)
    1148:	e8 03 8e 00 00       	call   9f50 <transform_identity>
    114d:	dd 83 98 00 00 00    	fldl   0x98(%ebx)
    1153:	d9 ee                	fldz   
    1155:	d9 c9                	fxch   %st(1)
    1157:	dd e1                	fucom  %st(1)
    1159:	df e0                	fnstsw %ax
    115b:	dd d9                	fstp   %st(1)
    115d:	80 e4 45             	and    $0x45,%ah
    1160:	80 fc 40             	cmp    $0x40,%ah
    1163:	74 1b                	je     1180 <comp_recalc_transform+0xc0>
    1165:	8d 85 10 ff ff ff    	lea    -0xf0(%ebp),%eax
    116b:	dd 5c 24 04          	fstpl  0x4(%esp)
    116f:	89 04 24             	mov    %eax,(%esp)
    1172:	e8 29 90 00 00       	call   a1a0 <transform_rotate>
    1177:	eb 09                	jmp    1182 <comp_recalc_transform+0xc2>
    1179:	8d b4 26 00 00 00 00 	lea    0x0(%esi,%eiz,1),%esi
    1180:	dd d8                	fstp   %st(0)
    1182:	8d 95 58 ff ff ff    	lea    -0xa8(%ebp),%edx
    1188:	8d 7d a0             	lea    -0x60(%ebp),%edi
    118b:	89 14 24             	mov    %edx,(%esp)
    118e:	89 95 74 fe ff ff    	mov    %edx,-0x18c(%ebp)
    1194:	e8 b7 8d 00 00       	call   9f50 <transform_identity>
    1199:	8b b5 74 fe ff ff    	mov    -0x18c(%ebp),%esi
    119f:	b9 12 00 00 00       	mov    $0x12,%ecx
    11a4:	8d 95 80 fe ff ff    	lea    -0x180(%ebp),%edx
    11aa:	f3 a5                	rep movsl %ds:(%esi),%es:(%edi)
    11ac:	8d 45 a0             	lea    -0x60(%ebp),%eax
    11af:	89 54 24 08          	mov    %edx,0x8(%esp)
    11b3:	8d 95 58 ff ff ff    	lea    -0xa8(%ebp),%edx
    11b9:	89 44 24 04          	mov    %eax,0x4(%esp)
    11bd:	89 14 24             	mov    %edx,(%esp)
    11c0:	89 85 70 fe ff ff    	mov    %eax,-0x190(%ebp)
    11c6:	e8 a5 8b 00 00       	call   9d70 <transform_multiply>
    11cb:	8b 85 70 fe ff ff    	mov    -0x190(%ebp),%eax
    11d1:	89 c7                	mov    %eax,%edi
    11d3:	8b b5 74 fe ff ff    	mov    -0x18c(%ebp),%esi
    11d9:	b9 12 00 00 00       	mov    $0x12,%ecx
    11de:	8d 95 10 ff ff ff    	lea    -0xf0(%ebp),%edx
    11e4:	f3 a5                	rep movsl %ds:(%esi),%es:(%edi)
    11e6:	89 54 24 08          	mov    %edx,0x8(%esp)
    11ea:	8d 95 58 ff ff ff    	lea    -0xa8(%ebp),%edx
    11f0:	89 44 24 04          	mov    %eax,0x4(%esp)
    11f4:	89 14 24             	mov    %edx,(%esp)
    11f7:	e8 74 8b 00 00       	call   9d70 <transform_multiply>
    11fc:	8b 85 70 fe ff ff    	mov    -0x190(%ebp),%eax
    1202:	8b b5 74 fe ff ff    	mov    -0x18c(%ebp),%esi
    1208:	89 c7                	mov    %eax,%edi
    120a:	b9 12 00 00 00       	mov    $0x12,%ecx
    120f:	8d 95 c8 fe ff ff    	lea    -0x138(%ebp),%edx
    1215:	f3 a5                	rep movsl %ds:(%esi),%es:(%edi)
    1217:	89 44 24 04          	mov    %eax,0x4(%esp)
    121b:	8d 85 58 ff ff ff    	lea    -0xa8(%ebp),%eax
    1221:	89 54 24 08          	mov    %edx,0x8(%esp)
    1225:	89 04 24             	mov    %eax,(%esp)
    1228:	e8 43 8b 00 00       	call   9d70 <transform_multiply>
    122d:	8d 7b 30             	lea    0x30(%ebx),%edi
    1230:	8b b5 74 fe ff ff    	mov    -0x18c(%ebp),%esi
    1236:	b9 12 00 00 00       	mov    $0x12,%ecx
    123b:	f3 a5                	rep movsl %ds:(%esi),%es:(%edi)
    123d:	81 c4 ac 01 00 00    	add    $0x1ac,%esp
    1243:	5b                   	pop    %ebx
    1244:	5e                   	pop    %esi
    1245:	5f                   	pop    %edi
    1246:	5d                   	pop    %ebp
    1247:	c3                   	ret    
    1248:	dd da                	fstp   %st(2)
    124a:	d9 c9                	fxch   %st(1)
    124c:	eb 04                	jmp    1252 <comp_recalc_transform+0x192>
    124e:	66 90                	xchg   %ax,%ax
    1250:	d9 c9                	fxch   %st(1)
    1252:	dd 5c 24 0c          	fstpl  0xc(%esp)
    1256:	8d 85 c8 fe ff ff    	lea    -0x138(%ebp),%eax
    125c:	dd 5c 24 04          	fstpl  0x4(%esp)
    1260:	89 04 24             	mov    %eax,(%esp)
    1263:	e8 28 8e 00 00       	call   a090 <transform_scale>
    1268:	e9 d2 fe ff ff       	jmp    113f <comp_recalc_transform+0x7f>
    126d:	8d 76 00             	lea    0x0(%esi),%esi

00001270 <input_disconnect>:
    1270:	55                   	push   %ebp
    1271:	89 e5                	mov    %esp,%ebp
    1273:	53                   	push   %ebx
    1274:	83 ec 14             	sub    $0x14,%esp
    1277:	a1 dc c9 03 00       	mov    0x3c9dc,%eax
    127c:	8b 58 08             	mov    0x8(%eax),%ebx
    127f:	89 04 24             	mov    %eax,(%esp)
    1282:	e8 99 3d 01 00       	call   15020 <input_close>
    1287:	85 db                	test   %ebx,%ebx
    1289:	74 13                	je     129e <input_disconnect+0x2e>
    128b:	8d 43 34             	lea    0x34(%ebx),%eax
    128e:	89 04 24             	mov    %eax,(%esp)
    1291:	e8 ea 62 00 00       	call   7580 <cursor_release>
    1296:	89 1c 24             	mov    %ebx,(%esp)
    1299:	e8 b2 b8 01 00       	call   1cb50 <free>
    129e:	83 c4 14             	add    $0x14,%esp
    12a1:	5b                   	pop    %ebx
    12a2:	5d                   	pop    %ebp
    12a3:	c3                   	ret    
    12a4:	8d b6 00 00 00 00    	lea    0x0(%esi),%esi
    12aa:	8d bf 00 00 00 00    	lea    0x0(%edi),%edi

000012b0 <comp_coord_bounding_rect.constprop.8>:
    12b0:	55                   	push   %ebp
    12b1:	89 e5                	mov    %esp,%ebp
    12b3:	57                   	push   %edi
    12b4:	56                   	push   %esi
    12b5:	53                   	push   %ebx
    12b6:	81 ec cc 01 00 00    	sub    $0x1cc,%esp
    12bc:	dd 45 08             	fldl   0x8(%ebp)
    12bf:	dd 45 10             	fldl   0x10(%ebp)
    12c2:	d9 ee                	fldz   
    12c4:	d9 c0                	fld    %st(0)
    12c6:	d9 cb                	fxch   %st(3)
    12c8:	dd e3                	fucom  %st(3)
    12ca:	df e0                	fnstsw %ax
    12cc:	8b 5d 68             	mov    0x68(%ebp),%ebx
    12cf:	8b 55 6c             	mov    0x6c(%ebp),%edx
    12d2:	f6 c4 45             	test   $0x45,%ah
    12d5:	0f 85 15 04 00 00    	jne    16f0 <comp_coord_bounding_rect.constprop.8+0x440>
    12db:	d9 ca                	fxch   %st(2)
    12dd:	dd e3                	fucom  %st(3)
    12df:	df e0                	fnstsw %ax
    12e1:	f6 c4 45             	test   $0x45,%ah
    12e4:	0f 85 16 04 00 00    	jne    1700 <comp_coord_bounding_rect.constprop.8+0x450>
    12ea:	d9 c9                	fxch   %st(1)
    12ec:	dd 95 98 fe ff ff    	fstl   -0x168(%ebp)
    12f2:	8d bd c8 fe ff ff    	lea    -0x138(%ebp),%edi
    12f8:	8d 75 18             	lea    0x18(%ebp),%esi
    12fb:	b9 12 00 00 00       	mov    $0x12,%ecx
    1300:	8d 85 a0 fe ff ff    	lea    -0x160(%ebp),%eax
    1306:	f3 a5                	rep movsl %ds:(%esi),%es:(%edi)
    1308:	dd 9d a0 fe ff ff    	fstpl  -0x160(%ebp)
    130e:	d9 ca                	fxch   %st(2)
    1310:	8d 8d 98 fe ff ff    	lea    -0x168(%ebp),%ecx
    1316:	89 44 24 08          	mov    %eax,0x8(%esp)
    131a:	dd 9d 68 fe ff ff    	fstpl  -0x198(%ebp)
    1320:	8d 85 c8 fe ff ff    	lea    -0x138(%ebp),%eax
    1326:	89 4c 24 04          	mov    %ecx,0x4(%esp)
    132a:	dd 9d 58 fe ff ff    	fstpl  -0x1a8(%ebp)
    1330:	89 04 24             	mov    %eax,(%esp)
    1333:	89 95 74 fe ff ff    	mov    %edx,-0x18c(%ebp)
    1339:	dd 9d 48 fe ff ff    	fstpl  -0x1b8(%ebp)
    133f:	e8 0c 92 00 00       	call   a550 <transform_apply_affine>
    1344:	8d bd 10 ff ff ff    	lea    -0xf0(%ebp),%edi
    134a:	dd 05 08 99 02 00    	fldl   0x29908
    1350:	d9 bd 96 fe ff ff    	fnstcw -0x16a(%ebp)
    1356:	dc 85 98 fe ff ff    	faddl  -0x168(%ebp)
    135c:	66 8b 85 96 fe ff ff 	mov    -0x16a(%ebp),%ax
    1363:	b4 0c                	mov    $0xc,%ah
    1365:	8d 75 18             	lea    0x18(%ebp),%esi
    1368:	66 89 85 94 fe ff ff 	mov    %ax,-0x16c(%ebp)
    136f:	b9 12 00 00 00       	mov    $0x12,%ecx
    1374:	d9 ad 94 fe ff ff    	fldcw  -0x16c(%ebp)
    137a:	df bd 80 fe ff ff    	fistpll -0x180(%ebp)
    1380:	d9 ad 96 fe ff ff    	fldcw  -0x16a(%ebp)
    1386:	8d 85 a0 fe ff ff    	lea    -0x160(%ebp),%eax
    138c:	dd 05 08 99 02 00    	fldl   0x29908
    1392:	dc 85 a0 fe ff ff    	faddl  -0x160(%ebp)
    1398:	d9 ad 94 fe ff ff    	fldcw  -0x16c(%ebp)
    139e:	df bd 78 fe ff ff    	fistpll -0x188(%ebp)
    13a4:	d9 ad 96 fe ff ff    	fldcw  -0x16a(%ebp)
    13aa:	dd 85 68 fe ff ff    	fldl   -0x198(%ebp)
    13b0:	dd 85 58 fe ff ff    	fldl   -0x1a8(%ebp)
    13b6:	de c1                	faddp  %st,%st(1)
    13b8:	f3 a5                	rep movsl %ds:(%esi),%es:(%edi)
    13ba:	d9 e8                	fld1   
    13bc:	dc e9                	fsubr  %st,%st(1)
    13be:	d9 c9                	fxch   %st(1)
    13c0:	8d 8d 98 fe ff ff    	lea    -0x168(%ebp),%ecx
    13c6:	89 44 24 08          	mov    %eax,0x8(%esp)
    13ca:	8d 85 10 ff ff ff    	lea    -0xf0(%ebp),%eax
    13d0:	89 4c 24 04          	mov    %ecx,0x4(%esp)
    13d4:	89 04 24             	mov    %eax,(%esp)
    13d7:	8d bd 58 ff ff ff    	lea    -0xa8(%ebp),%edi
    13dd:	dd 95 98 fe ff ff    	fstl   -0x168(%ebp)
    13e3:	d9 ee                	fldz   
    13e5:	dd 9d a0 fe ff ff    	fstpl  -0x160(%ebp)
    13eb:	dd 9d 58 fe ff ff    	fstpl  -0x1a8(%ebp)
    13f1:	dd 9d 38 fe ff ff    	fstpl  -0x1c8(%ebp)
    13f7:	e8 54 91 00 00       	call   a550 <transform_apply_affine>
    13fc:	b9 12 00 00 00       	mov    $0x12,%ecx
    1401:	dd 05 08 99 02 00    	fldl   0x29908
    1407:	d9 bd 96 fe ff ff    	fnstcw -0x16a(%ebp)
    140d:	dc 85 98 fe ff ff    	faddl  -0x168(%ebp)
    1413:	66 8b 85 96 fe ff ff 	mov    -0x16a(%ebp),%ax
    141a:	b4 0c                	mov    $0xc,%ah
    141c:	66 89 85 94 fe ff ff 	mov    %ax,-0x16c(%ebp)
    1423:	8d 85 a0 fe ff ff    	lea    -0x160(%ebp),%eax
    1429:	d9 ad 94 fe ff ff    	fldcw  -0x16c(%ebp)
    142f:	df bd 88 fe ff ff    	fistpll -0x178(%ebp)
    1435:	d9 ad 96 fe ff ff    	fldcw  -0x16a(%ebp)
    143b:	dd 05 08 99 02 00    	fldl   0x29908
    1441:	dc 85 a0 fe ff ff    	faddl  -0x160(%ebp)
    1447:	8b b5 88 fe ff ff    	mov    -0x178(%ebp),%esi
    144d:	89 b5 ac fe ff ff    	mov    %esi,-0x154(%ebp)
    1453:	d9 ad 94 fe ff ff    	fldcw  -0x16c(%ebp)
    1459:	df bd 88 fe ff ff    	fistpll -0x178(%ebp)
    145f:	d9 ad 96 fe ff ff    	fldcw  -0x16a(%ebp)
    1465:	dd 85 68 fe ff ff    	fldl   -0x198(%ebp)
    146b:	dd 85 48 fe ff ff    	fldl   -0x1b8(%ebp)
    1471:	de c1                	faddp  %st,%st(1)
    1473:	8b b5 88 fe ff ff    	mov    -0x178(%ebp),%esi
    1479:	89 b5 bc fe ff ff    	mov    %esi,-0x144(%ebp)
    147f:	8d 75 18             	lea    0x18(%ebp),%esi
    1482:	dd 85 38 fe ff ff    	fldl   -0x1c8(%ebp)
    1488:	f3 a5                	rep movsl %ds:(%esi),%es:(%edi)
    148a:	de e9                	fsubrp %st,%st(1)
    148c:	8d 8d 98 fe ff ff    	lea    -0x168(%ebp),%ecx
    1492:	89 44 24 08          	mov    %eax,0x8(%esp)
    1496:	8d 85 58 ff ff ff    	lea    -0xa8(%ebp),%eax
    149c:	89 4c 24 04          	mov    %ecx,0x4(%esp)
    14a0:	89 04 24             	mov    %eax,(%esp)
    14a3:	dd 85 58 fe ff ff    	fldl   -0x1a8(%ebp)
    14a9:	8d 7d a0             	lea    -0x60(%ebp),%edi
    14ac:	dd 9d 98 fe ff ff    	fstpl  -0x168(%ebp)
    14b2:	dd 95 a0 fe ff ff    	fstl   -0x160(%ebp)
    14b8:	dd 9d 68 fe ff ff    	fstpl  -0x198(%ebp)
    14be:	e8 8d 90 00 00       	call   a550 <transform_apply_affine>
    14c3:	b9 12 00 00 00       	mov    $0x12,%ecx
    14c8:	dd 05 08 99 02 00    	fldl   0x29908
    14ce:	d9 bd 96 fe ff ff    	fnstcw -0x16a(%ebp)
    14d4:	dc 85 98 fe ff ff    	faddl  -0x168(%ebp)
    14da:	66 8b 85 96 fe ff ff 	mov    -0x16a(%ebp),%ax
    14e1:	b4 0c                	mov    $0xc,%ah
    14e3:	66 89 85 94 fe ff ff 	mov    %ax,-0x16c(%ebp)
    14ea:	8d 85 a0 fe ff ff    	lea    -0x160(%ebp),%eax
    14f0:	d9 ad 94 fe ff ff    	fldcw  -0x16c(%ebp)
    14f6:	df bd 88 fe ff ff    	fistpll -0x178(%ebp)
    14fc:	d9 ad 96 fe ff ff    	fldcw  -0x16a(%ebp)
    1502:	dd 05 08 99 02 00    	fldl   0x29908
    1508:	dc 85 a0 fe ff ff    	faddl  -0x160(%ebp)
    150e:	8b b5 88 fe ff ff    	mov    -0x178(%ebp),%esi
    1514:	89 b5 b0 fe ff ff    	mov    %esi,-0x150(%ebp)
    151a:	d9 ad 94 fe ff ff    	fldcw  -0x16c(%ebp)
    1520:	df bd 88 fe ff ff    	fistpll -0x178(%ebp)
    1526:	d9 ad 96 fe ff ff    	fldcw  -0x16a(%ebp)
    152c:	8b b5 88 fe ff ff    	mov    -0x178(%ebp),%esi
    1532:	89 b5 c0 fe ff ff    	mov    %esi,-0x140(%ebp)
    1538:	8d 75 18             	lea    0x18(%ebp),%esi
    153b:	f3 a5                	rep movsl %ds:(%esi),%es:(%edi)
    153d:	d9 ee                	fldz   
    153f:	8d 8d 98 fe ff ff    	lea    -0x168(%ebp),%ecx
    1545:	89 44 24 08          	mov    %eax,0x8(%esp)
    1549:	dd 9d 98 fe ff ff    	fstpl  -0x168(%ebp)
    154f:	8d 45 a0             	lea    -0x60(%ebp),%eax
    1552:	89 4c 24 04          	mov    %ecx,0x4(%esp)
    1556:	dd 85 68 fe ff ff    	fldl   -0x198(%ebp)
    155c:	89 04 24             	mov    %eax,(%esp)
    155f:	dd 9d a0 fe ff ff    	fstpl  -0x160(%ebp)
    1565:	e8 e6 8f 00 00       	call   a550 <transform_apply_affine>
    156a:	8b 8d 80 fe ff ff    	mov    -0x180(%ebp),%ecx
    1570:	dd 05 08 99 02 00    	fldl   0x29908
    1576:	d9 bd 96 fe ff ff    	fnstcw -0x16a(%ebp)
    157c:	dc 85 98 fe ff ff    	faddl  -0x168(%ebp)
    1582:	66 8b 85 96 fe ff ff 	mov    -0x16a(%ebp),%ax
    1589:	b4 0c                	mov    $0xc,%ah
    158b:	8b bd 78 fe ff ff    	mov    -0x188(%ebp),%edi
    1591:	66 89 85 94 fe ff ff 	mov    %ax,-0x16c(%ebp)
    1598:	8b 45 60             	mov    0x60(%ebp),%eax
    159b:	d9 ad 94 fe ff ff    	fldcw  -0x16c(%ebp)
    15a1:	df bd 88 fe ff ff    	fistpll -0x178(%ebp)
    15a7:	d9 ad 96 fe ff ff    	fldcw  -0x16a(%ebp)
    15ad:	8b 95 74 fe ff ff    	mov    -0x18c(%ebp),%edx
    15b3:	dd 05 08 99 02 00    	fldl   0x29908
    15b9:	dc 85 a0 fe ff ff    	faddl  -0x160(%ebp)
    15bf:	8b b5 88 fe ff ff    	mov    -0x178(%ebp),%esi
    15c5:	89 b5 b4 fe ff ff    	mov    %esi,-0x14c(%ebp)
    15cb:	d9 ad 94 fe ff ff    	fldcw  -0x16c(%ebp)
    15d1:	df bd 88 fe ff ff    	fistpll -0x178(%ebp)
    15d7:	d9 ad 96 fe ff ff    	fldcw  -0x16a(%ebp)
    15dd:	8b b5 88 fe ff ff    	mov    -0x178(%ebp),%esi
    15e3:	89 08                	mov    %ecx,(%eax)
    15e5:	89 b5 c4 fe ff ff    	mov    %esi,-0x13c(%ebp)
    15eb:	8b 75 64             	mov    0x64(%ebp),%esi
    15ee:	89 3e                	mov    %edi,(%esi)
    15f0:	8b 75 60             	mov    0x60(%ebp),%esi
    15f3:	89 0b                	mov    %ecx,(%ebx)
    15f5:	89 3a                	mov    %edi,(%edx)
    15f7:	8b 8d ac fe ff ff    	mov    -0x154(%ebp),%ecx
    15fd:	8b 06                	mov    (%esi),%eax
    15ff:	39 c8                	cmp    %ecx,%eax
    1601:	0f 87 d1 01 00 00    	ja     17d8 <comp_coord_bounding_rect.constprop.8+0x528>
    1607:	8b 7d 60             	mov    0x60(%ebp),%edi
    160a:	89 07                	mov    %eax,(%edi)
    160c:	8b 7d 64             	mov    0x64(%ebp),%edi
    160f:	8b 85 bc fe ff ff    	mov    -0x144(%ebp),%eax
    1615:	8b 37                	mov    (%edi),%esi
    1617:	39 c6                	cmp    %eax,%esi
    1619:	0f 87 a1 01 00 00    	ja     17c0 <comp_coord_bounding_rect.constprop.8+0x510>
    161f:	89 37                	mov    %esi,(%edi)
    1621:	8b 33                	mov    (%ebx),%esi
    1623:	39 ce                	cmp    %ecx,%esi
    1625:	0f 82 85 01 00 00    	jb     17b0 <comp_coord_bounding_rect.constprop.8+0x500>
    162b:	89 33                	mov    %esi,(%ebx)
    162d:	8b 0a                	mov    (%edx),%ecx
    162f:	39 c1                	cmp    %eax,%ecx
    1631:	0f 82 71 01 00 00    	jb     17a8 <comp_coord_bounding_rect.constprop.8+0x4f8>
    1637:	8b 75 60             	mov    0x60(%ebp),%esi
    163a:	89 0a                	mov    %ecx,(%edx)
    163c:	8b 8d b0 fe ff ff    	mov    -0x150(%ebp),%ecx
    1642:	8b 06                	mov    (%esi),%eax
    1644:	39 c8                	cmp    %ecx,%eax
    1646:	0f 87 54 01 00 00    	ja     17a0 <comp_coord_bounding_rect.constprop.8+0x4f0>
    164c:	8b 7d 60             	mov    0x60(%ebp),%edi
    164f:	89 07                	mov    %eax,(%edi)
    1651:	8b 7d 64             	mov    0x64(%ebp),%edi
    1654:	8b 85 c0 fe ff ff    	mov    -0x140(%ebp),%eax
    165a:	8b 37                	mov    (%edi),%esi
    165c:	39 c6                	cmp    %eax,%esi
    165e:	0f 87 24 01 00 00    	ja     1788 <comp_coord_bounding_rect.constprop.8+0x4d8>
    1664:	89 37                	mov    %esi,(%edi)
    1666:	8b 33                	mov    (%ebx),%esi
    1668:	39 ce                	cmp    %ecx,%esi
    166a:	0f 82 08 01 00 00    	jb     1778 <comp_coord_bounding_rect.constprop.8+0x4c8>
    1670:	89 33                	mov    %esi,(%ebx)
    1672:	8b 0a                	mov    (%edx),%ecx
    1674:	39 c1                	cmp    %eax,%ecx
    1676:	0f 82 f4 00 00 00    	jb     1770 <comp_coord_bounding_rect.constprop.8+0x4c0>
    167c:	8b 75 60             	mov    0x60(%ebp),%esi
    167f:	89 0a                	mov    %ecx,(%edx)
    1681:	8b 8d b4 fe ff ff    	mov    -0x14c(%ebp),%ecx
    1687:	8b 06                	mov    (%esi),%eax
    1689:	39 c8                	cmp    %ecx,%eax
    168b:	0f 87 d7 00 00 00    	ja     1768 <comp_coord_bounding_rect.constprop.8+0x4b8>
    1691:	8b 7d 60             	mov    0x60(%ebp),%edi
    1694:	89 07                	mov    %eax,(%edi)
    1696:	8b 7d 64             	mov    0x64(%ebp),%edi
    1699:	8b 85 c4 fe ff ff    	mov    -0x13c(%ebp),%eax
    169f:	8b 37                	mov    (%edi),%esi
    16a1:	39 c6                	cmp    %eax,%esi
    16a3:	0f 87 a7 00 00 00    	ja     1750 <comp_coord_bounding_rect.constprop.8+0x4a0>
    16a9:	89 37                	mov    %esi,(%edi)
    16ab:	8b 33                	mov    (%ebx),%esi
    16ad:	39 ce                	cmp    %ecx,%esi
    16af:	0f 82 8b 00 00 00    	jb     1740 <comp_coord_bounding_rect.constprop.8+0x490>
    16b5:	89 33                	mov    %esi,(%ebx)
    16b7:	8b 0a                	mov    (%edx),%ecx
    16b9:	39 c1                	cmp    %eax,%ecx
    16bb:	72 7b                	jb     1738 <comp_coord_bounding_rect.constprop.8+0x488>
    16bd:	8b 75 60             	mov    0x60(%ebp),%esi
    16c0:	89 0a                	mov    %ecx,(%edx)
    16c2:	b8 01 00 00 00       	mov    $0x1,%eax
    16c7:	8b 3e                	mov    (%esi),%edi
    16c9:	89 c1                	mov    %eax,%ecx
    16cb:	8b 33                	mov    (%ebx),%esi
    16cd:	29 f9                	sub    %edi,%ecx
    16cf:	01 ce                	add    %ecx,%esi
    16d1:	8b 7d 64             	mov    0x64(%ebp),%edi
    16d4:	89 33                	mov    %esi,(%ebx)
    16d6:	8b 0f                	mov    (%edi),%ecx
    16d8:	8b 1a                	mov    (%edx),%ebx
    16da:	29 c8                	sub    %ecx,%eax
    16dc:	01 c3                	add    %eax,%ebx
    16de:	89 1a                	mov    %ebx,(%edx)
    16e0:	81 c4 cc 01 00 00    	add    $0x1cc,%esp
    16e6:	5b                   	pop    %ebx
    16e7:	5e                   	pop    %esi
    16e8:	5f                   	pop    %edi
    16e9:	5d                   	pop    %ebp
    16ea:	c3                   	ret    
    16eb:	90                   	nop
    16ec:	8d 74 26 00          	lea    0x0(%esi,%eiz,1),%esi
    16f0:	dd d8                	fstp   %st(0)
    16f2:	dd d8                	fstp   %st(0)
    16f4:	dd d8                	fstp   %st(0)
    16f6:	dd d8                	fstp   %st(0)
    16f8:	eb 0e                	jmp    1708 <comp_coord_bounding_rect.constprop.8+0x458>
    16fa:	8d b6 00 00 00 00    	lea    0x0(%esi),%esi
    1700:	dd d8                	fstp   %st(0)
    1702:	dd d8                	fstp   %st(0)
    1704:	dd d8                	fstp   %st(0)
    1706:	dd d8                	fstp   %st(0)
    1708:	8b 45 60             	mov    0x60(%ebp),%eax
    170b:	8b 4d 64             	mov    0x64(%ebp),%ecx
    170e:	c7 00 00 00 00 00    	movl   $0x0,(%eax)
    1714:	c7 01 00 00 00 00    	movl   $0x0,(%ecx)
    171a:	c7 03 00 00 00 00    	movl   $0x0,(%ebx)
    1720:	c7 02 00 00 00 00    	movl   $0x0,(%edx)
    1726:	81 c4 cc 01 00 00    	add    $0x1cc,%esp
    172c:	5b                   	pop    %ebx
    172d:	5e                   	pop    %esi
    172e:	5f                   	pop    %edi
    172f:	5d                   	pop    %ebp
    1730:	c3                   	ret    
    1731:	8d b4 26 00 00 00 00 	lea    0x0(%esi,%eiz,1),%esi
    1738:	89 c1                	mov    %eax,%ecx
    173a:	eb 81                	jmp    16bd <comp_coord_bounding_rect.constprop.8+0x40d>
    173c:	8d 74 26 00          	lea    0x0(%esi,%eiz,1),%esi
    1740:	89 ce                	mov    %ecx,%esi
    1742:	89 33                	mov    %esi,(%ebx)
    1744:	8b 0a                	mov    (%edx),%ecx
    1746:	39 c1                	cmp    %eax,%ecx
    1748:	0f 83 6f ff ff ff    	jae    16bd <comp_coord_bounding_rect.constprop.8+0x40d>
    174e:	eb e8                	jmp    1738 <comp_coord_bounding_rect.constprop.8+0x488>
    1750:	8b 7d 64             	mov    0x64(%ebp),%edi
    1753:	89 c6                	mov    %eax,%esi
    1755:	89 37                	mov    %esi,(%edi)
    1757:	8b 33                	mov    (%ebx),%esi
    1759:	39 ce                	cmp    %ecx,%esi
    175b:	0f 83 54 ff ff ff    	jae    16b5 <comp_coord_bounding_rect.constprop.8+0x405>
    1761:	eb dd                	jmp    1740 <comp_coord_bounding_rect.constprop.8+0x490>
    1763:	90                   	nop
    1764:	8d 74 26 00          	lea    0x0(%esi,%eiz,1),%esi
    1768:	89 c8                	mov    %ecx,%eax
    176a:	e9 22 ff ff ff       	jmp    1691 <comp_coord_bounding_rect.constprop.8+0x3e1>
    176f:	90                   	nop
    1770:	89 c1                	mov    %eax,%ecx
    1772:	e9 05 ff ff ff       	jmp    167c <comp_coord_bounding_rect.constprop.8+0x3cc>
    1777:	90                   	nop
    1778:	89 ce                	mov    %ecx,%esi
    177a:	89 33                	mov    %esi,(%ebx)
    177c:	8b 0a                	mov    (%edx),%ecx
    177e:	39 c1                	cmp    %eax,%ecx
    1780:	0f 83 f6 fe ff ff    	jae    167c <comp_coord_bounding_rect.constprop.8+0x3cc>
    1786:	eb e8                	jmp    1770 <comp_coord_bounding_rect.constprop.8+0x4c0>
    1788:	8b 7d 64             	mov    0x64(%ebp),%edi
    178b:	89 c6                	mov    %eax,%esi
    178d:	89 37                	mov    %esi,(%edi)
    178f:	8b 33                	mov    (%ebx),%esi
    1791:	39 ce                	cmp    %ecx,%esi
    1793:	0f 83 d7 fe ff ff    	jae    1670 <comp_coord_bounding_rect.constprop.8+0x3c0>
    1799:	eb dd                	jmp    1778 <comp_coord_bounding_rect.constprop.8+0x4c8>
    179b:	90                   	nop
    179c:	8d 74 26 00          	lea    0x0(%esi,%eiz,1),%esi
    17a0:	89 c8                	mov    %ecx,%eax
    17a2:	e9 a5 fe ff ff       	jmp    164c <comp_coord_bounding_rect.constprop.8+0x39c>
    17a7:	90                   	nop
    17a8:	89 c1                	mov    %eax,%ecx
    17aa:	e9 88 fe ff ff       	jmp    1637 <comp_coord_bounding_rect.constprop.8+0x387>
    17af:	90                   	nop
    17b0:	89 ce                	mov    %ecx,%esi
    17b2:	89 33                	mov    %esi,(%ebx)
    17b4:	8b 0a                	mov    (%edx),%ecx
    17b6:	39 c1                	cmp    %eax,%ecx
    17b8:	0f 83 79 fe ff ff    	jae    1637 <comp_coord_bounding_rect.constprop.8+0x387>
    17be:	eb e8                	jmp    17a8 <comp_coord_bounding_rect.constprop.8+0x4f8>
    17c0:	8b 7d 64             	mov    0x64(%ebp),%edi
    17c3:	89 c6                	mov    %eax,%esi
    17c5:	89 37                	mov    %esi,(%edi)
    17c7:	8b 33                	mov    (%ebx),%esi
    17c9:	39 ce                	cmp    %ecx,%esi
    17cb:	0f 83 5a fe ff ff    	jae    162b <comp_coord_bounding_rect.constprop.8+0x37b>
    17d1:	eb dd                	jmp    17b0 <comp_coord_bounding_rect.constprop.8+0x500>
    17d3:	90                   	nop
    17d4:	8d 74 26 00          	lea    0x0(%esi,%eiz,1),%esi
    17d8:	89 c8                	mov    %ecx,%eax
    17da:	e9 28 fe ff ff       	jmp    1607 <comp_coord_bounding_rect.constprop.8+0x357>
    17df:	90                   	nop

000017e0 <comp_damage>:
    17e0:	55                   	push   %ebp
    17e1:	89 e5                	mov    %esp,%ebp
    17e3:	57                   	push   %edi
    17e4:	56                   	push   %esi
    17e5:	53                   	push   %ebx
    17e6:	81 ec 2c 02 00 00    	sub    $0x22c,%esp
    17ec:	89 85 50 fe ff ff    	mov    %eax,-0x1b0(%ebp)
    17f2:	89 95 4c fe ff ff    	mov    %edx,-0x1b4(%ebp)
    17f8:	89 8d 48 fe ff ff    	mov    %ecx,-0x1b8(%ebp)
    17fe:	c7 04 24 a8 c5 02 00 	movl   $0x2c5a8,(%esp)
    1805:	e8 56 1b 01 00       	call   13360 <fibril_mutex_lock>
    180a:	c7 04 24 68 c5 02 00 	movl   $0x2c568,(%esp)
    1811:	e8 4a 1b 01 00       	call   13360 <fibril_mutex_lock>
    1816:	c7 04 24 80 c5 02 00 	movl   $0x2c580,(%esp)
    181d:	e8 3e 1b 01 00       	call   13360 <fibril_mutex_lock>
    1822:	8b 1d 64 c5 02 00    	mov    0x2c564,%ebx
    1828:	81 fb 60 c5 02 00    	cmp    $0x2c560,%ebx
    182e:	0f 84 e4 08 00 00    	je     2118 <comp_damage+0x938>
    1834:	8d 95 94 fe ff ff    	lea    -0x16c(%ebp),%edx
    183a:	8d 85 98 fe ff ff    	lea    -0x168(%ebp),%eax
    1840:	89 54 24 04          	mov    %edx,0x4(%esp)
    1844:	89 44 24 08          	mov    %eax,0x8(%esp)
    1848:	8b 43 40             	mov    0x40(%ebx),%eax
    184b:	89 04 24             	mov    %eax,(%esp)
    184e:	e8 ad 66 00 00       	call   7f00 <surface_get_resolution>
    1853:	8d 85 94 fe ff ff    	lea    -0x16c(%ebp),%eax
    1859:	89 44 24 28          	mov    %eax,0x28(%esp)
    185d:	8d 8d 98 fe ff ff    	lea    -0x168(%ebp),%ecx
    1863:	8b 85 98 fe ff ff    	mov    -0x168(%ebp),%eax
    1869:	89 4c 24 2c          	mov    %ecx,0x2c(%esp)
    186d:	89 44 24 1c          	mov    %eax,0x1c(%esp)
    1871:	8d 95 90 fe ff ff    	lea    -0x170(%ebp),%edx
    1877:	8b 85 94 fe ff ff    	mov    -0x16c(%ebp),%eax
    187d:	8d 8d 8c fe ff ff    	lea    -0x174(%ebp),%ecx
    1883:	89 54 24 24          	mov    %edx,0x24(%esp)
    1887:	89 4c 24 20          	mov    %ecx,0x20(%esp)
    188b:	89 44 24 18          	mov    %eax,0x18(%esp)
    188f:	8b 55 08             	mov    0x8(%ebp),%edx
    1892:	8b 43 3c             	mov    0x3c(%ebx),%eax
    1895:	8b 8d 48 fe ff ff    	mov    -0x1b8(%ebp),%ecx
    189b:	89 44 24 14          	mov    %eax,0x14(%esp)
    189f:	8b 43 38             	mov    0x38(%ebx),%eax
    18a2:	89 54 24 0c          	mov    %edx,0xc(%esp)
    18a6:	89 44 24 10          	mov    %eax,0x10(%esp)
    18aa:	8b 95 4c fe ff ff    	mov    -0x1b4(%ebp),%edx
    18b0:	8b 85 50 fe ff ff    	mov    -0x1b0(%ebp),%eax
    18b6:	89 4c 24 08          	mov    %ecx,0x8(%esp)
    18ba:	89 54 24 04          	mov    %edx,0x4(%esp)
    18be:	89 04 24             	mov    %eax,(%esp)
    18c1:	e8 9a 83 00 00       	call   9c60 <rectangle_intersect>
    18c6:	84 c0                	test   %al,%al
    18c8:	0f 84 3b 08 00 00    	je     2109 <comp_damage+0x929>
    18ce:	8b bd 90 fe ff ff    	mov    -0x170(%ebp),%edi
    18d4:	8b 73 3c             	mov    0x3c(%ebx),%esi
    18d7:	29 f7                	sub    %esi,%edi
    18d9:	8b 95 98 fe ff ff    	mov    -0x168(%ebp),%edx
    18df:	8d 04 17             	lea    (%edi,%edx,1),%eax
    18e2:	39 c7                	cmp    %eax,%edi
    18e4:	0f 83 be 0a 00 00    	jae    23a8 <comp_damage+0xbc8>
    18ea:	8d b6 00 00 00 00    	lea    0x0(%esi),%esi
    18f0:	8b 43 40             	mov    0x40(%ebx),%eax
    18f3:	8b 4b 38             	mov    0x38(%ebx),%ecx
    18f6:	8b b5 8c fe ff ff    	mov    -0x174(%ebp),%esi
    18fc:	89 04 24             	mov    %eax,(%esp)
    18ff:	29 ce                	sub    %ecx,%esi
    1901:	e8 ea 65 00 00       	call   7ef0 <surface_pixmap_access>
    1906:	31 c9                	xor    %ecx,%ecx
    1908:	8b 10                	mov    (%eax),%edx
    190a:	39 d6                	cmp    %edx,%esi
    190c:	73 10                	jae    191e <comp_damage+0x13e>
    190e:	39 78 04             	cmp    %edi,0x4(%eax)
    1911:	76 0b                	jbe    191e <comp_damage+0x13e>
    1913:	0f af d7             	imul   %edi,%edx
    1916:	8b 40 08             	mov    0x8(%eax),%eax
    1919:	01 d6                	add    %edx,%esi
    191b:	8d 0c b0             	lea    (%eax,%esi,4),%ecx
    191e:	8b 95 94 fe ff ff    	mov    -0x16c(%ebp),%edx
    1924:	85 d2                	test   %edx,%edx
    1926:	74 10                	je     1938 <comp_damage+0x158>
    1928:	8b 35 b4 c9 03 00    	mov    0x3c9b4,%esi
    192e:	31 c0                	xor    %eax,%eax
    1930:	89 34 81             	mov    %esi,(%ecx,%eax,4)
    1933:	40                   	inc    %eax
    1934:	39 d0                	cmp    %edx,%eax
    1936:	75 f8                	jne    1930 <comp_damage+0x150>
    1938:	8b 53 3c             	mov    0x3c(%ebx),%edx
    193b:	8b 85 90 fe ff ff    	mov    -0x170(%ebp),%eax
    1941:	29 d0                	sub    %edx,%eax
    1943:	8b 95 98 fe ff ff    	mov    -0x168(%ebp),%edx
    1949:	47                   	inc    %edi
    194a:	8d 0c 10             	lea    (%eax,%edx,1),%ecx
    194d:	39 f9                	cmp    %edi,%ecx
    194f:	77 9f                	ja     18f0 <comp_damage+0x110>
    1951:	89 54 24 10          	mov    %edx,0x10(%esp)
    1955:	8b 95 94 fe ff ff    	mov    -0x16c(%ebp),%edx
    195b:	89 54 24 0c          	mov    %edx,0xc(%esp)
    195f:	89 44 24 08          	mov    %eax,0x8(%esp)
    1963:	8b 7b 38             	mov    0x38(%ebx),%edi
    1966:	8b 85 8c fe ff ff    	mov    -0x174(%ebp),%eax
    196c:	29 f8                	sub    %edi,%eax
    196e:	89 44 24 04          	mov    %eax,0x4(%esp)
    1972:	8b 43 40             	mov    0x40(%ebx),%eax
    1975:	89 04 24             	mov    %eax,(%esp)
    1978:	e8 c3 66 00 00       	call   8040 <surface_add_damaged_region>
    197d:	8d 55 84             	lea    -0x7c(%ebp),%edx
    1980:	89 14 24             	mov    %edx,(%esp)
    1983:	e8 a8 60 00 00       	call   7a30 <source_init>
    1988:	8d 4d 84             	lea    -0x7c(%ebp),%ecx
    198b:	89 0c 24             	mov    %ecx,(%esp)
    198e:	c7 44 24 04 00 94 00 	movl   $0x9400,0x4(%esp)
    1995:	00 
    1996:	e8 15 61 00 00       	call   7ab0 <source_set_filter>
    199b:	8b 43 40             	mov    0x40(%ebx),%eax
    199e:	89 44 24 04          	mov    %eax,0x4(%esp)
    19a2:	8d 85 bc fe ff ff    	lea    -0x144(%ebp),%eax
    19a8:	89 04 24             	mov    %eax,(%esp)
    19ab:	e8 10 56 00 00       	call   6fc0 <drawctx_init>
    19b0:	8d 95 bc fe ff ff    	lea    -0x144(%ebp),%edx
    19b6:	89 14 24             	mov    %edx,(%esp)
    19b9:	c7 44 24 04 50 92 00 	movl   $0x9250,0x4(%esp)
    19c0:	00 
    19c1:	e8 6a 57 00 00       	call   7130 <drawctx_set_compose>
    19c6:	8d 4d 84             	lea    -0x7c(%ebp),%ecx
    19c9:	8d 85 bc fe ff ff    	lea    -0x144(%ebp),%eax
    19cf:	89 4c 24 04          	mov    %ecx,0x4(%esp)
    19d3:	89 04 24             	mov    %eax,(%esp)
    19d6:	e8 d5 57 00 00       	call   71b0 <drawctx_set_source>
    19db:	8b 15 78 c5 02 00    	mov    0x2c578,%edx
    19e1:	81 fa 78 c5 02 00    	cmp    $0x2c578,%edx
    19e7:	0f 84 31 02 00 00    	je     1c1e <comp_damage+0x43e>
    19ed:	89 9d 78 fe ff ff    	mov    %ebx,-0x188(%ebp)
    19f3:	89 d3                	mov    %edx,%ebx
    19f5:	eb 0f                	jmp    1a06 <comp_damage+0x226>
    19f7:	90                   	nop
    19f8:	8b 1b                	mov    (%ebx),%ebx
    19fa:	81 fb 78 c5 02 00    	cmp    $0x2c578,%ebx
    1a00:	0f 84 12 02 00 00    	je     1c18 <comp_damage+0x438>
    1a06:	8b 83 a4 00 00 00    	mov    0xa4(%ebx),%eax
    1a0c:	85 c0                	test   %eax,%eax
    1a0e:	74 e8                	je     19f8 <comp_damage+0x218>
    1a10:	8d 95 b8 fe ff ff    	lea    -0x148(%ebp),%edx
    1a16:	8d 8d b4 fe ff ff    	lea    -0x14c(%ebp),%ecx
    1a1c:	89 54 24 08          	mov    %edx,0x8(%esp)
    1a20:	89 4c 24 04          	mov    %ecx,0x4(%esp)
    1a24:	89 04 24             	mov    %eax,(%esp)
    1a27:	8d 7c 24 10          	lea    0x10(%esp),%edi
    1a2b:	e8 d0 64 00 00       	call   7f00 <surface_get_resolution>
    1a30:	8d 85 b8 fe ff ff    	lea    -0x148(%ebp),%eax
    1a36:	8d 95 b4 fe ff ff    	lea    -0x14c(%ebp),%edx
    1a3c:	8d 4b 30             	lea    0x30(%ebx),%ecx
    1a3f:	89 8d 7c fe ff ff    	mov    %ecx,-0x184(%ebp)
    1a45:	89 44 24 64          	mov    %eax,0x64(%esp)
    1a49:	89 54 24 60          	mov    %edx,0x60(%esp)
    1a4d:	8d 85 ac fe ff ff    	lea    -0x154(%ebp),%eax
    1a53:	8d 95 b0 fe ff ff    	lea    -0x150(%ebp),%edx
    1a59:	89 44 24 58          	mov    %eax,0x58(%esp)
    1a5d:	89 54 24 5c          	mov    %edx,0x5c(%esp)
    1a61:	8b b5 7c fe ff ff    	mov    -0x184(%ebp),%esi
    1a67:	b9 12 00 00 00       	mov    $0x12,%ecx
    1a6c:	f3 a5                	rep movsl %ds:(%esi),%es:(%edi)
    1a6e:	31 ff                	xor    %edi,%edi
    1a70:	8b b5 b8 fe ff ff    	mov    -0x148(%ebp),%esi
    1a76:	89 b5 80 fe ff ff    	mov    %esi,-0x180(%ebp)
    1a7c:	89 bd 84 fe ff ff    	mov    %edi,-0x17c(%ebp)
    1a82:	df ad 80 fe ff ff    	fildll -0x180(%ebp)
    1a88:	8b b5 b4 fe ff ff    	mov    -0x14c(%ebp),%esi
    1a8e:	31 ff                	xor    %edi,%edi
    1a90:	dd 5c 24 08          	fstpl  0x8(%esp)
    1a94:	89 b5 80 fe ff ff    	mov    %esi,-0x180(%ebp)
    1a9a:	89 bd 84 fe ff ff    	mov    %edi,-0x17c(%ebp)
    1aa0:	df ad 80 fe ff ff    	fildll -0x180(%ebp)
    1aa6:	89 85 44 fe ff ff    	mov    %eax,-0x1bc(%ebp)
    1aac:	89 95 40 fe ff ff    	mov    %edx,-0x1c0(%ebp)
    1ab2:	dd 1c 24             	fstpl  (%esp)
    1ab5:	e8 f6 f7 ff ff       	call   12b0 <comp_coord_bounding_rect.constprop.8>
    1aba:	8b 85 44 fe ff ff    	mov    -0x1bc(%ebp),%eax
    1ac0:	89 44 24 20          	mov    %eax,0x20(%esp)
    1ac4:	8b 85 b8 fe ff ff    	mov    -0x148(%ebp),%eax
    1aca:	89 44 24 1c          	mov    %eax,0x1c(%esp)
    1ace:	8b 85 b4 fe ff ff    	mov    -0x14c(%ebp),%eax
    1ad4:	89 44 24 18          	mov    %eax,0x18(%esp)
    1ad8:	8b 85 b0 fe ff ff    	mov    -0x150(%ebp),%eax
    1ade:	89 44 24 14          	mov    %eax,0x14(%esp)
    1ae2:	8b 85 ac fe ff ff    	mov    -0x154(%ebp),%eax
    1ae8:	89 44 24 10          	mov    %eax,0x10(%esp)
    1aec:	8b 85 98 fe ff ff    	mov    -0x168(%ebp),%eax
    1af2:	89 44 24 0c          	mov    %eax,0xc(%esp)
    1af6:	8b 85 94 fe ff ff    	mov    -0x16c(%ebp),%eax
    1afc:	8d 8d b8 fe ff ff    	lea    -0x148(%ebp),%ecx
    1b02:	89 44 24 08          	mov    %eax,0x8(%esp)
    1b06:	8b 85 90 fe ff ff    	mov    -0x170(%ebp),%eax
    1b0c:	89 4c 24 2c          	mov    %ecx,0x2c(%esp)
    1b10:	8b 95 40 fe ff ff    	mov    -0x1c0(%ebp),%edx
    1b16:	8d 8d b4 fe ff ff    	lea    -0x14c(%ebp),%ecx
    1b1c:	89 44 24 04          	mov    %eax,0x4(%esp)
    1b20:	8b 85 8c fe ff ff    	mov    -0x174(%ebp),%eax
    1b26:	89 4c 24 28          	mov    %ecx,0x28(%esp)
    1b2a:	89 54 24 24          	mov    %edx,0x24(%esp)
    1b2e:	89 04 24             	mov    %eax,(%esp)
    1b31:	e8 2a 81 00 00       	call   9c60 <rectangle_intersect>
    1b36:	84 c0                	test   %al,%al
    1b38:	0f 84 ba fe ff ff    	je     19f8 <comp_damage+0x218>
    1b3e:	8b b5 7c fe ff ff    	mov    -0x184(%ebp),%esi
    1b44:	8d bd f4 fe ff ff    	lea    -0x10c(%ebp),%edi
    1b4a:	b9 12 00 00 00       	mov    $0x12,%ecx
    1b4f:	8b 95 78 fe ff ff    	mov    -0x188(%ebp),%edx
    1b55:	f3 a5                	rep movsl %ds:(%esi),%es:(%edi)
    1b57:	db 42 3c             	fildl  0x3c(%edx)
    1b5a:	d9 e0                	fchs   
    1b5c:	8d b5 f4 fe ff ff    	lea    -0x10c(%ebp),%esi
    1b62:	8d 7c 24 04          	lea    0x4(%esp),%edi
    1b66:	dd 5c 24 0c          	fstpl  0xc(%esp)
    1b6a:	db 42 38             	fildl  0x38(%edx)
    1b6d:	d9 e0                	fchs   
    1b6f:	89 34 24             	mov    %esi,(%esp)
    1b72:	dd 5c 24 04          	fstpl  0x4(%esp)
    1b76:	e8 05 84 00 00       	call   9f80 <transform_translate>
    1b7b:	b9 12 00 00 00       	mov    $0x12,%ecx
    1b80:	f3 a5                	rep movsl %ds:(%esi),%es:(%edi)
    1b82:	8d 4d 84             	lea    -0x7c(%ebp),%ecx
    1b85:	89 0c 24             	mov    %ecx,(%esp)
    1b88:	e8 f3 5e 00 00       	call   7a80 <source_set_transform>
    1b8d:	c7 44 24 08 00 00 00 	movl   $0x0,0x8(%esp)
    1b94:	00 
    1b95:	8b 83 a4 00 00 00    	mov    0xa4(%ebx),%eax
    1b9b:	89 44 24 04          	mov    %eax,0x4(%esp)
    1b9f:	8d 45 84             	lea    -0x7c(%ebp),%eax
    1ba2:	89 04 24             	mov    %eax,(%esp)
    1ba5:	e8 26 5f 00 00       	call   7ad0 <source_set_texture>
    1baa:	31 c0                	xor    %eax,%eax
    1bac:	8a 83 a0 00 00 00    	mov    0xa0(%ebx),%al
    1bb2:	8d 55 84             	lea    -0x7c(%ebp),%edx
    1bb5:	c1 e0 18             	shl    $0x18,%eax
    1bb8:	89 14 24             	mov    %edx,(%esp)
    1bbb:	89 44 24 04          	mov    %eax,0x4(%esp)
    1bbf:	e8 2c 5f 00 00       	call   7af0 <source_set_alpha>
    1bc4:	8b 85 b8 fe ff ff    	mov    -0x148(%ebp),%eax
    1bca:	89 44 24 10          	mov    %eax,0x10(%esp)
    1bce:	8b 95 78 fe ff ff    	mov    -0x188(%ebp),%edx
    1bd4:	8b 85 b4 fe ff ff    	mov    -0x14c(%ebp),%eax
    1bda:	89 44 24 0c          	mov    %eax,0xc(%esp)
    1bde:	8b 85 b0 fe ff ff    	mov    -0x150(%ebp),%eax
    1be4:	8b 4a 3c             	mov    0x3c(%edx),%ecx
    1be7:	29 c8                	sub    %ecx,%eax
    1be9:	8d 8d bc fe ff ff    	lea    -0x144(%ebp),%ecx
    1bef:	89 44 24 08          	mov    %eax,0x8(%esp)
    1bf3:	8b 85 ac fe ff ff    	mov    -0x154(%ebp),%eax
    1bf9:	8b 72 38             	mov    0x38(%edx),%esi
    1bfc:	89 0c 24             	mov    %ecx,(%esp)
    1bff:	29 f0                	sub    %esi,%eax
    1c01:	89 44 24 04          	mov    %eax,0x4(%esp)
    1c05:	e8 c6 55 00 00       	call   71d0 <drawctx_transfer>
    1c0a:	8b 1b                	mov    (%ebx),%ebx
    1c0c:	81 fb 78 c5 02 00    	cmp    $0x2c578,%ebx
    1c12:	0f 85 ee fd ff ff    	jne    1a06 <comp_damage+0x226>
    1c18:	8b 9d 78 fe ff ff    	mov    -0x188(%ebp),%ebx
    1c1e:	8b 15 94 c5 02 00    	mov    0x2c594,%edx
    1c24:	89 95 7c fe ff ff    	mov    %edx,-0x184(%ebp)
    1c2a:	81 fa 90 c5 02 00    	cmp    $0x2c590,%edx
    1c30:	75 21                	jne    1c53 <comp_damage+0x473>
    1c32:	e9 d2 04 00 00       	jmp    2109 <comp_damage+0x929>
    1c37:	90                   	nop
    1c38:	8b 95 7c fe ff ff    	mov    -0x184(%ebp),%edx
    1c3e:	8b 52 04             	mov    0x4(%edx),%edx
    1c41:	89 95 7c fe ff ff    	mov    %edx,-0x184(%ebp)
    1c47:	81 fa 90 c5 02 00    	cmp    $0x2c590,%edx
    1c4d:	0f 84 55 02 00 00    	je     1ea8 <comp_damage+0x6c8>
    1c53:	8b 82 e8 00 00 00    	mov    0xe8(%edx),%eax
    1c59:	85 c0                	test   %eax,%eax
    1c5b:	74 db                	je     1c38 <comp_damage+0x458>
    1c5d:	8d 8d a8 fe ff ff    	lea    -0x158(%ebp),%ecx
    1c63:	8d 95 a4 fe ff ff    	lea    -0x15c(%ebp),%edx
    1c69:	89 4c 24 08          	mov    %ecx,0x8(%esp)
    1c6d:	89 54 24 04          	mov    %edx,0x4(%esp)
    1c71:	89 04 24             	mov    %eax,(%esp)
    1c74:	8d 7c 24 10          	lea    0x10(%esp),%edi
    1c78:	e8 83 62 00 00       	call   7f00 <surface_get_resolution>
    1c7d:	8d 85 a4 fe ff ff    	lea    -0x15c(%ebp),%eax
    1c83:	89 44 24 60          	mov    %eax,0x60(%esp)
    1c87:	8b 95 7c fe ff ff    	mov    -0x184(%ebp),%edx
    1c8d:	8d 85 a0 fe ff ff    	lea    -0x160(%ebp),%eax
    1c93:	83 c2 74             	add    $0x74,%edx
    1c96:	89 44 24 5c          	mov    %eax,0x5c(%esp)
    1c9a:	8d 8d a8 fe ff ff    	lea    -0x158(%ebp),%ecx
    1ca0:	8d 85 9c fe ff ff    	lea    -0x164(%ebp),%eax
    1ca6:	89 4c 24 64          	mov    %ecx,0x64(%esp)
    1caa:	89 44 24 58          	mov    %eax,0x58(%esp)
    1cae:	89 d6                	mov    %edx,%esi
    1cb0:	b9 12 00 00 00       	mov    $0x12,%ecx
    1cb5:	89 95 78 fe ff ff    	mov    %edx,-0x188(%ebp)
    1cbb:	f3 a5                	rep movsl %ds:(%esi),%es:(%edi)
    1cbd:	31 d2                	xor    %edx,%edx
    1cbf:	8b 85 a8 fe ff ff    	mov    -0x158(%ebp),%eax
    1cc5:	89 85 80 fe ff ff    	mov    %eax,-0x180(%ebp)
    1ccb:	89 95 84 fe ff ff    	mov    %edx,-0x17c(%ebp)
    1cd1:	df ad 80 fe ff ff    	fildll -0x180(%ebp)
    1cd7:	31 d2                	xor    %edx,%edx
    1cd9:	8b 85 a4 fe ff ff    	mov    -0x15c(%ebp),%eax
    1cdf:	dd 5c 24 08          	fstpl  0x8(%esp)
    1ce3:	89 85 80 fe ff ff    	mov    %eax,-0x180(%ebp)
    1ce9:	89 95 84 fe ff ff    	mov    %edx,-0x17c(%ebp)
    1cef:	df ad 80 fe ff ff    	fildll -0x180(%ebp)
    1cf5:	dd 1c 24             	fstpl  (%esp)
    1cf8:	e8 b3 f5 ff ff       	call   12b0 <comp_coord_bounding_rect.constprop.8>
    1cfd:	8d 85 b8 fe ff ff    	lea    -0x148(%ebp),%eax
    1d03:	89 44 24 2c          	mov    %eax,0x2c(%esp)
    1d07:	8d 85 b4 fe ff ff    	lea    -0x14c(%ebp),%eax
    1d0d:	89 44 24 28          	mov    %eax,0x28(%esp)
    1d11:	8d 85 b0 fe ff ff    	lea    -0x150(%ebp),%eax
    1d17:	89 44 24 24          	mov    %eax,0x24(%esp)
    1d1b:	8d 85 ac fe ff ff    	lea    -0x154(%ebp),%eax
    1d21:	89 44 24 20          	mov    %eax,0x20(%esp)
    1d25:	8b 85 a8 fe ff ff    	mov    -0x158(%ebp),%eax
    1d2b:	89 44 24 1c          	mov    %eax,0x1c(%esp)
    1d2f:	8b 85 a4 fe ff ff    	mov    -0x15c(%ebp),%eax
    1d35:	89 44 24 18          	mov    %eax,0x18(%esp)
    1d39:	8b 85 a0 fe ff ff    	mov    -0x160(%ebp),%eax
    1d3f:	89 44 24 14          	mov    %eax,0x14(%esp)
    1d43:	8b 85 9c fe ff ff    	mov    -0x164(%ebp),%eax
    1d49:	89 44 24 10          	mov    %eax,0x10(%esp)
    1d4d:	8b 85 98 fe ff ff    	mov    -0x168(%ebp),%eax
    1d53:	89 44 24 0c          	mov    %eax,0xc(%esp)
    1d57:	8b 85 94 fe ff ff    	mov    -0x16c(%ebp),%eax
    1d5d:	89 44 24 08          	mov    %eax,0x8(%esp)
    1d61:	8b 85 90 fe ff ff    	mov    -0x170(%ebp),%eax
    1d67:	89 44 24 04          	mov    %eax,0x4(%esp)
    1d6b:	8b 85 8c fe ff ff    	mov    -0x174(%ebp),%eax
    1d71:	89 04 24             	mov    %eax,(%esp)
    1d74:	e8 e7 7e 00 00       	call   9c60 <rectangle_intersect>
    1d79:	84 c0                	test   %al,%al
    1d7b:	0f 84 b7 fe ff ff    	je     1c38 <comp_damage+0x458>
    1d81:	8b b5 78 fe ff ff    	mov    -0x188(%ebp),%esi
    1d87:	8d bd 3c ff ff ff    	lea    -0xc4(%ebp),%edi
    1d8d:	b9 12 00 00 00       	mov    $0x12,%ecx
    1d92:	8d 85 3c ff ff ff    	lea    -0xc4(%ebp),%eax
    1d98:	f3 a5                	rep movsl %ds:(%esi),%es:(%edi)
    1d9a:	db 43 3c             	fildl  0x3c(%ebx)
    1d9d:	d9 e0                	fchs   
    1d9f:	dd 5c 24 0c          	fstpl  0xc(%esp)
    1da3:	db 43 38             	fildl  0x38(%ebx)
    1da6:	d9 e0                	fchs   
    1da8:	89 04 24             	mov    %eax,(%esp)
    1dab:	dd 5c 24 04          	fstpl  0x4(%esp)
    1daf:	e8 cc 81 00 00       	call   9f80 <transform_translate>
    1db4:	8b 95 a0 fe ff ff    	mov    -0x160(%ebp),%edx
    1dba:	8b 85 b0 fe ff ff    	mov    -0x150(%ebp),%eax
    1dc0:	8b bd ac fe ff ff    	mov    -0x154(%ebp),%edi
    1dc6:	39 c2                	cmp    %eax,%edx
    1dc8:	0f 84 2f 04 00 00    	je     21fd <comp_damage+0xa1d>
    1dce:	8b 8d b8 fe ff ff    	mov    -0x148(%ebp),%ecx
    1dd4:	8b b5 a8 fe ff ff    	mov    -0x158(%ebp),%esi
    1dda:	01 f2                	add    %esi,%edx
    1ddc:	8d 34 08             	lea    (%eax,%ecx,1),%esi
    1ddf:	39 f2                	cmp    %esi,%edx
    1de1:	0f 84 2f 05 00 00    	je     2316 <comp_damage+0xb36>
    1de7:	8b 95 9c fe ff ff    	mov    -0x164(%ebp),%edx
    1ded:	39 fa                	cmp    %edi,%edx
    1def:	0f 84 91 04 00 00    	je     2286 <comp_damage+0xaa6>
    1df5:	8b 85 b4 fe ff ff    	mov    -0x14c(%ebp),%eax
    1dfb:	8b 8d a4 fe ff ff    	mov    -0x15c(%ebp),%ecx
    1e01:	01 ca                	add    %ecx,%edx
    1e03:	8d 0c 07             	lea    (%edi,%eax,1),%ecx
    1e06:	39 ca                	cmp    %ecx,%edx
    1e08:	0f 85 2a fe ff ff    	jne    1c38 <comp_damage+0x458>
    1e0e:	8b 53 3c             	mov    0x3c(%ebx),%edx
    1e11:	8b b5 b0 fe ff ff    	mov    -0x150(%ebp),%esi
    1e17:	29 d6                	sub    %edx,%esi
    1e19:	8b 95 b8 fe ff ff    	mov    -0x148(%ebp),%edx
    1e1f:	01 f2                	add    %esi,%edx
    1e21:	39 d6                	cmp    %edx,%esi
    1e23:	72 17                	jb     1e3c <comp_damage+0x65c>
    1e25:	e9 0e fe ff ff       	jmp    1c38 <comp_damage+0x458>
    1e2a:	8d b6 00 00 00 00    	lea    0x0(%esi),%esi
    1e30:	8b bd ac fe ff ff    	mov    -0x154(%ebp),%edi
    1e36:	8b 85 b4 fe ff ff    	mov    -0x14c(%ebp),%eax
    1e3c:	89 74 24 08          	mov    %esi,0x8(%esp)
    1e40:	83 ca ff             	or     $0xffffffff,%edx
    1e43:	8b 4b 38             	mov    0x38(%ebx),%ecx
    1e46:	29 ca                	sub    %ecx,%edx
    1e48:	01 fa                	add    %edi,%edx
    1e4a:	01 d0                	add    %edx,%eax
    1e4c:	89 44 24 04          	mov    %eax,0x4(%esp)
    1e50:	8b 43 40             	mov    0x40(%ebx),%eax
    1e53:	89 04 24             	mov    %eax,(%esp)
    1e56:	e8 e5 62 00 00       	call   8140 <surface_get_pixel>
    1e5b:	8b bd b4 fe ff ff    	mov    -0x14c(%ebp),%edi
    1e61:	35 ff ff ff 00       	xor    $0xffffff,%eax
    1e66:	89 74 24 08          	mov    %esi,0x8(%esp)
    1e6a:	89 44 24 0c          	mov    %eax,0xc(%esp)
    1e6e:	8b 85 ac fe ff ff    	mov    -0x154(%ebp),%eax
    1e74:	01 f8                	add    %edi,%eax
    1e76:	8b 53 38             	mov    0x38(%ebx),%edx
    1e79:	48                   	dec    %eax
    1e7a:	46                   	inc    %esi
    1e7b:	29 d0                	sub    %edx,%eax
    1e7d:	89 44 24 04          	mov    %eax,0x4(%esp)
    1e81:	8b 43 40             	mov    0x40(%ebx),%eax
    1e84:	89 04 24             	mov    %eax,(%esp)
    1e87:	e8 44 62 00 00       	call   80d0 <surface_put_pixel>
    1e8c:	8b 85 b8 fe ff ff    	mov    -0x148(%ebp),%eax
    1e92:	8b 8d b0 fe ff ff    	mov    -0x150(%ebp),%ecx
    1e98:	8b 7b 3c             	mov    0x3c(%ebx),%edi
    1e9b:	01 c8                	add    %ecx,%eax
    1e9d:	29 f8                	sub    %edi,%eax
    1e9f:	39 f0                	cmp    %esi,%eax
    1ea1:	77 8d                	ja     1e30 <comp_damage+0x650>
    1ea3:	e9 90 fd ff ff       	jmp    1c38 <comp_damage+0x458>
    1ea8:	8b 0d 94 c5 02 00    	mov    0x2c594,%ecx
    1eae:	89 8d 7c fe ff ff    	mov    %ecx,-0x184(%ebp)
    1eb4:	81 f9 90 c5 02 00    	cmp    $0x2c590,%ecx
    1eba:	0f 84 49 02 00 00    	je     2109 <comp_damage+0x929>
    1ec0:	8d 95 b8 fe ff ff    	lea    -0x148(%ebp),%edx
    1ec6:	8d 8d b4 fe ff ff    	lea    -0x14c(%ebp),%ecx
    1ecc:	89 95 5c fe ff ff    	mov    %edx,-0x1a4(%ebp)
    1ed2:	89 8d 60 fe ff ff    	mov    %ecx,-0x1a0(%ebp)
    1ed8:	8d 95 b0 fe ff ff    	lea    -0x150(%ebp),%edx
    1ede:	8d 8d ac fe ff ff    	lea    -0x154(%ebp),%ecx
    1ee4:	89 9d 6c fe ff ff    	mov    %ebx,-0x194(%ebp)
    1eea:	89 95 54 fe ff ff    	mov    %edx,-0x1ac(%ebp)
    1ef0:	89 8d 58 fe ff ff    	mov    %ecx,-0x1a8(%ebp)
    1ef6:	8b 9d 7c fe ff ff    	mov    -0x184(%ebp),%ebx
    1efc:	8d 74 26 00          	lea    0x0(%esi,%eiz,1),%esi
    1f00:	31 d2                	xor    %edx,%edx
    1f02:	8b 43 38             	mov    0x38(%ebx),%eax
    1f05:	8a 53 0c             	mov    0xc(%ebx),%dl
    1f08:	8b 8d 60 fe ff ff    	mov    -0x1a0(%ebp),%ecx
    1f0e:	8b 04 90             	mov    (%eax,%edx,4),%eax
    1f11:	8b 95 5c fe ff ff    	mov    -0x1a4(%ebp),%edx
    1f17:	89 54 24 08          	mov    %edx,0x8(%esp)
    1f1b:	89 4c 24 04          	mov    %ecx,0x4(%esp)
    1f1f:	89 04 24             	mov    %eax,(%esp)
    1f22:	89 85 74 fe ff ff    	mov    %eax,-0x18c(%ebp)
    1f28:	e8 d3 5f 00 00       	call   7f00 <surface_get_resolution>
    1f2d:	8b 9d 5c fe ff ff    	mov    -0x1a4(%ebp),%ebx
    1f33:	8b 95 60 fe ff ff    	mov    -0x1a0(%ebp),%edx
    1f39:	8b 85 b8 fe ff ff    	mov    -0x148(%ebp),%eax
    1f3f:	89 5c 24 2c          	mov    %ebx,0x2c(%esp)
    1f43:	89 54 24 28          	mov    %edx,0x28(%esp)
    1f47:	89 44 24 1c          	mov    %eax,0x1c(%esp)
    1f4b:	8b 95 7c fe ff ff    	mov    -0x184(%ebp),%edx
    1f51:	8b 85 b4 fe ff ff    	mov    -0x14c(%ebp),%eax
    1f57:	8b 8d 54 fe ff ff    	mov    -0x1ac(%ebp),%ecx
    1f5d:	8b 9d 58 fe ff ff    	mov    -0x1a8(%ebp),%ebx
    1f63:	89 4c 24 24          	mov    %ecx,0x24(%esp)
    1f67:	89 5c 24 20          	mov    %ebx,0x20(%esp)
    1f6b:	89 44 24 18          	mov    %eax,0x18(%esp)
    1f6f:	8b 42 14             	mov    0x14(%edx),%eax
    1f72:	89 44 24 14          	mov    %eax,0x14(%esp)
    1f76:	8b 42 10             	mov    0x10(%edx),%eax
    1f79:	89 44 24 10          	mov    %eax,0x10(%esp)
    1f7d:	8b 85 98 fe ff ff    	mov    -0x168(%ebp),%eax
    1f83:	89 44 24 0c          	mov    %eax,0xc(%esp)
    1f87:	8b 85 94 fe ff ff    	mov    -0x16c(%ebp),%eax
    1f8d:	89 44 24 08          	mov    %eax,0x8(%esp)
    1f91:	8b 85 90 fe ff ff    	mov    -0x170(%ebp),%eax
    1f97:	89 44 24 04          	mov    %eax,0x4(%esp)
    1f9b:	8b 85 8c fe ff ff    	mov    -0x174(%ebp),%eax
    1fa1:	89 04 24             	mov    %eax,(%esp)
    1fa4:	e8 b7 7c 00 00       	call   9c60 <rectangle_intersect>
    1fa9:	84 c0                	test   %al,%al
    1fab:	0f 84 37 01 00 00    	je     20e8 <comp_damage+0x908>
    1fb1:	8b 8d 6c fe ff ff    	mov    -0x194(%ebp),%ecx
    1fb7:	8b 95 ac fe ff ff    	mov    -0x154(%ebp),%edx
    1fbd:	89 d3                	mov    %edx,%ebx
    1fbf:	8b 85 b0 fe ff ff    	mov    -0x150(%ebp),%eax
    1fc5:	8b 71 38             	mov    0x38(%ecx),%esi
    1fc8:	8b 79 3c             	mov    0x3c(%ecx),%edi
    1fcb:	29 f3                	sub    %esi,%ebx
    1fcd:	8b 8d 7c fe ff ff    	mov    -0x184(%ebp),%ecx
    1fd3:	89 9d 78 fe ff ff    	mov    %ebx,-0x188(%ebp)
    1fd9:	89 c3                	mov    %eax,%ebx
    1fdb:	29 fb                	sub    %edi,%ebx
    1fdd:	8b 71 14             	mov    0x14(%ecx),%esi
    1fe0:	29 f0                	sub    %esi,%eax
    1fe2:	89 9d 68 fe ff ff    	mov    %ebx,-0x198(%ebp)
    1fe8:	8b 59 10             	mov    0x10(%ecx),%ebx
    1feb:	89 85 64 fe ff ff    	mov    %eax,-0x19c(%ebp)
    1ff1:	29 da                	sub    %ebx,%edx
    1ff3:	8b 85 b8 fe ff ff    	mov    -0x148(%ebp),%eax
    1ff9:	89 95 70 fe ff ff    	mov    %edx,-0x190(%ebp)
    1fff:	85 c0                	test   %eax,%eax
    2001:	0f 84 ae 00 00 00    	je     20b5 <comp_damage+0x8d5>
    2007:	31 db                	xor    %ebx,%ebx
    2009:	8d b4 26 00 00 00 00 	lea    0x0(%esi,%eiz,1),%esi
    2010:	8b 95 74 fe ff ff    	mov    -0x18c(%ebp),%edx
    2016:	31 f6                	xor    %esi,%esi
    2018:	89 14 24             	mov    %edx,(%esp)
    201b:	e8 d0 5e 00 00       	call   7ef0 <surface_pixmap_access>
    2020:	8b 10                	mov    (%eax),%edx
    2022:	39 95 70 fe ff ff    	cmp    %edx,-0x190(%ebp)
    2028:	73 1e                	jae    2048 <comp_damage+0x868>
    202a:	8b 8d 64 fe ff ff    	mov    -0x19c(%ebp),%ecx
    2030:	01 d9                	add    %ebx,%ecx
    2032:	39 48 04             	cmp    %ecx,0x4(%eax)
    2035:	76 11                	jbe    2048 <comp_damage+0x868>
    2037:	0f af d1             	imul   %ecx,%edx
    203a:	8b 8d 70 fe ff ff    	mov    -0x190(%ebp),%ecx
    2040:	8b 40 08             	mov    0x8(%eax),%eax
    2043:	01 ca                	add    %ecx,%edx
    2045:	8d 34 90             	lea    (%eax,%edx,4),%esi
    2048:	8b 8d 6c fe ff ff    	mov    -0x194(%ebp),%ecx
    204e:	8b 41 40             	mov    0x40(%ecx),%eax
    2051:	89 04 24             	mov    %eax,(%esp)
    2054:	e8 97 5e 00 00       	call   7ef0 <surface_pixmap_access>
    2059:	31 c9                	xor    %ecx,%ecx
    205b:	8b 10                	mov    (%eax),%edx
    205d:	39 95 78 fe ff ff    	cmp    %edx,-0x188(%ebp)
    2063:	73 1e                	jae    2083 <comp_damage+0x8a3>
    2065:	8b bd 68 fe ff ff    	mov    -0x198(%ebp),%edi
    206b:	01 df                	add    %ebx,%edi
    206d:	39 78 04             	cmp    %edi,0x4(%eax)
    2070:	76 11                	jbe    2083 <comp_damage+0x8a3>
    2072:	0f af d7             	imul   %edi,%edx
    2075:	8b bd 78 fe ff ff    	mov    -0x188(%ebp),%edi
    207b:	8b 40 08             	mov    0x8(%eax),%eax
    207e:	01 fa                	add    %edi,%edx
    2080:	8d 0c 90             	lea    (%eax,%edx,4),%ecx
    2083:	8b bd b4 fe ff ff    	mov    -0x14c(%ebp),%edi
    2089:	85 ff                	test   %edi,%edi
    208b:	74 19                	je     20a6 <comp_damage+0x8c6>
    208d:	31 c0                	xor    %eax,%eax
    208f:	90                   	nop
    2090:	8b 14 86             	mov    (%esi,%eax,4),%edx
    2093:	f7 c2 00 00 00 ff    	test   $0xff000000,%edx
    2099:	75 03                	jne    209e <comp_damage+0x8be>
    209b:	8b 14 81             	mov    (%ecx,%eax,4),%edx
    209e:	89 14 81             	mov    %edx,(%ecx,%eax,4)
    20a1:	40                   	inc    %eax
    20a2:	39 f8                	cmp    %edi,%eax
    20a4:	75 ea                	jne    2090 <comp_damage+0x8b0>
    20a6:	43                   	inc    %ebx
    20a7:	8b 85 b8 fe ff ff    	mov    -0x148(%ebp),%eax
    20ad:	39 d8                	cmp    %ebx,%eax
    20af:	0f 87 5b ff ff ff    	ja     2010 <comp_damage+0x830>
    20b5:	89 44 24 10          	mov    %eax,0x10(%esp)
    20b9:	8b 9d 68 fe ff ff    	mov    -0x198(%ebp),%ebx
    20bf:	8b 85 b4 fe ff ff    	mov    -0x14c(%ebp),%eax
    20c5:	8b 95 78 fe ff ff    	mov    -0x188(%ebp),%edx
    20cb:	8b 8d 6c fe ff ff    	mov    -0x194(%ebp),%ecx
    20d1:	89 44 24 0c          	mov    %eax,0xc(%esp)
    20d5:	89 5c 24 08          	mov    %ebx,0x8(%esp)
    20d9:	89 54 24 04          	mov    %edx,0x4(%esp)
    20dd:	8b 41 40             	mov    0x40(%ecx),%eax
    20e0:	89 04 24             	mov    %eax,(%esp)
    20e3:	e8 58 5f 00 00       	call   8040 <surface_add_damaged_region>
    20e8:	8b 9d 7c fe ff ff    	mov    -0x184(%ebp),%ebx
    20ee:	8b 5b 04             	mov    0x4(%ebx),%ebx
    20f1:	89 9d 7c fe ff ff    	mov    %ebx,-0x184(%ebp)
    20f7:	81 fb 90 c5 02 00    	cmp    $0x2c590,%ebx
    20fd:	0f 85 fd fd ff ff    	jne    1f00 <comp_damage+0x720>
    2103:	8b 9d 6c fe ff ff    	mov    -0x194(%ebp),%ebx
    2109:	8b 5b 04             	mov    0x4(%ebx),%ebx
    210c:	81 fb 60 c5 02 00    	cmp    $0x2c560,%ebx
    2112:	0f 85 1c f7 ff ff    	jne    1834 <comp_damage+0x54>
    2118:	c7 04 24 80 c5 02 00 	movl   $0x2c580,(%esp)
    211f:	e8 5c 13 01 00       	call   13480 <fibril_mutex_unlock>
    2124:	c7 04 24 68 c5 02 00 	movl   $0x2c568,(%esp)
    212b:	e8 50 13 01 00       	call   13480 <fibril_mutex_unlock>
    2130:	8b 1d 64 c5 02 00    	mov    0x2c564,%ebx
    2136:	81 fb 60 c5 02 00    	cmp    $0x2c560,%ebx
    213c:	0f 84 a4 00 00 00    	je     21e6 <comp_damage+0xa06>
    2142:	8d 95 b0 fe ff ff    	lea    -0x150(%ebp),%edx
    2148:	8d 8d ac fe ff ff    	lea    -0x154(%ebp),%ecx
    214e:	8d bd b8 fe ff ff    	lea    -0x148(%ebp),%edi
    2154:	8d b5 b4 fe ff ff    	lea    -0x14c(%ebp),%esi
    215a:	89 95 78 fe ff ff    	mov    %edx,-0x188(%ebp)
    2160:	89 8d 7c fe ff ff    	mov    %ecx,-0x184(%ebp)
    2166:	8b 95 78 fe ff ff    	mov    -0x188(%ebp),%edx
    216c:	8b 8d 7c fe ff ff    	mov    -0x184(%ebp),%ecx
    2172:	89 54 24 08          	mov    %edx,0x8(%esp)
    2176:	89 4c 24 04          	mov    %ecx,0x4(%esp)
    217a:	89 7c 24 10          	mov    %edi,0x10(%esp)
    217e:	89 74 24 0c          	mov    %esi,0xc(%esp)
    2182:	8b 43 40             	mov    0x40(%ebx),%eax
    2185:	89 04 24             	mov    %eax,(%esp)
    2188:	e8 d3 5d 00 00       	call   7f60 <surface_get_damaged_region>
    218d:	8b 43 40             	mov    0x40(%ebx),%eax
    2190:	89 04 24             	mov    %eax,(%esp)
    2193:	e8 08 5f 00 00       	call   80a0 <surface_reset_damaged_region>
    2198:	8b 85 b8 fe ff ff    	mov    -0x148(%ebp),%eax
    219e:	89 44 24 10          	mov    %eax,0x10(%esp)
    21a2:	8b 85 b4 fe ff ff    	mov    -0x14c(%ebp),%eax
    21a8:	89 44 24 0c          	mov    %eax,0xc(%esp)
    21ac:	8b 85 b0 fe ff ff    	mov    -0x150(%ebp),%eax
    21b2:	89 44 24 08          	mov    %eax,0x8(%esp)
    21b6:	8b 85 ac fe ff ff    	mov    -0x154(%ebp),%eax
    21bc:	c7 44 24 18 00 00 00 	movl   $0x0,0x18(%esp)
    21c3:	00 
    21c4:	c7 44 24 14 00 00 00 	movl   $0x0,0x14(%esp)
    21cb:	00 
    21cc:	89 44 24 04          	mov    %eax,0x4(%esp)
    21d0:	8b 43 34             	mov    0x34(%ebx),%eax
    21d3:	89 04 24             	mov    %eax,(%esp)
    21d6:	e8 65 84 01 00       	call   1a640 <visualizer_update_damaged_region>
    21db:	8b 5b 04             	mov    0x4(%ebx),%ebx
    21de:	81 fb 60 c5 02 00    	cmp    $0x2c560,%ebx
    21e4:	75 80                	jne    2166 <comp_damage+0x986>
    21e6:	c7 04 24 a8 c5 02 00 	movl   $0x2c5a8,(%esp)
    21ed:	e8 8e 12 01 00       	call   13480 <fibril_mutex_unlock>
    21f2:	81 c4 2c 02 00 00    	add    $0x22c,%esp
    21f8:	5b                   	pop    %ebx
    21f9:	5e                   	pop    %esi
    21fa:	5f                   	pop    %edi
    21fb:	5d                   	pop    %ebp
    21fc:	c3                   	ret    
    21fd:	8b 43 38             	mov    0x38(%ebx),%eax
    2200:	89 fe                	mov    %edi,%esi
    2202:	29 c6                	sub    %eax,%esi
    2204:	8b 85 b4 fe ff ff    	mov    -0x14c(%ebp),%eax
    220a:	01 f0                	add    %esi,%eax
    220c:	39 c6                	cmp    %eax,%esi
    220e:	89 d0                	mov    %edx,%eax
    2210:	72 0c                	jb     221e <comp_damage+0xa3e>
    2212:	e9 b7 fb ff ff       	jmp    1dce <comp_damage+0x5ee>
    2217:	90                   	nop
    2218:	8b 85 b0 fe ff ff    	mov    -0x150(%ebp),%eax
    221e:	8b 7b 3c             	mov    0x3c(%ebx),%edi
    2221:	89 74 24 04          	mov    %esi,0x4(%esp)
    2225:	29 f8                	sub    %edi,%eax
    2227:	89 44 24 08          	mov    %eax,0x8(%esp)
    222b:	8b 43 40             	mov    0x40(%ebx),%eax
    222e:	89 04 24             	mov    %eax,(%esp)
    2231:	e8 0a 5f 00 00       	call   8140 <surface_get_pixel>
    2236:	35 ff ff ff 00       	xor    $0xffffff,%eax
    223b:	89 44 24 0c          	mov    %eax,0xc(%esp)
    223f:	8b 85 b0 fe ff ff    	mov    -0x150(%ebp),%eax
    2245:	8b 53 3c             	mov    0x3c(%ebx),%edx
    2248:	89 74 24 04          	mov    %esi,0x4(%esp)
    224c:	29 d0                	sub    %edx,%eax
    224e:	46                   	inc    %esi
    224f:	89 44 24 08          	mov    %eax,0x8(%esp)
    2253:	8b 43 40             	mov    0x40(%ebx),%eax
    2256:	89 04 24             	mov    %eax,(%esp)
    2259:	e8 72 5e 00 00       	call   80d0 <surface_put_pixel>
    225e:	8b bd ac fe ff ff    	mov    -0x154(%ebp),%edi
    2264:	8b 85 b4 fe ff ff    	mov    -0x14c(%ebp),%eax
    226a:	8b 4b 38             	mov    0x38(%ebx),%ecx
    226d:	01 f8                	add    %edi,%eax
    226f:	29 c8                	sub    %ecx,%eax
    2271:	39 f0                	cmp    %esi,%eax
    2273:	77 a3                	ja     2218 <comp_damage+0xa38>
    2275:	8b 95 a0 fe ff ff    	mov    -0x160(%ebp),%edx
    227b:	8b 85 b0 fe ff ff    	mov    -0x150(%ebp),%eax
    2281:	e9 48 fb ff ff       	jmp    1dce <comp_damage+0x5ee>
    2286:	8b 43 3c             	mov    0x3c(%ebx),%eax
    2289:	8b b5 b0 fe ff ff    	mov    -0x150(%ebp),%esi
    228f:	29 c6                	sub    %eax,%esi
    2291:	8b 85 b8 fe ff ff    	mov    -0x148(%ebp),%eax
    2297:	01 f0                	add    %esi,%eax
    2299:	39 c6                	cmp    %eax,%esi
    229b:	0f 83 54 fb ff ff    	jae    1df5 <comp_damage+0x615>
    22a1:	89 d0                	mov    %edx,%eax
    22a3:	eb 09                	jmp    22ae <comp_damage+0xace>
    22a5:	8d 76 00             	lea    0x0(%esi),%esi
    22a8:	8b 85 ac fe ff ff    	mov    -0x154(%ebp),%eax
    22ae:	89 74 24 08          	mov    %esi,0x8(%esp)
    22b2:	8b 7b 38             	mov    0x38(%ebx),%edi
    22b5:	29 f8                	sub    %edi,%eax
    22b7:	89 44 24 04          	mov    %eax,0x4(%esp)
    22bb:	8b 43 40             	mov    0x40(%ebx),%eax
    22be:	89 04 24             	mov    %eax,(%esp)
    22c1:	e8 7a 5e 00 00       	call   8140 <surface_get_pixel>
    22c6:	89 74 24 08          	mov    %esi,0x8(%esp)
    22ca:	35 ff ff ff 00       	xor    $0xffffff,%eax
    22cf:	46                   	inc    %esi
    22d0:	89 44 24 0c          	mov    %eax,0xc(%esp)
    22d4:	8b 85 ac fe ff ff    	mov    -0x154(%ebp),%eax
    22da:	8b 53 38             	mov    0x38(%ebx),%edx
    22dd:	29 d0                	sub    %edx,%eax
    22df:	89 44 24 04          	mov    %eax,0x4(%esp)
    22e3:	8b 43 40             	mov    0x40(%ebx),%eax
    22e6:	89 04 24             	mov    %eax,(%esp)
    22e9:	e8 e2 5d 00 00       	call   80d0 <surface_put_pixel>
    22ee:	8b 85 b8 fe ff ff    	mov    -0x148(%ebp),%eax
    22f4:	8b 8d b0 fe ff ff    	mov    -0x150(%ebp),%ecx
    22fa:	8b 7b 3c             	mov    0x3c(%ebx),%edi
    22fd:	01 c8                	add    %ecx,%eax
    22ff:	29 f8                	sub    %edi,%eax
    2301:	39 f0                	cmp    %esi,%eax
    2303:	77 a3                	ja     22a8 <comp_damage+0xac8>
    2305:	8b 95 9c fe ff ff    	mov    -0x164(%ebp),%edx
    230b:	8b bd ac fe ff ff    	mov    -0x154(%ebp),%edi
    2311:	e9 df fa ff ff       	jmp    1df5 <comp_damage+0x615>
    2316:	8b 53 38             	mov    0x38(%ebx),%edx
    2319:	89 fe                	mov    %edi,%esi
    231b:	29 d6                	sub    %edx,%esi
    231d:	8b 95 b4 fe ff ff    	mov    -0x14c(%ebp),%edx
    2323:	01 f2                	add    %esi,%edx
    2325:	39 d6                	cmp    %edx,%esi
    2327:	72 13                	jb     233c <comp_damage+0xb5c>
    2329:	e9 b9 fa ff ff       	jmp    1de7 <comp_damage+0x607>
    232e:	66 90                	xchg   %ax,%ax
    2330:	8b 85 b0 fe ff ff    	mov    -0x150(%ebp),%eax
    2336:	8b 8d b8 fe ff ff    	mov    -0x148(%ebp),%ecx
    233c:	8b 7b 3c             	mov    0x3c(%ebx),%edi
    233f:	83 ca ff             	or     $0xffffffff,%edx
    2342:	29 fa                	sub    %edi,%edx
    2344:	89 74 24 04          	mov    %esi,0x4(%esp)
    2348:	01 d0                	add    %edx,%eax
    234a:	01 c8                	add    %ecx,%eax
    234c:	89 44 24 08          	mov    %eax,0x8(%esp)
    2350:	8b 43 40             	mov    0x40(%ebx),%eax
    2353:	89 04 24             	mov    %eax,(%esp)
    2356:	e8 e5 5d 00 00       	call   8140 <surface_get_pixel>
    235b:	8b 95 b8 fe ff ff    	mov    -0x148(%ebp),%edx
    2361:	35 ff ff ff 00       	xor    $0xffffff,%eax
    2366:	89 44 24 0c          	mov    %eax,0xc(%esp)
    236a:	8b 85 b0 fe ff ff    	mov    -0x150(%ebp),%eax
    2370:	01 d0                	add    %edx,%eax
    2372:	8b 4b 3c             	mov    0x3c(%ebx),%ecx
    2375:	48                   	dec    %eax
    2376:	89 74 24 04          	mov    %esi,0x4(%esp)
    237a:	29 c8                	sub    %ecx,%eax
    237c:	46                   	inc    %esi
    237d:	89 44 24 08          	mov    %eax,0x8(%esp)
    2381:	8b 43 40             	mov    0x40(%ebx),%eax
    2384:	89 04 24             	mov    %eax,(%esp)
    2387:	e8 44 5d 00 00       	call   80d0 <surface_put_pixel>
    238c:	8b bd ac fe ff ff    	mov    -0x154(%ebp),%edi
    2392:	8b 85 b4 fe ff ff    	mov    -0x14c(%ebp),%eax
    2398:	8b 53 38             	mov    0x38(%ebx),%edx
    239b:	01 f8                	add    %edi,%eax
    239d:	29 d0                	sub    %edx,%eax
    239f:	39 f0                	cmp    %esi,%eax
    23a1:	77 8d                	ja     2330 <comp_damage+0xb50>
    23a3:	e9 3f fa ff ff       	jmp    1de7 <comp_damage+0x607>
    23a8:	89 f8                	mov    %edi,%eax
    23aa:	e9 a2 f5 ff ff       	jmp    1951 <comp_damage+0x171>
    23af:	90                   	nop

000023b0 <compositor_srv_init>:
    23b0:	55                   	push   %ebp
    23b1:	89 e5                	mov    %esp,%ebp
    23b3:	57                   	push   %edi
    23b4:	56                   	push   %esi
    23b5:	53                   	push   %ebx
    23b6:	81 ec 6c 02 00 00    	sub    $0x26c,%esp
    23bc:	89 c3                	mov    %eax,%ebx
    23be:	89 d6                	mov    %edx,%esi
    23c0:	c7 05 b0 c9 03 00 ff 	movl   $0x3fffffff,0x3c9b0
    23c7:	ff ff 3f 
    23ca:	c7 04 24 70 3b 00 00 	movl   $0x3b70,(%esp)
    23d1:	c7 05 b4 c9 03 00 4b 	movl   $0xff4b464b,0x3c9b4
    23d8:	46 4b ff 
    23db:	e8 50 b9 01 00       	call   1dd30 <async_set_client_connection>
    23e0:	c7 04 24 d2 95 02 00 	movl   $0x295d2,(%esp)
    23e7:	e8 84 ad 00 00       	call   d170 <loc_server_register>
    23ec:	85 c0                	test   %eax,%eax
    23ee:	0f 85 fb 06 00 00    	jne    2aef <compositor_srv_init+0x73f>
    23f4:	c7 04 24 60 2c 00 00 	movl   $0x2c60,(%esp)
    23fb:	e8 70 b9 01 00       	call   1dd70 <async_set_interrupt_received>
    2400:	c7 44 24 04 00 00 00 	movl   $0x0,0x4(%esp)
    2407:	00 
    2408:	c7 04 24 01 00 00 00 	movl   $0x1,(%esp)
    240f:	e8 3c a2 00 00       	call   c650 <event_subscribe>
    2414:	85 c0                	test   %eax,%eax
    2416:	0f 85 4a 05 00 00    	jne    2966 <compositor_srv_init+0x5b6>
    241c:	89 35 b8 c9 03 00    	mov    %esi,0x3c9b8
    2422:	89 74 24 10          	mov    %esi,0x10(%esp)
    2426:	8d b5 e8 fd ff ff    	lea    -0x218(%ebp),%esi
    242c:	c7 44 24 0c dd 95 02 	movl   $0x295dd,0xc(%esp)
    2433:	00 
    2434:	c7 44 24 08 e2 95 02 	movl   $0x295e2,0x8(%esp)
    243b:	00 
    243c:	c7 44 24 04 ff 00 00 	movl   $0xff,0x4(%esp)
    2443:	00 
    2444:	89 34 24             	mov    %esi,(%esp)
    2447:	e8 64 54 01 00       	call   178b0 <snprintf>
    244c:	8d 85 cc fd ff ff    	lea    -0x234(%ebp),%eax
    2452:	89 44 24 04          	mov    %eax,0x4(%esp)
    2456:	89 34 24             	mov    %esi,(%esp)
    2459:	e8 22 b1 00 00       	call   d580 <loc_service_register>
    245e:	89 c7                	mov    %eax,%edi
    2460:	85 c0                	test   %eax,%eax
    2462:	0f 85 e4 04 00 00    	jne    294c <compositor_srv_init+0x59c>
    2468:	a1 b8 c9 03 00       	mov    0x3c9b8,%eax
    246d:	8d b5 e8 fe ff ff    	lea    -0x118(%ebp),%esi
    2473:	89 44 24 10          	mov    %eax,0x10(%esp)
    2477:	c7 44 24 0c dd 95 02 	movl   $0x295dd,0xc(%esp)
    247e:	00 
    247f:	c7 44 24 08 e8 95 02 	movl   $0x295e8,0x8(%esp)
    2486:	00 
    2487:	c7 44 24 04 ff 00 00 	movl   $0xff,0x4(%esp)
    248e:	00 
    248f:	89 34 24             	mov    %esi,(%esp)
    2492:	e8 19 54 01 00       	call   178b0 <snprintf>
    2497:	c7 44 24 04 bc c9 03 	movl   $0x3c9bc,0x4(%esp)
    249e:	00 
    249f:	89 34 24             	mov    %esi,(%esp)
    24a2:	e8 d9 b0 00 00       	call   d580 <loc_service_register>
    24a7:	85 c0                	test   %eax,%eax
    24a9:	0f 85 ab 06 00 00    	jne    2b5a <compositor_srv_init+0x7aa>
    24af:	8d 85 e4 fd ff ff    	lea    -0x21c(%ebp),%eax
    24b5:	c7 44 24 08 00 00 00 	movl   $0x0,0x8(%esp)
    24bc:	00 
    24bd:	89 44 24 04          	mov    %eax,0x4(%esp)
    24c1:	89 1c 24             	mov    %ebx,(%esp)
    24c4:	e8 f7 b3 00 00       	call   d8c0 <loc_service_get_id>
    24c9:	89 c7                	mov    %eax,%edi
    24cb:	85 c0                	test   %eax,%eax
    24cd:	0f 85 54 04 00 00    	jne    2927 <compositor_srv_init+0x577>
    24d3:	8b 85 e4 fd ff ff    	mov    -0x21c(%ebp),%eax
    24d9:	c7 44 24 08 00 00 00 	movl   $0x0,0x8(%esp)
    24e0:	00 
    24e1:	89 44 24 04          	mov    %eax,0x4(%esp)
    24e5:	c7 04 24 00 00 00 00 	movl   $0x0,(%esp)
    24ec:	e8 bf bc 00 00       	call   e1b0 <loc_service_connect>
    24f1:	89 c6                	mov    %eax,%esi
    24f3:	85 c0                	test   %eax,%eax
    24f5:	0f 84 3d 07 00 00    	je     2c38 <compositor_srv_init+0x888>
    24fb:	c7 04 24 80 c5 02 00 	movl   $0x2c580,(%esp)
    2502:	e8 59 0e 01 00       	call   13360 <fibril_mutex_lock>
    2507:	c7 04 24 f4 00 00 00 	movl   $0xf4,(%esp)
    250e:	e8 2d a5 01 00       	call   1ca40 <malloc>
    2513:	89 c7                	mov    %eax,%edi
    2515:	85 c0                	test   %eax,%eax
    2517:	0f 84 5b 05 00 00    	je     2a78 <compositor_srv_init+0x6c8>
    251d:	c7 00 00 00 00 00    	movl   $0x0,(%eax)
    2523:	c7 40 04 00 00 00 00 	movl   $0x0,0x4(%eax)
    252a:	a1 b0 c9 03 00       	mov    0x3c9b0,%eax
    252f:	c7 47 18 01 00 00 00 	movl   $0x1,0x18(%edi)
    2536:	89 47 10             	mov    %eax,0x10(%edi)
    2539:	89 47 14             	mov    %eax,0x14(%edi)
    253c:	8b 47 10             	mov    0x10(%edi),%eax
    253f:	8b 57 14             	mov    0x14(%edi),%edx
    2542:	89 47 1c             	mov    %eax,0x1c(%edi)
    2545:	8d 47 34             	lea    0x34(%edi),%eax
    2548:	89 57 20             	mov    %edx,0x20(%edi)
    254b:	c7 47 24 00 00 00 00 	movl   $0x0,0x24(%edi)
    2552:	c7 47 28 00 00 00 00 	movl   $0x0,0x28(%edi)
    2559:	c7 47 2c 00 00 00 00 	movl   $0x0,0x2c(%edi)
    2560:	c6 47 30 00          	movb   $0x0,0x30(%edi)
    2564:	c6 47 0c 00          	movb   $0x0,0xc(%edi)
    2568:	89 04 24             	mov    %eax,(%esp)
    256b:	c7 44 24 08 00 00 00 	movl   $0x0,0x8(%esp)
    2572:	00 
    2573:	c7 44 24 04 00 00 00 	movl   $0x0,0x4(%esp)
    257a:	00 
    257b:	e8 50 4f 00 00       	call   74d0 <cursor_init>
    2580:	8d 4f 74             	lea    0x74(%edi),%ecx
    2583:	89 0c 24             	mov    %ecx,(%esp)
    2586:	89 8d b0 fd ff ff    	mov    %ecx,-0x250(%ebp)
    258c:	e8 bf 79 00 00       	call   9f50 <transform_identity>
    2591:	31 d2                	xor    %edx,%edx
    2593:	a1 b0 c9 03 00       	mov    0x3c9b0,%eax
    2598:	89 95 c4 fd ff ff    	mov    %edx,-0x23c(%ebp)
    259e:	89 85 c0 fd ff ff    	mov    %eax,-0x240(%ebp)
    25a4:	8b 8d b0 fd ff ff    	mov    -0x250(%ebp),%ecx
    25aa:	df ad c0 fd ff ff    	fildll -0x240(%ebp)
    25b0:	89 0c 24             	mov    %ecx,(%esp)
    25b3:	dd 54 24 0c          	fstl   0xc(%esp)
    25b7:	dd 5c 24 04          	fstpl  0x4(%esp)
    25bb:	e8 c0 79 00 00       	call   9f80 <transform_translate>
    25c0:	31 d2                	xor    %edx,%edx
    25c2:	a1 b0 c9 03 00       	mov    0x3c9b0,%eax
    25c7:	89 95 c4 fd ff ff    	mov    %edx,-0x23c(%ebp)
    25cd:	89 85 c0 fd ff ff    	mov    %eax,-0x240(%ebp)
    25d3:	a1 d8 c9 03 00       	mov    0x3c9d8,%eax
    25d8:	df ad c0 fd ff ff    	fildll -0x240(%ebp)
    25de:	89 47 08             	mov    %eax,0x8(%edi)
    25e1:	40                   	inc    %eax
    25e2:	dd 97 bc 00 00 00    	fstl   0xbc(%edi)
    25e8:	a3 d8 c9 03 00       	mov    %eax,0x3c9d8
    25ed:	a1 90 c5 02 00       	mov    0x2c590,%eax
    25f2:	dd 9f c4 00 00 00    	fstpl  0xc4(%edi)
    25f8:	c7 87 cc 00 00 00 00 	movl   $0x0,0xcc(%edi)
    25ff:	00 00 00 
    2602:	c7 87 d0 00 00 00 00 	movl   $0x3ff00000,0xd0(%edi)
    2609:	00 f0 3f 
    260c:	c7 87 d4 00 00 00 00 	movl   $0x0,0xd4(%edi)
    2613:	00 00 00 
    2616:	c7 87 d8 00 00 00 00 	movl   $0x3ff00000,0xd8(%edi)
    261d:	00 f0 3f 
    2620:	c7 87 dc 00 00 00 00 	movl   $0x0,0xdc(%edi)
    2627:	00 00 00 
    262a:	c7 87 e0 00 00 00 00 	movl   $0x0,0xe0(%edi)
    2631:	00 00 00 
    2634:	c6 87 e4 00 00 00 ff 	movb   $0xff,0xe4(%edi)
    263b:	c7 87 e8 00 00 00 00 	movl   $0x0,0xe8(%edi)
    2642:	00 00 00 
    2645:	c7 87 ec 00 00 00 00 	movl   $0x0,0xec(%edi)
    264c:	00 00 00 
    264f:	c7 87 f0 00 00 00 00 	movl   $0x0,0xf0(%edi)
    2656:	00 00 00 
    2659:	c7 47 04 90 c5 02 00 	movl   $0x2c590,0x4(%edi)
    2660:	89 07                	mov    %eax,(%edi)
    2662:	89 78 04             	mov    %edi,0x4(%eax)
    2665:	c7 04 24 80 c5 02 00 	movl   $0x2c580,(%esp)
    266c:	89 3d 90 c5 02 00    	mov    %edi,0x2c590
    2672:	e8 09 0e 01 00       	call   13480 <fibril_mutex_unlock>
    2677:	89 7c 24 08          	mov    %edi,0x8(%esp)
    267b:	c7 44 24 0c dc c9 03 	movl   $0x3c9dc,0xc(%esp)
    2682:	00 
    2683:	c7 44 24 04 98 c5 02 	movl   $0x2c598,0x4(%esp)
    268a:	00 
    268b:	89 34 24             	mov    %esi,(%esp)
    268e:	e8 dd 28 01 00       	call   14f70 <input_open>
    2693:	89 c7                	mov    %eax,%edi
    2695:	85 c0                	test   %eax,%eax
    2697:	0f 85 ee 02 00 00    	jne    298b <compositor_srv_init+0x5db>
    269d:	8d 85 d0 fd ff ff    	lea    -0x230(%ebp),%eax
    26a3:	c7 44 24 08 01 00 00 	movl   $0x1,0x8(%esp)
    26aa:	00 
    26ab:	89 44 24 04          	mov    %eax,0x4(%esp)
    26af:	c7 04 24 2d 96 02 00 	movl   $0x2962d,(%esp)
    26b6:	e8 25 b7 00 00       	call   dde0 <loc_category_get_id>
    26bb:	85 c0                	test   %eax,%eax
    26bd:	0f 85 e7 03 00 00    	jne    2aaa <compositor_srv_init+0x6fa>
    26c3:	8d 85 d8 fd ff ff    	lea    -0x228(%ebp),%eax
    26c9:	c7 85 d8 fd ff ff 00 	movl   $0x0,-0x228(%ebp)
    26d0:	00 00 00 
    26d3:	89 44 24 08          	mov    %eax,0x8(%esp)
    26d7:	8d 85 d4 fd ff ff    	lea    -0x22c(%ebp),%eax
    26dd:	89 44 24 04          	mov    %eax,0x4(%esp)
    26e1:	8b 85 d0 fd ff ff    	mov    -0x230(%ebp),%eax
    26e7:	89 04 24             	mov    %eax,(%esp)
    26ea:	e8 e1 c7 00 00       	call   eed0 <loc_category_get_svcs>
    26ef:	85 c0                	test   %eax,%eax
    26f1:	0f 85 b3 03 00 00    	jne    2aaa <compositor_srv_init+0x6fa>
    26f7:	83 bd d8 fd ff ff 00 	cmpl   $0x0,-0x228(%ebp)
    26fe:	0f 84 a6 03 00 00    	je     2aaa <compositor_srv_init+0x6fa>
    2704:	31 f6                	xor    %esi,%esi
    2706:	89 85 b8 fd ff ff    	mov    %eax,-0x248(%ebp)
    270c:	eb 0f                	jmp    271d <compositor_srv_init+0x36d>
    270e:	66 90                	xchg   %ax,%ax
    2710:	46                   	inc    %esi
    2711:	39 b5 d8 fd ff ff    	cmp    %esi,-0x228(%ebp)
    2717:	0f 86 d5 02 00 00    	jbe    29f2 <compositor_srv_init+0x642>
    271d:	8d 85 dc fd ff ff    	lea    -0x224(%ebp),%eax
    2723:	89 44 24 04          	mov    %eax,0x4(%esp)
    2727:	8b 85 d4 fd ff ff    	mov    -0x22c(%ebp),%eax
    272d:	8b 04 b0             	mov    (%eax,%esi,4),%eax
    2730:	89 04 24             	mov    %eax,(%esp)
    2733:	e8 08 b4 00 00       	call   db40 <loc_service_get_name>
    2738:	85 c0                	test   %eax,%eax
    273a:	75 d4                	jne    2710 <compositor_srv_init+0x360>
    273c:	c7 04 24 44 00 00 00 	movl   $0x44,(%esp)
    2743:	8b bd dc fd ff ff    	mov    -0x224(%ebp),%edi
    2749:	e8 f2 a2 01 00       	call   1ca40 <malloc>
    274e:	89 c3                	mov    %eax,%ebx
    2750:	85 c0                	test   %eax,%eax
    2752:	74 bc                	je     2710 <compositor_srv_init+0x360>
    2754:	c7 00 00 00 00 00    	movl   $0x0,(%eax)
    275a:	c7 40 04 00 00 00 00 	movl   $0x0,0x4(%eax)
    2761:	a1 b0 c9 03 00       	mov    0x3c9b0,%eax
    2766:	89 43 38             	mov    %eax,0x38(%ebx)
    2769:	89 43 3c             	mov    %eax,0x3c(%ebx)
    276c:	8d 85 e0 fd ff ff    	lea    -0x220(%ebp),%eax
    2772:	c7 44 24 08 00 00 00 	movl   $0x0,0x8(%esp)
    2779:	00 
    277a:	89 44 24 04          	mov    %eax,0x4(%esp)
    277e:	89 3c 24             	mov    %edi,(%esp)
    2781:	e8 3a b1 00 00       	call   d8c0 <loc_service_get_id>
    2786:	85 c0                	test   %eax,%eax
    2788:	0f 85 5d 02 00 00    	jne    29eb <compositor_srv_init+0x63b>
    278e:	8d 85 e4 fd ff ff    	lea    -0x21c(%ebp),%eax
    2794:	89 44 24 04          	mov    %eax,0x4(%esp)
    2798:	8b 85 e0 fd ff ff    	mov    -0x220(%ebp),%eax
    279e:	89 04 24             	mov    %eax,(%esp)
    27a1:	e8 3a 9d 00 00       	call   c4e0 <devman_fun_sid_to_handle>
    27a6:	85 c0                	test   %eax,%eax
    27a8:	0f 84 72 02 00 00    	je     2a20 <compositor_srv_init+0x670>
    27ae:	40                   	inc    %eax
    27af:	0f 85 36 02 00 00    	jne    29eb <compositor_srv_init+0x63b>
    27b5:	8b 85 e0 fd ff ff    	mov    -0x220(%ebp),%eax
    27bb:	c7 44 24 08 00 00 00 	movl   $0x0,0x8(%esp)
    27c2:	00 
    27c3:	89 44 24 04          	mov    %eax,0x4(%esp)
    27c7:	c7 04 24 02 00 00 00 	movl   $0x2,(%esp)
    27ce:	e8 dd b9 00 00       	call   e1b0 <loc_service_connect>
    27d3:	89 c2                	mov    %eax,%edx
    27d5:	85 c0                	test   %eax,%eax
    27d7:	0f 84 32 04 00 00    	je     2c0f <compositor_srv_init+0x85f>
    27dd:	89 14 24             	mov    %edx,(%esp)
    27e0:	89 95 b4 fd ff ff    	mov    %edx,-0x24c(%ebp)
    27e6:	e8 95 d7 01 00       	call   1ff80 <async_exchange_begin>
    27eb:	c7 44 24 14 00 00 00 	movl   $0x0,0x14(%esp)
    27f2:	00 
    27f3:	89 c1                	mov    %eax,%ecx
    27f5:	8b 85 e0 fd ff ff    	mov    -0x220(%ebp),%eax
    27fb:	89 0c 24             	mov    %ecx,(%esp)
    27fe:	c7 44 24 10 c0 32 00 	movl   $0x32c0,0x10(%esp)
    2805:	00 
    2806:	c7 44 24 0c 00 00 00 	movl   $0x0,0xc(%esp)
    280d:	00 
    280e:	c7 44 24 08 00 00 00 	movl   $0x0,0x8(%esp)
    2815:	00 
    2816:	89 44 24 04          	mov    %eax,0x4(%esp)
    281a:	89 8d b0 fd ff ff    	mov    %ecx,-0x250(%ebp)
    2820:	e8 fb ce 01 00       	call   1f720 <async_connect_to_me>
    2825:	8b 8d b0 fd ff ff    	mov    -0x250(%ebp),%ecx
    282b:	89 0c 24             	mov    %ecx,(%esp)
    282e:	89 85 bc fd ff ff    	mov    %eax,-0x244(%ebp)
    2834:	e8 b7 da 01 00       	call   202f0 <async_exchange_end>
    2839:	8b 95 b4 fd ff ff    	mov    -0x24c(%ebp),%edx
    283f:	83 bd bc fd ff ff 00 	cmpl   $0x0,-0x244(%ebp)
    2846:	0f 85 6d 01 00 00    	jne    29b9 <compositor_srv_init+0x609>
    284c:	8d 43 08             	lea    0x8(%ebx),%eax
    284f:	89 53 34             	mov    %edx,0x34(%ebx)
    2852:	c7 44 24 08 00 00 00 	movl   $0x0,0x8(%esp)
    2859:	00 
    285a:	89 44 24 04          	mov    %eax,0x4(%esp)
    285e:	89 3c 24             	mov    %edi,(%esp)
    2861:	e8 5a b0 00 00       	call   d8c0 <loc_service_get_id>
    2866:	8b 53 34             	mov    0x34(%ebx),%edx
    2869:	85 d2                	test   %edx,%edx
    286b:	0f 84 fa 01 00 00    	je     2a6b <compositor_srv_init+0x6bb>
    2871:	85 c0                	test   %eax,%eax
    2873:	0f 85 f2 01 00 00    	jne    2a6b <compositor_srv_init+0x6bb>
    2879:	c7 44 24 04 00 00 00 	movl   $0x0,0x4(%esp)
    2880:	00 
    2881:	89 14 24             	mov    %edx,(%esp)
    2884:	e8 97 79 01 00       	call   1a220 <visualizer_claim>
    2889:	89 c7                	mov    %eax,%edi
    288b:	85 c0                	test   %eax,%eax
    288d:	0f 85 24 02 00 00    	jne    2ab7 <compositor_srv_init+0x707>
    2893:	8d 43 0c             	lea    0xc(%ebx),%eax
    2896:	89 44 24 04          	mov    %eax,0x4(%esp)
    289a:	8b 43 34             	mov    0x34(%ebx),%eax
    289d:	89 04 24             	mov    %eax,(%esp)
    28a0:	e8 1b 7b 01 00       	call   1a3c0 <visualizer_get_default_mode>
    28a5:	89 c7                	mov    %eax,%edi
    28a7:	85 c0                	test   %eax,%eax
    28a9:	0f 85 68 02 00 00    	jne    2b17 <compositor_srv_init+0x767>
    28af:	c7 44 24 0c 01 00 00 	movl   $0x1,0xc(%esp)
    28b6:	00 
    28b7:	c7 44 24 08 00 00 00 	movl   $0x0,0x8(%esp)
    28be:	00 
    28bf:	8b 43 24             	mov    0x24(%ebx),%eax
    28c2:	89 44 24 04          	mov    %eax,0x4(%esp)
    28c6:	8b 43 20             	mov    0x20(%ebx),%eax
    28c9:	89 04 24             	mov    %eax,(%esp)
    28cc:	e8 cf 54 00 00       	call   7da0 <surface_create>
    28d1:	89 43 40             	mov    %eax,0x40(%ebx)
    28d4:	85 c0                	test   %eax,%eax
    28d6:	0f 84 ec 02 00 00    	je     2bc8 <compositor_srv_init+0x818>
    28dc:	89 04 24             	mov    %eax,(%esp)
    28df:	e8 fc 55 00 00       	call   7ee0 <surface_direct_access>
    28e4:	89 44 24 0c          	mov    %eax,0xc(%esp)
    28e8:	8b 43 10             	mov    0x10(%ebx),%eax
    28eb:	89 44 24 08          	mov    %eax,0x8(%esp)
    28ef:	8b 43 0c             	mov    0xc(%ebx),%eax
    28f2:	89 44 24 04          	mov    %eax,0x4(%esp)
    28f6:	8b 43 34             	mov    0x34(%ebx),%eax
    28f9:	89 04 24             	mov    %eax,(%esp)
    28fc:	e8 9f 7c 01 00       	call   1a5a0 <visualizer_set_mode>
    2901:	89 c7                	mov    %eax,%edi
    2903:	85 c0                	test   %eax,%eax
    2905:	0f 85 6f 02 00 00    	jne    2b7a <compositor_srv_init+0x7ca>
    290b:	a1 60 c5 02 00       	mov    0x2c560,%eax
    2910:	c7 43 04 60 c5 02 00 	movl   $0x2c560,0x4(%ebx)
    2917:	89 03                	mov    %eax,(%ebx)
    2919:	89 1d 60 c5 02 00    	mov    %ebx,0x2c560
    291f:	89 58 04             	mov    %ebx,0x4(%eax)
    2922:	e9 e9 fd ff ff       	jmp    2710 <compositor_srv_init+0x360>
    2927:	89 5c 24 08          	mov    %ebx,0x8(%esp)
    292b:	c7 44 24 04 d2 95 02 	movl   $0x295d2,0x4(%esp)
    2932:	00 
    2933:	c7 04 24 00 97 02 00 	movl   $0x29700,(%esp)
    293a:	e8 d1 4c 01 00       	call   17610 <printf>
    293f:	81 c4 6c 02 00 00    	add    $0x26c,%esp
    2945:	89 f8                	mov    %edi,%eax
    2947:	5b                   	pop    %ebx
    2948:	5e                   	pop    %esi
    2949:	5f                   	pop    %edi
    294a:	5d                   	pop    %ebp
    294b:	c3                   	ret    
    294c:	89 74 24 08          	mov    %esi,0x8(%esp)
    2950:	c7 44 24 04 d2 95 02 	movl   $0x295d2,0x4(%esp)
    2957:	00 
    2958:	c7 04 24 dc 96 02 00 	movl   $0x296dc,(%esp)
    295f:	e8 ac 4c 01 00       	call   17610 <printf>
    2964:	eb d9                	jmp    293f <compositor_srv_init+0x58f>
    2966:	89 04 24             	mov    %eax,(%esp)
    2969:	e8 02 00 01 00       	call   12970 <str_error>
    296e:	c7 44 24 04 d2 95 02 	movl   $0x295d2,0x4(%esp)
    2975:	00 
    2976:	89 44 24 08          	mov    %eax,0x8(%esp)
    297a:	c7 04 24 a8 96 02 00 	movl   $0x296a8,(%esp)
    2981:	e8 8a 4c 01 00       	call   17610 <printf>
    2986:	e9 91 fa ff ff       	jmp    241c <compositor_srv_init+0x6c>
    298b:	89 34 24             	mov    %esi,(%esp)
    298e:	e8 ed d4 01 00       	call   1fe80 <async_hangup>
    2993:	89 3c 24             	mov    %edi,(%esp)
    2996:	e8 d5 ff 00 00       	call   12970 <str_error>
    299b:	89 5c 24 08          	mov    %ebx,0x8(%esp)
    299f:	89 44 24 0c          	mov    %eax,0xc(%esp)
    29a3:	c7 44 24 04 d2 95 02 	movl   $0x295d2,0x4(%esp)
    29aa:	00 
    29ab:	c7 04 24 4c 97 02 00 	movl   $0x2974c,(%esp)
    29b2:	e8 59 4c 01 00       	call   17610 <printf>
    29b7:	eb 86                	jmp    293f <compositor_srv_init+0x58f>
    29b9:	89 14 24             	mov    %edx,(%esp)
    29bc:	e8 bf d4 01 00       	call   1fe80 <async_hangup>
    29c1:	8b 85 bc fd ff ff    	mov    -0x244(%ebp),%eax
    29c7:	89 04 24             	mov    %eax,(%esp)
    29ca:	e8 a1 ff 00 00       	call   12970 <str_error>
    29cf:	89 7c 24 08          	mov    %edi,0x8(%esp)
    29d3:	89 44 24 0c          	mov    %eax,0xc(%esp)
    29d7:	c7 44 24 04 d2 95 02 	movl   $0x295d2,0x4(%esp)
    29de:	00 
    29df:	c7 04 24 a4 97 02 00 	movl   $0x297a4,(%esp)
    29e6:	e8 25 4c 01 00       	call   17610 <printf>
    29eb:	31 d2                	xor    %edx,%edx
    29ed:	e9 5a fe ff ff       	jmp    284c <compositor_srv_init+0x49c>
    29f2:	8b bd b8 fd ff ff    	mov    -0x248(%ebp),%edi
    29f8:	81 3d 64 c5 02 00 60 	cmpl   $0x2c560,0x2c564
    29ff:	c5 02 00 
    2a02:	0f 84 a2 00 00 00    	je     2aaa <compositor_srv_init+0x6fa>
    2a08:	c7 04 24 ff ff ff ff 	movl   $0xffffffff,(%esp)
    2a0f:	83 c9 ff             	or     $0xffffffff,%ecx
    2a12:	31 d2                	xor    %edx,%edx
    2a14:	31 c0                	xor    %eax,%eax
    2a16:	e8 c5 ed ff ff       	call   17e0 <comp_damage>
    2a1b:	e9 1f ff ff ff       	jmp    293f <compositor_srv_init+0x58f>
    2a20:	8b 85 e4 fd ff ff    	mov    -0x21c(%ebp),%eax
    2a26:	c7 44 24 08 00 00 00 	movl   $0x0,0x8(%esp)
    2a2d:	00 
    2a2e:	89 44 24 04          	mov    %eax,0x4(%esp)
    2a32:	c7 04 24 02 00 00 00 	movl   $0x2,(%esp)
    2a39:	e8 92 88 00 00       	call   b2d0 <devman_device_connect>
    2a3e:	89 c2                	mov    %eax,%edx
    2a40:	85 c0                	test   %eax,%eax
    2a42:	0f 84 c7 01 00 00    	je     2c0f <compositor_srv_init+0x85f>
    2a48:	89 04 24             	mov    %eax,(%esp)
    2a4b:	89 85 b4 fd ff ff    	mov    %eax,-0x24c(%ebp)
    2a51:	e8 7a 9b 00 00       	call   c5d0 <graph_dev_connect>
    2a56:	8b 95 b4 fd ff ff    	mov    -0x24c(%ebp),%edx
    2a5c:	85 c0                	test   %eax,%eax
    2a5e:	0f 84 79 fd ff ff    	je     27dd <compositor_srv_init+0x42d>
    2a64:	31 d2                	xor    %edx,%edx
    2a66:	e9 e1 fd ff ff       	jmp    284c <compositor_srv_init+0x49c>
    2a6b:	89 1c 24             	mov    %ebx,(%esp)
    2a6e:	e8 dd a0 01 00       	call   1cb50 <free>
    2a73:	e9 98 fc ff ff       	jmp    2710 <compositor_srv_init+0x360>
    2a78:	c7 04 24 80 c5 02 00 	movl   $0x2c580,(%esp)
    2a7f:	bf fe ff ff ff       	mov    $0xfffffffe,%edi
    2a84:	e8 f7 09 01 00       	call   13480 <fibril_mutex_unlock>
    2a89:	c7 44 24 04 d2 95 02 	movl   $0x295d2,0x4(%esp)
    2a90:	00 
    2a91:	c7 04 24 11 96 02 00 	movl   $0x29611,(%esp)
    2a98:	e8 73 4b 01 00       	call   17610 <printf>
    2a9d:	89 34 24             	mov    %esi,(%esp)
    2aa0:	e8 db d3 01 00       	call   1fe80 <async_hangup>
    2aa5:	e9 95 fe ff ff       	jmp    293f <compositor_srv_init+0x58f>
    2aaa:	e8 c1 e7 ff ff       	call   1270 <input_disconnect>
    2aaf:	83 cf ff             	or     $0xffffffff,%edi
    2ab2:	e9 88 fe ff ff       	jmp    293f <compositor_srv_init+0x58f>
    2ab7:	8b 43 34             	mov    0x34(%ebx),%eax
    2aba:	89 04 24             	mov    %eax,(%esp)
    2abd:	e8 be d3 01 00       	call   1fe80 <async_hangup>
    2ac2:	89 1c 24             	mov    %ebx,(%esp)
    2ac5:	e8 86 a0 01 00       	call   1cb50 <free>
    2aca:	89 3c 24             	mov    %edi,(%esp)
    2acd:	e8 9e fe 00 00       	call   12970 <str_error>
    2ad2:	c7 44 24 04 d2 95 02 	movl   $0x295d2,0x4(%esp)
    2ad9:	00 
    2ada:	89 44 24 08          	mov    %eax,0x8(%esp)
    2ade:	c7 04 24 e4 97 02 00 	movl   $0x297e4,(%esp)
    2ae5:	e8 26 4b 01 00       	call   17610 <printf>
    2aea:	e9 21 fc ff ff       	jmp    2710 <compositor_srv_init+0x360>
    2aef:	89 04 24             	mov    %eax,(%esp)
    2af2:	83 cf ff             	or     $0xffffffff,%edi
    2af5:	e8 76 fe 00 00       	call   12970 <str_error>
    2afa:	c7 44 24 04 d2 95 02 	movl   $0x295d2,0x4(%esp)
    2b01:	00 
    2b02:	89 44 24 08          	mov    %eax,0x8(%esp)
    2b06:	c7 04 24 84 96 02 00 	movl   $0x29684,(%esp)
    2b0d:	e8 fe 4a 01 00       	call   17610 <printf>
    2b12:	e9 28 fe ff ff       	jmp    293f <compositor_srv_init+0x58f>
    2b17:	8b 43 34             	mov    0x34(%ebx),%eax
    2b1a:	89 04 24             	mov    %eax,(%esp)
    2b1d:	e8 7e 77 01 00       	call   1a2a0 <visualizer_yield>
    2b22:	8b 43 34             	mov    0x34(%ebx),%eax
    2b25:	89 04 24             	mov    %eax,(%esp)
    2b28:	e8 53 d3 01 00       	call   1fe80 <async_hangup>
    2b2d:	89 1c 24             	mov    %ebx,(%esp)
    2b30:	e8 1b a0 01 00       	call   1cb50 <free>
    2b35:	89 3c 24             	mov    %edi,(%esp)
    2b38:	e8 33 fe 00 00       	call   12970 <str_error>
    2b3d:	c7 44 24 04 d2 95 02 	movl   $0x295d2,0x4(%esp)
    2b44:	00 
    2b45:	89 44 24 08          	mov    %eax,0x8(%esp)
    2b49:	c7 04 24 0c 98 02 00 	movl   $0x2980c,(%esp)
    2b50:	e8 bb 4a 01 00       	call   17610 <printf>
    2b55:	e9 b6 fb ff ff       	jmp    2710 <compositor_srv_init+0x360>
    2b5a:	89 74 24 08          	mov    %esi,0x8(%esp)
    2b5e:	c7 44 24 04 d2 95 02 	movl   $0x295d2,0x4(%esp)
    2b65:	00 
    2b66:	c7 04 24 dc 96 02 00 	movl   $0x296dc,(%esp)
    2b6d:	83 cf ff             	or     $0xffffffff,%edi
    2b70:	e8 9b 4a 01 00       	call   17610 <printf>
    2b75:	e9 c5 fd ff ff       	jmp    293f <compositor_srv_init+0x58f>
    2b7a:	8b 43 34             	mov    0x34(%ebx),%eax
    2b7d:	89 04 24             	mov    %eax,(%esp)
    2b80:	e8 1b 77 01 00       	call   1a2a0 <visualizer_yield>
    2b85:	8b 43 40             	mov    0x40(%ebx),%eax
    2b88:	89 04 24             	mov    %eax,(%esp)
    2b8b:	e8 00 53 00 00       	call   7e90 <surface_destroy>
    2b90:	8b 43 34             	mov    0x34(%ebx),%eax
    2b93:	89 04 24             	mov    %eax,(%esp)
    2b96:	e8 e5 d2 01 00       	call   1fe80 <async_hangup>
    2b9b:	89 1c 24             	mov    %ebx,(%esp)
    2b9e:	e8 ad 9f 01 00       	call   1cb50 <free>
    2ba3:	89 3c 24             	mov    %edi,(%esp)
    2ba6:	e8 c5 fd 00 00       	call   12970 <str_error>
    2bab:	c7 44 24 04 d2 95 02 	movl   $0x295d2,0x4(%esp)
    2bb2:	00 
    2bb3:	89 44 24 08          	mov    %eax,0x8(%esp)
    2bb7:	c7 04 24 f4 95 02 00 	movl   $0x295f4,(%esp)
    2bbe:	e8 4d 4a 01 00       	call   17610 <printf>
    2bc3:	e9 48 fb ff ff       	jmp    2710 <compositor_srv_init+0x360>
    2bc8:	8b 43 34             	mov    0x34(%ebx),%eax
    2bcb:	89 04 24             	mov    %eax,(%esp)
    2bce:	e8 cd 76 01 00       	call   1a2a0 <visualizer_yield>
    2bd3:	8b 43 34             	mov    0x34(%ebx),%eax
    2bd6:	89 04 24             	mov    %eax,(%esp)
    2bd9:	e8 a2 d2 01 00       	call   1fe80 <async_hangup>
    2bde:	89 1c 24             	mov    %ebx,(%esp)
    2be1:	e8 6a 9f 01 00       	call   1cb50 <free>
    2be6:	c7 04 24 00 00 00 00 	movl   $0x0,(%esp)
    2bed:	e8 7e fd 00 00       	call   12970 <str_error>
    2bf2:	c7 44 24 04 d2 95 02 	movl   $0x295d2,0x4(%esp)
    2bf9:	00 
    2bfa:	89 44 24 08          	mov    %eax,0x8(%esp)
    2bfe:	c7 04 24 30 98 02 00 	movl   $0x29830,(%esp)
    2c05:	e8 06 4a 01 00       	call   17610 <printf>
    2c0a:	e9 01 fb ff ff       	jmp    2710 <compositor_srv_init+0x360>
    2c0f:	89 7c 24 08          	mov    %edi,0x8(%esp)
    2c13:	c7 44 24 04 d2 95 02 	movl   $0x295d2,0x4(%esp)
    2c1a:	00 
    2c1b:	c7 04 24 7c 97 02 00 	movl   $0x2977c,(%esp)
    2c22:	89 95 b4 fd ff ff    	mov    %edx,-0x24c(%ebp)
    2c28:	e8 e3 49 01 00       	call   17610 <printf>
    2c2d:	8b 95 b4 fd ff ff    	mov    -0x24c(%ebp),%edx
    2c33:	e9 14 fc ff ff       	jmp    284c <compositor_srv_init+0x49c>
    2c38:	89 5c 24 08          	mov    %ebx,0x8(%esp)
    2c3c:	c7 44 24 04 d2 95 02 	movl   $0x295d2,0x4(%esp)
    2c43:	00 
    2c44:	c7 04 24 20 97 02 00 	movl   $0x29720,(%esp)
    2c4b:	bf f7 fe ff ff       	mov    $0xfffffef7,%edi
    2c50:	e8 bb 49 01 00       	call   17610 <printf>
    2c55:	e9 e5 fc ff ff       	jmp    293f <compositor_srv_init+0x58f>
    2c5a:	8d b6 00 00 00 00    	lea    0x0(%esi),%esi

00002c60 <interrupt_received>:
    2c60:	55                   	push   %ebp
    2c61:	83 c9 ff             	or     $0xffffffff,%ecx
    2c64:	89 e5                	mov    %esp,%ebp
    2c66:	31 d2                	xor    %edx,%edx
    2c68:	31 c0                	xor    %eax,%eax
    2c6a:	c7 45 08 ff ff ff ff 	movl   $0xffffffff,0x8(%ebp)
    2c71:	5d                   	pop    %ebp
    2c72:	e9 69 eb ff ff       	jmp    17e0 <comp_damage>
    2c77:	89 f6                	mov    %esi,%esi
    2c79:	8d bc 27 00 00 00 00 	lea    0x0(%edi,%eiz,1),%edi

00002c80 <comp_ghost_animate>:
    2c80:	55                   	push   %ebp
    2c81:	89 e5                	mov    %esp,%ebp
    2c83:	57                   	push   %edi
    2c84:	56                   	push   %esi
    2c85:	53                   	push   %ebx
    2c86:	81 ec 3c 01 00 00    	sub    $0x13c,%esp
    2c8c:	89 95 38 ff ff ff    	mov    %edx,-0xc8(%ebp)
    2c92:	8b 90 f0 00 00 00    	mov    0xf0(%eax),%edx
    2c98:	89 8d 30 ff ff ff    	mov    %ecx,-0xd0(%ebp)
    2c9e:	89 95 2c ff ff ff    	mov    %edx,-0xd4(%ebp)
    2ca4:	8b b0 ec 00 00 00    	mov    0xec(%eax),%esi
    2caa:	8b 78 2c             	mov    0x2c(%eax),%edi
    2cad:	c7 80 ec 00 00 00 00 	movl   $0x0,0xec(%eax)
    2cb4:	00 00 00 
    2cb7:	c7 80 f0 00 00 00 00 	movl   $0x0,0xf0(%eax)
    2cbe:	00 00 00 
    2cc1:	89 c3                	mov    %eax,%ebx
    2cc3:	8d 85 4c ff ff ff    	lea    -0xb4(%ebp),%eax
    2cc9:	89 44 24 08          	mov    %eax,0x8(%esp)
    2ccd:	8d 85 48 ff ff ff    	lea    -0xb8(%ebp),%eax
    2cd3:	89 44 24 04          	mov    %eax,0x4(%esp)
    2cd7:	8b 83 e8 00 00 00    	mov    0xe8(%ebx),%eax
    2cdd:	89 04 24             	mov    %eax,(%esp)
    2ce0:	f7 c7 30 00 00 00    	test   $0x30,%edi
    2ce6:	0f 95 85 37 ff ff ff 	setne  -0xc9(%ebp)
    2ced:	f7 c7 0c 00 00 00    	test   $0xc,%edi
    2cf3:	0f 95 85 36 ff ff ff 	setne  -0xca(%ebp)
    2cfa:	e8 01 52 00 00       	call   7f00 <surface_get_resolution>
    2cff:	83 e7 03             	and    $0x3,%edi
    2d02:	0f 85 88 03 00 00    	jne    3090 <comp_ghost_animate+0x410>
    2d08:	8a 95 36 ff ff ff    	mov    -0xca(%ebp),%dl
    2d0e:	0a 95 37 ff ff ff    	or     -0xc9(%ebp),%dl
    2d14:	84 d2                	test   %dl,%dl
    2d16:	0f 85 18 04 00 00    	jne    3134 <comp_ghost_animate+0x4b4>
    2d1c:	8b 85 4c ff ff ff    	mov    -0xb4(%ebp),%eax
    2d22:	8b 95 48 ff ff ff    	mov    -0xb8(%ebp),%edx
    2d28:	eb 0e                	jmp    2d38 <comp_ghost_animate+0xb8>
    2d2a:	8d b6 00 00 00 00    	lea    0x0(%esi),%esi
    2d30:	dd d8                	fstp   %st(0)
    2d32:	8d b6 00 00 00 00    	lea    0x0(%esi),%esi
    2d38:	8d 8d 5c ff ff ff    	lea    -0xa4(%ebp),%ecx
    2d3e:	8d 7c 24 10          	lea    0x10(%esp),%edi
    2d42:	89 4c 24 64          	mov    %ecx,0x64(%esp)
    2d46:	8d 8d 58 ff ff ff    	lea    -0xa8(%ebp),%ecx
    2d4c:	89 4c 24 60          	mov    %ecx,0x60(%esp)
    2d50:	8d 8d 54 ff ff ff    	lea    -0xac(%ebp),%ecx
    2d56:	89 4c 24 5c          	mov    %ecx,0x5c(%esp)
    2d5a:	8d 8d 50 ff ff ff    	lea    -0xb0(%ebp),%ecx
    2d60:	89 4c 24 58          	mov    %ecx,0x58(%esp)
    2d64:	8d 73 74             	lea    0x74(%ebx),%esi
    2d67:	b9 12 00 00 00       	mov    $0x12,%ecx
    2d6c:	f3 a5                	rep movsl %ds:(%esi),%es:(%edi)
    2d6e:	31 ff                	xor    %edi,%edi
    2d70:	89 85 40 ff ff ff    	mov    %eax,-0xc0(%ebp)
    2d76:	89 bd 44 ff ff ff    	mov    %edi,-0xbc(%ebp)
    2d7c:	89 d0                	mov    %edx,%eax
    2d7e:	df ad 40 ff ff ff    	fildll -0xc0(%ebp)
    2d84:	31 d2                	xor    %edx,%edx
    2d86:	89 85 40 ff ff ff    	mov    %eax,-0xc0(%ebp)
    2d8c:	dd 5c 24 08          	fstpl  0x8(%esp)
    2d90:	89 95 44 ff ff ff    	mov    %edx,-0xbc(%ebp)
    2d96:	8d 7c 24 10          	lea    0x10(%esp),%edi
    2d9a:	df ad 40 ff ff ff    	fildll -0xc0(%ebp)
    2da0:	8d 73 74             	lea    0x74(%ebx),%esi
    2da3:	dd 1c 24             	fstpl  (%esp)
    2da6:	e8 05 e5 ff ff       	call   12b0 <comp_coord_bounding_rect.constprop.8>
    2dab:	8d 43 44             	lea    0x44(%ebx),%eax
    2dae:	e8 0d e3 ff ff       	call   10c0 <comp_recalc_transform>
    2db3:	8d 85 6c ff ff ff    	lea    -0x94(%ebp),%eax
    2db9:	89 44 24 64          	mov    %eax,0x64(%esp)
    2dbd:	8d 85 68 ff ff ff    	lea    -0x98(%ebp),%eax
    2dc3:	89 44 24 60          	mov    %eax,0x60(%esp)
    2dc7:	8d 85 64 ff ff ff    	lea    -0x9c(%ebp),%eax
    2dcd:	89 44 24 5c          	mov    %eax,0x5c(%esp)
    2dd1:	8d 85 60 ff ff ff    	lea    -0xa0(%ebp),%eax
    2dd7:	89 44 24 58          	mov    %eax,0x58(%esp)
    2ddb:	b9 12 00 00 00       	mov    $0x12,%ecx
    2de0:	f3 a5                	rep movsl %ds:(%esi),%es:(%edi)
    2de2:	31 d2                	xor    %edx,%edx
    2de4:	8b 85 4c ff ff ff    	mov    -0xb4(%ebp),%eax
    2dea:	89 85 40 ff ff ff    	mov    %eax,-0xc0(%ebp)
    2df0:	89 95 44 ff ff ff    	mov    %edx,-0xbc(%ebp)
    2df6:	df ad 40 ff ff ff    	fildll -0xc0(%ebp)
    2dfc:	31 d2                	xor    %edx,%edx
    2dfe:	8b 85 48 ff ff ff    	mov    -0xb8(%ebp),%eax
    2e04:	dd 5c 24 08          	fstpl  0x8(%esp)
    2e08:	89 95 44 ff ff ff    	mov    %edx,-0xbc(%ebp)
    2e0e:	89 85 40 ff ff ff    	mov    %eax,-0xc0(%ebp)
    2e14:	df ad 40 ff ff ff    	fildll -0xc0(%ebp)
    2e1a:	dd 1c 24             	fstpl  (%esp)
    2e1d:	e8 8e e4 ff ff       	call   12b0 <comp_coord_bounding_rect.constprop.8>
    2e22:	8d 85 7c ff ff ff    	lea    -0x84(%ebp),%eax
    2e28:	89 44 24 2c          	mov    %eax,0x2c(%esp)
    2e2c:	8d 85 78 ff ff ff    	lea    -0x88(%ebp),%eax
    2e32:	89 44 24 28          	mov    %eax,0x28(%esp)
    2e36:	8d 85 74 ff ff ff    	lea    -0x8c(%ebp),%eax
    2e3c:	89 44 24 24          	mov    %eax,0x24(%esp)
    2e40:	8d 85 70 ff ff ff    	lea    -0x90(%ebp),%eax
    2e46:	89 44 24 20          	mov    %eax,0x20(%esp)
    2e4a:	8b 85 6c ff ff ff    	mov    -0x94(%ebp),%eax
    2e50:	89 44 24 1c          	mov    %eax,0x1c(%esp)
    2e54:	8b 85 68 ff ff ff    	mov    -0x98(%ebp),%eax
    2e5a:	89 44 24 18          	mov    %eax,0x18(%esp)
    2e5e:	8b 85 64 ff ff ff    	mov    -0x9c(%ebp),%eax
    2e64:	89 44 24 14          	mov    %eax,0x14(%esp)
    2e68:	8b 85 60 ff ff ff    	mov    -0xa0(%ebp),%eax
    2e6e:	89 44 24 10          	mov    %eax,0x10(%esp)
    2e72:	8b 85 5c ff ff ff    	mov    -0xa4(%ebp),%eax
    2e78:	89 44 24 0c          	mov    %eax,0xc(%esp)
    2e7c:	8b 85 58 ff ff ff    	mov    -0xa8(%ebp),%eax
    2e82:	89 44 24 08          	mov    %eax,0x8(%esp)
    2e86:	8b 85 54 ff ff ff    	mov    -0xac(%ebp),%eax
    2e8c:	89 44 24 04          	mov    %eax,0x4(%esp)
    2e90:	8b 85 50 ff ff ff    	mov    -0xb0(%ebp),%eax
    2e96:	89 04 24             	mov    %eax,(%esp)
    2e99:	e8 62 6e 00 00       	call   9d00 <rectangle_union>
    2e9e:	8d 45 8c             	lea    -0x74(%ebp),%eax
    2ea1:	89 44 24 2c          	mov    %eax,0x2c(%esp)
    2ea5:	8d 45 88             	lea    -0x78(%ebp),%eax
    2ea8:	89 44 24 28          	mov    %eax,0x28(%esp)
    2eac:	8d 45 84             	lea    -0x7c(%ebp),%eax
    2eaf:	89 44 24 24          	mov    %eax,0x24(%esp)
    2eb3:	8d 45 80             	lea    -0x80(%ebp),%eax
    2eb6:	89 44 24 20          	mov    %eax,0x20(%esp)
    2eba:	8b 85 6c ff ff ff    	mov    -0x94(%ebp),%eax
    2ec0:	89 44 24 1c          	mov    %eax,0x1c(%esp)
    2ec4:	8b 85 68 ff ff ff    	mov    -0x98(%ebp),%eax
    2eca:	89 44 24 18          	mov    %eax,0x18(%esp)
    2ece:	8b 85 64 ff ff ff    	mov    -0x9c(%ebp),%eax
    2ed4:	89 44 24 14          	mov    %eax,0x14(%esp)
    2ed8:	8b 85 60 ff ff ff    	mov    -0xa0(%ebp),%eax
    2ede:	89 44 24 10          	mov    %eax,0x10(%esp)
    2ee2:	8b 85 5c ff ff ff    	mov    -0xa4(%ebp),%eax
    2ee8:	89 44 24 0c          	mov    %eax,0xc(%esp)
    2eec:	8b 85 58 ff ff ff    	mov    -0xa8(%ebp),%eax
    2ef2:	89 44 24 08          	mov    %eax,0x8(%esp)
    2ef6:	8b 85 54 ff ff ff    	mov    -0xac(%ebp),%eax
    2efc:	89 44 24 04          	mov    %eax,0x4(%esp)
    2f00:	8b 85 50 ff ff ff    	mov    -0xb0(%ebp),%eax
    2f06:	89 04 24             	mov    %eax,(%esp)
    2f09:	e8 52 6d 00 00       	call   9c60 <rectangle_intersect>
    2f0e:	8b 45 88             	mov    -0x78(%ebp),%eax
    2f11:	85 c0                	test   %eax,%eax
    2f13:	0f 84 c7 00 00 00    	je     2fe0 <comp_ghost_animate+0x360>
    2f19:	8b 75 8c             	mov    -0x74(%ebp),%esi
    2f1c:	85 f6                	test   %esi,%esi
    2f1e:	0f 84 bc 00 00 00    	je     2fe0 <comp_ghost_animate+0x360>
    2f24:	8b 95 38 ff ff ff    	mov    -0xc8(%ebp),%edx
    2f2a:	8b 8d 70 ff ff ff    	mov    -0x90(%ebp),%ecx
    2f30:	8b 9d 38 ff ff ff    	mov    -0xc8(%ebp),%ebx
    2f36:	8b bd 38 ff ff ff    	mov    -0xc8(%ebp),%edi
    2f3c:	89 0a                	mov    %ecx,(%edx)
    2f3e:	8b 95 74 ff ff ff    	mov    -0x8c(%ebp),%edx
    2f44:	89 53 04             	mov    %edx,0x4(%ebx)
    2f47:	8b 5d 80             	mov    -0x80(%ebp),%ebx
    2f4a:	43                   	inc    %ebx
    2f4b:	29 cb                	sub    %ecx,%ebx
    2f4d:	89 5f 08             	mov    %ebx,0x8(%edi)
    2f50:	8b 9d 7c ff ff ff    	mov    -0x84(%ebp),%ebx
    2f56:	89 5f 0c             	mov    %ebx,0xc(%edi)
    2f59:	8b bd 30 ff ff ff    	mov    -0xd0(%ebp),%edi
    2f5f:	8b 9d 78 ff ff ff    	mov    -0x88(%ebp),%ebx
    2f65:	89 5f 08             	mov    %ebx,0x8(%edi)
    2f68:	8b 5d 84             	mov    -0x7c(%ebp),%ebx
    2f6b:	43                   	inc    %ebx
    2f6c:	89 0f                	mov    %ecx,(%edi)
    2f6e:	29 d3                	sub    %edx,%ebx
    2f70:	89 57 04             	mov    %edx,0x4(%edi)
    2f73:	89 5f 0c             	mov    %ebx,0xc(%edi)
    2f76:	8b 7d 80             	mov    -0x80(%ebp),%edi
    2f79:	8d 5c 38 ff          	lea    -0x1(%eax,%edi,1),%ebx
    2f7d:	8b 7d 08             	mov    0x8(%ebp),%edi
    2f80:	89 1f                	mov    %ebx,(%edi)
    2f82:	89 57 04             	mov    %edx,0x4(%edi)
    2f85:	8b bd 78 ff ff ff    	mov    -0x88(%ebp),%edi
    2f8b:	8d 5c 39 01          	lea    0x1(%ecx,%edi,1),%ebx
    2f8f:	8b 7d 80             	mov    -0x80(%ebp),%edi
    2f92:	29 fb                	sub    %edi,%ebx
    2f94:	8b 7d 84             	mov    -0x7c(%ebp),%edi
    2f97:	29 c3                	sub    %eax,%ebx
    2f99:	8b 45 08             	mov    0x8(%ebp),%eax
    2f9c:	89 58 08             	mov    %ebx,0x8(%eax)
    2f9f:	8b 9d 7c ff ff ff    	mov    -0x84(%ebp),%ebx
    2fa5:	89 58 0c             	mov    %ebx,0xc(%eax)
    2fa8:	8b 5d 0c             	mov    0xc(%ebp),%ebx
    2fab:	8d 44 3e ff          	lea    -0x1(%esi,%edi,1),%eax
    2faf:	89 43 04             	mov    %eax,0x4(%ebx)
    2fb2:	8b 85 78 ff ff ff    	mov    -0x88(%ebp),%eax
    2fb8:	89 0b                	mov    %ecx,(%ebx)
    2fba:	89 43 08             	mov    %eax,0x8(%ebx)
    2fbd:	8b 8d 7c ff ff ff    	mov    -0x84(%ebp),%ecx
    2fc3:	8d 44 0a 01          	lea    0x1(%edx,%ecx,1),%eax
    2fc7:	29 f0                	sub    %esi,%eax
    2fc9:	29 f8                	sub    %edi,%eax
    2fcb:	89 43 0c             	mov    %eax,0xc(%ebx)
    2fce:	81 c4 3c 01 00 00    	add    $0x13c,%esp
    2fd4:	5b                   	pop    %ebx
    2fd5:	5e                   	pop    %esi
    2fd6:	5f                   	pop    %edi
    2fd7:	5d                   	pop    %ebp
    2fd8:	c3                   	ret    
    2fd9:	8d b4 26 00 00 00 00 	lea    0x0(%esi,%eiz,1),%esi
    2fe0:	8b 95 38 ff ff ff    	mov    -0xc8(%ebp),%edx
    2fe6:	8b 85 70 ff ff ff    	mov    -0x90(%ebp),%eax
    2fec:	8b 8d 30 ff ff ff    	mov    -0xd0(%ebp),%ecx
    2ff2:	8b 5d 08             	mov    0x8(%ebp),%ebx
    2ff5:	89 02                	mov    %eax,(%edx)
    2ff7:	8b 55 0c             	mov    0xc(%ebp),%edx
    2ffa:	c7 01 00 00 00 00    	movl   $0x0,(%ecx)
    3000:	c7 03 00 00 00 00    	movl   $0x0,(%ebx)
    3006:	c7 02 00 00 00 00    	movl   $0x0,(%edx)
    300c:	8b 95 38 ff ff ff    	mov    -0xc8(%ebp),%edx
    3012:	8b 85 74 ff ff ff    	mov    -0x8c(%ebp),%eax
    3018:	89 42 04             	mov    %eax,0x4(%edx)
    301b:	8b 85 78 ff ff ff    	mov    -0x88(%ebp),%eax
    3021:	89 42 08             	mov    %eax,0x8(%edx)
    3024:	8b 55 08             	mov    0x8(%ebp),%edx
    3027:	c7 41 04 00 00 00 00 	movl   $0x0,0x4(%ecx)
    302e:	c7 41 08 00 00 00 00 	movl   $0x0,0x8(%ecx)
    3035:	c7 43 04 00 00 00 00 	movl   $0x0,0x4(%ebx)
    303c:	c7 42 08 00 00 00 00 	movl   $0x0,0x8(%edx)
    3043:	8b 5d 0c             	mov    0xc(%ebp),%ebx
    3046:	8b 95 38 ff ff ff    	mov    -0xc8(%ebp),%edx
    304c:	8b 85 7c ff ff ff    	mov    -0x84(%ebp),%eax
    3052:	89 42 0c             	mov    %eax,0xc(%edx)
    3055:	c7 43 04 00 00 00 00 	movl   $0x0,0x4(%ebx)
    305c:	c7 43 08 00 00 00 00 	movl   $0x0,0x8(%ebx)
    3063:	8b 55 0c             	mov    0xc(%ebp),%edx
    3066:	8b 5d 08             	mov    0x8(%ebp),%ebx
    3069:	c7 41 0c 00 00 00 00 	movl   $0x0,0xc(%ecx)
    3070:	c7 43 0c 00 00 00 00 	movl   $0x0,0xc(%ebx)
    3077:	c7 42 0c 00 00 00 00 	movl   $0x0,0xc(%edx)
    307e:	81 c4 3c 01 00 00    	add    $0x13c,%esp
    3084:	5b                   	pop    %ebx
    3085:	5e                   	pop    %esi
    3086:	5f                   	pop    %edi
    3087:	5d                   	pop    %ebp
    3088:	c3                   	ret    
    3089:	8d b4 26 00 00 00 00 	lea    0x0(%esi,%eiz,1),%esi
    3090:	8b 43 2c             	mov    0x2c(%ebx),%eax
    3093:	c7 45 90 00 00 00 00 	movl   $0x0,-0x70(%ebp)
    309a:	c7 45 94 00 00 00 00 	movl   $0x0,-0x6c(%ebp)
    30a1:	c7 45 98 00 00 00 00 	movl   $0x0,-0x68(%ebp)
    30a8:	c7 45 9c 00 00 00 00 	movl   $0x0,-0x64(%ebp)
    30af:	a8 01                	test   $0x1,%al
    30b1:	74 0e                	je     30c1 <comp_ghost_animate+0x441>
    30b3:	c7 45 90 00 00 00 00 	movl   $0x0,-0x70(%ebp)
    30ba:	c7 45 94 00 00 f0 3f 	movl   $0x3ff00000,-0x6c(%ebp)
    30c1:	a8 02                	test   $0x2,%al
    30c3:	0f 85 5f 01 00 00    	jne    3228 <comp_ghost_animate+0x5a8>
    30c9:	8a 95 36 ff ff ff    	mov    -0xca(%ebp),%dl
    30cf:	0a 95 37 ff ff ff    	or     -0xc9(%ebp),%dl
    30d5:	d9 ee                	fldz   
    30d7:	0f 85 73 01 00 00    	jne    3250 <comp_ghost_animate+0x5d0>
    30dd:	dd 45 90             	fldl   -0x70(%ebp)
    30e0:	d9 ee                	fldz   
    30e2:	dd e9                	fucomp %st(1)
    30e4:	df e0                	fnstsw %ax
    30e6:	f6 c4 45             	test   $0x45,%ah
    30e9:	0f 84 c1 01 00 00    	je     32b0 <comp_ghost_animate+0x630>
    30ef:	d9 ee                	fldz   
    30f1:	dd ea                	fucomp %st(2)
    30f3:	df e0                	fnstsw %ax
    30f5:	f6 c4 45             	test   $0x45,%ah
    30f8:	0f 84 a2 01 00 00    	je     32a0 <comp_ghost_animate+0x620>
    30fe:	89 b5 3c ff ff ff    	mov    %esi,-0xc4(%ebp)
    3104:	84 d2                	test   %dl,%dl
    3106:	db 85 3c ff ff ff    	fildl  -0xc4(%ebp)
    310c:	de c9                	fmulp  %st,%st(1)
    310e:	dc 83 bc 00 00 00    	faddl  0xbc(%ebx)
    3114:	dd 9b bc 00 00 00    	fstpl  0xbc(%ebx)
    311a:	db 85 2c ff ff ff    	fildl  -0xd4(%ebp)
    3120:	de c9                	fmulp  %st,%st(1)
    3122:	dc 83 c4 00 00 00    	faddl  0xc4(%ebx)
    3128:	dd 9b c4 00 00 00    	fstpl  0xc4(%ebx)
    312e:	0f 84 e8 fb ff ff    	je     2d1c <comp_ghost_animate+0x9c>
    3134:	89 b5 3c ff ff ff    	mov    %esi,-0xc4(%ebp)
    313a:	8d 75 a0             	lea    -0x60(%ebp),%esi
    313d:	db 85 3c ff ff ff    	fildl  -0xc4(%ebp)
    3143:	89 34 24             	mov    %esi,(%esp)
    3146:	dd 5d 90             	fstpl  -0x70(%ebp)
    3149:	db 85 2c ff ff ff    	fildl  -0xd4(%ebp)
    314f:	dd 5d 98             	fstpl  -0x68(%ebp)
    3152:	e8 f9 6d 00 00       	call   9f50 <transform_identity>
    3157:	dd 83 dc 00 00 00    	fldl   0xdc(%ebx)
    315d:	d9 e0                	fchs   
    315f:	89 34 24             	mov    %esi,(%esp)
    3162:	dd 5c 24 04          	fstpl  0x4(%esp)
    3166:	e8 35 70 00 00       	call   a1a0 <transform_rotate>
    316b:	8d 45 98             	lea    -0x68(%ebp),%eax
    316e:	89 44 24 08          	mov    %eax,0x8(%esp)
    3172:	8d 45 90             	lea    -0x70(%ebp),%eax
    3175:	89 44 24 04          	mov    %eax,0x4(%esp)
    3179:	89 34 24             	mov    %esi,(%esp)
    317c:	e8 9f 73 00 00       	call   a520 <transform_apply_linear>
    3181:	8b 43 2c             	mov    0x2c(%ebx),%eax
    3184:	dd 45 90             	fldl   -0x70(%ebp)
    3187:	a8 01                	test   $0x1,%al
    3189:	74 02                	je     318d <comp_ghost_animate+0x50d>
    318b:	d9 e0                	fchs   
    318d:	dd 55 90             	fstl   -0x70(%ebp)
    3190:	a8 02                	test   $0x2,%al
    3192:	dd 45 98             	fldl   -0x68(%ebp)
    3195:	74 02                	je     3199 <comp_ghost_animate+0x519>
    3197:	d9 e0                	fchs   
    3199:	dd 55 98             	fstl   -0x68(%ebp)
    319c:	8b 43 2c             	mov    0x2c(%ebx),%eax
    319f:	8b 95 48 ff ff ff    	mov    -0xb8(%ebp),%edx
    31a5:	a8 14                	test   $0x14,%al
    31a7:	74 37                	je     31e0 <comp_ghost_animate+0x560>
    31a9:	8d 72 ff             	lea    -0x1(%edx),%esi
    31ac:	31 ff                	xor    %edi,%edi
    31ae:	89 b5 40 ff ff ff    	mov    %esi,-0xc0(%ebp)
    31b4:	89 bd 44 ff ff ff    	mov    %edi,-0xbc(%ebp)
    31ba:	df ad 40 ff ff ff    	fildll -0xc0(%ebp)
    31c0:	dc 8b cc 00 00 00    	fmull  0xcc(%ebx)
    31c6:	de fa                	fdivrp %st,%st(2)
    31c8:	d9 c9                	fxch   %st(1)
    31ca:	d8 05 f4 98 02 00    	fadds  0x298f4
    31d0:	dc 8b cc 00 00 00    	fmull  0xcc(%ebx)
    31d6:	dd 9b cc 00 00 00    	fstpl  0xcc(%ebx)
    31dc:	eb 04                	jmp    31e2 <comp_ghost_animate+0x562>
    31de:	66 90                	xchg   %ax,%ax
    31e0:	dd d9                	fstp   %st(1)
    31e2:	a8 28                	test   $0x28,%al
    31e4:	8b 85 4c ff ff ff    	mov    -0xb4(%ebp),%eax
    31ea:	0f 84 40 fb ff ff    	je     2d30 <comp_ghost_animate+0xb0>
    31f0:	8d 70 ff             	lea    -0x1(%eax),%esi
    31f3:	31 ff                	xor    %edi,%edi
    31f5:	89 b5 40 ff ff ff    	mov    %esi,-0xc0(%ebp)
    31fb:	89 bd 44 ff ff ff    	mov    %edi,-0xbc(%ebp)
    3201:	df ad 40 ff ff ff    	fildll -0xc0(%ebp)
    3207:	dc 8b d4 00 00 00    	fmull  0xd4(%ebx)
    320d:	de f9                	fdivrp %st,%st(1)
    320f:	d8 05 f4 98 02 00    	fadds  0x298f4
    3215:	dc 8b d4 00 00 00    	fmull  0xd4(%ebx)
    321b:	dd 9b d4 00 00 00    	fstpl  0xd4(%ebx)
    3221:	e9 12 fb ff ff       	jmp    2d38 <comp_ghost_animate+0xb8>
    3226:	66 90                	xchg   %ax,%ax
    3228:	8a 95 36 ff ff ff    	mov    -0xca(%ebp),%dl
    322e:	c7 45 98 00 00 00 00 	movl   $0x0,-0x68(%ebp)
    3235:	0a 95 37 ff ff ff    	or     -0xc9(%ebp),%dl
    323b:	c7 45 9c 00 00 f0 3f 	movl   $0x3ff00000,-0x64(%ebp)
    3242:	d9 e8                	fld1   
    3244:	0f 84 93 fe ff ff    	je     30dd <comp_ghost_animate+0x45d>
    324a:	dd d8                	fstp   %st(0)
    324c:	eb 04                	jmp    3252 <comp_ghost_animate+0x5d2>
    324e:	66 90                	xchg   %ax,%ax
    3250:	dd d8                	fstp   %st(0)
    3252:	8d 7d a0             	lea    -0x60(%ebp),%edi
    3255:	88 95 28 ff ff ff    	mov    %dl,-0xd8(%ebp)
    325b:	89 3c 24             	mov    %edi,(%esp)
    325e:	e8 ed 6c 00 00       	call   9f50 <transform_identity>
    3263:	dd 83 dc 00 00 00    	fldl   0xdc(%ebx)
    3269:	89 3c 24             	mov    %edi,(%esp)
    326c:	dd 5c 24 04          	fstpl  0x4(%esp)
    3270:	e8 2b 6f 00 00       	call   a1a0 <transform_rotate>
    3275:	8d 45 98             	lea    -0x68(%ebp),%eax
    3278:	89 44 24 08          	mov    %eax,0x8(%esp)
    327c:	8d 45 90             	lea    -0x70(%ebp),%eax
    327f:	89 44 24 04          	mov    %eax,0x4(%esp)
    3283:	89 3c 24             	mov    %edi,(%esp)
    3286:	e8 95 72 00 00       	call   a520 <transform_apply_linear>
    328b:	8a 95 28 ff ff ff    	mov    -0xd8(%ebp),%dl
    3291:	dd 45 98             	fldl   -0x68(%ebp)
    3294:	e9 44 fe ff ff       	jmp    30dd <comp_ghost_animate+0x45d>
    3299:	8d b4 26 00 00 00 00 	lea    0x0(%esi,%eiz,1),%esi
    32a0:	d9 c9                	fxch   %st(1)
    32a2:	d9 e0                	fchs   
    32a4:	d9 c9                	fxch   %st(1)
    32a6:	e9 53 fe ff ff       	jmp    30fe <comp_ghost_animate+0x47e>
    32ab:	90                   	nop
    32ac:	8d 74 26 00          	lea    0x0(%esi,%eiz,1),%esi
    32b0:	d9 e0                	fchs   
    32b2:	e9 38 fe ff ff       	jmp    30ef <comp_ghost_animate+0x46f>
    32b7:	89 f6                	mov    %esi,%esi
    32b9:	8d bc 27 00 00 00 00 	lea    0x0(%edi,%eiz,1),%edi

000032c0 <vsl_notifications>:
    32c0:	55                   	push   %ebp
    32c1:	89 e5                	mov    %esp,%ebp
    32c3:	57                   	push   %edi
    32c4:	56                   	push   %esi
    32c5:	53                   	push   %ebx
    32c6:	83 ec 7c             	sub    $0x7c,%esp
    32c9:	c7 04 24 a8 c5 02 00 	movl   $0x2c5a8,(%esp)
    32d0:	e8 8b 00 01 00       	call   13360 <fibril_mutex_lock>
    32d5:	8b 1d 64 c5 02 00    	mov    0x2c564,%ebx
    32db:	81 fb 60 c5 02 00    	cmp    $0x2c560,%ebx
    32e1:	74 1d                	je     3300 <vsl_notifications+0x40>
    32e3:	8b 45 0c             	mov    0xc(%ebp),%eax
    32e6:	8b 40 04             	mov    0x4(%eax),%eax
    32e9:	39 43 08             	cmp    %eax,0x8(%ebx)
    32ec:	75 07                	jne    32f5 <vsl_notifications+0x35>
    32ee:	eb 28                	jmp    3318 <vsl_notifications+0x58>
    32f0:	39 43 08             	cmp    %eax,0x8(%ebx)
    32f3:	74 23                	je     3318 <vsl_notifications+0x58>
    32f5:	8b 5b 04             	mov    0x4(%ebx),%ebx
    32f8:	81 fb 60 c5 02 00    	cmp    $0x2c560,%ebx
    32fe:	75 f0                	jne    32f0 <vsl_notifications+0x30>
    3300:	c7 04 24 a8 c5 02 00 	movl   $0x2c5a8,(%esp)
    3307:	e8 74 01 01 00       	call   13480 <fibril_mutex_unlock>
    330c:	83 c4 7c             	add    $0x7c,%esp
    330f:	5b                   	pop    %ebx
    3310:	5e                   	pop    %esi
    3311:	5f                   	pop    %edi
    3312:	5d                   	pop    %ebp
    3313:	c3                   	ret    
    3314:	8d 74 26 00          	lea    0x0(%esi,%eiz,1),%esi
    3318:	c7 04 24 a8 c5 02 00 	movl   $0x2c5a8,(%esp)
    331f:	e8 5c 01 01 00       	call   13480 <fibril_mutex_unlock>
    3324:	8d 45 c0             	lea    -0x40(%ebp),%eax
    3327:	89 45 94             	mov    %eax,-0x6c(%ebp)
    332a:	8d 43 0c             	lea    0xc(%ebx),%eax
    332d:	89 45 8c             	mov    %eax,-0x74(%ebp)
    3330:	8d 45 9c             	lea    -0x64(%ebp),%eax
    3333:	c7 44 24 04 00 00 00 	movl   $0x0,0x4(%esp)
    333a:	00 
    333b:	89 04 24             	mov    %eax,(%esp)
    333e:	e8 0d ac 01 00       	call   1df50 <async_get_call_timeout>
    3343:	89 45 90             	mov    %eax,-0x70(%ebp)
    3346:	8b 45 9c             	mov    -0x64(%ebp),%eax
    3349:	85 c0                	test   %eax,%eax
    334b:	0f 84 97 02 00 00    	je     35e8 <vsl_notifications+0x328>
    3351:	3d 00 04 00 00       	cmp    $0x400,%eax
    3356:	74 20                	je     3378 <vsl_notifications+0xb8>
    3358:	3d 01 04 00 00       	cmp    $0x401,%eax
    335d:	74 71                	je     33d0 <vsl_notifications+0x110>
    335f:	8b 45 90             	mov    -0x70(%ebp),%eax
    3362:	c7 44 24 04 f2 ff ff 	movl   $0xfffffff2,0x4(%esp)
    3369:	ff 
    336a:	89 04 24             	mov    %eax,(%esp)
    336d:	e8 0e c2 01 00       	call   1f580 <async_answer_0>
    3372:	eb bc                	jmp    3330 <vsl_notifications+0x70>
    3374:	8d 74 26 00          	lea    0x0(%esi,%eiz,1),%esi
    3378:	c7 04 24 a8 c5 02 00 	movl   $0x2c5a8,(%esp)
    337f:	8b 75 a4             	mov    -0x5c(%ebp),%esi
    3382:	e8 d9 ff 00 00       	call   13360 <fibril_mutex_lock>
    3387:	8d 45 c0             	lea    -0x40(%ebp),%eax
    338a:	89 74 24 08          	mov    %esi,0x8(%esp)
    338e:	89 44 24 04          	mov    %eax,0x4(%esp)
    3392:	8b 43 34             	mov    0x34(%ebx),%eax
    3395:	89 04 24             	mov    %eax,(%esp)
    3398:	e8 63 71 01 00       	call   1a500 <visualizer_get_mode>
    339d:	85 c0                	test   %eax,%eax
    339f:	0f 84 bb 00 00 00    	je     3460 <vsl_notifications+0x1a0>
    33a5:	c7 04 24 a8 c5 02 00 	movl   $0x2c5a8,(%esp)
    33ac:	e8 cf 00 01 00       	call   13480 <fibril_mutex_unlock>
    33b1:	8b 45 90             	mov    -0x70(%ebp),%eax
    33b4:	c7 44 24 04 f2 ff ff 	movl   $0xfffffff2,0x4(%esp)
    33bb:	ff 
    33bc:	89 04 24             	mov    %eax,(%esp)
    33bf:	e8 bc c1 01 00       	call   1f580 <async_answer_0>
    33c4:	e9 67 ff ff ff       	jmp    3330 <vsl_notifications+0x70>
    33c9:	8d b4 26 00 00 00 00 	lea    0x0(%esi,%eiz,1),%esi
    33d0:	c7 04 24 a8 c5 02 00 	movl   $0x2c5a8,(%esp)
    33d7:	e8 84 ff 00 00       	call   13360 <fibril_mutex_lock>
    33dc:	8b 13                	mov    (%ebx),%edx
    33de:	85 d2                	test   %edx,%edx
    33e0:	74 0e                	je     33f0 <vsl_notifications+0x130>
    33e2:	8b 43 04             	mov    0x4(%ebx),%eax
    33e5:	85 c0                	test   %eax,%eax
    33e7:	74 07                	je     33f0 <vsl_notifications+0x130>
    33e9:	89 10                	mov    %edx,(%eax)
    33eb:	8b 13                	mov    (%ebx),%edx
    33ed:	89 42 04             	mov    %eax,0x4(%edx)
    33f0:	8b 43 34             	mov    0x34(%ebx),%eax
    33f3:	c7 03 00 00 00 00    	movl   $0x0,(%ebx)
    33f9:	c7 43 04 00 00 00 00 	movl   $0x0,0x4(%ebx)
    3400:	89 04 24             	mov    %eax,(%esp)
    3403:	e8 98 6e 01 00       	call   1a2a0 <visualizer_yield>
    3408:	8b 43 40             	mov    0x40(%ebx),%eax
    340b:	89 04 24             	mov    %eax,(%esp)
    340e:	e8 7d 4a 00 00       	call   7e90 <surface_destroy>
    3413:	8b 43 34             	mov    0x34(%ebx),%eax
    3416:	89 04 24             	mov    %eax,(%esp)
    3419:	e8 62 ca 01 00       	call   1fe80 <async_hangup>
    341e:	89 1c 24             	mov    %ebx,(%esp)
    3421:	e8 2a 97 01 00       	call   1cb50 <free>
    3426:	c7 04 24 a8 c5 02 00 	movl   $0x2c5a8,(%esp)
    342d:	81 3d 64 c5 02 00 60 	cmpl   $0x2c560,0x2c564
    3434:	c5 02 00 
    3437:	0f 84 03 01 00 00    	je     3540 <vsl_notifications+0x280>
    343d:	e8 3e 00 01 00       	call   13480 <fibril_mutex_unlock>
    3442:	8b 45 90             	mov    -0x70(%ebp),%eax
    3445:	c7 44 24 04 00 00 00 	movl   $0x0,0x4(%esp)
    344c:	00 
    344d:	89 04 24             	mov    %eax,(%esp)
    3450:	e8 2b c1 01 00       	call   1f580 <async_answer_0>
    3455:	83 c4 7c             	add    $0x7c,%esp
    3458:	5b                   	pop    %ebx
    3459:	5e                   	pop    %esi
    345a:	5f                   	pop    %edi
    345b:	5d                   	pop    %ebp
    345c:	c3                   	ret    
    345d:	8d 76 00             	lea    0x0(%esi),%esi
    3460:	8b 45 d8             	mov    -0x28(%ebp),%eax
    3463:	c7 44 24 0c 01 00 00 	movl   $0x1,0xc(%esp)
    346a:	00 
    346b:	89 44 24 04          	mov    %eax,0x4(%esp)
    346f:	8b 45 d4             	mov    -0x2c(%ebp),%eax
    3472:	c7 44 24 08 00 00 00 	movl   $0x0,0x8(%esp)
    3479:	00 
    347a:	89 04 24             	mov    %eax,(%esp)
    347d:	e8 1e 49 00 00       	call   7da0 <surface_create>
    3482:	85 c0                	test   %eax,%eax
    3484:	0f 84 71 01 00 00    	je     35fb <vsl_notifications+0x33b>
    348a:	89 04 24             	mov    %eax,(%esp)
    348d:	89 45 88             	mov    %eax,-0x78(%ebp)
    3490:	e8 4b 4a 00 00       	call   7ee0 <surface_direct_access>
    3495:	89 44 24 0c          	mov    %eax,0xc(%esp)
    3499:	8b 45 c4             	mov    -0x3c(%ebp),%eax
    349c:	89 44 24 08          	mov    %eax,0x8(%esp)
    34a0:	8b 45 c0             	mov    -0x40(%ebp),%eax
    34a3:	89 44 24 04          	mov    %eax,0x4(%esp)
    34a7:	8b 43 34             	mov    0x34(%ebx),%eax
    34aa:	89 04 24             	mov    %eax,(%esp)
    34ad:	e8 ee 70 01 00       	call   1a5a0 <visualizer_set_mode>
    34b2:	8b 55 88             	mov    -0x78(%ebp),%edx
    34b5:	85 c0                	test   %eax,%eax
    34b7:	74 2f                	je     34e8 <vsl_notifications+0x228>
    34b9:	89 14 24             	mov    %edx,(%esp)
    34bc:	89 45 88             	mov    %eax,-0x78(%ebp)
    34bf:	e8 cc 49 00 00       	call   7e90 <surface_destroy>
    34c4:	c7 04 24 a8 c5 02 00 	movl   $0x2c5a8,(%esp)
    34cb:	e8 b0 ff 00 00       	call   13480 <fibril_mutex_unlock>
    34d0:	8b 45 88             	mov    -0x78(%ebp),%eax
    34d3:	89 44 24 04          	mov    %eax,0x4(%esp)
    34d7:	8b 45 90             	mov    -0x70(%ebp),%eax
    34da:	89 04 24             	mov    %eax,(%esp)
    34dd:	e8 9e c0 01 00       	call   1f580 <async_answer_0>
    34e2:	e9 49 fe ff ff       	jmp    3330 <vsl_notifications+0x70>
    34e7:	90                   	nop
    34e8:	8b 43 40             	mov    0x40(%ebx),%eax
    34eb:	89 55 88             	mov    %edx,-0x78(%ebp)
    34ee:	89 04 24             	mov    %eax,(%esp)
    34f1:	e8 9a 49 00 00       	call   7e90 <surface_destroy>
    34f6:	8b 7d 8c             	mov    -0x74(%ebp),%edi
    34f9:	8b 75 94             	mov    -0x6c(%ebp),%esi
    34fc:	b9 0a 00 00 00       	mov    $0xa,%ecx
    3501:	f3 a5                	rep movsl %ds:(%esi),%es:(%edi)
    3503:	8b 55 88             	mov    -0x78(%ebp),%edx
    3506:	89 53 40             	mov    %edx,0x40(%ebx)
    3509:	c7 04 24 a8 c5 02 00 	movl   $0x2c5a8,(%esp)
    3510:	e8 6b ff 00 00       	call   13480 <fibril_mutex_unlock>
    3515:	8b 45 90             	mov    -0x70(%ebp),%eax
    3518:	c7 44 24 04 00 00 00 	movl   $0x0,0x4(%esp)
    351f:	00 
    3520:	89 04 24             	mov    %eax,(%esp)
    3523:	e8 58 c0 01 00       	call   1f580 <async_answer_0>
    3528:	c7 04 24 ff ff ff ff 	movl   $0xffffffff,(%esp)
    352f:	83 c9 ff             	or     $0xffffffff,%ecx
    3532:	31 d2                	xor    %edx,%edx
    3534:	31 c0                	xor    %eax,%eax
    3536:	e8 a5 e2 ff ff       	call   17e0 <comp_damage>
    353b:	e9 f0 fd ff ff       	jmp    3330 <vsl_notifications+0x70>
    3540:	e8 3b ff 00 00       	call   13480 <fibril_mutex_unlock>
    3545:	a1 bc c9 03 00       	mov    0x3c9bc,%eax
    354a:	89 04 24             	mov    %eax,(%esp)
    354d:	e8 fe a1 00 00       	call   d750 <loc_service_unregister>
    3552:	a1 dc c9 03 00       	mov    0x3c9dc,%eax
    3557:	8b 58 08             	mov    0x8(%eax),%ebx
    355a:	89 04 24             	mov    %eax,(%esp)
    355d:	e8 be 1a 01 00       	call   15020 <input_close>
    3562:	85 db                	test   %ebx,%ebx
    3564:	74 13                	je     3579 <vsl_notifications+0x2b9>
    3566:	8d 43 34             	lea    0x34(%ebx),%eax
    3569:	89 04 24             	mov    %eax,(%esp)
    356c:	e8 0f 40 00 00       	call   7580 <cursor_release>
    3571:	89 1c 24             	mov    %ebx,(%esp)
    3574:	e8 d7 95 01 00       	call   1cb50 <free>
    3579:	c7 04 24 68 c5 02 00 	movl   $0x2c568,(%esp)
    3580:	e8 db fd 00 00       	call   13360 <fibril_mutex_lock>
    3585:	8b 1d 7c c5 02 00    	mov    0x2c57c,%ebx
    358b:	81 fb 78 c5 02 00    	cmp    $0x2c578,%ebx
    3591:	74 43                	je     35d6 <vsl_notifications+0x316>
    3593:	90                   	nop
    3594:	8d 74 26 00          	lea    0x0(%esi,%eiz,1),%esi
    3598:	c7 04 24 24 00 00 00 	movl   $0x24,(%esp)
    359f:	e8 9c 94 01 00       	call   1ca40 <malloc>
    35a4:	85 c0                	test   %eax,%eax
    35a6:	74 23                	je     35cb <vsl_notifications+0x30b>
    35a8:	c7 00 00 00 00 00    	movl   $0x0,(%eax)
    35ae:	c7 40 04 00 00 00 00 	movl   $0x0,0x4(%eax)
    35b5:	c7 40 08 05 04 00 00 	movl   $0x405,0x8(%eax)
    35bc:	89 44 24 04          	mov    %eax,0x4(%esp)
    35c0:	8d 43 10             	lea    0x10(%ebx),%eax
    35c3:	89 04 24             	mov    %eax,(%esp)
    35c6:	e8 85 fc 01 00       	call   23250 <prodcons_produce>
    35cb:	8b 5b 04             	mov    0x4(%ebx),%ebx
    35ce:	81 fb 78 c5 02 00    	cmp    $0x2c578,%ebx
    35d4:	75 c2                	jne    3598 <vsl_notifications+0x2d8>
    35d6:	c7 04 24 68 c5 02 00 	movl   $0x2c568,(%esp)
    35dd:	e9 5b fe ff ff       	jmp    343d <vsl_notifications+0x17d>
    35e2:	8d b6 00 00 00 00    	lea    0x0(%esi),%esi
    35e8:	8b 43 34             	mov    0x34(%ebx),%eax
    35eb:	89 04 24             	mov    %eax,(%esp)
    35ee:	e8 8d c8 01 00       	call   1fe80 <async_hangup>
    35f3:	83 c4 7c             	add    $0x7c,%esp
    35f6:	5b                   	pop    %ebx
    35f7:	5e                   	pop    %esi
    35f8:	5f                   	pop    %edi
    35f9:	5d                   	pop    %ebp
    35fa:	c3                   	ret    
    35fb:	c7 04 24 a8 c5 02 00 	movl   $0x2c5a8,(%esp)
    3602:	e8 79 fe 00 00       	call   13480 <fibril_mutex_unlock>
    3607:	8b 45 90             	mov    -0x70(%ebp),%eax
    360a:	c7 44 24 04 fe ff ff 	movl   $0xfffffffe,0x4(%esp)
    3611:	ff 
    3612:	89 04 24             	mov    %eax,(%esp)
    3615:	e8 66 bf 01 00       	call   1f580 <async_answer_0>
    361a:	e9 11 fd ff ff       	jmp    3330 <vsl_notifications+0x70>
    361f:	90                   	nop

00003620 <comp_mouse_move>:
    3620:	55                   	push   %ebp
    3621:	89 e5                	mov    %esp,%ebp
    3623:	57                   	push   %edi
    3624:	56                   	push   %esi
    3625:	53                   	push   %ebx
    3626:	81 ec ec 00 00 00    	sub    $0xec,%esp
    362c:	8b 45 08             	mov    0x8(%ebp),%eax
    362f:	8b 58 08             	mov    0x8(%eax),%ebx
    3632:	c7 04 24 80 c5 02 00 	movl   $0x2c580,(%esp)
    3639:	e8 22 fd 00 00       	call   13360 <fibril_mutex_lock>
    363e:	8d 85 44 ff ff ff    	lea    -0xbc(%ebp),%eax
    3644:	8b 73 10             	mov    0x10(%ebx),%esi
    3647:	8b 7b 14             	mov    0x14(%ebx),%edi
    364a:	89 44 24 08          	mov    %eax,0x8(%esp)
    364e:	8d 85 40 ff ff ff    	lea    -0xc0(%ebp),%eax
    3654:	89 44 24 04          	mov    %eax,0x4(%esp)
    3658:	31 d2                	xor    %edx,%edx
    365a:	8a 53 0c             	mov    0xc(%ebx),%dl
    365d:	8b 43 38             	mov    0x38(%ebx),%eax
    3660:	8b 04 90             	mov    (%eax,%edx,4),%eax
    3663:	89 04 24             	mov    %eax,(%esp)
    3666:	e8 95 48 00 00       	call   7f00 <surface_get_resolution>
    366b:	8b 53 10             	mov    0x10(%ebx),%edx
    366e:	8b 45 0c             	mov    0xc(%ebp),%eax
    3671:	8b 4b 14             	mov    0x14(%ebx),%ecx
    3674:	01 c2                	add    %eax,%edx
    3676:	89 53 10             	mov    %edx,0x10(%ebx)
    3679:	8b 55 10             	mov    0x10(%ebp),%edx
    367c:	01 d1                	add    %edx,%ecx
    367e:	89 4b 14             	mov    %ecx,0x14(%ebx)
    3681:	c7 04 24 80 c5 02 00 	movl   $0x2c580,(%esp)
    3688:	e8 f3 fd 00 00       	call   13480 <fibril_mutex_unlock>
    368d:	8b 85 44 ff ff ff    	mov    -0xbc(%ebp),%eax
    3693:	89 04 24             	mov    %eax,(%esp)
    3696:	8b 8d 40 ff ff ff    	mov    -0xc0(%ebp),%ecx
    369c:	89 f0                	mov    %esi,%eax
    369e:	89 fa                	mov    %edi,%edx
    36a0:	e8 3b e1 ff ff       	call   17e0 <comp_damage>
    36a5:	8b 8d 44 ff ff ff    	mov    -0xbc(%ebp),%ecx
    36ab:	8b 55 10             	mov    0x10(%ebp),%edx
    36ae:	8b 45 0c             	mov    0xc(%ebp),%eax
    36b1:	01 f0                	add    %esi,%eax
    36b3:	01 fa                	add    %edi,%edx
    36b5:	89 0c 24             	mov    %ecx,(%esp)
    36b8:	8b 8d 40 ff ff ff    	mov    -0xc0(%ebp),%ecx
    36be:	e8 1d e1 ff ff       	call   17e0 <comp_damage>
    36c3:	c7 04 24 68 c5 02 00 	movl   $0x2c568,(%esp)
    36ca:	e8 91 fc 00 00       	call   13360 <fibril_mutex_lock>
    36cf:	c7 04 24 80 c5 02 00 	movl   $0x2c580,(%esp)
    36d6:	e8 85 fc 00 00       	call   13360 <fibril_mutex_lock>
    36db:	8b 35 7c c5 02 00    	mov    0x2c57c,%esi
    36e1:	81 fe 78 c5 02 00    	cmp    $0x2c578,%esi
    36e7:	0f 84 eb 01 00 00    	je     38d8 <comp_mouse_move+0x2b8>
    36ed:	85 f6                	test   %esi,%esi
    36ef:	0f 84 e3 01 00 00    	je     38d8 <comp_mouse_move+0x2b8>
    36f5:	8b 86 a4 00 00 00    	mov    0xa4(%esi),%eax
    36fb:	85 c0                	test   %eax,%eax
    36fd:	0f 84 d5 01 00 00    	je     38d8 <comp_mouse_move+0x2b8>
    3703:	8b 4b 2c             	mov    0x2c(%ebx),%ecx
    3706:	85 c9                	test   %ecx,%ecx
    3708:	0f 84 fa 00 00 00    	je     3808 <comp_mouse_move+0x1e8>
    370e:	8b 55 0c             	mov    0xc(%ebp),%edx
    3711:	8b 4b 24             	mov    0x24(%ebx),%ecx
    3714:	01 d1                	add    %edx,%ecx
    3716:	8b 7b 28             	mov    0x28(%ebx),%edi
    3719:	8b 55 10             	mov    0x10(%ebp),%edx
    371c:	89 4b 24             	mov    %ecx,0x24(%ebx)
    371f:	01 d7                	add    %edx,%edi
    3721:	8b 8b ec 00 00 00    	mov    0xec(%ebx),%ecx
    3727:	8b 55 0c             	mov    0xc(%ebp),%edx
    372a:	89 7b 28             	mov    %edi,0x28(%ebx)
    372d:	01 d1                	add    %edx,%ecx
    372f:	8b bb f0 00 00 00    	mov    0xf0(%ebx),%edi
    3735:	8b 55 10             	mov    0x10(%ebp),%edx
    3738:	89 8b ec 00 00 00    	mov    %ecx,0xec(%ebx)
    373e:	01 d7                	add    %edx,%edi
    3740:	8b 93 e8 00 00 00    	mov    0xe8(%ebx),%edx
    3746:	89 bb f0 00 00 00    	mov    %edi,0xf0(%ebx)
    374c:	85 d2                	test   %edx,%edx
    374e:	0f 84 c4 02 00 00    	je     3a18 <comp_mouse_move+0x3f8>
    3754:	8d 45 90             	lea    -0x70(%ebp),%eax
    3757:	8d 8d 70 ff ff ff    	lea    -0x90(%ebp),%ecx
    375d:	89 44 24 04          	mov    %eax,0x4(%esp)
    3761:	8d 45 80             	lea    -0x80(%ebp),%eax
    3764:	8d 95 60 ff ff ff    	lea    -0xa0(%ebp),%edx
    376a:	89 04 24             	mov    %eax,(%esp)
    376d:	89 d8                	mov    %ebx,%eax
    376f:	e8 0c f5 ff ff       	call   2c80 <comp_ghost_animate>
    3774:	c7 04 24 80 c5 02 00 	movl   $0x2c580,(%esp)
    377b:	e8 00 fd 00 00       	call   13480 <fibril_mutex_unlock>
    3780:	c7 04 24 68 c5 02 00 	movl   $0x2c568,(%esp)
    3787:	e8 f4 fc 00 00       	call   13480 <fibril_mutex_unlock>
    378c:	8b 85 6c ff ff ff    	mov    -0x94(%ebp),%eax
    3792:	89 04 24             	mov    %eax,(%esp)
    3795:	8b 8d 68 ff ff ff    	mov    -0x98(%ebp),%ecx
    379b:	8b 95 64 ff ff ff    	mov    -0x9c(%ebp),%edx
    37a1:	8b 85 60 ff ff ff    	mov    -0xa0(%ebp),%eax
    37a7:	e8 34 e0 ff ff       	call   17e0 <comp_damage>
    37ac:	8b 85 7c ff ff ff    	mov    -0x84(%ebp),%eax
    37b2:	89 04 24             	mov    %eax,(%esp)
    37b5:	8b 8d 78 ff ff ff    	mov    -0x88(%ebp),%ecx
    37bb:	8b 95 74 ff ff ff    	mov    -0x8c(%ebp),%edx
    37c1:	8b 85 70 ff ff ff    	mov    -0x90(%ebp),%eax
    37c7:	e8 14 e0 ff ff       	call   17e0 <comp_damage>
    37cc:	8b 45 8c             	mov    -0x74(%ebp),%eax
    37cf:	89 04 24             	mov    %eax,(%esp)
    37d2:	8b 4d 88             	mov    -0x78(%ebp),%ecx
    37d5:	8b 55 84             	mov    -0x7c(%ebp),%edx
    37d8:	8b 45 80             	mov    -0x80(%ebp),%eax
    37db:	e8 00 e0 ff ff       	call   17e0 <comp_damage>
    37e0:	8b 45 9c             	mov    -0x64(%ebp),%eax
    37e3:	89 04 24             	mov    %eax,(%esp)
    37e6:	8b 4d 98             	mov    -0x68(%ebp),%ecx
    37e9:	8b 45 90             	mov    -0x70(%ebp),%eax
    37ec:	8b 55 94             	mov    -0x6c(%ebp),%edx
    37ef:	e8 ec df ff ff       	call   17e0 <comp_damage>
    37f4:	81 c4 ec 00 00 00    	add    $0xec,%esp
    37fa:	31 c0                	xor    %eax,%eax
    37fc:	5b                   	pop    %ebx
    37fd:	5e                   	pop    %esi
    37fe:	5f                   	pop    %edi
    37ff:	5d                   	pop    %ebp
    3800:	c3                   	ret    
    3801:	8d b4 26 00 00 00 00 	lea    0x0(%esi,%eiz,1),%esi
    3808:	8d 95 4c ff ff ff    	lea    -0xb4(%ebp),%edx
    380e:	89 04 24             	mov    %eax,(%esp)
    3811:	89 54 24 08          	mov    %edx,0x8(%esp)
    3815:	8d 95 48 ff ff ff    	lea    -0xb8(%ebp),%edx
    381b:	89 54 24 04          	mov    %edx,0x4(%esp)
    381f:	83 c6 30             	add    $0x30,%esi
    3822:	e8 d9 46 00 00       	call   7f00 <surface_get_resolution>
    3827:	8b 95 4c ff ff ff    	mov    -0xb4(%ebp),%edx
    382d:	89 95 30 ff ff ff    	mov    %edx,-0xd0(%ebp)
    3833:	8d 7d a0             	lea    -0x60(%ebp),%edi
    3836:	8b 95 48 ff ff ff    	mov    -0xb8(%ebp),%edx
    383c:	b9 12 00 00 00       	mov    $0x12,%ecx
    3841:	8b 43 14             	mov    0x14(%ebx),%eax
    3844:	89 95 20 ff ff ff    	mov    %edx,-0xe0(%ebp)
    384a:	8b 53 10             	mov    0x10(%ebx),%edx
    384d:	f3 a5                	rep movsl %ds:(%esi),%es:(%edi)
    384f:	31 ff                	xor    %edi,%edi
    3851:	89 95 28 ff ff ff    	mov    %edx,-0xd8(%ebp)
    3857:	89 bd 2c ff ff ff    	mov    %edi,-0xd4(%ebp)
    385d:	31 d2                	xor    %edx,%edx
    385f:	df ad 28 ff ff ff    	fildll -0xd8(%ebp)
    3865:	89 85 28 ff ff ff    	mov    %eax,-0xd8(%ebp)
    386b:	89 95 2c ff ff ff    	mov    %edx,-0xd4(%ebp)
    3871:	dd 9d 50 ff ff ff    	fstpl  -0xb0(%ebp)
    3877:	8d 75 a0             	lea    -0x60(%ebp),%esi
    387a:	df ad 28 ff ff ff    	fildll -0xd8(%ebp)
    3880:	89 34 24             	mov    %esi,(%esp)
    3883:	dd 9d 58 ff ff ff    	fstpl  -0xa8(%ebp)
    3889:	e8 e2 65 00 00       	call   9e70 <transform_invert>
    388e:	8d 85 58 ff ff ff    	lea    -0xa8(%ebp),%eax
    3894:	89 44 24 08          	mov    %eax,0x8(%esp)
    3898:	8d 85 50 ff ff ff    	lea    -0xb0(%ebp),%eax
    389e:	89 44 24 04          	mov    %eax,0x4(%esp)
    38a2:	89 34 24             	mov    %esi,(%esp)
    38a5:	e8 a6 6c 00 00       	call   a550 <transform_apply_affine>
    38aa:	dd 85 50 ff ff ff    	fldl   -0xb0(%ebp)
    38b0:	d9 ee                	fldz   
    38b2:	dd e1                	fucom  %st(1)
    38b4:	df e0                	fnstsw %ax
    38b6:	f6 c4 45             	test   $0x45,%ah
    38b9:	75 45                	jne    3900 <comp_mouse_move+0x2e0>
    38bb:	dd d8                	fstp   %st(0)
    38bd:	dd d8                	fstp   %st(0)
    38bf:	eb 17                	jmp    38d8 <comp_mouse_move+0x2b8>
    38c1:	8d b4 26 00 00 00 00 	lea    0x0(%esi,%eiz,1),%esi
    38c8:	dd d8                	fstp   %st(0)
    38ca:	dd d8                	fstp   %st(0)
    38cc:	eb 0a                	jmp    38d8 <comp_mouse_move+0x2b8>
    38ce:	66 90                	xchg   %ax,%ax
    38d0:	dd d8                	fstp   %st(0)
    38d2:	dd d8                	fstp   %st(0)
    38d4:	8d 74 26 00          	lea    0x0(%esi,%eiz,1),%esi
    38d8:	c7 04 24 80 c5 02 00 	movl   $0x2c580,(%esp)
    38df:	e8 9c fb 00 00       	call   13480 <fibril_mutex_unlock>
    38e4:	c7 04 24 68 c5 02 00 	movl   $0x2c568,(%esp)
    38eb:	e8 90 fb 00 00       	call   13480 <fibril_mutex_unlock>
    38f0:	81 c4 ec 00 00 00    	add    $0xec,%esp
    38f6:	31 c0                	xor    %eax,%eax
    38f8:	5b                   	pop    %ebx
    38f9:	5e                   	pop    %esi
    38fa:	5f                   	pop    %edi
    38fb:	5d                   	pop    %ebp
    38fc:	c3                   	ret    
    38fd:	8d 76 00             	lea    0x0(%esi),%esi
    3900:	dd 85 58 ff ff ff    	fldl   -0xa8(%ebp)
    3906:	d9 c9                	fxch   %st(1)
    3908:	dd e9                	fucomp %st(1)
    390a:	df e0                	fnstsw %ax
    390c:	f6 c4 45             	test   $0x45,%ah
    390f:	74 b7                	je     38c8 <comp_mouse_move+0x2a8>
    3911:	d9 05 f8 98 02 00    	flds   0x298f8
    3917:	d9 bd 36 ff ff ff    	fnstcw -0xca(%ebp)
    391d:	dc c2                	fadd   %st,%st(2)
    391f:	d9 ca                	fxch   %st(2)
    3921:	66 8b 85 36 ff ff ff 	mov    -0xca(%ebp),%ax
    3928:	b4 0c                	mov    $0xc,%ah
    392a:	66 89 85 34 ff ff ff 	mov    %ax,-0xcc(%ebp)
    3931:	d9 ad 34 ff ff ff    	fldcw  -0xcc(%ebp)
    3937:	df bd 28 ff ff ff    	fistpll -0xd8(%ebp)
    393d:	d9 ad 36 ff ff ff    	fldcw  -0xca(%ebp)
    3943:	8b b5 28 ff ff ff    	mov    -0xd8(%ebp),%esi
    3949:	39 b5 20 ff ff ff    	cmp    %esi,-0xe0(%ebp)
    394f:	0f 86 7b ff ff ff    	jbe    38d0 <comp_mouse_move+0x2b0>
    3955:	de c1                	faddp  %st,%st(1)
    3957:	d9 ad 34 ff ff ff    	fldcw  -0xcc(%ebp)
    395d:	df bd 20 ff ff ff    	fistpll -0xe0(%ebp)
    3963:	d9 ad 36 ff ff ff    	fldcw  -0xca(%ebp)
    3969:	8b 85 20 ff ff ff    	mov    -0xe0(%ebp),%eax
    396f:	39 85 30 ff ff ff    	cmp    %eax,-0xd0(%ebp)
    3975:	0f 86 5d ff ff ff    	jbe    38d8 <comp_mouse_move+0x2b8>
    397b:	c7 04 24 24 00 00 00 	movl   $0x24,(%esp)
    3982:	e8 b9 90 01 00       	call   1ca40 <malloc>
    3987:	85 c0                	test   %eax,%eax
    3989:	0f 84 49 ff ff ff    	je     38d8 <comp_mouse_move+0x2b8>
    398f:	8b 53 08             	mov    0x8(%ebx),%edx
    3992:	c7 40 10 00 00 00 00 	movl   $0x0,0x10(%eax)
    3999:	89 50 0c             	mov    %edx,0xc(%eax)
    399c:	c7 00 00 00 00 00    	movl   $0x0,(%eax)
    39a2:	8b 53 18             	mov    0x18(%ebx),%edx
    39a5:	c7 40 04 00 00 00 00 	movl   $0x0,0x4(%eax)
    39ac:	89 50 14             	mov    %edx,0x14(%eax)
    39af:	8b 95 20 ff ff ff    	mov    -0xe0(%ebp),%edx
    39b5:	89 50 1c             	mov    %edx,0x1c(%eax)
    39b8:	c7 40 08 01 00 00 00 	movl   $0x1,0x8(%eax)
    39bf:	89 70 18             	mov    %esi,0x18(%eax)
    39c2:	c7 04 24 80 c5 02 00 	movl   $0x2c580,(%esp)
    39c9:	89 85 1c ff ff ff    	mov    %eax,-0xe4(%ebp)
    39cf:	e8 ac fa 00 00       	call   13480 <fibril_mutex_unlock>
    39d4:	c7 04 24 68 c5 02 00 	movl   $0x2c568,(%esp)
    39db:	e8 a0 fa 00 00       	call   13480 <fibril_mutex_unlock>
    39e0:	c7 04 24 68 c5 02 00 	movl   $0x2c568,(%esp)
    39e7:	e8 74 f9 00 00       	call   13360 <fibril_mutex_lock>
    39ec:	8b 15 7c c5 02 00    	mov    0x2c57c,%edx
    39f2:	81 fa 78 c5 02 00    	cmp    $0x2c578,%edx
    39f8:	8b 85 1c ff ff ff    	mov    -0xe4(%ebp),%eax
    39fe:	74 70                	je     3a70 <comp_mouse_move+0x450>
    3a00:	85 d2                	test   %edx,%edx
    3a02:	74 6c                	je     3a70 <comp_mouse_move+0x450>
    3a04:	83 c2 10             	add    $0x10,%edx
    3a07:	89 44 24 04          	mov    %eax,0x4(%esp)
    3a0b:	89 14 24             	mov    %edx,(%esp)
    3a0e:	e8 3d f8 01 00       	call   23250 <prodcons_produce>
    3a13:	e9 cc fe ff ff       	jmp    38e4 <comp_mouse_move+0x2c4>
    3a18:	dd 46 78             	fldl   0x78(%esi)
    3a1b:	8d 7b 74             	lea    0x74(%ebx),%edi
    3a1e:	b9 12 00 00 00       	mov    $0x12,%ecx
    3a23:	dd 9b bc 00 00 00    	fstpl  0xbc(%ebx)
    3a29:	dd 86 80 00 00 00    	fldl   0x80(%esi)
    3a2f:	89 83 e8 00 00 00    	mov    %eax,0xe8(%ebx)
    3a35:	dd 9b c4 00 00 00    	fstpl  0xc4(%ebx)
    3a3b:	dd 86 88 00 00 00    	fldl   0x88(%esi)
    3a41:	dd 9b cc 00 00 00    	fstpl  0xcc(%ebx)
    3a47:	dd 86 90 00 00 00    	fldl   0x90(%esi)
    3a4d:	dd 9b d4 00 00 00    	fstpl  0xd4(%ebx)
    3a53:	dd 86 98 00 00 00    	fldl   0x98(%esi)
    3a59:	83 c6 30             	add    $0x30,%esi
    3a5c:	dd 9b dc 00 00 00    	fstpl  0xdc(%ebx)
    3a62:	f3 a5                	rep movsl %ds:(%esi),%es:(%edi)
    3a64:	e9 eb fc ff ff       	jmp    3754 <comp_mouse_move+0x134>
    3a69:	8d b4 26 00 00 00 00 	lea    0x0(%esi,%eiz,1),%esi
    3a70:	89 04 24             	mov    %eax,(%esp)
    3a73:	e8 d8 90 01 00       	call   1cb50 <free>
    3a78:	e9 67 fe ff ff       	jmp    38e4 <comp_mouse_move+0x2c4>
    3a7d:	8d 76 00             	lea    0x0(%esi),%esi

00003a80 <comp_abs_move>:
    3a80:	55                   	push   %ebp
    3a81:	89 e5                	mov    %esp,%ebp
    3a83:	57                   	push   %edi
    3a84:	56                   	push   %esi
    3a85:	53                   	push   %ebx
    3a86:	83 ec 3c             	sub    $0x3c,%esp
    3a89:	8b 45 08             	mov    0x8(%ebp),%eax
    3a8c:	8b 58 08             	mov    0x8(%eax),%ebx
    3a8f:	c7 04 24 a8 c5 02 00 	movl   $0x2c5a8,(%esp)
    3a96:	e8 c5 f8 00 00       	call   13360 <fibril_mutex_lock>
    3a9b:	8b 35 64 c5 02 00    	mov    0x2c564,%esi
    3aa1:	81 fe 60 c5 02 00    	cmp    $0x2c560,%esi
    3aa7:	0f 84 9b 00 00 00    	je     3b48 <comp_abs_move+0xc8>
    3aad:	8d 45 e4             	lea    -0x1c(%ebp),%eax
    3ab0:	89 44 24 08          	mov    %eax,0x8(%esp)
    3ab4:	8d 45 e0             	lea    -0x20(%ebp),%eax
    3ab7:	89 44 24 04          	mov    %eax,0x4(%esp)
    3abb:	8b 46 40             	mov    0x40(%esi),%eax
    3abe:	89 04 24             	mov    %eax,(%esp)
    3ac1:	e8 3a 44 00 00       	call   7f00 <surface_get_resolution>
    3ac6:	8b 7e 38             	mov    0x38(%esi),%edi
    3ac9:	8b 76 3c             	mov    0x3c(%esi),%esi
    3acc:	c7 04 24 a8 c5 02 00 	movl   $0x2c5a8,(%esp)
    3ad3:	e8 a8 f9 00 00       	call   13480 <fibril_mutex_unlock>
    3ad8:	8b 55 e0             	mov    -0x20(%ebp),%edx
    3adb:	8b 45 0c             	mov    0xc(%ebp),%eax
    3ade:	8b 4d e4             	mov    -0x1c(%ebp),%ecx
    3ae1:	0f af c2             	imul   %edx,%eax
    3ae4:	31 d2                	xor    %edx,%edx
    3ae6:	c7 04 24 80 c5 02 00 	movl   $0x2c580,(%esp)
    3aed:	f7 75 14             	divl   0x14(%ebp)
    3af0:	89 45 d4             	mov    %eax,-0x2c(%ebp)
    3af3:	8b 45 10             	mov    0x10(%ebp),%eax
    3af6:	0f af c1             	imul   %ecx,%eax
    3af9:	31 d2                	xor    %edx,%edx
    3afb:	f7 75 18             	divl   0x18(%ebp)
    3afe:	89 45 d0             	mov    %eax,-0x30(%ebp)
    3b01:	e8 5a f8 00 00       	call   13360 <fibril_mutex_lock>
    3b06:	8b 45 d4             	mov    -0x2c(%ebp),%eax
    3b09:	01 c7                	add    %eax,%edi
    3b0b:	8b 43 10             	mov    0x10(%ebx),%eax
    3b0e:	29 c7                	sub    %eax,%edi
    3b10:	8b 45 d0             	mov    -0x30(%ebp),%eax
    3b13:	01 c6                	add    %eax,%esi
    3b15:	8b 43 14             	mov    0x14(%ebx),%eax
    3b18:	c7 04 24 80 c5 02 00 	movl   $0x2c580,(%esp)
    3b1f:	29 c6                	sub    %eax,%esi
    3b21:	e8 5a f9 00 00       	call   13480 <fibril_mutex_unlock>
    3b26:	8b 45 08             	mov    0x8(%ebp),%eax
    3b29:	89 74 24 08          	mov    %esi,0x8(%esp)
    3b2d:	89 7c 24 04          	mov    %edi,0x4(%esp)
    3b31:	89 04 24             	mov    %eax,(%esp)
    3b34:	e8 e7 fa ff ff       	call   3620 <comp_mouse_move>
    3b39:	83 c4 3c             	add    $0x3c,%esp
    3b3c:	5b                   	pop    %ebx
    3b3d:	5e                   	pop    %esi
    3b3e:	5f                   	pop    %edi
    3b3f:	5d                   	pop    %ebp
    3b40:	c3                   	ret    
    3b41:	8d b4 26 00 00 00 00 	lea    0x0(%esi,%eiz,1),%esi
    3b48:	c7 04 24 38 96 02 00 	movl   $0x29638,(%esp)
    3b4f:	e8 bc 3a 01 00       	call   17610 <printf>
    3b54:	c7 04 24 a8 c5 02 00 	movl   $0x2c5a8,(%esp)
    3b5b:	e8 20 f9 00 00       	call   13480 <fibril_mutex_unlock>
    3b60:	31 c0                	xor    %eax,%eax
    3b62:	eb d5                	jmp    3b39 <comp_abs_move+0xb9>
    3b64:	8d b6 00 00 00 00    	lea    0x0(%esi),%esi
    3b6a:	8d bf 00 00 00 00    	lea    0x0(%edi),%edi

00003b70 <client_connection>:
    3b70:	55                   	push   %ebp
    3b71:	89 e5                	mov    %esp,%ebp
    3b73:	57                   	push   %edi
    3b74:	56                   	push   %esi
    3b75:	53                   	push   %ebx
    3b76:	81 ec 4c 04 00 00    	sub    $0x44c,%esp
    3b7c:	8b 45 0c             	mov    0xc(%ebp),%eax
    3b7f:	8b 7d 08             	mov    0x8(%ebp),%edi
    3b82:	8b 70 04             	mov    0x4(%eax),%esi
    3b85:	3b 35 bc c9 03 00    	cmp    0x3c9bc,%esi
    3b8b:	74 73                	je     3c00 <client_connection+0x90>
    3b8d:	c7 04 24 68 c5 02 00 	movl   $0x2c568,(%esp)
    3b94:	e8 c7 f7 00 00       	call   13360 <fibril_mutex_lock>
    3b99:	8b 1d 7c c5 02 00    	mov    0x2c57c,%ebx
    3b9f:	81 fb 78 c5 02 00    	cmp    $0x2c578,%ebx
    3ba5:	75 1d                	jne    3bc4 <client_connection+0x54>
    3ba7:	e9 ac 00 00 00       	jmp    3c58 <client_connection+0xe8>
    3bac:	8d 74 26 00          	lea    0x0(%esi,%eiz,1),%esi
    3bb0:	39 73 0c             	cmp    %esi,0xc(%ebx)
    3bb3:	74 14                	je     3bc9 <client_connection+0x59>
    3bb5:	8b 5b 04             	mov    0x4(%ebx),%ebx
    3bb8:	81 fb 78 c5 02 00    	cmp    $0x2c578,%ebx
    3bbe:	0f 84 94 00 00 00    	je     3c58 <client_connection+0xe8>
    3bc4:	39 73 08             	cmp    %esi,0x8(%ebx)
    3bc7:	75 e7                	jne    3bb0 <client_connection+0x40>
    3bc9:	c7 04 24 68 c5 02 00 	movl   $0x2c568,(%esp)
    3bd0:	e8 ab f8 00 00       	call   13480 <fibril_mutex_unlock>
    3bd5:	c7 44 24 04 00 00 00 	movl   $0x0,0x4(%esp)
    3bdc:	00 
    3bdd:	89 3c 24             	mov    %edi,(%esp)
    3be0:	e8 9b b9 01 00       	call   1f580 <async_answer_0>
    3be5:	39 73 08             	cmp    %esi,0x8(%ebx)
    3be8:	0f 84 ca 0a 00 00    	je     46b8 <client_connection+0xb48>
    3bee:	39 73 0c             	cmp    %esi,0xc(%ebx)
    3bf1:	74 75                	je     3c68 <client_connection+0xf8>
    3bf3:	81 c4 4c 04 00 00    	add    $0x44c,%esp
    3bf9:	5b                   	pop    %ebx
    3bfa:	5e                   	pop    %esi
    3bfb:	5f                   	pop    %edi
    3bfc:	5d                   	pop    %ebp
    3bfd:	c3                   	ret    
    3bfe:	66 90                	xchg   %ax,%ax
    3c00:	89 3c 24             	mov    %edi,(%esp)
    3c03:	c7 44 24 04 00 00 00 	movl   $0x0,0x4(%esp)
    3c0a:	00 
    3c0b:	e8 70 b9 01 00       	call   1f580 <async_answer_0>
    3c10:	8d 85 ec fc ff ff    	lea    -0x314(%ebp),%eax
    3c16:	c7 44 24 04 00 00 00 	movl   $0x0,0x4(%esp)
    3c1d:	00 
    3c1e:	89 04 24             	mov    %eax,(%esp)
    3c21:	e8 2a a3 01 00       	call   1df50 <async_get_call_timeout>
    3c26:	81 bd ec fc ff ff 00 	cmpl   $0x400,-0x314(%ebp)
    3c2d:	04 00 00 
    3c30:	89 c7                	mov    %eax,%edi
    3c32:	0f 84 58 0c 00 00    	je     4890 <client_connection+0xd20>
    3c38:	89 3c 24             	mov    %edi,(%esp)
    3c3b:	c7 44 24 04 f2 ff ff 	movl   $0xfffffff2,0x4(%esp)
    3c42:	ff 
    3c43:	e8 38 b9 01 00       	call   1f580 <async_answer_0>
    3c48:	81 c4 4c 04 00 00    	add    $0x44c,%esp
    3c4e:	5b                   	pop    %ebx
    3c4f:	5e                   	pop    %esi
    3c50:	5f                   	pop    %edi
    3c51:	5d                   	pop    %ebp
    3c52:	c3                   	ret    
    3c53:	90                   	nop
    3c54:	8d 74 26 00          	lea    0x0(%esi,%eiz,1),%esi
    3c58:	c7 04 24 68 c5 02 00 	movl   $0x2c568,(%esp)
    3c5f:	e8 1c f8 00 00       	call   13480 <fibril_mutex_unlock>
    3c64:	eb d2                	jmp    3c38 <client_connection+0xc8>
    3c66:	66 90                	xchg   %ax,%ax
    3c68:	8d 85 ec fc ff ff    	lea    -0x314(%ebp),%eax
    3c6e:	8d 4b 10             	lea    0x10(%ebx),%ecx
    3c71:	89 85 90 fc ff ff    	mov    %eax,-0x370(%ebp)
    3c77:	8d 43 28             	lea    0x28(%ebx),%eax
    3c7a:	89 8d 84 fc ff ff    	mov    %ecx,-0x37c(%ebp)
    3c80:	89 85 8c fc ff ff    	mov    %eax,-0x374(%ebp)
    3c86:	66 90                	xchg   %ax,%ax
    3c88:	8b 8d 90 fc ff ff    	mov    -0x370(%ebp),%ecx
    3c8e:	c7 44 24 04 00 00 00 	movl   $0x0,0x4(%esp)
    3c95:	00 
    3c96:	89 0c 24             	mov    %ecx,(%esp)
    3c99:	e8 b2 a2 01 00       	call   1df50 <async_get_call_timeout>
    3c9e:	89 85 94 fc ff ff    	mov    %eax,-0x36c(%ebp)
    3ca4:	8b 85 ec fc ff ff    	mov    -0x314(%ebp),%eax
    3caa:	85 c0                	test   %eax,%eax
    3cac:	0f 84 de 09 00 00    	je     4690 <client_connection+0xb20>
    3cb2:	2d 02 04 00 00       	sub    $0x402,%eax
    3cb7:	83 f8 04             	cmp    $0x4,%eax
    3cba:	76 1c                	jbe    3cd8 <client_connection+0x168>
    3cbc:	8b 85 94 fc ff ff    	mov    -0x36c(%ebp),%eax
    3cc2:	c7 44 24 04 f2 ff ff 	movl   $0xfffffff2,0x4(%esp)
    3cc9:	ff 
    3cca:	89 04 24             	mov    %eax,(%esp)
    3ccd:	e8 ae b8 01 00       	call   1f580 <async_answer_0>
    3cd2:	eb b4                	jmp    3c88 <client_connection+0x118>
    3cd4:	8d 74 26 00          	lea    0x0(%esi,%eiz,1),%esi
    3cd8:	ff 24 85 9c 98 02 00 	jmp    *0x2989c(,%eax,4)
    3cdf:	90                   	nop
    3ce0:	c7 04 24 68 c5 02 00 	movl   $0x2c568,(%esp)
    3ce7:	e8 74 f6 00 00       	call   13360 <fibril_mutex_lock>
    3cec:	8b 13                	mov    (%ebx),%edx
    3cee:	85 d2                	test   %edx,%edx
    3cf0:	74 0e                	je     3d00 <client_connection+0x190>
    3cf2:	8b 43 04             	mov    0x4(%ebx),%eax
    3cf5:	85 c0                	test   %eax,%eax
    3cf7:	74 07                	je     3d00 <client_connection+0x190>
    3cf9:	89 10                	mov    %edx,(%eax)
    3cfb:	8b 13                	mov    (%ebx),%edx
    3cfd:	89 42 04             	mov    %eax,0x4(%edx)
    3d00:	c7 43 04 00 00 00 00 	movl   $0x0,0x4(%ebx)
    3d07:	c7 03 00 00 00 00    	movl   $0x0,(%ebx)
    3d0d:	8b 3d 7c c5 02 00    	mov    0x2c57c,%edi
    3d13:	c7 04 24 24 00 00 00 	movl   $0x24,(%esp)
    3d1a:	81 ff 78 c5 02 00    	cmp    $0x2c578,%edi
    3d20:	0f 95 c0             	setne  %al
    3d23:	25 ff 00 00 00       	and    $0xff,%eax
    3d28:	f7 d8                	neg    %eax
    3d2a:	21 c7                	and    %eax,%edi
    3d2c:	e8 0f 8d 01 00       	call   1ca40 <malloc>
    3d31:	85 c0                	test   %eax,%eax
    3d33:	0f 84 97 0a 00 00    	je     47d0 <client_connection+0xc60>
    3d39:	c7 00 00 00 00 00    	movl   $0x0,(%eax)
    3d3f:	c7 40 04 00 00 00 00 	movl   $0x0,0x4(%eax)
    3d46:	c7 40 08 03 00 00 00 	movl   $0x3,0x8(%eax)
    3d4d:	c7 04 24 68 c5 02 00 	movl   $0x2c568,(%esp)
    3d54:	89 85 5c fc ff ff    	mov    %eax,-0x3a4(%ebp)
    3d5a:	e8 21 f7 00 00       	call   13480 <fibril_mutex_unlock>
    3d5f:	85 ff                	test   %edi,%edi
    3d61:	0f 85 e9 0a 00 00    	jne    4850 <client_connection+0xce0>
    3d67:	8b 83 a4 00 00 00    	mov    0xa4(%ebx),%eax
    3d6d:	c7 85 c8 fc ff ff 00 	movl   $0x0,-0x338(%ebp)
    3d74:	00 00 00 
    3d77:	c7 85 cc fc ff ff 00 	movl   $0x0,-0x334(%ebp)
    3d7e:	00 00 00 
    3d81:	c7 85 d0 fc ff ff 00 	movl   $0x0,-0x330(%ebp)
    3d88:	00 00 00 
    3d8b:	c7 85 d4 fc ff ff 00 	movl   $0x0,-0x32c(%ebp)
    3d92:	00 00 00 
    3d95:	85 c0                	test   %eax,%eax
    3d97:	0f 84 86 00 00 00    	je     3e23 <client_connection+0x2b3>
    3d9d:	8d bd d4 fc ff ff    	lea    -0x32c(%ebp),%edi
    3da3:	8d b5 d0 fc ff ff    	lea    -0x330(%ebp),%esi
    3da9:	89 7c 24 08          	mov    %edi,0x8(%esp)
    3dad:	89 74 24 04          	mov    %esi,0x4(%esp)
    3db1:	89 04 24             	mov    %eax,(%esp)
    3db4:	e8 47 41 00 00       	call   7f00 <surface_get_resolution>
    3db9:	8d 85 cc fc ff ff    	lea    -0x334(%ebp),%eax
    3dbf:	89 44 24 5c          	mov    %eax,0x5c(%esp)
    3dc3:	8d 85 c8 fc ff ff    	lea    -0x338(%ebp),%eax
    3dc9:	89 7c 24 64          	mov    %edi,0x64(%esp)
    3dcd:	89 74 24 60          	mov    %esi,0x60(%esp)
    3dd1:	89 44 24 58          	mov    %eax,0x58(%esp)
    3dd5:	8d 7c 24 10          	lea    0x10(%esp),%edi
    3dd9:	8d 73 30             	lea    0x30(%ebx),%esi
    3ddc:	b9 12 00 00 00       	mov    $0x12,%ecx
    3de1:	f3 a5                	rep movsl %ds:(%esi),%es:(%edi)
    3de3:	31 d2                	xor    %edx,%edx
    3de5:	8b 85 d4 fc ff ff    	mov    -0x32c(%ebp),%eax
    3deb:	89 85 a0 fc ff ff    	mov    %eax,-0x360(%ebp)
    3df1:	89 95 a4 fc ff ff    	mov    %edx,-0x35c(%ebp)
    3df7:	df ad a0 fc ff ff    	fildll -0x360(%ebp)
    3dfd:	8b 85 d0 fc ff ff    	mov    -0x330(%ebp),%eax
    3e03:	31 d2                	xor    %edx,%edx
    3e05:	dd 5c 24 08          	fstpl  0x8(%esp)
    3e09:	89 85 a0 fc ff ff    	mov    %eax,-0x360(%ebp)
    3e0f:	89 95 a4 fc ff ff    	mov    %edx,-0x35c(%ebp)
    3e15:	df ad a0 fc ff ff    	fildll -0x360(%ebp)
    3e1b:	dd 1c 24             	fstpl  (%esp)
    3e1e:	e8 8d d4 ff ff       	call   12b0 <comp_coord_bounding_rect.constprop.8>
    3e23:	8b 43 08             	mov    0x8(%ebx),%eax
    3e26:	89 04 24             	mov    %eax,(%esp)
    3e29:	e8 22 99 00 00       	call   d750 <loc_service_unregister>
    3e2e:	8b 43 0c             	mov    0xc(%ebx),%eax
    3e31:	89 04 24             	mov    %eax,(%esp)
    3e34:	e8 17 99 00 00       	call   d750 <loc_service_unregister>
    3e39:	8b 43 2c             	mov    0x2c(%ebx),%eax
    3e3c:	8b b5 8c fc ff ff    	mov    -0x374(%ebp),%esi
    3e42:	3b 85 8c fc ff ff    	cmp    -0x374(%ebp),%eax
    3e48:	74 2e                	je     3e78 <client_connection+0x308>
    3e4a:	8d b6 00 00 00 00    	lea    0x0(%esi),%esi
    3e50:	8b 08                	mov    (%eax),%ecx
    3e52:	85 c9                	test   %ecx,%ecx
    3e54:	74 0e                	je     3e64 <client_connection+0x2f4>
    3e56:	8b 50 04             	mov    0x4(%eax),%edx
    3e59:	85 d2                	test   %edx,%edx
    3e5b:	74 07                	je     3e64 <client_connection+0x2f4>
    3e5d:	89 0a                	mov    %ecx,(%edx)
    3e5f:	8b 08                	mov    (%eax),%ecx
    3e61:	89 51 04             	mov    %edx,0x4(%ecx)
    3e64:	c7 40 04 00 00 00 00 	movl   $0x0,0x4(%eax)
    3e6b:	c7 00 00 00 00 00    	movl   $0x0,(%eax)
    3e71:	8b 43 2c             	mov    0x2c(%ebx),%eax
    3e74:	39 f0                	cmp    %esi,%eax
    3e76:	75 d8                	jne    3e50 <client_connection+0x2e0>
    3e78:	8b 83 a4 00 00 00    	mov    0xa4(%ebx),%eax
    3e7e:	85 c0                	test   %eax,%eax
    3e80:	74 08                	je     3e8a <client_connection+0x31a>
    3e82:	89 04 24             	mov    %eax,(%esp)
    3e85:	e8 06 40 00 00       	call   7e90 <surface_destroy>
    3e8a:	89 1c 24             	mov    %ebx,(%esp)
    3e8d:	e8 be 8c 01 00       	call   1cb50 <free>
    3e92:	8b 85 d4 fc ff ff    	mov    -0x32c(%ebp),%eax
    3e98:	8b 8d d0 fc ff ff    	mov    -0x330(%ebp),%ecx
    3e9e:	89 04 24             	mov    %eax,(%esp)
    3ea1:	8b 95 cc fc ff ff    	mov    -0x334(%ebp),%edx
    3ea7:	8b 85 c8 fc ff ff    	mov    -0x338(%ebp),%eax
    3ead:	e8 2e d9 ff ff       	call   17e0 <comp_damage>
    3eb2:	8b 85 94 fc ff ff    	mov    -0x36c(%ebp),%eax
    3eb8:	c7 44 24 04 00 00 00 	movl   $0x0,0x4(%esp)
    3ebf:	00 
    3ec0:	89 04 24             	mov    %eax,(%esp)
    3ec3:	e8 b8 b6 01 00       	call   1f580 <async_answer_0>
    3ec8:	e9 bb fd ff ff       	jmp    3c88 <client_connection+0x118>
    3ecd:	8d 76 00             	lea    0x0(%esi),%esi
    3ed0:	8d 85 b0 fc ff ff    	lea    -0x350(%ebp),%eax
    3ed6:	89 44 24 08          	mov    %eax,0x8(%esp)
    3eda:	8d 85 ac fc ff ff    	lea    -0x354(%ebp),%eax
    3ee0:	89 44 24 04          	mov    %eax,0x4(%esp)
    3ee4:	8d 85 a8 fc ff ff    	lea    -0x358(%ebp),%eax
    3eea:	89 04 24             	mov    %eax,(%esp)
    3eed:	e8 9e c8 01 00       	call   20790 <async_share_out_receive>
    3ef2:	84 c0                	test   %al,%al
    3ef4:	0f 84 c2 fd ff ff    	je     3cbc <client_connection+0x14c>
    3efa:	8d 85 b4 fc ff ff    	lea    -0x34c(%ebp),%eax
    3f00:	89 44 24 04          	mov    %eax,0x4(%esp)
    3f04:	8b 85 a8 fc ff ff    	mov    -0x358(%ebp),%eax
    3f0a:	89 04 24             	mov    %eax,(%esp)
    3f0d:	e8 1e c9 01 00       	call   20830 <async_share_out_finalize>
    3f12:	85 c0                	test   %eax,%eax
    3f14:	0f 85 16 09 00 00    	jne    4830 <client_connection+0xcc0>
    3f1a:	8b 85 b4 fc ff ff    	mov    -0x34c(%ebp),%eax
    3f20:	83 f8 ff             	cmp    $0xffffffff,%eax
    3f23:	0f 84 07 09 00 00    	je     4830 <client_connection+0xcc0>
    3f29:	89 44 24 08          	mov    %eax,0x8(%esp)
    3f2d:	8b 85 f4 fc ff ff    	mov    -0x30c(%ebp),%eax
    3f33:	89 44 24 04          	mov    %eax,0x4(%esp)
    3f37:	8b 85 f0 fc ff ff    	mov    -0x310(%ebp),%eax
    3f3d:	c7 44 24 0c 01 00 00 	movl   $0x1,0xc(%esp)
    3f44:	00 
    3f45:	89 04 24             	mov    %eax,(%esp)
    3f48:	e8 53 3e 00 00       	call   7da0 <surface_create>
    3f4d:	89 c6                	mov    %eax,%esi
    3f4f:	85 c0                	test   %eax,%eax
    3f51:	0f 84 1f 0d 00 00    	je     4c76 <client_connection+0x1106>
    3f57:	c7 04 24 68 c5 02 00 	movl   $0x2c568,(%esp)
    3f5e:	e8 fd f3 00 00       	call   13360 <fibril_mutex_lock>
    3f63:	8b 83 a4 00 00 00    	mov    0xa4(%ebx),%eax
    3f69:	c7 85 b8 fc ff ff 00 	movl   $0x0,-0x348(%ebp)
    3f70:	00 00 00 
    3f73:	c7 85 bc fc ff ff 00 	movl   $0x0,-0x344(%ebp)
    3f7a:	00 00 00 
    3f7d:	85 c0                	test   %eax,%eax
    3f7f:	74 2a                	je     3fab <client_connection+0x43b>
    3f81:	8d 95 bc fc ff ff    	lea    -0x344(%ebp),%edx
    3f87:	89 04 24             	mov    %eax,(%esp)
    3f8a:	89 54 24 08          	mov    %edx,0x8(%esp)
    3f8e:	8d 95 b8 fc ff ff    	lea    -0x348(%ebp),%edx
    3f94:	89 54 24 04          	mov    %edx,0x4(%esp)
    3f98:	e8 63 3f 00 00       	call   7f00 <surface_get_resolution>
    3f9d:	8b 83 a4 00 00 00    	mov    0xa4(%ebx),%eax
    3fa3:	89 04 24             	mov    %eax,(%esp)
    3fa6:	e8 e5 3e 00 00       	call   7e90 <surface_destroy>
    3fab:	8d 85 c4 fc ff ff    	lea    -0x33c(%ebp),%eax
    3fb1:	89 b3 a4 00 00 00    	mov    %esi,0xa4(%ebx)
    3fb7:	89 44 24 08          	mov    %eax,0x8(%esp)
    3fbb:	8d 85 c0 fc ff ff    	lea    -0x340(%ebp),%eax
    3fc1:	89 44 24 04          	mov    %eax,0x4(%esp)
    3fc5:	89 34 24             	mov    %esi,(%esp)
    3fc8:	c7 85 c0 fc ff ff 00 	movl   $0x0,-0x340(%ebp)
    3fcf:	00 00 00 
    3fd2:	c7 85 c4 fc ff ff 00 	movl   $0x0,-0x33c(%ebp)
    3fd9:	00 00 00 
    3fdc:	e8 1f 3f 00 00       	call   7f00 <surface_get_resolution>
    3fe1:	8b 85 c0 fc ff ff    	mov    -0x340(%ebp),%eax
    3fe7:	8b 95 b8 fc ff ff    	mov    -0x348(%ebp),%edx
    3fed:	39 c2                	cmp    %eax,%edx
    3fef:	0f 82 7a 0c 00 00    	jb     4c6f <client_connection+0x10ff>
    3ff5:	8b 8d c4 fc ff ff    	mov    -0x33c(%ebp),%ecx
    3ffb:	8b 85 bc fc ff ff    	mov    -0x344(%ebp),%eax
    4001:	89 95 d0 fc ff ff    	mov    %edx,-0x330(%ebp)
    4007:	39 c8                	cmp    %ecx,%eax
    4009:	0f 82 59 0c 00 00    	jb     4c68 <client_connection+0x10f8>
    400f:	8d 8d d4 fc ff ff    	lea    -0x32c(%ebp),%ecx
    4015:	8d 7c 24 10          	lea    0x10(%esp),%edi
    4019:	89 4c 24 64          	mov    %ecx,0x64(%esp)
    401d:	8d 8d d0 fc ff ff    	lea    -0x330(%ebp),%ecx
    4023:	89 4c 24 60          	mov    %ecx,0x60(%esp)
    4027:	8d 8d cc fc ff ff    	lea    -0x334(%ebp),%ecx
    402d:	89 4c 24 5c          	mov    %ecx,0x5c(%esp)
    4031:	8d 8d c8 fc ff ff    	lea    -0x338(%ebp),%ecx
    4037:	89 4c 24 58          	mov    %ecx,0x58(%esp)
    403b:	8d 73 30             	lea    0x30(%ebx),%esi
    403e:	b9 12 00 00 00       	mov    $0x12,%ecx
    4043:	89 85 d4 fc ff ff    	mov    %eax,-0x32c(%ebp)
    4049:	f3 a5                	rep movsl %ds:(%esi),%es:(%edi)
    404b:	31 ff                	xor    %edi,%edi
    404d:	89 85 a0 fc ff ff    	mov    %eax,-0x360(%ebp)
    4053:	89 bd a4 fc ff ff    	mov    %edi,-0x35c(%ebp)
    4059:	89 d0                	mov    %edx,%eax
    405b:	df ad a0 fc ff ff    	fildll -0x360(%ebp)
    4061:	31 d2                	xor    %edx,%edx
    4063:	89 85 a0 fc ff ff    	mov    %eax,-0x360(%ebp)
    4069:	dd 5c 24 08          	fstpl  0x8(%esp)
    406d:	89 95 a4 fc ff ff    	mov    %edx,-0x35c(%ebp)
    4073:	df ad a0 fc ff ff    	fildll -0x360(%ebp)
    4079:	dd 1c 24             	fstpl  (%esp)
    407c:	e8 2f d2 ff ff       	call   12b0 <comp_coord_bounding_rect.constprop.8>
    4081:	c7 04 24 68 c5 02 00 	movl   $0x2c568,(%esp)
    4088:	e8 f3 f3 00 00       	call   13480 <fibril_mutex_unlock>
    408d:	e9 00 fe ff ff       	jmp    3e92 <client_connection+0x322>
    4092:	8d b6 00 00 00 00    	lea    0x0(%esi),%esi
    4098:	c7 04 24 80 c5 02 00 	movl   $0x2c580,(%esp)
    409f:	8b bd f0 fc ff ff    	mov    -0x310(%ebp),%edi
    40a5:	8b b5 f4 fc ff ff    	mov    -0x30c(%ebp),%esi
    40ab:	e8 b0 f2 00 00       	call   13360 <fibril_mutex_lock>
    40b0:	a1 94 c5 02 00       	mov    0x2c594,%eax
    40b5:	3d 90 c5 02 00       	cmp    $0x2c590,%eax
    40ba:	75 0e                	jne    40ca <client_connection+0x55a>
    40bc:	eb 25                	jmp    40e3 <client_connection+0x573>
    40be:	66 90                	xchg   %ax,%ax
    40c0:	8b 40 04             	mov    0x4(%eax),%eax
    40c3:	3d 90 c5 02 00       	cmp    $0x2c590,%eax
    40c8:	74 19                	je     40e3 <client_connection+0x573>
    40ca:	3b 78 08             	cmp    0x8(%eax),%edi
    40cd:	75 f1                	jne    40c0 <client_connection+0x550>
    40cf:	80 78 30 00          	cmpb   $0x0,0x30(%eax)
    40d3:	0f 95 c2             	setne  %dl
    40d6:	81 e2 ff 00 00 00    	and    $0xff,%edx
    40dc:	f7 da                	neg    %edx
    40de:	21 f2                	and    %esi,%edx
    40e0:	89 50 2c             	mov    %edx,0x2c(%eax)
    40e3:	c7 04 24 80 c5 02 00 	movl   $0x2c580,(%esp)
    40ea:	e8 91 f3 00 00       	call   13480 <fibril_mutex_unlock>
    40ef:	83 e6 0c             	and    $0xc,%esi
    40f2:	0f 84 ba fd ff ff    	je     3eb2 <client_connection+0x342>
    40f8:	c7 05 c8 c9 03 00 00 	movl   $0x0,0x3c9c8
    40ff:	00 00 00 
    4102:	c7 05 cc c9 03 00 00 	movl   $0x3ff00000,0x3c9cc
    4109:	00 f0 3f 
    410c:	c7 05 d0 c9 03 00 00 	movl   $0x0,0x3c9d0
    4113:	00 00 00 
    4116:	c7 05 d4 c9 03 00 00 	movl   $0x3ff00000,0x3c9d4
    411d:	00 f0 3f 
    4120:	e9 8d fd ff ff       	jmp    3eb2 <client_connection+0x342>
    4125:	8d 76 00             	lea    0x0(%esi),%esi
    4128:	31 ff                	xor    %edi,%edi
    412a:	8b b5 f8 fc ff ff    	mov    -0x308(%ebp),%esi
    4130:	89 b5 a0 fc ff ff    	mov    %esi,-0x360(%ebp)
    4136:	89 bd a4 fc ff ff    	mov    %edi,-0x35c(%ebp)
    413c:	8b b5 fc fc ff ff    	mov    -0x304(%ebp),%esi
    4142:	31 ff                	xor    %edi,%edi
    4144:	df ad a0 fc ff ff    	fildll -0x360(%ebp)
    414a:	89 b5 a0 fc ff ff    	mov    %esi,-0x360(%ebp)
    4150:	89 bd a4 fc ff ff    	mov    %edi,-0x35c(%ebp)
    4156:	df ad a0 fc ff ff    	fildll -0x360(%ebp)
    415c:	d9 ee                	fldz   
    415e:	d9 c9                	fxch   %st(1)
    4160:	dd e1                	fucom  %st(1)
    4162:	df e0                	fnstsw %ax
    4164:	80 e4 45             	and    $0x45,%ah
    4167:	8b 8d f0 fc ff ff    	mov    -0x310(%ebp),%ecx
    416d:	8b 95 f4 fc ff ff    	mov    -0x30c(%ebp),%edx
    4173:	0f b6 c4             	movzbl %ah,%eax
    4176:	89 8d 88 fc ff ff    	mov    %ecx,-0x378(%ebp)
    417c:	83 f8 40             	cmp    $0x40,%eax
    417f:	0f 84 63 06 00 00    	je     47e8 <client_connection+0xc78>
    4185:	d9 ca                	fxch   %st(2)
    4187:	dd e1                	fucom  %st(1)
    4189:	df e0                	fnstsw %ax
    418b:	80 e4 45             	and    $0x45,%ah
    418e:	0f b6 c4             	movzbl %ah,%eax
    4191:	83 f8 40             	cmp    $0x40,%eax
    4194:	0f 84 56 06 00 00    	je     47f0 <client_connection+0xc80>
    419a:	d9 c9                	fxch   %st(1)
    419c:	dd 9d 48 fc ff ff    	fstpl  -0x3b8(%ebp)
    41a2:	d9 c9                	fxch   %st(1)
    41a4:	c7 04 24 68 c5 02 00 	movl   $0x2c568,(%esp)
    41ab:	89 95 58 fc ff ff    	mov    %edx,-0x3a8(%ebp)
    41b1:	dd 9d 28 fc ff ff    	fstpl  -0x3d8(%ebp)
    41b7:	8d 73 30             	lea    0x30(%ebx),%esi
    41ba:	dd 9d 38 fc ff ff    	fstpl  -0x3c8(%ebp)
    41c0:	e8 9b f1 00 00       	call   13360 <fibril_mutex_lock>
    41c5:	8d 85 10 fd ff ff    	lea    -0x2f0(%ebp),%eax
    41cb:	d9 05 fc 98 02 00    	flds   0x298fc
    41d1:	dd 85 38 fc ff ff    	fldl   -0x3c8(%ebp)
    41d7:	d8 c1                	fadd   %st(1),%st
    41d9:	89 c7                	mov    %eax,%edi
    41db:	b9 12 00 00 00       	mov    $0x12,%ecx
    41e0:	89 85 98 fc ff ff    	mov    %eax,-0x368(%ebp)
    41e6:	f3 a5                	rep movsl %ds:(%esi),%es:(%edi)
    41e8:	dd 85 48 fc ff ff    	fldl   -0x3b8(%ebp)
    41ee:	d9 c9                	fxch   %st(1)
    41f0:	dd e1                	fucom  %st(1)
    41f2:	df e0                	fnstsw %ax
    41f4:	8b 95 58 fc ff ff    	mov    -0x3a8(%ebp),%edx
    41fa:	f6 c4 45             	test   $0x45,%ah
    41fd:	dd 85 28 fc ff ff    	fldl   -0x3d8(%ebp)
    4203:	0f 85 05 06 00 00    	jne    480e <client_connection+0xc9e>
    4209:	de c3                	faddp  %st,%st(3)
    420b:	d9 ca                	fxch   %st(2)
    420d:	dd e1                	fucom  %st(1)
    420f:	df e0                	fnstsw %ax
    4211:	dd d9                	fstp   %st(1)
    4213:	f6 c4 45             	test   $0x45,%ah
    4216:	0f 85 fc 05 00 00    	jne    4818 <client_connection+0xca8>
    421c:	89 d0                	mov    %edx,%eax
    421e:	31 d2                	xor    %edx,%edx
    4220:	89 85 a0 fc ff ff    	mov    %eax,-0x360(%ebp)
    4226:	89 95 a4 fc ff ff    	mov    %edx,-0x35c(%ebp)
    422c:	df ad a0 fc ff ff    	fildll -0x360(%ebp)
    4232:	d9 e8                	fld1   
    4234:	de e9                	fsubrp %st,%st(1)
    4236:	31 d2                	xor    %edx,%edx
    4238:	8b 85 88 fc ff ff    	mov    -0x378(%ebp),%eax
    423e:	89 95 a4 fc ff ff    	mov    %edx,-0x35c(%ebp)
    4244:	89 85 a0 fc ff ff    	mov    %eax,-0x360(%ebp)
    424a:	8b b5 98 fc ff ff    	mov    -0x368(%ebp),%esi
    4250:	df ad a0 fc ff ff    	fildll -0x360(%ebp)
    4256:	d9 e8                	fld1   
    4258:	de e9                	fsubrp %st,%st(1)
    425a:	8d bd 58 fd ff ff    	lea    -0x2a8(%ebp),%edi
    4260:	b1 12                	mov    $0x12,%cl
    4262:	8d 85 e0 fc ff ff    	lea    -0x320(%ebp),%eax
    4268:	f3 a5                	rep movsl %ds:(%esi),%es:(%edi)
    426a:	dd 95 d8 fc ff ff    	fstl   -0x328(%ebp)
    4270:	d9 c9                	fxch   %st(1)
    4272:	8d 8d d8 fc ff ff    	lea    -0x328(%ebp),%ecx
    4278:	89 44 24 08          	mov    %eax,0x8(%esp)
    427c:	dd 95 e0 fc ff ff    	fstl   -0x320(%ebp)
    4282:	d9 c9                	fxch   %st(1)
    4284:	8d 85 58 fd ff ff    	lea    -0x2a8(%ebp),%eax
    428a:	89 4c 24 04          	mov    %ecx,0x4(%esp)
    428e:	dd 9d 48 fc ff ff    	fstpl  -0x3b8(%ebp)
    4294:	89 04 24             	mov    %eax,(%esp)
    4297:	8d bd a0 fd ff ff    	lea    -0x260(%ebp),%edi
    429d:	dd 9d 28 fc ff ff    	fstpl  -0x3d8(%ebp)
    42a3:	d9 c9                	fxch   %st(1)
    42a5:	dd 9d 38 fc ff ff    	fstpl  -0x3c8(%ebp)
    42ab:	dd 9d 18 fc ff ff    	fstpl  -0x3e8(%ebp)
    42b1:	e8 9a 62 00 00       	call   a550 <transform_apply_affine>
    42b6:	8b b5 98 fc ff ff    	mov    -0x368(%ebp),%esi
    42bc:	dd 05 08 99 02 00    	fldl   0x29908
    42c2:	d9 bd 9e fc ff ff    	fnstcw -0x362(%ebp)
    42c8:	dc 85 d8 fc ff ff    	faddl  -0x328(%ebp)
    42ce:	66 8b 85 9e fc ff ff 	mov    -0x362(%ebp),%ax
    42d5:	b4 0c                	mov    $0xc,%ah
    42d7:	b9 12 00 00 00       	mov    $0x12,%ecx
    42dc:	66 89 85 9c fc ff ff 	mov    %ax,-0x364(%ebp)
    42e3:	d9 ad 9c fc ff ff    	fldcw  -0x364(%ebp)
    42e9:	df bd 60 fc ff ff    	fistpll -0x3a0(%ebp)
    42ef:	d9 ad 9e fc ff ff    	fldcw  -0x362(%ebp)
    42f5:	dd 05 08 99 02 00    	fldl   0x29908
    42fb:	dc 85 e0 fc ff ff    	faddl  -0x320(%ebp)
    4301:	8b 85 60 fc ff ff    	mov    -0x3a0(%ebp),%eax
    4307:	89 85 74 fc ff ff    	mov    %eax,-0x38c(%ebp)
    430d:	d9 ad 9c fc ff ff    	fldcw  -0x364(%ebp)
    4313:	df bd a0 fc ff ff    	fistpll -0x360(%ebp)
    4319:	d9 ad 9e fc ff ff    	fldcw  -0x362(%ebp)
    431f:	dd 85 48 fc ff ff    	fldl   -0x3b8(%ebp)
    4325:	dd 85 38 fc ff ff    	fldl   -0x3c8(%ebp)
    432b:	de c1                	faddp  %st,%st(1)
    432d:	8b 85 a0 fc ff ff    	mov    -0x360(%ebp),%eax
    4333:	f3 a5                	rep movsl %ds:(%esi),%es:(%edi)
    4335:	d9 e8                	fld1   
    4337:	de e9                	fsubrp %st,%st(1)
    4339:	89 c2                	mov    %eax,%edx
    433b:	8d 85 e0 fc ff ff    	lea    -0x320(%ebp),%eax
    4341:	8d 8d d8 fc ff ff    	lea    -0x328(%ebp),%ecx
    4347:	89 44 24 08          	mov    %eax,0x8(%esp)
    434b:	8d 85 a0 fd ff ff    	lea    -0x260(%ebp),%eax
    4351:	89 4c 24 04          	mov    %ecx,0x4(%esp)
    4355:	89 04 24             	mov    %eax,(%esp)
    4358:	dd 95 d8 fc ff ff    	fstl   -0x328(%ebp)
    435e:	dd 85 28 fc ff ff    	fldl   -0x3d8(%ebp)
    4364:	89 95 58 fc ff ff    	mov    %edx,-0x3a8(%ebp)
    436a:	8d bd e8 fd ff ff    	lea    -0x218(%ebp),%edi
    4370:	dd 9d e0 fc ff ff    	fstpl  -0x320(%ebp)
    4376:	dd 9d 38 fc ff ff    	fstpl  -0x3c8(%ebp)
    437c:	e8 cf 61 00 00       	call   a550 <transform_apply_affine>
    4381:	b9 12 00 00 00       	mov    $0x12,%ecx
    4386:	dd 05 08 99 02 00    	fldl   0x29908
    438c:	d9 bd 9e fc ff ff    	fnstcw -0x362(%ebp)
    4392:	dc 85 d8 fc ff ff    	faddl  -0x328(%ebp)
    4398:	66 8b 85 9e fc ff ff 	mov    -0x362(%ebp),%ax
    439f:	b4 0c                	mov    $0xc,%ah
    43a1:	66 89 85 9c fc ff ff 	mov    %ax,-0x364(%ebp)
    43a8:	d9 ad 9c fc ff ff    	fldcw  -0x364(%ebp)
    43ae:	df bd 68 fc ff ff    	fistpll -0x398(%ebp)
    43b4:	d9 ad 9e fc ff ff    	fldcw  -0x362(%ebp)
    43ba:	dd 05 08 99 02 00    	fldl   0x29908
    43c0:	dc 85 e0 fc ff ff    	faddl  -0x320(%ebp)
    43c6:	8b 85 68 fc ff ff    	mov    -0x398(%ebp),%eax
    43cc:	89 85 70 fc ff ff    	mov    %eax,-0x390(%ebp)
    43d2:	d9 ad 9c fc ff ff    	fldcw  -0x364(%ebp)
    43d8:	df bd a0 fc ff ff    	fistpll -0x360(%ebp)
    43de:	d9 ad 9e fc ff ff    	fldcw  -0x362(%ebp)
    43e4:	dd 85 28 fc ff ff    	fldl   -0x3d8(%ebp)
    43ea:	dd 85 18 fc ff ff    	fldl   -0x3e8(%ebp)
    43f0:	de c1                	faddp  %st,%st(1)
    43f2:	8b b5 a0 fc ff ff    	mov    -0x360(%ebp),%esi
    43f8:	89 f0                	mov    %esi,%eax
    43fa:	8b b5 98 fc ff ff    	mov    -0x368(%ebp),%esi
    4400:	f3 a5                	rep movsl %ds:(%esi),%es:(%edi)
    4402:	d9 e8                	fld1   
    4404:	de e9                	fsubrp %st,%st(1)
    4406:	8d 8d e0 fc ff ff    	lea    -0x320(%ebp),%ecx
    440c:	89 4c 24 08          	mov    %ecx,0x8(%esp)
    4410:	8d 8d d8 fc ff ff    	lea    -0x328(%ebp),%ecx
    4416:	89 4c 24 04          	mov    %ecx,0x4(%esp)
    441a:	8d 8d e8 fd ff ff    	lea    -0x218(%ebp),%ecx
    4420:	dd 85 38 fc ff ff    	fldl   -0x3c8(%ebp)
    4426:	89 0c 24             	mov    %ecx,(%esp)
    4429:	89 85 5c fc ff ff    	mov    %eax,-0x3a4(%ebp)
    442f:	dd 9d d8 fc ff ff    	fstpl  -0x328(%ebp)
    4435:	8d bd e8 fe ff ff    	lea    -0x118(%ebp),%edi
    443b:	dd 95 e0 fc ff ff    	fstl   -0x320(%ebp)
    4441:	dd 9d 18 fc ff ff    	fstpl  -0x3e8(%ebp)
    4447:	e8 04 61 00 00       	call   a550 <transform_apply_affine>
    444c:	dd 05 08 99 02 00    	fldl   0x29908
    4452:	d9 bd 9e fc ff ff    	fnstcw -0x362(%ebp)
    4458:	dc 85 d8 fc ff ff    	faddl  -0x328(%ebp)
    445e:	66 8b 8d 9e fc ff ff 	mov    -0x362(%ebp),%cx
    4465:	b5 0c                	mov    $0xc,%ch
    4467:	66 89 8d 9c fc ff ff 	mov    %cx,-0x364(%ebp)
    446e:	b9 12 00 00 00       	mov    $0x12,%ecx
    4473:	d9 ad 9c fc ff ff    	fldcw  -0x364(%ebp)
    4479:	df bd a0 fc ff ff    	fistpll -0x360(%ebp)
    447f:	d9 ad 9e fc ff ff    	fldcw  -0x362(%ebp)
    4485:	dd 05 08 99 02 00    	fldl   0x29908
    448b:	dc 85 e0 fc ff ff    	faddl  -0x320(%ebp)
    4491:	8b b5 a0 fc ff ff    	mov    -0x360(%ebp),%esi
    4497:	89 b5 88 fc ff ff    	mov    %esi,-0x378(%ebp)
    449d:	d9 ad 9c fc ff ff    	fldcw  -0x364(%ebp)
    44a3:	df bd a0 fc ff ff    	fistpll -0x360(%ebp)
    44a9:	d9 ad 9e fc ff ff    	fldcw  -0x362(%ebp)
    44af:	8b b5 a0 fc ff ff    	mov    -0x360(%ebp),%esi
    44b5:	89 b5 80 fc ff ff    	mov    %esi,-0x380(%ebp)
    44bb:	8b b5 98 fc ff ff    	mov    -0x368(%ebp),%esi
    44c1:	f3 a5                	rep movsl %ds:(%esi),%es:(%edi)
    44c3:	dd 85 48 fc ff ff    	fldl   -0x3b8(%ebp)
    44c9:	8d 8d e0 fc ff ff    	lea    -0x320(%ebp),%ecx
    44cf:	dd 9d d8 fc ff ff    	fstpl  -0x328(%ebp)
    44d5:	89 4c 24 08          	mov    %ecx,0x8(%esp)
    44d9:	8d 8d d8 fc ff ff    	lea    -0x328(%ebp),%ecx
    44df:	dd 85 18 fc ff ff    	fldl   -0x3e8(%ebp)
    44e5:	89 4c 24 04          	mov    %ecx,0x4(%esp)
    44e9:	8d 8d e8 fe ff ff    	lea    -0x118(%ebp),%ecx
    44ef:	89 0c 24             	mov    %ecx,(%esp)
    44f2:	dd 9d e0 fc ff ff    	fstpl  -0x320(%ebp)
    44f8:	e8 53 60 00 00       	call   a550 <transform_apply_affine>
    44fd:	8b 85 5c fc ff ff    	mov    -0x3a4(%ebp),%eax
    4503:	dd 05 08 99 02 00    	fldl   0x29908
    4509:	d9 bd 9e fc ff ff    	fnstcw -0x362(%ebp)
    450f:	dc 85 d8 fc ff ff    	faddl  -0x328(%ebp)
    4515:	66 8b 8d 9e fc ff ff 	mov    -0x362(%ebp),%cx
    451c:	b5 0c                	mov    $0xc,%ch
    451e:	8b 95 58 fc ff ff    	mov    -0x3a8(%ebp),%edx
    4524:	66 89 8d 9c fc ff ff 	mov    %cx,-0x364(%ebp)
    452b:	8b 8d 74 fc ff ff    	mov    -0x38c(%ebp),%ecx
    4531:	d9 ad 9c fc ff ff    	fldcw  -0x364(%ebp)
    4537:	df bd a0 fc ff ff    	fistpll -0x360(%ebp)
    453d:	d9 ad 9e fc ff ff    	fldcw  -0x362(%ebp)
    4543:	39 8d 70 fc ff ff    	cmp    %ecx,-0x390(%ebp)
    4549:	dd 05 08 99 02 00    	fldl   0x29908
    454f:	dc 85 e0 fc ff ff    	faddl  -0x320(%ebp)
    4555:	8b b5 a0 fc ff ff    	mov    -0x360(%ebp),%esi
    455b:	89 b5 7c fc ff ff    	mov    %esi,-0x384(%ebp)
    4561:	d9 ad 9c fc ff ff    	fldcw  -0x364(%ebp)
    4567:	df bd a0 fc ff ff    	fistpll -0x360(%ebp)
    456d:	d9 ad 9e fc ff ff    	fldcw  -0x362(%ebp)
    4573:	8b b5 a0 fc ff ff    	mov    -0x360(%ebp),%esi
    4579:	89 b5 78 fc ff ff    	mov    %esi,-0x388(%ebp)
    457f:	8b b5 68 fc ff ff    	mov    -0x398(%ebp),%esi
    4585:	0f 87 b1 06 00 00    	ja     4c3c <client_connection+0x10cc>
    458b:	89 c7                	mov    %eax,%edi
    458d:	39 d0                	cmp    %edx,%eax
    458f:	0f 87 a0 06 00 00    	ja     4c35 <client_connection+0x10c5>
    4595:	8b 8d 70 fc ff ff    	mov    -0x390(%ebp),%ecx
    459b:	3b 8d 74 fc ff ff    	cmp    -0x38c(%ebp),%ecx
    45a1:	0f 82 83 06 00 00    	jb     4c2a <client_connection+0x10ba>
    45a7:	39 d0                	cmp    %edx,%eax
    45a9:	0f 82 74 06 00 00    	jb     4c23 <client_connection+0x10b3>
    45af:	3b b5 88 fc ff ff    	cmp    -0x378(%ebp),%esi
    45b5:	0f 87 5d 06 00 00    	ja     4c18 <client_connection+0x10a8>
    45bb:	89 fa                	mov    %edi,%edx
    45bd:	3b bd 80 fc ff ff    	cmp    -0x380(%ebp),%edi
    45c3:	0f 87 44 06 00 00    	ja     4c0d <client_connection+0x109d>
    45c9:	3b 8d 88 fc ff ff    	cmp    -0x378(%ebp),%ecx
    45cf:	0f 82 2d 06 00 00    	jb     4c02 <client_connection+0x1092>
    45d5:	3b 85 80 fc ff ff    	cmp    -0x380(%ebp),%eax
    45db:	0f 82 16 06 00 00    	jb     4bf7 <client_connection+0x1087>
    45e1:	3b b5 7c fc ff ff    	cmp    -0x384(%ebp),%esi
    45e7:	0f 87 65 06 00 00    	ja     4c52 <client_connection+0x10e2>
    45ed:	89 d7                	mov    %edx,%edi
    45ef:	3b 95 78 fc ff ff    	cmp    -0x388(%ebp),%edx
    45f5:	0f 87 4c 06 00 00    	ja     4c47 <client_connection+0x10d7>
    45fb:	3b 8d 7c fc ff ff    	cmp    -0x384(%ebp),%ecx
    4601:	0f 82 56 06 00 00    	jb     4c5d <client_connection+0x10ed>
    4607:	41                   	inc    %ecx
    4608:	29 f1                	sub    %esi,%ecx
    460a:	3b 85 78 fc ff ff    	cmp    -0x388(%ebp),%eax
    4610:	0f 82 d6 05 00 00    	jb     4bec <client_connection+0x107c>
    4616:	40                   	inc    %eax
    4617:	29 f8                	sub    %edi,%eax
    4619:	c7 04 24 68 c5 02 00 	movl   $0x2c568,(%esp)
    4620:	89 85 5c fc ff ff    	mov    %eax,-0x3a4(%ebp)
    4626:	89 8d 48 fc ff ff    	mov    %ecx,-0x3b8(%ebp)
    462c:	e8 4f ee 00 00       	call   13480 <fibril_mutex_unlock>
    4631:	8b 85 5c fc ff ff    	mov    -0x3a4(%ebp),%eax
    4637:	8b 8d 48 fc ff ff    	mov    -0x3b8(%ebp),%ecx
    463d:	89 04 24             	mov    %eax,(%esp)
    4640:	89 fa                	mov    %edi,%edx
    4642:	89 f0                	mov    %esi,%eax
    4644:	e8 97 d1 ff ff       	call   17e0 <comp_damage>
    4649:	e9 64 f8 ff ff       	jmp    3eb2 <client_connection+0x342>
    464e:	66 90                	xchg   %ax,%ax
    4650:	c7 04 24 24 00 00 00 	movl   $0x24,(%esp)
    4657:	e8 e4 83 01 00       	call   1ca40 <malloc>
    465c:	85 c0                	test   %eax,%eax
    465e:	0f 84 cc 01 00 00    	je     4830 <client_connection+0xcc0>
    4664:	8b 8d 84 fc ff ff    	mov    -0x37c(%ebp),%ecx
    466a:	c7 00 00 00 00 00    	movl   $0x0,(%eax)
    4670:	c7 40 04 00 00 00 00 	movl   $0x0,0x4(%eax)
    4677:	c7 40 08 08 00 00 00 	movl   $0x8,0x8(%eax)
    467e:	89 44 24 04          	mov    %eax,0x4(%esp)
    4682:	89 0c 24             	mov    %ecx,(%esp)
    4685:	e8 c6 eb 01 00       	call   23250 <prodcons_produce>
    468a:	e9 23 f8 ff ff       	jmp    3eb2 <client_connection+0x342>
    468f:	90                   	nop
    4690:	8b 85 94 fc ff ff    	mov    -0x36c(%ebp),%eax
    4696:	c7 44 24 04 f2 ff ff 	movl   $0xfffffff2,0x4(%esp)
    469d:	ff 
    469e:	89 04 24             	mov    %eax,(%esp)
    46a1:	e8 da ae 01 00       	call   1f580 <async_answer_0>
    46a6:	81 c4 4c 04 00 00    	add    $0x44c,%esp
    46ac:	5b                   	pop    %ebx
    46ad:	5e                   	pop    %esi
    46ae:	5f                   	pop    %edi
    46af:	5d                   	pop    %ebp
    46b0:	c3                   	ret    
    46b1:	8d b4 26 00 00 00 00 	lea    0x0(%esi,%eiz,1),%esi
    46b8:	8d 8d ec fc ff ff    	lea    -0x314(%ebp),%ecx
    46be:	83 c3 10             	add    $0x10,%ebx
    46c1:	89 8d 90 fc ff ff    	mov    %ecx,-0x370(%ebp)
    46c7:	89 9d 94 fc ff ff    	mov    %ebx,-0x36c(%ebp)
    46cd:	8d b5 d4 fc ff ff    	lea    -0x32c(%ebp),%esi
    46d3:	89 c8                	mov    %ecx,%eax
    46d5:	8d 76 00             	lea    0x0(%esi),%esi
    46d8:	c7 44 24 04 00 00 00 	movl   $0x0,0x4(%esp)
    46df:	00 
    46e0:	89 04 24             	mov    %eax,(%esp)
    46e3:	e8 68 98 01 00       	call   1df50 <async_get_call_timeout>
    46e8:	8b 95 ec fc ff ff    	mov    -0x314(%ebp),%edx
    46ee:	89 c3                	mov    %eax,%ebx
    46f0:	85 d2                	test   %edx,%edx
    46f2:	0f 84 a0 00 00 00    	je     4798 <client_connection+0xc28>
    46f8:	81 fa 01 04 00 00    	cmp    $0x401,%edx
    46fe:	74 18                	je     4718 <client_connection+0xba8>
    4700:	c7 44 24 04 f2 ff ff 	movl   $0xfffffff2,0x4(%esp)
    4707:	ff 
    4708:	89 04 24             	mov    %eax,(%esp)
    470b:	e8 70 ae 01 00       	call   1f580 <async_answer_0>
    4710:	8b 85 90 fc ff ff    	mov    -0x370(%ebp),%eax
    4716:	eb c0                	jmp    46d8 <client_connection+0xb68>
    4718:	8b 8d 94 fc ff ff    	mov    -0x36c(%ebp),%ecx
    471e:	89 0c 24             	mov    %ecx,(%esp)
    4721:	e8 7a eb 01 00       	call   232a0 <prodcons_consume>
    4726:	89 74 24 04          	mov    %esi,0x4(%esp)
    472a:	89 c7                	mov    %eax,%edi
    472c:	8d 85 d0 fc ff ff    	lea    -0x330(%ebp),%eax
    4732:	89 04 24             	mov    %eax,(%esp)
    4735:	e8 b6 c3 01 00       	call   20af0 <async_data_read_receive>
    473a:	84 c0                	test   %al,%al
    473c:	75 2a                	jne    4768 <client_connection+0xbf8>
    473e:	c7 44 24 04 f2 ff ff 	movl   $0xfffffff2,0x4(%esp)
    4745:	ff 
    4746:	89 1c 24             	mov    %ebx,(%esp)
    4749:	e8 32 ae 01 00       	call   1f580 <async_answer_0>
    474e:	89 3c 24             	mov    %edi,(%esp)
    4751:	e8 fa 83 01 00       	call   1cb50 <free>
    4756:	8b 85 90 fc ff ff    	mov    -0x370(%ebp),%eax
    475c:	e9 77 ff ff ff       	jmp    46d8 <client_connection+0xb68>
    4761:	8d b4 26 00 00 00 00 	lea    0x0(%esi,%eiz,1),%esi
    4768:	8b 85 d4 fc ff ff    	mov    -0x32c(%ebp),%eax
    476e:	89 7c 24 04          	mov    %edi,0x4(%esp)
    4772:	89 44 24 08          	mov    %eax,0x8(%esp)
    4776:	8b 85 d0 fc ff ff    	mov    -0x330(%ebp),%eax
    477c:	89 04 24             	mov    %eax,(%esp)
    477f:	e8 cc c3 01 00       	call   20b50 <async_data_read_finalize>
    4784:	85 c0                	test   %eax,%eax
    4786:	74 30                	je     47b8 <client_connection+0xc48>
    4788:	c7 44 24 04 fe ff ff 	movl   $0xfffffffe,0x4(%esp)
    478f:	ff 
    4790:	eb b4                	jmp    4746 <client_connection+0xbd6>
    4792:	8d b6 00 00 00 00    	lea    0x0(%esi),%esi
    4798:	c7 44 24 04 f2 ff ff 	movl   $0xfffffff2,0x4(%esp)
    479f:	ff 
    47a0:	89 04 24             	mov    %eax,(%esp)
    47a3:	e8 d8 ad 01 00       	call   1f580 <async_answer_0>
    47a8:	81 c4 4c 04 00 00    	add    $0x44c,%esp
    47ae:	5b                   	pop    %ebx
    47af:	5e                   	pop    %esi
    47b0:	5f                   	pop    %edi
    47b1:	5d                   	pop    %ebp
    47b2:	c3                   	ret    
    47b3:	90                   	nop
    47b4:	8d 74 26 00          	lea    0x0(%esi,%eiz,1),%esi
    47b8:	c7 44 24 04 00 00 00 	movl   $0x0,0x4(%esp)
    47bf:	00 
    47c0:	eb 84                	jmp    4746 <client_connection+0xbd6>
    47c2:	89 04 24             	mov    %eax,(%esp)
    47c5:	e8 86 83 01 00       	call   1cb50 <free>
    47ca:	8d b6 00 00 00 00    	lea    0x0(%esi),%esi
    47d0:	c7 04 24 68 c5 02 00 	movl   $0x2c568,(%esp)
    47d7:	e8 a4 ec 00 00       	call   13480 <fibril_mutex_unlock>
    47dc:	e9 86 f5 ff ff       	jmp    3d67 <client_connection+0x1f7>
    47e1:	8d b4 26 00 00 00 00 	lea    0x0(%esi,%eiz,1),%esi
    47e8:	dd d8                	fstp   %st(0)
    47ea:	dd d8                	fstp   %st(0)
    47ec:	dd d8                	fstp   %st(0)
    47ee:	eb 06                	jmp    47f6 <client_connection+0xc86>
    47f0:	dd d8                	fstp   %st(0)
    47f2:	dd d8                	fstp   %st(0)
    47f4:	dd d8                	fstp   %st(0)
    47f6:	c7 04 24 ff ff ff ff 	movl   $0xffffffff,(%esp)
    47fd:	83 c9 ff             	or     $0xffffffff,%ecx
    4800:	31 d2                	xor    %edx,%edx
    4802:	31 c0                	xor    %eax,%eax
    4804:	e8 d7 cf ff ff       	call   17e0 <comp_damage>
    4809:	e9 a4 f6 ff ff       	jmp    3eb2 <client_connection+0x342>
    480e:	dd d8                	fstp   %st(0)
    4810:	dd d8                	fstp   %st(0)
    4812:	dd d8                	fstp   %st(0)
    4814:	dd d8                	fstp   %st(0)
    4816:	eb 04                	jmp    481c <client_connection+0xcac>
    4818:	dd d8                	fstp   %st(0)
    481a:	dd d8                	fstp   %st(0)
    481c:	31 c0                	xor    %eax,%eax
    481e:	31 c9                	xor    %ecx,%ecx
    4820:	31 ff                	xor    %edi,%edi
    4822:	31 f6                	xor    %esi,%esi
    4824:	e9 f0 fd ff ff       	jmp    4619 <client_connection+0xaa9>
    4829:	8d b4 26 00 00 00 00 	lea    0x0(%esi,%eiz,1),%esi
    4830:	8b 85 94 fc ff ff    	mov    -0x36c(%ebp),%eax
    4836:	c7 44 24 04 fe ff ff 	movl   $0xfffffffe,0x4(%esp)
    483d:	ff 
    483e:	89 04 24             	mov    %eax,(%esp)
    4841:	e8 3a ad 01 00       	call   1f580 <async_answer_0>
    4846:	e9 3d f4 ff ff       	jmp    3c88 <client_connection+0x118>
    484b:	90                   	nop
    484c:	8d 74 26 00          	lea    0x0(%esi,%eiz,1),%esi
    4850:	c7 04 24 68 c5 02 00 	movl   $0x2c568,(%esp)
    4857:	e8 04 eb 00 00       	call   13360 <fibril_mutex_lock>
    485c:	8b 35 7c c5 02 00    	mov    0x2c57c,%esi
    4862:	8d 57 10             	lea    0x10(%edi),%edx
    4865:	81 fe 78 c5 02 00    	cmp    $0x2c578,%esi
    486b:	8b 85 5c fc ff ff    	mov    -0x3a4(%ebp),%eax
    4871:	0f 84 4b ff ff ff    	je     47c2 <client_connection+0xc52>
    4877:	90                   	nop
    4878:	39 f7                	cmp    %esi,%edi
    487a:	0f 84 f9 02 00 00    	je     4b79 <client_connection+0x1009>
    4880:	8b 76 04             	mov    0x4(%esi),%esi
    4883:	81 fe 78 c5 02 00    	cmp    $0x2c578,%esi
    4889:	75 ed                	jne    4878 <client_connection+0xd08>
    488b:	e9 40 ff ff ff       	jmp    47d0 <client_connection+0xc60>
    4890:	c7 04 24 68 c5 02 00 	movl   $0x2c568,(%esp)
    4897:	e8 c4 ea 00 00       	call   13360 <fibril_mutex_lock>
    489c:	8b 8d f4 fc ff ff    	mov    -0x30c(%ebp),%ecx
    48a2:	89 8d 90 fc ff ff    	mov    %ecx,-0x370(%ebp)
    48a8:	c7 04 24 a8 00 00 00 	movl   $0xa8,(%esp)
    48af:	8b 8d f0 fc ff ff    	mov    -0x310(%ebp),%ecx
    48b5:	89 8d 94 fc ff ff    	mov    %ecx,-0x36c(%ebp)
    48bb:	e8 80 81 01 00       	call   1ca40 <malloc>
    48c0:	89 c6                	mov    %eax,%esi
    48c2:	85 c0                	test   %eax,%eax
    48c4:	0f 84 15 04 00 00    	je     4cdf <client_connection+0x116f>
    48ca:	c7 00 00 00 00 00    	movl   $0x0,(%eax)
    48d0:	c7 40 04 00 00 00 00 	movl   $0x0,0x4(%eax)
    48d7:	8d 40 10             	lea    0x10(%eax),%eax
    48da:	31 db                	xor    %ebx,%ebx
    48dc:	89 04 24             	mov    %eax,(%esp)
    48df:	e8 3c e9 01 00       	call   23220 <prodcons_initialize>
    48e4:	8d 46 30             	lea    0x30(%esi),%eax
    48e7:	89 04 24             	mov    %eax,(%esp)
    48ea:	89 85 8c fc ff ff    	mov    %eax,-0x374(%ebp)
    48f0:	e8 5b 56 00 00       	call   9f50 <transform_identity>
    48f5:	8b 0d b0 c9 03 00    	mov    0x3c9b0,%ecx
    48fb:	8b 85 90 fc ff ff    	mov    -0x370(%ebp),%eax
    4901:	31 d2                	xor    %edx,%edx
    4903:	01 c8                	add    %ecx,%eax
    4905:	89 95 a4 fc ff ff    	mov    %edx,-0x35c(%ebp)
    490b:	89 85 a0 fc ff ff    	mov    %eax,-0x360(%ebp)
    4911:	8b 85 94 fc ff ff    	mov    -0x36c(%ebp),%eax
    4917:	df ad a0 fc ff ff    	fildll -0x360(%ebp)
    491d:	01 c1                	add    %eax,%ecx
    491f:	89 9d a4 fc ff ff    	mov    %ebx,-0x35c(%ebp)
    4925:	dd 5c 24 0c          	fstpl  0xc(%esp)
    4929:	89 8d a0 fc ff ff    	mov    %ecx,-0x360(%ebp)
    492f:	8b 8d 8c fc ff ff    	mov    -0x374(%ebp),%ecx
    4935:	df ad a0 fc ff ff    	fildll -0x360(%ebp)
    493b:	89 0c 24             	mov    %ecx,(%esp)
    493e:	8d 9d e8 fd ff ff    	lea    -0x218(%ebp),%ebx
    4944:	dd 5c 24 04          	fstpl  0x4(%esp)
    4948:	e8 33 56 00 00       	call   9f80 <transform_translate>
    494d:	8b 0d b0 c9 03 00    	mov    0x3c9b0,%ecx
    4953:	8b 85 94 fc ff ff    	mov    -0x36c(%ebp),%eax
    4959:	31 d2                	xor    %edx,%edx
    495b:	01 c8                	add    %ecx,%eax
    495d:	89 95 a4 fc ff ff    	mov    %edx,-0x35c(%ebp)
    4963:	89 85 a0 fc ff ff    	mov    %eax,-0x360(%ebp)
    4969:	8b 85 90 fc ff ff    	mov    -0x370(%ebp),%eax
    496f:	df ad a0 fc ff ff    	fildll -0x360(%ebp)
    4975:	01 c8                	add    %ecx,%eax
    4977:	31 d2                	xor    %edx,%edx
    4979:	dd 5e 78             	fstpl  0x78(%esi)
    497c:	89 85 a0 fc ff ff    	mov    %eax,-0x360(%ebp)
    4982:	89 95 a4 fc ff ff    	mov    %edx,-0x35c(%ebp)
    4988:	df ad a0 fc ff ff    	fildll -0x360(%ebp)
    498e:	a1 c0 c9 03 00       	mov    0x3c9c0,%eax
    4993:	c7 86 88 00 00 00 00 	movl   $0x0,0x88(%esi)
    499a:	00 00 00 
    499d:	dd 9e 80 00 00 00    	fstpl  0x80(%esi)
    49a3:	c7 86 8c 00 00 00 00 	movl   $0x3ff00000,0x8c(%esi)
    49aa:	00 f0 3f 
    49ad:	c7 86 90 00 00 00 00 	movl   $0x0,0x90(%esi)
    49b4:	00 00 00 
    49b7:	c7 86 94 00 00 00 00 	movl   $0x3ff00000,0x94(%esi)
    49be:	00 f0 3f 
    49c1:	c7 86 98 00 00 00 00 	movl   $0x0,0x98(%esi)
    49c8:	00 00 00 
    49cb:	c7 86 9c 00 00 00 00 	movl   $0x0,0x9c(%esi)
    49d2:	00 00 00 
    49d5:	c6 86 a0 00 00 00 ff 	movb   $0xff,0xa0(%esi)
    49dc:	c7 86 a4 00 00 00 00 	movl   $0x0,0xa4(%esi)
    49e3:	00 00 00 
    49e6:	89 44 24 14          	mov    %eax,0x14(%esp)
    49ea:	a1 b8 c9 03 00       	mov    0x3c9b8,%eax
    49ef:	c7 44 24 0c dd 95 02 	movl   $0x295dd,0xc(%esp)
    49f6:	00 
    49f7:	89 44 24 10          	mov    %eax,0x10(%esp)
    49fb:	c7 44 24 08 4b 96 02 	movl   $0x2964b,0x8(%esp)
    4a02:	00 
    4a03:	c7 44 24 04 ff 00 00 	movl   $0xff,0x4(%esp)
    4a0a:	00 
    4a0b:	89 1c 24             	mov    %ebx,(%esp)
    4a0e:	e8 9d 2e 01 00       	call   178b0 <snprintf>
    4a13:	a1 c0 c9 03 00       	mov    0x3c9c0,%eax
    4a18:	8d 95 e8 fe ff ff    	lea    -0x118(%ebp),%edx
    4a1e:	89 44 24 14          	mov    %eax,0x14(%esp)
    4a22:	a1 b8 c9 03 00       	mov    0x3c9b8,%eax
    4a27:	89 14 24             	mov    %edx,(%esp)
    4a2a:	89 44 24 10          	mov    %eax,0x10(%esp)
    4a2e:	c7 44 24 0c dd 95 02 	movl   $0x295dd,0xc(%esp)
    4a35:	00 
    4a36:	c7 44 24 08 59 96 02 	movl   $0x29659,0x8(%esp)
    4a3d:	00 
    4a3e:	c7 44 24 04 ff 00 00 	movl   $0xff,0x4(%esp)
    4a45:	00 
    4a46:	89 95 58 fc ff ff    	mov    %edx,-0x3a8(%ebp)
    4a4c:	e8 5f 2e 01 00       	call   178b0 <snprintf>
    4a51:	a1 c0 c9 03 00       	mov    0x3c9c0,%eax
    4a56:	89 1c 24             	mov    %ebx,(%esp)
    4a59:	40                   	inc    %eax
    4a5a:	a3 c0 c9 03 00       	mov    %eax,0x3c9c0
    4a5f:	8d 46 08             	lea    0x8(%esi),%eax
    4a62:	89 44 24 04          	mov    %eax,0x4(%esp)
    4a66:	e8 15 8b 00 00       	call   d580 <loc_service_register>
    4a6b:	8b 95 58 fc ff ff    	mov    -0x3a8(%ebp),%edx
    4a71:	85 c0                	test   %eax,%eax
    4a73:	0f 85 34 01 00 00    	jne    4bad <client_connection+0x103d>
    4a79:	8d 46 0c             	lea    0xc(%esi),%eax
    4a7c:	89 14 24             	mov    %edx,(%esp)
    4a7f:	89 44 24 04          	mov    %eax,0x4(%esp)
    4a83:	e8 f8 8a 00 00       	call   d580 <loc_service_register>
    4a88:	85 c0                	test   %eax,%eax
    4a8a:	0f 85 12 01 00 00    	jne    4ba2 <client_connection+0x1032>
    4a90:	a1 7c c5 02 00       	mov    0x2c57c,%eax
    4a95:	c7 06 78 c5 02 00    	movl   $0x2c578,(%esi)
    4a9b:	3d 78 c5 02 00       	cmp    $0x2c578,%eax
    4aa0:	89 46 04             	mov    %eax,0x4(%esi)
    4aa3:	0f 95 c2             	setne  %dl
    4aa6:	81 e2 ff 00 00 00    	and    $0xff,%edx
    4aac:	89 30                	mov    %esi,(%eax)
    4aae:	f7 da                	neg    %edx
    4ab0:	21 c2                	and    %eax,%edx
    4ab2:	c7 04 24 24 00 00 00 	movl   $0x24,(%esp)
    4ab9:	89 35 7c c5 02 00    	mov    %esi,0x2c57c
    4abf:	89 95 58 fc ff ff    	mov    %edx,-0x3a8(%ebp)
    4ac5:	e8 76 7f 01 00       	call   1ca40 <malloc>
    4aca:	89 c1                	mov    %eax,%ecx
    4acc:	85 c0                	test   %eax,%eax
    4ace:	0f 84 e8 01 00 00    	je     4cbc <client_connection+0x114c>
    4ad4:	c7 00 00 00 00 00    	movl   $0x0,(%eax)
    4ada:	c7 40 04 00 00 00 00 	movl   $0x0,0x4(%eax)
    4ae1:	c7 40 08 04 00 00 00 	movl   $0x4,0x8(%eax)
    4ae8:	8b 46 0c             	mov    0xc(%esi),%eax
    4aeb:	89 44 24 0c          	mov    %eax,0xc(%esp)
    4aef:	8b 46 08             	mov    0x8(%esi),%eax
    4af2:	c7 44 24 04 00 00 00 	movl   $0x0,0x4(%esp)
    4af9:	00 
    4afa:	89 44 24 08          	mov    %eax,0x8(%esp)
    4afe:	89 3c 24             	mov    %edi,(%esp)
    4b01:	89 8d 48 fc ff ff    	mov    %ecx,-0x3b8(%ebp)
    4b07:	e8 f4 aa 01 00       	call   1f600 <async_answer_2>
    4b0c:	c7 04 24 68 c5 02 00 	movl   $0x2c568,(%esp)
    4b13:	e8 68 e9 00 00       	call   13480 <fibril_mutex_unlock>
    4b18:	8b 95 58 fc ff ff    	mov    -0x3a8(%ebp),%edx
    4b1e:	85 d2                	test   %edx,%edx
    4b20:	0f 84 cd f0 ff ff    	je     3bf3 <client_connection+0x83>
    4b26:	c7 04 24 68 c5 02 00 	movl   $0x2c568,(%esp)
    4b2d:	e8 2e e8 00 00       	call   13360 <fibril_mutex_lock>
    4b32:	8b 95 58 fc ff ff    	mov    -0x3a8(%ebp),%edx
    4b38:	8b 1d 7c c5 02 00    	mov    0x2c57c,%ebx
    4b3e:	8d 72 10             	lea    0x10(%edx),%esi
    4b41:	89 d7                	mov    %edx,%edi
    4b43:	81 fb 78 c5 02 00    	cmp    $0x2c578,%ebx
    4b49:	8b 8d 48 fc ff ff    	mov    -0x3b8(%ebp),%ecx
    4b4f:	0f 84 af 01 00 00    	je     4d04 <client_connection+0x1194>
    4b55:	39 df                	cmp    %ebx,%edi
    4b57:	0f 84 42 01 00 00    	je     4c9f <client_connection+0x112f>
    4b5d:	8b 5b 04             	mov    0x4(%ebx),%ebx
    4b60:	81 fb 78 c5 02 00    	cmp    $0x2c578,%ebx
    4b66:	75 ed                	jne    4b55 <client_connection+0xfe5>
    4b68:	c7 04 24 68 c5 02 00 	movl   $0x2c568,(%esp)
    4b6f:	e8 0c e9 00 00       	call   13480 <fibril_mutex_unlock>
    4b74:	e9 7a f0 ff ff       	jmp    3bf3 <client_connection+0x83>
    4b79:	89 44 24 04          	mov    %eax,0x4(%esp)
    4b7d:	89 14 24             	mov    %edx,(%esp)
    4b80:	89 85 5c fc ff ff    	mov    %eax,-0x3a4(%ebp)
    4b86:	89 95 58 fc ff ff    	mov    %edx,-0x3a8(%ebp)
    4b8c:	e8 bf e6 01 00       	call   23250 <prodcons_produce>
    4b91:	8b 95 58 fc ff ff    	mov    -0x3a8(%ebp),%edx
    4b97:	8b 85 5c fc ff ff    	mov    -0x3a4(%ebp),%eax
    4b9d:	e9 de fc ff ff       	jmp    4880 <client_connection+0xd10>
    4ba2:	8b 46 08             	mov    0x8(%esi),%eax
    4ba5:	89 04 24             	mov    %eax,(%esp)
    4ba8:	e8 a3 8b 00 00       	call   d750 <loc_service_unregister>
    4bad:	8b 86 a4 00 00 00    	mov    0xa4(%esi),%eax
    4bb3:	85 c0                	test   %eax,%eax
    4bb5:	74 08                	je     4bbf <client_connection+0x104f>
    4bb7:	89 04 24             	mov    %eax,(%esp)
    4bba:	e8 d1 32 00 00       	call   7e90 <surface_destroy>
    4bbf:	89 34 24             	mov    %esi,(%esp)
    4bc2:	e8 89 7f 01 00       	call   1cb50 <free>
    4bc7:	c7 44 24 0c 00 00 00 	movl   $0x0,0xc(%esp)
    4bce:	00 
    4bcf:	c7 44 24 08 00 00 00 	movl   $0x0,0x8(%esp)
    4bd6:	00 
    4bd7:	c7 44 24 04 f2 ff ff 	movl   $0xfffffff2,0x4(%esp)
    4bde:	ff 
    4bdf:	89 3c 24             	mov    %edi,(%esp)
    4be2:	e8 19 aa 01 00       	call   1f600 <async_answer_2>
    4be7:	e9 07 f0 ff ff       	jmp    3bf3 <client_connection+0x83>
    4bec:	8b 85 78 fc ff ff    	mov    -0x388(%ebp),%eax
    4bf2:	e9 1f fa ff ff       	jmp    4616 <client_connection+0xaa6>
    4bf7:	8b 85 80 fc ff ff    	mov    -0x380(%ebp),%eax
    4bfd:	e9 df f9 ff ff       	jmp    45e1 <client_connection+0xa71>
    4c02:	8b 8d 88 fc ff ff    	mov    -0x378(%ebp),%ecx
    4c08:	e9 c8 f9 ff ff       	jmp    45d5 <client_connection+0xa65>
    4c0d:	8b 95 80 fc ff ff    	mov    -0x380(%ebp),%edx
    4c13:	e9 b1 f9 ff ff       	jmp    45c9 <client_connection+0xa59>
    4c18:	8b b5 88 fc ff ff    	mov    -0x378(%ebp),%esi
    4c1e:	e9 98 f9 ff ff       	jmp    45bb <client_connection+0xa4b>
    4c23:	89 d0                	mov    %edx,%eax
    4c25:	e9 85 f9 ff ff       	jmp    45af <client_connection+0xa3f>
    4c2a:	8b 8d 74 fc ff ff    	mov    -0x38c(%ebp),%ecx
    4c30:	e9 72 f9 ff ff       	jmp    45a7 <client_connection+0xa37>
    4c35:	89 d7                	mov    %edx,%edi
    4c37:	e9 59 f9 ff ff       	jmp    4595 <client_connection+0xa25>
    4c3c:	8b b5 60 fc ff ff    	mov    -0x3a0(%ebp),%esi
    4c42:	e9 44 f9 ff ff       	jmp    458b <client_connection+0xa1b>
    4c47:	8b bd 78 fc ff ff    	mov    -0x388(%ebp),%edi
    4c4d:	e9 a9 f9 ff ff       	jmp    45fb <client_connection+0xa8b>
    4c52:	8b b5 7c fc ff ff    	mov    -0x384(%ebp),%esi
    4c58:	e9 90 f9 ff ff       	jmp    45ed <client_connection+0xa7d>
    4c5d:	8b 8d 7c fc ff ff    	mov    -0x384(%ebp),%ecx
    4c63:	e9 9f f9 ff ff       	jmp    4607 <client_connection+0xa97>
    4c68:	89 c8                	mov    %ecx,%eax
    4c6a:	e9 a0 f3 ff ff       	jmp    400f <client_connection+0x49f>
    4c6f:	89 c2                	mov    %eax,%edx
    4c71:	e9 7f f3 ff ff       	jmp    3ff5 <client_connection+0x485>
    4c76:	8b 85 b4 fc ff ff    	mov    -0x34c(%ebp),%eax
    4c7c:	89 04 24             	mov    %eax,(%esp)
    4c7f:	e8 3c 5b 00 00       	call   a7c0 <as_area_destroy>
    4c84:	8b 85 94 fc ff ff    	mov    -0x36c(%ebp),%eax
    4c8a:	c7 44 24 04 fe ff ff 	movl   $0xfffffffe,0x4(%esp)
    4c91:	ff 
    4c92:	89 04 24             	mov    %eax,(%esp)
    4c95:	e8 e6 a8 01 00       	call   1f580 <async_answer_0>
    4c9a:	e9 e9 ef ff ff       	jmp    3c88 <client_connection+0x118>
    4c9f:	89 4c 24 04          	mov    %ecx,0x4(%esp)
    4ca3:	89 34 24             	mov    %esi,(%esp)
    4ca6:	89 8d 48 fc ff ff    	mov    %ecx,-0x3b8(%ebp)
    4cac:	e8 9f e5 01 00       	call   23250 <prodcons_produce>
    4cb1:	8b 8d 48 fc ff ff    	mov    -0x3b8(%ebp),%ecx
    4cb7:	e9 a1 fe ff ff       	jmp    4b5d <client_connection+0xfed>
    4cbc:	8b 46 0c             	mov    0xc(%esi),%eax
    4cbf:	89 44 24 0c          	mov    %eax,0xc(%esp)
    4cc3:	8b 46 08             	mov    0x8(%esi),%eax
    4cc6:	c7 44 24 04 00 00 00 	movl   $0x0,0x4(%esp)
    4ccd:	00 
    4cce:	89 44 24 08          	mov    %eax,0x8(%esp)
    4cd2:	89 3c 24             	mov    %edi,(%esp)
    4cd5:	e8 26 a9 01 00       	call   1f600 <async_answer_2>
    4cda:	e9 89 fe ff ff       	jmp    4b68 <client_connection+0xff8>
    4cdf:	c7 44 24 0c 00 00 00 	movl   $0x0,0xc(%esp)
    4ce6:	00 
    4ce7:	c7 44 24 08 00 00 00 	movl   $0x0,0x8(%esp)
    4cee:	00 
    4cef:	c7 44 24 04 fe ff ff 	movl   $0xfffffffe,0x4(%esp)
    4cf6:	ff 
    4cf7:	89 3c 24             	mov    %edi,(%esp)
    4cfa:	e8 01 a9 01 00       	call   1f600 <async_answer_2>
    4cff:	e9 ef ee ff ff       	jmp    3bf3 <client_connection+0x83>
    4d04:	89 0c 24             	mov    %ecx,(%esp)
    4d07:	e8 44 7e 01 00       	call   1cb50 <free>
    4d0c:	e9 57 fe ff ff       	jmp    4b68 <client_connection+0xff8>
    4d11:	eb 0d                	jmp    4d20 <comp_mouse_button>
    4d13:	90                   	nop
    4d14:	90                   	nop
    4d15:	90                   	nop
    4d16:	90                   	nop
    4d17:	90                   	nop
    4d18:	90                   	nop
    4d19:	90                   	nop
    4d1a:	90                   	nop
    4d1b:	90                   	nop
    4d1c:	90                   	nop
    4d1d:	90                   	nop
    4d1e:	90                   	nop
    4d1f:	90                   	nop

00004d20 <comp_mouse_button>:
    4d20:	55                   	push   %ebp
    4d21:	89 e5                	mov    %esp,%ebp
    4d23:	57                   	push   %edi
    4d24:	56                   	push   %esi
    4d25:	53                   	push   %ebx
    4d26:	81 ec fc 01 00 00    	sub    $0x1fc,%esp
    4d2c:	8b 45 08             	mov    0x8(%ebp),%eax
    4d2f:	8b 40 08             	mov    0x8(%eax),%eax
    4d32:	c7 04 24 68 c5 02 00 	movl   $0x2c568,(%esp)
    4d39:	89 85 a4 fe ff ff    	mov    %eax,-0x15c(%ebp)
    4d3f:	e8 1c e6 00 00       	call   13360 <fibril_mutex_lock>
    4d44:	c7 04 24 80 c5 02 00 	movl   $0x2c580,(%esp)
    4d4b:	e8 10 e6 00 00       	call   13360 <fibril_mutex_lock>
    4d50:	8b 1d 7c c5 02 00    	mov    0x2c57c,%ebx
    4d56:	c7 85 94 fe ff ff 00 	movl   $0x0,-0x16c(%ebp)
    4d5d:	00 00 00 
    4d60:	c7 85 98 fe ff ff 00 	movl   $0x0,-0x168(%ebp)
    4d67:	00 00 00 
    4d6a:	81 fb 78 c5 02 00    	cmp    $0x2c578,%ebx
    4d70:	0f 84 e2 04 00 00    	je     5258 <comp_mouse_button+0x538>
    4d76:	66 90                	xchg   %ax,%ax
    4d78:	8b 83 a4 00 00 00    	mov    0xa4(%ebx),%eax
    4d7e:	85 c0                	test   %eax,%eax
    4d80:	0f 84 32 03 00 00    	je     50b8 <comp_mouse_button+0x398>
    4d86:	8d 95 c4 fe ff ff    	lea    -0x13c(%ebp),%edx
    4d8c:	8d 8d c0 fe ff ff    	lea    -0x140(%ebp),%ecx
    4d92:	89 54 24 08          	mov    %edx,0x8(%esp)
    4d96:	89 4c 24 04          	mov    %ecx,0x4(%esp)
    4d9a:	89 04 24             	mov    %eax,(%esp)
    4d9d:	8d bd 58 ff ff ff    	lea    -0xa8(%ebp),%edi
    4da3:	e8 58 31 00 00       	call   7f00 <surface_get_resolution>
    4da8:	8b 8d a4 fe ff ff    	mov    -0x15c(%ebp),%ecx
    4dae:	8b 95 c4 fe ff ff    	mov    -0x13c(%ebp),%edx
    4db4:	8b 41 14             	mov    0x14(%ecx),%eax
    4db7:	89 95 9c fe ff ff    	mov    %edx,-0x164(%ebp)
    4dbd:	8b 95 c0 fe ff ff    	mov    -0x140(%ebp),%edx
    4dc3:	89 95 a0 fe ff ff    	mov    %edx,-0x160(%ebp)
    4dc9:	8d 73 30             	lea    0x30(%ebx),%esi
    4dcc:	8b 51 10             	mov    0x10(%ecx),%edx
    4dcf:	b9 12 00 00 00       	mov    $0x12,%ecx
    4dd4:	f3 a5                	rep movsl %ds:(%esi),%es:(%edi)
    4dd6:	31 ff                	xor    %edi,%edi
    4dd8:	89 95 b0 fe ff ff    	mov    %edx,-0x150(%ebp)
    4dde:	89 bd b4 fe ff ff    	mov    %edi,-0x14c(%ebp)
    4de4:	31 d2                	xor    %edx,%edx
    4de6:	df ad b0 fe ff ff    	fildll -0x150(%ebp)
    4dec:	89 85 b0 fe ff ff    	mov    %eax,-0x150(%ebp)
    4df2:	89 95 b4 fe ff ff    	mov    %edx,-0x14c(%ebp)
    4df8:	dd 9d 08 ff ff ff    	fstpl  -0xf8(%ebp)
    4dfe:	8d b5 58 ff ff ff    	lea    -0xa8(%ebp),%esi
    4e04:	df ad b0 fe ff ff    	fildll -0x150(%ebp)
    4e0a:	89 34 24             	mov    %esi,(%esp)
    4e0d:	dd 9d 10 ff ff ff    	fstpl  -0xf0(%ebp)
    4e13:	e8 58 50 00 00       	call   9e70 <transform_invert>
    4e18:	8d 85 10 ff ff ff    	lea    -0xf0(%ebp),%eax
    4e1e:	89 44 24 08          	mov    %eax,0x8(%esp)
    4e22:	8d 85 08 ff ff ff    	lea    -0xf8(%ebp),%eax
    4e28:	89 44 24 04          	mov    %eax,0x4(%esp)
    4e2c:	89 34 24             	mov    %esi,(%esp)
    4e2f:	e8 1c 57 00 00       	call   a550 <transform_apply_affine>
    4e34:	dd 85 08 ff ff ff    	fldl   -0xf8(%ebp)
    4e3a:	d9 ee                	fldz   
    4e3c:	dd e1                	fucom  %st(1)
    4e3e:	df e0                	fnstsw %ax
    4e40:	f6 c4 45             	test   $0x45,%ah
    4e43:	0f 84 5f 02 00 00    	je     50a8 <comp_mouse_button+0x388>
    4e49:	dd 85 10 ff ff ff    	fldl   -0xf0(%ebp)
    4e4f:	d9 c9                	fxch   %st(1)
    4e51:	dd e9                	fucomp %st(1)
    4e53:	df e0                	fnstsw %ax
    4e55:	f6 c4 45             	test   $0x45,%ah
    4e58:	0f 84 52 02 00 00    	je     50b0 <comp_mouse_button+0x390>
    4e5e:	d9 05 f8 98 02 00    	flds   0x298f8
    4e64:	d9 bd ae fe ff ff    	fnstcw -0x152(%ebp)
    4e6a:	dc c2                	fadd   %st,%st(2)
    4e6c:	d9 ca                	fxch   %st(2)
    4e6e:	66 8b 85 ae fe ff ff 	mov    -0x152(%ebp),%ax
    4e75:	b4 0c                	mov    $0xc,%ah
    4e77:	66 89 85 ac fe ff ff 	mov    %ax,-0x154(%ebp)
    4e7e:	d9 ad ac fe ff ff    	fldcw  -0x154(%ebp)
    4e84:	df bd b0 fe ff ff    	fistpll -0x150(%ebp)
    4e8a:	d9 ad ae fe ff ff    	fldcw  -0x152(%ebp)
    4e90:	de c1                	faddp  %st,%st(1)
    4e92:	8b 85 b0 fe ff ff    	mov    -0x150(%ebp),%eax
    4e98:	89 85 98 fe ff ff    	mov    %eax,-0x168(%ebp)
    4e9e:	d9 ad ac fe ff ff    	fldcw  -0x154(%ebp)
    4ea4:	df bd b0 fe ff ff    	fistpll -0x150(%ebp)
    4eaa:	d9 ad ae fe ff ff    	fldcw  -0x152(%ebp)
    4eb0:	8b 85 b0 fe ff ff    	mov    -0x150(%ebp),%eax
    4eb6:	89 85 94 fe ff ff    	mov    %eax,-0x16c(%ebp)
    4ebc:	8b 85 98 fe ff ff    	mov    -0x168(%ebp),%eax
    4ec2:	39 85 a0 fe ff ff    	cmp    %eax,-0x160(%ebp)
    4ec8:	0f 86 ea 01 00 00    	jbe    50b8 <comp_mouse_button+0x398>
    4ece:	8b 95 94 fe ff ff    	mov    -0x16c(%ebp),%edx
    4ed4:	39 95 9c fe ff ff    	cmp    %edx,-0x164(%ebp)
    4eda:	0f 86 d8 01 00 00    	jbe    50b8 <comp_mouse_button+0x398>
    4ee0:	c6 85 9c fe ff ff 01 	movb   $0x1,-0x164(%ebp)
    4ee7:	8b 0d 7c c5 02 00    	mov    0x2c57c,%ecx
    4eed:	89 8d a0 fe ff ff    	mov    %ecx,-0x160(%ebp)
    4ef3:	81 f9 78 c5 02 00    	cmp    $0x2c578,%ecx
    4ef9:	0f 84 59 03 00 00    	je     5258 <comp_mouse_button+0x538>
    4eff:	85 c9                	test   %ecx,%ecx
    4f01:	0f 84 51 03 00 00    	je     5258 <comp_mouse_button+0x538>
    4f07:	8b 45 10             	mov    0x10(%ebp),%eax
    4f0a:	c7 85 c8 fe ff ff 00 	movl   $0x0,-0x138(%ebp)
    4f11:	00 00 00 
    4f14:	c7 85 cc fe ff ff 00 	movl   $0x0,-0x134(%ebp)
    4f1b:	00 00 00 
    4f1e:	85 c0                	test   %eax,%eax
    4f20:	0f 84 aa 01 00 00    	je     50d0 <comp_mouse_button+0x3b0>
    4f26:	8b 8d a4 fe ff ff    	mov    -0x15c(%ebp),%ecx
    4f2c:	39 9d a0 fe ff ff    	cmp    %ebx,-0x160(%ebp)
    4f32:	8b 41 10             	mov    0x10(%ecx),%eax
    4f35:	8b 51 14             	mov    0x14(%ecx),%edx
    4f38:	89 41 1c             	mov    %eax,0x1c(%ecx)
    4f3b:	8b 45 0c             	mov    0xc(%ebp),%eax
    4f3e:	89 51 20             	mov    %edx,0x20(%ecx)
    4f41:	89 41 18             	mov    %eax,0x18(%ecx)
    4f44:	c6 41 30 01          	movb   $0x1,0x30(%ecx)
    4f48:	0f 84 ca 07 00 00    	je     5718 <comp_mouse_button+0x9f8>
    4f4e:	80 bd 9c fe ff ff 00 	cmpb   $0x0,-0x164(%ebp)
    4f55:	0f 84 85 01 00 00    	je     50e0 <comp_mouse_button+0x3c0>
    4f5b:	8b 13                	mov    (%ebx),%edx
    4f5d:	85 d2                	test   %edx,%edx
    4f5f:	74 0e                	je     4f6f <comp_mouse_button+0x24f>
    4f61:	8b 43 04             	mov    0x4(%ebx),%eax
    4f64:	85 c0                	test   %eax,%eax
    4f66:	74 07                	je     4f6f <comp_mouse_button+0x24f>
    4f68:	89 10                	mov    %edx,(%eax)
    4f6a:	8b 13                	mov    (%ebx),%edx
    4f6c:	89 42 04             	mov    %eax,0x4(%edx)
    4f6f:	c7 43 04 00 00 00 00 	movl   $0x0,0x4(%ebx)
    4f76:	c7 03 78 c5 02 00    	movl   $0x2c578,(%ebx)
    4f7c:	a1 7c c5 02 00       	mov    0x2c57c,%eax
    4f81:	89 43 04             	mov    %eax,0x4(%ebx)
    4f84:	a1 7c c5 02 00       	mov    0x2c57c,%eax
    4f89:	89 1d 7c c5 02 00    	mov    %ebx,0x2c57c
    4f8f:	89 18                	mov    %ebx,(%eax)
    4f91:	c7 04 24 24 00 00 00 	movl   $0x24,(%esp)
    4f98:	e8 a3 7a 01 00       	call   1ca40 <malloc>
    4f9d:	89 85 9c fe ff ff    	mov    %eax,-0x164(%ebp)
    4fa3:	85 c0                	test   %eax,%eax
    4fa5:	74 14                	je     4fbb <comp_mouse_button+0x29b>
    4fa7:	c7 00 00 00 00 00    	movl   $0x0,(%eax)
    4fad:	c7 40 04 00 00 00 00 	movl   $0x0,0x4(%eax)
    4fb4:	c7 40 08 04 00 00 00 	movl   $0x4,0x8(%eax)
    4fbb:	8d 85 cc fe ff ff    	lea    -0x134(%ebp),%eax
    4fc1:	8d 73 30             	lea    0x30(%ebx),%esi
    4fc4:	89 44 24 64          	mov    %eax,0x64(%esp)
    4fc8:	8d 85 c8 fe ff ff    	lea    -0x138(%ebp),%eax
    4fce:	89 44 24 60          	mov    %eax,0x60(%esp)
    4fd2:	8d 85 04 ff ff ff    	lea    -0xfc(%ebp),%eax
    4fd8:	89 44 24 5c          	mov    %eax,0x5c(%esp)
    4fdc:	8d 85 00 ff ff ff    	lea    -0x100(%ebp),%eax
    4fe2:	89 44 24 58          	mov    %eax,0x58(%esp)
    4fe6:	8d 7c 24 10          	lea    0x10(%esp),%edi
    4fea:	b9 12 00 00 00       	mov    $0x12,%ecx
    4fef:	31 d2                	xor    %edx,%edx
    4ff1:	f3 a5                	rep movsl %ds:(%esi),%es:(%edi)
    4ff3:	8b 85 c4 fe ff ff    	mov    -0x13c(%ebp),%eax
    4ff9:	89 95 b4 fe ff ff    	mov    %edx,-0x14c(%ebp)
    4fff:	89 85 b0 fe ff ff    	mov    %eax,-0x150(%ebp)
    5005:	31 d2                	xor    %edx,%edx
    5007:	df ad b0 fe ff ff    	fildll -0x150(%ebp)
    500d:	8b 85 c0 fe ff ff    	mov    -0x140(%ebp),%eax
    5013:	89 95 b4 fe ff ff    	mov    %edx,-0x14c(%ebp)
    5019:	dd 5c 24 08          	fstpl  0x8(%esp)
    501d:	89 85 b0 fe ff ff    	mov    %eax,-0x150(%ebp)
    5023:	df ad b0 fe ff ff    	fildll -0x150(%ebp)
    5029:	dd 1c 24             	fstpl  (%esp)
    502c:	e8 7f c2 ff ff       	call   12b0 <comp_coord_bounding_rect.constprop.8>
    5031:	8b bd 9c fe ff ff    	mov    -0x164(%ebp),%edi
    5037:	85 ff                	test   %edi,%edi
    5039:	8b 9d a0 fe ff ff    	mov    -0x160(%ebp),%ebx
    503f:	0f 95 c2             	setne  %dl
    5042:	89 d7                	mov    %edx,%edi
    5044:	c7 04 24 24 00 00 00 	movl   $0x24,(%esp)
    504b:	e8 f0 79 01 00       	call   1ca40 <malloc>
    5050:	89 c6                	mov    %eax,%esi
    5052:	85 c0                	test   %eax,%eax
    5054:	74 3f                	je     5095 <comp_mouse_button+0x375>
    5056:	8b 8d a4 fe ff ff    	mov    -0x15c(%ebp),%ecx
    505c:	c7 00 00 00 00 00    	movl   $0x0,(%eax)
    5062:	c7 40 04 00 00 00 00 	movl   $0x0,0x4(%eax)
    5069:	c7 40 08 01 00 00 00 	movl   $0x1,0x8(%eax)
    5070:	8b 41 08             	mov    0x8(%ecx),%eax
    5073:	8b 95 98 fe ff ff    	mov    -0x168(%ebp),%edx
    5079:	89 46 0c             	mov    %eax,0xc(%esi)
    507c:	8b 8d 94 fe ff ff    	mov    -0x16c(%ebp),%ecx
    5082:	8b 45 0c             	mov    0xc(%ebp),%eax
    5085:	c7 46 10 01 00 00 00 	movl   $0x1,0x10(%esi)
    508c:	89 46 14             	mov    %eax,0x14(%esi)
    508f:	89 56 18             	mov    %edx,0x18(%esi)
    5092:	89 4e 1c             	mov    %ecx,0x1c(%esi)
    5095:	8b 85 a4 fe ff ff    	mov    -0x15c(%ebp),%eax
    509b:	c7 40 2c 00 00 00 00 	movl   $0x0,0x2c(%eax)
    50a2:	eb 4c                	jmp    50f0 <comp_mouse_button+0x3d0>
    50a4:	8d 74 26 00          	lea    0x0(%esi,%eiz,1),%esi
    50a8:	dd d8                	fstp   %st(0)
    50aa:	dd d8                	fstp   %st(0)
    50ac:	eb 0a                	jmp    50b8 <comp_mouse_button+0x398>
    50ae:	66 90                	xchg   %ax,%ax
    50b0:	dd d8                	fstp   %st(0)
    50b2:	dd d8                	fstp   %st(0)
    50b4:	8d 74 26 00          	lea    0x0(%esi,%eiz,1),%esi
    50b8:	8b 43 04             	mov    0x4(%ebx),%eax
    50bb:	3d 78 c5 02 00       	cmp    $0x2c578,%eax
    50c0:	0f 84 32 01 00 00    	je     51f8 <comp_mouse_button+0x4d8>
    50c6:	89 c3                	mov    %eax,%ebx
    50c8:	e9 ab fc ff ff       	jmp    4d78 <comp_mouse_button+0x58>
    50cd:	8d 76 00             	lea    0x0(%esi),%esi
    50d0:	8b 95 a4 fe ff ff    	mov    -0x15c(%ebp),%edx
    50d6:	80 7a 30 00          	cmpb   $0x0,0x30(%edx)
    50da:	0f 85 a0 01 00 00    	jne    5280 <comp_mouse_button+0x560>
    50e0:	31 ff                	xor    %edi,%edi
    50e2:	31 db                	xor    %ebx,%ebx
    50e4:	c7 85 9c fe ff ff 00 	movl   $0x0,-0x164(%ebp)
    50eb:	00 00 00 
    50ee:	31 f6                	xor    %esi,%esi
    50f0:	c7 04 24 80 c5 02 00 	movl   $0x2c580,(%esp)
    50f7:	e8 84 e3 00 00       	call   13480 <fibril_mutex_unlock>
    50fc:	c7 04 24 68 c5 02 00 	movl   $0x2c568,(%esp)
    5103:	e8 78 e3 00 00       	call   13480 <fibril_mutex_unlock>
    5108:	8b 85 24 ff ff ff    	mov    -0xdc(%ebp),%eax
    510e:	89 04 24             	mov    %eax,(%esp)
    5111:	8b 8d 20 ff ff ff    	mov    -0xe0(%ebp),%ecx
    5117:	8b 95 1c ff ff ff    	mov    -0xe4(%ebp),%edx
    511d:	8b 85 18 ff ff ff    	mov    -0xe8(%ebp),%eax
    5123:	e8 b8 c6 ff ff       	call   17e0 <comp_damage>
    5128:	8b 85 34 ff ff ff    	mov    -0xcc(%ebp),%eax
    512e:	89 04 24             	mov    %eax,(%esp)
    5131:	8b 8d 30 ff ff ff    	mov    -0xd0(%ebp),%ecx
    5137:	8b 95 2c ff ff ff    	mov    -0xd4(%ebp),%edx
    513d:	8b 85 28 ff ff ff    	mov    -0xd8(%ebp),%eax
    5143:	e8 98 c6 ff ff       	call   17e0 <comp_damage>
    5148:	8b 85 44 ff ff ff    	mov    -0xbc(%ebp),%eax
    514e:	89 04 24             	mov    %eax,(%esp)
    5151:	8b 8d 40 ff ff ff    	mov    -0xc0(%ebp),%ecx
    5157:	8b 95 3c ff ff ff    	mov    -0xc4(%ebp),%edx
    515d:	8b 85 38 ff ff ff    	mov    -0xc8(%ebp),%eax
    5163:	e8 78 c6 ff ff       	call   17e0 <comp_damage>
    5168:	8b 85 54 ff ff ff    	mov    -0xac(%ebp),%eax
    516e:	89 04 24             	mov    %eax,(%esp)
    5171:	8b 8d 50 ff ff ff    	mov    -0xb0(%ebp),%ecx
    5177:	8b 95 4c ff ff ff    	mov    -0xb4(%ebp),%edx
    517d:	8b 85 48 ff ff ff    	mov    -0xb8(%ebp),%eax
    5183:	e8 58 c6 ff ff       	call   17e0 <comp_damage>
    5188:	8b 8d c8 fe ff ff    	mov    -0x138(%ebp),%ecx
    518e:	85 c9                	test   %ecx,%ecx
    5190:	74 0e                	je     51a0 <comp_mouse_button+0x480>
    5192:	8b 85 cc fe ff ff    	mov    -0x134(%ebp),%eax
    5198:	85 c0                	test   %eax,%eax
    519a:	0f 85 d0 05 00 00    	jne    5770 <comp_mouse_button+0xa50>
    51a0:	89 fa                	mov    %edi,%edx
    51a2:	84 d2                	test   %dl,%dl
    51a4:	75 62                	jne    5208 <comp_mouse_button+0x4e8>
    51a6:	85 f6                	test   %esi,%esi
    51a8:	74 3f                	je     51e9 <comp_mouse_button+0x4c9>
    51aa:	c7 04 24 68 c5 02 00 	movl   $0x2c568,(%esp)
    51b1:	e8 aa e1 00 00       	call   13360 <fibril_mutex_lock>
    51b6:	a1 7c c5 02 00       	mov    0x2c57c,%eax
    51bb:	3d 78 c5 02 00       	cmp    $0x2c578,%eax
    51c0:	0f 84 9a 05 00 00    	je     5760 <comp_mouse_button+0xa40>
    51c6:	85 c0                	test   %eax,%eax
    51c8:	0f 84 92 05 00 00    	je     5760 <comp_mouse_button+0xa40>
    51ce:	83 c0 10             	add    $0x10,%eax
    51d1:	89 74 24 04          	mov    %esi,0x4(%esp)
    51d5:	89 04 24             	mov    %eax,(%esp)
    51d8:	e8 73 e0 01 00       	call   23250 <prodcons_produce>
    51dd:	c7 04 24 68 c5 02 00 	movl   $0x2c568,(%esp)
    51e4:	e8 97 e2 00 00       	call   13480 <fibril_mutex_unlock>
    51e9:	81 c4 fc 01 00 00    	add    $0x1fc,%esp
    51ef:	31 c0                	xor    %eax,%eax
    51f1:	5b                   	pop    %ebx
    51f2:	5e                   	pop    %esi
    51f3:	5f                   	pop    %edi
    51f4:	5d                   	pop    %ebp
    51f5:	c3                   	ret    
    51f6:	66 90                	xchg   %ax,%ax
    51f8:	c6 85 9c fe ff ff 00 	movb   $0x0,-0x164(%ebp)
    51ff:	e9 e3 fc ff ff       	jmp    4ee7 <comp_mouse_button+0x1c7>
    5204:	8d 74 26 00          	lea    0x0(%esi,%eiz,1),%esi
    5208:	c7 04 24 68 c5 02 00 	movl   $0x2c568,(%esp)
    520f:	e8 4c e1 00 00       	call   13360 <fibril_mutex_lock>
    5214:	8b 3d 7c c5 02 00    	mov    0x2c57c,%edi
    521a:	8d 43 10             	lea    0x10(%ebx),%eax
    521d:	81 ff 78 c5 02 00    	cmp    $0x2c578,%edi
    5223:	0f 84 a8 06 00 00    	je     58d1 <comp_mouse_button+0xbb1>
    5229:	8d b4 26 00 00 00 00 	lea    0x0(%esi,%eiz,1),%esi
    5230:	39 fb                	cmp    %edi,%ebx
    5232:	0f 84 00 05 00 00    	je     5738 <comp_mouse_button+0xa18>
    5238:	8b 7f 04             	mov    0x4(%edi),%edi
    523b:	81 ff 78 c5 02 00    	cmp    $0x2c578,%edi
    5241:	75 ed                	jne    5230 <comp_mouse_button+0x510>
    5243:	c7 04 24 68 c5 02 00 	movl   $0x2c568,(%esp)
    524a:	e8 31 e2 00 00       	call   13480 <fibril_mutex_unlock>
    524f:	e9 52 ff ff ff       	jmp    51a6 <comp_mouse_button+0x486>
    5254:	8d 74 26 00          	lea    0x0(%esi,%eiz,1),%esi
    5258:	c7 04 24 80 c5 02 00 	movl   $0x2c580,(%esp)
    525f:	e8 1c e2 00 00       	call   13480 <fibril_mutex_unlock>
    5264:	c7 04 24 68 c5 02 00 	movl   $0x2c568,(%esp)
    526b:	e8 10 e2 00 00       	call   13480 <fibril_mutex_unlock>
    5270:	81 c4 fc 01 00 00    	add    $0x1fc,%esp
    5276:	31 c0                	xor    %eax,%eax
    5278:	5b                   	pop    %ebx
    5279:	5e                   	pop    %esi
    527a:	5f                   	pop    %edi
    527b:	5d                   	pop    %ebp
    527c:	c3                   	ret    
    527d:	8d 76 00             	lea    0x0(%esi),%esi
    5280:	8b 4a 18             	mov    0x18(%edx),%ecx
    5283:	8b 45 0c             	mov    0xc(%ebp),%eax
    5286:	89 8d 8c fe ff ff    	mov    %ecx,-0x174(%ebp)
    528c:	39 c1                	cmp    %eax,%ecx
    528e:	0f 85 4c fe ff ff    	jne    50e0 <comp_mouse_button+0x3c0>
    5294:	8b 72 2c             	mov    0x2c(%edx),%esi
    5297:	c6 42 30 00          	movb   $0x0,0x30(%edx)
    529b:	c7 85 d0 fe ff ff 00 	movl   $0x0,-0x130(%ebp)
    52a2:	00 00 00 
    52a5:	c7 85 d4 fe ff ff 00 	movl   $0x0,-0x12c(%ebp)
    52ac:	00 00 00 
    52af:	c7 85 d8 fe ff ff 00 	movl   $0x0,-0x128(%ebp)
    52b6:	00 00 00 
    52b9:	c7 85 dc fe ff ff 00 	movl   $0x0,-0x124(%ebp)
    52c0:	00 00 00 
    52c3:	85 f6                	test   %esi,%esi
    52c5:	0f 84 f7 03 00 00    	je     56c2 <comp_mouse_button+0x9a2>
    52cb:	8b 8a e8 00 00 00    	mov    0xe8(%edx),%ecx
    52d1:	85 c9                	test   %ecx,%ecx
    52d3:	74 3a                	je     530f <comp_mouse_button+0x5ef>
    52d5:	8d 85 48 ff ff ff    	lea    -0xb8(%ebp),%eax
    52db:	8d 95 18 ff ff ff    	lea    -0xe8(%ebp),%edx
    52e1:	89 44 24 04          	mov    %eax,0x4(%esp)
    52e5:	8d 85 38 ff ff ff    	lea    -0xc8(%ebp),%eax
    52eb:	89 04 24             	mov    %eax,(%esp)
    52ee:	8d 8d 28 ff ff ff    	lea    -0xd8(%ebp),%ecx
    52f4:	8b 85 a4 fe ff ff    	mov    -0x15c(%ebp),%eax
    52fa:	e8 81 d9 ff ff       	call   2c80 <comp_ghost_animate>
    52ff:	8b 95 a4 fe ff ff    	mov    -0x15c(%ebp),%edx
    5305:	c7 82 e8 00 00 00 00 	movl   $0x0,0xe8(%edx)
    530c:	00 00 00 
    530f:	8b 8d a4 fe ff ff    	mov    -0x15c(%ebp),%ecx
    5315:	8d 95 e4 fe ff ff    	lea    -0x11c(%ebp),%edx
    531b:	8b 41 2c             	mov    0x2c(%ecx),%eax
    531e:	8b 79 24             	mov    0x24(%ecx),%edi
    5321:	8b 71 28             	mov    0x28(%ecx),%esi
    5324:	c7 41 24 00 00 00 00 	movl   $0x0,0x24(%ecx)
    532b:	c7 41 28 00 00 00 00 	movl   $0x0,0x28(%ecx)
    5332:	89 54 24 08          	mov    %edx,0x8(%esp)
    5336:	8b 8d a0 fe ff ff    	mov    -0x160(%ebp),%ecx
    533c:	8d 95 e0 fe ff ff    	lea    -0x120(%ebp),%edx
    5342:	89 54 24 04          	mov    %edx,0x4(%esp)
    5346:	a8 30                	test   $0x30,%al
    5348:	8b 91 a4 00 00 00    	mov    0xa4(%ecx),%edx
    534e:	0f 95 85 93 fe ff ff 	setne  -0x16d(%ebp)
    5355:	89 14 24             	mov    %edx,(%esp)
    5358:	a8 0c                	test   $0xc,%al
    535a:	89 85 6c fe ff ff    	mov    %eax,-0x194(%ebp)
    5360:	0f 95 85 88 fe ff ff 	setne  -0x178(%ebp)
    5367:	e8 94 2b 00 00       	call   7f00 <surface_get_resolution>
    536c:	8b 85 6c fe ff ff    	mov    -0x194(%ebp),%eax
    5372:	a8 03                	test   $0x3,%al
    5374:	0f 85 6a 05 00 00    	jne    58e4 <comp_mouse_button+0xbc4>
    537a:	8a 95 88 fe ff ff    	mov    -0x178(%ebp),%dl
    5380:	0a 95 93 fe ff ff    	or     -0x16d(%ebp),%dl
    5386:	84 d2                	test   %dl,%dl
    5388:	0f 84 b7 06 00 00    	je     5a45 <comp_mouse_button+0xd25>
    538e:	89 bd a8 fe ff ff    	mov    %edi,-0x158(%ebp)
    5394:	8b 85 a0 fe ff ff    	mov    -0x160(%ebp),%eax
    539a:	db 85 a8 fe ff ff    	fildl  -0x158(%ebp)
    53a0:	89 b5 a8 fe ff ff    	mov    %esi,-0x158(%ebp)
    53a6:	dd 95 08 ff ff ff    	fstl   -0xf8(%ebp)
    53ac:	db 85 a8 fe ff ff    	fildl  -0x158(%ebp)
    53b2:	dd 95 10 ff ff ff    	fstl   -0xf0(%ebp)
    53b8:	dd 80 98 00 00 00    	fldl   0x98(%eax)
    53be:	dd 9d 70 fe ff ff    	fstpl  -0x190(%ebp)
    53c4:	d9 ee                	fldz   
    53c6:	dd 85 70 fe ff ff    	fldl   -0x190(%ebp)
    53cc:	da e9                	fucompp 
    53ce:	df e0                	fnstsw %ax
    53d0:	80 e4 45             	and    $0x45,%ah
    53d3:	80 fc 40             	cmp    $0x40,%ah
    53d6:	0f 85 9b 06 00 00    	jne    5a77 <comp_mouse_button+0xd57>
    53dc:	8b 95 a4 fe ff ff    	mov    -0x15c(%ebp),%edx
    53e2:	8b 42 2c             	mov    0x2c(%edx),%eax
    53e5:	a8 01                	test   $0x1,%al
    53e7:	74 06                	je     53ef <comp_mouse_button+0x6cf>
    53e9:	d9 c9                	fxch   %st(1)
    53eb:	d9 e0                	fchs   
    53ed:	eb 02                	jmp    53f1 <comp_mouse_button+0x6d1>
    53ef:	d9 c9                	fxch   %st(1)
    53f1:	dd 95 08 ff ff ff    	fstl   -0xf8(%ebp)
    53f7:	a8 02                	test   $0x2,%al
    53f9:	74 06                	je     5401 <comp_mouse_button+0x6e1>
    53fb:	d9 c9                	fxch   %st(1)
    53fd:	d9 e0                	fchs   
    53ff:	eb 02                	jmp    5403 <comp_mouse_button+0x6e3>
    5401:	d9 c9                	fxch   %st(1)
    5403:	dd 95 10 ff ff ff    	fstl   -0xf0(%ebp)
    5409:	8b 85 a4 fe ff ff    	mov    -0x15c(%ebp),%eax
    540f:	8b 95 e0 fe ff ff    	mov    -0x120(%ebp),%edx
    5415:	8b 48 2c             	mov    0x2c(%eax),%ecx
    5418:	89 95 88 fe ff ff    	mov    %edx,-0x178(%ebp)
    541e:	f6 c1 14             	test   $0x14,%cl
    5421:	74 76                	je     5499 <comp_mouse_button+0x779>
    5423:	8b 85 a0 fe ff ff    	mov    -0x160(%ebp),%eax
    5429:	dd 80 88 00 00 00    	fldl   0x88(%eax)
    542f:	89 d0                	mov    %edx,%eax
    5431:	31 d2                	xor    %edx,%edx
    5433:	48                   	dec    %eax
    5434:	89 95 b4 fe ff ff    	mov    %edx,-0x14c(%ebp)
    543a:	89 85 b0 fe ff ff    	mov    %eax,-0x150(%ebp)
    5440:	df ad b0 fe ff ff    	fildll -0x150(%ebp)
    5446:	d8 c9                	fmul   %st(1),%st
    5448:	de fb                	fdivrp %st,%st(3)
    544a:	d9 ca                	fxch   %st(2)
    544c:	d8 05 f4 98 02 00    	fadds  0x298f4
    5452:	d9 ee                	fldz   
    5454:	d9 c9                	fxch   %st(1)
    5456:	dd e1                	fucom  %st(1)
    5458:	df e0                	fnstsw %ax
    545a:	dd d9                	fstp   %st(1)
    545c:	f6 c4 45             	test   $0x45,%ah
    545f:	75 3c                	jne    549d <comp_mouse_button+0x77d>
    5461:	80 bd 93 fe ff ff 00 	cmpb   $0x0,-0x16d(%ebp)
    5468:	74 1d                	je     5487 <comp_mouse_button+0x767>
    546a:	dc ca                	fmul   %st,%st(2)
    546c:	d9 ca                	fxch   %st(2)
    546e:	8b 95 a0 fe ff ff    	mov    -0x160(%ebp),%edx
    5474:	8b 85 a4 fe ff ff    	mov    -0x15c(%ebp),%eax
    547a:	dd 9a 88 00 00 00    	fstpl  0x88(%edx)
    5480:	d9 c9                	fxch   %st(1)
    5482:	8b 48 2c             	mov    0x2c(%eax),%ecx
    5485:	eb 04                	jmp    548b <comp_mouse_button+0x76b>
    5487:	dd da                	fstp   %st(2)
    5489:	d9 c9                	fxch   %st(1)
    548b:	dc 0d c8 c9 03 00    	fmull  0x3c9c8
    5491:	dd 1d c8 c9 03 00    	fstpl  0x3c9c8
    5497:	eb 08                	jmp    54a1 <comp_mouse_button+0x781>
    5499:	dd d9                	fstp   %st(1)
    549b:	eb 04                	jmp    54a1 <comp_mouse_button+0x781>
    549d:	dd d8                	fstp   %st(0)
    549f:	dd d9                	fstp   %st(1)
    54a1:	8b 95 e4 fe ff ff    	mov    -0x11c(%ebp),%edx
    54a7:	83 e1 28             	and    $0x28,%ecx
    54aa:	74 63                	je     550f <comp_mouse_button+0x7ef>
    54ac:	8b 8d a0 fe ff ff    	mov    -0x160(%ebp),%ecx
    54b2:	31 ff                	xor    %edi,%edi
    54b4:	8d 72 ff             	lea    -0x1(%edx),%esi
    54b7:	dd 81 90 00 00 00    	fldl   0x90(%ecx)
    54bd:	89 b5 b0 fe ff ff    	mov    %esi,-0x150(%ebp)
    54c3:	89 bd b4 fe ff ff    	mov    %edi,-0x14c(%ebp)
    54c9:	df ad b0 fe ff ff    	fildll -0x150(%ebp)
    54cf:	d8 c9                	fmul   %st(1),%st
    54d1:	de fa                	fdivrp %st,%st(2)
    54d3:	d9 c9                	fxch   %st(1)
    54d5:	d8 05 f4 98 02 00    	fadds  0x298f4
    54db:	d9 ee                	fldz   
    54dd:	d9 c9                	fxch   %st(1)
    54df:	dd e1                	fucom  %st(1)
    54e1:	df e0                	fnstsw %ax
    54e3:	dd d9                	fstp   %st(1)
    54e5:	f6 c4 45             	test   $0x45,%ah
    54e8:	75 29                	jne    5513 <comp_mouse_button+0x7f3>
    54ea:	80 bd 93 fe ff ff 00 	cmpb   $0x0,-0x16d(%ebp)
    54f1:	74 0c                	je     54ff <comp_mouse_button+0x7df>
    54f3:	dc c9                	fmul   %st,%st(1)
    54f5:	d9 c9                	fxch   %st(1)
    54f7:	dd 99 90 00 00 00    	fstpl  0x90(%ecx)
    54fd:	eb 02                	jmp    5501 <comp_mouse_button+0x7e1>
    54ff:	dd d9                	fstp   %st(1)
    5501:	dc 0d d0 c9 03 00    	fmull  0x3c9d0
    5507:	dd 1d d0 c9 03 00    	fstpl  0x3c9d0
    550d:	eb 08                	jmp    5517 <comp_mouse_button+0x7f7>
    550f:	dd d8                	fstp   %st(0)
    5511:	eb 04                	jmp    5517 <comp_mouse_button+0x7f7>
    5513:	dd d8                	fstp   %st(0)
    5515:	dd d8                	fstp   %st(0)
    5517:	8d 85 f4 fe ff ff    	lea    -0x10c(%ebp),%eax
    551d:	8b b5 a0 fe ff ff    	mov    -0x160(%ebp),%esi
    5523:	89 44 24 64          	mov    %eax,0x64(%esp)
    5527:	8d 85 f0 fe ff ff    	lea    -0x110(%ebp),%eax
    552d:	89 44 24 60          	mov    %eax,0x60(%esp)
    5531:	8d 85 ec fe ff ff    	lea    -0x114(%ebp),%eax
    5537:	89 44 24 5c          	mov    %eax,0x5c(%esp)
    553b:	8d 85 e8 fe ff ff    	lea    -0x118(%ebp),%eax
    5541:	89 44 24 58          	mov    %eax,0x58(%esp)
    5545:	8d 7c 24 10          	lea    0x10(%esp),%edi
    5549:	83 c6 30             	add    $0x30,%esi
    554c:	b9 12 00 00 00       	mov    $0x12,%ecx
    5551:	f3 a5                	rep movsl %ds:(%esi),%es:(%edi)
    5553:	89 d0                	mov    %edx,%eax
    5555:	31 d2                	xor    %edx,%edx
    5557:	89 85 b0 fe ff ff    	mov    %eax,-0x150(%ebp)
    555d:	89 95 b4 fe ff ff    	mov    %edx,-0x14c(%ebp)
    5563:	df ad b0 fe ff ff    	fildll -0x150(%ebp)
    5569:	31 d2                	xor    %edx,%edx
    556b:	8b 85 88 fe ff ff    	mov    -0x178(%ebp),%eax
    5571:	dd 5c 24 08          	fstpl  0x8(%esp)
    5575:	89 95 b4 fe ff ff    	mov    %edx,-0x14c(%ebp)
    557b:	89 85 b0 fe ff ff    	mov    %eax,-0x150(%ebp)
    5581:	df ad b0 fe ff ff    	fildll -0x150(%ebp)
    5587:	8d 7c 24 10          	lea    0x10(%esp),%edi
    558b:	dd 1c 24             	fstpl  (%esp)
    558e:	e8 1d bd ff ff       	call   12b0 <comp_coord_bounding_rect.constprop.8>
    5593:	8b 85 a0 fe ff ff    	mov    -0x160(%ebp),%eax
    5599:	e8 22 bb ff ff       	call   10c0 <comp_recalc_transform>
    559e:	8d 85 04 ff ff ff    	lea    -0xfc(%ebp),%eax
    55a4:	89 44 24 64          	mov    %eax,0x64(%esp)
    55a8:	8d 85 00 ff ff ff    	lea    -0x100(%ebp),%eax
    55ae:	89 44 24 60          	mov    %eax,0x60(%esp)
    55b2:	8d 85 fc fe ff ff    	lea    -0x104(%ebp),%eax
    55b8:	89 44 24 5c          	mov    %eax,0x5c(%esp)
    55bc:	8b b5 a0 fe ff ff    	mov    -0x160(%ebp),%esi
    55c2:	8d 85 f8 fe ff ff    	lea    -0x108(%ebp),%eax
    55c8:	83 c6 30             	add    $0x30,%esi
    55cb:	89 44 24 58          	mov    %eax,0x58(%esp)
    55cf:	b9 12 00 00 00       	mov    $0x12,%ecx
    55d4:	f3 a5                	rep movsl %ds:(%esi),%es:(%edi)
    55d6:	31 d2                	xor    %edx,%edx
    55d8:	8b 85 e4 fe ff ff    	mov    -0x11c(%ebp),%eax
    55de:	89 85 b0 fe ff ff    	mov    %eax,-0x150(%ebp)
    55e4:	89 95 b4 fe ff ff    	mov    %edx,-0x14c(%ebp)
    55ea:	df ad b0 fe ff ff    	fildll -0x150(%ebp)
    55f0:	8b 85 e0 fe ff ff    	mov    -0x120(%ebp),%eax
    55f6:	31 d2                	xor    %edx,%edx
    55f8:	dd 5c 24 08          	fstpl  0x8(%esp)
    55fc:	89 85 b0 fe ff ff    	mov    %eax,-0x150(%ebp)
    5602:	89 95 b4 fe ff ff    	mov    %edx,-0x14c(%ebp)
    5608:	df ad b0 fe ff ff    	fildll -0x150(%ebp)
    560e:	dd 1c 24             	fstpl  (%esp)
    5611:	e8 9a bc ff ff       	call   12b0 <comp_coord_bounding_rect.constprop.8>
    5616:	8d 85 dc fe ff ff    	lea    -0x124(%ebp),%eax
    561c:	89 44 24 2c          	mov    %eax,0x2c(%esp)
    5620:	8d 85 d8 fe ff ff    	lea    -0x128(%ebp),%eax
    5626:	89 44 24 28          	mov    %eax,0x28(%esp)
    562a:	8d 85 d4 fe ff ff    	lea    -0x12c(%ebp),%eax
    5630:	89 44 24 24          	mov    %eax,0x24(%esp)
    5634:	8d 85 d0 fe ff ff    	lea    -0x130(%ebp),%eax
    563a:	89 44 24 20          	mov    %eax,0x20(%esp)
    563e:	8b 85 04 ff ff ff    	mov    -0xfc(%ebp),%eax
    5644:	89 44 24 1c          	mov    %eax,0x1c(%esp)
    5648:	8b 85 00 ff ff ff    	mov    -0x100(%ebp),%eax
    564e:	89 44 24 18          	mov    %eax,0x18(%esp)
    5652:	8b 85 fc fe ff ff    	mov    -0x104(%ebp),%eax
    5658:	89 44 24 14          	mov    %eax,0x14(%esp)
    565c:	8b 85 f8 fe ff ff    	mov    -0x108(%ebp),%eax
    5662:	89 44 24 10          	mov    %eax,0x10(%esp)
    5666:	8b 85 f4 fe ff ff    	mov    -0x10c(%ebp),%eax
    566c:	89 44 24 0c          	mov    %eax,0xc(%esp)
    5670:	8b 85 f0 fe ff ff    	mov    -0x110(%ebp),%eax
    5676:	89 44 24 08          	mov    %eax,0x8(%esp)
    567a:	8b 85 ec fe ff ff    	mov    -0x114(%ebp),%eax
    5680:	89 44 24 04          	mov    %eax,0x4(%esp)
    5684:	8b 85 e8 fe ff ff    	mov    -0x118(%ebp),%eax
    568a:	89 04 24             	mov    %eax,(%esp)
    568d:	e8 6e 46 00 00       	call   9d00 <rectangle_union>
    5692:	8b 85 d0 fe ff ff    	mov    -0x130(%ebp),%eax
    5698:	89 85 00 ff ff ff    	mov    %eax,-0x100(%ebp)
    569e:	8b 85 d4 fe ff ff    	mov    -0x12c(%ebp),%eax
    56a4:	89 85 04 ff ff ff    	mov    %eax,-0xfc(%ebp)
    56aa:	8b 85 d8 fe ff ff    	mov    -0x128(%ebp),%eax
    56b0:	89 85 c8 fe ff ff    	mov    %eax,-0x138(%ebp)
    56b6:	8b 85 dc fe ff ff    	mov    -0x124(%ebp),%eax
    56bc:	89 85 cc fe ff ff    	mov    %eax,-0x134(%ebp)
    56c2:	8b 95 a4 fe ff ff    	mov    -0x15c(%ebp),%edx
    56c8:	f6 42 2c 0c          	testb  $0xc,0x2c(%edx)
    56cc:	0f 85 b7 00 00 00    	jne    5789 <comp_mouse_button+0xa69>
    56d2:	80 bd 9c fe ff ff 00 	cmpb   $0x0,-0x164(%ebp)
    56d9:	74 19                	je     56f4 <comp_mouse_button+0x9d4>
    56db:	8b 85 a4 fe ff ff    	mov    -0x15c(%ebp),%eax
    56e1:	8b 50 2c             	mov    0x2c(%eax),%edx
    56e4:	85 d2                	test   %edx,%edx
    56e6:	75 0c                	jne    56f4 <comp_mouse_button+0x9d4>
    56e8:	39 9d a0 fe ff ff    	cmp    %ebx,-0x160(%ebp)
    56ee:	0f 84 eb 03 00 00    	je     5adf <comp_mouse_button+0xdbf>
    56f4:	8b 85 a4 fe ff ff    	mov    -0x15c(%ebp),%eax
    56fa:	31 f6                	xor    %esi,%esi
    56fc:	c7 40 2c 00 00 00 00 	movl   $0x0,0x2c(%eax)
    5703:	31 ff                	xor    %edi,%edi
    5705:	31 db                	xor    %ebx,%ebx
    5707:	c7 85 9c fe ff ff 00 	movl   $0x0,-0x164(%ebp)
    570e:	00 00 00 
    5711:	e9 da f9 ff ff       	jmp    50f0 <comp_mouse_button+0x3d0>
    5716:	66 90                	xchg   %ax,%ax
    5718:	80 bd 9c fe ff ff 00 	cmpb   $0x0,-0x164(%ebp)
    571f:	0f 84 bb f9 ff ff    	je     50e0 <comp_mouse_button+0x3c0>
    5725:	31 ff                	xor    %edi,%edi
    5727:	31 db                	xor    %ebx,%ebx
    5729:	c7 85 9c fe ff ff 00 	movl   $0x0,-0x164(%ebp)
    5730:	00 00 00 
    5733:	e9 0c f9 ff ff       	jmp    5044 <comp_mouse_button+0x324>
    5738:	8b 95 9c fe ff ff    	mov    -0x164(%ebp),%edx
    573e:	89 04 24             	mov    %eax,(%esp)
    5741:	89 54 24 04          	mov    %edx,0x4(%esp)
    5745:	89 85 6c fe ff ff    	mov    %eax,-0x194(%ebp)
    574b:	e8 00 db 01 00       	call   23250 <prodcons_produce>
    5750:	8b 85 6c fe ff ff    	mov    -0x194(%ebp),%eax
    5756:	e9 dd fa ff ff       	jmp    5238 <comp_mouse_button+0x518>
    575b:	90                   	nop
    575c:	8d 74 26 00          	lea    0x0(%esi,%eiz,1),%esi
    5760:	89 34 24             	mov    %esi,(%esp)
    5763:	e8 e8 73 01 00       	call   1cb50 <free>
    5768:	e9 70 fa ff ff       	jmp    51dd <comp_mouse_button+0x4bd>
    576d:	8d 76 00             	lea    0x0(%esi),%esi
    5770:	89 04 24             	mov    %eax,(%esp)
    5773:	8b 95 04 ff ff ff    	mov    -0xfc(%ebp),%edx
    5779:	8b 85 00 ff ff ff    	mov    -0x100(%ebp),%eax
    577f:	e8 5c c0 ff ff       	call   17e0 <comp_damage>
    5784:	e9 17 fa ff ff       	jmp    51a0 <comp_mouse_button+0x480>
    5789:	8d 85 c4 fe ff ff    	lea    -0x13c(%ebp),%eax
    578f:	8b 8d a0 fe ff ff    	mov    -0x160(%ebp),%ecx
    5795:	89 44 24 08          	mov    %eax,0x8(%esp)
    5799:	8d 85 c0 fe ff ff    	lea    -0x140(%ebp),%eax
    579f:	89 44 24 04          	mov    %eax,0x4(%esp)
    57a3:	8b 81 a4 00 00 00    	mov    0xa4(%ecx),%eax
    57a9:	89 04 24             	mov    %eax,(%esp)
    57ac:	e8 4f 27 00 00       	call   7f00 <surface_get_resolution>
    57b1:	c7 04 24 24 00 00 00 	movl   $0x24,(%esp)
    57b8:	e8 83 72 01 00       	call   1ca40 <malloc>
    57bd:	89 c6                	mov    %eax,%esi
    57bf:	85 c0                	test   %eax,%eax
    57c1:	0f 84 f8 00 00 00    	je     58bf <comp_mouse_button+0xb9f>
    57c7:	c7 00 00 00 00 00    	movl   $0x0,(%eax)
    57cd:	c7 40 04 00 00 00 00 	movl   $0x0,0x4(%eax)
    57d4:	c7 40 08 05 00 00 00 	movl   $0x5,0x8(%eax)
    57db:	8b 85 a4 fe ff ff    	mov    -0x15c(%ebp),%eax
    57e1:	dd 05 c8 c9 03 00    	fldl   0x3c9c8
    57e7:	8b 9d c0 fe ff ff    	mov    -0x140(%ebp),%ebx
    57ed:	8b 8d c4 fe ff ff    	mov    -0x13c(%ebp),%ecx
    57f3:	dd 05 d0 c9 03 00    	fldl   0x3c9d0
    57f9:	f6 40 2c 04          	testb  $0x4,0x2c(%eax)
    57fd:	0f 84 6a 02 00 00    	je     5a6d <comp_mouse_button+0xd4d>
    5803:	31 d2                	xor    %edx,%edx
    5805:	89 9d b0 fe ff ff    	mov    %ebx,-0x150(%ebp)
    580b:	89 95 b4 fe ff ff    	mov    %edx,-0x14c(%ebp)
    5811:	d9 bd ae fe ff ff    	fnstcw -0x152(%ebp)
    5817:	df ad b0 fe ff ff    	fildll -0x150(%ebp)
    581d:	d9 ca                	fxch   %st(2)
    581f:	d8 25 f4 98 02 00    	fsubs  0x298f4
    5825:	66 8b 85 ae fe ff ff 	mov    -0x152(%ebp),%ax
    582c:	b4 0c                	mov    $0xc,%ah
    582e:	66 89 85 ac fe ff ff 	mov    %ax,-0x154(%ebp)
    5835:	de ca                	fmulp  %st,%st(2)
    5837:	d9 c9                	fxch   %st(1)
    5839:	d9 ad ac fe ff ff    	fldcw  -0x154(%ebp)
    583f:	db 9d a8 fe ff ff    	fistpl -0x158(%ebp)
    5845:	d9 ad ae fe ff ff    	fldcw  -0x152(%ebp)
    584b:	8b 85 a8 fe ff ff    	mov    -0x158(%ebp),%eax
    5851:	01 d8                	add    %ebx,%eax
    5853:	79 02                	jns    5857 <comp_mouse_button+0xb37>
    5855:	31 c0                	xor    %eax,%eax
    5857:	89 46 0c             	mov    %eax,0xc(%esi)
    585a:	8b 95 a4 fe ff ff    	mov    -0x15c(%ebp),%edx
    5860:	f6 42 2c 08          	testb  $0x8,0x2c(%edx)
    5864:	0f 84 f9 01 00 00    	je     5a63 <comp_mouse_button+0xd43>
    586a:	31 d2                	xor    %edx,%edx
    586c:	89 8d b0 fe ff ff    	mov    %ecx,-0x150(%ebp)
    5872:	89 95 b4 fe ff ff    	mov    %edx,-0x14c(%ebp)
    5878:	d9 bd ae fe ff ff    	fnstcw -0x152(%ebp)
    587e:	df ad b0 fe ff ff    	fildll -0x150(%ebp)
    5884:	d9 c9                	fxch   %st(1)
    5886:	d8 25 f4 98 02 00    	fsubs  0x298f4
    588c:	66 8b 85 ae fe ff ff 	mov    -0x152(%ebp),%ax
    5893:	b4 0c                	mov    $0xc,%ah
    5895:	66 89 85 ac fe ff ff 	mov    %ax,-0x154(%ebp)
    589c:	de c9                	fmulp  %st,%st(1)
    589e:	d9 ad ac fe ff ff    	fldcw  -0x154(%ebp)
    58a4:	db 9d a8 fe ff ff    	fistpl -0x158(%ebp)
    58aa:	d9 ad ae fe ff ff    	fldcw  -0x152(%ebp)
    58b0:	8b 85 a8 fe ff ff    	mov    -0x158(%ebp),%eax
    58b6:	01 c8                	add    %ecx,%eax
    58b8:	79 02                	jns    58bc <comp_mouse_button+0xb9c>
    58ba:	31 c0                	xor    %eax,%eax
    58bc:	89 46 10             	mov    %eax,0x10(%esi)
    58bf:	8b 8d a4 fe ff ff    	mov    -0x15c(%ebp),%ecx
    58c5:	c7 41 2c 00 00 00 00 	movl   $0x0,0x2c(%ecx)
    58cc:	e9 32 fe ff ff       	jmp    5703 <comp_mouse_button+0x9e3>
    58d1:	8b 85 9c fe ff ff    	mov    -0x164(%ebp),%eax
    58d7:	89 04 24             	mov    %eax,(%esp)
    58da:	e8 71 72 01 00       	call   1cb50 <free>
    58df:	e9 5f f9 ff ff       	jmp    5243 <comp_mouse_button+0x523>
    58e4:	8b 95 a4 fe ff ff    	mov    -0x15c(%ebp),%edx
    58ea:	c7 85 08 ff ff ff 00 	movl   $0x0,-0xf8(%ebp)
    58f1:	00 00 00 
    58f4:	c7 85 0c ff ff ff 00 	movl   $0x0,-0xf4(%ebp)
    58fb:	00 00 00 
    58fe:	c7 85 10 ff ff ff 00 	movl   $0x0,-0xf0(%ebp)
    5905:	00 00 00 
    5908:	8b 42 2c             	mov    0x2c(%edx),%eax
    590b:	c7 85 14 ff ff ff 00 	movl   $0x0,-0xec(%ebp)
    5912:	00 00 00 
    5915:	a8 01                	test   $0x1,%al
    5917:	74 14                	je     592d <comp_mouse_button+0xc0d>
    5919:	c7 85 08 ff ff ff 00 	movl   $0x0,-0xf8(%ebp)
    5920:	00 00 00 
    5923:	c7 85 0c ff ff ff 00 	movl   $0x3ff00000,-0xf4(%ebp)
    592a:	00 f0 3f 
    592d:	a8 02                	test   $0x2,%al
    592f:	0f 84 27 01 00 00    	je     5a5c <comp_mouse_button+0xd3c>
    5935:	c7 85 10 ff ff ff 00 	movl   $0x0,-0xf0(%ebp)
    593c:	00 00 00 
    593f:	c7 85 14 ff ff ff 00 	movl   $0x3ff00000,-0xec(%ebp)
    5946:	00 f0 3f 
    5949:	d9 e8                	fld1   
    594b:	8a 95 88 fe ff ff    	mov    -0x178(%ebp),%dl
    5951:	0a 95 93 fe ff ff    	or     -0x16d(%ebp),%dl
    5957:	0f 84 8b 00 00 00    	je     59e8 <comp_mouse_button+0xcc8>
    595d:	8b 8d a0 fe ff ff    	mov    -0x160(%ebp),%ecx
    5963:	dd 81 98 00 00 00    	fldl   0x98(%ecx)
    5969:	dd 9d 80 fe ff ff    	fstpl  -0x180(%ebp)
    596f:	d9 ee                	fldz   
    5971:	dd 85 80 fe ff ff    	fldl   -0x180(%ebp)
    5977:	da e9                	fucompp 
    5979:	df e0                	fnstsw %ax
    597b:	80 e4 45             	and    $0x45,%ah
    597e:	80 fc 40             	cmp    $0x40,%ah
    5981:	74 65                	je     59e8 <comp_mouse_button+0xcc8>
    5983:	dd d8                	fstp   %st(0)
    5985:	8d 45 a0             	lea    -0x60(%ebp),%eax
    5988:	88 95 68 fe ff ff    	mov    %dl,-0x198(%ebp)
    598e:	89 04 24             	mov    %eax,(%esp)
    5991:	89 85 6c fe ff ff    	mov    %eax,-0x194(%ebp)
    5997:	e8 b4 45 00 00       	call   9f50 <transform_identity>
    599c:	8b 8d a0 fe ff ff    	mov    -0x160(%ebp),%ecx
    59a2:	8b 85 6c fe ff ff    	mov    -0x194(%ebp),%eax
    59a8:	dd 81 98 00 00 00    	fldl   0x98(%ecx)
    59ae:	89 04 24             	mov    %eax,(%esp)
    59b1:	dd 5c 24 04          	fstpl  0x4(%esp)
    59b5:	e8 e6 47 00 00       	call   a1a0 <transform_rotate>
    59ba:	8d 8d 10 ff ff ff    	lea    -0xf0(%ebp),%ecx
    59c0:	89 4c 24 08          	mov    %ecx,0x8(%esp)
    59c4:	8b 85 6c fe ff ff    	mov    -0x194(%ebp),%eax
    59ca:	8d 8d 08 ff ff ff    	lea    -0xf8(%ebp),%ecx
    59d0:	89 04 24             	mov    %eax,(%esp)
    59d3:	89 4c 24 04          	mov    %ecx,0x4(%esp)
    59d7:	e8 44 4b 00 00       	call   a520 <transform_apply_linear>
    59dc:	8a 95 68 fe ff ff    	mov    -0x198(%ebp),%dl
    59e2:	dd 85 10 ff ff ff    	fldl   -0xf0(%ebp)
    59e8:	dd 85 08 ff ff ff    	fldl   -0xf8(%ebp)
    59ee:	d9 ee                	fldz   
    59f0:	dd e9                	fucomp %st(1)
    59f2:	df e0                	fnstsw %ax
    59f4:	f6 c4 45             	test   $0x45,%ah
    59f7:	0f 84 db 00 00 00    	je     5ad8 <comp_mouse_button+0xdb8>
    59fd:	d9 ee                	fldz   
    59ff:	dd ea                	fucomp %st(2)
    5a01:	df e0                	fnstsw %ax
    5a03:	f6 c4 45             	test   $0x45,%ah
    5a06:	0f 84 c1 00 00 00    	je     5acd <comp_mouse_button+0xdad>
    5a0c:	89 bd a8 fe ff ff    	mov    %edi,-0x158(%ebp)
    5a12:	8b 85 a0 fe ff ff    	mov    -0x160(%ebp),%eax
    5a18:	db 85 a8 fe ff ff    	fildl  -0x158(%ebp)
    5a1e:	de c9                	fmulp  %st,%st(1)
    5a20:	dc 40 78             	faddl  0x78(%eax)
    5a23:	dd 58 78             	fstpl  0x78(%eax)
    5a26:	89 b5 a8 fe ff ff    	mov    %esi,-0x158(%ebp)
    5a2c:	db 85 a8 fe ff ff    	fildl  -0x158(%ebp)
    5a32:	de c9                	fmulp  %st,%st(1)
    5a34:	dc 80 80 00 00 00    	faddl  0x80(%eax)
    5a3a:	dd 98 80 00 00 00    	fstpl  0x80(%eax)
    5a40:	e9 41 f9 ff ff       	jmp    5386 <comp_mouse_button+0x666>
    5a45:	8b 8d e0 fe ff ff    	mov    -0x120(%ebp),%ecx
    5a4b:	8b 95 e4 fe ff ff    	mov    -0x11c(%ebp),%edx
    5a51:	89 8d 88 fe ff ff    	mov    %ecx,-0x178(%ebp)
    5a57:	e9 bb fa ff ff       	jmp    5517 <comp_mouse_button+0x7f7>
    5a5c:	d9 ee                	fldz   
    5a5e:	e9 e8 fe ff ff       	jmp    594b <comp_mouse_button+0xc2b>
    5a63:	dd d8                	fstp   %st(0)
    5a65:	89 4e 10             	mov    %ecx,0x10(%esi)
    5a68:	e9 52 fe ff ff       	jmp    58bf <comp_mouse_button+0xb9f>
    5a6d:	dd d9                	fstp   %st(1)
    5a6f:	89 5e 0c             	mov    %ebx,0xc(%esi)
    5a72:	e9 e3 fd ff ff       	jmp    585a <comp_mouse_button+0xb3a>
    5a77:	dd d8                	fstp   %st(0)
    5a79:	dd d8                	fstp   %st(0)
    5a7b:	8d 75 a0             	lea    -0x60(%ebp),%esi
    5a7e:	89 34 24             	mov    %esi,(%esp)
    5a81:	e8 ca 44 00 00       	call   9f50 <transform_identity>
    5a86:	8b 85 a0 fe ff ff    	mov    -0x160(%ebp),%eax
    5a8c:	dd 80 98 00 00 00    	fldl   0x98(%eax)
    5a92:	d9 e0                	fchs   
    5a94:	89 34 24             	mov    %esi,(%esp)
    5a97:	dd 5c 24 04          	fstpl  0x4(%esp)
    5a9b:	e8 00 47 00 00       	call   a1a0 <transform_rotate>
    5aa0:	8d 85 10 ff ff ff    	lea    -0xf0(%ebp),%eax
    5aa6:	89 44 24 08          	mov    %eax,0x8(%esp)
    5aaa:	8d 85 08 ff ff ff    	lea    -0xf8(%ebp),%eax
    5ab0:	89 44 24 04          	mov    %eax,0x4(%esp)
    5ab4:	89 34 24             	mov    %esi,(%esp)
    5ab7:	e8 64 4a 00 00       	call   a520 <transform_apply_linear>
    5abc:	dd 85 08 ff ff ff    	fldl   -0xf8(%ebp)
    5ac2:	dd 85 10 ff ff ff    	fldl   -0xf0(%ebp)
    5ac8:	e9 0f f9 ff ff       	jmp    53dc <comp_mouse_button+0x6bc>
    5acd:	d9 c9                	fxch   %st(1)
    5acf:	d9 e0                	fchs   
    5ad1:	d9 c9                	fxch   %st(1)
    5ad3:	e9 34 ff ff ff       	jmp    5a0c <comp_mouse_button+0xcec>
    5ad8:	d9 e0                	fchs   
    5ada:	e9 1e ff ff ff       	jmp    59fd <comp_mouse_button+0xcdd>
    5adf:	c7 04 24 24 00 00 00 	movl   $0x24,(%esp)
    5ae6:	e8 55 6f 01 00       	call   1ca40 <malloc>
    5aeb:	89 c6                	mov    %eax,%esi
    5aed:	85 c0                	test   %eax,%eax
    5aef:	0f 84 ca fd ff ff    	je     58bf <comp_mouse_button+0xb9f>
    5af5:	8b 95 a4 fe ff ff    	mov    -0x15c(%ebp),%edx
    5afb:	c7 00 00 00 00 00    	movl   $0x0,(%eax)
    5b01:	c7 40 04 00 00 00 00 	movl   $0x0,0x4(%eax)
    5b08:	c7 40 08 01 00 00 00 	movl   $0x1,0x8(%eax)
    5b0f:	8b 42 08             	mov    0x8(%edx),%eax
    5b12:	8b 8d 8c fe ff ff    	mov    -0x174(%ebp),%ecx
    5b18:	89 46 0c             	mov    %eax,0xc(%esi)
    5b1b:	8b 95 94 fe ff ff    	mov    -0x16c(%ebp),%edx
    5b21:	8b 85 98 fe ff ff    	mov    -0x168(%ebp),%eax
    5b27:	c7 46 10 02 00 00 00 	movl   $0x2,0x10(%esi)
    5b2e:	89 4e 14             	mov    %ecx,0x14(%esi)
    5b31:	89 46 18             	mov    %eax,0x18(%esi)
    5b34:	89 56 1c             	mov    %edx,0x1c(%esi)
    5b37:	e9 83 fd ff ff       	jmp    58bf <comp_mouse_button+0xb9f>
    5b3c:	8d 74 26 00          	lea    0x0(%esi,%eiz,1),%esi

00005b40 <comp_key_press>:
    5b40:	55                   	push   %ebp
    5b41:	89 e5                	mov    %esp,%ebp
    5b43:	57                   	push   %edi
    5b44:	56                   	push   %esi
    5b45:	53                   	push   %ebx
    5b46:	81 ec dc 00 00 00    	sub    $0xdc,%esp
    5b4c:	8b 75 10             	mov    0x10(%ebp),%esi
    5b4f:	f6 45 14 30          	testb  $0x30,0x14(%ebp)
    5b53:	75 4b                	jne    5ba0 <comp_key_press+0x60>
    5b55:	c7 04 24 24 00 00 00 	movl   $0x24,(%esp)
    5b5c:	e8 df 6e 01 00       	call   1ca40 <malloc>
    5b61:	89 c3                	mov    %eax,%ebx
    5b63:	85 c0                	test   %eax,%eax
    5b65:	0f 84 88 10 00 00    	je     6bf3 <comp_key_press+0x10b3>
    5b6b:	8b 55 0c             	mov    0xc(%ebp),%edx
    5b6e:	8b 4d 14             	mov    0x14(%ebp),%ecx
    5b71:	c7 00 00 00 00 00    	movl   $0x0,(%eax)
    5b77:	c7 40 04 00 00 00 00 	movl   $0x0,0x4(%eax)
    5b7e:	c7 40 08 00 00 00 00 	movl   $0x0,0x8(%eax)
    5b85:	89 50 14             	mov    %edx,0x14(%eax)
    5b88:	89 70 18             	mov    %esi,0x18(%eax)
    5b8b:	89 48 1c             	mov    %ecx,0x1c(%eax)
    5b8e:	8b 45 18             	mov    0x18(%ebp),%eax
    5b91:	89 43 20             	mov    %eax,0x20(%ebx)
    5b94:	e9 1d 03 00 00       	jmp    5eb6 <comp_key_press+0x376>
    5b99:	8d b4 26 00 00 00 00 	lea    0x0(%esi,%eiz,1),%esi
    5ba0:	83 fe 1e             	cmp    $0x1e,%esi
    5ba3:	0f 85 1b 02 00 00    	jne    5dc4 <comp_key_press+0x284>
    5ba9:	b2 01                	mov    $0x1,%dl
    5bab:	83 fe 21             	cmp    $0x21,%esi
    5bae:	74 09                	je     5bb9 <comp_key_press+0x79>
    5bb0:	83 fe 14             	cmp    $0x14,%esi
    5bb3:	0f 85 40 02 00 00    	jne    5df9 <comp_key_press+0x2b9>
    5bb9:	8d 46 d3             	lea    -0x2d(%esi),%eax
    5bbc:	c6 45 9f 01          	movb   $0x1,-0x61(%ebp)
    5bc0:	b3 01                	mov    $0x1,%bl
    5bc2:	83 f8 01             	cmp    $0x1,%eax
    5bc5:	0f 86 4b 02 00 00    	jbe    5e16 <comp_key_press+0x2d6>
    5bcb:	31 c9                	xor    %ecx,%ecx
    5bcd:	83 fe 2c             	cmp    $0x2c,%esi
    5bd0:	0f 84 83 05 00 00    	je     6159 <comp_key_press+0x619>
    5bd6:	88 4d a0             	mov    %cl,-0x60(%ebp)
    5bd9:	83 fe 0f             	cmp    $0xf,%esi
    5bdc:	0f 84 42 02 00 00    	je     5e24 <comp_key_press+0x2e4>
    5be2:	31 ff                	xor    %edi,%edi
    5be4:	83 fe 24             	cmp    $0x24,%esi
    5be7:	0f 85 f8 0f 00 00    	jne    6be5 <comp_key_press+0x10a5>
    5bed:	c6 45 9a 01          	movb   $0x1,-0x66(%ebp)
    5bf1:	c6 45 9c 01          	movb   $0x1,-0x64(%ebp)
    5bf5:	c6 45 99 00          	movb   $0x0,-0x67(%ebp)
    5bf9:	8d 46 e8             	lea    -0x18(%esi),%eax
    5bfc:	83 f8 01             	cmp    $0x1,%eax
    5bff:	0f 86 39 02 00 00    	jbe    5e3e <comp_key_press+0x2fe>
    5c05:	c6 45 a4 00          	movb   $0x0,-0x5c(%ebp)
    5c09:	83 fe 31             	cmp    $0x31,%esi
    5c0c:	0f 84 36 05 00 00    	je     6148 <comp_key_press+0x608>
    5c12:	8a 45 a4             	mov    -0x5c(%ebp),%al
    5c15:	83 fe 22             	cmp    $0x22,%esi
    5c18:	88 45 9b             	mov    %al,-0x65(%ebp)
    5c1b:	0f 84 30 02 00 00    	je     5e51 <comp_key_press+0x311>
    5c21:	c6 45 9d 00          	movb   $0x0,-0x63(%ebp)
    5c25:	c6 45 9e 00          	movb   $0x0,-0x62(%ebp)
    5c29:	83 7d 0c 01          	cmpl   $0x1,0xc(%ebp)
    5c2d:	0f 84 30 02 00 00    	je     5e63 <comp_key_press+0x323>
    5c33:	84 d2                	test   %dl,%dl
    5c35:	0f 85 c7 02 00 00    	jne    5f02 <comp_key_press+0x3c2>
    5c3b:	84 db                	test   %bl,%bl
    5c3d:	0f 85 51 04 00 00    	jne    6094 <comp_key_press+0x554>
    5c43:	84 c9                	test   %cl,%cl
    5c45:	0f 85 3d 05 00 00    	jne    6188 <comp_key_press+0x648>
    5c4b:	89 fa                	mov    %edi,%edx
    5c4d:	84 d2                	test   %dl,%dl
    5c4f:	0f 85 37 02 00 00    	jne    5e8c <comp_key_press+0x34c>
    5c55:	80 7d 99 00          	cmpb   $0x0,-0x67(%ebp)
    5c59:	0f 85 2f 06 00 00    	jne    628e <comp_key_press+0x74e>
    5c5f:	80 7d 9c 00          	cmpb   $0x0,-0x64(%ebp)
    5c63:	0f 85 d1 0a 00 00    	jne    673a <comp_key_press+0xbfa>
    5c69:	80 7d 9b 00          	cmpb   $0x0,-0x65(%ebp)
