
edit:     file format elf32-i386


Disassembly of section .init:

00001094 <__entry>:
    1094:	66 8c d0             	mov    %ss,%ax
    1097:	8e d8                	mov    %eax,%ds
    1099:	8e c0                	mov    %eax,%es
    109b:	8e e0                	mov    %eax,%fs
    109d:	b8 01 00 00 00       	mov    $0x1,%eax
    10a2:	0f a2                	cpuid  
    10a4:	0f ba e2 0b          	bt     $0xb,%edx
    10a8:	73 0c                	jae    10b6 <__entry+0x22>
    10aa:	8d 05 94 57 02 00    	lea    0x25794,%eax
    10b0:	c7 00 47 db 01 00    	movl   $0x1db47,(%eax)
    10b6:	6a 00                	push   $0x0
    10b8:	89 e5                	mov    %esp,%ebp
    10ba:	57                   	push   %edi
    10bb:	e8 b0 44 00 00       	call   5570 <__main>

Disassembly of section .text:

000010c0 <pt_get_sof>:
    10c0:	55                   	push   %ebp
    10c1:	89 e5                	mov    %esp,%ebp
    10c3:	83 ec 28             	sub    $0x28,%esp
    10c6:	89 44 24 0c          	mov    %eax,0xc(%esp)
    10ca:	8d 45 f0             	lea    -0x10(%ebp),%eax
    10cd:	89 44 24 04          	mov    %eax,0x4(%esp)
    10d1:	a1 a4 58 02 00       	mov    0x258a4,%eax
    10d6:	c7 44 24 08 00 00 00 	movl   $0x0,0x8(%esp)
    10dd:	00 
    10de:	89 04 24             	mov    %eax,(%esp)
    10e1:	c7 45 f4 01 00 00 00 	movl   $0x1,-0xc(%ebp)
    10e8:	c7 45 f0 01 00 00 00 	movl   $0x1,-0x10(%ebp)
    10ef:	e8 6c 3d 00 00       	call   4e60 <sheet_get_cell_pt>
    10f4:	c9                   	leave  
    10f5:	c3                   	ret    
    10f6:	8d 76 00             	lea    0x0(%esi),%esi
    10f9:	8d bc 27 00 00 00 00 	lea    0x0(%edi,%eiz,1),%edi

00001100 <caret_update>:
    1100:	55                   	push   %ebp
    1101:	89 e5                	mov    %esp,%ebp
    1103:	53                   	push   %ebx
    1104:	83 ec 24             	sub    $0x24,%esp
    1107:	8d 5d e8             	lea    -0x18(%ebp),%ebx
    110a:	89 5c 24 04          	mov    %ebx,0x4(%esp)
    110e:	c7 04 24 74 58 02 00 	movl   $0x25874,(%esp)
    1115:	e8 d6 40 00 00       	call   51f0 <tag_get_pt>
    111a:	8d 45 f0             	lea    -0x10(%ebp),%eax
    111d:	89 44 24 04          	mov    %eax,0x4(%esp)
    1121:	89 1c 24             	mov    %ebx,(%esp)
    1124:	e8 37 3f 00 00       	call   5060 <spt_get_coord>
    1129:	8b 55 f0             	mov    -0x10(%ebp),%edx
    112c:	8b 0d 68 58 02 00    	mov    0x25868,%ecx
    1132:	a1 70 58 02 00       	mov    0x25870,%eax
    1137:	39 ca                	cmp    %ecx,%edx
    1139:	7d 0b                	jge    1146 <caret_update+0x46>
    113b:	89 15 68 58 02 00    	mov    %edx,0x25868
    1141:	83 c8 01             	or     $0x1,%eax
    1144:	89 d1                	mov    %edx,%ecx
    1146:	8b 1d 60 58 02 00    	mov    0x25860,%ebx
    114c:	01 d9                	add    %ebx,%ecx
    114e:	39 ca                	cmp    %ecx,%edx
    1150:	7c 0c                	jl     115e <caret_update+0x5e>
    1152:	29 da                	sub    %ebx,%edx
    1154:	83 c8 01             	or     $0x1,%eax
    1157:	42                   	inc    %edx
    1158:	89 15 68 58 02 00    	mov    %edx,0x25868
    115e:	8b 55 f4             	mov    -0xc(%ebp),%edx
    1161:	8b 0d 6c 58 02 00    	mov    0x2586c,%ecx
    1167:	39 ca                	cmp    %ecx,%edx
    1169:	7d 0b                	jge    1176 <caret_update+0x76>
    116b:	89 15 6c 58 02 00    	mov    %edx,0x2586c
    1171:	83 c8 01             	or     $0x1,%eax
    1174:	89 d1                	mov    %edx,%ecx
    1176:	8b 1d 64 58 02 00    	mov    0x25864,%ebx
    117c:	01 d9                	add    %ebx,%ecx
    117e:	39 ca                	cmp    %ecx,%edx
    1180:	7c 0c                	jl     118e <caret_update+0x8e>
    1182:	29 da                	sub    %ebx,%edx
    1184:	83 c8 01             	or     $0x1,%eax
    1187:	42                   	inc    %edx
    1188:	89 15 6c 58 02 00    	mov    %edx,0x2586c
    118e:	83 c8 0c             	or     $0xc,%eax
    1191:	a3 70 58 02 00       	mov    %eax,0x25870
    1196:	83 c4 24             	add    $0x24,%esp
    1199:	5b                   	pop    %ebx
    119a:	5d                   	pop    %ebp
    119b:	c3                   	ret    
    119c:	8d 74 26 00          	lea    0x0(%esi,%eiz,1),%esi

000011a0 <status_display>:
    11a0:	55                   	push   %ebp
    11a1:	89 e5                	mov    %esp,%ebp
    11a3:	53                   	push   %ebx
    11a4:	83 ec 14             	sub    $0x14,%esp
    11a7:	89 c3                	mov    %eax,%ebx
    11a9:	a1 48 58 02 00       	mov    0x25848,%eax
    11ae:	48                   	dec    %eax
    11af:	c7 44 24 04 00 00 00 	movl   $0x0,0x4(%esp)
    11b6:	00 
    11b7:	89 44 24 08          	mov    %eax,0x8(%esp)
    11bb:	a1 40 58 02 00       	mov    0x25840,%eax
    11c0:	89 04 24             	mov    %eax,(%esp)
    11c3:	e8 e8 fb 00 00       	call   10db0 <console_set_pos>
    11c8:	a1 40 58 02 00       	mov    0x25840,%eax
    11cd:	89 04 24             	mov    %eax,(%esp)
    11d0:	c7 44 24 04 02 00 00 	movl   $0x2,0x4(%esp)
    11d7:	00 
    11d8:	e8 73 f8 00 00       	call   10a50 <console_set_style>
    11dd:	8b 15 44 58 02 00    	mov    0x25844,%edx
    11e3:	b8 03 00 00 00       	mov    $0x3,%eax
    11e8:	89 5c 24 08          	mov    %ebx,0x8(%esp)
    11ec:	29 d0                	sub    %edx,%eax
    11ee:	c7 04 24 22 28 02 00 	movl   $0x22822,(%esp)
    11f5:	89 44 24 04          	mov    %eax,0x4(%esp)
    11f9:	e8 62 ca 00 00       	call   dc60 <printf>
    11fe:	a1 40 58 02 00       	mov    0x25840,%eax
    1203:	89 04 24             	mov    %eax,(%esp)
    1206:	e8 15 f7 00 00       	call   10920 <console_flush>
    120b:	a1 40 58 02 00       	mov    0x25840,%eax
    1210:	c7 44 24 04 00 00 00 	movl   $0x0,0x4(%esp)
    1217:	00 
    1218:	89 04 24             	mov    %eax,(%esp)
    121b:	e8 30 f8 00 00       	call   10a50 <console_set_style>
    1220:	83 0d 70 58 02 00 08 	orl    $0x8,0x25870
    1227:	83 c4 14             	add    $0x14,%esp
    122a:	5b                   	pop    %ebx
    122b:	5d                   	pop    %ebp
    122c:	c3                   	ret    
    122d:	8d 76 00             	lea    0x0(%esi),%esi

00001230 <search_spt_mark_free>:
    1230:	55                   	push   %ebp
    1231:	89 e5                	mov    %esp,%ebp
    1233:	5d                   	pop    %ebp
    1234:	e9 b7 21 01 00       	jmp    133f0 <free>
    1239:	8d b4 26 00 00 00 00 	lea    0x0(%esi,%eiz,1),%esi

00001240 <pane_row_range_display>:
    1240:	55                   	push   %ebp
    1241:	89 e5                	mov    %esp,%ebp
    1243:	57                   	push   %edi
    1244:	56                   	push   %esi
    1245:	53                   	push   %ebx
    1246:	81 ec 8c 10 00 00    	sub    $0x108c,%esp
    124c:	8d b5 c0 ef ff ff    	lea    -0x1040(%ebp),%esi
    1252:	89 95 8c ef ff ff    	mov    %edx,-0x1074(%ebp)
    1258:	89 c3                	mov    %eax,%ebx
    125a:	89 74 24 04          	mov    %esi,0x4(%esp)
    125e:	c7 04 24 84 58 02 00 	movl   $0x25884,(%esp)
    1265:	e8 86 3f 00 00       	call   51f0 <tag_get_pt>
    126a:	8d 85 d8 ef ff ff    	lea    -0x1028(%ebp),%eax
    1270:	89 44 24 04          	mov    %eax,0x4(%esp)
    1274:	89 34 24             	mov    %esi,(%esp)
    1277:	e8 e4 3d 00 00       	call   5060 <spt_get_coord>
    127c:	89 74 24 04          	mov    %esi,0x4(%esp)
    1280:	c7 04 24 74 58 02 00 	movl   $0x25874,(%esp)
    1287:	e8 64 3f 00 00       	call   51f0 <tag_get_pt>
    128c:	8d 85 e0 ef ff ff    	lea    -0x1020(%ebp),%eax
    1292:	89 44 24 04          	mov    %eax,0x4(%esp)
    1296:	89 34 24             	mov    %esi,(%esp)
    1299:	e8 c2 3d 00 00       	call   5060 <spt_get_coord>
    129e:	8b 8d d8 ef ff ff    	mov    -0x1028(%ebp),%ecx
    12a4:	8b 85 e0 ef ff ff    	mov    -0x1020(%ebp),%eax
    12aa:	39 c1                	cmp    %eax,%ecx
    12ac:	0f 84 f8 03 00 00    	je     16aa <pane_row_range_display+0x46a>
    12b2:	89 ca                	mov    %ecx,%edx
    12b4:	29 c2                	sub    %eax,%edx
    12b6:	89 d0                	mov    %edx,%eax
    12b8:	85 c0                	test   %eax,%eax
    12ba:	7e 2a                	jle    12e6 <pane_row_range_display+0xa6>
    12bc:	8b b5 dc ef ff ff    	mov    -0x1024(%ebp),%esi
    12c2:	8b 85 e0 ef ff ff    	mov    -0x1020(%ebp),%eax
    12c8:	8b 95 e4 ef ff ff    	mov    -0x101c(%ebp),%edx
    12ce:	89 85 d8 ef ff ff    	mov    %eax,-0x1028(%ebp)
    12d4:	89 95 dc ef ff ff    	mov    %edx,-0x1024(%ebp)
    12da:	89 8d e0 ef ff ff    	mov    %ecx,-0x1020(%ebp)
    12e0:	89 b5 e4 ef ff ff    	mov    %esi,-0x101c(%ebp)
    12e6:	a1 40 58 02 00       	mov    0x25840,%eax
    12eb:	c7 44 24 08 00 00 00 	movl   $0x0,0x8(%esp)
    12f2:	00 
    12f3:	c7 44 24 04 00 00 00 	movl   $0x0,0x4(%esp)
    12fa:	00 
    12fb:	89 04 24             	mov    %eax,(%esp)
    12fe:	e8 ad fa 00 00       	call   10db0 <console_set_pos>
    1303:	3b 9d 8c ef ff ff    	cmp    -0x1074(%ebp),%ebx
    1309:	0f 8d db 02 00 00    	jge    15ea <pane_row_range_display+0x3aa>
    130f:	89 9d 90 ef ff ff    	mov    %ebx,-0x1070(%ebp)
    1315:	8d 76 00             	lea    0x0(%esi),%esi
    1318:	8b 85 90 ef ff ff    	mov    -0x1070(%ebp),%eax
    131e:	8b 3d 68 58 02 00    	mov    0x25868,%edi
    1324:	01 f8                	add    %edi,%eax
    1326:	8d 95 c8 ef ff ff    	lea    -0x1038(%ebp),%edx
    132c:	89 85 c8 ef ff ff    	mov    %eax,-0x1038(%ebp)
    1332:	a1 6c 58 02 00       	mov    0x2586c,%eax
    1337:	89 85 cc ef ff ff    	mov    %eax,-0x1034(%ebp)
    133d:	8d 85 a8 ef ff ff    	lea    -0x1058(%ebp),%eax
    1343:	89 44 24 0c          	mov    %eax,0xc(%esp)
    1347:	a1 a4 58 02 00       	mov    0x258a4,%eax
    134c:	89 54 24 04          	mov    %edx,0x4(%esp)
    1350:	89 04 24             	mov    %eax,(%esp)
    1353:	c7 44 24 08 00 00 00 	movl   $0x0,0x8(%esp)
    135a:	00 
    135b:	e8 00 3b 00 00       	call   4e60 <sheet_get_cell_pt>
    1360:	8b 15 68 58 02 00    	mov    0x25868,%edx
    1366:	8b 85 90 ef ff ff    	mov    -0x1070(%ebp),%eax
    136c:	8b 0d 64 58 02 00    	mov    0x25864,%ecx
    1372:	01 d0                	add    %edx,%eax
    1374:	8d 95 d0 ef ff ff    	lea    -0x1030(%ebp),%edx
    137a:	89 85 d0 ef ff ff    	mov    %eax,-0x1030(%ebp)
    1380:	a1 6c 58 02 00       	mov    0x2586c,%eax
    1385:	01 c8                	add    %ecx,%eax
    1387:	89 54 24 04          	mov    %edx,0x4(%esp)
    138b:	89 85 d4 ef ff ff    	mov    %eax,-0x102c(%ebp)
    1391:	8d 85 b0 ef ff ff    	lea    -0x1050(%ebp),%eax
    1397:	89 44 24 0c          	mov    %eax,0xc(%esp)
    139b:	a1 a4 58 02 00       	mov    0x258a4,%eax
    13a0:	89 04 24             	mov    %eax,(%esp)
    13a3:	c7 44 24 08 00 00 00 	movl   $0x0,0x8(%esp)
    13aa:	00 
    13ab:	e8 b0 3a 00 00       	call   4e60 <sheet_get_cell_pt>
    13b0:	8d 85 b8 ef ff ff    	lea    -0x1048(%ebp),%eax
    13b6:	89 44 24 14          	mov    %eax,0x14(%esp)
    13ba:	8d 95 e8 ef ff ff    	lea    -0x1018(%ebp),%edx
    13c0:	8d 85 b0 ef ff ff    	lea    -0x1050(%ebp),%eax
    13c6:	89 54 24 0c          	mov    %edx,0xc(%esp)
    13ca:	89 44 24 08          	mov    %eax,0x8(%esp)
    13ce:	8d 95 a8 ef ff ff    	lea    -0x1058(%ebp),%edx
    13d4:	a1 a4 58 02 00       	mov    0x258a4,%eax
    13d9:	89 54 24 04          	mov    %edx,0x4(%esp)
    13dd:	89 04 24             	mov    %eax,(%esp)
    13e0:	c7 44 24 10 00 10 00 	movl   $0x1000,0x10(%esp)
    13e7:	00 
    13e8:	e8 e3 39 00 00       	call   4dd0 <sheet_copy_out>
    13ed:	8b 95 d8 ef ff ff    	mov    -0x1028(%ebp),%edx
    13f3:	8b 85 c8 ef ff ff    	mov    -0x1038(%ebp),%eax
    13f9:	39 c2                	cmp    %eax,%edx
    13fb:	0f 84 3b 02 00 00    	je     163c <pane_row_range_display+0x3fc>
    1401:	29 c2                	sub    %eax,%edx
    1403:	85 d2                	test   %edx,%edx
    1405:	0f 8e 47 02 00 00    	jle    1652 <pane_row_range_display+0x412>
    140b:	8b 95 90 ef ff ff    	mov    -0x1070(%ebp),%edx
    1411:	a1 40 58 02 00       	mov    0x25840,%eax
    1416:	89 54 24 08          	mov    %edx,0x8(%esp)
    141a:	89 04 24             	mov    %eax,(%esp)
    141d:	c7 44 24 04 00 00 00 	movl   $0x0,0x4(%esp)
    1424:	00 
    1425:	e8 86 f9 00 00       	call   10db0 <console_set_pos>
    142a:	8d 85 e8 ef ff ff    	lea    -0x1018(%ebp),%eax
    1430:	89 04 24             	mov    %eax,(%esp)
    1433:	e8 d8 55 00 00       	call   6a10 <str_size>
    1438:	c7 85 a4 ef ff ff 00 	movl   $0x0,-0x105c(%ebp)
    143f:	00 00 00 
    1442:	89 85 94 ef ff ff    	mov    %eax,-0x106c(%ebp)
    1448:	8b 1d 6c 58 02 00    	mov    0x2586c,%ebx
    144e:	31 c0                	xor    %eax,%eax
    1450:	eb 1d                	jmp    146f <pane_row_range_display+0x22f>
    1452:	8d b6 00 00 00 00    	lea    0x0(%esi),%esi
    1458:	89 44 24 04          	mov    %eax,0x4(%esp)
    145c:	c7 04 24 28 28 02 00 	movl   $0x22828,(%esp)
    1463:	e8 f8 c7 00 00       	call   dc60 <printf>
    1468:	43                   	inc    %ebx
    1469:	8b 85 a4 ef ff ff    	mov    -0x105c(%ebp),%eax
    146f:	39 85 94 ef ff ff    	cmp    %eax,-0x106c(%ebp)
    1475:	0f 86 f5 00 00 00    	jbe    1570 <pane_row_range_display+0x330>
    147b:	8b 85 c8 ef ff ff    	mov    -0x1038(%ebp),%eax
    1481:	39 85 d8 ef ff ff    	cmp    %eax,-0x1028(%ebp)
    1487:	0f 84 9b 00 00 00    	je     1528 <pane_row_range_display+0x2e8>
    148d:	39 85 e0 ef ff ff    	cmp    %eax,-0x1020(%ebp)
    1493:	74 53                	je     14e8 <pane_row_range_display+0x2a8>
    1495:	8b 85 94 ef ff ff    	mov    -0x106c(%ebp),%eax
    149b:	8d 95 a4 ef ff ff    	lea    -0x105c(%ebp),%edx
    14a1:	89 44 24 08          	mov    %eax,0x8(%esp)
    14a5:	8d 85 e8 ef ff ff    	lea    -0x1018(%ebp),%eax
    14ab:	89 54 24 04          	mov    %edx,0x4(%esp)
    14af:	89 04 24             	mov    %eax,(%esp)
    14b2:	e8 19 51 00 00       	call   65d0 <str_decode>
    14b7:	83 f8 09             	cmp    $0x9,%eax
    14ba:	75 9c                	jne    1458 <pane_row_range_display+0x218>
    14bc:	8d 7b 07             	lea    0x7(%ebx),%edi
    14bf:	83 e7 f8             	and    $0xfffffff8,%edi
    14c2:	47                   	inc    %edi
    14c3:	89 fe                	mov    %edi,%esi
    14c5:	29 de                	sub    %ebx,%esi
    14c7:	85 f6                	test   %esi,%esi
    14c9:	7e 16                	jle    14e1 <pane_row_range_display+0x2a1>
    14cb:	31 db                	xor    %ebx,%ebx
    14cd:	8d 76 00             	lea    0x0(%esi),%esi
    14d0:	c7 04 24 20 00 00 00 	movl   $0x20,(%esp)
    14d7:	43                   	inc    %ebx
    14d8:	e8 c3 c4 00 00       	call   d9a0 <putchar>
    14dd:	39 f3                	cmp    %esi,%ebx
    14df:	75 ef                	jne    14d0 <pane_row_range_display+0x290>
    14e1:	89 fb                	mov    %edi,%ebx
    14e3:	eb 84                	jmp    1469 <pane_row_range_display+0x229>
    14e5:	8d 76 00             	lea    0x0(%esi),%esi
    14e8:	39 9d e4 ef ff ff    	cmp    %ebx,-0x101c(%ebp)
    14ee:	75 a5                	jne    1495 <pane_row_range_display+0x255>
    14f0:	a1 40 58 02 00       	mov    0x25840,%eax
    14f5:	89 04 24             	mov    %eax,(%esp)
    14f8:	e8 23 f4 00 00       	call   10920 <console_flush>
    14fd:	a1 40 58 02 00       	mov    0x25840,%eax
    1502:	89 04 24             	mov    %eax,(%esp)
    1505:	c7 44 24 04 00 00 00 	movl   $0x0,0x4(%esp)
    150c:	00 
    150d:	e8 3e f5 00 00       	call   10a50 <console_set_style>
    1512:	a1 40 58 02 00       	mov    0x25840,%eax
    1517:	89 04 24             	mov    %eax,(%esp)
    151a:	e8 01 f4 00 00       	call   10920 <console_flush>
    151f:	e9 71 ff ff ff       	jmp    1495 <pane_row_range_display+0x255>
    1524:	8d 74 26 00          	lea    0x0(%esi,%eiz,1),%esi
    1528:	39 9d dc ef ff ff    	cmp    %ebx,-0x1024(%ebp)
    152e:	0f 85 59 ff ff ff    	jne    148d <pane_row_range_display+0x24d>
    1534:	a1 40 58 02 00       	mov    0x25840,%eax
    1539:	89 04 24             	mov    %eax,(%esp)
    153c:	e8 df f3 00 00       	call   10920 <console_flush>
    1541:	a1 40 58 02 00       	mov    0x25840,%eax
    1546:	89 04 24             	mov    %eax,(%esp)
    1549:	c7 44 24 04 03 00 00 	movl   $0x3,0x4(%esp)
    1550:	00 
    1551:	e8 fa f4 00 00       	call   10a50 <console_set_style>
    1556:	a1 40 58 02 00       	mov    0x25840,%eax
    155b:	89 04 24             	mov    %eax,(%esp)
    155e:	e8 bd f3 00 00       	call   10920 <console_flush>
    1563:	8b 85 c8 ef ff ff    	mov    -0x1038(%ebp),%eax
    1569:	e9 1f ff ff ff       	jmp    148d <pane_row_range_display+0x24d>
    156e:	66 90                	xchg   %ax,%ax
    1570:	8b 95 c8 ef ff ff    	mov    -0x1038(%ebp),%edx
    1576:	39 95 e0 ef ff ff    	cmp    %edx,-0x1020(%ebp)
    157c:	74 7e                	je     15fc <pane_row_range_display+0x3bc>
    157e:	8b 35 44 58 02 00    	mov    0x25844,%esi
    1584:	8d 43 ff             	lea    -0x1(%ebx),%eax
    1587:	39 f0                	cmp    %esi,%eax
    1589:	73 1e                	jae    15a9 <pane_row_range_display+0x369>
    158b:	46                   	inc    %esi
    158c:	29 de                	sub    %ebx,%esi
    158e:	85 f6                	test   %esi,%esi
    1590:	7e 17                	jle    15a9 <pane_row_range_display+0x369>
    1592:	31 db                	xor    %ebx,%ebx
    1594:	8d 74 26 00          	lea    0x0(%esi,%eiz,1),%esi
    1598:	c7 04 24 20 00 00 00 	movl   $0x20,(%esp)
    159f:	43                   	inc    %ebx
    15a0:	e8 fb c3 00 00       	call   d9a0 <putchar>
    15a5:	39 de                	cmp    %ebx,%esi
    15a7:	75 ef                	jne    1598 <pane_row_range_display+0x358>
    15a9:	a1 40 58 02 00       	mov    0x25840,%eax
    15ae:	89 04 24             	mov    %eax,(%esp)
    15b1:	e8 6a f3 00 00       	call   10920 <console_flush>
    15b6:	a1 40 58 02 00       	mov    0x25840,%eax
    15bb:	c7 44 24 04 00 00 00 	movl   $0x0,0x4(%esp)
    15c2:	00 
    15c3:	89 04 24             	mov    %eax,(%esp)
    15c6:	e8 85 f4 00 00       	call   10a50 <console_set_style>
    15cb:	8b 8d 90 ef ff ff    	mov    -0x1070(%ebp),%ecx
    15d1:	41                   	inc    %ecx
    15d2:	8b 95 8c ef ff ff    	mov    -0x1074(%ebp),%edx
    15d8:	89 8d 90 ef ff ff    	mov    %ecx,-0x1070(%ebp)
    15de:	39 95 90 ef ff ff    	cmp    %edx,-0x1070(%ebp)
    15e4:	0f 85 2e fd ff ff    	jne    1318 <pane_row_range_display+0xd8>
    15ea:	83 0d 70 58 02 00 08 	orl    $0x8,0x25870
    15f1:	81 c4 8c 10 00 00    	add    $0x108c,%esp
    15f7:	5b                   	pop    %ebx
    15f8:	5e                   	pop    %esi
    15f9:	5f                   	pop    %edi
    15fa:	5d                   	pop    %ebp
    15fb:	c3                   	ret    
    15fc:	3b 9d e4 ef ff ff    	cmp    -0x101c(%ebp),%ebx
    1602:	0f 85 76 ff ff ff    	jne    157e <pane_row_range_display+0x33e>
    1608:	a1 40 58 02 00       	mov    0x25840,%eax
    160d:	89 04 24             	mov    %eax,(%esp)
    1610:	e8 0b f3 00 00       	call   10920 <console_flush>
    1615:	a1 40 58 02 00       	mov    0x25840,%eax
    161a:	89 04 24             	mov    %eax,(%esp)
    161d:	c7 44 24 04 00 00 00 	movl   $0x0,0x4(%esp)
    1624:	00 
    1625:	e8 26 f4 00 00       	call   10a50 <console_set_style>
    162a:	a1 40 58 02 00       	mov    0x25840,%eax
    162f:	89 04 24             	mov    %eax,(%esp)
    1632:	e8 e9 f2 00 00       	call   10920 <console_flush>
    1637:	e9 42 ff ff ff       	jmp    157e <pane_row_range_display+0x33e>
    163c:	8b 95 dc ef ff ff    	mov    -0x1024(%ebp),%edx
    1642:	8b b5 cc ef ff ff    	mov    -0x1034(%ebp),%esi
    1648:	29 f2                	sub    %esi,%edx
    164a:	85 d2                	test   %edx,%edx
    164c:	0f 8f b9 fd ff ff    	jg     140b <pane_row_range_display+0x1cb>
    1652:	8b 95 e0 ef ff ff    	mov    -0x1020(%ebp),%edx
    1658:	39 d0                	cmp    %edx,%eax
    165a:	74 3e                	je     169a <pane_row_range_display+0x45a>
    165c:	29 d0                	sub    %edx,%eax
    165e:	85 c0                	test   %eax,%eax
    1660:	0f 89 a5 fd ff ff    	jns    140b <pane_row_range_display+0x1cb>
    1666:	a1 40 58 02 00       	mov    0x25840,%eax
    166b:	89 04 24             	mov    %eax,(%esp)
    166e:	e8 ad f2 00 00       	call   10920 <console_flush>
    1673:	a1 40 58 02 00       	mov    0x25840,%eax
    1678:	89 04 24             	mov    %eax,(%esp)
    167b:	c7 44 24 04 03 00 00 	movl   $0x3,0x4(%esp)
    1682:	00 
    1683:	e8 c8 f3 00 00       	call   10a50 <console_set_style>
    1688:	a1 40 58 02 00       	mov    0x25840,%eax
    168d:	89 04 24             	mov    %eax,(%esp)
    1690:	e8 8b f2 00 00       	call   10920 <console_flush>
    1695:	e9 71 fd ff ff       	jmp    140b <pane_row_range_display+0x1cb>
    169a:	8b 85 cc ef ff ff    	mov    -0x1034(%ebp),%eax
    16a0:	8b 9d e4 ef ff ff    	mov    -0x101c(%ebp),%ebx
    16a6:	29 d8                	sub    %ebx,%eax
    16a8:	eb b4                	jmp    165e <pane_row_range_display+0x41e>
    16aa:	8b 85 dc ef ff ff    	mov    -0x1024(%ebp),%eax
    16b0:	8b b5 e4 ef ff ff    	mov    -0x101c(%ebp),%esi
    16b6:	29 f0                	sub    %esi,%eax
    16b8:	e9 fb fb ff ff       	jmp    12b8 <pane_row_range_display+0x78>
    16bd:	8d 76 00             	lea    0x0(%esi),%esi

000016c0 <selection_delete>:
    16c0:	55                   	push   %ebp
    16c1:	89 e5                	mov    %esp,%ebp
    16c3:	56                   	push   %esi
    16c4:	53                   	push   %ebx
    16c5:	83 ec 30             	sub    $0x30,%esp
    16c8:	8d 75 d8             	lea    -0x28(%ebp),%esi
    16cb:	8d 5d e0             	lea    -0x20(%ebp),%ebx
    16ce:	89 74 24 04          	mov    %esi,0x4(%esp)
    16d2:	c7 04 24 84 58 02 00 	movl   $0x25884,(%esp)
    16d9:	e8 12 3b 00 00       	call   51f0 <tag_get_pt>
    16de:	89 5c 24 04          	mov    %ebx,0x4(%esp)
    16e2:	c7 04 24 74 58 02 00 	movl   $0x25874,(%esp)
    16e9:	e8 02 3b 00 00       	call   51f0 <tag_get_pt>
    16ee:	8d 45 e8             	lea    -0x18(%ebp),%eax
    16f1:	89 44 24 04          	mov    %eax,0x4(%esp)
    16f5:	89 34 24             	mov    %esi,(%esp)
    16f8:	e8 63 39 00 00       	call   5060 <spt_get_coord>
    16fd:	8d 45 f0             	lea    -0x10(%ebp),%eax
    1700:	89 44 24 04          	mov    %eax,0x4(%esp)
    1704:	89 1c 24             	mov    %ebx,(%esp)
    1707:	e8 54 39 00 00       	call   5060 <spt_get_coord>
    170c:	8b 55 e8             	mov    -0x18(%ebp),%edx
    170f:	8b 45 f0             	mov    -0x10(%ebp),%eax
    1712:	39 c2                	cmp    %eax,%edx
    1714:	74 3a                	je     1750 <selection_delete+0x90>
    1716:	29 c2                	sub    %eax,%edx
    1718:	83 fa 00             	cmp    $0x0,%edx
    171b:	74 2c                	je     1749 <selection_delete+0x89>
    171d:	7c 41                	jl     1760 <selection_delete+0xa0>
    171f:	a1 a4 58 02 00       	mov    0x258a4,%eax
    1724:	89 74 24 08          	mov    %esi,0x8(%esp)
    1728:	89 5c 24 04          	mov    %ebx,0x4(%esp)
    172c:	89 04 24             	mov    %eax,(%esp)
    172f:	e8 bc 35 00 00       	call   4cf0 <sheet_delete>
    1734:	8b 45 f0             	mov    -0x10(%ebp),%eax
    1737:	39 45 e8             	cmp    %eax,-0x18(%ebp)
    173a:	a1 70 58 02 00       	mov    0x25870,%eax
    173f:	74 41                	je     1782 <selection_delete+0xc2>
    1741:	83 c8 01             	or     $0x1,%eax
    1744:	a3 70 58 02 00       	mov    %eax,0x25870
    1749:	83 c4 30             	add    $0x30,%esp
    174c:	5b                   	pop    %ebx
    174d:	5e                   	pop    %esi
    174e:	5d                   	pop    %ebp
    174f:	c3                   	ret    
    1750:	8b 55 ec             	mov    -0x14(%ebp),%edx
    1753:	8b 45 f4             	mov    -0xc(%ebp),%eax
    1756:	29 c2                	sub    %eax,%edx
    1758:	eb be                	jmp    1718 <selection_delete+0x58>
    175a:	8d b6 00 00 00 00    	lea    0x0(%esi),%esi
    1760:	a1 a4 58 02 00       	mov    0x258a4,%eax
    1765:	89 5c 24 08          	mov    %ebx,0x8(%esp)
    1769:	89 74 24 04          	mov    %esi,0x4(%esp)
    176d:	89 04 24             	mov    %eax,(%esp)
    1770:	e8 7b 35 00 00       	call   4cf0 <sheet_delete>
    1775:	8b 45 f0             	mov    -0x10(%ebp),%eax
    1778:	39 45 e8             	cmp    %eax,-0x18(%ebp)
    177b:	a1 70 58 02 00       	mov    0x25870,%eax
    1780:	75 bf                	jne    1741 <selection_delete+0x81>
    1782:	83 c8 02             	or     $0x2,%eax
    1785:	eb bd                	jmp    1744 <selection_delete+0x84>
    1787:	89 f6                	mov    %esi,%esi
    1789:	8d bc 27 00 00 00 00 	lea    0x0(%edi,%eiz,1),%edi

00001790 <caret_move_relative>:
    1790:	55                   	push   %ebp
    1791:	89 e5                	mov    %esp,%ebp
    1793:	57                   	push   %edi
    1794:	56                   	push   %esi
    1795:	53                   	push   %ebx
    1796:	83 ec 6c             	sub    $0x6c,%esp
    1799:	8d 75 b0             	lea    -0x50(%ebp),%esi
    179c:	89 c3                	mov    %eax,%ebx
    179e:	8d 7d b8             	lea    -0x48(%ebp),%edi
    17a1:	8a 45 08             	mov    0x8(%ebp),%al
    17a4:	89 74 24 04          	mov    %esi,0x4(%esp)
    17a8:	c7 04 24 74 58 02 00 	movl   $0x25874,(%esp)
    17af:	89 4d a4             	mov    %ecx,-0x5c(%ebp)
    17b2:	88 45 a3             	mov    %al,-0x5d(%ebp)
    17b5:	89 55 9c             	mov    %edx,-0x64(%ebp)
    17b8:	e8 33 3a 00 00       	call   51f0 <tag_get_pt>
    17bd:	89 7c 24 04          	mov    %edi,0x4(%esp)
    17c1:	89 34 24             	mov    %esi,(%esp)
    17c4:	e8 97 38 00 00       	call   5060 <spt_get_coord>
    17c9:	8b 4d b8             	mov    -0x48(%ebp),%ecx
    17cc:	8b 45 bc             	mov    -0x44(%ebp),%eax
    17cf:	8b 55 9c             	mov    -0x64(%ebp),%edx
    17d2:	01 d9                	add    %ebx,%ecx
    17d4:	01 d0                	add    %edx,%eax
    17d6:	89 4d b8             	mov    %ecx,-0x48(%ebp)
    17d9:	89 45 bc             	mov    %eax,-0x44(%ebp)
    17dc:	85 db                	test   %ebx,%ebx
    17de:	0f 88 b4 01 00 00    	js     1998 <caret_move_relative+0x208>
    17e4:	85 d2                	test   %edx,%edx
    17e6:	0f 88 74 01 00 00    	js     1960 <caret_move_relative+0x1d0>
    17ec:	85 db                	test   %ebx,%ebx
    17ee:	7e 26                	jle    1816 <caret_move_relative+0x86>
    17f0:	8d 45 ac             	lea    -0x54(%ebp),%eax
    17f3:	89 55 9c             	mov    %edx,-0x64(%ebp)
    17f6:	89 44 24 04          	mov    %eax,0x4(%esp)
    17fa:	a1 a4 58 02 00       	mov    0x258a4,%eax
    17ff:	89 04 24             	mov    %eax,(%esp)
    1802:	e8 09 38 00 00       	call   5010 <sheet_get_num_rows>
    1807:	8b 45 ac             	mov    -0x54(%ebp),%eax
    180a:	39 45 b8             	cmp    %eax,-0x48(%ebp)
    180d:	8b 55 9c             	mov    -0x64(%ebp),%edx
    1810:	0f 8f fa 00 00 00    	jg     1910 <caret_move_relative+0x180>
    1816:	8b 45 a4             	mov    -0x5c(%ebp),%eax
    1819:	85 c0                	test   %eax,%eax
    181b:	0f 94 c0             	sete   %al
    181e:	85 d2                	test   %edx,%edx
    1820:	0f 94 c3             	sete   %bl
    1823:	20 c3                	and    %al,%bl
    1825:	74 08                	je     182f <caret_move_relative+0x9f>
    1827:	a1 94 58 02 00       	mov    0x25894,%eax
    182c:	89 45 bc             	mov    %eax,-0x44(%ebp)
    182f:	8b 45 a4             	mov    -0x5c(%ebp),%eax
    1832:	89 74 24 0c          	mov    %esi,0xc(%esp)
    1836:	89 44 24 08          	mov    %eax,0x8(%esp)
    183a:	a1 a4 58 02 00       	mov    0x258a4,%eax
    183f:	89 7c 24 04          	mov    %edi,0x4(%esp)
    1843:	89 04 24             	mov    %eax,(%esp)
    1846:	8d 75 c8             	lea    -0x38(%ebp),%esi
    1849:	e8 12 36 00 00       	call   4e60 <sheet_get_cell_pt>
    184e:	8d 7d d0             	lea    -0x30(%ebp),%edi
    1851:	8b 55 b4             	mov    -0x4c(%ebp),%edx
    1854:	8b 45 b0             	mov    -0x50(%ebp),%eax
    1857:	89 74 24 04          	mov    %esi,0x4(%esp)
    185b:	c7 04 24 74 58 02 00 	movl   $0x25874,(%esp)
    1862:	89 55 c4             	mov    %edx,-0x3c(%ebp)
    1865:	89 45 c0             	mov    %eax,-0x40(%ebp)
    1868:	e8 83 39 00 00       	call   51f0 <tag_get_pt>
    186d:	89 7c 24 04          	mov    %edi,0x4(%esp)
    1871:	c7 04 24 84 58 02 00 	movl   $0x25884,(%esp)
    1878:	e8 73 39 00 00       	call   51f0 <tag_get_pt>
    187d:	89 7c 24 04          	mov    %edi,0x4(%esp)
    1881:	89 34 24             	mov    %esi,(%esp)
    1884:	8d 7d c0             	lea    -0x40(%ebp),%edi
    1887:	e8 64 38 00 00       	call   50f0 <spt_equal>
    188c:	8b 15 a4 58 02 00    	mov    0x258a4,%edx
    1892:	89 14 24             	mov    %edx,(%esp)
    1895:	c7 44 24 04 74 58 02 	movl   $0x25874,0x4(%esp)
    189c:	00 
    189d:	88 45 9c             	mov    %al,-0x64(%ebp)
    18a0:	e8 1b 39 00 00       	call   51c0 <sheet_remove_tag>
    18a5:	8b 15 a4 58 02 00    	mov    0x258a4,%edx
    18ab:	c7 44 24 08 74 58 02 	movl   $0x25874,0x8(%esp)
    18b2:	00 
    18b3:	89 7c 24 04          	mov    %edi,0x4(%esp)
    18b7:	89 14 24             	mov    %edx,(%esp)
    18ba:	e8 d1 38 00 00       	call   5190 <sheet_place_tag>
    18bf:	80 7d a3 00          	cmpb   $0x0,-0x5d(%ebp)
    18c3:	74 53                	je     1918 <caret_move_relative+0x188>
    18c5:	8d 55 e0             	lea    -0x20(%ebp),%edx
    18c8:	89 3c 24             	mov    %edi,(%esp)
    18cb:	89 54 24 04          	mov    %edx,0x4(%esp)
    18cf:	e8 8c 37 00 00       	call   5060 <spt_get_coord>
    18d4:	8d 45 d8             	lea    -0x28(%ebp),%eax
    18d7:	89 44 24 04          	mov    %eax,0x4(%esp)
    18db:	89 34 24             	mov    %esi,(%esp)
    18de:	e8 7d 37 00 00       	call   5060 <spt_get_coord>
    18e3:	8b 45 e0             	mov    -0x20(%ebp),%eax
    18e6:	39 45 d8             	cmp    %eax,-0x28(%ebp)
    18e9:	0f 84 c9 00 00 00    	je     19b8 <caret_move_relative+0x228>
    18ef:	83 0d 70 58 02 00 01 	orl    $0x1,0x25870
    18f6:	84 db                	test   %bl,%bl
    18f8:	75 08                	jne    1902 <caret_move_relative+0x172>
    18fa:	8b 45 e4             	mov    -0x1c(%ebp),%eax
    18fd:	a3 94 58 02 00       	mov    %eax,0x25894
    1902:	e8 f9 f7 ff ff       	call   1100 <caret_update>
    1907:	83 c4 6c             	add    $0x6c,%esp
    190a:	5b                   	pop    %ebx
    190b:	5e                   	pop    %esi
    190c:	5f                   	pop    %edi
    190d:	5d                   	pop    %ebp
    190e:	c3                   	ret    
    190f:	90                   	nop
    1910:	89 45 b8             	mov    %eax,-0x48(%ebp)
    1913:	e9 fe fe ff ff       	jmp    1816 <caret_move_relative+0x86>
    1918:	8b 15 a4 58 02 00    	mov    0x258a4,%edx
    191e:	c7 44 24 04 84 58 02 	movl   $0x25884,0x4(%esp)
    1925:	00 
    1926:	89 14 24             	mov    %edx,(%esp)
    1929:	e8 92 38 00 00       	call   51c0 <sheet_remove_tag>
    192e:	8b 15 a4 58 02 00    	mov    0x258a4,%edx
    1934:	89 14 24             	mov    %edx,(%esp)
    1937:	c7 44 24 08 84 58 02 	movl   $0x25884,0x8(%esp)
    193e:	00 
    193f:	89 7c 24 04          	mov    %edi,0x4(%esp)
    1943:	e8 48 38 00 00       	call   5190 <sheet_place_tag>
    1948:	8d 55 e0             	lea    -0x20(%ebp),%edx
    194b:	89 54 24 04          	mov    %edx,0x4(%esp)
    194f:	89 3c 24             	mov    %edi,(%esp)
    1952:	e8 09 37 00 00       	call   5060 <spt_get_coord>
    1957:	8a 45 9c             	mov    -0x64(%ebp),%al
    195a:	84 c0                	test   %al,%al
    195c:	75 98                	jne    18f6 <caret_move_relative+0x166>
    195e:	eb 8f                	jmp    18ef <caret_move_relative+0x15f>
    1960:	85 c0                	test   %eax,%eax
    1962:	0f 8f 84 fe ff ff    	jg     17ec <caret_move_relative+0x5c>
    1968:	83 f9 01             	cmp    $0x1,%ecx
    196b:	7e 5b                	jle    19c8 <caret_move_relative+0x238>
    196d:	8d 41 ff             	lea    -0x1(%ecx),%eax
    1970:	8d 4d bc             	lea    -0x44(%ebp),%ecx
    1973:	89 45 b8             	mov    %eax,-0x48(%ebp)
    1976:	89 44 24 04          	mov    %eax,0x4(%esp)
    197a:	a1 a4 58 02 00       	mov    0x258a4,%eax
    197f:	89 4c 24 08          	mov    %ecx,0x8(%esp)
    1983:	89 04 24             	mov    %eax,(%esp)
    1986:	89 55 9c             	mov    %edx,-0x64(%ebp)
    1989:	e8 82 35 00 00       	call   4f10 <sheet_get_row_width>
    198e:	8b 55 9c             	mov    -0x64(%ebp),%edx
    1991:	e9 56 fe ff ff       	jmp    17ec <caret_move_relative+0x5c>
    1996:	66 90                	xchg   %ax,%ax
    1998:	85 c9                	test   %ecx,%ecx
    199a:	0f 8f 44 fe ff ff    	jg     17e4 <caret_move_relative+0x54>
    19a0:	c7 45 b8 01 00 00 00 	movl   $0x1,-0x48(%ebp)
    19a7:	b9 01 00 00 00       	mov    $0x1,%ecx
    19ac:	e9 33 fe ff ff       	jmp    17e4 <caret_move_relative+0x54>
    19b1:	8d b4 26 00 00 00 00 	lea    0x0(%esi,%eiz,1),%esi
    19b8:	83 0d 70 58 02 00 02 	orl    $0x2,0x25870
    19bf:	e9 32 ff ff ff       	jmp    18f6 <caret_move_relative+0x166>
    19c4:	8d 74 26 00          	lea    0x0(%esi,%eiz,1),%esi
    19c8:	c7 45 bc 01 00 00 00 	movl   $0x1,-0x44(%ebp)
    19cf:	e9 18 fe ff ff       	jmp    17ec <caret_move_relative+0x5c>
    19d4:	8d b6 00 00 00 00    	lea    0x0(%esi),%esi
    19da:	8d bf 00 00 00 00    	lea    0x0(%edi),%edi

000019e0 <pane_text_display>:
    19e0:	55                   	push   %ebp
    19e1:	89 e5                	mov    %esp,%ebp
    19e3:	56                   	push   %esi
    19e4:	53                   	push   %ebx
    19e5:	83 ec 20             	sub    $0x20,%esp
    19e8:	8d 45 f4             	lea    -0xc(%ebp),%eax
    19eb:	89 44 24 04          	mov    %eax,0x4(%esp)
    19ef:	a1 a4 58 02 00       	mov    0x258a4,%eax
    19f4:	89 04 24             	mov    %eax,(%esp)
    19f7:	e8 14 36 00 00       	call   5010 <sheet_get_num_rows>
    19fc:	8b 15 68 58 02 00    	mov    0x25868,%edx
    1a02:	8b 45 f4             	mov    -0xc(%ebp),%eax
    1a05:	29 d0                	sub    %edx,%eax
    1a07:	8b 15 60 58 02 00    	mov    0x25860,%edx
    1a0d:	8d 70 01             	lea    0x1(%eax),%esi
    1a10:	39 d6                	cmp    %edx,%esi
    1a12:	7e 02                	jle    1a16 <pane_text_display+0x36>
    1a14:	89 d6                	mov    %edx,%esi
    1a16:	a1 40 58 02 00       	mov    0x25840,%eax
    1a1b:	c7 44 24 08 00 00 00 	movl   $0x0,0x8(%esp)
    1a22:	00 
    1a23:	89 04 24             	mov    %eax,(%esp)
    1a26:	c7 44 24 04 00 00 00 	movl   $0x0,0x4(%esp)
    1a2d:	00 
    1a2e:	e8 7d f3 00 00       	call   10db0 <console_set_pos>
    1a33:	31 c0                	xor    %eax,%eax
    1a35:	89 f2                	mov    %esi,%edx
    1a37:	e8 04 f8 ff ff       	call   1240 <pane_row_range_display>
    1a3c:	3b 35 60 58 02 00    	cmp    0x25860,%esi
    1a42:	7d 57                	jge    1a9b <pane_text_display+0xbb>
    1a44:	8d 74 26 00          	lea    0x0(%esi,%eiz,1),%esi
    1a48:	a1 40 58 02 00       	mov    0x25840,%eax
    1a4d:	89 74 24 08          	mov    %esi,0x8(%esp)
    1a51:	89 04 24             	mov    %eax,(%esp)
    1a54:	c7 44 24 04 00 00 00 	movl   $0x0,0x4(%esp)
    1a5b:	00 
    1a5c:	e8 4f f3 00 00       	call   10db0 <console_set_pos>
    1a61:	a1 44 58 02 00       	mov    0x25844,%eax
    1a66:	31 db                	xor    %ebx,%ebx
    1a68:	85 c0                	test   %eax,%eax
    1a6a:	74 19                	je     1a85 <pane_text_display+0xa5>
    1a6c:	8d 74 26 00          	lea    0x0(%esi,%eiz,1),%esi
    1a70:	c7 04 24 20 00 00 00 	movl   $0x20,(%esp)
    1a77:	43                   	inc    %ebx
    1a78:	e8 23 bf 00 00       	call   d9a0 <putchar>
    1a7d:	39 1d 44 58 02 00    	cmp    %ebx,0x25844
    1a83:	77 eb                	ja     1a70 <pane_text_display+0x90>
    1a85:	a1 40 58 02 00       	mov    0x25840,%eax
    1a8a:	46                   	inc    %esi
    1a8b:	89 04 24             	mov    %eax,(%esp)
    1a8e:	e8 8d ee 00 00       	call   10920 <console_flush>
    1a93:	39 35 60 58 02 00    	cmp    %esi,0x25860
    1a99:	7f ad                	jg     1a48 <pane_text_display+0x68>
    1a9b:	a1 70 58 02 00       	mov    0x25870,%eax
    1aa0:	83 e0 fd             	and    $0xfffffffd,%eax
    1aa3:	83 c8 0c             	or     $0xc,%eax
    1aa6:	a3 70 58 02 00       	mov    %eax,0x25870
    1aab:	83 c4 20             	add    $0x20,%esp
    1aae:	5b                   	pop    %ebx
    1aaf:	5e                   	pop    %esi
    1ab0:	5d                   	pop    %ebp
    1ab1:	c3                   	ret    
    1ab2:	8d b4 26 00 00 00 00 	lea    0x0(%esi,%eiz,1),%esi
    1ab9:	8d bc 27 00 00 00 00 	lea    0x0(%edi,%eiz,1),%edi

00001ac0 <pane_status_display>:
    1ac0:	55                   	push   %ebp
    1ac1:	89 e5                	mov    %esp,%ebp
    1ac3:	53                   	push   %ebx
    1ac4:	83 ec 44             	sub    $0x44,%esp
    1ac7:	8d 5d e8             	lea    -0x18(%ebp),%ebx
    1aca:	89 5c 24 04          	mov    %ebx,0x4(%esp)
    1ace:	c7 04 24 74 58 02 00 	movl   $0x25874,(%esp)
    1ad5:	e8 16 37 00 00       	call   51f0 <tag_get_pt>
    1ada:	8d 45 f0             	lea    -0x10(%ebp),%eax
    1add:	89 44 24 04          	mov    %eax,0x4(%esp)
    1ae1:	89 1c 24             	mov    %ebx,(%esp)
    1ae4:	e8 77 35 00 00       	call   5060 <spt_get_coord>
    1ae9:	8d 45 e4             	lea    -0x1c(%ebp),%eax
    1aec:	89 44 24 04          	mov    %eax,0x4(%esp)
    1af0:	a1 a4 58 02 00       	mov    0x258a4,%eax
    1af5:	89 04 24             	mov    %eax,(%esp)
    1af8:	e8 13 35 00 00       	call   5010 <sheet_get_num_rows>
    1afd:	8b 1d a0 58 02 00    	mov    0x258a0,%ebx
    1b03:	85 db                	test   %ebx,%ebx
    1b05:	0f 84 ad 00 00 00    	je     1bb8 <pane_status_display+0xf8>
    1b0b:	a1 48 58 02 00       	mov    0x25848,%eax
    1b10:	c7 44 24 04 00 00 00 	movl   $0x0,0x4(%esp)
    1b17:	00 
    1b18:	48                   	dec    %eax
    1b19:	89 44 24 08          	mov    %eax,0x8(%esp)
    1b1d:	a1 40 58 02 00       	mov    0x25840,%eax
    1b22:	89 04 24             	mov    %eax,(%esp)
    1b25:	e8 86 f2 00 00       	call   10db0 <console_set_pos>
    1b2a:	a1 40 58 02 00       	mov    0x25840,%eax
    1b2f:	89 04 24             	mov    %eax,(%esp)
    1b32:	c7 44 24 04 02 00 00 	movl   $0x2,0x4(%esp)
    1b39:	00 
    1b3a:	e8 11 ef 00 00       	call   10a50 <console_set_style>
    1b3f:	8b 45 e4             	mov    -0x1c(%ebp),%eax
    1b42:	89 44 24 0c          	mov    %eax,0xc(%esp)
    1b46:	8b 45 f4             	mov    -0xc(%ebp),%eax
    1b49:	89 44 24 08          	mov    %eax,0x8(%esp)
    1b4d:	8b 45 f0             	mov    -0x10(%ebp),%eax
    1b50:	89 5c 24 10          	mov    %ebx,0x10(%esp)
    1b54:	89 44 24 04          	mov    %eax,0x4(%esp)
    1b58:	c7 04 24 f0 29 02 00 	movl   $0x229f0,(%esp)
    1b5f:	e8 fc c0 00 00       	call   dc60 <printf>
    1b64:	8b 0d 44 58 02 00    	mov    0x25844,%ecx
    1b6a:	83 f0 ff             	xor    $0xffffffff,%eax
    1b6d:	c7 44 24 08 f7 3a 02 	movl   $0x23af7,0x8(%esp)
    1b74:	00 
    1b75:	01 c8                	add    %ecx,%eax
    1b77:	c7 04 24 36 28 02 00 	movl   $0x22836,(%esp)
    1b7e:	89 44 24 04          	mov    %eax,0x4(%esp)
    1b82:	e8 d9 c0 00 00       	call   dc60 <printf>
    1b87:	a1 40 58 02 00       	mov    0x25840,%eax
    1b8c:	89 04 24             	mov    %eax,(%esp)
    1b8f:	e8 8c ed 00 00       	call   10920 <console_flush>
    1b94:	a1 40 58 02 00       	mov    0x25840,%eax
    1b99:	c7 44 24 04 00 00 00 	movl   $0x0,0x4(%esp)
    1ba0:	00 
    1ba1:	89 04 24             	mov    %eax,(%esp)
    1ba4:	e8 a7 ee 00 00       	call   10a50 <console_set_style>
    1ba9:	83 0d 70 58 02 00 08 	orl    $0x8,0x25870
    1bb0:	83 c4 44             	add    $0x44,%esp
    1bb3:	5b                   	pop    %ebx
    1bb4:	5d                   	pop    %ebp
    1bb5:	c3                   	ret    
    1bb6:	66 90                	xchg   %ax,%ax
    1bb8:	bb 2c 28 02 00       	mov    $0x2282c,%ebx
    1bbd:	e9 49 ff ff ff       	jmp    1b0b <pane_status_display+0x4b>
    1bc2:	8d b4 26 00 00 00 00 	lea    0x0(%esi,%eiz,1),%esi
    1bc9:	8d bc 27 00 00 00 00 	lea    0x0(%edi,%eiz,1),%edi

00001bd0 <search_spt_reverse_producer>:
    1bd0:	55                   	push   %ebp
    1bd1:	89 e5                	mov    %esp,%ebp
    1bd3:	53                   	push   %ebx
    1bd4:	83 ec 14             	sub    $0x14,%esp
    1bd7:	8b 45 08             	mov    0x8(%ebp),%eax
    1bda:	8b 5d 0c             	mov    0xc(%ebp),%ebx
    1bdd:	85 c0                	test   %eax,%eax
    1bdf:	74 23                	je     1c04 <search_spt_reverse_producer+0x34>
    1be1:	85 db                	test   %ebx,%ebx
    1be3:	74 3b                	je     1c20 <search_spt_reverse_producer+0x50>
    1be5:	89 44 24 08          	mov    %eax,0x8(%esp)
    1be9:	8b 50 04             	mov    0x4(%eax),%edx
    1bec:	8b 00                	mov    (%eax),%eax
    1bee:	89 04 24             	mov    %eax,(%esp)
    1bf1:	89 54 24 04          	mov    %edx,0x4(%esp)
    1bf5:	e8 56 35 00 00       	call   5150 <spt_prev_char>
    1bfa:	89 03                	mov    %eax,(%ebx)
    1bfc:	83 c4 14             	add    $0x14,%esp
    1bff:	31 c0                	xor    %eax,%eax
    1c01:	5b                   	pop    %ebx
    1c02:	5d                   	pop    %ebp
    1c03:	c3                   	ret    
    1c04:	c7 44 24 08 ae 04 00 	movl   $0x4ae,0x8(%esp)
    1c0b:	00 
    1c0c:	c7 44 24 04 3a 28 02 	movl   $0x2283a,0x4(%esp)
    1c13:	00 
    1c14:	c7 04 24 41 28 02 00 	movl   $0x22841,(%esp)
    1c1b:	e8 a0 be 01 00       	call   1dac0 <assert_abort>
    1c20:	c7 44 24 08 af 04 00 	movl   $0x4af,0x8(%esp)
    1c27:	00 
    1c28:	c7 44 24 04 3a 28 02 	movl   $0x2283a,0x4(%esp)
    1c2f:	00 
    1c30:	c7 04 24 4e 28 02 00 	movl   $0x2284e,(%esp)
    1c37:	e8 84 be 01 00       	call   1dac0 <assert_abort>
    1c3c:	8d 74 26 00          	lea    0x0(%esi,%eiz,1),%esi

00001c40 <search_spt_producer>:
    1c40:	55                   	push   %ebp
    1c41:	89 e5                	mov    %esp,%ebp
    1c43:	53                   	push   %ebx
    1c44:	83 ec 14             	sub    $0x14,%esp
    1c47:	8b 45 08             	mov    0x8(%ebp),%eax
    1c4a:	8b 5d 0c             	mov    0xc(%ebp),%ebx
    1c4d:	85 c0                	test   %eax,%eax
    1c4f:	74 23                	je     1c74 <search_spt_producer+0x34>
    1c51:	85 db                	test   %ebx,%ebx
    1c53:	74 3b                	je     1c90 <search_spt_producer+0x50>
    1c55:	89 44 24 08          	mov    %eax,0x8(%esp)
    1c59:	8b 50 04             	mov    0x4(%eax),%edx
    1c5c:	8b 00                	mov    (%eax),%eax
    1c5e:	89 04 24             	mov    %eax,(%esp)
    1c61:	89 54 24 04          	mov    %edx,0x4(%esp)
    1c65:	e8 a6 34 00 00       	call   5110 <spt_next_char>
    1c6a:	89 03                	mov    %eax,(%ebx)
    1c6c:	83 c4 14             	add    $0x14,%esp
    1c6f:	31 c0                	xor    %eax,%eax
    1c71:	5b                   	pop    %ebx
    1c72:	5d                   	pop    %ebp
    1c73:	c3                   	ret    
    1c74:	c7 44 24 08 a5 04 00 	movl   $0x4a5,0x8(%esp)
    1c7b:	00 
    1c7c:	c7 44 24 04 3a 28 02 	movl   $0x2283a,0x4(%esp)
    1c83:	00 
    1c84:	c7 04 24 41 28 02 00 	movl   $0x22841,(%esp)
    1c8b:	e8 30 be 01 00       	call   1dac0 <assert_abort>
    1c90:	c7 44 24 08 a6 04 00 	movl   $0x4a6,0x8(%esp)
    1c97:	00 
    1c98:	c7 44 24 04 3a 28 02 	movl   $0x2283a,0x4(%esp)
    1c9f:	00 
    1ca0:	c7 04 24 4e 28 02 00 	movl   $0x2284e,(%esp)
    1ca7:	e8 14 be 01 00       	call   1dac0 <assert_abort>
    1cac:	8d 74 26 00          	lea    0x0(%esi,%eiz,1),%esi

00001cb0 <search_spt_mark>:
    1cb0:	55                   	push   %ebp
    1cb1:	89 e5                	mov    %esp,%ebp
    1cb3:	56                   	push   %esi
    1cb4:	53                   	push   %ebx
    1cb5:	83 ec 10             	sub    $0x10,%esp
    1cb8:	8b 75 08             	mov    0x8(%ebp),%esi
    1cbb:	8b 5d 0c             	mov    0xc(%ebp),%ebx
    1cbe:	85 f6                	test   %esi,%esi
    1cc0:	74 54                	je     1d16 <search_spt_mark+0x66>
    1cc2:	85 db                	test   %ebx,%ebx
    1cc4:	74 34                	je     1cfa <search_spt_mark+0x4a>
    1cc6:	c7 44 24 04 08 00 00 	movl   $0x8,0x4(%esp)
    1ccd:	00 
    1cce:	c7 04 24 01 00 00 00 	movl   $0x1,(%esp)
    1cd5:	e8 a6 15 01 00       	call   13280 <calloc>
    1cda:	89 03                	mov    %eax,(%ebx)
    1cdc:	85 c0                	test   %eax,%eax
    1cde:	74 13                	je     1cf3 <search_spt_mark+0x43>
    1ce0:	8b 16                	mov    (%esi),%edx
    1ce2:	8b 4e 04             	mov    0x4(%esi),%ecx
    1ce5:	89 48 04             	mov    %ecx,0x4(%eax)
    1ce8:	89 10                	mov    %edx,(%eax)
    1cea:	31 c0                	xor    %eax,%eax
    1cec:	83 c4 10             	add    $0x10,%esp
    1cef:	5b                   	pop    %ebx
    1cf0:	5e                   	pop    %esi
    1cf1:	5d                   	pop    %ebp
    1cf2:	c3                   	ret    
    1cf3:	b8 fe ff ff ff       	mov    $0xfffffffe,%eax
    1cf8:	eb f2                	jmp    1cec <search_spt_mark+0x3c>
    1cfa:	c7 44 24 08 b8 04 00 	movl   $0x4b8,0x8(%esp)
    1d01:	00 
    1d02:	c7 44 24 04 3a 28 02 	movl   $0x2283a,0x4(%esp)
    1d09:	00 
    1d0a:	c7 04 24 5a 28 02 00 	movl   $0x2285a,(%esp)
    1d11:	e8 aa bd 01 00       	call   1dac0 <assert_abort>
    1d16:	c7 44 24 08 b7 04 00 	movl   $0x4b7,0x8(%esp)
    1d1d:	00 
    1d1e:	c7 44 24 04 3a 28 02 	movl   $0x2283a,0x4(%esp)
    1d25:	00 
    1d26:	c7 04 24 41 28 02 00 	movl   $0x22841,(%esp)
    1d2d:	e8 8e bd 01 00       	call   1dac0 <assert_abort>
    1d32:	8d b4 26 00 00 00 00 	lea    0x0(%esi,%eiz,1),%esi
    1d39:	8d bc 27 00 00 00 00 	lea    0x0(%edi,%eiz,1),%edi

00001d40 <cursor_setvis>:
    1d40:	88 c2                	mov    %al,%dl
    1d42:	38 05 a8 58 02 00    	cmp    %al,0x258a8
    1d48:	74 2a                	je     1d74 <cursor_setvis+0x34>
    1d4a:	55                   	push   %ebp
    1d4b:	81 e2 ff 00 00 00    	and    $0xff,%edx
    1d51:	89 e5                	mov    %esp,%ebp
    1d53:	83 ec 28             	sub    $0x28,%esp
    1d56:	89 54 24 04          	mov    %edx,0x4(%esp)
    1d5a:	8b 15 40 58 02 00    	mov    0x25840,%edx
    1d60:	89 14 24             	mov    %edx,(%esp)
    1d63:	89 45 f4             	mov    %eax,-0xc(%ebp)
    1d66:	e8 95 ee 00 00       	call   10c00 <console_cursor_visibility>
    1d6b:	8b 45 f4             	mov    -0xc(%ebp),%eax
    1d6e:	a2 a8 58 02 00       	mov    %al,0x258a8
    1d73:	c9                   	leave  
    1d74:	c3                   	ret    
    1d75:	8d 74 26 00          	lea    0x0(%esi,%eiz,1),%esi
    1d79:	8d bc 27 00 00 00 00 	lea    0x0(%edi,%eiz,1),%edi

00001d80 <caret_move.constprop.12>:
    1d80:	55                   	push   %ebp
    1d81:	89 e5                	mov    %esp,%ebp
    1d83:	57                   	push   %edi
    1d84:	56                   	push   %esi
    1d85:	53                   	push   %ebx
    1d86:	83 ec 4c             	sub    $0x4c,%esp
    1d89:	8d 5d c8             	lea    -0x38(%ebp),%ebx
    1d8c:	8d 75 d0             	lea    -0x30(%ebp),%esi
    1d8f:	89 cf                	mov    %ecx,%edi
    1d91:	89 5c 24 04          	mov    %ebx,0x4(%esp)
    1d95:	c7 04 24 74 58 02 00 	movl   $0x25874,(%esp)
    1d9c:	89 55 c4             	mov    %edx,-0x3c(%ebp)
    1d9f:	89 45 c0             	mov    %eax,-0x40(%ebp)
    1da2:	e8 49 34 00 00       	call   51f0 <tag_get_pt>
    1da7:	89 74 24 04          	mov    %esi,0x4(%esp)
    1dab:	c7 04 24 84 58 02 00 	movl   $0x25884,(%esp)
    1db2:	e8 39 34 00 00       	call   51f0 <tag_get_pt>
    1db7:	89 74 24 04          	mov    %esi,0x4(%esp)
    1dbb:	89 1c 24             	mov    %ebx,(%esp)
    1dbe:	8d 75 c0             	lea    -0x40(%ebp),%esi
    1dc1:	e8 2a 33 00 00       	call   50f0 <spt_equal>
    1dc6:	8b 15 a4 58 02 00    	mov    0x258a4,%edx
    1dcc:	89 14 24             	mov    %edx,(%esp)
    1dcf:	c7 44 24 04 74 58 02 	movl   $0x25874,0x4(%esp)
    1dd6:	00 
    1dd7:	88 45 bc             	mov    %al,-0x44(%ebp)
    1dda:	e8 e1 33 00 00       	call   51c0 <sheet_remove_tag>
    1ddf:	8b 15 a4 58 02 00    	mov    0x258a4,%edx
    1de5:	c7 44 24 08 74 58 02 	movl   $0x25874,0x8(%esp)
    1dec:	00 
    1ded:	89 14 24             	mov    %edx,(%esp)
    1df0:	89 74 24 04          	mov    %esi,0x4(%esp)
    1df4:	e8 97 33 00 00       	call   5190 <sheet_place_tag>
    1df9:	89 fa                	mov    %edi,%edx
    1dfb:	84 d2                	test   %dl,%dl
    1dfd:	74 49                	je     1e48 <caret_move.constprop.12+0xc8>
    1dff:	8d 45 e0             	lea    -0x20(%ebp),%eax
    1e02:	89 34 24             	mov    %esi,(%esp)
    1e05:	89 44 24 04          	mov    %eax,0x4(%esp)
    1e09:	e8 52 32 00 00       	call   5060 <spt_get_coord>
    1e0e:	8d 45 d8             	lea    -0x28(%ebp),%eax
    1e11:	89 44 24 04          	mov    %eax,0x4(%esp)
    1e15:	89 1c 24             	mov    %ebx,(%esp)
    1e18:	e8 43 32 00 00       	call   5060 <spt_get_coord>
    1e1d:	8b 45 e0             	mov    -0x20(%ebp),%eax
    1e20:	39 45 d8             	cmp    %eax,-0x28(%ebp)
    1e23:	74 6b                	je     1e90 <caret_move.constprop.12+0x110>
    1e25:	83 0d 70 58 02 00 01 	orl    $0x1,0x25870
    1e2c:	8b 45 e4             	mov    -0x1c(%ebp),%eax
    1e2f:	a3 94 58 02 00       	mov    %eax,0x25894
    1e34:	e8 c7 f2 ff ff       	call   1100 <caret_update>
    1e39:	83 c4 4c             	add    $0x4c,%esp
    1e3c:	5b                   	pop    %ebx
    1e3d:	5e                   	pop    %esi
    1e3e:	5f                   	pop    %edi
    1e3f:	5d                   	pop    %ebp
    1e40:	c3                   	ret    
    1e41:	8d b4 26 00 00 00 00 	lea    0x0(%esi,%eiz,1),%esi
    1e48:	8b 15 a4 58 02 00    	mov    0x258a4,%edx
    1e4e:	c7 44 24 04 84 58 02 	movl   $0x25884,0x4(%esp)
    1e55:	00 
    1e56:	89 14 24             	mov    %edx,(%esp)
    1e59:	e8 62 33 00 00       	call   51c0 <sheet_remove_tag>
    1e5e:	8b 15 a4 58 02 00    	mov    0x258a4,%edx
    1e64:	89 14 24             	mov    %edx,(%esp)
    1e67:	c7 44 24 08 84 58 02 	movl   $0x25884,0x8(%esp)
    1e6e:	00 
    1e6f:	89 74 24 04          	mov    %esi,0x4(%esp)
    1e73:	e8 18 33 00 00       	call   5190 <sheet_place_tag>
    1e78:	8d 55 e0             	lea    -0x20(%ebp),%edx
    1e7b:	89 54 24 04          	mov    %edx,0x4(%esp)
    1e7f:	89 34 24             	mov    %esi,(%esp)
    1e82:	e8 d9 31 00 00       	call   5060 <spt_get_coord>
    1e87:	8a 45 bc             	mov    -0x44(%ebp),%al
    1e8a:	84 c0                	test   %al,%al
    1e8c:	75 9e                	jne    1e2c <caret_move.constprop.12+0xac>
    1e8e:	eb 95                	jmp    1e25 <caret_move.constprop.12+0xa5>
    1e90:	83 0d 70 58 02 00 02 	orl    $0x2,0x25870
    1e97:	eb 93                	jmp    1e2c <caret_move.constprop.12+0xac>
    1e99:	8d b4 26 00 00 00 00 	lea    0x0(%esi,%eiz,1),%esi

00001ea0 <key_handle_movement>:
    1ea0:	83 e8 4c             	sub    $0x4c,%eax
    1ea3:	83 f8 08             	cmp    $0x8,%eax
    1ea6:	77 78                	ja     1f20 <key_handle_movement+0x80>
    1ea8:	55                   	push   %ebp
    1ea9:	89 e5                	mov    %esp,%ebp
    1eab:	57                   	push   %edi
    1eac:	56                   	push   %esi
    1ead:	53                   	push   %ebx
    1eae:	83 ec 3c             	sub    $0x3c,%esp
    1eb1:	89 d7                	mov    %edx,%edi
    1eb3:	ff 24 85 5c 2a 02 00 	jmp    *0x22a5c(,%eax,4)
    1eba:	8d b6 00 00 00 00    	lea    0x0(%esi),%esi
    1ec0:	8d 5d d8             	lea    -0x28(%ebp),%ebx
    1ec3:	c7 04 24 74 58 02 00 	movl   $0x25874,(%esp)
    1eca:	89 5c 24 04          	mov    %ebx,0x4(%esp)
    1ece:	8d 75 e0             	lea    -0x20(%ebp),%esi
    1ed1:	e8 1a 33 00 00       	call   51f0 <tag_get_pt>
    1ed6:	89 74 24 04          	mov    %esi,0x4(%esp)
    1eda:	89 1c 24             	mov    %ebx,(%esp)
    1edd:	e8 7e 31 00 00       	call   5060 <spt_get_coord>
    1ee2:	c7 45 e4 01 00 00 00 	movl   $0x1,-0x1c(%ebp)
    1ee9:	89 5c 24 0c          	mov    %ebx,0xc(%esp)
    1eed:	c7 44 24 08 00 00 00 	movl   $0x0,0x8(%esp)
    1ef4:	00 
    1ef5:	a1 a4 58 02 00       	mov    0x258a4,%eax
    1efa:	89 74 24 04          	mov    %esi,0x4(%esp)
    1efe:	89 04 24             	mov    %eax,(%esp)
    1f01:	e8 5a 2f 00 00       	call   4e60 <sheet_get_cell_pt>
    1f06:	89 f9                	mov    %edi,%ecx
    1f08:	81 e1 ff 00 00 00    	and    $0xff,%ecx
    1f0e:	8b 45 d8             	mov    -0x28(%ebp),%eax
    1f11:	8b 55 dc             	mov    -0x24(%ebp),%edx
    1f14:	e8 67 fe ff ff       	call   1d80 <caret_move.constprop.12>
    1f19:	83 c4 3c             	add    $0x3c,%esp
    1f1c:	5b                   	pop    %ebx
    1f1d:	5e                   	pop    %esi
    1f1e:	5f                   	pop    %edi
    1f1f:	5d                   	pop    %ebp
    1f20:	c3                   	ret    
    1f21:	8d b4 26 00 00 00 00 	lea    0x0(%esi,%eiz,1),%esi
    1f28:	81 e2 ff 00 00 00    	and    $0xff,%edx
    1f2e:	b9 01 00 00 00       	mov    $0x1,%ecx
    1f33:	89 14 24             	mov    %edx,(%esp)
    1f36:	31 c0                	xor    %eax,%eax
    1f38:	31 d2                	xor    %edx,%edx
    1f3a:	e8 51 f8 ff ff       	call   1790 <caret_move_relative>
    1f3f:	83 c4 3c             	add    $0x3c,%esp
    1f42:	5b                   	pop    %ebx
    1f43:	5e                   	pop    %esi
    1f44:	5f                   	pop    %edi
    1f45:	5d                   	pop    %ebp
    1f46:	eb d8                	jmp    1f20 <key_handle_movement+0x80>
    1f48:	a1 60 58 02 00       	mov    0x25860,%eax
    1f4d:	81 e2 ff 00 00 00    	and    $0xff,%edx
    1f53:	89 14 24             	mov    %edx,(%esp)
    1f56:	31 c9                	xor    %ecx,%ecx
    1f58:	f7 d8                	neg    %eax
    1f5a:	31 d2                	xor    %edx,%edx
    1f5c:	e8 2f f8 ff ff       	call   1790 <caret_move_relative>
    1f61:	83 c4 3c             	add    $0x3c,%esp
    1f64:	5b                   	pop    %ebx
    1f65:	5e                   	pop    %esi
    1f66:	5f                   	pop    %edi
    1f67:	5d                   	pop    %ebp
    1f68:	eb b6                	jmp    1f20 <key_handle_movement+0x80>
    1f6a:	8d b6 00 00 00 00    	lea    0x0(%esi),%esi
    1f70:	8d 5d d8             	lea    -0x28(%ebp),%ebx
    1f73:	c7 04 24 74 58 02 00 	movl   $0x25874,(%esp)
    1f7a:	89 5c 24 04          	mov    %ebx,0x4(%esp)
    1f7e:	8d 75 e0             	lea    -0x20(%ebp),%esi
    1f81:	e8 6a 32 00 00       	call   51f0 <tag_get_pt>
    1f86:	89 74 24 04          	mov    %esi,0x4(%esp)
    1f8a:	89 1c 24             	mov    %ebx,(%esp)
    1f8d:	e8 ce 30 00 00       	call   5060 <spt_get_coord>
    1f92:	8d 45 d4             	lea    -0x2c(%ebp),%eax
    1f95:	89 44 24 08          	mov    %eax,0x8(%esp)
    1f99:	8b 45 e0             	mov    -0x20(%ebp),%eax
    1f9c:	89 44 24 04          	mov    %eax,0x4(%esp)
    1fa0:	a1 a4 58 02 00       	mov    0x258a4,%eax
    1fa5:	89 04 24             	mov    %eax,(%esp)
    1fa8:	e8 63 2f 00 00       	call   4f10 <sheet_get_row_width>
    1fad:	8b 45 d4             	mov    -0x2c(%ebp),%eax
    1fb0:	48                   	dec    %eax
    1fb1:	89 5c 24 0c          	mov    %ebx,0xc(%esp)
    1fb5:	89 45 e4             	mov    %eax,-0x1c(%ebp)
    1fb8:	c7 44 24 08 01 00 00 	movl   $0x1,0x8(%esp)
    1fbf:	00 
    1fc0:	e9 30 ff ff ff       	jmp    1ef5 <key_handle_movement+0x55>
    1fc5:	8d 76 00             	lea    0x0(%esi),%esi
    1fc8:	81 e2 ff 00 00 00    	and    $0xff,%edx
    1fce:	31 c9                	xor    %ecx,%ecx
    1fd0:	89 14 24             	mov    %edx,(%esp)
    1fd3:	a1 60 58 02 00       	mov    0x25860,%eax
    1fd8:	31 d2                	xor    %edx,%edx
    1fda:	e8 b1 f7 ff ff       	call   1790 <caret_move_relative>
    1fdf:	83 c4 3c             	add    $0x3c,%esp
    1fe2:	5b                   	pop    %ebx
    1fe3:	5e                   	pop    %esi
    1fe4:	5f                   	pop    %edi
    1fe5:	5d                   	pop    %ebp
    1fe6:	e9 35 ff ff ff       	jmp    1f20 <key_handle_movement+0x80>
    1feb:	90                   	nop
    1fec:	8d 74 26 00          	lea    0x0(%esi,%eiz,1),%esi
    1ff0:	81 e2 ff 00 00 00    	and    $0xff,%edx
    1ff6:	31 c9                	xor    %ecx,%ecx
    1ff8:	89 14 24             	mov    %edx,(%esp)
    1ffb:	83 c8 ff             	or     $0xffffffff,%eax
    1ffe:	31 d2                	xor    %edx,%edx
    2000:	e8 8b f7 ff ff       	call   1790 <caret_move_relative>
    2005:	83 c4 3c             	add    $0x3c,%esp
    2008:	5b                   	pop    %ebx
    2009:	5e                   	pop    %esi
    200a:	5f                   	pop    %edi
    200b:	5d                   	pop    %ebp
    200c:	e9 0f ff ff ff       	jmp    1f20 <key_handle_movement+0x80>
    2011:	8d b4 26 00 00 00 00 	lea    0x0(%esi,%eiz,1),%esi
    2018:	81 e2 ff 00 00 00    	and    $0xff,%edx
    201e:	31 c9                	xor    %ecx,%ecx
    2020:	89 14 24             	mov    %edx,(%esp)
    2023:	31 c0                	xor    %eax,%eax
    2025:	83 ca ff             	or     $0xffffffff,%edx
    2028:	e8 63 f7 ff ff       	call   1790 <caret_move_relative>
    202d:	83 c4 3c             	add    $0x3c,%esp
    2030:	5b                   	pop    %ebx
    2031:	5e                   	pop    %esi
    2032:	5f                   	pop    %edi
    2033:	5d                   	pop    %ebp
    2034:	e9 e7 fe ff ff       	jmp    1f20 <key_handle_movement+0x80>
    2039:	8d b4 26 00 00 00 00 	lea    0x0(%esi,%eiz,1),%esi
    2040:	81 e2 ff 00 00 00    	and    $0xff,%edx
    2046:	31 c9                	xor    %ecx,%ecx
    2048:	89 14 24             	mov    %edx,(%esp)
    204b:	b8 01 00 00 00       	mov    $0x1,%eax
    2050:	31 d2                	xor    %edx,%edx
    2052:	e8 39 f7 ff ff       	call   1790 <caret_move_relative>
    2057:	83 c4 3c             	add    $0x3c,%esp
    205a:	5b                   	pop    %ebx
    205b:	5e                   	pop    %esi
    205c:	5f                   	pop    %edi
    205d:	5d                   	pop    %ebp
    205e:	e9 bd fe ff ff       	jmp    1f20 <key_handle_movement+0x80>
    2063:	8d b6 00 00 00 00    	lea    0x0(%esi),%esi
    2069:	8d bc 27 00 00 00 00 	lea    0x0(%edi,%eiz,1),%edi

00002070 <prompt>:
    2070:	55                   	push   %ebp
    2071:	89 e5                	mov    %esp,%ebp
    2073:	57                   	push   %edi
    2074:	56                   	push   %esi
    2075:	53                   	push   %ebx
    2076:	81 ec 4c 02 00 00    	sub    $0x24c,%esp
    207c:	89 c3                	mov    %eax,%ebx
    207e:	89 d6                	mov    %edx,%esi
    2080:	89 44 24 08          	mov    %eax,0x8(%esp)
    2084:	8d 85 c8 fd ff ff    	lea    -0x238(%ebp),%eax
    208a:	89 54 24 0c          	mov    %edx,0xc(%esp)
    208e:	c7 44 24 04 67 28 02 	movl   $0x22867,0x4(%esp)
    2095:	00 
    2096:	89 04 24             	mov    %eax,(%esp)
    2099:	e8 82 96 00 00       	call   b720 <asprintf>
    209e:	a1 48 58 02 00       	mov    0x25848,%eax
    20a3:	48                   	dec    %eax
    20a4:	c7 44 24 04 00 00 00 	movl   $0x0,0x4(%esp)
    20ab:	00 
    20ac:	89 44 24 08          	mov    %eax,0x8(%esp)
    20b0:	a1 40 58 02 00       	mov    0x25840,%eax
    20b5:	89 04 24             	mov    %eax,(%esp)
    20b8:	8b bd c8 fd ff ff    	mov    -0x238(%ebp),%edi
    20be:	e8 ed ec 00 00       	call   10db0 <console_set_pos>
    20c3:	a1 40 58 02 00       	mov    0x25840,%eax
    20c8:	89 04 24             	mov    %eax,(%esp)
    20cb:	c7 44 24 04 02 00 00 	movl   $0x2,0x4(%esp)
    20d2:	00 
    20d3:	e8 78 e9 00 00       	call   10a50 <console_set_style>
    20d8:	89 7c 24 08          	mov    %edi,0x8(%esp)
    20dc:	b9 03 00 00 00       	mov    $0x3,%ecx
    20e1:	8b 3d 44 58 02 00    	mov    0x25844,%edi
    20e7:	29 f9                	sub    %edi,%ecx
    20e9:	c7 04 24 22 28 02 00 	movl   $0x22822,(%esp)
    20f0:	89 4c 24 04          	mov    %ecx,0x4(%esp)
    20f4:	e8 67 bb 00 00       	call   dc60 <printf>
    20f9:	a1 40 58 02 00       	mov    0x25840,%eax
    20fe:	89 04 24             	mov    %eax,(%esp)
    2101:	e8 1a e8 00 00       	call   10920 <console_flush>
    2106:	a1 40 58 02 00       	mov    0x25840,%eax
    210b:	89 04 24             	mov    %eax,(%esp)
    210e:	c7 44 24 04 00 00 00 	movl   $0x0,0x4(%esp)
    2115:	00 
    2116:	e8 35 e9 00 00       	call   10a50 <console_set_style>
    211b:	8b 85 c8 fd ff ff    	mov    -0x238(%ebp),%eax
    2121:	89 04 24             	mov    %eax,(%esp)
    2124:	8b 3d 48 58 02 00    	mov    0x25848,%edi
    212a:	83 0d 70 58 02 00 08 	orl    $0x8,0x25870
    2131:	e8 ba 4a 00 00       	call   6bf0 <str_length>
    2136:	4f                   	dec    %edi
    2137:	40                   	inc    %eax
    2138:	89 7c 24 08          	mov    %edi,0x8(%esp)
    213c:	89 44 24 04          	mov    %eax,0x4(%esp)
    2140:	a1 40 58 02 00       	mov    0x25840,%eax
    2145:	89 04 24             	mov    %eax,(%esp)
    2148:	e8 63 ec 00 00       	call   10db0 <console_set_pos>
    214d:	8b 85 c8 fd ff ff    	mov    -0x238(%ebp),%eax
    2153:	89 04 24             	mov    %eax,(%esp)
    2156:	e8 95 12 01 00       	call   133f0 <free>
    215b:	a1 40 58 02 00       	mov    0x25840,%eax
    2160:	89 04 24             	mov    %eax,(%esp)
    2163:	c7 44 24 04 02 00 00 	movl   $0x2,0x4(%esp)
    216a:	00 
    216b:	e8 e0 e8 00 00       	call   10a50 <console_set_style>
    2170:	89 1c 24             	mov    %ebx,(%esp)
    2173:	8b 3d 44 58 02 00    	mov    0x25844,%edi
    2179:	e8 72 4a 00 00       	call   6bf0 <str_length>
    217e:	8d 4f fc             	lea    -0x4(%edi),%ecx
    2181:	29 c1                	sub    %eax,%ecx
    2183:	81 f9 80 00 00 00    	cmp    $0x80,%ecx
    2189:	0f 86 31 01 00 00    	jbe    22c0 <prompt+0x250>
    218f:	b8 81 00 00 00       	mov    $0x81,%eax
    2194:	c7 85 c4 fd ff ff 80 	movl   $0x80,-0x23c(%ebp)
    219b:	00 00 00 
    219e:	89 74 24 08          	mov    %esi,0x8(%esp)
    21a2:	8d b5 e4 fd ff ff    	lea    -0x21c(%ebp),%esi
    21a8:	89 44 24 04          	mov    %eax,0x4(%esp)
    21ac:	89 34 24             	mov    %esi,(%esp)
    21af:	e8 bc 5f 00 00       	call   8170 <str_to_wstr>
    21b4:	89 34 24             	mov    %esi,(%esp)
    21b7:	e8 14 4b 00 00       	call   6cd0 <wstr_length>
    21bc:	8d 9d cc fd ff ff    	lea    -0x234(%ebp),%ebx
    21c2:	89 c7                	mov    %eax,%edi
    21c4:	8d 74 26 00          	lea    0x0(%esi,%eiz,1),%esi
    21c8:	a1 40 58 02 00       	mov    0x25840,%eax
    21cd:	89 5c 24 04          	mov    %ebx,0x4(%esp)
    21d1:	89 04 24             	mov    %eax,(%esp)
    21d4:	e8 57 ec 00 00       	call   10e30 <console_get_kbd_event>
    21d9:	8b 85 d4 fd ff ff    	mov    -0x22c(%ebp),%eax
    21df:	85 c0                	test   %eax,%eax
    21e1:	75 e5                	jne    21c8 <prompt+0x158>
    21e3:	8b 85 dc fd ff ff    	mov    -0x224(%ebp),%eax
    21e9:	a8 30                	test   $0x30,%al
    21eb:	75 04                	jne    21f1 <prompt+0x181>
    21ed:	a8 0c                	test   $0xc,%al
    21ef:	75 d7                	jne    21c8 <prompt+0x158>
    21f1:	a8 3c                	test   $0x3c,%al
    21f3:	75 d3                	jne    21c8 <prompt+0x158>
    21f5:	8b 85 d8 fd ff ff    	mov    -0x228(%ebp),%eax
    21fb:	83 f8 29             	cmp    $0x29,%eax
    21fe:	0f 84 7c 00 00 00    	je     2280 <prompt+0x210>
    2204:	83 f8 3b             	cmp    $0x3b,%eax
    2207:	74 67                	je     2270 <prompt+0x200>
    2209:	83 f8 0e             	cmp    $0xe,%eax
    220c:	74 3a                	je     2248 <prompt+0x1d8>
    220e:	8b 85 e0 fd ff ff    	mov    -0x220(%ebp),%eax
    2214:	83 f8 1f             	cmp    $0x1f,%eax
    2217:	7e af                	jle    21c8 <prompt+0x158>
    2219:	39 bd c4 fd ff ff    	cmp    %edi,-0x23c(%ebp)
    221f:	7e a7                	jle    21c8 <prompt+0x158>
    2221:	89 04 24             	mov    %eax,(%esp)
    2224:	e8 77 b7 00 00       	call   d9a0 <putchar>
    2229:	a1 40 58 02 00       	mov    0x25840,%eax
    222e:	89 04 24             	mov    %eax,(%esp)
    2231:	e8 ea e6 00 00       	call   10920 <console_flush>
    2236:	8b 85 e0 fd ff ff    	mov    -0x220(%ebp),%eax
    223c:	89 84 bd e4 fd ff ff 	mov    %eax,-0x21c(%ebp,%edi,4)
    2243:	47                   	inc    %edi
    2244:	eb 82                	jmp    21c8 <prompt+0x158>
    2246:	66 90                	xchg   %ax,%ax
    2248:	85 ff                	test   %edi,%edi
    224a:	0f 8e 78 ff ff ff    	jle    21c8 <prompt+0x158>
    2250:	c7 04 24 08 00 00 00 	movl   $0x8,(%esp)
    2257:	4f                   	dec    %edi
    2258:	e8 43 b7 00 00       	call   d9a0 <putchar>
    225d:	a1 40 58 02 00       	mov    0x25840,%eax
    2262:	89 04 24             	mov    %eax,(%esp)
    2265:	e8 b6 e6 00 00       	call   10920 <console_flush>
    226a:	e9 59 ff ff ff       	jmp    21c8 <prompt+0x158>
    226f:	90                   	nop
    2270:	81 c4 4c 02 00 00    	add    $0x24c,%esp
    2276:	31 c0                	xor    %eax,%eax
    2278:	5b                   	pop    %ebx
    2279:	5e                   	pop    %esi
    227a:	5f                   	pop    %edi
    227b:	5d                   	pop    %ebp
    227c:	c3                   	ret    
    227d:	8d 76 00             	lea    0x0(%esi),%esi
    2280:	89 34 24             	mov    %esi,(%esp)
    2283:	c7 84 bd e4 fd ff ff 	movl   $0x0,-0x21c(%ebp,%edi,4)
    228a:	00 00 00 00 
    228e:	e8 bd 5c 00 00       	call   7f50 <wstr_to_astr>
    2293:	c7 44 24 04 00 00 00 	movl   $0x0,0x4(%esp)
    229a:	00 
    229b:	89 85 c8 fd ff ff    	mov    %eax,-0x238(%ebp)
    22a1:	a1 40 58 02 00       	mov    0x25840,%eax
    22a6:	89 04 24             	mov    %eax,(%esp)
    22a9:	e8 a2 e7 00 00       	call   10a50 <console_set_style>
    22ae:	8b 85 c8 fd ff ff    	mov    -0x238(%ebp),%eax
    22b4:	81 c4 4c 02 00 00    	add    $0x24c,%esp
    22ba:	5b                   	pop    %ebx
    22bb:	5e                   	pop    %esi
    22bc:	5f                   	pop    %edi
    22bd:	5d                   	pop    %ebp
    22be:	c3                   	ret    
    22bf:	90                   	nop
    22c0:	89 1c 24             	mov    %ebx,(%esp)
    22c3:	8b 3d 44 58 02 00    	mov    0x25844,%edi
    22c9:	e8 22 49 00 00       	call   6bf0 <str_length>
    22ce:	83 ef 04             	sub    $0x4,%edi
    22d1:	89 bd c4 fd ff ff    	mov    %edi,-0x23c(%ebp)
    22d7:	8b 95 c4 fd ff ff    	mov    -0x23c(%ebp),%edx
    22dd:	29 c2                	sub    %eax,%edx
    22df:	89 95 c4 fd ff ff    	mov    %edx,-0x23c(%ebp)
    22e5:	8b 85 c4 fd ff ff    	mov    -0x23c(%ebp),%eax
    22eb:	40                   	inc    %eax
    22ec:	e9 ad fe ff ff       	jmp    219e <prompt+0x12e>
    22f1:	eb 0d                	jmp    2300 <file_save>
    22f3:	90                   	nop
    22f4:	90                   	nop
    22f5:	90                   	nop
    22f6:	90                   	nop
    22f7:	90                   	nop
    22f8:	90                   	nop
    22f9:	90                   	nop
    22fa:	90                   	nop
    22fb:	90                   	nop
    22fc:	90                   	nop
    22fd:	90                   	nop
    22fe:	90                   	nop
    22ff:	90                   	nop

00002300 <file_save>:
    2300:	55                   	push   %ebp
    2301:	89 c2                	mov    %eax,%edx
    2303:	89 e5                	mov    %esp,%ebp
    2305:	57                   	push   %edi
    2306:	56                   	push   %esi
    2307:	53                   	push   %ebx
    2308:	81 ec ac 00 00 00    	sub    $0xac,%esp
    230e:	89 95 70 ff ff ff    	mov    %edx,-0x90(%ebp)
    2314:	a1 48 58 02 00       	mov    0x25848,%eax
    2319:	bf 03 00 00 00       	mov    $0x3,%edi
    231e:	48                   	dec    %eax
    231f:	c7 44 24 04 00 00 00 	movl   $0x0,0x4(%esp)
    2326:	00 
    2327:	89 44 24 08          	mov    %eax,0x8(%esp)
    232b:	a1 40 58 02 00       	mov    0x25840,%eax
    2330:	89 04 24             	mov    %eax,(%esp)
    2333:	8d 5d a8             	lea    -0x58(%ebp),%ebx
    2336:	e8 75 ea 00 00       	call   10db0 <console_set_pos>
    233b:	a1 40 58 02 00       	mov    0x25840,%eax
    2340:	89 04 24             	mov    %eax,(%esp)
    2343:	c7 44 24 04 02 00 00 	movl   $0x2,0x4(%esp)
    234a:	00 
    234b:	e8 00 e7 00 00       	call   10a50 <console_set_style>
    2350:	8b 35 44 58 02 00    	mov    0x25844,%esi
    2356:	89 f8                	mov    %edi,%eax
    2358:	c7 44 24 08 6e 28 02 	movl   $0x2286e,0x8(%esp)
    235f:	00 
    2360:	29 f0                	sub    %esi,%eax
    2362:	c7 04 24 22 28 02 00 	movl   $0x22822,(%esp)
    2369:	89 44 24 04          	mov    %eax,0x4(%esp)
    236d:	8d 75 90             	lea    -0x70(%ebp),%esi
    2370:	e8 eb b8 00 00       	call   dc60 <printf>
    2375:	a1 40 58 02 00       	mov    0x25840,%eax
    237a:	89 04 24             	mov    %eax,(%esp)
    237d:	e8 9e e5 00 00       	call   10920 <console_flush>
    2382:	a1 40 58 02 00       	mov    0x25840,%eax
    2387:	89 04 24             	mov    %eax,(%esp)
    238a:	c7 44 24 04 00 00 00 	movl   $0x0,0x4(%esp)
    2391:	00 
    2392:	e8 b9 e6 00 00       	call   10a50 <console_set_style>
    2397:	8d 45 88             	lea    -0x78(%ebp),%eax
    239a:	89 44 24 0c          	mov    %eax,0xc(%esp)
    239e:	a1 a4 58 02 00       	mov    0x258a4,%eax
    23a3:	89 04 24             	mov    %eax,(%esp)
    23a6:	c7 44 24 08 00 00 00 	movl   $0x0,0x8(%esp)
    23ad:	00 
    23ae:	89 5c 24 04          	mov    %ebx,0x4(%esp)
    23b2:	c7 45 ac 01 00 00 00 	movl   $0x1,-0x54(%ebp)
    23b9:	83 0d 70 58 02 00 08 	orl    $0x8,0x25870
    23c0:	c7 45 a8 01 00 00 00 	movl   $0x1,-0x58(%ebp)
    23c7:	e8 94 2a 00 00       	call   4e60 <sheet_get_cell_pt>
    23cc:	8d 45 84             	lea    -0x7c(%ebp),%eax
    23cf:	89 44 24 04          	mov    %eax,0x4(%esp)
    23d3:	a1 a4 58 02 00       	mov    0x258a4,%eax
    23d8:	89 04 24             	mov    %eax,(%esp)
    23db:	e8 30 2c 00 00       	call   5010 <sheet_get_num_rows>
    23e0:	8b 45 84             	mov    -0x7c(%ebp),%eax
    23e3:	40                   	inc    %eax
    23e4:	89 74 24 0c          	mov    %esi,0xc(%esp)
    23e8:	89 45 a8             	mov    %eax,-0x58(%ebp)
    23eb:	a1 a4 58 02 00       	mov    0x258a4,%eax
    23f0:	89 04 24             	mov    %eax,(%esp)
    23f3:	c7 44 24 08 01 00 00 	movl   $0x1,0x8(%esp)
    23fa:	00 
    23fb:	89 5c 24 04          	mov    %ebx,0x4(%esp)
    23ff:	c7 45 ac 01 00 00 00 	movl   $0x1,-0x54(%ebp)
    2406:	e8 55 2a 00 00       	call   4e60 <sheet_get_cell_pt>
    240b:	8b 95 70 ff ff ff    	mov    -0x90(%ebp),%edx
    2411:	c7 44 24 04 78 28 02 	movl   $0x22878,0x4(%esp)
    2418:	00 
    2419:	89 14 24             	mov    %edx,(%esp)
    241c:	e8 df 98 00 00       	call   bd00 <fopen>
    2421:	89 85 74 ff ff ff    	mov    %eax,-0x8c(%ebp)
    2427:	85 c0                	test   %eax,%eax
    2429:	0f 84 ce 01 00 00    	je     25fd <file_save+0x2fd>
    242f:	8b 45 88             	mov    -0x78(%ebp),%eax
    2432:	8b 55 8c             	mov    -0x74(%ebp),%edx
    2435:	89 45 98             	mov    %eax,-0x68(%ebp)
    2438:	89 55 9c             	mov    %edx,-0x64(%ebp)
    243b:	8d 7d a0             	lea    -0x60(%ebp),%edi
    243e:	eb 20                	jmp    2460 <file_save+0x160>
    2440:	8b 45 a0             	mov    -0x60(%ebp),%eax
    2443:	8b 55 a4             	mov    -0x5c(%ebp),%edx
    2446:	89 74 24 04          	mov    %esi,0x4(%esp)
    244a:	89 3c 24             	mov    %edi,(%esp)
    244d:	89 45 98             	mov    %eax,-0x68(%ebp)
    2450:	89 55 9c             	mov    %edx,-0x64(%ebp)
    2453:	e8 98 2c 00 00       	call   50f0 <spt_equal>
    2458:	84 c0                	test   %al,%al
    245a:	0f 85 f8 00 00 00    	jne    2558 <file_save+0x258>
    2460:	8d 45 98             	lea    -0x68(%ebp),%eax
    2463:	89 7c 24 14          	mov    %edi,0x14(%esp)
    2467:	89 44 24 04          	mov    %eax,0x4(%esp)
    246b:	a1 a4 58 02 00       	mov    0x258a4,%eax
    2470:	89 04 24             	mov    %eax,(%esp)
    2473:	c7 44 24 10 40 00 00 	movl   $0x40,0x10(%esp)
    247a:	00 
    247b:	89 5c 24 0c          	mov    %ebx,0xc(%esp)
    247f:	89 74 24 08          	mov    %esi,0x8(%esp)
    2483:	e8 48 29 00 00       	call   4dd0 <sheet_copy_out>
    2488:	89 1c 24             	mov    %ebx,(%esp)
    248b:	e8 80 45 00 00       	call   6a10 <str_size>
    2490:	c7 44 24 04 01 00 00 	movl   $0x1,0x4(%esp)
    2497:	00 
    2498:	89 c2                	mov    %eax,%edx
    249a:	8b 85 74 ff ff ff    	mov    -0x8c(%ebp),%eax
    24a0:	89 54 24 08          	mov    %edx,0x8(%esp)
    24a4:	89 44 24 0c          	mov    %eax,0xc(%esp)
    24a8:	89 1c 24             	mov    %ebx,(%esp)
    24ab:	89 95 70 ff ff ff    	mov    %edx,-0x90(%ebp)
    24b1:	e8 1a ae 00 00       	call   d2d0 <fwrite>
    24b6:	8b 95 70 ff ff ff    	mov    -0x90(%ebp),%edx
    24bc:	39 c2                	cmp    %eax,%edx
    24be:	74 80                	je     2440 <file_save+0x140>
    24c0:	a1 48 58 02 00       	mov    0x25848,%eax
    24c5:	c7 44 24 04 00 00 00 	movl   $0x0,0x4(%esp)
    24cc:	00 
    24cd:	48                   	dec    %eax
    24ce:	89 44 24 08          	mov    %eax,0x8(%esp)
    24d2:	a1 40 58 02 00       	mov    0x25840,%eax
    24d7:	89 04 24             	mov    %eax,(%esp)
    24da:	e8 d1 e8 00 00       	call   10db0 <console_set_pos>
    24df:	a1 40 58 02 00       	mov    0x25840,%eax
    24e4:	89 04 24             	mov    %eax,(%esp)
    24e7:	c7 44 24 04 02 00 00 	movl   $0x2,0x4(%esp)
    24ee:	00 
    24ef:	e8 5c e5 00 00       	call   10a50 <console_set_style>
    24f4:	8b 0d 44 58 02 00    	mov    0x25844,%ecx
    24fa:	b8 03 00 00 00       	mov    $0x3,%eax
    24ff:	c7 44 24 08 8f 28 02 	movl   $0x2288f,0x8(%esp)
    2506:	00 
    2507:	29 c8                	sub    %ecx,%eax
    2509:	c7 04 24 22 28 02 00 	movl   $0x22822,(%esp)
    2510:	89 44 24 04          	mov    %eax,0x4(%esp)
    2514:	e8 47 b7 00 00       	call   dc60 <printf>
    2519:	a1 40 58 02 00       	mov    0x25840,%eax
    251e:	89 04 24             	mov    %eax,(%esp)
    2521:	e8 fa e3 00 00       	call   10920 <console_flush>
    2526:	a1 40 58 02 00       	mov    0x25840,%eax
    252b:	89 04 24             	mov    %eax,(%esp)
    252e:	c7 44 24 04 00 00 00 	movl   $0x0,0x4(%esp)
    2535:	00 
    2536:	e8 15 e5 00 00       	call   10a50 <console_set_style>
    253b:	b8 f7 fe ff ff       	mov    $0xfffffef7,%eax
    2540:	83 0d 70 58 02 00 08 	orl    $0x8,0x25870
    2547:	81 c4 ac 00 00 00    	add    $0xac,%esp
    254d:	5b                   	pop    %ebx
    254e:	5e                   	pop    %esi
    254f:	5f                   	pop    %edi
    2550:	5d                   	pop    %ebp
    2551:	c3                   	ret    
    2552:	8d b6 00 00 00 00    	lea    0x0(%esi),%esi
    2558:	8b 85 74 ff ff ff    	mov    -0x8c(%ebp),%eax
    255e:	89 04 24             	mov    %eax,(%esp)
    2561:	e8 8a 9a 00 00       	call   bff0 <fclose>
    2566:	85 c0                	test   %eax,%eax
    2568:	0f 85 52 ff ff ff    	jne    24c0 <file_save+0x1c0>
    256e:	a1 48 58 02 00       	mov    0x25848,%eax
    2573:	c7 44 24 04 00 00 00 	movl   $0x0,0x4(%esp)
    257a:	00 
    257b:	48                   	dec    %eax
    257c:	89 44 24 08          	mov    %eax,0x8(%esp)
    2580:	a1 40 58 02 00       	mov    0x25840,%eax
    2585:	89 04 24             	mov    %eax,(%esp)
    2588:	e8 23 e8 00 00       	call   10db0 <console_set_pos>
    258d:	a1 40 58 02 00       	mov    0x25840,%eax
    2592:	89 04 24             	mov    %eax,(%esp)
    2595:	c7 44 24 04 02 00 00 	movl   $0x2,0x4(%esp)
    259c:	00 
    259d:	e8 ae e4 00 00       	call   10a50 <console_set_style>
    25a2:	8b 15 44 58 02 00    	mov    0x25844,%edx
    25a8:	b8 03 00 00 00       	mov    $0x3,%eax
    25ad:	c7 44 24 08 a3 28 02 	movl   $0x228a3,0x8(%esp)
    25b4:	00 
    25b5:	29 d0                	sub    %edx,%eax
    25b7:	c7 04 24 22 28 02 00 	movl   $0x22822,(%esp)
    25be:	89 44 24 04          	mov    %eax,0x4(%esp)
    25c2:	e8 99 b6 00 00       	call   dc60 <printf>
    25c7:	a1 40 58 02 00       	mov    0x25840,%eax
    25cc:	89 04 24             	mov    %eax,(%esp)
    25cf:	e8 4c e3 00 00       	call   10920 <console_flush>
    25d4:	a1 40 58 02 00       	mov    0x25840,%eax
    25d9:	89 04 24             	mov    %eax,(%esp)
    25dc:	c7 44 24 04 00 00 00 	movl   $0x0,0x4(%esp)
    25e3:	00 
    25e4:	e8 67 e4 00 00       	call   10a50 <console_set_style>
    25e9:	31 c0                	xor    %eax,%eax
    25eb:	83 0d 70 58 02 00 08 	orl    $0x8,0x25870
    25f2:	81 c4 ac 00 00 00    	add    $0xac,%esp
    25f8:	5b                   	pop    %ebx
    25f9:	5e                   	pop    %esi
    25fa:	5f                   	pop    %edi
    25fb:	5d                   	pop    %ebp
    25fc:	c3                   	ret    
    25fd:	a1 48 58 02 00       	mov    0x25848,%eax
    2602:	c7 44 24 04 00 00 00 	movl   $0x0,0x4(%esp)
    2609:	00 
    260a:	48                   	dec    %eax
    260b:	89 44 24 08          	mov    %eax,0x8(%esp)
    260f:	a1 40 58 02 00       	mov    0x25840,%eax
    2614:	89 04 24             	mov    %eax,(%esp)
    2617:	e8 94 e7 00 00       	call   10db0 <console_set_pos>
    261c:	a1 40 58 02 00       	mov    0x25840,%eax
    2621:	89 04 24             	mov    %eax,(%esp)
    2624:	c7 44 24 04 02 00 00 	movl   $0x2,0x4(%esp)
    262b:	00 
    262c:	e8 1f e4 00 00       	call   10a50 <console_set_style>
    2631:	8b 1d 44 58 02 00    	mov    0x25844,%ebx
    2637:	29 df                	sub    %ebx,%edi
    2639:	c7 44 24 08 7b 28 02 	movl   $0x2287b,0x8(%esp)
    2640:	00 
    2641:	89 7c 24 04          	mov    %edi,0x4(%esp)
    2645:	c7 04 24 22 28 02 00 	movl   $0x22822,(%esp)
    264c:	e8 0f b6 00 00       	call   dc60 <printf>
    2651:	a1 40 58 02 00       	mov    0x25840,%eax
    2656:	89 04 24             	mov    %eax,(%esp)
    2659:	e8 c2 e2 00 00       	call   10920 <console_flush>
    265e:	a1 40 58 02 00       	mov    0x25840,%eax
    2663:	89 04 24             	mov    %eax,(%esp)
    2666:	c7 44 24 04 00 00 00 	movl   $0x0,0x4(%esp)
    266d:	00 
    266e:	e8 dd e3 00 00       	call   10a50 <console_set_style>
    2673:	b8 f2 ff ff ff       	mov    $0xfffffff2,%eax
    2678:	83 0d 70 58 02 00 08 	orl    $0x8,0x25870
    267f:	e9 c3 fe ff ff       	jmp    2547 <file_save+0x247>
    2684:	8d b6 00 00 00 00    	lea    0x0(%esi),%esi
    268a:	8d bf 00 00 00 00    	lea    0x0(%edi),%edi

00002690 <pt_is_punctuation>:
    2690:	55                   	push   %ebp
    2691:	89 e5                	mov    %esp,%ebp
    2693:	57                   	push   %edi
    2694:	56                   	push   %esi
    2695:	53                   	push   %ebx
    2696:	83 ec 6c             	sub    $0x6c,%esp
    2699:	8d 5d d0             	lea    -0x30(%ebp),%ebx
    269c:	89 c6                	mov    %eax,%esi
    269e:	8d 7d c8             	lea    -0x38(%ebp),%edi
    26a1:	89 04 24             	mov    %eax,(%esp)
    26a4:	89 5c 24 04          	mov    %ebx,0x4(%esp)
    26a8:	e8 b3 29 00 00       	call   5060 <spt_get_coord>
    26ad:	8b 4d d4             	mov    -0x2c(%ebp),%ecx
    26b0:	a1 a4 58 02 00       	mov    0x258a4,%eax
    26b5:	41                   	inc    %ecx
    26b6:	89 04 24             	mov    %eax,(%esp)
    26b9:	89 7c 24 0c          	mov    %edi,0xc(%esp)
    26bd:	c7 44 24 08 01 00 00 	movl   $0x1,0x8(%esp)
    26c4:	00 
    26c5:	89 5c 24 04          	mov    %ebx,0x4(%esp)
    26c9:	89 4d d4             	mov    %ecx,-0x2c(%ebp)
    26cc:	e8 8f 27 00 00       	call   4e60 <sheet_get_cell_pt>
    26d1:	c7 04 24 01 00 00 00 	movl   $0x1,(%esp)
    26d8:	e8 03 0c 01 00       	call   132e0 <malloc>
    26dd:	89 c2                	mov    %eax,%edx
    26df:	85 c0                	test   %eax,%eax
    26e1:	0f 84 a0 00 00 00    	je     2787 <pt_is_punctuation+0xf7>
    26e7:	8b 5e 04             	mov    0x4(%esi),%ebx
    26ea:	8b 0e                	mov    (%esi),%ecx
    26ec:	89 5d dc             	mov    %ebx,-0x24(%ebp)
    26ef:	31 db                	xor    %ebx,%ebx
    26f1:	89 4d d8             	mov    %ecx,-0x28(%ebp)
    26f4:	be 01 00 00 00       	mov    $0x1,%esi
    26f9:	89 5d ac             	mov    %ebx,-0x54(%ebp)
    26fc:	8d 74 26 00          	lea    0x0(%esi,%eiz,1),%esi
    2700:	8d 4d e0             	lea    -0x20(%ebp),%ecx
    2703:	8b 5d ac             	mov    -0x54(%ebp),%ebx
    2706:	89 4c 24 14          	mov    %ecx,0x14(%esp)
    270a:	89 f1                	mov    %esi,%ecx
    270c:	29 d9                	sub    %ebx,%ecx
    270e:	8b 45 ac             	mov    -0x54(%ebp),%eax
    2711:	01 d0                	add    %edx,%eax
    2713:	89 4c 24 10          	mov    %ecx,0x10(%esp)
    2717:	8d 5d d8             	lea    -0x28(%ebp),%ebx
    271a:	8b 0d a4 58 02 00    	mov    0x258a4,%ecx
    2720:	89 0c 24             	mov    %ecx,(%esp)
    2723:	89 44 24 0c          	mov    %eax,0xc(%esp)
    2727:	89 5c 24 04          	mov    %ebx,0x4(%esp)
    272b:	89 7c 24 08          	mov    %edi,0x8(%esp)
    272f:	89 55 b4             	mov    %edx,-0x4c(%ebp)
    2732:	89 45 b0             	mov    %eax,-0x50(%ebp)
    2735:	e8 96 26 00 00       	call   4dd0 <sheet_copy_out>
    273a:	8b 45 b0             	mov    -0x50(%ebp),%eax
    273d:	89 04 24             	mov    %eax,(%esp)
    2740:	e8 cb 42 00 00       	call   6a10 <str_size>
    2745:	8b 5d e4             	mov    -0x1c(%ebp),%ebx
    2748:	8b 55 ac             	mov    -0x54(%ebp),%edx
    274b:	89 5d dc             	mov    %ebx,-0x24(%ebp)
    274e:	8d 5d e0             	lea    -0x20(%ebp),%ebx
    2751:	01 c2                	add    %eax,%edx
    2753:	8b 4d e0             	mov    -0x20(%ebp),%ecx
    2756:	89 7c 24 04          	mov    %edi,0x4(%esp)
    275a:	89 1c 24             	mov    %ebx,(%esp)
    275d:	89 55 ac             	mov    %edx,-0x54(%ebp)
    2760:	89 4d d8             	mov    %ecx,-0x28(%ebp)
    2763:	e8 88 29 00 00       	call   50f0 <spt_equal>
    2768:	8b 55 b4             	mov    -0x4c(%ebp),%edx
    276b:	84 c0                	test   %al,%al
    276d:	75 29                	jne    2798 <pt_is_punctuation+0x108>
    276f:	01 f6                	add    %esi,%esi
    2771:	89 14 24             	mov    %edx,(%esp)
    2774:	89 74 24 04          	mov    %esi,0x4(%esp)
    2778:	e8 c3 0e 01 00       	call   13640 <realloc>
    277d:	89 c2                	mov    %eax,%edx
    277f:	85 c0                	test   %eax,%eax
    2781:	0f 85 79 ff ff ff    	jne    2700 <pt_is_punctuation+0x70>
    2787:	83 c4 6c             	add    $0x6c,%esp
    278a:	31 c0                	xor    %eax,%eax
    278c:	5b                   	pop    %ebx
    278d:	5e                   	pop    %esi
    278e:	5f                   	pop    %edi
    278f:	5d                   	pop    %ebp
    2790:	c3                   	ret    
    2791:	8d b4 26 00 00 00 00 	lea    0x0(%esi,%eiz,1),%esi
    2798:	85 d2                	test   %edx,%edx
    279a:	74 eb                	je     2787 <pt_is_punctuation+0xf7>
    279c:	89 14 24             	mov    %edx,(%esp)
    279f:	89 55 b4             	mov    %edx,-0x4c(%ebp)
    27a2:	c7 45 c4 00 00 00 00 	movl   $0x0,-0x3c(%ebp)
    27a9:	e8 62 42 00 00       	call   6a10 <str_size>
    27ae:	8b 55 b4             	mov    -0x4c(%ebp),%edx
    27b1:	89 44 24 08          	mov    %eax,0x8(%esp)
    27b5:	8d 45 c4             	lea    -0x3c(%ebp),%eax
    27b8:	89 14 24             	mov    %edx,(%esp)
    27bb:	89 44 24 04          	mov    %eax,0x4(%esp)
    27bf:	e8 0c 3e 00 00       	call   65d0 <str_decode>
    27c4:	83 f8 3f             	cmp    $0x3f,%eax
    27c7:	7f 0f                	jg     27d8 <pt_is_punctuation+0x148>
    27c9:	83 f8 3a             	cmp    $0x3a,%eax
    27cc:	7c 22                	jl     27f0 <pt_is_punctuation+0x160>
    27ce:	b0 01                	mov    $0x1,%al
    27d0:	83 c4 6c             	add    $0x6c,%esp
    27d3:	5b                   	pop    %ebx
    27d4:	5e                   	pop    %esi
    27d5:	5f                   	pop    %edi
    27d6:	5d                   	pop    %ebp
    27d7:	c3                   	ret    
    27d8:	83 f8 5f             	cmp    $0x5f,%eax
    27db:	74 f1                	je     27ce <pt_is_punctuation+0x13e>
    27dd:	83 f8 7c             	cmp    $0x7c,%eax
    27e0:	74 ec                	je     27ce <pt_is_punctuation+0x13e>
    27e2:	83 f8 5c             	cmp    $0x5c,%eax
    27e5:	75 a0                	jne    2787 <pt_is_punctuation+0xf7>
    27e7:	b0 01                	mov    $0x1,%al
    27e9:	eb e5                	jmp    27d0 <pt_is_punctuation+0x140>
    27eb:	90                   	nop
    27ec:	8d 74 26 00          	lea    0x0(%esi,%eiz,1),%esi
    27f0:	83 e8 2a             	sub    $0x2a,%eax
    27f3:	83 f8 05             	cmp    $0x5,%eax
    27f6:	77 8f                	ja     2787 <pt_is_punctuation+0xf7>
    27f8:	b0 01                	mov    $0x1,%al
    27fa:	eb d4                	jmp    27d0 <pt_is_punctuation+0x140>
    27fc:	8d 74 26 00          	lea    0x0(%esi,%eiz,1),%esi

00002800 <selection_copy>:
    2800:	55                   	push   %ebp
    2801:	89 e5                	mov    %esp,%ebp
    2803:	57                   	push   %edi
    2804:	56                   	push   %esi
    2805:	53                   	push   %ebx
    2806:	83 ec 6c             	sub    $0x6c,%esp
    2809:	8d 5d b8             	lea    -0x48(%ebp),%ebx
    280c:	89 5c 24 04          	mov    %ebx,0x4(%esp)
    2810:	c7 04 24 84 58 02 00 	movl   $0x25884,(%esp)
    2817:	e8 d4 29 00 00       	call   51f0 <tag_get_pt>
    281c:	8d 45 c0             	lea    -0x40(%ebp),%eax
    281f:	89 44 24 04          	mov    %eax,0x4(%esp)
    2823:	c7 04 24 74 58 02 00 	movl   $0x25874,(%esp)
    282a:	e8 c1 29 00 00       	call   51f0 <tag_get_pt>
    282f:	8d 45 c8             	lea    -0x38(%ebp),%eax
    2832:	89 44 24 04          	mov    %eax,0x4(%esp)
    2836:	89 1c 24             	mov    %ebx,(%esp)
    2839:	e8 22 28 00 00       	call   5060 <spt_get_coord>
    283e:	8d 45 d0             	lea    -0x30(%ebp),%eax
    2841:	8d 55 c0             	lea    -0x40(%ebp),%edx
    2844:	89 44 24 04          	mov    %eax,0x4(%esp)
    2848:	89 14 24             	mov    %edx,(%esp)
    284b:	e8 10 28 00 00       	call   5060 <spt_get_coord>
    2850:	8b 45 c8             	mov    -0x38(%ebp),%eax
    2853:	8b 55 d0             	mov    -0x30(%ebp),%edx
    2856:	39 d0                	cmp    %edx,%eax
    2858:	0f 84 5a 01 00 00    	je     29b8 <selection_copy+0x1b8>
    285e:	29 d0                	sub    %edx,%eax
    2860:	85 c0                	test   %eax,%eax
    2862:	7e 18                	jle    287c <selection_copy+0x7c>
    2864:	8b 5d b8             	mov    -0x48(%ebp),%ebx
    2867:	8b 4d bc             	mov    -0x44(%ebp),%ecx
    286a:	8b 45 c0             	mov    -0x40(%ebp),%eax
    286d:	8b 55 c4             	mov    -0x3c(%ebp),%edx
    2870:	89 45 b8             	mov    %eax,-0x48(%ebp)
    2873:	89 55 bc             	mov    %edx,-0x44(%ebp)
    2876:	89 5d c0             	mov    %ebx,-0x40(%ebp)
    2879:	89 4d c4             	mov    %ecx,-0x3c(%ebp)
    287c:	c7 04 24 01 00 00 00 	movl   $0x1,(%esp)
    2883:	e8 58 0a 01 00       	call   132e0 <malloc>
    2888:	89 c7                	mov    %eax,%edi
    288a:	85 c0                	test   %eax,%eax
    288c:	0f 84 92 00 00 00    	je     2924 <selection_copy+0x124>
    2892:	8b 5d bc             	mov    -0x44(%ebp),%ebx
    2895:	8b 4d b8             	mov    -0x48(%ebp),%ecx
    2898:	89 5d dc             	mov    %ebx,-0x24(%ebp)
    289b:	89 4d d8             	mov    %ecx,-0x28(%ebp)
    289e:	31 db                	xor    %ebx,%ebx
    28a0:	be 01 00 00 00       	mov    $0x1,%esi
    28a5:	8d 76 00             	lea    0x0(%esi),%esi
    28a8:	8d 55 e0             	lea    -0x20(%ebp),%edx
    28ab:	8d 04 1f             	lea    (%edi,%ebx,1),%eax
    28ae:	89 54 24 14          	mov    %edx,0x14(%esp)
    28b2:	89 f2                	mov    %esi,%edx
    28b4:	29 da                	sub    %ebx,%edx
    28b6:	89 44 24 0c          	mov    %eax,0xc(%esp)
    28ba:	89 54 24 10          	mov    %edx,0x10(%esp)
    28be:	8d 55 c0             	lea    -0x40(%ebp),%edx
    28c1:	89 54 24 08          	mov    %edx,0x8(%esp)
    28c5:	8d 55 d8             	lea    -0x28(%ebp),%edx
    28c8:	89 54 24 04          	mov    %edx,0x4(%esp)
    28cc:	8b 15 a4 58 02 00    	mov    0x258a4,%edx
    28d2:	89 14 24             	mov    %edx,(%esp)
    28d5:	89 45 b4             	mov    %eax,-0x4c(%ebp)
    28d8:	e8 f3 24 00 00       	call   4dd0 <sheet_copy_out>
    28dd:	8b 45 b4             	mov    -0x4c(%ebp),%eax
    28e0:	89 04 24             	mov    %eax,(%esp)
    28e3:	e8 28 41 00 00       	call   6a10 <str_size>
    28e8:	8b 55 e4             	mov    -0x1c(%ebp),%edx
    28eb:	01 c3                	add    %eax,%ebx
    28ed:	8b 45 e0             	mov    -0x20(%ebp),%eax
    28f0:	89 45 d8             	mov    %eax,-0x28(%ebp)
    28f3:	89 55 dc             	mov    %edx,-0x24(%ebp)
    28f6:	8d 45 c0             	lea    -0x40(%ebp),%eax
    28f9:	8d 55 e0             	lea    -0x20(%ebp),%edx
    28fc:	89 44 24 04          	mov    %eax,0x4(%esp)
    2900:	89 14 24             	mov    %edx,(%esp)
    2903:	e8 e8 27 00 00       	call   50f0 <spt_equal>
    2908:	84 c0                	test   %al,%al
    290a:	0f 85 b8 00 00 00    	jne    29c8 <selection_copy+0x1c8>
    2910:	01 f6                	add    %esi,%esi
    2912:	89 3c 24             	mov    %edi,(%esp)
    2915:	89 74 24 04          	mov    %esi,0x4(%esp)
    2919:	e8 22 0d 01 00       	call   13640 <realloc>
    291e:	89 c7                	mov    %eax,%edi
    2920:	85 c0                	test   %eax,%eax
    2922:	75 84                	jne    28a8 <selection_copy+0xa8>
    2924:	31 ff                	xor    %edi,%edi
    2926:	a1 48 58 02 00       	mov    0x25848,%eax
    292b:	c7 44 24 04 00 00 00 	movl   $0x0,0x4(%esp)
    2932:	00 
    2933:	48                   	dec    %eax
    2934:	89 44 24 08          	mov    %eax,0x8(%esp)
    2938:	a1 40 58 02 00       	mov    0x25840,%eax
    293d:	89 04 24             	mov    %eax,(%esp)
    2940:	e8 6b e4 00 00       	call   10db0 <console_set_pos>
    2945:	a1 40 58 02 00       	mov    0x25840,%eax
    294a:	89 04 24             	mov    %eax,(%esp)
    294d:	c7 44 24 04 02 00 00 	movl   $0x2,0x4(%esp)
    2954:	00 
    2955:	e8 f6 e0 00 00       	call   10a50 <console_set_style>
    295a:	8b 1d 44 58 02 00    	mov    0x25844,%ebx
    2960:	b8 03 00 00 00       	mov    $0x3,%eax
    2965:	c7 44 24 08 af 28 02 	movl   $0x228af,0x8(%esp)
    296c:	00 
    296d:	29 d8                	sub    %ebx,%eax
    296f:	c7 04 24 22 28 02 00 	movl   $0x22822,(%esp)
    2976:	89 44 24 04          	mov    %eax,0x4(%esp)
    297a:	e8 e1 b2 00 00       	call   dc60 <printf>
    297f:	a1 40 58 02 00       	mov    0x25840,%eax
    2984:	89 04 24             	mov    %eax,(%esp)
    2987:	e8 94 df 00 00       	call   10920 <console_flush>
    298c:	a1 40 58 02 00       	mov    0x25840,%eax
    2991:	89 04 24             	mov    %eax,(%esp)
    2994:	c7 44 24 04 00 00 00 	movl   $0x0,0x4(%esp)
    299b:	00 
    299c:	e8 af e0 00 00       	call   10a50 <console_set_style>
    29a1:	89 3c 24             	mov    %edi,(%esp)
    29a4:	83 0d 70 58 02 00 08 	orl    $0x8,0x25870
    29ab:	e8 40 0a 01 00       	call   133f0 <free>
    29b0:	83 c4 6c             	add    $0x6c,%esp
    29b3:	5b                   	pop    %ebx
    29b4:	5e                   	pop    %esi
    29b5:	5f                   	pop    %edi
    29b6:	5d                   	pop    %ebp
    29b7:	c3                   	ret    
    29b8:	8b 45 cc             	mov    -0x34(%ebp),%eax
    29bb:	8b 75 d4             	mov    -0x2c(%ebp),%esi
    29be:	29 f0                	sub    %esi,%eax
    29c0:	e9 9b fe ff ff       	jmp    2860 <selection_copy+0x60>
    29c5:	8d 76 00             	lea    0x0(%esi),%esi
    29c8:	85 ff                	test   %edi,%edi
    29ca:	0f 84 56 ff ff ff    	je     2926 <selection_copy+0x126>
    29d0:	89 3c 24             	mov    %edi,(%esp)
    29d3:	e8 58 2c 00 00       	call   5630 <clipboard_put_str>
    29d8:	85 c0                	test   %eax,%eax
    29da:	0f 85 46 ff ff ff    	jne    2926 <selection_copy+0x126>
    29e0:	89 3c 24             	mov    %edi,(%esp)
    29e3:	e8 08 0a 01 00       	call   133f0 <free>
    29e8:	83 c4 6c             	add    $0x6c,%esp
    29eb:	5b                   	pop    %ebx
    29ec:	5e                   	pop    %esi
    29ed:	5f                   	pop    %edi
    29ee:	5d                   	pop    %ebp
    29ef:	c3                   	ret    

000029f0 <pt_is_word_beginning>:
    29f0:	55                   	push   %ebp
    29f1:	89 e5                	mov    %esp,%ebp
    29f3:	57                   	push   %edi
    29f4:	56                   	push   %esi
    29f5:	53                   	push   %ebx
    29f6:	81 ec ac 00 00 00    	sub    $0xac,%esp
    29fc:	8d 5d d0             	lea    -0x30(%ebp),%ebx
    29ff:	89 c7                	mov    %eax,%edi
    2a01:	8b 15 a4 58 02 00    	mov    0x258a4,%edx
    2a07:	8d 45 98             	lea    -0x68(%ebp),%eax
    2a0a:	89 14 24             	mov    %edx,(%esp)
    2a0d:	89 44 24 0c          	mov    %eax,0xc(%esp)
    2a11:	c7 44 24 08 00 00 00 	movl   $0x0,0x8(%esp)
    2a18:	00 
    2a19:	89 5c 24 04          	mov    %ebx,0x4(%esp)
    2a1d:	89 85 70 ff ff ff    	mov    %eax,-0x90(%ebp)
    2a23:	8d 75 94             	lea    -0x6c(%ebp),%esi
    2a26:	c7 45 d4 01 00 00 00 	movl   $0x1,-0x2c(%ebp)
    2a2d:	c7 45 d0 01 00 00 00 	movl   $0x1,-0x30(%ebp)
    2a34:	e8 27 24 00 00       	call   4e60 <sheet_get_cell_pt>
    2a39:	8b 15 a4 58 02 00    	mov    0x258a4,%edx
    2a3f:	89 74 24 04          	mov    %esi,0x4(%esp)
    2a43:	89 14 24             	mov    %edx,(%esp)
    2a46:	e8 c5 25 00 00       	call   5010 <sheet_get_num_rows>
    2a4b:	8b 55 94             	mov    -0x6c(%ebp),%edx
    2a4e:	42                   	inc    %edx
    2a4f:	8b 0d a4 58 02 00    	mov    0x258a4,%ecx
    2a55:	89 55 d0             	mov    %edx,-0x30(%ebp)
    2a58:	8d 55 a0             	lea    -0x60(%ebp),%edx
    2a5b:	89 54 24 0c          	mov    %edx,0xc(%esp)
    2a5f:	89 0c 24             	mov    %ecx,(%esp)
    2a62:	c7 44 24 08 01 00 00 	movl   $0x1,0x8(%esp)
    2a69:	00 
    2a6a:	89 5c 24 04          	mov    %ebx,0x4(%esp)
    2a6e:	89 95 6c ff ff ff    	mov    %edx,-0x94(%ebp)
    2a74:	c7 45 d4 01 00 00 00 	movl   $0x1,-0x2c(%ebp)
    2a7b:	e8 e0 23 00 00       	call   4e60 <sheet_get_cell_pt>
    2a80:	89 5c 24 04          	mov    %ebx,0x4(%esp)
    2a84:	89 3c 24             	mov    %edi,(%esp)
    2a87:	e8 d4 25 00 00       	call   5060 <spt_get_coord>
    2a8c:	8d 4d a8             	lea    -0x58(%ebp),%ecx
    2a8f:	89 4c 24 0c          	mov    %ecx,0xc(%esp)
    2a93:	8b 0d a4 58 02 00    	mov    0x258a4,%ecx
    2a99:	89 0c 24             	mov    %ecx,(%esp)
    2a9c:	c7 44 24 08 00 00 00 	movl   $0x0,0x8(%esp)
    2aa3:	00 
    2aa4:	89 5c 24 04          	mov    %ebx,0x4(%esp)
    2aa8:	c7 45 d4 01 00 00 00 	movl   $0x1,-0x2c(%ebp)
    2aaf:	e8 ac 23 00 00       	call   4e60 <sheet_get_cell_pt>
    2ab4:	89 5c 24 04          	mov    %ebx,0x4(%esp)
    2ab8:	89 3c 24             	mov    %edi,(%esp)
    2abb:	e8 a0 25 00 00       	call   5060 <spt_get_coord>
    2ac0:	8b 4d d0             	mov    -0x30(%ebp),%ecx
    2ac3:	89 4c 24 04          	mov    %ecx,0x4(%esp)
    2ac7:	8b 0d a4 58 02 00    	mov    0x258a4,%ecx
    2acd:	89 0c 24             	mov    %ecx,(%esp)
    2ad0:	89 74 24 08          	mov    %esi,0x8(%esp)
    2ad4:	e8 37 24 00 00       	call   4f10 <sheet_get_row_width>
    2ad9:	8b 4d 94             	mov    -0x6c(%ebp),%ecx
    2adc:	49                   	dec    %ecx
    2add:	c7 44 24 08 01 00 00 	movl   $0x1,0x8(%esp)
    2ae4:	00 
    2ae5:	89 4d d4             	mov    %ecx,-0x2c(%ebp)
    2ae8:	8d 4d b0             	lea    -0x50(%ebp),%ecx
    2aeb:	89 4c 24 0c          	mov    %ecx,0xc(%esp)
    2aef:	8b 0d a4 58 02 00    	mov    0x258a4,%ecx
    2af5:	89 0c 24             	mov    %ecx,(%esp)
    2af8:	89 5c 24 04          	mov    %ebx,0x4(%esp)
    2afc:	e8 5f 23 00 00       	call   4e60 <sheet_get_cell_pt>
    2b01:	8d 4d c0             	lea    -0x40(%ebp),%ecx
    2b04:	8b 85 70 ff ff ff    	mov    -0x90(%ebp),%eax
    2b0a:	89 4c 24 04          	mov    %ecx,0x4(%esp)
    2b0e:	89 04 24             	mov    %eax,(%esp)
    2b11:	e8 4a 25 00 00       	call   5060 <spt_get_coord>
    2b16:	89 5c 24 04          	mov    %ebx,0x4(%esp)
    2b1a:	89 3c 24             	mov    %edi,(%esp)
    2b1d:	e8 3e 25 00 00       	call   5060 <spt_get_coord>
    2b22:	8b 45 c0             	mov    -0x40(%ebp),%eax
    2b25:	8b 4d d0             	mov    -0x30(%ebp),%ecx
    2b28:	8b 95 6c ff ff ff    	mov    -0x94(%ebp),%edx
    2b2e:	39 c8                	cmp    %ecx,%eax
    2b30:	0f 84 72 03 00 00    	je     2ea8 <pt_is_word_beginning+0x4b8>
    2b36:	29 c8                	sub    %ecx,%eax
    2b38:	85 c0                	test   %eax,%eax
    2b3a:	75 14                	jne    2b50 <pt_is_word_beginning+0x160>
    2b3c:	b0 01                	mov    $0x1,%al
    2b3e:	81 c4 ac 00 00 00    	add    $0xac,%esp
    2b44:	5b                   	pop    %ebx
    2b45:	5e                   	pop    %esi
    2b46:	5f                   	pop    %edi
    2b47:	5d                   	pop    %ebp
    2b48:	c3                   	ret    
    2b49:	8d b4 26 00 00 00 00 	lea    0x0(%esi,%eiz,1),%esi
    2b50:	8d 45 c0             	lea    -0x40(%ebp),%eax
    2b53:	89 14 24             	mov    %edx,(%esp)
    2b56:	89 44 24 04          	mov    %eax,0x4(%esp)
    2b5a:	e8 01 25 00 00       	call   5060 <spt_get_coord>
    2b5f:	89 5c 24 04          	mov    %ebx,0x4(%esp)
    2b63:	89 3c 24             	mov    %edi,(%esp)
    2b66:	e8 f5 24 00 00       	call   5060 <spt_get_coord>
    2b6b:	8b 45 c0             	mov    -0x40(%ebp),%eax
    2b6e:	8b 55 d0             	mov    -0x30(%ebp),%edx
    2b71:	39 d0                	cmp    %edx,%eax
    2b73:	0f 84 3f 03 00 00    	je     2eb8 <pt_is_word_beginning+0x4c8>
    2b79:	29 d0                	sub    %edx,%eax
    2b7b:	85 c0                	test   %eax,%eax
    2b7d:	74 bd                	je     2b3c <pt_is_word_beginning+0x14c>
    2b7f:	8d 55 c0             	lea    -0x40(%ebp),%edx
    2b82:	8d 4d a8             	lea    -0x58(%ebp),%ecx
    2b85:	89 54 24 04          	mov    %edx,0x4(%esp)
    2b89:	89 0c 24             	mov    %ecx,(%esp)
    2b8c:	e8 cf 24 00 00       	call   5060 <spt_get_coord>
    2b91:	89 5c 24 04          	mov    %ebx,0x4(%esp)
    2b95:	89 3c 24             	mov    %edi,(%esp)
    2b98:	e8 c3 24 00 00       	call   5060 <spt_get_coord>
    2b9d:	8b 45 c0             	mov    -0x40(%ebp),%eax
    2ba0:	8b 55 d0             	mov    -0x30(%ebp),%edx
    2ba3:	39 d0                	cmp    %edx,%eax
    2ba5:	0f 84 1d 03 00 00    	je     2ec8 <pt_is_word_beginning+0x4d8>
    2bab:	29 d0                	sub    %edx,%eax
    2bad:	85 c0                	test   %eax,%eax
    2baf:	74 8b                	je     2b3c <pt_is_word_beginning+0x14c>
    2bb1:	8d 45 c0             	lea    -0x40(%ebp),%eax
    2bb4:	8d 55 b0             	lea    -0x50(%ebp),%edx
    2bb7:	89 44 24 04          	mov    %eax,0x4(%esp)
    2bbb:	89 14 24             	mov    %edx,(%esp)
    2bbe:	e8 9d 24 00 00       	call   5060 <spt_get_coord>
    2bc3:	89 5c 24 04          	mov    %ebx,0x4(%esp)
    2bc7:	89 3c 24             	mov    %edi,(%esp)
    2bca:	e8 91 24 00 00       	call   5060 <spt_get_coord>
    2bcf:	8b 45 c0             	mov    -0x40(%ebp),%eax
    2bd2:	8b 55 d0             	mov    -0x30(%ebp),%edx
    2bd5:	39 d0                	cmp    %edx,%eax
    2bd7:	0f 84 fb 02 00 00    	je     2ed8 <pt_is_word_beginning+0x4e8>
    2bdd:	29 d0                	sub    %edx,%eax
    2bdf:	85 c0                	test   %eax,%eax
    2be1:	0f 84 55 ff ff ff    	je     2b3c <pt_is_word_beginning+0x14c>
    2be7:	89 5c 24 04          	mov    %ebx,0x4(%esp)
    2beb:	89 3c 24             	mov    %edi,(%esp)
    2bee:	e8 6d 24 00 00       	call   5060 <spt_get_coord>
    2bf3:	8b 45 d4             	mov    -0x2c(%ebp),%eax
    2bf6:	40                   	inc    %eax
    2bf7:	8d 4d c8             	lea    -0x38(%ebp),%ecx
    2bfa:	89 45 d4             	mov    %eax,-0x2c(%ebp)
    2bfd:	a1 a4 58 02 00       	mov    0x258a4,%eax
    2c02:	89 4c 24 0c          	mov    %ecx,0xc(%esp)
    2c06:	89 04 24             	mov    %eax,(%esp)
    2c09:	c7 44 24 08 01 00 00 	movl   $0x1,0x8(%esp)
    2c10:	00 
    2c11:	89 5c 24 04          	mov    %ebx,0x4(%esp)
    2c15:	e8 46 22 00 00       	call   4e60 <sheet_get_cell_pt>
    2c1a:	c7 04 24 01 00 00 00 	movl   $0x1,(%esp)
    2c21:	e8 ba 06 01 00       	call   132e0 <malloc>
    2c26:	89 85 7c ff ff ff    	mov    %eax,-0x84(%ebp)
    2c2c:	85 c0                	test   %eax,%eax
    2c2e:	0f 84 d6 00 00 00    	je     2d0a <pt_is_word_beginning+0x31a>
    2c34:	8b 57 04             	mov    0x4(%edi),%edx
    2c37:	8b 07                	mov    (%edi),%eax
    2c39:	89 55 dc             	mov    %edx,-0x24(%ebp)
    2c3c:	8d 55 e0             	lea    -0x20(%ebp),%edx
    2c3f:	31 c9                	xor    %ecx,%ecx
    2c41:	89 55 80             	mov    %edx,-0x80(%ebp)
    2c44:	8d 55 d8             	lea    -0x28(%ebp),%edx
    2c47:	89 45 d8             	mov    %eax,-0x28(%ebp)
    2c4a:	89 bd 74 ff ff ff    	mov    %edi,-0x8c(%ebp)
    2c50:	c7 45 84 01 00 00 00 	movl   $0x1,-0x7c(%ebp)
    2c57:	89 95 78 ff ff ff    	mov    %edx,-0x88(%ebp)
    2c5d:	89 cf                	mov    %ecx,%edi
    2c5f:	8b 85 7c ff ff ff    	mov    -0x84(%ebp),%eax
    2c65:	8d 76 00             	lea    0x0(%esi),%esi
    2c68:	8b 4d 80             	mov    -0x80(%ebp),%ecx
    2c6b:	01 f8                	add    %edi,%eax
    2c6d:	89 4c 24 14          	mov    %ecx,0x14(%esp)
    2c71:	8b 4d 84             	mov    -0x7c(%ebp),%ecx
    2c74:	29 f9                	sub    %edi,%ecx
    2c76:	8d 55 c8             	lea    -0x38(%ebp),%edx
    2c79:	89 4c 24 10          	mov    %ecx,0x10(%esp)
    2c7d:	8b 8d 78 ff ff ff    	mov    -0x88(%ebp),%ecx
    2c83:	89 4c 24 04          	mov    %ecx,0x4(%esp)
    2c87:	8b 0d a4 58 02 00    	mov    0x258a4,%ecx
    2c8d:	89 54 24 08          	mov    %edx,0x8(%esp)
    2c91:	89 0c 24             	mov    %ecx,(%esp)
    2c94:	89 44 24 0c          	mov    %eax,0xc(%esp)
    2c98:	89 85 70 ff ff ff    	mov    %eax,-0x90(%ebp)
    2c9e:	e8 2d 21 00 00       	call   4dd0 <sheet_copy_out>
    2ca3:	8b 85 70 ff ff ff    	mov    -0x90(%ebp),%eax
    2ca9:	89 04 24             	mov    %eax,(%esp)
    2cac:	e8 5f 3d 00 00       	call   6a10 <str_size>
    2cb1:	8b 55 e4             	mov    -0x1c(%ebp),%edx
    2cb4:	89 55 dc             	mov    %edx,-0x24(%ebp)
    2cb7:	8b 4d 80             	mov    -0x80(%ebp),%ecx
    2cba:	8d 55 c8             	lea    -0x38(%ebp),%edx
    2cbd:	01 c7                	add    %eax,%edi
    2cbf:	89 54 24 04          	mov    %edx,0x4(%esp)
    2cc3:	8b 45 e0             	mov    -0x20(%ebp),%eax
    2cc6:	89 0c 24             	mov    %ecx,(%esp)
    2cc9:	89 45 d8             	mov    %eax,-0x28(%ebp)
    2ccc:	e8 1f 24 00 00       	call   50f0 <spt_equal>
    2cd1:	84 c0                	test   %al,%al
    2cd3:	0f 85 0c 02 00 00    	jne    2ee5 <pt_is_word_beginning+0x4f5>
    2cd9:	8b 45 84             	mov    -0x7c(%ebp),%eax
    2cdc:	01 c0                	add    %eax,%eax
    2cde:	89 45 84             	mov    %eax,-0x7c(%ebp)
    2ce1:	8b 85 7c ff ff ff    	mov    -0x84(%ebp),%eax
    2ce7:	8b 55 84             	mov    -0x7c(%ebp),%edx
    2cea:	89 04 24             	mov    %eax,(%esp)
    2ced:	89 54 24 04          	mov    %edx,0x4(%esp)
    2cf1:	e8 4a 09 01 00       	call   13640 <realloc>
    2cf6:	89 85 7c ff ff ff    	mov    %eax,-0x84(%ebp)
    2cfc:	85 c0                	test   %eax,%eax
    2cfe:	0f 85 64 ff ff ff    	jne    2c68 <pt_is_word_beginning+0x278>
    2d04:	8b bd 74 ff ff ff    	mov    -0x8c(%ebp),%edi
    2d0a:	8d 45 c0             	lea    -0x40(%ebp),%eax
    2d0d:	89 3c 24             	mov    %edi,(%esp)
    2d10:	89 44 24 04          	mov    %eax,0x4(%esp)
    2d14:	e8 47 23 00 00       	call   5060 <spt_get_coord>
    2d19:	8b 45 c4             	mov    -0x3c(%ebp),%eax
    2d1c:	48                   	dec    %eax
    2d1d:	8d 4d c0             	lea    -0x40(%ebp),%ecx
    2d20:	8d 55 b8             	lea    -0x48(%ebp),%edx
    2d23:	89 45 c4             	mov    %eax,-0x3c(%ebp)
    2d26:	a1 a4 58 02 00       	mov    0x258a4,%eax
    2d2b:	89 4c 24 04          	mov    %ecx,0x4(%esp)
    2d2f:	89 54 24 0c          	mov    %edx,0xc(%esp)
    2d33:	89 04 24             	mov    %eax,(%esp)
    2d36:	c7 44 24 08 00 00 00 	movl   $0x0,0x8(%esp)
    2d3d:	00 
    2d3e:	e8 1d 21 00 00       	call   4e60 <sheet_get_cell_pt>
    2d43:	8d 45 b8             	lea    -0x48(%ebp),%eax
    2d46:	89 04 24             	mov    %eax,(%esp)
    2d49:	89 5c 24 04          	mov    %ebx,0x4(%esp)
    2d4d:	e8 0e 23 00 00       	call   5060 <spt_get_coord>
    2d52:	8b 45 d4             	mov    -0x2c(%ebp),%eax
    2d55:	40                   	inc    %eax
    2d56:	8d 55 c8             	lea    -0x38(%ebp),%edx
    2d59:	89 45 d4             	mov    %eax,-0x2c(%ebp)
    2d5c:	a1 a4 58 02 00       	mov    0x258a4,%eax
    2d61:	89 54 24 0c          	mov    %edx,0xc(%esp)
    2d65:	89 04 24             	mov    %eax,(%esp)
    2d68:	c7 44 24 08 01 00 00 	movl   $0x1,0x8(%esp)
    2d6f:	00 
    2d70:	89 5c 24 04          	mov    %ebx,0x4(%esp)
    2d74:	e8 e7 20 00 00       	call   4e60 <sheet_get_cell_pt>
    2d79:	c7 04 24 01 00 00 00 	movl   $0x1,(%esp)
    2d80:	e8 5b 05 01 00       	call   132e0 <malloc>
    2d85:	89 c2                	mov    %eax,%edx
    2d87:	85 c0                	test   %eax,%eax
    2d89:	0f 84 d7 00 00 00    	je     2e66 <pt_is_word_beginning+0x476>
    2d8f:	8b 4d b8             	mov    -0x48(%ebp),%ecx
    2d92:	8b 5d bc             	mov    -0x44(%ebp),%ebx
    2d95:	8d 45 e0             	lea    -0x20(%ebp),%eax
    2d98:	89 4d d8             	mov    %ecx,-0x28(%ebp)
    2d9b:	89 5d dc             	mov    %ebx,-0x24(%ebp)
    2d9e:	b9 01 00 00 00       	mov    $0x1,%ecx
    2da3:	31 db                	xor    %ebx,%ebx
    2da5:	89 45 80             	mov    %eax,-0x80(%ebp)
    2da8:	8d 45 d8             	lea    -0x28(%ebp),%eax
    2dab:	89 bd 7c ff ff ff    	mov    %edi,-0x84(%ebp)
    2db1:	89 85 78 ff ff ff    	mov    %eax,-0x88(%ebp)
    2db7:	89 5d 84             	mov    %ebx,-0x7c(%ebp)
    2dba:	89 cf                	mov    %ecx,%edi
    2dbc:	8d 74 26 00          	lea    0x0(%esi,%eiz,1),%esi
    2dc0:	8b 4d 80             	mov    -0x80(%ebp),%ecx
    2dc3:	8b 5d 84             	mov    -0x7c(%ebp),%ebx
    2dc6:	89 4c 24 14          	mov    %ecx,0x14(%esp)
    2dca:	89 f9                	mov    %edi,%ecx
    2dcc:	29 d9                	sub    %ebx,%ecx
    2dce:	8b 45 84             	mov    -0x7c(%ebp),%eax
    2dd1:	89 4c 24 10          	mov    %ecx,0x10(%esp)
    2dd5:	8b 8d 78 ff ff ff    	mov    -0x88(%ebp),%ecx
    2ddb:	01 d0                	add    %edx,%eax
    2ddd:	8d 5d c8             	lea    -0x38(%ebp),%ebx
    2de0:	89 4c 24 04          	mov    %ecx,0x4(%esp)
    2de4:	8b 0d a4 58 02 00    	mov    0x258a4,%ecx
    2dea:	89 0c 24             	mov    %ecx,(%esp)
    2ded:	89 44 24 0c          	mov    %eax,0xc(%esp)
    2df1:	89 5c 24 08          	mov    %ebx,0x8(%esp)
    2df5:	89 95 6c ff ff ff    	mov    %edx,-0x94(%ebp)
    2dfb:	89 85 70 ff ff ff    	mov    %eax,-0x90(%ebp)
    2e01:	e8 ca 1f 00 00       	call   4dd0 <sheet_copy_out>
    2e06:	8b 85 70 ff ff ff    	mov    -0x90(%ebp),%eax
    2e0c:	89 04 24             	mov    %eax,(%esp)
    2e0f:	e8 fc 3b 00 00       	call   6a10 <str_size>
    2e14:	8b 4d e0             	mov    -0x20(%ebp),%ecx
    2e17:	8b 5d e4             	mov    -0x1c(%ebp),%ebx
    2e1a:	8b 55 84             	mov    -0x7c(%ebp),%edx
    2e1d:	89 4d d8             	mov    %ecx,-0x28(%ebp)
    2e20:	89 5d dc             	mov    %ebx,-0x24(%ebp)
    2e23:	8b 4d 80             	mov    -0x80(%ebp),%ecx
    2e26:	8d 5d c8             	lea    -0x38(%ebp),%ebx
    2e29:	01 c2                	add    %eax,%edx
    2e2b:	89 5c 24 04          	mov    %ebx,0x4(%esp)
    2e2f:	89 0c 24             	mov    %ecx,(%esp)
    2e32:	89 55 84             	mov    %edx,-0x7c(%ebp)
    2e35:	e8 b6 22 00 00       	call   50f0 <spt_equal>
    2e3a:	8b 95 6c ff ff ff    	mov    -0x94(%ebp),%edx
    2e40:	84 c0                	test   %al,%al
    2e42:	0f 85 fa 00 00 00    	jne    2f42 <pt_is_word_beginning+0x552>
    2e48:	01 ff                	add    %edi,%edi
    2e4a:	89 14 24             	mov    %edx,(%esp)
    2e4d:	89 7c 24 04          	mov    %edi,0x4(%esp)
    2e51:	e8 ea 07 01 00       	call   13640 <realloc>
    2e56:	89 c2                	mov    %eax,%edx
    2e58:	85 c0                	test   %eax,%eax
    2e5a:	0f 85 60 ff ff ff    	jne    2dc0 <pt_is_word_beginning+0x3d0>
    2e60:	8b bd 7c ff ff ff    	mov    -0x84(%ebp),%edi
    2e66:	89 f8                	mov    %edi,%eax
    2e68:	e8 23 f8 ff ff       	call   2690 <pt_is_punctuation>
    2e6d:	84 c0                	test   %al,%al
    2e6f:	74 14                	je     2e85 <pt_is_word_beginning+0x495>
    2e71:	8d 45 b8             	lea    -0x48(%ebp),%eax
    2e74:	e8 17 f8 ff ff       	call   2690 <pt_is_punctuation>
    2e79:	88 c2                	mov    %al,%dl
    2e7b:	b0 01                	mov    $0x1,%al
    2e7d:	84 d2                	test   %dl,%dl
    2e7f:	0f 84 b9 fc ff ff    	je     2b3e <pt_is_word_beginning+0x14e>
    2e85:	8d 45 b8             	lea    -0x48(%ebp),%eax
    2e88:	e8 03 f8 ff ff       	call   2690 <pt_is_punctuation>
    2e8d:	88 c2                	mov    %al,%dl
    2e8f:	31 c0                	xor    %eax,%eax
    2e91:	84 d2                	test   %dl,%dl
    2e93:	0f 84 a5 fc ff ff    	je     2b3e <pt_is_word_beginning+0x14e>
    2e99:	89 f8                	mov    %edi,%eax
    2e9b:	e8 f0 f7 ff ff       	call   2690 <pt_is_punctuation>
    2ea0:	83 f0 01             	xor    $0x1,%eax
    2ea3:	e9 96 fc ff ff       	jmp    2b3e <pt_is_word_beginning+0x14e>
    2ea8:	8b 45 c4             	mov    -0x3c(%ebp),%eax
    2eab:	8b 4d d4             	mov    -0x2c(%ebp),%ecx
    2eae:	29 c8                	sub    %ecx,%eax
    2eb0:	e9 83 fc ff ff       	jmp    2b38 <pt_is_word_beginning+0x148>
    2eb5:	8d 76 00             	lea    0x0(%esi),%esi
    2eb8:	8b 45 c4             	mov    -0x3c(%ebp),%eax
    2ebb:	8b 55 d4             	mov    -0x2c(%ebp),%edx
    2ebe:	29 d0                	sub    %edx,%eax
    2ec0:	e9 b6 fc ff ff       	jmp    2b7b <pt_is_word_beginning+0x18b>
    2ec5:	8d 76 00             	lea    0x0(%esi),%esi
    2ec8:	8b 45 c4             	mov    -0x3c(%ebp),%eax
    2ecb:	8b 4d d4             	mov    -0x2c(%ebp),%ecx
    2ece:	29 c8                	sub    %ecx,%eax
    2ed0:	e9 d8 fc ff ff       	jmp    2bad <pt_is_word_beginning+0x1bd>
    2ed5:	8d 76 00             	lea    0x0(%esi),%esi
    2ed8:	8b 45 c4             	mov    -0x3c(%ebp),%eax
    2edb:	8b 55 d4             	mov    -0x2c(%ebp),%edx
    2ede:	29 d0                	sub    %edx,%eax
    2ee0:	e9 fa fc ff ff       	jmp    2bdf <pt_is_word_beginning+0x1ef>
    2ee5:	8b 8d 7c ff ff ff    	mov    -0x84(%ebp),%ecx
    2eeb:	8b bd 74 ff ff ff    	mov    -0x8c(%ebp),%edi
    2ef1:	85 c9                	test   %ecx,%ecx
    2ef3:	0f 84 11 fe ff ff    	je     2d0a <pt_is_word_beginning+0x31a>
    2ef9:	8b 85 7c ff ff ff    	mov    -0x84(%ebp),%eax
    2eff:	c7 45 94 00 00 00 00 	movl   $0x0,-0x6c(%ebp)
    2f06:	89 04 24             	mov    %eax,(%esp)
    2f09:	e8 02 3b 00 00       	call   6a10 <str_size>
    2f0e:	89 74 24 04          	mov    %esi,0x4(%esp)
    2f12:	89 44 24 08          	mov    %eax,0x8(%esp)
    2f16:	8b 85 7c ff ff ff    	mov    -0x84(%ebp),%eax
    2f1c:	89 04 24             	mov    %eax,(%esp)
    2f1f:	e8 ac 36 00 00       	call   65d0 <str_decode>
    2f24:	83 f8 09             	cmp    $0x9,%eax
    2f27:	0f 8c dd fd ff ff    	jl     2d0a <pt_is_word_beginning+0x31a>
    2f2d:	83 f8 0a             	cmp    $0xa,%eax
    2f30:	7e 09                	jle    2f3b <pt_is_word_beginning+0x54b>
    2f32:	83 f8 20             	cmp    $0x20,%eax
    2f35:	0f 85 cf fd ff ff    	jne    2d0a <pt_is_word_beginning+0x31a>
    2f3b:	31 c0                	xor    %eax,%eax
    2f3d:	e9 fc fb ff ff       	jmp    2b3e <pt_is_word_beginning+0x14e>
    2f42:	8b bd 7c ff ff ff    	mov    -0x84(%ebp),%edi
    2f48:	85 d2                	test   %edx,%edx
    2f4a:	0f 84 16 ff ff ff    	je     2e66 <pt_is_word_beginning+0x476>
    2f50:	89 14 24             	mov    %edx,(%esp)
    2f53:	89 95 6c ff ff ff    	mov    %edx,-0x94(%ebp)
    2f59:	c7 45 94 00 00 00 00 	movl   $0x0,-0x6c(%ebp)
    2f60:	e8 ab 3a 00 00       	call   6a10 <str_size>
    2f65:	8b 95 6c ff ff ff    	mov    -0x94(%ebp),%edx
    2f6b:	89 44 24 08          	mov    %eax,0x8(%esp)
    2f6f:	89 74 24 04          	mov    %esi,0x4(%esp)
    2f73:	89 14 24             	mov    %edx,(%esp)
    2f76:	e8 55 36 00 00       	call   65d0 <str_decode>
    2f7b:	83 f8 09             	cmp    $0x9,%eax
    2f7e:	0f 8c e2 fe ff ff    	jl     2e66 <pt_is_word_beginning+0x476>
    2f84:	83 f8 0a             	cmp    $0xa,%eax
    2f87:	0f 8e af fb ff ff    	jle    2b3c <pt_is_word_beginning+0x14c>
    2f8d:	83 f8 20             	cmp    $0x20,%eax
    2f90:	0f 85 d0 fe ff ff    	jne    2e66 <pt_is_word_beginning+0x476>
    2f96:	e9 a1 fb ff ff       	jmp    2b3c <pt_is_word_beginning+0x14c>
    2f9b:	90                   	nop
    2f9c:	8d 74 26 00          	lea    0x0(%esi,%eiz,1),%esi

00002fa0 <search>:
    2fa0:	55                   	push   %ebp
    2fa1:	89 e5                	mov    %esp,%ebp
    2fa3:	57                   	push   %edi
    2fa4:	56                   	push   %esi
    2fa5:	53                   	push   %ebx
    2fa6:	81 ec 9c 00 00 00    	sub    $0x9c,%esp
    2fac:	89 c3                	mov    %eax,%ebx
    2fae:	a1 48 58 02 00       	mov    0x25848,%eax
    2fb3:	88 55 87             	mov    %dl,-0x79(%ebp)
    2fb6:	48                   	dec    %eax
    2fb7:	c7 44 24 04 00 00 00 	movl   $0x0,0x4(%esp)
    2fbe:	00 
    2fbf:	89 44 24 08          	mov    %eax,0x8(%esp)
    2fc3:	a1 40 58 02 00       	mov    0x25840,%eax
    2fc8:	89 04 24             	mov    %eax,(%esp)
    2fcb:	e8 e0 dd 00 00       	call   10db0 <console_set_pos>
    2fd0:	a1 40 58 02 00       	mov    0x25840,%eax
    2fd5:	89 04 24             	mov    %eax,(%esp)
    2fd8:	c7 44 24 04 02 00 00 	movl   $0x2,0x4(%esp)
    2fdf:	00 
    2fe0:	e8 6b da 00 00       	call   10a50 <console_set_style>
    2fe5:	8b 35 44 58 02 00    	mov    0x25844,%esi
    2feb:	b8 03 00 00 00       	mov    $0x3,%eax
    2ff0:	c7 44 24 08 cc 28 02 	movl   $0x228cc,0x8(%esp)
    2ff7:	00 
    2ff8:	29 f0                	sub    %esi,%eax
    2ffa:	c7 04 24 22 28 02 00 	movl   $0x22822,(%esp)
    3001:	89 44 24 04          	mov    %eax,0x4(%esp)
    3005:	8d 75 8c             	lea    -0x74(%ebp),%esi
    3008:	e8 53 ac 00 00       	call   dc60 <printf>
    300d:	a1 40 58 02 00       	mov    0x25840,%eax
    3012:	89 04 24             	mov    %eax,(%esp)
    3015:	e8 06 d9 00 00       	call   10920 <console_flush>
    301a:	a1 40 58 02 00       	mov    0x25840,%eax
    301f:	89 04 24             	mov    %eax,(%esp)
    3022:	c7 44 24 04 00 00 00 	movl   $0x0,0x4(%esp)
    3029:	00 
    302a:	e8 21 da 00 00       	call   10a50 <console_set_style>
    302f:	89 74 24 04          	mov    %esi,0x4(%esp)
    3033:	c7 04 24 74 58 02 00 	movl   $0x25874,(%esp)
    303a:	83 0d 70 58 02 00 08 	orl    $0x8,0x25870
    3041:	e8 aa 21 00 00       	call   51f0 <tag_get_pt>
    3046:	8b 45 8c             	mov    -0x74(%ebp),%eax
    3049:	8b 55 90             	mov    -0x70(%ebp),%edx
    304c:	89 74 24 08          	mov    %esi,0x8(%esp)
    3050:	80 7d 87 00          	cmpb   $0x0,-0x79(%ebp)
    3054:	89 04 24             	mov    %eax,(%esp)
    3057:	89 54 24 04          	mov    %edx,0x4(%esp)
    305b:	0f 85 57 03 00 00    	jne    33b8 <search+0x418>
    3061:	e8 aa 20 00 00       	call   5110 <spt_next_char>
    3066:	8b 45 8c             	mov    -0x74(%ebp),%eax
    3069:	89 45 94             	mov    %eax,-0x6c(%ebp)
    306c:	a1 b0 2c 02 00       	mov    0x22cb0,%eax
    3071:	89 45 d8             	mov    %eax,-0x28(%ebp)
    3074:	a1 b4 2c 02 00       	mov    0x22cb4,%eax
    3079:	89 45 dc             	mov    %eax,-0x24(%ebp)
    307c:	a1 b8 2c 02 00       	mov    0x22cb8,%eax
    3081:	8b 55 90             	mov    -0x70(%ebp),%edx
    3084:	89 45 e0             	mov    %eax,-0x20(%ebp)
    3087:	a1 bc 2c 02 00       	mov    0x22cbc,%eax
    308c:	89 55 98             	mov    %edx,-0x68(%ebp)
    308f:	89 45 e4             	mov    %eax,-0x1c(%ebp)
    3092:	31 c0                	xor    %eax,%eax
    3094:	89 1c 24             	mov    %ebx,(%esp)
    3097:	8a 45 87             	mov    -0x79(%ebp),%al
    309a:	89 44 24 18          	mov    %eax,0x18(%esp)
    309e:	8b 45 d8             	mov    -0x28(%ebp),%eax
    30a1:	89 44 24 08          	mov    %eax,0x8(%esp)
    30a5:	8b 45 dc             	mov    -0x24(%ebp),%eax
    30a8:	89 44 24 0c          	mov    %eax,0xc(%esp)
    30ac:	8b 45 e0             	mov    -0x20(%ebp),%eax
    30af:	89 44 24 10          	mov    %eax,0x10(%esp)
    30b3:	8b 45 e4             	mov    -0x1c(%ebp),%eax
    30b6:	89 44 24 14          	mov    %eax,0x14(%esp)
    30ba:	8d 45 94             	lea    -0x6c(%ebp),%eax
    30bd:	89 44 24 04          	mov    %eax,0x4(%esp)
    30c1:	e8 4a 21 00 00       	call   5210 <search_init>
    30c6:	89 c7                	mov    %eax,%edi
    30c8:	85 c0                	test   %eax,%eax
    30ca:	0f 84 28 04 00 00    	je     34f8 <search+0x558>
    30d0:	8d 45 cc             	lea    -0x34(%ebp),%eax
    30d3:	89 3c 24             	mov    %edi,(%esp)
    30d6:	89 44 24 04          	mov    %eax,0x4(%esp)
    30da:	e8 91 22 00 00       	call   5370 <search_next_match>
    30df:	85 c0                	test   %eax,%eax
    30e1:	0f 85 09 03 00 00    	jne    33f0 <search+0x450>
    30e7:	a1 48 58 02 00       	mov    0x25848,%eax
    30ec:	8b 55 d4             	mov    -0x2c(%ebp),%edx
    30ef:	48                   	dec    %eax
    30f0:	c7 44 24 04 00 00 00 	movl   $0x0,0x4(%esp)
    30f7:	00 
    30f8:	89 44 24 08          	mov    %eax,0x8(%esp)
    30fc:	a1 40 58 02 00       	mov    0x25840,%eax
    3101:	85 d2                	test   %edx,%edx
    3103:	89 04 24             	mov    %eax,(%esp)
    3106:	0f 84 7c 03 00 00    	je     3488 <search+0x4e8>
    310c:	e8 9f dc 00 00       	call   10db0 <console_set_pos>
    3111:	a1 40 58 02 00       	mov    0x25840,%eax
    3116:	89 04 24             	mov    %eax,(%esp)
    3119:	c7 44 24 04 02 00 00 	movl   $0x2,0x4(%esp)
    3120:	00 
    3121:	e8 2a d9 00 00       	call   10a50 <console_set_style>
    3126:	8b 35 44 58 02 00    	mov    0x25844,%esi
    312c:	b8 03 00 00 00       	mov    $0x3,%eax
    3131:	c7 44 24 08 07 29 02 	movl   $0x22907,0x8(%esp)
    3138:	00 
    3139:	29 f0                	sub    %esi,%eax
    313b:	c7 04 24 22 28 02 00 	movl   $0x22822,(%esp)
    3142:	89 44 24 04          	mov    %eax,0x4(%esp)
    3146:	e8 15 ab 00 00       	call   dc60 <printf>
    314b:	a1 40 58 02 00       	mov    0x25840,%eax
    3150:	89 04 24             	mov    %eax,(%esp)
    3153:	e8 c8 d7 00 00       	call   10920 <console_flush>
    3158:	a1 40 58 02 00       	mov    0x25840,%eax
    315d:	c7 44 24 04 00 00 00 	movl   $0x0,0x4(%esp)
    3164:	00 
    3165:	89 04 24             	mov    %eax,(%esp)
    3168:	e8 e3 d8 00 00       	call   10a50 <console_set_style>
    316d:	8b 75 d4             	mov    -0x2c(%ebp),%esi
    3170:	83 0d 70 58 02 00 08 	orl    $0x8,0x25870
    3177:	85 f6                	test   %esi,%esi
    3179:	0f 84 06 04 00 00    	je     3585 <search+0x5e5>
    317f:	8d 5d ac             	lea    -0x54(%ebp),%ebx
    3182:	8b 56 04             	mov    0x4(%esi),%edx
    3185:	8b 06                	mov    (%esi),%eax
    3187:	89 5c 24 04          	mov    %ebx,0x4(%esp)
    318b:	c7 04 24 74 58 02 00 	movl   $0x25874,(%esp)
    3192:	89 55 a0             	mov    %edx,-0x60(%ebp)
    3195:	89 45 9c             	mov    %eax,-0x64(%ebp)
    3198:	e8 53 20 00 00       	call   51f0 <tag_get_pt>
    319d:	8d 45 b4             	lea    -0x4c(%ebp),%eax
    31a0:	c7 04 24 84 58 02 00 	movl   $0x25884,(%esp)
    31a7:	89 44 24 04          	mov    %eax,0x4(%esp)
    31ab:	e8 40 20 00 00       	call   51f0 <tag_get_pt>
    31b0:	8d 55 b4             	lea    -0x4c(%ebp),%edx
    31b3:	89 54 24 04          	mov    %edx,0x4(%esp)
    31b7:	89 1c 24             	mov    %ebx,(%esp)
    31ba:	e8 31 1f 00 00       	call   50f0 <spt_equal>
    31bf:	8b 15 a4 58 02 00    	mov    0x258a4,%edx
    31c5:	89 14 24             	mov    %edx,(%esp)
    31c8:	c7 44 24 04 74 58 02 	movl   $0x25874,0x4(%esp)
    31cf:	00 
    31d0:	88 45 80             	mov    %al,-0x80(%ebp)
    31d3:	e8 e8 1f 00 00       	call   51c0 <sheet_remove_tag>
    31d8:	8d 55 9c             	lea    -0x64(%ebp),%edx
    31db:	8b 0d a4 58 02 00    	mov    0x258a4,%ecx
    31e1:	89 54 24 04          	mov    %edx,0x4(%esp)
    31e5:	89 0c 24             	mov    %ecx,(%esp)
    31e8:	c7 44 24 08 74 58 02 	movl   $0x25874,0x8(%esp)
    31ef:	00 
    31f0:	89 95 7c ff ff ff    	mov    %edx,-0x84(%ebp)
    31f6:	e8 95 1f 00 00       	call   5190 <sheet_place_tag>
    31fb:	8b 0d a4 58 02 00    	mov    0x258a4,%ecx
    3201:	89 0c 24             	mov    %ecx,(%esp)
    3204:	c7 44 24 04 84 58 02 	movl   $0x25884,0x4(%esp)
    320b:	00 
    320c:	e8 af 1f 00 00       	call   51c0 <sheet_remove_tag>
    3211:	8b 95 7c ff ff ff    	mov    -0x84(%ebp),%edx
    3217:	8b 0d a4 58 02 00    	mov    0x258a4,%ecx
    321d:	89 54 24 04          	mov    %edx,0x4(%esp)
    3221:	89 0c 24             	mov    %ecx,(%esp)
    3224:	c7 44 24 08 84 58 02 	movl   $0x25884,0x8(%esp)
    322b:	00 
    322c:	e8 5f 1f 00 00       	call   5190 <sheet_place_tag>
    3231:	8d 4d c4             	lea    -0x3c(%ebp),%ecx
    3234:	8b 95 7c ff ff ff    	mov    -0x84(%ebp),%edx
    323a:	89 4c 24 04          	mov    %ecx,0x4(%esp)
    323e:	89 14 24             	mov    %edx,(%esp)
    3241:	e8 1a 1e 00 00       	call   5060 <spt_get_coord>
    3246:	8a 45 80             	mov    -0x80(%ebp),%al
    3249:	84 c0                	test   %al,%al
    324b:	75 07                	jne    3254 <search+0x2b4>
    324d:	83 0d 70 58 02 00 01 	orl    $0x1,0x25870
    3254:	8b 45 c8             	mov    -0x38(%ebp),%eax
    3257:	a3 94 58 02 00       	mov    %eax,0x25894
    325c:	e8 9f de ff ff       	call   1100 <caret_update>
    3261:	80 7d 87 00          	cmpb   $0x0,-0x79(%ebp)
    3265:	0f 85 36 01 00 00    	jne    33a1 <search+0x401>
    326b:	8b 55 d0             	mov    -0x30(%ebp),%edx
    326e:	8b 45 cc             	mov    -0x34(%ebp),%eax
    3271:	89 d1                	mov    %edx,%ecx
    3273:	09 c1                	or     %eax,%ecx
    3275:	74 2e                	je     32a5 <search+0x305>
    3277:	90                   	nop
    3278:	83 c0 ff             	add    $0xffffffff,%eax
    327b:	89 74 24 08          	mov    %esi,0x8(%esp)
    327f:	83 d2 ff             	adc    $0xffffffff,%edx
    3282:	89 45 cc             	mov    %eax,-0x34(%ebp)
    3285:	89 55 d0             	mov    %edx,-0x30(%ebp)
    3288:	8b 06                	mov    (%esi),%eax
    328a:	8b 56 04             	mov    0x4(%esi),%edx
    328d:	89 04 24             	mov    %eax,(%esp)
    3290:	89 54 24 04          	mov    %edx,0x4(%esp)
    3294:	e8 b7 1e 00 00       	call   5150 <spt_prev_char>
    3299:	8b 55 d0             	mov    -0x30(%ebp),%edx
    329c:	8b 45 cc             	mov    -0x34(%ebp),%eax
    329f:	89 d1                	mov    %edx,%ecx
    32a1:	09 c1                	or     %eax,%ecx
    32a3:	75 d3                	jne    3278 <search+0x2d8>
    32a5:	8b 56 04             	mov    0x4(%esi),%edx
    32a8:	8b 06                	mov    (%esi),%eax
    32aa:	89 5c 24 04          	mov    %ebx,0x4(%esp)
    32ae:	c7 04 24 74 58 02 00 	movl   $0x25874,(%esp)
    32b5:	89 55 a8             	mov    %edx,-0x58(%ebp)
    32b8:	89 45 a4             	mov    %eax,-0x5c(%ebp)
    32bb:	e8 30 1f 00 00       	call   51f0 <tag_get_pt>
    32c0:	8d 45 b4             	lea    -0x4c(%ebp),%eax
    32c3:	89 44 24 04          	mov    %eax,0x4(%esp)
    32c7:	c7 04 24 84 58 02 00 	movl   $0x25884,(%esp)
    32ce:	e8 1d 1f 00 00       	call   51f0 <tag_get_pt>
    32d3:	8d 55 b4             	lea    -0x4c(%ebp),%edx
    32d6:	89 54 24 04          	mov    %edx,0x4(%esp)
    32da:	89 1c 24             	mov    %ebx,(%esp)
    32dd:	e8 0e 1e 00 00       	call   50f0 <spt_equal>
    32e2:	a1 a4 58 02 00       	mov    0x258a4,%eax
    32e7:	89 04 24             	mov    %eax,(%esp)
    32ea:	c7 44 24 04 74 58 02 	movl   $0x25874,0x4(%esp)
    32f1:	00 
    32f2:	e8 c9 1e 00 00       	call   51c0 <sheet_remove_tag>
    32f7:	8d 45 a4             	lea    -0x5c(%ebp),%eax
    32fa:	8b 15 a4 58 02 00    	mov    0x258a4,%edx
    3300:	89 44 24 04          	mov    %eax,0x4(%esp)
    3304:	89 14 24             	mov    %edx,(%esp)
    3307:	c7 44 24 08 74 58 02 	movl   $0x25874,0x8(%esp)
    330e:	00 
    330f:	89 45 80             	mov    %eax,-0x80(%ebp)
    3312:	e8 79 1e 00 00       	call   5190 <sheet_place_tag>
    3317:	8d 4d c4             	lea    -0x3c(%ebp),%ecx
    331a:	8b 45 80             	mov    -0x80(%ebp),%eax
    331d:	89 4c 24 04          	mov    %ecx,0x4(%esp)
    3321:	89 04 24             	mov    %eax,(%esp)
    3324:	e8 37 1d 00 00       	call   5060 <spt_get_coord>
    3329:	8d 45 bc             	lea    -0x44(%ebp),%eax
    332c:	89 44 24 04          	mov    %eax,0x4(%esp)
    3330:	89 1c 24             	mov    %ebx,(%esp)
    3333:	e8 28 1d 00 00       	call   5060 <spt_get_coord>
    3338:	8b 45 c4             	mov    -0x3c(%ebp),%eax
    333b:	39 45 bc             	cmp    %eax,-0x44(%ebp)
    333e:	a1 70 58 02 00       	mov    0x25870,%eax
    3343:	0f 84 37 01 00 00    	je     3480 <search+0x4e0>
    3349:	83 c8 01             	or     $0x1,%eax
    334c:	a3 70 58 02 00       	mov    %eax,0x25870
    3351:	8b 45 c8             	mov    -0x38(%ebp),%eax
    3354:	a3 94 58 02 00       	mov    %eax,0x25894
    3359:	e8 a2 dd ff ff       	call   1100 <caret_update>
    335e:	89 34 24             	mov    %esi,(%esp)
    3361:	e8 8a 00 01 00       	call   133f0 <free>
    3366:	89 3c 24             	mov    %edi,(%esp)
    3369:	e8 f2 20 00 00       	call   5460 <search_fini>
    336e:	81 c4 9c 00 00 00    	add    $0x9c,%esp
    3374:	5b                   	pop    %ebx
    3375:	5e                   	pop    %esi
    3376:	5f                   	pop    %edi
    3377:	5d                   	pop    %ebp
    3378:	c3                   	ret    
    3379:	8d b4 26 00 00 00 00 	lea    0x0(%esi,%eiz,1),%esi
    3380:	83 c0 ff             	add    $0xffffffff,%eax
    3383:	89 74 24 08          	mov    %esi,0x8(%esp)
    3387:	83 d2 ff             	adc    $0xffffffff,%edx
    338a:	89 45 cc             	mov    %eax,-0x34(%ebp)
    338d:	89 55 d0             	mov    %edx,-0x30(%ebp)
    3390:	8b 06                	mov    (%esi),%eax
    3392:	8b 56 04             	mov    0x4(%esi),%edx
    3395:	89 04 24             	mov    %eax,(%esp)
    3398:	89 54 24 04          	mov    %edx,0x4(%esp)
    339c:	e8 6f 1d 00 00       	call   5110 <spt_next_char>
    33a1:	8b 55 d0             	mov    -0x30(%ebp),%edx
    33a4:	8b 45 cc             	mov    -0x34(%ebp),%eax
    33a7:	89 d1                	mov    %edx,%ecx
    33a9:	09 c1                	or     %eax,%ecx
    33ab:	75 d3                	jne    3380 <search+0x3e0>
    33ad:	e9 f3 fe ff ff       	jmp    32a5 <search+0x305>
    33b2:	8d b6 00 00 00 00    	lea    0x0(%esi),%esi
    33b8:	e8 93 1d 00 00       	call   5150 <spt_prev_char>
    33bd:	8b 45 8c             	mov    -0x74(%ebp),%eax
    33c0:	89 45 94             	mov    %eax,-0x6c(%ebp)
    33c3:	a1 c0 2c 02 00       	mov    0x22cc0,%eax
    33c8:	89 45 d8             	mov    %eax,-0x28(%ebp)
    33cb:	a1 c4 2c 02 00       	mov    0x22cc4,%eax
    33d0:	89 45 dc             	mov    %eax,-0x24(%ebp)
    33d3:	a1 c8 2c 02 00       	mov    0x22cc8,%eax
    33d8:	8b 55 90             	mov    -0x70(%ebp),%edx
    33db:	89 45 e0             	mov    %eax,-0x20(%ebp)
    33de:	a1 cc 2c 02 00       	mov    0x22ccc,%eax
    33e3:	89 55 98             	mov    %edx,-0x68(%ebp)
    33e6:	89 45 e4             	mov    %eax,-0x1c(%ebp)
    33e9:	e9 a4 fc ff ff       	jmp    3092 <search+0xf2>
    33ee:	66 90                	xchg   %ax,%ax
    33f0:	a1 48 58 02 00       	mov    0x25848,%eax
    33f5:	c7 44 24 04 00 00 00 	movl   $0x0,0x4(%esp)
    33fc:	00 
    33fd:	48                   	dec    %eax
    33fe:	89 44 24 08          	mov    %eax,0x8(%esp)
    3402:	a1 40 58 02 00       	mov    0x25840,%eax
    3407:	89 04 24             	mov    %eax,(%esp)
    340a:	e8 a1 d9 00 00       	call   10db0 <console_set_pos>
    340f:	a1 40 58 02 00       	mov    0x25840,%eax
    3414:	89 04 24             	mov    %eax,(%esp)
    3417:	c7 44 24 04 02 00 00 	movl   $0x2,0x4(%esp)
    341e:	00 
    341f:	e8 2c d6 00 00       	call   10a50 <console_set_style>
    3424:	8b 0d 44 58 02 00    	mov    0x25844,%ecx
    342a:	b8 03 00 00 00       	mov    $0x3,%eax
    342f:	c7 44 24 08 f5 28 02 	movl   $0x228f5,0x8(%esp)
    3436:	00 
    3437:	29 c8                	sub    %ecx,%eax
    3439:	c7 04 24 22 28 02 00 	movl   $0x22822,(%esp)
    3440:	89 44 24 04          	mov    %eax,0x4(%esp)
    3444:	e8 17 a8 00 00       	call   dc60 <printf>
    3449:	a1 40 58 02 00       	mov    0x25840,%eax
    344e:	89 04 24             	mov    %eax,(%esp)
    3451:	e8 ca d4 00 00       	call   10920 <console_flush>
    3456:	a1 40 58 02 00       	mov    0x25840,%eax
    345b:	c7 44 24 04 00 00 00 	movl   $0x0,0x4(%esp)
    3462:	00 
    3463:	89 04 24             	mov    %eax,(%esp)
    3466:	e8 e5 d5 00 00       	call   10a50 <console_set_style>
    346b:	89 3c 24             	mov    %edi,(%esp)
    346e:	83 0d 70 58 02 00 08 	orl    $0x8,0x25870
    3475:	e8 e6 1f 00 00       	call   5460 <search_fini>
    347a:	e9 68 fc ff ff       	jmp    30e7 <search+0x147>
    347f:	90                   	nop
    3480:	83 c8 02             	or     $0x2,%eax
    3483:	e9 c4 fe ff ff       	jmp    334c <search+0x3ac>
    3488:	e8 23 d9 00 00       	call   10db0 <console_set_pos>
    348d:	a1 40 58 02 00       	mov    0x25840,%eax
    3492:	89 04 24             	mov    %eax,(%esp)
    3495:	c7 44 24 04 02 00 00 	movl   $0x2,0x4(%esp)
    349c:	00 
    349d:	e8 ae d5 00 00       	call   10a50 <console_set_style>
    34a2:	8b 1d 44 58 02 00    	mov    0x25844,%ebx
    34a8:	b8 03 00 00 00       	mov    $0x3,%eax
    34ad:	c7 44 24 08 26 29 02 	movl   $0x22926,0x8(%esp)
    34b4:	00 
    34b5:	29 d8                	sub    %ebx,%eax
    34b7:	c7 04 24 22 28 02 00 	movl   $0x22822,(%esp)
    34be:	89 44 24 04          	mov    %eax,0x4(%esp)
    34c2:	e8 99 a7 00 00       	call   dc60 <printf>
    34c7:	a1 40 58 02 00       	mov    0x25840,%eax
    34cc:	89 04 24             	mov    %eax,(%esp)
    34cf:	e8 4c d4 00 00       	call   10920 <console_flush>
    34d4:	a1 40 58 02 00       	mov    0x25840,%eax
    34d9:	c7 44 24 04 00 00 00 	movl   $0x0,0x4(%esp)
    34e0:	00 
    34e1:	89 04 24             	mov    %eax,(%esp)
    34e4:	e8 67 d5 00 00       	call   10a50 <console_set_style>
    34e9:	83 0d 70 58 02 00 08 	orl    $0x8,0x25870
    34f0:	e9 71 fe ff ff       	jmp    3366 <search+0x3c6>
    34f5:	8d 76 00             	lea    0x0(%esi),%esi
    34f8:	a1 48 58 02 00       	mov    0x25848,%eax
    34fd:	c7 44 24 04 00 00 00 	movl   $0x0,0x4(%esp)
    3504:	00 
    3505:	48                   	dec    %eax
    3506:	89 44 24 08          	mov    %eax,0x8(%esp)
    350a:	a1 40 58 02 00       	mov    0x25840,%eax
    350f:	89 04 24             	mov    %eax,(%esp)
    3512:	e8 99 d8 00 00       	call   10db0 <console_set_pos>
    3517:	a1 40 58 02 00       	mov    0x25840,%eax
    351c:	89 04 24             	mov    %eax,(%esp)
    351f:	c7 44 24 04 02 00 00 	movl   $0x2,0x4(%esp)
    3526:	00 
    3527:	e8 24 d5 00 00       	call   10a50 <console_set_style>
    352c:	8b 1d 44 58 02 00    	mov    0x25844,%ebx
    3532:	b8 03 00 00 00       	mov    $0x3,%eax
    3537:	c7 44 24 08 d9 28 02 	movl   $0x228d9,0x8(%esp)
    353e:	00 
    353f:	29 d8                	sub    %ebx,%eax
    3541:	c7 04 24 22 28 02 00 	movl   $0x22822,(%esp)
    3548:	89 44 24 04          	mov    %eax,0x4(%esp)
    354c:	e8 0f a7 00 00       	call   dc60 <printf>
    3551:	a1 40 58 02 00       	mov    0x25840,%eax
    3556:	89 04 24             	mov    %eax,(%esp)
    3559:	e8 c2 d3 00 00       	call   10920 <console_flush>
    355e:	a1 40 58 02 00       	mov    0x25840,%eax
    3563:	c7 44 24 04 00 00 00 	movl   $0x0,0x4(%esp)
    356a:	00 
    356b:	89 04 24             	mov    %eax,(%esp)
    356e:	e8 dd d4 00 00       	call   10a50 <console_set_style>
    3573:	83 0d 70 58 02 00 08 	orl    $0x8,0x25870
    357a:	81 c4 9c 00 00 00    	add    $0x9c,%esp
    3580:	5b                   	pop    %ebx
    3581:	5e                   	pop    %esi
    3582:	5f                   	pop    %edi
    3583:	5d                   	pop    %ebp
    3584:	c3                   	ret    
    3585:	c7 44 24 08 1d 05 00 	movl   $0x51d,0x8(%esp)
    358c:	00 
    358d:	c7 44 24 04 3a 28 02 	movl   $0x2283a,0x4(%esp)
    3594:	00 
    3595:	c7 04 24 14 29 02 00 	movl   $0x22914,(%esp)
    359c:	e8 1f a5 01 00       	call   1dac0 <assert_abort>
    35a1:	66 90                	xchg   %ax,%ax
    35a3:	66 90                	xchg   %ax,%ax
    35a5:	66 90                	xchg   %ax,%ax
    35a7:	66 90                	xchg   %ax,%ax
    35a9:	66 90                	xchg   %ax,%ax
    35ab:	66 90                	xchg   %ax,%ax
    35ad:	66 90                	xchg   %ax,%ax
    35af:	90                   	nop

000035b0 <main>:
    35b0:	55                   	push   %ebp
    35b1:	89 e5                	mov    %esp,%ebp
    35b3:	57                   	push   %edi
    35b4:	56                   	push   %esi
    35b5:	53                   	push   %ebx
    35b6:	83 e4 f0             	and    $0xfffffff0,%esp
    35b9:	81 ec 00 01 00 00    	sub    $0x100,%esp
    35bf:	a1 c8 58 02 00       	mov    0x258c8,%eax
    35c4:	89 44 24 04          	mov    %eax,0x4(%esp)
    35c8:	a1 cc 58 02 00       	mov    0x258cc,%eax
    35cd:	89 04 24             	mov    %eax,(%esp)
    35d0:	e8 6b d2 00 00       	call   10840 <console_init>
    35d5:	89 04 24             	mov    %eax,(%esp)
    35d8:	a3 40 58 02 00       	mov    %eax,0x25840
    35dd:	e8 5e d3 00 00       	call   10940 <console_clear>
    35e2:	a1 40 58 02 00       	mov    0x25840,%eax
    35e7:	c7 44 24 08 48 58 02 	movl   $0x25848,0x8(%esp)
    35ee:	00 
    35ef:	c7 44 24 04 44 58 02 	movl   $0x25844,0x4(%esp)
    35f6:	00 
    35f7:	89 04 24             	mov    %eax,(%esp)
    35fa:	e8 c1 d3 00 00       	call   109c0 <console_get_size>
    35ff:	a1 48 58 02 00       	mov    0x25848,%eax
    3604:	48                   	dec    %eax
    3605:	c7 04 24 a4 58 02 00 	movl   $0x258a4,(%esp)
    360c:	a3 60 58 02 00       	mov    %eax,0x25860
    3611:	a1 44 58 02 00       	mov    0x25844,%eax
    3616:	a3 64 58 02 00       	mov    %eax,0x25864
    361b:	c7 05 68 58 02 00 01 	movl   $0x1,0x25868
    3622:	00 00 00 
    3625:	c7 05 6c 58 02 00 01 	movl   $0x1,0x2586c
    362c:	00 00 00 
    362f:	e8 5c 15 00 00       	call   4b90 <sheet_create>
    3634:	85 c0                	test   %eax,%eax
    3636:	0f 85 84 13 00 00    	jne    49c0 <main+0x1410>
    363c:	8d 44 24 38          	lea    0x38(%esp),%eax
    3640:	e8 7b da ff ff       	call   10c0 <pt_get_sof>
    3645:	8d 44 24 38          	lea    0x38(%esp),%eax
    3649:	89 44 24 04          	mov    %eax,0x4(%esp)
    364d:	a1 a4 58 02 00       	mov    0x258a4,%eax
    3652:	c7 44 24 08 74 58 02 	movl   $0x25874,0x8(%esp)
    3659:	00 
    365a:	89 04 24             	mov    %eax,(%esp)
    365d:	e8 2e 1b 00 00       	call   5190 <sheet_place_tag>
    3662:	c7 05 94 58 02 00 01 	movl   $0x1,0x25894
    3669:	00 00 00 
    366c:	83 7d 08 02          	cmpl   $0x2,0x8(%ebp)
    3670:	0f 84 48 08 00 00    	je     3ebe <main+0x90e>
    3676:	83 7d 08 01          	cmpl   $0x1,0x8(%ebp)
    367a:	0f 8f 54 13 00 00    	jg     49d4 <main+0x1424>
    3680:	8d 94 24 b8 00 00 00 	lea    0xb8(%esp),%edx
    3687:	c7 05 a0 58 02 00 00 	movl   $0x0,0x258a0
    368e:	00 00 00 
    3691:	b3 01                	mov    $0x1,%bl
    3693:	8d b4 24 b0 00 00 00 	lea    0xb0(%esp),%esi
    369a:	89 54 24 1c          	mov    %edx,0x1c(%esp)
    369e:	8d 44 24 38          	lea    0x38(%esp),%eax
    36a2:	c7 44 24 08 84 58 02 	movl   $0x25884,0x8(%esp)
    36a9:	00 
    36aa:	89 44 24 04          	mov    %eax,0x4(%esp)
    36ae:	a1 a4 58 02 00       	mov    0x258a4,%eax
    36b3:	89 04 24             	mov    %eax,(%esp)
    36b6:	8d 7c 24 40          	lea    0x40(%esp),%edi
    36ba:	e8 d1 1a 00 00       	call   5190 <sheet_place_tag>
    36bf:	8d 44 24 38          	lea    0x38(%esp),%eax
    36c3:	e8 f8 d9 ff ff       	call   10c0 <pt_get_sof>
    36c8:	8b 54 24 3c          	mov    0x3c(%esp),%edx
    36cc:	89 54 24 44          	mov    %edx,0x44(%esp)
    36d0:	8d 94 24 a0 00 00 00 	lea    0xa0(%esp),%edx
    36d7:	89 54 24 04          	mov    %edx,0x4(%esp)
    36db:	8b 44 24 38          	mov    0x38(%esp),%eax
    36df:	c7 04 24 74 58 02 00 	movl   $0x25874,(%esp)
    36e6:	89 44 24 40          	mov    %eax,0x40(%esp)
    36ea:	e8 01 1b 00 00       	call   51f0 <tag_get_pt>
    36ef:	89 74 24 04          	mov    %esi,0x4(%esp)
    36f3:	c7 04 24 84 58 02 00 	movl   $0x25884,(%esp)
    36fa:	e8 f1 1a 00 00       	call   51f0 <tag_get_pt>
    36ff:	8d 84 24 a0 00 00 00 	lea    0xa0(%esp),%eax
    3706:	89 74 24 04          	mov    %esi,0x4(%esp)
    370a:	89 04 24             	mov    %eax,(%esp)
    370d:	e8 de 19 00 00       	call   50f0 <spt_equal>
    3712:	a1 a4 58 02 00       	mov    0x258a4,%eax
    3717:	89 04 24             	mov    %eax,(%esp)
    371a:	c7 44 24 04 74 58 02 	movl   $0x25874,0x4(%esp)
    3721:	00 
    3722:	e8 99 1a 00 00       	call   51c0 <sheet_remove_tag>
    3727:	a1 a4 58 02 00       	mov    0x258a4,%eax
    372c:	89 04 24             	mov    %eax,(%esp)
    372f:	c7 44 24 08 74 58 02 	movl   $0x25874,0x8(%esp)
    3736:	00 
    3737:	89 7c 24 04          	mov    %edi,0x4(%esp)
    373b:	e8 50 1a 00 00       	call   5190 <sheet_place_tag>
    3740:	8b 54 24 1c          	mov    0x1c(%esp),%edx
    3744:	89 54 24 04          	mov    %edx,0x4(%esp)
    3748:	89 3c 24             	mov    %edi,(%esp)
    374b:	e8 10 19 00 00       	call   5060 <spt_get_coord>
    3750:	8d 84 24 a8 00 00 00 	lea    0xa8(%esp),%eax
    3757:	8d 94 24 a0 00 00 00 	lea    0xa0(%esp),%edx
    375e:	89 44 24 04          	mov    %eax,0x4(%esp)
    3762:	89 14 24             	mov    %edx,(%esp)
    3765:	e8 f6 18 00 00       	call   5060 <spt_get_coord>
    376a:	8b 84 24 b8 00 00 00 	mov    0xb8(%esp),%eax
    3771:	39 84 24 a8 00 00 00 	cmp    %eax,0xa8(%esp)
    3778:	a1 70 58 02 00       	mov    0x25870,%eax
    377d:	0f 84 c3 04 00 00    	je     3c46 <main+0x696>
    3783:	83 c8 01             	or     $0x1,%eax
    3786:	a3 70 58 02 00       	mov    %eax,0x25870
    378b:	8b 84 24 bc 00 00 00 	mov    0xbc(%esp),%eax
    3792:	a3 94 58 02 00       	mov    %eax,0x25894
    3797:	e8 64 d9 ff ff       	call   1100 <caret_update>
    379c:	31 c0                	xor    %eax,%eax
    379e:	c6 05 a8 58 02 00 01 	movb   $0x1,0x258a8
    37a5:	e8 96 e5 ff ff       	call   1d40 <cursor_setvis>
    37aa:	a1 40 58 02 00       	mov    0x25840,%eax
    37af:	89 04 24             	mov    %eax,(%esp)
    37b2:	e8 89 d1 00 00       	call   10940 <console_clear>
    37b7:	e8 24 e2 ff ff       	call   19e0 <pane_text_display>
    37bc:	e8 ff e2 ff ff       	call   1ac0 <pane_status_display>
    37c1:	84 db                	test   %bl,%bl
    37c3:	0f 85 36 03 00 00    	jne    3aff <main+0x54f>
    37c9:	89 74 24 04          	mov    %esi,0x4(%esp)
    37cd:	c7 04 24 74 58 02 00 	movl   $0x25874,(%esp)
    37d4:	e8 17 1a 00 00       	call   51f0 <tag_get_pt>
    37d9:	8b 54 24 1c          	mov    0x1c(%esp),%edx
    37dd:	89 54 24 04          	mov    %edx,0x4(%esp)
    37e1:	89 34 24             	mov    %esi,(%esp)
    37e4:	e8 77 18 00 00       	call   5060 <spt_get_coord>
    37e9:	8b 15 68 58 02 00    	mov    0x25868,%edx
    37ef:	8b 84 24 b8 00 00 00 	mov    0xb8(%esp),%eax
    37f6:	8b 0d 6c 58 02 00    	mov    0x2586c,%ecx
    37fc:	29 d0                	sub    %edx,%eax
    37fe:	8d bc 24 c0 00 00 00 	lea    0xc0(%esp),%edi
    3805:	89 44 24 08          	mov    %eax,0x8(%esp)
    3809:	8b 84 24 bc 00 00 00 	mov    0xbc(%esp),%eax
    3810:	29 c8                	sub    %ecx,%eax
    3812:	89 44 24 04          	mov    %eax,0x4(%esp)
    3816:	a1 40 58 02 00       	mov    0x25840,%eax
    381b:	89 04 24             	mov    %eax,(%esp)
    381e:	e8 8d d5 00 00       	call   10db0 <console_set_pos>
    3823:	b8 01 00 00 00       	mov    $0x1,%eax
    3828:	e8 13 e5 ff ff       	call   1d40 <cursor_setvis>
    382d:	c6 05 ac 58 02 00 00 	movb   $0x0,0x258ac
    3834:	31 c0                	xor    %eax,%eax
    3836:	eb 42                	jmp    387a <main+0x2ca>
    3838:	a8 02                	test   $0x2,%al
    383a:	0f 85 e4 00 00 00    	jne    3924 <main+0x374>
    3840:	a8 04                	test   $0x4,%al
    3842:	0f 85 28 01 00 00    	jne    3970 <main+0x3c0>
    3848:	a8 08                	test   $0x8,%al
    384a:	0f 85 32 01 00 00    	jne    3982 <main+0x3d2>
    3850:	80 3d a8 58 02 00 00 	cmpb   $0x0,0x258a8
    3857:	75 1c                	jne    3875 <main+0x2c5>
    3859:	a1 40 58 02 00       	mov    0x25840,%eax
    385e:	c7 44 24 04 01 00 00 	movl   $0x1,0x4(%esp)
    3865:	00 
    3866:	89 04 24             	mov    %eax,(%esp)
    3869:	e8 92 d3 00 00       	call   10c00 <console_cursor_visibility>
    386e:	c6 05 a8 58 02 00 01 	movb   $0x1,0x258a8
    3875:	a0 ac 58 02 00       	mov    0x258ac,%al
    387a:	84 c0                	test   %al,%al
    387c:	0f 85 5e 01 00 00    	jne    39e0 <main+0x430>
    3882:	a1 40 58 02 00       	mov    0x25840,%eax
    3887:	89 7c 24 04          	mov    %edi,0x4(%esp)
    388b:	89 04 24             	mov    %eax,(%esp)
    388e:	e8 9d d5 00 00       	call   10e30 <console_get_kbd_event>
    3893:	8b 84 24 c8 00 00 00 	mov    0xc8(%esp),%eax
    389a:	c7 05 70 58 02 00 00 	movl   $0x0,0x25870
    38a1:	00 00 00 
    38a4:	85 c0                	test   %eax,%eax
    38a6:	75 38                	jne    38e0 <main+0x330>
    38a8:	8b 84 24 d0 00 00 00 	mov    0xd0(%esp),%eax
    38af:	a8 33                	test   $0x33,%al
    38b1:	75 08                	jne    38bb <main+0x30b>
    38b3:	a8 0c                	test   $0xc,%al
    38b5:	0f 85 f5 01 00 00    	jne    3ab0 <main+0x500>
    38bb:	a8 3c                	test   $0x3c,%al
    38bd:	75 08                	jne    38c7 <main+0x317>
    38bf:	a8 03                	test   $0x3,%al
    38c1:	0f 85 03 02 00 00    	jne    3aca <main+0x51a>
    38c7:	a8 30                	test   $0x30,%al
    38c9:	75 0d                	jne    38d8 <main+0x328>
    38cb:	a8 0c                	test   $0xc,%al
    38cd:	74 09                	je     38d8 <main+0x328>
    38cf:	a8 03                	test   $0x3,%al
    38d1:	0f 85 77 03 00 00    	jne    3c4e <main+0x69e>
    38d7:	90                   	nop
    38d8:	a8 3f                	test   $0x3f,%al
    38da:	0f 84 18 01 00 00    	je     39f8 <main+0x448>
    38e0:	80 3d a8 58 02 00 00 	cmpb   $0x0,0x258a8
    38e7:	74 1c                	je     3905 <main+0x355>
    38e9:	a1 40 58 02 00       	mov    0x25840,%eax
    38ee:	c7 44 24 04 00 00 00 	movl   $0x0,0x4(%esp)
    38f5:	00 
    38f6:	89 04 24             	mov    %eax,(%esp)
    38f9:	e8 02 d3 00 00       	call   10c00 <console_cursor_visibility>
    38fe:	c6 05 a8 58 02 00 00 	movb   $0x0,0x258a8
    3905:	a1 70 58 02 00       	mov    0x25870,%eax
    390a:	a8 01                	test   $0x1,%al
    390c:	0f 84 26 ff ff ff    	je     3838 <main+0x288>
    3912:	e8 c9 e0 ff ff       	call   19e0 <pane_text_display>
    3917:	a1 70 58 02 00       	mov    0x25870,%eax
    391c:	a8 02                	test   $0x2,%al
    391e:	0f 84 1c ff ff ff    	je     3840 <main+0x290>
    3924:	89 74 24 04          	mov    %esi,0x4(%esp)
    3928:	c7 04 24 74 58 02 00 	movl   $0x25874,(%esp)
    392f:	e8 bc 18 00 00       	call   51f0 <tag_get_pt>
    3934:	8b 54 24 1c          	mov    0x1c(%esp),%edx
    3938:	89 54 24 04          	mov    %edx,0x4(%esp)
    393c:	89 34 24             	mov    %esi,(%esp)
    393f:	e8 1c 17 00 00       	call   5060 <spt_get_coord>
    3944:	8b 84 24 b8 00 00 00 	mov    0xb8(%esp),%eax
    394b:	8b 1d 68 58 02 00    	mov    0x25868,%ebx
    3951:	29 d8                	sub    %ebx,%eax
    3953:	8d 50 01             	lea    0x1(%eax),%edx
    3956:	e8 e5 d8 ff ff       	call   1240 <pane_row_range_display>
    395b:	a1 70 58 02 00       	mov    0x25870,%eax
    3960:	83 c8 0c             	or     $0xc,%eax
    3963:	a3 70 58 02 00       	mov    %eax,0x25870
    3968:	a8 04                	test   $0x4,%al
    396a:	0f 84 d8 fe ff ff    	je     3848 <main+0x298>
    3970:	e8 4b e1 ff ff       	call   1ac0 <pane_status_display>
    3975:	a1 70 58 02 00       	mov    0x25870,%eax
    397a:	a8 08                	test   $0x8,%al
    397c:	0f 84 ce fe ff ff    	je     3850 <main+0x2a0>
    3982:	89 74 24 04          	mov    %esi,0x4(%esp)
    3986:	c7 04 24 74 58 02 00 	movl   $0x25874,(%esp)
    398d:	e8 5e 18 00 00       	call   51f0 <tag_get_pt>
    3992:	8b 44 24 1c          	mov    0x1c(%esp),%eax
    3996:	89 44 24 04          	mov    %eax,0x4(%esp)
    399a:	89 34 24             	mov    %esi,(%esp)
    399d:	e8 be 16 00 00       	call   5060 <spt_get_coord>
    39a2:	8b 84 24 b8 00 00 00 	mov    0xb8(%esp),%eax
    39a9:	8b 15 68 58 02 00    	mov    0x25868,%edx
    39af:	8b 0d 6c 58 02 00    	mov    0x2586c,%ecx
    39b5:	29 d0                	sub    %edx,%eax
    39b7:	89 44 24 08          	mov    %eax,0x8(%esp)
    39bb:	8b 84 24 bc 00 00 00 	mov    0xbc(%esp),%eax
    39c2:	29 c8                	sub    %ecx,%eax
    39c4:	89 44 24 04          	mov    %eax,0x4(%esp)
    39c8:	a1 40 58 02 00       	mov    0x25840,%eax
    39cd:	89 04 24             	mov    %eax,(%esp)
    39d0:	e8 db d3 00 00       	call   10db0 <console_set_pos>
    39d5:	e9 76 fe ff ff       	jmp    3850 <main+0x2a0>
    39da:	8d b6 00 00 00 00    	lea    0x0(%esi),%esi
    39e0:	a1 40 58 02 00       	mov    0x25840,%eax
    39e5:	89 04 24             	mov    %eax,(%esp)
    39e8:	e8 53 cf 00 00       	call   10940 <console_clear>
    39ed:	31 c0                	xor    %eax,%eax
    39ef:	8d 65 f4             	lea    -0xc(%ebp),%esp
    39f2:	5b                   	pop    %ebx
    39f3:	5e                   	pop    %esi
    39f4:	5f                   	pop    %edi
    39f5:	5d                   	pop    %ebp
    39f6:	c3                   	ret    
    39f7:	90                   	nop
    39f8:	8b 84 24 cc 00 00 00 	mov    0xcc(%esp),%eax
    39ff:	8d 50 f2             	lea    -0xe(%eax),%edx
    3a02:	83 fa 46             	cmp    $0x46,%edx
    3a05:	0f 86 10 01 00 00    	jbe    3b1b <main+0x56b>
    3a0b:	8b 84 24 d4 00 00 00 	mov    0xd4(%esp),%eax
    3a12:	83 f8 09             	cmp    $0x9,%eax
    3a15:	74 09                	je     3a20 <main+0x470>
    3a17:	83 f8 1f             	cmp    $0x1f,%eax
    3a1a:	0f 8e c0 fe ff ff    	jle    38e0 <main+0x330>
    3a20:	e8 9b dc ff ff       	call   16c0 <selection_delete>
    3a25:	89 74 24 04          	mov    %esi,0x4(%esp)
    3a29:	c7 04 24 74 58 02 00 	movl   $0x25874,(%esp)
    3a30:	8b 9c 24 d4 00 00 00 	mov    0xd4(%esp),%ebx
    3a37:	e8 b4 17 00 00       	call   51f0 <tag_get_pt>
    3a3c:	8b 54 24 1c          	mov    0x1c(%esp),%edx
    3a40:	8d 44 24 34          	lea    0x34(%esp),%eax
    3a44:	89 54 24 04          	mov    %edx,0x4(%esp)
    3a48:	c7 44 24 0c 05 00 00 	movl   $0x5,0xc(%esp)
    3a4f:	00 
    3a50:	89 44 24 08          	mov    %eax,0x8(%esp)
    3a54:	89 1c 24             	mov    %ebx,(%esp)
    3a57:	c7 44 24 34 00 00 00 	movl   $0x0,0x34(%esp)
    3a5e:	00 
    3a5f:	e8 bc 2e 00 00       	call   6920 <chr_encode>
    3a64:	8b 44 24 34          	mov    0x34(%esp),%eax
    3a68:	c6 84 04 b8 00 00 00 	movb   $0x0,0xb8(%esp,%eax,1)
    3a6f:	00 
    3a70:	c7 44 24 08 00 00 00 	movl   $0x0,0x8(%esp)
    3a77:	00 
    3a78:	8b 44 24 1c          	mov    0x1c(%esp),%eax
    3a7c:	89 74 24 04          	mov    %esi,0x4(%esp)
    3a80:	89 44 24 0c          	mov    %eax,0xc(%esp)
    3a84:	a1 a4 58 02 00       	mov    0x258a4,%eax
    3a89:	89 04 24             	mov    %eax,(%esp)
    3a8c:	e8 5f 11 00 00       	call   4bf0 <sheet_insert>
    3a91:	a1 70 58 02 00       	mov    0x25870,%eax
    3a96:	83 fb 0a             	cmp    $0xa,%ebx
    3a99:	0f 84 95 01 00 00    	je     3c34 <main+0x684>
    3a9f:	83 c8 02             	or     $0x2,%eax
    3aa2:	a3 70 58 02 00       	mov    %eax,0x25870
    3aa7:	e9 90 01 00 00       	jmp    3c3c <main+0x68c>
    3aac:	8d 74 26 00          	lea    0x0(%esi,%eiz,1),%esi
    3ab0:	8b 84 24 cc 00 00 00 	mov    0xcc(%esp),%eax
    3ab7:	83 e8 10             	sub    $0x10,%eax
    3aba:	83 f8 44             	cmp    $0x44,%eax
    3abd:	0f 87 1d fe ff ff    	ja     38e0 <main+0x330>
    3ac3:	ff 24 85 80 2a 02 00 	jmp    *0x22a80(,%eax,4)
    3aca:	8b 84 24 cc 00 00 00 	mov    0xcc(%esp),%eax
    3ad1:	8d 48 b4             	lea    -0x4c(%eax),%ecx
    3ad4:	83 f9 08             	cmp    $0x8,%ecx
    3ad7:	0f 87 2e ff ff ff    	ja     3a0b <main+0x45b>
    3add:	ba 01 00 00 00       	mov    $0x1,%edx
    3ae2:	d3 e2                	shl    %cl,%edx
    3ae4:	81 e2 fb 01 00 00    	and    $0x1fb,%edx
    3aea:	0f 84 1b ff ff ff    	je     3a0b <main+0x45b>
    3af0:	ba 01 00 00 00       	mov    $0x1,%edx
    3af5:	e8 a6 e3 ff ff       	call   1ea0 <key_handle_movement>
    3afa:	e9 e1 fd ff ff       	jmp    38e0 <main+0x330>
    3aff:	83 3d a0 58 02 00 00 	cmpl   $0x0,0x258a0
    3b06:	0f 84 bd fc ff ff    	je     37c9 <main+0x219>
    3b0c:	b8 34 2a 02 00       	mov    $0x22a34,%eax
    3b11:	e8 8a d6 ff ff       	call   11a0 <status_display>
    3b16:	e9 ae fc ff ff       	jmp    37c9 <main+0x219>
    3b1b:	ff 24 95 94 2b 02 00 	jmp    *0x22b94(,%edx,4)
    3b22:	8d 94 24 a0 00 00 00 	lea    0xa0(%esp),%edx
    3b29:	c7 04 24 74 58 02 00 	movl   $0x25874,(%esp)
    3b30:	89 54 24 04          	mov    %edx,0x4(%esp)
    3b34:	e8 b7 16 00 00       	call   51f0 <tag_get_pt>
    3b39:	89 74 24 04          	mov    %esi,0x4(%esp)
    3b3d:	c7 04 24 84 58 02 00 	movl   $0x25884,(%esp)
    3b44:	e8 a7 16 00 00       	call   51f0 <tag_get_pt>
    3b49:	8d 94 24 a0 00 00 00 	lea    0xa0(%esp),%edx
    3b50:	8d 84 24 a8 00 00 00 	lea    0xa8(%esp),%eax
    3b57:	89 14 24             	mov    %edx,(%esp)
    3b5a:	89 44 24 04          	mov    %eax,0x4(%esp)
    3b5e:	e8 fd 14 00 00       	call   5060 <spt_get_coord>
    3b63:	8b 44 24 1c          	mov    0x1c(%esp),%eax
    3b67:	89 44 24 04          	mov    %eax,0x4(%esp)
    3b6b:	89 34 24             	mov    %esi,(%esp)
    3b6e:	e8 ed 14 00 00       	call   5060 <spt_get_coord>
    3b73:	8b 84 24 a8 00 00 00 	mov    0xa8(%esp),%eax
    3b7a:	8b 94 24 b8 00 00 00 	mov    0xb8(%esp),%edx
    3b81:	39 d0                	cmp    %edx,%eax
    3b83:	0f 84 55 05 00 00    	je     40de <main+0xb2e>
    3b89:	29 d0                	sub    %edx,%eax
    3b8b:	85 c0                	test   %eax,%eax
    3b8d:	0f 85 21 03 00 00    	jne    3eb4 <main+0x904>
    3b93:	8d 94 24 a0 00 00 00 	lea    0xa0(%esp),%edx
    3b9a:	c7 04 24 74 58 02 00 	movl   $0x25874,(%esp)
    3ba1:	89 54 24 04          	mov    %edx,0x4(%esp)
    3ba5:	e8 46 16 00 00       	call   51f0 <tag_get_pt>
    3baa:	8d 94 24 a0 00 00 00 	lea    0xa0(%esp),%edx
    3bb1:	8d 84 24 a8 00 00 00 	lea    0xa8(%esp),%eax
    3bb8:	89 14 24             	mov    %edx,(%esp)
    3bbb:	89 44 24 04          	mov    %eax,0x4(%esp)
    3bbf:	e8 9c 14 00 00       	call   5060 <spt_get_coord>
    3bc4:	8d 84 24 a8 00 00 00 	lea    0xa8(%esp),%eax
    3bcb:	89 44 24 04          	mov    %eax,0x4(%esp)
    3bcf:	a1 a4 58 02 00       	mov    0x258a4,%eax
    3bd4:	89 04 24             	mov    %eax,(%esp)
    3bd7:	89 74 24 0c          	mov    %esi,0xc(%esp)
    3bdb:	c7 44 24 08 01 00 00 	movl   $0x1,0x8(%esp)
    3be2:	00 
    3be3:	e8 78 12 00 00       	call   4e60 <sheet_get_cell_pt>
    3be8:	8b 54 24 1c          	mov    0x1c(%esp),%edx
    3bec:	89 54 24 04          	mov    %edx,0x4(%esp)
    3bf0:	89 34 24             	mov    %esi,(%esp)
    3bf3:	e8 68 14 00 00       	call   5060 <spt_get_coord>
    3bf8:	8d 84 24 a0 00 00 00 	lea    0xa0(%esp),%eax
    3bff:	89 44 24 04          	mov    %eax,0x4(%esp)
    3c03:	a1 a4 58 02 00       	mov    0x258a4,%eax
    3c08:	89 74 24 08          	mov    %esi,0x8(%esp)
    3c0c:	89 04 24             	mov    %eax,(%esp)
    3c0f:	e8 dc 10 00 00       	call   4cf0 <sheet_delete>
    3c14:	a1 70 58 02 00       	mov    0x25870,%eax
    3c19:	89 c2                	mov    %eax,%edx
    3c1b:	83 ca 02             	or     $0x2,%edx
    3c1e:	89 15 70 58 02 00    	mov    %edx,0x25870
    3c24:	8b 94 24 a8 00 00 00 	mov    0xa8(%esp),%edx
    3c2b:	39 94 24 b8 00 00 00 	cmp    %edx,0xb8(%esp)
    3c32:	74 08                	je     3c3c <main+0x68c>
    3c34:	83 c8 03             	or     $0x3,%eax
    3c37:	a3 70 58 02 00       	mov    %eax,0x25870
    3c3c:	e8 bf d4 ff ff       	call   1100 <caret_update>
    3c41:	e9 9a fc ff ff       	jmp    38e0 <main+0x330>
    3c46:	83 c8 02             	or     $0x2,%eax
    3c49:	e9 38 fb ff ff       	jmp    3786 <main+0x1d6>
    3c4e:	8b 84 24 cc 00 00 00 	mov    0xcc(%esp),%eax
    3c55:	83 f8 4f             	cmp    $0x4f,%eax
    3c58:	0f 84 93 04 00 00    	je     40f1 <main+0xb41>
    3c5e:	0f 87 dc 03 00 00    	ja     4040 <main+0xa90>
    3c64:	83 f8 20             	cmp    $0x20,%eax
    3c67:	0f 84 85 0c 00 00    	je     48f2 <main+0x1342>
    3c6d:	83 f8 4c             	cmp    $0x4c,%eax
    3c70:	0f 85 6a fc ff ff    	jne    38e0 <main+0x330>
    3c76:	8d 44 24 78          	lea    0x78(%esp),%eax
    3c7a:	8b 54 24 1c          	mov    0x1c(%esp),%edx
    3c7e:	89 44 24 0c          	mov    %eax,0xc(%esp)
    3c82:	a1 a4 58 02 00       	mov    0x258a4,%eax
    3c87:	89 54 24 04          	mov    %edx,0x4(%esp)
    3c8b:	89 04 24             	mov    %eax,(%esp)
    3c8e:	c7 44 24 08 00 00 00 	movl   $0x0,0x8(%esp)
    3c95:	00 
    3c96:	c7 84 24 bc 00 00 00 	movl   $0x1,0xbc(%esp)
    3c9d:	01 00 00 00 
    3ca1:	c7 84 24 b8 00 00 00 	movl   $0x1,0xb8(%esp)
    3ca8:	01 00 00 00 
    3cac:	e8 af 11 00 00       	call   4e60 <sheet_get_cell_pt>
    3cb1:	8b 44 24 78          	mov    0x78(%esp),%eax
    3cb5:	8b 54 24 7c          	mov    0x7c(%esp),%edx
    3cb9:	89 84 24 90 00 00 00 	mov    %eax,0x90(%esp)
    3cc0:	8d 84 24 a0 00 00 00 	lea    0xa0(%esp),%eax
    3cc7:	89 44 24 04          	mov    %eax,0x4(%esp)
    3ccb:	c7 04 24 74 58 02 00 	movl   $0x25874,(%esp)
    3cd2:	89 94 24 94 00 00 00 	mov    %edx,0x94(%esp)
    3cd9:	e8 12 15 00 00       	call   51f0 <tag_get_pt>
    3cde:	89 74 24 04          	mov    %esi,0x4(%esp)
    3ce2:	c7 04 24 84 58 02 00 	movl   $0x25884,(%esp)
    3ce9:	e8 02 15 00 00       	call   51f0 <tag_get_pt>
    3cee:	8d 94 24 a0 00 00 00 	lea    0xa0(%esp),%edx
    3cf5:	89 14 24             	mov    %edx,(%esp)
    3cf8:	89 74 24 04          	mov    %esi,0x4(%esp)
    3cfc:	e8 ef 13 00 00       	call   50f0 <spt_equal>
    3d01:	a1 a4 58 02 00       	mov    0x258a4,%eax
    3d06:	c7 44 24 04 74 58 02 	movl   $0x25874,0x4(%esp)
    3d0d:	00 
    3d0e:	89 04 24             	mov    %eax,(%esp)
    3d11:	e8 aa 14 00 00       	call   51c0 <sheet_remove_tag>
    3d16:	8d 9c 24 90 00 00 00 	lea    0x90(%esp),%ebx
    3d1d:	c7 44 24 08 74 58 02 	movl   $0x25874,0x8(%esp)
    3d24:	00 
    3d25:	e9 8c 04 00 00       	jmp    41b6 <main+0xc06>
    3d2a:	31 d2                	xor    %edx,%edx
    3d2c:	e8 6f e1 ff ff       	call   1ea0 <key_handle_movement>
    3d31:	e9 aa fb ff ff       	jmp    38e0 <main+0x330>
    3d36:	e8 85 d9 ff ff       	call   16c0 <selection_delete>
    3d3b:	89 74 24 04          	mov    %esi,0x4(%esp)
    3d3f:	c7 04 24 74 58 02 00 	movl   $0x25874,(%esp)
    3d46:	e8 a5 14 00 00       	call   51f0 <tag_get_pt>
    3d4b:	8b 54 24 1c          	mov    0x1c(%esp),%edx
    3d4f:	8d 44 24 34          	lea    0x34(%esp),%eax
    3d53:	89 54 24 04          	mov    %edx,0x4(%esp)
    3d57:	c7 44 24 0c 05 00 00 	movl   $0x5,0xc(%esp)
    3d5e:	00 
    3d5f:	89 44 24 08          	mov    %eax,0x8(%esp)
    3d63:	c7 04 24 0a 00 00 00 	movl   $0xa,(%esp)
    3d6a:	c7 44 24 34 00 00 00 	movl   $0x0,0x34(%esp)
    3d71:	00 
    3d72:	e8 a9 2b 00 00       	call   6920 <chr_encode>
    3d77:	8b 44 24 34          	mov    0x34(%esp),%eax
    3d7b:	c6 84 04 b8 00 00 00 	movb   $0x0,0xb8(%esp,%eax,1)
    3d82:	00 
    3d83:	8b 44 24 1c          	mov    0x1c(%esp),%eax
    3d87:	89 44 24 0c          	mov    %eax,0xc(%esp)
    3d8b:	a1 a4 58 02 00       	mov    0x258a4,%eax
    3d90:	c7 44 24 08 00 00 00 	movl   $0x0,0x8(%esp)
    3d97:	00 
    3d98:	89 74 24 04          	mov    %esi,0x4(%esp)
    3d9c:	89 04 24             	mov    %eax,(%esp)
    3d9f:	e8 4c 0e 00 00       	call   4bf0 <sheet_insert>
    3da4:	83 0d 70 58 02 00 03 	orl    $0x3,0x25870
    3dab:	e8 50 d3 ff ff       	call   1100 <caret_update>
    3db0:	e9 2b fb ff ff       	jmp    38e0 <main+0x330>
    3db5:	8d 94 24 a0 00 00 00 	lea    0xa0(%esp),%edx
    3dbc:	c7 04 24 74 58 02 00 	movl   $0x25874,(%esp)
    3dc3:	89 54 24 04          	mov    %edx,0x4(%esp)
    3dc7:	e8 24 14 00 00       	call   51f0 <tag_get_pt>
    3dcc:	89 74 24 04          	mov    %esi,0x4(%esp)
    3dd0:	c7 04 24 84 58 02 00 	movl   $0x25884,(%esp)
    3dd7:	e8 14 14 00 00       	call   51f0 <tag_get_pt>
    3ddc:	8d 94 24 a0 00 00 00 	lea    0xa0(%esp),%edx
    3de3:	8d 84 24 a8 00 00 00 	lea    0xa8(%esp),%eax
    3dea:	89 14 24             	mov    %edx,(%esp)
    3ded:	89 44 24 04          	mov    %eax,0x4(%esp)
    3df1:	e8 6a 12 00 00       	call   5060 <spt_get_coord>
    3df6:	8b 44 24 1c          	mov    0x1c(%esp),%eax
    3dfa:	89 44 24 04          	mov    %eax,0x4(%esp)
    3dfe:	89 34 24             	mov    %esi,(%esp)
    3e01:	e8 5a 12 00 00       	call   5060 <spt_get_coord>
    3e06:	8b 84 24 a8 00 00 00 	mov    0xa8(%esp),%eax
    3e0d:	8b 94 24 b8 00 00 00 	mov    0xb8(%esp),%edx
    3e14:	39 d0                	cmp    %edx,%eax
    3e16:	0f 84 af 02 00 00    	je     40cb <main+0xb1b>
    3e1c:	29 d0                	sub    %edx,%eax
    3e1e:	85 c0                	test   %eax,%eax
    3e20:	0f 85 8e 00 00 00    	jne    3eb4 <main+0x904>
    3e26:	89 74 24 04          	mov    %esi,0x4(%esp)
    3e2a:	c7 04 24 74 58 02 00 	movl   $0x25874,(%esp)
    3e31:	e8 ba 13 00 00       	call   51f0 <tag_get_pt>
    3e36:	8b 54 24 1c          	mov    0x1c(%esp),%edx
    3e3a:	89 54 24 04          	mov    %edx,0x4(%esp)
    3e3e:	89 34 24             	mov    %esi,(%esp)
    3e41:	e8 1a 12 00 00       	call   5060 <spt_get_coord>
    3e46:	8d 84 24 a0 00 00 00 	lea    0xa0(%esp),%eax
    3e4d:	8b 54 24 1c          	mov    0x1c(%esp),%edx
    3e51:	89 44 24 0c          	mov    %eax,0xc(%esp)
    3e55:	a1 a4 58 02 00       	mov    0x258a4,%eax
    3e5a:	89 54 24 04          	mov    %edx,0x4(%esp)
    3e5e:	89 04 24             	mov    %eax,(%esp)
    3e61:	c7 44 24 08 00 00 00 	movl   $0x0,0x8(%esp)
    3e68:	00 
    3e69:	ff 8c 24 bc 00 00 00 	decl   0xbc(%esp)
    3e70:	e8 eb 0f 00 00       	call   4e60 <sheet_get_cell_pt>
    3e75:	8d 84 24 a0 00 00 00 	lea    0xa0(%esp),%eax
    3e7c:	89 74 24 08          	mov    %esi,0x8(%esp)
    3e80:	89 44 24 04          	mov    %eax,0x4(%esp)
    3e84:	a1 a4 58 02 00       	mov    0x258a4,%eax
    3e89:	89 04 24             	mov    %eax,(%esp)
    3e8c:	e8 5f 0e 00 00       	call   4cf0 <sheet_delete>
    3e91:	a1 70 58 02 00       	mov    0x25870,%eax
    3e96:	89 c2                	mov    %eax,%edx
    3e98:	83 ca 02             	or     $0x2,%edx
    3e9b:	89 15 70 58 02 00    	mov    %edx,0x25870
    3ea1:	83 bc 24 bc 00 00 00 	cmpl   $0x0,0xbc(%esp)
    3ea8:	00 
    3ea9:	0f 8f 8d fd ff ff    	jg     3c3c <main+0x68c>
    3eaf:	e9 80 fd ff ff       	jmp    3c34 <main+0x684>
    3eb4:	e8 07 d8 ff ff       	call   16c0 <selection_delete>
    3eb9:	e9 7e fd ff ff       	jmp    3c3c <main+0x68c>
    3ebe:	8b 45 0c             	mov    0xc(%ebp),%eax
    3ec1:	8b 40 04             	mov    0x4(%eax),%eax
    3ec4:	89 04 24             	mov    %eax,(%esp)
    3ec7:	e8 e4 4a 00 00       	call   89b0 <str_dup>
    3ecc:	a3 a0 58 02 00       	mov    %eax,0x258a0
    3ed1:	85 c0                	test   %eax,%eax
    3ed3:	0f 84 0c 0c 00 00    	je     4ae5 <main+0x1535>
    3ed9:	c7 44 24 04 97 35 02 	movl   $0x23597,0x4(%esp)
    3ee0:	00 
    3ee1:	89 04 24             	mov    %eax,(%esp)
    3ee4:	e8 17 7e 00 00       	call   bd00 <fopen>
    3ee9:	89 44 24 14          	mov    %eax,0x14(%esp)
    3eed:	85 c0                	test   %eax,%eax
    3eef:	0f 84 f0 0b 00 00    	je     4ae5 <main+0x1535>
    3ef5:	8d 54 24 2c          	lea    0x2c(%esp),%edx
    3ef9:	8d 84 24 b8 00 00 00 	lea    0xb8(%esp),%eax
    3f00:	31 db                	xor    %ebx,%ebx
    3f02:	89 54 24 18          	mov    %edx,0x18(%esp)
    3f06:	8d b4 24 b0 00 00 00 	lea    0xb0(%esp),%esi
    3f0d:	89 44 24 1c          	mov    %eax,0x1c(%esp)
    3f11:	83 fb 03             	cmp    $0x3,%ebx
    3f14:	0f 8e cc 00 00 00    	jle    3fe6 <main+0xa36>
    3f1a:	8b 54 24 18          	mov    0x18(%esp),%edx
    3f1e:	8d 84 24 c0 00 00 00 	lea    0xc0(%esp),%eax
    3f25:	89 5c 24 08          	mov    %ebx,0x8(%esp)
    3f29:	89 54 24 04          	mov    %edx,0x4(%esp)
    3f2d:	89 04 24             	mov    %eax,(%esp)
    3f30:	c7 44 24 2c 00 00 00 	movl   $0x0,0x2c(%esp)
    3f37:	00 
    3f38:	e8 93 26 00 00       	call   65d0 <str_decode>
    3f3d:	89 c7                	mov    %eax,%edi
    3f3f:	85 c0                	test   %eax,%eax
    3f41:	0f 84 e6 00 00 00    	je     402d <main+0xa7d>
    3f47:	8d 94 24 c0 00 00 00 	lea    0xc0(%esp),%edx
    3f4e:	8b 44 24 2c          	mov    0x2c(%esp),%eax
    3f52:	29 c3                	sub    %eax,%ebx
    3f54:	01 d0                	add    %edx,%eax
    3f56:	89 14 24             	mov    %edx,(%esp)
    3f59:	89 5c 24 08          	mov    %ebx,0x8(%esp)
    3f5d:	89 44 24 04          	mov    %eax,0x4(%esp)
    3f61:	e8 9a 1c 00 00       	call   5c00 <memcpy>
    3f66:	89 74 24 04          	mov    %esi,0x4(%esp)
    3f6a:	c7 04 24 74 58 02 00 	movl   $0x25874,(%esp)
    3f71:	e8 7a 12 00 00       	call   51f0 <tag_get_pt>
    3f76:	8b 54 24 1c          	mov    0x1c(%esp),%edx
    3f7a:	8d 44 24 34          	lea    0x34(%esp),%eax
    3f7e:	89 54 24 04          	mov    %edx,0x4(%esp)
    3f82:	c7 44 24 0c 05 00 00 	movl   $0x5,0xc(%esp)
    3f89:	00 
    3f8a:	89 44 24 08          	mov    %eax,0x8(%esp)
    3f8e:	89 3c 24             	mov    %edi,(%esp)
    3f91:	c7 44 24 34 00 00 00 	movl   $0x0,0x34(%esp)
    3f98:	00 
    3f99:	e8 82 29 00 00       	call   6920 <chr_encode>
    3f9e:	8b 44 24 34          	mov    0x34(%esp),%eax
    3fa2:	c6 84 04 b8 00 00 00 	movb   $0x0,0xb8(%esp,%eax,1)
    3fa9:	00 
    3faa:	8b 44 24 1c          	mov    0x1c(%esp),%eax
    3fae:	89 44 24 0c          	mov    %eax,0xc(%esp)
    3fb2:	a1 a4 58 02 00       	mov    0x258a4,%eax
    3fb7:	c7 44 24 08 00 00 00 	movl   $0x0,0x8(%esp)
    3fbe:	00 
    3fbf:	89 74 24 04          	mov    %esi,0x4(%esp)
    3fc3:	89 04 24             	mov    %eax,(%esp)
    3fc6:	e8 25 0c 00 00       	call   4bf0 <sheet_insert>
    3fcb:	a1 70 58 02 00       	mov    0x25870,%eax
    3fd0:	83 ff 0a             	cmp    $0xa,%edi
    3fd3:	74 4b                	je     4020 <main+0xa70>
    3fd5:	83 c8 02             	or     $0x2,%eax
    3fd8:	83 fb 03             	cmp    $0x3,%ebx
    3fdb:	a3 70 58 02 00       	mov    %eax,0x25870
    3fe0:	0f 8f 34 ff ff ff    	jg     3f1a <main+0x96a>
    3fe6:	8b 44 24 14          	mov    0x14(%esp),%eax
    3fea:	c7 44 24 04 01 00 00 	movl   $0x1,0x4(%esp)
    3ff1:	00 
    3ff2:	89 44 24 0c          	mov    %eax,0xc(%esp)
    3ff6:	b8 40 00 00 00       	mov    $0x40,%eax
    3ffb:	29 d8                	sub    %ebx,%eax
    3ffd:	89 44 24 08          	mov    %eax,0x8(%esp)
    4001:	8d 84 24 c0 00 00 00 	lea    0xc0(%esp),%eax
    4008:	01 d8                	add    %ebx,%eax
    400a:	89 04 24             	mov    %eax,(%esp)
    400d:	e8 8e 81 00 00       	call   c1a0 <fread>
    4012:	01 c3                	add    %eax,%ebx
    4014:	e9 01 ff ff ff       	jmp    3f1a <main+0x96a>
    4019:	8d b4 26 00 00 00 00 	lea    0x0(%esi,%eiz,1),%esi
    4020:	83 c8 03             	or     $0x3,%eax
    4023:	a3 70 58 02 00       	mov    %eax,0x25870
    4028:	e9 e4 fe ff ff       	jmp    3f11 <main+0x961>
    402d:	8b 44 24 14          	mov    0x14(%esp),%eax
    4031:	31 db                	xor    %ebx,%ebx
    4033:	89 04 24             	mov    %eax,(%esp)
    4036:	e8 b5 7f 00 00       	call   bff0 <fclose>
    403b:	e9 5e f6 ff ff       	jmp    369e <main+0xee>
    4040:	83 f8 52             	cmp    $0x52,%eax
    4043:	0f 84 fe 08 00 00    	je     4947 <main+0x1397>
    4049:	83 f8 54             	cmp    $0x54,%eax
    404c:	0f 85 8e f8 ff ff    	jne    38e0 <main+0x330>
    4052:	89 74 24 04          	mov    %esi,0x4(%esp)
    4056:	c7 04 24 74 58 02 00 	movl   $0x25874,(%esp)
    405d:	e8 8e 11 00 00       	call   51f0 <tag_get_pt>
    4062:	8b 84 24 b0 00 00 00 	mov    0xb0(%esp),%eax
    4069:	8b 94 24 b4 00 00 00 	mov    0xb4(%esp),%edx
    4070:	89 84 24 88 00 00 00 	mov    %eax,0x88(%esp)
    4077:	89 94 24 8c 00 00 00 	mov    %edx,0x8c(%esp)
    407e:	8d 9c 24 88 00 00 00 	lea    0x88(%esp),%ebx
    4085:	8b 94 24 8c 00 00 00 	mov    0x8c(%esp),%edx
    408c:	8b 84 24 88 00 00 00 	mov    0x88(%esp),%eax
    4093:	89 54 24 04          	mov    %edx,0x4(%esp)
    4097:	89 5c 24 08          	mov    %ebx,0x8(%esp)
    409b:	89 04 24             	mov    %eax,(%esp)
    409e:	e8 6d 10 00 00       	call   5110 <spt_next_char>
    40a3:	89 d8                	mov    %ebx,%eax
    40a5:	e8 46 e9 ff ff       	call   29f0 <pt_is_word_beginning>
    40aa:	84 c0                	test   %al,%al
    40ac:	74 d7                	je     4085 <main+0xad5>
    40ae:	b9 01 00 00 00       	mov    $0x1,%ecx
    40b3:	8b 84 24 88 00 00 00 	mov    0x88(%esp),%eax
    40ba:	8b 94 24 8c 00 00 00 	mov    0x8c(%esp),%edx
    40c1:	e8 ba dc ff ff       	call   1d80 <caret_move.constprop.12>
    40c6:	e9 15 f8 ff ff       	jmp    38e0 <main+0x330>
    40cb:	8b 84 24 ac 00 00 00 	mov    0xac(%esp),%eax
    40d2:	2b 84 24 bc 00 00 00 	sub    0xbc(%esp),%eax
    40d9:	e9 40 fd ff ff       	jmp    3e1e <main+0x86e>
    40de:	8b 84 24 ac 00 00 00 	mov    0xac(%esp),%eax
    40e5:	2b 84 24 bc 00 00 00 	sub    0xbc(%esp),%eax
    40ec:	e9 9a fa ff ff       	jmp    3b8b <main+0x5db>
    40f1:	8d 44 24 34          	lea    0x34(%esp),%eax
    40f5:	8d 9c 24 98 00 00 00 	lea    0x98(%esp),%ebx
    40fc:	89 44 24 04          	mov    %eax,0x4(%esp)
    4100:	a1 a4 58 02 00       	mov    0x258a4,%eax
    4105:	89 04 24             	mov    %eax,(%esp)
    4108:	e8 03 0f 00 00       	call   5010 <sheet_get_num_rows>
    410d:	8b 44 24 34          	mov    0x34(%esp),%eax
    4111:	40                   	inc    %eax
    4112:	8b 54 24 1c          	mov    0x1c(%esp),%edx
    4116:	89 84 24 b8 00 00 00 	mov    %eax,0xb8(%esp)
    411d:	8d 44 24 78          	lea    0x78(%esp),%eax
    4121:	89 44 24 0c          	mov    %eax,0xc(%esp)
    4125:	a1 a4 58 02 00       	mov    0x258a4,%eax
    412a:	89 54 24 04          	mov    %edx,0x4(%esp)
    412e:	89 04 24             	mov    %eax,(%esp)
    4131:	c7 44 24 08 01 00 00 	movl   $0x1,0x8(%esp)
    4138:	00 
    4139:	c7 84 24 bc 00 00 00 	movl   $0x1,0xbc(%esp)
    4140:	01 00 00 00 
    4144:	e8 17 0d 00 00       	call   4e60 <sheet_get_cell_pt>
    4149:	8b 44 24 78          	mov    0x78(%esp),%eax
    414d:	89 84 24 98 00 00 00 	mov    %eax,0x98(%esp)
    4154:	8d 84 24 a0 00 00 00 	lea    0xa0(%esp),%eax
    415b:	8b 54 24 7c          	mov    0x7c(%esp),%edx
    415f:	89 44 24 04          	mov    %eax,0x4(%esp)
    4163:	c7 04 24 74 58 02 00 	movl   $0x25874,(%esp)
    416a:	89 94 24 9c 00 00 00 	mov    %edx,0x9c(%esp)
    4171:	e8 7a 10 00 00       	call   51f0 <tag_get_pt>
    4176:	89 74 24 04          	mov    %esi,0x4(%esp)
    417a:	c7 04 24 84 58 02 00 	movl   $0x25884,(%esp)
    4181:	e8 6a 10 00 00       	call   51f0 <tag_get_pt>
    4186:	8d 94 24 a0 00 00 00 	lea    0xa0(%esp),%edx
    418d:	89 14 24             	mov    %edx,(%esp)
    4190:	89 74 24 04          	mov    %esi,0x4(%esp)
    4194:	e8 57 0f 00 00       	call   50f0 <spt_equal>
    4199:	a1 a4 58 02 00       	mov    0x258a4,%eax
    419e:	c7 44 24 04 74 58 02 	movl   $0x25874,0x4(%esp)
    41a5:	00 
    41a6:	89 04 24             	mov    %eax,(%esp)
    41a9:	e8 12 10 00 00       	call   51c0 <sheet_remove_tag>
    41ae:	c7 44 24 08 74 58 02 	movl   $0x25874,0x8(%esp)
    41b5:	00 
    41b6:	a1 a4 58 02 00       	mov    0x258a4,%eax
    41bb:	89 5c 24 04          	mov    %ebx,0x4(%esp)
    41bf:	89 04 24             	mov    %eax,(%esp)
    41c2:	e8 c9 0f 00 00       	call   5190 <sheet_place_tag>
    41c7:	8b 44 24 1c          	mov    0x1c(%esp),%eax
    41cb:	89 44 24 04          	mov    %eax,0x4(%esp)
    41cf:	89 1c 24             	mov    %ebx,(%esp)
    41d2:	e8 89 0e 00 00       	call   5060 <spt_get_coord>
    41d7:	8d 94 24 a8 00 00 00 	lea    0xa8(%esp),%edx
    41de:	8d 84 24 a0 00 00 00 	lea    0xa0(%esp),%eax
    41e5:	89 54 24 04          	mov    %edx,0x4(%esp)
    41e9:	89 04 24             	mov    %eax,(%esp)
    41ec:	e8 6f 0e 00 00       	call   5060 <spt_get_coord>
    41f1:	8b 94 24 b8 00 00 00 	mov    0xb8(%esp),%edx
    41f8:	a1 70 58 02 00       	mov    0x25870,%eax
    41fd:	39 94 24 a8 00 00 00 	cmp    %edx,0xa8(%esp)
    4204:	0f 84 e0 07 00 00    	je     49ea <main+0x143a>
    420a:	83 c8 01             	or     $0x1,%eax
    420d:	a3 70 58 02 00       	mov    %eax,0x25870
    4212:	8b 84 24 bc 00 00 00 	mov    0xbc(%esp),%eax
    4219:	a3 94 58 02 00       	mov    %eax,0x25894
    421e:	e8 dd ce ff ff       	call   1100 <caret_update>
    4223:	e9 b8 f6 ff ff       	jmp    38e0 <main+0x330>
    4228:	8d 44 24 34          	lea    0x34(%esp),%eax
    422c:	8d 5c 24 70          	lea    0x70(%esp),%ebx
    4230:	89 44 24 04          	mov    %eax,0x4(%esp)
    4234:	a1 a4 58 02 00       	mov    0x258a4,%eax
    4239:	89 04 24             	mov    %eax,(%esp)
    423c:	e8 cf 0d 00 00       	call   5010 <sheet_get_num_rows>
    4241:	8b 44 24 34          	mov    0x34(%esp),%eax
    4245:	40                   	inc    %eax
    4246:	8b 54 24 1c          	mov    0x1c(%esp),%edx
    424a:	89 84 24 b8 00 00 00 	mov    %eax,0xb8(%esp)
    4251:	8d 44 24 78          	lea    0x78(%esp),%eax
    4255:	89 44 24 0c          	mov    %eax,0xc(%esp)
    4259:	a1 a4 58 02 00       	mov    0x258a4,%eax
    425e:	89 54 24 04          	mov    %edx,0x4(%esp)
    4262:	89 04 24             	mov    %eax,(%esp)
    4265:	c7 44 24 08 01 00 00 	movl   $0x1,0x8(%esp)
    426c:	00 
    426d:	c7 84 24 bc 00 00 00 	movl   $0x1,0xbc(%esp)
    4274:	01 00 00 00 
    4278:	e8 e3 0b 00 00       	call   4e60 <sheet_get_cell_pt>
    427d:	8b 44 24 78          	mov    0x78(%esp),%eax
    4281:	89 44 24 70          	mov    %eax,0x70(%esp)
    4285:	8d 84 24 a0 00 00 00 	lea    0xa0(%esp),%eax
    428c:	8b 54 24 7c          	mov    0x7c(%esp),%edx
    4290:	89 44 24 04          	mov    %eax,0x4(%esp)
    4294:	c7 04 24 74 58 02 00 	movl   $0x25874,(%esp)
    429b:	89 54 24 74          	mov    %edx,0x74(%esp)
    429f:	e8 4c 0f 00 00       	call   51f0 <tag_get_pt>
    42a4:	89 74 24 04          	mov    %esi,0x4(%esp)
    42a8:	c7 04 24 84 58 02 00 	movl   $0x25884,(%esp)
    42af:	e8 3c 0f 00 00       	call   51f0 <tag_get_pt>
    42b4:	8d 94 24 a0 00 00 00 	lea    0xa0(%esp),%edx
    42bb:	89 14 24             	mov    %edx,(%esp)
    42be:	89 74 24 04          	mov    %esi,0x4(%esp)
    42c2:	e8 29 0e 00 00       	call   50f0 <spt_equal>
    42c7:	8b 15 a4 58 02 00    	mov    0x258a4,%edx
    42cd:	c7 44 24 04 74 58 02 	movl   $0x25874,0x4(%esp)
    42d4:	00 
    42d5:	89 14 24             	mov    %edx,(%esp)
    42d8:	88 44 24 10          	mov    %al,0x10(%esp)
    42dc:	e8 df 0e 00 00       	call   51c0 <sheet_remove_tag>
    42e1:	c7 44 24 08 74 58 02 	movl   $0x25874,0x8(%esp)
    42e8:	00 
    42e9:	8b 15 a4 58 02 00    	mov    0x258a4,%edx
    42ef:	89 5c 24 04          	mov    %ebx,0x4(%esp)
    42f3:	89 14 24             	mov    %edx,(%esp)
    42f6:	e8 95 0e 00 00       	call   5190 <sheet_place_tag>
    42fb:	8b 15 a4 58 02 00    	mov    0x258a4,%edx
    4301:	89 14 24             	mov    %edx,(%esp)
    4304:	c7 44 24 04 84 58 02 	movl   $0x25884,0x4(%esp)
    430b:	00 
    430c:	e8 af 0e 00 00       	call   51c0 <sheet_remove_tag>
    4311:	8b 15 a4 58 02 00    	mov    0x258a4,%edx
    4317:	89 14 24             	mov    %edx,(%esp)
    431a:	c7 44 24 08 84 58 02 	movl   $0x25884,0x8(%esp)
    4321:	00 
    4322:	89 5c 24 04          	mov    %ebx,0x4(%esp)
    4326:	e8 65 0e 00 00       	call   5190 <sheet_place_tag>
    432b:	8b 54 24 1c          	mov    0x1c(%esp),%edx
    432f:	89 54 24 04          	mov    %edx,0x4(%esp)
    4333:	89 1c 24             	mov    %ebx,(%esp)
    4336:	e8 25 0d 00 00       	call   5060 <spt_get_coord>
    433b:	8a 44 24 10          	mov    0x10(%esp),%al
    433f:	84 c0                	test   %al,%al
    4341:	0f 85 cb fe ff ff    	jne    4212 <main+0xc62>
    4347:	83 0d 70 58 02 00 01 	orl    $0x1,0x25870
    434e:	e9 bf fe ff ff       	jmp    4212 <main+0xc62>
    4353:	a1 40 58 02 00       	mov    0x25840,%eax
    4358:	89 04 24             	mov    %eax,(%esp)
    435b:	e8 c0 c5 00 00       	call   10920 <console_flush>
    4360:	a1 40 58 02 00       	mov    0x25840,%eax
    4365:	c7 44 24 04 00 00 00 	movl   $0x0,0x4(%esp)
    436c:	00 
    436d:	89 04 24             	mov    %eax,(%esp)
    4370:	e8 db c6 00 00       	call   10a50 <console_set_style>
    4375:	e9 66 f5 ff ff       	jmp    38e0 <main+0x330>
    437a:	8b 44 24 1c          	mov    0x1c(%esp),%eax
    437e:	8d 94 24 a0 00 00 00 	lea    0xa0(%esp),%edx
    4385:	89 44 24 04          	mov    %eax,0x4(%esp)
    4389:	a1 a4 58 02 00       	mov    0x258a4,%eax
    438e:	89 54 24 0c          	mov    %edx,0xc(%esp)
    4392:	89 04 24             	mov    %eax,(%esp)
    4395:	c7 44 24 08 00 00 00 	movl   $0x0,0x8(%esp)
    439c:	00 
    439d:	c7 84 24 bc 00 00 00 	movl   $0x1,0xbc(%esp)
    43a4:	01 00 00 00 
    43a8:	c7 84 24 b8 00 00 00 	movl   $0x1,0xb8(%esp)
    43af:	01 00 00 00 
    43b3:	e8 a8 0a 00 00       	call   4e60 <sheet_get_cell_pt>
    43b8:	8d 54 24 34          	lea    0x34(%esp),%edx
    43bc:	a1 a4 58 02 00       	mov    0x258a4,%eax
    43c1:	89 54 24 04          	mov    %edx,0x4(%esp)
    43c5:	89 04 24             	mov    %eax,(%esp)
    43c8:	e8 43 0c 00 00       	call   5010 <sheet_get_num_rows>
    43cd:	8b 44 24 34          	mov    0x34(%esp),%eax
    43d1:	40                   	inc    %eax
    43d2:	89 74 24 0c          	mov    %esi,0xc(%esp)
    43d6:	89 84 24 b8 00 00 00 	mov    %eax,0xb8(%esp)
    43dd:	8b 44 24 1c          	mov    0x1c(%esp),%eax
    43e1:	89 44 24 04          	mov    %eax,0x4(%esp)
    43e5:	a1 a4 58 02 00       	mov    0x258a4,%eax
    43ea:	89 04 24             	mov    %eax,(%esp)
    43ed:	c7 44 24 08 01 00 00 	movl   $0x1,0x8(%esp)
    43f4:	00 
    43f5:	c7 84 24 bc 00 00 00 	movl   $0x1,0xbc(%esp)
    43fc:	01 00 00 00 
    4400:	e8 5b 0a 00 00       	call   4e60 <sheet_get_cell_pt>
    4405:	8b 84 24 a0 00 00 00 	mov    0xa0(%esp),%eax
    440c:	8b 94 24 a4 00 00 00 	mov    0xa4(%esp),%edx
    4413:	89 44 24 48          	mov    %eax,0x48(%esp)
    4417:	8b 84 24 b0 00 00 00 	mov    0xb0(%esp),%eax
    441e:	89 44 24 50          	mov    %eax,0x50(%esp)
    4422:	a1 a4 58 02 00       	mov    0x258a4,%eax
    4427:	89 54 24 4c          	mov    %edx,0x4c(%esp)
    442b:	89 04 24             	mov    %eax,(%esp)
    442e:	8b 94 24 b4 00 00 00 	mov    0xb4(%esp),%edx
    4435:	c7 44 24 04 84 58 02 	movl   $0x25884,0x4(%esp)
    443c:	00 
    443d:	89 54 24 54          	mov    %edx,0x54(%esp)
    4441:	e8 7a 0d 00 00       	call   51c0 <sheet_remove_tag>
    4446:	8d 44 24 48          	lea    0x48(%esp),%eax
    444a:	c7 44 24 08 84 58 02 	movl   $0x25884,0x8(%esp)
    4451:	00 
    4452:	89 44 24 04          	mov    %eax,0x4(%esp)
    4456:	a1 a4 58 02 00       	mov    0x258a4,%eax
    445b:	89 04 24             	mov    %eax,(%esp)
    445e:	e8 2d 0d 00 00       	call   5190 <sheet_place_tag>
    4463:	a1 a4 58 02 00       	mov    0x258a4,%eax
    4468:	89 04 24             	mov    %eax,(%esp)
    446b:	c7 44 24 04 74 58 02 	movl   $0x25874,0x4(%esp)
    4472:	00 
    4473:	e8 48 0d 00 00       	call   51c0 <sheet_remove_tag>
    4478:	8d 44 24 50          	lea    0x50(%esp),%eax
    447c:	89 44 24 04          	mov    %eax,0x4(%esp)
    4480:	a1 a4 58 02 00       	mov    0x258a4,%eax
    4485:	c7 44 24 08 74 58 02 	movl   $0x25874,0x8(%esp)
    448c:	00 
    448d:	89 04 24             	mov    %eax,(%esp)
    4490:	e8 fb 0c 00 00       	call   5190 <sheet_place_tag>
    4495:	83 0d 70 58 02 00 01 	orl    $0x1,0x25870
    449c:	e8 5f cc ff ff       	call   1100 <caret_update>
    44a1:	e9 3a f4 ff ff       	jmp    38e0 <main+0x330>
    44a6:	a1 a0 58 02 00       	mov    0x258a0,%eax
    44ab:	85 c0                	test   %eax,%eax
    44ad:	0f 84 ec 05 00 00    	je     4a9f <main+0x14ef>
    44b3:	e8 48 de ff ff       	call   2300 <file_save>
    44b8:	e9 23 f4 ff ff       	jmp    38e0 <main+0x330>
    44bd:	8b 15 98 58 02 00    	mov    0x25898,%edx
    44c3:	85 d2                	test   %edx,%edx
    44c5:	0f 84 10 06 00 00    	je     4adb <main+0x152b>
    44cb:	b8 a6 29 02 00       	mov    $0x229a6,%eax
    44d0:	e8 9b db ff ff       	call   2070 <prompt>
    44d5:	85 c0                	test   %eax,%eax
    44d7:	0f 84 a3 06 00 00    	je     4b80 <main+0x15d0>
    44dd:	8b 15 98 58 02 00    	mov    0x25898,%edx
    44e3:	85 d2                	test   %edx,%edx
    44e5:	74 10                	je     44f7 <main+0xf47>
    44e7:	89 14 24             	mov    %edx,(%esp)
    44ea:	89 44 24 10          	mov    %eax,0x10(%esp)
    44ee:	e8 fd ee 00 00       	call   133f0 <free>
    44f3:	8b 44 24 10          	mov    0x10(%esp),%eax
    44f7:	31 d2                	xor    %edx,%edx
    44f9:	a3 98 58 02 00       	mov    %eax,0x25898
    44fe:	c6 05 9c 58 02 00 00 	movb   $0x0,0x2589c
    4505:	e8 96 ea ff ff       	call   2fa0 <search>
    450a:	e9 d1 f3 ff ff       	jmp    38e0 <main+0x330>
    450f:	a1 98 58 02 00       	mov    0x25898,%eax
    4514:	85 c0                	test   %eax,%eax
    4516:	0f 84 e2 05 00 00    	je     4afe <main+0x154e>
    451c:	31 d2                	xor    %edx,%edx
    451e:	8a 15 9c 58 02 00    	mov    0x2589c,%dl
    4524:	e8 77 ea ff ff       	call   2fa0 <search>
    4529:	e9 b2 f3 ff ff       	jmp    38e0 <main+0x330>
    452e:	8d 44 24 78          	lea    0x78(%esp),%eax
    4532:	c7 44 24 08 00 00 00 	movl   $0x0,0x8(%esp)
    4539:	00 
    453a:	89 44 24 0c          	mov    %eax,0xc(%esp)
    453e:	8b 44 24 1c          	mov    0x1c(%esp),%eax
    4542:	89 44 24 04          	mov    %eax,0x4(%esp)
    4546:	a1 a4 58 02 00       	mov    0x258a4,%eax
    454b:	89 04 24             	mov    %eax,(%esp)
    454e:	c7 84 24 bc 00 00 00 	movl   $0x1,0xbc(%esp)
    4555:	01 00 00 00 
    4559:	c7 84 24 b8 00 00 00 	movl   $0x1,0xb8(%esp)
    4560:	01 00 00 00 
    4564:	e8 f7 08 00 00       	call   4e60 <sheet_get_cell_pt>
    4569:	8b 54 24 7c          	mov    0x7c(%esp),%edx
    456d:	8b 44 24 78          	mov    0x78(%esp),%eax
    4571:	89 54 24 6c          	mov    %edx,0x6c(%esp)
    4575:	8d 94 24 a0 00 00 00 	lea    0xa0(%esp),%edx
    457c:	89 54 24 04          	mov    %edx,0x4(%esp)
    4580:	c7 04 24 74 58 02 00 	movl   $0x25874,(%esp)
    4587:	89 44 24 68          	mov    %eax,0x68(%esp)
    458b:	e8 60 0c 00 00       	call   51f0 <tag_get_pt>
    4590:	89 74 24 04          	mov    %esi,0x4(%esp)
    4594:	c7 04 24 84 58 02 00 	movl   $0x25884,(%esp)
    459b:	e8 50 0c 00 00       	call   51f0 <tag_get_pt>
    45a0:	8d 84 24 a0 00 00 00 	lea    0xa0(%esp),%eax
    45a7:	89 74 24 04          	mov    %esi,0x4(%esp)
    45ab:	89 04 24             	mov    %eax,(%esp)
    45ae:	e8 3d 0b 00 00       	call   50f0 <spt_equal>
    45b3:	8b 15 a4 58 02 00    	mov    0x258a4,%edx
    45b9:	c7 44 24 04 74 58 02 	movl   $0x25874,0x4(%esp)
    45c0:	00 
    45c1:	89 14 24             	mov    %edx,(%esp)
    45c4:	88 44 24 10          	mov    %al,0x10(%esp)
    45c8:	8d 5c 24 68          	lea    0x68(%esp),%ebx
    45cc:	e8 ef 0b 00 00       	call   51c0 <sheet_remove_tag>
    45d1:	c7 44 24 08 74 58 02 	movl   $0x25874,0x8(%esp)
    45d8:	00 
    45d9:	e9 0b fd ff ff       	jmp    42e9 <main+0xd39>
    45de:	8b 15 a0 58 02 00    	mov    0x258a0,%edx
    45e4:	85 d2                	test   %edx,%edx
    45e6:	0f 84 e5 04 00 00    	je     4ad1 <main+0x1521>
    45ec:	b8 55 29 02 00       	mov    $0x22955,%eax
    45f1:	e8 7a da ff ff       	call   2070 <prompt>
    45f6:	89 c3                	mov    %eax,%ebx
    45f8:	85 c0                	test   %eax,%eax
    45fa:	0f 84 3f 05 00 00    	je     4b3f <main+0x158f>
    4600:	89 d8                	mov    %ebx,%eax
    4602:	e8 f9 dc ff ff       	call   2300 <file_save>
    4607:	85 c0                	test   %eax,%eax
    4609:	0f 85 d1 f2 ff ff    	jne    38e0 <main+0x330>
    460f:	a1 a0 58 02 00       	mov    0x258a0,%eax
    4614:	85 c0                	test   %eax,%eax
    4616:	74 08                	je     4620 <main+0x1070>
    4618:	89 04 24             	mov    %eax,(%esp)
    461b:	e8 d0 ed 00 00       	call   133f0 <free>
    4620:	89 1d a0 58 02 00    	mov    %ebx,0x258a0
    4626:	e9 b5 f2 ff ff       	jmp    38e0 <main+0x330>
    462b:	a1 40 58 02 00       	mov    0x25840,%eax
    4630:	c7 44 24 08 00 ff 00 	movl   $0xff00,0x8(%esp)
    4637:	00 
    4638:	c7 44 24 04 f7 f7 f7 	movl   $0xf7f7f7,0x4(%esp)
    463f:	00 
    4640:	89 04 24             	mov    %eax,(%esp)
    4643:	e8 38 c5 00 00       	call   10b80 <console_set_rgb_color>
    4648:	e9 93 f2 ff ff       	jmp    38e0 <main+0x330>
    464d:	e8 ae e1 ff ff       	call   2800 <selection_copy>
    4652:	e9 89 f2 ff ff       	jmp    38e0 <main+0x330>
    4657:	e8 64 d0 ff ff       	call   16c0 <selection_delete>
    465c:	8d 44 24 30          	lea    0x30(%esp),%eax
    4660:	89 04 24             	mov    %eax,(%esp)
    4663:	e8 b8 11 00 00       	call   5820 <clipboard_get_str>
    4668:	85 c0                	test   %eax,%eax
    466a:	0f 85 f7 01 00 00    	jne    4867 <main+0x12b7>
    4670:	83 7c 24 30 00       	cmpl   $0x0,0x30(%esp)
    4675:	0f 84 ec 01 00 00    	je     4867 <main+0x12b7>
    467b:	8d 54 24 2c          	lea    0x2c(%esp),%edx
    467f:	c7 44 24 2c 00 00 00 	movl   $0x0,0x2c(%esp)
    4686:	00 
    4687:	89 54 24 18          	mov    %edx,0x18(%esp)
    468b:	8b 54 24 18          	mov    0x18(%esp),%edx
    468f:	8b 44 24 30          	mov    0x30(%esp),%eax
    4693:	c7 44 24 08 ff ff ff 	movl   $0xffffffff,0x8(%esp)
    469a:	ff 
    469b:	89 54 24 04          	mov    %edx,0x4(%esp)
    469f:	89 04 24             	mov    %eax,(%esp)
    46a2:	e8 29 1f 00 00       	call   65d0 <str_decode>
    46a7:	89 c3                	mov    %eax,%ebx
    46a9:	85 c0                	test   %eax,%eax
    46ab:	0f 84 41 03 00 00    	je     49f2 <main+0x1442>
    46b1:	89 74 24 04          	mov    %esi,0x4(%esp)
    46b5:	c7 04 24 74 58 02 00 	movl   $0x25874,(%esp)
    46bc:	e8 2f 0b 00 00       	call   51f0 <tag_get_pt>
    46c1:	8b 54 24 1c          	mov    0x1c(%esp),%edx
    46c5:	8d 44 24 34          	lea    0x34(%esp),%eax
    46c9:	89 54 24 04          	mov    %edx,0x4(%esp)
    46cd:	c7 44 24 0c 05 00 00 	movl   $0x5,0xc(%esp)
    46d4:	00 
    46d5:	89 44 24 08          	mov    %eax,0x8(%esp)
    46d9:	89 1c 24             	mov    %ebx,(%esp)
    46dc:	c7 44 24 34 00 00 00 	movl   $0x0,0x34(%esp)
    46e3:	00 
    46e4:	e8 37 22 00 00       	call   6920 <chr_encode>
    46e9:	8b 44 24 34          	mov    0x34(%esp),%eax
    46ed:	c6 84 04 b8 00 00 00 	movb   $0x0,0xb8(%esp,%eax,1)
    46f4:	00 
    46f5:	8b 44 24 1c          	mov    0x1c(%esp),%eax
    46f9:	89 44 24 0c          	mov    %eax,0xc(%esp)
    46fd:	a1 a4 58 02 00       	mov    0x258a4,%eax
    4702:	c7 44 24 08 00 00 00 	movl   $0x0,0x8(%esp)
    4709:	00 
    470a:	89 74 24 04          	mov    %esi,0x4(%esp)
    470e:	89 04 24             	mov    %eax,(%esp)
    4711:	e8 da 04 00 00       	call   4bf0 <sheet_insert>
    4716:	a1 70 58 02 00       	mov    0x25870,%eax
    471b:	83 fb 0a             	cmp    $0xa,%ebx
    471e:	0f 84 c1 01 00 00    	je     48e5 <main+0x1335>
    4724:	83 c8 02             	or     $0x2,%eax
    4727:	a3 70 58 02 00       	mov    %eax,0x25870
    472c:	e9 5a ff ff ff       	jmp    468b <main+0x10db>
    4731:	89 74 24 04          	mov    %esi,0x4(%esp)
    4735:	c7 04 24 74 58 02 00 	movl   $0x25874,(%esp)
    473c:	e8 af 0a 00 00       	call   51f0 <tag_get_pt>
    4741:	8b 84 24 b0 00 00 00 	mov    0xb0(%esp),%eax
    4748:	8b 94 24 b4 00 00 00 	mov    0xb4(%esp),%edx
    474f:	89 44 24 60          	mov    %eax,0x60(%esp)
    4753:	89 54 24 64          	mov    %edx,0x64(%esp)
    4757:	8d 5c 24 60          	lea    0x60(%esp),%ebx
    475b:	8b 54 24 64          	mov    0x64(%esp),%edx
    475f:	8b 44 24 60          	mov    0x60(%esp),%eax
    4763:	89 54 24 04          	mov    %edx,0x4(%esp)
    4767:	89 5c 24 08          	mov    %ebx,0x8(%esp)
    476b:	89 04 24             	mov    %eax,(%esp)
    476e:	e8 dd 09 00 00       	call   5150 <spt_prev_char>
    4773:	89 d8                	mov    %ebx,%eax
    4775:	e8 76 e2 ff ff       	call   29f0 <pt_is_word_beginning>
    477a:	84 c0                	test   %al,%al
    477c:	74 dd                	je     475b <main+0x11ab>
    477e:	31 c9                	xor    %ecx,%ecx
    4780:	8b 44 24 60          	mov    0x60(%esp),%eax
    4784:	8b 54 24 64          	mov    0x64(%esp),%edx
    4788:	e8 f3 d5 ff ff       	call   1d80 <caret_move.constprop.12>
    478d:	e9 4e f1 ff ff       	jmp    38e0 <main+0x330>
    4792:	ba f7 3a 02 00       	mov    $0x23af7,%edx
    4797:	b8 6d 29 02 00       	mov    $0x2296d,%eax
    479c:	e8 cf d8 ff ff       	call   2070 <prompt>
    47a1:	89 c3                	mov    %eax,%ebx
    47a3:	85 c0                	test   %eax,%eax
    47a5:	0f 84 b3 02 00 00    	je     4a5e <main+0x14ae>
    47ab:	8d 44 24 30          	lea    0x30(%esp),%eax
    47af:	c7 44 24 08 0a 00 00 	movl   $0xa,0x8(%esp)
    47b6:	00 
    47b7:	89 44 24 04          	mov    %eax,0x4(%esp)
    47bb:	89 1c 24             	mov    %ebx,(%esp)
    47be:	e8 ad 41 00 00       	call   8970 <strtol>
    47c3:	8b 54 24 30          	mov    0x30(%esp),%edx
    47c7:	80 3a 00             	cmpb   $0x0,(%edx)
    47ca:	89 1c 24             	mov    %ebx,(%esp)
    47cd:	0f 84 30 02 00 00    	je     4a03 <main+0x1453>
    47d3:	e8 18 ec 00 00       	call   133f0 <free>
    47d8:	a1 48 58 02 00       	mov    0x25848,%eax
    47dd:	48                   	dec    %eax
    47de:	c7 44 24 04 00 00 00 	movl   $0x0,0x4(%esp)
    47e5:	00 
    47e6:	89 44 24 08          	mov    %eax,0x8(%esp)
    47ea:	a1 40 58 02 00       	mov    0x25840,%eax
    47ef:	89 04 24             	mov    %eax,(%esp)
    47f2:	e8 b9 c5 00 00       	call   10db0 <console_set_pos>
    47f7:	a1 40 58 02 00       	mov    0x25840,%eax
    47fc:	c7 44 24 04 02 00 00 	movl   $0x2,0x4(%esp)
    4803:	00 
    4804:	89 04 24             	mov    %eax,(%esp)
    4807:	e8 44 c2 00 00       	call   10a50 <console_set_style>
    480c:	c7 44 24 08 8e 29 02 	movl   $0x2298e,0x8(%esp)
    4813:	00 
    4814:	b8 03 00 00 00       	mov    $0x3,%eax
    4819:	c7 04 24 22 28 02 00 	movl   $0x22822,(%esp)
    4820:	2b 05 44 58 02 00    	sub    0x25844,%eax
    4826:	89 44 24 04          	mov    %eax,0x4(%esp)
    482a:	e8 31 94 00 00       	call   dc60 <printf>
    482f:	a1 40 58 02 00       	mov    0x25840,%eax
    4834:	89 04 24             	mov    %eax,(%esp)
    4837:	e8 e4 c0 00 00       	call   10920 <console_flush>
    483c:	a1 40 58 02 00       	mov    0x25840,%eax
    4841:	c7 44 24 04 00 00 00 	movl   $0x0,0x4(%esp)
    4848:	00 
    4849:	89 04 24             	mov    %eax,(%esp)
    484c:	e8 ff c1 00 00       	call   10a50 <console_set_style>
    4851:	83 0d 70 58 02 00 08 	orl    $0x8,0x25870
    4858:	e9 83 f0 ff ff       	jmp    38e0 <main+0x330>
    485d:	e8 9e df ff ff       	call   2800 <selection_copy>
    4862:	e8 59 ce ff ff       	call   16c0 <selection_delete>
    4867:	83 0d 70 58 02 00 01 	orl    $0x1,0x25870
    486e:	e8 8d c8 ff ff       	call   1100 <caret_update>
    4873:	e9 68 f0 ff ff       	jmp    38e0 <main+0x330>
    4878:	c6 05 ac 58 02 00 01 	movb   $0x1,0x258ac
    487f:	e9 5c f0 ff ff       	jmp    38e0 <main+0x330>
    4884:	89 74 24 04          	mov    %esi,0x4(%esp)
    4888:	c7 04 24 74 58 02 00 	movl   $0x25874,(%esp)
    488f:	e8 5c 09 00 00       	call   51f0 <tag_get_pt>
    4894:	8b 84 24 b0 00 00 00 	mov    0xb0(%esp),%eax
    489b:	8b 94 24 b4 00 00 00 	mov    0xb4(%esp),%edx
    48a2:	89 44 24 58          	mov    %eax,0x58(%esp)
    48a6:	89 54 24 5c          	mov    %edx,0x5c(%esp)
    48aa:	8d 5c 24 58          	lea    0x58(%esp),%ebx
    48ae:	8b 54 24 5c          	mov    0x5c(%esp),%edx
    48b2:	8b 44 24 58          	mov    0x58(%esp),%eax
    48b6:	89 54 24 04          	mov    %edx,0x4(%esp)
    48ba:	89 5c 24 08          	mov    %ebx,0x8(%esp)
    48be:	89 04 24             	mov    %eax,(%esp)
    48c1:	e8 4a 08 00 00       	call   5110 <spt_next_char>
    48c6:	89 d8                	mov    %ebx,%eax
    48c8:	e8 23 e1 ff ff       	call   29f0 <pt_is_word_beginning>
    48cd:	84 c0                	test   %al,%al
    48cf:	74 dd                	je     48ae <main+0x12fe>
    48d1:	31 c9                	xor    %ecx,%ecx
    48d3:	8b 44 24 58          	mov    0x58(%esp),%eax
    48d7:	8b 54 24 5c          	mov    0x5c(%esp),%edx
    48db:	e8 a0 d4 ff ff       	call   1d80 <caret_move.constprop.12>
    48e0:	e9 fb ef ff ff       	jmp    38e0 <main+0x330>
    48e5:	83 c8 03             	or     $0x3,%eax
    48e8:	a3 70 58 02 00       	mov    %eax,0x25870
    48ed:	e9 99 fd ff ff       	jmp    468b <main+0x10db>
    48f2:	8b 15 98 58 02 00    	mov    0x25898,%edx
    48f8:	85 d2                	test   %edx,%edx
    48fa:	0f 84 c7 01 00 00    	je     4ac7 <main+0x1517>
    4900:	b8 e0 29 02 00       	mov    $0x229e0,%eax
    4905:	e8 66 d7 ff ff       	call   2070 <prompt>
    490a:	85 c0                	test   %eax,%eax
    490c:	0f 84 6e 02 00 00    	je     4b80 <main+0x15d0>
    4912:	8b 15 98 58 02 00    	mov    0x25898,%edx
    4918:	85 d2                	test   %edx,%edx
    491a:	74 10                	je     492c <main+0x137c>
    491c:	89 14 24             	mov    %edx,(%esp)
    491f:	89 44 24 10          	mov    %eax,0x10(%esp)
    4923:	e8 c8 ea 00 00       	call   133f0 <free>
    4928:	8b 44 24 10          	mov    0x10(%esp),%eax
    492c:	ba 01 00 00 00       	mov    $0x1,%edx
    4931:	a3 98 58 02 00       	mov    %eax,0x25898
    4936:	c6 05 9c 58 02 00 01 	movb   $0x1,0x2589c
    493d:	e8 5e e6 ff ff       	call   2fa0 <search>
    4942:	e9 99 ef ff ff       	jmp    38e0 <main+0x330>
    4947:	89 74 24 04          	mov    %esi,0x4(%esp)
    494b:	c7 04 24 74 58 02 00 	movl   $0x25874,(%esp)
    4952:	e8 99 08 00 00       	call   51f0 <tag_get_pt>
    4957:	8b 84 24 b0 00 00 00 	mov    0xb0(%esp),%eax
    495e:	8b 94 24 b4 00 00 00 	mov    0xb4(%esp),%edx
    4965:	89 84 24 80 00 00 00 	mov    %eax,0x80(%esp)
    496c:	89 94 24 84 00 00 00 	mov    %edx,0x84(%esp)
    4973:	8d 9c 24 80 00 00 00 	lea    0x80(%esp),%ebx
    497a:	8b 94 24 84 00 00 00 	mov    0x84(%esp),%edx
    4981:	8b 84 24 80 00 00 00 	mov    0x80(%esp),%eax
    4988:	89 54 24 04          	mov    %edx,0x4(%esp)
    498c:	89 5c 24 08          	mov    %ebx,0x8(%esp)
    4990:	89 04 24             	mov    %eax,(%esp)
    4993:	e8 b8 07 00 00       	call   5150 <spt_prev_char>
    4998:	89 d8                	mov    %ebx,%eax
    499a:	e8 51 e0 ff ff       	call   29f0 <pt_is_word_beginning>
    499f:	84 c0                	test   %al,%al
    49a1:	74 d7                	je     497a <main+0x13ca>
    49a3:	b9 01 00 00 00       	mov    $0x1,%ecx
    49a8:	8b 84 24 80 00 00 00 	mov    0x80(%esp),%eax
    49af:	8b 94 24 84 00 00 00 	mov    0x84(%esp),%edx
    49b6:	e8 c5 d3 ff ff       	call   1d80 <caret_move.constprop.12>
    49bb:	e9 20 ef ff ff       	jmp    38e0 <main+0x330>
    49c0:	c7 04 24 31 29 02 00 	movl   $0x22931,(%esp)
    49c7:	e8 94 92 00 00       	call   dc60 <printf>
    49cc:	83 c8 ff             	or     $0xffffffff,%eax
    49cf:	e9 1b f0 ff ff       	jmp    39ef <main+0x43f>
    49d4:	c7 04 24 41 29 02 00 	movl   $0x22941,(%esp)
    49db:	e8 80 92 00 00       	call   dc60 <printf>
    49e0:	b8 fe ff ff ff       	mov    $0xfffffffe,%eax
    49e5:	e9 05 f0 ff ff       	jmp    39ef <main+0x43f>
    49ea:	83 c8 02             	or     $0x2,%eax
    49ed:	e9 1b f8 ff ff       	jmp    420d <main+0xc5d>
    49f2:	8b 44 24 30          	mov    0x30(%esp),%eax
    49f6:	89 04 24             	mov    %eax,(%esp)
    49f9:	e8 f2 e9 00 00       	call   133f0 <free>
    49fe:	e9 64 fe ff ff       	jmp    4867 <main+0x12b7>
    4a03:	89 44 24 10          	mov    %eax,0x10(%esp)
    4a07:	e8 e4 e9 00 00       	call   133f0 <free>
    4a0c:	8b 44 24 10          	mov    0x10(%esp),%eax
    4a10:	8b 54 24 1c          	mov    0x1c(%esp),%edx
    4a14:	89 84 24 b8 00 00 00 	mov    %eax,0xb8(%esp)
    4a1b:	a1 94 58 02 00       	mov    0x25894,%eax
    4a20:	89 84 24 bc 00 00 00 	mov    %eax,0xbc(%esp)
    4a27:	a1 a4 58 02 00       	mov    0x258a4,%eax
    4a2c:	89 54 24 04          	mov    %edx,0x4(%esp)
    4a30:	89 04 24             	mov    %eax,(%esp)
    4a33:	89 74 24 0c          	mov    %esi,0xc(%esp)
    4a37:	c7 44 24 08 00 00 00 	movl   $0x0,0x8(%esp)
    4a3e:	00 
    4a3f:	e8 1c 04 00 00       	call   4e60 <sheet_get_cell_pt>
    4a44:	31 c9                	xor    %ecx,%ecx
    4a46:	8b 84 24 b0 00 00 00 	mov    0xb0(%esp),%eax
    4a4d:	8b 94 24 b4 00 00 00 	mov    0xb4(%esp),%edx
    4a54:	e8 27 d3 ff ff       	call   1d80 <caret_move.constprop.12>
    4a59:	e9 82 ee ff ff       	jmp    38e0 <main+0x330>
    4a5e:	a1 48 58 02 00       	mov    0x25848,%eax
    4a63:	c7 44 24 04 00 00 00 	movl   $0x0,0x4(%esp)
    4a6a:	00 
    4a6b:	48                   	dec    %eax
    4a6c:	89 44 24 08          	mov    %eax,0x8(%esp)
    4a70:	a1 40 58 02 00       	mov    0x25840,%eax
    4a75:	89 04 24             	mov    %eax,(%esp)
    4a78:	e8 33 c3 00 00       	call   10db0 <console_set_pos>
    4a7d:	a1 40 58 02 00       	mov    0x25840,%eax
    4a82:	c7 44 24 04 02 00 00 	movl   $0x2,0x4(%esp)
    4a89:	00 
    4a8a:	89 04 24             	mov    %eax,(%esp)
    4a8d:	e8 be bf 00 00       	call   10a50 <console_set_style>
    4a92:	c7 44 24 08 78 29 02 	movl   $0x22978,0x8(%esp)
    4a99:	00 
    4a9a:	e9 75 fd ff ff       	jmp    4814 <main+0x1264>
    4a9f:	ba f7 3a 02 00       	mov    $0x23af7,%edx
    4aa4:	b8 55 29 02 00       	mov    $0x22955,%eax
    4aa9:	e8 c2 d5 ff ff       	call   2070 <prompt>
    4aae:	89 c3                	mov    %eax,%ebx
    4ab0:	85 c0                	test   %eax,%eax
    4ab2:	0f 85 48 fb ff ff    	jne    4600 <main+0x1050>
    4ab8:	b8 5d 29 02 00       	mov    $0x2295d,%eax
    4abd:	e8 de c6 ff ff       	call   11a0 <status_display>
    4ac2:	e9 19 ee ff ff       	jmp    38e0 <main+0x330>
    4ac7:	ba f7 3a 02 00       	mov    $0x23af7,%edx
    4acc:	e9 2f fe ff ff       	jmp    4900 <main+0x1350>
    4ad1:	ba f7 3a 02 00       	mov    $0x23af7,%edx
    4ad6:	e9 11 fb ff ff       	jmp    45ec <main+0x103c>
    4adb:	ba f7 3a 02 00       	mov    $0x23af7,%edx
    4ae0:	e9 e6 f9 ff ff       	jmp    44cb <main+0xf1b>
    4ae5:	8d 94 24 b8 00 00 00 	lea    0xb8(%esp),%edx
    4aec:	b3 01                	mov    $0x1,%bl
    4aee:	8d b4 24 b0 00 00 00 	lea    0xb0(%esp),%esi
    4af5:	89 54 24 1c          	mov    %edx,0x1c(%esp)
    4af9:	e9 a0 eb ff ff       	jmp    369e <main+0xee>
    4afe:	a1 48 58 02 00       	mov    0x25848,%eax
    4b03:	c7 44 24 04 00 00 00 	movl   $0x0,0x4(%esp)
    4b0a:	00 
    4b0b:	48                   	dec    %eax
    4b0c:	89 44 24 08          	mov    %eax,0x8(%esp)
    4b10:	a1 40 58 02 00       	mov    0x25840,%eax
    4b15:	89 04 24             	mov    %eax,(%esp)
    4b18:	e8 93 c2 00 00       	call   10db0 <console_set_pos>
    4b1d:	a1 40 58 02 00       	mov    0x25840,%eax
    4b22:	c7 44 24 04 02 00 00 	movl   $0x2,0x4(%esp)
    4b29:	00 
    4b2a:	89 04 24             	mov    %eax,(%esp)
    4b2d:	e8 1e bf 00 00       	call   10a50 <console_set_style>
    4b32:	c7 44 24 08 c2 29 02 	movl   $0x229c2,0x8(%esp)
    4b39:	00 
    4b3a:	e9 d5 fc ff ff       	jmp    4814 <main+0x1264>
    4b3f:	a1 48 58 02 00       	mov    0x25848,%eax
    4b44:	c7 44 24 04 00 00 00 	movl   $0x0,0x4(%esp)
    4b4b:	00 
    4b4c:	48                   	dec    %eax
    4b4d:	89 44 24 08          	mov    %eax,0x8(%esp)
    4b51:	a1 40 58 02 00       	mov    0x25840,%eax
    4b56:	89 04 24             	mov    %eax,(%esp)
    4b59:	e8 52 c2 00 00       	call   10db0 <console_set_pos>
    4b5e:	a1 40 58 02 00       	mov    0x25840,%eax
    4b63:	c7 44 24 04 02 00 00 	movl   $0x2,0x4(%esp)
    4b6a:	00 
    4b6b:	89 04 24             	mov    %eax,(%esp)
    4b6e:	e8 dd be 00 00       	call   10a50 <console_set_style>
    4b73:	c7 44 24 08 5d 29 02 	movl   $0x2295d,0x8(%esp)
    4b7a:	00 
    4b7b:	e9 94 fc ff ff       	jmp    4814 <main+0x1264>
    4b80:	b8 b0 29 02 00       	mov    $0x229b0,%eax
    4b85:	e8 16 c6 ff ff       	call   11a0 <status_display>
    4b8a:	e9 51 ed ff ff       	jmp    38e0 <main+0x330>
    4b8f:	90                   	nop

00004b90 <sheet_create>:
    4b90:	55                   	push   %ebp
    4b91:	89 e5                	mov    %esp,%ebp
    4b93:	53                   	push   %ebx
    4b94:	83 ec 14             	sub    $0x14,%esp
    4b97:	c7 44 24 04 14 00 00 	movl   $0x14,0x4(%esp)
    4b9e:	00 
    4b9f:	c7 04 24 01 00 00 00 	movl   $0x1,(%esp)
    4ba6:	e8 d5 e6 00 00       	call   13280 <calloc>
    4bab:	89 c3                	mov    %eax,%ebx
    4bad:	85 c0                	test   %eax,%eax
    4baf:	74 37                	je     4be8 <sheet_create+0x58>
    4bb1:	c7 40 04 20 00 00 00 	movl   $0x20,0x4(%eax)
    4bb8:	c7 00 00 00 00 00    	movl   $0x0,(%eax)
    4bbe:	c7 04 24 20 00 00 00 	movl   $0x20,(%esp)
    4bc5:	e8 16 e7 00 00       	call   132e0 <malloc>
    4bca:	89 43 08             	mov    %eax,0x8(%ebx)
    4bcd:	85 c0                	test   %eax,%eax
    4bcf:	74 17                	je     4be8 <sheet_create+0x58>
    4bd1:	8d 43 0c             	lea    0xc(%ebx),%eax
    4bd4:	89 43 0c             	mov    %eax,0xc(%ebx)
    4bd7:	89 43 10             	mov    %eax,0x10(%ebx)
    4bda:	8b 45 08             	mov    0x8(%ebp),%eax
    4bdd:	89 18                	mov    %ebx,(%eax)
    4bdf:	31 c0                	xor    %eax,%eax
    4be1:	83 c4 14             	add    $0x14,%esp
    4be4:	5b                   	pop    %ebx
    4be5:	5d                   	pop    %ebp
    4be6:	c3                   	ret    
    4be7:	90                   	nop
    4be8:	b8 fe ff ff ff       	mov    $0xfffffffe,%eax
    4bed:	eb f2                	jmp    4be1 <sheet_create+0x51>
    4bef:	90                   	nop

00004bf0 <sheet_insert>:
    4bf0:	55                   	push   %ebp
    4bf1:	89 e5                	mov    %esp,%ebp
    4bf3:	57                   	push   %edi
    4bf4:	56                   	push   %esi
    4bf5:	53                   	push   %ebx
    4bf6:	83 ec 1c             	sub    $0x1c,%esp
    4bf9:	8b 55 14             	mov    0x14(%ebp),%edx
    4bfc:	8b 75 08             	mov    0x8(%ebp),%esi
    4bff:	89 14 24             	mov    %edx,(%esp)
    4c02:	e8 09 1e 00 00       	call   6a10 <str_size>
    4c07:	8b 0e                	mov    (%esi),%ecx
    4c09:	89 c3                	mov    %eax,%ebx
    4c0b:	8b 46 04             	mov    0x4(%esi),%eax
    4c0e:	8d 14 0b             	lea    (%ebx,%ecx,1),%edx
    4c11:	39 c2                	cmp    %eax,%edx
    4c13:	0f 87 9f 00 00 00    	ja     4cb8 <sheet_insert+0xc8>
    4c19:	8b 46 08             	mov    0x8(%esi),%eax
    4c1c:	8b 7d 0c             	mov    0xc(%ebp),%edi
    4c1f:	8b 57 04             	mov    0x4(%edi),%edx
    4c22:	29 d1                	sub    %edx,%ecx
    4c24:	8d 3c 10             	lea    (%eax,%edx,1),%edi
    4c27:	89 4c 24 08          	mov    %ecx,0x8(%esp)
    4c2b:	89 7c 24 04          	mov    %edi,0x4(%esp)
    4c2f:	8d 04 1f             	lea    (%edi,%ebx,1),%eax
    4c32:	89 04 24             	mov    %eax,(%esp)
    4c35:	e8 b6 11 00 00       	call   5df0 <memmove>
    4c3a:	8b 55 14             	mov    0x14(%ebp),%edx
    4c3d:	89 5c 24 08          	mov    %ebx,0x8(%esp)
    4c41:	89 54 24 04          	mov    %edx,0x4(%esp)
    4c45:	89 3c 24             	mov    %edi,(%esp)
    4c48:	e8 b3 0f 00 00       	call   5c00 <memcpy>
    4c4d:	8b 0e                	mov    (%esi),%ecx
    4c4f:	01 d9                	add    %ebx,%ecx
    4c51:	8b 46 10             	mov    0x10(%esi),%eax
    4c54:	89 0e                	mov    %ecx,(%esi)
    4c56:	83 c6 0c             	add    $0xc,%esi
    4c59:	39 f0                	cmp    %esi,%eax
    4c5b:	74 33                	je     4c90 <sheet_insert+0xa0>
    4c5d:	8b 7d 0c             	mov    0xc(%ebp),%edi
    4c60:	8b 55 10             	mov    0x10(%ebp),%edx
    4c63:	85 d2                	test   %edx,%edx
    4c65:	8b 4f 04             	mov    0x4(%edi),%ecx
    4c68:	75 36                	jne    4ca0 <sheet_insert+0xb0>
    4c6a:	8d 3c 0b             	lea    (%ebx,%ecx,1),%edi
    4c6d:	eb 0d                	jmp    4c7c <sheet_insert+0x8c>
    4c6f:	90                   	nop
    4c70:	01 da                	add    %ebx,%edx
    4c72:	89 50 0c             	mov    %edx,0xc(%eax)
    4c75:	8b 40 04             	mov    0x4(%eax),%eax
    4c78:	39 f0                	cmp    %esi,%eax
    4c7a:	74 14                	je     4c90 <sheet_insert+0xa0>
    4c7c:	8b 50 0c             	mov    0xc(%eax),%edx
    4c7f:	39 ca                	cmp    %ecx,%edx
    4c81:	77 ed                	ja     4c70 <sheet_insert+0x80>
    4c83:	75 f0                	jne    4c75 <sheet_insert+0x85>
    4c85:	89 78 0c             	mov    %edi,0xc(%eax)
    4c88:	8b 40 04             	mov    0x4(%eax),%eax
    4c8b:	39 f0                	cmp    %esi,%eax
    4c8d:	75 ed                	jne    4c7c <sheet_insert+0x8c>
    4c8f:	90                   	nop
    4c90:	31 c0                	xor    %eax,%eax
    4c92:	83 c4 1c             	add    $0x1c,%esp
    4c95:	5b                   	pop    %ebx
    4c96:	5e                   	pop    %esi
    4c97:	5f                   	pop    %edi
    4c98:	5d                   	pop    %ebp
    4c99:	c3                   	ret    
    4c9a:	8d b6 00 00 00 00    	lea    0x0(%esi),%esi
    4ca0:	8b 50 0c             	mov    0xc(%eax),%edx
    4ca3:	39 ca                	cmp    %ecx,%edx
    4ca5:	76 05                	jbe    4cac <sheet_insert+0xbc>
    4ca7:	01 da                	add    %ebx,%edx
    4ca9:	89 50 0c             	mov    %edx,0xc(%eax)
    4cac:	8b 40 04             	mov    0x4(%eax),%eax
    4caf:	39 f0                	cmp    %esi,%eax
    4cb1:	75 ed                	jne    4ca0 <sheet_insert+0xb0>
    4cb3:	eb db                	jmp    4c90 <sheet_insert+0xa0>
    4cb5:	8d 76 00             	lea    0x0(%esi),%esi
    4cb8:	01 c0                	add    %eax,%eax
    4cba:	89 44 24 04          	mov    %eax,0x4(%esp)
    4cbe:	8b 46 08             	mov    0x8(%esi),%eax
    4cc1:	89 04 24             	mov    %eax,(%esp)
    4cc4:	e8 77 e9 00 00       	call   13640 <realloc>
    4cc9:	85 c0                	test   %eax,%eax
    4ccb:	74 12                	je     4cdf <sheet_insert+0xef>
    4ccd:	8b 7e 04             	mov    0x4(%esi),%edi
    4cd0:	89 46 08             	mov    %eax,0x8(%esi)
    4cd3:	01 ff                	add    %edi,%edi
    4cd5:	8b 0e                	mov    (%esi),%ecx
    4cd7:	89 7e 04             	mov    %edi,0x4(%esi)
    4cda:	e9 3d ff ff ff       	jmp    4c1c <sheet_insert+0x2c>
    4cdf:	b8 fd ff ff ff       	mov    $0xfffffffd,%eax
    4ce4:	eb ac                	jmp    4c92 <sheet_insert+0xa2>
    4ce6:	8d 76 00             	lea    0x0(%esi),%esi
    4ce9:	8d bc 27 00 00 00 00 	lea    0x0(%edi,%eiz,1),%edi

00004cf0 <sheet_delete>:
    4cf0:	55                   	push   %ebp
    4cf1:	89 e5                	mov    %esp,%ebp
    4cf3:	57                   	push   %edi
    4cf4:	56                   	push   %esi
    4cf5:	53                   	push   %ebx
    4cf6:	83 ec 2c             	sub    $0x2c,%esp
    4cf9:	8b 75 10             	mov    0x10(%ebp),%esi
    4cfc:	8b 5d 08             	mov    0x8(%ebp),%ebx
    4cff:	8b 55 0c             	mov    0xc(%ebp),%edx
    4d02:	8b 4e 04             	mov    0x4(%esi),%ecx
    4d05:	8b 42 04             	mov    0x4(%edx),%eax
    4d08:	89 cf                	mov    %ecx,%edi
    4d0a:	8b 53 08             	mov    0x8(%ebx),%edx
    4d0d:	29 c7                	sub    %eax,%edi
    4d0f:	01 c2                	add    %eax,%edx
    4d11:	8b 03                	mov    (%ebx),%eax
    4d13:	29 c8                	sub    %ecx,%eax
    4d15:	89 14 24             	mov    %edx,(%esp)
    4d18:	89 44 24 08          	mov    %eax,0x8(%esp)
    4d1c:	89 f8                	mov    %edi,%eax
    4d1e:	01 d0                	add    %edx,%eax
    4d20:	89 7d e4             	mov    %edi,-0x1c(%ebp)
    4d23:	89 44 24 04          	mov    %eax,0x4(%esp)
    4d27:	e8 c4 10 00 00       	call   5df0 <memmove>
    4d2c:	8b 03                	mov    (%ebx),%eax
    4d2e:	29 f8                	sub    %edi,%eax
    4d30:	8d 7b 0c             	lea    0xc(%ebx),%edi
    4d33:	89 45 e0             	mov    %eax,-0x20(%ebp)
    4d36:	89 03                	mov    %eax,(%ebx)
    4d38:	8b 43 10             	mov    0x10(%ebx),%eax
    4d3b:	39 f8                	cmp    %edi,%eax
    4d3d:	74 3b                	je     4d7a <sheet_delete+0x8a>
    4d3f:	89 5d dc             	mov    %ebx,-0x24(%ebp)
    4d42:	8b 76 04             	mov    0x4(%esi),%esi
    4d45:	8b 5d 0c             	mov    0xc(%ebp),%ebx
    4d48:	eb 15                	jmp    4d5f <sheet_delete+0x6f>
    4d4a:	8d b6 00 00 00 00    	lea    0x0(%esi),%esi
    4d50:	8b 4d e4             	mov    -0x1c(%ebp),%ecx
    4d53:	29 ca                	sub    %ecx,%edx
    4d55:	89 50 0c             	mov    %edx,0xc(%eax)
    4d58:	8b 40 04             	mov    0x4(%eax),%eax
    4d5b:	39 f8                	cmp    %edi,%eax
    4d5d:	74 18                	je     4d77 <sheet_delete+0x87>
    4d5f:	8b 50 0c             	mov    0xc(%eax),%edx
    4d62:	39 d6                	cmp    %edx,%esi
    4d64:	76 ea                	jbe    4d50 <sheet_delete+0x60>
    4d66:	8b 4b 04             	mov    0x4(%ebx),%ecx
    4d69:	39 ca                	cmp    %ecx,%edx
    4d6b:	72 eb                	jb     4d58 <sheet_delete+0x68>
    4d6d:	89 48 0c             	mov    %ecx,0xc(%eax)
    4d70:	8b 40 04             	mov    0x4(%eax),%eax
    4d73:	39 f8                	cmp    %edi,%eax
    4d75:	75 e8                	jne    4d5f <sheet_delete+0x6f>
    4d77:	8b 5d dc             	mov    -0x24(%ebp),%ebx
    4d7a:	8b 43 04             	mov    0x4(%ebx),%eax
    4d7d:	be 20 00 00 00       	mov    $0x20,%esi
    4d82:	3d 83 00 00 00       	cmp    $0x83,%eax
    4d87:	76 05                	jbe    4d8e <sheet_delete+0x9e>
    4d89:	89 c6                	mov    %eax,%esi
    4d8b:	c1 ee 02             	shr    $0x2,%esi
    4d8e:	3b 75 e0             	cmp    -0x20(%ebp),%esi
    4d91:	72 05                	jb     4d98 <sheet_delete+0xa8>
    4d93:	83 f8 20             	cmp    $0x20,%eax
    4d96:	77 10                	ja     4da8 <sheet_delete+0xb8>
    4d98:	83 c4 2c             	add    $0x2c,%esp
    4d9b:	31 c0                	xor    %eax,%eax
    4d9d:	5b                   	pop    %ebx
    4d9e:	5e                   	pop    %esi
    4d9f:	5f                   	pop    %edi
    4da0:	5d                   	pop    %ebp
    4da1:	c3                   	ret    
    4da2:	8d b6 00 00 00 00    	lea    0x0(%esi),%esi
    4da8:	89 74 24 04          	mov    %esi,0x4(%esp)
    4dac:	8b 43 08             	mov    0x8(%ebx),%eax
    4daf:	89 04 24             	mov    %eax,(%esp)
    4db2:	e8 89 e8 00 00       	call   13640 <realloc>
    4db7:	85 c0                	test   %eax,%eax
    4db9:	74 dd                	je     4d98 <sheet_delete+0xa8>
    4dbb:	89 43 08             	mov    %eax,0x8(%ebx)
    4dbe:	89 73 04             	mov    %esi,0x4(%ebx)
    4dc1:	83 c4 2c             	add    $0x2c,%esp
    4dc4:	31 c0                	xor    %eax,%eax
    4dc6:	5b                   	pop    %ebx
    4dc7:	5e                   	pop    %esi
    4dc8:	5f                   	pop    %edi
    4dc9:	5d                   	pop    %ebp
    4dca:	c3                   	ret    
    4dcb:	90                   	nop
    4dcc:	8d 74 26 00          	lea    0x0(%esi,%eiz,1),%esi

00004dd0 <sheet_copy_out>:
    4dd0:	55                   	push   %ebp
    4dd1:	89 e5                	mov    %esp,%ebp
    4dd3:	57                   	push   %edi
    4dd4:	56                   	push   %esi
    4dd5:	53                   	push   %ebx
    4dd6:	83 ec 2c             	sub    $0x2c,%esp
    4dd9:	8b 45 0c             	mov    0xc(%ebp),%eax
    4ddc:	8b 50 04             	mov    0x4(%eax),%edx
    4ddf:	8b 45 08             	mov    0x8(%ebp),%eax
    4de2:	8b 78 08             	mov    0x8(%eax),%edi
    4de5:	8b 45 10             	mov    0x10(%ebp),%eax
    4de8:	01 d7                	add    %edx,%edi
    4dea:	8b 40 04             	mov    0x4(%eax),%eax
    4ded:	29 d0                	sub    %edx,%eax
    4def:	8b 55 18             	mov    0x18(%ebp),%edx
    4df2:	8d 72 ff             	lea    -0x1(%edx),%esi
    4df5:	39 c6                	cmp    %eax,%esi
    4df7:	76 02                	jbe    4dfb <sheet_copy_out+0x2b>
    4df9:	89 c6                	mov    %eax,%esi
    4dfb:	c7 45 e4 00 00 00 00 	movl   $0x0,-0x1c(%ebp)
    4e02:	31 db                	xor    %ebx,%ebx
    4e04:	eb 05                	jmp    4e0b <sheet_copy_out+0x3b>
    4e06:	66 90                	xchg   %ax,%ax
    4e08:	8b 5d e4             	mov    -0x1c(%ebp),%ebx
    4e0b:	8d 55 e4             	lea    -0x1c(%ebp),%edx
    4e0e:	89 74 24 08          	mov    %esi,0x8(%esp)
    4e12:	89 54 24 04          	mov    %edx,0x4(%esp)
    4e16:	89 3c 24             	mov    %edi,(%esp)
    4e19:	e8 b2 17 00 00       	call   65d0 <str_decode>
    4e1e:	85 c0                	test   %eax,%eax
    4e20:	75 e6                	jne    4e08 <sheet_copy_out+0x38>
    4e22:	8b 55 14             	mov    0x14(%ebp),%edx
    4e25:	89 5c 24 08          	mov    %ebx,0x8(%esp)
    4e29:	89 7c 24 04          	mov    %edi,0x4(%esp)
    4e2d:	89 14 24             	mov    %edx,(%esp)
    4e30:	e8 cb 0d 00 00       	call   5c00 <memcpy>
    4e35:	8b 55 14             	mov    0x14(%ebp),%edx
    4e38:	c6 04 1a 00          	movb   $0x0,(%edx,%ebx,1)
    4e3c:	8b 55 0c             	mov    0xc(%ebp),%edx
    4e3f:	8b 45 08             	mov    0x8(%ebp),%eax
    4e42:	8b 72 04             	mov    0x4(%edx),%esi
    4e45:	8b 55 1c             	mov    0x1c(%ebp),%edx
    4e48:	01 f3                	add    %esi,%ebx
    4e4a:	89 5a 04             	mov    %ebx,0x4(%edx)
    4e4d:	89 02                	mov    %eax,(%edx)
    4e4f:	83 c4 2c             	add    $0x2c,%esp
    4e52:	5b                   	pop    %ebx
    4e53:	5e                   	pop    %esi
    4e54:	5f                   	pop    %edi
    4e55:	5d                   	pop    %ebp
    4e56:	c3                   	ret    
    4e57:	89 f6                	mov    %esi,%esi
    4e59:	8d bc 27 00 00 00 00 	lea    0x0(%edi,%eiz,1),%edi

00004e60 <sheet_get_cell_pt>:
    4e60:	55                   	push   %ebp
    4e61:	89 e5                	mov    %esp,%ebp
    4e63:	57                   	push   %edi
    4e64:	56                   	push   %esi
    4e65:	53                   	push   %ebx
    4e66:	83 ec 3c             	sub    $0x3c,%esp
    4e69:	bb 01 00 00 00       	mov    $0x1,%ebx
    4e6e:	8b 7d 08             	mov    0x8(%ebp),%edi
    4e71:	c7 45 e4 00 00 00 00 	movl   $0x0,-0x1c(%ebp)
    4e78:	c7 45 d4 01 00 00 00 	movl   $0x1,-0x2c(%ebp)
    4e7f:	31 f6                	xor    %esi,%esi
    4e81:	8d b4 26 00 00 00 00 	lea    0x0(%esi,%eiz,1),%esi
    4e88:	8b 07                	mov    (%edi),%eax
    4e8a:	39 c6                	cmp    %eax,%esi
    4e8c:	73 42                	jae    4ed0 <sheet_get_cell_pt+0x70>
    4e8e:	8b 4d 0c             	mov    0xc(%ebp),%ecx
    4e91:	8b 11                	mov    (%ecx),%edx
    4e93:	3b 55 d4             	cmp    -0x2c(%ebp),%edx
    4e96:	7f 0a                	jg     4ea2 <sheet_get_cell_pt+0x42>
    4e98:	39 59 04             	cmp    %ebx,0x4(%ecx)
    4e9b:	7c 33                	jl     4ed0 <sheet_get_cell_pt+0x70>
    4e9d:	3b 55 d4             	cmp    -0x2c(%ebp),%edx
    4ea0:	7c 2e                	jl     4ed0 <sheet_get_cell_pt+0x70>
    4ea2:	89 44 24 08          	mov    %eax,0x8(%esp)
    4ea6:	8d 45 e4             	lea    -0x1c(%ebp),%eax
    4ea9:	89 44 24 04          	mov    %eax,0x4(%esp)
    4ead:	8b 75 e4             	mov    -0x1c(%ebp),%esi
    4eb0:	8b 47 08             	mov    0x8(%edi),%eax
    4eb3:	89 04 24             	mov    %eax,(%esp)
    4eb6:	e8 15 17 00 00       	call   65d0 <str_decode>
    4ebb:	83 f8 0a             	cmp    $0xa,%eax
    4ebe:	74 30                	je     4ef0 <sheet_get_cell_pt+0x90>
    4ec0:	83 f8 09             	cmp    $0x9,%eax
    4ec3:	74 3b                	je     4f00 <sheet_get_cell_pt+0xa0>
    4ec5:	8b 07                	mov    (%edi),%eax
    4ec7:	43                   	inc    %ebx
    4ec8:	39 c6                	cmp    %eax,%esi
    4eca:	72 c2                	jb     4e8e <sheet_get_cell_pt+0x2e>
    4ecc:	8d 74 26 00          	lea    0x0(%esi,%eiz,1),%esi
    4ed0:	8b 4d 14             	mov    0x14(%ebp),%ecx
    4ed3:	89 39                	mov    %edi,(%ecx)
    4ed5:	8b 7d 10             	mov    0x10(%ebp),%edi
    4ed8:	85 ff                	test   %edi,%edi
    4eda:	74 06                	je     4ee2 <sheet_get_cell_pt+0x82>
    4edc:	8b 75 e4             	mov    -0x1c(%ebp),%esi
    4edf:	8b 4d 14             	mov    0x14(%ebp),%ecx
    4ee2:	89 71 04             	mov    %esi,0x4(%ecx)
    4ee5:	83 c4 3c             	add    $0x3c,%esp
    4ee8:	5b                   	pop    %ebx
    4ee9:	5e                   	pop    %esi
    4eea:	5f                   	pop    %edi
    4eeb:	5d                   	pop    %ebp
    4eec:	c3                   	ret    
    4eed:	8d 76 00             	lea    0x0(%esi),%esi
    4ef0:	8b 45 d4             	mov    -0x2c(%ebp),%eax
    4ef3:	bb 01 00 00 00       	mov    $0x1,%ebx
    4ef8:	40                   	inc    %eax
    4ef9:	89 45 d4             	mov    %eax,-0x2c(%ebp)
    4efc:	eb 8a                	jmp    4e88 <sheet_get_cell_pt+0x28>
    4efe:	66 90                	xchg   %ax,%ax
    4f00:	83 c3 07             	add    $0x7,%ebx
    4f03:	83 e3 f8             	and    $0xfffffff8,%ebx
    4f06:	43                   	inc    %ebx
    4f07:	e9 7c ff ff ff       	jmp    4e88 <sheet_get_cell_pt+0x28>
    4f0c:	8d 74 26 00          	lea    0x0(%esi,%eiz,1),%esi

00004f10 <sheet_get_row_width>:
    4f10:	55                   	push   %ebp
    4f11:	89 e5                	mov    %esp,%ebp
    4f13:	57                   	push   %edi
    4f14:	56                   	push   %esi
    4f15:	53                   	push   %ebx
    4f16:	83 ec 3c             	sub    $0x3c,%esp
    4f19:	be 01 00 00 00       	mov    $0x1,%esi
    4f1e:	8b 7d 08             	mov    0x8(%ebp),%edi
    4f21:	c7 45 e4 00 00 00 00 	movl   $0x0,-0x1c(%ebp)
    4f28:	c7 45 d4 01 00 00 00 	movl   $0x1,-0x2c(%ebp)
    4f2f:	31 db                	xor    %ebx,%ebx
    4f31:	8d b4 26 00 00 00 00 	lea    0x0(%esi,%eiz,1),%esi
    4f38:	8b 07                	mov    (%edi),%eax
    4f3a:	39 d8                	cmp    %ebx,%eax
    4f3c:	76 42                	jbe    4f80 <sheet_get_row_width+0x70>
    4f3e:	8b 55 d4             	mov    -0x2c(%ebp),%edx
    4f41:	39 55 0c             	cmp    %edx,0xc(%ebp)
    4f44:	7f 0d                	jg     4f53 <sheet_get_row_width+0x43>
    4f46:	81 fe 00 00 01 00    	cmp    $0x10000,%esi
    4f4c:	7f 32                	jg     4f80 <sheet_get_row_width+0x70>
    4f4e:	39 55 0c             	cmp    %edx,0xc(%ebp)
    4f51:	7c 2d                	jl     4f80 <sheet_get_row_width+0x70>
    4f53:	89 44 24 08          	mov    %eax,0x8(%esp)
    4f57:	8d 45 e4             	lea    -0x1c(%ebp),%eax
    4f5a:	89 44 24 04          	mov    %eax,0x4(%esp)
    4f5e:	8b 5d e4             	mov    -0x1c(%ebp),%ebx
    4f61:	8b 47 08             	mov    0x8(%edi),%eax
    4f64:	89 04 24             	mov    %eax,(%esp)
    4f67:	e8 64 16 00 00       	call   65d0 <str_decode>
    4f6c:	83 f8 0a             	cmp    $0xa,%eax
    4f6f:	74 57                	je     4fc8 <sheet_get_row_width+0xb8>
    4f71:	83 f8 09             	cmp    $0x9,%eax
    4f74:	74 6a                	je     4fe0 <sheet_get_row_width+0xd0>
    4f76:	8b 07                	mov    (%edi),%eax
    4f78:	46                   	inc    %esi
    4f79:	39 d8                	cmp    %ebx,%eax
    4f7b:	77 c1                	ja     4f3e <sheet_get_row_width+0x2e>
    4f7d:	8d 76 00             	lea    0x0(%esi),%esi
    4f80:	c7 45 e4 00 00 00 00 	movl   $0x0,-0x1c(%ebp)
    4f87:	31 c0                	xor    %eax,%eax
    4f89:	be 01 00 00 00       	mov    $0x1,%esi
    4f8e:	eb 09                	jmp    4f99 <sheet_get_row_width+0x89>
    4f90:	83 f8 09             	cmp    $0x9,%eax
    4f93:	74 5b                	je     4ff0 <sheet_get_row_width+0xe0>
    4f95:	46                   	inc    %esi
    4f96:	8b 45 e4             	mov    -0x1c(%ebp),%eax
    4f99:	39 d8                	cmp    %ebx,%eax
    4f9b:	73 63                	jae    5000 <sheet_get_row_width+0xf0>
    4f9d:	8b 17                	mov    (%edi),%edx
    4f9f:	39 d0                	cmp    %edx,%eax
    4fa1:	73 5d                	jae    5000 <sheet_get_row_width+0xf0>
    4fa3:	89 54 24 08          	mov    %edx,0x8(%esp)
    4fa7:	8d 55 e4             	lea    -0x1c(%ebp),%edx
    4faa:	89 54 24 04          	mov    %edx,0x4(%esp)
    4fae:	8b 47 08             	mov    0x8(%edi),%eax
    4fb1:	89 04 24             	mov    %eax,(%esp)
    4fb4:	e8 17 16 00 00       	call   65d0 <str_decode>
    4fb9:	83 f8 0a             	cmp    $0xa,%eax
    4fbc:	75 d2                	jne    4f90 <sheet_get_row_width+0x80>
    4fbe:	be 01 00 00 00       	mov    $0x1,%esi
    4fc3:	eb d1                	jmp    4f96 <sheet_get_row_width+0x86>
    4fc5:	8d 76 00             	lea    0x0(%esi),%esi
    4fc8:	8b 45 d4             	mov    -0x2c(%ebp),%eax
    4fcb:	be 01 00 00 00       	mov    $0x1,%esi
    4fd0:	40                   	inc    %eax
    4fd1:	89 45 d4             	mov    %eax,-0x2c(%ebp)
    4fd4:	e9 5f ff ff ff       	jmp    4f38 <sheet_get_row_width+0x28>
    4fd9:	8d b4 26 00 00 00 00 	lea    0x0(%esi,%eiz,1),%esi
    4fe0:	83 c6 07             	add    $0x7,%esi
    4fe3:	83 e6 f8             	and    $0xfffffff8,%esi
    4fe6:	46                   	inc    %esi
    4fe7:	e9 4c ff ff ff       	jmp    4f38 <sheet_get_row_width+0x28>
    4fec:	8d 74 26 00          	lea    0x0(%esi,%eiz,1),%esi
    4ff0:	83 c6 07             	add    $0x7,%esi
    4ff3:	83 e6 f8             	and    $0xfffffff8,%esi
    4ff6:	46                   	inc    %esi
    4ff7:	eb 9d                	jmp    4f96 <sheet_get_row_width+0x86>
    4ff9:	8d b4 26 00 00 00 00 	lea    0x0(%esi,%eiz,1),%esi
    5000:	8b 45 10             	mov    0x10(%ebp),%eax
    5003:	89 30                	mov    %esi,(%eax)
    5005:	83 c4 3c             	add    $0x3c,%esp
    5008:	5b                   	pop    %ebx
    5009:	5e                   	pop    %esi
    500a:	5f                   	pop    %edi
    500b:	5d                   	pop    %ebp
    500c:	c3                   	ret    
    500d:	8d 76 00             	lea    0x0(%esi),%esi

00005010 <sheet_get_num_rows>:
    5010:	55                   	push   %ebp
    5011:	89 e5                	mov    %esp,%ebp
    5013:	53                   	push   %ebx
    5014:	8b 45 08             	mov    0x8(%ebp),%eax
    5017:	8b 58 04             	mov    0x4(%eax),%ebx
    501a:	85 db                	test   %ebx,%ebx
    501c:	74 2e                	je     504c <sheet_get_num_rows+0x3c>
    501e:	8b 40 08             	mov    0x8(%eax),%eax
    5021:	ba 01 00 00 00       	mov    $0x1,%edx
    5026:	01 c3                	add    %eax,%ebx
    5028:	eb 0b                	jmp    5035 <sheet_get_num_rows+0x25>
    502a:	8d b6 00 00 00 00    	lea    0x0(%esi),%esi
    5030:	40                   	inc    %eax
    5031:	39 d8                	cmp    %ebx,%eax
    5033:	74 0f                	je     5044 <sheet_get_num_rows+0x34>
    5035:	8d 4a 01             	lea    0x1(%edx),%ecx
    5038:	80 38 0a             	cmpb   $0xa,(%eax)
    503b:	75 f3                	jne    5030 <sheet_get_num_rows+0x20>
    503d:	40                   	inc    %eax
    503e:	89 ca                	mov    %ecx,%edx
    5040:	39 d8                	cmp    %ebx,%eax
    5042:	75 f1                	jne    5035 <sheet_get_num_rows+0x25>
    5044:	8b 45 0c             	mov    0xc(%ebp),%eax
    5047:	89 10                	mov    %edx,(%eax)
    5049:	5b                   	pop    %ebx
    504a:	5d                   	pop    %ebp
    504b:	c3                   	ret    
    504c:	ba 01 00 00 00       	mov    $0x1,%edx
    5051:	eb f1                	jmp    5044 <sheet_get_num_rows+0x34>
    5053:	8d b6 00 00 00 00    	lea    0x0(%esi),%esi
    5059:	8d bc 27 00 00 00 00 	lea    0x0(%edi,%eiz,1),%edi

00005060 <spt_get_coord>:
    5060:	55                   	push   %ebp
    5061:	31 c0                	xor    %eax,%eax
    5063:	89 e5                	mov    %esp,%ebp
    5065:	57                   	push   %edi
    5066:	56                   	push   %esi
    5067:	53                   	push   %ebx
    5068:	83 ec 3c             	sub    $0x3c,%esp
    506b:	bb 01 00 00 00       	mov    $0x1,%ebx
    5070:	8b 55 08             	mov    0x8(%ebp),%edx
    5073:	c7 45 e4 00 00 00 00 	movl   $0x0,-0x1c(%ebp)
    507a:	c7 45 d4 01 00 00 00 	movl   $0x1,-0x2c(%ebp)
    5081:	8d 7d e4             	lea    -0x1c(%ebp),%edi
    5084:	8b 32                	mov    (%edx),%esi
    5086:	eb 0c                	jmp    5094 <spt_get_coord+0x34>
    5088:	83 f8 09             	cmp    $0x9,%eax
    508b:	74 3b                	je     50c8 <spt_get_coord+0x68>
    508d:	43                   	inc    %ebx
    508e:	8b 45 e4             	mov    -0x1c(%ebp),%eax
    5091:	8b 55 08             	mov    0x8(%ebp),%edx
    5094:	39 42 04             	cmp    %eax,0x4(%edx)
    5097:	76 3f                	jbe    50d8 <spt_get_coord+0x78>
    5099:	8b 0e                	mov    (%esi),%ecx
    509b:	39 c1                	cmp    %eax,%ecx
    509d:	76 39                	jbe    50d8 <spt_get_coord+0x78>
    509f:	89 4c 24 08          	mov    %ecx,0x8(%esp)
    50a3:	89 7c 24 04          	mov    %edi,0x4(%esp)
    50a7:	8b 46 08             	mov    0x8(%esi),%eax
    50aa:	89 04 24             	mov    %eax,(%esp)
    50ad:	e8 1e 15 00 00       	call   65d0 <str_decode>
    50b2:	83 f8 0a             	cmp    $0xa,%eax
    50b5:	75 d1                	jne    5088 <spt_get_coord+0x28>
    50b7:	8b 45 d4             	mov    -0x2c(%ebp),%eax
    50ba:	bb 01 00 00 00       	mov    $0x1,%ebx
    50bf:	40                   	inc    %eax
    50c0:	89 45 d4             	mov    %eax,-0x2c(%ebp)
    50c3:	eb c9                	jmp    508e <spt_get_coord+0x2e>
    50c5:	8d 76 00             	lea    0x0(%esi),%esi
    50c8:	83 c3 07             	add    $0x7,%ebx
    50cb:	83 e3 f8             	and    $0xfffffff8,%ebx
    50ce:	43                   	inc    %ebx
    50cf:	eb bd                	jmp    508e <spt_get_coord+0x2e>
    50d1:	8d b4 26 00 00 00 00 	lea    0x0(%esi,%eiz,1),%esi
    50d8:	8b 55 0c             	mov    0xc(%ebp),%edx
    50db:	8b 45 d4             	mov    -0x2c(%ebp),%eax
    50de:	89 02                	mov    %eax,(%edx)
    50e0:	89 5a 04             	mov    %ebx,0x4(%edx)
    50e3:	83 c4 3c             	add    $0x3c,%esp
    50e6:	5b                   	pop    %ebx
    50e7:	5e                   	pop    %esi
    50e8:	5f                   	pop    %edi
    50e9:	5d                   	pop    %ebp
    50ea:	c3                   	ret    
    50eb:	90                   	nop
    50ec:	8d 74 26 00          	lea    0x0(%esi,%eiz,1),%esi

000050f0 <spt_equal>:
    50f0:	55                   	push   %ebp
    50f1:	89 e5                	mov    %esp,%ebp
    50f3:	8b 45 0c             	mov    0xc(%ebp),%eax
    50f6:	8b 55 08             	mov    0x8(%ebp),%edx
    50f9:	5d                   	pop    %ebp
    50fa:	8b 48 04             	mov    0x4(%eax),%ecx
    50fd:	39 4a 04             	cmp    %ecx,0x4(%edx)
    5100:	0f 94 c0             	sete   %al
    5103:	c3                   	ret    
    5104:	8d b6 00 00 00 00    	lea    0x0(%esi),%esi
    510a:	8d bf 00 00 00 00    	lea    0x0(%edi),%edi

00005110 <spt_next_char>:
    5110:	55                   	push   %ebp
    5111:	89 e5                	mov    %esp,%ebp
    5113:	53                   	push   %ebx
    5114:	83 ec 14             	sub    $0x14,%esp
    5117:	8b 45 08             	mov    0x8(%ebp),%eax
    511a:	8b 5d 10             	mov    0x10(%ebp),%ebx
    511d:	8b 10                	mov    (%eax),%edx
    511f:	89 54 24 08          	mov    %edx,0x8(%esp)
    5123:	8d 55 0c             	lea    0xc(%ebp),%edx
    5126:	89 54 24 04          	mov    %edx,0x4(%esp)
    512a:	8b 40 08             	mov    0x8(%eax),%eax
    512d:	89 04 24             	mov    %eax,(%esp)
    5130:	e8 9b 14 00 00       	call   65d0 <str_decode>
    5135:	85 db                	test   %ebx,%ebx
    5137:	74 0b                	je     5144 <spt_next_char+0x34>
    5139:	8b 55 08             	mov    0x8(%ebp),%edx
    513c:	8b 4d 0c             	mov    0xc(%ebp),%ecx
    513f:	89 13                	mov    %edx,(%ebx)
    5141:	89 4b 04             	mov    %ecx,0x4(%ebx)
    5144:	83 c4 14             	add    $0x14,%esp
    5147:	5b                   	pop    %ebx
    5148:	5d                   	pop    %ebp
    5149:	c3                   	ret    
    514a:	8d b6 00 00 00 00    	lea    0x0(%esi),%esi

00005150 <spt_prev_char>:
    5150:	55                   	push   %ebp
    5151:	89 e5                	mov    %esp,%ebp
    5153:	53                   	push   %ebx
    5154:	83 ec 14             	sub    $0x14,%esp
    5157:	8b 45 08             	mov    0x8(%ebp),%eax
    515a:	8b 5d 10             	mov    0x10(%ebp),%ebx
    515d:	8b 10                	mov    (%eax),%edx
    515f:	89 54 24 08          	mov    %edx,0x8(%esp)
    5163:	8d 55 0c             	lea    0xc(%ebp),%edx
    5166:	89 54 24 04          	mov    %edx,0x4(%esp)
    516a:	8b 40 08             	mov    0x8(%eax),%eax
    516d:	89 04 24             	mov    %eax,(%esp)
    5170:	e8 5b 15 00 00       	call   66d0 <str_decode_reverse>
    5175:	85 db                	test   %ebx,%ebx
    5177:	74 0b                	je     5184 <spt_prev_char+0x34>
    5179:	8b 55 08             	mov    0x8(%ebp),%edx
    517c:	8b 4d 0c             	mov    0xc(%ebp),%ecx
    517f:	89 13                	mov    %edx,(%ebx)
    5181:	89 4b 04             	mov    %ecx,0x4(%ebx)
    5184:	83 c4 14             	add    $0x14,%esp
    5187:	5b                   	pop    %ebx
    5188:	5d                   	pop    %ebp
    5189:	c3                   	ret    
    518a:	8d b6 00 00 00 00    	lea    0x0(%esi),%esi

00005190 <sheet_place_tag>:
    5190:	55                   	push   %ebp
    5191:	89 e5                	mov    %esp,%ebp
    5193:	8b 4d 0c             	mov    0xc(%ebp),%ecx
    5196:	8b 45 10             	mov    0x10(%ebp),%eax
    5199:	8b 55 08             	mov    0x8(%ebp),%edx
    519c:	8b 49 04             	mov    0x4(%ecx),%ecx
    519f:	89 50 08             	mov    %edx,0x8(%eax)
    51a2:	89 48 0c             	mov    %ecx,0xc(%eax)
    51a5:	8d 4a 0c             	lea    0xc(%edx),%ecx
    51a8:	89 48 04             	mov    %ecx,0x4(%eax)
    51ab:	8b 4a 0c             	mov    0xc(%edx),%ecx
    51ae:	89 08                	mov    %ecx,(%eax)
    51b0:	8b 4a 0c             	mov    0xc(%edx),%ecx
    51b3:	89 42 0c             	mov    %eax,0xc(%edx)
    51b6:	89 41 04             	mov    %eax,0x4(%ecx)
    51b9:	5d                   	pop    %ebp
    51ba:	c3                   	ret    
    51bb:	90                   	nop
    51bc:	8d 74 26 00          	lea    0x0(%esi,%eiz,1),%esi

000051c0 <sheet_remove_tag>:
    51c0:	55                   	push   %ebp
    51c1:	89 e5                	mov    %esp,%ebp
    51c3:	8b 45 0c             	mov    0xc(%ebp),%eax
    51c6:	8b 08                	mov    (%eax),%ecx
    51c8:	85 c9                	test   %ecx,%ecx
    51ca:	74 0e                	je     51da <sheet_remove_tag+0x1a>
    51cc:	8b 50 04             	mov    0x4(%eax),%edx
    51cf:	85 d2                	test   %edx,%edx
    51d1:	74 07                	je     51da <sheet_remove_tag+0x1a>
    51d3:	89 0a                	mov    %ecx,(%edx)
    51d5:	8b 08                	mov    (%eax),%ecx
    51d7:	89 51 04             	mov    %edx,0x4(%ecx)
    51da:	c7 00 00 00 00 00    	movl   $0x0,(%eax)
    51e0:	c7 40 04 00 00 00 00 	movl   $0x0,0x4(%eax)
    51e7:	5d                   	pop    %ebp
    51e8:	c3                   	ret    
    51e9:	8d b4 26 00 00 00 00 	lea    0x0(%esi,%eiz,1),%esi

000051f0 <tag_get_pt>:
    51f0:	55                   	push   %ebp
    51f1:	89 e5                	mov    %esp,%ebp
    51f3:	8b 55 08             	mov    0x8(%ebp),%edx
    51f6:	8b 45 0c             	mov    0xc(%ebp),%eax
    51f9:	8b 4a 0c             	mov    0xc(%edx),%ecx
    51fc:	8b 52 08             	mov    0x8(%edx),%edx
    51ff:	89 48 04             	mov    %ecx,0x4(%eax)
    5202:	89 10                	mov    %edx,(%eax)
    5204:	5d                   	pop    %ebp
    5205:	c3                   	ret    
    5206:	66 90                	xchg   %ax,%ax
    5208:	66 90                	xchg   %ax,%ax
    520a:	66 90                	xchg   %ax,%ax
    520c:	66 90                	xchg   %ax,%ax
    520e:	66 90                	xchg   %ax,%ax

00005210 <search_init>:
    5210:	55                   	push   %ebp
    5211:	89 e5                	mov    %esp,%ebp
    5213:	57                   	push   %edi
    5214:	56                   	push   %esi
    5215:	53                   	push   %ebx
    5216:	83 ec 2c             	sub    $0x2c,%esp
    5219:	0f b6 7d 20          	movzbl 0x20(%ebp),%edi
    521d:	c7 44 24 04 24 00 00 	movl   $0x24,0x4(%esp)
    5224:	00 
    5225:	c7 04 24 01 00 00 00 	movl   $0x1,(%esp)
    522c:	e8 4f e0 00 00       	call   13280 <calloc>
    5231:	89 c3                	mov    %eax,%ebx
    5233:	85 c0                	test   %eax,%eax
    5235:	0f 84 bb 00 00 00    	je     52f6 <search_init+0xe6>
    523b:	8b 45 08             	mov    0x8(%ebp),%eax
    523e:	89 04 24             	mov    %eax,(%esp)
    5241:	e8 5a 30 00 00       	call   82a0 <str_to_awstr>
    5246:	89 c6                	mov    %eax,%esi
    5248:	85 c0                	test   %eax,%eax
    524a:	0f 84 11 01 00 00    	je     5361 <search_init+0x151>
    5250:	89 04 24             	mov    %eax,(%esp)
    5253:	e8 78 1a 00 00       	call   6cd0 <wstr_length>
    5258:	89 fa                	mov    %edi,%edx
    525a:	89 43 04             	mov    %eax,0x4(%ebx)
    525d:	84 d2                	test   %dl,%dl
    525f:	0f 85 b3 00 00 00    	jne    5318 <search_init+0x108>
    5265:	8b 55 0c             	mov    0xc(%ebp),%edx
    5268:	89 33                	mov    %esi,(%ebx)
    526a:	89 53 10             	mov    %edx,0x10(%ebx)
    526d:	8b 55 10             	mov    0x10(%ebp),%edx
    5270:	89 53 14             	mov    %edx,0x14(%ebx)
    5273:	8b 55 14             	mov    0x14(%ebp),%edx
    5276:	89 53 18             	mov    %edx,0x18(%ebx)
    5279:	8b 55 18             	mov    0x18(%ebp),%edx
    527c:	89 53 1c             	mov    %edx,0x1c(%ebx)
    527f:	8b 55 1c             	mov    0x1c(%ebp),%edx
    5282:	89 53 20             	mov    %edx,0x20(%ebx)
    5285:	c7 44 24 04 04 00 00 	movl   $0x4,0x4(%esp)
    528c:	00 
    528d:	89 04 24             	mov    %eax,(%esp)
    5290:	e8 eb df 00 00       	call   13280 <calloc>
    5295:	89 43 08             	mov    %eax,0x8(%ebx)
    5298:	85 c0                	test   %eax,%eax
    529a:	0f 84 b7 00 00 00    	je     5357 <search_init+0x147>
    52a0:	c7 43 0c 00 00 00 00 	movl   $0x0,0xc(%ebx)
    52a7:	c7 00 ff ff ff ff    	movl   $0xffffffff,(%eax)
    52ad:	c7 40 04 00 00 00 00 	movl   $0x0,0x4(%eax)
    52b4:	31 ff                	xor    %edi,%edi
    52b6:	be 02 00 00 00       	mov    $0x2,%esi
    52bb:	90                   	nop
    52bc:	8d 74 26 00          	lea    0x0(%esi,%eiz,1),%esi
    52c0:	3b 73 04             	cmp    0x4(%ebx),%esi
    52c3:	73 31                	jae    52f6 <search_init+0xe6>
    52c5:	8b 03                	mov    (%ebx),%eax
    52c7:	8d 14 bd 00 00 00 00 	lea    0x0(,%edi,4),%edx
    52ce:	8b 0c 10             	mov    (%eax,%edx,1),%ecx
    52d1:	89 4c 24 04          	mov    %ecx,0x4(%esp)
    52d5:	8b 44 b0 fc          	mov    -0x4(%eax,%esi,4),%eax
    52d9:	89 55 e0             	mov    %edx,-0x20(%ebp)
    52dc:	89 04 24             	mov    %eax,(%esp)
    52df:	ff 55 10             	call   *0x10(%ebp)
    52e2:	8b 55 e0             	mov    -0x20(%ebp),%edx
    52e5:	84 c0                	test   %al,%al
    52e7:	74 17                	je     5300 <search_init+0xf0>
    52e9:	8b 43 08             	mov    0x8(%ebx),%eax
    52ec:	47                   	inc    %edi
    52ed:	89 3c b0             	mov    %edi,(%eax,%esi,4)
    52f0:	46                   	inc    %esi
    52f1:	3b 73 04             	cmp    0x4(%ebx),%esi
    52f4:	72 cf                	jb     52c5 <search_init+0xb5>
    52f6:	83 c4 2c             	add    $0x2c,%esp
    52f9:	89 d8                	mov    %ebx,%eax
    52fb:	5b                   	pop    %ebx
    52fc:	5e                   	pop    %esi
    52fd:	5f                   	pop    %edi
    52fe:	5d                   	pop    %ebp
    52ff:	c3                   	ret    
    5300:	85 ff                	test   %edi,%edi
    5302:	74 0c                	je     5310 <search_init+0x100>
    5304:	8b 43 08             	mov    0x8(%ebx),%eax
    5307:	8b 3c 10             	mov    (%eax,%edx,1),%edi
    530a:	eb b4                	jmp    52c0 <search_init+0xb0>
    530c:	8d 74 26 00          	lea    0x0(%esi,%eiz,1),%esi
    5310:	46                   	inc    %esi
    5311:	eb ad                	jmp    52c0 <search_init+0xb0>
    5313:	90                   	nop
    5314:	8d 74 26 00          	lea    0x0(%esi,%eiz,1),%esi
    5318:	89 c7                	mov    %eax,%edi
    531a:	d1 ef                	shr    %edi
    531c:	0f 84 43 ff ff ff    	je     5265 <search_init+0x55>
    5322:	8d 3c be             	lea    (%esi,%edi,4),%edi
    5325:	8d 0c 86             	lea    (%esi,%eax,4),%ecx
    5328:	89 45 e4             	mov    %eax,-0x1c(%ebp)
    532b:	89 f2                	mov    %esi,%edx
    532d:	89 5d dc             	mov    %ebx,-0x24(%ebp)
    5330:	89 f8                	mov    %edi,%eax
    5332:	8d b6 00 00 00 00    	lea    0x0(%esi),%esi
    5338:	8b 59 fc             	mov    -0x4(%ecx),%ebx
    533b:	8b 3a                	mov    (%edx),%edi
    533d:	89 1a                	mov    %ebx,(%edx)
    533f:	83 c2 04             	add    $0x4,%edx
    5342:	89 79 fc             	mov    %edi,-0x4(%ecx)
    5345:	83 e9 04             	sub    $0x4,%ecx
    5348:	39 c2                	cmp    %eax,%edx
    534a:	75 ec                	jne    5338 <search_init+0x128>
    534c:	8b 5d dc             	mov    -0x24(%ebp),%ebx
    534f:	8b 45 e4             	mov    -0x1c(%ebp),%eax
    5352:	e9 0e ff ff ff       	jmp    5265 <search_init+0x55>
    5357:	8b 03                	mov    (%ebx),%eax
    5359:	89 04 24             	mov    %eax,(%esp)
    535c:	e8 8f e0 00 00       	call   133f0 <free>
    5361:	89 1c 24             	mov    %ebx,(%esp)
    5364:	31 db                	xor    %ebx,%ebx
    5366:	e8 85 e0 00 00       	call   133f0 <free>
    536b:	eb 89                	jmp    52f6 <search_init+0xe6>
    536d:	8d 76 00             	lea    0x0(%esi),%esi

00005370 <search_next_match>:
    5370:	55                   	push   %ebp
    5371:	89 e5                	mov    %esp,%ebp
    5373:	57                   	push   %edi
    5374:	56                   	push   %esi
    5375:	53                   	push   %ebx
    5376:	83 ec 2c             	sub    $0x2c,%esp
    5379:	8d 7d e4             	lea    -0x1c(%ebp),%edi
    537c:	8b 5d 08             	mov    0x8(%ebp),%ebx
    537f:	8b 73 14             	mov    0x14(%ebx),%esi
    5382:	8d b6 00 00 00 00    	lea    0x0(%esi),%esi
    5388:	89 7c 24 04          	mov    %edi,0x4(%esp)
    538c:	8b 43 10             	mov    0x10(%ebx),%eax
    538f:	89 04 24             	mov    %eax,(%esp)
    5392:	ff 53 18             	call   *0x18(%ebx)
    5395:	85 c0                	test   %eax,%eax
    5397:	0f 85 9f 00 00 00    	jne    543c <search_next_match+0xcc>
    539d:	8b 55 e4             	mov    -0x1c(%ebp),%edx
    53a0:	85 d2                	test   %edx,%edx
    53a2:	0f 8e 94 00 00 00    	jle    543c <search_next_match+0xcc>
    53a8:	8b 43 0c             	mov    0xc(%ebx),%eax
    53ab:	85 c0                	test   %eax,%eax
    53ad:	75 1c                	jne    53cb <search_next_match+0x5b>
    53af:	e9 84 00 00 00       	jmp    5438 <search_next_match+0xc8>
    53b4:	8d 74 26 00          	lea    0x0(%esi,%eiz,1),%esi
    53b8:	8b 53 0c             	mov    0xc(%ebx),%edx
    53bb:	8b 43 08             	mov    0x8(%ebx),%eax
    53be:	8b 04 90             	mov    (%eax,%edx,4),%eax
    53c1:	8b 55 e4             	mov    -0x1c(%ebp),%edx
    53c4:	89 43 0c             	mov    %eax,0xc(%ebx)
    53c7:	85 c0                	test   %eax,%eax
    53c9:	74 6d                	je     5438 <search_next_match+0xc8>
    53cb:	8b 0b                	mov    (%ebx),%ecx
    53cd:	8b 04 81             	mov    (%ecx,%eax,4),%eax
    53d0:	89 14 24             	mov    %edx,(%esp)
    53d3:	89 44 24 04          	mov    %eax,0x4(%esp)
    53d7:	ff d6                	call   *%esi
    53d9:	84 c0                	test   %al,%al
    53db:	74 db                	je     53b8 <search_next_match+0x48>
    53dd:	8b 4b 0c             	mov    0xc(%ebx),%ecx
    53e0:	8b 55 e4             	mov    -0x1c(%ebp),%edx
    53e3:	8b 03                	mov    (%ebx),%eax
    53e5:	8b 04 88             	mov    (%eax,%ecx,4),%eax
    53e8:	89 14 24             	mov    %edx,(%esp)
    53eb:	89 44 24 04          	mov    %eax,0x4(%esp)
    53ef:	ff d6                	call   *%esi
    53f1:	84 c0                	test   %al,%al
    53f3:	74 93                	je     5388 <search_next_match+0x18>
    53f5:	8b 43 0c             	mov    0xc(%ebx),%eax
    53f8:	40                   	inc    %eax
    53f9:	89 43 0c             	mov    %eax,0xc(%ebx)
    53fc:	3b 43 04             	cmp    0x4(%ebx),%eax
    53ff:	75 87                	jne    5388 <search_next_match+0x18>
    5401:	8b 53 08             	mov    0x8(%ebx),%edx
    5404:	8b 04 82             	mov    (%edx,%eax,4),%eax
    5407:	89 43 0c             	mov    %eax,0xc(%ebx)
    540a:	8b 45 0c             	mov    0xc(%ebp),%eax
    540d:	83 c0 08             	add    $0x8,%eax
    5410:	89 44 24 04          	mov    %eax,0x4(%esp)
    5414:	8b 43 10             	mov    0x10(%ebx),%eax
    5417:	89 04 24             	mov    %eax,(%esp)
    541a:	ff 53 1c             	call   *0x1c(%ebx)
    541d:	85 c0                	test   %eax,%eax
    541f:	75 32                	jne    5453 <search_next_match+0xe3>
    5421:	8b 55 0c             	mov    0xc(%ebp),%edx
    5424:	8b 4b 04             	mov    0x4(%ebx),%ecx
    5427:	89 0a                	mov    %ecx,(%edx)
    5429:	c7 42 04 00 00 00 00 	movl   $0x0,0x4(%edx)
    5430:	83 c4 2c             	add    $0x2c,%esp
    5433:	5b                   	pop    %ebx
    5434:	5e                   	pop    %esi
    5435:	5f                   	pop    %edi
    5436:	5d                   	pop    %ebp
    5437:	c3                   	ret    
    5438:	31 c9                	xor    %ecx,%ecx
    543a:	eb a7                	jmp    53e3 <search_next_match+0x73>
    543c:	8b 55 0c             	mov    0xc(%ebp),%edx
    543f:	c7 42 08 00 00 00 00 	movl   $0x0,0x8(%edx)
    5446:	c7 02 00 00 00 00    	movl   $0x0,(%edx)
    544c:	c7 42 04 00 00 00 00 	movl   $0x0,0x4(%edx)
    5453:	83 c4 2c             	add    $0x2c,%esp
    5456:	5b                   	pop    %ebx
    5457:	5e                   	pop    %esi
    5458:	5f                   	pop    %edi
    5459:	5d                   	pop    %ebp
    545a:	c3                   	ret    
    545b:	90                   	nop
    545c:	8d 74 26 00          	lea    0x0(%esi,%eiz,1),%esi

00005460 <search_fini>:
    5460:	55                   	push   %ebp
    5461:	89 e5                	mov    %esp,%ebp
    5463:	53                   	push   %ebx
    5464:	83 ec 14             	sub    $0x14,%esp
    5467:	8b 5d 08             	mov    0x8(%ebp),%ebx
    546a:	8b 03                	mov    (%ebx),%eax
    546c:	89 04 24             	mov    %eax,(%esp)
    546f:	e8 7c df 00 00       	call   133f0 <free>
    5474:	8b 43 08             	mov    0x8(%ebx),%eax
    5477:	89 45 08             	mov    %eax,0x8(%ebp)
    547a:	83 c4 14             	add    $0x14,%esp
    547d:	5b                   	pop    %ebx
    547e:	5d                   	pop    %ebp
    547f:	e9 6c df 00 00       	jmp    133f0 <free>
    5484:	8d b6 00 00 00 00    	lea    0x0(%esi),%esi
    548a:	8d bf 00 00 00 00    	lea    0x0(%edi),%edi

00005490 <char_exact_equals>:
    5490:	55                   	push   %ebp
    5491:	89 e5                	mov    %esp,%ebp
    5493:	8b 45 0c             	mov    0xc(%ebp),%eax
    5496:	39 45 08             	cmp    %eax,0x8(%ebp)
    5499:	5d                   	pop    %ebp
    549a:	0f 94 c0             	sete   %al
    549d:	c3                   	ret    
    549e:	66 90                	xchg   %ax,%ax

000054a0 <exit>:
    54a0:	55                   	push   %ebp
    54a1:	89 e5                	mov    %esp,%ebp
    54a3:	83 ec 28             	sub    $0x28,%esp
    54a6:	80 3d b0 58 02 00 00 	cmpb   $0x0,0x258b0
    54ad:	75 3f                	jne    54ee <exit+0x4e>
    54af:	c7 44 24 18 0a 00 00 	movl   $0xa,0x18(%esp)
    54b6:	00 
    54b7:	c7 44 24 14 00 00 00 	movl   $0x0,0x14(%esp)
    54be:	00 
    54bf:	c7 44 24 10 00 00 00 	movl   $0x0,0x10(%esp)
    54c6:	00 
    54c7:	c7 44 24 0c 00 00 00 	movl   $0x0,0xc(%esp)
    54ce:	00 
    54cf:	c7 44 24 08 00 00 00 	movl   $0x0,0x8(%esp)
    54d6:	00 
    54d7:	c7 44 24 04 00 00 00 	movl   $0x0,0x4(%esp)
    54de:	00 
    54df:	c7 04 24 00 00 00 00 	movl   $0x0,(%esp)
    54e6:	ff 15 94 57 02 00    	call   *0x25794
    54ec:	eb fe                	jmp    54ec <exit+0x4c>
    54ee:	e8 0d 66 00 00       	call   bb00 <__stdio_done>
    54f3:	8b 45 08             	mov    0x8(%ebp),%eax
    54f6:	89 04 24             	mov    %eax,(%esp)
    54f9:	e8 82 60 00 00       	call   b580 <task_retval>
    54fe:	65 a1 00 00 00 00    	mov    %gs:0x0,%eax
    5504:	8b 40 04             	mov    0x4(%eax),%eax
    5507:	89 04 24             	mov    %eax,(%esp)
    550a:	e8 61 3e 00 00       	call   9370 <fibril_teardown>
    550f:	eb 9e                	jmp    54af <exit+0xf>
    5511:	eb 0d                	jmp    5520 <abort>
    5513:	90                   	nop
    5514:	90                   	nop
    5515:	90                   	nop
    5516:	90                   	nop
    5517:	90                   	nop
    5518:	90                   	nop
    5519:	90                   	nop
    551a:	90                   	nop
    551b:	90                   	nop
    551c:	90                   	nop
    551d:	90                   	nop
    551e:	90                   	nop
    551f:	90                   	nop

00005520 <abort>:
    5520:	55                   	push   %ebp
    5521:	89 e5                	mov    %esp,%ebp
    5523:	83 ec 28             	sub    $0x28,%esp
    5526:	c7 44 24 18 0a 00 00 	movl   $0xa,0x18(%esp)
    552d:	00 
    552e:	c7 44 24 14 00 00 00 	movl   $0x0,0x14(%esp)
    5535:	00 
    5536:	c7 44 24 10 00 00 00 	movl   $0x0,0x10(%esp)
    553d:	00 
    553e:	c7 44 24 0c 00 00 00 	movl   $0x0,0xc(%esp)
    5545:	00 
    5546:	c7 44 24 08 00 00 00 	movl   $0x0,0x8(%esp)
    554d:	00 
    554e:	c7 44 24 04 00 00 00 	movl   $0x0,0x4(%esp)
    5555:	00 
    5556:	c7 04 24 01 00 00 00 	movl   $0x1,(%esp)
    555d:	ff 15 94 57 02 00    	call   *0x25794
    5563:	eb fe                	jmp    5563 <abort+0x43>
    5565:	8d 74 26 00          	lea    0x0(%esi,%eiz,1),%esi
    5569:	8d bc 27 00 00 00 00 	lea    0x0(%edi,%eiz,1),%edi

00005570 <__main>:
    5570:	55                   	push   %ebp
    5571:	89 e5                	mov    %esp,%ebp
    5573:	57                   	push   %edi
    5574:	56                   	push   %esi
    5575:	53                   	push   %ebx
    5576:	83 ec 2c             	sub    $0x2c,%esp
    5579:	8b 5d 08             	mov    0x8(%ebp),%ebx
    557c:	e8 5f dc 00 00       	call   131e0 <__malloc_init>
    5581:	e8 6a fb 00 00       	call   150f0 <__async_init>
    5586:	e8 65 3d 00 00       	call   92f0 <fibril_setup>
    558b:	85 c0                	test   %eax,%eax
    558d:	0f 84 82 00 00 00    	je     5615 <__main+0xa5>
    5593:	c7 44 24 18 01 00 00 	movl   $0x1,0x18(%esp)
    559a:	00 
    559b:	c7 44 24 14 00 00 00 	movl   $0x0,0x14(%esp)
    55a2:	00 
    55a3:	c7 44 24 10 00 00 00 	movl   $0x0,0x10(%esp)
    55aa:	00 
    55ab:	c7 44 24 0c 00 00 00 	movl   $0x0,0xc(%esp)
    55b2:	00 
    55b3:	c7 44 24 08 00 00 00 	movl   $0x0,0x8(%esp)
    55ba:	00 
    55bb:	c7 44 24 04 00 00 00 	movl   $0x0,0x4(%esp)
    55c2:	00 
    55c3:	8b 40 30             	mov    0x30(%eax),%eax
    55c6:	89 04 24             	mov    %eax,(%esp)
    55c9:	ff 15 94 57 02 00    	call   *0x25794
    55cf:	89 1d 20 58 02 00    	mov    %ebx,0x25820
    55d5:	c6 05 b0 58 02 00 01 	movb   $0x1,0x258b0
    55dc:	85 db                	test   %ebx,%ebx
    55de:	74 3a                	je     561a <__main+0xaa>
    55e0:	8b 43 10             	mov    0x10(%ebx),%eax
    55e3:	8b 73 08             	mov    0x8(%ebx),%esi
    55e6:	8b 7b 0c             	mov    0xc(%ebx),%edi
    55e9:	89 04 24             	mov    %eax,(%esp)
    55ec:	e8 7f 62 00 00       	call   b870 <__stdio_init>
    55f1:	a1 20 58 02 00       	mov    0x25820,%eax
    55f6:	8b 40 04             	mov    0x4(%eax),%eax
    55f9:	89 04 24             	mov    %eax,(%esp)
    55fc:	e8 4f 78 01 00       	call   1ce50 <chdir>
    5601:	89 7c 24 04          	mov    %edi,0x4(%esp)
    5605:	89 34 24             	mov    %esi,(%esp)
    5608:	e8 a3 df ff ff       	call   35b0 <main>
    560d:	89 04 24             	mov    %eax,(%esp)
    5610:	e8 8b fe ff ff       	call   54a0 <exit>
    5615:	e8 06 ff ff ff       	call   5520 <abort>
    561a:	c7 04 24 00 00 00 00 	movl   $0x0,(%esp)
    5621:	31 ff                	xor    %edi,%edi
    5623:	e8 48 62 00 00       	call   b870 <__stdio_init>
    5628:	31 f6                	xor    %esi,%esi
    562a:	eb d5                	jmp    5601 <__main+0x91>
    562c:	66 90                	xchg   %ax,%ax
    562e:	66 90                	xchg   %ax,%ax

00005630 <clipboard_put_str>:
    5630:	55                   	push   %ebp
    5631:	89 e5                	mov    %esp,%ebp
    5633:	57                   	push   %edi
