
xtkbd:     file format elf32-i386


Disassembly of section .init:

00001094 <__entry>:
    1094:	66 8c d0             	mov    %ss,%ax
    1097:	8e d8                	mov    %eax,%ds
    1099:	8e c0                	mov    %eax,%es
    109b:	8e e0                	mov    %eax,%fs
    109d:	b8 01 00 00 00       	mov    $0x1,%eax
    10a2:	0f a2                	cpuid  
    10a4:	0f ba e2 0b          	bt     $0xb,%edx
    10a8:	73 0c                	jae    10b6 <__entry+0x22>
    10aa:	8d 05 50 93 02 00    	lea    0x29350,%eax
    10b0:	c7 00 f7 14 02 00    	movl   $0x214f7,(%eax)
    10b6:	6a 00                	push   $0x0
    10b8:	89 e5                	mov    %esp,%ebp
    10ba:	57                   	push   %edi
    10bb:	e8 50 61 00 00       	call   7210 <__main>

Disassembly of section .text:

000010c0 <chardev_read>:
    10c0:	55                   	push   %ebp
    10c1:	89 e5                	mov    %esp,%ebp
    10c3:	57                   	push   %edi
    10c4:	56                   	push   %esi
    10c5:	53                   	push   %ebx
    10c6:	83 ec 4c             	sub    $0x4c,%esp
    10c9:	8b 45 08             	mov    0x8(%ebp),%eax
    10cc:	8b 5d 10             	mov    0x10(%ebp),%ebx
    10cf:	85 c0                	test   %eax,%eax
    10d1:	0f 84 b8 00 00 00    	je     118f <chardev_read+0xcf>
    10d7:	83 fb 10             	cmp    $0x10,%ebx
    10da:	0f 87 a8 00 00 00    	ja     1188 <chardev_read+0xc8>
    10e0:	8d 55 e4             	lea    -0x1c(%ebp),%edx
    10e3:	8d 7d d8             	lea    -0x28(%ebp),%edi
    10e6:	89 54 24 24          	mov    %edx,0x24(%esp)
    10ea:	8d 55 e0             	lea    -0x20(%ebp),%edx
    10ed:	89 54 24 20          	mov    %edx,0x20(%esp)
    10f1:	8d 55 dc             	lea    -0x24(%ebp),%edx
    10f4:	c7 44 24 28 00 00 00 	movl   $0x0,0x28(%esp)
    10fb:	00 
    10fc:	89 54 24 1c          	mov    %edx,0x1c(%esp)
    1100:	89 7c 24 18          	mov    %edi,0x18(%esp)
    1104:	c7 44 24 14 00 00 00 	movl   $0x0,0x14(%esp)
    110b:	00 
    110c:	c7 44 24 10 00 00 00 	movl   $0x0,0x10(%esp)
    1113:	00 
    1114:	c7 44 24 0c 00 00 00 	movl   $0x0,0xc(%esp)
    111b:	00 
    111c:	89 5c 24 08          	mov    %ebx,0x8(%esp)
    1120:	c7 44 24 04 0b 04 00 	movl   $0x40b,0x4(%esp)
    1127:	00 
    1128:	89 04 24             	mov    %eax,(%esp)
    112b:	c7 45 d8 00 00 00 00 	movl   $0x0,-0x28(%ebp)
    1132:	c7 45 dc 00 00 00 00 	movl   $0x0,-0x24(%ebp)
    1139:	c7 45 e0 00 00 00 00 	movl   $0x0,-0x20(%ebp)
    1140:	c7 45 e4 00 00 00 00 	movl   $0x0,-0x1c(%ebp)
    1147:	e8 e4 7d 01 00       	call   18f30 <async_req_fast>
    114c:	89 c6                	mov    %eax,%esi
    114e:	85 c0                	test   %eax,%eax
    1150:	7f 0e                	jg     1160 <chardev_read+0xa0>
    1152:	89 f0                	mov    %esi,%eax
    1154:	83 c4 4c             	add    $0x4c,%esp
    1157:	5b                   	pop    %ebx
    1158:	5e                   	pop    %esi
    1159:	5f                   	pop    %edi
    115a:	5d                   	pop    %ebp
    115b:	c3                   	ret    
    115c:	8d 74 26 00          	lea    0x0(%esi,%eiz,1),%esi
    1160:	39 c3                	cmp    %eax,%ebx
    1162:	72 ee                	jb     1152 <chardev_read+0x92>
    1164:	8b 45 0c             	mov    0xc(%ebp),%eax
    1167:	89 5c 24 08          	mov    %ebx,0x8(%esp)
    116b:	89 7c 24 04          	mov    %edi,0x4(%esp)
    116f:	89 04 24             	mov    %eax,(%esp)
    1172:	e8 09 85 00 00       	call   9680 <memcpy>
    1177:	83 c4 4c             	add    $0x4c,%esp
    117a:	89 f0                	mov    %esi,%eax
    117c:	5b                   	pop    %ebx
    117d:	5e                   	pop    %esi
    117e:	5f                   	pop    %edi
    117f:	5d                   	pop    %ebp
    1180:	c3                   	ret    
    1181:	8d b4 26 00 00 00 00 	lea    0x0(%esi,%eiz,1),%esi
    1188:	b8 fd ff ff ff       	mov    $0xfffffffd,%eax
    118d:	eb c5                	jmp    1154 <chardev_read+0x94>
    118f:	b8 f6 ff ff ff       	mov    $0xfffffff6,%eax
    1194:	eb be                	jmp    1154 <chardev_read+0x94>
    1196:	8d 76 00             	lea    0x0(%esi),%esi
    1199:	8d bc 27 00 00 00 00 	lea    0x0(%edi,%eiz,1),%edi

000011a0 <chardev_write>:
    11a0:	55                   	push   %ebp
    11a1:	89 e5                	mov    %esp,%ebp
    11a3:	56                   	push   %esi
    11a4:	53                   	push   %ebx
    11a5:	83 ec 40             	sub    $0x40,%esp
    11a8:	8b 75 08             	mov    0x8(%ebp),%esi
    11ab:	8b 5d 10             	mov    0x10(%ebp),%ebx
    11ae:	85 f6                	test   %esi,%esi
    11b0:	0f 84 99 00 00 00    	je     124f <chardev_write+0xaf>
    11b6:	83 fb 0c             	cmp    $0xc,%ebx
    11b9:	0f 87 89 00 00 00    	ja     1248 <chardev_write+0xa8>
    11bf:	8b 45 0c             	mov    0xc(%ebp),%eax
    11c2:	89 5c 24 08          	mov    %ebx,0x8(%esp)
    11c6:	89 44 24 04          	mov    %eax,0x4(%esp)
    11ca:	8d 45 ec             	lea    -0x14(%ebp),%eax
    11cd:	89 04 24             	mov    %eax,(%esp)
    11d0:	c7 45 ec 00 00 00 00 	movl   $0x0,-0x14(%ebp)
    11d7:	c7 45 f0 00 00 00 00 	movl   $0x0,-0x10(%ebp)
    11de:	c7 45 f4 00 00 00 00 	movl   $0x0,-0xc(%ebp)
    11e5:	e8 96 84 00 00       	call   9680 <memcpy>
    11ea:	8b 45 f4             	mov    -0xc(%ebp),%eax
    11ed:	89 44 24 14          	mov    %eax,0x14(%esp)
    11f1:	8b 45 f0             	mov    -0x10(%ebp),%eax
    11f4:	89 44 24 10          	mov    %eax,0x10(%esp)
    11f8:	8b 45 ec             	mov    -0x14(%ebp),%eax
    11fb:	c7 44 24 28 00 00 00 	movl   $0x0,0x28(%esp)
    1202:	00 
    1203:	c7 44 24 24 00 00 00 	movl   $0x0,0x24(%esp)
    120a:	00 
    120b:	c7 44 24 20 00 00 00 	movl   $0x0,0x20(%esp)
    1212:	00 
    1213:	c7 44 24 1c 00 00 00 	movl   $0x0,0x1c(%esp)
    121a:	00 
    121b:	c7 44 24 18 00 00 00 	movl   $0x0,0x18(%esp)
    1222:	00 
    1223:	89 44 24 0c          	mov    %eax,0xc(%esp)
    1227:	89 5c 24 08          	mov    %ebx,0x8(%esp)
    122b:	c7 44 24 04 0c 04 00 	movl   $0x40c,0x4(%esp)
    1232:	00 
    1233:	89 34 24             	mov    %esi,(%esp)
    1236:	e8 f5 7c 01 00       	call   18f30 <async_req_fast>
    123b:	83 c4 40             	add    $0x40,%esp
    123e:	5b                   	pop    %ebx
    123f:	5e                   	pop    %esi
    1240:	5d                   	pop    %ebp
    1241:	c3                   	ret    
    1242:	8d b6 00 00 00 00    	lea    0x0(%esi),%esi
    1248:	b8 fd ff ff ff       	mov    $0xfffffffd,%eax
    124d:	eb ec                	jmp    123b <chardev_write+0x9b>
    124f:	b8 f6 ff ff ff       	mov    $0xfffffff6,%eax
    1254:	eb e5                	jmp    123b <chardev_write+0x9b>
    1256:	66 90                	xchg   %ax,%ax
    1258:	66 90                	xchg   %ax,%ax
    125a:	66 90                	xchg   %ax,%ax
    125c:	66 90                	xchg   %ax,%ax
    125e:	66 90                	xchg   %ax,%ax

00001260 <xt_kbd_add>:
    1260:	55                   	push   %ebp
    1261:	89 e5                	mov    %esp,%ebp
    1263:	57                   	push   %edi
    1264:	56                   	push   %esi
    1265:	53                   	push   %ebx
    1266:	83 ec 1c             	sub    $0x1c,%esp
    1269:	8b 5d 08             	mov    0x8(%ebp),%ebx
    126c:	85 db                	test   %ebx,%ebx
    126e:	0f 84 bc 00 00 00    	je     1330 <xt_kbd_add+0xd0>
    1274:	c7 44 24 04 10 00 00 	movl   $0x10,0x4(%esp)
    127b:	00 
    127c:	89 1c 24             	mov    %ebx,(%esp)
    127f:	e8 2c 0e 00 00       	call   20b0 <ddf_dev_data_alloc>
    1284:	85 c0                	test   %eax,%eax
    1286:	0f 84 7c 00 00 00    	je     1308 <xt_kbd_add+0xa8>
    128c:	89 5c 24 04          	mov    %ebx,0x4(%esp)
    1290:	89 04 24             	mov    %eax,(%esp)
    1293:	e8 28 04 00 00       	call   16c0 <xt_kbd_init>
    1298:	89 c6                	mov    %eax,%esi
    129a:	85 c0                	test   %eax,%eax
    129c:	75 3a                	jne    12d8 <xt_kbd_add+0x78>
    129e:	89 1c 24             	mov    %ebx,(%esp)
    12a1:	e8 aa 0e 00 00       	call   2150 <ddf_dev_get_handle>
    12a6:	89 1c 24             	mov    %ebx,(%esp)
    12a9:	89 c7                	mov    %eax,%edi
    12ab:	e8 b0 0e 00 00       	call   2160 <ddf_dev_get_name>
    12b0:	89 7c 24 0c          	mov    %edi,0xc(%esp)
    12b4:	89 44 24 08          	mov    %eax,0x8(%esp)
    12b8:	c7 44 24 04 3c 5b 02 	movl   $0x25b3c,0x4(%esp)
    12bf:	00 
    12c0:	c7 04 24 03 00 00 00 	movl   $0x3,(%esp)
    12c7:	e8 d4 19 00 00       	call   2ca0 <ddf_msg>
    12cc:	83 c4 1c             	add    $0x1c,%esp
    12cf:	89 f0                	mov    %esi,%eax
    12d1:	5b                   	pop    %ebx
    12d2:	5e                   	pop    %esi
    12d3:	5f                   	pop    %edi
    12d4:	5d                   	pop    %ebp
    12d5:	c3                   	ret    
    12d6:	66 90                	xchg   %ax,%ax
    12d8:	89 34 24             	mov    %esi,(%esp)
    12db:	e8 90 ba 00 00       	call   cd70 <str_error>
    12e0:	c7 44 24 04 c4 5a 02 	movl   $0x25ac4,0x4(%esp)
    12e7:	00 
    12e8:	89 44 24 08          	mov    %eax,0x8(%esp)
    12ec:	c7 04 24 01 00 00 00 	movl   $0x1,(%esp)
    12f3:	e8 a8 19 00 00       	call   2ca0 <ddf_msg>
    12f8:	83 c4 1c             	add    $0x1c,%esp
    12fb:	89 f0                	mov    %esi,%eax
    12fd:	5b                   	pop    %ebx
    12fe:	5e                   	pop    %esi
    12ff:	5f                   	pop    %edi
    1300:	5d                   	pop    %ebp
    1301:	c3                   	ret    
    1302:	8d b6 00 00 00 00    	lea    0x0(%esi),%esi
    1308:	c7 44 24 04 ec 5a 02 	movl   $0x25aec,0x4(%esp)
    130f:	00 
    1310:	c7 04 24 01 00 00 00 	movl   $0x1,(%esp)
    1317:	e8 84 19 00 00       	call   2ca0 <ddf_msg>
    131c:	83 c4 1c             	add    $0x1c,%esp
    131f:	be fe ff ff ff       	mov    $0xfffffffe,%esi
    1324:	5b                   	pop    %ebx
    1325:	89 f0                	mov    %esi,%eax
    1327:	5e                   	pop    %esi
    1328:	5f                   	pop    %edi
    1329:	5d                   	pop    %ebp
    132a:	c3                   	ret    
    132b:	90                   	nop
    132c:	8d 74 26 00          	lea    0x0(%esi,%eiz,1),%esi
    1330:	be f2 ff ff ff       	mov    $0xfffffff2,%esi
    1335:	eb 95                	jmp    12cc <xt_kbd_add+0x6c>
    1337:	66 90                	xchg   %ax,%ax
    1339:	66 90                	xchg   %ax,%ax
    133b:	66 90                	xchg   %ax,%ax
    133d:	66 90                	xchg   %ax,%ax
    133f:	90                   	nop

00001340 <main>:
    1340:	55                   	push   %ebp
    1341:	89 e5                	mov    %esp,%ebp
    1343:	83 e4 f0             	and    $0xfffffff0,%esp
    1346:	83 ec 10             	sub    $0x10,%esp
    1349:	c7 04 24 18 5b 02 00 	movl   $0x25b18,(%esp)
    1350:	e8 9b 03 01 00       	call   116f0 <printf>
    1355:	c7 04 24 53 5b 02 00 	movl   $0x25b53,(%esp)
    135c:	e8 2f 19 00 00       	call   2c90 <ddf_log_init>
    1361:	c7 04 24 00 8f 02 00 	movl   $0x28f00,(%esp)
    1368:	e8 43 15 00 00       	call   28b0 <ddf_driver_main>
    136d:	c9                   	leave  
    136e:	c3                   	ret    
    136f:	90                   	nop

00001370 <default_connection_handler>:
    1370:	55                   	push   %ebp
    1371:	89 e5                	mov    %esp,%ebp
    1373:	57                   	push   %edi
    1374:	56                   	push   %esi
    1375:	53                   	push   %ebx
    1376:	83 ec 2c             	sub    $0x2c,%esp
    1379:	8b 75 10             	mov    0x10(%ebp),%esi
    137c:	8b 45 08             	mov    0x8(%ebp),%eax
    137f:	8b 1e                	mov    (%esi),%ebx
    1381:	89 04 24             	mov    %eax,(%esp)
    1384:	e8 97 0e 00 00       	call   2220 <ddf_fun_get_dev>
    1389:	89 04 24             	mov    %eax,(%esp)
    138c:	e8 af 0d 00 00       	call   2140 <ddf_dev_data_get>
    1391:	83 fb 03             	cmp    $0x3,%ebx
    1394:	89 c7                	mov    %eax,%edi
    1396:	74 40                	je     13d8 <default_connection_handler+0x68>
    1398:	81 fb 0d 04 00 00    	cmp    $0x40d,%ebx
    139e:	0f 84 8c 00 00 00    	je     1430 <default_connection_handler+0xc0>
    13a4:	89 5c 24 08          	mov    %ebx,0x8(%esp)
    13a8:	c7 44 24 04 ab 5b 02 	movl   $0x25bab,0x4(%esp)
    13af:	00 
    13b0:	c7 04 24 01 00 00 00 	movl   $0x1,(%esp)
    13b7:	e8 e4 18 00 00       	call   2ca0 <ddf_msg>
    13bc:	8b 45 0c             	mov    0xc(%ebp),%eax
    13bf:	c7 44 24 04 f2 ff ff 	movl   $0xfffffff2,0x4(%esp)
    13c6:	ff 
    13c7:	89 04 24             	mov    %eax,(%esp)
    13ca:	e8 b1 81 01 00       	call   19580 <async_answer_0>
    13cf:	83 c4 2c             	add    $0x2c,%esp
    13d2:	5b                   	pop    %ebx
    13d3:	5e                   	pop    %esi
    13d4:	5f                   	pop    %edi
    13d5:	5d                   	pop    %ebp
    13d6:	c3                   	ret    
    13d7:	90                   	nop
    13d8:	89 74 24 04          	mov    %esi,0x4(%esp)
    13dc:	c7 04 24 02 00 00 00 	movl   $0x2,(%esp)
    13e3:	e8 78 a5 01 00       	call   1b960 <async_callback_receive_start>
    13e8:	85 c0                	test   %eax,%eax
    13ea:	0f 84 f0 00 00 00    	je     14e0 <default_connection_handler+0x170>
    13f0:	8b 57 08             	mov    0x8(%edi),%edx
    13f3:	85 d2                	test   %edx,%edx
    13f5:	0f 84 b5 00 00 00    	je     14b0 <default_connection_handler+0x140>
    13fb:	c7 44 24 04 90 5b 02 	movl   $0x25b90,0x4(%esp)
    1402:	00 
    1403:	c7 04 24 01 00 00 00 	movl   $0x1,(%esp)
    140a:	e8 91 18 00 00       	call   2ca0 <ddf_msg>
    140f:	8b 45 0c             	mov    0xc(%ebp),%eax
    1412:	c7 44 24 04 fd ff ff 	movl   $0xfffffffd,0x4(%esp)
    1419:	ff 
    141a:	89 04 24             	mov    %eax,(%esp)
    141d:	e8 5e 81 01 00       	call   19580 <async_answer_0>
    1422:	83 c4 2c             	add    $0x2c,%esp
    1425:	5b                   	pop    %ebx
    1426:	5e                   	pop    %esi
    1427:	5f                   	pop    %edi
    1428:	5d                   	pop    %ebp
    1429:	c3                   	ret    
    142a:	8d b6 00 00 00 00    	lea    0x0(%esi),%esi
    1430:	8b 4e 04             	mov    0x4(%esi),%ecx
    1433:	c6 45 e6 ed          	movb   $0xed,-0x1a(%ebp)
    1437:	89 c8                	mov    %ecx,%eax
    1439:	83 e0 40             	and    $0x40,%eax
    143c:	83 f8 01             	cmp    $0x1,%eax
    143f:	88 c8                	mov    %cl,%al
    1441:	19 d2                	sbb    %edx,%edx
    1443:	c1 e9 08             	shr    $0x8,%ecx
    1446:	83 f2 ff             	xor    $0xffffffff,%edx
    1449:	83 e1 01             	and    $0x1,%ecx
    144c:	83 e2 04             	and    $0x4,%edx
    144f:	c0 f8 07             	sar    $0x7,%al
    1452:	09 ca                	or     %ecx,%edx
    1454:	83 e0 02             	and    $0x2,%eax
    1457:	09 c2                	or     %eax,%edx
    1459:	8b 47 04             	mov    0x4(%edi),%eax
    145c:	89 04 24             	mov    %eax,(%esp)
    145f:	88 55 e7             	mov    %dl,-0x19(%ebp)
    1462:	e8 19 8b 01 00       	call   19f80 <async_exchange_begin>
    1467:	c7 44 24 08 02 00 00 	movl   $0x2,0x8(%esp)
    146e:	00 
    146f:	89 c3                	mov    %eax,%ebx
    1471:	8d 45 e6             	lea    -0x1a(%ebp),%eax
    1474:	89 1c 24             	mov    %ebx,(%esp)
    1477:	89 44 24 04          	mov    %eax,0x4(%esp)
    147b:	e8 20 fd ff ff       	call   11a0 <chardev_write>
    1480:	89 1c 24             	mov    %ebx,(%esp)
    1483:	89 c6                	mov    %eax,%esi
    1485:	e8 66 8e 01 00       	call   1a2f0 <async_exchange_end>
    148a:	85 f6                	test   %esi,%esi
    148c:	8b 45 0c             	mov    0xc(%ebp),%eax
    148f:	0f 9e c2             	setle  %dl
    1492:	81 e2 ff 00 00 00    	and    $0xff,%edx
    1498:	89 04 24             	mov    %eax,(%esp)
    149b:	f7 da                	neg    %edx
    149d:	21 f2                	and    %esi,%edx
    149f:	89 54 24 04          	mov    %edx,0x4(%esp)
    14a3:	e8 d8 80 01 00       	call   19580 <async_answer_0>
    14a8:	83 c4 2c             	add    $0x2c,%esp
    14ab:	5b                   	pop    %ebx
    14ac:	5e                   	pop    %esi
    14ad:	5f                   	pop    %edi
    14ae:	5d                   	pop    %ebp
    14af:	c3                   	ret    
    14b0:	89 47 08             	mov    %eax,0x8(%edi)
    14b3:	c7 44 24 04 7d 5b 02 	movl   $0x25b7d,0x4(%esp)
    14ba:	00 
    14bb:	c7 04 24 04 00 00 00 	movl   $0x4,(%esp)
    14c2:	e8 d9 17 00 00       	call   2ca0 <ddf_msg>
    14c7:	8b 45 0c             	mov    0xc(%ebp),%eax
    14ca:	c7 44 24 04 00 00 00 	movl   $0x0,0x4(%esp)
    14d1:	00 
    14d2:	89 04 24             	mov    %eax,(%esp)
    14d5:	e8 a6 80 01 00       	call   19580 <async_answer_0>
    14da:	e9 f0 fe ff ff       	jmp    13cf <default_connection_handler+0x5f>
    14df:	90                   	nop
    14e0:	c7 44 24 04 5c 5b 02 	movl   $0x25b5c,0x4(%esp)
    14e7:	00 
    14e8:	c7 04 24 02 00 00 00 	movl   $0x2,(%esp)
    14ef:	e8 ac 17 00 00       	call   2ca0 <ddf_msg>
    14f4:	8b 45 0c             	mov    0xc(%ebp),%eax
    14f7:	c7 44 24 04 06 d5 ff 	movl   $0xffffd506,0x4(%esp)
    14fe:	ff 
    14ff:	89 04 24             	mov    %eax,(%esp)
    1502:	e8 79 80 01 00       	call   19580 <async_answer_0>
    1507:	e9 c3 fe ff ff       	jmp    13cf <default_connection_handler+0x5f>
    150c:	8d 74 26 00          	lea    0x0(%esi,%eiz,1),%esi

00001510 <polling>:
    1510:	55                   	push   %ebp
    1511:	89 e5                	mov    %esp,%ebp
    1513:	57                   	push   %edi
    1514:	56                   	push   %esi
    1515:	53                   	push   %ebx
    1516:	83 ec 4c             	sub    $0x4c,%esp
    1519:	8b 4d 08             	mov    0x8(%ebp),%ecx
    151c:	85 c9                	test   %ecx,%ecx
    151e:	0f 84 79 01 00 00    	je     169d <polling+0x18d>
    1524:	8b 55 08             	mov    0x8(%ebp),%edx
    1527:	8b 42 04             	mov    0x4(%edx),%eax
    152a:	85 c0                	test   %eax,%eax
    152c:	0f 84 4f 01 00 00    	je     1681 <polling+0x171>
    1532:	89 04 24             	mov    %eax,(%esp)
    1535:	8d 75 e4             	lea    -0x1c(%ebp),%esi
    1538:	e8 43 8a 01 00       	call   19f80 <async_exchange_begin>
    153d:	89 c3                	mov    %eax,%ebx
    153f:	90                   	nop
    1540:	85 db                	test   %ebx,%ebx
    1542:	0f 84 b8 00 00 00    	je     1600 <polling+0xf0>
    1548:	c7 44 24 08 01 00 00 	movl   $0x1,0x8(%esp)
    154f:	00 
    1550:	89 74 24 04          	mov    %esi,0x4(%esp)
    1554:	89 1c 24             	mov    %ebx,(%esp)
    1557:	c6 45 e4 00          	movb   $0x0,-0x1c(%ebp)
    155b:	e8 60 fb ff ff       	call   10c0 <chardev_read>
    1560:	8a 55 e4             	mov    -0x1c(%ebp),%dl
    1563:	88 d1                	mov    %dl,%cl
    1565:	83 e1 fb             	and    $0xfffffffb,%ecx
    1568:	80 f9 fa             	cmp    $0xfa,%cl
    156b:	74 d3                	je     1540 <polling+0x30>
    156d:	80 fa e0             	cmp    $0xe0,%dl
    1570:	0f 84 ca 00 00 00    	je     1640 <polling+0x130>
    1576:	ba 59 00 00 00       	mov    $0x59,%edx
    157b:	b9 20 5c 02 00       	mov    $0x25c20,%ecx
    1580:	48                   	dec    %eax
    1581:	75 bd                	jne    1540 <polling+0x30>
    1583:	8a 45 e4             	mov    -0x1c(%ebp),%al
    1586:	88 45 d7             	mov    %al,-0x29(%ebp)
    1589:	83 e0 7f             	and    $0x7f,%eax
    158c:	88 45 cf             	mov    %al,-0x31(%ebp)
    158f:	88 45 e4             	mov    %al,-0x1c(%ebp)
    1592:	25 ff 00 00 00       	and    $0xff,%eax
    1597:	39 c2                	cmp    %eax,%edx
    1599:	76 7d                	jbe    1618 <polling+0x108>
    159b:	8b 3c 81             	mov    (%ecx,%eax,4),%edi
    159e:	85 ff                	test   %edi,%edi
    15a0:	74 76                	je     1618 <polling+0x108>
    15a2:	8b 55 08             	mov    0x8(%ebp),%edx
    15a5:	8b 42 08             	mov    0x8(%edx),%eax
    15a8:	89 04 24             	mov    %eax,(%esp)
    15ab:	e8 d0 89 01 00       	call   19f80 <async_exchange_begin>
    15b0:	85 c0                	test   %eax,%eax
    15b2:	0f 84 b0 00 00 00    	je     1668 <polling+0x158>
    15b8:	0f be 55 d7          	movsbl -0x29(%ebp),%edx
    15bc:	c1 ea 1f             	shr    $0x1f,%edx
    15bf:	89 04 24             	mov    %eax,(%esp)
    15c2:	89 54 24 08          	mov    %edx,0x8(%esp)
    15c6:	c7 44 24 14 00 00 00 	movl   $0x0,0x14(%esp)
    15cd:	00 
    15ce:	c7 44 24 10 00 00 00 	movl   $0x0,0x10(%esp)
    15d5:	00 
    15d6:	89 7c 24 0c          	mov    %edi,0xc(%esp)
    15da:	c7 44 24 04 00 04 00 	movl   $0x400,0x4(%esp)
    15e1:	00 
    15e2:	89 45 d0             	mov    %eax,-0x30(%ebp)
    15e5:	e8 d6 7e 01 00       	call   194c0 <async_msg_4>
    15ea:	8b 45 d0             	mov    -0x30(%ebp),%eax
    15ed:	89 04 24             	mov    %eax,(%esp)
    15f0:	e8 fb 8c 01 00       	call   1a2f0 <async_exchange_end>
    15f5:	85 db                	test   %ebx,%ebx
    15f7:	0f 85 4b ff ff ff    	jne    1548 <polling+0x38>
    15fd:	8d 76 00             	lea    0x0(%esi),%esi
    1600:	8b 55 08             	mov    0x8(%ebp),%edx
    1603:	8b 42 04             	mov    0x4(%edx),%eax
    1606:	89 04 24             	mov    %eax,(%esp)
    1609:	e8 72 89 01 00       	call   19f80 <async_exchange_begin>
    160e:	89 c3                	mov    %eax,%ebx
    1610:	e9 33 ff ff ff       	jmp    1548 <polling+0x38>
    1615:	8d 76 00             	lea    0x0(%esi),%esi
    1618:	31 c0                	xor    %eax,%eax
    161a:	c7 44 24 04 f6 5b 02 	movl   $0x25bf6,0x4(%esp)
    1621:	00 
    1622:	8a 45 cf             	mov    -0x31(%ebp),%al
    1625:	c7 04 24 02 00 00 00 	movl   $0x2,(%esp)
    162c:	89 44 24 08          	mov    %eax,0x8(%esp)
    1630:	e8 6b 16 00 00       	call   2ca0 <ddf_msg>
    1635:	e9 06 ff ff ff       	jmp    1540 <polling+0x30>
    163a:	8d b6 00 00 00 00    	lea    0x0(%esi),%esi
    1640:	c7 44 24 08 01 00 00 	movl   $0x1,0x8(%esp)
    1647:	00 
    1648:	89 74 24 04          	mov    %esi,0x4(%esp)
    164c:	89 1c 24             	mov    %ebx,(%esp)
    164f:	e8 6c fa ff ff       	call   10c0 <chardev_read>
    1654:	ba 54 00 00 00       	mov    $0x54,%edx
    1659:	b9 a0 5d 02 00       	mov    $0x25da0,%ecx
    165e:	e9 1d ff ff ff       	jmp    1580 <polling+0x70>
    1663:	90                   	nop
    1664:	8d 74 26 00          	lea    0x0(%esi,%eiz,1),%esi
    1668:	c7 44 24 04 dc 5b 02 	movl   $0x25bdc,0x4(%esp)
    166f:	00 
    1670:	c7 04 24 01 00 00 00 	movl   $0x1,(%esp)
    1677:	e8 24 16 00 00       	call   2ca0 <ddf_msg>
    167c:	e9 bf fe ff ff       	jmp    1540 <polling+0x30>
    1681:	c7 44 24 08 fa 00 00 	movl   $0xfa,0x8(%esp)
    1688:	00 
    1689:	c7 44 24 04 bf 5b 02 	movl   $0x25bbf,0x4(%esp)
    1690:	00 
    1691:	c7 04 24 cb 5b 02 00 	movl   $0x25bcb,(%esp)
    1698:	e8 03 fc 01 00       	call   212a0 <assert_abort>
    169d:	c7 44 24 08 f7 00 00 	movl   $0xf7,0x8(%esp)
    16a4:	00 
    16a5:	c7 44 24 04 bf 5b 02 	movl   $0x25bbf,0x4(%esp)
    16ac:	00 
    16ad:	c7 04 24 c7 5b 02 00 	movl   $0x25bc7,(%esp)
    16b4:	e8 e7 fb 01 00       	call   212a0 <assert_abort>
    16b9:	8d b4 26 00 00 00 00 	lea    0x0(%esi,%eiz,1),%esi

000016c0 <xt_kbd_init>:
    16c0:	55                   	push   %ebp
    16c1:	89 e5                	mov    %esp,%ebp
    16c3:	56                   	push   %esi
    16c4:	53                   	push   %ebx
    16c5:	83 ec 10             	sub    $0x10,%esp
    16c8:	8b 5d 08             	mov    0x8(%ebp),%ebx
    16cb:	8b 75 0c             	mov    0xc(%ebp),%esi
    16ce:	85 db                	test   %ebx,%ebx
    16d0:	0f 84 ca 00 00 00    	je     17a0 <xt_kbd_init+0xe0>
    16d6:	85 f6                	test   %esi,%esi
    16d8:	0f 84 de 00 00 00    	je     17bc <xt_kbd_init+0xfc>
    16de:	c7 43 08 00 00 00 00 	movl   $0x0,0x8(%ebx)
    16e5:	c7 44 24 04 02 00 00 	movl   $0x2,0x4(%esp)
    16ec:	00 
    16ed:	89 34 24             	mov    %esi,(%esp)
    16f0:	e8 7b 0a 00 00       	call   2170 <ddf_dev_parent_sess_create>
    16f5:	89 43 04             	mov    %eax,0x4(%ebx)
    16f8:	85 c0                	test   %eax,%eax
    16fa:	0f 84 94 00 00 00    	je     1794 <xt_kbd_init+0xd4>
    1700:	c7 44 24 08 55 5b 02 	movl   $0x25b55,0x8(%esp)
    1707:	00 
    1708:	c7 44 24 04 02 00 00 	movl   $0x2,0x4(%esp)
    170f:	00 
    1710:	89 34 24             	mov    %esi,(%esp)
    1713:	e8 28 0b 00 00       	call   2240 <ddf_fun_create>
    1718:	89 03                	mov    %eax,(%ebx)
    171a:	85 c0                	test   %eax,%eax
    171c:	74 76                	je     1794 <xt_kbd_init+0xd4>
    171e:	89 04 24             	mov    %eax,(%esp)
    1721:	c7 44 24 04 20 8f 02 	movl   $0x28f20,0x4(%esp)
    1728:	00 
    1729:	e8 a2 10 00 00       	call   27d0 <ddf_fun_set_ops>
    172e:	8b 03                	mov    (%ebx),%eax
    1730:	89 04 24             	mov    %eax,(%esp)
    1733:	e8 98 0d 00 00       	call   24d0 <ddf_fun_bind>
    1738:	85 c0                	test   %eax,%eax
    173a:	75 4e                	jne    178a <xt_kbd_init+0xca>
    173c:	c7 44 24 04 11 5c 02 	movl   $0x25c11,0x4(%esp)
    1743:	00 
    1744:	8b 03                	mov    (%ebx),%eax
    1746:	89 04 24             	mov    %eax,(%esp)
    1749:	e8 02 11 00 00       	call   2850 <ddf_fun_add_to_category>
    174e:	85 c0                	test   %eax,%eax
    1750:	75 2e                	jne    1780 <xt_kbd_init+0xc0>
    1752:	89 5c 24 04          	mov    %ebx,0x4(%esp)
    1756:	c7 04 24 10 15 00 00 	movl   $0x1510,(%esp)
    175d:	e8 1e bb 00 00       	call   d280 <fibril_create>
    1762:	89 43 0c             	mov    %eax,0xc(%ebx)
    1765:	85 c0                	test   %eax,%eax
    1767:	74 17                	je     1780 <xt_kbd_init+0xc0>
    1769:	89 04 24             	mov    %eax,(%esp)
    176c:	e8 4f bc 00 00       	call   d3c0 <fibril_add_ready>
    1771:	83 c4 10             	add    $0x10,%esp
    1774:	31 c0                	xor    %eax,%eax
    1776:	5b                   	pop    %ebx
    1777:	5e                   	pop    %esi
    1778:	5d                   	pop    %ebp
    1779:	c3                   	ret    
    177a:	8d b6 00 00 00 00    	lea    0x0(%esi),%esi
    1780:	8b 03                	mov    (%ebx),%eax
    1782:	89 04 24             	mov    %eax,(%esp)
    1785:	e8 56 0e 00 00       	call   25e0 <ddf_fun_unbind>
    178a:	8b 03                	mov    (%ebx),%eax
    178c:	89 04 24             	mov    %eax,(%esp)
    178f:	e8 2c 0c 00 00       	call   23c0 <ddf_fun_destroy>
    1794:	83 c4 10             	add    $0x10,%esp
    1797:	b8 fe ff ff ff       	mov    $0xfffffffe,%eax
    179c:	5b                   	pop    %ebx
    179d:	5e                   	pop    %esi
    179e:	5d                   	pop    %ebp
    179f:	c3                   	ret    
    17a0:	c7 44 24 08 cd 00 00 	movl   $0xcd,0x8(%esp)
    17a7:	00 
    17a8:	c7 44 24 04 bf 5b 02 	movl   $0x25bbf,0x4(%esp)
    17af:	00 
    17b0:	c7 04 24 55 5b 02 00 	movl   $0x25b55,(%esp)
    17b7:	e8 e4 fa 01 00       	call   212a0 <assert_abort>
    17bc:	c7 44 24 08 ce 00 00 	movl   $0xce,0x8(%esp)
    17c3:	00 
    17c4:	c7 44 24 04 bf 5b 02 	movl   $0x25bbf,0x4(%esp)
    17cb:	00 
    17cc:	c7 04 24 0d 5c 02 00 	movl   $0x25c0d,(%esp)
    17d3:	e8 c8 fa 01 00       	call   212a0 <assert_abort>
    17d8:	66 90                	xchg   %ax,%ax
    17da:	66 90                	xchg   %ax,%ax
    17dc:	66 90                	xchg   %ax,%ax
    17de:	66 90                	xchg   %ax,%ax

000017e0 <driver_connection_gen.isra.8>:
    17e0:	55                   	push   %ebp
    17e1:	89 e5                	mov    %esp,%ebp
    17e3:	57                   	push   %edi
    17e4:	56                   	push   %esi
    17e5:	53                   	push   %ebx
    17e6:	83 ec 5c             	sub    $0x5c,%esp
    17e9:	89 c6                	mov    %eax,%esi
    17eb:	8b 7a 08             	mov    0x8(%edx),%edi
    17ee:	89 55 a8             	mov    %edx,-0x58(%ebp)
    17f1:	c7 04 24 58 8f 02 00 	movl   $0x28f58,(%esp)
    17f8:	e8 63 bf 00 00       	call   d760 <fibril_mutex_lock>
    17fd:	c7 04 24 58 8f 02 00 	movl   $0x28f58,(%esp)
    1804:	e8 87 c1 00 00       	call   d990 <fibril_mutex_is_locked>
    1809:	8b 55 a8             	mov    -0x58(%ebp),%edx
    180c:	84 c0                	test   %al,%al
    180e:	0f 84 a6 02 00 00    	je     1aba <driver_connection_gen.isra.8+0x2da>
    1814:	a1 6c 8f 02 00       	mov    0x28f6c,%eax
    1819:	3d 68 8f 02 00       	cmp    $0x28f68,%eax
    181e:	75 12                	jne    1832 <driver_connection_gen.isra.8+0x52>
    1820:	eb 46                	jmp    1868 <driver_connection_gen.isra.8+0x88>
    1822:	8d b6 00 00 00 00    	lea    0x0(%esi),%esi
    1828:	8b 40 04             	mov    0x4(%eax),%eax
    182b:	3d 68 8f 02 00       	cmp    $0x28f68,%eax
    1830:	74 36                	je     1868 <driver_connection_gen.isra.8+0x88>
    1832:	8d 58 d4             	lea    -0x2c(%eax),%ebx
    1835:	3b 7b 04             	cmp    0x4(%ebx),%edi
    1838:	75 ee                	jne    1828 <driver_connection_gen.isra.8+0x48>
    183a:	c7 04 24 58 8f 02 00 	movl   $0x28f58,(%esp)
    1841:	89 55 a8             	mov    %edx,-0x58(%ebp)
    1844:	e8 37 c0 00 00       	call   d880 <fibril_mutex_unlock>
    1849:	8b 43 28             	mov    0x28(%ebx),%eax
    184c:	85 c0                	test   %eax,%eax
    184e:	8b 55 a8             	mov    -0x58(%ebp),%edx
    1851:	74 55                	je     18a8 <driver_connection_gen.isra.8+0xc8>
    1853:	89 5c 24 08          	mov    %ebx,0x8(%esp)
    1857:	89 34 24             	mov    %esi,(%esp)
    185a:	89 54 24 04          	mov    %edx,0x4(%esp)
    185e:	ff d0                	call   *%eax
    1860:	83 c4 5c             	add    $0x5c,%esp
    1863:	5b                   	pop    %ebx
    1864:	5e                   	pop    %esi
    1865:	5f                   	pop    %edi
    1866:	5d                   	pop    %ebp
    1867:	c3                   	ret    
    1868:	c7 04 24 58 8f 02 00 	movl   $0x28f58,(%esp)
    186f:	e8 0c c0 00 00       	call   d880 <fibril_mutex_unlock>
    1874:	a1 c0 93 02 00       	mov    0x293c0,%eax
    1879:	89 7c 24 08          	mov    %edi,0x8(%esp)
    187d:	8b 00                	mov    (%eax),%eax
    187f:	c7 04 24 38 61 02 00 	movl   $0x26138,(%esp)
    1886:	89 44 24 04          	mov    %eax,0x4(%esp)
    188a:	e8 61 fe 00 00       	call   116f0 <printf>
    188f:	c7 44 24 04 ff ff ff 	movl   $0xffffffff,0x4(%esp)
    1896:	ff 
    1897:	89 34 24             	mov    %esi,(%esp)
    189a:	e8 e1 7c 01 00       	call   19580 <async_answer_0>
    189f:	83 c4 5c             	add    $0x5c,%esp
    18a2:	5b                   	pop    %ebx
    18a3:	5e                   	pop    %esi
    18a4:	5f                   	pop    %edi
    18a5:	5d                   	pop    %ebp
    18a6:	c3                   	ret    
    18a7:	90                   	nop
    18a8:	8b 43 24             	mov    0x24(%ebx),%eax
    18ab:	85 c0                	test   %eax,%eax
    18ad:	0f 84 cd 01 00 00    	je     1a80 <driver_connection_gen.isra.8+0x2a0>
    18b3:	8b 00                	mov    (%eax),%eax
    18b5:	85 c0                	test   %eax,%eax
    18b7:	0f 84 c3 01 00 00    	je     1a80 <driver_connection_gen.isra.8+0x2a0>
    18bd:	89 1c 24             	mov    %ebx,(%esp)
    18c0:	ff d0                	call   *%eax
    18c2:	89 34 24             	mov    %esi,(%esp)
    18c5:	89 44 24 04          	mov    %eax,0x4(%esp)
    18c9:	89 45 a8             	mov    %eax,-0x58(%ebp)
    18cc:	e8 af 7c 01 00       	call   19580 <async_answer_0>
    18d1:	8b 55 a8             	mov    -0x58(%ebp),%edx
    18d4:	85 d2                	test   %edx,%edx
    18d6:	75 c7                	jne    189f <driver_connection_gen.isra.8+0xbf>
    18d8:	8d 55 c4             	lea    -0x3c(%ebp),%edx
    18db:	89 7d ac             	mov    %edi,-0x54(%ebp)
    18de:	89 55 b4             	mov    %edx,-0x4c(%ebp)
    18e1:	8d b4 26 00 00 00 00 	lea    0x0(%esi,%eiz,1),%esi
    18e8:	c7 44 24 04 00 00 00 	movl   $0x0,0x4(%esp)
    18ef:	00 
    18f0:	89 14 24             	mov    %edx,(%esp)
    18f3:	e8 58 66 01 00       	call   17f50 <async_get_call_timeout>
    18f8:	8b 75 c4             	mov    -0x3c(%ebp),%esi
    18fb:	89 c7                	mov    %eax,%edi
    18fd:	85 f6                	test   %esi,%esi
    18ff:	0f 84 eb 00 00 00    	je     19f0 <driver_connection_gen.isra.8+0x210>
    1905:	81 ee 00 04 00 00    	sub    $0x400,%esi
    190b:	89 34 24             	mov    %esi,(%esp)
    190e:	e8 8d 10 00 00       	call   29a0 <is_valid_iface_idx>
    1913:	84 c0                	test   %al,%al
    1915:	75 31                	jne    1948 <driver_connection_gen.isra.8+0x168>
    1917:	8b 43 24             	mov    0x24(%ebx),%eax
    191a:	85 c0                	test   %eax,%eax
    191c:	0f 84 96 00 00 00    	je     19b8 <driver_connection_gen.isra.8+0x1d8>
    1922:	8b 40 34             	mov    0x34(%eax),%eax
    1925:	85 c0                	test   %eax,%eax
    1927:	0f 84 8b 00 00 00    	je     19b8 <driver_connection_gen.isra.8+0x1d8>
    192d:	8b 55 b4             	mov    -0x4c(%ebp),%edx
    1930:	89 7c 24 04          	mov    %edi,0x4(%esp)
    1934:	89 54 24 08          	mov    %edx,0x8(%esp)
    1938:	89 1c 24             	mov    %ebx,(%esp)
    193b:	ff d0                	call   *%eax
    193d:	8b 55 b4             	mov    -0x4c(%ebp),%edx
    1940:	eb a6                	jmp    18e8 <driver_connection_gen.isra.8+0x108>
    1942:	8d b6 00 00 00 00    	lea    0x0(%esi),%esi
    1948:	89 34 24             	mov    %esi,(%esp)
    194b:	e8 50 10 00 00       	call   29a0 <is_valid_iface_idx>
    1950:	84 c0                	test   %al,%al
    1952:	0f 84 46 01 00 00    	je     1a9e <driver_connection_gen.isra.8+0x2be>
    1958:	8b 43 24             	mov    0x24(%ebx),%eax
    195b:	85 c0                	test   %eax,%eax
    195d:	0f 84 bd 00 00 00    	je     1a20 <driver_connection_gen.isra.8+0x240>
    1963:	8b 44 b0 08          	mov    0x8(%eax,%esi,4),%eax
    1967:	89 45 b0             	mov    %eax,-0x50(%ebp)
    196a:	85 c0                	test   %eax,%eax
    196c:	0f 84 ae 00 00 00    	je     1a20 <driver_connection_gen.isra.8+0x240>
    1972:	89 34 24             	mov    %esi,(%esp)
    1975:	e8 c6 0f 00 00       	call   2940 <get_remote_iface>
    197a:	85 c0                	test   %eax,%eax
    197c:	0f 84 54 01 00 00    	je     1ad6 <driver_connection_gen.isra.8+0x2f6>
    1982:	8b 55 c8             	mov    -0x38(%ebp),%edx
    1985:	89 04 24             	mov    %eax,(%esp)
    1988:	89 54 24 04          	mov    %edx,0x4(%esp)
    198c:	e8 ef 0f 00 00       	call   2980 <get_remote_method>
    1991:	85 c0                	test   %eax,%eax
    1993:	0f 84 b7 00 00 00    	je     1a50 <driver_connection_gen.isra.8+0x270>
    1999:	8b 55 b4             	mov    -0x4c(%ebp),%edx
    199c:	89 7c 24 08          	mov    %edi,0x8(%esp)
    19a0:	89 54 24 0c          	mov    %edx,0xc(%esp)
    19a4:	8b 55 b0             	mov    -0x50(%ebp),%edx
    19a7:	89 54 24 04          	mov    %edx,0x4(%esp)
    19ab:	89 1c 24             	mov    %ebx,(%esp)
    19ae:	ff d0                	call   *%eax
    19b0:	8b 55 b4             	mov    -0x4c(%ebp),%edx
    19b3:	e9 30 ff ff ff       	jmp    18e8 <driver_connection_gen.isra.8+0x108>
    19b8:	a1 c0 93 02 00       	mov    0x293c0,%eax
    19bd:	89 74 24 08          	mov    %esi,0x8(%esp)
    19c1:	8b 00                	mov    (%eax),%eax
    19c3:	c7 04 24 64 60 02 00 	movl   $0x26064,(%esp)
    19ca:	89 44 24 04          	mov    %eax,0x4(%esp)
    19ce:	e8 1d fd 00 00       	call   116f0 <printf>
    19d3:	c7 44 24 04 f5 ff ff 	movl   $0xfffffff5,0x4(%esp)
    19da:	ff 
    19db:	89 3c 24             	mov    %edi,(%esp)
    19de:	e8 9d 7b 01 00       	call   19580 <async_answer_0>
    19e3:	8b 55 b4             	mov    -0x4c(%ebp),%edx
    19e6:	e9 fd fe ff ff       	jmp    18e8 <driver_connection_gen.isra.8+0x108>
    19eb:	90                   	nop
    19ec:	8d 74 26 00          	lea    0x0(%esi,%eiz,1),%esi
    19f0:	8b 43 24             	mov    0x24(%ebx),%eax
    19f3:	85 c0                	test   %eax,%eax
    19f5:	74 0c                	je     1a03 <driver_connection_gen.isra.8+0x223>
    19f7:	8b 40 04             	mov    0x4(%eax),%eax
    19fa:	85 c0                	test   %eax,%eax
    19fc:	74 05                	je     1a03 <driver_connection_gen.isra.8+0x223>
    19fe:	89 1c 24             	mov    %ebx,(%esp)
    1a01:	ff d0                	call   *%eax
    1a03:	89 3c 24             	mov    %edi,(%esp)
    1a06:	c7 44 24 04 00 00 00 	movl   $0x0,0x4(%esp)
    1a0d:	00 
    1a0e:	e8 6d 7b 01 00       	call   19580 <async_answer_0>
    1a13:	83 c4 5c             	add    $0x5c,%esp
    1a16:	5b                   	pop    %ebx
    1a17:	5e                   	pop    %esi
    1a18:	5f                   	pop    %edi
    1a19:	5d                   	pop    %ebp
    1a1a:	c3                   	ret    
    1a1b:	90                   	nop
    1a1c:	8d 74 26 00          	lea    0x0(%esi,%eiz,1),%esi
    1a20:	a1 c0 93 02 00       	mov    0x293c0,%eax
    1a25:	8b 00                	mov    (%eax),%eax
    1a27:	c7 04 24 a0 60 02 00 	movl   $0x260a0,(%esp)
    1a2e:	89 44 24 04          	mov    %eax,0x4(%esp)
    1a32:	e8 b9 fc 00 00       	call   116f0 <printf>
    1a37:	8b 55 ac             	mov    -0x54(%ebp),%edx
    1a3a:	89 74 24 08          	mov    %esi,0x8(%esp)
    1a3e:	89 54 24 04          	mov    %edx,0x4(%esp)
    1a42:	c7 04 24 c4 60 02 00 	movl   $0x260c4,(%esp)
    1a49:	eb 83                	jmp    19ce <driver_connection_gen.isra.8+0x1ee>
    1a4b:	90                   	nop
    1a4c:	8d 74 26 00          	lea    0x0(%esi,%eiz,1),%esi
    1a50:	a1 c0 93 02 00       	mov    0x293c0,%eax
    1a55:	8b 00                	mov    (%eax),%eax
    1a57:	c7 04 24 fc 60 02 00 	movl   $0x260fc,(%esp)
    1a5e:	89 44 24 04          	mov    %eax,0x4(%esp)
    1a62:	e8 89 fc 00 00       	call   116f0 <printf>
    1a67:	c7 44 24 04 f5 ff ff 	movl   $0xfffffff5,0x4(%esp)
    1a6e:	ff 
    1a6f:	89 3c 24             	mov    %edi,(%esp)
    1a72:	e8 09 7b 01 00       	call   19580 <async_answer_0>
    1a77:	8b 55 b4             	mov    -0x4c(%ebp),%edx
    1a7a:	e9 69 fe ff ff       	jmp    18e8 <driver_connection_gen.isra.8+0x108>
    1a7f:	90                   	nop
    1a80:	c7 44 24 04 00 00 00 	movl   $0x0,0x4(%esp)
    1a87:	00 
    1a88:	89 34 24             	mov    %esi,(%esp)
    1a8b:	e8 f0 7a 01 00       	call   19580 <async_answer_0>
    1a90:	8d 55 c4             	lea    -0x3c(%ebp),%edx
    1a93:	89 55 b4             	mov    %edx,-0x4c(%ebp)
    1a96:	89 7d ac             	mov    %edi,-0x54(%ebp)
    1a99:	e9 4a fe ff ff       	jmp    18e8 <driver_connection_gen.isra.8+0x108>
    1a9e:	c7 44 24 08 1e 03 00 	movl   $0x31e,0x8(%esp)
    1aa5:	00 
    1aa6:	c7 44 24 04 f0 5e 02 	movl   $0x25ef0,0x4(%esp)
    1aad:	00 
    1aae:	c7 04 24 01 5f 02 00 	movl   $0x25f01,(%esp)
    1ab5:	e8 e6 f7 01 00       	call   212a0 <assert_abort>
    1aba:	c7 44 24 08 75 00 00 	movl   $0x75,0x8(%esp)
    1ac1:	00 
    1ac2:	c7 44 24 04 f0 5e 02 	movl   $0x25ef0,0x4(%esp)
    1ac9:	00 
    1aca:	c7 04 24 38 60 02 00 	movl   $0x26038,(%esp)
    1ad1:	e8 ca f7 01 00       	call   212a0 <assert_abort>
    1ad6:	c7 44 24 08 a6 01 00 	movl   $0x1a6,0x8(%esp)
    1add:	00 
    1ade:	c7 44 24 04 f0 5e 02 	movl   $0x25ef0,0x4(%esp)
    1ae5:	00 
    1ae6:	c7 04 24 19 5f 02 00 	movl   $0x25f19,(%esp)
    1aed:	e8 ae f7 01 00       	call   212a0 <assert_abort>
    1af2:	8d b4 26 00 00 00 00 	lea    0x0(%esi,%eiz,1),%esi
    1af9:	8d bc 27 00 00 00 00 	lea    0x0(%edi,%eiz,1),%edi

00001b00 <driver_connection>:
    1b00:	55                   	push   %ebp
    1b01:	89 e5                	mov    %esp,%ebp
    1b03:	57                   	push   %edi
    1b04:	56                   	push   %esi
    1b05:	53                   	push   %ebx
    1b06:	83 ec 6c             	sub    $0x6c,%esp
    1b09:	8b 45 08             	mov    0x8(%ebp),%eax
    1b0c:	85 c0                	test   %eax,%eax
    1b0e:	75 58                	jne    1b68 <driver_connection+0x68>
    1b10:	c7 44 24 04 00 00 00 	movl   $0x0,0x4(%esp)
    1b17:	00 
    1b18:	89 04 24             	mov    %eax,(%esp)
    1b1b:	e8 60 7a 01 00       	call   19580 <async_answer_0>
    1b20:	8d 45 c4             	lea    -0x3c(%ebp),%eax
    1b23:	c7 44 24 04 00 00 00 	movl   $0x0,0x4(%esp)
    1b2a:	00 
    1b2b:	89 04 24             	mov    %eax,(%esp)
    1b2e:	e8 1d 64 01 00       	call   17f50 <async_get_call_timeout>
    1b33:	89 c6                	mov    %eax,%esi
    1b35:	8b 45 c4             	mov    -0x3c(%ebp),%eax
    1b38:	85 c0                	test   %eax,%eax
    1b3a:	74 3e                	je     1b7a <driver_connection+0x7a>
    1b3c:	2d 00 04 00 00       	sub    $0x400,%eax
    1b41:	83 f8 04             	cmp    $0x4,%eax
    1b44:	76 12                	jbe    1b58 <driver_connection+0x58>
    1b46:	c7 44 24 04 f5 ff ff 	movl   $0xfffffff5,0x4(%esp)
    1b4d:	ff 
    1b4e:	89 34 24             	mov    %esi,(%esp)
    1b51:	e8 2a 7a 01 00       	call   19580 <async_answer_0>
    1b56:	eb c8                	jmp    1b20 <driver_connection+0x20>
    1b58:	8b 7d c8             	mov    -0x38(%ebp),%edi
    1b5b:	ff 24 85 e8 61 02 00 	jmp    *0x261e8(,%eax,4)
    1b62:	8d b6 00 00 00 00    	lea    0x0(%esi),%esi
    1b68:	8b 4d 0c             	mov    0xc(%ebp),%ecx
    1b6b:	8b 51 04             	mov    0x4(%ecx),%edx
    1b6e:	83 fa 02             	cmp    $0x2,%edx
    1b71:	75 15                	jne    1b88 <driver_connection+0x88>
    1b73:	89 ca                	mov    %ecx,%edx
    1b75:	e8 66 fc ff ff       	call   17e0 <driver_connection_gen.isra.8>
    1b7a:	83 c4 6c             	add    $0x6c,%esp
    1b7d:	5b                   	pop    %ebx
    1b7e:	5e                   	pop    %esi
    1b7f:	5f                   	pop    %edi
    1b80:	5d                   	pop    %ebp
    1b81:	c3                   	ret    
    1b82:	8d b6 00 00 00 00    	lea    0x0(%esi),%esi
    1b88:	83 fa 03             	cmp    $0x3,%edx
    1b8b:	0f 84 2f 03 00 00    	je     1ec0 <driver_connection+0x3c0>
    1b91:	4a                   	dec    %edx
    1b92:	0f 84 78 ff ff ff    	je     1b10 <driver_connection+0x10>
    1b98:	c7 44 24 04 ff ff ff 	movl   $0xffffffff,0x4(%esp)
    1b9f:	ff 
    1ba0:	89 04 24             	mov    %eax,(%esp)
    1ba3:	e8 d8 79 01 00       	call   19580 <async_answer_0>
    1ba8:	83 c4 6c             	add    $0x6c,%esp
    1bab:	5b                   	pop    %ebx
    1bac:	5e                   	pop    %esi
    1bad:	5f                   	pop    %edi
    1bae:	5d                   	pop    %ebp
    1baf:	c3                   	ret    
    1bb0:	c7 04 24 58 8f 02 00 	movl   $0x28f58,(%esp)
    1bb7:	e8 a4 bb 00 00       	call   d760 <fibril_mutex_lock>
    1bbc:	c7 04 24 58 8f 02 00 	movl   $0x28f58,(%esp)
    1bc3:	e8 c8 bd 00 00       	call   d990 <fibril_mutex_is_locked>
    1bc8:	84 c0                	test   %al,%al
    1bca:	0f 84 a0 04 00 00    	je     2070 <driver_connection+0x570>
    1bd0:	a1 6c 8f 02 00       	mov    0x28f6c,%eax
    1bd5:	3d 68 8f 02 00       	cmp    $0x28f68,%eax
    1bda:	75 1a                	jne    1bf6 <driver_connection+0xf6>
    1bdc:	e9 87 03 00 00       	jmp    1f68 <driver_connection+0x468>
    1be1:	8d b4 26 00 00 00 00 	lea    0x0(%esi,%eiz,1),%esi
    1be8:	8b 40 04             	mov    0x4(%eax),%eax
    1beb:	3d 68 8f 02 00       	cmp    $0x28f68,%eax
    1bf0:	0f 84 72 03 00 00    	je     1f68 <driver_connection+0x468>
    1bf6:	8d 58 d4             	lea    -0x2c(%eax),%ebx
    1bf9:	3b 7b 04             	cmp    0x4(%ebx),%edi
    1bfc:	75 ea                	jne    1be8 <driver_connection+0xe8>
    1bfe:	8b 43 0c             	mov    0xc(%ebx),%eax
    1c01:	f0 ff 40 04          	lock incl 0x4(%eax)
    1c05:	8d 7b 08             	lea    0x8(%ebx),%edi
    1c08:	f0 ff 43 08          	lock incl 0x8(%ebx)
    1c0c:	c7 04 24 58 8f 02 00 	movl   $0x28f58,(%esp)
    1c13:	e8 68 bc 00 00       	call   d880 <fibril_mutex_unlock>
    1c18:	a1 c0 93 02 00       	mov    0x293c0,%eax
    1c1d:	8b 40 04             	mov    0x4(%eax),%eax
    1c20:	8b 40 0c             	mov    0xc(%eax),%eax
    1c23:	85 c0                	test   %eax,%eax
    1c25:	0f 84 e5 02 00 00    	je     1f10 <driver_connection+0x410>
    1c2b:	89 1c 24             	mov    %ebx,(%esp)
    1c2e:	ff d0                	call   *%eax
    1c30:	89 45 b0             	mov    %eax,-0x50(%ebp)
    1c33:	8b 4b 0c             	mov    0xc(%ebx),%ecx
    1c36:	83 c8 ff             	or     $0xffffffff,%eax
    1c39:	89 4d b4             	mov    %ecx,-0x4c(%ebp)
    1c3c:	f0 0f c1 07          	lock xadd %eax,(%edi)
    1c40:	48                   	dec    %eax
    1c41:	0f 84 81 03 00 00    	je     1fc8 <driver_connection+0x4c8>
    1c47:	83 c8 ff             	or     $0xffffffff,%eax
    1c4a:	8b 55 b4             	mov    -0x4c(%ebp),%edx
    1c4d:	f0 0f c1 42 04       	lock xadd %eax,0x4(%edx)
    1c52:	48                   	dec    %eax
    1c53:	0f 84 37 03 00 00    	je     1f90 <driver_connection+0x490>
    1c59:	8b 45 b0             	mov    -0x50(%ebp),%eax
    1c5c:	e9 88 00 00 00       	jmp    1ce9 <driver_connection+0x1e9>
    1c61:	8d b4 26 00 00 00 00 	lea    0x0(%esi,%eiz,1),%esi
    1c68:	c7 04 24 70 8f 02 00 	movl   $0x28f70,(%esp)
    1c6f:	e8 ec ba 00 00       	call   d760 <fibril_mutex_lock>
    1c74:	c7 04 24 70 8f 02 00 	movl   $0x28f70,(%esp)
    1c7b:	e8 10 bd 00 00       	call   d990 <fibril_mutex_is_locked>
    1c80:	84 c0                	test   %al,%al
    1c82:	0f 84 04 04 00 00    	je     208c <driver_connection+0x58c>
    1c88:	a1 84 8f 02 00       	mov    0x28f84,%eax
    1c8d:	3d 80 8f 02 00       	cmp    $0x28f80,%eax
    1c92:	75 1a                	jne    1cae <driver_connection+0x1ae>
    1c94:	e9 a7 02 00 00       	jmp    1f40 <driver_connection+0x440>
    1c99:	8d b4 26 00 00 00 00 	lea    0x0(%esi,%eiz,1),%esi
    1ca0:	8b 40 04             	mov    0x4(%eax),%eax
    1ca3:	3d 80 8f 02 00       	cmp    $0x28f80,%eax
    1ca8:	0f 84 92 02 00 00    	je     1f40 <driver_connection+0x440>
    1cae:	8d 58 ec             	lea    -0x14(%eax),%ebx
    1cb1:	3b 78 ec             	cmp    -0x14(%eax),%edi
    1cb4:	75 ea                	jne    1ca0 <driver_connection+0x1a0>
    1cb6:	8d 7b 04             	lea    0x4(%ebx),%edi
    1cb9:	f0 ff 43 04          	lock incl 0x4(%ebx)
    1cbd:	c7 04 24 70 8f 02 00 	movl   $0x28f70,(%esp)
    1cc4:	e8 b7 bb 00 00       	call   d880 <fibril_mutex_unlock>
    1cc9:	a1 c0 93 02 00       	mov    0x293c0,%eax
    1cce:	8b 40 04             	mov    0x4(%eax),%eax
    1cd1:	8b 40 08             	mov    0x8(%eax),%eax
    1cd4:	85 c0                	test   %eax,%eax
    1cd6:	0f 84 58 01 00 00    	je     1e34 <driver_connection+0x334>
    1cdc:	89 1c 24             	mov    %ebx,(%esp)
    1cdf:	ff d0                	call   *%eax
    1ce1:	85 c0                	test   %eax,%eax
    1ce3:	0f 84 e7 01 00 00    	je     1ed0 <driver_connection+0x3d0>
    1ce9:	89 44 24 04          	mov    %eax,0x4(%esp)
    1ced:	89 34 24             	mov    %esi,(%esp)
    1cf0:	e8 8b 78 01 00       	call   19580 <async_answer_0>
    1cf5:	e9 26 fe ff ff       	jmp    1b20 <driver_connection+0x20>
    1cfa:	8d b6 00 00 00 00    	lea    0x0(%esi),%esi
    1d00:	c7 44 24 04 1c 00 00 	movl   $0x1c,0x4(%esp)
    1d07:	00 
    1d08:	c7 04 24 01 00 00 00 	movl   $0x1,(%esp)
    1d0f:	e8 cc 4c 01 00       	call   169e0 <calloc>
    1d14:	89 c3                	mov    %eax,%ebx
    1d16:	f0 ff 40 04          	lock incl 0x4(%eax)
    1d1a:	8d 55 c0             	lea    -0x40(%ebp),%edx
    1d1d:	89 38                	mov    %edi,(%eax)
    1d1f:	89 14 24             	mov    %edx,(%esp)
    1d22:	c7 44 24 14 00 00 00 	movl   $0x0,0x14(%esp)
    1d29:	00 
    1d2a:	c7 44 24 10 00 00 00 	movl   $0x0,0x10(%esp)
    1d31:	00 
    1d32:	c7 44 24 0c 00 00 00 	movl   $0x0,0xc(%esp)
    1d39:	00 
    1d3a:	c7 44 24 08 00 00 00 	movl   $0x0,0x8(%esp)
    1d41:	00 
    1d42:	c7 44 24 04 01 00 00 	movl   $0x1,0x4(%esp)
    1d49:	00 
    1d4a:	c7 45 c0 00 00 00 00 	movl   $0x0,-0x40(%ebp)
    1d51:	e8 4a 93 01 00       	call   1b0a0 <async_data_write_accept>
    1d56:	8b 45 c0             	mov    -0x40(%ebp),%eax
    1d59:	89 43 0c             	mov    %eax,0xc(%ebx)
    1d5c:	a1 c0 93 02 00       	mov    0x293c0,%eax
    1d61:	8b 40 04             	mov    0x4(%eax),%eax
    1d64:	89 1c 24             	mov    %ebx,(%esp)
    1d67:	ff 10                	call   *(%eax)
    1d69:	89 c7                	mov    %eax,%edi
    1d6b:	85 c0                	test   %eax,%eax
    1d6d:	0f 85 ad 01 00 00    	jne    1f20 <driver_connection+0x420>
    1d73:	c7 04 24 70 8f 02 00 	movl   $0x28f70,(%esp)
    1d7a:	e8 e1 b9 00 00       	call   d760 <fibril_mutex_lock>
    1d7f:	8b 15 80 8f 02 00    	mov    0x28f80,%edx
    1d85:	8d 43 14             	lea    0x14(%ebx),%eax
    1d88:	c7 43 18 80 8f 02 00 	movl   $0x28f80,0x18(%ebx)
    1d8f:	89 53 14             	mov    %edx,0x14(%ebx)
    1d92:	89 42 04             	mov    %eax,0x4(%edx)
    1d95:	c7 04 24 70 8f 02 00 	movl   $0x28f70,(%esp)
    1d9c:	a3 80 8f 02 00       	mov    %eax,0x28f80
    1da1:	e8 da ba 00 00       	call   d880 <fibril_mutex_unlock>
    1da6:	c7 44 24 04 00 00 00 	movl   $0x0,0x4(%esp)
    1dad:	00 
    1dae:	89 34 24             	mov    %esi,(%esp)
    1db1:	e8 ca 77 01 00       	call   19580 <async_answer_0>
    1db6:	e9 65 fd ff ff       	jmp    1b20 <driver_connection+0x20>
    1dbb:	90                   	nop
    1dbc:	8d 74 26 00          	lea    0x0(%esi,%eiz,1),%esi
    1dc0:	c7 04 24 70 8f 02 00 	movl   $0x28f70,(%esp)
    1dc7:	e8 94 b9 00 00       	call   d760 <fibril_mutex_lock>
    1dcc:	c7 04 24 70 8f 02 00 	movl   $0x28f70,(%esp)
    1dd3:	e8 b8 bb 00 00       	call   d990 <fibril_mutex_is_locked>
    1dd8:	84 c0                	test   %al,%al
    1dda:	0f 84 ac 02 00 00    	je     208c <driver_connection+0x58c>
    1de0:	a1 84 8f 02 00       	mov    0x28f84,%eax
    1de5:	3d 80 8f 02 00       	cmp    $0x28f80,%eax
    1dea:	75 1a                	jne    1e06 <driver_connection+0x306>
    1dec:	e9 4f 01 00 00       	jmp    1f40 <driver_connection+0x440>
    1df1:	8d b4 26 00 00 00 00 	lea    0x0(%esi,%eiz,1),%esi
    1df8:	8b 40 04             	mov    0x4(%eax),%eax
    1dfb:	3d 80 8f 02 00       	cmp    $0x28f80,%eax
    1e00:	0f 84 3a 01 00 00    	je     1f40 <driver_connection+0x440>
    1e06:	8d 58 ec             	lea    -0x14(%eax),%ebx
    1e09:	3b 78 ec             	cmp    -0x14(%eax),%edi
    1e0c:	75 ea                	jne    1df8 <driver_connection+0x2f8>
    1e0e:	8d 7b 04             	lea    0x4(%ebx),%edi
    1e11:	f0 ff 43 04          	lock incl 0x4(%ebx)
    1e15:	c7 04 24 70 8f 02 00 	movl   $0x28f70,(%esp)
    1e1c:	e8 5f ba 00 00       	call   d880 <fibril_mutex_unlock>
    1e21:	a1 c0 93 02 00       	mov    0x293c0,%eax
    1e26:	8b 40 04             	mov    0x4(%eax),%eax
    1e29:	8b 40 04             	mov    0x4(%eax),%eax
    1e2c:	85 c0                	test   %eax,%eax
    1e2e:	0f 85 a8 fe ff ff    	jne    1cdc <driver_connection+0x1dc>
    1e34:	b8 f5 ff ff ff       	mov    $0xfffffff5,%eax
    1e39:	e9 ab fe ff ff       	jmp    1ce9 <driver_connection+0x1e9>
    1e3e:	66 90                	xchg   %ax,%ax
    1e40:	c7 04 24 58 8f 02 00 	movl   $0x28f58,(%esp)
    1e47:	e8 14 b9 00 00       	call   d760 <fibril_mutex_lock>
    1e4c:	c7 04 24 58 8f 02 00 	movl   $0x28f58,(%esp)
    1e53:	e8 38 bb 00 00       	call   d990 <fibril_mutex_is_locked>
    1e58:	84 c0                	test   %al,%al
    1e5a:	0f 84 10 02 00 00    	je     2070 <driver_connection+0x570>
    1e60:	a1 6c 8f 02 00       	mov    0x28f6c,%eax
    1e65:	3d 68 8f 02 00       	cmp    $0x28f68,%eax
    1e6a:	75 1a                	jne    1e86 <driver_connection+0x386>
    1e6c:	e9 f7 00 00 00       	jmp    1f68 <driver_connection+0x468>
    1e71:	8d b4 26 00 00 00 00 	lea    0x0(%esi,%eiz,1),%esi
    1e78:	8b 40 04             	mov    0x4(%eax),%eax
    1e7b:	3d 68 8f 02 00       	cmp    $0x28f68,%eax
    1e80:	0f 84 e2 00 00 00    	je     1f68 <driver_connection+0x468>
    1e86:	8d 58 d4             	lea    -0x2c(%eax),%ebx
    1e89:	3b 7b 04             	cmp    0x4(%ebx),%edi
    1e8c:	75 ea                	jne    1e78 <driver_connection+0x378>
    1e8e:	8b 43 0c             	mov    0xc(%ebx),%eax
    1e91:	f0 ff 40 04          	lock incl 0x4(%eax)
    1e95:	f0 ff 43 08          	lock incl 0x8(%ebx)
    1e99:	c7 04 24 58 8f 02 00 	movl   $0x28f58,(%esp)
    1ea0:	e8 db b9 00 00       	call   d880 <fibril_mutex_unlock>
    1ea5:	a1 c0 93 02 00       	mov    0x293c0,%eax
    1eaa:	8b 40 04             	mov    0x4(%eax),%eax
    1ead:	8b 40 10             	mov    0x10(%eax),%eax
    1eb0:	85 c0                	test   %eax,%eax
    1eb2:	74 80                	je     1e34 <driver_connection+0x334>
    1eb4:	89 1c 24             	mov    %ebx,(%esp)
    1eb7:	ff d0                	call   *%eax
    1eb9:	e9 2b fe ff ff       	jmp    1ce9 <driver_connection+0x1e9>
    1ebe:	66 90                	xchg   %ax,%ax
    1ec0:	8b 55 0c             	mov    0xc(%ebp),%edx
    1ec3:	e8 18 f9 ff ff       	call   17e0 <driver_connection_gen.isra.8>
    1ec8:	83 c4 6c             	add    $0x6c,%esp
    1ecb:	5b                   	pop    %ebx
    1ecc:	5e                   	pop    %esi
    1ecd:	5f                   	pop    %edi
    1ece:	5d                   	pop    %ebp
    1ecf:	c3                   	ret    
    1ed0:	83 ca ff             	or     $0xffffffff,%edx
    1ed3:	f0 0f c1 17          	lock xadd %edx,(%edi)
    1ed7:	4a                   	dec    %edx
    1ed8:	0f 85 0b fe ff ff    	jne    1ce9 <driver_connection+0x1e9>
    1ede:	8b 43 08             	mov    0x8(%ebx),%eax
    1ee1:	85 c0                	test   %eax,%eax
    1ee3:	74 08                	je     1eed <driver_connection+0x3ed>
    1ee5:	89 04 24             	mov    %eax,(%esp)
    1ee8:	e8 93 7f 01 00       	call   19e80 <async_hangup>
    1eed:	8b 43 10             	mov    0x10(%ebx),%eax
    1ef0:	85 c0                	test   %eax,%eax
    1ef2:	74 08                	je     1efc <driver_connection+0x3fc>
    1ef4:	89 04 24             	mov    %eax,(%esp)
    1ef7:	e8 54 4c 01 00       	call   16b50 <free>
    1efc:	89 1c 24             	mov    %ebx,(%esp)
    1eff:	e8 4c 4c 01 00       	call   16b50 <free>
    1f04:	31 c0                	xor    %eax,%eax
    1f06:	e9 de fd ff ff       	jmp    1ce9 <driver_connection+0x1e9>
    1f0b:	90                   	nop
    1f0c:	8d 74 26 00          	lea    0x0(%esi,%eiz,1),%esi
    1f10:	c7 45 b0 f5 ff ff ff 	movl   $0xfffffff5,-0x50(%ebp)
    1f17:	e9 17 fd ff ff       	jmp    1c33 <driver_connection+0x133>
    1f1c:	8d 74 26 00          	lea    0x0(%esi,%eiz,1),%esi
    1f20:	83 c8 ff             	or     $0xffffffff,%eax
    1f23:	f0 0f c1 43 04       	lock xadd %eax,0x4(%ebx)
    1f28:	48                   	dec    %eax
    1f29:	0f 84 16 01 00 00    	je     2045 <driver_connection+0x545>
    1f2f:	89 7c 24 04          	mov    %edi,0x4(%esp)
    1f33:	89 34 24             	mov    %esi,(%esp)
    1f36:	e8 45 76 01 00       	call   19580 <async_answer_0>
    1f3b:	e9 e0 fb ff ff       	jmp    1b20 <driver_connection+0x20>
    1f40:	c7 04 24 70 8f 02 00 	movl   $0x28f70,(%esp)
    1f47:	e8 34 b9 00 00       	call   d880 <fibril_mutex_unlock>
    1f4c:	c7 44 24 04 ff ff ff 	movl   $0xffffffff,0x4(%esp)
    1f53:	ff 
    1f54:	89 34 24             	mov    %esi,(%esp)
    1f57:	e8 24 76 01 00       	call   19580 <async_answer_0>
    1f5c:	e9 bf fb ff ff       	jmp    1b20 <driver_connection+0x20>
    1f61:	8d b4 26 00 00 00 00 	lea    0x0(%esi,%eiz,1),%esi
    1f68:	c7 04 24 58 8f 02 00 	movl   $0x28f58,(%esp)
    1f6f:	e8 0c b9 00 00       	call   d880 <fibril_mutex_unlock>
    1f74:	c7 44 24 04 ff ff ff 	movl   $0xffffffff,0x4(%esp)
    1f7b:	ff 
    1f7c:	89 34 24             	mov    %esi,(%esp)
    1f7f:	e8 fc 75 01 00       	call   19580 <async_answer_0>
    1f84:	e9 97 fb ff ff       	jmp    1b20 <driver_connection+0x20>
    1f89:	8d b4 26 00 00 00 00 	lea    0x0(%esi,%eiz,1),%esi
    1f90:	8b 42 08             	mov    0x8(%edx),%eax
    1f93:	85 c0                	test   %eax,%eax
    1f95:	74 08                	je     1f9f <driver_connection+0x49f>
    1f97:	89 04 24             	mov    %eax,(%esp)
    1f9a:	e8 e1 7e 01 00       	call   19e80 <async_hangup>
    1f9f:	8b 4d b4             	mov    -0x4c(%ebp),%ecx
    1fa2:	8b 41 10             	mov    0x10(%ecx),%eax
    1fa5:	85 c0                	test   %eax,%eax
    1fa7:	74 08                	je     1fb1 <driver_connection+0x4b1>
    1fa9:	89 04 24             	mov    %eax,(%esp)
    1fac:	e8 9f 4b 01 00       	call   16b50 <free>
    1fb1:	8b 55 b4             	mov    -0x4c(%ebp),%edx
    1fb4:	89 14 24             	mov    %edx,(%esp)
    1fb7:	e8 94 4b 01 00       	call   16b50 <free>
    1fbc:	e9 98 fc ff ff       	jmp    1c59 <driver_connection+0x159>
    1fc1:	8d b4 26 00 00 00 00 	lea    0x0(%esi,%eiz,1),%esi
    1fc8:	8d 7b 18             	lea    0x18(%ebx),%edi
    1fcb:	8b 43 1c             	mov    0x1c(%ebx),%eax
    1fce:	39 f8                	cmp    %edi,%eax
    1fd0:	74 48                	je     201a <driver_connection+0x51a>
    1fd2:	89 5d ac             	mov    %ebx,-0x54(%ebp)
    1fd5:	89 c3                	mov    %eax,%ebx
    1fd7:	90                   	nop
    1fd8:	8b 0b                	mov    (%ebx),%ecx
    1fda:	85 c9                	test   %ecx,%ecx
    1fdc:	74 0e                	je     1fec <driver_connection+0x4ec>
    1fde:	8b 53 04             	mov    0x4(%ebx),%edx
    1fe1:	85 d2                	test   %edx,%edx
    1fe3:	74 07                	je     1fec <driver_connection+0x4ec>
    1fe5:	89 0a                	mov    %ecx,(%edx)
    1fe7:	8b 0b                	mov    (%ebx),%ecx
    1fe9:	89 51 04             	mov    %edx,0x4(%ecx)
    1fec:	8b 53 08             	mov    0x8(%ebx),%edx
    1fef:	c7 03 00 00 00 00    	movl   $0x0,(%ebx)
    1ff5:	c7 43 04 00 00 00 00 	movl   $0x0,0x4(%ebx)
    1ffc:	85 d2                	test   %edx,%edx
    1ffe:	74 08                	je     2008 <driver_connection+0x508>
    2000:	89 14 24             	mov    %edx,(%esp)
    2003:	e8 48 4b 01 00       	call   16b50 <free>
    2008:	89 1c 24             	mov    %ebx,(%esp)
    200b:	e8 40 4b 01 00       	call   16b50 <free>
    2010:	8b 5f 04             	mov    0x4(%edi),%ebx
    2013:	39 fb                	cmp    %edi,%ebx
    2015:	75 c1                	jne    1fd8 <driver_connection+0x4d8>
    2017:	8b 5d ac             	mov    -0x54(%ebp),%ebx
    201a:	8b 43 20             	mov    0x20(%ebx),%eax
    201d:	85 c0                	test   %eax,%eax
    201f:	74 08                	je     2029 <driver_connection+0x529>
    2021:	89 04 24             	mov    %eax,(%esp)
    2024:	e8 27 4b 01 00       	call   16b50 <free>
    2029:	8b 43 14             	mov    0x14(%ebx),%eax
    202c:	85 c0                	test   %eax,%eax
    202e:	74 08                	je     2038 <driver_connection+0x538>
    2030:	89 04 24             	mov    %eax,(%esp)
    2033:	e8 18 4b 01 00       	call   16b50 <free>
    2038:	89 1c 24             	mov    %ebx,(%esp)
    203b:	e8 10 4b 01 00       	call   16b50 <free>
    2040:	e9 02 fc ff ff       	jmp    1c47 <driver_connection+0x147>
    2045:	8b 43 08             	mov    0x8(%ebx),%eax
    2048:	85 c0                	test   %eax,%eax
    204a:	74 08                	je     2054 <driver_connection+0x554>
    204c:	89 04 24             	mov    %eax,(%esp)
    204f:	e8 2c 7e 01 00       	call   19e80 <async_hangup>
    2054:	8b 43 10             	mov    0x10(%ebx),%eax
    2057:	85 c0                	test   %eax,%eax
    2059:	74 08                	je     2063 <driver_connection+0x563>
    205b:	89 04 24             	mov    %eax,(%esp)
    205e:	e8 ed 4a 01 00       	call   16b50 <free>
    2063:	89 1c 24             	mov    %ebx,(%esp)
    2066:	e8 e5 4a 01 00       	call   16b50 <free>
    206b:	e9 bf fe ff ff       	jmp    1f2f <driver_connection+0x42f>
    2070:	c7 44 24 08 75 00 00 	movl   $0x75,0x8(%esp)
    2077:	00 
    2078:	c7 44 24 04 f0 5e 02 	movl   $0x25ef0,0x4(%esp)
    207f:	00 
    2080:	c7 04 24 38 60 02 00 	movl   $0x26038,(%esp)
    2087:	e8 14 f2 01 00       	call   212a0 <assert_abort>
    208c:	c7 44 24 08 66 00 00 	movl   $0x66,0x8(%esp)
    2093:	00 
    2094:	c7 44 24 04 f0 5e 02 	movl   $0x25ef0,0x4(%esp)
    209b:	00 
    209c:	c7 04 24 84 61 02 00 	movl   $0x26184,(%esp)
    20a3:	e8 f8 f1 01 00       	call   212a0 <assert_abort>
    20a8:	90                   	nop
    20a9:	8d b4 26 00 00 00 00 	lea    0x0(%esi,%eiz,1),%esi

000020b0 <ddf_dev_data_alloc>:
    20b0:	55                   	push   %ebp
    20b1:	89 e5                	mov    %esp,%ebp
    20b3:	53                   	push   %ebx
    20b4:	83 ec 14             	sub    $0x14,%esp
    20b7:	8b 5d 08             	mov    0x8(%ebp),%ebx
    20ba:	8b 43 10             	mov    0x10(%ebx),%eax
    20bd:	85 c0                	test   %eax,%eax
    20bf:	75 20                	jne    20e1 <ddf_dev_data_alloc+0x31>
    20c1:	8b 45 0c             	mov    0xc(%ebp),%eax
    20c4:	c7 04 24 01 00 00 00 	movl   $0x1,(%esp)
    20cb:	89 44 24 04          	mov    %eax,0x4(%esp)
    20cf:	e8 0c 49 01 00       	call   169e0 <calloc>
    20d4:	85 c0                	test   %eax,%eax
    20d6:	74 03                	je     20db <ddf_dev_data_alloc+0x2b>
    20d8:	89 43 10             	mov    %eax,0x10(%ebx)
    20db:	83 c4 14             	add    $0x14,%esp
    20de:	5b                   	pop    %ebx
    20df:	5d                   	pop    %ebp
    20e0:	c3                   	ret    
    20e1:	c7 44 24 08 52 02 00 	movl   $0x252,0x8(%esp)
    20e8:	00 
    20e9:	c7 44 24 04 f0 5e 02 	movl   $0x25ef0,0x4(%esp)
    20f0:	00 
    20f1:	c7 04 24 2b 5f 02 00 	movl   $0x25f2b,(%esp)
    20f8:	e8 a3 f1 01 00       	call   212a0 <assert_abort>
    20fd:	8d 76 00             	lea    0x0(%esi),%esi

00002100 <ddf_fun_data_implant>:
    2100:	55                   	push   %ebp
    2101:	89 e5                	mov    %esp,%ebp
    2103:	83 ec 18             	sub    $0x18,%esp
    2106:	8b 45 08             	mov    0x8(%ebp),%eax
    2109:	8b 50 20             	mov    0x20(%eax),%edx
    210c:	85 d2                	test   %edx,%edx
    210e:	75 08                	jne    2118 <ddf_fun_data_implant+0x18>
    2110:	8b 55 0c             	mov    0xc(%ebp),%edx
    2113:	89 50 20             	mov    %edx,0x20(%eax)
    2116:	c9                   	leave  
    2117:	c3                   	ret    
    2118:	c7 44 24 08 63 02 00 	movl   $0x263,0x8(%esp)
    211f:	00 
    2120:	c7 44 24 04 f0 5e 02 	movl   $0x25ef0,0x4(%esp)
    2127:	00 
    2128:	c7 04 24 44 5f 02 00 	movl   $0x25f44,(%esp)
    212f:	e8 6c f1 01 00       	call   212a0 <assert_abort>
    2134:	8d b6 00 00 00 00    	lea    0x0(%esi),%esi
    213a:	8d bf 00 00 00 00    	lea    0x0(%edi),%edi

00002140 <ddf_dev_data_get>:
    2140:	55                   	push   %ebp
    2141:	89 e5                	mov    %esp,%ebp
    2143:	8b 45 08             	mov    0x8(%ebp),%eax
    2146:	5d                   	pop    %ebp
    2147:	8b 40 10             	mov    0x10(%eax),%eax
    214a:	c3                   	ret    
    214b:	90                   	nop
    214c:	8d 74 26 00          	lea    0x0(%esi,%eiz,1),%esi

00002150 <ddf_dev_get_handle>:
    2150:	55                   	push   %ebp
    2151:	89 e5                	mov    %esp,%ebp
    2153:	8b 45 08             	mov    0x8(%ebp),%eax
    2156:	5d                   	pop    %ebp
    2157:	8b 00                	mov    (%eax),%eax
    2159:	c3                   	ret    
    215a:	8d b6 00 00 00 00    	lea    0x0(%esi),%esi

00002160 <ddf_dev_get_name>:
    2160:	55                   	push   %ebp
    2161:	89 e5                	mov    %esp,%ebp
    2163:	8b 45 08             	mov    0x8(%ebp),%eax
    2166:	5d                   	pop    %ebp
    2167:	8b 40 0c             	mov    0xc(%eax),%eax
    216a:	c3                   	ret    
    216b:	90                   	nop
    216c:	8d 74 26 00          	lea    0x0(%esi,%eiz,1),%esi

00002170 <ddf_dev_parent_sess_create>:
    2170:	55                   	push   %ebp
    2171:	89 e5                	mov    %esp,%ebp
    2173:	53                   	push   %ebx
    2174:	83 ec 14             	sub    $0x14,%esp
    2177:	8b 5d 08             	mov    0x8(%ebp),%ebx
    217a:	8b 4b 08             	mov    0x8(%ebx),%ecx
    217d:	85 c9                	test   %ecx,%ecx
    217f:	75 22                	jne    21a3 <ddf_dev_parent_sess_create+0x33>
    2181:	c7 44 24 08 01 00 00 	movl   $0x1,0x8(%esp)
    2188:	00 
    2189:	8b 03                	mov    (%ebx),%eax
    218b:	89 44 24 04          	mov    %eax,0x4(%esp)
    218f:	8b 45 0c             	mov    0xc(%ebp),%eax
    2192:	89 04 24             	mov    %eax,(%esp)
    2195:	e8 f6 63 00 00       	call   8590 <devman_parent_device_connect>
    219a:	89 43 08             	mov    %eax,0x8(%ebx)
    219d:	83 c4 14             	add    $0x14,%esp
    21a0:	5b                   	pop    %ebx
    21a1:	5d                   	pop    %ebp
    21a2:	c3                   	ret    
    21a3:	c7 44 24 08 87 02 00 	movl   $0x287,0x8(%esp)
    21aa:	00 
    21ab:	c7 44 24 04 f0 5e 02 	movl   $0x25ef0,0x4(%esp)
    21b2:	00 
    21b3:	c7 04 24 5d 5f 02 00 	movl   $0x25f5d,(%esp)
    21ba:	e8 e1 f0 01 00       	call   212a0 <assert_abort>
    21bf:	90                   	nop

000021c0 <ddf_dev_parent_sess_get>:
    21c0:	55                   	push   %ebp
    21c1:	89 e5                	mov    %esp,%ebp
    21c3:	8b 45 08             	mov    0x8(%ebp),%eax
    21c6:	5d                   	pop    %ebp
    21c7:	8b 40 08             	mov    0x8(%eax),%eax
    21ca:	c3                   	ret    
    21cb:	90                   	nop
    21cc:	8d 74 26 00          	lea    0x0(%esi,%eiz,1),%esi

000021d0 <ddf_fun_set_name>:
    21d0:	55                   	push   %ebp
    21d1:	89 e5                	mov    %esp,%ebp
    21d3:	53                   	push   %ebx
    21d4:	83 ec 14             	sub    $0x14,%esp
    21d7:	8b 5d 08             	mov    0x8(%ebp),%ebx
    21da:	8b 43 14             	mov    0x14(%ebx),%eax
    21dd:	85 c0                	test   %eax,%eax
    21df:	75 19                	jne    21fa <ddf_fun_set_name+0x2a>
    21e1:	8b 45 0c             	mov    0xc(%ebp),%eax
    21e4:	89 04 24             	mov    %eax,(%esp)
    21e7:	e8 44 a2 00 00       	call   c430 <str_dup>
    21ec:	83 f8 01             	cmp    $0x1,%eax
    21ef:	89 43 14             	mov    %eax,0x14(%ebx)
    21f2:	19 c0                	sbb    %eax,%eax
    21f4:	83 c4 14             	add    $0x14,%esp
    21f7:	5b                   	pop    %ebx
    21f8:	5d                   	pop    %ebp
    21f9:	c3                   	ret    
    21fa:	c7 44 24 08 a0 02 00 	movl   $0x2a0,0x8(%esp)
    2201:	00 
    2202:	c7 44 24 04 f0 5e 02 	movl   $0x25ef0,0x4(%esp)
    2209:	00 
    220a:	c7 04 24 76 5f 02 00 	movl   $0x25f76,(%esp)
    2211:	e8 8a f0 01 00       	call   212a0 <assert_abort>
    2216:	8d 76 00             	lea    0x0(%esi),%esi
    2219:	8d bc 27 00 00 00 00 	lea    0x0(%edi,%eiz,1),%edi

00002220 <ddf_fun_get_dev>:
    2220:	55                   	push   %ebp
    2221:	89 e5                	mov    %esp,%ebp
    2223:	8b 45 08             	mov    0x8(%ebp),%eax
    2226:	5d                   	pop    %ebp
    2227:	8b 40 0c             	mov    0xc(%eax),%eax
    222a:	c3                   	ret    
    222b:	90                   	nop
    222c:	8d 74 26 00          	lea    0x0(%esi,%eiz,1),%esi

00002230 <ddf_fun_get_handle>:
    2230:	55                   	push   %ebp
    2231:	89 e5                	mov    %esp,%ebp
    2233:	8b 45 08             	mov    0x8(%ebp),%eax
    2236:	5d                   	pop    %ebp
    2237:	8b 40 04             	mov    0x4(%eax),%eax
    223a:	c3                   	ret    
    223b:	90                   	nop
    223c:	8d 74 26 00          	lea    0x0(%esi,%eiz,1),%esi

00002240 <ddf_fun_create>:
    2240:	55                   	push   %ebp
    2241:	89 e5                	mov    %esp,%ebp
    2243:	57                   	push   %edi
    2244:	56                   	push   %esi
    2245:	53                   	push   %ebx
    2246:	83 ec 1c             	sub    $0x1c,%esp
    2249:	8b 75 08             	mov    0x8(%ebp),%esi
    224c:	c7 44 24 04 34 00 00 	movl   $0x34,0x4(%esp)
    2253:	00 
    2254:	c7 04 24 01 00 00 00 	movl   $0x1,(%esp)
    225b:	e8 80 47 01 00       	call   169e0 <calloc>
    2260:	89 c3                	mov    %eax,%ebx
    2262:	85 c0                	test   %eax,%eax
    2264:	74 44                	je     22aa <ddf_fun_create+0x6a>
    2266:	8d 78 18             	lea    0x18(%eax),%edi
    2269:	c7 40 2c 00 00 00 00 	movl   $0x0,0x2c(%eax)
    2270:	89 78 18             	mov    %edi,0x18(%eax)
    2273:	89 78 1c             	mov    %edi,0x1c(%eax)
    2276:	c7 40 30 00 00 00 00 	movl   $0x0,0x30(%eax)
    227d:	89 70 0c             	mov    %esi,0xc(%eax)
    2280:	f0 ff 46 04          	lock incl 0x4(%esi)
    2284:	f0 ff 40 08          	lock incl 0x8(%eax)
    2288:	c6 00 00             	movb   $0x0,(%eax)
    228b:	8b 45 0c             	mov    0xc(%ebp),%eax
    228e:	89 43 10             	mov    %eax,0x10(%ebx)
    2291:	8b 45 10             	mov    0x10(%ebp),%eax
    2294:	85 c0                	test   %eax,%eax
    2296:	74 12                	je     22aa <ddf_fun_create+0x6a>
    2298:	8b 45 10             	mov    0x10(%ebp),%eax
    229b:	89 04 24             	mov    %eax,(%esp)
    229e:	e8 8d a1 00 00       	call   c430 <str_dup>
    22a3:	89 43 14             	mov    %eax,0x14(%ebx)
    22a6:	85 c0                	test   %eax,%eax
    22a8:	74 0a                	je     22b4 <ddf_fun_create+0x74>
    22aa:	83 c4 1c             	add    $0x1c,%esp
    22ad:	89 d8                	mov    %ebx,%eax
    22af:	5b                   	pop    %ebx
    22b0:	5e                   	pop    %esi
    22b1:	5f                   	pop    %edi
    22b2:	5d                   	pop    %ebp
    22b3:	c3                   	ret    
    22b4:	8b 73 1c             	mov    0x1c(%ebx),%esi
    22b7:	39 fe                	cmp    %edi,%esi
    22b9:	74 44                	je     22ff <ddf_fun_create+0xbf>
    22bb:	90                   	nop
    22bc:	8d 74 26 00          	lea    0x0(%esi,%eiz,1),%esi
    22c0:	8b 0e                	mov    (%esi),%ecx
    22c2:	85 c9                	test   %ecx,%ecx
    22c4:	74 0e                	je     22d4 <ddf_fun_create+0x94>
    22c6:	8b 46 04             	mov    0x4(%esi),%eax
    22c9:	85 c0                	test   %eax,%eax
    22cb:	74 07                	je     22d4 <ddf_fun_create+0x94>
    22cd:	89 08                	mov    %ecx,(%eax)
    22cf:	8b 0e                	mov    (%esi),%ecx
    22d1:	89 41 04             	mov    %eax,0x4(%ecx)
    22d4:	8b 46 08             	mov    0x8(%esi),%eax
    22d7:	c7 06 00 00 00 00    	movl   $0x0,(%esi)
    22dd:	c7 46 04 00 00 00 00 	movl   $0x0,0x4(%esi)
    22e4:	85 c0                	test   %eax,%eax
    22e6:	74 08                	je     22f0 <ddf_fun_create+0xb0>
    22e8:	89 04 24             	mov    %eax,(%esp)
    22eb:	e8 60 48 01 00       	call   16b50 <free>
    22f0:	89 34 24             	mov    %esi,(%esp)
    22f3:	e8 58 48 01 00       	call   16b50 <free>
    22f8:	8b 77 04             	mov    0x4(%edi),%esi
    22fb:	39 fe                	cmp    %edi,%esi
    22fd:	75 c1                	jne    22c0 <ddf_fun_create+0x80>
    22ff:	8b 43 20             	mov    0x20(%ebx),%eax
    2302:	85 c0                	test   %eax,%eax
    2304:	74 08                	je     230e <ddf_fun_create+0xce>
    2306:	89 04 24             	mov    %eax,(%esp)
    2309:	e8 42 48 01 00       	call   16b50 <free>
    230e:	8b 43 14             	mov    0x14(%ebx),%eax
    2311:	85 c0                	test   %eax,%eax
    2313:	74 08                	je     231d <ddf_fun_create+0xdd>
    2315:	89 04 24             	mov    %eax,(%esp)
    2318:	e8 33 48 01 00       	call   16b50 <free>
    231d:	89 1c 24             	mov    %ebx,(%esp)
    2320:	31 db                	xor    %ebx,%ebx
    2322:	e8 29 48 01 00       	call   16b50 <free>
    2327:	eb 81                	jmp    22aa <ddf_fun_create+0x6a>
    2329:	8d b4 26 00 00 00 00 	lea    0x0(%esi,%eiz,1),%esi

00002330 <ddf_fun_data_alloc>:
    2330:	55                   	push   %ebp
    2331:	89 e5                	mov    %esp,%ebp
    2333:	53                   	push   %ebx
    2334:	83 ec 14             	sub    $0x14,%esp
    2337:	8b 5d 08             	mov    0x8(%ebp),%ebx
    233a:	80 3b 00             	cmpb   $0x0,(%ebx)
    233d:	75 27                	jne    2366 <ddf_fun_data_alloc+0x36>
    233f:	8b 43 20             	mov    0x20(%ebx),%eax
    2342:	85 c0                	test   %eax,%eax
    2344:	75 3c                	jne    2382 <ddf_fun_data_alloc+0x52>
    2346:	8b 45 0c             	mov    0xc(%ebp),%eax
    2349:	c7 04 24 01 00 00 00 	movl   $0x1,(%esp)
    2350:	89 44 24 04          	mov    %eax,0x4(%esp)
    2354:	e8 87 46 01 00       	call   169e0 <calloc>
    2359:	85 c0                	test   %eax,%eax
    235b:	74 03                	je     2360 <ddf_fun_data_alloc+0x30>
    235d:	89 43 20             	mov    %eax,0x20(%ebx)
    2360:	83 c4 14             	add    $0x14,%esp
    2363:	5b                   	pop    %ebx
    2364:	5d                   	pop    %ebp
    2365:	c3                   	ret    
    2366:	c7 44 24 08 ec 02 00 	movl   $0x2ec,0x8(%esp)
    236d:	00 
    236e:	c7 44 24 04 f0 5e 02 	movl   $0x25ef0,0x4(%esp)
    2375:	00 
    2376:	c7 04 24 88 5f 02 00 	movl   $0x25f88,(%esp)
    237d:	e8 1e ef 01 00       	call   212a0 <assert_abort>
    2382:	c7 44 24 08 ed 02 00 	movl   $0x2ed,0x8(%esp)
    2389:	00 
    238a:	c7 44 24 04 f0 5e 02 	movl   $0x25ef0,0x4(%esp)
    2391:	00 
    2392:	c7 04 24 44 5f 02 00 	movl   $0x25f44,(%esp)
    2399:	e8 02 ef 01 00       	call   212a0 <assert_abort>
    239e:	66 90                	xchg   %ax,%ax

000023a0 <ddf_fun_data_get>:
    23a0:	55                   	push   %ebp
    23a1:	89 e5                	mov    %esp,%ebp
    23a3:	8b 45 08             	mov    0x8(%ebp),%eax
    23a6:	5d                   	pop    %ebp
    23a7:	8b 40 20             	mov    0x20(%eax),%eax
    23aa:	c3                   	ret    
    23ab:	90                   	nop
    23ac:	8d 74 26 00          	lea    0x0(%esi,%eiz,1),%esi

000023b0 <ddf_fun_get_name>:
    23b0:	55                   	push   %ebp
    23b1:	89 e5                	mov    %esp,%ebp
    23b3:	8b 45 08             	mov    0x8(%ebp),%eax
    23b6:	5d                   	pop    %ebp
    23b7:	8b 40 14             	mov    0x14(%eax),%eax
    23ba:	c3                   	ret    
    23bb:	90                   	nop
    23bc:	8d 74 26 00          	lea    0x0(%esi,%eiz,1),%esi

000023c0 <ddf_fun_destroy>:
    23c0:	55                   	push   %ebp
    23c1:	89 e5                	mov    %esp,%ebp
    23c3:	57                   	push   %edi
    23c4:	56                   	push   %esi
    23c5:	53                   	push   %ebx
    23c6:	83 ec 2c             	sub    $0x2c,%esp
    23c9:	8b 5d 08             	mov    0x8(%ebp),%ebx
    23cc:	80 3b 00             	cmpb   $0x0,(%ebx)
    23cf:	0f 85 d8 00 00 00    	jne    24ad <ddf_fun_destroy+0xed>
    23d5:	8b 73 0c             	mov    0xc(%ebx),%esi
    23d8:	83 c8 ff             	or     $0xffffffff,%eax
    23db:	f0 0f c1 43 08       	lock xadd %eax,0x8(%ebx)
    23e0:	48                   	dec    %eax
    23e1:	74 1d                	je     2400 <ddf_fun_destroy+0x40>
    23e3:	83 c8 ff             	or     $0xffffffff,%eax
    23e6:	f0 0f c1 46 04       	lock xadd %eax,0x4(%esi)
    23eb:	48                   	dec    %eax
    23ec:	0f 84 8e 00 00 00    	je     2480 <ddf_fun_destroy+0xc0>
    23f2:	83 c4 2c             	add    $0x2c,%esp
    23f5:	5b                   	pop    %ebx
    23f6:	5e                   	pop    %esi
    23f7:	5f                   	pop    %edi
    23f8:	5d                   	pop    %ebp
    23f9:	c3                   	ret    
    23fa:	8d b6 00 00 00 00    	lea    0x0(%esi),%esi
    2400:	8d 7b 18             	lea    0x18(%ebx),%edi
    2403:	8b 43 1c             	mov    0x1c(%ebx),%eax
    2406:	39 f8                	cmp    %edi,%eax
    2408:	74 4b                	je     2455 <ddf_fun_destroy+0x95>
    240a:	8d b6 00 00 00 00    	lea    0x0(%esi),%esi
    2410:	8b 08                	mov    (%eax),%ecx
    2412:	85 c9                	test   %ecx,%ecx
    2414:	74 0e                	je     2424 <ddf_fun_destroy+0x64>
    2416:	8b 50 04             	mov    0x4(%eax),%edx
    2419:	85 d2                	test   %edx,%edx
    241b:	74 07                	je     2424 <ddf_fun_destroy+0x64>
    241d:	89 0a                	mov    %ecx,(%edx)
    241f:	8b 08                	mov    (%eax),%ecx
    2421:	89 51 04             	mov    %edx,0x4(%ecx)
    2424:	8b 50 08             	mov    0x8(%eax),%edx
    2427:	c7 00 00 00 00 00    	movl   $0x0,(%eax)
    242d:	c7 40 04 00 00 00 00 	movl   $0x0,0x4(%eax)
    2434:	85 d2                	test   %edx,%edx
    2436:	74 0e                	je     2446 <ddf_fun_destroy+0x86>
    2438:	89 14 24             	mov    %edx,(%esp)
    243b:	89 45 e4             	mov    %eax,-0x1c(%ebp)
    243e:	e8 0d 47 01 00       	call   16b50 <free>
    2443:	8b 45 e4             	mov    -0x1c(%ebp),%eax
    2446:	89 04 24             	mov    %eax,(%esp)
    2449:	e8 02 47 01 00       	call   16b50 <free>
    244e:	8b 47 04             	mov    0x4(%edi),%eax
    2451:	39 f8                	cmp    %edi,%eax
    2453:	75 bb                	jne    2410 <ddf_fun_destroy+0x50>
    2455:	8b 43 20             	mov    0x20(%ebx),%eax
    2458:	85 c0                	test   %eax,%eax
    245a:	74 08                	je     2464 <ddf_fun_destroy+0xa4>
    245c:	89 04 24             	mov    %eax,(%esp)
    245f:	e8 ec 46 01 00       	call   16b50 <free>
    2464:	8b 43 14             	mov    0x14(%ebx),%eax
    2467:	85 c0                	test   %eax,%eax
    2469:	74 08                	je     2473 <ddf_fun_destroy+0xb3>
    246b:	89 04 24             	mov    %eax,(%esp)
    246e:	e8 dd 46 01 00       	call   16b50 <free>
    2473:	89 1c 24             	mov    %ebx,(%esp)
    2476:	e8 d5 46 01 00       	call   16b50 <free>
    247b:	e9 63 ff ff ff       	jmp    23e3 <ddf_fun_destroy+0x23>
    2480:	8b 46 08             	mov    0x8(%esi),%eax
    2483:	85 c0                	test   %eax,%eax
    2485:	74 08                	je     248f <ddf_fun_destroy+0xcf>
    2487:	89 04 24             	mov    %eax,(%esp)
    248a:	e8 f1 79 01 00       	call   19e80 <async_hangup>
    248f:	8b 46 10             	mov    0x10(%esi),%eax
    2492:	85 c0                	test   %eax,%eax
    2494:	74 08                	je     249e <ddf_fun_destroy+0xde>
    2496:	89 04 24             	mov    %eax,(%esp)
    2499:	e8 b2 46 01 00       	call   16b50 <free>
    249e:	89 75 08             	mov    %esi,0x8(%ebp)
    24a1:	83 c4 2c             	add    $0x2c,%esp
    24a4:	5b                   	pop    %ebx
    24a5:	5e                   	pop    %esi
    24a6:	5f                   	pop    %edi
    24a7:	5d                   	pop    %ebp
    24a8:	e9 a3 46 01 00       	jmp    16b50 <free>
    24ad:	c7 44 24 08 11 03 00 	movl   $0x311,0x8(%esp)
    24b4:	00 
    24b5:	c7 44 24 04 f0 5e 02 	movl   $0x25ef0,0x4(%esp)
    24bc:	00 
    24bd:	c7 04 24 88 5f 02 00 	movl   $0x25f88,(%esp)
    24c4:	e8 d7 ed 01 00       	call   212a0 <assert_abort>
    24c9:	8d b4 26 00 00 00 00 	lea    0x0(%esi,%eiz,1),%esi

000024d0 <ddf_fun_bind>:
    24d0:	55                   	push   %ebp
    24d1:	89 e5                	mov    %esp,%ebp
    24d3:	53                   	push   %ebx
    24d4:	83 ec 34             	sub    $0x34,%esp
    24d7:	8b 5d 08             	mov    0x8(%ebp),%ebx
    24da:	80 3b 00             	cmpb   $0x0,(%ebx)
    24dd:	0f 85 c3 00 00 00    	jne    25a6 <ddf_fun_bind+0xd6>
    24e3:	8b 43 14             	mov    0x14(%ebx),%eax
    24e6:	85 c0                	test   %eax,%eax
    24e8:	0f 84 d4 00 00 00    	je     25c2 <ddf_fun_bind+0xf2>
    24ee:	c7 04 24 58 8f 02 00 	movl   $0x28f58,(%esp)
    24f5:	e8 66 b2 00 00       	call   d760 <fibril_mutex_lock>
    24fa:	8b 15 68 8f 02 00    	mov    0x28f68,%edx
    2500:	8d 43 2c             	lea    0x2c(%ebx),%eax
    2503:	c7 43 30 68 8f 02 00 	movl   $0x28f68,0x30(%ebx)
    250a:	89 53 2c             	mov    %edx,0x2c(%ebx)
    250d:	89 42 04             	mov    %eax,0x4(%edx)
    2510:	c7 04 24 58 8f 02 00 	movl   $0x28f58,(%esp)
    2517:	a3 68 8f 02 00       	mov    %eax,0x28f68
    251c:	e8 5f b3 00 00       	call   d880 <fibril_mutex_unlock>
    2521:	8d 43 04             	lea    0x4(%ebx),%eax
    2524:	89 44 24 10          	mov    %eax,0x10(%esp)
    2528:	8b 43 0c             	mov    0xc(%ebx),%eax
    252b:	8b 00                	mov    (%eax),%eax
    252d:	89 44 24 0c          	mov    %eax,0xc(%esp)
    2531:	8d 43 18             	lea    0x18(%ebx),%eax
    2534:	89 44 24 08          	mov    %eax,0x8(%esp)
    2538:	8b 43 10             	mov    0x10(%ebx),%eax
    253b:	89 44 24 04          	mov    %eax,0x4(%esp)
    253f:	8b 43 14             	mov    0x14(%ebx),%eax
    2542:	89 04 24             	mov    %eax,(%esp)
    2545:	e8 56 58 00 00       	call   7da0 <devman_add_function>
    254a:	85 c0                	test   %eax,%eax
    254c:	75 0a                	jne    2558 <ddf_fun_bind+0x88>
    254e:	c6 03 01             	movb   $0x1,(%ebx)
    2551:	83 c4 34             	add    $0x34,%esp
    2554:	5b                   	pop    %ebx
    2555:	5d                   	pop    %ebp
    2556:	c3                   	ret    
    2557:	90                   	nop
    2558:	c7 04 24 58 8f 02 00 	movl   $0x28f58,(%esp)
    255f:	89 45 f4             	mov    %eax,-0xc(%ebp)
    2562:	e8 f9 b1 00 00       	call   d760 <fibril_mutex_lock>
    2567:	8b 4b 2c             	mov    0x2c(%ebx),%ecx
    256a:	85 c9                	test   %ecx,%ecx
    256c:	8b 45 f4             	mov    -0xc(%ebp),%eax
    256f:	74 0f                	je     2580 <ddf_fun_bind+0xb0>
    2571:	8b 53 30             	mov    0x30(%ebx),%edx
    2574:	85 d2                	test   %edx,%edx
    2576:	74 08                	je     2580 <ddf_fun_bind+0xb0>
    2578:	89 0a                	mov    %ecx,(%edx)
    257a:	8b 4b 2c             	mov    0x2c(%ebx),%ecx
    257d:	89 51 04             	mov    %edx,0x4(%ecx)
    2580:	c7 43 2c 00 00 00 00 	movl   $0x0,0x2c(%ebx)
    2587:	c7 43 30 00 00 00 00 	movl   $0x0,0x30(%ebx)
    258e:	c7 04 24 58 8f 02 00 	movl   $0x28f58,(%esp)
    2595:	89 45 f4             	mov    %eax,-0xc(%ebp)
    2598:	e8 e3 b2 00 00       	call   d880 <fibril_mutex_unlock>
    259d:	8b 45 f4             	mov    -0xc(%ebp),%eax
    25a0:	83 c4 34             	add    $0x34,%esp
    25a3:	5b                   	pop    %ebx
    25a4:	5d                   	pop    %ebp
    25a5:	c3                   	ret    
    25a6:	c7 44 24 08 35 03 00 	movl   $0x335,0x8(%esp)
    25ad:	00 
    25ae:	c7 44 24 04 f0 5e 02 	movl   $0x25ef0,0x4(%esp)
    25b5:	00 
    25b6:	c7 04 24 88 5f 02 00 	movl   $0x25f88,(%esp)
    25bd:	e8 de ec 01 00       	call   212a0 <assert_abort>
    25c2:	c7 44 24 08 36 03 00 	movl   $0x336,0x8(%esp)
    25c9:	00 
    25ca:	c7 44 24 04 f0 5e 02 	movl   $0x25ef0,0x4(%esp)
    25d1:	00 
    25d2:	c7 04 24 9c 5f 02 00 	movl   $0x25f9c,(%esp)
    25d9:	e8 c2 ec 01 00       	call   212a0 <assert_abort>
    25de:	66 90                	xchg   %ax,%ax

000025e0 <ddf_fun_unbind>:
    25e0:	55                   	push   %ebp
    25e1:	89 e5                	mov    %esp,%ebp
    25e3:	53                   	push   %ebx
    25e4:	83 ec 24             	sub    $0x24,%esp
    25e7:	8b 5d 08             	mov    0x8(%ebp),%ebx
    25ea:	80 3b 00             	cmpb   $0x0,(%ebx)
    25ed:	74 6a                	je     2659 <ddf_fun_unbind+0x79>
    25ef:	8b 43 04             	mov    0x4(%ebx),%eax
    25f2:	89 04 24             	mov    %eax,(%esp)
    25f5:	e8 46 5c 00 00       	call   8240 <devman_remove_function>
    25fa:	85 c0                	test   %eax,%eax
    25fc:	74 0a                	je     2608 <ddf_fun_unbind+0x28>
    25fe:	83 c4 24             	add    $0x24,%esp
    2601:	5b                   	pop    %ebx
    2602:	5d                   	pop    %ebp
    2603:	c3                   	ret    
    2604:	8d 74 26 00          	lea    0x0(%esi,%eiz,1),%esi
    2608:	c7 04 24 58 8f 02 00 	movl   $0x28f58,(%esp)
    260f:	89 45 f4             	mov    %eax,-0xc(%ebp)
    2612:	e8 49 b1 00 00       	call   d760 <fibril_mutex_lock>
    2617:	8b 4b 2c             	mov    0x2c(%ebx),%ecx
    261a:	85 c9                	test   %ecx,%ecx
    261c:	8b 45 f4             	mov    -0xc(%ebp),%eax
    261f:	74 0f                	je     2630 <ddf_fun_unbind+0x50>
    2621:	8b 53 30             	mov    0x30(%ebx),%edx
    2624:	85 d2                	test   %edx,%edx
    2626:	74 08                	je     2630 <ddf_fun_unbind+0x50>
    2628:	89 0a                	mov    %ecx,(%edx)
    262a:	8b 4b 2c             	mov    0x2c(%ebx),%ecx
    262d:	89 51 04             	mov    %edx,0x4(%ecx)
    2630:	c7 43 2c 00 00 00 00 	movl   $0x0,0x2c(%ebx)
    2637:	c7 43 30 00 00 00 00 	movl   $0x0,0x30(%ebx)
    263e:	c7 04 24 58 8f 02 00 	movl   $0x28f58,(%esp)
    2645:	89 45 f4             	mov    %eax,-0xc(%ebp)
    2648:	e8 33 b2 00 00       	call   d880 <fibril_mutex_unlock>
    264d:	c6 03 00             	movb   $0x0,(%ebx)
    2650:	8b 45 f4             	mov    -0xc(%ebp),%eax
    2653:	83 c4 24             	add    $0x24,%esp
    2656:	5b                   	pop    %ebx
    2657:	5d                   	pop    %ebp
    2658:	c3                   	ret    
    2659:	c7 44 24 08 50 03 00 	movl   $0x350,0x8(%esp)
    2660:	00 
    2661:	c7 44 24 04 f0 5e 02 	movl   $0x25ef0,0x4(%esp)
    2668:	00 
    2669:	c7 04 24 ae 5f 02 00 	movl   $0x25fae,(%esp)
    2670:	e8 2b ec 01 00       	call   212a0 <assert_abort>
    2675:	8d 74 26 00          	lea    0x0(%esi,%eiz,1),%esi
    2679:	8d bc 27 00 00 00 00 	lea    0x0(%edi,%eiz,1),%edi

00002680 <ddf_fun_online>:
    2680:	55                   	push   %ebp
    2681:	89 e5                	mov    %esp,%ebp
    2683:	83 ec 18             	sub    $0x18,%esp
    2686:	8b 45 08             	mov    0x8(%ebp),%eax
    2689:	80 38 00             	cmpb   $0x0,(%eax)
    268c:	74 0c                	je     269a <ddf_fun_online+0x1a>
    268e:	8b 40 04             	mov    0x4(%eax),%eax
    2691:	89 45 08             	mov    %eax,0x8(%ebp)
    2694:	c9                   	leave  
    2695:	e9 16 5d 00 00       	jmp    83b0 <devman_drv_fun_online>
    269a:	c7 44 24 08 65 03 00 	movl   $0x365,0x8(%esp)
    26a1:	00 
    26a2:	c7 44 24 04 f0 5e 02 	movl   $0x25ef0,0x4(%esp)
    26a9:	00 
    26aa:	c7 04 24 ae 5f 02 00 	movl   $0x25fae,(%esp)
    26b1:	e8 ea eb 01 00       	call   212a0 <assert_abort>
    26b6:	8d 76 00             	lea    0x0(%esi),%esi
    26b9:	8d bc 27 00 00 00 00 	lea    0x0(%edi,%eiz,1),%edi

000026c0 <ddf_fun_offline>:
    26c0:	55                   	push   %ebp
    26c1:	89 e5                	mov    %esp,%ebp
    26c3:	83 ec 18             	sub    $0x18,%esp
    26c6:	8b 45 08             	mov    0x8(%ebp),%eax
    26c9:	80 38 00             	cmpb   $0x0,(%eax)
    26cc:	74 0c                	je     26da <ddf_fun_offline+0x1a>
    26ce:	8b 40 04             	mov    0x4(%eax),%eax
    26d1:	89 45 08             	mov    %eax,0x8(%ebp)
    26d4:	c9                   	leave  
    26d5:	e9 c6 5d 00 00       	jmp    84a0 <devman_drv_fun_offline>
    26da:	c7 44 24 08 77 03 00 	movl   $0x377,0x8(%esp)
    26e1:	00 
    26e2:	c7 44 24 04 f0 5e 02 	movl   $0x25ef0,0x4(%esp)
    26e9:	00 
    26ea:	c7 04 24 ae 5f 02 00 	movl   $0x25fae,(%esp)
    26f1:	e8 aa eb 01 00       	call   212a0 <assert_abort>
    26f6:	8d 76 00             	lea    0x0(%esi),%esi
    26f9:	8d bc 27 00 00 00 00 	lea    0x0(%edi,%eiz,1),%edi

00002700 <ddf_fun_add_match_id>:
    2700:	55                   	push   %ebp
    2701:	89 e5                	mov    %esp,%ebp
    2703:	57                   	push   %edi
    2704:	56                   	push   %esi
    2705:	53                   	push   %ebx
    2706:	83 ec 1c             	sub    $0x1c,%esp
    2709:	8b 75 08             	mov    0x8(%ebp),%esi
    270c:	8b 5d 10             	mov    0x10(%ebp),%ebx
    270f:	80 3e 00             	cmpb   $0x0,(%esi)
    2712:	0f 85 97 00 00 00    	jne    27af <ddf_fun_add_match_id+0xaf>
    2718:	83 7e 10 01          	cmpl   $0x1,0x10(%esi)
    271c:	75 75                	jne    2793 <ddf_fun_add_match_id+0x93>
    271e:	c7 04 24 10 00 00 00 	movl   $0x10,(%esp)
    2725:	e8 16 43 01 00       	call   16a40 <malloc>
    272a:	c7 44 24 08 10 00 00 	movl   $0x10,0x8(%esp)
    2731:	00 
    2732:	89 c7                	mov    %eax,%edi
    2734:	c7 44 24 04 00 00 00 	movl   $0x0,0x4(%esp)
    273b:	00 
    273c:	89 04 24             	mov    %eax,(%esp)
    273f:	e8 bc 6d 00 00       	call   9500 <memset>
    2744:	85 ff                	test   %edi,%edi
    2746:	74 44                	je     278c <ddf_fun_add_match_id+0x8c>
    2748:	8b 45 0c             	mov    0xc(%ebp),%eax
    274b:	89 04 24             	mov    %eax,(%esp)
    274e:	e8 dd 9c 00 00       	call   c430 <str_dup>
    2753:	8b 56 1c             	mov    0x1c(%esi),%edx
    2756:	8d 4e 18             	lea    0x18(%esi),%ecx
    2759:	89 47 08             	mov    %eax,0x8(%edi)
    275c:	89 5f 0c             	mov    %ebx,0xc(%edi)
    275f:	39 ca                	cmp    %ecx,%edx
    2761:	75 0c                	jne    276f <ddf_fun_add_match_id+0x6f>
    2763:	eb 0f                	jmp    2774 <ddf_fun_add_match_id+0x74>
    2765:	8d 76 00             	lea    0x0(%esi),%esi
    2768:	8b 52 04             	mov    0x4(%edx),%edx
    276b:	39 ca                	cmp    %ecx,%edx
    276d:	74 05                	je     2774 <ddf_fun_add_match_id+0x74>
    276f:	3b 5a 0c             	cmp    0xc(%edx),%ebx
    2772:	76 f4                	jbe    2768 <ddf_fun_add_match_id+0x68>
    2774:	8b 02                	mov    (%edx),%eax
    2776:	89 57 04             	mov    %edx,0x4(%edi)
    2779:	89 07                	mov    %eax,(%edi)
    277b:	8b 02                	mov    (%edx),%eax
    277d:	89 3a                	mov    %edi,(%edx)
    277f:	89 78 04             	mov    %edi,0x4(%eax)
    2782:	31 c0                	xor    %eax,%eax
    2784:	83 c4 1c             	add    $0x1c,%esp
    2787:	5b                   	pop    %ebx
    2788:	5e                   	pop    %esi
    2789:	5f                   	pop    %edi
    278a:	5d                   	pop    %ebp
    278b:	c3                   	ret    
    278c:	b8 fe ff ff ff       	mov    $0xfffffffe,%eax
    2791:	eb f1                	jmp    2784 <ddf_fun_add_match_id+0x84>
    2793:	c7 44 24 08 91 03 00 	movl   $0x391,0x8(%esp)
    279a:	00 
    279b:	c7 44 24 04 f0 5e 02 	movl   $0x25ef0,0x4(%esp)
    27a2:	00 
    27a3:	c7 04 24 c1 5f 02 00 	movl   $0x25fc1,(%esp)
    27aa:	e8 f1 ea 01 00       	call   212a0 <assert_abort>
    27af:	c7 44 24 08 90 03 00 	movl   $0x390,0x8(%esp)
    27b6:	00 
    27b7:	c7 44 24 04 f0 5e 02 	movl   $0x25ef0,0x4(%esp)
    27be:	00 
    27bf:	c7 04 24 88 5f 02 00 	movl   $0x25f88,(%esp)
    27c6:	e8 d5 ea 01 00       	call   212a0 <assert_abort>
    27cb:	90                   	nop
    27cc:	8d 74 26 00          	lea    0x0(%esi,%eiz,1),%esi

000027d0 <ddf_fun_set_ops>:
    27d0:	55                   	push   %ebp
    27d1:	89 e5                	mov    %esp,%ebp
    27d3:	83 ec 18             	sub    $0x18,%esp
    27d6:	8b 45 08             	mov    0x8(%ebp),%eax
    27d9:	8b 50 28             	mov    0x28(%eax),%edx
    27dc:	85 d2                	test   %edx,%edx
    27de:	75 08                	jne    27e8 <ddf_fun_set_ops+0x18>
    27e0:	8b 55 0c             	mov    0xc(%ebp),%edx
    27e3:	89 50 24             	mov    %edx,0x24(%eax)
    27e6:	c9                   	leave  
    27e7:	c3                   	ret    
    27e8:	c7 44 24 08 a1 03 00 	movl   $0x3a1,0x8(%esp)
    27ef:	00 
    27f0:	c7 44 24 04 f0 5e 02 	movl   $0x25ef0,0x4(%esp)
    27f7:	00 
    27f8:	c7 04 24 d9 5f 02 00 	movl   $0x25fd9,(%esp)
    27ff:	e8 9c ea 01 00       	call   212a0 <assert_abort>
    2804:	8d b6 00 00 00 00    	lea    0x0(%esi),%esi
    280a:	8d bf 00 00 00 00    	lea    0x0(%edi),%edi

00002810 <ddf_fun_set_conn_handler>:
    2810:	55                   	push   %ebp
    2811:	89 e5                	mov    %esp,%ebp
    2813:	83 ec 18             	sub    $0x18,%esp
    2816:	8b 45 08             	mov    0x8(%ebp),%eax
    2819:	8b 48 24             	mov    0x24(%eax),%ecx
    281c:	85 c9                	test   %ecx,%ecx
    281e:	75 08                	jne    2828 <ddf_fun_set_conn_handler+0x18>
    2820:	8b 55 0c             	mov    0xc(%ebp),%edx
    2823:	89 50 28             	mov    %edx,0x28(%eax)
    2826:	c9                   	leave  
    2827:	c3                   	ret    
    2828:	c7 44 24 08 ab 03 00 	movl   $0x3ab,0x8(%esp)
    282f:	00 
    2830:	c7 44 24 04 f0 5e 02 	movl   $0x25ef0,0x4(%esp)
    2837:	00 
    2838:	c7 04 24 f3 5f 02 00 	movl   $0x25ff3,(%esp)
    283f:	e8 5c ea 01 00       	call   212a0 <assert_abort>
    2844:	8d b6 00 00 00 00    	lea    0x0(%esi),%esi
    284a:	8d bf 00 00 00 00    	lea    0x0(%edi),%edi

00002850 <ddf_fun_add_to_category>:
    2850:	55                   	push   %ebp
    2851:	89 e5                	mov    %esp,%ebp
    2853:	83 ec 18             	sub    $0x18,%esp
    2856:	8b 45 08             	mov    0x8(%ebp),%eax
    2859:	8b 55 0c             	mov    0xc(%ebp),%edx
    285c:	80 38 00             	cmpb   $0x0,(%eax)
    285f:	74 15                	je     2876 <ddf_fun_add_to_category+0x26>
    2861:	83 78 10 02          	cmpl   $0x2,0x10(%eax)
    2865:	75 2b                	jne    2892 <ddf_fun_add_to_category+0x42>
    2867:	89 55 0c             	mov    %edx,0xc(%ebp)
    286a:	8b 40 04             	mov    0x4(%eax),%eax
    286d:	89 45 08             	mov    %eax,0x8(%ebp)
    2870:	c9                   	leave  
    2871:	e9 ea 57 00 00       	jmp    8060 <devman_add_device_to_category>
    2876:	c7 44 24 08 be 03 00 	movl   $0x3be,0x8(%esp)
    287d:	00 
    287e:	c7 44 24 04 f0 5e 02 	movl   $0x25ef0,0x4(%esp)
    2885:	00 
    2886:	c7 04 24 ae 5f 02 00 	movl   $0x25fae,(%esp)
    288d:	e8 0e ea 01 00       	call   212a0 <assert_abort>
    2892:	c7 44 24 08 bf 03 00 	movl   $0x3bf,0x8(%esp)
    2899:	00 
    289a:	c7 44 24 04 f0 5e 02 	movl   $0x25ef0,0x4(%esp)
    28a1:	00 
    28a2:	c7 04 24 04 60 02 00 	movl   $0x26004,(%esp)
    28a9:	e8 f2 e9 01 00       	call   212a0 <assert_abort>
    28ae:	66 90                	xchg   %ax,%ax

000028b0 <ddf_driver_main>:
    28b0:	55                   	push   %ebp
    28b1:	89 e5                	mov    %esp,%ebp
    28b3:	53                   	push   %ebx
    28b4:	83 ec 14             	sub    $0x14,%esp
    28b7:	8b 45 08             	mov    0x8(%ebp),%eax
    28ba:	a3 c0 93 02 00       	mov    %eax,0x293c0
    28bf:	e8 7c 01 00 00       	call   2a40 <interrupt_init>
    28c4:	c7 04 24 00 1b 00 00 	movl   $0x1b00,(%esp)
    28cb:	e8 60 54 01 00       	call   17d30 <async_set_client_connection>
    28d0:	a1 c0 93 02 00       	mov    0x293c0,%eax
    28d5:	8b 00                	mov    (%eax),%eax
    28d7:	89 04 24             	mov    %eax,(%esp)
    28da:	e8 81 52 00 00       	call   7b60 <devman_driver_register>
    28df:	89 c3                	mov    %eax,%ebx
    28e1:	85 c0                	test   %eax,%eax
    28e3:	74 2b                	je     2910 <ddf_driver_main+0x60>
    28e5:	b8 1e 60 02 00       	mov    $0x2601e,%eax
    28ea:	83 fb f7             	cmp    $0xfffffff7,%ebx
    28ed:	74 08                	je     28f7 <ddf_driver_main+0x47>
    28ef:	89 1c 24             	mov    %ebx,(%esp)
    28f2:	e8 79 a4 00 00       	call   cd70 <str_error>
    28f7:	89 44 24 04          	mov    %eax,0x4(%esp)
    28fb:	c7 04 24 ac 61 02 00 	movl   $0x261ac,(%esp)
    2902:	e8 e9 ed 00 00       	call   116f0 <printf>
    2907:	83 c4 14             	add    $0x14,%esp
    290a:	89 d8                	mov    %ebx,%eax
    290c:	5b                   	pop    %ebx
    290d:	5d                   	pop    %ebp
    290e:	c3                   	ret    
    290f:	90                   	nop
    2910:	c7 04 24 00 00 00 00 	movl   $0x0,(%esp)
    2917:	e8 94 c7 00 00       	call   f0b0 <task_retval>
    291c:	89 c3                	mov    %eax,%ebx
    291e:	85 c0                	test   %eax,%eax
    2920:	75 e5                	jne    2907 <ddf_driver_main+0x57>
    2922:	c7 04 24 01 00 00 00 	movl   $0x1,(%esp)
    2929:	e8 62 a6 00 00       	call   cf90 <fibril_switch>
    292e:	83 c4 14             	add    $0x14,%esp
    2931:	89 d8                	mov    %ebx,%eax
    2933:	5b                   	pop    %ebx
    2934:	5d                   	pop    %ebp
    2935:	c3                   	ret    
    2936:	66 90                	xchg   %ax,%ax
    2938:	66 90                	xchg   %ax,%ax
    293a:	66 90                	xchg   %ax,%ax
    293c:	66 90                	xchg   %ax,%ax
    293e:	66 90                	xchg   %ax,%ax

00002940 <get_remote_iface>:
    2940:	55                   	push   %ebp
    2941:	89 e5                	mov    %esp,%ebp
    2943:	83 ec 18             	sub    $0x18,%esp
    2946:	8b 45 08             	mov    0x8(%ebp),%eax
    2949:	83 f8 0a             	cmp    $0xa,%eax
    294c:	77 09                	ja     2957 <get_remote_iface+0x17>
    294e:	8b 04 85 20 62 02 00 	mov    0x26220(,%eax,4),%eax
    2955:	c9                   	leave  
    2956:	c3                   	ret    
    2957:	c7 44 24 08 47 00 00 	movl   $0x47,0x8(%esp)
    295e:	00 
    295f:	c7 44 24 04 fc 61 02 	movl   $0x261fc,0x4(%esp)
    2966:	00 
    2967:	c7 04 24 01 5f 02 00 	movl   $0x25f01,(%esp)
    296e:	e8 2d e9 01 00       	call   212a0 <assert_abort>
    2973:	8d b6 00 00 00 00    	lea    0x0(%esi),%esi
    2979:	8d bc 27 00 00 00 00 	lea    0x0(%edi,%eiz,1),%edi

00002980 <get_remote_method>:
    2980:	55                   	push   %ebp
    2981:	89 e5                	mov    %esp,%ebp
    2983:	8b 55 08             	mov    0x8(%ebp),%edx
    2986:	8b 45 0c             	mov    0xc(%ebp),%eax
    2989:	39 02                	cmp    %eax,(%edx)
    298b:	76 0b                	jbe    2998 <get_remote_method+0x18>
    298d:	8b 52 04             	mov    0x4(%edx),%edx
    2990:	5d                   	pop    %ebp
    2991:	8b 04 82             	mov    (%edx,%eax,4),%eax
    2994:	c3                   	ret    
    2995:	8d 76 00             	lea    0x0(%esi),%esi
    2998:	31 c0                	xor    %eax,%eax
    299a:	5d                   	pop    %ebp
    299b:	c3                   	ret    
    299c:	8d 74 26 00          	lea    0x0(%esi,%eiz,1),%esi

000029a0 <is_valid_iface_idx>:
    29a0:	55                   	push   %ebp
    29a1:	89 e5                	mov    %esp,%ebp
    29a3:	83 7d 08 0a          	cmpl   $0xa,0x8(%ebp)
    29a7:	5d                   	pop    %ebp
    29a8:	0f 96 c0             	setbe  %al
    29ab:	c3                   	ret    
    29ac:	66 90                	xchg   %ax,%ax
    29ae:	66 90                	xchg   %ax,%ax

000029b0 <driver_irq_handler>:
    29b0:	55                   	push   %ebp
    29b1:	89 e5                	mov    %esp,%ebp
    29b3:	57                   	push   %edi
    29b4:	56                   	push   %esi
    29b5:	53                   	push   %ebx
    29b6:	83 ec 2c             	sub    $0x2c,%esp
    29b9:	8b 5d 0c             	mov    0xc(%ebp),%ebx
    29bc:	8b 45 08             	mov    0x8(%ebp),%eax
    29bf:	89 45 e4             	mov    %eax,-0x1c(%ebp)
    29c2:	8b 33                	mov    (%ebx),%esi
    29c4:	c7 04 24 d0 93 02 00 	movl   $0x293d0,(%esp)
    29cb:	e8 90 ad 00 00       	call   d760 <fibril_mutex_lock>
    29d0:	a1 cc 93 02 00       	mov    0x293cc,%eax
    29d5:	3d c8 93 02 00       	cmp    $0x293c8,%eax
    29da:	75 0e                	jne    29ea <driver_irq_handler+0x3a>
    29dc:	eb 42                	jmp    2a20 <driver_irq_handler+0x70>
    29de:	66 90                	xchg   %ax,%ax
    29e0:	8b 40 04             	mov    0x4(%eax),%eax
    29e3:	3d c8 93 02 00       	cmp    $0x293c8,%eax
    29e8:	74 36                	je     2a20 <driver_irq_handler+0x70>
    29ea:	8d 78 f0             	lea    -0x10(%eax),%edi
    29ed:	3b 70 f0             	cmp    -0x10(%eax),%esi
    29f0:	75 ee                	jne    29e0 <driver_irq_handler+0x30>
    29f2:	c7 04 24 d0 93 02 00 	movl   $0x293d0,(%esp)
    29f9:	e8 82 ae 00 00       	call   d880 <fibril_mutex_unlock>
    29fe:	8b 47 0c             	mov    0xc(%edi),%eax
    2a01:	85 c0                	test   %eax,%eax
    2a03:	74 13                	je     2a18 <driver_irq_handler+0x68>
    2a05:	8b 55 e4             	mov    -0x1c(%ebp),%edx
    2a08:	89 5c 24 08          	mov    %ebx,0x8(%esp)
    2a0c:	89 54 24 04          	mov    %edx,0x4(%esp)
    2a10:	8b 57 04             	mov    0x4(%edi),%edx
    2a13:	89 14 24             	mov    %edx,(%esp)
    2a16:	ff d0                	call   *%eax
    2a18:	83 c4 2c             	add    $0x2c,%esp
    2a1b:	5b                   	pop    %ebx
    2a1c:	5e                   	pop    %esi
    2a1d:	5f                   	pop    %edi
    2a1e:	5d                   	pop    %ebp
    2a1f:	c3                   	ret    
    2a20:	c7 45 08 d0 93 02 00 	movl   $0x293d0,0x8(%ebp)
    2a27:	83 c4 2c             	add    $0x2c,%esp
    2a2a:	5b                   	pop    %ebx
    2a2b:	5e                   	pop    %esi
    2a2c:	5f                   	pop    %edi
    2a2d:	5d                   	pop    %ebp
    2a2e:	e9 4d ae 00 00       	jmp    d880 <fibril_mutex_unlock>
    2a33:	8d b6 00 00 00 00    	lea    0x0(%esi),%esi
    2a39:	8d bc 27 00 00 00 00 	lea    0x0(%edi,%eiz,1),%edi

00002a40 <interrupt_init>:
    2a40:	55                   	push   %ebp
    2a41:	89 e5                	mov    %esp,%ebp
    2a43:	83 ec 18             	sub    $0x18,%esp
    2a46:	c7 44 24 08 1c 00 00 	movl   $0x1c,0x8(%esp)
    2a4d:	00 
    2a4e:	c7 44 24 04 00 00 00 	movl   $0x0,0x4(%esp)
    2a55:	00 
    2a56:	c7 04 24 c4 93 02 00 	movl   $0x293c4,(%esp)
    2a5d:	e8 9e 6a 00 00       	call   9500 <memset>
    2a62:	c7 04 24 d0 93 02 00 	movl   $0x293d0,(%esp)
    2a69:	e8 d2 ac 00 00       	call   d740 <fibril_mutex_initialize>
    2a6e:	c7 04 24 b0 29 00 00 	movl   $0x29b0,(%esp)
    2a75:	c7 05 c8 93 02 00 c8 	movl   $0x293c8,0x293c8
    2a7c:	93 02 00 
    2a7f:	c7 05 cc 93 02 00 c8 	movl   $0x293c8,0x293cc
    2a86:	93 02 00 
    2a89:	e8 e2 52 01 00       	call   17d70 <async_set_interrupt_received>
    2a8e:	c9                   	leave  
    2a8f:	c3                   	ret    

00002a90 <register_interrupt_handler>:
    2a90:	55                   	push   %ebp
    2a91:	89 e5                	mov    %esp,%ebp
    2a93:	57                   	push   %edi
    2a94:	56                   	push   %esi
    2a95:	53                   	push   %ebx
    2a96:	83 ec 2c             	sub    $0x2c,%esp
    2a99:	8b 7d 08             	mov    0x8(%ebp),%edi
    2a9c:	8b 5d 14             	mov    0x14(%ebp),%ebx
    2a9f:	c7 04 24 18 00 00 00 	movl   $0x18,(%esp)
    2aa6:	e8 95 3f 01 00       	call   16a40 <malloc>
    2aab:	89 c6                	mov    %eax,%esi
    2aad:	85 c0                	test   %eax,%eax
    2aaf:	74 18                	je     2ac9 <register_interrupt_handler+0x39>
    2ab1:	c7 44 24 08 18 00 00 	movl   $0x18,0x8(%esp)
    2ab8:	00 
    2ab9:	c7 44 24 04 00 00 00 	movl   $0x0,0x4(%esp)
    2ac0:	00 
    2ac1:	89 04 24             	mov    %eax,(%esp)
    2ac4:	e8 37 6a 00 00       	call   9500 <memset>
    2ac9:	8b 45 0c             	mov    0xc(%ebp),%eax
    2acc:	c7 04 24 d0 93 02 00 	movl   $0x293d0,(%esp)
    2ad3:	89 46 08             	mov    %eax,0x8(%esi)
    2ad6:	8b 45 10             	mov    0x10(%ebp),%eax
    2ad9:	89 46 0c             	mov    %eax,0xc(%esi)
    2adc:	89 7e 04             	mov    %edi,0x4(%esi)
    2adf:	e8 7c ac 00 00       	call   d760 <fibril_mutex_lock>
    2ae4:	a1 c4 93 02 00       	mov    0x293c4,%eax
    2ae9:	8b 0d c8 93 02 00    	mov    0x293c8,%ecx
    2aef:	89 06                	mov    %eax,(%esi)
    2af1:	40                   	inc    %eax
    2af2:	c7 46 14 c8 93 02 00 	movl   $0x293c8,0x14(%esi)
    2af9:	a3 c4 93 02 00       	mov    %eax,0x293c4
    2afe:	8d 46 10             	lea    0x10(%esi),%eax
    2b01:	89 41 04             	mov    %eax,0x4(%ecx)
    2b04:	c7 04 24 d0 93 02 00 	movl   $0x293d0,(%esp)
    2b0b:	89 4e 10             	mov    %ecx,0x10(%esi)
    2b0e:	a3 c8 93 02 00       	mov    %eax,0x293c8
    2b13:	e8 68 ad 00 00       	call   d880 <fibril_mutex_unlock>
    2b18:	85 db                	test   %ebx,%ebx
    2b1a:	0f 84 80 00 00 00    	je     2ba0 <register_interrupt_handler+0x110>
    2b20:	8b 06                	mov    (%esi),%eax
    2b22:	89 5c 24 0c          	mov    %ebx,0xc(%esp)
    2b26:	89 44 24 08          	mov    %eax,0x8(%esp)
    2b2a:	8b 07                	mov    (%edi),%eax
    2b2c:	89 44 24 04          	mov    %eax,0x4(%esp)
    2b30:	8b 45 0c             	mov    0xc(%ebp),%eax
    2b33:	89 04 24             	mov    %eax,(%esp)
    2b36:	e8 05 4c 00 00       	call   7740 <irq_register>
    2b3b:	85 c0                	test   %eax,%eax
    2b3d:	75 09                	jne    2b48 <register_interrupt_handler+0xb8>
    2b3f:	83 c4 2c             	add    $0x2c,%esp
    2b42:	5b                   	pop    %ebx
    2b43:	5e                   	pop    %esi
    2b44:	5f                   	pop    %edi
    2b45:	5d                   	pop    %ebp
    2b46:	c3                   	ret    
    2b47:	90                   	nop
    2b48:	c7 04 24 d0 93 02 00 	movl   $0x293d0,(%esp)
    2b4f:	89 45 e4             	mov    %eax,-0x1c(%ebp)
    2b52:	e8 09 ac 00 00       	call   d760 <fibril_mutex_lock>
    2b57:	8b 5e 10             	mov    0x10(%esi),%ebx
    2b5a:	85 db                	test   %ebx,%ebx
    2b5c:	8b 45 e4             	mov    -0x1c(%ebp),%eax
    2b5f:	74 0f                	je     2b70 <register_interrupt_handler+0xe0>
    2b61:	8b 4e 14             	mov    0x14(%esi),%ecx
    2b64:	85 c9                	test   %ecx,%ecx
    2b66:	74 08                	je     2b70 <register_interrupt_handler+0xe0>
    2b68:	89 19                	mov    %ebx,(%ecx)
    2b6a:	8b 5e 10             	mov    0x10(%esi),%ebx
    2b6d:	89 4b 04             	mov    %ecx,0x4(%ebx)
    2b70:	c7 04 24 d0 93 02 00 	movl   $0x293d0,(%esp)
    2b77:	89 45 e4             	mov    %eax,-0x1c(%ebp)
    2b7a:	c7 46 10 00 00 00 00 	movl   $0x0,0x10(%esi)
    2b81:	c7 46 14 00 00 00 00 	movl   $0x0,0x14(%esi)
    2b88:	e8 f3 ac 00 00       	call   d880 <fibril_mutex_unlock>
    2b8d:	89 34 24             	mov    %esi,(%esp)
    2b90:	e8 bb 3f 01 00       	call   16b50 <free>
    2b95:	8b 45 e4             	mov    -0x1c(%ebp),%eax
    2b98:	83 c4 2c             	add    $0x2c,%esp
    2b9b:	5b                   	pop    %ebx
    2b9c:	5e                   	pop    %esi
    2b9d:	5f                   	pop    %edi
    2b9e:	5d                   	pop    %ebp
    2b9f:	c3                   	ret    
    2ba0:	bb 88 8f 02 00       	mov    $0x28f88,%ebx
    2ba5:	e9 76 ff ff ff       	jmp    2b20 <register_interrupt_handler+0x90>
    2baa:	8d b6 00 00 00 00    	lea    0x0(%esi),%esi

00002bb0 <unregister_interrupt_handler>:
    2bb0:	55                   	push   %ebp
    2bb1:	89 e5                	mov    %esp,%ebp
    2bb3:	57                   	push   %edi
    2bb4:	56                   	push   %esi
    2bb5:	53                   	push   %ebx
    2bb6:	83 ec 1c             	sub    $0x1c,%esp
    2bb9:	8b 7d 08             	mov    0x8(%ebp),%edi
    2bbc:	8b 75 0c             	mov    0xc(%ebp),%esi
    2bbf:	c7 04 24 d0 93 02 00 	movl   $0x293d0,(%esp)
    2bc6:	e8 95 ab 00 00       	call   d760 <fibril_mutex_lock>
    2bcb:	a1 cc 93 02 00       	mov    0x293cc,%eax
    2bd0:	3d c8 93 02 00       	cmp    $0x293c8,%eax
    2bd5:	75 13                	jne    2bea <unregister_interrupt_handler+0x3a>
    2bd7:	e9 8c 00 00 00       	jmp    2c68 <unregister_interrupt_handler+0xb8>
    2bdc:	8d 74 26 00          	lea    0x0(%esi,%eiz,1),%esi
    2be0:	8b 40 04             	mov    0x4(%eax),%eax
    2be3:	3d c8 93 02 00       	cmp    $0x293c8,%eax
    2be8:	74 7e                	je     2c68 <unregister_interrupt_handler+0xb8>
    2bea:	8d 58 f0             	lea    -0x10(%eax),%ebx
    2bed:	3b 73 08             	cmp    0x8(%ebx),%esi
    2bf0:	75 ee                	jne    2be0 <unregister_interrupt_handler+0x30>
    2bf2:	3b 7b 04             	cmp    0x4(%ebx),%edi
    2bf5:	75 e9                	jne    2be0 <unregister_interrupt_handler+0x30>
    2bf7:	c7 04 24 d0 93 02 00 	movl   $0x293d0,(%esp)
    2bfe:	e8 7d ac 00 00       	call   d880 <fibril_mutex_unlock>
    2c03:	8b 07                	mov    (%edi),%eax
    2c05:	89 44 24 04          	mov    %eax,0x4(%esp)
    2c09:	89 34 24             	mov    %esi,(%esp)
    2c0c:	e8 7f 4b 00 00       	call   7790 <irq_unregister>
    2c11:	c7 04 24 d0 93 02 00 	movl   $0x293d0,(%esp)
    2c18:	89 c6                	mov    %eax,%esi
    2c1a:	e8 41 ab 00 00       	call   d760 <fibril_mutex_lock>
    2c1f:	8b 43 10             	mov    0x10(%ebx),%eax
    2c22:	85 c0                	test   %eax,%eax
    2c24:	74 0f                	je     2c35 <unregister_interrupt_handler+0x85>
    2c26:	8b 53 14             	mov    0x14(%ebx),%edx
    2c29:	85 d2                	test   %edx,%edx
    2c2b:	74 08                	je     2c35 <unregister_interrupt_handler+0x85>
    2c2d:	89 02                	mov    %eax,(%edx)
    2c2f:	8b 4b 10             	mov    0x10(%ebx),%ecx
    2c32:	89 51 04             	mov    %edx,0x4(%ecx)
    2c35:	c7 43 10 00 00 00 00 	movl   $0x0,0x10(%ebx)
    2c3c:	c7 43 14 00 00 00 00 	movl   $0x0,0x14(%ebx)
    2c43:	c7 04 24 d0 93 02 00 	movl   $0x293d0,(%esp)
    2c4a:	e8 31 ac 00 00       	call   d880 <fibril_mutex_unlock>
    2c4f:	89 1c 24             	mov    %ebx,(%esp)
    2c52:	e8 f9 3e 01 00       	call   16b50 <free>
    2c57:	83 c4 1c             	add    $0x1c,%esp
    2c5a:	89 f0                	mov    %esi,%eax
    2c5c:	5b                   	pop    %ebx
    2c5d:	5e                   	pop    %esi
    2c5e:	5f                   	pop    %edi
    2c5f:	5d                   	pop    %ebp
    2c60:	c3                   	ret    
    2c61:	8d b4 26 00 00 00 00 	lea    0x0(%esi,%eiz,1),%esi
    2c68:	c7 04 24 d0 93 02 00 	movl   $0x293d0,(%esp)
    2c6f:	e8 0c ac 00 00       	call   d880 <fibril_mutex_unlock>
    2c74:	8b 07                	mov    (%edi),%eax
    2c76:	89 45 0c             	mov    %eax,0xc(%ebp)
    2c79:	89 75 08             	mov    %esi,0x8(%ebp)
    2c7c:	83 c4 1c             	add    $0x1c,%esp
    2c7f:	5b                   	pop    %ebx
    2c80:	5e                   	pop    %esi
    2c81:	5f                   	pop    %edi
    2c82:	5d                   	pop    %ebp
    2c83:	e9 08 4b 00 00       	jmp    7790 <irq_unregister>
    2c88:	66 90                	xchg   %ax,%ax
    2c8a:	66 90                	xchg   %ax,%ax
    2c8c:	66 90                	xchg   %ax,%ax
    2c8e:	66 90                	xchg   %ax,%ax

00002c90 <ddf_log_init>:
    2c90:	55                   	push   %ebp
    2c91:	89 e5                	mov    %esp,%ebp
    2c93:	5d                   	pop    %ebp
    2c94:	e9 37 eb 00 00       	jmp    117d0 <log_init>
    2c99:	8d b4 26 00 00 00 00 	lea    0x0(%esi,%eiz,1),%esi

00002ca0 <ddf_msg>:
    2ca0:	55                   	push   %ebp
    2ca1:	89 e5                	mov    %esp,%ebp
    2ca3:	83 ec 18             	sub    $0x18,%esp
    2ca6:	8d 45 10             	lea    0x10(%ebp),%eax
    2ca9:	c7 04 24 ff ff ff ff 	movl   $0xffffffff,(%esp)
    2cb0:	89 44 24 0c          	mov    %eax,0xc(%esp)
    2cb4:	8b 45 0c             	mov    0xc(%ebp),%eax
    2cb7:	89 44 24 08          	mov    %eax,0x8(%esp)
    2cbb:	8b 45 08             	mov    0x8(%ebp),%eax
    2cbe:	89 44 24 04          	mov    %eax,0x4(%esp)
    2cc2:	e8 f9 ed 00 00       	call   11ac0 <log_msgv>
    2cc7:	c9                   	leave  
    2cc8:	c3                   	ret    
    2cc9:	66 90                	xchg   %ax,%ax
    2ccb:	66 90                	xchg   %ax,%ax
    2ccd:	66 90                	xchg   %ax,%ax
    2ccf:	90                   	nop

00002cd0 <remote_hw_res_enable_interrupt>:
    2cd0:	55                   	push   %ebp
    2cd1:	89 e5                	mov    %esp,%ebp
    2cd3:	53                   	push   %ebx
    2cd4:	83 ec 14             	sub    $0x14,%esp
    2cd7:	8b 45 0c             	mov    0xc(%ebp),%eax
    2cda:	8b 55 08             	mov    0x8(%ebp),%edx
    2cdd:	8b 5d 10             	mov    0x10(%ebp),%ebx
    2ce0:	8b 40 04             	mov    0x4(%eax),%eax
    2ce3:	85 c0                	test   %eax,%eax
    2ce5:	74 39                	je     2d20 <remote_hw_res_enable_interrupt+0x50>
    2ce7:	89 14 24             	mov    %edx,(%esp)
    2cea:	ff d0                	call   *%eax
    2cec:	84 c0                	test   %al,%al
    2cee:	75 18                	jne    2d08 <remote_hw_res_enable_interrupt+0x38>
    2cf0:	89 5d 08             	mov    %ebx,0x8(%ebp)
    2cf3:	c7 45 0c fc ff ff ff 	movl   $0xfffffffc,0xc(%ebp)
    2cfa:	83 c4 14             	add    $0x14,%esp
    2cfd:	5b                   	pop    %ebx
    2cfe:	5d                   	pop    %ebp
    2cff:	e9 7c 68 01 00       	jmp    19580 <async_answer_0>
    2d04:	8d 74 26 00          	lea    0x0(%esi,%eiz,1),%esi
    2d08:	89 5d 08             	mov    %ebx,0x8(%ebp)
    2d0b:	c7 45 0c 00 00 00 00 	movl   $0x0,0xc(%ebp)
    2d12:	83 c4 14             	add    $0x14,%esp
    2d15:	5b                   	pop    %ebx
    2d16:	5d                   	pop    %ebp
    2d17:	e9 64 68 01 00       	jmp    19580 <async_answer_0>
    2d1c:	8d 74 26 00          	lea    0x0(%esi,%eiz,1),%esi
    2d20:	89 5d 08             	mov    %ebx,0x8(%ebp)
    2d23:	c7 45 0c f5 ff ff ff 	movl   $0xfffffff5,0xc(%ebp)
    2d2a:	83 c4 14             	add    $0x14,%esp
    2d2d:	5b                   	pop    %ebx
    2d2e:	5d                   	pop    %ebp
    2d2f:	e9 4c 68 01 00       	jmp    19580 <async_answer_0>
    2d34:	8d b6 00 00 00 00    	lea    0x0(%esi),%esi
    2d3a:	8d bf 00 00 00 00    	lea    0x0(%edi),%edi

00002d40 <remote_hw_res_get_resource_list>:
    2d40:	55                   	push   %ebp
    2d41:	89 e5                	mov    %esp,%ebp
    2d43:	53                   	push   %ebx
    2d44:	83 ec 24             	sub    $0x24,%esp
    2d47:	8b 45 0c             	mov    0xc(%ebp),%eax
    2d4a:	8b 00                	mov    (%eax),%eax
    2d4c:	85 c0                	test   %eax,%eax
    2d4e:	74 48                	je     2d98 <remote_hw_res_get_resource_list+0x58>
    2d50:	8b 55 08             	mov    0x8(%ebp),%edx
    2d53:	89 14 24             	mov    %edx,(%esp)
    2d56:	ff d0                	call   *%eax
    2d58:	89 c3                	mov    %eax,%ebx
    2d5a:	85 c0                	test   %eax,%eax
    2d5c:	74 7a                	je     2dd8 <remote_hw_res_get_resource_list+0x98>
    2d5e:	8b 00                	mov    (%eax),%eax
    2d60:	c7 44 24 04 00 00 00 	movl   $0x0,0x4(%esp)
    2d67:	00 
    2d68:	89 44 24 08          	mov    %eax,0x8(%esp)
    2d6c:	8b 45 10             	mov    0x10(%ebp),%eax
    2d6f:	89 04 24             	mov    %eax,(%esp)
    2d72:	e8 49 68 01 00       	call   195c0 <async_answer_1>
    2d77:	8d 45 f4             	lea    -0xc(%ebp),%eax
    2d7a:	89 44 24 04          	mov    %eax,0x4(%esp)
    2d7e:	8d 45 10             	lea    0x10(%ebp),%eax
    2d81:	89 04 24             	mov    %eax,(%esp)
    2d84:	e8 67 7d 01 00       	call   1aaf0 <async_data_read_receive>
    2d89:	84 c0                	test   %al,%al
    2d8b:	75 2b                	jne    2db8 <remote_hw_res_get_resource_list+0x78>
    2d8d:	83 c4 24             	add    $0x24,%esp
    2d90:	5b                   	pop    %ebx
    2d91:	5d                   	pop    %ebp
    2d92:	c3                   	ret    
    2d93:	90                   	nop
    2d94:	8d 74 26 00          	lea    0x0(%esi,%eiz,1),%esi
    2d98:	8b 45 10             	mov    0x10(%ebp),%eax
    2d9b:	c7 44 24 04 f5 ff ff 	movl   $0xfffffff5,0x4(%esp)
    2da2:	ff 
    2da3:	89 04 24             	mov    %eax,(%esp)
    2da6:	e8 d5 67 01 00       	call   19580 <async_answer_0>
    2dab:	83 c4 24             	add    $0x24,%esp
    2dae:	5b                   	pop    %ebx
    2daf:	5d                   	pop    %ebp
    2db0:	c3                   	ret    
    2db1:	8d b4 26 00 00 00 00 	lea    0x0(%esi,%eiz,1),%esi
    2db8:	8b 45 f4             	mov    -0xc(%ebp),%eax
    2dbb:	89 44 24 08          	mov    %eax,0x8(%esp)
    2dbf:	8b 43 04             	mov    0x4(%ebx),%eax
    2dc2:	89 44 24 04          	mov    %eax,0x4(%esp)
    2dc6:	8b 45 10             	mov    0x10(%ebp),%eax
    2dc9:	89 04 24             	mov    %eax,(%esp)
    2dcc:	e8 7f 7d 01 00       	call   1ab50 <async_data_read_finalize>
    2dd1:	83 c4 24             	add    $0x24,%esp
    2dd4:	5b                   	pop    %ebx
    2dd5:	5d                   	pop    %ebp
    2dd6:	c3                   	ret    
    2dd7:	90                   	nop
    2dd8:	8b 45 10             	mov    0x10(%ebp),%eax
    2ddb:	c7 44 24 04 ff ff ff 	movl   $0xffffffff,0x4(%esp)
    2de2:	ff 
    2de3:	89 04 24             	mov    %eax,(%esp)
    2de6:	e8 95 67 01 00       	call   19580 <async_answer_0>
    2deb:	83 c4 24             	add    $0x24,%esp
    2dee:	5b                   	pop    %ebx
    2def:	5d                   	pop    %ebp
    2df0:	c3                   	ret    
    2df1:	66 90                	xchg   %ax,%ax
    2df3:	66 90                	xchg   %ax,%ax
    2df5:	66 90                	xchg   %ax,%ax
    2df7:	66 90                	xchg   %ax,%ax
    2df9:	66 90                	xchg   %ax,%ax
    2dfb:	66 90                	xchg   %ax,%ax
    2dfd:	66 90                	xchg   %ax,%ax
    2dff:	90                   	nop

00002e00 <remote_char_write>:
    2e00:	55                   	push   %ebp
    2e01:	89 e5                	mov    %esp,%ebp
    2e03:	56                   	push   %esi
    2e04:	53                   	push   %ebx
    2e05:	81 ec 20 01 00 00    	sub    $0x120,%esp
    2e0b:	8d 85 f4 fe ff ff    	lea    -0x10c(%ebp),%eax
    2e11:	8b 5d 0c             	mov    0xc(%ebp),%ebx
    2e14:	89 44 24 04          	mov    %eax,0x4(%esp)
    2e18:	8d 85 f0 fe ff ff    	lea    -0x110(%ebp),%eax
    2e1e:	89 04 24             	mov    %eax,(%esp)
    2e21:	e8 ea 81 01 00       	call   1b010 <async_data_write_receive>
    2e26:	84 c0                	test   %al,%al
    2e28:	0f 84 82 00 00 00    	je     2eb0 <remote_char_write+0xb0>
    2e2e:	8b 43 04             	mov    0x4(%ebx),%eax
    2e31:	85 c0                	test   %eax,%eax
    2e33:	0f 84 b7 00 00 00    	je     2ef0 <remote_char_write+0xf0>
    2e39:	8b 85 f4 fe ff ff    	mov    -0x10c(%ebp),%eax
    2e3f:	3d 00 01 00 00       	cmp    $0x100,%eax
    2e44:	76 0f                	jbe    2e55 <remote_char_write+0x55>
    2e46:	c7 85 f4 fe ff ff 00 	movl   $0x100,-0x10c(%ebp)
    2e4d:	01 00 00 
    2e50:	b8 00 01 00 00       	mov    $0x100,%eax
    2e55:	89 44 24 08          	mov    %eax,0x8(%esp)
    2e59:	8d b5 f8 fe ff ff    	lea    -0x108(%ebp),%esi
    2e5f:	8b 85 f0 fe ff ff    	mov    -0x110(%ebp),%eax
    2e65:	89 74 24 04          	mov    %esi,0x4(%esp)
    2e69:	89 04 24             	mov    %eax,(%esp)
    2e6c:	e8 ef 81 01 00       	call   1b060 <async_data_write_finalize>
    2e71:	8b 85 f4 fe ff ff    	mov    -0x10c(%ebp),%eax
    2e77:	89 44 24 08          	mov    %eax,0x8(%esp)
    2e7b:	8b 45 08             	mov    0x8(%ebp),%eax
    2e7e:	89 74 24 04          	mov    %esi,0x4(%esp)
    2e82:	89 04 24             	mov    %eax,(%esp)
    2e85:	ff 53 04             	call   *0x4(%ebx)
    2e88:	85 c0                	test   %eax,%eax
    2e8a:	78 44                	js     2ed0 <remote_char_write+0xd0>
    2e8c:	89 44 24 08          	mov    %eax,0x8(%esp)
    2e90:	8b 45 10             	mov    0x10(%ebp),%eax
    2e93:	c7 44 24 04 00 00 00 	movl   $0x0,0x4(%esp)
    2e9a:	00 
    2e9b:	89 04 24             	mov    %eax,(%esp)
    2e9e:	e8 1d 67 01 00       	call   195c0 <async_answer_1>
    2ea3:	81 c4 20 01 00 00    	add    $0x120,%esp
    2ea9:	5b                   	pop    %ebx
    2eaa:	5e                   	pop    %esi
    2eab:	5d                   	pop    %ebp
    2eac:	c3                   	ret    
    2ead:	8d 76 00             	lea    0x0(%esi),%esi
    2eb0:	8b 45 10             	mov    0x10(%ebp),%eax
    2eb3:	c7 44 24 04 f2 ff ff 	movl   $0xfffffff2,0x4(%esp)
    2eba:	ff 
    2ebb:	89 04 24             	mov    %eax,(%esp)
    2ebe:	e8 bd 66 01 00       	call   19580 <async_answer_0>
    2ec3:	81 c4 20 01 00 00    	add    $0x120,%esp
    2ec9:	5b                   	pop    %ebx
    2eca:	5e                   	pop    %esi
    2ecb:	5d                   	pop    %ebp
    2ecc:	c3                   	ret    
    2ecd:	8d 76 00             	lea    0x0(%esi),%esi
    2ed0:	89 44 24 04          	mov    %eax,0x4(%esp)
    2ed4:	8b 45 10             	mov    0x10(%ebp),%eax
    2ed7:	89 04 24             	mov    %eax,(%esp)
    2eda:	e8 a1 66 01 00       	call   19580 <async_answer_0>
    2edf:	81 c4 20 01 00 00    	add    $0x120,%esp
    2ee5:	5b                   	pop    %ebx
    2ee6:	5e                   	pop    %esi
    2ee7:	5d                   	pop    %ebp
    2ee8:	c3                   	ret    
    2ee9:	8d b4 26 00 00 00 00 	lea    0x0(%esi,%eiz,1),%esi
    2ef0:	8b 85 f0 fe ff ff    	mov    -0x110(%ebp),%eax
    2ef6:	c7 44 24 08 00 00 00 	movl   $0x0,0x8(%esp)
    2efd:	00 
    2efe:	c7 44 24 04 00 00 00 	movl   $0x0,0x4(%esp)
    2f05:	00 
    2f06:	89 04 24             	mov    %eax,(%esp)
    2f09:	e8 52 81 01 00       	call   1b060 <async_data_write_finalize>
    2f0e:	8b 45 10             	mov    0x10(%ebp),%eax
    2f11:	c7 44 24 04 f5 ff ff 	movl   $0xfffffff5,0x4(%esp)
    2f18:	ff 
    2f19:	89 04 24             	mov    %eax,(%esp)
    2f1c:	e8 5f 66 01 00       	call   19580 <async_answer_0>
    2f21:	e9 7d ff ff ff       	jmp    2ea3 <remote_char_write+0xa3>
    2f26:	8d 76 00             	lea    0x0(%esi),%esi
    2f29:	8d bc 27 00 00 00 00 	lea    0x0(%edi,%eiz,1),%edi

00002f30 <remote_char_read>:
    2f30:	55                   	push   %ebp
    2f31:	89 e5                	mov    %esp,%ebp
    2f33:	56                   	push   %esi
    2f34:	53                   	push   %ebx
    2f35:	81 ec 20 01 00 00    	sub    $0x120,%esp
    2f3b:	8d 85 f4 fe ff ff    	lea    -0x10c(%ebp),%eax
    2f41:	89 44 24 04          	mov    %eax,0x4(%esp)
    2f45:	8d 85 f0 fe ff ff    	lea    -0x110(%ebp),%eax
    2f4b:	89 04 24             	mov    %eax,(%esp)
    2f4e:	e8 9d 7b 01 00       	call   1aaf0 <async_data_read_receive>
    2f53:	84 c0                	test   %al,%al
    2f55:	0f 84 b5 00 00 00    	je     3010 <remote_char_read+0xe0>
    2f5b:	8b 45 0c             	mov    0xc(%ebp),%eax
    2f5e:	8b 10                	mov    (%eax),%edx
    2f60:	85 d2                	test   %edx,%edx
    2f62:	0f 84 c8 00 00 00    	je     3030 <remote_char_read+0x100>
    2f68:	8b 85 f4 fe ff ff    	mov    -0x10c(%ebp),%eax
    2f6e:	3d 00 01 00 00       	cmp    $0x100,%eax
    2f73:	76 0f                	jbe    2f84 <remote_char_read+0x54>
    2f75:	c7 85 f4 fe ff ff 00 	movl   $0x100,-0x10c(%ebp)
    2f7c:	01 00 00 
    2f7f:	b8 00 01 00 00       	mov    $0x100,%eax
    2f84:	89 44 24 08          	mov    %eax,0x8(%esp)
    2f88:	8d b5 f8 fe ff ff    	lea    -0x108(%ebp),%esi
    2f8e:	8b 45 08             	mov    0x8(%ebp),%eax
    2f91:	89 74 24 04          	mov    %esi,0x4(%esp)
    2f95:	89 04 24             	mov    %eax,(%esp)
    2f98:	ff d2                	call   *%edx
    2f9a:	89 c3                	mov    %eax,%ebx
    2f9c:	85 c0                	test   %eax,%eax
    2f9e:	78 38                	js     2fd8 <remote_char_read+0xa8>
    2fa0:	89 44 24 08          	mov    %eax,0x8(%esp)
    2fa4:	8b 85 f0 fe ff ff    	mov    -0x110(%ebp),%eax
    2faa:	89 74 24 04          	mov    %esi,0x4(%esp)
    2fae:	89 04 24             	mov    %eax,(%esp)
    2fb1:	e8 9a 7b 01 00       	call   1ab50 <async_data_read_finalize>
    2fb6:	8b 45 10             	mov    0x10(%ebp),%eax
    2fb9:	89 5c 24 08          	mov    %ebx,0x8(%esp)
    2fbd:	c7 44 24 04 00 00 00 	movl   $0x0,0x4(%esp)
    2fc4:	00 
    2fc5:	89 04 24             	mov    %eax,(%esp)
    2fc8:	e8 f3 65 01 00       	call   195c0 <async_answer_1>
    2fcd:	81 c4 20 01 00 00    	add    $0x120,%esp
    2fd3:	5b                   	pop    %ebx
    2fd4:	5e                   	pop    %esi
    2fd5:	5d                   	pop    %ebp
    2fd6:	c3                   	ret    
    2fd7:	90                   	nop
    2fd8:	8b 85 f0 fe ff ff    	mov    -0x110(%ebp),%eax
    2fde:	89 74 24 04          	mov    %esi,0x4(%esp)
    2fe2:	c7 44 24 08 00 00 00 	movl   $0x0,0x8(%esp)
    2fe9:	00 
    2fea:	89 04 24             	mov    %eax,(%esp)
    2fed:	e8 5e 7b 01 00       	call   1ab50 <async_data_read_finalize>
    2ff2:	8b 45 10             	mov    0x10(%ebp),%eax
    2ff5:	89 5c 24 04          	mov    %ebx,0x4(%esp)
    2ff9:	89 04 24             	mov    %eax,(%esp)
    2ffc:	e8 7f 65 01 00       	call   19580 <async_answer_0>
    3001:	81 c4 20 01 00 00    	add    $0x120,%esp
    3007:	5b                   	pop    %ebx
    3008:	5e                   	pop    %esi
    3009:	5d                   	pop    %ebp
    300a:	c3                   	ret    
    300b:	90                   	nop
    300c:	8d 74 26 00          	lea    0x0(%esi,%eiz,1),%esi
    3010:	8b 45 10             	mov    0x10(%ebp),%eax
    3013:	c7 44 24 04 f2 ff ff 	movl   $0xfffffff2,0x4(%esp)
    301a:	ff 
    301b:	89 04 24             	mov    %eax,(%esp)
    301e:	e8 5d 65 01 00       	call   19580 <async_answer_0>
    3023:	81 c4 20 01 00 00    	add    $0x120,%esp
    3029:	5b                   	pop    %ebx
    302a:	5e                   	pop    %esi
    302b:	5d                   	pop    %ebp
    302c:	c3                   	ret    
    302d:	8d 76 00             	lea    0x0(%esi),%esi
    3030:	8b 85 f0 fe ff ff    	mov    -0x110(%ebp),%eax
    3036:	c7 44 24 08 00 00 00 	movl   $0x0,0x8(%esp)
    303d:	00 
    303e:	c7 44 24 04 00 00 00 	movl   $0x0,0x4(%esp)
    3045:	00 
    3046:	89 04 24             	mov    %eax,(%esp)
    3049:	e8 02 7b 01 00       	call   1ab50 <async_data_read_finalize>
    304e:	8b 45 10             	mov    0x10(%ebp),%eax
    3051:	c7 44 24 04 f5 ff ff 	movl   $0xfffffff5,0x4(%esp)
    3058:	ff 
    3059:	89 04 24             	mov    %eax,(%esp)
    305c:	e8 1f 65 01 00       	call   19580 <async_answer_0>
    3061:	e9 67 ff ff ff       	jmp    2fcd <remote_char_read+0x9d>
    3066:	66 90                	xchg   %ax,%ax
    3068:	66 90                	xchg   %ax,%ax
    306a:	66 90                	xchg   %ax,%ax
    306c:	66 90                	xchg   %ax,%ax
    306e:	66 90                	xchg   %ax,%ax

00003070 <remote_graph_connect>:
    3070:	55                   	push   %ebp
    3071:	89 e5                	mov    %esp,%ebp
    3073:	57                   	push   %edi
    3074:	56                   	push   %esi
    3075:	53                   	push   %ebx
    3076:	83 ec 2c             	sub    $0x2c,%esp
    3079:	8b 5d 0c             	mov    0xc(%ebp),%ebx
    307c:	8b 55 14             	mov    0x14(%ebp),%edx
    307f:	8b 7d 08             	mov    0x8(%ebp),%edi
    3082:	8b 75 10             	mov    0x10(%ebp),%esi
    3085:	8b 03                	mov    (%ebx),%eax
    3087:	89 55 e4             	mov    %edx,-0x1c(%ebp)
    308a:	85 c0                	test   %eax,%eax
    308c:	74 3a                	je     30c8 <remote_graph_connect+0x58>
    308e:	89 3c 24             	mov    %edi,(%esp)
    3091:	e8 0a f3 ff ff       	call   23a0 <ddf_fun_data_get>
    3096:	85 c0                	test   %eax,%eax
    3098:	74 2e                	je     30c8 <remote_graph_connect+0x58>
    309a:	8b 1b                	mov    (%ebx),%ebx
    309c:	89 3c 24             	mov    %edi,(%esp)
    309f:	e8 fc f2 ff ff       	call   23a0 <ddf_fun_data_get>
    30a4:	8b 55 e4             	mov    -0x1c(%ebp),%edx
    30a7:	89 75 0c             	mov    %esi,0xc(%ebp)
    30aa:	89 45 08             	mov    %eax,0x8(%ebp)
    30ad:	c7 45 14 00 00 00 00 	movl   $0x0,0x14(%ebp)
    30b4:	89 55 10             	mov    %edx,0x10(%ebp)
    30b7:	83 c4 2c             	add    $0x2c,%esp
    30ba:	89 d8                	mov    %ebx,%eax
    30bc:	5b                   	pop    %ebx
    30bd:	5e                   	pop    %esi
    30be:	5f                   	pop    %edi
    30bf:	5d                   	pop    %ebp
    30c0:	ff e0                	jmp    *%eax
    30c2:	8d b6 00 00 00 00    	lea    0x0(%esi),%esi
    30c8:	89 75 08             	mov    %esi,0x8(%ebp)
    30cb:	c7 45 0c f5 ff ff ff 	movl   $0xfffffff5,0xc(%ebp)
    30d2:	83 c4 2c             	add    $0x2c,%esp
    30d5:	5b                   	pop    %ebx
    30d6:	5e                   	pop    %esi
    30d7:	5f                   	pop    %edi
    30d8:	5d                   	pop    %ebp
    30d9:	e9 a2 64 01 00       	jmp    19580 <async_answer_0>
    30de:	66 90                	xchg   %ax,%ax

000030e0 <remote_nic_poll_now>:
    30e0:	55                   	push   %ebp
    30e1:	89 e5                	mov    %esp,%ebp
    30e3:	53                   	push   %ebx
    30e4:	83 ec 14             	sub    $0x14,%esp
    30e7:	8b 45 0c             	mov    0xc(%ebp),%eax
    30ea:	8b 55 08             	mov    0x8(%ebp),%edx
    30ed:	8b 5d 10             	mov    0x10(%ebp),%ebx
    30f0:	8b 80 a0 00 00 00    	mov    0xa0(%eax),%eax
    30f6:	85 c0                	test   %eax,%eax
    30f8:	74 16                	je     3110 <remote_nic_poll_now+0x30>
    30fa:	89 14 24             	mov    %edx,(%esp)
    30fd:	ff d0                	call   *%eax
    30ff:	89 5d 08             	mov    %ebx,0x8(%ebp)
    3102:	89 45 0c             	mov    %eax,0xc(%ebp)
    3105:	83 c4 14             	add    $0x14,%esp
    3108:	5b                   	pop    %ebx
    3109:	5d                   	pop    %ebp
    310a:	e9 71 64 01 00       	jmp    19580 <async_answer_0>
    310f:	90                   	nop
    3110:	89 5d 08             	mov    %ebx,0x8(%ebp)
    3113:	c7 45 0c f5 ff ff ff 	movl   $0xfffffff5,0xc(%ebp)
    311a:	83 c4 14             	add    $0x14,%esp
    311d:	5b                   	pop    %ebx
    311e:	5d                   	pop    %ebp
    311f:	e9 5c 64 01 00       	jmp    19580 <async_answer_0>
    3124:	8d b6 00 00 00 00    	lea    0x0(%esi),%esi
    312a:	8d bf 00 00 00 00    	lea    0x0(%edi),%edi

00003130 <remote_nic_offload_set>:
    3130:	55                   	push   %ebp
    3131:	89 e5                	mov    %esp,%ebp
    3133:	56                   	push   %esi
    3134:	53                   	push   %ebx
    3135:	83 ec 10             	sub    $0x10,%esp
    3138:	8b 45 0c             	mov    0xc(%ebp),%eax
    313b:	8b 4d 08             	mov    0x8(%ebp),%ecx
    313e:	8b 5d 10             	mov    0x10(%ebp),%ebx
    3141:	8b 55 14             	mov    0x14(%ebp),%edx
    3144:	8b 80 94 00 00 00    	mov    0x94(%eax),%eax
    314a:	85 c0                	test   %eax,%eax
    314c:	74 2a                	je     3178 <remote_nic_offload_set+0x48>
    314e:	8b 72 0c             	mov    0xc(%edx),%esi
    3151:	89 74 24 08          	mov    %esi,0x8(%esp)
    3155:	8b 52 08             	mov    0x8(%edx),%edx
    3158:	89 0c 24             	mov    %ecx,(%esp)
    315b:	89 54 24 04          	mov    %edx,0x4(%esp)
    315f:	ff d0                	call   *%eax
    3161:	89 5d 08             	mov    %ebx,0x8(%ebp)
    3164:	89 45 0c             	mov    %eax,0xc(%ebp)
    3167:	83 c4 10             	add    $0x10,%esp
    316a:	5b                   	pop    %ebx
    316b:	5e                   	pop    %esi
    316c:	5d                   	pop    %ebp
    316d:	e9 0e 64 01 00       	jmp    19580 <async_answer_0>
    3172:	8d b6 00 00 00 00    	lea    0x0(%esi),%esi
    3178:	89 5d 08             	mov    %ebx,0x8(%ebp)
    317b:	c7 45 0c f5 ff ff ff 	movl   $0xfffffff5,0xc(%ebp)
    3182:	83 c4 10             	add    $0x10,%esp
    3185:	5b                   	pop    %ebx
    3186:	5e                   	pop    %esi
    3187:	5d                   	pop    %ebp
    3188:	e9 f3 63 01 00       	jmp    19580 <async_answer_0>
    318d:	8d 76 00             	lea    0x0(%esi),%esi

00003190 <remote_nic_wol_virtue_remove>:
    3190:	55                   	push   %ebp
    3191:	89 e5                	mov    %esp,%ebp
    3193:	53                   	push   %ebx
    3194:	83 ec 14             	sub    $0x14,%esp
    3197:	8b 45 0c             	mov    0xc(%ebp),%eax
    319a:	8b 55 08             	mov    0x8(%ebp),%edx
    319d:	8b 5d 10             	mov    0x10(%ebp),%ebx
    31a0:	8b 4d 14             	mov    0x14(%ebp),%ecx
    31a3:	8b 40 7c             	mov    0x7c(%eax),%eax
    31a6:	85 c0                	test   %eax,%eax
    31a8:	74 1e                	je     31c8 <remote_nic_wol_virtue_remove+0x38>
    31aa:	8b 49 08             	mov    0x8(%ecx),%ecx
    31ad:	89 14 24             	mov    %edx,(%esp)
    31b0:	89 4c 24 04          	mov    %ecx,0x4(%esp)
    31b4:	ff d0                	call   *%eax
    31b6:	89 5d 08             	mov    %ebx,0x8(%ebp)
    31b9:	89 45 0c             	mov    %eax,0xc(%ebp)
    31bc:	83 c4 14             	add    $0x14,%esp
    31bf:	5b                   	pop    %ebx
    31c0:	5d                   	pop    %ebp
    31c1:	e9 ba 63 01 00       	jmp    19580 <async_answer_0>
    31c6:	66 90                	xchg   %ax,%ax
    31c8:	89 5d 08             	mov    %ebx,0x8(%ebp)
    31cb:	c7 45 0c f5 ff ff ff 	movl   $0xfffffff5,0xc(%ebp)
    31d2:	83 c4 14             	add    $0x14,%esp
    31d5:	5b                   	pop    %ebx
    31d6:	5d                   	pop    %ebp
    31d7:	e9 a4 63 01 00       	jmp    19580 <async_answer_0>
    31dc:	8d 74 26 00          	lea    0x0(%esi,%eiz,1),%esi

000031e0 <remote_nic_vlan_set_tag>:
    31e0:	55                   	push   %ebp
    31e1:	89 e5                	mov    %esp,%ebp
    31e3:	57                   	push   %edi
    31e4:	56                   	push   %esi
    31e5:	53                   	push   %ebx
    31e6:	83 ec 1c             	sub    $0x1c,%esp
    31e9:	8b 55 0c             	mov    0xc(%ebp),%edx
    31ec:	8b 7d 08             	mov    0x8(%ebp),%edi
    31ef:	8b 5d 10             	mov    0x10(%ebp),%ebx
    31f2:	8b 45 14             	mov    0x14(%ebp),%eax
    31f5:	8b 52 74             	mov    0x74(%edx),%edx
    31f8:	85 d2                	test   %edx,%edx
    31fa:	74 4c                	je     3248 <remote_nic_vlan_set_tag+0x68>
    31fc:	8b 48 10             	mov    0x10(%eax),%ecx
    31ff:	85 c9                	test   %ecx,%ecx
    3201:	0f 95 c1             	setne  %cl
    3204:	81 e1 ff 00 00 00    	and    $0xff,%ecx
    320a:	89 4c 24 0c          	mov    %ecx,0xc(%esp)
    320e:	8b 70 0c             	mov    0xc(%eax),%esi
    3211:	85 f6                	test   %esi,%esi
    3213:	0f 95 c1             	setne  %cl
    3216:	81 e1 ff 00 00 00    	and    $0xff,%ecx
    321c:	89 4c 24 08          	mov    %ecx,0x8(%esp)
    3220:	8b 40 08             	mov    0x8(%eax),%eax
    3223:	89 3c 24             	mov    %edi,(%esp)
    3226:	25 ff ff 00 00       	and    $0xffff,%eax
    322b:	89 44 24 04          	mov    %eax,0x4(%esp)
    322f:	ff d2                	call   *%edx
    3231:	89 5d 08             	mov    %ebx,0x8(%ebp)
    3234:	89 45 0c             	mov    %eax,0xc(%ebp)
    3237:	83 c4 1c             	add    $0x1c,%esp
    323a:	5b                   	pop    %ebx
    323b:	5e                   	pop    %esi
    323c:	5f                   	pop    %edi
    323d:	5d                   	pop    %ebp
    323e:	e9 3d 63 01 00       	jmp    19580 <async_answer_0>
    3243:	90                   	nop
    3244:	8d 74 26 00          	lea    0x0(%esi,%eiz,1),%esi
    3248:	89 5d 08             	mov    %ebx,0x8(%ebp)
    324b:	c7 45 0c f5 ff ff ff 	movl   $0xfffffff5,0xc(%ebp)
    3252:	83 c4 1c             	add    $0x1c,%esp
    3255:	5b                   	pop    %ebx
    3256:	5e                   	pop    %esi
    3257:	5f                   	pop    %edi
    3258:	5d                   	pop    %ebp
    3259:	e9 22 63 01 00       	jmp    19580 <async_answer_0>
    325e:	66 90                	xchg   %ax,%ax

00003260 <remote_nic_defective_set_mode>:
    3260:	55                   	push   %ebp
    3261:	89 e5                	mov    %esp,%ebp
    3263:	53                   	push   %ebx
    3264:	83 ec 14             	sub    $0x14,%esp
    3267:	8b 45 0c             	mov    0xc(%ebp),%eax
    326a:	8b 55 08             	mov    0x8(%ebp),%edx
    326d:	8b 5d 10             	mov    0x10(%ebp),%ebx
    3270:	8b 4d 14             	mov    0x14(%ebp),%ecx
    3273:	8b 40 60             	mov    0x60(%eax),%eax
    3276:	85 c0                	test   %eax,%eax
    3278:	74 1e                	je     3298 <remote_nic_defective_set_mode+0x38>
    327a:	8b 49 08             	mov    0x8(%ecx),%ecx
    327d:	89 14 24             	mov    %edx,(%esp)
    3280:	89 4c 24 04          	mov    %ecx,0x4(%esp)
    3284:	ff d0                	call   *%eax
    3286:	89 5d 08             	mov    %ebx,0x8(%ebp)
    3289:	89 45 0c             	mov    %eax,0xc(%ebp)
    328c:	83 c4 14             	add    $0x14,%esp
    328f:	5b                   	pop    %ebx
    3290:	5d                   	pop    %ebp
    3291:	e9 ea 62 01 00       	jmp    19580 <async_answer_0>
    3296:	66 90                	xchg   %ax,%ax
    3298:	89 5d 08             	mov    %ebx,0x8(%ebp)
    329b:	c7 45 0c f5 ff ff ff 	movl   $0xfffffff5,0xc(%ebp)
    32a2:	83 c4 14             	add    $0x14,%esp
    32a5:	5b                   	pop    %ebx
    32a6:	5d                   	pop    %ebp
    32a7:	e9 d4 62 01 00       	jmp    19580 <async_answer_0>
    32ac:	8d 74 26 00          	lea    0x0(%esi,%eiz,1),%esi

000032b0 <remote_nic_broadcast_set_mode>:
    32b0:	55                   	push   %ebp
    32b1:	89 e5                	mov    %esp,%ebp
    32b3:	53                   	push   %ebx
    32b4:	83 ec 14             	sub    $0x14,%esp
    32b7:	8b 45 0c             	mov    0xc(%ebp),%eax
    32ba:	8b 55 08             	mov    0x8(%ebp),%edx
    32bd:	8b 5d 10             	mov    0x10(%ebp),%ebx
    32c0:	8b 4d 14             	mov    0x14(%ebp),%ecx
    32c3:	8b 40 58             	mov    0x58(%eax),%eax
    32c6:	85 c0                	test   %eax,%eax
    32c8:	74 1e                	je     32e8 <remote_nic_broadcast_set_mode+0x38>
    32ca:	8b 49 08             	mov    0x8(%ecx),%ecx
    32cd:	89 14 24             	mov    %edx,(%esp)
    32d0:	89 4c 24 04          	mov    %ecx,0x4(%esp)
    32d4:	ff d0                	call   *%eax
    32d6:	89 5d 08             	mov    %ebx,0x8(%ebp)
    32d9:	89 45 0c             	mov    %eax,0xc(%ebp)
    32dc:	83 c4 14             	add    $0x14,%esp
    32df:	5b                   	pop    %ebx
    32e0:	5d                   	pop    %ebp
    32e1:	e9 9a 62 01 00       	jmp    19580 <async_answer_0>
    32e6:	66 90                	xchg   %ax,%ax
    32e8:	89 5d 08             	mov    %ebx,0x8(%ebp)
    32eb:	c7 45 0c f5 ff ff ff 	movl   $0xfffffff5,0xc(%ebp)
    32f2:	83 c4 14             	add    $0x14,%esp
    32f5:	5b                   	pop    %ebx
    32f6:	5d                   	pop    %ebp
    32f7:	e9 84 62 01 00       	jmp    19580 <async_answer_0>
    32fc:	8d 74 26 00          	lea    0x0(%esi,%eiz,1),%esi

00003300 <remote_nic_set_pause>:
    3300:	55                   	push   %ebp
    3301:	89 e5                	mov    %esp,%ebp
    3303:	56                   	push   %esi
    3304:	53                   	push   %ebx
    3305:	83 ec 10             	sub    $0x10,%esp
    3308:	8b 55 0c             	mov    0xc(%ebp),%edx
    330b:	8b 4d 08             	mov    0x8(%ebp),%ecx
    330e:	8b 5d 10             	mov    0x10(%ebp),%ebx
    3311:	8b 45 14             	mov    0x14(%ebp),%eax
    3314:	8b 52 40             	mov    0x40(%edx),%edx
    3317:	85 d2                	test   %edx,%edx
    3319:	74 2d                	je     3348 <remote_nic_set_pause+0x48>
    331b:	0f b7 70 10          	movzwl 0x10(%eax),%esi
    331f:	89 74 24 0c          	mov    %esi,0xc(%esp)
    3323:	8b 70 0c             	mov    0xc(%eax),%esi
    3326:	89 74 24 08          	mov    %esi,0x8(%esp)
    332a:	8b 40 08             	mov    0x8(%eax),%eax
    332d:	89 0c 24             	mov    %ecx,(%esp)
    3330:	89 44 24 04          	mov    %eax,0x4(%esp)
    3334:	ff d2                	call   *%edx
    3336:	89 5d 08             	mov    %ebx,0x8(%ebp)
    3339:	89 45 0c             	mov    %eax,0xc(%ebp)
    333c:	83 c4 10             	add    $0x10,%esp
    333f:	5b                   	pop    %ebx
    3340:	5e                   	pop    %esi
    3341:	5d                   	pop    %ebp
    3342:	e9 39 62 01 00       	jmp    19580 <async_answer_0>
    3347:	90                   	nop
    3348:	89 5d 08             	mov    %ebx,0x8(%ebp)
    334b:	c7 45 0c f5 ff ff ff 	movl   $0xfffffff5,0xc(%ebp)
    3352:	83 c4 10             	add    $0x10,%esp
    3355:	5b                   	pop    %ebx
    3356:	5e                   	pop    %esi
    3357:	5d                   	pop    %ebp
    3358:	e9 23 62 01 00       	jmp    19580 <async_answer_0>
    335d:	8d 76 00             	lea    0x0(%esi),%esi

00003360 <remote_nic_autoneg_restart>:
    3360:	55                   	push   %ebp
    3361:	89 e5                	mov    %esp,%ebp
    3363:	53                   	push   %ebx
    3364:	83 ec 14             	sub    $0x14,%esp
    3367:	8b 45 0c             	mov    0xc(%ebp),%eax
    336a:	8b 55 08             	mov    0x8(%ebp),%edx
    336d:	8b 5d 10             	mov    0x10(%ebp),%ebx
    3370:	8b 40 38             	mov    0x38(%eax),%eax
    3373:	85 c0                	test   %eax,%eax
    3375:	74 19                	je     3390 <remote_nic_autoneg_restart+0x30>
    3377:	89 14 24             	mov    %edx,(%esp)
    337a:	ff d0                	call   *%eax
    337c:	89 5d 08             	mov    %ebx,0x8(%ebp)
    337f:	89 45 0c             	mov    %eax,0xc(%ebp)
    3382:	83 c4 14             	add    $0x14,%esp
    3385:	5b                   	pop    %ebx
    3386:	5d                   	pop    %ebp
    3387:	e9 f4 61 01 00       	jmp    19580 <async_answer_0>
    338c:	8d 74 26 00          	lea    0x0(%esi,%eiz,1),%esi
    3390:	89 5d 08             	mov    %ebx,0x8(%ebp)
    3393:	c7 45 0c f5 ff ff ff 	movl   $0xfffffff5,0xc(%ebp)
    339a:	83 c4 14             	add    $0x14,%esp
    339d:	5b                   	pop    %ebx
    339e:	5d                   	pop    %ebp
    339f:	e9 dc 61 01 00       	jmp    19580 <async_answer_0>
    33a4:	8d b6 00 00 00 00    	lea    0x0(%esi),%esi
    33aa:	8d bf 00 00 00 00    	lea    0x0(%edi),%edi

000033b0 <remote_nic_autoneg_disable>:
    33b0:	55                   	push   %ebp
    33b1:	89 e5                	mov    %esp,%ebp
    33b3:	53                   	push   %ebx
    33b4:	83 ec 14             	sub    $0x14,%esp
    33b7:	8b 45 0c             	mov    0xc(%ebp),%eax
    33ba:	8b 55 08             	mov    0x8(%ebp),%edx
    33bd:	8b 5d 10             	mov    0x10(%ebp),%ebx
    33c0:	8b 40 30             	mov    0x30(%eax),%eax
    33c3:	85 c0                	test   %eax,%eax
    33c5:	74 19                	je     33e0 <remote_nic_autoneg_disable+0x30>
    33c7:	89 14 24             	mov    %edx,(%esp)
    33ca:	ff d0                	call   *%eax
    33cc:	89 5d 08             	mov    %ebx,0x8(%ebp)
    33cf:	89 45 0c             	mov    %eax,0xc(%ebp)
    33d2:	83 c4 14             	add    $0x14,%esp
    33d5:	5b                   	pop    %ebx
    33d6:	5d                   	pop    %ebp
    33d7:	e9 a4 61 01 00       	jmp    19580 <async_answer_0>
    33dc:	8d 74 26 00          	lea    0x0(%esi,%eiz,1),%esi
    33e0:	89 5d 08             	mov    %ebx,0x8(%ebp)
    33e3:	c7 45 0c f5 ff ff ff 	movl   $0xfffffff5,0xc(%ebp)
    33ea:	83 c4 14             	add    $0x14,%esp
    33ed:	5b                   	pop    %ebx
    33ee:	5d                   	pop    %ebp
    33ef:	e9 8c 61 01 00       	jmp    19580 <async_answer_0>
    33f4:	8d b6 00 00 00 00    	lea    0x0(%esi),%esi
    33fa:	8d bf 00 00 00 00    	lea    0x0(%edi),%edi

00003400 <remote_nic_autoneg_enable>:
    3400:	55                   	push   %ebp
    3401:	89 e5                	mov    %esp,%ebp
    3403:	53                   	push   %ebx
    3404:	83 ec 14             	sub    $0x14,%esp
    3407:	8b 45 0c             	mov    0xc(%ebp),%eax
    340a:	8b 55 08             	mov    0x8(%ebp),%edx
    340d:	8b 5d 10             	mov    0x10(%ebp),%ebx
    3410:	8b 4d 14             	mov    0x14(%ebp),%ecx
    3413:	8b 40 2c             	mov    0x2c(%eax),%eax
    3416:	85 c0                	test   %eax,%eax
    3418:	74 1e                	je     3438 <remote_nic_autoneg_enable+0x38>
    341a:	8b 49 08             	mov    0x8(%ecx),%ecx
    341d:	89 14 24             	mov    %edx,(%esp)
    3420:	89 4c 24 04          	mov    %ecx,0x4(%esp)
    3424:	ff d0                	call   *%eax
    3426:	89 5d 08             	mov    %ebx,0x8(%ebp)
    3429:	89 45 0c             	mov    %eax,0xc(%ebp)
    342c:	83 c4 14             	add    $0x14,%esp
    342f:	5b                   	pop    %ebx
    3430:	5d                   	pop    %ebp
    3431:	e9 4a 61 01 00       	jmp    19580 <async_answer_0>
    3436:	66 90                	xchg   %ax,%ax
    3438:	89 5d 08             	mov    %ebx,0x8(%ebp)
    343b:	c7 45 0c f5 ff ff ff 	movl   $0xfffffff5,0xc(%ebp)
    3442:	83 c4 14             	add    $0x14,%esp
    3445:	5b                   	pop    %ebx
    3446:	5d                   	pop    %ebp
    3447:	e9 34 61 01 00       	jmp    19580 <async_answer_0>
    344c:	8d 74 26 00          	lea    0x0(%esi,%eiz,1),%esi

00003450 <remote_nic_set_operation_mode>:
    3450:	55                   	push   %ebp
    3451:	89 e5                	mov    %esp,%ebp
    3453:	56                   	push   %esi
    3454:	53                   	push   %ebx
    3455:	83 ec 10             	sub    $0x10,%esp
    3458:	8b 55 0c             	mov    0xc(%ebp),%edx
    345b:	8b 4d 08             	mov    0x8(%ebp),%ecx
    345e:	8b 5d 10             	mov    0x10(%ebp),%ebx
    3461:	8b 45 14             	mov    0x14(%ebp),%eax
    3464:	8b 52 28             	mov    0x28(%edx),%edx
    3467:	85 d2                	test   %edx,%edx
    3469:	74 2d                	je     3498 <remote_nic_set_operation_mode+0x48>
    346b:	8b 70 10             	mov    0x10(%eax),%esi
    346e:	89 74 24 0c          	mov    %esi,0xc(%esp)
    3472:	8b 70 0c             	mov    0xc(%eax),%esi
    3475:	89 74 24 08          	mov    %esi,0x8(%esp)
    3479:	8b 40 08             	mov    0x8(%eax),%eax
    347c:	89 0c 24             	mov    %ecx,(%esp)
    347f:	89 44 24 04          	mov    %eax,0x4(%esp)
    3483:	ff d2                	call   *%edx
    3485:	89 5d 08             	mov    %ebx,0x8(%ebp)
    3488:	89 45 0c             	mov    %eax,0xc(%ebp)
    348b:	83 c4 10             	add    $0x10,%esp
    348e:	5b                   	pop    %ebx
    348f:	5e                   	pop    %esi
    3490:	5d                   	pop    %ebp
    3491:	e9 ea 60 01 00       	jmp    19580 <async_answer_0>
    3496:	66 90                	xchg   %ax,%ax
    3498:	89 5d 08             	mov    %ebx,0x8(%ebp)
    349b:	c7 45 0c f5 ff ff ff 	movl   $0xfffffff5,0xc(%ebp)
    34a2:	83 c4 10             	add    $0x10,%esp
    34a5:	5b                   	pop    %ebx
    34a6:	5e                   	pop    %esi
    34a7:	5d                   	pop    %ebp
    34a8:	e9 d3 60 01 00       	jmp    19580 <async_answer_0>
    34ad:	8d 76 00             	lea    0x0(%esi),%esi

000034b0 <remote_nic_poll_set_mode>:
    34b0:	55                   	push   %ebp
    34b1:	31 d2                	xor    %edx,%edx
    34b3:	89 e5                	mov    %esp,%ebp
    34b5:	56                   	push   %esi
    34b6:	53                   	push   %ebx
    34b7:	83 ec 20             	sub    $0x20,%esp
    34ba:	8b 45 14             	mov    0x14(%ebp),%eax
    34bd:	8b 58 08             	mov    0x8(%eax),%ebx
    34c0:	8b 40 0c             	mov    0xc(%eax),%eax
    34c3:	85 c0                	test   %eax,%eax
    34c5:	75 39                	jne    3500 <remote_nic_poll_set_mode+0x50>
    34c7:	8b 45 0c             	mov    0xc(%ebp),%eax
    34ca:	8b 80 9c 00 00 00    	mov    0x9c(%eax),%eax
    34d0:	85 c0                	test   %eax,%eax
    34d2:	0f 84 b8 00 00 00    	je     3590 <remote_nic_poll_set_mode+0xe0>
    34d8:	89 54 24 08          	mov    %edx,0x8(%esp)
    34dc:	8b 55 08             	mov    0x8(%ebp),%edx
    34df:	89 5c 24 04          	mov    %ebx,0x4(%esp)
    34e3:	89 14 24             	mov    %edx,(%esp)
    34e6:	ff d0                	call   *%eax
    34e8:	89 44 24 04          	mov    %eax,0x4(%esp)
    34ec:	8b 45 10             	mov    0x10(%ebp),%eax
    34ef:	89 04 24             	mov    %eax,(%esp)
    34f2:	e8 89 60 01 00       	call   19580 <async_answer_0>
    34f7:	83 c4 20             	add    $0x20,%esp
    34fa:	5b                   	pop    %ebx
    34fb:	5e                   	pop    %esi
    34fc:	5d                   	pop    %ebp
    34fd:	c3                   	ret    
    34fe:	66 90                	xchg   %ax,%ax
    3500:	8d 45 e8             	lea    -0x18(%ebp),%eax
    3503:	89 44 24 04          	mov    %eax,0x4(%esp)
    3507:	8d 45 ec             	lea    -0x14(%ebp),%eax
    350a:	89 04 24             	mov    %eax,(%esp)
    350d:	e8 fe 7a 01 00       	call   1b010 <async_data_write_receive>
    3512:	84 c0                	test   %al,%al
    3514:	0f 84 96 00 00 00    	je     35b0 <remote_nic_poll_set_mode+0x100>
    351a:	83 7d e8 08          	cmpl   $0x8,-0x18(%ebp)
    351e:	74 30                	je     3550 <remote_nic_poll_set_mode+0xa0>
    3520:	8b 45 ec             	mov    -0x14(%ebp),%eax
    3523:	c7 44 24 04 fd ff ff 	movl   $0xfffffffd,0x4(%esp)
    352a:	ff 
    352b:	89 04 24             	mov    %eax,(%esp)
    352e:	e8 4d 60 01 00       	call   19580 <async_answer_0>
    3533:	8b 45 10             	mov    0x10(%ebp),%eax
    3536:	c7 44 24 04 fd ff ff 	movl   $0xfffffffd,0x4(%esp)
    353d:	ff 
    353e:	89 04 24             	mov    %eax,(%esp)
    3541:	e8 3a 60 01 00       	call   19580 <async_answer_0>
    3546:	83 c4 20             	add    $0x20,%esp
    3549:	5b                   	pop    %ebx
    354a:	5e                   	pop    %esi
    354b:	5d                   	pop    %ebp
    354c:	c3                   	ret    
    354d:	8d 76 00             	lea    0x0(%esi),%esi
    3550:	8d 75 f0             	lea    -0x10(%ebp),%esi
    3553:	8b 45 ec             	mov    -0x14(%ebp),%eax
    3556:	c7 44 24 08 08 00 00 	movl   $0x8,0x8(%esp)
    355d:	00 
    355e:	89 74 24 04          	mov    %esi,0x4(%esp)
    3562:	89 04 24             	mov    %eax,(%esp)
    3565:	e8 f6 7a 01 00       	call   1b060 <async_data_write_finalize>
    356a:	89 f2                	mov    %esi,%edx
    356c:	85 c0                	test   %eax,%eax
    356e:	0f 84 53 ff ff ff    	je     34c7 <remote_nic_poll_set_mode+0x17>
    3574:	8b 45 10             	mov    0x10(%ebp),%eax
    3577:	c7 44 24 04 f2 ff ff 	movl   $0xfffffff2,0x4(%esp)
    357e:	ff 
    357f:	89 04 24             	mov    %eax,(%esp)
    3582:	e8 f9 5f 01 00       	call   19580 <async_answer_0>
    3587:	e9 6b ff ff ff       	jmp    34f7 <remote_nic_poll_set_mode+0x47>
    358c:	8d 74 26 00          	lea    0x0(%esi,%eiz,1),%esi
    3590:	8b 45 10             	mov    0x10(%ebp),%eax
    3593:	c7 44 24 04 f5 ff ff 	movl   $0xfffffff5,0x4(%esp)
    359a:	ff 
    359b:	89 04 24             	mov    %eax,(%esp)
    359e:	e8 dd 5f 01 00       	call   19580 <async_answer_0>
    35a3:	83 c4 20             	add    $0x20,%esp
    35a6:	5b                   	pop    %ebx
    35a7:	5e                   	pop    %esi
    35a8:	5d                   	pop    %ebp
    35a9:	c3                   	ret    
    35aa:	8d b6 00 00 00 00    	lea    0x0(%esi),%esi
    35b0:	8b 45 ec             	mov    -0x14(%ebp),%eax
    35b3:	c7 44 24 04 f2 ff ff 	movl   $0xfffffff2,0x4(%esp)
    35ba:	ff 
    35bb:	89 04 24             	mov    %eax,(%esp)
    35be:	e8 bd 5f 01 00       	call   19580 <async_answer_0>
    35c3:	8b 45 10             	mov    0x10(%ebp),%eax
    35c6:	c7 44 24 04 f2 ff ff 	movl   $0xfffffff2,0x4(%esp)
    35cd:	ff 
    35ce:	89 04 24             	mov    %eax,(%esp)
    35d1:	e8 aa 5f 01 00       	call   19580 <async_answer_0>
    35d6:	e9 1c ff ff ff       	jmp    34f7 <remote_nic_poll_set_mode+0x47>
    35db:	90                   	nop
    35dc:	8d 74 26 00          	lea    0x0(%esi,%eiz,1),%esi

000035e0 <remote_nic_vlan_set_mask>:
    35e0:	55                   	push   %ebp
    35e1:	31 d2                	xor    %edx,%edx
    35e3:	89 e5                	mov    %esp,%ebp
    35e5:	53                   	push   %ebx
    35e6:	81 ec 24 02 00 00    	sub    $0x224,%esp
    35ec:	8b 45 14             	mov    0x14(%ebp),%eax
    35ef:	8b 40 08             	mov    0x8(%eax),%eax
    35f2:	85 c0                	test   %eax,%eax
    35f4:	75 32                	jne    3628 <remote_nic_vlan_set_mask+0x48>
    35f6:	8b 45 0c             	mov    0xc(%ebp),%eax
    35f9:	8b 40 70             	mov    0x70(%eax),%eax
    35fc:	85 c0                	test   %eax,%eax
    35fe:	0f 84 cc 00 00 00    	je     36d0 <remote_nic_vlan_set_mask+0xf0>
    3604:	89 54 24 04          	mov    %edx,0x4(%esp)
    3608:	8b 55 08             	mov    0x8(%ebp),%edx
    360b:	89 14 24             	mov    %edx,(%esp)
    360e:	ff d0                	call   *%eax
    3610:	89 44 24 04          	mov    %eax,0x4(%esp)
    3614:	8b 45 10             	mov    0x10(%ebp),%eax
    3617:	89 04 24             	mov    %eax,(%esp)
    361a:	e8 61 5f 01 00       	call   19580 <async_answer_0>
    361f:	81 c4 24 02 00 00    	add    $0x224,%esp
    3625:	5b                   	pop    %ebx
    3626:	5d                   	pop    %ebp
    3627:	c3                   	ret    
    3628:	8d 85 f4 fd ff ff    	lea    -0x20c(%ebp),%eax
    362e:	89 44 24 04          	mov    %eax,0x4(%esp)
    3632:	8d 85 f0 fd ff ff    	lea    -0x210(%ebp),%eax
    3638:	89 04 24             	mov    %eax,(%esp)
    363b:	e8 d0 79 01 00       	call   1b010 <async_data_write_receive>
    3640:	84 c0                	test   %al,%al
    3642:	0f 84 a8 00 00 00    	je     36f0 <remote_nic_vlan_set_mask+0x110>
    3648:	81 bd f4 fd ff ff 00 	cmpl   $0x200,-0x20c(%ebp)
    364f:	02 00 00 
    3652:	74 34                	je     3688 <remote_nic_vlan_set_mask+0xa8>
    3654:	8b 85 f0 fd ff ff    	mov    -0x210(%ebp),%eax
    365a:	c7 44 24 04 fd ff ff 	movl   $0xfffffffd,0x4(%esp)
    3661:	ff 
    3662:	89 04 24             	mov    %eax,(%esp)
    3665:	e8 16 5f 01 00       	call   19580 <async_answer_0>
    366a:	8b 45 10             	mov    0x10(%ebp),%eax
    366d:	c7 44 24 04 fd ff ff 	movl   $0xfffffffd,0x4(%esp)
    3674:	ff 
    3675:	89 04 24             	mov    %eax,(%esp)
    3678:	e8 03 5f 01 00       	call   19580 <async_answer_0>
    367d:	81 c4 24 02 00 00    	add    $0x224,%esp
    3683:	5b                   	pop    %ebx
    3684:	5d                   	pop    %ebp
    3685:	c3                   	ret    
    3686:	66 90                	xchg   %ax,%ax
    3688:	8d 9d f8 fd ff ff    	lea    -0x208(%ebp),%ebx
    368e:	8b 85 f0 fd ff ff    	mov    -0x210(%ebp),%eax
    3694:	c7 44 24 08 00 02 00 	movl   $0x200,0x8(%esp)
    369b:	00 
    369c:	89 5c 24 04          	mov    %ebx,0x4(%esp)
    36a0:	89 04 24             	mov    %eax,(%esp)
    36a3:	e8 b8 79 01 00       	call   1b060 <async_data_write_finalize>
    36a8:	89 da                	mov    %ebx,%edx
    36aa:	85 c0                	test   %eax,%eax
    36ac:	0f 84 44 ff ff ff    	je     35f6 <remote_nic_vlan_set_mask+0x16>
    36b2:	8b 45 10             	mov    0x10(%ebp),%eax
    36b5:	c7 44 24 04 f2 ff ff 	movl   $0xfffffff2,0x4(%esp)
    36bc:	ff 
    36bd:	89 04 24             	mov    %eax,(%esp)
    36c0:	e8 bb 5e 01 00       	call   19580 <async_answer_0>
    36c5:	e9 55 ff ff ff       	jmp    361f <remote_nic_vlan_set_mask+0x3f>
    36ca:	8d b6 00 00 00 00    	lea    0x0(%esi),%esi
    36d0:	8b 45 10             	mov    0x10(%ebp),%eax
    36d3:	c7 44 24 04 f5 ff ff 	movl   $0xfffffff5,0x4(%esp)
    36da:	ff 
    36db:	89 04 24             	mov    %eax,(%esp)
    36de:	e8 9d 5e 01 00       	call   19580 <async_answer_0>
    36e3:	81 c4 24 02 00 00    	add    $0x224,%esp
    36e9:	5b                   	pop    %ebx
    36ea:	5d                   	pop    %ebp
    36eb:	c3                   	ret    
    36ec:	8d 74 26 00          	lea    0x0(%esi,%eiz,1),%esi
    36f0:	8b 85 f0 fd ff ff    	mov    -0x210(%ebp),%eax
    36f6:	c7 44 24 04 f2 ff ff 	movl   $0xfffffff2,0x4(%esp)
    36fd:	ff 
    36fe:	89 04 24             	mov    %eax,(%esp)
    3701:	e8 7a 5e 01 00       	call   19580 <async_answer_0>
    3706:	8b 45 10             	mov    0x10(%ebp),%eax
    3709:	c7 44 24 04 f2 ff ff 	movl   $0xfffffff2,0x4(%esp)
    3710:	ff 
    3711:	89 04 24             	mov    %eax,(%esp)
    3714:	e8 67 5e 01 00       	call   19580 <async_answer_0>
    3719:	e9 01 ff ff ff       	jmp    361f <remote_nic_vlan_set_mask+0x3f>
    371e:	66 90                	xchg   %ax,%ax

00003720 <remote_nic_set_address>:
    3720:	55                   	push   %ebp
    3721:	89 e5                	mov    %esp,%ebp
    3723:	53                   	push   %ebx
    3724:	83 ec 24             	sub    $0x24,%esp
    3727:	8d 45 e8             	lea    -0x18(%ebp),%eax
    372a:	89 44 24 04          	mov    %eax,0x4(%esp)
    372e:	8d 45 ec             	lea    -0x14(%ebp),%eax
    3731:	89 04 24             	mov    %eax,(%esp)
    3734:	e8 d7 78 01 00       	call   1b010 <async_data_write_receive>
    3739:	84 c0                	test   %al,%al
    373b:	0f 84 87 00 00 00    	je     37c8 <remote_nic_set_address+0xa8>
    3741:	8b 45 e8             	mov    -0x18(%ebp),%eax
    3744:	83 f8 06             	cmp    $0x6,%eax
    3747:	77 4f                	ja     3798 <remote_nic_set_address+0x78>
    3749:	89 44 24 08          	mov    %eax,0x8(%esp)
    374d:	8d 5d f2             	lea    -0xe(%ebp),%ebx
    3750:	8b 45 ec             	mov    -0x14(%ebp),%eax
    3753:	89 5c 24 04          	mov    %ebx,0x4(%esp)
    3757:	89 04 24             	mov    %eax,(%esp)
    375a:	e8 01 79 01 00       	call   1b060 <async_data_write_finalize>
    375f:	85 c0                	test   %eax,%eax
    3761:	0f 85 91 00 00 00    	jne    37f8 <remote_nic_set_address+0xd8>
    3767:	8b 45 0c             	mov    0xc(%ebp),%eax
    376a:	8b 40 14             	mov    0x14(%eax),%eax
    376d:	85 c0                	test   %eax,%eax
    376f:	0f 84 a3 00 00 00    	je     3818 <remote_nic_set_address+0xf8>
    3775:	8b 55 08             	mov    0x8(%ebp),%edx
    3778:	89 5c 24 04          	mov    %ebx,0x4(%esp)
    377c:	89 14 24             	mov    %edx,(%esp)
    377f:	ff d0                	call   *%eax
    3781:	89 44 24 04          	mov    %eax,0x4(%esp)
    3785:	8b 45 10             	mov    0x10(%ebp),%eax
    3788:	89 04 24             	mov    %eax,(%esp)
    378b:	e8 f0 5d 01 00       	call   19580 <async_answer_0>
    3790:	83 c4 24             	add    $0x24,%esp
    3793:	5b                   	pop    %ebx
    3794:	5d                   	pop    %ebp
    3795:	c3                   	ret    
    3796:	66 90                	xchg   %ax,%ax
    3798:	8b 45 ec             	mov    -0x14(%ebp),%eax
    379b:	c7 44 24 04 fd ff ff 	movl   $0xfffffffd,0x4(%esp)
    37a2:	ff 
    37a3:	89 04 24             	mov    %eax,(%esp)
    37a6:	e8 d5 5d 01 00       	call   19580 <async_answer_0>
    37ab:	8b 45 10             	mov    0x10(%ebp),%eax
    37ae:	c7 44 24 04 fd ff ff 	movl   $0xfffffffd,0x4(%esp)
    37b5:	ff 
    37b6:	89 04 24             	mov    %eax,(%esp)
    37b9:	e8 c2 5d 01 00       	call   19580 <async_answer_0>
    37be:	83 c4 24             	add    $0x24,%esp
    37c1:	5b                   	pop    %ebx
    37c2:	5d                   	pop    %ebp
    37c3:	c3                   	ret    
    37c4:	8d 74 26 00          	lea    0x0(%esi,%eiz,1),%esi
    37c8:	8b 45 ec             	mov    -0x14(%ebp),%eax
    37cb:	c7 44 24 04 f2 ff ff 	movl   $0xfffffff2,0x4(%esp)
    37d2:	ff 
    37d3:	89 04 24             	mov    %eax,(%esp)
    37d6:	e8 a5 5d 01 00       	call   19580 <async_answer_0>
    37db:	8b 45 10             	mov    0x10(%ebp),%eax
    37de:	c7 44 24 04 f2 ff ff 	movl   $0xfffffff2,0x4(%esp)
    37e5:	ff 
    37e6:	89 04 24             	mov    %eax,(%esp)
    37e9:	e8 92 5d 01 00       	call   19580 <async_answer_0>
    37ee:	83 c4 24             	add    $0x24,%esp
    37f1:	5b                   	pop    %ebx
    37f2:	5d                   	pop    %ebp
    37f3:	c3                   	ret    
    37f4:	8d 74 26 00          	lea    0x0(%esi,%eiz,1),%esi
    37f8:	8b 45 10             	mov    0x10(%ebp),%eax
    37fb:	c7 44 24 04 f2 ff ff 	movl   $0xfffffff2,0x4(%esp)
    3802:	ff 
    3803:	89 04 24             	mov    %eax,(%esp)
    3806:	e8 75 5d 01 00       	call   19580 <async_answer_0>
    380b:	83 c4 24             	add    $0x24,%esp
    380e:	5b                   	pop    %ebx
    380f:	5d                   	pop    %ebp
    3810:	c3                   	ret    
    3811:	8d b4 26 00 00 00 00 	lea    0x0(%esi,%eiz,1),%esi
    3818:	8b 45 10             	mov    0x10(%ebp),%eax
    381b:	c7 44 24 04 f5 ff ff 	movl   $0xfffffff5,0x4(%esp)
    3822:	ff 
    3823:	89 04 24             	mov    %eax,(%esp)
    3826:	e8 55 5d 01 00       	call   19580 <async_answer_0>
    382b:	e9 60 ff ff ff       	jmp    3790 <remote_nic_set_address+0x70>

00003830 <remote_nic_poll_get_mode>:
    3830:	55                   	push   %ebp
    3831:	89 e5                	mov    %esp,%ebp
    3833:	57                   	push   %edi
    3834:	56                   	push   %esi
    3835:	53                   	push   %ebx
    3836:	83 ec 3c             	sub    $0x3c,%esp
    3839:	8b 45 0c             	mov    0xc(%ebp),%eax
    383c:	8b 80 98 00 00 00    	mov    0x98(%eax),%eax
    3842:	85 c0                	test   %eax,%eax
    3844:	0f 84 ee 00 00 00    	je     3938 <remote_nic_poll_get_mode+0x108>
    384a:	8b 55 14             	mov    0x14(%ebp),%edx
    384d:	8d 5d e0             	lea    -0x20(%ebp),%ebx
    3850:	c7 45 d4 00 00 00 00 	movl   $0x0,-0x2c(%ebp)
    3857:	c7 45 e0 00 00 00 00 	movl   $0x0,-0x20(%ebp)
    385e:	8b 72 08             	mov    0x8(%edx),%esi
    3861:	8d 55 d4             	lea    -0x2c(%ebp),%edx
    3864:	89 54 24 04          	mov    %edx,0x4(%esp)
    3868:	8b 55 08             	mov    0x8(%ebp),%edx
    386b:	c7 45 e4 00 00 00 00 	movl   $0x0,-0x1c(%ebp)
    3872:	89 5c 24 08          	mov    %ebx,0x8(%esp)
    3876:	89 14 24             	mov    %edx,(%esp)
    3879:	ff d0                	call   *%eax
    387b:	89 c7                	mov    %eax,%edi
    387d:	85 c0                	test   %eax,%eax
    387f:	75 67                	jne    38e8 <remote_nic_poll_get_mode+0xb8>
    3881:	85 f6                	test   %esi,%esi
    3883:	74 63                	je     38e8 <remote_nic_poll_get_mode+0xb8>
    3885:	8d 45 d8             	lea    -0x28(%ebp),%eax
    3888:	89 44 24 04          	mov    %eax,0x4(%esp)
    388c:	8d 45 dc             	lea    -0x24(%ebp),%eax
    388f:	89 04 24             	mov    %eax,(%esp)
    3892:	e8 59 72 01 00       	call   1aaf0 <async_data_read_receive>
    3897:	84 c0                	test   %al,%al
    3899:	74 6d                	je     3908 <remote_nic_poll_get_mode+0xd8>
    389b:	83 7d d8 08          	cmpl   $0x8,-0x28(%ebp)
    389f:	74 2f                	je     38d0 <remote_nic_poll_get_mode+0xa0>
    38a1:	8b 45 dc             	mov    -0x24(%ebp),%eax
    38a4:	c7 44 24 04 fd ff ff 	movl   $0xfffffffd,0x4(%esp)
    38ab:	ff 
    38ac:	89 04 24             	mov    %eax,(%esp)
    38af:	e8 cc 5c 01 00       	call   19580 <async_answer_0>
    38b4:	8b 45 10             	mov    0x10(%ebp),%eax
    38b7:	c7 44 24 04 fd ff ff 	movl   $0xfffffffd,0x4(%esp)
    38be:	ff 
    38bf:	89 04 24             	mov    %eax,(%esp)
    38c2:	e8 b9 5c 01 00       	call   19580 <async_answer_0>
    38c7:	83 c4 3c             	add    $0x3c,%esp
    38ca:	5b                   	pop    %ebx
    38cb:	5e                   	pop    %esi
    38cc:	5f                   	pop    %edi
    38cd:	5d                   	pop    %ebp
    38ce:	c3                   	ret    
    38cf:	90                   	nop
    38d0:	8b 45 dc             	mov    -0x24(%ebp),%eax
    38d3:	c7 44 24 08 08 00 00 	movl   $0x8,0x8(%esp)
    38da:	00 
    38db:	89 5c 24 04          	mov    %ebx,0x4(%esp)
    38df:	89 04 24             	mov    %eax,(%esp)
    38e2:	e8 69 72 01 00       	call   1ab50 <async_data_read_finalize>
    38e7:	90                   	nop
    38e8:	8b 45 d4             	mov    -0x2c(%ebp),%eax
    38eb:	89 7c 24 04          	mov    %edi,0x4(%esp)
    38ef:	89 44 24 08          	mov    %eax,0x8(%esp)
    38f3:	8b 45 10             	mov    0x10(%ebp),%eax
    38f6:	89 04 24             	mov    %eax,(%esp)
    38f9:	e8 c2 5c 01 00       	call   195c0 <async_answer_1>
    38fe:	83 c4 3c             	add    $0x3c,%esp
    3901:	5b                   	pop    %ebx
    3902:	5e                   	pop    %esi
    3903:	5f                   	pop    %edi
    3904:	5d                   	pop    %ebp
    3905:	c3                   	ret    
    3906:	66 90                	xchg   %ax,%ax
    3908:	8b 45 dc             	mov    -0x24(%ebp),%eax
    390b:	c7 44 24 04 f2 ff ff 	movl   $0xfffffff2,0x4(%esp)
    3912:	ff 
    3913:	89 04 24             	mov    %eax,(%esp)
    3916:	e8 65 5c 01 00       	call   19580 <async_answer_0>
    391b:	8b 45 10             	mov    0x10(%ebp),%eax
    391e:	c7 44 24 04 f2 ff ff 	movl   $0xfffffff2,0x4(%esp)
    3925:	ff 
    3926:	89 04 24             	mov    %eax,(%esp)
    3929:	e8 52 5c 01 00       	call   19580 <async_answer_0>
    392e:	83 c4 3c             	add    $0x3c,%esp
    3931:	5b                   	pop    %ebx
    3932:	5e                   	pop    %esi
    3933:	5f                   	pop    %edi
    3934:	5d                   	pop    %ebp
    3935:	c3                   	ret    
    3936:	66 90                	xchg   %ax,%ax
    3938:	8b 45 10             	mov    0x10(%ebp),%eax
    393b:	c7 44 24 04 f5 ff ff 	movl   $0xfffffff5,0x4(%esp)
    3942:	ff 
    3943:	89 04 24             	mov    %eax,(%esp)
    3946:	e8 35 5c 01 00       	call   19580 <async_answer_0>
    394b:	83 c4 3c             	add    $0x3c,%esp
    394e:	5b                   	pop    %ebx
    394f:	5e                   	pop    %esi
    3950:	5f                   	pop    %edi
    3951:	5d                   	pop    %ebp
    3952:	c3                   	ret    
    3953:	8d b6 00 00 00 00    	lea    0x0(%esi),%esi
    3959:	8d bc 27 00 00 00 00 	lea    0x0(%edi,%eiz,1),%edi

00003960 <remote_nic_wol_virtue_get_caps>:
    3960:	55                   	push   %ebp
    3961:	89 e5                	mov    %esp,%ebp
    3963:	83 ec 28             	sub    $0x28,%esp
    3966:	8b 45 0c             	mov    0xc(%ebp),%eax
    3969:	8b 80 88 00 00 00    	mov    0x88(%eax),%eax
    396f:	85 c0                	test   %eax,%eax
    3971:	74 3d                	je     39b0 <remote_nic_wol_virtue_get_caps+0x50>
    3973:	8d 55 f4             	lea    -0xc(%ebp),%edx
    3976:	c7 45 f4 ff ff ff ff 	movl   $0xffffffff,-0xc(%ebp)
    397d:	89 54 24 08          	mov    %edx,0x8(%esp)
    3981:	8b 55 14             	mov    0x14(%ebp),%edx
    3984:	8b 52 08             	mov    0x8(%edx),%edx
    3987:	89 54 24 04          	mov    %edx,0x4(%esp)
    398b:	8b 55 08             	mov    0x8(%ebp),%edx
    398e:	89 14 24             	mov    %edx,(%esp)
    3991:	ff d0                	call   *%eax
    3993:	8b 55 f4             	mov    -0xc(%ebp),%edx
    3996:	89 44 24 04          	mov    %eax,0x4(%esp)
    399a:	8b 45 10             	mov    0x10(%ebp),%eax
    399d:	89 54 24 08          	mov    %edx,0x8(%esp)
    39a1:	89 04 24             	mov    %eax,(%esp)
    39a4:	e8 17 5c 01 00       	call   195c0 <async_answer_1>
    39a9:	c9                   	leave  
    39aa:	c3                   	ret    
    39ab:	90                   	nop
    39ac:	8d 74 26 00          	lea    0x0(%esi,%eiz,1),%esi
    39b0:	8b 45 10             	mov    0x10(%ebp),%eax
    39b3:	c7 44 24 04 f5 ff ff 	movl   $0xfffffff5,0x4(%esp)
    39ba:	ff 
    39bb:	89 04 24             	mov    %eax,(%esp)
    39be:	e8 bd 5b 01 00       	call   19580 <async_answer_0>
    39c3:	c9                   	leave  
    39c4:	c3                   	ret    
    39c5:	8d 74 26 00          	lea    0x0(%esi,%eiz,1),%esi
    39c9:	8d bc 27 00 00 00 00 	lea    0x0(%edi,%eiz,1),%edi

000039d0 <remote_nic_defective_get_mode>:
    39d0:	55                   	push   %ebp
    39d1:	89 e5                	mov    %esp,%ebp
    39d3:	83 ec 28             	sub    $0x28,%esp
    39d6:	8b 45 0c             	mov    0xc(%ebp),%eax
    39d9:	8b 40 5c             	mov    0x5c(%eax),%eax
    39dc:	85 c0                	test   %eax,%eax
    39de:	74 30                	je     3a10 <remote_nic_defective_get_mode+0x40>
    39e0:	8d 55 f4             	lea    -0xc(%ebp),%edx
    39e3:	c7 45 f4 00 00 00 00 	movl   $0x0,-0xc(%ebp)
    39ea:	89 54 24 04          	mov    %edx,0x4(%esp)
    39ee:	8b 55 08             	mov    0x8(%ebp),%edx
    39f1:	89 14 24             	mov    %edx,(%esp)
    39f4:	ff d0                	call   *%eax
    39f6:	8b 55 f4             	mov    -0xc(%ebp),%edx
    39f9:	89 44 24 04          	mov    %eax,0x4(%esp)
    39fd:	8b 45 10             	mov    0x10(%ebp),%eax
    3a00:	89 54 24 08          	mov    %edx,0x8(%esp)
    3a04:	89 04 24             	mov    %eax,(%esp)
    3a07:	e8 b4 5b 01 00       	call   195c0 <async_answer_1>
    3a0c:	c9                   	leave  
    3a0d:	c3                   	ret    
    3a0e:	66 90                	xchg   %ax,%ax
    3a10:	8b 45 10             	mov    0x10(%ebp),%eax
    3a13:	c7 44 24 04 f5 ff ff 	movl   $0xfffffff5,0x4(%esp)
    3a1a:	ff 
    3a1b:	89 04 24             	mov    %eax,(%esp)
    3a1e:	e8 5d 5b 01 00       	call   19580 <async_answer_0>
    3a23:	c9                   	leave  
    3a24:	c3                   	ret    
    3a25:	8d 74 26 00          	lea    0x0(%esi,%eiz,1),%esi
    3a29:	8d bc 27 00 00 00 00 	lea    0x0(%edi,%eiz,1),%edi

00003a30 <remote_nic_broadcast_get_mode>:
    3a30:	55                   	push   %ebp
    3a31:	89 e5                	mov    %esp,%ebp
    3a33:	83 ec 28             	sub    $0x28,%esp
    3a36:	8b 45 0c             	mov    0xc(%ebp),%eax
    3a39:	8b 40 54             	mov    0x54(%eax),%eax
    3a3c:	85 c0                	test   %eax,%eax
    3a3e:	74 30                	je     3a70 <remote_nic_broadcast_get_mode+0x40>
    3a40:	8d 55 f4             	lea    -0xc(%ebp),%edx
    3a43:	c7 45 f4 02 00 00 00 	movl   $0x2,-0xc(%ebp)
    3a4a:	89 54 24 04          	mov    %edx,0x4(%esp)
    3a4e:	8b 55 08             	mov    0x8(%ebp),%edx
    3a51:	89 14 24             	mov    %edx,(%esp)
    3a54:	ff d0                	call   *%eax
    3a56:	8b 55 f4             	mov    -0xc(%ebp),%edx
    3a59:	89 44 24 04          	mov    %eax,0x4(%esp)
    3a5d:	8b 45 10             	mov    0x10(%ebp),%eax
    3a60:	89 54 24 08          	mov    %edx,0x8(%esp)
    3a64:	89 04 24             	mov    %eax,(%esp)
    3a67:	e8 54 5b 01 00       	call   195c0 <async_answer_1>
    3a6c:	c9                   	leave  
    3a6d:	c3                   	ret    
    3a6e:	66 90                	xchg   %ax,%ax
    3a70:	8b 45 10             	mov    0x10(%ebp),%eax
    3a73:	c7 44 24 04 f5 ff ff 	movl   $0xfffffff5,0x4(%esp)
    3a7a:	ff 
    3a7b:	89 04 24             	mov    %eax,(%esp)
    3a7e:	e8 fd 5a 01 00       	call   19580 <async_answer_0>
    3a83:	c9                   	leave  
    3a84:	c3                   	ret    
    3a85:	8d 74 26 00          	lea    0x0(%esi,%eiz,1),%esi
    3a89:	8d bc 27 00 00 00 00 	lea    0x0(%edi,%eiz,1),%edi

00003a90 <remote_nic_get_cable_state>:
    3a90:	55                   	push   %ebp
    3a91:	89 e5                	mov    %esp,%ebp
    3a93:	83 ec 28             	sub    $0x28,%esp
    3a96:	8b 45 0c             	mov    0xc(%ebp),%eax
    3a99:	8b 40 20             	mov    0x20(%eax),%eax
    3a9c:	85 c0                	test   %eax,%eax
    3a9e:	74 30                	je     3ad0 <remote_nic_get_cable_state+0x40>
    3aa0:	8d 55 f4             	lea    -0xc(%ebp),%edx
    3aa3:	c7 45 f4 00 00 00 00 	movl   $0x0,-0xc(%ebp)
    3aaa:	89 54 24 04          	mov    %edx,0x4(%esp)
    3aae:	8b 55 08             	mov    0x8(%ebp),%edx
    3ab1:	89 14 24             	mov    %edx,(%esp)
    3ab4:	ff d0                	call   *%eax
    3ab6:	8b 55 f4             	mov    -0xc(%ebp),%edx
    3ab9:	89 44 24 04          	mov    %eax,0x4(%esp)
    3abd:	8b 45 10             	mov    0x10(%ebp),%eax
    3ac0:	89 54 24 08          	mov    %edx,0x8(%esp)
    3ac4:	89 04 24             	mov    %eax,(%esp)
    3ac7:	e8 f4 5a 01 00       	call   195c0 <async_answer_1>
    3acc:	c9                   	leave  
    3acd:	c3                   	ret    
    3ace:	66 90                	xchg   %ax,%ax
    3ad0:	8b 45 10             	mov    0x10(%ebp),%eax
    3ad3:	c7 44 24 04 f5 ff ff 	movl   $0xfffffff5,0x4(%esp)
    3ada:	ff 
    3adb:	89 04 24             	mov    %eax,(%esp)
    3ade:	e8 9d 5a 01 00       	call   19580 <async_answer_0>
    3ae3:	c9                   	leave  
    3ae4:	c3                   	ret    
    3ae5:	8d 74 26 00          	lea    0x0(%esi,%eiz,1),%esi
    3ae9:	8d bc 27 00 00 00 00 	lea    0x0(%edi,%eiz,1),%edi

00003af0 <remote_nic_offload_probe>:
    3af0:	55                   	push   %ebp
    3af1:	89 e5                	mov    %esp,%ebp
    3af3:	83 ec 28             	sub    $0x28,%esp
    3af6:	8b 45 0c             	mov    0xc(%ebp),%eax
    3af9:	8b 80 90 00 00 00    	mov    0x90(%eax),%eax
    3aff:	85 c0                	test   %eax,%eax
    3b01:	74 45                	je     3b48 <remote_nic_offload_probe+0x58>
    3b03:	8d 55 f4             	lea    -0xc(%ebp),%edx
    3b06:	c7 45 f0 00 00 00 00 	movl   $0x0,-0x10(%ebp)
    3b0d:	89 54 24 08          	mov    %edx,0x8(%esp)
    3b11:	8d 55 f0             	lea    -0x10(%ebp),%edx
    3b14:	89 54 24 04          	mov    %edx,0x4(%esp)
    3b18:	8b 55 08             	mov    0x8(%ebp),%edx
    3b1b:	89 14 24             	mov    %edx,(%esp)
    3b1e:	c7 45 f4 00 00 00 00 	movl   $0x0,-0xc(%ebp)
    3b25:	ff d0                	call   *%eax
    3b27:	8b 55 f4             	mov    -0xc(%ebp),%edx
    3b2a:	89 54 24 0c          	mov    %edx,0xc(%esp)
    3b2e:	89 44 24 04          	mov    %eax,0x4(%esp)
    3b32:	8b 55 f0             	mov    -0x10(%ebp),%edx
    3b35:	8b 45 10             	mov    0x10(%ebp),%eax
    3b38:	89 54 24 08          	mov    %edx,0x8(%esp)
    3b3c:	89 04 24             	mov    %eax,(%esp)
    3b3f:	e8 bc 5a 01 00       	call   19600 <async_answer_2>
    3b44:	c9                   	leave  
    3b45:	c3                   	ret    
    3b46:	66 90                	xchg   %ax,%ax
    3b48:	8b 45 10             	mov    0x10(%ebp),%eax
    3b4b:	c7 44 24 04 f5 ff ff 	movl   $0xfffffff5,0x4(%esp)
    3b52:	ff 
    3b53:	89 04 24             	mov    %eax,(%esp)
    3b56:	e8 25 5a 01 00       	call   19580 <async_answer_0>
    3b5b:	c9                   	leave  
    3b5c:	c3                   	ret    
    3b5d:	8d 76 00             	lea    0x0(%esi),%esi

00003b60 <remote_nic_vlan_get_mask>:
    3b60:	55                   	push   %ebp
    3b61:	89 e5                	mov    %esp,%ebp
    3b63:	56                   	push   %esi
    3b64:	53                   	push   %ebx
    3b65:	81 ec 20 02 00 00    	sub    $0x220,%esp
    3b6b:	8b 5d 0c             	mov    0xc(%ebp),%ebx
    3b6e:	8b 43 6c             	mov    0x6c(%ebx),%eax
    3b71:	85 c0                	test   %eax,%eax
    3b73:	0f 84 c7 00 00 00    	je     3c40 <remote_nic_vlan_get_mask+0xe0>
    3b79:	8d b5 f8 fd ff ff    	lea    -0x208(%ebp),%esi
    3b7f:	c7 44 24 08 00 02 00 	movl   $0x200,0x8(%esp)
    3b86:	00 
    3b87:	c7 44 24 04 00 00 00 	movl   $0x0,0x4(%esp)
    3b8e:	00 
    3b8f:	89 34 24             	mov    %esi,(%esp)
    3b92:	e8 69 59 00 00       	call   9500 <memset>
    3b97:	8b 45 08             	mov    0x8(%ebp),%eax
    3b9a:	89 74 24 04          	mov    %esi,0x4(%esp)
    3b9e:	89 04 24             	mov    %eax,(%esp)
    3ba1:	ff 53 6c             	call   *0x6c(%ebx)
    3ba4:	89 c3                	mov    %eax,%ebx
    3ba6:	85 c0                	test   %eax,%eax
    3ba8:	75 78                	jne    3c22 <remote_nic_vlan_get_mask+0xc2>
    3baa:	8d 85 f4 fd ff ff    	lea    -0x20c(%ebp),%eax
    3bb0:	89 44 24 04          	mov    %eax,0x4(%esp)
    3bb4:	8d 85 f0 fd ff ff    	lea    -0x210(%ebp),%eax
    3bba:	89 04 24             	mov    %eax,(%esp)
    3bbd:	e8 2e 6f 01 00       	call   1aaf0 <async_data_read_receive>
    3bc2:	84 c0                	test   %al,%al
    3bc4:	74 0c                	je     3bd2 <remote_nic_vlan_get_mask+0x72>
    3bc6:	81 bd f4 fd ff ff 00 	cmpl   $0x200,-0x20c(%ebp)
    3bcd:	02 00 00 
    3bd0:	74 36                	je     3c08 <remote_nic_vlan_get_mask+0xa8>
    3bd2:	8b 85 f0 fd ff ff    	mov    -0x210(%ebp),%eax
    3bd8:	c7 44 24 04 f2 ff ff 	movl   $0xfffffff2,0x4(%esp)
    3bdf:	ff 
    3be0:	89 04 24             	mov    %eax,(%esp)
    3be3:	e8 98 59 01 00       	call   19580 <async_answer_0>
    3be8:	8b 45 10             	mov    0x10(%ebp),%eax
    3beb:	c7 44 24 04 f2 ff ff 	movl   $0xfffffff2,0x4(%esp)
    3bf2:	ff 
    3bf3:	89 04 24             	mov    %eax,(%esp)
    3bf6:	e8 85 59 01 00       	call   19580 <async_answer_0>
    3bfb:	81 c4 20 02 00 00    	add    $0x220,%esp
    3c01:	5b                   	pop    %ebx
    3c02:	5e                   	pop    %esi
    3c03:	5d                   	pop    %ebp
    3c04:	c3                   	ret    
    3c05:	8d 76 00             	lea    0x0(%esi),%esi
    3c08:	8b 85 f0 fd ff ff    	mov    -0x210(%ebp),%eax
    3c0e:	c7 44 24 08 00 02 00 	movl   $0x200,0x8(%esp)
    3c15:	00 
    3c16:	89 74 24 04          	mov    %esi,0x4(%esp)
    3c1a:	89 04 24             	mov    %eax,(%esp)
    3c1d:	e8 2e 6f 01 00       	call   1ab50 <async_data_read_finalize>
    3c22:	8b 45 10             	mov    0x10(%ebp),%eax
    3c25:	89 5c 24 04          	mov    %ebx,0x4(%esp)
    3c29:	89 04 24             	mov    %eax,(%esp)
    3c2c:	e8 4f 59 01 00       	call   19580 <async_answer_0>
    3c31:	81 c4 20 02 00 00    	add    $0x220,%esp
    3c37:	5b                   	pop    %ebx
    3c38:	5e                   	pop    %esi
    3c39:	5d                   	pop    %ebp
    3c3a:	c3                   	ret    
    3c3b:	90                   	nop
    3c3c:	8d 74 26 00          	lea    0x0(%esi,%eiz,1),%esi
    3c40:	8b 45 10             	mov    0x10(%ebp),%eax
    3c43:	c7 44 24 04 f5 ff ff 	movl   $0xfffffff5,0x4(%esp)
    3c4a:	ff 
    3c4b:	89 04 24             	mov    %eax,(%esp)
    3c4e:	e8 2d 59 01 00       	call   19580 <async_answer_0>
    3c53:	81 c4 20 02 00 00    	add    $0x220,%esp
    3c59:	5b                   	pop    %ebx
    3c5a:	5e                   	pop    %esi
    3c5b:	5d                   	pop    %ebp
    3c5c:	c3                   	ret    
    3c5d:	8d 76 00             	lea    0x0(%esi),%esi

00003c60 <remote_nic_get_device_info>:
    3c60:	55                   	push   %ebp
    3c61:	89 e5                	mov    %esp,%ebp
    3c63:	56                   	push   %esi
    3c64:	53                   	push   %ebx
    3c65:	81 ec 40 01 00 00    	sub    $0x140,%esp
    3c6b:	8b 5d 0c             	mov    0xc(%ebp),%ebx
    3c6e:	8b 43 1c             	mov    0x1c(%ebx),%eax
    3c71:	85 c0                	test   %eax,%eax
    3c73:	0f 84 ff 00 00 00    	je     3d78 <remote_nic_get_device_info+0x118>
    3c79:	8d b5 dc fe ff ff    	lea    -0x124(%ebp),%esi
    3c7f:	c7 44 24 08 1c 01 00 	movl   $0x11c,0x8(%esp)
    3c86:	00 
    3c87:	c7 44 24 04 00 00 00 	movl   $0x0,0x4(%esp)
    3c8e:	00 
    3c8f:	89 34 24             	mov    %esi,(%esp)
    3c92:	e8 69 58 00 00       	call   9500 <memset>
    3c97:	8b 45 08             	mov    0x8(%ebp),%eax
    3c9a:	89 74 24 04          	mov    %esi,0x4(%esp)
    3c9e:	89 04 24             	mov    %eax,(%esp)
    3ca1:	ff 53 1c             	call   *0x1c(%ebx)
    3ca4:	89 c3                	mov    %eax,%ebx
    3ca6:	85 c0                	test   %eax,%eax
    3ca8:	75 78                	jne    3d22 <remote_nic_get_device_info+0xc2>
    3caa:	8d 85 d8 fe ff ff    	lea    -0x128(%ebp),%eax
    3cb0:	89 44 24 04          	mov    %eax,0x4(%esp)
    3cb4:	8d 85 d4 fe ff ff    	lea    -0x12c(%ebp),%eax
    3cba:	89 04 24             	mov    %eax,(%esp)
    3cbd:	e8 2e 6e 01 00       	call   1aaf0 <async_data_read_receive>
    3cc2:	84 c0                	test   %al,%al
    3cc4:	74 7a                	je     3d40 <remote_nic_get_device_info+0xe0>
    3cc6:	81 bd d8 fe ff ff 1b 	cmpl   $0x11b,-0x128(%ebp)
    3ccd:	01 00 00 
    3cd0:	77 36                	ja     3d08 <remote_nic_get_device_info+0xa8>
    3cd2:	8b 85 d4 fe ff ff    	mov    -0x12c(%ebp),%eax
    3cd8:	c7 44 24 04 fd ff ff 	movl   $0xfffffffd,0x4(%esp)
    3cdf:	ff 
    3ce0:	89 04 24             	mov    %eax,(%esp)
    3ce3:	e8 98 58 01 00       	call   19580 <async_answer_0>
    3ce8:	8b 45 10             	mov    0x10(%ebp),%eax
    3ceb:	c7 44 24 04 fd ff ff 	movl   $0xfffffffd,0x4(%esp)
    3cf2:	ff 
    3cf3:	89 04 24             	mov    %eax,(%esp)
    3cf6:	e8 85 58 01 00       	call   19580 <async_answer_0>
    3cfb:	81 c4 40 01 00 00    	add    $0x140,%esp
    3d01:	5b                   	pop    %ebx
    3d02:	5e                   	pop    %esi
    3d03:	5d                   	pop    %ebp
    3d04:	c3                   	ret    
    3d05:	8d 76 00             	lea    0x0(%esi),%esi
    3d08:	8b 85 d4 fe ff ff    	mov    -0x12c(%ebp),%eax
    3d0e:	c7 44 24 08 1c 01 00 	movl   $0x11c,0x8(%esp)
    3d15:	00 
    3d16:	89 74 24 04          	mov    %esi,0x4(%esp)
    3d1a:	89 04 24             	mov    %eax,(%esp)
    3d1d:	e8 2e 6e 01 00       	call   1ab50 <async_data_read_finalize>
    3d22:	8b 45 10             	mov    0x10(%ebp),%eax
    3d25:	89 5c 24 04          	mov    %ebx,0x4(%esp)
    3d29:	89 04 24             	mov    %eax,(%esp)
    3d2c:	e8 4f 58 01 00       	call   19580 <async_answer_0>
    3d31:	81 c4 40 01 00 00    	add    $0x140,%esp
    3d37:	5b                   	pop    %ebx
    3d38:	5e                   	pop    %esi
    3d39:	5d                   	pop    %ebp
    3d3a:	c3                   	ret    
    3d3b:	90                   	nop
    3d3c:	8d 74 26 00          	lea    0x0(%esi,%eiz,1),%esi
    3d40:	8b 85 d4 fe ff ff    	mov    -0x12c(%ebp),%eax
    3d46:	c7 44 24 04 f2 ff ff 	movl   $0xfffffff2,0x4(%esp)
    3d4d:	ff 
    3d4e:	89 04 24             	mov    %eax,(%esp)
    3d51:	e8 2a 58 01 00       	call   19580 <async_answer_0>
    3d56:	8b 45 10             	mov    0x10(%ebp),%eax
    3d59:	c7 44 24 04 f2 ff ff 	movl   $0xfffffff2,0x4(%esp)
    3d60:	ff 
    3d61:	89 04 24             	mov    %eax,(%esp)
    3d64:	e8 17 58 01 00       	call   19580 <async_answer_0>
    3d69:	81 c4 40 01 00 00    	add    $0x140,%esp
    3d6f:	5b                   	pop    %ebx
    3d70:	5e                   	pop    %esi
    3d71:	5d                   	pop    %ebp
    3d72:	c3                   	ret    
    3d73:	90                   	nop
    3d74:	8d 74 26 00          	lea    0x0(%esi,%eiz,1),%esi
    3d78:	8b 45 10             	mov    0x10(%ebp),%eax
    3d7b:	c7 44 24 04 f5 ff ff 	movl   $0xfffffff5,0x4(%esp)
    3d82:	ff 
    3d83:	89 04 24             	mov    %eax,(%esp)
    3d86:	e8 f5 57 01 00       	call   19580 <async_answer_0>
    3d8b:	81 c4 40 01 00 00    	add    $0x140,%esp
    3d91:	5b                   	pop    %ebx
    3d92:	5e                   	pop    %esi
    3d93:	5d                   	pop    %ebp
    3d94:	c3                   	ret    
    3d95:	8d 74 26 00          	lea    0x0(%esi,%eiz,1),%esi
    3d99:	8d bc 27 00 00 00 00 	lea    0x0(%edi,%eiz,1),%edi

00003da0 <remote_nic_get_stats>:
    3da0:	55                   	push   %ebp
    3da1:	89 e5                	mov    %esp,%ebp
    3da3:	56                   	push   %esi
    3da4:	53                   	push   %ebx
    3da5:	81 ec 90 00 00 00    	sub    $0x90,%esp
    3dab:	8b 5d 0c             	mov    0xc(%ebp),%ebx
    3dae:	8b 43 18             	mov    0x18(%ebx),%eax
    3db1:	85 c0                	test   %eax,%eax
    3db3:	0f 84 df 00 00 00    	je     3e98 <remote_nic_get_stats+0xf8>
    3db9:	8d 75 8c             	lea    -0x74(%ebp),%esi
    3dbc:	c7 44 24 08 6c 00 00 	movl   $0x6c,0x8(%esp)
    3dc3:	00 
    3dc4:	c7 44 24 04 00 00 00 	movl   $0x0,0x4(%esp)
    3dcb:	00 
    3dcc:	89 34 24             	mov    %esi,(%esp)
    3dcf:	e8 2c 57 00 00       	call   9500 <memset>
    3dd4:	8b 45 08             	mov    0x8(%ebp),%eax
    3dd7:	89 74 24 04          	mov    %esi,0x4(%esp)
    3ddb:	89 04 24             	mov    %eax,(%esp)
    3dde:	ff 53 18             	call   *0x18(%ebx)
    3de1:	89 c3                	mov    %eax,%ebx
    3de3:	85 c0                	test   %eax,%eax
    3de5:	75 68                	jne    3e4f <remote_nic_get_stats+0xaf>
    3de7:	8d 45 88             	lea    -0x78(%ebp),%eax
    3dea:	89 44 24 04          	mov    %eax,0x4(%esp)
    3dee:	8d 45 84             	lea    -0x7c(%ebp),%eax
    3df1:	89 04 24             	mov    %eax,(%esp)
    3df4:	e8 f7 6c 01 00       	call   1aaf0 <async_data_read_receive>
    3df9:	84 c0                	test   %al,%al
    3dfb:	74 6b                	je     3e68 <remote_nic_get_stats+0xc8>
    3dfd:	83 7d 88 6b          	cmpl   $0x6b,-0x78(%ebp)
    3e01:	77 35                	ja     3e38 <remote_nic_get_stats+0x98>
    3e03:	8b 45 84             	mov    -0x7c(%ebp),%eax
    3e06:	c7 44 24 04 fd ff ff 	movl   $0xfffffffd,0x4(%esp)
    3e0d:	ff 
    3e0e:	89 04 24             	mov    %eax,(%esp)
    3e11:	e8 6a 57 01 00       	call   19580 <async_answer_0>
    3e16:	8b 45 10             	mov    0x10(%ebp),%eax
    3e19:	c7 44 24 04 fd ff ff 	movl   $0xfffffffd,0x4(%esp)
    3e20:	ff 
    3e21:	89 04 24             	mov    %eax,(%esp)
    3e24:	e8 57 57 01 00       	call   19580 <async_answer_0>
    3e29:	81 c4 90 00 00 00    	add    $0x90,%esp
    3e2f:	5b                   	pop    %ebx
    3e30:	5e                   	pop    %esi
    3e31:	5d                   	pop    %ebp
    3e32:	c3                   	ret    
    3e33:	90                   	nop
    3e34:	8d 74 26 00          	lea    0x0(%esi,%eiz,1),%esi
    3e38:	8b 45 84             	mov    -0x7c(%ebp),%eax
    3e3b:	c7 44 24 08 6c 00 00 	movl   $0x6c,0x8(%esp)
    3e42:	00 
    3e43:	89 74 24 04          	mov    %esi,0x4(%esp)
    3e47:	89 04 24             	mov    %eax,(%esp)
    3e4a:	e8 01 6d 01 00       	call   1ab50 <async_data_read_finalize>
    3e4f:	8b 45 10             	mov    0x10(%ebp),%eax
    3e52:	89 5c 24 04          	mov    %ebx,0x4(%esp)
    3e56:	89 04 24             	mov    %eax,(%esp)
    3e59:	e8 22 57 01 00       	call   19580 <async_answer_0>
    3e5e:	81 c4 90 00 00 00    	add    $0x90,%esp
    3e64:	5b                   	pop    %ebx
    3e65:	5e                   	pop    %esi
    3e66:	5d                   	pop    %ebp
    3e67:	c3                   	ret    
    3e68:	8b 45 84             	mov    -0x7c(%ebp),%eax
    3e6b:	c7 44 24 04 f2 ff ff 	movl   $0xfffffff2,0x4(%esp)
    3e72:	ff 
    3e73:	89 04 24             	mov    %eax,(%esp)
    3e76:	e8 05 57 01 00       	call   19580 <async_answer_0>
    3e7b:	8b 45 10             	mov    0x10(%ebp),%eax
    3e7e:	c7 44 24 04 f2 ff ff 	movl   $0xfffffff2,0x4(%esp)
    3e85:	ff 
    3e86:	89 04 24             	mov    %eax,(%esp)
    3e89:	e8 f2 56 01 00       	call   19580 <async_answer_0>
    3e8e:	81 c4 90 00 00 00    	add    $0x90,%esp
    3e94:	5b                   	pop    %ebx
    3e95:	5e                   	pop    %esi
    3e96:	5d                   	pop    %ebp
    3e97:	c3                   	ret    
    3e98:	8b 45 10             	mov    0x10(%ebp),%eax
    3e9b:	c7 44 24 04 f5 ff ff 	movl   $0xfffffff5,0x4(%esp)
    3ea2:	ff 
    3ea3:	89 04 24             	mov    %eax,(%esp)
    3ea6:	e8 d5 56 01 00       	call   19580 <async_answer_0>
    3eab:	81 c4 90 00 00 00    	add    $0x90,%esp
    3eb1:	5b                   	pop    %ebx
    3eb2:	5e                   	pop    %esi
    3eb3:	5d                   	pop    %ebp
    3eb4:	c3                   	ret    
    3eb5:	8d 74 26 00          	lea    0x0(%esi,%eiz,1),%esi
    3eb9:	8d bc 27 00 00 00 00 	lea    0x0(%edi,%eiz,1),%edi

00003ec0 <remote_nic_wol_load_info>:
    3ec0:	55                   	push   %ebp
    3ec1:	89 e5                	mov    %esp,%ebp
    3ec3:	57                   	push   %edi
    3ec4:	56                   	push   %esi
    3ec5:	53                   	push   %ebx
    3ec6:	83 ec 3c             	sub    $0x3c,%esp
    3ec9:	8b 7d 0c             	mov    0xc(%ebp),%edi
    3ecc:	8b 87 8c 00 00 00    	mov    0x8c(%edi),%eax
    3ed2:	85 c0                	test   %eax,%eax
    3ed4:	0f 84 2e 01 00 00    	je     4008 <remote_nic_wol_load_info+0x148>
    3eda:	8b 45 14             	mov    0x14(%ebp),%eax
    3edd:	c7 45 d8 00 00 00 00 	movl   $0x0,-0x28(%ebp)
    3ee4:	c7 45 dc 00 00 00 00 	movl   $0x0,-0x24(%ebp)
    3eeb:	8b 58 08             	mov    0x8(%eax),%ebx
    3eee:	85 db                	test   %ebx,%ebx
    3ef0:	0f 85 92 00 00 00    	jne    3f88 <remote_nic_wol_load_info+0xc8>
    3ef6:	31 f6                	xor    %esi,%esi
    3ef8:	89 5c 24 08          	mov    %ebx,0x8(%esp)
    3efc:	c7 44 24 04 00 00 00 	movl   $0x0,0x4(%esp)
    3f03:	00 
    3f04:	89 34 24             	mov    %esi,(%esp)
    3f07:	e8 f4 55 00 00       	call   9500 <memset>
    3f0c:	8d 45 d8             	lea    -0x28(%ebp),%eax
    3f0f:	89 44 24 10          	mov    %eax,0x10(%esp)
    3f13:	8d 45 dc             	lea    -0x24(%ebp),%eax
    3f16:	89 44 24 04          	mov    %eax,0x4(%esp)
    3f1a:	8b 45 08             	mov    0x8(%ebp),%eax
    3f1d:	89 74 24 0c          	mov    %esi,0xc(%esp)
    3f21:	89 5c 24 08          	mov    %ebx,0x8(%esp)
    3f25:	89 04 24             	mov    %eax,(%esp)
    3f28:	ff 97 8c 00 00 00    	call   *0x8c(%edi)
    3f2e:	89 c7                	mov    %eax,%edi
    3f30:	85 c0                	test   %eax,%eax
    3f32:	0f 85 a0 00 00 00    	jne    3fd8 <remote_nic_wol_load_info+0x118>
    3f38:	8d 45 e4             	lea    -0x1c(%ebp),%eax
    3f3b:	89 44 24 04          	mov    %eax,0x4(%esp)
    3f3f:	8d 45 e0             	lea    -0x20(%ebp),%eax
    3f42:	89 04 24             	mov    %eax,(%esp)
    3f45:	e8 a6 6b 01 00       	call   1aaf0 <async_data_read_receive>
    3f4a:	84 c0                	test   %al,%al
    3f4c:	75 62                	jne    3fb0 <remote_nic_wol_load_info+0xf0>
    3f4e:	8b 45 e0             	mov    -0x20(%ebp),%eax
    3f51:	c7 44 24 04 f2 ff ff 	movl   $0xfffffff2,0x4(%esp)
    3f58:	ff 
    3f59:	89 04 24             	mov    %eax,(%esp)
    3f5c:	e8 1f 56 01 00       	call   19580 <async_answer_0>
    3f61:	8b 45 10             	mov    0x10(%ebp),%eax
    3f64:	c7 44 24 04 f2 ff ff 	movl   $0xfffffff2,0x4(%esp)
    3f6b:	ff 
    3f6c:	89 04 24             	mov    %eax,(%esp)
    3f6f:	e8 0c 56 01 00       	call   19580 <async_answer_0>
    3f74:	89 34 24             	mov    %esi,(%esp)
    3f77:	e8 d4 2b 01 00       	call   16b50 <free>
    3f7c:	83 c4 3c             	add    $0x3c,%esp
    3f7f:	5b                   	pop    %ebx
    3f80:	5e                   	pop    %esi
    3f81:	5f                   	pop    %edi
    3f82:	5d                   	pop    %ebp
    3f83:	c3                   	ret    
    3f84:	8d 74 26 00          	lea    0x0(%esi,%eiz,1),%esi
    3f88:	89 1c 24             	mov    %ebx,(%esp)
    3f8b:	e8 b0 2a 01 00       	call   16a40 <malloc>
    3f90:	89 c6                	mov    %eax,%esi
    3f92:	85 c0                	test   %eax,%eax
    3f94:	0f 85 5e ff ff ff    	jne    3ef8 <remote_nic_wol_load_info+0x38>
    3f9a:	8b 45 10             	mov    0x10(%ebp),%eax
    3f9d:	c7 44 24 04 fe ff ff 	movl   $0xfffffffe,0x4(%esp)
    3fa4:	ff 
    3fa5:	89 04 24             	mov    %eax,(%esp)
    3fa8:	e8 d3 55 01 00       	call   19580 <async_answer_0>
    3fad:	eb cd                	jmp    3f7c <remote_nic_wol_load_info+0xbc>
    3faf:	90                   	nop
    3fb0:	8b 45 e4             	mov    -0x1c(%ebp),%eax
    3fb3:	39 d8                	cmp    %ebx,%eax
    3fb5:	76 02                	jbe    3fb9 <remote_nic_wol_load_info+0xf9>
    3fb7:	89 d8                	mov    %ebx,%eax
    3fb9:	8b 55 d8             	mov    -0x28(%ebp),%edx
    3fbc:	39 d0                	cmp    %edx,%eax
    3fbe:	76 02                	jbe    3fc2 <remote_nic_wol_load_info+0x102>
    3fc0:	89 d0                	mov    %edx,%eax
    3fc2:	89 45 e4             	mov    %eax,-0x1c(%ebp)
    3fc5:	89 44 24 08          	mov    %eax,0x8(%esp)
    3fc9:	8b 45 e0             	mov    -0x20(%ebp),%eax
    3fcc:	89 74 24 04          	mov    %esi,0x4(%esp)
    3fd0:	89 04 24             	mov    %eax,(%esp)
    3fd3:	e8 78 6b 01 00       	call   1ab50 <async_data_read_finalize>
    3fd8:	8b 45 d8             	mov    -0x28(%ebp),%eax
    3fdb:	89 7c 24 04          	mov    %edi,0x4(%esp)
    3fdf:	89 44 24 0c          	mov    %eax,0xc(%esp)
    3fe3:	8b 45 dc             	mov    -0x24(%ebp),%eax
    3fe6:	89 44 24 08          	mov    %eax,0x8(%esp)
    3fea:	8b 45 10             	mov    0x10(%ebp),%eax
    3fed:	89 04 24             	mov    %eax,(%esp)
    3ff0:	e8 0b 56 01 00       	call   19600 <async_answer_2>
    3ff5:	89 34 24             	mov    %esi,(%esp)
    3ff8:	e8 53 2b 01 00       	call   16b50 <free>
    3ffd:	83 c4 3c             	add    $0x3c,%esp
    4000:	5b                   	pop    %ebx
    4001:	5e                   	pop    %esi
    4002:	5f                   	pop    %edi
    4003:	5d                   	pop    %ebp
    4004:	c3                   	ret    
    4005:	8d 76 00             	lea    0x0(%esi),%esi
    4008:	8b 45 10             	mov    0x10(%ebp),%eax
    400b:	c7 44 24 04 f5 ff ff 	movl   $0xfffffff5,0x4(%esp)
    4012:	ff 
    4013:	89 04 24             	mov    %eax,(%esp)
    4016:	e8 65 55 01 00       	call   19580 <async_answer_0>
    401b:	e9 5c ff ff ff       	jmp    3f7c <remote_nic_wol_load_info+0xbc>

00004020 <remote_nic_wol_virtue_list>:
    4020:	55                   	push   %ebp
    4021:	89 e5                	mov    %esp,%ebp
    4023:	57                   	push   %edi
    4024:	56                   	push   %esi
    4025:	53                   	push   %ebx
    4026:	83 ec 4c             	sub    $0x4c,%esp
    4029:	8b 55 0c             	mov    0xc(%ebp),%edx
    402c:	8b 45 14             	mov    0x14(%ebp),%eax
    402f:	8b 8a 84 00 00 00    	mov    0x84(%edx),%ecx
    4035:	85 c9                	test   %ecx,%ecx
    4037:	0f 84 6b 01 00 00    	je     41a8 <remote_nic_wol_virtue_list+0x188>
    403d:	8b 78 0c             	mov    0xc(%eax),%edi
    4040:	8b 70 08             	mov    0x8(%eax),%esi
    4043:	c7 45 dc 00 00 00 00 	movl   $0x0,-0x24(%ebp)
    404a:	85 ff                	test   %edi,%edi
    404c:	74 62                	je     40b0 <remote_nic_wol_virtue_list+0x90>
    404e:	8d 14 bd 00 00 00 00 	lea    0x0(,%edi,4),%edx
    4055:	89 14 24             	mov    %edx,(%esp)
    4058:	89 55 d4             	mov    %edx,-0x2c(%ebp)
    405b:	e8 e0 29 01 00       	call   16a40 <malloc>
    4060:	89 c3                	mov    %eax,%ebx
    4062:	85 c0                	test   %eax,%eax
    4064:	0f 84 56 01 00 00    	je     41c0 <remote_nic_wol_virtue_list+0x1a0>
    406a:	8b 55 d4             	mov    -0x2c(%ebp),%edx
    406d:	c7 44 24 04 00 00 00 	movl   $0x0,0x4(%esp)
    4074:	00 
    4075:	89 54 24 08          	mov    %edx,0x8(%esp)
    4079:	89 04 24             	mov    %eax,(%esp)
    407c:	e8 7f 54 00 00       	call   9500 <memset>
    4081:	8d 45 dc             	lea    -0x24(%ebp),%eax
    4084:	89 44 24 10          	mov    %eax,0x10(%esp)
    4088:	8b 55 0c             	mov    0xc(%ebp),%edx
    408b:	8b 45 08             	mov    0x8(%ebp),%eax
    408e:	89 5c 24 0c          	mov    %ebx,0xc(%esp)
    4092:	89 7c 24 08          	mov    %edi,0x8(%esp)
    4096:	89 74 24 04          	mov    %esi,0x4(%esp)
    409a:	89 04 24             	mov    %eax,(%esp)
    409d:	ff 92 84 00 00 00    	call   *0x84(%edx)
    40a3:	8b 55 dc             	mov    -0x24(%ebp),%edx
    40a6:	85 d2                	test   %edx,%edx
    40a8:	75 76                	jne    4120 <remote_nic_wol_virtue_list+0x100>
    40aa:	31 d2                	xor    %edx,%edx
    40ac:	eb 4d                	jmp    40fb <remote_nic_wol_virtue_list+0xdb>
    40ae:	66 90                	xchg   %ax,%ax
    40b0:	c7 44 24 08 00 00 00 	movl   $0x0,0x8(%esp)
    40b7:	00 
    40b8:	c7 44 24 04 00 00 00 	movl   $0x0,0x4(%esp)
    40bf:	00 
    40c0:	c7 04 24 00 00 00 00 	movl   $0x0,(%esp)
    40c7:	31 db                	xor    %ebx,%ebx
    40c9:	e8 32 54 00 00       	call   9500 <memset>
    40ce:	8d 45 dc             	lea    -0x24(%ebp),%eax
    40d1:	89 44 24 10          	mov    %eax,0x10(%esp)
    40d5:	8b 55 0c             	mov    0xc(%ebp),%edx
    40d8:	8b 45 08             	mov    0x8(%ebp),%eax
    40db:	c7 44 24 0c 00 00 00 	movl   $0x0,0xc(%esp)
    40e2:	00 
    40e3:	c7 44 24 08 00 00 00 	movl   $0x0,0x8(%esp)
    40ea:	00 
    40eb:	89 74 24 04          	mov    %esi,0x4(%esp)
    40ef:	89 04 24             	mov    %eax,(%esp)
    40f2:	ff 92 84 00 00 00    	call   *0x84(%edx)
    40f8:	8b 55 dc             	mov    -0x24(%ebp),%edx
    40fb:	89 44 24 04          	mov    %eax,0x4(%esp)
    40ff:	8b 45 10             	mov    0x10(%ebp),%eax
    4102:	89 54 24 08          	mov    %edx,0x8(%esp)
    4106:	89 04 24             	mov    %eax,(%esp)
    4109:	e8 b2 54 01 00       	call   195c0 <async_answer_1>
    410e:	89 1c 24             	mov    %ebx,(%esp)
    4111:	e8 3a 2a 01 00       	call   16b50 <free>
    4116:	83 c4 4c             	add    $0x4c,%esp
    4119:	5b                   	pop    %ebx
    411a:	5e                   	pop    %esi
    411b:	5f                   	pop    %edi
    411c:	5d                   	pop    %ebp
    411d:	c3                   	ret    
    411e:	66 90                	xchg   %ax,%ax
    4120:	8d 45 e4             	lea    -0x1c(%ebp),%eax
    4123:	89 44 24 04          	mov    %eax,0x4(%esp)
    4127:	8d 45 e0             	lea    -0x20(%ebp),%eax
    412a:	89 04 24             	mov    %eax,(%esp)
    412d:	e8 be 69 01 00       	call   1aaf0 <async_data_read_receive>
    4132:	84 c0                	test   %al,%al
    4134:	74 3a                	je     4170 <remote_nic_wol_virtue_list+0x150>
    4136:	8b 55 dc             	mov    -0x24(%ebp),%edx
    4139:	8b 45 e4             	mov    -0x1c(%ebp),%eax
    413c:	c1 e2 02             	shl    $0x2,%edx
    413f:	39 c2                	cmp    %eax,%edx
    4141:	73 05                	jae    4148 <remote_nic_wol_virtue_list+0x128>
    4143:	89 55 e4             	mov    %edx,-0x1c(%ebp)
    4146:	89 d0                	mov    %edx,%eax
    4148:	39 45 d4             	cmp    %eax,-0x2c(%ebp)
    414b:	73 08                	jae    4155 <remote_nic_wol_virtue_list+0x135>
    414d:	8b 55 d4             	mov    -0x2c(%ebp),%edx
    4150:	89 55 e4             	mov    %edx,-0x1c(%ebp)
    4153:	89 d0                	mov    %edx,%eax
    4155:	89 44 24 08          	mov    %eax,0x8(%esp)
    4159:	8b 45 e0             	mov    -0x20(%ebp),%eax
    415c:	89 5c 24 04          	mov    %ebx,0x4(%esp)
    4160:	89 04 24             	mov    %eax,(%esp)
    4163:	e8 e8 69 01 00       	call   1ab50 <async_data_read_finalize>
    4168:	8b 55 dc             	mov    -0x24(%ebp),%edx
    416b:	eb 8e                	jmp    40fb <remote_nic_wol_virtue_list+0xdb>
    416d:	8d 76 00             	lea    0x0(%esi),%esi
    4170:	8b 45 e0             	mov    -0x20(%ebp),%eax
    4173:	c7 44 24 04 f2 ff ff 	movl   $0xfffffff2,0x4(%esp)
    417a:	ff 
    417b:	89 04 24             	mov    %eax,(%esp)
    417e:	e8 fd 53 01 00       	call   19580 <async_answer_0>
    4183:	8b 55 10             	mov    0x10(%ebp),%edx
    4186:	c7 44 24 04 f2 ff ff 	movl   $0xfffffff2,0x4(%esp)
    418d:	ff 
    418e:	89 14 24             	mov    %edx,(%esp)
    4191:	e8 ea 53 01 00       	call   19580 <async_answer_0>
    4196:	89 1c 24             	mov    %ebx,(%esp)
    4199:	e8 b2 29 01 00       	call   16b50 <free>
    419e:	e9 73 ff ff ff       	jmp    4116 <remote_nic_wol_virtue_list+0xf6>
    41a3:	90                   	nop
    41a4:	8d 74 26 00          	lea    0x0(%esi,%eiz,1),%esi
    41a8:	8b 45 10             	mov    0x10(%ebp),%eax
    41ab:	c7 44 24 04 f5 ff ff 	movl   $0xfffffff5,0x4(%esp)
    41b2:	ff 
    41b3:	89 04 24             	mov    %eax,(%esp)
    41b6:	e8 c5 53 01 00       	call   19580 <async_answer_0>
    41bb:	e9 56 ff ff ff       	jmp    4116 <remote_nic_wol_virtue_list+0xf6>
    41c0:	8b 45 10             	mov    0x10(%ebp),%eax
    41c3:	c7 44 24 04 fe ff ff 	movl   $0xfffffffe,0x4(%esp)
    41ca:	ff 
    41cb:	89 04 24             	mov    %eax,(%esp)
    41ce:	e8 ad 53 01 00       	call   19580 <async_answer_0>
    41d3:	e9 3e ff ff ff       	jmp    4116 <remote_nic_wol_virtue_list+0xf6>
    41d8:	90                   	nop
    41d9:	8d b4 26 00 00 00 00 	lea    0x0(%esi,%eiz,1),%esi

000041e0 <remote_nic_wol_virtue_probe>:
    41e0:	55                   	push   %ebp
    41e1:	89 e5                	mov    %esp,%ebp
    41e3:	57                   	push   %edi
    41e4:	56                   	push   %esi
    41e5:	53                   	push   %ebx
    41e6:	83 ec 4c             	sub    $0x4c,%esp
    41e9:	8b 75 0c             	mov    0xc(%ebp),%esi
    41ec:	8b 45 14             	mov    0x14(%ebp),%eax
    41ef:	8b 96 80 00 00 00    	mov    0x80(%esi),%edx
    41f5:	85 d2                	test   %edx,%edx
    41f7:	0f 84 83 01 00 00    	je     4380 <remote_nic_wol_virtue_probe+0x1a0>
    41fd:	8b 50 08             	mov    0x8(%eax),%edx
    4200:	8b 78 0c             	mov    0xc(%eax),%edi
    4203:	89 55 d4             	mov    %edx,-0x2c(%ebp)
    4206:	c7 45 d8 00 00 00 00 	movl   $0x0,-0x28(%ebp)
    420d:	c7 45 dc 00 00 00 00 	movl   $0x0,-0x24(%ebp)
    4214:	85 ff                	test   %edi,%edi
    4216:	0f 85 84 00 00 00    	jne    42a0 <remote_nic_wol_virtue_probe+0xc0>
    421c:	c7 44 24 08 00 00 00 	movl   $0x0,0x8(%esp)
    4223:	00 
    4224:	c7 44 24 04 00 00 00 	movl   $0x0,0x4(%esp)
    422b:	00 
    422c:	c7 04 24 00 00 00 00 	movl   $0x0,(%esp)
    4233:	31 db                	xor    %ebx,%ebx
    4235:	e8 c6 52 00 00       	call   9500 <memset>
    423a:	8d 45 dc             	lea    -0x24(%ebp),%eax
    423d:	89 44 24 14          	mov    %eax,0x14(%esp)
    4241:	8d 45 d8             	lea    -0x28(%ebp),%eax
    4244:	8b 55 d4             	mov    -0x2c(%ebp),%edx
    4247:	89 44 24 08          	mov    %eax,0x8(%esp)
    424b:	8b 45 08             	mov    0x8(%ebp),%eax
    424e:	89 54 24 04          	mov    %edx,0x4(%esp)
    4252:	c7 44 24 10 00 00 00 	movl   $0x0,0x10(%esp)
    4259:	00 
    425a:	c7 44 24 0c 00 00 00 	movl   $0x0,0xc(%esp)
    4261:	00 
    4262:	89 04 24             	mov    %eax,(%esp)
    4265:	ff 96 80 00 00 00    	call   *0x80(%esi)
    426b:	8b 55 dc             	mov    -0x24(%ebp),%edx
    426e:	89 c6                	mov    %eax,%esi
    4270:	8b 45 d8             	mov    -0x28(%ebp),%eax
    4273:	89 54 24 0c          	mov    %edx,0xc(%esp)
    4277:	89 44 24 08          	mov    %eax,0x8(%esp)
    427b:	8b 45 10             	mov    0x10(%ebp),%eax
    427e:	89 74 24 04          	mov    %esi,0x4(%esp)
    4282:	89 04 24             	mov    %eax,(%esp)
    4285:	e8 76 53 01 00       	call   19600 <async_answer_2>
    428a:	89 1c 24             	mov    %ebx,(%esp)
    428d:	e8 be 28 01 00       	call   16b50 <free>
    4292:	83 c4 4c             	add    $0x4c,%esp
    4295:	5b                   	pop    %ebx
    4296:	5e                   	pop    %esi
    4297:	5f                   	pop    %edi
    4298:	5d                   	pop    %ebp
    4299:	c3                   	ret    
    429a:	8d b6 00 00 00 00    	lea    0x0(%esi),%esi
    42a0:	89 3c 24             	mov    %edi,(%esp)
    42a3:	e8 98 27 01 00       	call   16a40 <malloc>
    42a8:	89 c3                	mov    %eax,%ebx
    42aa:	85 c0                	test   %eax,%eax
    42ac:	0f 84 e6 00 00 00    	je     4398 <remote_nic_wol_virtue_probe+0x1b8>
    42b2:	89 7c 24 08          	mov    %edi,0x8(%esp)
    42b6:	c7 44 24 04 00 00 00 	movl   $0x0,0x4(%esp)
    42bd:	00 
    42be:	89 04 24             	mov    %eax,(%esp)
    42c1:	e8 3a 52 00 00       	call   9500 <memset>
    42c6:	8d 45 dc             	lea    -0x24(%ebp),%eax
    42c9:	89 44 24 14          	mov    %eax,0x14(%esp)
    42cd:	8d 45 d8             	lea    -0x28(%ebp),%eax
    42d0:	8b 55 d4             	mov    -0x2c(%ebp),%edx
    42d3:	89 44 24 08          	mov    %eax,0x8(%esp)
    42d7:	8b 45 08             	mov    0x8(%ebp),%eax
    42da:	89 54 24 04          	mov    %edx,0x4(%esp)
    42de:	89 5c 24 10          	mov    %ebx,0x10(%esp)
    42e2:	89 7c 24 0c          	mov    %edi,0xc(%esp)
    42e6:	89 04 24             	mov    %eax,(%esp)
    42e9:	ff 96 80 00 00 00    	call   *0x80(%esi)
    42ef:	31 d2                	xor    %edx,%edx
    42f1:	89 c6                	mov    %eax,%esi
    42f3:	8b 45 dc             	mov    -0x24(%ebp),%eax
    42f6:	85 c0                	test   %eax,%eax
    42f8:	0f 84 72 ff ff ff    	je     4270 <remote_nic_wol_virtue_probe+0x90>
    42fe:	8d 45 e4             	lea    -0x1c(%ebp),%eax
    4301:	89 44 24 04          	mov    %eax,0x4(%esp)
    4305:	8d 45 e0             	lea    -0x20(%ebp),%eax
    4308:	89 04 24             	mov    %eax,(%esp)
    430b:	e8 e0 67 01 00       	call   1aaf0 <async_data_read_receive>
    4310:	84 c0                	test   %al,%al
    4312:	74 34                	je     4348 <remote_nic_wol_virtue_probe+0x168>
    4314:	8b 45 e4             	mov    -0x1c(%ebp),%eax
    4317:	8b 4d dc             	mov    -0x24(%ebp),%ecx
    431a:	39 c8                	cmp    %ecx,%eax
    431c:	76 05                	jbe    4323 <remote_nic_wol_virtue_probe+0x143>
    431e:	89 4d e4             	mov    %ecx,-0x1c(%ebp)
    4321:	89 c8                	mov    %ecx,%eax
    4323:	39 c7                	cmp    %eax,%edi
    4325:	73 05                	jae    432c <remote_nic_wol_virtue_probe+0x14c>
    4327:	89 7d e4             	mov    %edi,-0x1c(%ebp)
    432a:	89 f8                	mov    %edi,%eax
    432c:	89 44 24 08          	mov    %eax,0x8(%esp)
    4330:	8b 45 e0             	mov    -0x20(%ebp),%eax
    4333:	89 5c 24 04          	mov    %ebx,0x4(%esp)
    4337:	89 04 24             	mov    %eax,(%esp)
    433a:	e8 11 68 01 00       	call   1ab50 <async_data_read_finalize>
    433f:	8b 55 dc             	mov    -0x24(%ebp),%edx
    4342:	e9 29 ff ff ff       	jmp    4270 <remote_nic_wol_virtue_probe+0x90>
    4347:	90                   	nop
    4348:	8b 45 e0             	mov    -0x20(%ebp),%eax
    434b:	c7 44 24 04 f2 ff ff 	movl   $0xfffffff2,0x4(%esp)
    4352:	ff 
    4353:	89 04 24             	mov    %eax,(%esp)
    4356:	e8 25 52 01 00       	call   19580 <async_answer_0>
    435b:	8b 55 10             	mov    0x10(%ebp),%edx
    435e:	c7 44 24 04 f2 ff ff 	movl   $0xfffffff2,0x4(%esp)
    4365:	ff 
    4366:	89 14 24             	mov    %edx,(%esp)
    4369:	e8 12 52 01 00       	call   19580 <async_answer_0>
    436e:	89 1c 24             	mov    %ebx,(%esp)
    4371:	e8 da 27 01 00       	call   16b50 <free>
    4376:	e9 17 ff ff ff       	jmp    4292 <remote_nic_wol_virtue_probe+0xb2>
    437b:	90                   	nop
    437c:	8d 74 26 00          	lea    0x0(%esi,%eiz,1),%esi
    4380:	8b 45 10             	mov    0x10(%ebp),%eax
    4383:	c7 44 24 04 f5 ff ff 	movl   $0xfffffff5,0x4(%esp)
    438a:	ff 
    438b:	89 04 24             	mov    %eax,(%esp)
    438e:	e8 ed 51 01 00       	call   19580 <async_answer_0>
    4393:	e9 fa fe ff ff       	jmp    4292 <remote_nic_wol_virtue_probe+0xb2>
    4398:	8b 45 10             	mov    0x10(%ebp),%eax
    439b:	c7 44 24 04 fe ff ff 	movl   $0xfffffffe,0x4(%esp)
    43a2:	ff 
    43a3:	89 04 24             	mov    %eax,(%esp)
    43a6:	e8 d5 51 01 00       	call   19580 <async_answer_0>
    43ab:	e9 e2 fe ff ff       	jmp    4292 <remote_nic_wol_virtue_probe+0xb2>

000043b0 <remote_nic_wol_virtue_add>:
    43b0:	55                   	push   %ebp
    43b1:	89 e5                	mov    %esp,%ebp
    43b3:	57                   	push   %edi
    43b4:	56                   	push   %esi
    43b5:	53                   	push   %ebx
    43b6:	83 ec 3c             	sub    $0x3c,%esp
    43b9:	8b 55 0c             	mov    0xc(%ebp),%edx
    43bc:	8b 75 14             	mov    0x14(%ebp),%esi
    43bf:	8b 4a 78             	mov    0x78(%edx),%ecx
    43c2:	8b 5e 0c             	mov    0xc(%esi),%ebx
    43c5:	85 c9                	test   %ecx,%ecx
    43c7:	0f 84 0b 01 00 00    	je     44d8 <remote_nic_wol_virtue_add+0x128>
    43cd:	c7 45 e0 00 00 00 00 	movl   $0x0,-0x20(%ebp)
    43d4:	85 db                	test   %ebx,%ebx
    43d6:	0f 84 cc 00 00 00    	je     44a8 <remote_nic_wol_virtue_add+0xf8>
    43dc:	8d 45 e0             	lea    -0x20(%ebp),%eax
    43df:	89 44 24 04          	mov    %eax,0x4(%esp)
    43e3:	8d 45 dc             	lea    -0x24(%ebp),%eax
    43e6:	89 04 24             	mov    %eax,(%esp)
    43e9:	e8 22 6c 01 00       	call   1b010 <async_data_write_receive>
    43ee:	84 c0                	test   %al,%al
    43f0:	75 2e                	jne    4420 <remote_nic_wol_virtue_add+0x70>
    43f2:	8b 45 dc             	mov    -0x24(%ebp),%eax
    43f5:	c7 44 24 04 f2 ff ff 	movl   $0xfffffff2,0x4(%esp)
    43fc:	ff 
    43fd:	89 04 24             	mov    %eax,(%esp)
    4400:	e8 7b 51 01 00       	call   19580 <async_answer_0>
    4405:	8b 55 10             	mov    0x10(%ebp),%edx
    4408:	c7 44 24 04 f2 ff ff 	movl   $0xfffffff2,0x4(%esp)
    440f:	ff 
    4410:	89 14 24             	mov    %edx,(%esp)
    4413:	e8 68 51 01 00       	call   19580 <async_answer_0>
    4418:	83 c4 3c             	add    $0x3c,%esp
    441b:	5b                   	pop    %ebx
    441c:	5e                   	pop    %esi
    441d:	5f                   	pop    %edi
    441e:	5d                   	pop    %ebp
    441f:	c3                   	ret    
    4420:	8b 45 e0             	mov    -0x20(%ebp),%eax
    4423:	89 04 24             	mov    %eax,(%esp)
    4426:	e8 15 26 01 00       	call   16a40 <malloc>
    442b:	89 c3                	mov    %eax,%ebx
    442d:	89 c7                	mov    %eax,%edi
    442f:	85 c0                	test   %eax,%eax
    4431:	0f 84 c1 00 00 00    	je     44f8 <remote_nic_wol_virtue_add+0x148>
    4437:	8b 45 e0             	mov    -0x20(%ebp),%eax
    443a:	89 5c 24 04          	mov    %ebx,0x4(%esp)
    443e:	89 44 24 08          	mov    %eax,0x8(%esp)
    4442:	8b 45 dc             	mov    -0x24(%ebp),%eax
    4445:	89 04 24             	mov    %eax,(%esp)
    4448:	e8 13 6c 01 00       	call   1b060 <async_data_write_finalize>
    444d:	85 c0                	test   %eax,%eax
    444f:	75 5f                	jne    44b0 <remote_nic_wol_virtue_add+0x100>
    4451:	8d 45 e4             	lea    -0x1c(%ebp),%eax
    4454:	89 7c 24 08          	mov    %edi,0x8(%esp)
    4458:	89 44 24 10          	mov    %eax,0x10(%esp)
    445c:	8b 45 e0             	mov    -0x20(%ebp),%eax
    445f:	89 44 24 0c          	mov    %eax,0xc(%esp)
    4463:	8b 55 0c             	mov    0xc(%ebp),%edx
    4466:	8b 46 08             	mov    0x8(%esi),%eax
    4469:	c7 45 e4 00 00 00 00 	movl   $0x0,-0x1c(%ebp)
    4470:	89 44 24 04          	mov    %eax,0x4(%esp)
    4474:	8b 45 08             	mov    0x8(%ebp),%eax
    4477:	89 04 24             	mov    %eax,(%esp)
    447a:	ff 52 78             	call   *0x78(%edx)
    447d:	8b 4d e4             	mov    -0x1c(%ebp),%ecx
    4480:	8b 55 10             	mov    0x10(%ebp),%edx
    4483:	89 4c 24 08          	mov    %ecx,0x8(%esp)
    4487:	89 14 24             	mov    %edx,(%esp)
    448a:	89 44 24 04          	mov    %eax,0x4(%esp)
    448e:	e8 2d 51 01 00       	call   195c0 <async_answer_1>
    4493:	89 3c 24             	mov    %edi,(%esp)
    4496:	e8 b5 26 01 00       	call   16b50 <free>
    449b:	83 c4 3c             	add    $0x3c,%esp
    449e:	5b                   	pop    %ebx
    449f:	5e                   	pop    %esi
    44a0:	5f                   	pop    %edi
    44a1:	5d                   	pop    %ebp
    44a2:	c3                   	ret    
    44a3:	90                   	nop
    44a4:	8d 74 26 00          	lea    0x0(%esi,%eiz,1),%esi
    44a8:	31 ff                	xor    %edi,%edi
    44aa:	eb a5                	jmp    4451 <remote_nic_wol_virtue_add+0xa1>
    44ac:	8d 74 26 00          	lea    0x0(%esi,%eiz,1),%esi
    44b0:	8b 55 10             	mov    0x10(%ebp),%edx
    44b3:	c7 44 24 04 f2 ff ff 	movl   $0xfffffff2,0x4(%esp)
    44ba:	ff 
    44bb:	89 14 24             	mov    %edx,(%esp)
    44be:	e8 bd 50 01 00       	call   19580 <async_answer_0>
    44c3:	89 1c 24             	mov    %ebx,(%esp)
    44c6:	e8 85 26 01 00       	call   16b50 <free>
    44cb:	83 c4 3c             	add    $0x3c,%esp
    44ce:	5b                   	pop    %ebx
    44cf:	5e                   	pop    %esi
    44d0:	5f                   	pop    %edi
    44d1:	5d                   	pop    %ebp
    44d2:	c3                   	ret    
    44d3:	90                   	nop
    44d4:	8d 74 26 00          	lea    0x0(%esi,%eiz,1),%esi
    44d8:	85 db                	test   %ebx,%ebx
    44da:	75 4c                	jne    4528 <remote_nic_wol_virtue_add+0x178>
    44dc:	8b 55 10             	mov    0x10(%ebp),%edx
    44df:	c7 44 24 04 f5 ff ff 	movl   $0xfffffff5,0x4(%esp)
    44e6:	ff 
    44e7:	89 14 24             	mov    %edx,(%esp)
    44ea:	e8 91 50 01 00       	call   19580 <async_answer_0>
    44ef:	e9 d9 fe ff ff       	jmp    43cd <remote_nic_wol_virtue_add+0x1d>
    44f4:	8d 74 26 00          	lea    0x0(%esi,%eiz,1),%esi
    44f8:	8b 45 dc             	mov    -0x24(%ebp),%eax
    44fb:	c7 44 24 04 fe ff ff 	movl   $0xfffffffe,0x4(%esp)
    4502:	ff 
    4503:	89 04 24             	mov    %eax,(%esp)
    4506:	e8 75 50 01 00       	call   19580 <async_answer_0>
    450b:	8b 55 10             	mov    0x10(%ebp),%edx
    450e:	c7 44 24 04 fe ff ff 	movl   $0xfffffffe,0x4(%esp)
    4515:	ff 
    4516:	89 14 24             	mov    %edx,(%esp)
    4519:	e8 62 50 01 00       	call   19580 <async_answer_0>
    451e:	e9 f5 fe ff ff       	jmp    4418 <remote_nic_wol_virtue_add+0x68>
    4523:	90                   	nop
    4524:	8d 74 26 00          	lea    0x0(%esi,%eiz,1),%esi
    4528:	8d 45 dc             	lea    -0x24(%ebp),%eax
    452b:	c7 44 24 04 00 00 00 	movl   $0x0,0x4(%esp)
    4532:	00 
    4533:	89 04 24             	mov    %eax,(%esp)
    4536:	e8 d5 6a 01 00       	call   1b010 <async_data_write_receive>
    453b:	8b 45 dc             	mov    -0x24(%ebp),%eax
    453e:	c7 44 24 04 f5 ff ff 	movl   $0xfffffff5,0x4(%esp)
    4545:	ff 
    4546:	89 04 24             	mov    %eax,(%esp)
    4549:	e8 32 50 01 00       	call   19580 <async_answer_0>
    454e:	eb 8c                	jmp    44dc <remote_nic_wol_virtue_add+0x12c>

00004550 <remote_nic_blocked_sources_set>:
    4550:	55                   	push   %ebp
    4551:	89 e5                	mov    %esp,%ebp
    4553:	57                   	push   %edi
    4554:	56                   	push   %esi
    4555:	53                   	push   %ebx
    4556:	83 ec 2c             	sub    $0x2c,%esp
    4559:	31 f6                	xor    %esi,%esi
    455b:	8b 45 14             	mov    0x14(%ebp),%eax
    455e:	8b 58 08             	mov    0x8(%eax),%ebx
    4561:	85 db                	test   %ebx,%ebx
    4563:	75 43                	jne    45a8 <remote_nic_blocked_sources_set+0x58>
    4565:	8b 45 0c             	mov    0xc(%ebp),%eax
    4568:	8b 40 68             	mov    0x68(%eax),%eax
    456b:	85 c0                	test   %eax,%eax
    456d:	0f 84 e5 00 00 00    	je     4658 <remote_nic_blocked_sources_set+0x108>
    4573:	8b 55 08             	mov    0x8(%ebp),%edx
    4576:	89 5c 24 08          	mov    %ebx,0x8(%esp)
    457a:	89 74 24 04          	mov    %esi,0x4(%esp)
    457e:	89 14 24             	mov    %edx,(%esp)
    4581:	ff d0                	call   *%eax
    4583:	89 44 24 04          	mov    %eax,0x4(%esp)
    4587:	8b 45 10             	mov    0x10(%ebp),%eax
    458a:	89 04 24             	mov    %eax,(%esp)
    458d:	e8 ee 4f 01 00       	call   19580 <async_answer_0>
    4592:	89 34 24             	mov    %esi,(%esp)
    4595:	e8 b6 25 01 00       	call   16b50 <free>
    459a:	83 c4 2c             	add    $0x2c,%esp
    459d:	5b                   	pop    %ebx
    459e:	5e                   	pop    %esi
    459f:	5f                   	pop    %edi
    45a0:	5d                   	pop    %ebp
    45a1:	c3                   	ret    
    45a2:	8d b6 00 00 00 00    	lea    0x0(%esi),%esi
    45a8:	8d 45 e0             	lea    -0x20(%ebp),%eax
    45ab:	89 44 24 04          	mov    %eax,0x4(%esp)
    45af:	8d 45 e4             	lea    -0x1c(%ebp),%eax
    45b2:	89 04 24             	mov    %eax,(%esp)
    45b5:	e8 56 6a 01 00       	call   1b010 <async_data_write_receive>
    45ba:	84 c0                	test   %al,%al
    45bc:	0f 84 ae 00 00 00    	je     4670 <remote_nic_blocked_sources_set+0x120>
    45c2:	8d 04 5b             	lea    (%ebx,%ebx,2),%eax
    45c5:	01 c0                	add    %eax,%eax
    45c7:	3b 45 e0             	cmp    -0x20(%ebp),%eax
    45ca:	74 34                	je     4600 <remote_nic_blocked_sources_set+0xb0>
    45cc:	8b 45 e4             	mov    -0x1c(%ebp),%eax
    45cf:	c7 44 24 04 fd ff ff 	movl   $0xfffffffd,0x4(%esp)
    45d6:	ff 
    45d7:	89 04 24             	mov    %eax,(%esp)
    45da:	e8 a1 4f 01 00       	call   19580 <async_answer_0>
    45df:	8b 45 10             	mov    0x10(%ebp),%eax
    45e2:	c7 44 24 04 fd ff ff 	movl   $0xfffffffd,0x4(%esp)
    45e9:	ff 
    45ea:	89 04 24             	mov    %eax,(%esp)
    45ed:	e8 8e 4f 01 00       	call   19580 <async_answer_0>
    45f2:	83 c4 2c             	add    $0x2c,%esp
    45f5:	5b                   	pop    %ebx
    45f6:	5e                   	pop    %esi
    45f7:	5f                   	pop    %edi
    45f8:	5d                   	pop    %ebp
    45f9:	c3                   	ret    
    45fa:	8d b6 00 00 00 00    	lea    0x0(%esi),%esi
    4600:	89 04 24             	mov    %eax,(%esp)
    4603:	e8 38 24 01 00       	call   16a40 <malloc>
    4608:	89 c7                	mov    %eax,%edi
    460a:	89 c6                	mov    %eax,%esi
    460c:	85 c0                	test   %eax,%eax
    460e:	0f 84 87 00 00 00    	je     469b <remote_nic_blocked_sources_set+0x14b>
    4614:	8b 45 e0             	mov    -0x20(%ebp),%eax
    4617:	89 7c 24 04          	mov    %edi,0x4(%esp)
    461b:	89 44 24 08          	mov    %eax,0x8(%esp)
    461f:	8b 45 e4             	mov    -0x1c(%ebp),%eax
    4622:	89 04 24             	mov    %eax,(%esp)
    4625:	e8 36 6a 01 00       	call   1b060 <async_data_write_finalize>
    462a:	85 c0                	test   %eax,%eax
    462c:	0f 84 33 ff ff ff    	je     4565 <remote_nic_blocked_sources_set+0x15>
    4632:	8b 45 10             	mov    0x10(%ebp),%eax
    4635:	c7 44 24 04 f2 ff ff 	movl   $0xfffffff2,0x4(%esp)
    463c:	ff 
    463d:	89 04 24             	mov    %eax,(%esp)
    4640:	e8 3b 4f 01 00       	call   19580 <async_answer_0>
    4645:	89 3c 24             	mov    %edi,(%esp)
    4648:	e8 03 25 01 00       	call   16b50 <free>
    464d:	e9 48 ff ff ff       	jmp    459a <remote_nic_blocked_sources_set+0x4a>
    4652:	8d b6 00 00 00 00    	lea    0x0(%esi),%esi
    4658:	8b 45 10             	mov    0x10(%ebp),%eax
    465b:	c7 44 24 04 f5 ff ff 	movl   $0xfffffff5,0x4(%esp)
    4662:	ff 
    4663:	89 04 24             	mov    %eax,(%esp)
    4666:	e8 15 4f 01 00       	call   19580 <async_answer_0>
    466b:	e9 22 ff ff ff       	jmp    4592 <remote_nic_blocked_sources_set+0x42>
    4670:	8b 45 e4             	mov    -0x1c(%ebp),%eax
    4673:	c7 44 24 04 f2 ff ff 	movl   $0xfffffff2,0x4(%esp)
    467a:	ff 
    467b:	89 04 24             	mov    %eax,(%esp)
    467e:	e8 fd 4e 01 00       	call   19580 <async_answer_0>
    4683:	8b 45 10             	mov    0x10(%ebp),%eax
    4686:	c7 44 24 04 f2 ff ff 	movl   $0xfffffff2,0x4(%esp)
    468d:	ff 
    468e:	89 04 24             	mov    %eax,(%esp)
    4691:	e8 ea 4e 01 00       	call   19580 <async_answer_0>
    4696:	e9 ff fe ff ff       	jmp    459a <remote_nic_blocked_sources_set+0x4a>
    469b:	8b 45 e4             	mov    -0x1c(%ebp),%eax
    469e:	c7 44 24 04 fe ff ff 	movl   $0xfffffffe,0x4(%esp)
    46a5:	ff 
    46a6:	89 04 24             	mov    %eax,(%esp)
    46a9:	e8 d2 4e 01 00       	call   19580 <async_answer_0>
    46ae:	8b 45 10             	mov    0x10(%ebp),%eax
    46b1:	c7 44 24 04 fe ff ff 	movl   $0xfffffffe,0x4(%esp)
    46b8:	ff 
    46b9:	89 04 24             	mov    %eax,(%esp)
    46bc:	e8 bf 4e 01 00       	call   19580 <async_answer_0>
    46c1:	e9 d4 fe ff ff       	jmp    459a <remote_nic_blocked_sources_set+0x4a>
    46c6:	8d 76 00             	lea    0x0(%esi),%esi
    46c9:	8d bc 27 00 00 00 00 	lea    0x0(%edi,%eiz,1),%edi

000046d0 <remote_nic_blocked_sources_get>:
    46d0:	55                   	push   %ebp
    46d1:	89 e5                	mov    %esp,%ebp
    46d3:	57                   	push   %edi
    46d4:	56                   	push   %esi
    46d5:	53                   	push   %ebx
    46d6:	83 ec 2c             	sub    $0x2c,%esp
    46d9:	8b 55 0c             	mov    0xc(%ebp),%edx
    46dc:	8b 7a 64             	mov    0x64(%edx),%edi
    46df:	85 ff                	test   %edi,%edi
    46e1:	0f 84 69 01 00 00    	je     4850 <remote_nic_blocked_sources_get+0x180>
    46e7:	8b 45 14             	mov    0x14(%ebp),%eax
    46ea:	8b 70 08             	mov    0x8(%eax),%esi
    46ed:	85 f6                	test   %esi,%esi
    46ef:	74 67                	je     4758 <remote_nic_blocked_sources_get+0x88>
    46f1:	8d 3c 76             	lea    (%esi,%esi,2),%edi
    46f4:	01 ff                	add    %edi,%edi
    46f6:	89 3c 24             	mov    %edi,(%esp)
    46f9:	e8 42 23 01 00       	call   16a40 <malloc>
    46fe:	89 c3                	mov    %eax,%ebx
    4700:	85 c0                	test   %eax,%eax
    4702:	0f 84 a0 01 00 00    	je     48a8 <remote_nic_blocked_sources_get+0x1d8>
    4708:	89 7c 24 08          	mov    %edi,0x8(%esp)
    470c:	c7 44 24 04 00 00 00 	movl   $0x0,0x4(%esp)
    4713:	00 
    4714:	89 04 24             	mov    %eax,(%esp)
    4717:	e8 e4 4d 00 00       	call   9500 <memset>
    471c:	8d 45 dc             	lea    -0x24(%ebp),%eax
    471f:	89 44 24 0c          	mov    %eax,0xc(%esp)
    4723:	8b 55 0c             	mov    0xc(%ebp),%edx
    4726:	8b 45 08             	mov    0x8(%ebp),%eax
    4729:	c7 45 dc 00 00 00 00 	movl   $0x0,-0x24(%ebp)
    4730:	89 5c 24 08          	mov    %ebx,0x8(%esp)
    4734:	89 74 24 04          	mov    %esi,0x4(%esp)
    4738:	89 04 24             	mov    %eax,(%esp)
    473b:	ff 52 64             	call   *0x64(%edx)
    473e:	85 c0                	test   %eax,%eax
    4740:	0f 85 7a 01 00 00    	jne    48c0 <remote_nic_blocked_sources_get+0x1f0>
    4746:	8b 75 dc             	mov    -0x24(%ebp),%esi
    4749:	85 f6                	test   %esi,%esi
    474b:	75 7b                	jne    47c8 <remote_nic_blocked_sources_get+0xf8>
    474d:	31 d2                	xor    %edx,%edx
    474f:	eb 52                	jmp    47a3 <remote_nic_blocked_sources_get+0xd3>
    4751:	8d b4 26 00 00 00 00 	lea    0x0(%esi,%eiz,1),%esi
    4758:	c7 44 24 08 00 00 00 	movl   $0x0,0x8(%esp)
    475f:	00 
    4760:	c7 44 24 04 00 00 00 	movl   $0x0,0x4(%esp)
    4767:	00 
    4768:	c7 04 24 00 00 00 00 	movl   $0x0,(%esp)
    476f:	31 db                	xor    %ebx,%ebx
    4771:	e8 8a 4d 00 00       	call   9500 <memset>
    4776:	8b 55 08             	mov    0x8(%ebp),%edx
    4779:	8d 45 dc             	lea    -0x24(%ebp),%eax
    477c:	89 14 24             	mov    %edx,(%esp)
    477f:	8b 55 0c             	mov    0xc(%ebp),%edx
    4782:	c7 45 dc 00 00 00 00 	movl   $0x0,-0x24(%ebp)
    4789:	89 44 24 0c          	mov    %eax,0xc(%esp)
    478d:	c7 44 24 08 00 00 00 	movl   $0x0,0x8(%esp)
    4794:	00 
    4795:	c7 44 24 04 00 00 00 	movl   $0x0,0x4(%esp)
    479c:	00 
    479d:	ff 52 64             	call   *0x64(%edx)
    47a0:	8b 55 dc             	mov    -0x24(%ebp),%edx
    47a3:	89 44 24 04          	mov    %eax,0x4(%esp)
    47a7:	8b 45 10             	mov    0x10(%ebp),%eax
    47aa:	89 54 24 08          	mov    %edx,0x8(%esp)
    47ae:	89 04 24             	mov    %eax,(%esp)
    47b1:	e8 0a 4e 01 00       	call   195c0 <async_answer_1>
    47b6:	89 1c 24             	mov    %ebx,(%esp)
    47b9:	e8 92 23 01 00       	call   16b50 <free>
    47be:	83 c4 2c             	add    $0x2c,%esp
    47c1:	5b                   	pop    %ebx
    47c2:	5e                   	pop    %esi
    47c3:	5f                   	pop    %edi
    47c4:	5d                   	pop    %ebp
    47c5:	c3                   	ret    
    47c6:	66 90                	xchg   %ax,%ax
    47c8:	8d 45 e4             	lea    -0x1c(%ebp),%eax
    47cb:	89 44 24 04          	mov    %eax,0x4(%esp)
    47cf:	8d 45 e0             	lea    -0x20(%ebp),%eax
    47d2:	89 04 24             	mov    %eax,(%esp)
    47d5:	e8 16 63 01 00       	call   1aaf0 <async_data_read_receive>
    47da:	84 c0                	test   %al,%al
    47dc:	0f 84 86 00 00 00    	je     4868 <remote_nic_blocked_sources_get+0x198>
    47e2:	8b 45 dc             	mov    -0x24(%ebp),%eax
    47e5:	8d 14 40             	lea    (%eax,%eax,2),%edx
    47e8:	8b 45 e4             	mov    -0x1c(%ebp),%eax
    47eb:	01 d2                	add    %edx,%edx
    47ed:	39 c2                	cmp    %eax,%edx
    47ef:	73 05                	jae    47f6 <remote_nic_blocked_sources_get+0x126>
    47f1:	89 55 e4             	mov    %edx,-0x1c(%ebp)
    47f4:	89 d0                	mov    %edx,%eax
    47f6:	39 c7                	cmp    %eax,%edi
    47f8:	73 05                	jae    47ff <remote_nic_blocked_sources_get+0x12f>
    47fa:	89 7d e4             	mov    %edi,-0x1c(%ebp)
    47fd:	89 f8                	mov    %edi,%eax
    47ff:	89 44 24 08          	mov    %eax,0x8(%esp)
    4803:	8b 45 e0             	mov    -0x20(%ebp),%eax
    4806:	89 5c 24 04          	mov    %ebx,0x4(%esp)
    480a:	89 04 24             	mov    %eax,(%esp)
    480d:	e8 3e 63 01 00       	call   1ab50 <async_data_read_finalize>
    4812:	8b 45 e0             	mov    -0x20(%ebp),%eax
    4815:	c7 44 24 04 f2 ff ff 	movl   $0xfffffff2,0x4(%esp)
    481c:	ff 
    481d:	89 04 24             	mov    %eax,(%esp)
    4820:	e8 5b 4d 01 00       	call   19580 <async_answer_0>
    4825:	89 1c 24             	mov    %ebx,(%esp)
    4828:	e8 23 23 01 00       	call   16b50 <free>
    482d:	8b 45 dc             	mov    -0x24(%ebp),%eax
    4830:	89 44 24 08          	mov    %eax,0x8(%esp)
    4834:	8b 45 10             	mov    0x10(%ebp),%eax
    4837:	c7 44 24 04 00 00 00 	movl   $0x0,0x4(%esp)
    483e:	00 
    483f:	89 04 24             	mov    %eax,(%esp)
    4842:	e8 79 4d 01 00       	call   195c0 <async_answer_1>
    4847:	83 c4 2c             	add    $0x2c,%esp
    484a:	5b                   	pop    %ebx
    484b:	5e                   	pop    %esi
    484c:	5f                   	pop    %edi
    484d:	5d                   	pop    %ebp
    484e:	c3                   	ret    
    484f:	90                   	nop
    4850:	8b 45 10             	mov    0x10(%ebp),%eax
    4853:	c7 44 24 04 f5 ff ff 	movl   $0xfffffff5,0x4(%esp)
    485a:	ff 
    485b:	89 04 24             	mov    %eax,(%esp)
    485e:	e8 1d 4d 01 00       	call   19580 <async_answer_0>
    4863:	e9 56 ff ff ff       	jmp    47be <remote_nic_blocked_sources_get+0xee>
    4868:	8b 45 e0             	mov    -0x20(%ebp),%eax
    486b:	c7 44 24 04 f2 ff ff 	movl   $0xfffffff2,0x4(%esp)
    4872:	ff 
    4873:	89 04 24             	mov    %eax,(%esp)
    4876:	e8 05 4d 01 00       	call   19580 <async_answer_0>
    487b:	8b 45 dc             	mov    -0x24(%ebp),%eax
    487e:	8b 55 10             	mov    0x10(%ebp),%edx
    4881:	89 44 24 08          	mov    %eax,0x8(%esp)
    4885:	c7 44 24 04 00 00 00 	movl   $0x0,0x4(%esp)
    488c:	00 
    488d:	89 14 24             	mov    %edx,(%esp)
    4890:	e8 2b 4d 01 00       	call   195c0 <async_answer_1>
    4895:	89 1c 24             	mov    %ebx,(%esp)
    4898:	e8 b3 22 01 00       	call   16b50 <free>
    489d:	e9 1c ff ff ff       	jmp    47be <remote_nic_blocked_sources_get+0xee>
    48a2:	8d b6 00 00 00 00    	lea    0x0(%esi),%esi
    48a8:	8b 55 10             	mov    0x10(%ebp),%edx
    48ab:	c7 44 24 04 fe ff ff 	movl   $0xfffffffe,0x4(%esp)
    48b2:	ff 
    48b3:	89 14 24             	mov    %edx,(%esp)
    48b6:	e8 c5 4c 01 00       	call   19580 <async_answer_0>
    48bb:	e9 fe fe ff ff       	jmp    47be <remote_nic_blocked_sources_get+0xee>
    48c0:	8b 55 dc             	mov    -0x24(%ebp),%edx
    48c3:	e9 db fe ff ff       	jmp    47a3 <remote_nic_blocked_sources_get+0xd3>
    48c8:	90                   	nop
    48c9:	8d b4 26 00 00 00 00 	lea    0x0(%esi,%eiz,1),%esi

000048d0 <remote_nic_multicast_set_mode>:
    48d0:	55                   	push   %ebp
    48d1:	89 e5                	mov    %esp,%ebp
    48d3:	57                   	push   %edi
    48d4:	56                   	push   %esi
    48d5:	53                   	push   %ebx
    48d6:	83 ec 3c             	sub    $0x3c,%esp
    48d9:	31 f6                	xor    %esi,%esi
    48db:	8b 45 14             	mov    0x14(%ebp),%eax
    48de:	8b 58 0c             	mov    0xc(%eax),%ebx
    48e1:	8b 78 08             	mov    0x8(%eax),%edi
    48e4:	85 db                	test   %ebx,%ebx
    48e6:	75 48                	jne    4930 <remote_nic_multicast_set_mode+0x60>
    48e8:	8b 45 0c             	mov    0xc(%ebp),%eax
    48eb:	8b 40 50             	mov    0x50(%eax),%eax
    48ee:	85 c0                	test   %eax,%eax
    48f0:	0f 84 ea 00 00 00    	je     49e0 <remote_nic_multicast_set_mode+0x110>
    48f6:	8b 55 08             	mov    0x8(%ebp),%edx
    48f9:	89 5c 24 0c          	mov    %ebx,0xc(%esp)
    48fd:	89 74 24 08          	mov    %esi,0x8(%esp)
    4901:	89 7c 24 04          	mov    %edi,0x4(%esp)
    4905:	89 14 24             	mov    %edx,(%esp)
    4908:	ff d0                	call   *%eax
    490a:	89 44 24 04          	mov    %eax,0x4(%esp)
    490e:	8b 45 10             	mov    0x10(%ebp),%eax
    4911:	89 04 24             	mov    %eax,(%esp)
    4914:	e8 67 4c 01 00       	call   19580 <async_answer_0>
    4919:	89 34 24             	mov    %esi,(%esp)
    491c:	e8 2f 22 01 00       	call   16b50 <free>
    4921:	83 c4 3c             	add    $0x3c,%esp
    4924:	5b                   	pop    %ebx
    4925:	5e                   	pop    %esi
    4926:	5f                   	pop    %edi
    4927:	5d                   	pop    %ebp
    4928:	c3                   	ret    
    4929:	8d b4 26 00 00 00 00 	lea    0x0(%esi,%eiz,1),%esi
    4930:	8d 45 e4             	lea    -0x1c(%ebp),%eax
    4933:	89 44 24 04          	mov    %eax,0x4(%esp)
    4937:	8d 45 e0             	lea    -0x20(%ebp),%eax
    493a:	89 04 24             	mov    %eax,(%esp)
    493d:	e8 ce 66 01 00       	call   1b010 <async_data_write_receive>
    4942:	84 c0                	test   %al,%al
    4944:	0f 84 ae 00 00 00    	je     49f8 <remote_nic_multicast_set_mode+0x128>
    494a:	8d 04 5b             	lea    (%ebx,%ebx,2),%eax
    494d:	01 c0                	add    %eax,%eax
    494f:	3b 45 e4             	cmp    -0x1c(%ebp),%eax
    4952:	74 34                	je     4988 <remote_nic_multicast_set_mode+0xb8>
    4954:	8b 45 e0             	mov    -0x20(%ebp),%eax
    4957:	c7 44 24 04 fd ff ff 	movl   $0xfffffffd,0x4(%esp)
    495e:	ff 
    495f:	89 04 24             	mov    %eax,(%esp)
    4962:	e8 19 4c 01 00       	call   19580 <async_answer_0>
    4967:	8b 45 10             	mov    0x10(%ebp),%eax
    496a:	c7 44 24 04 fd ff ff 	movl   $0xfffffffd,0x4(%esp)
    4971:	ff 
    4972:	89 04 24             	mov    %eax,(%esp)
    4975:	e8 06 4c 01 00       	call   19580 <async_answer_0>
    497a:	83 c4 3c             	add    $0x3c,%esp
    497d:	5b                   	pop    %ebx
    497e:	5e                   	pop    %esi
    497f:	5f                   	pop    %edi
    4980:	5d                   	pop    %ebp
    4981:	c3                   	ret    
    4982:	8d b6 00 00 00 00    	lea    0x0(%esi),%esi
    4988:	89 04 24             	mov    %eax,(%esp)
    498b:	e8 b0 20 01 00       	call   16a40 <malloc>
    4990:	89 c2                	mov    %eax,%edx
    4992:	89 c6                	mov    %eax,%esi
    4994:	85 c0                	test   %eax,%eax
    4996:	0f 84 87 00 00 00    	je     4a23 <remote_nic_multicast_set_mode+0x153>
    499c:	8b 45 e4             	mov    -0x1c(%ebp),%eax
    499f:	89 54 24 04          	mov    %edx,0x4(%esp)
    49a3:	89 44 24 08          	mov    %eax,0x8(%esp)
    49a7:	8b 45 e0             	mov    -0x20(%ebp),%eax
    49aa:	89 04 24             	mov    %eax,(%esp)
    49ad:	89 55 d4             	mov    %edx,-0x2c(%ebp)
    49b0:	e8 ab 66 01 00       	call   1b060 <async_data_write_finalize>
    49b5:	85 c0                	test   %eax,%eax
    49b7:	0f 84 2b ff ff ff    	je     48e8 <remote_nic_multicast_set_mode+0x18>
    49bd:	8b 45 10             	mov    0x10(%ebp),%eax
    49c0:	c7 44 24 04 f2 ff ff 	movl   $0xfffffff2,0x4(%esp)
    49c7:	ff 
    49c8:	89 04 24             	mov    %eax,(%esp)
    49cb:	e8 b0 4b 01 00       	call   19580 <async_answer_0>
    49d0:	8b 55 d4             	mov    -0x2c(%ebp),%edx
    49d3:	89 14 24             	mov    %edx,(%esp)
    49d6:	e8 75 21 01 00       	call   16b50 <free>
    49db:	e9 41 ff ff ff       	jmp    4921 <remote_nic_multicast_set_mode+0x51>
    49e0:	8b 45 10             	mov    0x10(%ebp),%eax
    49e3:	c7 44 24 04 f5 ff ff 	movl   $0xfffffff5,0x4(%esp)
    49ea:	ff 
    49eb:	89 04 24             	mov    %eax,(%esp)
    49ee:	e8 8d 4b 01 00       	call   19580 <async_answer_0>
    49f3:	e9 21 ff ff ff       	jmp    4919 <remote_nic_multicast_set_mode+0x49>
    49f8:	8b 45 e0             	mov    -0x20(%ebp),%eax
    49fb:	c7 44 24 04 f2 ff ff 	movl   $0xfffffff2,0x4(%esp)
    4a02:	ff 
    4a03:	89 04 24             	mov    %eax,(%esp)
    4a06:	e8 75 4b 01 00       	call   19580 <async_answer_0>
    4a0b:	8b 45 10             	mov    0x10(%ebp),%eax
    4a0e:	c7 44 24 04 f2 ff ff 	movl   $0xfffffff2,0x4(%esp)
    4a15:	ff 
    4a16:	89 04 24             	mov    %eax,(%esp)
    4a19:	e8 62 4b 01 00       	call   19580 <async_answer_0>
    4a1e:	e9 fe fe ff ff       	jmp    4921 <remote_nic_multicast_set_mode+0x51>
    4a23:	8b 45 e0             	mov    -0x20(%ebp),%eax
    4a26:	c7 44 24 04 fe ff ff 	movl   $0xfffffffe,0x4(%esp)
    4a2d:	ff 
    4a2e:	89 04 24             	mov    %eax,(%esp)
    4a31:	e8 4a 4b 01 00       	call   19580 <async_answer_0>
    4a36:	8b 45 10             	mov    0x10(%ebp),%eax
    4a39:	c7 44 24 04 fe ff ff 	movl   $0xfffffffe,0x4(%esp)
    4a40:	ff 
    4a41:	89 04 24             	mov    %eax,(%esp)
    4a44:	e8 37 4b 01 00       	call   19580 <async_answer_0>
    4a49:	e9 d3 fe ff ff       	jmp    4921 <remote_nic_multicast_set_mode+0x51>
    4a4e:	66 90                	xchg   %ax,%ax

00004a50 <remote_nic_multicast_get_mode>:
    4a50:	55                   	push   %ebp
    4a51:	89 e5                	mov    %esp,%ebp
    4a53:	57                   	push   %edi
    4a54:	56                   	push   %esi
    4a55:	53                   	push   %ebx
    4a56:	83 ec 3c             	sub    $0x3c,%esp
    4a59:	8b 55 0c             	mov    0xc(%ebp),%edx
    4a5c:	8b 42 4c             	mov    0x4c(%edx),%eax
    4a5f:	85 c0                	test   %eax,%eax
    4a61:	0f 84 81 01 00 00    	je     4be8 <remote_nic_multicast_get_mode+0x198>
    4a67:	8b 45 14             	mov    0x14(%ebp),%eax
    4a6a:	8b 70 08             	mov    0x8(%eax),%esi
    4a6d:	85 f6                	test   %esi,%esi
    4a6f:	0f 84 eb 00 00 00    	je     4b60 <remote_nic_multicast_get_mode+0x110>
    4a75:	8d 3c 76             	lea    (%esi,%esi,2),%edi
    4a78:	01 ff                	add    %edi,%edi
    4a7a:	89 3c 24             	mov    %edi,(%esp)
    4a7d:	e8 be 1f 01 00       	call   16a40 <malloc>
    4a82:	89 c3                	mov    %eax,%ebx
    4a84:	85 c0                	test   %eax,%eax
    4a86:	0f 84 b4 01 00 00    	je     4c40 <remote_nic_multicast_get_mode+0x1f0>
    4a8c:	89 7c 24 08          	mov    %edi,0x8(%esp)
    4a90:	c7 44 24 04 00 00 00 	movl   $0x0,0x4(%esp)
    4a97:	00 
    4a98:	89 04 24             	mov    %eax,(%esp)
    4a9b:	e8 60 4a 00 00       	call   9500 <memset>
    4aa0:	8d 45 dc             	lea    -0x24(%ebp),%eax
    4aa3:	89 44 24 10          	mov    %eax,0x10(%esp)
    4aa7:	8d 45 d8             	lea    -0x28(%ebp),%eax
    4aaa:	89 44 24 04          	mov    %eax,0x4(%esp)
    4aae:	8b 55 0c             	mov    0xc(%ebp),%edx
    4ab1:	8b 45 08             	mov    0x8(%ebp),%eax
    4ab4:	89 74 24 08          	mov    %esi,0x8(%esp)
    4ab8:	c7 45 d8 01 00 00 00 	movl   $0x1,-0x28(%ebp)
    4abf:	c7 45 dc 00 00 00 00 	movl   $0x0,-0x24(%ebp)
    4ac6:	89 5c 24 0c          	mov    %ebx,0xc(%esp)
    4aca:	89 04 24             	mov    %eax,(%esp)
    4acd:	ff 52 4c             	call   *0x4c(%edx)
    4ad0:	89 c6                	mov    %eax,%esi
    4ad2:	85 c0                	test   %eax,%eax
    4ad4:	0f 85 de 00 00 00    	jne    4bb8 <remote_nic_multicast_get_mode+0x168>
    4ada:	8b 45 dc             	mov    -0x24(%ebp),%eax
    4add:	85 c0                	test   %eax,%eax
    4adf:	0f 84 d3 00 00 00    	je     4bb8 <remote_nic_multicast_get_mode+0x168>
    4ae5:	8d 45 e4             	lea    -0x1c(%ebp),%eax
    4ae8:	89 44 24 04          	mov    %eax,0x4(%esp)
    4aec:	8d 45 e0             	lea    -0x20(%ebp),%eax
    4aef:	89 04 24             	mov    %eax,(%esp)
    4af2:	e8 f9 5f 01 00       	call   1aaf0 <async_data_read_receive>
    4af7:	84 c0                	test   %al,%al
    4af9:	0f 84 01 01 00 00    	je     4c00 <remote_nic_multicast_get_mode+0x1b0>
    4aff:	8b 45 dc             	mov    -0x24(%ebp),%eax
    4b02:	8d 14 40             	lea    (%eax,%eax,2),%edx
    4b05:	8b 45 e4             	mov    -0x1c(%ebp),%eax
    4b08:	01 d2                	add    %edx,%edx
    4b0a:	39 c2                	cmp    %eax,%edx
    4b0c:	73 05                	jae    4b13 <remote_nic_multicast_get_mode+0xc3>
    4b0e:	89 55 e4             	mov    %edx,-0x1c(%ebp)
    4b11:	89 d0                	mov    %edx,%eax
    4b13:	39 c7                	cmp    %eax,%edi
    4b15:	73 05                	jae    4b1c <remote_nic_multicast_get_mode+0xcc>
    4b17:	89 7d e4             	mov    %edi,-0x1c(%ebp)
    4b1a:	89 f8                	mov    %edi,%eax
    4b1c:	89 44 24 08          	mov    %eax,0x8(%esp)
    4b20:	8b 45 e0             	mov    -0x20(%ebp),%eax
    4b23:	89 5c 24 04          	mov    %ebx,0x4(%esp)
    4b27:	89 04 24             	mov    %eax,(%esp)
    4b2a:	e8 21 60 01 00       	call   1ab50 <async_data_read_finalize>
    4b2f:	89 1c 24             	mov    %ebx,(%esp)
    4b32:	e8 19 20 01 00       	call   16b50 <free>
    4b37:	8b 45 dc             	mov    -0x24(%ebp),%eax
    4b3a:	89 44 24 0c          	mov    %eax,0xc(%esp)
    4b3e:	8b 45 d8             	mov    -0x28(%ebp),%eax
    4b41:	89 44 24 08          	mov    %eax,0x8(%esp)
    4b45:	8b 45 10             	mov    0x10(%ebp),%eax
    4b48:	c7 44 24 04 00 00 00 	movl   $0x0,0x4(%esp)
    4b4f:	00 
    4b50:	89 04 24             	mov    %eax,(%esp)
    4b53:	e8 a8 4a 01 00       	call   19600 <async_answer_2>
    4b58:	83 c4 3c             	add    $0x3c,%esp
    4b5b:	5b                   	pop    %ebx
    4b5c:	5e                   	pop    %esi
    4b5d:	5f                   	pop    %edi
    4b5e:	5d                   	pop    %ebp
    4b5f:	c3                   	ret    
    4b60:	c7 44 24 08 00 00 00 	movl   $0x0,0x8(%esp)
    4b67:	00 
    4b68:	c7 44 24 04 00 00 00 	movl   $0x0,0x4(%esp)
    4b6f:	00 
    4b70:	c7 04 24 00 00 00 00 	movl   $0x0,(%esp)
    4b77:	31 db                	xor    %ebx,%ebx
    4b79:	e8 82 49 00 00       	call   9500 <memset>
    4b7e:	8b 55 08             	mov    0x8(%ebp),%edx
    4b81:	8d 45 dc             	lea    -0x24(%ebp),%eax
    4b84:	89 14 24             	mov    %edx,(%esp)
    4b87:	89 44 24 10          	mov    %eax,0x10(%esp)
    4b8b:	8b 55 0c             	mov    0xc(%ebp),%edx
    4b8e:	8d 45 d8             	lea    -0x28(%ebp),%eax
    4b91:	c7 45 d8 01 00 00 00 	movl   $0x1,-0x28(%ebp)
    4b98:	c7 45 dc 00 00 00 00 	movl   $0x0,-0x24(%ebp)
    4b9f:	c7 44 24 0c 00 00 00 	movl   $0x0,0xc(%esp)
    4ba6:	00 
    4ba7:	c7 44 24 08 00 00 00 	movl   $0x0,0x8(%esp)
    4bae:	00 
    4baf:	89 44 24 04          	mov    %eax,0x4(%esp)
    4bb3:	ff 52 4c             	call   *0x4c(%edx)
    4bb6:	89 c6                	mov    %eax,%esi
    4bb8:	89 1c 24             	mov    %ebx,(%esp)
    4bbb:	e8 90 1f 01 00       	call   16b50 <free>
    4bc0:	8b 45 dc             	mov    -0x24(%ebp),%eax
    4bc3:	89 44 24 0c          	mov    %eax,0xc(%esp)
    4bc7:	8b 45 d8             	mov    -0x28(%ebp),%eax
    4bca:	89 44 24 08          	mov    %eax,0x8(%esp)
    4bce:	8b 45 10             	mov    0x10(%ebp),%eax
    4bd1:	89 74 24 04          	mov    %esi,0x4(%esp)
    4bd5:	89 04 24             	mov    %eax,(%esp)
    4bd8:	e8 23 4a 01 00       	call   19600 <async_answer_2>
    4bdd:	83 c4 3c             	add    $0x3c,%esp
    4be0:	5b                   	pop    %ebx
    4be1:	5e                   	pop    %esi
    4be2:	5f                   	pop    %edi
    4be3:	5d                   	pop    %ebp
    4be4:	c3                   	ret    
    4be5:	8d 76 00             	lea    0x0(%esi),%esi
    4be8:	8b 45 10             	mov    0x10(%ebp),%eax
    4beb:	c7 44 24 04 f5 ff ff 	movl   $0xfffffff5,0x4(%esp)
    4bf2:	ff 
    4bf3:	89 04 24             	mov    %eax,(%esp)
    4bf6:	e8 85 49 01 00       	call   19580 <async_answer_0>
    4bfb:	eb e0                	jmp    4bdd <remote_nic_multicast_get_mode+0x18d>
    4bfd:	8d 76 00             	lea    0x0(%esi),%esi
    4c00:	8b 45 e0             	mov    -0x20(%ebp),%eax
    4c03:	c7 44 24 04 f2 ff ff 	movl   $0xfffffff2,0x4(%esp)
    4c0a:	ff 
    4c0b:	89 04 24             	mov    %eax,(%esp)
    4c0e:	e8 6d 49 01 00       	call   19580 <async_answer_0>
    4c13:	8b 45 dc             	mov    -0x24(%ebp),%eax
    4c16:	89 44 24 0c          	mov    %eax,0xc(%esp)
    4c1a:	8b 55 10             	mov    0x10(%ebp),%edx
    4c1d:	8b 45 d8             	mov    -0x28(%ebp),%eax
    4c20:	c7 44 24 04 00 00 00 	movl   $0x0,0x4(%esp)
    4c27:	00 
    4c28:	89 44 24 08          	mov    %eax,0x8(%esp)
    4c2c:	89 14 24             	mov    %edx,(%esp)
    4c2f:	e8 cc 49 01 00       	call   19600 <async_answer_2>
    4c34:	89 1c 24             	mov    %ebx,(%esp)
    4c37:	e8 14 1f 01 00       	call   16b50 <free>
    4c3c:	eb 9f                	jmp    4bdd <remote_nic_multicast_get_mode+0x18d>
    4c3e:	66 90                	xchg   %ax,%ax
    4c40:	8b 55 10             	mov    0x10(%ebp),%edx
    4c43:	c7 44 24 04 fe ff ff 	movl   $0xfffffffe,0x4(%esp)
    4c4a:	ff 
    4c4b:	89 14 24             	mov    %edx,(%esp)
    4c4e:	e8 2d 49 01 00       	call   19580 <async_answer_0>
    4c53:	eb 88                	jmp    4bdd <remote_nic_multicast_get_mode+0x18d>
    4c55:	8d 74 26 00          	lea    0x0(%esi,%eiz,1),%esi
    4c59:	8d bc 27 00 00 00 00 	lea    0x0(%edi,%eiz,1),%edi

00004c60 <remote_nic_unicast_set_mode>:
    4c60:	55                   	push   %ebp
    4c61:	89 e5                	mov    %esp,%ebp
    4c63:	57                   	push   %edi
    4c64:	56                   	push   %esi
    4c65:	53                   	push   %ebx
    4c66:	83 ec 3c             	sub    $0x3c,%esp
    4c69:	31 f6                	xor    %esi,%esi
    4c6b:	8b 45 14             	mov    0x14(%ebp),%eax
    4c6e:	8b 58 0c             	mov    0xc(%eax),%ebx
    4c71:	8b 78 08             	mov    0x8(%eax),%edi
    4c74:	85 db                	test   %ebx,%ebx
    4c76:	75 48                	jne    4cc0 <remote_nic_unicast_set_mode+0x60>
    4c78:	8b 45 0c             	mov    0xc(%ebp),%eax
    4c7b:	8b 40 48             	mov    0x48(%eax),%eax
    4c7e:	85 c0                	test   %eax,%eax
    4c80:	0f 84 ea 00 00 00    	je     4d70 <remote_nic_unicast_set_mode+0x110>
    4c86:	8b 55 08             	mov    0x8(%ebp),%edx
    4c89:	89 5c 24 0c          	mov    %ebx,0xc(%esp)
    4c8d:	89 74 24 08          	mov    %esi,0x8(%esp)
    4c91:	89 7c 24 04          	mov    %edi,0x4(%esp)
    4c95:	89 14 24             	mov    %edx,(%esp)
    4c98:	ff d0                	call   *%eax
    4c9a:	89 44 24 04          	mov    %eax,0x4(%esp)
    4c9e:	8b 45 10             	mov    0x10(%ebp),%eax
    4ca1:	89 04 24             	mov    %eax,(%esp)
    4ca4:	e8 d7 48 01 00       	call   19580 <async_answer_0>
    4ca9:	89 34 24             	mov    %esi,(%esp)
    4cac:	e8 9f 1e 01 00       	call   16b50 <free>
    4cb1:	83 c4 3c             	add    $0x3c,%esp
    4cb4:	5b                   	pop    %ebx
    4cb5:	5e                   	pop    %esi
    4cb6:	5f                   	pop    %edi
    4cb7:	5d                   	pop    %ebp
    4cb8:	c3                   	ret    
    4cb9:	8d b4 26 00 00 00 00 	lea    0x0(%esi,%eiz,1),%esi
    4cc0:	8d 45 e0             	lea    -0x20(%ebp),%eax
    4cc3:	89 44 24 04          	mov    %eax,0x4(%esp)
    4cc7:	8d 45 e4             	lea    -0x1c(%ebp),%eax
    4cca:	89 04 24             	mov    %eax,(%esp)
    4ccd:	e8 3e 63 01 00       	call   1b010 <async_data_write_receive>
    4cd2:	84 c0                	test   %al,%al
    4cd4:	0f 84 ae 00 00 00    	je     4d88 <remote_nic_unicast_set_mode+0x128>
    4cda:	8d 04 5b             	lea    (%ebx,%ebx,2),%eax
    4cdd:	01 c0                	add    %eax,%eax
    4cdf:	3b 45 e0             	cmp    -0x20(%ebp),%eax
    4ce2:	74 34                	je     4d18 <remote_nic_unicast_set_mode+0xb8>
    4ce4:	8b 45 e4             	mov    -0x1c(%ebp),%eax
    4ce7:	c7 44 24 04 fd ff ff 	movl   $0xfffffffd,0x4(%esp)
    4cee:	ff 
    4cef:	89 04 24             	mov    %eax,(%esp)
    4cf2:	e8 89 48 01 00       	call   19580 <async_answer_0>
    4cf7:	8b 45 10             	mov    0x10(%ebp),%eax
    4cfa:	c7 44 24 04 fd ff ff 	movl   $0xfffffffd,0x4(%esp)
    4d01:	ff 
    4d02:	89 04 24             	mov    %eax,(%esp)
    4d05:	e8 76 48 01 00       	call   19580 <async_answer_0>
    4d0a:	83 c4 3c             	add    $0x3c,%esp
    4d0d:	5b                   	pop    %ebx
    4d0e:	5e                   	pop    %esi
    4d0f:	5f                   	pop    %edi
    4d10:	5d                   	pop    %ebp
    4d11:	c3                   	ret    
    4d12:	8d b6 00 00 00 00    	lea    0x0(%esi),%esi
    4d18:	89 04 24             	mov    %eax,(%esp)
    4d1b:	e8 20 1d 01 00       	call   16a40 <malloc>
    4d20:	89 c2                	mov    %eax,%edx
    4d22:	89 c6                	mov    %eax,%esi
    4d24:	85 c0                	test   %eax,%eax
    4d26:	0f 84 87 00 00 00    	je     4db3 <remote_nic_unicast_set_mode+0x153>
    4d2c:	8b 45 e0             	mov    -0x20(%ebp),%eax
    4d2f:	89 54 24 04          	mov    %edx,0x4(%esp)
    4d33:	89 44 24 08          	mov    %eax,0x8(%esp)
    4d37:	8b 45 e4             	mov    -0x1c(%ebp),%eax
    4d3a:	89 04 24             	mov    %eax,(%esp)
    4d3d:	89 55 d4             	mov    %edx,-0x2c(%ebp)
    4d40:	e8 1b 63 01 00       	call   1b060 <async_data_write_finalize>
    4d45:	85 c0                	test   %eax,%eax
    4d47:	0f 84 2b ff ff ff    	je     4c78 <remote_nic_unicast_set_mode+0x18>
    4d4d:	8b 45 10             	mov    0x10(%ebp),%eax
    4d50:	c7 44 24 04 f2 ff ff 	movl   $0xfffffff2,0x4(%esp)
    4d57:	ff 
    4d58:	89 04 24             	mov    %eax,(%esp)
    4d5b:	e8 20 48 01 00       	call   19580 <async_answer_0>
    4d60:	8b 55 d4             	mov    -0x2c(%ebp),%edx
    4d63:	89 14 24             	mov    %edx,(%esp)
    4d66:	e8 e5 1d 01 00       	call   16b50 <free>
    4d6b:	e9 41 ff ff ff       	jmp    4cb1 <remote_nic_unicast_set_mode+0x51>
