
tmpfs:     file format elf32-i386


Disassembly of section .init:

00001094 <__entry>:
    1094:	66 8c d0             	mov    %ss,%ax
    1097:	8e d8                	mov    %eax,%ds
    1099:	8e c0                	mov    %eax,%es
    109b:	8e e0                	mov    %eax,%fs
    109d:	b8 01 00 00 00       	mov    $0x1,%eax
    10a2:	0f a2                	cpuid  
    10a4:	0f ba e2 0b          	bt     $0xb,%edx
    10a8:	73 0c                	jae    10b6 <__entry+0x22>
    10aa:	8d 05 74 4a 02 00    	lea    0x24a74,%eax
    10b0:	c7 00 77 f6 01 00    	movl   $0x1f677,(%eax)
    10b6:	6a 00                	push   $0x0
    10b8:	89 e5                	mov    %esp,%ebp
    10ba:	57                   	push   %edi
    10bb:	e8 10 41 00 00       	call   51d0 <__main>

Disassembly of section .text:

000010c0 <main>:
    10c0:	55                   	push   %ebp
    10c1:	89 e5                	mov    %esp,%ebp
    10c3:	53                   	push   %ebx
    10c4:	83 e4 f0             	and    $0xfffffff0,%esp
    10c7:	83 ec 10             	sub    $0x10,%esp
    10ca:	8b 5d 0c             	mov    0xc(%ebp),%ebx
    10cd:	c7 04 24 a4 1b 02 00 	movl   $0x21ba4,(%esp)
    10d4:	e8 b7 f0 00 00       	call   10190 <printf>
    10d9:	83 7d 08 03          	cmpl   $0x3,0x8(%ebp)
    10dd:	0f 84 9c 00 00 00    	je     117f <main+0xbf>
    10e3:	e8 b8 0e 00 00       	call   1fa0 <tmpfs_init>
    10e8:	84 c0                	test   %al,%al
    10ea:	0f 84 cb 00 00 00    	je     11bb <main+0xfb>
    10f0:	c7 44 24 0c 00 00 00 	movl   $0x0,0xc(%esp)
    10f7:	00 
    10f8:	c7 44 24 08 00 00 00 	movl   $0x0,0x8(%esp)
    10ff:	00 
    1100:	c7 44 24 04 76 66 73 	movl   $0x20736676,0x4(%esp)
    1107:	20 
    1108:	c7 04 24 02 00 00 00 	movl   $0x2,(%esp)
    110f:	e8 8c 45 01 00       	call   156a0 <service_connect_blocking>
    1114:	85 c0                	test   %eax,%eax
    1116:	0f 84 c1 00 00 00    	je     11dd <main+0x11d>
    111c:	c7 44 24 0c 20 48 02 	movl   $0x24820,0xc(%esp)
    1123:	00 
    1124:	c7 44 24 08 e0 47 02 	movl   $0x247e0,0x8(%esp)
    112b:	00 
    112c:	c7 44 24 04 c0 47 02 	movl   $0x247c0,0x4(%esp)
    1133:	00 
    1134:	89 04 24             	mov    %eax,(%esp)
    1137:	e8 f4 3b 00 00       	call   4d30 <fs_register>
    113c:	89 c3                	mov    %eax,%ebx
    113e:	85 c0                	test   %eax,%eax
    1140:	75 2b                	jne    116d <main+0xad>
    1142:	c7 04 24 6d 1c 02 00 	movl   $0x21c6d,(%esp)
    1149:	e8 42 f0 00 00       	call   10190 <printf>
    114e:	c7 04 24 00 00 00 00 	movl   $0x0,(%esp)
    1155:	e8 f6 c9 00 00       	call   db50 <task_retval>
    115a:	c7 04 24 01 00 00 00 	movl   $0x1,(%esp)
    1161:	e8 ca a8 00 00       	call   ba30 <fibril_switch>
    1166:	89 d8                	mov    %ebx,%eax
    1168:	8b 5d fc             	mov    -0x4(%ebp),%ebx
    116b:	c9                   	leave  
    116c:	c3                   	ret    
    116d:	89 44 24 04          	mov    %eax,0x4(%esp)
    1171:	c7 04 24 18 1c 02 00 	movl   $0x21c18,(%esp)
    1178:	e8 13 f0 00 00       	call   10190 <printf>
    117d:	eb e7                	jmp    1166 <main+0xa6>
    117f:	c7 44 24 04 44 1c 02 	movl   $0x21c44,0x4(%esp)
    1186:	00 
    1187:	8b 43 04             	mov    0x4(%ebx),%eax
    118a:	89 04 24             	mov    %eax,(%esp)
    118d:	e8 7e 83 00 00       	call   9510 <str_cmp>
    1192:	85 c0                	test   %eax,%eax
    1194:	75 36                	jne    11cc <main+0x10c>
    1196:	c7 44 24 08 0a 00 00 	movl   $0xa,0x8(%esp)
    119d:	00 
    119e:	c7 44 24 04 00 00 00 	movl   $0x0,0x4(%esp)
    11a5:	00 
    11a6:	8b 43 08             	mov    0x8(%ebx),%eax
    11a9:	89 04 24             	mov    %eax,(%esp)
    11ac:	e8 8f 9d 00 00       	call   af40 <strtol>
    11b1:	a3 d8 47 02 00       	mov    %eax,0x247d8
    11b6:	e9 28 ff ff ff       	jmp    10e3 <main+0x23>
    11bb:	c7 04 24 d0 1b 02 00 	movl   $0x21bd0,(%esp)
    11c2:	83 cb ff             	or     $0xffffffff,%ebx
    11c5:	e8 c6 ef 00 00       	call   10190 <printf>
    11ca:	eb 9a                	jmp    1166 <main+0xa6>
    11cc:	c7 04 24 4f 1c 02 00 	movl   $0x21c4f,(%esp)
    11d3:	83 cb ff             	or     $0xffffffff,%ebx
    11d6:	e8 b5 ef 00 00       	call   10190 <printf>
    11db:	eb 89                	jmp    1166 <main+0xa6>
    11dd:	c7 04 24 f4 1b 02 00 	movl   $0x21bf4,(%esp)
    11e4:	83 cb ff             	or     $0xffffffff,%ebx
    11e7:	e8 a4 ef 00 00       	call   10190 <printf>
    11ec:	e9 75 ff ff ff       	jmp    1166 <main+0xa6>
    11f1:	66 90                	xchg   %ax,%ax
    11f3:	66 90                	xchg   %ax,%ax
    11f5:	66 90                	xchg   %ax,%ax
    11f7:	66 90                	xchg   %ax,%ax
    11f9:	66 90                	xchg   %ax,%ax
    11fb:	66 90                	xchg   %ax,%ax
    11fd:	66 90                	xchg   %ax,%ax
    11ff:	90                   	nop

00001200 <tmpfs_has_children>:
    1200:	55                   	push   %ebp
    1201:	89 e5                	mov    %esp,%ebp
    1203:	8b 45 0c             	mov    0xc(%ebp),%eax
    1206:	85 c0                	test   %eax,%eax
    1208:	74 16                	je     1220 <tmpfs_has_children+0x20>
    120a:	8b 40 10             	mov    0x10(%eax),%eax
    120d:	8d 50 24             	lea    0x24(%eax),%edx
    1210:	39 50 28             	cmp    %edx,0x28(%eax)
    1213:	8b 45 08             	mov    0x8(%ebp),%eax
    1216:	0f 95 00             	setne  (%eax)
    1219:	31 c0                	xor    %eax,%eax
    121b:	5d                   	pop    %ebp
    121c:	c3                   	ret    
    121d:	8d 76 00             	lea    0x0(%esi),%esi
    1220:	31 c0                	xor    %eax,%eax
    1222:	8d 50 24             	lea    0x24(%eax),%edx
    1225:	39 50 28             	cmp    %edx,0x28(%eax)
    1228:	8b 45 08             	mov    0x8(%ebp),%eax
    122b:	0f 95 00             	setne  (%eax)
    122e:	31 c0                	xor    %eax,%eax
    1230:	5d                   	pop    %ebp
    1231:	c3                   	ret    
    1232:	8d b4 26 00 00 00 00 	lea    0x0(%esi,%eiz,1),%esi
    1239:	8d bc 27 00 00 00 00 	lea    0x0(%edi,%eiz,1),%edi

00001240 <tmpfs_index_get>:
    1240:	55                   	push   %ebp
    1241:	89 e5                	mov    %esp,%ebp
    1243:	8b 45 08             	mov    0x8(%ebp),%eax
    1246:	85 c0                	test   %eax,%eax
    1248:	74 0e                	je     1258 <tmpfs_index_get+0x18>
    124a:	8b 40 10             	mov    0x10(%eax),%eax
    124d:	5d                   	pop    %ebp
    124e:	8b 40 04             	mov    0x4(%eax),%eax
    1251:	c3                   	ret    
    1252:	8d b6 00 00 00 00    	lea    0x0(%esi),%esi
    1258:	31 c0                	xor    %eax,%eax
    125a:	5d                   	pop    %ebp
    125b:	8b 40 04             	mov    0x4(%eax),%eax
    125e:	c3                   	ret    
    125f:	90                   	nop

00001260 <tmpfs_size_get>:
    1260:	55                   	push   %ebp
    1261:	89 e5                	mov    %esp,%ebp
    1263:	8b 45 08             	mov    0x8(%ebp),%eax
    1266:	85 c0                	test   %eax,%eax
    1268:	74 0e                	je     1278 <tmpfs_size_get+0x18>
    126a:	8b 40 10             	mov    0x10(%eax),%eax
    126d:	31 d2                	xor    %edx,%edx
    126f:	5d                   	pop    %ebp
    1270:	8b 40 1c             	mov    0x1c(%eax),%eax
    1273:	c3                   	ret    
    1274:	8d 74 26 00          	lea    0x0(%esi,%eiz,1),%esi
    1278:	31 c0                	xor    %eax,%eax
    127a:	31 d2                	xor    %edx,%edx
    127c:	5d                   	pop    %ebp
    127d:	8b 40 1c             	mov    0x1c(%eax),%eax
    1280:	c3                   	ret    
    1281:	eb 0d                	jmp    1290 <tmpfs_lnkcnt_get>
    1283:	90                   	nop
    1284:	90                   	nop
    1285:	90                   	nop
    1286:	90                   	nop
    1287:	90                   	nop
    1288:	90                   	nop
    1289:	90                   	nop
    128a:	90                   	nop
    128b:	90                   	nop
    128c:	90                   	nop
    128d:	90                   	nop
    128e:	90                   	nop
    128f:	90                   	nop

00001290 <tmpfs_lnkcnt_get>:
    1290:	55                   	push   %ebp
    1291:	89 e5                	mov    %esp,%ebp
    1293:	8b 45 08             	mov    0x8(%ebp),%eax
    1296:	85 c0                	test   %eax,%eax
    1298:	74 0e                	je     12a8 <tmpfs_lnkcnt_get+0x18>
    129a:	8b 40 10             	mov    0x10(%eax),%eax
    129d:	5d                   	pop    %ebp
    129e:	8b 40 18             	mov    0x18(%eax),%eax
    12a1:	c3                   	ret    
    12a2:	8d b6 00 00 00 00    	lea    0x0(%esi),%esi
    12a8:	31 c0                	xor    %eax,%eax
    12aa:	5d                   	pop    %ebp
    12ab:	8b 40 18             	mov    0x18(%eax),%eax
    12ae:	c3                   	ret    
    12af:	90                   	nop

000012b0 <tmpfs_is_directory>:
    12b0:	55                   	push   %ebp
    12b1:	89 e5                	mov    %esp,%ebp
    12b3:	8b 45 08             	mov    0x8(%ebp),%eax
    12b6:	85 c0                	test   %eax,%eax
    12b8:	74 0e                	je     12c8 <tmpfs_is_directory+0x18>
    12ba:	8b 40 10             	mov    0x10(%eax),%eax
    12bd:	5d                   	pop    %ebp
    12be:	83 78 14 02          	cmpl   $0x2,0x14(%eax)
    12c2:	0f 94 c0             	sete   %al
    12c5:	c3                   	ret    
    12c6:	66 90                	xchg   %ax,%ax
    12c8:	31 c0                	xor    %eax,%eax
    12ca:	5d                   	pop    %ebp
    12cb:	83 78 14 02          	cmpl   $0x2,0x14(%eax)
    12cf:	0f 94 c0             	sete   %al
    12d2:	c3                   	ret    
    12d3:	8d b6 00 00 00 00    	lea    0x0(%esi),%esi
    12d9:	8d bc 27 00 00 00 00 	lea    0x0(%edi,%eiz,1),%edi

000012e0 <tmpfs_is_file>:
    12e0:	55                   	push   %ebp
    12e1:	89 e5                	mov    %esp,%ebp
    12e3:	8b 45 08             	mov    0x8(%ebp),%eax
    12e6:	85 c0                	test   %eax,%eax
    12e8:	74 0e                	je     12f8 <tmpfs_is_file+0x18>
    12ea:	8b 40 10             	mov    0x10(%eax),%eax
    12ed:	5d                   	pop    %ebp
    12ee:	83 78 14 01          	cmpl   $0x1,0x14(%eax)
    12f2:	0f 94 c0             	sete   %al
    12f5:	c3                   	ret    
    12f6:	66 90                	xchg   %ax,%ax
    12f8:	31 c0                	xor    %eax,%eax
    12fa:	5d                   	pop    %ebp
    12fb:	83 78 14 01          	cmpl   $0x1,0x14(%eax)
    12ff:	0f 94 c0             	sete   %al
    1302:	c3                   	ret    
    1303:	8d b6 00 00 00 00    	lea    0x0(%esi),%esi
    1309:	8d bc 27 00 00 00 00 	lea    0x0(%edi,%eiz,1),%edi

00001310 <tmpfs_service_get>:
    1310:	55                   	push   %ebp
    1311:	31 c0                	xor    %eax,%eax
    1313:	89 e5                	mov    %esp,%ebp
    1315:	5d                   	pop    %ebp
    1316:	c3                   	ret    
    1317:	89 f6                	mov    %esi,%esi
    1319:	8d bc 27 00 00 00 00 	lea    0x0(%edi,%eiz,1),%edi

00001320 <nodes_key_hash>:
    1320:	55                   	push   %ebp
    1321:	89 e5                	mov    %esp,%ebp
    1323:	8b 45 08             	mov    0x8(%ebp),%eax
    1326:	5d                   	pop    %ebp
    1327:	8b 10                	mov    (%eax),%edx
    1329:	8b 48 04             	mov    0x4(%eax),%ecx
    132c:	89 d0                	mov    %edx,%eax
    132e:	c1 c8 1b             	ror    $0x1b,%eax
    1331:	8d 84 01 b9 79 37 9e 	lea    -0x61c88647(%ecx,%eax,1),%eax
    1338:	31 d0                	xor    %edx,%eax
    133a:	c3                   	ret    
    133b:	90                   	nop
    133c:	8d 74 26 00          	lea    0x0(%esi,%eiz,1),%esi

00001340 <nodes_hash>:
    1340:	55                   	push   %ebp
    1341:	89 e5                	mov    %esp,%ebp
    1343:	8b 45 08             	mov    0x8(%ebp),%eax
    1346:	5d                   	pop    %ebp
    1347:	8b 50 fc             	mov    -0x4(%eax),%edx
    134a:	8b 48 f8             	mov    -0x8(%eax),%ecx
    134d:	89 d0                	mov    %edx,%eax
    134f:	c1 c8 1b             	ror    $0x1b,%eax
    1352:	8d 84 01 b9 79 37 9e 	lea    -0x61c88647(%ecx,%eax,1),%eax
    1359:	31 d0                	xor    %edx,%eax
    135b:	c3                   	ret    
    135c:	8d 74 26 00          	lea    0x0(%esi,%eiz,1),%esi

00001360 <nodes_key_equal>:
    1360:	55                   	push   %ebp
    1361:	31 c0                	xor    %eax,%eax
    1363:	89 e5                	mov    %esp,%ebp
    1365:	53                   	push   %ebx
    1366:	8b 55 0c             	mov    0xc(%ebp),%edx
    1369:	8b 4d 08             	mov    0x8(%ebp),%ecx
    136c:	8b 5a fc             	mov    -0x4(%edx),%ebx
    136f:	83 ea 0c             	sub    $0xc,%edx
    1372:	39 19                	cmp    %ebx,(%ecx)
    1374:	74 0a                	je     1380 <nodes_key_equal+0x20>
    1376:	5b                   	pop    %ebx
    1377:	5d                   	pop    %ebp
    1378:	c3                   	ret    
    1379:	8d b4 26 00 00 00 00 	lea    0x0(%esi,%eiz,1),%esi
    1380:	8b 42 04             	mov    0x4(%edx),%eax
    1383:	5b                   	pop    %ebx
    1384:	39 41 04             	cmp    %eax,0x4(%ecx)
    1387:	5d                   	pop    %ebp
    1388:	0f 94 c0             	sete   %al
    138b:	c3                   	ret    
    138c:	8d 74 26 00          	lea    0x0(%esi,%eiz,1),%esi

00001390 <tmpfs_node_open>:
    1390:	55                   	push   %ebp
    1391:	31 c0                	xor    %eax,%eax
    1393:	89 e5                	mov    %esp,%ebp
    1395:	5d                   	pop    %ebp
    1396:	c3                   	ret    
    1397:	89 f6                	mov    %esi,%esi
    1399:	8d bc 27 00 00 00 00 	lea    0x0(%edi,%eiz,1),%edi

000013a0 <tmpfs_node_put>:
    13a0:	55                   	push   %ebp
    13a1:	31 c0                	xor    %eax,%eax
    13a3:	89 e5                	mov    %esp,%ebp
    13a5:	5d                   	pop    %ebp
    13a6:	c3                   	ret    
    13a7:	89 f6                	mov    %esi,%esi
    13a9:	8d bc 27 00 00 00 00 	lea    0x0(%edi,%eiz,1),%edi

000013b0 <tmpfs_close>:
    13b0:	55                   	push   %ebp
    13b1:	31 c0                	xor    %eax,%eax
    13b3:	89 e5                	mov    %esp,%ebp
    13b5:	5d                   	pop    %ebp
    13b6:	c3                   	ret    
    13b7:	89 f6                	mov    %esi,%esi
    13b9:	8d bc 27 00 00 00 00 	lea    0x0(%edi,%eiz,1),%edi

000013c0 <tmpfs_sync>:
    13c0:	55                   	push   %ebp
    13c1:	31 c0                	xor    %eax,%eax
    13c3:	89 e5                	mov    %esp,%ebp
    13c5:	5d                   	pop    %ebp
    13c6:	c3                   	ret    
    13c7:	89 f6                	mov    %esi,%esi
    13c9:	8d bc 27 00 00 00 00 	lea    0x0(%edi,%eiz,1),%edi

000013d0 <tmpfs_node_get>:
    13d0:	55                   	push   %ebp
    13d1:	89 e5                	mov    %esp,%ebp
    13d3:	83 ec 28             	sub    $0x28,%esp
    13d6:	8b 45 0c             	mov    0xc(%ebp),%eax
    13d9:	c7 04 24 c0 4a 02 00 	movl   $0x24ac0,(%esp)
    13e0:	89 45 f0             	mov    %eax,-0x10(%ebp)
    13e3:	8b 45 10             	mov    0x10(%ebp),%eax
    13e6:	89 45 f4             	mov    %eax,-0xc(%ebp)
    13e9:	8d 45 f0             	lea    -0x10(%ebp),%eax
    13ec:	89 44 24 04          	mov    %eax,0x4(%esp)
    13f0:	e8 cb 9c 01 00       	call   1b0c0 <hash_table_find>
    13f5:	85 c0                	test   %eax,%eax
    13f7:	74 17                	je     1410 <tmpfs_node_get+0x40>
    13f9:	83 f8 0c             	cmp    $0xc,%eax
    13fc:	74 22                	je     1420 <tmpfs_node_get+0x50>
    13fe:	8b 40 f4             	mov    -0xc(%eax),%eax
    1401:	8b 55 08             	mov    0x8(%ebp),%edx
    1404:	89 02                	mov    %eax,(%edx)
    1406:	31 c0                	xor    %eax,%eax
    1408:	c9                   	leave  
    1409:	c3                   	ret    
    140a:	8d b6 00 00 00 00    	lea    0x0(%esi),%esi
    1410:	8b 55 08             	mov    0x8(%ebp),%edx
    1413:	31 c0                	xor    %eax,%eax
    1415:	c7 02 00 00 00 00    	movl   $0x0,(%edx)
    141b:	c9                   	leave  
    141c:	c3                   	ret    
    141d:	8d 76 00             	lea    0x0(%esi),%esi
    1420:	31 c0                	xor    %eax,%eax
    1422:	eb dd                	jmp    1401 <tmpfs_node_get+0x31>
    1424:	8d b6 00 00 00 00    	lea    0x0(%esi),%esi
    142a:	8d bf 00 00 00 00    	lea    0x0(%edi),%edi

00001430 <tmpfs_truncate>:
    1430:	55                   	push   %ebp
    1431:	89 e5                	mov    %esp,%ebp
    1433:	57                   	push   %edi
    1434:	56                   	push   %esi
    1435:	53                   	push   %ebx
    1436:	83 ec 2c             	sub    $0x2c,%esp
    1439:	8b 45 08             	mov    0x8(%ebp),%eax
    143c:	8b 75 10             	mov    0x10(%ebp),%esi
    143f:	89 45 e0             	mov    %eax,-0x20(%ebp)
    1442:	8b 45 0c             	mov    0xc(%ebp),%eax
    1445:	89 45 e4             	mov    %eax,-0x1c(%ebp)
    1448:	8d 45 e0             	lea    -0x20(%ebp),%eax
    144b:	89 44 24 04          	mov    %eax,0x4(%esp)
    144f:	c7 04 24 c0 4a 02 00 	movl   $0x24ac0,(%esp)
    1456:	8b 7d 14             	mov    0x14(%ebp),%edi
    1459:	e8 62 9c 01 00       	call   1b0c0 <hash_table_find>
    145e:	85 c0                	test   %eax,%eax
    1460:	74 75                	je     14d7 <tmpfs_truncate+0xa7>
    1462:	8d 58 f4             	lea    -0xc(%eax),%ebx
    1465:	8b 43 1c             	mov    0x1c(%ebx),%eax
    1468:	31 f0                	xor    %esi,%eax
    146a:	09 f8                	or     %edi,%eax
    146c:	74 52                	je     14c0 <tmpfs_truncate+0x90>
    146e:	83 ff 00             	cmp    $0x0,%edi
    1471:	77 5d                	ja     14d0 <tmpfs_truncate+0xa0>
    1473:	89 74 24 04          	mov    %esi,0x4(%esp)
    1477:	8b 43 20             	mov    0x20(%ebx),%eax
    147a:	89 04 24             	mov    %eax,(%esp)
    147d:	e8 ee 3c 01 00       	call   15170 <realloc>
    1482:	89 c7                	mov    %eax,%edi
    1484:	85 c0                	test   %eax,%eax
    1486:	74 48                	je     14d0 <tmpfs_truncate+0xa0>
    1488:	8b 43 1c             	mov    0x1c(%ebx),%eax
    148b:	39 c6                	cmp    %eax,%esi
    148d:	77 11                	ja     14a0 <tmpfs_truncate+0x70>
    148f:	89 73 1c             	mov    %esi,0x1c(%ebx)
    1492:	89 7b 20             	mov    %edi,0x20(%ebx)
    1495:	31 c0                	xor    %eax,%eax
    1497:	83 c4 2c             	add    $0x2c,%esp
    149a:	5b                   	pop    %ebx
    149b:	5e                   	pop    %esi
    149c:	5f                   	pop    %edi
    149d:	5d                   	pop    %ebp
    149e:	c3                   	ret    
    149f:	90                   	nop
    14a0:	89 f2                	mov    %esi,%edx
    14a2:	c7 44 24 04 00 00 00 	movl   $0x0,0x4(%esp)
    14a9:	00 
    14aa:	29 c2                	sub    %eax,%edx
    14ac:	01 f8                	add    %edi,%eax
    14ae:	89 54 24 08          	mov    %edx,0x8(%esp)
    14b2:	89 04 24             	mov    %eax,(%esp)
    14b5:	e8 96 6b 00 00       	call   8050 <memset>
    14ba:	eb d3                	jmp    148f <tmpfs_truncate+0x5f>
    14bc:	8d 74 26 00          	lea    0x0(%esi,%eiz,1),%esi
    14c0:	83 c4 2c             	add    $0x2c,%esp
    14c3:	31 c0                	xor    %eax,%eax
    14c5:	5b                   	pop    %ebx
    14c6:	5e                   	pop    %esi
    14c7:	5f                   	pop    %edi
    14c8:	5d                   	pop    %ebp
    14c9:	c3                   	ret    
    14ca:	8d b6 00 00 00 00    	lea    0x0(%esi),%esi
    14d0:	b8 fe ff ff ff       	mov    $0xfffffffe,%eax
    14d5:	eb c0                	jmp    1497 <tmpfs_truncate+0x67>
    14d7:	83 c8 ff             	or     $0xffffffff,%eax
    14da:	eb bb                	jmp    1497 <tmpfs_truncate+0x67>
    14dc:	8d 74 26 00          	lea    0x0(%esi,%eiz,1),%esi

000014e0 <tmpfs_write>:
    14e0:	55                   	push   %ebp
    14e1:	89 e5                	mov    %esp,%ebp
    14e3:	57                   	push   %edi
    14e4:	56                   	push   %esi
    14e5:	53                   	push   %ebx
    14e6:	83 ec 3c             	sub    $0x3c,%esp
    14e9:	8b 45 10             	mov    0x10(%ebp),%eax
    14ec:	8b 55 14             	mov    0x14(%ebp),%edx
    14ef:	89 45 d0             	mov    %eax,-0x30(%ebp)
    14f2:	8b 45 08             	mov    0x8(%ebp),%eax
    14f5:	89 45 e0             	mov    %eax,-0x20(%ebp)
    14f8:	8b 45 0c             	mov    0xc(%ebp),%eax
    14fb:	89 45 e4             	mov    %eax,-0x1c(%ebp)
    14fe:	8d 45 e0             	lea    -0x20(%ebp),%eax
    1501:	89 44 24 04          	mov    %eax,0x4(%esp)
    1505:	c7 04 24 c0 4a 02 00 	movl   $0x24ac0,(%esp)
    150c:	89 55 d4             	mov    %edx,-0x2c(%ebp)
    150f:	e8 ac 9b 01 00       	call   1b0c0 <hash_table_find>
    1514:	85 c0                	test   %eax,%eax
    1516:	0f 84 fc 00 00 00    	je     1618 <tmpfs_write+0x138>
    151c:	8d 70 f4             	lea    -0xc(%eax),%esi
    151f:	8d 45 dc             	lea    -0x24(%ebp),%eax
    1522:	89 44 24 04          	mov    %eax,0x4(%esp)
    1526:	8d 45 d8             	lea    -0x28(%ebp),%eax
    1529:	89 04 24             	mov    %eax,(%esp)
    152c:	e8 af 7e 01 00       	call   193e0 <async_data_write_receive>
    1531:	84 c0                	test   %al,%al
    1533:	0f 84 e7 00 00 00    	je     1620 <tmpfs_write+0x140>
    1539:	8b 45 dc             	mov    -0x24(%ebp),%eax
    153c:	31 db                	xor    %ebx,%ebx
    153e:	89 c1                	mov    %eax,%ecx
    1540:	8b 56 1c             	mov    0x1c(%esi),%edx
    1543:	03 4d d0             	add    -0x30(%ebp),%ecx
    1546:	13 5d d4             	adc    -0x2c(%ebp),%ebx
    1549:	83 fb 00             	cmp    $0x0,%ebx
    154c:	77 42                	ja     1590 <tmpfs_write+0xb0>
    154e:	39 d1                	cmp    %edx,%ecx
    1550:	77 3e                	ja     1590 <tmpfs_write+0xb0>
    1552:	89 44 24 08          	mov    %eax,0x8(%esp)
    1556:	8b 45 d0             	mov    -0x30(%ebp),%eax
    1559:	8b 5e 20             	mov    0x20(%esi),%ebx
    155c:	01 d8                	add    %ebx,%eax
    155e:	89 44 24 04          	mov    %eax,0x4(%esp)
    1562:	8b 45 d8             	mov    -0x28(%ebp),%eax
    1565:	89 04 24             	mov    %eax,(%esp)
    1568:	e8 c3 7e 01 00       	call   19430 <async_data_write_finalize>
    156d:	8b 55 dc             	mov    -0x24(%ebp),%edx
    1570:	8b 45 18             	mov    0x18(%ebp),%eax
    1573:	89 10                	mov    %edx,(%eax)
    1575:	8b 45 1c             	mov    0x1c(%ebp),%eax
    1578:	8b 56 1c             	mov    0x1c(%esi),%edx
    157b:	89 10                	mov    %edx,(%eax)
    157d:	c7 40 04 00 00 00 00 	movl   $0x0,0x4(%eax)
    1584:	31 c0                	xor    %eax,%eax
    1586:	83 c4 3c             	add    $0x3c,%esp
    1589:	5b                   	pop    %ebx
    158a:	5e                   	pop    %esi
    158b:	5f                   	pop    %edi
    158c:	5d                   	pop    %ebp
    158d:	c3                   	ret    
    158e:	66 90                	xchg   %ax,%ax
    1590:	8b 4d d0             	mov    -0x30(%ebp),%ecx
    1593:	01 c8                	add    %ecx,%eax
    1595:	89 44 24 04          	mov    %eax,0x4(%esp)
    1599:	89 c3                	mov    %eax,%ebx
    159b:	8b 46 20             	mov    0x20(%esi),%eax
    159e:	29 d3                	sub    %edx,%ebx
    15a0:	89 04 24             	mov    %eax,(%esp)
    15a3:	e8 c8 3b 01 00       	call   15170 <realloc>
    15a8:	89 c7                	mov    %eax,%edi
    15aa:	85 c0                	test   %eax,%eax
    15ac:	74 4a                	je     15f8 <tmpfs_write+0x118>
    15ae:	89 5c 24 08          	mov    %ebx,0x8(%esp)
    15b2:	c7 44 24 04 00 00 00 	movl   $0x0,0x4(%esp)
    15b9:	00 
    15ba:	8b 46 1c             	mov    0x1c(%esi),%eax
    15bd:	01 f8                	add    %edi,%eax
    15bf:	89 04 24             	mov    %eax,(%esp)
    15c2:	e8 89 6a 00 00       	call   8050 <memset>
    15c7:	8b 46 1c             	mov    0x1c(%esi),%eax
    15ca:	01 d8                	add    %ebx,%eax
    15cc:	8b 55 d0             	mov    -0x30(%ebp),%edx
    15cf:	89 46 1c             	mov    %eax,0x1c(%esi)
    15d2:	8b 45 dc             	mov    -0x24(%ebp),%eax
    15d5:	89 7e 20             	mov    %edi,0x20(%esi)
    15d8:	01 d7                	add    %edx,%edi
    15da:	89 44 24 08          	mov    %eax,0x8(%esp)
    15de:	8b 45 d8             	mov    -0x28(%ebp),%eax
    15e1:	89 7c 24 04          	mov    %edi,0x4(%esp)
    15e5:	89 04 24             	mov    %eax,(%esp)
    15e8:	e8 43 7e 01 00       	call   19430 <async_data_write_finalize>
    15ed:	8b 55 dc             	mov    -0x24(%ebp),%edx
    15f0:	e9 7b ff ff ff       	jmp    1570 <tmpfs_write+0x90>
    15f5:	8d 76 00             	lea    0x0(%esi),%esi
    15f8:	8b 45 d8             	mov    -0x28(%ebp),%eax
    15fb:	c7 44 24 04 fe ff ff 	movl   $0xfffffffe,0x4(%esp)
    1602:	ff 
    1603:	89 04 24             	mov    %eax,(%esp)
    1606:	e8 45 63 01 00       	call   17950 <async_answer_0>
    160b:	31 d2                	xor    %edx,%edx
    160d:	e9 5e ff ff ff       	jmp    1570 <tmpfs_write+0x90>
    1612:	8d b6 00 00 00 00    	lea    0x0(%esi),%esi
    1618:	83 c8 ff             	or     $0xffffffff,%eax
    161b:	e9 66 ff ff ff       	jmp    1586 <tmpfs_write+0xa6>
    1620:	8b 45 d8             	mov    -0x28(%ebp),%eax
    1623:	c7 44 24 04 f2 ff ff 	movl   $0xfffffff2,0x4(%esp)
    162a:	ff 
    162b:	89 04 24             	mov    %eax,(%esp)
    162e:	e8 1d 63 01 00       	call   17950 <async_answer_0>
    1633:	b8 f2 ff ff ff       	mov    $0xfffffff2,%eax
    1638:	e9 49 ff ff ff       	jmp    1586 <tmpfs_write+0xa6>
    163d:	8d 76 00             	lea    0x0(%esi),%esi

00001640 <tmpfs_read>:
    1640:	55                   	push   %ebp
    1641:	89 e5                	mov    %esp,%ebp
    1643:	57                   	push   %edi
    1644:	56                   	push   %esi
    1645:	53                   	push   %ebx
    1646:	83 ec 4c             	sub    $0x4c,%esp
    1649:	8b 45 08             	mov    0x8(%ebp),%eax
    164c:	8b 75 10             	mov    0x10(%ebp),%esi
    164f:	89 45 e0             	mov    %eax,-0x20(%ebp)
    1652:	8b 45 0c             	mov    0xc(%ebp),%eax
    1655:	89 45 e4             	mov    %eax,-0x1c(%ebp)
    1658:	8d 45 e0             	lea    -0x20(%ebp),%eax
    165b:	89 44 24 04          	mov    %eax,0x4(%esp)
    165f:	c7 04 24 c0 4a 02 00 	movl   $0x24ac0,(%esp)
    1666:	8b 7d 14             	mov    0x14(%ebp),%edi
    1669:	e8 52 9a 01 00       	call   1b0c0 <hash_table_find>
    166e:	89 c2                	mov    %eax,%edx
    1670:	85 c0                	test   %eax,%eax
    1672:	0f 84 05 01 00 00    	je     177d <tmpfs_read+0x13d>
    1678:	8d 58 f4             	lea    -0xc(%eax),%ebx
    167b:	8d 45 dc             	lea    -0x24(%ebp),%eax
    167e:	89 44 24 04          	mov    %eax,0x4(%esp)
    1682:	8d 45 d8             	lea    -0x28(%ebp),%eax
    1685:	89 04 24             	mov    %eax,(%esp)
    1688:	89 55 cc             	mov    %edx,-0x34(%ebp)
    168b:	e8 30 78 01 00       	call   18ec0 <async_data_read_receive>
    1690:	8b 55 cc             	mov    -0x34(%ebp),%edx
    1693:	84 c0                	test   %al,%al
    1695:	0f 84 e7 00 00 00    	je     1782 <tmpfs_read+0x142>
    169b:	8b 43 14             	mov    0x14(%ebx),%eax
    169e:	83 f8 01             	cmp    $0x1,%eax
    16a1:	0f 84 89 00 00 00    	je     1730 <tmpfs_read+0xf0>
    16a7:	83 f8 02             	cmp    $0x2,%eax
    16aa:	0f 85 ec 00 00 00    	jne    179c <tmpfs_read+0x15c>
    16b0:	8b 5b 28             	mov    0x28(%ebx),%ebx
    16b3:	8d 42 18             	lea    0x18(%edx),%eax
    16b6:	39 c3                	cmp    %eax,%ebx
    16b8:	74 1a                	je     16d4 <tmpfs_read+0x94>
    16ba:	85 f6                	test   %esi,%esi
    16bc:	74 32                	je     16f0 <tmpfs_read+0xb0>
    16be:	31 d2                	xor    %edx,%edx
    16c0:	eb 0a                	jmp    16cc <tmpfs_read+0x8c>
    16c2:	8d b6 00 00 00 00    	lea    0x0(%esi),%esi
    16c8:	39 d6                	cmp    %edx,%esi
    16ca:	74 24                	je     16f0 <tmpfs_read+0xb0>
    16cc:	8b 5b 04             	mov    0x4(%ebx),%ebx
    16cf:	42                   	inc    %edx
    16d0:	39 c3                	cmp    %eax,%ebx
    16d2:	75 f4                	jne    16c8 <tmpfs_read+0x88>
    16d4:	8b 45 d8             	mov    -0x28(%ebp),%eax
    16d7:	c7 44 24 04 ff ff ff 	movl   $0xffffffff,0x4(%esp)
    16de:	ff 
    16df:	89 04 24             	mov    %eax,(%esp)
    16e2:	e8 69 62 01 00       	call   17950 <async_answer_0>
    16e7:	83 c8 ff             	or     $0xffffffff,%eax
    16ea:	eb 36                	jmp    1722 <tmpfs_read+0xe2>
    16ec:	8d 74 26 00          	lea    0x0(%esi,%eiz,1),%esi
    16f0:	85 db                	test   %ebx,%ebx
    16f2:	74 e0                	je     16d4 <tmpfs_read+0x94>
    16f4:	8b 43 0c             	mov    0xc(%ebx),%eax
    16f7:	bf 01 00 00 00       	mov    $0x1,%edi
    16fc:	89 04 24             	mov    %eax,(%esp)
    16ff:	e8 dc 78 00 00       	call   8fe0 <str_size>
    1704:	40                   	inc    %eax
    1705:	89 44 24 08          	mov    %eax,0x8(%esp)
    1709:	8b 43 0c             	mov    0xc(%ebx),%eax
    170c:	89 44 24 04          	mov    %eax,0x4(%esp)
    1710:	8b 45 d8             	mov    -0x28(%ebp),%eax
    1713:	89 04 24             	mov    %eax,(%esp)
    1716:	e8 05 78 01 00       	call   18f20 <async_data_read_finalize>
    171b:	8b 45 18             	mov    0x18(%ebp),%eax
    171e:	89 38                	mov    %edi,(%eax)
    1720:	31 c0                	xor    %eax,%eax
    1722:	83 c4 4c             	add    $0x4c,%esp
    1725:	5b                   	pop    %ebx
    1726:	5e                   	pop    %esi
    1727:	5f                   	pop    %edi
    1728:	5d                   	pop    %ebp
    1729:	c3                   	ret    
    172a:	8d b6 00 00 00 00    	lea    0x0(%esi),%esi
    1730:	8b 43 1c             	mov    0x1c(%ebx),%eax
    1733:	31 d2                	xor    %edx,%edx
    1735:	89 45 c0             	mov    %eax,-0x40(%ebp)
    1738:	89 55 c4             	mov    %edx,-0x3c(%ebp)
    173b:	29 75 c0             	sub    %esi,-0x40(%ebp)
    173e:	8b 45 dc             	mov    -0x24(%ebp),%eax
    1741:	19 7d c4             	sbb    %edi,-0x3c(%ebp)
    1744:	31 d2                	xor    %edx,%edx
    1746:	89 55 d4             	mov    %edx,-0x2c(%ebp)
    1749:	8b 55 c4             	mov    -0x3c(%ebp),%edx
    174c:	89 45 d0             	mov    %eax,-0x30(%ebp)
    174f:	83 fa 00             	cmp    $0x0,%edx
    1752:	8b 45 c0             	mov    -0x40(%ebp),%eax
    1755:	77 21                	ja     1778 <tmpfs_read+0x138>
    1757:	3b 45 d0             	cmp    -0x30(%ebp),%eax
    175a:	77 1c                	ja     1778 <tmpfs_read+0x138>
    175c:	89 44 24 08          	mov    %eax,0x8(%esp)
    1760:	89 c7                	mov    %eax,%edi
    1762:	8b 43 20             	mov    0x20(%ebx),%eax
    1765:	01 c6                	add    %eax,%esi
    1767:	8b 45 d8             	mov    -0x28(%ebp),%eax
    176a:	89 74 24 04          	mov    %esi,0x4(%esp)
    176e:	89 04 24             	mov    %eax,(%esp)
    1771:	e8 aa 77 01 00       	call   18f20 <async_data_read_finalize>
    1776:	eb a3                	jmp    171b <tmpfs_read+0xdb>
    1778:	8b 45 d0             	mov    -0x30(%ebp),%eax
    177b:	eb df                	jmp    175c <tmpfs_read+0x11c>
    177d:	83 c8 ff             	or     $0xffffffff,%eax
    1780:	eb a0                	jmp    1722 <tmpfs_read+0xe2>
    1782:	8b 45 d8             	mov    -0x28(%ebp),%eax
    1785:	c7 44 24 04 f2 ff ff 	movl   $0xfffffff2,0x4(%esp)
    178c:	ff 
    178d:	89 04 24             	mov    %eax,(%esp)
    1790:	e8 bb 61 01 00       	call   17950 <async_answer_0>
    1795:	b8 f2 ff ff ff       	mov    $0xfffffff2,%eax
    179a:	eb 86                	jmp    1722 <tmpfs_read+0xe2>
    179c:	c7 44 24 08 f8 01 00 	movl   $0x1f8,0x8(%esp)
    17a3:	00 
    17a4:	c7 44 24 04 8b 1c 02 	movl   $0x21c8b,0x4(%esp)
    17ab:	00 
    17ac:	c7 04 24 fc 1c 02 00 	movl   $0x21cfc,(%esp)
    17b3:	e8 38 de 01 00       	call   1f5f0 <assert_abort>
    17b8:	90                   	nop
    17b9:	8d b4 26 00 00 00 00 	lea    0x0(%esi,%eiz,1),%esi

000017c0 <tmpfs_unmounted>:
    17c0:	55                   	push   %ebp
    17c1:	89 e5                	mov    %esp,%ebp
    17c3:	83 ec 28             	sub    $0x28,%esp
    17c6:	8b 45 08             	mov    0x8(%ebp),%eax
    17c9:	c7 44 24 04 f0 17 00 	movl   $0x17f0,0x4(%esp)
    17d0:	00 
    17d1:	89 45 f4             	mov    %eax,-0xc(%ebp)
    17d4:	8d 45 f4             	lea    -0xc(%ebp),%eax
    17d7:	89 44 24 08          	mov    %eax,0x8(%esp)
    17db:	c7 04 24 c0 4a 02 00 	movl   $0x24ac0,(%esp)
    17e2:	e8 39 9c 01 00       	call   1b420 <hash_table_apply>
    17e7:	31 c0                	xor    %eax,%eax
    17e9:	c9                   	leave  
    17ea:	c3                   	ret    
    17eb:	90                   	nop
    17ec:	8d 74 26 00          	lea    0x0(%esi,%eiz,1),%esi

000017f0 <rm_service_id_nodes>:
    17f0:	55                   	push   %ebp
    17f1:	89 e5                	mov    %esp,%ebp
    17f3:	83 ec 18             	sub    $0x18,%esp
    17f6:	8b 55 0c             	mov    0xc(%ebp),%edx
    17f9:	8b 45 08             	mov    0x8(%ebp),%eax
    17fc:	8b 0a                	mov    (%edx),%ecx
    17fe:	39 48 fc             	cmp    %ecx,-0x4(%eax)
    1801:	74 05                	je     1808 <rm_service_id_nodes+0x18>
    1803:	b0 01                	mov    $0x1,%al
    1805:	c9                   	leave  
    1806:	c3                   	ret    
    1807:	90                   	nop
    1808:	89 44 24 04          	mov    %eax,0x4(%esp)
    180c:	c7 04 24 c0 4a 02 00 	movl   $0x24ac0,(%esp)
    1813:	e8 28 9b 01 00       	call   1b340 <hash_table_remove_item>
    1818:	b0 01                	mov    $0x1,%al
    181a:	c9                   	leave  
    181b:	c3                   	ret    
    181c:	8d 74 26 00          	lea    0x0(%esi,%eiz,1),%esi

00001820 <tmpfs_match>:
    1820:	55                   	push   %ebp
    1821:	89 e5                	mov    %esp,%ebp
    1823:	57                   	push   %edi
    1824:	56                   	push   %esi
    1825:	53                   	push   %ebx
    1826:	83 ec 1c             	sub    $0x1c,%esp
    1829:	8b 45 0c             	mov    0xc(%ebp),%eax
    182c:	8b 75 10             	mov    0x10(%ebp),%esi
    182f:	85 c0                	test   %eax,%eax
    1831:	74 65                	je     1898 <tmpfs_match+0x78>
    1833:	8b 58 10             	mov    0x10(%eax),%ebx
    1836:	8b 7b 28             	mov    0x28(%ebx),%edi
    1839:	83 c3 24             	add    $0x24,%ebx
    183c:	39 df                	cmp    %ebx,%edi
    183e:	75 0f                	jne    184f <tmpfs_match+0x2f>
    1840:	eb 3e                	jmp    1880 <tmpfs_match+0x60>
    1842:	8d b6 00 00 00 00    	lea    0x0(%esi),%esi
    1848:	8b 7f 04             	mov    0x4(%edi),%edi
    184b:	39 df                	cmp    %ebx,%edi
    184d:	74 31                	je     1880 <tmpfs_match+0x60>
    184f:	89 74 24 04          	mov    %esi,0x4(%esp)
    1853:	8b 47 0c             	mov    0xc(%edi),%eax
    1856:	89 04 24             	mov    %eax,(%esp)
    1859:	e8 b2 7c 00 00       	call   9510 <str_cmp>
    185e:	85 c0                	test   %eax,%eax
    1860:	75 e6                	jne    1848 <tmpfs_match+0x28>
    1862:	8b 47 08             	mov    0x8(%edi),%eax
    1865:	85 c0                	test   %eax,%eax
    1867:	74 33                	je     189c <tmpfs_match+0x7c>
    1869:	8b 00                	mov    (%eax),%eax
    186b:	8b 55 08             	mov    0x8(%ebp),%edx
    186e:	89 02                	mov    %eax,(%edx)
    1870:	83 c4 1c             	add    $0x1c,%esp
    1873:	31 c0                	xor    %eax,%eax
    1875:	5b                   	pop    %ebx
    1876:	5e                   	pop    %esi
    1877:	5f                   	pop    %edi
    1878:	5d                   	pop    %ebp
    1879:	c3                   	ret    
    187a:	8d b6 00 00 00 00    	lea    0x0(%esi),%esi
    1880:	8b 55 08             	mov    0x8(%ebp),%edx
    1883:	31 c0                	xor    %eax,%eax
    1885:	c7 02 00 00 00 00    	movl   $0x0,(%edx)
    188b:	83 c4 1c             	add    $0x1c,%esp
    188e:	5b                   	pop    %ebx
    188f:	5e                   	pop    %esi
    1890:	5f                   	pop    %edi
    1891:	5d                   	pop    %ebp
    1892:	c3                   	ret    
    1893:	90                   	nop
    1894:	8d 74 26 00          	lea    0x0(%esi,%eiz,1),%esi
    1898:	31 db                	xor    %ebx,%ebx
    189a:	eb 9a                	jmp    1836 <tmpfs_match+0x16>
    189c:	31 c0                	xor    %eax,%eax
    189e:	eb cb                	jmp    186b <tmpfs_match+0x4b>

000018a0 <nodes_remove_callback>:
    18a0:	55                   	push   %ebp
    18a1:	89 e5                	mov    %esp,%ebp
    18a3:	57                   	push   %edi
    18a4:	56                   	push   %esi
    18a5:	53                   	push   %ebx
    18a6:	83 ec 1c             	sub    $0x1c,%esp
    18a9:	8b 75 08             	mov    0x8(%ebp),%esi
    18ac:	8d 7e f4             	lea    -0xc(%esi),%edi
    18af:	8d 5e 18             	lea    0x18(%esi),%ebx
    18b2:	8b 47 28             	mov    0x28(%edi),%eax
    18b5:	39 d8                	cmp    %ebx,%eax
    18b7:	74 3d                	je     18f6 <nodes_remove_callback+0x56>
    18b9:	8d b4 26 00 00 00 00 	lea    0x0(%esi,%eiz,1),%esi
    18c0:	83 7f 14 02          	cmpl   $0x2,0x14(%edi)
    18c4:	75 5f                	jne    1925 <nodes_remove_callback+0x85>
    18c6:	8b 08                	mov    (%eax),%ecx
    18c8:	85 c9                	test   %ecx,%ecx
    18ca:	74 0e                	je     18da <nodes_remove_callback+0x3a>
    18cc:	8b 50 04             	mov    0x4(%eax),%edx
    18cf:	85 d2                	test   %edx,%edx
    18d1:	74 07                	je     18da <nodes_remove_callback+0x3a>
    18d3:	89 0a                	mov    %ecx,(%edx)
    18d5:	8b 08                	mov    (%eax),%ecx
    18d7:	89 51 04             	mov    %edx,0x4(%ecx)
    18da:	c7 00 00 00 00 00    	movl   $0x0,(%eax)
    18e0:	c7 40 04 00 00 00 00 	movl   $0x0,0x4(%eax)
    18e7:	89 04 24             	mov    %eax,(%esp)
    18ea:	e8 31 36 01 00       	call   14f20 <free>
    18ef:	8b 47 28             	mov    0x28(%edi),%eax
    18f2:	39 d8                	cmp    %ebx,%eax
    18f4:	75 ca                	jne    18c0 <nodes_remove_callback+0x20>
    18f6:	8b 47 20             	mov    0x20(%edi),%eax
    18f9:	85 c0                	test   %eax,%eax
    18fb:	74 0e                	je     190b <nodes_remove_callback+0x6b>
    18fd:	83 7f 14 01          	cmpl   $0x1,0x14(%edi)
    1901:	75 3e                	jne    1941 <nodes_remove_callback+0xa1>
    1903:	89 04 24             	mov    %eax,(%esp)
    1906:	e8 15 36 01 00       	call   14f20 <free>
    190b:	8b 46 f4             	mov    -0xc(%esi),%eax
    190e:	89 04 24             	mov    %eax,(%esp)
    1911:	e8 0a 36 01 00       	call   14f20 <free>
    1916:	89 7d 08             	mov    %edi,0x8(%ebp)
    1919:	83 c4 1c             	add    $0x1c,%esp
    191c:	5b                   	pop    %ebx
    191d:	5e                   	pop    %esi
    191e:	5f                   	pop    %edi
    191f:	5d                   	pop    %ebp
    1920:	e9 fb 35 01 00       	jmp    14f20 <free>
    1925:	c7 44 24 08 b4 00 00 	movl   $0xb4,0x8(%esp)
    192c:	00 
    192d:	c7 44 24 04 8b 1c 02 	movl   $0x21c8b,0x4(%esp)
    1934:	00 
    1935:	c7 04 24 fc 1c 02 00 	movl   $0x21cfc,(%esp)
    193c:	e8 af dc 01 00       	call   1f5f0 <assert_abort>
    1941:	c7 44 24 08 ba 00 00 	movl   $0xba,0x8(%esp)
    1948:	00 
    1949:	c7 44 24 04 8b 1c 02 	movl   $0x21c8b,0x4(%esp)
    1950:	00 
    1951:	c7 04 24 97 1c 02 00 	movl   $0x21c97,(%esp)
    1958:	e8 93 dc 01 00       	call   1f5f0 <assert_abort>
    195d:	8d 76 00             	lea    0x0(%esi),%esi

00001960 <tmpfs_unlink_node>:
    1960:	55                   	push   %ebp
    1961:	89 e5                	mov    %esp,%ebp
    1963:	57                   	push   %edi
    1964:	56                   	push   %esi
    1965:	53                   	push   %ebx
    1966:	83 ec 1c             	sub    $0x1c,%esp
    1969:	8b 45 08             	mov    0x8(%ebp),%eax
    196c:	8b 7d 10             	mov    0x10(%ebp),%edi
    196f:	85 c0                	test   %eax,%eax
    1971:	0f 84 a9 00 00 00    	je     1a20 <tmpfs_unlink_node+0xc0>
    1977:	8b 70 10             	mov    0x10(%eax),%esi
    197a:	85 f6                	test   %esi,%esi
    197c:	0f 84 9e 00 00 00    	je     1a20 <tmpfs_unlink_node+0xc0>
    1982:	8b 5e 28             	mov    0x28(%esi),%ebx
    1985:	83 c6 24             	add    $0x24,%esi
    1988:	39 f3                	cmp    %esi,%ebx
    198a:	75 0b                	jne    1997 <tmpfs_unlink_node+0x37>
    198c:	eb 72                	jmp    1a00 <tmpfs_unlink_node+0xa0>
    198e:	66 90                	xchg   %ax,%ax
    1990:	8b 5b 04             	mov    0x4(%ebx),%ebx
    1993:	39 f3                	cmp    %esi,%ebx
    1995:	74 69                	je     1a00 <tmpfs_unlink_node+0xa0>
    1997:	89 7c 24 04          	mov    %edi,0x4(%esp)
    199b:	8b 43 0c             	mov    0xc(%ebx),%eax
    199e:	89 04 24             	mov    %eax,(%esp)
    19a1:	e8 6a 7b 00 00       	call   9510 <str_cmp>
    19a6:	85 c0                	test   %eax,%eax
    19a8:	75 e6                	jne    1990 <tmpfs_unlink_node+0x30>
    19aa:	8b 73 08             	mov    0x8(%ebx),%esi
    19ad:	85 f6                	test   %esi,%esi
    19af:	74 47                	je     19f8 <tmpfs_unlink_node+0x98>
    19b1:	8b 45 0c             	mov    0xc(%ebp),%eax
    19b4:	39 06                	cmp    %eax,(%esi)
    19b6:	75 75                	jne    1a2d <tmpfs_unlink_node+0xcd>
    19b8:	83 7e 18 01          	cmpl   $0x1,0x18(%esi)
    19bc:	74 52                	je     1a10 <tmpfs_unlink_node+0xb0>
    19be:	8b 13                	mov    (%ebx),%edx
    19c0:	85 d2                	test   %edx,%edx
    19c2:	74 0e                	je     19d2 <tmpfs_unlink_node+0x72>
    19c4:	8b 43 04             	mov    0x4(%ebx),%eax
    19c7:	85 c0                	test   %eax,%eax
    19c9:	74 07                	je     19d2 <tmpfs_unlink_node+0x72>
    19cb:	89 10                	mov    %edx,(%eax)
    19cd:	8b 13                	mov    (%ebx),%edx
    19cf:	89 42 04             	mov    %eax,0x4(%edx)
    19d2:	c7 03 00 00 00 00    	movl   $0x0,(%ebx)
    19d8:	c7 43 04 00 00 00 00 	movl   $0x0,0x4(%ebx)
    19df:	89 1c 24             	mov    %ebx,(%esp)
    19e2:	e8 39 35 01 00       	call   14f20 <free>
    19e7:	8b 46 18             	mov    0x18(%esi),%eax
    19ea:	48                   	dec    %eax
    19eb:	89 46 18             	mov    %eax,0x18(%esi)
    19ee:	83 c4 1c             	add    $0x1c,%esp
    19f1:	31 c0                	xor    %eax,%eax
    19f3:	5b                   	pop    %ebx
    19f4:	5e                   	pop    %esi
    19f5:	5f                   	pop    %edi
    19f6:	5d                   	pop    %ebp
    19f7:	c3                   	ret    
    19f8:	8b 45 0c             	mov    0xc(%ebp),%eax
    19fb:	85 c0                	test   %eax,%eax
    19fd:	75 2e                	jne    1a2d <tmpfs_unlink_node+0xcd>
    19ff:	90                   	nop
    1a00:	83 c8 ff             	or     $0xffffffff,%eax
    1a03:	83 c4 1c             	add    $0x1c,%esp
    1a06:	5b                   	pop    %ebx
    1a07:	5e                   	pop    %esi
    1a08:	5f                   	pop    %edi
    1a09:	5d                   	pop    %ebp
    1a0a:	c3                   	ret    
    1a0b:	90                   	nop
    1a0c:	8d 74 26 00          	lea    0x0(%esi,%eiz,1),%esi
    1a10:	8d 46 24             	lea    0x24(%esi),%eax
    1a13:	39 46 28             	cmp    %eax,0x28(%esi)
    1a16:	74 a6                	je     19be <tmpfs_unlink_node+0x5e>
    1a18:	b8 fb fe ff ff       	mov    $0xfffffefb,%eax
    1a1d:	eb e4                	jmp    1a03 <tmpfs_unlink_node+0xa3>
    1a1f:	90                   	nop
    1a20:	83 c4 1c             	add    $0x1c,%esp
    1a23:	b8 f1 ff ff ff       	mov    $0xfffffff1,%eax
    1a28:	5b                   	pop    %ebx
    1a29:	5e                   	pop    %esi
    1a2a:	5f                   	pop    %edi
    1a2b:	5d                   	pop    %ebp
    1a2c:	c3                   	ret    
    1a2d:	c7 44 24 08 97 01 00 	movl   $0x197,0x8(%esp)
    1a34:	00 
    1a35:	c7 44 24 04 8b 1c 02 	movl   $0x21c8b,0x4(%esp)
    1a3c:	00 
    1a3d:	c7 04 24 b1 1c 02 00 	movl   $0x21cb1,(%esp)
    1a44:	e8 a7 db 01 00       	call   1f5f0 <assert_abort>
    1a49:	8d b4 26 00 00 00 00 	lea    0x0(%esi,%eiz,1),%esi

00001a50 <tmpfs_link_node>:
    1a50:	55                   	push   %ebp
    1a51:	89 e5                	mov    %esp,%ebp
    1a53:	57                   	push   %edi
    1a54:	56                   	push   %esi
    1a55:	53                   	push   %ebx
    1a56:	83 ec 2c             	sub    $0x2c,%esp
    1a59:	8b 55 08             	mov    0x8(%ebp),%edx
    1a5c:	8b 45 0c             	mov    0xc(%ebp),%eax
    1a5f:	8b 75 10             	mov    0x10(%ebp),%esi
    1a62:	85 d2                	test   %edx,%edx
    1a64:	0f 84 f6 00 00 00    	je     1b60 <tmpfs_link_node+0x110>
    1a6a:	8b 52 10             	mov    0x10(%edx),%edx
    1a6d:	85 c0                	test   %eax,%eax
    1a6f:	89 55 e4             	mov    %edx,-0x1c(%ebp)
    1a72:	0f 84 f8 00 00 00    	je     1b70 <tmpfs_link_node+0x120>
    1a78:	8b 40 10             	mov    0x10(%eax),%eax
    1a7b:	89 45 e0             	mov    %eax,-0x20(%ebp)
    1a7e:	8b 4d e4             	mov    -0x1c(%ebp),%ecx
    1a81:	83 79 14 02          	cmpl   $0x2,0x14(%ecx)
    1a85:	0f 85 07 01 00 00    	jne    1b92 <tmpfs_link_node+0x142>
    1a8b:	89 cb                	mov    %ecx,%ebx
    1a8d:	8b 79 28             	mov    0x28(%ecx),%edi
    1a90:	83 c3 24             	add    $0x24,%ebx
    1a93:	39 df                	cmp    %ebx,%edi
    1a95:	75 10                	jne    1aa7 <tmpfs_link_node+0x57>
    1a97:	eb 2f                	jmp    1ac8 <tmpfs_link_node+0x78>
    1a99:	8d b4 26 00 00 00 00 	lea    0x0(%esi,%eiz,1),%esi
    1aa0:	8b 7f 04             	mov    0x4(%edi),%edi
    1aa3:	39 df                	cmp    %ebx,%edi
    1aa5:	74 21                	je     1ac8 <tmpfs_link_node+0x78>
    1aa7:	89 74 24 04          	mov    %esi,0x4(%esp)
    1aab:	8b 47 0c             	mov    0xc(%edi),%eax
    1aae:	89 04 24             	mov    %eax,(%esp)
    1ab1:	e8 5a 7a 00 00       	call   9510 <str_cmp>
    1ab6:	85 c0                	test   %eax,%eax
    1ab8:	75 e6                	jne    1aa0 <tmpfs_link_node+0x50>
    1aba:	83 c4 2c             	add    $0x2c,%esp
    1abd:	b8 fc fe ff ff       	mov    $0xfffffefc,%eax
    1ac2:	5b                   	pop    %ebx
    1ac3:	5e                   	pop    %esi
    1ac4:	5f                   	pop    %edi
    1ac5:	5d                   	pop    %ebp
    1ac6:	c3                   	ret    
    1ac7:	90                   	nop
    1ac8:	c7 04 24 10 00 00 00 	movl   $0x10,(%esp)
    1acf:	e8 3c 33 01 00       	call   14e10 <malloc>
    1ad4:	85 c0                	test   %eax,%eax
    1ad6:	0f 84 af 00 00 00    	je     1b8b <tmpfs_link_node+0x13b>
    1adc:	c7 00 00 00 00 00    	movl   $0x0,(%eax)
    1ae2:	c7 40 04 00 00 00 00 	movl   $0x0,0x4(%eax)
    1ae9:	c7 40 0c 00 00 00 00 	movl   $0x0,0xc(%eax)
    1af0:	c7 40 08 00 00 00 00 	movl   $0x0,0x8(%eax)
    1af7:	89 34 24             	mov    %esi,(%esp)
    1afa:	89 45 dc             	mov    %eax,-0x24(%ebp)
    1afd:	e8 de 74 00 00       	call   8fe0 <str_size>
    1b02:	8d 48 01             	lea    0x1(%eax),%ecx
    1b05:	89 0c 24             	mov    %ecx,(%esp)
    1b08:	89 4d d8             	mov    %ecx,-0x28(%ebp)
    1b0b:	e8 00 33 01 00       	call   14e10 <malloc>
    1b10:	8b 55 dc             	mov    -0x24(%ebp),%edx
    1b13:	85 c0                	test   %eax,%eax
    1b15:	8b 4d d8             	mov    -0x28(%ebp),%ecx
    1b18:	89 42 0c             	mov    %eax,0xc(%edx)
    1b1b:	74 5f                	je     1b7c <tmpfs_link_node+0x12c>
    1b1d:	89 4c 24 04          	mov    %ecx,0x4(%esp)
    1b21:	89 04 24             	mov    %eax,(%esp)
    1b24:	89 74 24 08          	mov    %esi,0x8(%esp)
    1b28:	89 55 dc             	mov    %edx,-0x24(%ebp)
    1b2b:	e8 60 80 00 00       	call   9b90 <str_cpy>
    1b30:	8b 4d e0             	mov    -0x20(%ebp),%ecx
    1b33:	8b 55 dc             	mov    -0x24(%ebp),%edx
    1b36:	8b 41 18             	mov    0x18(%ecx),%eax
    1b39:	40                   	inc    %eax
    1b3a:	89 4a 08             	mov    %ecx,0x8(%edx)
    1b3d:	89 41 18             	mov    %eax,0x18(%ecx)
    1b40:	8b 4d e4             	mov    -0x1c(%ebp),%ecx
    1b43:	89 5a 04             	mov    %ebx,0x4(%edx)
    1b46:	8b 41 24             	mov    0x24(%ecx),%eax
    1b49:	89 02                	mov    %eax,(%edx)
    1b4b:	8b 41 24             	mov    0x24(%ecx),%eax
    1b4e:	89 51 24             	mov    %edx,0x24(%ecx)
    1b51:	89 50 04             	mov    %edx,0x4(%eax)
    1b54:	31 c0                	xor    %eax,%eax
    1b56:	83 c4 2c             	add    $0x2c,%esp
    1b59:	5b                   	pop    %ebx
    1b5a:	5e                   	pop    %esi
    1b5b:	5f                   	pop    %edi
    1b5c:	5d                   	pop    %ebp
    1b5d:	c3                   	ret    
    1b5e:	66 90                	xchg   %ax,%ax
    1b60:	c7 45 e4 00 00 00 00 	movl   $0x0,-0x1c(%ebp)
    1b67:	85 c0                	test   %eax,%eax
    1b69:	0f 85 09 ff ff ff    	jne    1a78 <tmpfs_link_node+0x28>
    1b6f:	90                   	nop
    1b70:	c7 45 e0 00 00 00 00 	movl   $0x0,-0x20(%ebp)
    1b77:	e9 02 ff ff ff       	jmp    1a7e <tmpfs_link_node+0x2e>
    1b7c:	89 14 24             	mov    %edx,(%esp)
    1b7f:	e8 9c 33 01 00       	call   14f20 <free>
    1b84:	b8 fe ff ff ff       	mov    $0xfffffffe,%eax
    1b89:	eb cb                	jmp    1b56 <tmpfs_link_node+0x106>
    1b8b:	b8 fe ff ff ff       	mov    $0xfffffffe,%eax
    1b90:	eb c4                	jmp    1b56 <tmpfs_link_node+0x106>
    1b92:	c7 44 24 08 6c 01 00 	movl   $0x16c,0x8(%esp)
    1b99:	00 
    1b9a:	c7 44 24 04 8b 1c 02 	movl   $0x21c8b,0x4(%esp)
    1ba1:	00 
    1ba2:	c7 04 24 1c 1d 02 00 	movl   $0x21d1c,(%esp)
    1ba9:	e8 42 da 01 00       	call   1f5f0 <assert_abort>
    1bae:	66 90                	xchg   %ax,%ax

00001bb0 <tmpfs_root_get>:
    1bb0:	55                   	push   %ebp
    1bb1:	89 e5                	mov    %esp,%ebp
    1bb3:	83 ec 28             	sub    $0x28,%esp
    1bb6:	8b 45 0c             	mov    0xc(%ebp),%eax
    1bb9:	c7 04 24 c0 4a 02 00 	movl   $0x24ac0,(%esp)
    1bc0:	89 45 f0             	mov    %eax,-0x10(%ebp)
    1bc3:	8d 45 f0             	lea    -0x10(%ebp),%eax
    1bc6:	89 44 24 04          	mov    %eax,0x4(%esp)
    1bca:	c7 45 f4 00 00 00 00 	movl   $0x0,-0xc(%ebp)
    1bd1:	e8 ea 94 01 00       	call   1b0c0 <hash_table_find>
    1bd6:	85 c0                	test   %eax,%eax
    1bd8:	74 16                	je     1bf0 <tmpfs_root_get+0x40>
    1bda:	83 f8 0c             	cmp    $0xc,%eax
    1bdd:	74 21                	je     1c00 <tmpfs_root_get+0x50>
    1bdf:	8b 40 f4             	mov    -0xc(%eax),%eax
    1be2:	8b 55 08             	mov    0x8(%ebp),%edx
    1be5:	89 02                	mov    %eax,(%edx)
    1be7:	31 c0                	xor    %eax,%eax
    1be9:	c9                   	leave  
    1bea:	c3                   	ret    
    1beb:	90                   	nop
    1bec:	8d 74 26 00          	lea    0x0(%esi,%eiz,1),%esi
    1bf0:	8b 55 08             	mov    0x8(%ebp),%edx
    1bf3:	31 c0                	xor    %eax,%eax
    1bf5:	c7 02 00 00 00 00    	movl   $0x0,(%edx)
    1bfb:	c9                   	leave  
    1bfc:	c3                   	ret    
    1bfd:	8d 76 00             	lea    0x0(%esi),%esi
    1c00:	31 c0                	xor    %eax,%eax
    1c02:	eb de                	jmp    1be2 <tmpfs_root_get+0x32>
    1c04:	8d b6 00 00 00 00    	lea    0x0(%esi),%esi
    1c0a:	8d bf 00 00 00 00    	lea    0x0(%edi),%edi

00001c10 <tmpfs_create_node>:
    1c10:	55                   	push   %ebp
    1c11:	89 e5                	mov    %esp,%ebp
    1c13:	56                   	push   %esi
    1c14:	53                   	push   %ebx
    1c15:	83 ec 20             	sub    $0x20,%esp
    1c18:	8b 75 0c             	mov    0xc(%ebp),%esi
    1c1b:	f6 45 10 03          	testb  $0x3,0x10(%ebp)
    1c1f:	0f 84 09 01 00 00    	je     1d2e <tmpfs_create_node+0x11e>
    1c25:	c7 04 24 2c 00 00 00 	movl   $0x2c,(%esp)
    1c2c:	e8 df 31 01 00       	call   14e10 <malloc>
    1c31:	89 c3                	mov    %eax,%ebx
    1c33:	85 c0                	test   %eax,%eax
    1c35:	0f 84 dd 00 00 00    	je     1d18 <tmpfs_create_node+0x108>
    1c3b:	c7 00 00 00 00 00    	movl   $0x0,(%eax)
    1c41:	c7 40 04 00 00 00 00 	movl   $0x0,0x4(%eax)
    1c48:	c7 40 08 00 00 00 00 	movl   $0x0,0x8(%eax)
    1c4f:	c7 40 14 00 00 00 00 	movl   $0x0,0x14(%eax)
    1c56:	c7 40 18 00 00 00 00 	movl   $0x0,0x18(%eax)
    1c5d:	c7 40 1c 00 00 00 00 	movl   $0x0,0x1c(%eax)
    1c64:	c7 40 20 00 00 00 00 	movl   $0x0,0x20(%eax)
    1c6b:	8d 40 24             	lea    0x24(%eax),%eax
    1c6e:	c7 04 24 14 00 00 00 	movl   $0x14,(%esp)
    1c75:	89 43 24             	mov    %eax,0x24(%ebx)
    1c78:	89 43 28             	mov    %eax,0x28(%ebx)
    1c7b:	e8 90 31 01 00       	call   14e10 <malloc>
    1c80:	89 03                	mov    %eax,(%ebx)
    1c82:	85 c0                	test   %eax,%eax
    1c84:	0f 84 95 00 00 00    	je     1d1f <tmpfs_create_node+0x10f>
    1c8a:	89 04 24             	mov    %eax,(%esp)
    1c8d:	e8 0e 32 00 00       	call   4ea0 <fs_node_initialize>
    1c92:	8b 03                	mov    (%ebx),%eax
    1c94:	89 58 10             	mov    %ebx,0x10(%eax)
    1c97:	8d 45 f0             	lea    -0x10(%ebp),%eax
    1c9a:	89 44 24 04          	mov    %eax,0x4(%esp)
    1c9e:	c7 04 24 c0 4a 02 00 	movl   $0x24ac0,(%esp)
    1ca5:	89 75 f0             	mov    %esi,-0x10(%ebp)
    1ca8:	c7 45 f4 00 00 00 00 	movl   $0x0,-0xc(%ebp)
    1caf:	e8 0c 94 01 00       	call   1b0c0 <hash_table_find>
    1cb4:	85 c0                	test   %eax,%eax
    1cb6:	74 58                	je     1d10 <tmpfs_create_node+0x100>
    1cb8:	83 f8 0c             	cmp    $0xc,%eax
    1cbb:	74 53                	je     1d10 <tmpfs_create_node+0x100>
    1cbd:	8b 40 f4             	mov    -0xc(%eax),%eax
    1cc0:	85 c0                	test   %eax,%eax
    1cc2:	74 4c                	je     1d10 <tmpfs_create_node+0x100>
    1cc4:	a1 60 48 02 00       	mov    0x24860,%eax
    1cc9:	8d 50 01             	lea    0x1(%eax),%edx
    1ccc:	89 15 60 48 02 00    	mov    %edx,0x24860
    1cd2:	89 43 04             	mov    %eax,0x4(%ebx)
    1cd5:	8b 45 10             	mov    0x10(%ebp),%eax
    1cd8:	83 e0 02             	and    $0x2,%eax
    1cdb:	c7 04 24 c0 4a 02 00 	movl   $0x24ac0,(%esp)
    1ce2:	83 f8 01             	cmp    $0x1,%eax
    1ce5:	89 73 08             	mov    %esi,0x8(%ebx)
    1ce8:	19 c0                	sbb    %eax,%eax
    1cea:	83 c0 02             	add    $0x2,%eax
    1ced:	89 43 14             	mov    %eax,0x14(%ebx)
    1cf0:	8d 43 0c             	lea    0xc(%ebx),%eax
    1cf3:	89 44 24 04          	mov    %eax,0x4(%esp)
    1cf7:	e8 94 91 01 00       	call   1ae90 <hash_table_insert>
    1cfc:	8b 45 08             	mov    0x8(%ebp),%eax
    1cff:	8b 13                	mov    (%ebx),%edx
    1d01:	89 10                	mov    %edx,(%eax)
    1d03:	31 c0                	xor    %eax,%eax
    1d05:	83 c4 20             	add    $0x20,%esp
    1d08:	5b                   	pop    %ebx
    1d09:	5e                   	pop    %esi
    1d0a:	5d                   	pop    %ebp
    1d0b:	c3                   	ret    
    1d0c:	8d 74 26 00          	lea    0x0(%esi,%eiz,1),%esi
    1d10:	31 c0                	xor    %eax,%eax
    1d12:	eb be                	jmp    1cd2 <tmpfs_create_node+0xc2>
    1d14:	8d 74 26 00          	lea    0x0(%esi,%eiz,1),%esi
    1d18:	b8 fe ff ff ff       	mov    $0xfffffffe,%eax
    1d1d:	eb e6                	jmp    1d05 <tmpfs_create_node+0xf5>
    1d1f:	89 1c 24             	mov    %ebx,(%esp)
    1d22:	e8 f9 31 01 00       	call   14f20 <free>
    1d27:	b8 fe ff ff ff       	mov    $0xfffffffe,%eax
    1d2c:	eb d7                	jmp    1d05 <tmpfs_create_node+0xf5>
    1d2e:	c7 44 24 08 36 01 00 	movl   $0x136,0x8(%esp)
    1d35:	00 
    1d36:	c7 44 24 04 8b 1c 02 	movl   $0x21c8b,0x4(%esp)
    1d3d:	00 
    1d3e:	c7 04 24 40 1d 02 00 	movl   $0x21d40,(%esp)
    1d45:	e8 a6 d8 01 00       	call   1f5f0 <assert_abort>
    1d4a:	8d b6 00 00 00 00    	lea    0x0(%esi),%esi

00001d50 <tmpfs_mounted>:
    1d50:	55                   	push   %ebp
    1d51:	89 e5                	mov    %esp,%ebp
    1d53:	56                   	push   %esi
    1d54:	53                   	push   %ebx
    1d55:	83 ec 20             	sub    $0x20,%esp
    1d58:	8d 75 f0             	lea    -0x10(%ebp),%esi
    1d5b:	8b 5d 08             	mov    0x8(%ebp),%ebx
    1d5e:	c7 45 f4 00 00 00 00 	movl   $0x0,-0xc(%ebp)
    1d65:	89 74 24 04          	mov    %esi,0x4(%esp)
    1d69:	c7 04 24 c0 4a 02 00 	movl   $0x24ac0,(%esp)
    1d70:	89 5d f0             	mov    %ebx,-0x10(%ebp)
    1d73:	e8 48 93 01 00       	call   1b0c0 <hash_table_find>
    1d78:	85 c0                	test   %eax,%eax
    1d7a:	74 10                	je     1d8c <tmpfs_mounted+0x3c>
    1d7c:	83 f8 0c             	cmp    $0xc,%eax
    1d7f:	74 0b                	je     1d8c <tmpfs_mounted+0x3c>
    1d81:	8b 40 f4             	mov    -0xc(%eax),%eax
    1d84:	85 c0                	test   %eax,%eax
    1d86:	0f 85 cc 00 00 00    	jne    1e58 <tmpfs_mounted+0x108>
    1d8c:	8d 45 ec             	lea    -0x14(%ebp),%eax
    1d8f:	c7 44 24 08 02 00 00 	movl   $0x2,0x8(%esp)
    1d96:	00 
    1d97:	89 5c 24 04          	mov    %ebx,0x4(%esp)
    1d9b:	89 04 24             	mov    %eax,(%esp)
    1d9e:	e8 6d fe ff ff       	call   1c10 <tmpfs_create_node>
    1da3:	85 c0                	test   %eax,%eax
    1da5:	0f 85 85 00 00 00    	jne    1e30 <tmpfs_mounted+0xe0>
    1dab:	8b 45 ec             	mov    -0x14(%ebp),%eax
    1dae:	85 c0                	test   %eax,%eax
    1db0:	74 7e                	je     1e30 <tmpfs_mounted+0xe0>
    1db2:	8b 40 10             	mov    0x10(%eax),%eax
    1db5:	c7 40 18 00 00 00 00 	movl   $0x0,0x18(%eax)
    1dbc:	89 74 24 04          	mov    %esi,0x4(%esp)
    1dc0:	c7 04 24 c0 4a 02 00 	movl   $0x24ac0,(%esp)
    1dc7:	89 5d f0             	mov    %ebx,-0x10(%ebp)
    1dca:	c7 45 f4 00 00 00 00 	movl   $0x0,-0xc(%ebp)
    1dd1:	e8 ea 92 01 00       	call   1b0c0 <hash_table_find>
    1dd6:	85 c0                	test   %eax,%eax
    1dd8:	0f 84 8a 00 00 00    	je     1e68 <tmpfs_mounted+0x118>
    1dde:	83 f8 0c             	cmp    $0xc,%eax
    1de1:	0f 84 81 00 00 00    	je     1e68 <tmpfs_mounted+0x118>
    1de7:	8b 40 f4             	mov    -0xc(%eax),%eax
    1dea:	85 c0                	test   %eax,%eax
    1dec:	74 7a                	je     1e68 <tmpfs_mounted+0x118>
    1dee:	8b 70 10             	mov    0x10(%eax),%esi
    1df1:	8b 45 0c             	mov    0xc(%ebp),%eax
    1df4:	c7 44 24 04 c8 1c 02 	movl   $0x21cc8,0x4(%esp)
    1dfb:	00 
    1dfc:	89 04 24             	mov    %eax,(%esp)
    1dff:	e8 0c 77 00 00       	call   9510 <str_cmp>
    1e04:	85 c0                	test   %eax,%eax
    1e06:	74 38                	je     1e40 <tmpfs_mounted+0xf0>
    1e08:	8b 45 10             	mov    0x10(%ebp),%eax
    1e0b:	8b 56 04             	mov    0x4(%esi),%edx
    1e0e:	89 10                	mov    %edx,(%eax)
    1e10:	8b 45 14             	mov    0x14(%ebp),%eax
    1e13:	8b 56 1c             	mov    0x1c(%esi),%edx
    1e16:	89 10                	mov    %edx,(%eax)
    1e18:	c7 40 04 00 00 00 00 	movl   $0x0,0x4(%eax)
    1e1f:	8b 45 18             	mov    0x18(%ebp),%eax
    1e22:	8b 56 18             	mov    0x18(%esi),%edx
    1e25:	89 10                	mov    %edx,(%eax)
    1e27:	31 c0                	xor    %eax,%eax
    1e29:	83 c4 20             	add    $0x20,%esp
    1e2c:	5b                   	pop    %ebx
    1e2d:	5e                   	pop    %esi
    1e2e:	5d                   	pop    %ebp
    1e2f:	c3                   	ret    
    1e30:	83 c4 20             	add    $0x20,%esp
    1e33:	b8 fe ff ff ff       	mov    $0xfffffffe,%eax
    1e38:	5b                   	pop    %ebx
    1e39:	5e                   	pop    %esi
    1e3a:	5d                   	pop    %ebp
    1e3b:	c3                   	ret    
    1e3c:	8d 74 26 00          	lea    0x0(%esi,%eiz,1),%esi
    1e40:	89 1c 24             	mov    %ebx,(%esp)
    1e43:	e8 48 04 00 00       	call   2290 <tmpfs_restore>
    1e48:	84 c0                	test   %al,%al
    1e4a:	75 bc                	jne    1e08 <tmpfs_mounted+0xb8>
    1e4c:	b8 fd ff ff ff       	mov    $0xfffffffd,%eax
    1e51:	eb d6                	jmp    1e29 <tmpfs_mounted+0xd9>
    1e53:	90                   	nop
    1e54:	8d 74 26 00          	lea    0x0(%esi,%eiz,1),%esi
    1e58:	83 c4 20             	add    $0x20,%esp
    1e5b:	b8 fc fe ff ff       	mov    $0xfffffefc,%eax
    1e60:	5b                   	pop    %ebx
    1e61:	5e                   	pop    %esi
    1e62:	5d                   	pop    %ebp
    1e63:	c3                   	ret    
    1e64:	8d 74 26 00          	lea    0x0(%esi,%eiz,1),%esi
    1e68:	31 f6                	xor    %esi,%esi
    1e6a:	eb 85                	jmp    1df1 <tmpfs_mounted+0xa1>
    1e6c:	8d 74 26 00          	lea    0x0(%esi,%eiz,1),%esi

00001e70 <tmpfs_destroy>:
    1e70:	55                   	push   %ebp
    1e71:	89 e5                	mov    %esp,%ebp
    1e73:	83 ec 28             	sub    $0x28,%esp
    1e76:	8b 45 08             	mov    0x8(%ebp),%eax
    1e79:	c7 04 24 c0 4a 02 00 	movl   $0x24ac0,(%esp)
    1e80:	89 45 f0             	mov    %eax,-0x10(%ebp)
    1e83:	8b 45 0c             	mov    0xc(%ebp),%eax
    1e86:	89 45 f4             	mov    %eax,-0xc(%ebp)
    1e89:	8d 45 f0             	lea    -0x10(%ebp),%eax
    1e8c:	89 44 24 04          	mov    %eax,0x4(%esp)
    1e90:	e8 2b 92 01 00       	call   1b0c0 <hash_table_find>
    1e95:	85 c0                	test   %eax,%eax
    1e97:	74 3b                	je     1ed4 <tmpfs_destroy+0x64>
    1e99:	83 f8 0c             	cmp    $0xc,%eax
    1e9c:	74 32                	je     1ed0 <tmpfs_destroy+0x60>
    1e9e:	8b 40 f4             	mov    -0xc(%eax),%eax
    1ea1:	85 c0                	test   %eax,%eax
    1ea3:	74 2b                	je     1ed0 <tmpfs_destroy+0x60>
    1ea5:	8b 40 10             	mov    0x10(%eax),%eax
    1ea8:	8b 50 18             	mov    0x18(%eax),%edx
    1eab:	85 d2                	test   %edx,%edx
    1ead:	75 46                	jne    1ef5 <tmpfs_destroy+0x85>
    1eaf:	8d 50 24             	lea    0x24(%eax),%edx
    1eb2:	39 50 28             	cmp    %edx,0x28(%eax)
    1eb5:	75 22                	jne    1ed9 <tmpfs_destroy+0x69>
    1eb7:	83 c0 0c             	add    $0xc,%eax
    1eba:	c7 04 24 c0 4a 02 00 	movl   $0x24ac0,(%esp)
    1ec1:	89 44 24 04          	mov    %eax,0x4(%esp)
    1ec5:	e8 76 94 01 00       	call   1b340 <hash_table_remove_item>
    1eca:	31 c0                	xor    %eax,%eax
    1ecc:	c9                   	leave  
    1ecd:	c3                   	ret    
    1ece:	66 90                	xchg   %ax,%ax
    1ed0:	31 c0                	xor    %eax,%eax
    1ed2:	eb d4                	jmp    1ea8 <tmpfs_destroy+0x38>
    1ed4:	83 c8 ff             	or     $0xffffffff,%eax
    1ed7:	c9                   	leave  
    1ed8:	c3                   	ret    
    1ed9:	c7 44 24 08 5b 01 00 	movl   $0x15b,0x8(%esp)
    1ee0:	00 
    1ee1:	c7 44 24 04 8b 1c 02 	movl   $0x21c8b,0x4(%esp)
    1ee8:	00 
    1ee9:	c7 04 24 df 1c 02 00 	movl   $0x21cdf,(%esp)
    1ef0:	e8 fb d6 01 00       	call   1f5f0 <assert_abort>
    1ef5:	c7 44 24 08 5a 01 00 	movl   $0x15a,0x8(%esp)
    1efc:	00 
    1efd:	c7 44 24 04 8b 1c 02 	movl   $0x21c8b,0x4(%esp)
    1f04:	00 
    1f05:	c7 04 24 d0 1c 02 00 	movl   $0x21cd0,(%esp)
    1f0c:	e8 df d6 01 00       	call   1f5f0 <assert_abort>
    1f11:	eb 0d                	jmp    1f20 <tmpfs_destroy_node>
    1f13:	90                   	nop
    1f14:	90                   	nop
    1f15:	90                   	nop
    1f16:	90                   	nop
    1f17:	90                   	nop
    1f18:	90                   	nop
    1f19:	90                   	nop
    1f1a:	90                   	nop
    1f1b:	90                   	nop
    1f1c:	90                   	nop
    1f1d:	90                   	nop
    1f1e:	90                   	nop
    1f1f:	90                   	nop

00001f20 <tmpfs_destroy_node>:
    1f20:	55                   	push   %ebp
    1f21:	89 e5                	mov    %esp,%ebp
    1f23:	83 ec 18             	sub    $0x18,%esp
    1f26:	8b 45 08             	mov    0x8(%ebp),%eax
    1f29:	85 c0                	test   %eax,%eax
    1f2b:	74 2b                	je     1f58 <tmpfs_destroy_node+0x38>
    1f2d:	8b 40 10             	mov    0x10(%eax),%eax
    1f30:	8b 48 18             	mov    0x18(%eax),%ecx
    1f33:	85 c9                	test   %ecx,%ecx
    1f35:	75 25                	jne    1f5c <tmpfs_destroy_node+0x3c>
    1f37:	8d 50 24             	lea    0x24(%eax),%edx
    1f3a:	39 50 28             	cmp    %edx,0x28(%eax)
    1f3d:	75 39                	jne    1f78 <tmpfs_destroy_node+0x58>
    1f3f:	83 c0 0c             	add    $0xc,%eax
    1f42:	c7 04 24 c0 4a 02 00 	movl   $0x24ac0,(%esp)
    1f49:	89 44 24 04          	mov    %eax,0x4(%esp)
    1f4d:	e8 ee 93 01 00       	call   1b340 <hash_table_remove_item>
    1f52:	31 c0                	xor    %eax,%eax
    1f54:	c9                   	leave  
    1f55:	c3                   	ret    
    1f56:	66 90                	xchg   %ax,%ax
    1f58:	31 c0                	xor    %eax,%eax
    1f5a:	eb d4                	jmp    1f30 <tmpfs_destroy_node+0x10>
    1f5c:	c7 44 24 08 5a 01 00 	movl   $0x15a,0x8(%esp)
    1f63:	00 
    1f64:	c7 44 24 04 8b 1c 02 	movl   $0x21c8b,0x4(%esp)
    1f6b:	00 
    1f6c:	c7 04 24 d0 1c 02 00 	movl   $0x21cd0,(%esp)
    1f73:	e8 78 d6 01 00       	call   1f5f0 <assert_abort>
    1f78:	c7 44 24 08 5b 01 00 	movl   $0x15b,0x8(%esp)
    1f7f:	00 
    1f80:	c7 44 24 04 8b 1c 02 	movl   $0x21c8b,0x4(%esp)
    1f87:	00 
    1f88:	c7 04 24 df 1c 02 00 	movl   $0x21cdf,(%esp)
    1f8f:	e8 5c d6 01 00       	call   1f5f0 <assert_abort>
    1f94:	8d b6 00 00 00 00    	lea    0x0(%esi),%esi
    1f9a:	8d bf 00 00 00 00    	lea    0x0(%edi),%edi

00001fa0 <tmpfs_init>:
    1fa0:	55                   	push   %ebp
    1fa1:	89 e5                	mov    %esp,%ebp
    1fa3:	83 ec 18             	sub    $0x18,%esp
    1fa6:	c7 44 24 0c 00 48 02 	movl   $0x24800,0xc(%esp)
    1fad:	00 
    1fae:	c7 44 24 08 00 00 00 	movl   $0x0,0x8(%esp)
    1fb5:	00 
    1fb6:	c7 44 24 04 00 00 00 	movl   $0x0,0x4(%esp)
    1fbd:	00 
    1fbe:	c7 04 24 c0 4a 02 00 	movl   $0x24ac0,(%esp)
    1fc5:	e8 e6 8a 01 00       	call   1aab0 <hash_table_create>
    1fca:	c9                   	leave  
    1fcb:	c3                   	ret    
    1fcc:	66 90                	xchg   %ax,%ax
    1fce:	66 90                	xchg   %ax,%ax

00001fd0 <tmpfs_restore_recursion>:
    1fd0:	55                   	push   %ebp
    1fd1:	89 e5                	mov    %esp,%ebp
    1fd3:	57                   	push   %edi
    1fd4:	56                   	push   %esi
    1fd5:	53                   	push   %ebx
    1fd6:	83 ec 4c             	sub    $0x4c,%esp
    1fd9:	89 c3                	mov    %eax,%ebx
    1fdb:	89 d7                	mov    %edx,%edi
    1fdd:	89 ce                	mov    %ecx,%esi
    1fdf:	8d 45 e0             	lea    -0x20(%ebp),%eax
    1fe2:	c7 44 24 18 05 00 00 	movl   $0x5,0x18(%esp)
    1fe9:	00 
    1fea:	89 44 24 14          	mov    %eax,0x14(%esp)
    1fee:	8b 45 08             	mov    0x8(%ebp),%eax
    1ff1:	89 44 24 10          	mov    %eax,0x10(%esp)
    1ff5:	89 74 24 0c          	mov    %esi,0xc(%esp)
    1ff9:	89 7c 24 08          	mov    %edi,0x8(%esp)
    1ffd:	c7 44 24 04 00 4b 02 	movl   $0x24b00,0x4(%esp)
    2004:	00 
    2005:	89 1c 24             	mov    %ebx,(%esp)
    2008:	e8 a3 12 00 00       	call   32b0 <block_seqread>
    200d:	85 c0                	test   %eax,%eax
    200f:	75 23                	jne    2034 <tmpfs_restore_recursion+0x64>
    2011:	8a 45 e0             	mov    -0x20(%ebp),%al
    2014:	8b 55 e1             	mov    -0x1f(%ebp),%edx
    2017:	3c 01                	cmp    $0x1,%al
    2019:	0f 84 01 01 00 00    	je     2120 <tmpfs_restore_recursion+0x150>
    201f:	73 0f                	jae    2030 <tmpfs_restore_recursion+0x60>
    2021:	83 c4 4c             	add    $0x4c,%esp
    2024:	b0 01                	mov    $0x1,%al
    2026:	5b                   	pop    %ebx
    2027:	5e                   	pop    %esi
    2028:	5f                   	pop    %edi
    2029:	5d                   	pop    %ebp
    202a:	c3                   	ret    
    202b:	90                   	nop
    202c:	8d 74 26 00          	lea    0x0(%esi,%eiz,1),%esi
    2030:	3c 02                	cmp    $0x2,%al
    2032:	74 0c                	je     2040 <tmpfs_restore_recursion+0x70>
    2034:	31 c0                	xor    %eax,%eax
    2036:	83 c4 4c             	add    $0x4c,%esp
    2039:	5b                   	pop    %ebx
    203a:	5e                   	pop    %esi
    203b:	5f                   	pop    %edi
    203c:	5d                   	pop    %ebp
    203d:	c3                   	ret    
    203e:	66 90                	xchg   %ax,%ax
    2040:	42                   	inc    %edx
    2041:	89 14 24             	mov    %edx,(%esp)
    2044:	e8 c7 2d 01 00       	call   14e10 <malloc>
    2049:	89 c2                	mov    %eax,%edx
    204b:	85 c0                	test   %eax,%eax
    204d:	74 e5                	je     2034 <tmpfs_restore_recursion+0x64>
    204f:	8d 45 d8             	lea    -0x28(%ebp),%eax
    2052:	89 55 d4             	mov    %edx,-0x2c(%ebp)
    2055:	c7 44 24 08 02 00 00 	movl   $0x2,0x8(%esp)
    205c:	00 
    205d:	89 5c 24 04          	mov    %ebx,0x4(%esp)
    2061:	89 04 24             	mov    %eax,(%esp)
    2064:	ff 15 34 48 02 00    	call   *0x24834
    206a:	8b 55 d4             	mov    -0x2c(%ebp),%edx
    206d:	85 c0                	test   %eax,%eax
    206f:	0f 85 0a 02 00 00    	jne    227f <tmpfs_restore_recursion+0x2af>
    2075:	8b 45 d8             	mov    -0x28(%ebp),%eax
    2078:	85 c0                	test   %eax,%eax
    207a:	0f 84 ff 01 00 00    	je     227f <tmpfs_restore_recursion+0x2af>
    2080:	8b 45 e1             	mov    -0x1f(%ebp),%eax
    2083:	89 54 24 14          	mov    %edx,0x14(%esp)
    2087:	89 44 24 18          	mov    %eax,0x18(%esp)
    208b:	8b 45 08             	mov    0x8(%ebp),%eax
    208e:	89 44 24 10          	mov    %eax,0x10(%esp)
    2092:	89 74 24 0c          	mov    %esi,0xc(%esp)
    2096:	89 7c 24 08          	mov    %edi,0x8(%esp)
    209a:	c7 44 24 04 00 4b 02 	movl   $0x24b00,0x4(%esp)
    20a1:	00 
    20a2:	89 1c 24             	mov    %ebx,(%esp)
    20a5:	89 55 d4             	mov    %edx,-0x2c(%ebp)
    20a8:	e8 03 12 00 00       	call   32b0 <block_seqread>
    20ad:	8b 55 d4             	mov    -0x2c(%ebp),%edx
    20b0:	85 c0                	test   %eax,%eax
    20b2:	0f 85 b8 01 00 00    	jne    2270 <tmpfs_restore_recursion+0x2a0>
    20b8:	8b 45 e1             	mov    -0x1f(%ebp),%eax
    20bb:	c6 04 02 00          	movb   $0x0,(%edx,%eax,1)
    20bf:	8b 45 d8             	mov    -0x28(%ebp),%eax
    20c2:	89 44 24 04          	mov    %eax,0x4(%esp)
    20c6:	8b 45 0c             	mov    0xc(%ebp),%eax
    20c9:	89 54 24 08          	mov    %edx,0x8(%esp)
    20cd:	89 55 d4             	mov    %edx,-0x2c(%ebp)
    20d0:	89 04 24             	mov    %eax,(%esp)
    20d3:	ff 15 3c 48 02 00    	call   *0x2483c
    20d9:	8b 55 d4             	mov    -0x2c(%ebp),%edx
    20dc:	85 c0                	test   %eax,%eax
    20de:	0f 85 8c 01 00 00    	jne    2270 <tmpfs_restore_recursion+0x2a0>
    20e4:	89 14 24             	mov    %edx,(%esp)
    20e7:	e8 34 2e 01 00       	call   14f20 <free>
    20ec:	8b 45 d8             	mov    -0x28(%ebp),%eax
    20ef:	89 44 24 04          	mov    %eax,0x4(%esp)
    20f3:	8b 45 08             	mov    0x8(%ebp),%eax
    20f6:	89 04 24             	mov    %eax,(%esp)
    20f9:	89 f1                	mov    %esi,%ecx
    20fb:	89 fa                	mov    %edi,%edx
    20fd:	89 d8                	mov    %ebx,%eax
    20ff:	e8 cc fe ff ff       	call   1fd0 <tmpfs_restore_recursion>
    2104:	84 c0                	test   %al,%al
    2106:	0f 84 28 ff ff ff    	je     2034 <tmpfs_restore_recursion+0x64>
    210c:	8a 45 e0             	mov    -0x20(%ebp),%al
    210f:	84 c0                	test   %al,%al
    2111:	0f 85 c8 fe ff ff    	jne    1fdf <tmpfs_restore_recursion+0xf>
    2117:	e9 05 ff ff ff       	jmp    2021 <tmpfs_restore_recursion+0x51>
    211c:	8d 74 26 00          	lea    0x0(%esi,%eiz,1),%esi
    2120:	42                   	inc    %edx
    2121:	89 14 24             	mov    %edx,(%esp)
    2124:	e8 e7 2c 01 00       	call   14e10 <malloc>
    2129:	89 c2                	mov    %eax,%edx
    212b:	85 c0                	test   %eax,%eax
    212d:	0f 84 01 ff ff ff    	je     2034 <tmpfs_restore_recursion+0x64>
    2133:	8d 45 d8             	lea    -0x28(%ebp),%eax
    2136:	89 55 d4             	mov    %edx,-0x2c(%ebp)
    2139:	c7 44 24 08 01 00 00 	movl   $0x1,0x8(%esp)
    2140:	00 
    2141:	89 5c 24 04          	mov    %ebx,0x4(%esp)
    2145:	89 04 24             	mov    %eax,(%esp)
    2148:	ff 15 34 48 02 00    	call   *0x24834
    214e:	8b 55 d4             	mov    -0x2c(%ebp),%edx
    2151:	85 c0                	test   %eax,%eax
    2153:	0f 85 26 01 00 00    	jne    227f <tmpfs_restore_recursion+0x2af>
    2159:	8b 4d d8             	mov    -0x28(%ebp),%ecx
    215c:	85 c9                	test   %ecx,%ecx
    215e:	0f 84 1b 01 00 00    	je     227f <tmpfs_restore_recursion+0x2af>
    2164:	8b 45 e1             	mov    -0x1f(%ebp),%eax
    2167:	89 54 24 14          	mov    %edx,0x14(%esp)
    216b:	89 44 24 18          	mov    %eax,0x18(%esp)
    216f:	8b 45 08             	mov    0x8(%ebp),%eax
    2172:	89 44 24 10          	mov    %eax,0x10(%esp)
    2176:	89 74 24 0c          	mov    %esi,0xc(%esp)
    217a:	89 7c 24 08          	mov    %edi,0x8(%esp)
    217e:	c7 44 24 04 00 4b 02 	movl   $0x24b00,0x4(%esp)
    2185:	00 
    2186:	89 1c 24             	mov    %ebx,(%esp)
    2189:	89 55 d4             	mov    %edx,-0x2c(%ebp)
    218c:	e8 1f 11 00 00       	call   32b0 <block_seqread>
    2191:	8b 55 d4             	mov    -0x2c(%ebp),%edx
    2194:	85 c0                	test   %eax,%eax
    2196:	0f 85 d4 00 00 00    	jne    2270 <tmpfs_restore_recursion+0x2a0>
    219c:	8b 45 e1             	mov    -0x1f(%ebp),%eax
    219f:	c6 04 02 00          	movb   $0x0,(%edx,%eax,1)
    21a3:	8b 45 d8             	mov    -0x28(%ebp),%eax
    21a6:	89 44 24 04          	mov    %eax,0x4(%esp)
    21aa:	8b 45 0c             	mov    0xc(%ebp),%eax
    21ad:	89 54 24 08          	mov    %edx,0x8(%esp)
    21b1:	89 55 d4             	mov    %edx,-0x2c(%ebp)
    21b4:	89 04 24             	mov    %eax,(%esp)
    21b7:	ff 15 3c 48 02 00    	call   *0x2483c
    21bd:	8b 55 d4             	mov    -0x2c(%ebp),%edx
    21c0:	85 c0                	test   %eax,%eax
    21c2:	0f 85 a8 00 00 00    	jne    2270 <tmpfs_restore_recursion+0x2a0>
    21c8:	89 14 24             	mov    %edx,(%esp)
    21cb:	e8 50 2d 01 00       	call   14f20 <free>
    21d0:	8d 45 dc             	lea    -0x24(%ebp),%eax
    21d3:	89 44 24 14          	mov    %eax,0x14(%esp)
    21d7:	8b 45 08             	mov    0x8(%ebp),%eax
    21da:	c7 44 24 18 04 00 00 	movl   $0x4,0x18(%esp)
    21e1:	00 
    21e2:	89 44 24 10          	mov    %eax,0x10(%esp)
    21e6:	89 74 24 0c          	mov    %esi,0xc(%esp)
    21ea:	89 7c 24 08          	mov    %edi,0x8(%esp)
    21ee:	c7 44 24 04 00 4b 02 	movl   $0x24b00,0x4(%esp)
    21f5:	00 
    21f6:	89 1c 24             	mov    %ebx,(%esp)
    21f9:	e8 b2 10 00 00       	call   32b0 <block_seqread>
    21fe:	85 c0                	test   %eax,%eax
    2200:	0f 85 2e fe ff ff    	jne    2034 <tmpfs_restore_recursion+0x64>
    2206:	8b 45 d8             	mov    -0x28(%ebp),%eax
    2209:	8b 4d dc             	mov    -0x24(%ebp),%ecx
    220c:	85 c0                	test   %eax,%eax
    220e:	74 58                	je     2268 <tmpfs_restore_recursion+0x298>
    2210:	8b 50 10             	mov    0x10(%eax),%edx
    2213:	89 0c 24             	mov    %ecx,(%esp)
    2216:	89 55 d4             	mov    %edx,-0x2c(%ebp)
    2219:	e8 f2 2b 01 00       	call   14e10 <malloc>
    221e:	8b 55 d4             	mov    -0x2c(%ebp),%edx
    2221:	85 c0                	test   %eax,%eax
    2223:	89 42 20             	mov    %eax,0x20(%edx)
    2226:	0f 84 08 fe ff ff    	je     2034 <tmpfs_restore_recursion+0x64>
    222c:	8b 4d dc             	mov    -0x24(%ebp),%ecx
    222f:	89 4a 1c             	mov    %ecx,0x1c(%edx)
    2232:	89 44 24 14          	mov    %eax,0x14(%esp)
    2236:	8b 45 08             	mov    0x8(%ebp),%eax
    2239:	89 4c 24 18          	mov    %ecx,0x18(%esp)
    223d:	89 44 24 10          	mov    %eax,0x10(%esp)
    2241:	89 74 24 0c          	mov    %esi,0xc(%esp)
    2245:	89 7c 24 08          	mov    %edi,0x8(%esp)
    2249:	c7 44 24 04 00 4b 02 	movl   $0x24b00,0x4(%esp)
    2250:	00 
    2251:	89 1c 24             	mov    %ebx,(%esp)
    2254:	e8 57 10 00 00       	call   32b0 <block_seqread>
    2259:	85 c0                	test   %eax,%eax
    225b:	0f 84 ab fe ff ff    	je     210c <tmpfs_restore_recursion+0x13c>
    2261:	31 c0                	xor    %eax,%eax
    2263:	e9 ce fd ff ff       	jmp    2036 <tmpfs_restore_recursion+0x66>
    2268:	31 d2                	xor    %edx,%edx
    226a:	eb a7                	jmp    2213 <tmpfs_restore_recursion+0x243>
    226c:	8d 74 26 00          	lea    0x0(%esi,%eiz,1),%esi
    2270:	8b 45 d8             	mov    -0x28(%ebp),%eax
    2273:	89 04 24             	mov    %eax,(%esp)
    2276:	ff 15 38 48 02 00    	call   *0x24838
    227c:	8b 55 d4             	mov    -0x2c(%ebp),%edx
    227f:	89 14 24             	mov    %edx,(%esp)
    2282:	e8 99 2c 01 00       	call   14f20 <free>
    2287:	31 c0                	xor    %eax,%eax
    2289:	e9 a8 fd ff ff       	jmp    2036 <tmpfs_restore_recursion+0x66>
    228e:	66 90                	xchg   %ax,%ax

00002290 <tmpfs_restore>:
    2290:	55                   	push   %ebp
    2291:	89 e5                	mov    %esp,%ebp
    2293:	57                   	push   %edi
    2294:	56                   	push   %esi
    2295:	53                   	push   %ebx
    2296:	83 ec 5c             	sub    $0x5c,%esp
    2299:	8b 5d 08             	mov    0x8(%ebp),%ebx
    229c:	c7 44 24 08 00 04 00 	movl   $0x400,0x8(%esp)
    22a3:	00 
    22a4:	89 5c 24 04          	mov    %ebx,0x4(%esp)
    22a8:	c7 04 24 02 00 00 00 	movl   $0x2,(%esp)
    22af:	e8 2c 01 00 00       	call   23e0 <block_init>
    22b4:	31 d2                	xor    %edx,%edx
    22b6:	85 c0                	test   %eax,%eax
    22b8:	74 0e                	je     22c8 <tmpfs_restore+0x38>
    22ba:	83 c4 5c             	add    $0x5c,%esp
    22bd:	88 d0                	mov    %dl,%al
    22bf:	5b                   	pop    %ebx
    22c0:	5e                   	pop    %esi
    22c1:	5f                   	pop    %edi
    22c2:	5d                   	pop    %ebp
    22c3:	c3                   	ret    
    22c4:	8d 74 26 00          	lea    0x0(%esi,%eiz,1),%esi
    22c8:	8d 55 da             	lea    -0x26(%ebp),%edx
    22cb:	8d 45 d0             	lea    -0x30(%ebp),%eax
    22ce:	8d 7d e0             	lea    -0x20(%ebp),%edi
    22d1:	8d 75 d4             	lea    -0x2c(%ebp),%esi
    22d4:	89 54 24 14          	mov    %edx,0x14(%esp)
    22d8:	c7 44 24 18 05 00 00 	movl   $0x5,0x18(%esp)
    22df:	00 
    22e0:	89 7c 24 10          	mov    %edi,0x10(%esp)
    22e4:	89 74 24 0c          	mov    %esi,0xc(%esp)
    22e8:	89 44 24 08          	mov    %eax,0x8(%esp)
    22ec:	c7 44 24 04 00 4b 02 	movl   $0x24b00,0x4(%esp)
    22f3:	00 
    22f4:	89 1c 24             	mov    %ebx,(%esp)
    22f7:	89 55 c4             	mov    %edx,-0x3c(%ebp)
    22fa:	c7 45 d0 00 00 00 00 	movl   $0x0,-0x30(%ebp)
    2301:	c7 45 d4 00 00 00 00 	movl   $0x0,-0x2c(%ebp)
    2308:	c7 45 e0 00 00 00 00 	movl   $0x0,-0x20(%ebp)
    230f:	c7 45 e4 00 00 00 00 	movl   $0x0,-0x1c(%ebp)
    2316:	e8 95 0f 00 00       	call   32b0 <block_seqread>
    231b:	8b 55 c4             	mov    -0x3c(%ebp),%edx
    231e:	85 c0                	test   %eax,%eax
    2320:	75 2e                	jne    2350 <tmpfs_restore+0xc0>
    2322:	c7 44 24 04 69 1d 02 	movl   $0x21d69,0x4(%esp)
    2329:	00 
    232a:	89 14 24             	mov    %edx,(%esp)
    232d:	c6 45 df 00          	movb   $0x0,-0x21(%ebp)
    2331:	e8 da 71 00 00       	call   9510 <str_cmp>
    2336:	85 c0                	test   %eax,%eax
    2338:	75 16                	jne    2350 <tmpfs_restore+0xc0>
    233a:	8d 45 cc             	lea    -0x34(%ebp),%eax
    233d:	89 5c 24 04          	mov    %ebx,0x4(%esp)
    2341:	89 04 24             	mov    %eax,(%esp)
    2344:	ff 15 20 48 02 00    	call   *0x24820
    234a:	85 c0                	test   %eax,%eax
    234c:	74 1a                	je     2368 <tmpfs_restore+0xd8>
    234e:	66 90                	xchg   %ax,%ax
    2350:	89 1c 24             	mov    %ebx,(%esp)
    2353:	e8 b8 06 00 00       	call   2a10 <block_fini>
    2358:	83 c4 5c             	add    $0x5c,%esp
    235b:	31 d2                	xor    %edx,%edx
    235d:	5b                   	pop    %ebx
    235e:	88 d0                	mov    %dl,%al
    2360:	5e                   	pop    %esi
    2361:	5f                   	pop    %edi
    2362:	5d                   	pop    %ebp
    2363:	c3                   	ret    
    2364:	8d 74 26 00          	lea    0x0(%esi,%eiz,1),%esi
    2368:	8b 45 cc             	mov    -0x34(%ebp),%eax
    236b:	89 3c 24             	mov    %edi,(%esp)
    236e:	89 44 24 04          	mov    %eax,0x4(%esp)
    2372:	89 f1                	mov    %esi,%ecx
    2374:	8d 55 d0             	lea    -0x30(%ebp),%edx
    2377:	89 d8                	mov    %ebx,%eax
    2379:	e8 52 fc ff ff       	call   1fd0 <tmpfs_restore_recursion>
    237e:	84 c0                	test   %al,%al
    2380:	74 ce                	je     2350 <tmpfs_restore+0xc0>
    2382:	89 1c 24             	mov    %ebx,(%esp)
    2385:	e8 86 06 00 00       	call   2a10 <block_fini>
    238a:	b2 01                	mov    $0x1,%dl
    238c:	e9 29 ff ff ff       	jmp    22ba <tmpfs_restore+0x2a>
    2391:	66 90                	xchg   %ax,%ax
    2393:	66 90                	xchg   %ax,%ax
    2395:	66 90                	xchg   %ax,%ax
    2397:	66 90                	xchg   %ax,%ax
    2399:	66 90                	xchg   %ax,%ax
    239b:	66 90                	xchg   %ax,%ax
    239d:	66 90                	xchg   %ax,%ax
    239f:	90                   	nop

000023a0 <cache_key_hash>:
    23a0:	55                   	push   %ebp
    23a1:	89 e5                	mov    %esp,%ebp
    23a3:	8b 45 08             	mov    0x8(%ebp),%eax
    23a6:	5d                   	pop    %ebp
    23a7:	8b 00                	mov    (%eax),%eax
    23a9:	c3                   	ret    
    23aa:	8d b6 00 00 00 00    	lea    0x0(%esi),%esi

000023b0 <cache_hash>:
    23b0:	55                   	push   %ebp
    23b1:	89 e5                	mov    %esp,%ebp
    23b3:	8b 45 08             	mov    0x8(%ebp),%eax
    23b6:	5d                   	pop    %ebp
    23b7:	8b 40 e4             	mov    -0x1c(%eax),%eax
    23ba:	c3                   	ret    
    23bb:	90                   	nop
    23bc:	8d 74 26 00          	lea    0x0(%esi,%eiz,1),%esi

000023c0 <cache_key_equal>:
    23c0:	55                   	push   %ebp
    23c1:	89 e5                	mov    %esp,%ebp
    23c3:	8b 45 0c             	mov    0xc(%ebp),%eax
    23c6:	8b 4d 08             	mov    0x8(%ebp),%ecx
    23c9:	5d                   	pop    %ebp
    23ca:	8b 50 e4             	mov    -0x1c(%eax),%edx
    23cd:	8b 40 e8             	mov    -0x18(%eax),%eax
    23d0:	33 41 04             	xor    0x4(%ecx),%eax
    23d3:	33 11                	xor    (%ecx),%edx
    23d5:	09 c2                	or     %eax,%edx
    23d7:	0f 94 c0             	sete   %al
    23da:	c3                   	ret    
    23db:	90                   	nop
    23dc:	8d 74 26 00          	lea    0x0(%esi,%eiz,1),%esi

000023e0 <block_init>:
    23e0:	55                   	push   %ebp
    23e1:	89 e5                	mov    %esp,%ebp
    23e3:	57                   	push   %edi
    23e4:	56                   	push   %esi
    23e5:	53                   	push   %ebx
    23e6:	83 ec 3c             	sub    $0x3c,%esp
    23e9:	8b 5d 0c             	mov    0xc(%ebp),%ebx
    23ec:	8b 45 08             	mov    0x8(%ebp),%eax
    23ef:	c7 44 24 08 01 00 00 	movl   $0x1,0x8(%esp)
    23f6:	00 
    23f7:	89 5c 24 04          	mov    %ebx,0x4(%esp)
    23fb:	89 04 24             	mov    %eax,(%esp)
    23fe:	e8 fd 4c 00 00       	call   7100 <loc_service_connect>
    2403:	89 c6                	mov    %eax,%esi
    2405:	85 c0                	test   %eax,%eax
    2407:	0f 84 30 01 00 00    	je     253d <block_init+0x15d>
    240d:	8d 45 e0             	lea    -0x20(%ebp),%eax
    2410:	89 34 24             	mov    %esi,(%esp)
    2413:	89 44 24 04          	mov    %eax,0x4(%esp)
    2417:	e8 b4 2e 00 00       	call   52d0 <bd_open>
    241c:	89 c7                	mov    %eax,%edi
    241e:	85 c0                	test   %eax,%eax
    2420:	0f 85 d4 00 00 00    	jne    24fa <block_init+0x11a>
    2426:	8d 45 e4             	lea    -0x1c(%ebp),%eax
    2429:	89 44 24 04          	mov    %eax,0x4(%esp)
    242d:	8b 45 e0             	mov    -0x20(%ebp),%eax
    2430:	89 04 24             	mov    %eax,(%esp)
    2433:	e8 68 31 00 00       	call   55a0 <bd_get_block_size>
    2438:	89 c7                	mov    %eax,%edi
    243a:	85 c0                	test   %eax,%eax
    243c:	0f 85 ad 00 00 00    	jne    24ef <block_init+0x10f>
    2442:	8b 55 e0             	mov    -0x20(%ebp),%edx
    2445:	c7 04 24 28 00 00 00 	movl   $0x28,(%esp)
    244c:	89 55 d4             	mov    %edx,-0x2c(%ebp)
    244f:	8b 55 e4             	mov    -0x1c(%ebp),%edx
    2452:	89 55 d0             	mov    %edx,-0x30(%ebp)
    2455:	e8 b6 29 01 00       	call   14e10 <malloc>
    245a:	85 c0                	test   %eax,%eax
    245c:	0f 84 e0 00 00 00    	je     2542 <block_init+0x162>
    2462:	8b 55 d4             	mov    -0x2c(%ebp),%edx
    2465:	c7 00 00 00 00 00    	movl   $0x0,(%eax)
    246b:	89 50 10             	mov    %edx,0x10(%eax)
    246e:	8b 55 d0             	mov    -0x30(%ebp),%edx
    2471:	89 50 20             	mov    %edx,0x20(%eax)
    2474:	c7 40 04 00 00 00 00 	movl   $0x0,0x4(%eax)
    247b:	89 58 08             	mov    %ebx,0x8(%eax)
    247e:	89 70 0c             	mov    %esi,0xc(%eax)
    2481:	c7 40 14 00 00 00 00 	movl   $0x0,0x14(%eax)
    2488:	c7 40 18 00 00 00 00 	movl   $0x0,0x18(%eax)
    248f:	c7 40 1c 00 00 00 00 	movl   $0x0,0x1c(%eax)
    2496:	c7 40 24 00 00 00 00 	movl   $0x0,0x24(%eax)
    249d:	c7 04 24 64 48 02 00 	movl   $0x24864,(%esp)
    24a4:	89 45 cc             	mov    %eax,-0x34(%ebp)
    24a7:	e8 54 9d 00 00       	call   c200 <fibril_mutex_lock>
    24ac:	8b 15 78 48 02 00    	mov    0x24878,%edx
    24b2:	81 fa 74 48 02 00    	cmp    $0x24874,%edx
    24b8:	8b 45 cc             	mov    -0x34(%ebp),%eax
    24bb:	75 0e                	jne    24cb <block_init+0xeb>
    24bd:	eb 51                	jmp    2510 <block_init+0x130>
    24bf:	90                   	nop
    24c0:	8b 52 04             	mov    0x4(%edx),%edx
    24c3:	81 fa 74 48 02 00    	cmp    $0x24874,%edx
    24c9:	74 45                	je     2510 <block_init+0x130>
    24cb:	3b 5a 08             	cmp    0x8(%edx),%ebx
    24ce:	75 f0                	jne    24c0 <block_init+0xe0>
    24d0:	c7 04 24 64 48 02 00 	movl   $0x24864,(%esp)
    24d7:	89 45 cc             	mov    %eax,-0x34(%ebp)
    24da:	e8 41 9e 00 00       	call   c320 <fibril_mutex_unlock>
    24df:	8b 45 cc             	mov    -0x34(%ebp),%eax
    24e2:	89 04 24             	mov    %eax,(%esp)
    24e5:	bf fc fe ff ff       	mov    $0xfffffefc,%edi
    24ea:	e8 31 2a 01 00       	call   14f20 <free>
    24ef:	8b 45 e0             	mov    -0x20(%ebp),%eax
    24f2:	89 04 24             	mov    %eax,(%esp)
    24f5:	e8 76 2e 00 00       	call   5370 <bd_close>
    24fa:	89 34 24             	mov    %esi,(%esp)
    24fd:	e8 4e 5d 01 00       	call   18250 <async_hangup>
    2502:	83 c4 3c             	add    $0x3c,%esp
    2505:	89 f8                	mov    %edi,%eax
    2507:	5b                   	pop    %ebx
    2508:	5e                   	pop    %esi
    2509:	5f                   	pop    %edi
    250a:	5d                   	pop    %ebp
    250b:	c3                   	ret    
    250c:	8d 74 26 00          	lea    0x0(%esi,%eiz,1),%esi
    2510:	8b 15 74 48 02 00    	mov    0x24874,%edx
    2516:	c7 40 04 74 48 02 00 	movl   $0x24874,0x4(%eax)
    251d:	89 10                	mov    %edx,(%eax)
    251f:	a3 74 48 02 00       	mov    %eax,0x24874
    2524:	89 42 04             	mov    %eax,0x4(%edx)
    2527:	c7 04 24 64 48 02 00 	movl   $0x24864,(%esp)
    252e:	e8 ed 9d 00 00       	call   c320 <fibril_mutex_unlock>
    2533:	83 c4 3c             	add    $0x3c,%esp
    2536:	89 f8                	mov    %edi,%eax
    2538:	5b                   	pop    %ebx
    2539:	5e                   	pop    %esi
    253a:	5f                   	pop    %edi
    253b:	5d                   	pop    %ebp
    253c:	c3                   	ret    
    253d:	83 cf ff             	or     $0xffffffff,%edi
    2540:	eb c0                	jmp    2502 <block_init+0x122>
    2542:	bf fe ff ff ff       	mov    $0xfffffffe,%edi
    2547:	eb a6                	jmp    24ef <block_init+0x10f>
    2549:	8d b4 26 00 00 00 00 	lea    0x0(%esi,%eiz,1),%esi

00002550 <block_bb_read>:
    2550:	55                   	push   %ebp
    2551:	89 e5                	mov    %esp,%ebp
    2553:	57                   	push   %edi
    2554:	56                   	push   %esi
    2555:	53                   	push   %ebx
    2556:	83 ec 3c             	sub    $0x3c,%esp
    2559:	8b 45 08             	mov    0x8(%ebp),%eax
    255c:	8b 75 0c             	mov    0xc(%ebp),%esi
    255f:	c7 04 24 64 48 02 00 	movl   $0x24864,(%esp)
    2566:	89 45 e4             	mov    %eax,-0x1c(%ebp)
    2569:	8b 7d 10             	mov    0x10(%ebp),%edi
    256c:	e8 8f 9c 00 00       	call   c200 <fibril_mutex_lock>
    2571:	8b 1d 78 48 02 00    	mov    0x24878,%ebx
    2577:	8b 45 e4             	mov    -0x1c(%ebp),%eax
    257a:	81 fb 74 48 02 00    	cmp    $0x24874,%ebx
    2580:	75 15                	jne    2597 <block_bb_read+0x47>
    2582:	e9 91 00 00 00       	jmp    2618 <block_bb_read+0xc8>
    2587:	90                   	nop
    2588:	8b 5b 04             	mov    0x4(%ebx),%ebx
    258b:	81 fb 74 48 02 00    	cmp    $0x24874,%ebx
    2591:	0f 84 81 00 00 00    	je     2618 <block_bb_read+0xc8>
    2597:	3b 43 08             	cmp    0x8(%ebx),%eax
    259a:	75 ec                	jne    2588 <block_bb_read+0x38>
    259c:	c7 04 24 64 48 02 00 	movl   $0x24864,(%esp)
    25a3:	e8 78 9d 00 00       	call   c320 <fibril_mutex_unlock>
    25a8:	8b 43 14             	mov    0x14(%ebx),%eax
    25ab:	85 c0                	test   %eax,%eax
    25ad:	0f 85 d5 00 00 00    	jne    2688 <block_bb_read+0x138>
    25b3:	8b 43 20             	mov    0x20(%ebx),%eax
    25b6:	89 04 24             	mov    %eax,(%esp)
    25b9:	e8 52 28 01 00       	call   14e10 <malloc>
    25be:	89 c1                	mov    %eax,%ecx
    25c0:	85 c0                	test   %eax,%eax
    25c2:	0f 84 cf 00 00 00    	je     2697 <block_bb_read+0x147>
    25c8:	8b 43 20             	mov    0x20(%ebx),%eax
    25cb:	89 4c 24 10          	mov    %ecx,0x10(%esp)
    25cf:	89 44 24 14          	mov    %eax,0x14(%esp)
    25d3:	c7 44 24 0c 01 00 00 	movl   $0x1,0xc(%esp)
    25da:	00 
    25db:	c7 44 24 04 00 00 00 	movl   $0x0,0x4(%esp)
    25e2:	00 
    25e3:	c7 44 24 08 00 00 00 	movl   $0x0,0x8(%esp)
    25ea:	00 
    25eb:	8b 43 10             	mov    0x10(%ebx),%eax
    25ee:	89 4d e4             	mov    %ecx,-0x1c(%ebp)
    25f1:	89 04 24             	mov    %eax,(%esp)
    25f4:	e8 87 2d 00 00       	call   5380 <bd_read_blocks>
    25f9:	8b 4d e4             	mov    -0x1c(%ebp),%ecx
    25fc:	89 c2                	mov    %eax,%edx
    25fe:	85 c0                	test   %eax,%eax
    2600:	75 36                	jne    2638 <block_bb_read+0xe8>
    2602:	89 4b 14             	mov    %ecx,0x14(%ebx)
    2605:	89 73 18             	mov    %esi,0x18(%ebx)
    2608:	89 7b 1c             	mov    %edi,0x1c(%ebx)
    260b:	83 c4 3c             	add    $0x3c,%esp
    260e:	89 d0                	mov    %edx,%eax
    2610:	5b                   	pop    %ebx
    2611:	5e                   	pop    %esi
    2612:	5f                   	pop    %edi
    2613:	5d                   	pop    %ebp
    2614:	c3                   	ret    
    2615:	8d 76 00             	lea    0x0(%esi),%esi
    2618:	c7 04 24 64 48 02 00 	movl   $0x24864,(%esp)
    261f:	e8 fc 9c 00 00       	call   c320 <fibril_mutex_unlock>
    2624:	83 ca ff             	or     $0xffffffff,%edx
    2627:	83 c4 3c             	add    $0x3c,%esp
    262a:	89 d0                	mov    %edx,%eax
    262c:	5b                   	pop    %ebx
    262d:	5e                   	pop    %esi
    262e:	5f                   	pop    %edi
    262f:	5d                   	pop    %ebp
    2630:	c3                   	ret    
    2631:	8d b4 26 00 00 00 00 	lea    0x0(%esi,%eiz,1),%esi
    2638:	8b 43 08             	mov    0x8(%ebx),%eax
    263b:	89 54 24 04          	mov    %edx,0x4(%esp)
    263f:	89 44 24 14          	mov    %eax,0x14(%esp)
    2643:	c7 44 24 0c 00 00 00 	movl   $0x0,0xc(%esp)
    264a:	00 
    264b:	c7 44 24 10 00 00 00 	movl   $0x0,0x10(%esp)
    2652:	00 
    2653:	c7 44 24 08 01 00 00 	movl   $0x1,0x8(%esp)
    265a:	00 
    265b:	c7 04 24 c0 1d 02 00 	movl   $0x21dc0,(%esp)
    2662:	89 55 e0             	mov    %edx,-0x20(%ebp)
    2665:	e8 26 db 00 00       	call   10190 <printf>
    266a:	e8 e1 ce 01 00       	call   1f550 <stacktrace_print>
    266f:	8b 4d e4             	mov    -0x1c(%ebp),%ecx
    2672:	89 0c 24             	mov    %ecx,(%esp)
    2675:	e8 a6 28 01 00       	call   14f20 <free>
    267a:	8b 55 e0             	mov    -0x20(%ebp),%edx
    267d:	83 c4 3c             	add    $0x3c,%esp
    2680:	89 d0                	mov    %edx,%eax
    2682:	5b                   	pop    %ebx
    2683:	5e                   	pop    %esi
    2684:	5f                   	pop    %edi
    2685:	5d                   	pop    %ebp
    2686:	c3                   	ret    
    2687:	90                   	nop
    2688:	83 c4 3c             	add    $0x3c,%esp
    268b:	ba fc fe ff ff       	mov    $0xfffffefc,%edx
    2690:	89 d0                	mov    %edx,%eax
    2692:	5b                   	pop    %ebx
    2693:	5e                   	pop    %esi
    2694:	5f                   	pop    %edi
    2695:	5d                   	pop    %ebp
    2696:	c3                   	ret    
    2697:	ba fe ff ff ff       	mov    $0xfffffffe,%edx
    269c:	eb 89                	jmp    2627 <block_bb_read+0xd7>
    269e:	66 90                	xchg   %ax,%ax

000026a0 <block_bb_get>:
    26a0:	55                   	push   %ebp
    26a1:	89 e5                	mov    %esp,%ebp
    26a3:	56                   	push   %esi
    26a4:	53                   	push   %ebx
    26a5:	83 ec 10             	sub    $0x10,%esp
    26a8:	8b 75 08             	mov    0x8(%ebp),%esi
    26ab:	c7 04 24 64 48 02 00 	movl   $0x24864,(%esp)
    26b2:	e8 49 9b 00 00       	call   c200 <fibril_mutex_lock>
    26b7:	8b 1d 78 48 02 00    	mov    0x24878,%ebx
    26bd:	81 fb 74 48 02 00    	cmp    $0x24874,%ebx
    26c3:	75 0e                	jne    26d3 <block_bb_get+0x33>
    26c5:	eb 29                	jmp    26f0 <block_bb_get+0x50>
    26c7:	90                   	nop
    26c8:	8b 5b 04             	mov    0x4(%ebx),%ebx
    26cb:	81 fb 74 48 02 00    	cmp    $0x24874,%ebx
    26d1:	74 1d                	je     26f0 <block_bb_get+0x50>
    26d3:	3b 73 08             	cmp    0x8(%ebx),%esi
    26d6:	75 f0                	jne    26c8 <block_bb_get+0x28>
    26d8:	c7 04 24 64 48 02 00 	movl   $0x24864,(%esp)
    26df:	e8 3c 9c 00 00       	call   c320 <fibril_mutex_unlock>
    26e4:	8b 43 14             	mov    0x14(%ebx),%eax
    26e7:	83 c4 10             	add    $0x10,%esp
    26ea:	5b                   	pop    %ebx
    26eb:	5e                   	pop    %esi
    26ec:	5d                   	pop    %ebp
    26ed:	c3                   	ret    
    26ee:	66 90                	xchg   %ax,%ax
    26f0:	c7 04 24 64 48 02 00 	movl   $0x24864,(%esp)
    26f7:	e8 24 9c 00 00       	call   c320 <fibril_mutex_unlock>
    26fc:	c7 44 24 08 e5 00 00 	movl   $0xe5,0x8(%esp)
    2703:	00 
    2704:	c7 44 24 04 6f 1d 02 	movl   $0x21d6f,0x4(%esp)
    270b:	00 
    270c:	c7 04 24 77 1d 02 00 	movl   $0x21d77,(%esp)
    2713:	e8 d8 ce 01 00       	call   1f5f0 <assert_abort>
    2718:	90                   	nop
    2719:	8d b4 26 00 00 00 00 	lea    0x0(%esi,%eiz,1),%esi

00002720 <block_cache_init>:
    2720:	55                   	push   %ebp
    2721:	89 e5                	mov    %esp,%ebp
    2723:	56                   	push   %esi
    2724:	53                   	push   %ebx
    2725:	83 ec 10             	sub    $0x10,%esp
    2728:	8b 75 08             	mov    0x8(%ebp),%esi
    272b:	c7 04 24 64 48 02 00 	movl   $0x24864,(%esp)
    2732:	e8 c9 9a 00 00       	call   c200 <fibril_mutex_lock>
    2737:	8b 1d 78 48 02 00    	mov    0x24878,%ebx
    273d:	81 fb 74 48 02 00    	cmp    $0x24874,%ebx
    2743:	75 1a                	jne    275f <block_cache_init+0x3f>
    2745:	e9 b6 00 00 00       	jmp    2800 <block_cache_init+0xe0>
    274a:	8d b6 00 00 00 00    	lea    0x0(%esi),%esi
    2750:	8b 5b 04             	mov    0x4(%ebx),%ebx
    2753:	81 fb 74 48 02 00    	cmp    $0x24874,%ebx
    2759:	0f 84 a1 00 00 00    	je     2800 <block_cache_init+0xe0>
    275f:	3b 73 08             	cmp    0x8(%ebx),%esi
    2762:	75 ec                	jne    2750 <block_cache_init+0x30>
    2764:	c7 04 24 64 48 02 00 	movl   $0x24864,(%esp)
    276b:	e8 b0 9b 00 00       	call   c320 <fibril_mutex_unlock>
    2770:	8b 53 24             	mov    0x24(%ebx),%edx
    2773:	85 d2                	test   %edx,%edx
    2775:	0f 85 9d 00 00 00    	jne    2818 <block_cache_init+0xf8>
    277b:	c7 04 24 48 00 00 00 	movl   $0x48,(%esp)
    2782:	e8 89 26 01 00       	call   14e10 <malloc>
    2787:	89 c6                	mov    %eax,%esi
    2789:	85 c0                	test   %eax,%eax
    278b:	0f 84 a2 00 00 00    	je     2833 <block_cache_init+0x113>
    2791:	89 04 24             	mov    %eax,(%esp)
    2794:	e8 47 9a 00 00       	call   c1e0 <fibril_mutex_initialize>
    2799:	8d 46 3c             	lea    0x3c(%esi),%eax
    279c:	89 46 3c             	mov    %eax,0x3c(%esi)
    279f:	89 46 40             	mov    %eax,0x40(%esi)
    27a2:	8b 45 0c             	mov    0xc(%ebp),%eax
    27a5:	31 d2                	xor    %edx,%edx
    27a7:	89 46 10             	mov    %eax,0x10(%esi)
    27aa:	8b 45 10             	mov    0x10(%ebp),%eax
    27ad:	89 46 18             	mov    %eax,0x18(%esi)
    27b0:	8b 45 14             	mov    0x14(%ebp),%eax
    27b3:	89 46 44             	mov    %eax,0x44(%esi)
    27b6:	8b 45 0c             	mov    0xc(%ebp),%eax
    27b9:	f7 73 20             	divl   0x20(%ebx)
    27bc:	c7 46 1c 00 00 00 00 	movl   $0x0,0x1c(%esi)
    27c3:	85 d2                	test   %edx,%edx
    27c5:	75 5d                	jne    2824 <block_cache_init+0x104>
    27c7:	89 46 14             	mov    %eax,0x14(%esi)
    27ca:	8d 46 20             	lea    0x20(%esi),%eax
    27cd:	c7 44 24 0c 7c 48 02 	movl   $0x2487c,0xc(%esp)
    27d4:	00 
    27d5:	c7 44 24 08 00 00 00 	movl   $0x0,0x8(%esp)
    27dc:	00 
    27dd:	c7 44 24 04 00 00 00 	movl   $0x0,0x4(%esp)
    27e4:	00 
    27e5:	89 04 24             	mov    %eax,(%esp)
    27e8:	e8 c3 82 01 00       	call   1aab0 <hash_table_create>
    27ed:	84 c0                	test   %al,%al
    27ef:	74 49                	je     283a <block_cache_init+0x11a>
    27f1:	89 73 24             	mov    %esi,0x24(%ebx)
    27f4:	83 c4 10             	add    $0x10,%esp
    27f7:	31 c0                	xor    %eax,%eax
    27f9:	5b                   	pop    %ebx
    27fa:	5e                   	pop    %esi
    27fb:	5d                   	pop    %ebp
    27fc:	c3                   	ret    
    27fd:	8d 76 00             	lea    0x0(%esi),%esi
    2800:	c7 04 24 64 48 02 00 	movl   $0x24864,(%esp)
    2807:	e8 14 9b 00 00       	call   c320 <fibril_mutex_unlock>
    280c:	83 c8 ff             	or     $0xffffffff,%eax
    280f:	83 c4 10             	add    $0x10,%esp
    2812:	5b                   	pop    %ebx
    2813:	5e                   	pop    %esi
    2814:	5d                   	pop    %ebp
    2815:	c3                   	ret    
    2816:	66 90                	xchg   %ax,%ax
    2818:	83 c4 10             	add    $0x10,%esp
    281b:	b8 fc fe ff ff       	mov    $0xfffffefc,%eax
    2820:	5b                   	pop    %ebx
    2821:	5e                   	pop    %esi
    2822:	5d                   	pop    %ebp
    2823:	c3                   	ret    
    2824:	89 34 24             	mov    %esi,(%esp)
    2827:	e8 f4 26 01 00       	call   14f20 <free>
    282c:	b8 f5 ff ff ff       	mov    $0xfffffff5,%eax
    2831:	eb dc                	jmp    280f <block_cache_init+0xef>
    2833:	b8 fe ff ff ff       	mov    $0xfffffffe,%eax
    2838:	eb d5                	jmp    280f <block_cache_init+0xef>
    283a:	89 34 24             	mov    %esi,(%esp)
    283d:	e8 de 26 01 00       	call   14f20 <free>
    2842:	b8 fe ff ff ff       	mov    $0xfffffffe,%eax
    2847:	eb c6                	jmp    280f <block_cache_init+0xef>
    2849:	8d b4 26 00 00 00 00 	lea    0x0(%esi,%eiz,1),%esi

00002850 <block_cache_fini>:
    2850:	55                   	push   %ebp
    2851:	89 e5                	mov    %esp,%ebp
    2853:	57                   	push   %edi
    2854:	56                   	push   %esi
    2855:	53                   	push   %ebx
    2856:	83 ec 4c             	sub    $0x4c,%esp
    2859:	8b 5d 08             	mov    0x8(%ebp),%ebx
    285c:	c7 04 24 64 48 02 00 	movl   $0x24864,(%esp)
    2863:	e8 98 99 00 00       	call   c200 <fibril_mutex_lock>
    2868:	8b 35 78 48 02 00    	mov    0x24878,%esi
    286e:	81 fe 74 48 02 00    	cmp    $0x24874,%esi
    2874:	75 19                	jne    288f <block_cache_fini+0x3f>
    2876:	e9 1d 01 00 00       	jmp    2998 <block_cache_fini+0x148>
    287b:	90                   	nop
    287c:	8d 74 26 00          	lea    0x0(%esi,%eiz,1),%esi
    2880:	8b 76 04             	mov    0x4(%esi),%esi
    2883:	81 fe 74 48 02 00    	cmp    $0x24874,%esi
    2889:	0f 84 09 01 00 00    	je     2998 <block_cache_fini+0x148>
    288f:	3b 5e 08             	cmp    0x8(%esi),%ebx
    2892:	75 ec                	jne    2880 <block_cache_fini+0x30>
    2894:	c7 04 24 64 48 02 00 	movl   $0x24864,(%esp)
    289b:	e8 80 9a 00 00       	call   c320 <fibril_mutex_unlock>
    28a0:	8b 56 24             	mov    0x24(%esi),%edx
    28a3:	89 55 e0             	mov    %edx,-0x20(%ebp)
    28a6:	85 d2                	test   %edx,%edx
    28a8:	0f 84 46 01 00 00    	je     29f4 <block_cache_fini+0x1a4>
    28ae:	8b 5a 40             	mov    0x40(%edx),%ebx
    28b1:	83 c2 3c             	add    $0x3c,%edx
    28b4:	89 55 d4             	mov    %edx,-0x2c(%ebp)
    28b7:	8b 55 e0             	mov    -0x20(%ebp),%edx
    28ba:	83 c2 20             	add    $0x20,%edx
    28bd:	3b 5d d4             	cmp    -0x2c(%ebp),%ebx
    28c0:	89 55 e4             	mov    %edx,-0x1c(%ebp)
    28c3:	89 da                	mov    %ebx,%edx
    28c5:	0f 84 2d 01 00 00    	je     29f8 <block_cache_fini+0x1a8>
    28cb:	90                   	nop
    28cc:	8d 74 26 00          	lea    0x0(%esi,%eiz,1),%esi
    28d0:	8d 5a bc             	lea    -0x44(%edx),%ebx
    28d3:	8b 4b 44             	mov    0x44(%ebx),%ecx
    28d6:	85 c9                	test   %ecx,%ecx
    28d8:	74 0f                	je     28e9 <block_cache_fini+0x99>
    28da:	8b 43 48             	mov    0x48(%ebx),%eax
    28dd:	85 c0                	test   %eax,%eax
    28df:	74 08                	je     28e9 <block_cache_fini+0x99>
    28e1:	89 08                	mov    %ecx,(%eax)
    28e3:	8b 4b 44             	mov    0x44(%ebx),%ecx
    28e6:	89 41 04             	mov    %eax,0x4(%ecx)
    28e9:	c7 43 44 00 00 00 00 	movl   $0x0,0x44(%ebx)
    28f0:	c7 43 48 00 00 00 00 	movl   $0x0,0x48(%ebx)
    28f7:	80 7b 14 00          	cmpb   $0x0,0x14(%ebx)
    28fb:	74 41                	je     293e <block_cache_fini+0xee>
    28fd:	8b 43 38             	mov    0x38(%ebx),%eax
    2900:	8b 55 e0             	mov    -0x20(%ebp),%edx
    2903:	89 45 d8             	mov    %eax,-0x28(%ebp)
    2906:	8b 43 40             	mov    0x40(%ebx),%eax
    2909:	8b 7a 14             	mov    0x14(%edx),%edi
    290c:	8b 53 3c             	mov    0x3c(%ebx),%edx
    290f:	89 44 24 14          	mov    %eax,0x14(%esp)
    2913:	89 55 dc             	mov    %edx,-0x24(%ebp)
    2916:	8b 43 54             	mov    0x54(%ebx),%eax
    2919:	8b 55 dc             	mov    -0x24(%ebp),%edx
    291c:	89 44 24 10          	mov    %eax,0x10(%esp)
    2920:	8b 45 d8             	mov    -0x28(%ebp),%eax
    2923:	89 7c 24 0c          	mov    %edi,0xc(%esp)
    2927:	89 44 24 04          	mov    %eax,0x4(%esp)
    292b:	89 54 24 08          	mov    %edx,0x8(%esp)
    292f:	8b 46 10             	mov    0x10(%esi),%eax
    2932:	89 04 24             	mov    %eax,(%esp)
    2935:	e8 b6 2b 00 00       	call   54f0 <bd_write_blocks>
    293a:	85 c0                	test   %eax,%eax
    293c:	75 7a                	jne    29b8 <block_cache_fini+0x168>
    293e:	8d 43 4c             	lea    0x4c(%ebx),%eax
    2941:	8b 7d e4             	mov    -0x1c(%ebp),%edi
    2944:	89 44 24 04          	mov    %eax,0x4(%esp)
    2948:	89 3c 24             	mov    %edi,(%esp)
    294b:	e8 f0 89 01 00       	call   1b340 <hash_table_remove_item>
    2950:	8b 43 54             	mov    0x54(%ebx),%eax
    2953:	89 04 24             	mov    %eax,(%esp)
    2956:	e8 c5 25 01 00       	call   14f20 <free>
    295b:	89 1c 24             	mov    %ebx,(%esp)
    295e:	e8 bd 25 01 00       	call   14f20 <free>
    2963:	8b 45 e0             	mov    -0x20(%ebp),%eax
    2966:	8b 50 40             	mov    0x40(%eax),%edx
    2969:	3b 55 d4             	cmp    -0x2c(%ebp),%edx
    296c:	0f 85 5e ff ff ff    	jne    28d0 <block_cache_fini+0x80>
    2972:	89 3c 24             	mov    %edi,(%esp)
    2975:	31 ff                	xor    %edi,%edi
    2977:	e8 64 82 01 00       	call   1abe0 <hash_table_destroy>
    297c:	8b 55 e0             	mov    -0x20(%ebp),%edx
    297f:	c7 46 24 00 00 00 00 	movl   $0x0,0x24(%esi)
    2986:	89 14 24             	mov    %edx,(%esp)
    2989:	e8 92 25 01 00       	call   14f20 <free>
    298e:	83 c4 4c             	add    $0x4c,%esp
    2991:	89 f8                	mov    %edi,%eax
    2993:	5b                   	pop    %ebx
    2994:	5e                   	pop    %esi
    2995:	5f                   	pop    %edi
    2996:	5d                   	pop    %ebp
    2997:	c3                   	ret    
    2998:	c7 04 24 64 48 02 00 	movl   $0x24864,(%esp)
    299f:	83 cf ff             	or     $0xffffffff,%edi
    29a2:	e8 79 99 00 00       	call   c320 <fibril_mutex_unlock>
    29a7:	83 c4 4c             	add    $0x4c,%esp
    29aa:	89 f8                	mov    %edi,%eax
    29ac:	5b                   	pop    %ebx
    29ad:	5e                   	pop    %esi
    29ae:	5f                   	pop    %edi
    29af:	5d                   	pop    %ebp
    29b0:	c3                   	ret    
    29b1:	8d b4 26 00 00 00 00 	lea    0x0(%esi,%eiz,1),%esi
    29b8:	89 f9                	mov    %edi,%ecx
    29ba:	89 c7                	mov    %eax,%edi
    29bc:	8b 46 08             	mov    0x8(%esi),%eax
    29bf:	8b 55 dc             	mov    -0x24(%ebp),%edx
    29c2:	89 44 24 14          	mov    %eax,0x14(%esp)
    29c6:	8b 45 d8             	mov    -0x28(%ebp),%eax
    29c9:	89 54 24 10          	mov    %edx,0x10(%esp)
    29cd:	89 4c 24 08          	mov    %ecx,0x8(%esp)
    29d1:	89 7c 24 04          	mov    %edi,0x4(%esp)
    29d5:	89 44 24 0c          	mov    %eax,0xc(%esp)
    29d9:	c7 04 24 0c 1e 02 00 	movl   $0x21e0c,(%esp)
    29e0:	e8 ab d7 00 00       	call   10190 <printf>
    29e5:	e8 66 cb 01 00       	call   1f550 <stacktrace_print>
    29ea:	83 c4 4c             	add    $0x4c,%esp
    29ed:	89 f8                	mov    %edi,%eax
    29ef:	5b                   	pop    %ebx
    29f0:	5e                   	pop    %esi
    29f1:	5f                   	pop    %edi
    29f2:	5d                   	pop    %ebp
    29f3:	c3                   	ret    
    29f4:	31 ff                	xor    %edi,%edi
    29f6:	eb af                	jmp    29a7 <block_cache_fini+0x157>
    29f8:	8b 55 e0             	mov    -0x20(%ebp),%edx
    29fb:	8d 7a 20             	lea    0x20(%edx),%edi
    29fe:	e9 6f ff ff ff       	jmp    2972 <block_cache_fini+0x122>
    2a03:	8d b6 00 00 00 00    	lea    0x0(%esi),%esi
    2a09:	8d bc 27 00 00 00 00 	lea    0x0(%edi,%eiz,1),%edi

00002a10 <block_fini>:
    2a10:	55                   	push   %ebp
    2a11:	89 e5                	mov    %esp,%ebp
    2a13:	56                   	push   %esi
    2a14:	53                   	push   %ebx
    2a15:	83 ec 10             	sub    $0x10,%esp
    2a18:	8b 75 08             	mov    0x8(%ebp),%esi
    2a1b:	c7 04 24 64 48 02 00 	movl   $0x24864,(%esp)
    2a22:	e8 d9 97 00 00       	call   c200 <fibril_mutex_lock>
    2a27:	8b 1d 78 48 02 00    	mov    0x24878,%ebx
    2a2d:	81 fb 74 48 02 00    	cmp    $0x24874,%ebx
    2a33:	75 1a                	jne    2a4f <block_fini+0x3f>
    2a35:	e9 a6 00 00 00       	jmp    2ae0 <block_fini+0xd0>
    2a3a:	8d b6 00 00 00 00    	lea    0x0(%esi),%esi
    2a40:	8b 5b 04             	mov    0x4(%ebx),%ebx
    2a43:	81 fb 74 48 02 00    	cmp    $0x24874,%ebx
    2a49:	0f 84 91 00 00 00    	je     2ae0 <block_fini+0xd0>
    2a4f:	3b 73 08             	cmp    0x8(%ebx),%esi
    2a52:	75 ec                	jne    2a40 <block_fini+0x30>
    2a54:	c7 04 24 64 48 02 00 	movl   $0x24864,(%esp)
    2a5b:	e8 c0 98 00 00       	call   c320 <fibril_mutex_unlock>
    2a60:	8b 4b 24             	mov    0x24(%ebx),%ecx
    2a63:	85 c9                	test   %ecx,%ecx
    2a65:	74 08                	je     2a6f <block_fini+0x5f>
    2a67:	89 34 24             	mov    %esi,(%esp)
    2a6a:	e8 e1 fd ff ff       	call   2850 <block_cache_fini>
    2a6f:	c7 04 24 64 48 02 00 	movl   $0x24864,(%esp)
    2a76:	e8 85 97 00 00       	call   c200 <fibril_mutex_lock>
    2a7b:	8b 13                	mov    (%ebx),%edx
    2a7d:	85 d2                	test   %edx,%edx
    2a7f:	74 0e                	je     2a8f <block_fini+0x7f>
    2a81:	8b 43 04             	mov    0x4(%ebx),%eax
    2a84:	85 c0                	test   %eax,%eax
    2a86:	74 07                	je     2a8f <block_fini+0x7f>
    2a88:	89 10                	mov    %edx,(%eax)
    2a8a:	8b 13                	mov    (%ebx),%edx
    2a8c:	89 42 04             	mov    %eax,0x4(%edx)
    2a8f:	c7 03 00 00 00 00    	movl   $0x0,(%ebx)
    2a95:	c7 43 04 00 00 00 00 	movl   $0x0,0x4(%ebx)
    2a9c:	c7 04 24 64 48 02 00 	movl   $0x24864,(%esp)
    2aa3:	e8 78 98 00 00       	call   c320 <fibril_mutex_unlock>
    2aa8:	8b 43 14             	mov    0x14(%ebx),%eax
    2aab:	85 c0                	test   %eax,%eax
    2aad:	74 08                	je     2ab7 <block_fini+0xa7>
    2aaf:	89 04 24             	mov    %eax,(%esp)
    2ab2:	e8 69 24 01 00       	call   14f20 <free>
    2ab7:	8b 43 10             	mov    0x10(%ebx),%eax
    2aba:	89 04 24             	mov    %eax,(%esp)
    2abd:	e8 ae 28 00 00       	call   5370 <bd_close>
    2ac2:	8b 43 0c             	mov    0xc(%ebx),%eax
    2ac5:	89 04 24             	mov    %eax,(%esp)
    2ac8:	e8 83 57 01 00       	call   18250 <async_hangup>
    2acd:	89 5d 08             	mov    %ebx,0x8(%ebp)
    2ad0:	83 c4 10             	add    $0x10,%esp
    2ad3:	5b                   	pop    %ebx
    2ad4:	5e                   	pop    %esi
    2ad5:	5d                   	pop    %ebp
    2ad6:	e9 45 24 01 00       	jmp    14f20 <free>
    2adb:	90                   	nop
    2adc:	8d 74 26 00          	lea    0x0(%esi,%eiz,1),%esi
    2ae0:	c7 04 24 64 48 02 00 	movl   $0x24864,(%esp)
    2ae7:	e8 34 98 00 00       	call   c320 <fibril_mutex_unlock>
    2aec:	c7 44 24 08 b8 00 00 	movl   $0xb8,0x8(%esp)
    2af3:	00 
    2af4:	c7 44 24 04 6f 1d 02 	movl   $0x21d6f,0x4(%esp)
    2afb:	00 
    2afc:	c7 04 24 77 1d 02 00 	movl   $0x21d77,(%esp)
    2b03:	e8 e8 ca 01 00       	call   1f5f0 <assert_abort>
    2b08:	90                   	nop
    2b09:	8d b4 26 00 00 00 00 	lea    0x0(%esi,%eiz,1),%esi

00002b10 <block_put>:
    2b10:	55                   	push   %ebp
    2b11:	89 e5                	mov    %esp,%ebp
    2b13:	57                   	push   %edi
    2b14:	56                   	push   %esi
    2b15:	53                   	push   %ebx
    2b16:	83 ec 3c             	sub    $0x3c,%esp
    2b19:	8b 7d 08             	mov    0x8(%ebp),%edi
    2b1c:	8b 5f 2c             	mov    0x2c(%edi),%ebx
    2b1f:	c7 04 24 64 48 02 00 	movl   $0x24864,(%esp)
    2b26:	e8 d5 96 00 00       	call   c200 <fibril_mutex_lock>
    2b2b:	8b 35 78 48 02 00    	mov    0x24878,%esi
    2b31:	81 fe 74 48 02 00    	cmp    $0x24874,%esi
    2b37:	75 16                	jne    2b4f <block_put+0x3f>
    2b39:	e9 fa 00 00 00       	jmp    2c38 <block_put+0x128>
    2b3e:	66 90                	xchg   %ax,%ax
    2b40:	8b 76 04             	mov    0x4(%esi),%esi
    2b43:	81 fe 74 48 02 00    	cmp    $0x24874,%esi
    2b49:	0f 84 e9 00 00 00    	je     2c38 <block_put+0x128>
    2b4f:	3b 5e 08             	cmp    0x8(%esi),%ebx
    2b52:	75 ec                	jne    2b40 <block_put+0x30>
    2b54:	c7 04 24 64 48 02 00 	movl   $0x24864,(%esp)
    2b5b:	e8 c0 97 00 00       	call   c320 <fibril_mutex_unlock>
    2b60:	8b 5e 24             	mov    0x24(%esi),%ebx
    2b63:	85 db                	test   %ebx,%ebx
    2b65:	0f 84 10 02 00 00    	je     2d7b <block_put+0x26b>
    2b6b:	8b 47 10             	mov    0x10(%edi),%eax
    2b6e:	85 c0                	test   %eax,%eax
    2b70:	0f 84 21 02 00 00    	je     2d97 <block_put+0x287>
    2b76:	c7 45 dc 00 00 00 00 	movl   $0x0,-0x24(%ebp)
    2b7d:	89 75 d8             	mov    %esi,-0x28(%ebp)
    2b80:	eb 7b                	jmp    2bfd <block_put+0xed>
    2b82:	8d b6 00 00 00 00    	lea    0x0(%esi),%esi
    2b88:	80 7f 14 00          	cmpb   $0x0,0x14(%edi)
    2b8c:	74 0a                	je     2b98 <block_put+0x88>
    2b8e:	83 7f 10 01          	cmpl   $0x1,0x10(%edi)
    2b92:	0f 84 18 01 00 00    	je     2cb0 <block_put+0x1a0>
    2b98:	89 3c 24             	mov    %edi,(%esp)
    2b9b:	e8 80 97 00 00       	call   c320 <fibril_mutex_unlock>
    2ba0:	89 1c 24             	mov    %ebx,(%esp)
    2ba3:	e8 58 96 00 00       	call   c200 <fibril_mutex_lock>
    2ba8:	89 3c 24             	mov    %edi,(%esp)
    2bab:	e8 50 96 00 00       	call   c200 <fibril_mutex_lock>
    2bb0:	8b 4f 10             	mov    0x10(%edi),%ecx
    2bb3:	8d 41 ff             	lea    -0x1(%ecx),%eax
    2bb6:	89 47 10             	mov    %eax,0x10(%edi)
    2bb9:	85 c0                	test   %eax,%eax
    2bbb:	0f 85 9f 01 00 00    	jne    2d60 <block_put+0x250>
    2bc1:	83 7b 1c 14          	cmpl   $0x14,0x1c(%ebx)
    2bc5:	0f 87 95 00 00 00    	ja     2c60 <block_put+0x150>
    2bcb:	8b 45 dc             	mov    -0x24(%ebp),%eax
    2bce:	85 c0                	test   %eax,%eax
    2bd0:	0f 85 8a 00 00 00    	jne    2c60 <block_put+0x150>
    2bd6:	83 7b 44 01          	cmpl   $0x1,0x44(%ebx)
    2bda:	0f 84 68 01 00 00    	je     2d48 <block_put+0x238>
    2be0:	80 7f 14 00          	cmpb   $0x0,0x14(%edi)
    2be4:	0f 84 5e 01 00 00    	je     2d48 <block_put+0x238>
    2bea:	89 4f 10             	mov    %ecx,0x10(%edi)
    2bed:	89 3c 24             	mov    %edi,(%esp)
    2bf0:	e8 2b 97 00 00       	call   c320 <fibril_mutex_unlock>
    2bf5:	89 1c 24             	mov    %ebx,(%esp)
    2bf8:	e8 23 97 00 00       	call   c320 <fibril_mutex_unlock>
    2bfd:	89 1c 24             	mov    %ebx,(%esp)
    2c00:	e8 fb 95 00 00       	call   c200 <fibril_mutex_lock>
    2c05:	8b 43 1c             	mov    0x1c(%ebx),%eax
    2c08:	8b 73 44             	mov    0x44(%ebx),%esi
    2c0b:	89 1c 24             	mov    %ebx,(%esp)
    2c0e:	89 45 e0             	mov    %eax,-0x20(%ebp)
    2c11:	e8 0a 97 00 00       	call   c320 <fibril_mutex_unlock>
    2c16:	89 3c 24             	mov    %edi,(%esp)
    2c19:	e8 e2 95 00 00       	call   c200 <fibril_mutex_lock>
    2c1e:	80 7f 15 00          	cmpb   $0x0,0x15(%edi)
    2c22:	0f 84 60 ff ff ff    	je     2b88 <block_put+0x78>
    2c28:	c6 47 14 00          	movb   $0x0,0x14(%edi)
    2c2c:	e9 67 ff ff ff       	jmp    2b98 <block_put+0x88>
    2c31:	8d b4 26 00 00 00 00 	lea    0x0(%esi,%eiz,1),%esi
    2c38:	c7 04 24 64 48 02 00 	movl   $0x24864,(%esp)
    2c3f:	e8 dc 96 00 00       	call   c320 <fibril_mutex_unlock>
    2c44:	c7 44 24 08 2d 02 00 	movl   $0x22d,0x8(%esp)
    2c4b:	00 
    2c4c:	c7 44 24 04 6f 1d 02 	movl   $0x21d6f,0x4(%esp)
    2c53:	00 
    2c54:	c7 04 24 77 1d 02 00 	movl   $0x21d77,(%esp)
    2c5b:	e8 90 c9 01 00       	call   1f5f0 <assert_abort>
    2c60:	80 7f 14 00          	cmpb   $0x0,0x14(%edi)
    2c64:	75 84                	jne    2bea <block_put+0xda>
    2c66:	8d 47 4c             	lea    0x4c(%edi),%eax
    2c69:	89 44 24 04          	mov    %eax,0x4(%esp)
    2c6d:	8d 43 20             	lea    0x20(%ebx),%eax
    2c70:	89 04 24             	mov    %eax,(%esp)
    2c73:	e8 c8 86 01 00       	call   1b340 <hash_table_remove_item>
    2c78:	89 3c 24             	mov    %edi,(%esp)
    2c7b:	e8 a0 96 00 00       	call   c320 <fibril_mutex_unlock>
    2c80:	8b 47 54             	mov    0x54(%edi),%eax
    2c83:	89 04 24             	mov    %eax,(%esp)
    2c86:	e8 95 22 01 00       	call   14f20 <free>
    2c8b:	89 3c 24             	mov    %edi,(%esp)
    2c8e:	e8 8d 22 01 00       	call   14f20 <free>
    2c93:	8b 73 1c             	mov    0x1c(%ebx),%esi
    2c96:	4e                   	dec    %esi
    2c97:	89 73 1c             	mov    %esi,0x1c(%ebx)
    2c9a:	89 1c 24             	mov    %ebx,(%esp)
    2c9d:	e8 7e 96 00 00       	call   c320 <fibril_mutex_unlock>
    2ca2:	8b 45 dc             	mov    -0x24(%ebp),%eax
    2ca5:	83 c4 3c             	add    $0x3c,%esp
    2ca8:	5b                   	pop    %ebx
    2ca9:	5e                   	pop    %esi
    2caa:	5f                   	pop    %edi
    2cab:	5d                   	pop    %ebp
    2cac:	c3                   	ret    
    2cad:	8d 76 00             	lea    0x0(%esi),%esi
    2cb0:	4e                   	dec    %esi
    2cb1:	75 0a                	jne    2cbd <block_put+0x1ad>
    2cb3:	83 7d e0 14          	cmpl   $0x14,-0x20(%ebp)
    2cb7:	0f 86 db fe ff ff    	jbe    2b98 <block_put+0x88>
    2cbd:	8b 47 38             	mov    0x38(%edi),%eax
    2cc0:	8b 57 3c             	mov    0x3c(%edi),%edx
    2cc3:	89 45 e0             	mov    %eax,-0x20(%ebp)
    2cc6:	8b 47 40             	mov    0x40(%edi),%eax
    2cc9:	8b 73 14             	mov    0x14(%ebx),%esi
    2ccc:	89 55 e4             	mov    %edx,-0x1c(%ebp)
    2ccf:	89 44 24 14          	mov    %eax,0x14(%esp)
    2cd3:	8b 55 e4             	mov    -0x1c(%ebp),%edx
    2cd6:	8b 47 54             	mov    0x54(%edi),%eax
    2cd9:	89 54 24 08          	mov    %edx,0x8(%esp)
    2cdd:	89 44 24 10          	mov    %eax,0x10(%esp)
    2ce1:	8b 55 d8             	mov    -0x28(%ebp),%edx
    2ce4:	8b 45 e0             	mov    -0x20(%ebp),%eax
    2ce7:	89 74 24 0c          	mov    %esi,0xc(%esp)
    2ceb:	89 44 24 04          	mov    %eax,0x4(%esp)
    2cef:	8b 42 10             	mov    0x10(%edx),%eax
    2cf2:	89 04 24             	mov    %eax,(%esp)
    2cf5:	e8 f6 27 00 00       	call   54f0 <bd_write_blocks>
    2cfa:	89 45 dc             	mov    %eax,-0x24(%ebp)
    2cfd:	85 c0                	test   %eax,%eax
    2cff:	0f 84 23 ff ff ff    	je     2c28 <block_put+0x118>
    2d05:	8b 55 d8             	mov    -0x28(%ebp),%edx
    2d08:	8b 42 08             	mov    0x8(%edx),%eax
    2d0b:	8b 55 e4             	mov    -0x1c(%ebp),%edx
    2d0e:	89 44 24 14          	mov    %eax,0x14(%esp)
    2d12:	8b 45 e0             	mov    -0x20(%ebp),%eax
    2d15:	89 44 24 0c          	mov    %eax,0xc(%esp)
    2d19:	8b 45 dc             	mov    -0x24(%ebp),%eax
    2d1c:	89 54 24 10          	mov    %edx,0x10(%esp)
    2d20:	89 74 24 08          	mov    %esi,0x8(%esp)
    2d24:	89 44 24 04          	mov    %eax,0x4(%esp)
    2d28:	c7 04 24 0c 1e 02 00 	movl   $0x21e0c,(%esp)
    2d2f:	e8 5c d4 00 00       	call   10190 <printf>
    2d34:	e8 17 c8 01 00       	call   1f550 <stacktrace_print>
    2d39:	c6 47 14 00          	movb   $0x0,0x14(%edi)
    2d3d:	e9 56 fe ff ff       	jmp    2b98 <block_put+0x88>
    2d42:	8d b6 00 00 00 00    	lea    0x0(%esi),%esi
    2d48:	8d 4b 3c             	lea    0x3c(%ebx),%ecx
    2d4b:	8d 47 44             	lea    0x44(%edi),%eax
    2d4e:	89 4f 48             	mov    %ecx,0x48(%edi)
    2d51:	8b 4b 3c             	mov    0x3c(%ebx),%ecx
    2d54:	89 4f 44             	mov    %ecx,0x44(%edi)
    2d57:	8b 4b 3c             	mov    0x3c(%ebx),%ecx
    2d5a:	89 43 3c             	mov    %eax,0x3c(%ebx)
    2d5d:	89 41 04             	mov    %eax,0x4(%ecx)
    2d60:	89 3c 24             	mov    %edi,(%esp)
    2d63:	e8 b8 95 00 00       	call   c320 <fibril_mutex_unlock>
    2d68:	89 1c 24             	mov    %ebx,(%esp)
    2d6b:	e8 b0 95 00 00       	call   c320 <fibril_mutex_unlock>
    2d70:	8b 45 dc             	mov    -0x24(%ebp),%eax
    2d73:	83 c4 3c             	add    $0x3c,%esp
    2d76:	5b                   	pop    %ebx
    2d77:	5e                   	pop    %esi
    2d78:	5f                   	pop    %edi
    2d79:	5d                   	pop    %ebp
    2d7a:	c3                   	ret    
    2d7b:	c7 44 24 08 2e 02 00 	movl   $0x22e,0x8(%esp)
    2d82:	00 
    2d83:	c7 44 24 04 6f 1d 02 	movl   $0x21d6f,0x4(%esp)
    2d8a:	00 
    2d8b:	c7 04 24 7e 1d 02 00 	movl   $0x21d7e,(%esp)
    2d92:	e8 59 c8 01 00       	call   1f5f0 <assert_abort>
    2d97:	c7 44 24 08 2f 02 00 	movl   $0x22f,0x8(%esp)
    2d9e:	00 
    2d9f:	c7 44 24 04 6f 1d 02 	movl   $0x21d6f,0x4(%esp)
    2da6:	00 
    2da7:	c7 04 24 8c 1d 02 00 	movl   $0x21d8c,(%esp)
    2dae:	e8 3d c8 01 00       	call   1f5f0 <assert_abort>
    2db3:	8d b6 00 00 00 00    	lea    0x0(%esi),%esi
    2db9:	8d bc 27 00 00 00 00 	lea    0x0(%edi,%eiz,1),%edi

00002dc0 <block_get>:
    2dc0:	55                   	push   %ebp
    2dc1:	89 e5                	mov    %esp,%ebp
    2dc3:	57                   	push   %edi
    2dc4:	56                   	push   %esi
    2dc5:	53                   	push   %ebx
    2dc6:	83 ec 5c             	sub    $0x5c,%esp
    2dc9:	8b 45 10             	mov    0x10(%ebp),%eax
    2dcc:	89 45 e0             	mov    %eax,-0x20(%ebp)
    2dcf:	c7 04 24 64 48 02 00 	movl   $0x24864,(%esp)
    2dd6:	8b 45 14             	mov    0x14(%ebp),%eax
    2dd9:	89 45 e4             	mov    %eax,-0x1c(%ebp)
    2ddc:	e8 1f 94 00 00       	call   c200 <fibril_mutex_lock>
    2de1:	8b 35 78 48 02 00    	mov    0x24878,%esi
    2de7:	81 fe 74 48 02 00    	cmp    $0x24874,%esi
    2ded:	74 21                	je     2e10 <block_get+0x50>
    2def:	8b 55 0c             	mov    0xc(%ebp),%edx
    2df2:	89 d0                	mov    %edx,%eax
    2df4:	3b 56 08             	cmp    0x8(%esi),%edx
    2df7:	75 0c                	jne    2e05 <block_get+0x45>
    2df9:	eb 3d                	jmp    2e38 <block_get+0x78>
    2dfb:	90                   	nop
    2dfc:	8d 74 26 00          	lea    0x0(%esi,%eiz,1),%esi
    2e00:	3b 46 08             	cmp    0x8(%esi),%eax
    2e03:	74 33                	je     2e38 <block_get+0x78>
    2e05:	8b 76 04             	mov    0x4(%esi),%esi
    2e08:	81 fe 74 48 02 00    	cmp    $0x24874,%esi
    2e0e:	75 f0                	jne    2e00 <block_get+0x40>
    2e10:	c7 04 24 64 48 02 00 	movl   $0x24864,(%esp)
    2e17:	e8 04 95 00 00       	call   c320 <fibril_mutex_unlock>
    2e1c:	c7 44 24 08 80 01 00 	movl   $0x180,0x8(%esp)
    2e23:	00 
    2e24:	c7 44 24 04 6f 1d 02 	movl   $0x21d6f,0x4(%esp)
    2e2b:	00 
    2e2c:	c7 04 24 77 1d 02 00 	movl   $0x21d77,(%esp)
    2e33:	e8 b8 c7 01 00       	call   1f5f0 <assert_abort>
    2e38:	c7 04 24 64 48 02 00 	movl   $0x24864,(%esp)
    2e3f:	e8 dc 94 00 00       	call   c320 <fibril_mutex_unlock>
    2e44:	8b 5e 24             	mov    0x24(%esi),%ebx
    2e47:	85 db                	test   %ebx,%ebx
    2e49:	0f 84 36 04 00 00    	je     3285 <block_get+0x4c5>
    2e4f:	8d 4b 20             	lea    0x20(%ebx),%ecx
    2e52:	8d 53 3c             	lea    0x3c(%ebx),%edx
    2e55:	89 4d c8             	mov    %ecx,-0x38(%ebp)
    2e58:	89 55 d8             	mov    %edx,-0x28(%ebp)
    2e5b:	89 75 cc             	mov    %esi,-0x34(%ebp)
    2e5e:	66 90                	xchg   %ax,%ax
    2e60:	89 1c 24             	mov    %ebx,(%esp)
    2e63:	e8 98 93 00 00       	call   c200 <fibril_mutex_lock>
    2e68:	8d 4d e0             	lea    -0x20(%ebp),%ecx
    2e6b:	89 4c 24 04          	mov    %ecx,0x4(%esp)
    2e6f:	8b 4d c8             	mov    -0x38(%ebp),%ecx
    2e72:	89 0c 24             	mov    %ecx,(%esp)
    2e75:	e8 46 82 01 00       	call   1b0c0 <hash_table_find>
    2e7a:	85 c0                	test   %eax,%eax
    2e7c:	0f 85 9b 01 00 00    	jne    301d <block_get+0x25d>
    2e82:	83 7b 1c 09          	cmpl   $0x9,0x1c(%ebx)
    2e86:	0f 86 c4 00 00 00    	jbe    2f50 <block_get+0x190>
    2e8c:	8b 53 40             	mov    0x40(%ebx),%edx
    2e8f:	3b 55 d8             	cmp    -0x28(%ebp),%edx
    2e92:	0f 84 b8 00 00 00    	je     2f50 <block_get+0x190>
    2e98:	8d 72 bc             	lea    -0x44(%edx),%esi
    2e9b:	89 34 24             	mov    %esi,(%esp)
    2e9e:	e8 5d 93 00 00       	call   c200 <fibril_mutex_lock>
    2ea3:	80 7e 14 00          	cmpb   $0x0,0x14(%esi)
    2ea7:	0f 84 13 02 00 00    	je     30c0 <block_get+0x300>
    2ead:	8b 4e 44             	mov    0x44(%esi),%ecx
    2eb0:	85 c9                	test   %ecx,%ecx
    2eb2:	74 0f                	je     2ec3 <block_get+0x103>
    2eb4:	8b 46 48             	mov    0x48(%esi),%eax
    2eb7:	85 c0                	test   %eax,%eax
    2eb9:	74 08                	je     2ec3 <block_get+0x103>
    2ebb:	89 08                	mov    %ecx,(%eax)
    2ebd:	8b 4e 44             	mov    0x44(%esi),%ecx
    2ec0:	89 41 04             	mov    %eax,0x4(%ecx)
    2ec3:	c7 46 44 00 00 00 00 	movl   $0x0,0x44(%esi)
    2eca:	8d 46 44             	lea    0x44(%esi),%eax
    2ecd:	8b 4b 3c             	mov    0x3c(%ebx),%ecx
    2ed0:	8b 55 d8             	mov    -0x28(%ebp),%edx
    2ed3:	89 4e 44             	mov    %ecx,0x44(%esi)
    2ed6:	89 56 48             	mov    %edx,0x48(%esi)
    2ed9:	8b 4b 3c             	mov    0x3c(%ebx),%ecx
    2edc:	89 43 3c             	mov    %eax,0x3c(%ebx)
    2edf:	89 41 04             	mov    %eax,0x4(%ecx)
    2ee2:	89 1c 24             	mov    %ebx,(%esp)
    2ee5:	e8 36 94 00 00       	call   c320 <fibril_mutex_unlock>
    2eea:	8b 46 40             	mov    0x40(%esi),%eax
    2eed:	8b 4e 3c             	mov    0x3c(%esi),%ecx
    2ef0:	8b 56 38             	mov    0x38(%esi),%edx
    2ef3:	8b 7b 14             	mov    0x14(%ebx),%edi
    2ef6:	89 44 24 14          	mov    %eax,0x14(%esp)
    2efa:	8b 46 54             	mov    0x54(%esi),%eax
    2efd:	89 4d d4             	mov    %ecx,-0x2c(%ebp)
    2f00:	89 4c 24 08          	mov    %ecx,0x8(%esp)
    2f04:	8b 4d cc             	mov    -0x34(%ebp),%ecx
    2f07:	89 44 24 10          	mov    %eax,0x10(%esp)
    2f0b:	89 7c 24 0c          	mov    %edi,0xc(%esp)
    2f0f:	89 54 24 04          	mov    %edx,0x4(%esp)
    2f13:	89 55 d0             	mov    %edx,-0x30(%ebp)
    2f16:	8b 41 10             	mov    0x10(%ecx),%eax
    2f19:	89 04 24             	mov    %eax,(%esp)
    2f1c:	e8 cf 25 00 00       	call   54f0 <bd_write_blocks>
    2f21:	85 c0                	test   %eax,%eax
    2f23:	0f 85 87 00 00 00    	jne    2fb0 <block_get+0x1f0>
    2f29:	c6 46 14 00          	movb   $0x0,0x14(%esi)
    2f2d:	89 1c 24             	mov    %ebx,(%esp)
    2f30:	e8 9b 93 00 00       	call   c2d0 <fibril_mutex_trylock>
    2f35:	84 c0                	test   %al,%al
    2f37:	0f 85 b3 00 00 00    	jne    2ff0 <block_get+0x230>
    2f3d:	89 34 24             	mov    %esi,(%esp)
    2f40:	e8 db 93 00 00       	call   c320 <fibril_mutex_unlock>
    2f45:	e9 16 ff ff ff       	jmp    2e60 <block_get+0xa0>
    2f4a:	8d b6 00 00 00 00    	lea    0x0(%esi),%esi
    2f50:	c7 04 24 58 00 00 00 	movl   $0x58,(%esp)
    2f57:	e8 b4 1e 01 00       	call   14e10 <malloc>
    2f5c:	89 c6                	mov    %eax,%esi
    2f5e:	85 c0                	test   %eax,%eax
    2f60:	74 1e                	je     2f80 <block_get+0x1c0>
    2f62:	8b 43 10             	mov    0x10(%ebx),%eax
    2f65:	89 04 24             	mov    %eax,(%esp)
    2f68:	e8 a3 1e 01 00       	call   14e10 <malloc>
    2f6d:	89 46 54             	mov    %eax,0x54(%esi)
    2f70:	85 c0                	test   %eax,%eax
    2f72:	0f 85 c4 02 00 00    	jne    323c <block_get+0x47c>
    2f78:	89 34 24             	mov    %esi,(%esp)
    2f7b:	e8 a0 1f 01 00       	call   14f20 <free>
    2f80:	8b 53 40             	mov    0x40(%ebx),%edx
    2f83:	3b 55 d8             	cmp    -0x28(%ebp),%edx
    2f86:	0f 85 0c ff ff ff    	jne    2e98 <block_get+0xd8>
    2f8c:	89 1c 24             	mov    %ebx,(%esp)
    2f8f:	31 ff                	xor    %edi,%edi
    2f91:	e8 8a 93 00 00       	call   c320 <fibril_mutex_unlock>
    2f96:	b9 fe ff ff ff       	mov    $0xfffffffe,%ecx
    2f9b:	8b 45 08             	mov    0x8(%ebp),%eax
    2f9e:	89 38                	mov    %edi,(%eax)
    2fa0:	83 c4 5c             	add    $0x5c,%esp
    2fa3:	89 c8                	mov    %ecx,%eax
    2fa5:	5b                   	pop    %ebx
    2fa6:	5e                   	pop    %esi
    2fa7:	5f                   	pop    %edi
    2fa8:	5d                   	pop    %ebp
    2fa9:	c3                   	ret    
    2faa:	8d b6 00 00 00 00    	lea    0x0(%esi),%esi
    2fb0:	8b 4d cc             	mov    -0x34(%ebp),%ecx
    2fb3:	8b 51 08             	mov    0x8(%ecx),%edx
    2fb6:	8b 4d d4             	mov    -0x2c(%ebp),%ecx
    2fb9:	89 54 24 14          	mov    %edx,0x14(%esp)
    2fbd:	8b 55 d0             	mov    -0x30(%ebp),%edx
    2fc0:	89 54 24 0c          	mov    %edx,0xc(%esp)
    2fc4:	89 4c 24 10          	mov    %ecx,0x10(%esp)
    2fc8:	89 7c 24 08          	mov    %edi,0x8(%esp)
    2fcc:	89 44 24 04          	mov    %eax,0x4(%esp)
    2fd0:	c7 04 24 0c 1e 02 00 	movl   $0x21e0c,(%esp)
    2fd7:	e8 b4 d1 00 00       	call   10190 <printf>
    2fdc:	e8 6f c5 01 00       	call   1f550 <stacktrace_print>
    2fe1:	89 34 24             	mov    %esi,(%esp)
    2fe4:	e8 37 93 00 00       	call   c320 <fibril_mutex_unlock>
    2fe9:	e9 72 fe ff ff       	jmp    2e60 <block_get+0xa0>
    2fee:	66 90                	xchg   %ax,%ax
    2ff0:	8d 4d e0             	lea    -0x20(%ebp),%ecx
    2ff3:	89 f7                	mov    %esi,%edi
    2ff5:	89 4c 24 04          	mov    %ecx,0x4(%esp)
    2ff9:	8b 4d c8             	mov    -0x38(%ebp),%ecx
    2ffc:	89 0c 24             	mov    %ecx,(%esp)
    2fff:	8b 75 cc             	mov    -0x34(%ebp),%esi
    3002:	e8 b9 80 01 00       	call   1b0c0 <hash_table_find>
    3007:	85 c0                	test   %eax,%eax
    3009:	0f 84 b6 00 00 00    	je     30c5 <block_get+0x305>
    300f:	89 3c 24             	mov    %edi,(%esp)
    3012:	89 45 c0             	mov    %eax,-0x40(%ebp)
    3015:	e8 06 93 00 00       	call   c320 <fibril_mutex_unlock>
    301a:	8b 45 c0             	mov    -0x40(%ebp),%eax
    301d:	8d 78 b4             	lea    -0x4c(%eax),%edi
    3020:	89 3c 24             	mov    %edi,(%esp)
    3023:	e8 d8 91 00 00       	call   c200 <fibril_mutex_lock>
    3028:	8b 47 10             	mov    0x10(%edi),%eax
    302b:	8d 50 01             	lea    0x1(%eax),%edx
    302e:	85 c0                	test   %eax,%eax
    3030:	89 57 10             	mov    %edx,0x10(%edi)
    3033:	75 24                	jne    3059 <block_get+0x299>
    3035:	8b 57 44             	mov    0x44(%edi),%edx
    3038:	85 d2                	test   %edx,%edx
    303a:	74 0f                	je     304b <block_get+0x28b>
    303c:	8b 47 48             	mov    0x48(%edi),%eax
    303f:	85 c0                	test   %eax,%eax
    3041:	74 08                	je     304b <block_get+0x28b>
    3043:	89 10                	mov    %edx,(%eax)
    3045:	8b 57 44             	mov    0x44(%edi),%edx
    3048:	89 42 04             	mov    %eax,0x4(%edx)
    304b:	c7 47 44 00 00 00 00 	movl   $0x0,0x44(%edi)
    3052:	c7 47 48 00 00 00 00 	movl   $0x0,0x48(%edi)
    3059:	80 7f 15 01          	cmpb   $0x1,0x15(%edi)
    305d:	19 c0                	sbb    %eax,%eax
    305f:	40                   	inc    %eax
    3060:	80 7f 15 01          	cmpb   $0x1,0x15(%edi)
    3064:	19 c9                	sbb    %ecx,%ecx
    3066:	89 3c 24             	mov    %edi,(%esp)
    3069:	83 f1 ff             	xor    $0xffffffff,%ecx
    306c:	88 45 c0             	mov    %al,-0x40(%ebp)
    306f:	81 e1 f7 fe ff ff    	and    $0xfffffef7,%ecx
    3075:	89 4d c4             	mov    %ecx,-0x3c(%ebp)
    3078:	e8 a3 92 00 00       	call   c320 <fibril_mutex_unlock>
    307d:	89 1c 24             	mov    %ebx,(%esp)
    3080:	e8 9b 92 00 00       	call   c320 <fibril_mutex_unlock>
    3085:	8a 45 c0             	mov    -0x40(%ebp),%al
    3088:	8b 4d c4             	mov    -0x3c(%ebp),%ecx
    308b:	84 c0                	test   %al,%al
    308d:	0f 84 08 ff ff ff    	je     2f9b <block_get+0x1db>
    3093:	80 7f 15 00          	cmpb   $0x0,0x15(%edi)
    3097:	0f 84 b0 01 00 00    	je     324d <block_get+0x48d>
    309d:	89 3c 24             	mov    %edi,(%esp)
    30a0:	89 4d c4             	mov    %ecx,-0x3c(%ebp)
    30a3:	e8 68 fa ff ff       	call   2b10 <block_put>
    30a8:	8b 45 08             	mov    0x8(%ebp),%eax
    30ab:	31 ff                	xor    %edi,%edi
    30ad:	8b 4d c4             	mov    -0x3c(%ebp),%ecx
    30b0:	89 38                	mov    %edi,(%eax)
    30b2:	83 c4 5c             	add    $0x5c,%esp
    30b5:	89 c8                	mov    %ecx,%eax
    30b7:	5b                   	pop    %ebx
    30b8:	5e                   	pop    %esi
    30b9:	5f                   	pop    %edi
    30ba:	5d                   	pop    %ebp
    30bb:	c3                   	ret    
    30bc:	8d 74 26 00          	lea    0x0(%esi,%eiz,1),%esi
    30c0:	89 f7                	mov    %esi,%edi
    30c2:	8b 75 cc             	mov    -0x34(%ebp),%esi
    30c5:	89 3c 24             	mov    %edi,(%esp)
    30c8:	e8 53 92 00 00       	call   c320 <fibril_mutex_unlock>
    30cd:	8b 57 44             	mov    0x44(%edi),%edx
    30d0:	85 d2                	test   %edx,%edx
    30d2:	74 0f                	je     30e3 <block_get+0x323>
    30d4:	8b 47 48             	mov    0x48(%edi),%eax
    30d7:	85 c0                	test   %eax,%eax
    30d9:	74 08                	je     30e3 <block_get+0x323>
    30db:	89 10                	mov    %edx,(%eax)
    30dd:	8b 57 44             	mov    0x44(%edi),%edx
    30e0:	89 42 04             	mov    %eax,0x4(%edx)
    30e3:	8d 47 4c             	lea    0x4c(%edi),%eax
    30e6:	8b 4d c8             	mov    -0x38(%ebp),%ecx
    30e9:	c7 47 44 00 00 00 00 	movl   $0x0,0x44(%edi)
    30f0:	c7 47 48 00 00 00 00 	movl   $0x0,0x48(%edi)
    30f7:	89 44 24 04          	mov    %eax,0x4(%esp)
    30fb:	89 0c 24             	mov    %ecx,(%esp)
    30fe:	e8 3d 82 01 00       	call   1b340 <hash_table_remove_item>
    3103:	89 3c 24             	mov    %edi,(%esp)
    3106:	e8 d5 90 00 00       	call   c1e0 <fibril_mutex_initialize>
    310b:	8d 47 18             	lea    0x18(%edi),%eax
    310e:	c7 47 10 01 00 00 00 	movl   $0x1,0x10(%edi)
    3115:	c6 47 14 00          	movb   $0x0,0x14(%edi)
    3119:	c6 47 15 00          	movb   $0x0,0x15(%edi)
    311d:	89 04 24             	mov    %eax,(%esp)
    3120:	e8 4b 93 00 00       	call   c470 <fibril_rwlock_initialize>
    3125:	8b 4d e0             	mov    -0x20(%ebp),%ecx
    3128:	8b 43 10             	mov    0x10(%ebx),%eax
    312b:	89 4d d8             	mov    %ecx,-0x28(%ebp)
    312e:	c7 47 44 00 00 00 00 	movl   $0x0,0x44(%edi)
    3135:	c7 47 48 00 00 00 00 	movl   $0x0,0x48(%edi)
    313c:	89 47 40             	mov    %eax,0x40(%edi)
    313f:	8b 45 d8             	mov    -0x28(%ebp),%eax
    3142:	8b 55 0c             	mov    0xc(%ebp),%edx
    3145:	8b 4d e4             	mov    -0x1c(%ebp),%ecx
    3148:	89 47 30             	mov    %eax,0x30(%edi)
    314b:	8b 46 24             	mov    0x24(%esi),%eax
    314e:	89 57 2c             	mov    %edx,0x2c(%edi)
    3151:	89 4f 34             	mov    %ecx,0x34(%edi)
    3154:	85 c0                	test   %eax,%eax
    3156:	0f 84 0d 01 00 00    	je     3269 <block_get+0x4a9>
    315c:	8b 40 14             	mov    0x14(%eax),%eax
    315f:	0f af c8             	imul   %eax,%ecx
    3162:	f7 65 d8             	mull   -0x28(%ebp)
    3165:	01 ca                	add    %ecx,%edx
    3167:	89 47 38             	mov    %eax,0x38(%edi)
    316a:	8b 4d c8             	mov    -0x38(%ebp),%ecx
    316d:	8d 47 4c             	lea    0x4c(%edi),%eax
    3170:	89 57 3c             	mov    %edx,0x3c(%edi)
    3173:	89 44 24 04          	mov    %eax,0x4(%esp)
    3177:	89 0c 24             	mov    %ecx,(%esp)
    317a:	e8 11 7d 01 00       	call   1ae90 <hash_table_insert>
    317f:	89 3c 24             	mov    %edi,(%esp)
    3182:	e8 79 90 00 00       	call   c200 <fibril_mutex_lock>
    3187:	89 1c 24             	mov    %ebx,(%esp)
    318a:	e8 91 91 00 00       	call   c320 <fibril_mutex_unlock>
    318f:	f6 45 18 01          	testb  $0x1,0x18(%ebp)
    3193:	74 1d                	je     31b2 <block_get+0x3f2>
    3195:	31 c0                	xor    %eax,%eax
    3197:	31 c9                	xor    %ecx,%ecx
    3199:	89 3c 24             	mov    %edi,(%esp)
    319c:	88 45 c0             	mov    %al,-0x40(%ebp)
    319f:	89 4d c4             	mov    %ecx,-0x3c(%ebp)
    31a2:	e8 79 91 00 00       	call   c320 <fibril_mutex_unlock>
    31a7:	8b 4d c4             	mov    -0x3c(%ebp),%ecx
    31aa:	8a 45 c0             	mov    -0x40(%ebp),%al
    31ad:	e9 d9 fe ff ff       	jmp    308b <block_get+0x2cb>
    31b2:	8b 53 14             	mov    0x14(%ebx),%edx
    31b5:	8b 4f 3c             	mov    0x3c(%edi),%ecx
    31b8:	8b 43 10             	mov    0x10(%ebx),%eax
    31bb:	89 55 d0             	mov    %edx,-0x30(%ebp)
    31be:	8b 57 38             	mov    0x38(%edi),%edx
    31c1:	89 4d dc             	mov    %ecx,-0x24(%ebp)
    31c4:	89 44 24 14          	mov    %eax,0x14(%esp)
    31c8:	8b 4d d0             	mov    -0x30(%ebp),%ecx
    31cb:	89 55 d8             	mov    %edx,-0x28(%ebp)
    31ce:	8b 47 54             	mov    0x54(%edi),%eax
    31d1:	8b 55 d8             	mov    -0x28(%ebp),%edx
    31d4:	89 4c 24 0c          	mov    %ecx,0xc(%esp)
    31d8:	8b 4d dc             	mov    -0x24(%ebp),%ecx
    31db:	89 44 24 10          	mov    %eax,0x10(%esp)
    31df:	89 4c 24 08          	mov    %ecx,0x8(%esp)
    31e3:	89 54 24 04          	mov    %edx,0x4(%esp)
    31e7:	8b 46 10             	mov    0x10(%esi),%eax
    31ea:	89 04 24             	mov    %eax,(%esp)
    31ed:	e8 8e 21 00 00       	call   5380 <bd_read_blocks>
    31f2:	89 c1                	mov    %eax,%ecx
    31f4:	31 c0                	xor    %eax,%eax
    31f6:	85 c9                	test   %ecx,%ecx
    31f8:	74 9f                	je     3199 <block_get+0x3d9>
    31fa:	8b 46 08             	mov    0x8(%esi),%eax
    31fd:	8b 55 dc             	mov    -0x24(%ebp),%edx
    3200:	89 44 24 14          	mov    %eax,0x14(%esp)
    3204:	89 54 24 10          	mov    %edx,0x10(%esp)
    3208:	8b 45 d8             	mov    -0x28(%ebp),%eax
    320b:	8b 55 d0             	mov    -0x30(%ebp),%edx
    320e:	89 4c 24 04          	mov    %ecx,0x4(%esp)
    3212:	89 54 24 08          	mov    %edx,0x8(%esp)
    3216:	89 44 24 0c          	mov    %eax,0xc(%esp)
    321a:	c7 04 24 c0 1d 02 00 	movl   $0x21dc0,(%esp)
    3221:	89 4d c4             	mov    %ecx,-0x3c(%ebp)
    3224:	e8 67 cf 00 00       	call   10190 <printf>
    3229:	e8 22 c3 01 00       	call   1f550 <stacktrace_print>
    322e:	c6 47 15 01          	movb   $0x1,0x15(%edi)
    3232:	b0 01                	mov    $0x1,%al
    3234:	8b 4d c4             	mov    -0x3c(%ebp),%ecx
    3237:	e9 5d ff ff ff       	jmp    3199 <block_get+0x3d9>
    323c:	8b 43 1c             	mov    0x1c(%ebx),%eax
    323f:	89 f7                	mov    %esi,%edi
    3241:	40                   	inc    %eax
    3242:	8b 75 cc             	mov    -0x34(%ebp),%esi
    3245:	89 43 1c             	mov    %eax,0x1c(%ebx)
    3248:	e9 b6 fe ff ff       	jmp    3103 <block_get+0x343>
    324d:	c7 44 24 08 15 02 00 	movl   $0x215,0x8(%esp)
    3254:	00 
    3255:	c7 44 24 04 6f 1d 02 	movl   $0x21d6f,0x4(%esp)
    325c:	00 
    325d:	c7 04 24 b5 1d 02 00 	movl   $0x21db5,(%esp)
    3264:	e8 87 c3 01 00       	call   1f5f0 <assert_abort>
    3269:	c7 44 24 08 96 03 00 	movl   $0x396,0x8(%esp)
    3270:	00 
    3271:	c7 44 24 04 6f 1d 02 	movl   $0x21d6f,0x4(%esp)
    3278:	00 
    3279:	c7 04 24 9f 1d 02 00 	movl   $0x21d9f,(%esp)
    3280:	e8 6b c3 01 00       	call   1f5f0 <assert_abort>
    3285:	c7 44 24 08 81 01 00 	movl   $0x181,0x8(%esp)
    328c:	00 
    328d:	c7 44 24 04 6f 1d 02 	movl   $0x21d6f,0x4(%esp)
    3294:	00 
    3295:	c7 04 24 7e 1d 02 00 	movl   $0x21d7e,(%esp)
    329c:	e8 4f c3 01 00       	call   1f5f0 <assert_abort>
    32a1:	eb 0d                	jmp    32b0 <block_seqread>
    32a3:	90                   	nop
    32a4:	90                   	nop
    32a5:	90                   	nop
    32a6:	90                   	nop
    32a7:	90                   	nop
    32a8:	90                   	nop
    32a9:	90                   	nop
    32aa:	90                   	nop
    32ab:	90                   	nop
    32ac:	90                   	nop
    32ad:	90                   	nop
    32ae:	90                   	nop
    32af:	90                   	nop

000032b0 <block_seqread>:
    32b0:	55                   	push   %ebp
    32b1:	89 e5                	mov    %esp,%ebp
    32b3:	57                   	push   %edi
    32b4:	56                   	push   %esi
    32b5:	53                   	push   %ebx
    32b6:	83 ec 3c             	sub    $0x3c,%esp
    32b9:	8b 5d 08             	mov    0x8(%ebp),%ebx
    32bc:	c7 04 24 64 48 02 00 	movl   $0x24864,(%esp)
    32c3:	e8 38 8f 00 00       	call   c200 <fibril_mutex_lock>
    32c8:	8b 0d 78 48 02 00    	mov    0x24878,%ecx
    32ce:	81 f9 74 48 02 00    	cmp    $0x24874,%ecx
    32d4:	75 19                	jne    32ef <block_seqread+0x3f>
    32d6:	e9 45 01 00 00       	jmp    3420 <block_seqread+0x170>
    32db:	90                   	nop
    32dc:	8d 74 26 00          	lea    0x0(%esi,%eiz,1),%esi
    32e0:	8b 49 04             	mov    0x4(%ecx),%ecx
    32e3:	81 f9 74 48 02 00    	cmp    $0x24874,%ecx
    32e9:	0f 84 31 01 00 00    	je     3420 <block_seqread+0x170>
    32ef:	3b 59 08             	cmp    0x8(%ecx),%ebx
    32f2:	75 ec                	jne    32e0 <block_seqread+0x30>
    32f4:	c7 04 24 64 48 02 00 	movl   $0x24864,(%esp)
    32fb:	89 4d d8             	mov    %ecx,-0x28(%ebp)
    32fe:	e8 1d 90 00 00       	call   c320 <fibril_mutex_unlock>
    3303:	8b 4d d8             	mov    -0x28(%ebp),%ecx
    3306:	8b 5d 20             	mov    0x20(%ebp),%ebx
    3309:	8b 71 20             	mov    0x20(%ecx),%esi
    330c:	89 75 dc             	mov    %esi,-0x24(%ebp)
    330f:	85 db                	test   %ebx,%ebx
    3311:	0f 84 f9 00 00 00    	je     3410 <block_seqread+0x160>
    3317:	8b 7d 14             	mov    0x14(%ebp),%edi
    331a:	89 4d e0             	mov    %ecx,-0x20(%ebp)
    331d:	8b 5d 20             	mov    0x20(%ebp),%ebx
    3320:	c7 45 e4 00 00 00 00 	movl   $0x0,-0x1c(%ebp)
    3327:	8b 07                	mov    (%edi),%eax
    3329:	8b 4d 10             	mov    0x10(%ebp),%ecx
    332c:	eb 18                	jmp    3346 <block_seqread+0x96>
    332e:	66 90                	xchg   %ax,%ax
    3330:	89 c7                	mov    %eax,%edi
    3332:	29 f7                	sub    %esi,%edi
    3334:	0f 85 4f 01 00 00    	jne    3489 <block_seqread+0x1d9>
    333a:	39 c6                	cmp    %eax,%esi
    333c:	74 5b                	je     3399 <block_seqread+0xe9>
    333e:	85 db                	test   %ebx,%ebx
    3340:	0f 84 ca 00 00 00    	je     3410 <block_seqread+0x160>
    3346:	8b 31                	mov    (%ecx),%esi
    3348:	8d 14 33             	lea    (%ebx,%esi,1),%edx
    334b:	39 c2                	cmp    %eax,%edx
    334d:	73 e1                	jae    3330 <block_seqread+0x80>
    334f:	89 df                	mov    %ebx,%edi
    3351:	31 db                	xor    %ebx,%ebx
    3353:	8b 45 0c             	mov    0xc(%ebp),%eax
    3356:	8b 55 e4             	mov    -0x1c(%ebp),%edx
    3359:	01 c6                	add    %eax,%esi
    335b:	8b 45 1c             	mov    0x1c(%ebp),%eax
    335e:	01 d0                	add    %edx,%eax
    3360:	89 7c 24 08          	mov    %edi,0x8(%esp)
    3364:	89 74 24 04          	mov    %esi,0x4(%esp)
    3368:	89 04 24             	mov    %eax,(%esp)
    336b:	89 4d d8             	mov    %ecx,-0x28(%ebp)
    336e:	e8 5d 4e 00 00       	call   81d0 <memcpy>
    3373:	8b 4d e4             	mov    -0x1c(%ebp),%ecx
    3376:	89 f8                	mov    %edi,%eax
    3378:	01 f9                	add    %edi,%ecx
    337a:	31 d2                	xor    %edx,%edx
    337c:	89 4d e4             	mov    %ecx,-0x1c(%ebp)
    337f:	8b 4d d8             	mov    -0x28(%ebp),%ecx
    3382:	8b 31                	mov    (%ecx),%esi
    3384:	01 fe                	add    %edi,%esi
    3386:	8b 7d 18             	mov    0x18(%ebp),%edi
    3389:	89 31                	mov    %esi,(%ecx)
    338b:	01 07                	add    %eax,(%edi)
    338d:	11 57 04             	adc    %edx,0x4(%edi)
    3390:	8b 7d 14             	mov    0x14(%ebp),%edi
    3393:	8b 07                	mov    (%edi),%eax
    3395:	39 c6                	cmp    %eax,%esi
    3397:	75 a5                	jne    333e <block_seqread+0x8e>
    3399:	8b 7d 18             	mov    0x18(%ebp),%edi
    339c:	8b 75 dc             	mov    -0x24(%ebp),%esi
    339f:	89 74 24 08          	mov    %esi,0x8(%esp)
    33a3:	c7 44 24 0c 00 00 00 	movl   $0x0,0xc(%esp)
    33aa:	00 
    33ab:	8b 07                	mov    (%edi),%eax
    33ad:	8b 57 04             	mov    0x4(%edi),%edx
    33b0:	89 54 24 04          	mov    %edx,0x4(%esp)
    33b4:	89 04 24             	mov    %eax,(%esp)
    33b7:	89 4d d8             	mov    %ecx,-0x28(%ebp)
    33ba:	e8 21 e1 01 00       	call   214e0 <__udivdi3>
    33bf:	89 d7                	mov    %edx,%edi
    33c1:	8b 55 e0             	mov    -0x20(%ebp),%edx
    33c4:	89 c6                	mov    %eax,%esi
    33c6:	8b 42 20             	mov    0x20(%edx),%eax
    33c9:	c7 44 24 0c 01 00 00 	movl   $0x1,0xc(%esp)
    33d0:	00 
    33d1:	89 44 24 14          	mov    %eax,0x14(%esp)
    33d5:	8b 45 0c             	mov    0xc(%ebp),%eax
    33d8:	89 44 24 10          	mov    %eax,0x10(%esp)
    33dc:	89 74 24 04          	mov    %esi,0x4(%esp)
    33e0:	89 7c 24 08          	mov    %edi,0x8(%esp)
    33e4:	8b 42 10             	mov    0x10(%edx),%eax
    33e7:	89 04 24             	mov    %eax,(%esp)
    33ea:	e8 91 1f 00 00       	call   5380 <bd_read_blocks>
    33ef:	8b 4d d8             	mov    -0x28(%ebp),%ecx
    33f2:	85 c0                	test   %eax,%eax
    33f4:	75 52                	jne    3448 <block_seqread+0x198>
    33f6:	8b 75 14             	mov    0x14(%ebp),%esi
    33f9:	8b 7d dc             	mov    -0x24(%ebp),%edi
    33fc:	c7 01 00 00 00 00    	movl   $0x0,(%ecx)
    3402:	89 f8                	mov    %edi,%eax
    3404:	89 3e                	mov    %edi,(%esi)
    3406:	85 db                	test   %ebx,%ebx
    3408:	0f 85 38 ff ff ff    	jne    3346 <block_seqread+0x96>
    340e:	66 90                	xchg   %ax,%ax
    3410:	83 c4 3c             	add    $0x3c,%esp
    3413:	31 d2                	xor    %edx,%edx
    3415:	89 d0                	mov    %edx,%eax
    3417:	5b                   	pop    %ebx
    3418:	5e                   	pop    %esi
    3419:	5f                   	pop    %edi
    341a:	5d                   	pop    %ebp
    341b:	c3                   	ret    
    341c:	8d 74 26 00          	lea    0x0(%esi,%eiz,1),%esi
    3420:	c7 04 24 64 48 02 00 	movl   $0x24864,(%esp)
    3427:	e8 f4 8e 00 00       	call   c320 <fibril_mutex_unlock>
    342c:	c7 44 24 08 9c 02 00 	movl   $0x29c,0x8(%esp)
    3433:	00 
    3434:	c7 44 24 04 6f 1d 02 	movl   $0x21d6f,0x4(%esp)
    343b:	00 
    343c:	c7 04 24 77 1d 02 00 	movl   $0x21d77,(%esp)
    3443:	e8 a8 c1 01 00       	call   1f5f0 <assert_abort>
    3448:	8b 4d e0             	mov    -0x20(%ebp),%ecx
    344b:	89 c2                	mov    %eax,%edx
    344d:	8b 41 08             	mov    0x8(%ecx),%eax
    3450:	89 54 24 04          	mov    %edx,0x4(%esp)
    3454:	89 74 24 0c          	mov    %esi,0xc(%esp)
    3458:	89 7c 24 10          	mov    %edi,0x10(%esp)
    345c:	89 44 24 14          	mov    %eax,0x14(%esp)
    3460:	c7 44 24 08 01 00 00 	movl   $0x1,0x8(%esp)
    3467:	00 
    3468:	c7 04 24 c0 1d 02 00 	movl   $0x21dc0,(%esp)
    346f:	89 55 d8             	mov    %edx,-0x28(%ebp)
    3472:	e8 19 cd 00 00       	call   10190 <printf>
    3477:	e8 d4 c0 01 00       	call   1f550 <stacktrace_print>
    347c:	8b 55 d8             	mov    -0x28(%ebp),%edx
    347f:	83 c4 3c             	add    $0x3c,%esp
    3482:	89 d0                	mov    %edx,%eax
    3484:	5b                   	pop    %ebx
    3485:	5e                   	pop    %esi
    3486:	5f                   	pop    %edi
    3487:	5d                   	pop    %ebp
    3488:	c3                   	ret    
    3489:	29 fb                	sub    %edi,%ebx
    348b:	e9 c3 fe ff ff       	jmp    3353 <block_seqread+0xa3>

00003490 <block_read_direct>:
    3490:	55                   	push   %ebp
    3491:	89 e5                	mov    %esp,%ebp
    3493:	57                   	push   %edi
    3494:	56                   	push   %esi
    3495:	53                   	push   %ebx
    3496:	83 ec 3c             	sub    $0x3c,%esp
    3499:	8b 45 08             	mov    0x8(%ebp),%eax
    349c:	8b 75 0c             	mov    0xc(%ebp),%esi
    349f:	c7 04 24 64 48 02 00 	movl   $0x24864,(%esp)
    34a6:	89 45 e4             	mov    %eax,-0x1c(%ebp)
    34a9:	8b 7d 10             	mov    0x10(%ebp),%edi
    34ac:	e8 4f 8d 00 00       	call   c200 <fibril_mutex_lock>
    34b1:	8b 1d 78 48 02 00    	mov    0x24878,%ebx
    34b7:	8b 45 e4             	mov    -0x1c(%ebp),%eax
    34ba:	81 fb 74 48 02 00    	cmp    $0x24874,%ebx
    34c0:	75 15                	jne    34d7 <block_read_direct+0x47>
    34c2:	e9 91 00 00 00       	jmp    3558 <block_read_direct+0xc8>
    34c7:	90                   	nop
    34c8:	8b 5b 04             	mov    0x4(%ebx),%ebx
    34cb:	81 fb 74 48 02 00    	cmp    $0x24874,%ebx
    34d1:	0f 84 81 00 00 00    	je     3558 <block_read_direct+0xc8>
    34d7:	3b 43 08             	cmp    0x8(%ebx),%eax
    34da:	75 ec                	jne    34c8 <block_read_direct+0x38>
    34dc:	c7 04 24 64 48 02 00 	movl   $0x24864,(%esp)
    34e3:	e8 38 8e 00 00       	call   c320 <fibril_mutex_unlock>
    34e8:	8b 53 20             	mov    0x20(%ebx),%edx
    34eb:	8b 45 14             	mov    0x14(%ebp),%eax
    34ee:	89 74 24 04          	mov    %esi,0x4(%esp)
    34f2:	0f af c2             	imul   %edx,%eax
    34f5:	8b 55 14             	mov    0x14(%ebp),%edx
    34f8:	89 44 24 14          	mov    %eax,0x14(%esp)
    34fc:	8b 45 18             	mov    0x18(%ebp),%eax
    34ff:	89 54 24 0c          	mov    %edx,0xc(%esp)
    3503:	89 44 24 10          	mov    %eax,0x10(%esp)
    3507:	89 7c 24 08          	mov    %edi,0x8(%esp)
    350b:	8b 43 10             	mov    0x10(%ebx),%eax
    350e:	89 04 24             	mov    %eax,(%esp)
    3511:	e8 6a 1e 00 00       	call   5380 <bd_read_blocks>
    3516:	89 c2                	mov    %eax,%edx
    3518:	85 c0                	test   %eax,%eax
    351a:	74 31                	je     354d <block_read_direct+0xbd>
    351c:	8b 43 08             	mov    0x8(%ebx),%eax
    351f:	89 54 24 04          	mov    %edx,0x4(%esp)
    3523:	89 44 24 14          	mov    %eax,0x14(%esp)
    3527:	8b 45 14             	mov    0x14(%ebp),%eax
    352a:	89 74 24 0c          	mov    %esi,0xc(%esp)
    352e:	89 7c 24 10          	mov    %edi,0x10(%esp)
    3532:	89 44 24 08          	mov    %eax,0x8(%esp)
    3536:	c7 04 24 c0 1d 02 00 	movl   $0x21dc0,(%esp)
    353d:	89 55 e4             	mov    %edx,-0x1c(%ebp)
    3540:	e8 4b cc 00 00       	call   10190 <printf>
    3545:	e8 06 c0 01 00       	call   1f550 <stacktrace_print>
    354a:	8b 55 e4             	mov    -0x1c(%ebp),%edx
    354d:	83 c4 3c             	add    $0x3c,%esp
    3550:	89 d0                	mov    %edx,%eax
    3552:	5b                   	pop    %ebx
    3553:	5e                   	pop    %esi
    3554:	5f                   	pop    %edi
    3555:	5d                   	pop    %ebp
    3556:	c3                   	ret    
    3557:	90                   	nop
    3558:	c7 04 24 64 48 02 00 	movl   $0x24864,(%esp)
    355f:	e8 bc 8d 00 00       	call   c320 <fibril_mutex_unlock>
    3564:	c7 44 24 08 d3 02 00 	movl   $0x2d3,0x8(%esp)
    356b:	00 
    356c:	c7 44 24 04 6f 1d 02 	movl   $0x21d6f,0x4(%esp)
    3573:	00 
    3574:	c7 04 24 77 1d 02 00 	movl   $0x21d77,(%esp)
    357b:	e8 70 c0 01 00       	call   1f5f0 <assert_abort>

00003580 <block_write_direct>:
    3580:	55                   	push   %ebp
    3581:	89 e5                	mov    %esp,%ebp
    3583:	57                   	push   %edi
    3584:	56                   	push   %esi
    3585:	53                   	push   %ebx
    3586:	83 ec 3c             	sub    $0x3c,%esp
    3589:	8b 45 08             	mov    0x8(%ebp),%eax
    358c:	8b 75 0c             	mov    0xc(%ebp),%esi
    358f:	c7 04 24 64 48 02 00 	movl   $0x24864,(%esp)
    3596:	89 45 e4             	mov    %eax,-0x1c(%ebp)
    3599:	8b 7d 10             	mov    0x10(%ebp),%edi
    359c:	e8 5f 8c 00 00       	call   c200 <fibril_mutex_lock>
    35a1:	8b 1d 78 48 02 00    	mov    0x24878,%ebx
    35a7:	8b 45 e4             	mov    -0x1c(%ebp),%eax
    35aa:	81 fb 74 48 02 00    	cmp    $0x24874,%ebx
    35b0:	75 15                	jne    35c7 <block_write_direct+0x47>
    35b2:	e9 91 00 00 00       	jmp    3648 <block_write_direct+0xc8>
    35b7:	90                   	nop
    35b8:	8b 5b 04             	mov    0x4(%ebx),%ebx
    35bb:	81 fb 74 48 02 00    	cmp    $0x24874,%ebx
    35c1:	0f 84 81 00 00 00    	je     3648 <block_write_direct+0xc8>
    35c7:	3b 43 08             	cmp    0x8(%ebx),%eax
    35ca:	75 ec                	jne    35b8 <block_write_direct+0x38>
    35cc:	c7 04 24 64 48 02 00 	movl   $0x24864,(%esp)
    35d3:	e8 48 8d 00 00       	call   c320 <fibril_mutex_unlock>
    35d8:	8b 4b 20             	mov    0x20(%ebx),%ecx
    35db:	8b 45 14             	mov    0x14(%ebp),%eax
    35de:	8b 55 14             	mov    0x14(%ebp),%edx
    35e1:	0f af c1             	imul   %ecx,%eax
    35e4:	89 44 24 14          	mov    %eax,0x14(%esp)
    35e8:	8b 45 18             	mov    0x18(%ebp),%eax
    35eb:	89 54 24 0c          	mov    %edx,0xc(%esp)
    35ef:	89 44 24 10          	mov    %eax,0x10(%esp)
    35f3:	89 74 24 04          	mov    %esi,0x4(%esp)
    35f7:	89 7c 24 08          	mov    %edi,0x8(%esp)
    35fb:	8b 43 10             	mov    0x10(%ebx),%eax
    35fe:	89 04 24             	mov    %eax,(%esp)
    3601:	e8 ea 1e 00 00       	call   54f0 <bd_write_blocks>
    3606:	89 c2                	mov    %eax,%edx
    3608:	85 c0                	test   %eax,%eax
    360a:	74 31                	je     363d <block_write_direct+0xbd>
    360c:	8b 43 08             	mov    0x8(%ebx),%eax
    360f:	89 54 24 04          	mov    %edx,0x4(%esp)
    3613:	89 44 24 14          	mov    %eax,0x14(%esp)
    3617:	8b 45 14             	mov    0x14(%ebp),%eax
    361a:	89 74 24 0c          	mov    %esi,0xc(%esp)
    361e:	89 7c 24 10          	mov    %edi,0x10(%esp)
    3622:	89 44 24 08          	mov    %eax,0x8(%esp)
    3626:	c7 04 24 0c 1e 02 00 	movl   $0x21e0c,(%esp)
    362d:	89 55 e4             	mov    %edx,-0x1c(%ebp)
    3630:	e8 5b cb 00 00       	call   10190 <printf>
    3635:	e8 16 bf 01 00       	call   1f550 <stacktrace_print>
    363a:	8b 55 e4             	mov    -0x1c(%ebp),%edx
    363d:	83 c4 3c             	add    $0x3c,%esp
    3640:	89 d0                	mov    %edx,%eax
    3642:	5b                   	pop    %ebx
    3643:	5e                   	pop    %esi
    3644:	5f                   	pop    %edi
    3645:	5d                   	pop    %ebp
    3646:	c3                   	ret    
    3647:	90                   	nop
    3648:	c7 04 24 64 48 02 00 	movl   $0x24864,(%esp)
    364f:	e8 cc 8c 00 00       	call   c320 <fibril_mutex_unlock>
    3654:	c7 44 24 08 e7 02 00 	movl   $0x2e7,0x8(%esp)
    365b:	00 
    365c:	c7 44 24 04 6f 1d 02 	movl   $0x21d6f,0x4(%esp)
    3663:	00 
    3664:	c7 04 24 77 1d 02 00 	movl   $0x21d77,(%esp)
    366b:	e8 80 bf 01 00       	call   1f5f0 <assert_abort>

00003670 <block_get_bsize>:
    3670:	55                   	push   %ebp
    3671:	89 e5                	mov    %esp,%ebp
    3673:	57                   	push   %edi
    3674:	56                   	push   %esi
    3675:	53                   	push   %ebx
    3676:	83 ec 1c             	sub    $0x1c,%esp
    3679:	8b 75 08             	mov    0x8(%ebp),%esi
    367c:	8b 7d 0c             	mov    0xc(%ebp),%edi
    367f:	c7 04 24 64 48 02 00 	movl   $0x24864,(%esp)
    3686:	e8 75 8b 00 00       	call   c200 <fibril_mutex_lock>
    368b:	8b 1d 78 48 02 00    	mov    0x24878,%ebx
    3691:	81 fb 74 48 02 00    	cmp    $0x24874,%ebx
    3697:	75 12                	jne    36ab <block_get_bsize+0x3b>
    3699:	eb 3d                	jmp    36d8 <block_get_bsize+0x68>
    369b:	90                   	nop
    369c:	8d 74 26 00          	lea    0x0(%esi,%eiz,1),%esi
    36a0:	8b 5b 04             	mov    0x4(%ebx),%ebx
    36a3:	81 fb 74 48 02 00    	cmp    $0x24874,%ebx
    36a9:	74 2d                	je     36d8 <block_get_bsize+0x68>
    36ab:	3b 73 08             	cmp    0x8(%ebx),%esi
    36ae:	75 f0                	jne    36a0 <block_get_bsize+0x30>
    36b0:	c7 04 24 64 48 02 00 	movl   $0x24864,(%esp)
    36b7:	e8 64 8c 00 00       	call   c320 <fibril_mutex_unlock>
    36bc:	89 7d 0c             	mov    %edi,0xc(%ebp)
    36bf:	8b 43 10             	mov    0x10(%ebx),%eax
    36c2:	89 45 08             	mov    %eax,0x8(%ebp)
    36c5:	83 c4 1c             	add    $0x1c,%esp
    36c8:	5b                   	pop    %ebx
    36c9:	5e                   	pop    %esi
    36ca:	5f                   	pop    %edi
    36cb:	5d                   	pop    %ebp
    36cc:	e9 cf 1e 00 00       	jmp    55a0 <bd_get_block_size>
    36d1:	8d b4 26 00 00 00 00 	lea    0x0(%esi,%eiz,1),%esi
    36d8:	c7 04 24 64 48 02 00 	movl   $0x24864,(%esp)
    36df:	e8 3c 8c 00 00       	call   c320 <fibril_mutex_unlock>
    36e4:	c7 44 24 08 f8 02 00 	movl   $0x2f8,0x8(%esp)
    36eb:	00 
    36ec:	c7 44 24 04 6f 1d 02 	movl   $0x21d6f,0x4(%esp)
    36f3:	00 
    36f4:	c7 04 24 77 1d 02 00 	movl   $0x21d77,(%esp)
    36fb:	e8 f0 be 01 00       	call   1f5f0 <assert_abort>

00003700 <block_get_nblocks>:
    3700:	55                   	push   %ebp
    3701:	89 e5                	mov    %esp,%ebp
    3703:	57                   	push   %edi
    3704:	56                   	push   %esi
    3705:	53                   	push   %ebx
    3706:	83 ec 1c             	sub    $0x1c,%esp
    3709:	8b 75 08             	mov    0x8(%ebp),%esi
    370c:	8b 7d 0c             	mov    0xc(%ebp),%edi
    370f:	c7 04 24 64 48 02 00 	movl   $0x24864,(%esp)
    3716:	e8 e5 8a 00 00       	call   c200 <fibril_mutex_lock>
    371b:	8b 1d 78 48 02 00    	mov    0x24878,%ebx
    3721:	81 fb 74 48 02 00    	cmp    $0x24874,%ebx
    3727:	75 12                	jne    373b <block_get_nblocks+0x3b>
    3729:	eb 3d                	jmp    3768 <block_get_nblocks+0x68>
    372b:	90                   	nop
    372c:	8d 74 26 00          	lea    0x0(%esi,%eiz,1),%esi
    3730:	8b 5b 04             	mov    0x4(%ebx),%ebx
    3733:	81 fb 74 48 02 00    	cmp    $0x24874,%ebx
    3739:	74 2d                	je     3768 <block_get_nblocks+0x68>
    373b:	3b 73 08             	cmp    0x8(%ebx),%esi
    373e:	75 f0                	jne    3730 <block_get_nblocks+0x30>
    3740:	c7 04 24 64 48 02 00 	movl   $0x24864,(%esp)
    3747:	e8 d4 8b 00 00       	call   c320 <fibril_mutex_unlock>
    374c:	89 7d 0c             	mov    %edi,0xc(%ebp)
    374f:	8b 43 10             	mov    0x10(%ebx),%eax
    3752:	89 45 08             	mov    %eax,0x8(%ebp)
    3755:	83 c4 1c             	add    $0x1c,%esp
    3758:	5b                   	pop    %ebx
    3759:	5e                   	pop    %esi
    375a:	5f                   	pop    %edi
    375b:	5d                   	pop    %ebp
    375c:	e9 cf 1e 00 00       	jmp    5630 <bd_get_num_blocks>
    3761:	8d b4 26 00 00 00 00 	lea    0x0(%esi,%eiz,1),%esi
    3768:	c7 04 24 64 48 02 00 	movl   $0x24864,(%esp)
    376f:	e8 ac 8b 00 00       	call   c320 <fibril_mutex_unlock>
    3774:	c7 44 24 08 07 03 00 	movl   $0x307,0x8(%esp)
    377b:	00 
    377c:	c7 44 24 04 6f 1d 02 	movl   $0x21d6f,0x4(%esp)
    3783:	00 
    3784:	c7 04 24 77 1d 02 00 	movl   $0x21d77,(%esp)
    378b:	e8 60 be 01 00       	call   1f5f0 <assert_abort>

00003790 <block_read_bytes_direct>:
    3790:	55                   	push   %ebp
    3791:	89 e5                	mov    %esp,%ebp
    3793:	57                   	push   %edi
    3794:	56                   	push   %esi
    3795:	53                   	push   %ebx
    3796:	83 ec 5c             	sub    $0x5c,%esp
    3799:	8b 45 0c             	mov    0xc(%ebp),%eax
    379c:	8b 55 10             	mov    0x10(%ebp),%edx
    379f:	c7 04 24 64 48 02 00 	movl   $0x24864,(%esp)
    37a6:	8b 5d 08             	mov    0x8(%ebp),%ebx
    37a9:	89 45 c8             	mov    %eax,-0x38(%ebp)
    37ac:	89 55 cc             	mov    %edx,-0x34(%ebp)
    37af:	e8 4c 8a 00 00       	call   c200 <fibril_mutex_lock>
    37b4:	8b 35 78 48 02 00    	mov    0x24878,%esi
    37ba:	81 fe 74 48 02 00    	cmp    $0x24874,%esi
    37c0:	75 11                	jne    37d3 <block_read_bytes_direct+0x43>
    37c2:	eb 44                	jmp    3808 <block_read_bytes_direct+0x78>
    37c4:	8d 74 26 00          	lea    0x0(%esi,%eiz,1),%esi
    37c8:	8b 76 04             	mov    0x4(%esi),%esi
    37cb:	81 fe 74 48 02 00    	cmp    $0x24874,%esi
    37d1:	74 35                	je     3808 <block_read_bytes_direct+0x78>
    37d3:	3b 5e 08             	cmp    0x8(%esi),%ebx
    37d6:	75 f0                	jne    37c8 <block_read_bytes_direct+0x38>
    37d8:	c7 04 24 64 48 02 00 	movl   $0x24864,(%esp)
    37df:	e8 3c 8b 00 00       	call   c320 <fibril_mutex_unlock>
    37e4:	8d 45 e4             	lea    -0x1c(%ebp),%eax
    37e7:	89 44 24 04          	mov    %eax,0x4(%esp)
    37eb:	8b 46 10             	mov    0x10(%esi),%eax
    37ee:	89 04 24             	mov    %eax,(%esp)
    37f1:	e8 aa 1d 00 00       	call   55a0 <bd_get_block_size>
    37f6:	89 c1                	mov    %eax,%ecx
    37f8:	85 c0                	test   %eax,%eax
    37fa:	74 34                	je     3830 <block_read_bytes_direct+0xa0>
    37fc:	83 c4 5c             	add    $0x5c,%esp
    37ff:	89 c8                	mov    %ecx,%eax
    3801:	5b                   	pop    %ebx
    3802:	5e                   	pop    %esi
    3803:	5f                   	pop    %edi
    3804:	5d                   	pop    %ebp
    3805:	c3                   	ret    
    3806:	66 90                	xchg   %ax,%ax
    3808:	c7 04 24 64 48 02 00 	movl   $0x24864,(%esp)
    380f:	e8 0c 8b 00 00       	call   c320 <fibril_mutex_unlock>
    3814:	c7 44 24 08 f8 02 00 	movl   $0x2f8,0x8(%esp)
    381b:	00 
    381c:	c7 44 24 04 6f 1d 02 	movl   $0x21d6f,0x4(%esp)
    3823:	00 
    3824:	c7 04 24 77 1d 02 00 	movl   $0x21d77,(%esp)
    382b:	e8 c0 bd 01 00       	call   1f5f0 <assert_abort>
    3830:	8b 4d e4             	mov    -0x1c(%ebp),%ecx
    3833:	8b 45 c8             	mov    -0x38(%ebp),%eax
    3836:	8b 55 cc             	mov    -0x34(%ebp),%edx
    3839:	89 4c 24 08          	mov    %ecx,0x8(%esp)
    383d:	c7 44 24 0c 00 00 00 	movl   $0x0,0xc(%esp)
    3844:	00 
    3845:	89 04 24             	mov    %eax,(%esp)
    3848:	89 54 24 04          	mov    %edx,0x4(%esp)
    384c:	89 4d c4             	mov    %ecx,-0x3c(%ebp)
    384f:	e8 8c dc 01 00       	call   214e0 <__udivdi3>
    3854:	be 01 00 00 00       	mov    $0x1,%esi
    3859:	29 c6                	sub    %eax,%esi
    385b:	8b 4d 14             	mov    0x14(%ebp),%ecx
    385e:	89 c7                	mov    %eax,%edi
    3860:	8b 45 c8             	mov    -0x38(%ebp),%eax
    3863:	89 4d d0             	mov    %ecx,-0x30(%ebp)
    3866:	89 55 c0             	mov    %edx,-0x40(%ebp)
    3869:	83 c0 ff             	add    $0xffffffff,%eax
    386c:	8b 55 cc             	mov    -0x34(%ebp),%edx
    386f:	83 d2 ff             	adc    $0xffffffff,%edx
    3872:	03 45 d0             	add    -0x30(%ebp),%eax
    3875:	c7 45 d4 00 00 00 00 	movl   $0x0,-0x2c(%ebp)
    387c:	8b 4d c4             	mov    -0x3c(%ebp),%ecx
    387f:	13 55 d4             	adc    -0x2c(%ebp),%edx
    3882:	89 4c 24 08          	mov    %ecx,0x8(%esp)
    3886:	c7 44 24 0c 00 00 00 	movl   $0x0,0xc(%esp)
    388d:	00 
    388e:	89 04 24             	mov    %eax,(%esp)
    3891:	89 54 24 04          	mov    %edx,0x4(%esp)
    3895:	e8 46 dc 01 00       	call   214e0 <__udivdi3>
    389a:	01 c6                	add    %eax,%esi
    389c:	8b 45 c4             	mov    -0x3c(%ebp),%eax
    389f:	0f af c6             	imul   %esi,%eax
    38a2:	89 04 24             	mov    %eax,(%esp)
    38a5:	e8 66 15 01 00       	call   14e10 <malloc>
    38aa:	89 45 d0             	mov    %eax,-0x30(%ebp)
    38ad:	85 c0                	test   %eax,%eax
    38af:	0f 84 59 01 00 00    	je     3a0e <block_read_bytes_direct+0x27e>
    38b5:	c7 04 24 64 48 02 00 	movl   $0x24864,(%esp)
    38bc:	e8 3f 89 00 00       	call   c200 <fibril_mutex_lock>
    38c1:	8b 15 78 48 02 00    	mov    0x24878,%edx
    38c7:	81 fa 74 48 02 00    	cmp    $0x24874,%edx
    38cd:	75 18                	jne    38e7 <block_read_bytes_direct+0x157>
    38cf:	e9 cc 00 00 00       	jmp    39a0 <block_read_bytes_direct+0x210>
    38d4:	8d 74 26 00          	lea    0x0(%esi,%eiz,1),%esi
    38d8:	8b 52 04             	mov    0x4(%edx),%edx
    38db:	81 fa 74 48 02 00    	cmp    $0x24874,%edx
    38e1:	0f 84 b9 00 00 00    	je     39a0 <block_read_bytes_direct+0x210>
    38e7:	3b 5a 08             	cmp    0x8(%edx),%ebx
    38ea:	75 ec                	jne    38d8 <block_read_bytes_direct+0x148>
    38ec:	c7 04 24 64 48 02 00 	movl   $0x24864,(%esp)
    38f3:	89 55 bc             	mov    %edx,-0x44(%ebp)
    38f6:	e8 25 8a 00 00       	call   c320 <fibril_mutex_unlock>
    38fb:	8b 55 bc             	mov    -0x44(%ebp),%edx
    38fe:	8b 42 20             	mov    0x20(%edx),%eax
    3901:	8b 4d c0             	mov    -0x40(%ebp),%ecx
    3904:	0f af c6             	imul   %esi,%eax
    3907:	89 44 24 14          	mov    %eax,0x14(%esp)
    390b:	8b 45 d0             	mov    -0x30(%ebp),%eax
    390e:	89 4c 24 08          	mov    %ecx,0x8(%esp)
    3912:	89 44 24 10          	mov    %eax,0x10(%esp)
    3916:	89 74 24 0c          	mov    %esi,0xc(%esp)
    391a:	89 7c 24 04          	mov    %edi,0x4(%esp)
    391e:	8b 42 10             	mov    0x10(%edx),%eax
    3921:	89 04 24             	mov    %eax,(%esp)
    3924:	e8 57 1a 00 00       	call   5380 <bd_read_blocks>
    3929:	8b 55 bc             	mov    -0x44(%ebp),%edx
    392c:	89 c1                	mov    %eax,%ecx
    392e:	85 c0                	test   %eax,%eax
    3930:	0f 85 92 00 00 00    	jne    39c8 <block_read_bytes_direct+0x238>
    3936:	8b 55 14             	mov    0x14(%ebp),%edx
    3939:	8b 45 c4             	mov    -0x3c(%ebp),%eax
    393c:	89 54 24 08          	mov    %edx,0x8(%esp)
    3940:	8b 55 cc             	mov    -0x34(%ebp),%edx
    3943:	8b 74 24 08          	mov    0x8(%esp),%esi
    3947:	89 44 24 08          	mov    %eax,0x8(%esp)
    394b:	8b 45 c8             	mov    -0x38(%ebp),%eax
    394e:	8b 7c 24 0c          	mov    0xc(%esp),%edi
    3952:	89 04 24             	mov    %eax,(%esp)
    3955:	c7 44 24 0c 00 00 00 	movl   $0x0,0xc(%esp)
    395c:	00 
    395d:	89 54 24 04          	mov    %edx,0x4(%esp)
    3961:	89 4d bc             	mov    %ecx,-0x44(%ebp)
    3964:	e8 f7 dd 01 00       	call   21760 <__umoddi3>
    3969:	8b 5d d0             	mov    -0x30(%ebp),%ebx
    396c:	01 d8                	add    %ebx,%eax
    396e:	89 74 24 08          	mov    %esi,0x8(%esp)
    3972:	89 44 24 04          	mov    %eax,0x4(%esp)
    3976:	8b 45 18             	mov    0x18(%ebp),%eax
    3979:	89 04 24             	mov    %eax,(%esp)
    397c:	89 7c 24 0c          	mov    %edi,0xc(%esp)
    3980:	e8 4b 48 00 00       	call   81d0 <memcpy>
    3985:	8b 45 d0             	mov    -0x30(%ebp),%eax
    3988:	89 04 24             	mov    %eax,(%esp)
    398b:	e8 90 15 01 00       	call   14f20 <free>
    3990:	8b 4d bc             	mov    -0x44(%ebp),%ecx
    3993:	83 c4 5c             	add    $0x5c,%esp
    3996:	89 c8                	mov    %ecx,%eax
    3998:	5b                   	pop    %ebx
    3999:	5e                   	pop    %esi
    399a:	5f                   	pop    %edi
    399b:	5d                   	pop    %ebp
    399c:	c3                   	ret    
    399d:	8d 76 00             	lea    0x0(%esi),%esi
    39a0:	c7 04 24 64 48 02 00 	movl   $0x24864,(%esp)
    39a7:	e8 74 89 00 00       	call   c320 <fibril_mutex_unlock>
    39ac:	c7 44 24 08 d3 02 00 	movl   $0x2d3,0x8(%esp)
    39b3:	00 
    39b4:	c7 44 24 04 6f 1d 02 	movl   $0x21d6f,0x4(%esp)
    39bb:	00 
    39bc:	c7 04 24 77 1d 02 00 	movl   $0x21d77,(%esp)
    39c3:	e8 28 bc 01 00       	call   1f5f0 <assert_abort>
    39c8:	8b 42 08             	mov    0x8(%edx),%eax
    39cb:	89 4c 24 04          	mov    %ecx,0x4(%esp)
    39cf:	89 44 24 14          	mov    %eax,0x14(%esp)
    39d3:	8b 45 c0             	mov    -0x40(%ebp),%eax
    39d6:	89 7c 24 0c          	mov    %edi,0xc(%esp)
    39da:	89 74 24 08          	mov    %esi,0x8(%esp)
    39de:	89 44 24 10          	mov    %eax,0x10(%esp)
    39e2:	c7 04 24 c0 1d 02 00 	movl   $0x21dc0,(%esp)
    39e9:	89 4d bc             	mov    %ecx,-0x44(%ebp)
    39ec:	e8 9f c7 00 00       	call   10190 <printf>
    39f1:	e8 5a bb 01 00       	call   1f550 <stacktrace_print>
    39f6:	8b 45 d0             	mov    -0x30(%ebp),%eax
    39f9:	89 04 24             	mov    %eax,(%esp)
    39fc:	e8 1f 15 01 00       	call   14f20 <free>
    3a01:	8b 4d bc             	mov    -0x44(%ebp),%ecx
    3a04:	83 c4 5c             	add    $0x5c,%esp
    3a07:	89 c8                	mov    %ecx,%eax
    3a09:	5b                   	pop    %ebx
    3a0a:	5e                   	pop    %esi
    3a0b:	5f                   	pop    %edi
    3a0c:	5d                   	pop    %ebp
    3a0d:	c3                   	ret    
    3a0e:	b9 fe ff ff ff       	mov    $0xfffffffe,%ecx
    3a13:	e9 e4 fd ff ff       	jmp    37fc <block_read_bytes_direct+0x6c>
    3a18:	90                   	nop
    3a19:	8d b4 26 00 00 00 00 	lea    0x0(%esi,%eiz,1),%esi

00003a20 <block_get_toc>:
    3a20:	55                   	push   %ebp
    3a21:	89 e5                	mov    %esp,%ebp
    3a23:	57                   	push   %edi
    3a24:	56                   	push   %esi
    3a25:	53                   	push   %ebx
    3a26:	83 ec 1c             	sub    $0x1c,%esp
    3a29:	8b 75 08             	mov    0x8(%ebp),%esi
    3a2c:	c7 04 24 64 48 02 00 	movl   $0x24864,(%esp)
    3a33:	0f b6 7d 0c          	movzbl 0xc(%ebp),%edi
    3a37:	e8 c4 87 00 00       	call   c200 <fibril_mutex_lock>
    3a3c:	8b 1d 78 48 02 00    	mov    0x24878,%ebx
    3a42:	81 fb 74 48 02 00    	cmp    $0x24874,%ebx
    3a48:	75 11                	jne    3a5b <block_get_toc+0x3b>
    3a4a:	eb 64                	jmp    3ab0 <block_get_toc+0x90>
    3a4c:	8d 74 26 00          	lea    0x0(%esi,%eiz,1),%esi
    3a50:	8b 5b 04             	mov    0x4(%ebx),%ebx
    3a53:	81 fb 74 48 02 00    	cmp    $0x24874,%ebx
    3a59:	74 55                	je     3ab0 <block_get_toc+0x90>
    3a5b:	3b 73 08             	cmp    0x8(%ebx),%esi
    3a5e:	75 f0                	jne    3a50 <block_get_toc+0x30>
    3a60:	c7 04 24 64 48 02 00 	movl   $0x24864,(%esp)
    3a67:	e8 b4 88 00 00       	call   c320 <fibril_mutex_unlock>
    3a6c:	c7 04 24 0c 00 00 00 	movl   $0xc,(%esp)
    3a73:	e8 98 13 01 00       	call   14e10 <malloc>
    3a78:	89 c6                	mov    %eax,%esi
    3a7a:	85 c0                	test   %eax,%eax
    3a7c:	74 25                	je     3aa3 <block_get_toc+0x83>
    3a7e:	81 e7 ff 00 00 00    	and    $0xff,%edi
    3a84:	c7 44 24 0c 0c 00 00 	movl   $0xc,0xc(%esp)
    3a8b:	00 
    3a8c:	89 44 24 08          	mov    %eax,0x8(%esp)
    3a90:	89 7c 24 04          	mov    %edi,0x4(%esp)
    3a94:	8b 43 10             	mov    0x10(%ebx),%eax
    3a97:	89 04 24             	mov    %eax,(%esp)
    3a9a:	e8 91 19 00 00       	call   5430 <bd_read_toc>
    3a9f:	85 c0                	test   %eax,%eax
    3aa1:	75 35                	jne    3ad8 <block_get_toc+0xb8>
    3aa3:	83 c4 1c             	add    $0x1c,%esp
    3aa6:	89 f0                	mov    %esi,%eax
    3aa8:	5b                   	pop    %ebx
    3aa9:	5e                   	pop    %esi
    3aaa:	5f                   	pop    %edi
    3aab:	5d                   	pop    %ebp
    3aac:	c3                   	ret    
    3aad:	8d 76 00             	lea    0x0(%esi),%esi
    3ab0:	c7 04 24 64 48 02 00 	movl   $0x24864,(%esp)
    3ab7:	e8 64 88 00 00       	call   c320 <fibril_mutex_unlock>
    3abc:	c7 44 24 08 4f 03 00 	movl   $0x34f,0x8(%esp)
    3ac3:	00 
    3ac4:	c7 44 24 04 6f 1d 02 	movl   $0x21d6f,0x4(%esp)
    3acb:	00 
    3acc:	c7 04 24 77 1d 02 00 	movl   $0x21d77,(%esp)
    3ad3:	e8 18 bb 01 00       	call   1f5f0 <assert_abort>
    3ad8:	89 34 24             	mov    %esi,(%esp)
    3adb:	31 f6                	xor    %esi,%esi
    3add:	e8 3e 14 01 00       	call   14f20 <free>
    3ae2:	eb bf                	jmp    3aa3 <block_get_toc+0x83>

00003ae4 <write_blocks.part.1>:
    3ae4:	55                   	push   %ebp
    3ae5:	89 e5                	mov    %esp,%ebp
    3ae7:	83 ec 18             	sub    $0x18,%esp
    3aea:	c7 44 24 08 85 03 00 	movl   $0x385,0x8(%esp)
    3af1:	00 
    3af2:	c7 44 24 04 6f 1d 02 	movl   $0x21d6f,0x4(%esp)
    3af9:	00 
    3afa:	c7 04 24 77 1d 02 00 	movl   $0x21d77,(%esp)
    3b01:	e8 ea ba 01 00       	call   1f5f0 <assert_abort>

00003b06 <read_blocks.part.2>:
    3b06:	55                   	push   %ebp
    3b07:	89 e5                	mov    %esp,%ebp
    3b09:	83 ec 18             	sub    $0x18,%esp
    3b0c:	c7 44 24 08 6a 03 00 	movl   $0x36a,0x8(%esp)
    3b13:	00 
    3b14:	c7 44 24 04 6f 1d 02 	movl   $0x21d6f,0x4(%esp)
    3b1b:	00 
    3b1c:	c7 04 24 77 1d 02 00 	movl   $0x21d77,(%esp)
    3b23:	e8 c8 ba 01 00       	call   1f5f0 <assert_abort>
    3b28:	66 90                	xchg   %ax,%ax
    3b2a:	66 90                	xchg   %ax,%ax
    3b2c:	66 90                	xchg   %ax,%ax
    3b2e:	66 90                	xchg   %ax,%ax

00003b30 <vfs_connection>:
    3b30:	55                   	push   %ebp
    3b31:	89 e5                	mov    %esp,%ebp
    3b33:	57                   	push   %edi
    3b34:	56                   	push   %esi
    3b35:	53                   	push   %ebx
    3b36:	81 ec dc 01 00 00    	sub    $0x1dc,%esp
    3b3c:	8b 45 08             	mov    0x8(%ebp),%eax
    3b3f:	85 c0                	test   %eax,%eax
    3b41:	0f 85 51 0a 00 00    	jne    4598 <vfs_connection+0xa68>
    3b47:	90                   	nop
    3b48:	8d 85 c0 fe ff ff    	lea    -0x140(%ebp),%eax
    3b4e:	c7 44 24 04 00 00 00 	movl   $0x0,0x4(%esp)
    3b55:	00 
    3b56:	89 04 24             	mov    %eax,(%esp)
    3b59:	e8 c2 27 01 00       	call   16320 <async_get_call_timeout>
    3b5e:	89 c6                	mov    %eax,%esi
    3b60:	8b 85 c0 fe ff ff    	mov    -0x140(%ebp),%eax
    3b66:	85 c0                	test   %eax,%eax
    3b68:	0f 84 9a 09 00 00    	je     4508 <vfs_connection+0x9d8>
    3b6e:	2d 00 04 00 00       	sub    $0x400,%eax
    3b73:	83 f8 0c             	cmp    $0xc,%eax
    3b76:	76 18                	jbe    3b90 <vfs_connection+0x60>
    3b78:	c7 44 24 04 f5 ff ff 	movl   $0xfffffff5,0x4(%esp)
    3b7f:	ff 
    3b80:	89 34 24             	mov    %esi,(%esp)
    3b83:	e8 c8 3d 01 00       	call   17950 <async_answer_0>
    3b88:	eb be                	jmp    3b48 <vfs_connection+0x18>
    3b8a:	8d b6 00 00 00 00    	lea    0x0(%esi),%esi
    3b90:	ff 24 85 5c 1e 02 00 	jmp    *0x21e5c(,%eax,4)
    3b97:	90                   	nop
    3b98:	8b 0d 04 4f 02 00    	mov    0x24f04,%ecx
    3b9e:	8b 95 c4 fe ff ff    	mov    -0x13c(%ebp),%edx
    3ba4:	89 8d 74 fe ff ff    	mov    %ecx,-0x18c(%ebp)
    3baa:	8b 8d c8 fe ff ff    	mov    -0x138(%ebp),%ecx
    3bb0:	89 95 68 fe ff ff    	mov    %edx,-0x198(%ebp)
    3bb6:	89 8d 70 fe ff ff    	mov    %ecx,-0x190(%ebp)
    3bbc:	8b 95 d0 fe ff ff    	mov    -0x130(%ebp),%edx
    3bc2:	8b 8d cc fe ff ff    	mov    -0x134(%ebp),%ecx
    3bc8:	89 8d 64 fe ff ff    	mov    %ecx,-0x19c(%ebp)
    3bce:	89 95 60 fe ff ff    	mov    %edx,-0x1a0(%ebp)
    3bd4:	8b 8d d4 fe ff ff    	mov    -0x12c(%ebp),%ecx
    3bda:	8b 95 70 fe ff ff    	mov    -0x190(%ebp),%edx
    3be0:	8b 3d 08 4f 02 00    	mov    0x24f08,%edi
    3be6:	89 8d 5c fe ff ff    	mov    %ecx,-0x1a4(%ebp)
    3bec:	39 95 68 fe ff ff    	cmp    %edx,-0x198(%ebp)
    3bf2:	76 0c                	jbe    3c00 <vfs_connection+0xd0>
    3bf4:	81 c2 00 00 02 00    	add    $0x20000,%edx
    3bfa:	89 95 70 fe ff ff    	mov    %edx,-0x190(%ebp)
    3c00:	8b 8d 64 fe ff ff    	mov    -0x19c(%ebp),%ecx
    3c06:	8d 85 84 fe ff ff    	lea    -0x17c(%ebp),%eax
    3c0c:	89 4c 24 04          	mov    %ecx,0x4(%esp)
    3c10:	8b 8d 74 fe ff ff    	mov    -0x18c(%ebp),%ecx
    3c16:	c7 85 84 fe ff ff 00 	movl   $0x0,-0x17c(%ebp)
    3c1d:	00 00 00 
    3c20:	c7 85 88 fe ff ff 00 	movl   $0x0,-0x178(%ebp)
    3c27:	00 00 00 
    3c2a:	89 04 24             	mov    %eax,(%esp)
    3c2d:	ff 11                	call   *(%ecx)
    3c2f:	89 c2                	mov    %eax,%edx
    3c31:	85 c0                	test   %eax,%eax
    3c33:	0f 85 df 08 00 00    	jne    4518 <vfs_connection+0x9e8>
    3c39:	8b 85 84 fe ff ff    	mov    -0x17c(%ebp),%eax
    3c3f:	80 38 00             	cmpb   $0x0,(%eax)
    3c42:	0f 85 2b 0a 00 00    	jne    4673 <vfs_connection+0xb43>
    3c48:	8b 95 68 fe ff ff    	mov    -0x198(%ebp),%edx
    3c4e:	8b 0d 0c 4f 02 00    	mov    0x24f0c,%ecx
    3c54:	81 e2 ff ff 01 00    	and    $0x1ffff,%edx
    3c5a:	66 89 bd 52 fe ff ff 	mov    %di,-0x1ae(%ebp)
    3c61:	80 3c 11 2f          	cmpb   $0x2f,(%ecx,%edx,1)
    3c65:	8b 95 68 fe ff ff    	mov    -0x198(%ebp),%edx
    3c6b:	0f 94 c3             	sete   %bl
    3c6e:	81 e3 ff 00 00 00    	and    $0xff,%ebx
    3c74:	01 d3                	add    %edx,%ebx
    3c76:	39 9d 70 fe ff ff    	cmp    %ebx,-0x190(%ebp)
    3c7c:	0f 82 ac 0f 00 00    	jb     4c2e <vfs_connection+0x10fe>
    3c82:	8b 95 60 fe ff ff    	mov    -0x1a0(%ebp),%edx
    3c88:	c7 85 6c fe ff ff 00 	movl   $0x0,-0x194(%ebp)
    3c8f:	00 00 00 
    3c92:	83 e2 08             	and    $0x8,%edx
    3c95:	89 b5 54 fe ff ff    	mov    %esi,-0x1ac(%ebp)
    3c9b:	89 95 58 fe ff ff    	mov    %edx,-0x1a8(%ebp)
    3ca1:	8d 8d 80 fe ff ff    	lea    -0x180(%ebp),%ecx
    3ca7:	89 44 24 04          	mov    %eax,0x4(%esp)
    3cab:	89 0c 24             	mov    %ecx,(%esp)
    3cae:	8b 8d 74 fe ff ff    	mov    -0x18c(%ebp),%ecx
    3cb4:	ff 51 24             	call   *0x24(%ecx)
    3cb7:	85 c0                	test   %eax,%eax
    3cb9:	0f 85 55 0a 00 00    	jne    4714 <vfs_connection+0xbe4>
    3cbf:	80 bd 80 fe ff ff 00 	cmpb   $0x0,-0x180(%ebp)
    3cc6:	0f 84 4c 0c 00 00    	je     4918 <vfs_connection+0xde8>
    3ccc:	8b 35 0c 4f 02 00    	mov    0x24f0c,%esi
    3cd2:	31 d2                	xor    %edx,%edx
    3cd4:	8b 8d 70 fe ff ff    	mov    -0x190(%ebp),%ecx
    3cda:	8d b6 00 00 00 00    	lea    0x0(%esi),%esi
    3ce0:	89 d8                	mov    %ebx,%eax
    3ce2:	25 ff ff 01 00       	and    $0x1ffff,%eax
    3ce7:	8a 04 06             	mov    (%esi,%eax,1),%al
    3cea:	3c 2f                	cmp    $0x2f,%al
    3cec:	0f 84 8e 08 00 00    	je     4580 <vfs_connection+0xa50>
    3cf2:	81 fa ff 00 00 00    	cmp    $0xff,%edx
    3cf8:	0f 84 5a 09 00 00    	je     4658 <vfs_connection+0xb28>
    3cfe:	43                   	inc    %ebx
    3cff:	88 84 15 e4 fe ff ff 	mov    %al,-0x11c(%ebp,%edx,1)
    3d06:	8d bd e4 fe ff ff    	lea    -0x11c(%ebp),%edi
    3d0c:	42                   	inc    %edx
    3d0d:	39 d9                	cmp    %ebx,%ecx
    3d0f:	73 cf                	jae    3ce0 <vfs_connection+0x1b0>
    3d11:	89 de                	mov    %ebx,%esi
    3d13:	8b 85 84 fe ff ff    	mov    -0x17c(%ebp),%eax
    3d19:	8b 8d 74 fe ff ff    	mov    -0x18c(%ebp),%ecx
    3d1f:	89 44 24 04          	mov    %eax,0x4(%esp)
    3d23:	8d 85 88 fe ff ff    	lea    -0x178(%ebp),%eax
    3d29:	c6 84 15 e4 fe ff ff 	movb   $0x0,-0x11c(%ebp,%edx,1)
    3d30:	00 
    3d31:	89 7c 24 08          	mov    %edi,0x8(%esp)
    3d35:	89 04 24             	mov    %eax,(%esp)
    3d38:	43                   	inc    %ebx
    3d39:	ff 51 04             	call   *0x4(%ecx)
    3d3c:	85 c0                	test   %eax,%eax
    3d3e:	0f 85 d0 09 00 00    	jne    4714 <vfs_connection+0xbe4>
    3d44:	8b 85 88 fe ff ff    	mov    -0x178(%ebp),%eax
    3d4a:	85 c0                	test   %eax,%eax
    3d4c:	0f 84 9a 0c 00 00    	je     49ec <vfs_connection+0xebc>
    3d52:	80 38 00             	cmpb   $0x0,(%eax)
    3d55:	74 1a                	je     3d71 <vfs_connection+0x241>
    3d57:	8b bd 58 fe ff ff    	mov    -0x1a8(%ebp),%edi
    3d5d:	85 ff                	test   %edi,%edi
    3d5f:	0f 84 f7 0d 00 00    	je     4b5c <vfs_connection+0x102c>
    3d65:	39 9d 70 fe ff ff    	cmp    %ebx,-0x190(%ebp)
    3d6b:	0f 83 b0 0e 00 00    	jae    4c21 <vfs_connection+0x10f1>
    3d71:	8b 8d 6c fe ff ff    	mov    -0x194(%ebp),%ecx
    3d77:	85 c9                	test   %ecx,%ecx
    3d79:	74 20                	je     3d9b <vfs_connection+0x26b>
    3d7b:	8b 8d 6c fe ff ff    	mov    -0x194(%ebp),%ecx
    3d81:	89 0c 24             	mov    %ecx,(%esp)
    3d84:	8b 8d 74 fe ff ff    	mov    -0x18c(%ebp),%ecx
    3d8a:	ff 51 10             	call   *0x10(%ecx)
    3d8d:	85 c0                	test   %eax,%eax
    3d8f:	0f 85 7f 09 00 00    	jne    4714 <vfs_connection+0xbe4>
    3d95:	8b 85 88 fe ff ff    	mov    -0x178(%ebp),%eax
    3d9b:	8b 8d 84 fe ff ff    	mov    -0x17c(%ebp),%ecx
    3da1:	c7 85 88 fe ff ff 00 	movl   $0x0,-0x178(%ebp)
    3da8:	00 00 00 
    3dab:	89 8d 6c fe ff ff    	mov    %ecx,-0x194(%ebp)
    3db1:	89 85 84 fe ff ff    	mov    %eax,-0x17c(%ebp)
    3db7:	39 9d 70 fe ff ff    	cmp    %ebx,-0x190(%ebp)
    3dbd:	0f 83 de fe ff ff    	jae    3ca1 <vfs_connection+0x171>
    3dc3:	8b b5 54 fe ff ff    	mov    -0x1ac(%ebp),%esi
    3dc9:	f6 85 60 fe ff ff 80 	testb  $0x80,-0x1a0(%ebp)
    3dd0:	0f 85 ff 0c 00 00    	jne    4ad5 <vfs_connection+0xfa5>
    3dd6:	8b 85 60 fe ff ff    	mov    -0x1a0(%ebp),%eax
    3ddc:	83 e0 30             	and    $0x30,%eax
    3ddf:	83 f8 30             	cmp    $0x30,%eax
    3de2:	0f 84 d8 0c 00 00    	je     4ac0 <vfs_connection+0xf90>
    3de8:	f6 85 60 fe ff ff 40 	testb  $0x40,-0x1a0(%ebp)
    3def:	0f 85 cb 0c 00 00    	jne    4ac0 <vfs_connection+0xf90>
    3df5:	f6 85 60 fe ff ff 01 	testb  $0x1,-0x1a0(%ebp)
    3dfc:	0f 85 6a 0e 00 00    	jne    4c6c <vfs_connection+0x113c>
    3e02:	f6 85 60 fe ff ff 02 	testb  $0x2,-0x1a0(%ebp)
    3e09:	0f 85 2e 0e 00 00    	jne    4c3d <vfs_connection+0x110d>
    3e0f:	f6 85 60 fe ff ff 04 	testb  $0x4,-0x1a0(%ebp)
    3e16:	0f 84 23 09 00 00    	je     473f <vfs_connection+0xc0f>
    3e1c:	8b 95 6c fe ff ff    	mov    -0x194(%ebp),%edx
    3e22:	85 d2                	test   %edx,%edx
    3e24:	0f 84 15 09 00 00    	je     473f <vfs_connection+0xc0f>
    3e2a:	c7 44 24 04 f2 ff ff 	movl   $0xfffffff2,0x4(%esp)
    3e31:	ff 
    3e32:	89 34 24             	mov    %esi,(%esp)
    3e35:	e8 16 3b 01 00       	call   17950 <async_answer_0>
    3e3a:	e9 f9 06 00 00       	jmp    4538 <vfs_connection+0xa08>
    3e3f:	90                   	nop
    3e40:	8b 8d c8 fe ff ff    	mov    -0x138(%ebp),%ecx
    3e46:	8b bd c4 fe ff ff    	mov    -0x13c(%ebp),%edi
    3e4c:	8d 85 8c fe ff ff    	lea    -0x174(%ebp),%eax
    3e52:	8b 1d 04 4f 02 00    	mov    0x24f04,%ebx
    3e58:	8b 15 08 4f 02 00    	mov    0x24f08,%edx
    3e5e:	89 4c 24 08          	mov    %ecx,0x8(%esp)
    3e62:	89 7c 24 04          	mov    %edi,0x4(%esp)
    3e66:	89 04 24             	mov    %eax,(%esp)
    3e69:	89 95 70 fe ff ff    	mov    %edx,-0x190(%ebp)
    3e6f:	89 8d 74 fe ff ff    	mov    %ecx,-0x18c(%ebp)
    3e75:	ff 53 08             	call   *0x8(%ebx)
    3e78:	85 c0                	test   %eax,%eax
    3e7a:	75 7f                	jne    3efb <vfs_connection+0x3cb>
    3e7c:	8d 95 94 fe ff ff    	lea    -0x16c(%ebp),%edx
    3e82:	8d 85 90 fe ff ff    	lea    -0x170(%ebp),%eax
    3e88:	89 54 24 04          	mov    %edx,0x4(%esp)
    3e8c:	89 04 24             	mov    %eax,(%esp)
    3e8f:	e8 2c 50 01 00       	call   18ec0 <async_data_read_receive>
    3e94:	84 c0                	test   %al,%al
    3e96:	74 0d                	je     3ea5 <vfs_connection+0x375>
    3e98:	83 bd 94 fe ff ff 20 	cmpl   $0x20,-0x16c(%ebp)
    3e9f:	0f 84 8f 09 00 00    	je     4834 <vfs_connection+0xd04>
    3ea5:	8b 85 8c fe ff ff    	mov    -0x174(%ebp),%eax
    3eab:	89 04 24             	mov    %eax,(%esp)
    3eae:	ff 53 10             	call   *0x10(%ebx)
    3eb1:	8b 85 90 fe ff ff    	mov    -0x170(%ebp),%eax
    3eb7:	c7 44 24 04 f2 ff ff 	movl   $0xfffffff2,0x4(%esp)
    3ebe:	ff 
    3ebf:	89 04 24             	mov    %eax,(%esp)
    3ec2:	e8 89 3a 01 00       	call   17950 <async_answer_0>
    3ec7:	c7 44 24 04 f2 ff ff 	movl   $0xfffffff2,0x4(%esp)
    3ece:	ff 
    3ecf:	89 34 24             	mov    %esi,(%esp)
    3ed2:	e8 79 3a 01 00       	call   17950 <async_answer_0>
    3ed7:	e9 6c fc ff ff       	jmp    3b48 <vfs_connection+0x18>
    3edc:	8d 74 26 00          	lea    0x0(%esi,%eiz,1),%esi
    3ee0:	8b 85 c8 fe ff ff    	mov    -0x138(%ebp),%eax
    3ee6:	89 44 24 04          	mov    %eax,0x4(%esp)
    3eea:	8b 85 c4 fe ff ff    	mov    -0x13c(%ebp),%eax
    3ef0:	89 04 24             	mov    %eax,(%esp)
    3ef3:	a1 00 4f 02 00       	mov    0x24f00,%eax
    3ef8:	ff 50 1c             	call   *0x1c(%eax)
    3efb:	89 44 24 04          	mov    %eax,0x4(%esp)
    3eff:	89 34 24             	mov    %esi,(%esp)
    3f02:	e8 49 3a 01 00       	call   17950 <async_answer_0>
    3f07:	e9 3c fc ff ff       	jmp    3b48 <vfs_connection+0x18>
    3f0c:	8d 74 26 00          	lea    0x0(%esi,%eiz,1),%esi
    3f10:	8b 85 c8 fe ff ff    	mov    -0x138(%ebp),%eax
    3f16:	8b 1d 04 4f 02 00    	mov    0x24f04,%ebx
    3f1c:	89 44 24 08          	mov    %eax,0x8(%esp)
    3f20:	8b 85 c4 fe ff ff    	mov    -0x13c(%ebp),%eax
    3f26:	89 44 24 04          	mov    %eax,0x4(%esp)
    3f2a:	8d 85 8c fe ff ff    	lea    -0x174(%ebp),%eax
    3f30:	89 04 24             	mov    %eax,(%esp)
    3f33:	ff 53 08             	call   *0x8(%ebx)
    3f36:	85 c0                	test   %eax,%eax
    3f38:	75 c1                	jne    3efb <vfs_connection+0x3cb>
    3f3a:	8b 85 8c fe ff ff    	mov    -0x174(%ebp),%eax
    3f40:	85 c0                	test   %eax,%eax
    3f42:	0f 84 c4 07 00 00    	je     470c <vfs_connection+0xbdc>
    3f48:	80 38 00             	cmpb   $0x0,(%eax)
    3f4b:	0f 84 5f 06 00 00    	je     45b0 <vfs_connection+0xa80>
    3f51:	8b 40 04             	mov    0x4(%eax),%eax
    3f54:	89 04 24             	mov    %eax,(%esp)
    3f57:	e8 f4 43 01 00       	call   18350 <async_exchange_begin>
    3f5c:	c7 44 24 28 00 00 00 	movl   $0x0,0x28(%esp)
    3f63:	00 
    3f64:	89 c7                	mov    %eax,%edi
    3f66:	8b 85 8c fe ff ff    	mov    -0x174(%ebp),%eax
    3f6c:	c7 44 24 24 00 00 00 	movl   $0x0,0x24(%esp)
    3f73:	00 
    3f74:	c7 44 24 20 00 00 00 	movl   $0x0,0x20(%esp)
    3f7b:	00 
    3f7c:	c7 44 24 1c 00 00 00 	movl   $0x0,0x1c(%esp)
    3f83:	00 
    3f84:	c7 44 24 18 00 00 00 	movl   $0x0,0x18(%esp)
    3f8b:	00 
    3f8c:	c7 44 24 14 00 00 00 	movl   $0x0,0x14(%esp)
    3f93:	00 
    3f94:	c7 44 24 10 00 00 00 	movl   $0x0,0x10(%esp)
    3f9b:	00 
    3f9c:	c7 44 24 0c 00 00 00 	movl   $0x0,0xc(%esp)
    3fa3:	00 
    3fa4:	8b 40 0c             	mov    0xc(%eax),%eax
    3fa7:	c7 44 24 04 08 04 00 	movl   $0x408,0x4(%esp)
    3fae:	00 
    3faf:	89 44 24 08          	mov    %eax,0x8(%esp)
    3fb3:	89 3c 24             	mov    %edi,(%esp)
    3fb6:	e8 45 33 01 00       	call   17300 <async_req_fast>
    3fbb:	89 3c 24             	mov    %edi,(%esp)
    3fbe:	89 85 74 fe ff ff    	mov    %eax,-0x18c(%ebp)
    3fc4:	e8 f7 46 01 00       	call   186c0 <async_exchange_end>
    3fc9:	8b 8d 74 fe ff ff    	mov    -0x18c(%ebp),%ecx
    3fcf:	85 c9                	test   %ecx,%ecx
    3fd1:	75 34                	jne    4007 <vfs_connection+0x4d7>
    3fd3:	8b 85 8c fe ff ff    	mov    -0x174(%ebp),%eax
    3fd9:	8b 40 04             	mov    0x4(%eax),%eax
    3fdc:	89 04 24             	mov    %eax,(%esp)
    3fdf:	e8 6c 42 01 00       	call   18250 <async_hangup>
    3fe4:	8b 85 8c fe ff ff    	mov    -0x174(%ebp),%eax
    3fea:	c6 00 00             	movb   $0x0,(%eax)
    3fed:	66 c7 40 08 00 00    	movw   $0x0,0x8(%eax)
    3ff3:	c7 40 0c 00 00 00 00 	movl   $0x0,0xc(%eax)
    3ffa:	c7 40 04 00 00 00 00 	movl   $0x0,0x4(%eax)
    4001:	89 04 24             	mov    %eax,(%esp)
    4004:	ff 53 10             	call   *0x10(%ebx)
    4007:	8b 85 8c fe ff ff    	mov    -0x174(%ebp),%eax
    400d:	89 04 24             	mov    %eax,(%esp)
    4010:	ff 53 10             	call   *0x10(%ebx)
    4013:	8b 85 74 fe ff ff    	mov    -0x18c(%ebp),%eax
    4019:	89 44 24 04          	mov    %eax,0x4(%esp)
    401d:	89 34 24             	mov    %esi,(%esp)
    4020:	e8 2b 39 01 00       	call   17950 <async_answer_0>
    4025:	e9 1e fb ff ff       	jmp    3b48 <vfs_connection+0x18>
    402a:	8d b6 00 00 00 00    	lea    0x0(%esi),%esi
    4030:	8b 85 c4 fe ff ff    	mov    -0x13c(%ebp),%eax
    4036:	89 04 24             	mov    %eax,(%esp)
    4039:	a1 00 4f 02 00       	mov    0x24f00,%eax
    403e:	ff 50 04             	call   *0x4(%eax)
    4041:	89 34 24             	mov    %esi,(%esp)
    4044:	89 44 24 04          	mov    %eax,0x4(%esp)
    4048:	e8 03 39 01 00       	call   17950 <async_answer_0>
    404d:	e9 f6 fa ff ff       	jmp    3b48 <vfs_connection+0x18>
    4052:	8d b6 00 00 00 00    	lea    0x0(%esi),%esi
    4058:	8d 95 8c fe ff ff    	lea    -0x174(%ebp),%edx
    405e:	c7 44 24 14 00 00 00 	movl   $0x0,0x14(%esp)
    4065:	00 
    4066:	c7 44 24 10 00 00 00 	movl   $0x0,0x10(%esp)
    406d:	00 
    406e:	c7 44 24 0c 00 00 00 	movl   $0x0,0xc(%esp)
    4075:	00 
    4076:	c7 44 24 08 00 00 00 	movl   $0x0,0x8(%esp)
    407d:	00 
    407e:	c7 44 24 04 01 00 00 	movl   $0x1,0x4(%esp)
    4085:	00 
    4086:	89 14 24             	mov    %edx,(%esp)
    4089:	8b 9d c4 fe ff ff    	mov    -0x13c(%ebp),%ebx
    408f:	e8 dc 53 01 00       	call   19470 <async_data_write_accept>
    4094:	85 c0                	test   %eax,%eax
    4096:	0f 85 5f fe ff ff    	jne    3efb <vfs_connection+0x3cb>
    409c:	8d 85 98 fe ff ff    	lea    -0x168(%ebp),%eax
    40a2:	8d 8d 94 fe ff ff    	lea    -0x16c(%ebp),%ecx
    40a8:	89 44 24 0c          	mov    %eax,0xc(%esp)
    40ac:	8d 85 90 fe ff ff    	lea    -0x170(%ebp),%eax
    40b2:	89 44 24 08          	mov    %eax,0x8(%esp)
    40b6:	8b 85 8c fe ff ff    	mov    -0x174(%ebp),%eax
    40bc:	89 44 24 04          	mov    %eax,0x4(%esp)
    40c0:	a1 00 4f 02 00       	mov    0x24f00,%eax
    40c5:	89 4c 24 10          	mov    %ecx,0x10(%esp)
    40c9:	89 1c 24             	mov    %ebx,(%esp)
    40cc:	ff 10                	call   *(%eax)
    40ce:	85 c0                	test   %eax,%eax
    40d0:	0f 85 fa 04 00 00    	jne    45d0 <vfs_connection+0xaa0>
    40d6:	8b 85 94 fe ff ff    	mov    -0x16c(%ebp),%eax
    40dc:	c7 44 24 04 00 00 00 	movl   $0x0,0x4(%esp)
    40e3:	00 
    40e4:	89 44 24 14          	mov    %eax,0x14(%esp)
    40e8:	8b 85 9c fe ff ff    	mov    -0x164(%ebp),%eax
    40ee:	89 44 24 10          	mov    %eax,0x10(%esp)
    40f2:	8b 85 98 fe ff ff    	mov    -0x168(%ebp),%eax
    40f8:	89 44 24 0c          	mov    %eax,0xc(%esp)
    40fc:	8b 85 90 fe ff ff    	mov    -0x170(%ebp),%eax
    4102:	89 44 24 08          	mov    %eax,0x8(%esp)
    4106:	89 34 24             	mov    %esi,(%esp)
    4109:	e8 42 39 01 00       	call   17a50 <async_answer_4>
    410e:	8b 85 8c fe ff ff    	mov    -0x174(%ebp),%eax
    4114:	89 04 24             	mov    %eax,(%esp)
    4117:	e8 04 0e 01 00       	call   14f20 <free>
    411c:	e9 27 fa ff ff       	jmp    3b48 <vfs_connection+0x18>
    4121:	8d b4 26 00 00 00 00 	lea    0x0(%esi,%eiz,1),%esi
    4128:	8b 95 c4 fe ff ff    	mov    -0x13c(%ebp),%edx
    412e:	8b 8d cc fe ff ff    	mov    -0x134(%ebp),%ecx
    4134:	89 95 74 fe ff ff    	mov    %edx,-0x18c(%ebp)
    413a:	c7 04 24 01 00 00 00 	movl   $0x1,(%esp)
    4141:	8b 95 d0 fe ff ff    	mov    -0x130(%ebp),%edx
    4147:	8b 1d 04 4f 02 00    	mov    0x24f04,%ebx
    414d:	89 95 70 fe ff ff    	mov    %edx,-0x190(%ebp)
    4153:	8b bd c8 fe ff ff    	mov    -0x138(%ebp),%edi
    4159:	89 8d 6c fe ff ff    	mov    %ecx,-0x194(%ebp)
    415f:	e8 4c 59 01 00       	call   19ab0 <async_clone_receive>
    4164:	89 c2                	mov    %eax,%edx
    4166:	85 c0                	test   %eax,%eax
    4168:	0f 84 48 04 00 00    	je     45b6 <vfs_connection+0xa86>
    416e:	8b 8d 74 fe ff ff    	mov    -0x18c(%ebp),%ecx
    4174:	8d 85 8c fe ff ff    	lea    -0x174(%ebp),%eax
    417a:	89 7c 24 08          	mov    %edi,0x8(%esp)
    417e:	89 95 4c fe ff ff    	mov    %edx,-0x1b4(%ebp)
    4184:	89 4c 24 04          	mov    %ecx,0x4(%esp)
    4188:	89 04 24             	mov    %eax,(%esp)
    418b:	ff 53 08             	call   *0x8(%ebx)
    418e:	8b 95 4c fe ff ff    	mov    -0x1b4(%ebp),%edx
    4194:	89 c7                	mov    %eax,%edi
    4196:	85 c0                	test   %eax,%eax
    4198:	0f 85 82 04 00 00    	jne    4620 <vfs_connection+0xaf0>
    419e:	8b 85 8c fe ff ff    	mov    -0x174(%ebp),%eax
    41a4:	85 c0                	test   %eax,%eax
    41a6:	0f 84 44 05 00 00    	je     46f0 <vfs_connection+0xbc0>
    41ac:	80 38 00             	cmpb   $0x0,(%eax)
    41af:	89 14 24             	mov    %edx,(%esp)
    41b2:	0f 85 30 04 00 00    	jne    45e8 <vfs_connection+0xab8>
    41b8:	89 95 4c fe ff ff    	mov    %edx,-0x1b4(%ebp)
    41be:	e8 8d 41 01 00       	call   18350 <async_exchange_begin>
    41c3:	c7 04 24 01 00 00 00 	movl   $0x1,(%esp)
    41ca:	89 44 24 04          	mov    %eax,0x4(%esp)
    41ce:	89 85 48 fe ff ff    	mov    %eax,-0x1b8(%ebp)
    41d4:	e8 97 3b 01 00       	call   17d70 <async_clone_establish>
    41d9:	8b 95 4c fe ff ff    	mov    -0x1b4(%ebp),%edx
    41df:	85 c0                	test   %eax,%eax
    41e1:	8b 8d 48 fe ff ff    	mov    -0x1b8(%ebp),%ecx
    41e7:	0f 84 01 06 00 00    	je     47ee <vfs_connection+0xcbe>
    41ed:	8b 85 70 fe ff ff    	mov    -0x190(%ebp),%eax
    41f3:	8d bd e4 fe ff ff    	lea    -0x11c(%ebp),%edi
    41f9:	89 0c 24             	mov    %ecx,(%esp)
    41fc:	89 7c 24 18          	mov    %edi,0x18(%esp)
    4200:	c7 44 24 14 00 00 00 	movl   $0x0,0x14(%esp)
    4207:	00 
    4208:	c7 44 24 10 00 00 00 	movl   $0x0,0x10(%esp)
    420f:	00 
    4210:	c7 44 24 0c 00 00 00 	movl   $0x0,0xc(%esp)
    4217:	00 
    4218:	89 44 24 08          	mov    %eax,0x8(%esp)
    421c:	c7 44 24 04 06 04 00 	movl   $0x406,0x4(%esp)
    4223:	00 
    4224:	89 95 4c fe ff ff    	mov    %edx,-0x1b4(%ebp)
    422a:	89 8d 48 fe ff ff    	mov    %ecx,-0x1b8(%ebp)
    4230:	e8 eb 53 01 00       	call   19620 <async_data_write_forward_fast>
    4235:	8b 8d 48 fe ff ff    	mov    -0x1b8(%ebp),%ecx
    423b:	89 c3                	mov    %eax,%ebx
    423d:	89 0c 24             	mov    %ecx,(%esp)
    4240:	e8 7b 44 01 00       	call   186c0 <async_exchange_end>
    4245:	85 db                	test   %ebx,%ebx
    4247:	8b 95 4c fe ff ff    	mov    -0x1b4(%ebp),%edx
    424d:	75 1f                	jne    426e <vfs_connection+0x73e>
    424f:	8b 85 8c fe ff ff    	mov    -0x174(%ebp),%eax
    4255:	8b 8d 6c fe ff ff    	mov    -0x194(%ebp),%ecx
    425b:	66 89 48 08          	mov    %cx,0x8(%eax)
    425f:	8b 8d 70 fe ff ff    	mov    -0x190(%ebp),%ecx
    4265:	c6 00 01             	movb   $0x1,(%eax)
    4268:	89 48 0c             	mov    %ecx,0xc(%eax)
    426b:	89 50 04             	mov    %edx,0x4(%eax)
    426e:	8b 85 f4 fe ff ff    	mov    -0x10c(%ebp),%eax
    4274:	89 5c 24 04          	mov    %ebx,0x4(%esp)
    4278:	89 44 24 14          	mov    %eax,0x14(%esp)
    427c:	8b 85 f0 fe ff ff    	mov    -0x110(%ebp),%eax
    4282:	89 44 24 10          	mov    %eax,0x10(%esp)
    4286:	8b 85 ec fe ff ff    	mov    -0x114(%ebp),%eax
    428c:	89 44 24 0c          	mov    %eax,0xc(%esp)
    4290:	8b 85 e8 fe ff ff    	mov    -0x118(%ebp),%eax
    4296:	89 44 24 08          	mov    %eax,0x8(%esp)
    429a:	89 34 24             	mov    %esi,(%esp)
    429d:	e8 ae 37 01 00       	call   17a50 <async_answer_4>
    42a2:	e9 a1 f8 ff ff       	jmp    3b48 <vfs_connection+0x18>
    42a7:	90                   	nop
    42a8:	8b 85 c8 fe ff ff    	mov    -0x138(%ebp),%eax
    42ae:	89 44 24 04          	mov    %eax,0x4(%esp)
    42b2:	8b 85 c4 fe ff ff    	mov    -0x13c(%ebp),%eax
    42b8:	89 04 24             	mov    %eax,(%esp)
    42bb:	a1 00 4f 02 00       	mov    0x24f00,%eax
    42c0:	ff 50 14             	call   *0x14(%eax)
    42c3:	89 34 24             	mov    %esi,(%esp)
    42c6:	89 44 24 04          	mov    %eax,0x4(%esp)
    42ca:	e8 81 36 01 00       	call   17950 <async_answer_0>
    42cf:	e9 74 f8 ff ff       	jmp    3b48 <vfs_connection+0x18>
    42d4:	8d 74 26 00          	lea    0x0(%esi,%eiz,1),%esi
    42d8:	8b 85 d0 fe ff ff    	mov    -0x130(%ebp),%eax
    42de:	8b 8d cc fe ff ff    	mov    -0x134(%ebp),%ecx
    42e4:	89 44 24 0c          	mov    %eax,0xc(%esp)
    42e8:	8b 85 c8 fe ff ff    	mov    -0x138(%ebp),%eax
    42ee:	89 44 24 04          	mov    %eax,0x4(%esp)
    42f2:	8b 85 c4 fe ff ff    	mov    -0x13c(%ebp),%eax
    42f8:	89 04 24             	mov    %eax,(%esp)
    42fb:	a1 00 4f 02 00       	mov    0x24f00,%eax
    4300:	89 4c 24 08          	mov    %ecx,0x8(%esp)
    4304:	ff 50 10             	call   *0x10(%eax)
    4307:	89 34 24             	mov    %esi,(%esp)
    430a:	89 44 24 04          	mov    %eax,0x4(%esp)
    430e:	e8 3d 36 01 00       	call   17950 <async_answer_0>
    4313:	e9 30 f8 ff ff       	jmp    3b48 <vfs_connection+0x18>
    4318:	8d 85 98 fe ff ff    	lea    -0x168(%ebp),%eax
    431e:	8d 95 94 fe ff ff    	lea    -0x16c(%ebp),%edx
    4324:	89 44 24 14          	mov    %eax,0x14(%esp)
    4328:	8b 85 d0 fe ff ff    	mov    -0x130(%ebp),%eax
    432e:	89 44 24 0c          	mov    %eax,0xc(%esp)
    4332:	8b 85 c8 fe ff ff    	mov    -0x138(%ebp),%eax
    4338:	89 44 24 04          	mov    %eax,0x4(%esp)
    433c:	8b 85 c4 fe ff ff    	mov    -0x13c(%ebp),%eax
    4342:	8b 8d cc fe ff ff    	mov    -0x134(%ebp),%ecx
    4348:	89 04 24             	mov    %eax,(%esp)
    434b:	a1 00 4f 02 00       	mov    0x24f00,%eax
    4350:	89 54 24 10          	mov    %edx,0x10(%esp)
    4354:	89 4c 24 08          	mov    %ecx,0x8(%esp)
    4358:	ff 50 0c             	call   *0xc(%eax)
    435b:	85 c0                	test   %eax,%eax
    435d:	0f 85 98 fb ff ff    	jne    3efb <vfs_connection+0x3cb>
    4363:	8b 85 9c fe ff ff    	mov    -0x164(%ebp),%eax
    4369:	c7 44 24 04 00 00 00 	movl   $0x0,0x4(%esp)
    4370:	00 
    4371:	89 44 24 10          	mov    %eax,0x10(%esp)
    4375:	8b 85 98 fe ff ff    	mov    -0x168(%ebp),%eax
    437b:	89 44 24 0c          	mov    %eax,0xc(%esp)
    437f:	8b 85 94 fe ff ff    	mov    -0x16c(%ebp),%eax
    4385:	89 44 24 08          	mov    %eax,0x8(%esp)
    4389:	89 34 24             	mov    %esi,(%esp)
    438c:	e8 7f 36 01 00       	call   17a10 <async_answer_3>
    4391:	e9 b2 f7 ff ff       	jmp    3b48 <vfs_connection+0x18>
    4396:	66 90                	xchg   %ax,%ax
    4398:	8d 85 94 fe ff ff    	lea    -0x16c(%ebp),%eax
    439e:	8b 8d cc fe ff ff    	mov    -0x134(%ebp),%ecx
    43a4:	89 44 24 10          	mov    %eax,0x10(%esp)
    43a8:	8b 85 d0 fe ff ff    	mov    -0x130(%ebp),%eax
    43ae:	89 44 24 0c          	mov    %eax,0xc(%esp)
    43b2:	8b 85 c8 fe ff ff    	mov    -0x138(%ebp),%eax
    43b8:	89 44 24 04          	mov    %eax,0x4(%esp)
    43bc:	8b 85 c4 fe ff ff    	mov    -0x13c(%ebp),%eax
    43c2:	89 04 24             	mov    %eax,(%esp)
    43c5:	a1 00 4f 02 00       	mov    0x24f00,%eax
    43ca:	89 4c 24 08          	mov    %ecx,0x8(%esp)
    43ce:	ff 50 08             	call   *0x8(%eax)
    43d1:	85 c0                	test   %eax,%eax
    43d3:	0f 85 22 fb ff ff    	jne    3efb <vfs_connection+0x3cb>
    43d9:	8b 85 94 fe ff ff    	mov    -0x16c(%ebp),%eax
    43df:	c7 44 24 04 00 00 00 	movl   $0x0,0x4(%esp)
    43e6:	00 
    43e7:	89 44 24 08          	mov    %eax,0x8(%esp)
    43eb:	89 34 24             	mov    %esi,(%esp)
    43ee:	e8 9d 35 01 00       	call   17990 <async_answer_1>
    43f3:	e9 50 f7 ff ff       	jmp    3b48 <vfs_connection+0x18>
    43f8:	8b 85 c8 fe ff ff    	mov    -0x138(%ebp),%eax
    43fe:	8d 8d 8c fe ff ff    	lea    -0x174(%ebp),%ecx
    4404:	89 44 24 08          	mov    %eax,0x8(%esp)
    4408:	8b 1d 04 4f 02 00    	mov    0x24f04,%ebx
    440e:	8b 85 c4 fe ff ff    	mov    -0x13c(%ebp),%eax
    4414:	89 0c 24             	mov    %ecx,(%esp)
    4417:	89 44 24 04          	mov    %eax,0x4(%esp)
    441b:	ff 53 08             	call   *0x8(%ebx)
    441e:	85 c0                	test   %eax,%eax
    4420:	0f 85 d5 fa ff ff    	jne    3efb <vfs_connection+0x3cb>
    4426:	8b 85 8c fe ff ff    	mov    -0x174(%ebp),%eax
    442c:	85 c0                	test   %eax,%eax
    442e:	0f 84 0f 02 00 00    	je     4643 <vfs_connection+0xb13>
    4434:	89 04 24             	mov    %eax,(%esp)
    4437:	ff 53 0c             	call   *0xc(%ebx)
    443a:	89 85 74 fe ff ff    	mov    %eax,-0x18c(%ebp)
    4440:	8b 85 8c fe ff ff    	mov    -0x174(%ebp),%eax
    4446:	89 04 24             	mov    %eax,(%esp)
    4449:	ff 53 2c             	call   *0x2c(%ebx)
    444c:	89 85 70 fe ff ff    	mov    %eax,-0x190(%ebp)
    4452:	8b 85 8c fe ff ff    	mov    -0x174(%ebp),%eax
    4458:	89 95 4c fe ff ff    	mov    %edx,-0x1b4(%ebp)
    445e:	89 04 24             	mov    %eax,(%esp)
    4461:	ff 53 38             	call   *0x38(%ebx)
    4464:	31 c9                	xor    %ecx,%ecx
    4466:	88 c1                	mov    %al,%cl
    4468:	8b 85 8c fe ff ff    	mov    -0x174(%ebp),%eax
    446e:	89 8d 48 fe ff ff    	mov    %ecx,-0x1b8(%ebp)
    4474:	89 04 24             	mov    %eax,(%esp)
    4477:	ff 53 34             	call   *0x34(%ebx)
    447a:	3c 01                	cmp    $0x1,%al
    447c:	8b 85 8c fe ff ff    	mov    -0x174(%ebp),%eax
    4482:	19 ff                	sbb    %edi,%edi
    4484:	89 04 24             	mov    %eax,(%esp)
    4487:	ff 53 30             	call   *0x30(%ebx)
    448a:	83 f7 ff             	xor    $0xffffffff,%edi
    448d:	8b 8d 48 fe ff ff    	mov    -0x1b8(%ebp),%ecx
    4493:	89 44 24 10          	mov    %eax,0x10(%esp)
    4497:	83 e7 02             	and    $0x2,%edi
    449a:	8b 85 70 fe ff ff    	mov    -0x190(%ebp),%eax
    44a0:	09 f9                	or     %edi,%ecx
    44a2:	8b 95 4c fe ff ff    	mov    -0x1b4(%ebp),%edx
    44a8:	89 44 24 08          	mov    %eax,0x8(%esp)
    44ac:	8b 85 74 fe ff ff    	mov    -0x18c(%ebp),%eax
    44b2:	89 4c 24 14          	mov    %ecx,0x14(%esp)
    44b6:	89 54 24 0c          	mov    %edx,0xc(%esp)
    44ba:	89 44 24 04          	mov    %eax,0x4(%esp)
    44be:	89 34 24             	mov    %esi,(%esp)
    44c1:	e8 8a 35 01 00       	call   17a50 <async_answer_4>
    44c6:	8b 85 8c fe ff ff    	mov    -0x174(%ebp),%eax
    44cc:	89 04 24             	mov    %eax,(%esp)
    44cf:	ff 53 10             	call   *0x10(%ebx)
    44d2:	e9 71 f6 ff ff       	jmp    3b48 <vfs_connection+0x18>
    44d7:	90                   	nop
    44d8:	8b 85 c8 fe ff ff    	mov    -0x138(%ebp),%eax
    44de:	89 44 24 04          	mov    %eax,0x4(%esp)
    44e2:	8b 85 c4 fe ff ff    	mov    -0x13c(%ebp),%eax
    44e8:	89 04 24             	mov    %eax,(%esp)
    44eb:	a1 00 4f 02 00       	mov    0x24f00,%eax
    44f0:	ff 50 18             	call   *0x18(%eax)
    44f3:	89 34 24             	mov    %esi,(%esp)
    44f6:	89 44 24 04          	mov    %eax,0x4(%esp)
    44fa:	e8 51 34 01 00       	call   17950 <async_answer_0>
    44ff:	e9 44 f6 ff ff       	jmp    3b48 <vfs_connection+0x18>
    4504:	8d 74 26 00          	lea    0x0(%esi,%eiz,1),%esi
    4508:	81 c4 dc 01 00 00    	add    $0x1dc,%esp
    450e:	5b                   	pop    %ebx
    450f:	5e                   	pop    %esi
    4510:	5f                   	pop    %edi
    4511:	5d                   	pop    %ebp
    4512:	c3                   	ret    
    4513:	90                   	nop
    4514:	8d 74 26 00          	lea    0x0(%esi,%eiz,1),%esi
    4518:	c7 85 6c fe ff ff 00 	movl   $0x0,-0x194(%ebp)
    451f:	00 00 00 
    4522:	89 54 24 04          	mov    %edx,0x4(%esp)
    4526:	89 34 24             	mov    %esi,(%esp)
    4529:	e8 22 34 01 00       	call   17950 <async_answer_0>
    452e:	8b 85 6c fe ff ff    	mov    -0x194(%ebp),%eax
    4534:	85 c0                	test   %eax,%eax
    4536:	74 12                	je     454a <vfs_connection+0xa1a>
    4538:	8b 8d 6c fe ff ff    	mov    -0x194(%ebp),%ecx
    453e:	89 0c 24             	mov    %ecx,(%esp)
    4541:	8b 8d 74 fe ff ff    	mov    -0x18c(%ebp),%ecx
    4547:	ff 51 10             	call   *0x10(%ecx)
    454a:	8b 85 84 fe ff ff    	mov    -0x17c(%ebp),%eax
    4550:	85 c0                	test   %eax,%eax
    4552:	74 0c                	je     4560 <vfs_connection+0xa30>
    4554:	8b 8d 74 fe ff ff    	mov    -0x18c(%ebp),%ecx
    455a:	89 04 24             	mov    %eax,(%esp)
    455d:	ff 51 10             	call   *0x10(%ecx)
    4560:	8b 85 88 fe ff ff    	mov    -0x178(%ebp),%eax
    4566:	85 c0                	test   %eax,%eax
    4568:	0f 84 da f5 ff ff    	je     3b48 <vfs_connection+0x18>
    456e:	8b 8d 74 fe ff ff    	mov    -0x18c(%ebp),%ecx
    4574:	89 04 24             	mov    %eax,(%esp)
    4577:	ff 51 10             	call   *0x10(%ecx)
    457a:	e9 c9 f5 ff ff       	jmp    3b48 <vfs_connection+0x18>
    457f:	90                   	nop
    4580:	85 d2                	test   %edx,%edx
    4582:	0f 84 62 07 00 00    	je     4cea <vfs_connection+0x11ba>
    4588:	89 de                	mov    %ebx,%esi
    458a:	8d bd e4 fe ff ff    	lea    -0x11c(%ebp),%edi
    4590:	e9 7e f7 ff ff       	jmp    3d13 <vfs_connection+0x1e3>
    4595:	8d 76 00             	lea    0x0(%esi),%esi
    4598:	c7 44 24 04 00 00 00 	movl   $0x0,0x4(%esp)
    459f:	00 
    45a0:	89 04 24             	mov    %eax,(%esp)
    45a3:	e8 a8 33 01 00       	call   17950 <async_answer_0>
    45a8:	e9 9b f5 ff ff       	jmp    3b48 <vfs_connection+0x18>
    45ad:	8d 76 00             	lea    0x0(%esi),%esi
    45b0:	89 04 24             	mov    %eax,(%esp)
    45b3:	ff 53 10             	call   *0x10(%ebx)
    45b6:	c7 44 24 04 f2 ff ff 	movl   $0xfffffff2,0x4(%esp)
    45bd:	ff 
    45be:	89 34 24             	mov    %esi,(%esp)
    45c1:	e8 8a 33 01 00       	call   17950 <async_answer_0>
    45c6:	e9 7d f5 ff ff       	jmp    3b48 <vfs_connection+0x18>
    45cb:	90                   	nop
    45cc:	8d 74 26 00          	lea    0x0(%esi,%eiz,1),%esi
    45d0:	89 44 24 04          	mov    %eax,0x4(%esp)
    45d4:	89 34 24             	mov    %esi,(%esp)
    45d7:	e8 74 33 01 00       	call   17950 <async_answer_0>
    45dc:	e9 2d fb ff ff       	jmp    410e <vfs_connection+0x5de>
    45e1:	8d b4 26 00 00 00 00 	lea    0x0(%esi,%eiz,1),%esi
    45e8:	e8 63 3c 01 00       	call   18250 <async_hangup>
    45ed:	8b 85 8c fe ff ff    	mov    -0x174(%ebp),%eax
    45f3:	89 04 24             	mov    %eax,(%esp)
    45f6:	ff 53 10             	call   *0x10(%ebx)
    45f9:	c7 04 24 f1 ff ff ff 	movl   $0xfffffff1,(%esp)
    4600:	e8 db 4f 01 00       	call   195e0 <async_data_write_void>
    4605:	c7 44 24 04 f1 ff ff 	movl   $0xfffffff1,0x4(%esp)
    460c:	ff 
    460d:	89 34 24             	mov    %esi,(%esp)
    4610:	e8 3b 33 01 00       	call   17950 <async_answer_0>
    4615:	e9 2e f5 ff ff       	jmp    3b48 <vfs_connection+0x18>
    461a:	8d b6 00 00 00 00    	lea    0x0(%esi),%esi
    4620:	89 14 24             	mov    %edx,(%esp)
    4623:	89 fb                	mov    %edi,%ebx
    4625:	e8 26 3c 01 00       	call   18250 <async_hangup>
    462a:	89 3c 24             	mov    %edi,(%esp)
    462d:	e8 ae 4f 01 00       	call   195e0 <async_data_write_void>
    4632:	89 5c 24 04          	mov    %ebx,0x4(%esp)
    4636:	89 34 24             	mov    %esi,(%esp)
    4639:	e8 12 33 01 00       	call   17950 <async_answer_0>
    463e:	e9 05 f5 ff ff       	jmp    3b48 <vfs_connection+0x18>
    4643:	c7 44 24 04 ff ff ff 	movl   $0xffffffff,0x4(%esp)
    464a:	ff 
    464b:	89 34 24             	mov    %esi,(%esp)
    464e:	e8 fd 32 01 00       	call   17950 <async_answer_0>
    4653:	e9 f0 f4 ff ff       	jmp    3b48 <vfs_connection+0x18>
    4658:	8b b5 54 fe ff ff    	mov    -0x1ac(%ebp),%esi
    465e:	c7 44 24 04 00 ff ff 	movl   $0xffffff00,0x4(%esp)
    4665:	ff 
    4666:	89 34 24             	mov    %esi,(%esp)
    4669:	e8 e2 32 01 00       	call   17950 <async_answer_0>
    466e:	e9 bb fe ff ff       	jmp    452e <vfs_connection+0x9fe>
    4673:	8b 40 04             	mov    0x4(%eax),%eax
    4676:	89 04 24             	mov    %eax,(%esp)
    4679:	e8 d2 3c 01 00       	call   18350 <async_exchange_begin>
    467e:	8b 95 5c fe ff ff    	mov    -0x1a4(%ebp),%edx
    4684:	89 c3                	mov    %eax,%ebx
    4686:	8b 8d 60 fe ff ff    	mov    -0x1a0(%ebp),%ecx
    468c:	8b 85 84 fe ff ff    	mov    -0x17c(%ebp),%eax
    4692:	89 54 24 1c          	mov    %edx,0x1c(%esp)
    4696:	89 4c 24 18          	mov    %ecx,0x18(%esp)
    469a:	c7 44 24 20 01 00 00 	movl   $0x1,0x20(%esp)
    46a1:	00 
    46a2:	8b 40 0c             	mov    0xc(%eax),%eax
    46a5:	8b 8d 68 fe ff ff    	mov    -0x198(%ebp),%ecx
    46ab:	8b 95 70 fe ff ff    	mov    -0x190(%ebp),%edx
    46b1:	89 4c 24 0c          	mov    %ecx,0xc(%esp)
    46b5:	89 54 24 10          	mov    %edx,0x10(%esp)
    46b9:	89 44 24 14          	mov    %eax,0x14(%esp)
    46bd:	c7 44 24 08 0b 04 00 	movl   $0x40b,0x8(%esp)
    46c4:	00 
    46c5:	89 5c 24 04          	mov    %ebx,0x4(%esp)
    46c9:	89 34 24             	mov    %esi,(%esp)
    46cc:	e8 cf 33 01 00       	call   17aa0 <async_forward_slow>
    46d1:	89 1c 24             	mov    %ebx,(%esp)
    46d4:	e8 e7 3f 01 00       	call   186c0 <async_exchange_end>
    46d9:	8b 85 84 fe ff ff    	mov    -0x17c(%ebp),%eax
    46df:	8b 8d 74 fe ff ff    	mov    -0x18c(%ebp),%ecx
    46e5:	89 04 24             	mov    %eax,(%esp)
    46e8:	ff 51 10             	call   *0x10(%ecx)
    46eb:	e9 58 f4 ff ff       	jmp    3b48 <vfs_connection+0x18>
    46f0:	89 14 24             	mov    %edx,(%esp)
    46f3:	83 cb ff             	or     $0xffffffff,%ebx
    46f6:	e8 55 3b 01 00       	call   18250 <async_hangup>
    46fb:	c7 04 24 ff ff ff ff 	movl   $0xffffffff,(%esp)
    4702:	e8 d9 4e 01 00       	call   195e0 <async_data_write_void>
    4707:	e9 26 ff ff ff       	jmp    4632 <vfs_connection+0xb02>
    470c:	83 c8 ff             	or     $0xffffffff,%eax
    470f:	e9 e7 f7 ff ff       	jmp    3efb <vfs_connection+0x3cb>
    4714:	8b b5 54 fe ff ff    	mov    -0x1ac(%ebp),%esi
    471a:	89 c2                	mov    %eax,%edx
    471c:	e9 01 fe ff ff       	jmp    4522 <vfs_connection+0x9f2>
    4721:	8b 85 84 fe ff ff    	mov    -0x17c(%ebp),%eax
    4727:	8b 8d 74 fe ff ff    	mov    -0x18c(%ebp),%ecx
    472d:	89 04 24             	mov    %eax,(%esp)
    4730:	ff 51 10             	call   *0x10(%ecx)
    4733:	8b 85 8c fe ff ff    	mov    -0x174(%ebp),%eax
    4739:	89 85 84 fe ff ff    	mov    %eax,-0x17c(%ebp)
    473f:	f7 85 60 fe ff ff 00 	testl  $0x100,-0x1a0(%ebp)
    4746:	01 00 00 
    4749:	75 78                	jne    47c3 <vfs_connection+0xc93>
    474b:	8b 85 84 fe ff ff    	mov    -0x17c(%ebp),%eax
    4751:	8b 8d 74 fe ff ff    	mov    -0x18c(%ebp),%ecx
    4757:	89 04 24             	mov    %eax,(%esp)
    475a:	ff 51 2c             	call   *0x2c(%ecx)
    475d:	8b 8d 74 fe ff ff    	mov    -0x18c(%ebp),%ecx
    4763:	89 c3                	mov    %eax,%ebx
    4765:	8b 85 84 fe ff ff    	mov    -0x17c(%ebp),%eax
    476b:	89 95 4c fe ff ff    	mov    %edx,-0x1b4(%ebp)
    4771:	89 04 24             	mov    %eax,(%esp)
    4774:	ff 51 30             	call   *0x30(%ecx)
    4777:	8b 8d 74 fe ff ff    	mov    -0x18c(%ebp),%ecx
    477d:	89 c7                	mov    %eax,%edi
    477f:	8b 85 84 fe ff ff    	mov    -0x17c(%ebp),%eax
    4785:	89 04 24             	mov    %eax,(%esp)
    4788:	ff 51 28             	call   *0x28(%ecx)
    478b:	8b 95 4c fe ff ff    	mov    -0x1b4(%ebp),%edx
    4791:	89 7c 24 18          	mov    %edi,0x18(%esp)
    4795:	89 54 24 14          	mov    %edx,0x14(%esp)
    4799:	89 5c 24 10          	mov    %ebx,0x10(%esp)
    479d:	89 44 24 0c          	mov    %eax,0xc(%esp)
    47a1:	8b 8d 64 fe ff ff    	mov    -0x19c(%ebp),%ecx
    47a7:	0f bf 85 52 fe ff ff 	movswl -0x1ae(%ebp),%eax
    47ae:	89 4c 24 08          	mov    %ecx,0x8(%esp)
    47b2:	89 44 24 04          	mov    %eax,0x4(%esp)
    47b6:	89 34 24             	mov    %esi,(%esp)
    47b9:	e8 a2 32 01 00       	call   17a60 <async_answer_5>
    47be:	e9 6b fd ff ff       	jmp    452e <vfs_connection+0x9fe>
    47c3:	8b 85 84 fe ff ff    	mov    -0x17c(%ebp),%eax
    47c9:	8b 8d 74 fe ff ff    	mov    -0x18c(%ebp),%ecx
    47cf:	89 04 24             	mov    %eax,(%esp)
    47d2:	ff 51 0c             	call   *0xc(%ecx)
    47d5:	85 c0                	test   %eax,%eax
    47d7:	0f 84 6e ff ff ff    	je     474b <vfs_connection+0xc1b>
    47dd:	89 44 24 04          	mov    %eax,0x4(%esp)
    47e1:	89 34 24             	mov    %esi,(%esp)
    47e4:	e8 67 31 01 00       	call   17950 <async_answer_0>
    47e9:	e9 40 fd ff ff       	jmp    452e <vfs_connection+0x9fe>
    47ee:	89 0c 24             	mov    %ecx,(%esp)
    47f1:	e8 ca 3e 01 00       	call   186c0 <async_exchange_end>
    47f6:	8b 95 4c fe ff ff    	mov    -0x1b4(%ebp),%edx
    47fc:	89 14 24             	mov    %edx,(%esp)
    47ff:	e8 4c 3a 01 00       	call   18250 <async_hangup>
    4804:	8b 85 8c fe ff ff    	mov    -0x174(%ebp),%eax
    480a:	89 04 24             	mov    %eax,(%esp)
    480d:	ff 53 10             	call   *0x10(%ebx)
    4810:	e8 bb 0e 00 00       	call   56d0 <__errno>
    4815:	89 c3                	mov    %eax,%ebx
    4817:	8b 00                	mov    (%eax),%eax
    4819:	89 04 24             	mov    %eax,(%esp)
    481c:	e8 bf 4d 01 00       	call   195e0 <async_data_write_void>
    4821:	8b 03                	mov    (%ebx),%eax
    4823:	89 44 24 04          	mov    %eax,0x4(%esp)
    4827:	89 34 24             	mov    %esi,(%esp)
    482a:	e8 21 31 01 00       	call   17950 <async_answer_0>
    482f:	e9 14 f3 ff ff       	jmp    3b48 <vfs_connection+0x18>
    4834:	8d 8d a0 fe ff ff    	lea    -0x160(%ebp),%ecx
    483a:	c7 44 24 08 20 00 00 	movl   $0x20,0x8(%esp)
    4841:	00 
    4842:	89 0c 24             	mov    %ecx,(%esp)
    4845:	c7 44 24 04 00 00 00 	movl   $0x0,0x4(%esp)
    484c:	00 
    484d:	89 8d 48 fe ff ff    	mov    %ecx,-0x1b8(%ebp)
    4853:	e8 f8 37 00 00       	call   8050 <memset>
    4858:	8b 85 70 fe ff ff    	mov    -0x190(%ebp),%eax
    485e:	8b 95 74 fe ff ff    	mov    -0x18c(%ebp),%edx
    4864:	66 89 85 a0 fe ff ff 	mov    %ax,-0x160(%ebp)
    486b:	8b 85 8c fe ff ff    	mov    -0x174(%ebp),%eax
    4871:	89 95 a8 fe ff ff    	mov    %edx,-0x158(%ebp)
    4877:	89 bd a4 fe ff ff    	mov    %edi,-0x15c(%ebp)
    487d:	89 04 24             	mov    %eax,(%esp)
    4880:	ff 53 30             	call   *0x30(%ebx)
    4883:	89 85 ac fe ff ff    	mov    %eax,-0x154(%ebp)
    4889:	8b 85 8c fe ff ff    	mov    -0x174(%ebp),%eax
    488f:	89 04 24             	mov    %eax,(%esp)
    4892:	ff 53 38             	call   *0x38(%ebx)
    4895:	88 85 b0 fe ff ff    	mov    %al,-0x150(%ebp)
    489b:	8b 85 8c fe ff ff    	mov    -0x174(%ebp),%eax
    48a1:	89 04 24             	mov    %eax,(%esp)
    48a4:	ff 53 34             	call   *0x34(%ebx)
    48a7:	88 85 b1 fe ff ff    	mov    %al,-0x14f(%ebp)
    48ad:	8b 85 8c fe ff ff    	mov    -0x174(%ebp),%eax
    48b3:	89 04 24             	mov    %eax,(%esp)
    48b6:	ff 53 2c             	call   *0x2c(%ebx)
    48b9:	89 85 b4 fe ff ff    	mov    %eax,-0x14c(%ebp)
    48bf:	8b 85 8c fe ff ff    	mov    -0x174(%ebp),%eax
    48c5:	89 95 b8 fe ff ff    	mov    %edx,-0x148(%ebp)
    48cb:	89 04 24             	mov    %eax,(%esp)
    48ce:	ff 53 3c             	call   *0x3c(%ebx)
    48d1:	89 85 bc fe ff ff    	mov    %eax,-0x144(%ebp)
    48d7:	8b 85 8c fe ff ff    	mov    -0x174(%ebp),%eax
    48dd:	89 04 24             	mov    %eax,(%esp)
    48e0:	ff 53 10             	call   *0x10(%ebx)
    48e3:	8b 8d 48 fe ff ff    	mov    -0x1b8(%ebp),%ecx
    48e9:	8b 85 90 fe ff ff    	mov    -0x170(%ebp),%eax
    48ef:	c7 44 24 08 20 00 00 	movl   $0x20,0x8(%esp)
    48f6:	00 
    48f7:	89 4c 24 04          	mov    %ecx,0x4(%esp)
    48fb:	89 04 24             	mov    %eax,(%esp)
    48fe:	e8 1d 46 01 00       	call   18f20 <async_data_read_finalize>
    4903:	c7 44 24 04 00 00 00 	movl   $0x0,0x4(%esp)
    490a:	00 
    490b:	89 34 24             	mov    %esi,(%esp)
    490e:	e8 3d 30 01 00       	call   17950 <async_answer_0>
    4913:	e9 30 f2 ff ff       	jmp    3b48 <vfs_connection+0x18>
    4918:	8b 85 84 fe ff ff    	mov    -0x17c(%ebp),%eax
    491e:	8b 8d 74 fe ff ff    	mov    -0x18c(%ebp),%ecx
    4924:	89 44 24 04          	mov    %eax,0x4(%esp)
    4928:	8d 85 80 fe ff ff    	lea    -0x180(%ebp),%eax
    492e:	89 04 24             	mov    %eax,(%esp)
    4931:	8b b5 54 fe ff ff    	mov    -0x1ac(%ebp),%esi
    4937:	ff 51 24             	call   *0x24(%ecx)
    493a:	89 c2                	mov    %eax,%edx
    493c:	85 c0                	test   %eax,%eax
    493e:	0f 85 de fb ff ff    	jne    4522 <vfs_connection+0x9f2>
    4944:	80 bd 80 fe ff ff 00 	cmpb   $0x0,-0x180(%ebp)
    494b:	0f 85 78 f4 ff ff    	jne    3dc9 <vfs_connection+0x299>
    4951:	f6 85 60 fe ff ff 60 	testb  $0x60,-0x1a0(%ebp)
    4958:	74 7d                	je     49d7 <vfs_connection+0xea7>
    495a:	8b 85 84 fe ff ff    	mov    -0x17c(%ebp),%eax
    4960:	8b 8d 74 fe ff ff    	mov    -0x18c(%ebp),%ecx
    4966:	89 04 24             	mov    %eax,(%esp)
    4969:	ff 51 34             	call   *0x34(%ecx)
    496c:	84 c0                	test   %al,%al
    496e:	0f 84 e3 02 00 00    	je     4c57 <vfs_connection+0x1127>
    4974:	8d 83 ff 00 00 00    	lea    0xff(%ebx),%eax
    497a:	8d bd e4 fe ff ff    	lea    -0x11c(%ebp),%edi
    4980:	89 85 68 fe ff ff    	mov    %eax,-0x198(%ebp)
    4986:	89 f8                	mov    %edi,%eax
    4988:	8b 0d 0c 4f 02 00    	mov    0x24f0c,%ecx
    498e:	29 d8                	sub    %ebx,%eax
    4990:	31 d2                	xor    %edx,%edx
    4992:	89 85 58 fe ff ff    	mov    %eax,-0x1a8(%ebp)
    4998:	89 8d 54 fe ff ff    	mov    %ecx,-0x1ac(%ebp)
    499e:	eb 23                	jmp    49c3 <vfs_connection+0xe93>
    49a0:	3b 9d 68 fe ff ff    	cmp    -0x198(%ebp),%ebx
    49a6:	0f 84 29 03 00 00    	je     4cd5 <vfs_connection+0x11a5>
    49ac:	8b 8d 58 fe ff ff    	mov    -0x1a8(%ebp),%ecx
    49b2:	42                   	inc    %edx
    49b3:	88 04 19             	mov    %al,(%ecx,%ebx,1)
    49b6:	43                   	inc    %ebx
    49b7:	39 9d 70 fe ff ff    	cmp    %ebx,-0x190(%ebp)
    49bd:	0f 82 05 03 00 00    	jb     4cc8 <vfs_connection+0x1198>
    49c3:	89 d8                	mov    %ebx,%eax
    49c5:	8b 8d 54 fe ff ff    	mov    -0x1ac(%ebp),%ecx
    49cb:	25 ff ff 01 00       	and    $0x1ffff,%eax
    49d0:	8a 04 01             	mov    (%ecx,%eax,1),%al
    49d3:	3c 2f                	cmp    $0x2f,%al
    49d5:	75 c9                	jne    49a0 <vfs_connection+0xe70>
    49d7:	c7 44 24 04 ff ff ff 	movl   $0xffffffff,0x4(%esp)
    49de:	ff 
    49df:	89 34 24             	mov    %esi,(%esp)
    49e2:	e8 69 2f 01 00       	call   17950 <async_answer_0>
    49e7:	e9 42 fb ff ff       	jmp    452e <vfs_connection+0x9fe>
    49ec:	8b b5 54 fe ff ff    	mov    -0x1ac(%ebp),%esi
    49f2:	39 9d 70 fe ff ff    	cmp    %ebx,-0x190(%ebp)
    49f8:	73 dd                	jae    49d7 <vfs_connection+0xea7>
    49fa:	f6 85 60 fe ff ff 60 	testb  $0x60,-0x1a0(%ebp)
    4a01:	74 d4                	je     49d7 <vfs_connection+0xea7>
    4a03:	8b 85 84 fe ff ff    	mov    -0x17c(%ebp),%eax
    4a09:	8b 8d 74 fe ff ff    	mov    -0x18c(%ebp),%ecx
    4a0f:	89 04 24             	mov    %eax,(%esp)
    4a12:	ff 51 34             	call   *0x34(%ecx)
    4a15:	84 c0                	test   %al,%al
    4a17:	0f 84 3a 02 00 00    	je     4c57 <vfs_connection+0x1127>
    4a1d:	8b 9d 60 fe ff ff    	mov    -0x1a0(%ebp),%ebx
    4a23:	83 e3 20             	and    $0x20,%ebx
    4a26:	0f 84 6f 02 00 00    	je     4c9b <vfs_connection+0x116b>
    4a2c:	8b 8d 64 fe ff ff    	mov    -0x19c(%ebp),%ecx
    4a32:	8b 95 60 fe ff ff    	mov    -0x1a0(%ebp),%edx
    4a38:	89 4c 24 04          	mov    %ecx,0x4(%esp)
    4a3c:	8d 85 8c fe ff ff    	lea    -0x174(%ebp),%eax
    4a42:	8b 8d 74 fe ff ff    	mov    -0x18c(%ebp),%ecx
    4a48:	89 54 24 08          	mov    %edx,0x8(%esp)
    4a4c:	89 04 24             	mov    %eax,(%esp)
    4a4f:	ff 51 14             	call   *0x14(%ecx)
    4a52:	89 c2                	mov    %eax,%edx
    4a54:	85 d2                	test   %edx,%edx
    4a56:	0f 85 c6 fa ff ff    	jne    4522 <vfs_connection+0x9f2>
    4a5c:	8b 85 8c fe ff ff    	mov    -0x174(%ebp),%eax
    4a62:	85 c0                	test   %eax,%eax
    4a64:	0f 84 9c 02 00 00    	je     4d06 <vfs_connection+0x11d6>
    4a6a:	89 44 24 04          	mov    %eax,0x4(%esp)
    4a6e:	8b 8d 74 fe ff ff    	mov    -0x18c(%ebp),%ecx
    4a74:	8b 85 84 fe ff ff    	mov    -0x17c(%ebp),%eax
    4a7a:	89 7c 24 08          	mov    %edi,0x8(%esp)
    4a7e:	89 04 24             	mov    %eax,(%esp)
    4a81:	ff 51 1c             	call   *0x1c(%ecx)
    4a84:	89 c2                	mov    %eax,%edx
    4a86:	85 c0                	test   %eax,%eax
    4a88:	0f 84 93 fc ff ff    	je     4721 <vfs_connection+0xbf1>
    4a8e:	8b 85 8c fe ff ff    	mov    -0x174(%ebp),%eax
    4a94:	89 95 4c fe ff ff    	mov    %edx,-0x1b4(%ebp)
    4a9a:	89 04 24             	mov    %eax,(%esp)
    4a9d:	8b 8d 74 fe ff ff    	mov    -0x18c(%ebp),%ecx
    4aa3:	85 db                	test   %ebx,%ebx
    4aa5:	0f 84 70 02 00 00    	je     4d1b <vfs_connection+0x11eb>
    4aab:	ff 51 18             	call   *0x18(%ecx)
    4aae:	8b 95 4c fe ff ff    	mov    -0x1b4(%ebp),%edx
    4ab4:	e9 69 fa ff ff       	jmp    4522 <vfs_connection+0x9f2>
    4ab9:	8d b4 26 00 00 00 00 	lea    0x0(%esi,%eiz,1),%esi
    4ac0:	c7 44 24 04 fc fe ff 	movl   $0xfffffefc,0x4(%esp)
    4ac7:	ff 
    4ac8:	89 34 24             	mov    %esi,(%esp)
    4acb:	e8 80 2e 01 00       	call   17950 <async_answer_0>
    4ad0:	e9 59 fa ff ff       	jmp    452e <vfs_connection+0x9fe>
    4ad5:	8b 85 84 fe ff ff    	mov    -0x17c(%ebp),%eax
    4adb:	8b 8d 74 fe ff ff    	mov    -0x18c(%ebp),%ecx
    4ae1:	89 04 24             	mov    %eax,(%esp)
    4ae4:	8d bd e4 fe ff ff    	lea    -0x11c(%ebp),%edi
    4aea:	ff 51 30             	call   *0x30(%ecx)
    4aed:	8b 8d 6c fe ff ff    	mov    -0x194(%ebp),%ecx
    4af3:	89 0c 24             	mov    %ecx,(%esp)
    4af6:	89 c3                	mov    %eax,%ebx
    4af8:	8b 8d 74 fe ff ff    	mov    -0x18c(%ebp),%ecx
    4afe:	8b 85 84 fe ff ff    	mov    -0x17c(%ebp),%eax
    4b04:	89 7c 24 08          	mov    %edi,0x8(%esp)
    4b08:	89 44 24 04          	mov    %eax,0x4(%esp)
    4b0c:	ff 51 20             	call   *0x20(%ecx)
    4b0f:	85 c0                	test   %eax,%eax
    4b11:	0f 85 c6 fc ff ff    	jne    47dd <vfs_connection+0xcad>
    4b17:	8b 85 84 fe ff ff    	mov    -0x17c(%ebp),%eax
    4b1d:	8b 8d 74 fe ff ff    	mov    -0x18c(%ebp),%ecx
    4b23:	89 04 24             	mov    %eax,(%esp)
    4b26:	ff 51 2c             	call   *0x2c(%ecx)
    4b29:	89 c1                	mov    %eax,%ecx
    4b2b:	89 d7                	mov    %edx,%edi
    4b2d:	8b 85 84 fe ff ff    	mov    -0x17c(%ebp),%eax
    4b33:	8b 95 74 fe ff ff    	mov    -0x18c(%ebp),%edx
    4b39:	89 8d 48 fe ff ff    	mov    %ecx,-0x1b8(%ebp)
    4b3f:	89 04 24             	mov    %eax,(%esp)
    4b42:	ff 52 28             	call   *0x28(%edx)
    4b45:	8b 8d 48 fe ff ff    	mov    -0x1b8(%ebp),%ecx
    4b4b:	89 5c 24 18          	mov    %ebx,0x18(%esp)
    4b4f:	89 7c 24 14          	mov    %edi,0x14(%esp)
    4b53:	89 4c 24 10          	mov    %ecx,0x10(%esp)
    4b57:	e9 41 fc ff ff       	jmp    479d <vfs_connection+0xc6d>
    4b5c:	89 f7                	mov    %esi,%edi
    4b5e:	39 9d 70 fe ff ff    	cmp    %ebx,-0x190(%ebp)
    4b64:	8b b5 54 fe ff ff    	mov    -0x1ac(%ebp),%esi
    4b6a:	73 0c                	jae    4b78 <vfs_connection+0x1048>
    4b6c:	8b bd 68 fe ff ff    	mov    -0x198(%ebp),%edi
    4b72:	89 bd 70 fe ff ff    	mov    %edi,-0x190(%ebp)
    4b78:	8b 40 04             	mov    0x4(%eax),%eax
    4b7b:	89 04 24             	mov    %eax,(%esp)
    4b7e:	e8 cd 37 01 00       	call   18350 <async_exchange_begin>
    4b83:	8b 8d 60 fe ff ff    	mov    -0x1a0(%ebp),%ecx
    4b89:	89 c3                	mov    %eax,%ebx
    4b8b:	8b 95 5c fe ff ff    	mov    -0x1a4(%ebp),%edx
    4b91:	8b 85 88 fe ff ff    	mov    -0x178(%ebp),%eax
    4b97:	89 4c 24 18          	mov    %ecx,0x18(%esp)
    4b9b:	89 54 24 1c          	mov    %edx,0x1c(%esp)
    4b9f:	c7 44 24 20 01 00 00 	movl   $0x1,0x20(%esp)
    4ba6:	00 
    4ba7:	8b 40 0c             	mov    0xc(%eax),%eax
    4baa:	8b 95 70 fe ff ff    	mov    -0x190(%ebp),%edx
    4bb0:	89 54 24 10          	mov    %edx,0x10(%esp)
    4bb4:	89 5c 24 04          	mov    %ebx,0x4(%esp)
    4bb8:	89 44 24 14          	mov    %eax,0x14(%esp)
    4bbc:	89 7c 24 0c          	mov    %edi,0xc(%esp)
    4bc0:	c7 44 24 08 0b 04 00 	movl   $0x40b,0x8(%esp)
    4bc7:	00 
    4bc8:	89 34 24             	mov    %esi,(%esp)
    4bcb:	e8 d0 2e 01 00       	call   17aa0 <async_forward_slow>
    4bd0:	89 1c 24             	mov    %ebx,(%esp)
    4bd3:	e8 e8 3a 01 00       	call   186c0 <async_exchange_end>
    4bd8:	8b 85 84 fe ff ff    	mov    -0x17c(%ebp),%eax
    4bde:	8b 8d 74 fe ff ff    	mov    -0x18c(%ebp),%ecx
    4be4:	89 04 24             	mov    %eax,(%esp)
    4be7:	ff 51 10             	call   *0x10(%ecx)
    4bea:	8b 85 88 fe ff ff    	mov    -0x178(%ebp),%eax
    4bf0:	8b 8d 74 fe ff ff    	mov    -0x18c(%ebp),%ecx
    4bf6:	89 04 24             	mov    %eax,(%esp)
    4bf9:	ff 51 10             	call   *0x10(%ecx)
    4bfc:	8b 9d 6c fe ff ff    	mov    -0x194(%ebp),%ebx
    4c02:	85 db                	test   %ebx,%ebx
    4c04:	0f 84 3e ef ff ff    	je     3b48 <vfs_connection+0x18>
    4c0a:	8b 8d 6c fe ff ff    	mov    -0x194(%ebp),%ecx
    4c10:	89 0c 24             	mov    %ecx,(%esp)
    4c13:	8b 8d 74 fe ff ff    	mov    -0x18c(%ebp),%ecx
    4c19:	ff 51 10             	call   *0x10(%ecx)
    4c1c:	e9 27 ef ff ff       	jmp    3b48 <vfs_connection+0x18>
    4c21:	89 f7                	mov    %esi,%edi
    4c23:	8b b5 54 fe ff ff    	mov    -0x1ac(%ebp),%esi
    4c29:	e9 4a ff ff ff       	jmp    4b78 <vfs_connection+0x1048>
    4c2e:	c7 85 6c fe ff ff 00 	movl   $0x0,-0x194(%ebp)
    4c35:	00 00 00 
    4c38:	e9 8c f1 ff ff       	jmp    3dc9 <vfs_connection+0x299>
    4c3d:	8b 85 84 fe ff ff    	mov    -0x17c(%ebp),%eax
    4c43:	8b 8d 74 fe ff ff    	mov    -0x18c(%ebp),%ecx
    4c49:	89 04 24             	mov    %eax,(%esp)
    4c4c:	ff 51 38             	call   *0x38(%ecx)
    4c4f:	84 c0                	test   %al,%al
    4c51:	0f 84 b8 f1 ff ff    	je     3e0f <vfs_connection+0x2df>
    4c57:	c7 44 24 04 fe fe ff 	movl   $0xfffffefe,0x4(%esp)
    4c5e:	ff 
    4c5f:	89 34 24             	mov    %esi,(%esp)
    4c62:	e8 e9 2c 01 00       	call   17950 <async_answer_0>
    4c67:	e9 c2 f8 ff ff       	jmp    452e <vfs_connection+0x9fe>
    4c6c:	8b 85 84 fe ff ff    	mov    -0x17c(%ebp),%eax
    4c72:	8b 8d 74 fe ff ff    	mov    -0x18c(%ebp),%ecx
    4c78:	89 04 24             	mov    %eax,(%esp)
    4c7b:	ff 51 34             	call   *0x34(%ecx)
    4c7e:	84 c0                	test   %al,%al
    4c80:	0f 84 7c f1 ff ff    	je     3e02 <vfs_connection+0x2d2>
    4c86:	c7 44 24 04 ff fe ff 	movl   $0xfffffeff,0x4(%esp)
    4c8d:	ff 
    4c8e:	89 34 24             	mov    %esi,(%esp)
    4c91:	e8 ba 2c 01 00       	call   17950 <async_answer_0>
    4c96:	e9 93 f8 ff ff       	jmp    452e <vfs_connection+0x9fe>
    4c9b:	8b 8d 64 fe ff ff    	mov    -0x19c(%ebp),%ecx
    4ca1:	8b 95 5c fe ff ff    	mov    -0x1a4(%ebp),%edx
    4ca7:	89 4c 24 04          	mov    %ecx,0x4(%esp)
    4cab:	8d 85 8c fe ff ff    	lea    -0x174(%ebp),%eax
    4cb1:	8b 8d 74 fe ff ff    	mov    -0x18c(%ebp),%ecx
    4cb7:	89 54 24 08          	mov    %edx,0x8(%esp)
    4cbb:	89 04 24             	mov    %eax,(%esp)
    4cbe:	ff 51 08             	call   *0x8(%ecx)
    4cc1:	89 c2                	mov    %eax,%edx
    4cc3:	e9 8c fd ff ff       	jmp    4a54 <vfs_connection+0xf24>
    4cc8:	c6 84 15 e4 fe ff ff 	movb   $0x0,-0x11c(%ebp,%edx,1)
    4ccf:	00 
    4cd0:	e9 48 fd ff ff       	jmp    4a1d <vfs_connection+0xeed>
    4cd5:	c7 44 24 04 00 ff ff 	movl   $0xffffff00,0x4(%esp)
    4cdc:	ff 
    4cdd:	89 34 24             	mov    %esi,(%esp)
    4ce0:	e8 6b 2c 01 00       	call   17950 <async_answer_0>
    4ce5:	e9 44 f8 ff ff       	jmp    452e <vfs_connection+0x9fe>
    4cea:	c7 44 24 08 30 02 00 	movl   $0x230,0x8(%esp)
    4cf1:	00 
    4cf2:	c7 44 24 04 54 1e 02 	movl   $0x21e54,0x4(%esp)
    4cf9:	00 
    4cfa:	c7 04 24 dd 21 02 00 	movl   $0x221dd,(%esp)
    4d01:	e8 ea a8 01 00       	call   1f5f0 <assert_abort>
    4d06:	c7 44 24 04 fd fe ff 	movl   $0xfffffefd,0x4(%esp)
    4d0d:	ff 
    4d0e:	89 34 24             	mov    %esi,(%esp)
    4d11:	e8 3a 2c 01 00       	call   17950 <async_answer_0>
    4d16:	e9 13 f8 ff ff       	jmp    452e <vfs_connection+0x9fe>
    4d1b:	ff 51 10             	call   *0x10(%ecx)
    4d1e:	8b 95 4c fe ff ff    	mov    -0x1b4(%ebp),%edx
    4d24:	e9 f9 f7 ff ff       	jmp    4522 <vfs_connection+0x9f2>
    4d29:	8d b4 26 00 00 00 00 	lea    0x0(%esi,%eiz,1),%esi

00004d30 <fs_register>:
    4d30:	55                   	push   %ebp
    4d31:	89 e5                	mov    %esp,%ebp
    4d33:	57                   	push   %edi
    4d34:	53                   	push   %ebx
    4d35:	83 ec 60             	sub    $0x60,%esp
    4d38:	8b 45 08             	mov    0x8(%ebp),%eax
    4d3b:	89 04 24             	mov    %eax,(%esp)
    4d3e:	e8 0d 36 01 00       	call   18350 <async_exchange_begin>
    4d43:	c7 44 24 14 00 00 00 	movl   $0x0,0x14(%esp)
    4d4a:	00 
    4d4b:	89 c3                	mov    %eax,%ebx
    4d4d:	8d 45 d4             	lea    -0x2c(%ebp),%eax
    4d50:	89 44 24 18          	mov    %eax,0x18(%esp)
    4d54:	c7 44 24 10 00 00 00 	movl   $0x0,0x10(%esp)
    4d5b:	00 
    4d5c:	c7 44 24 0c 00 00 00 	movl   $0x0,0xc(%esp)
    4d63:	00 
    4d64:	c7 44 24 08 00 00 00 	movl   $0x0,0x8(%esp)
    4d6b:	00 
    4d6c:	c7 44 24 04 0b 04 00 	movl   $0x40b,0x4(%esp)
    4d73:	00 
    4d74:	89 1c 24             	mov    %ebx,(%esp)
    4d77:	e8 74 1f 01 00       	call   16cf0 <async_send_fast>
    4d7c:	c7 44 24 08 20 00 00 	movl   $0x20,0x8(%esp)
    4d83:	00 
    4d84:	89 c7                	mov    %eax,%edi
    4d86:	8b 45 0c             	mov    0xc(%ebp),%eax
    4d89:	89 44 24 04          	mov    %eax,0x4(%esp)
    4d8d:	89 1c 24             	mov    %ebx,(%esp)
    4d90:	e8 ab 44 01 00       	call   19240 <async_data_write_start>
    4d95:	85 c0                	test   %eax,%eax
    4d97:	0f 85 cb 00 00 00    	jne    4e68 <fs_register+0x138>
    4d9d:	8b 45 10             	mov    0x10(%ebp),%eax
    4da0:	c7 44 24 14 00 00 00 	movl   $0x0,0x14(%esp)
    4da7:	00 
    4da8:	a3 00 4f 02 00       	mov    %eax,0x24f00
    4dad:	c7 44 24 10 30 3b 00 	movl   $0x3b30,0x10(%esp)
    4db4:	00 
    4db5:	8b 45 14             	mov    0x14(%ebp),%eax
    4db8:	c7 44 24 0c 00 00 00 	movl   $0x0,0xc(%esp)
    4dbf:	00 
    4dc0:	c7 44 24 08 00 00 00 	movl   $0x0,0x8(%esp)
    4dc7:	00 
    4dc8:	c7 44 24 04 00 00 00 	movl   $0x0,0x4(%esp)
    4dcf:	00 
    4dd0:	89 1c 24             	mov    %ebx,(%esp)
    4dd3:	a3 04 4f 02 00       	mov    %eax,0x24f04
    4dd8:	e8 13 2d 01 00       	call   17af0 <async_connect_to_me>
    4ddd:	c7 44 24 10 0c 4f 02 	movl   $0x24f0c,0x10(%esp)
    4de4:	00 
    4de5:	c7 44 24 0c 00 00 00 	movl   $0x0,0xc(%esp)
    4dec:	00 
    4ded:	c7 44 24 08 00 00 00 	movl   $0x0,0x8(%esp)
    4df4:	00 
    4df5:	c7 44 24 04 00 00 02 	movl   $0x20000,0x4(%esp)
    4dfc:	00 
    4dfd:	89 1c 24             	mov    %ebx,(%esp)
    4e00:	e8 4b 39 01 00       	call   18750 <async_share_in_start>
    4e05:	89 1c 24             	mov    %ebx,(%esp)
    4e08:	83 3d 0c 4f 02 00 ff 	cmpl   $0xffffffff,0x24f0c
    4e0f:	74 74                	je     4e85 <fs_register+0x155>
    4e11:	89 45 c4             	mov    %eax,-0x3c(%ebp)
    4e14:	e8 a7 38 01 00       	call   186c0 <async_exchange_end>
    4e19:	8b 45 c4             	mov    -0x3c(%ebp),%eax
    4e1c:	85 c0                	test   %eax,%eax
    4e1e:	75 30                	jne    4e50 <fs_register+0x120>
    4e20:	c7 44 24 04 00 00 00 	movl   $0x0,0x4(%esp)
    4e27:	00 
    4e28:	89 3c 24             	mov    %edi,(%esp)
    4e2b:	e8 90 20 01 00       	call   16ec0 <async_wait_for>
    4e30:	8b 45 d8             	mov    -0x28(%ebp),%eax
    4e33:	c7 04 24 30 3b 00 00 	movl   $0x3b30,(%esp)
    4e3a:	a3 08 4f 02 00       	mov    %eax,0x24f08
    4e3f:	e8 bc 12 01 00       	call   16100 <async_set_client_connection>
    4e44:	8b 45 d4             	mov    -0x2c(%ebp),%eax
    4e47:	83 c4 60             	add    $0x60,%esp
    4e4a:	5b                   	pop    %ebx
    4e4b:	5f                   	pop    %edi
    4e4c:	5d                   	pop    %ebp
    4e4d:	c3                   	ret    
    4e4e:	66 90                	xchg   %ax,%ax
    4e50:	89 3c 24             	mov    %edi,(%esp)
    4e53:	e8 b8 22 01 00       	call   17110 <async_forget>
    4e58:	8b 45 c4             	mov    -0x3c(%ebp),%eax
    4e5b:	83 c4 60             	add    $0x60,%esp
    4e5e:	5b                   	pop    %ebx
    4e5f:	5f                   	pop    %edi
    4e60:	5d                   	pop    %ebp
    4e61:	c3                   	ret    
    4e62:	8d b6 00 00 00 00    	lea    0x0(%esi),%esi
    4e68:	89 1c 24             	mov    %ebx,(%esp)
    4e6b:	89 45 c4             	mov    %eax,-0x3c(%ebp)
    4e6e:	e8 4d 38 01 00       	call   186c0 <async_exchange_end>
    4e73:	89 3c 24             	mov    %edi,(%esp)
    4e76:	e8 95 22 01 00       	call   17110 <async_forget>
    4e7b:	8b 45 c4             	mov    -0x3c(%ebp),%eax
    4e7e:	83 c4 60             	add    $0x60,%esp
    4e81:	5b                   	pop    %ebx
    4e82:	5f                   	pop    %edi
    4e83:	5d                   	pop    %ebp
    4e84:	c3                   	ret    
    4e85:	e8 36 38 01 00       	call   186c0 <async_exchange_end>
    4e8a:	89 3c 24             	mov    %edi,(%esp)
    4e8d:	e8 7e 22 01 00       	call   17110 <async_forget>
    4e92:	b8 fe ff ff ff       	mov    $0xfffffffe,%eax
    4e97:	eb ae                	jmp    4e47 <fs_register+0x117>
    4e99:	8d b4 26 00 00 00 00 	lea    0x0(%esi,%eiz,1),%esi

00004ea0 <fs_node_initialize>:
    4ea0:	55                   	push   %ebp
    4ea1:	89 e5                	mov    %esp,%ebp
    4ea3:	83 ec 18             	sub    $0x18,%esp
    4ea6:	8b 45 08             	mov    0x8(%ebp),%eax
    4ea9:	c7 44 24 08 14 00 00 	movl   $0x14,0x8(%esp)
    4eb0:	00 
    4eb1:	c7 44 24 04 00 00 00 	movl   $0x0,0x4(%esp)
    4eb8:	00 
    4eb9:	89 04 24             	mov    %eax,(%esp)
    4ebc:	e8 8f 31 00 00       	call   8050 <memset>
    4ec1:	c9                   	leave  
    4ec2:	c3                   	ret    
    4ec3:	8d b6 00 00 00 00    	lea    0x0(%esi),%esi
    4ec9:	8d bc 27 00 00 00 00 	lea    0x0(%edi,%eiz,1),%edi

00004ed0 <fs_instance_create>:
    4ed0:	55                   	push   %ebp
    4ed1:	89 e5                	mov    %esp,%ebp
    4ed3:	57                   	push   %edi
    4ed4:	56                   	push   %esi
    4ed5:	53                   	push   %ebx
    4ed6:	83 ec 1c             	sub    $0x1c,%esp
    4ed9:	8b 5d 08             	mov    0x8(%ebp),%ebx
    4edc:	c7 04 24 10 00 00 00 	movl   $0x10,(%esp)
    4ee3:	e8 28 ff 00 00       	call   14e10 <malloc>
    4ee8:	89 c7                	mov    %eax,%edi
    4eea:	85 c0                	test   %eax,%eax
    4eec:	0f 84 ec 00 00 00    	je     4fde <fs_instance_create+0x10e>
    4ef2:	c7 40 04 00 00 00 00 	movl   $0x0,0x4(%eax)
    4ef9:	c7 40 08 00 00 00 00 	movl   $0x0,0x8(%eax)
    4f00:	89 18                	mov    %ebx,(%eax)
    4f02:	8b 45 0c             	mov    0xc(%ebp),%eax
    4f05:	c7 04 24 90 48 02 00 	movl   $0x24890,(%esp)
    4f0c:	89 47 0c             	mov    %eax,0xc(%edi)
    4f0f:	e8 ec 72 00 00       	call   c200 <fibril_mutex_lock>
    4f14:	8b 15 a4 48 02 00    	mov    0x248a4,%edx
    4f1a:	81 fa a0 48 02 00    	cmp    $0x248a0,%edx
    4f20:	74 2f                	je     4f51 <fs_instance_create+0x81>
    4f22:	8b 42 fc             	mov    -0x4(%edx),%eax
    4f25:	8d 72 fc             	lea    -0x4(%edx),%esi
    4f28:	39 d8                	cmp    %ebx,%eax
    4f2a:	74 5c                	je     4f88 <fs_instance_create+0xb8>
    4f2c:	39 c3                	cmp    %eax,%ebx
    4f2e:	76 16                	jbe    4f46 <fs_instance_create+0x76>
    4f30:	eb 7e                	jmp    4fb0 <fs_instance_create+0xe0>
    4f32:	8d b6 00 00 00 00    	lea    0x0(%esi),%esi
    4f38:	8b 4a fc             	mov    -0x4(%edx),%ecx
    4f3b:	8d 72 fc             	lea    -0x4(%edx),%esi
    4f3e:	39 d9                	cmp    %ebx,%ecx
    4f40:	74 46                	je     4f88 <fs_instance_create+0xb8>
    4f42:	39 cb                	cmp    %ecx,%ebx
    4f44:	77 6a                	ja     4fb0 <fs_instance_create+0xe0>
    4f46:	8b 52 04             	mov    0x4(%edx),%edx
    4f49:	81 fa a0 48 02 00    	cmp    $0x248a0,%edx
    4f4f:	75 e7                	jne    4f38 <fs_instance_create+0x68>
    4f51:	8b 15 a0 48 02 00    	mov    0x248a0,%edx
    4f57:	8d 47 04             	lea    0x4(%edi),%eax
    4f5a:	c7 47 08 a0 48 02 00 	movl   $0x248a0,0x8(%edi)
    4f61:	a3 a0 48 02 00       	mov    %eax,0x248a0
    4f66:	89 42 04             	mov    %eax,0x4(%edx)
    4f69:	c7 04 24 90 48 02 00 	movl   $0x24890,(%esp)
    4f70:	89 57 04             	mov    %edx,0x4(%edi)
    4f73:	e8 a8 73 00 00       	call   c320 <fibril_mutex_unlock>
    4f78:	31 c0                	xor    %eax,%eax
    4f7a:	83 c4 1c             	add    $0x1c,%esp
    4f7d:	5b                   	pop    %ebx
    4f7e:	5e                   	pop    %esi
    4f7f:	5f                   	pop    %edi
    4f80:	5d                   	pop    %ebp
    4f81:	c3                   	ret    
    4f82:	8d b6 00 00 00 00    	lea    0x0(%esi),%esi
    4f88:	c7 04 24 90 48 02 00 	movl   $0x24890,(%esp)
    4f8f:	e8 8c 73 00 00       	call   c320 <fibril_mutex_unlock>
    4f94:	89 3c 24             	mov    %edi,(%esp)
    4f97:	e8 84 ff 00 00       	call   14f20 <free>
    4f9c:	83 c4 1c             	add    $0x1c,%esp
    4f9f:	b8 fc fe ff ff       	mov    $0xfffffefc,%eax
    4fa4:	5b                   	pop    %ebx
    4fa5:	5e                   	pop    %esi
    4fa6:	5f                   	pop    %edi
    4fa7:	5d                   	pop    %ebp
    4fa8:	c3                   	ret    
    4fa9:	8d b4 26 00 00 00 00 	lea    0x0(%esi,%eiz,1),%esi
    4fb0:	8d 56 04             	lea    0x4(%esi),%edx
    4fb3:	8d 47 04             	lea    0x4(%edi),%eax
    4fb6:	89 57 08             	mov    %edx,0x8(%edi)
    4fb9:	8b 56 04             	mov    0x4(%esi),%edx
    4fbc:	89 57 04             	mov    %edx,0x4(%edi)
    4fbf:	8b 56 04             	mov    0x4(%esi),%edx
    4fc2:	89 46 04             	mov    %eax,0x4(%esi)
    4fc5:	89 42 04             	mov    %eax,0x4(%edx)
    4fc8:	c7 04 24 90 48 02 00 	movl   $0x24890,(%esp)
    4fcf:	e8 4c 73 00 00       	call   c320 <fibril_mutex_unlock>
    4fd4:	83 c4 1c             	add    $0x1c,%esp
    4fd7:	31 c0                	xor    %eax,%eax
    4fd9:	5b                   	pop    %ebx
    4fda:	5e                   	pop    %esi
    4fdb:	5f                   	pop    %edi
    4fdc:	5d                   	pop    %ebp
    4fdd:	c3                   	ret    
    4fde:	b8 fe ff ff ff       	mov    $0xfffffffe,%eax
    4fe3:	eb 95                	jmp    4f7a <fs_instance_create+0xaa>
    4fe5:	8d 74 26 00          	lea    0x0(%esi,%eiz,1),%esi
    4fe9:	8d bc 27 00 00 00 00 	lea    0x0(%edi,%eiz,1),%edi

00004ff0 <fs_instance_get>:
    4ff0:	55                   	push   %ebp
    4ff1:	89 e5                	mov    %esp,%ebp
    4ff3:	53                   	push   %ebx
    4ff4:	83 ec 14             	sub    $0x14,%esp
    4ff7:	8b 5d 08             	mov    0x8(%ebp),%ebx
    4ffa:	c7 04 24 90 48 02 00 	movl   $0x24890,(%esp)
    5001:	e8 fa 71 00 00       	call   c200 <fibril_mutex_lock>
    5006:	a1 a4 48 02 00       	mov    0x248a4,%eax
    500b:	3d a0 48 02 00       	cmp    $0x248a0,%eax
    5010:	75 10                	jne    5022 <fs_instance_get+0x32>
    5012:	eb 34                	jmp    5048 <fs_instance_get+0x58>
    5014:	8d 74 26 00          	lea    0x0(%esi,%eiz,1),%esi
    5018:	8b 40 04             	mov    0x4(%eax),%eax
    501b:	3d a0 48 02 00       	cmp    $0x248a0,%eax
    5020:	74 26                	je     5048 <fs_instance_get+0x58>
    5022:	8d 50 fc             	lea    -0x4(%eax),%edx
    5025:	39 58 fc             	cmp    %ebx,-0x4(%eax)
    5028:	75 ee                	jne    5018 <fs_instance_get+0x28>
    502a:	8b 45 0c             	mov    0xc(%ebp),%eax
    502d:	8b 52 0c             	mov    0xc(%edx),%edx
    5030:	89 10                	mov    %edx,(%eax)
    5032:	c7 04 24 90 48 02 00 	movl   $0x24890,(%esp)
    5039:	e8 e2 72 00 00       	call   c320 <fibril_mutex_unlock>
    503e:	83 c4 14             	add    $0x14,%esp
    5041:	31 c0                	xor    %eax,%eax
    5043:	5b                   	pop    %ebx
    5044:	5d                   	pop    %ebp
    5045:	c3                   	ret    
    5046:	66 90                	xchg   %ax,%ax
    5048:	c7 04 24 90 48 02 00 	movl   $0x24890,(%esp)
    504f:	e8 cc 72 00 00       	call   c320 <fibril_mutex_unlock>
    5054:	83 c4 14             	add    $0x14,%esp
    5057:	83 c8 ff             	or     $0xffffffff,%eax
    505a:	5b                   	pop    %ebx
    505b:	5d                   	pop    %ebp
    505c:	c3                   	ret    
    505d:	8d 76 00             	lea    0x0(%esi),%esi

00005060 <fs_instance_destroy>:
    5060:	55                   	push   %ebp
    5061:	89 e5                	mov    %esp,%ebp
    5063:	56                   	push   %esi
    5064:	53                   	push   %ebx
    5065:	83 ec 10             	sub    $0x10,%esp
    5068:	8b 75 08             	mov    0x8(%ebp),%esi
    506b:	c7 04 24 90 48 02 00 	movl   $0x24890,(%esp)
    5072:	e8 89 71 00 00       	call   c200 <fibril_mutex_lock>
    5077:	a1 a4 48 02 00       	mov    0x248a4,%eax
    507c:	3d a0 48 02 00       	cmp    $0x248a0,%eax
    5081:	75 0f                	jne    5092 <fs_instance_destroy+0x32>
    5083:	eb 5b                	jmp    50e0 <fs_instance_destroy+0x80>
    5085:	8d 76 00             	lea    0x0(%esi),%esi
    5088:	8b 40 04             	mov    0x4(%eax),%eax
    508b:	3d a0 48 02 00       	cmp    $0x248a0,%eax
    5090:	74 4e                	je     50e0 <fs_instance_destroy+0x80>
    5092:	8d 58 fc             	lea    -0x4(%eax),%ebx
    5095:	39 70 fc             	cmp    %esi,-0x4(%eax)
    5098:	75 ee                	jne    5088 <fs_instance_destroy+0x28>
    509a:	8b 53 04             	mov    0x4(%ebx),%edx
    509d:	85 d2                	test   %edx,%edx
    509f:	74 0f                	je     50b0 <fs_instance_destroy+0x50>
    50a1:	8b 43 08             	mov    0x8(%ebx),%eax
    50a4:	85 c0                	test   %eax,%eax
    50a6:	74 08                	je     50b0 <fs_instance_destroy+0x50>
    50a8:	89 10                	mov    %edx,(%eax)
    50aa:	8b 53 04             	mov    0x4(%ebx),%edx
    50ad:	89 42 04             	mov    %eax,0x4(%edx)
    50b0:	c7 43 04 00 00 00 00 	movl   $0x0,0x4(%ebx)
    50b7:	c7 43 08 00 00 00 00 	movl   $0x0,0x8(%ebx)
    50be:	c7 04 24 90 48 02 00 	movl   $0x24890,(%esp)
    50c5:	e8 56 72 00 00       	call   c320 <fibril_mutex_unlock>
    50ca:	89 1c 24             	mov    %ebx,(%esp)
    50cd:	e8 4e fe 00 00       	call   14f20 <free>
    50d2:	83 c4 10             	add    $0x10,%esp
    50d5:	31 c0                	xor    %eax,%eax
    50d7:	5b                   	pop    %ebx
    50d8:	5e                   	pop    %esi
    50d9:	5d                   	pop    %ebp
    50da:	c3                   	ret    
    50db:	90                   	nop
    50dc:	8d 74 26 00          	lea    0x0(%esi,%eiz,1),%esi
    50e0:	c7 04 24 90 48 02 00 	movl   $0x24890,(%esp)
    50e7:	e8 34 72 00 00       	call   c320 <fibril_mutex_unlock>
    50ec:	83 c4 10             	add    $0x10,%esp
    50ef:	83 c8 ff             	or     $0xffffffff,%eax
    50f2:	5b                   	pop    %ebx
    50f3:	5e                   	pop    %esi
    50f4:	5d                   	pop    %ebp
    50f5:	c3                   	ret    
    50f6:	66 90                	xchg   %ax,%ax
    50f8:	66 90                	xchg   %ax,%ax
    50fa:	66 90                	xchg   %ax,%ax
    50fc:	66 90                	xchg   %ax,%ax
    50fe:	66 90                	xchg   %ax,%ax

00005100 <exit>:
    5100:	55                   	push   %ebp
    5101:	89 e5                	mov    %esp,%ebp
    5103:	83 ec 28             	sub    $0x28,%esp
