
ohci:     file format elf32-i386


Disassembly of section .init:

00001094 <__entry>:
    1094:	66 8c d0             	mov    %ss,%ax
    1097:	8e d8                	mov    %eax,%ds
    1099:	8e c0                	mov    %eax,%es
    109b:	8e e0                	mov    %eax,%fs
    109d:	b8 01 00 00 00       	mov    $0x1,%eax
    10a2:	0f a2                	cpuid  
    10a4:	0f ba e2 0b          	bt     $0xb,%edx
    10a8:	73 0c                	jae    10b6 <__entry+0x22>
    10aa:	8d 05 b0 19 03 00    	lea    0x319b0,%eax
    10b0:	c7 00 07 82 02 00    	movl   $0x28207,(%eax)
    10b6:	6a 00                	push   $0x0
    10b8:	89 e5                	mov    %esp,%ebp
    10ba:	57                   	push   %edi
    10bb:	e8 60 c7 00 00       	call   d820 <__main>

Disassembly of section .text:

000010c0 <endpoint_list_init>:
    10c0:	55                   	push   %ebp
    10c1:	89 e5                	mov    %esp,%ebp
    10c3:	56                   	push   %esi
    10c4:	53                   	push   %ebx
    10c5:	83 ec 30             	sub    $0x30,%esp
    10c8:	8b 5d 08             	mov    0x8(%ebp),%ebx
    10cb:	8b 75 0c             	mov    0xc(%ebp),%esi
    10ce:	85 db                	test   %ebx,%ebx
    10d0:	0f 84 bc 00 00 00    	je     1192 <endpoint_list_init+0xd2>
    10d6:	89 73 18             	mov    %esi,0x18(%ebx)
    10d9:	c7 44 24 04 10 00 00 	movl   $0x10,0x4(%esp)
    10e0:	00 
    10e1:	c7 04 24 20 00 00 00 	movl   $0x20,(%esp)
    10e8:	e8 a3 c6 01 00       	call   1d790 <memalign>
    10ed:	89 43 10             	mov    %eax,0x10(%ebx)
    10f0:	85 c0                	test   %eax,%eax
    10f2:	74 7b                	je     116f <endpoint_list_init+0xaf>
    10f4:	8d 55 f4             	lea    -0xc(%ebp),%edx
    10f7:	89 04 24             	mov    %eax,(%esp)
    10fa:	89 54 24 04          	mov    %edx,0x4(%esp)
    10fe:	e8 2d ce 00 00       	call   df30 <as_get_physical_mapping>
    1103:	31 d2                	xor    %edx,%edx
    1105:	85 c0                	test   %eax,%eax
    1107:	75 03                	jne    110c <endpoint_list_init+0x4c>
    1109:	8b 55 f4             	mov    -0xc(%ebp),%edx
    110c:	89 53 14             	mov    %edx,0x14(%ebx)
    110f:	89 54 24 14          	mov    %edx,0x14(%esp)
    1113:	8b 43 10             	mov    0x10(%ebx),%eax
    1116:	89 74 24 0c          	mov    %esi,0xc(%esp)
    111a:	89 44 24 10          	mov    %eax,0x10(%esp)
    111e:	c7 44 24 08 a8 c6 02 	movl   $0x2c6a8,0x8(%esp)
    1125:	00 
    1126:	c7 44 24 04 05 00 00 	movl   $0x5,0x4(%esp)
    112d:	00 
    112e:	c7 04 24 ff ff ff ff 	movl   $0xffffffff,(%esp)
    1135:	e8 76 75 01 00       	call   186b0 <log_msg>
    113a:	c7 44 24 08 00 00 00 	movl   $0x0,0x8(%esp)
    1141:	00 
    1142:	c7 44 24 04 00 00 00 	movl   $0x0,0x4(%esp)
    1149:	00 
    114a:	8b 43 10             	mov    0x10(%ebx),%eax
    114d:	89 04 24             	mov    %eax,(%esp)
    1150:	e8 0b 44 00 00       	call   5560 <ed_init>
    1155:	8d 43 1c             	lea    0x1c(%ebx),%eax
    1158:	89 43 1c             	mov    %eax,0x1c(%ebx)
    115b:	89 43 20             	mov    %eax,0x20(%ebx)
    115e:	89 1c 24             	mov    %ebx,(%esp)
    1161:	e8 ea 32 01 00       	call   14450 <fibril_mutex_initialize>
    1166:	31 c0                	xor    %eax,%eax
    1168:	83 c4 30             	add    $0x30,%esp
    116b:	5b                   	pop    %ebx
    116c:	5e                   	pop    %esi
    116d:	5d                   	pop    %ebp
    116e:	c3                   	ret    
    116f:	c7 44 24 08 88 c6 02 	movl   $0x2c688,0x8(%esp)
    1176:	00 
    1177:	c7 44 24 04 01 00 00 	movl   $0x1,0x4(%esp)
    117e:	00 
    117f:	c7 04 24 ff ff ff ff 	movl   $0xffffffff,(%esp)
    1186:	e8 25 75 01 00       	call   186b0 <log_msg>
    118b:	b8 fe ff ff ff       	mov    $0xfffffffe,%eax
    1190:	eb d6                	jmp    1168 <endpoint_list_init+0xa8>
    1192:	c7 44 24 08 33 00 00 	movl   $0x33,0x8(%esp)
    1199:	00 
    119a:	c7 44 24 04 42 c6 02 	movl   $0x2c642,0x4(%esp)
    11a1:	00 
    11a2:	c7 04 24 52 c6 02 00 	movl   $0x2c652,(%esp)
    11a9:	e8 02 6e 02 00       	call   27fb0 <assert_abort>
    11ae:	66 90                	xchg   %ax,%ax

000011b0 <endpoint_list_set_next>:
    11b0:	55                   	push   %ebp
    11b1:	89 e5                	mov    %esp,%ebp
    11b3:	53                   	push   %ebx
    11b4:	83 ec 24             	sub    $0x24,%esp
    11b7:	8b 45 08             	mov    0x8(%ebp),%eax
    11ba:	8b 55 0c             	mov    0xc(%ebp),%edx
    11bd:	85 c0                	test   %eax,%eax
    11bf:	0f 84 a2 00 00 00    	je     1267 <endpoint_list_set_next+0xb7>
    11c5:	85 d2                	test   %edx,%edx
    11c7:	0f 84 7e 00 00 00    	je     124b <endpoint_list_set_next+0x9b>
    11cd:	8b 58 10             	mov    0x10(%eax),%ebx
    11d0:	8b 52 10             	mov    0x10(%edx),%edx
    11d3:	85 db                	test   %ebx,%ebx
    11d5:	74 58                	je     122f <endpoint_list_set_next+0x7f>
    11d7:	85 d2                	test   %edx,%edx
    11d9:	74 38                	je     1213 <endpoint_list_set_next+0x63>
    11db:	8d 45 f4             	lea    -0xc(%ebp),%eax
    11de:	89 14 24             	mov    %edx,(%esp)
    11e1:	89 44 24 04          	mov    %eax,0x4(%esp)
    11e5:	e8 46 cd 00 00       	call   df30 <as_get_physical_mapping>
    11ea:	85 c0                	test   %eax,%eax
    11ec:	75 1a                	jne    1208 <endpoint_list_set_next+0x58>
    11ee:	8b 45 f4             	mov    -0xc(%ebp),%eax
    11f1:	89 c2                	mov    %eax,%edx
    11f3:	83 e2 f0             	and    $0xfffffff0,%edx
    11f6:	39 c2                	cmp    %eax,%edx
    11f8:	0f 85 85 00 00 00    	jne    1283 <endpoint_list_set_next+0xd3>
    11fe:	89 43 0c             	mov    %eax,0xc(%ebx)
    1201:	83 c4 24             	add    $0x24,%esp
    1204:	5b                   	pop    %ebx
    1205:	5d                   	pop    %ebp
    1206:	c3                   	ret    
    1207:	90                   	nop
    1208:	31 c0                	xor    %eax,%eax
    120a:	89 43 0c             	mov    %eax,0xc(%ebx)
    120d:	83 c4 24             	add    $0x24,%esp
    1210:	5b                   	pop    %ebx
    1211:	5d                   	pop    %ebp
    1212:	c3                   	ret    
    1213:	c7 44 24 08 ad 00 00 	movl   $0xad,0x8(%esp)
    121a:	00 
    121b:	c7 44 24 04 d8 c6 02 	movl   $0x2c6d8,0x4(%esp)
    1222:	00 
    1223:	c7 04 24 5b c6 02 00 	movl   $0x2c65b,(%esp)
    122a:	e8 81 6d 02 00       	call   27fb0 <assert_abort>
    122f:	c7 44 24 08 ac 00 00 	movl   $0xac,0x8(%esp)
    1236:	00 
    1237:	c7 44 24 04 d8 c6 02 	movl   $0x2c6d8,0x4(%esp)
    123e:	00 
    123f:	c7 04 24 52 c6 02 00 	movl   $0x2c652,(%esp)
    1246:	e8 65 6d 02 00       	call   27fb0 <assert_abort>
    124b:	c7 44 24 08 4f 00 00 	movl   $0x4f,0x8(%esp)
    1252:	00 
    1253:	c7 44 24 04 42 c6 02 	movl   $0x2c642,0x4(%esp)
    125a:	00 
    125b:	c7 04 24 5b c6 02 00 	movl   $0x2c65b,(%esp)
    1262:	e8 49 6d 02 00       	call   27fb0 <assert_abort>
    1267:	c7 44 24 08 4e 00 00 	movl   $0x4e,0x8(%esp)
    126e:	00 
    126f:	c7 44 24 04 42 c6 02 	movl   $0x2c642,0x4(%esp)
    1276:	00 
    1277:	c7 04 24 52 c6 02 00 	movl   $0x2c652,(%esp)
    127e:	e8 2d 6d 02 00       	call   27fb0 <assert_abort>
    1283:	c7 44 24 08 af 00 00 	movl   $0xaf,0x8(%esp)
    128a:	00 
    128b:	c7 44 24 04 d8 c6 02 	movl   $0x2c6d8,0x4(%esp)
    1292:	00 
    1293:	c7 04 24 f8 c6 02 00 	movl   $0x2c6f8,(%esp)
    129a:	e8 11 6d 02 00       	call   27fb0 <assert_abort>
    129f:	90                   	nop

000012a0 <endpoint_list_add_ep>:
    12a0:	55                   	push   %ebp
    12a1:	89 e5                	mov    %esp,%ebp
    12a3:	57                   	push   %edi
    12a4:	56                   	push   %esi
    12a5:	53                   	push   %ebx
    12a6:	83 ec 5c             	sub    $0x5c,%esp
    12a9:	8b 5d 08             	mov    0x8(%ebp),%ebx
    12ac:	8b 75 0c             	mov    0xc(%ebp),%esi
    12af:	85 db                	test   %ebx,%ebx
    12b1:	0f 84 9e 01 00 00    	je     1455 <endpoint_list_add_ep+0x1b5>
    12b7:	85 f6                	test   %esi,%esi
    12b9:	0f 84 b2 01 00 00    	je     1471 <endpoint_list_add_ep+0x1d1>
    12bf:	89 74 24 10          	mov    %esi,0x10(%esp)
    12c3:	8d 7b 1c             	lea    0x1c(%ebx),%edi
    12c6:	8b 43 18             	mov    0x18(%ebx),%eax
    12c9:	c7 44 24 08 2c c7 02 	movl   $0x2c72c,0x8(%esp)
    12d0:	00 
    12d1:	89 44 24 0c          	mov    %eax,0xc(%esp)
    12d5:	c7 44 24 04 05 00 00 	movl   $0x5,0x4(%esp)
    12dc:	00 
    12dd:	c7 04 24 ff ff ff ff 	movl   $0xffffffff,(%esp)
    12e4:	e8 c7 73 01 00       	call   186b0 <log_msg>
    12e9:	89 1c 24             	mov    %ebx,(%esp)
    12ec:	e8 7f 31 01 00       	call   14470 <fibril_mutex_lock>
    12f1:	39 7b 20             	cmp    %edi,0x20(%ebx)
    12f4:	0f 84 c6 00 00 00    	je     13c0 <endpoint_list_add_ep+0x120>
    12fa:	8b 43 1c             	mov    0x1c(%ebx),%eax
    12fd:	39 f8                	cmp    %edi,%eax
    12ff:	0f 84 cb 00 00 00    	je     13d0 <endpoint_list_add_ep+0x130>
    1305:	83 e8 08             	sub    $0x8,%eax
    1308:	8b 10                	mov    (%eax),%edx
    130a:	8b 06                	mov    (%esi),%eax
    130c:	8b 4a 0c             	mov    0xc(%edx),%ecx
    130f:	89 48 0c             	mov    %ecx,0xc(%eax)
    1312:	8b 06                	mov    (%esi),%eax
    1314:	85 c0                	test   %eax,%eax
    1316:	0f 84 71 01 00 00    	je     148d <endpoint_list_add_ep+0x1ed>
    131c:	8d 4d e4             	lea    -0x1c(%ebp),%ecx
    131f:	89 04 24             	mov    %eax,(%esp)
    1322:	89 4c 24 04          	mov    %ecx,0x4(%esp)
    1326:	89 55 d4             	mov    %edx,-0x2c(%ebp)
    1329:	e8 02 cc 00 00       	call   df30 <as_get_physical_mapping>
    132e:	8b 55 d4             	mov    -0x2c(%ebp),%edx
    1331:	85 c0                	test   %eax,%eax
    1333:	0f 85 7f 00 00 00    	jne    13b8 <endpoint_list_add_ep+0x118>
    1339:	8b 45 e4             	mov    -0x1c(%ebp),%eax
    133c:	89 c1                	mov    %eax,%ecx
    133e:	83 e1 f0             	and    $0xfffffff0,%ecx
    1341:	39 c1                	cmp    %eax,%ecx
    1343:	0f 85 f0 00 00 00    	jne    1439 <endpoint_list_add_ep+0x199>
    1349:	89 42 0c             	mov    %eax,0xc(%edx)
    134c:	8b 4b 1c             	mov    0x1c(%ebx),%ecx
    134f:	8d 46 08             	lea    0x8(%esi),%eax
    1352:	89 4e 08             	mov    %ecx,0x8(%esi)
    1355:	89 7e 0c             	mov    %edi,0xc(%esi)
    1358:	8b 4b 1c             	mov    0x1c(%ebx),%ecx
    135b:	89 43 1c             	mov    %eax,0x1c(%ebx)
    135e:	89 41 04             	mov    %eax,0x4(%ecx)
    1361:	8b 43 20             	mov    0x20(%ebx),%eax
    1364:	39 c7                	cmp    %eax,%edi
    1366:	74 60                	je     13c8 <endpoint_list_add_ep+0x128>
    1368:	83 e8 08             	sub    $0x8,%eax
    136b:	8b 08                	mov    (%eax),%ecx
    136d:	89 44 24 14          	mov    %eax,0x14(%esp)
    1371:	89 4c 24 18          	mov    %ecx,0x18(%esp)
    1375:	8b 43 18             	mov    0x18(%ebx),%eax
    1378:	89 74 24 0c          	mov    %esi,0xc(%esp)
    137c:	89 44 24 10          	mov    %eax,0x10(%esp)
    1380:	c7 44 24 08 4c c7 02 	movl   $0x2c74c,0x8(%esp)
    1387:	00 
    1388:	c7 44 24 04 04 00 00 	movl   $0x4,0x4(%esp)
    138f:	00 
    1390:	c7 04 24 ff ff ff ff 	movl   $0xffffffff,(%esp)
    1397:	89 55 d4             	mov    %edx,-0x2c(%ebp)
    139a:	e8 11 73 01 00       	call   186b0 <log_msg>
    139f:	8b 55 d4             	mov    -0x2c(%ebp),%edx
    13a2:	39 53 10             	cmp    %edx,0x10(%ebx)
    13a5:	74 39                	je     13e0 <endpoint_list_add_ep+0x140>
    13a7:	89 1c 24             	mov    %ebx,(%esp)
    13aa:	e8 e1 31 01 00       	call   14590 <fibril_mutex_unlock>
    13af:	83 c4 5c             	add    $0x5c,%esp
    13b2:	5b                   	pop    %ebx
    13b3:	5e                   	pop    %esi
    13b4:	5f                   	pop    %edi
    13b5:	5d                   	pop    %ebp
    13b6:	c3                   	ret    
    13b7:	90                   	nop
    13b8:	31 c0                	xor    %eax,%eax
    13ba:	eb 8d                	jmp    1349 <endpoint_list_add_ep+0xa9>
    13bc:	8d 74 26 00          	lea    0x0(%esi,%eiz,1),%esi
    13c0:	8b 53 10             	mov    0x10(%ebx),%edx
    13c3:	e9 42 ff ff ff       	jmp    130a <endpoint_list_add_ep+0x6a>
    13c8:	b8 f8 ff ff ff       	mov    $0xfffffff8,%eax
    13cd:	eb 9c                	jmp    136b <endpoint_list_add_ep+0xcb>
    13cf:	90                   	nop
    13d0:	b8 f8 ff ff ff       	mov    $0xfffffff8,%eax
    13d5:	e9 2e ff ff ff       	jmp    1308 <endpoint_list_add_ep+0x68>
    13da:	8d b6 00 00 00 00    	lea    0x0(%esi),%esi
    13e0:	8b 7a 0c             	mov    0xc(%edx),%edi
    13e3:	8b 72 08             	mov    0x8(%edx),%esi
    13e6:	8b 4a 04             	mov    0x4(%edx),%ecx
    13e9:	8b 02                	mov    (%edx),%eax
    13eb:	89 44 24 18          	mov    %eax,0x18(%esp)
    13ef:	89 7c 24 24          	mov    %edi,0x24(%esp)
    13f3:	89 74 24 20          	mov    %esi,0x20(%esp)
    13f7:	89 4c 24 1c          	mov    %ecx,0x1c(%esp)
    13fb:	8b 43 14             	mov    0x14(%ebx),%eax
    13fe:	89 54 24 10          	mov    %edx,0x10(%esp)
    1402:	89 44 24 14          	mov    %eax,0x14(%esp)
    1406:	8b 43 18             	mov    0x18(%ebx),%eax
    1409:	c7 44 24 08 7c c7 02 	movl   $0x2c77c,0x8(%esp)
    1410:	00 
    1411:	89 44 24 0c          	mov    %eax,0xc(%esp)
    1415:	c7 44 24 04 05 00 00 	movl   $0x5,0x4(%esp)
    141c:	00 
    141d:	c7 04 24 ff ff ff ff 	movl   $0xffffffff,(%esp)
    1424:	e8 87 72 01 00       	call   186b0 <log_msg>
    1429:	89 1c 24             	mov    %ebx,(%esp)
    142c:	e8 5f 31 01 00       	call   14590 <fibril_mutex_unlock>
    1431:	83 c4 5c             	add    $0x5c,%esp
    1434:	5b                   	pop    %ebx
    1435:	5e                   	pop    %esi
    1436:	5f                   	pop    %edi
    1437:	5d                   	pop    %ebp
    1438:	c3                   	ret    
    1439:	c7 44 24 08 af 00 00 	movl   $0xaf,0x8(%esp)
    1440:	00 
    1441:	c7 44 24 04 d8 c6 02 	movl   $0x2c6d8,0x4(%esp)
    1448:	00 
    1449:	c7 04 24 f8 c6 02 00 	movl   $0x2c6f8,(%esp)
    1450:	e8 5b 6b 02 00       	call   27fb0 <assert_abort>
    1455:	c7 44 24 08 5c 00 00 	movl   $0x5c,0x8(%esp)
    145c:	00 
    145d:	c7 44 24 04 42 c6 02 	movl   $0x2c642,0x4(%esp)
    1464:	00 
    1465:	c7 04 24 52 c6 02 00 	movl   $0x2c652,(%esp)
    146c:	e8 3f 6b 02 00       	call   27fb0 <assert_abort>
    1471:	c7 44 24 08 5d 00 00 	movl   $0x5d,0x8(%esp)
    1478:	00 
    1479:	c7 44 24 04 42 c6 02 	movl   $0x2c642,0x4(%esp)
    1480:	00 
    1481:	c7 04 24 9a fa 02 00 	movl   $0x2fa9a,(%esp)
    1488:	e8 23 6b 02 00       	call   27fb0 <assert_abort>
    148d:	c7 44 24 08 ad 00 00 	movl   $0xad,0x8(%esp)
    1494:	00 
    1495:	c7 44 24 04 d8 c6 02 	movl   $0x2c6d8,0x4(%esp)
    149c:	00 
    149d:	c7 04 24 5b c6 02 00 	movl   $0x2c65b,(%esp)
    14a4:	e8 07 6b 02 00       	call   27fb0 <assert_abort>
    14a9:	8d b4 26 00 00 00 00 	lea    0x0(%esi,%eiz,1),%esi

000014b0 <endpoint_list_remove_ep>:
    14b0:	55                   	push   %ebp
    14b1:	89 e5                	mov    %esp,%ebp
    14b3:	57                   	push   %edi
    14b4:	56                   	push   %esi
    14b5:	53                   	push   %ebx
    14b6:	83 ec 4c             	sub    $0x4c,%esp
    14b9:	8b 75 08             	mov    0x8(%ebp),%esi
    14bc:	8b 5d 0c             	mov    0xc(%ebp),%ebx
    14bf:	85 f6                	test   %esi,%esi
    14c1:	0f 84 98 01 00 00    	je     165f <endpoint_list_remove_ep+0x1af>
    14c7:	8b 56 10             	mov    0x10(%esi),%edx
    14ca:	85 d2                	test   %edx,%edx
    14cc:	0f 84 71 01 00 00    	je     1643 <endpoint_list_remove_ep+0x193>
    14d2:	85 db                	test   %ebx,%ebx
    14d4:	0f 84 4d 01 00 00    	je     1627 <endpoint_list_remove_ep+0x177>
    14da:	8b 03                	mov    (%ebx),%eax
    14dc:	85 c0                	test   %eax,%eax
    14de:	0f 84 27 01 00 00    	je     160b <endpoint_list_remove_ep+0x15b>
    14e4:	89 34 24             	mov    %esi,(%esp)
    14e7:	e8 84 2f 01 00       	call   14470 <fibril_mutex_lock>
    14ec:	89 5c 24 10          	mov    %ebx,0x10(%esp)
    14f0:	8b 46 18             	mov    0x18(%esi),%eax
    14f3:	c7 44 24 08 a0 c7 02 	movl   $0x2c7a0,0x8(%esp)
    14fa:	00 
    14fb:	89 44 24 0c          	mov    %eax,0xc(%esp)
    14ff:	c7 44 24 04 05 00 00 	movl   $0x5,0x4(%esp)
    1506:	00 
    1507:	c7 04 24 ff ff ff ff 	movl   $0xffffffff,(%esp)
    150e:	e8 9d 71 01 00       	call   186b0 <log_msg>
    1513:	8b 46 20             	mov    0x20(%esi),%eax
    1516:	8d 56 1c             	lea    0x1c(%esi),%edx
    1519:	39 d0                	cmp    %edx,%eax
    151b:	74 0b                	je     1528 <endpoint_list_remove_ep+0x78>
    151d:	8d 53 08             	lea    0x8(%ebx),%edx
    1520:	39 d0                	cmp    %edx,%eax
    1522:	0f 84 b8 00 00 00    	je     15e0 <endpoint_list_remove_ep+0x130>
    1528:	8b 43 08             	mov    0x8(%ebx),%eax
    152b:	c7 45 d4 60 c6 02 00 	movl   $0x2c660,-0x2c(%ebp)
    1532:	8b 50 f8             	mov    -0x8(%eax),%edx
    1535:	85 d2                	test   %edx,%edx
    1537:	0f 84 b2 00 00 00    	je     15ef <endpoint_list_remove_ep+0x13f>
    153d:	8d 45 e4             	lea    -0x1c(%ebp),%eax
    1540:	8b 7a 0c             	mov    0xc(%edx),%edi
    1543:	89 44 24 04          	mov    %eax,0x4(%esp)
    1547:	83 e7 f0             	and    $0xfffffff0,%edi
    154a:	8b 03                	mov    (%ebx),%eax
    154c:	89 55 d0             	mov    %edx,-0x30(%ebp)
    154f:	89 04 24             	mov    %eax,(%esp)
    1552:	e8 d9 c9 00 00       	call   df30 <as_get_physical_mapping>
    1557:	31 c9                	xor    %ecx,%ecx
    1559:	8b 55 d0             	mov    -0x30(%ebp),%edx
    155c:	85 c0                	test   %eax,%eax
    155e:	75 03                	jne    1563 <endpoint_list_remove_ep+0xb3>
    1560:	8b 4d e4             	mov    -0x1c(%ebp),%ecx
    1563:	39 cf                	cmp    %ecx,%edi
    1565:	0f 85 10 01 00 00    	jne    167b <endpoint_list_remove_ep+0x1cb>
    156b:	8b 03                	mov    (%ebx),%eax
    156d:	8b 40 0c             	mov    0xc(%eax),%eax
    1570:	89 42 0c             	mov    %eax,0xc(%edx)
    1573:	8b 03                	mov    (%ebx),%eax
    1575:	8b 40 0c             	mov    0xc(%eax),%eax
    1578:	89 44 24 18          	mov    %eax,0x18(%esp)
    157c:	8b 46 18             	mov    0x18(%esi),%eax
    157f:	89 5c 24 0c          	mov    %ebx,0xc(%esp)
    1583:	89 44 24 14          	mov    %eax,0x14(%esp)
    1587:	8b 45 d4             	mov    -0x2c(%ebp),%eax
    158a:	89 44 24 10          	mov    %eax,0x10(%esp)
    158e:	c7 44 24 08 f0 c7 02 	movl   $0x2c7f0,0x8(%esp)
    1595:	00 
    1596:	c7 44 24 04 04 00 00 	movl   $0x4,0x4(%esp)
    159d:	00 
    159e:	c7 04 24 ff ff ff ff 	movl   $0xffffffff,(%esp)
    15a5:	e8 06 71 01 00       	call   186b0 <log_msg>
    15aa:	8b 53 08             	mov    0x8(%ebx),%edx
    15ad:	85 d2                	test   %edx,%edx
    15af:	74 0f                	je     15c0 <endpoint_list_remove_ep+0x110>
    15b1:	8b 43 0c             	mov    0xc(%ebx),%eax
    15b4:	85 c0                	test   %eax,%eax
    15b6:	74 08                	je     15c0 <endpoint_list_remove_ep+0x110>
    15b8:	89 10                	mov    %edx,(%eax)
    15ba:	8b 53 08             	mov    0x8(%ebx),%edx
    15bd:	89 42 04             	mov    %eax,0x4(%edx)
    15c0:	c7 43 08 00 00 00 00 	movl   $0x0,0x8(%ebx)
    15c7:	c7 43 0c 00 00 00 00 	movl   $0x0,0xc(%ebx)
    15ce:	89 34 24             	mov    %esi,(%esp)
    15d1:	e8 ba 2f 01 00       	call   14590 <fibril_mutex_unlock>
    15d6:	83 c4 4c             	add    $0x4c,%esp
    15d9:	5b                   	pop    %ebx
    15da:	5e                   	pop    %esi
    15db:	5f                   	pop    %edi
    15dc:	5d                   	pop    %ebp
    15dd:	c3                   	ret    
    15de:	66 90                	xchg   %ax,%ax
    15e0:	8b 56 10             	mov    0x10(%esi),%edx
    15e3:	c7 45 d4 64 c6 02 00 	movl   $0x2c664,-0x2c(%ebp)
    15ea:	e9 46 ff ff ff       	jmp    1535 <endpoint_list_remove_ep+0x85>
    15ef:	c7 44 24 08 b5 00 00 	movl   $0xb5,0x8(%esp)
    15f6:	00 
    15f7:	c7 44 24 04 d8 c6 02 	movl   $0x2c6d8,0x4(%esp)
    15fe:	00 
    15ff:	c7 04 24 52 c6 02 00 	movl   $0x2c652,(%esp)
    1606:	e8 a5 69 02 00       	call   27fb0 <assert_abort>
    160b:	c7 44 24 08 91 00 00 	movl   $0x91,0x8(%esp)
    1612:	00 
    1613:	c7 44 24 04 42 c6 02 	movl   $0x2c642,0x4(%esp)
    161a:	00 
    161b:	c7 04 24 7e c6 02 00 	movl   $0x2c67e,(%esp)
    1622:	e8 89 69 02 00       	call   27fb0 <assert_abort>
    1627:	c7 44 24 08 90 00 00 	movl   $0x90,0x8(%esp)
    162e:	00 
    162f:	c7 44 24 04 42 c6 02 	movl   $0x2c642,0x4(%esp)
    1636:	00 
    1637:	c7 04 24 9a fa 02 00 	movl   $0x2fa9a,(%esp)
    163e:	e8 6d 69 02 00       	call   27fb0 <assert_abort>
    1643:	c7 44 24 08 8f 00 00 	movl   $0x8f,0x8(%esp)
    164a:	00 
    164b:	c7 44 24 04 42 c6 02 	movl   $0x2c642,0x4(%esp)
    1652:	00 
    1653:	c7 04 24 6a c6 02 00 	movl   $0x2c66a,(%esp)
    165a:	e8 51 69 02 00       	call   27fb0 <assert_abort>
    165f:	c7 44 24 08 8e 00 00 	movl   $0x8e,0x8(%esp)
    1666:	00 
    1667:	c7 44 24 04 42 c6 02 	movl   $0x2c642,0x4(%esp)
    166e:	00 
    166f:	c7 04 24 52 c6 02 00 	movl   $0x2c652,(%esp)
    1676:	e8 35 69 02 00       	call   27fb0 <assert_abort>
    167b:	c7 44 24 08 a4 00 00 	movl   $0xa4,0x8(%esp)
    1682:	00 
    1683:	c7 44 24 04 42 c6 02 	movl   $0x2c642,0x4(%esp)
    168a:	00 
    168b:	c7 04 24 c4 c7 02 00 	movl   $0x2c7c4,(%esp)
    1692:	e8 19 69 02 00       	call   27fb0 <assert_abort>
    1697:	66 90                	xchg   %ax,%ax
    1699:	66 90                	xchg   %ax,%ax
    169b:	66 90                	xchg   %ax,%ax
    169d:	66 90                	xchg   %ax,%ax
    169f:	90                   	nop

000016a0 <hc_schedule>:
    16a0:	55                   	push   %ebp
    16a1:	89 e5                	mov    %esp,%ebp
    16a3:	57                   	push   %edi
    16a4:	56                   	push   %esi
    16a5:	53                   	push   %ebx
    16a6:	83 ec 2c             	sub    $0x2c,%esp
    16a9:	8b 45 08             	mov    0x8(%ebp),%eax
    16ac:	8b 7d 0c             	mov    0xc(%ebp),%edi
    16af:	85 c0                	test   %eax,%eax
    16b1:	0f 84 14 01 00 00    	je     17cb <hc_schedule+0x12b>
    16b7:	8b 98 7c 06 00 00    	mov    0x67c(%eax),%ebx
    16bd:	85 db                	test   %ebx,%ebx
    16bf:	0f 84 ea 00 00 00    	je     17af <hc_schedule+0x10f>
    16c5:	8b 07                	mov    (%edi),%eax
    16c7:	8b 93 54 07 00 00    	mov    0x754(%ebx),%edx
    16cd:	66 39 50 08          	cmp    %dx,0x8(%eax)
    16d1:	0f 84 99 00 00 00    	je     1770 <hc_schedule+0xd0>
    16d7:	89 3c 24             	mov    %edi,(%esp)
    16da:	e8 b1 21 00 00       	call   3890 <ohci_transfer_batch_get>
    16df:	89 c6                	mov    %eax,%esi
    16e1:	85 c0                	test   %eax,%eax
    16e3:	0f 84 bf 00 00 00    	je     17a8 <hc_schedule+0x108>
    16e9:	8d 83 30 07 00 00    	lea    0x730(%ebx),%eax
    16ef:	89 04 24             	mov    %eax,(%esp)
    16f2:	89 45 e4             	mov    %eax,-0x1c(%ebp)
    16f5:	e8 76 2d 01 00       	call   14470 <fibril_mutex_lock>
    16fa:	8d 93 24 07 00 00    	lea    0x724(%ebx),%edx
    1700:	89 56 04             	mov    %edx,0x4(%esi)
    1703:	8b 93 24 07 00 00    	mov    0x724(%ebx),%edx
    1709:	89 16                	mov    %edx,(%esi)
    170b:	8b 93 24 07 00 00    	mov    0x724(%ebx),%edx
    1711:	89 b3 24 07 00 00    	mov    %esi,0x724(%ebx)
    1717:	89 72 04             	mov    %esi,0x4(%edx)
    171a:	89 34 24             	mov    %esi,(%esp)
    171d:	e8 be 2a 00 00       	call   41e0 <ohci_transfer_batch_commit>
    1722:	8b 17                	mov    (%edi),%edx
    1724:	8b 52 10             	mov    0x10(%edx),%edx
    1727:	8b 45 e4             	mov    -0x1c(%ebp),%eax
    172a:	85 d2                	test   %edx,%edx
    172c:	74 2a                	je     1758 <hc_schedule+0xb8>
    172e:	83 fa 02             	cmp    $0x2,%edx
    1731:	75 0f                	jne    1742 <hc_schedule+0xa2>
    1733:	8b 8b 8c 06 00 00    	mov    0x68c(%ebx),%ecx
    1739:	8b 51 08             	mov    0x8(%ecx),%edx
    173c:	83 ca 04             	or     $0x4,%edx
    173f:	89 51 08             	mov    %edx,0x8(%ecx)
    1742:	89 04 24             	mov    %eax,(%esp)
    1745:	e8 46 2e 01 00       	call   14590 <fibril_mutex_unlock>
    174a:	31 c0                	xor    %eax,%eax
    174c:	83 c4 2c             	add    $0x2c,%esp
    174f:	5b                   	pop    %ebx
    1750:	5e                   	pop    %esi
    1751:	5f                   	pop    %edi
    1752:	5d                   	pop    %ebp
    1753:	c3                   	ret    
    1754:	8d 74 26 00          	lea    0x0(%esi,%eiz,1),%esi
    1758:	8b 8b 8c 06 00 00    	mov    0x68c(%ebx),%ecx
    175e:	8b 51 08             	mov    0x8(%ecx),%edx
    1761:	83 ca 02             	or     $0x2,%edx
    1764:	89 51 08             	mov    %edx,0x8(%ecx)
    1767:	eb d9                	jmp    1742 <hc_schedule+0xa2>
    1769:	8d b4 26 00 00 00 00 	lea    0x0(%esi,%eiz,1),%esi
    1770:	c7 44 24 08 1f c8 02 	movl   $0x2c81f,0x8(%esp)
    1777:	00 
    1778:	c7 44 24 04 04 00 00 	movl   $0x4,0x4(%esp)
    177f:	00 
    1780:	c7 04 24 ff ff ff ff 	movl   $0xffffffff,(%esp)
    1787:	81 c3 40 07 00 00    	add    $0x740,%ebx
    178d:	e8 1e 6f 01 00       	call   186b0 <log_msg>
    1792:	89 7c 24 04          	mov    %edi,0x4(%esp)
    1796:	89 1c 24             	mov    %ebx,(%esp)
    1799:	e8 d2 31 00 00       	call   4970 <rh_request>
    179e:	83 c4 2c             	add    $0x2c,%esp
    17a1:	31 c0                	xor    %eax,%eax
    17a3:	5b                   	pop    %ebx
    17a4:	5e                   	pop    %esi
    17a5:	5f                   	pop    %edi
    17a6:	5d                   	pop    %ebp
    17a7:	c3                   	ret    
    17a8:	b8 fe ff ff ff       	mov    $0xfffffffe,%eax
    17ad:	eb 9d                	jmp    174c <hc_schedule+0xac>
    17af:	c7 44 24 08 49 01 00 	movl   $0x149,0x8(%esp)
    17b6:	00 
    17b7:	c7 44 24 04 ef e8 02 	movl   $0x2e8ef,0x4(%esp)
    17be:	00 
    17bf:	c7 04 24 52 c6 02 00 	movl   $0x2c652,(%esp)
    17c6:	e8 e5 67 02 00       	call   27fb0 <assert_abort>
    17cb:	c7 44 24 08 47 01 00 	movl   $0x147,0x8(%esp)
    17d2:	00 
    17d3:	c7 44 24 04 ef e8 02 	movl   $0x2e8ef,0x4(%esp)
    17da:	00 
    17db:	c7 04 24 1b c8 02 00 	movl   $0x2c81b,(%esp)
    17e2:	e8 c9 67 02 00       	call   27fb0 <assert_abort>
    17e7:	89 f6                	mov    %esi,%esi
    17e9:	8d bc 27 00 00 00 00 	lea    0x0(%edi,%eiz,1),%edi

000017f0 <hc_start>:
    17f0:	55                   	push   %ebp
    17f1:	89 e5                	mov    %esp,%ebp
    17f3:	57                   	push   %edi
    17f4:	56                   	push   %esi
    17f5:	53                   	push   %ebx
    17f6:	83 ec 3c             	sub    $0x3c,%esp
    17f9:	89 c3                	mov    %eax,%ebx
    17fb:	85 c0                	test   %eax,%eax
    17fd:	0f 84 7a 02 00 00    	je     1a7d <hc_start+0x28d>
    1803:	c7 44 24 08 28 ca 02 	movl   $0x2ca28,0x8(%esp)
    180a:	00 
    180b:	c7 44 24 04 05 00 00 	movl   $0x5,0x4(%esp)
    1812:	00 
    1813:	c7 04 24 ff ff ff ff 	movl   $0xffffffff,(%esp)
    181a:	31 f6                	xor    %esi,%esi
    181c:	e8 8f 6e 01 00       	call   186b0 <log_msg>
    1821:	8b 83 8c 06 00 00    	mov    0x68c(%ebx),%eax
    1827:	8b 78 34             	mov    0x34(%eax),%edi
    182a:	c7 44 24 08 4c ca 02 	movl   $0x2ca4c,0x8(%esp)
    1831:	00 
    1832:	89 7c 24 0c          	mov    %edi,0xc(%esp)
    1836:	c7 44 24 04 05 00 00 	movl   $0x5,0x4(%esp)
    183d:	00 
    183e:	c7 04 24 ff ff ff ff 	movl   $0xffffffff,(%esp)
    1845:	e8 66 6e 01 00       	call   186b0 <log_msg>
    184a:	c7 44 24 08 47 c8 02 	movl   $0x2c847,0x8(%esp)
    1851:	00 
    1852:	c7 44 24 04 05 00 00 	movl   $0x5,0x4(%esp)
    1859:	00 
    185a:	c7 04 24 ff ff ff ff 	movl   $0xffffffff,(%esp)
    1861:	e8 4a 6e 01 00       	call   186b0 <log_msg>
    1866:	8b 83 8c 06 00 00    	mov    0x68c(%ebx),%eax
    186c:	c7 40 08 01 00 00 00 	movl   $0x1,0x8(%eax)
    1873:	8b 40 08             	mov    0x8(%eax),%eax
    1876:	a8 01                	test   $0x1,%al
    1878:	74 22                	je     189c <hc_start+0xac>
    187a:	8d b6 00 00 00 00    	lea    0x0(%esi),%esi
    1880:	c7 04 24 0a 00 00 00 	movl   $0xa,(%esp)
    1887:	83 c6 0a             	add    $0xa,%esi
    188a:	e8 81 e2 01 00       	call   1fb10 <async_usleep>
    188f:	8b 83 8c 06 00 00    	mov    0x68c(%ebx),%eax
    1895:	8b 40 08             	mov    0x8(%eax),%eax
    1898:	a8 01                	test   $0x1,%al
    189a:	75 e4                	jne    1880 <hc_start+0x90>
    189c:	89 74 24 0c          	mov    %esi,0xc(%esp)
    18a0:	c7 44 24 08 52 c8 02 	movl   $0x2c852,0x8(%esp)
    18a7:	00 
    18a8:	c7 44 24 04 05 00 00 	movl   $0x5,0x4(%esp)
    18af:	00 
    18b0:	c7 04 24 ff ff ff ff 	movl   $0xffffffff,(%esp)
    18b7:	e8 f4 6d 01 00       	call   186b0 <log_msg>
    18bc:	8b 83 8c 06 00 00    	mov    0x68c(%ebx),%eax
    18c2:	89 78 34             	mov    %edi,0x34(%eax)
    18c5:	8b 50 08             	mov    0x8(%eax),%edx
    18c8:	83 e2 01             	and    $0x1,%edx
    18cb:	0f 85 c8 01 00 00    	jne    1a99 <hc_start+0x2a9>
    18d1:	8b 40 04             	mov    0x4(%eax),%eax
    18d4:	c7 44 24 08 ac ca 02 	movl   $0x2caac,0x8(%esp)
    18db:	00 
    18dc:	89 44 24 0c          	mov    %eax,0xc(%esp)
    18e0:	c7 44 24 04 05 00 00 	movl   $0x5,0x4(%esp)
    18e7:	00 
    18e8:	c7 04 24 ff ff ff ff 	movl   $0xffffffff,(%esp)
    18ef:	e8 bc 6d 01 00       	call   186b0 <log_msg>
    18f4:	8d 45 e4             	lea    -0x1c(%ebp),%eax
    18f7:	89 44 24 04          	mov    %eax,0x4(%esp)
    18fb:	8b 83 90 06 00 00    	mov    0x690(%ebx),%eax
    1901:	89 04 24             	mov    %eax,(%esp)
    1904:	8b b3 8c 06 00 00    	mov    0x68c(%ebx),%esi
    190a:	e8 21 c6 00 00       	call   df30 <as_get_physical_mapping>
    190f:	31 d2                	xor    %edx,%edx
    1911:	85 c0                	test   %eax,%eax
    1913:	75 03                	jne    1918 <hc_start+0x128>
    1915:	8b 55 e4             	mov    -0x1c(%ebp),%edx
    1918:	89 56 18             	mov    %edx,0x18(%esi)
    191b:	8b 93 8c 06 00 00    	mov    0x68c(%ebx),%edx
    1921:	8b 83 f0 06 00 00    	mov    0x6f0(%ebx),%eax
    1927:	81 e7 ff 3f 00 00    	and    $0x3fff,%edi
    192d:	89 42 28             	mov    %eax,0x28(%edx)
    1930:	89 44 24 10          	mov    %eax,0x10(%esp)
    1934:	8b 83 ec 06 00 00    	mov    0x6ec(%ebx),%eax
    193a:	c7 44 24 08 70 c8 02 	movl   $0x2c870,0x8(%esp)
    1941:	00 
    1942:	89 44 24 0c          	mov    %eax,0xc(%esp)
    1946:	c7 44 24 04 05 00 00 	movl   $0x5,0x4(%esp)
    194d:	00 
    194e:	c7 04 24 ff ff ff ff 	movl   $0xffffffff,(%esp)
    1955:	e8 56 6d 01 00       	call   186b0 <log_msg>
    195a:	8b 93 8c 06 00 00    	mov    0x68c(%ebx),%edx
    1960:	8b 83 a8 06 00 00    	mov    0x6a8(%ebx),%eax
    1966:	89 42 20             	mov    %eax,0x20(%edx)
    1969:	89 44 24 10          	mov    %eax,0x10(%esp)
    196d:	8b 83 a4 06 00 00    	mov    0x6a4(%ebx),%eax
    1973:	c7 44 24 08 d0 ca 02 	movl   $0x2cad0,0x8(%esp)
    197a:	00 
    197b:	89 44 24 0c          	mov    %eax,0xc(%esp)
    197f:	c7 44 24 04 05 00 00 	movl   $0x5,0x4(%esp)
    1986:	00 
    1987:	c7 04 24 ff ff ff ff 	movl   $0xffffffff,(%esp)
    198e:	e8 1d 6d 01 00       	call   186b0 <log_msg>
    1993:	8b 83 8c 06 00 00    	mov    0x68c(%ebx),%eax
    1999:	8b 50 04             	mov    0x4(%eax),%edx
    199c:	83 ca 3c             	or     $0x3c,%edx
    199f:	89 50 04             	mov    %edx,0x4(%eax)
    19a2:	8b 40 04             	mov    0x4(%eax),%eax
    19a5:	c7 44 24 08 8d c8 02 	movl   $0x2c88d,0x8(%esp)
    19ac:	00 
    19ad:	89 44 24 0c          	mov    %eax,0xc(%esp)
    19b1:	c7 44 24 04 04 00 00 	movl   $0x4,0x4(%esp)
    19b8:	00 
    19b9:	c7 04 24 ff ff ff ff 	movl   $0xffffffff,(%esp)
    19c0:	e8 eb 6c 01 00       	call   186b0 <log_msg>
    19c5:	8b 83 8c 06 00 00    	mov    0x68c(%ebx),%eax
    19cb:	c7 40 10 53 00 00 00 	movl   $0x53,0x10(%eax)
    19d2:	8b 40 10             	mov    0x10(%eax),%eax
    19d5:	c7 44 24 08 a2 c8 02 	movl   $0x2c8a2,0x8(%esp)
    19dc:	00 
    19dd:	89 44 24 0c          	mov    %eax,0xc(%esp)
    19e1:	c7 44 24 04 04 00 00 	movl   $0x4,0x4(%esp)
    19e8:	00 
    19e9:	c7 04 24 ff ff ff ff 	movl   $0xffffffff,(%esp)
    19f0:	e8 bb 6c 01 00       	call   186b0 <log_msg>
    19f5:	89 f8                	mov    %edi,%eax
    19f7:	ba cd cc cc cc       	mov    $0xcccccccd,%edx
    19fc:	8b 8b 8c 06 00 00    	mov    0x68c(%ebx),%ecx
    1a02:	f7 e2                	mul    %edx
    1a04:	c1 ea 03             	shr    $0x3,%edx
    1a07:	c7 41 10 00 00 00 80 	movl   $0x80000000,0x10(%ecx)
    1a0e:	8d 04 d2             	lea    (%edx,%edx,8),%eax
    1a11:	89 41 40             	mov    %eax,0x40(%ecx)
    1a14:	8b 51 40             	mov    0x40(%ecx),%edx
    1a17:	8b 41 40             	mov    0x40(%ecx),%eax
    1a1a:	89 44 24 0c          	mov    %eax,0xc(%esp)
    1a1e:	89 7c 24 14          	mov    %edi,0x14(%esp)
    1a22:	89 54 24 10          	mov    %edx,0x10(%esp)
    1a26:	c7 44 24 08 f0 ca 02 	movl   $0x2caf0,0x8(%esp)
    1a2d:	00 
    1a2e:	c7 44 24 04 05 00 00 	movl   $0x5,0x4(%esp)
    1a35:	00 
    1a36:	c7 04 24 ff ff ff ff 	movl   $0xffffffff,(%esp)
    1a3d:	e8 6e 6c 01 00       	call   186b0 <log_msg>
    1a42:	8b 93 8c 06 00 00    	mov    0x68c(%ebx),%edx
    1a48:	8b 42 04             	mov    0x4(%edx),%eax
    1a4b:	24 3f                	and    $0x3f,%al
    1a4d:	0c 80                	or     $0x80,%al
    1a4f:	89 42 04             	mov    %eax,0x4(%edx)
    1a52:	8b 42 04             	mov    0x4(%edx),%eax
    1a55:	c7 44 24 08 24 cb 02 	movl   $0x2cb24,0x8(%esp)
    1a5c:	00 
    1a5d:	89 44 24 0c          	mov    %eax,0xc(%esp)
    1a61:	c7 44 24 04 04 00 00 	movl   $0x4,0x4(%esp)
    1a68:	00 
    1a69:	c7 04 24 ff ff ff ff 	movl   $0xffffffff,(%esp)
    1a70:	e8 3b 6c 01 00       	call   186b0 <log_msg>
    1a75:	83 c4 3c             	add    $0x3c,%esp
    1a78:	5b                   	pop    %ebx
    1a79:	5e                   	pop    %esi
    1a7a:	5f                   	pop    %edi
    1a7b:	5d                   	pop    %ebp
    1a7c:	c3                   	ret    
    1a7d:	c7 44 24 08 f0 01 00 	movl   $0x1f0,0x8(%esp)
    1a84:	00 
    1a85:	c7 44 24 04 ef e8 02 	movl   $0x2e8ef,0x4(%esp)
    1a8c:	00 
    1a8d:	c7 04 24 52 c6 02 00 	movl   $0x2c652,(%esp)
    1a94:	e8 17 65 02 00       	call   27fb0 <assert_abort>
    1a99:	c7 44 24 08 03 02 00 	movl   $0x203,0x8(%esp)
    1aa0:	00 
    1aa1:	c7 44 24 04 ef e8 02 	movl   $0x2e8ef,0x4(%esp)
    1aa8:	00 
    1aa9:	c7 04 24 6c ca 02 00 	movl   $0x2ca6c,(%esp)
    1ab0:	e8 fb 64 02 00       	call   27fb0 <assert_abort>
    1ab5:	8d 74 26 00          	lea    0x0(%esi,%eiz,1),%esi
    1ab9:	8d bc 27 00 00 00 00 	lea    0x0(%edi,%eiz,1),%edi

00001ac0 <hc_irq_pio_range_count>:
    1ac0:	55                   	push   %ebp
    1ac1:	b8 01 00 00 00       	mov    $0x1,%eax
    1ac6:	89 e5                	mov    %esp,%ebp
    1ac8:	5d                   	pop    %ebp
    1ac9:	c3                   	ret    
    1aca:	8d b6 00 00 00 00    	lea    0x0(%esi),%esi

00001ad0 <hc_irq_cmd_count>:
    1ad0:	55                   	push   %ebp
    1ad1:	b8 05 00 00 00       	mov    $0x5,%eax
    1ad6:	89 e5                	mov    %esp,%ebp
    1ad8:	5d                   	pop    %ebp
    1ad9:	c3                   	ret    
    1ada:	8d b6 00 00 00 00    	lea    0x0(%esi),%esi

00001ae0 <hc_get_irq_code>:
    1ae0:	55                   	push   %ebp
    1ae1:	89 e5                	mov    %esp,%ebp
    1ae3:	57                   	push   %edi
    1ae4:	56                   	push   %esi
    1ae5:	53                   	push   %ebx
    1ae6:	83 ec 1c             	sub    $0x1c,%esp
    1ae9:	8b 7d 08             	mov    0x8(%ebp),%edi
    1aec:	8b 5d 10             	mov    0x10(%ebp),%ebx
    1aef:	8b 75 18             	mov    0x18(%ebp),%esi
    1af2:	83 7d 14 63          	cmpl   $0x63,0x14(%ebp)
    1af6:	76 58                	jbe    1b50 <hc_get_irq_code+0x70>
    1af8:	83 7d 0c 07          	cmpl   $0x7,0xc(%ebp)
    1afc:	76 52                	jbe    1b50 <hc_get_irq_code+0x70>
    1afe:	83 7d 1c 53          	cmpl   $0x53,0x1c(%ebp)
    1b02:	76 4c                	jbe    1b50 <hc_get_irq_code+0x70>
    1b04:	89 3c 24             	mov    %edi,(%esp)
    1b07:	c7 44 24 08 08 00 00 	movl   $0x8,0x8(%esp)
    1b0e:	00 
    1b0f:	c7 44 24 04 60 cd 02 	movl   $0x2cd60,0x4(%esp)
    1b16:	00 
    1b17:	e8 74 e8 00 00       	call   10390 <memcpy>
    1b1c:	89 37                	mov    %esi,(%edi)
    1b1e:	89 1c 24             	mov    %ebx,(%esp)
    1b21:	83 c6 0c             	add    $0xc,%esi
    1b24:	c7 44 24 08 64 00 00 	movl   $0x64,0x8(%esp)
    1b2b:	00 
    1b2c:	c7 44 24 04 80 cd 02 	movl   $0x2cd80,0x4(%esp)
    1b33:	00 
    1b34:	e8 57 e8 00 00       	call   10390 <memcpy>
    1b39:	89 73 04             	mov    %esi,0x4(%ebx)
    1b3c:	89 73 40             	mov    %esi,0x40(%ebx)
    1b3f:	c7 43 1c 53 00 00 00 	movl   $0x53,0x1c(%ebx)
    1b46:	83 c4 1c             	add    $0x1c,%esp
    1b49:	31 c0                	xor    %eax,%eax
    1b4b:	5b                   	pop    %ebx
    1b4c:	5e                   	pop    %esi
    1b4d:	5f                   	pop    %edi
    1b4e:	5d                   	pop    %ebp
    1b4f:	c3                   	ret    
    1b50:	83 c4 1c             	add    $0x1c,%esp
    1b53:	b8 f0 ff ff ff       	mov    $0xfffffff0,%eax
    1b58:	5b                   	pop    %ebx
    1b59:	5e                   	pop    %esi
    1b5a:	5f                   	pop    %edi
    1b5b:	5d                   	pop    %ebp
    1b5c:	c3                   	ret    
    1b5d:	8d 76 00             	lea    0x0(%esi),%esi

00001b60 <hc_register_hub>:
    1b60:	55                   	push   %ebp
    1b61:	89 e5                	mov    %esp,%ebp
    1b63:	57                   	push   %edi
    1b64:	56                   	push   %esi
    1b65:	53                   	push   %ebx
    1b66:	83 ec 3c             	sub    $0x3c,%esp
    1b69:	8b 5d 08             	mov    0x8(%ebp),%ebx
    1b6c:	85 db                	test   %ebx,%ebx
    1b6e:	0f 84 25 02 00 00    	je     1d99 <hc_register_hub+0x239>
    1b74:	8b 45 0c             	mov    0xc(%ebp),%eax
    1b77:	85 c0                	test   %eax,%eax
    1b79:	0f 84 36 02 00 00    	je     1db5 <hc_register_hub+0x255>
    1b7f:	8d 83 54 07 00 00    	lea    0x754(%ebx),%eax
    1b85:	66 c7 83 54 07 00 00 	movw   $0x1,0x754(%ebx)
    1b8c:	01 00 
    1b8e:	c7 44 24 0c 01 00 00 	movl   $0x1,0xc(%esp)
    1b95:	00 
    1b96:	c7 44 24 08 00 00 00 	movl   $0x0,0x8(%esp)
    1b9d:	00 
    1b9e:	89 44 24 04          	mov    %eax,0x4(%esp)
    1ba2:	89 1c 24             	mov    %ebx,(%esp)
    1ba5:	e8 86 4b 00 00       	call   6730 <usb_device_manager_request_address>
    1baa:	89 c6                	mov    %eax,%esi
    1bac:	85 c0                	test   %eax,%eax
    1bae:	0f 85 74 01 00 00    	jne    1d28 <hc_register_hub+0x1c8>
    1bb4:	c7 44 24 24 00 00 00 	movl   $0x0,0x24(%esp)
    1bbb:	00 
    1bbc:	c7 44 24 20 00 00 00 	movl   $0x0,0x20(%esp)
    1bc3:	00 
    1bc4:	c7 44 24 1c 00 00 00 	movl   $0x0,0x1c(%esp)
    1bcb:	00 
    1bcc:	c7 44 24 18 40 00 00 	movl   $0x40,0x18(%esp)
    1bd3:	00 
    1bd4:	c7 44 24 14 01 00 00 	movl   $0x1,0x14(%esp)
    1bdb:	00 
    1bdc:	c7 44 24 10 00 00 00 	movl   $0x0,0x10(%esp)
    1be3:	00 
    1be4:	c7 44 24 0c 02 00 00 	movl   $0x2,0xc(%esp)
    1beb:	00 
    1bec:	c7 44 24 08 00 00 00 	movl   $0x0,0x8(%esp)
    1bf3:	00 
    1bf4:	0f bf 83 54 07 00 00 	movswl 0x754(%ebx),%eax
    1bfb:	8d bb 24 06 00 00    	lea    0x624(%ebx),%edi
    1c01:	89 44 24 04          	mov    %eax,0x4(%esp)
    1c05:	89 3c 24             	mov    %edi,(%esp)
    1c08:	e8 43 56 00 00       	call   7250 <usb_endpoint_manager_add_ep>
    1c0d:	89 c6                	mov    %eax,%esi
    1c0f:	85 c0                	test   %eax,%eax
    1c11:	0f 85 99 00 00 00    	jne    1cb0 <hc_register_hub+0x150>
    1c17:	8b 45 0c             	mov    0xc(%ebp),%eax
    1c1a:	c7 44 24 08 64 00 00 	movl   $0x64,0x8(%esp)
    1c21:	00 
    1c22:	c7 44 24 04 c3 c8 02 	movl   $0x2c8c3,0x4(%esp)
    1c29:	00 
    1c2a:	89 04 24             	mov    %eax,(%esp)
    1c2d:	e8 3e 6e 00 00       	call   8a70 <ddf_fun_add_match_id>
    1c32:	89 c6                	mov    %eax,%esi
    1c34:	85 c0                	test   %eax,%eax
    1c36:	0f 85 44 01 00 00    	jne    1d80 <hc_register_hub+0x220>
    1c3c:	8b 45 0c             	mov    0xc(%ebp),%eax
    1c3f:	89 04 24             	mov    %eax,(%esp)
    1c42:	e8 f9 6b 00 00       	call   8840 <ddf_fun_bind>
    1c47:	89 c6                	mov    %eax,%esi
    1c49:	85 c0                	test   %eax,%eax
    1c4b:	0f 85 0f 01 00 00    	jne    1d60 <hc_register_hub+0x200>
    1c51:	8b 45 0c             	mov    0xc(%ebp),%eax
    1c54:	89 04 24             	mov    %eax,(%esp)
    1c57:	e8 44 69 00 00       	call   85a0 <ddf_fun_get_handle>
    1c5c:	89 44 24 08          	mov    %eax,0x8(%esp)
    1c60:	0f bf 83 54 07 00 00 	movswl 0x754(%ebx),%eax
    1c67:	89 1c 24             	mov    %ebx,(%esp)
    1c6a:	89 44 24 04          	mov    %eax,0x4(%esp)
    1c6e:	e8 fd 4c 00 00       	call   6970 <usb_device_manager_bind_address>
    1c73:	89 c6                	mov    %eax,%esi
    1c75:	85 c0                	test   %eax,%eax
    1c77:	0f 84 a1 00 00 00    	je     1d1e <hc_register_hub+0x1be>
    1c7d:	89 04 24             	mov    %eax,(%esp)
    1c80:	31 f6                	xor    %esi,%esi
    1c82:	e8 f9 1d 01 00       	call   13a80 <str_error>
    1c87:	c7 44 24 08 fc cb 02 	movl   $0x2cbfc,0x8(%esp)
    1c8e:	00 
    1c8f:	89 44 24 0c          	mov    %eax,0xc(%esp)
    1c93:	c7 44 24 04 02 00 00 	movl   $0x2,0x4(%esp)
    1c9a:	00 
    1c9b:	c7 04 24 ff ff ff ff 	movl   $0xffffffff,(%esp)
    1ca2:	e8 09 6a 01 00       	call   186b0 <log_msg>
    1ca7:	eb 75                	jmp    1d1e <hc_register_hub+0x1be>
    1ca9:	8d b4 26 00 00 00 00 	lea    0x0(%esi,%eiz,1),%esi
    1cb0:	89 04 24             	mov    %eax,(%esp)
    1cb3:	e8 c8 1d 01 00       	call   13a80 <str_error>
    1cb8:	c7 44 24 08 78 cb 02 	movl   $0x2cb78,0x8(%esp)
    1cbf:	00 
    1cc0:	89 44 24 0c          	mov    %eax,0xc(%esp)
    1cc4:	c7 44 24 04 01 00 00 	movl   $0x1,0x4(%esp)
    1ccb:	00 
    1ccc:	c7 04 24 ff ff ff ff 	movl   $0xffffffff,(%esp)
    1cd3:	e8 d8 69 01 00       	call   186b0 <log_msg>
    1cd8:	c7 44 24 14 00 00 00 	movl   $0x0,0x14(%esp)
    1cdf:	00 
    1ce0:	c7 44 24 10 00 00 00 	movl   $0x0,0x10(%esp)
    1ce7:	00 
    1ce8:	c7 44 24 0c 02 00 00 	movl   $0x2,0xc(%esp)
    1cef:	00 
    1cf0:	c7 44 24 08 00 00 00 	movl   $0x0,0x8(%esp)
    1cf7:	00 
    1cf8:	0f bf 83 54 07 00 00 	movswl 0x754(%ebx),%eax
    1cff:	89 3c 24             	mov    %edi,(%esp)
    1d02:	89 44 24 04          	mov    %eax,0x4(%esp)
    1d06:	e8 25 57 00 00       	call   7430 <usb_endpoint_manager_remove_ep>
    1d0b:	0f bf 83 54 07 00 00 	movswl 0x754(%ebx),%eax
    1d12:	89 1c 24             	mov    %ebx,(%esp)
    1d15:	89 44 24 04          	mov    %eax,0x4(%esp)
    1d19:	e8 f2 4c 00 00       	call   6a10 <usb_device_manager_release_address>
    1d1e:	83 c4 3c             	add    $0x3c,%esp
    1d21:	89 f0                	mov    %esi,%eax
    1d23:	5b                   	pop    %ebx
    1d24:	5e                   	pop    %esi
    1d25:	5f                   	pop    %edi
    1d26:	5d                   	pop    %ebp
    1d27:	c3                   	ret    
    1d28:	89 04 24             	mov    %eax,(%esp)
    1d2b:	e8 50 1d 01 00       	call   13a80 <str_error>
    1d30:	c7 44 24 08 4c cb 02 	movl   $0x2cb4c,0x8(%esp)
    1d37:	00 
    1d38:	89 44 24 0c          	mov    %eax,0xc(%esp)
    1d3c:	c7 44 24 04 01 00 00 	movl   $0x1,0x4(%esp)
    1d43:	00 
    1d44:	c7 04 24 ff ff ff ff 	movl   $0xffffffff,(%esp)
    1d4b:	e8 60 69 01 00       	call   186b0 <log_msg>
    1d50:	83 c4 3c             	add    $0x3c,%esp
    1d53:	89 f0                	mov    %esi,%eax
    1d55:	5b                   	pop    %ebx
    1d56:	5e                   	pop    %esi
    1d57:	5f                   	pop    %edi
    1d58:	5d                   	pop    %ebp
    1d59:	c3                   	ret    
    1d5a:	8d b6 00 00 00 00    	lea    0x0(%esi),%esi
    1d60:	89 04 24             	mov    %eax,(%esp)
    1d63:	e8 18 1d 01 00       	call   13a80 <str_error>
    1d68:	c7 44 24 08 d4 cb 02 	movl   $0x2cbd4,0x8(%esp)
    1d6f:	00 
    1d70:	89 44 24 0c          	mov    %eax,0xc(%esp)
    1d74:	e9 4b ff ff ff       	jmp    1cc4 <hc_register_hub+0x164>
    1d79:	8d b4 26 00 00 00 00 	lea    0x0(%esi,%eiz,1),%esi
    1d80:	89 04 24             	mov    %eax,(%esp)
    1d83:	e8 f8 1c 01 00       	call   13a80 <str_error>
    1d88:	c7 44 24 08 ac cb 02 	movl   $0x2cbac,0x8(%esp)
    1d8f:	00 
    1d90:	89 44 24 0c          	mov    %eax,0xc(%esp)
    1d94:	e9 2b ff ff ff       	jmp    1cc4 <hc_register_hub+0x164>
    1d99:	c7 44 24 08 93 00 00 	movl   $0x93,0x8(%esp)
    1da0:	00 
    1da1:	c7 44 24 04 ef e8 02 	movl   $0x2e8ef,0x4(%esp)
    1da8:	00 
    1da9:	c7 04 24 52 c6 02 00 	movl   $0x2c652,(%esp)
    1db0:	e8 fb 61 02 00       	call   27fb0 <assert_abort>
    1db5:	c7 44 24 08 94 00 00 	movl   $0x94,0x8(%esp)
    1dbc:	00 
    1dbd:	c7 44 24 04 ef e8 02 	movl   $0x2e8ef,0x4(%esp)
    1dc4:	00 
    1dc5:	c7 04 24 bb c8 02 00 	movl   $0x2c8bb,(%esp)
    1dcc:	e8 df 61 02 00       	call   27fb0 <assert_abort>
    1dd1:	eb 0d                	jmp    1de0 <hc_init>
    1dd3:	90                   	nop
    1dd4:	90                   	nop
    1dd5:	90                   	nop
    1dd6:	90                   	nop
    1dd7:	90                   	nop
    1dd8:	90                   	nop
    1dd9:	90                   	nop
    1dda:	90                   	nop
    1ddb:	90                   	nop
    1ddc:	90                   	nop
    1ddd:	90                   	nop
    1dde:	90                   	nop
    1ddf:	90                   	nop

00001de0 <hc_init>:
    1de0:	55                   	push   %ebp
    1de1:	89 e5                	mov    %esp,%ebp
    1de3:	57                   	push   %edi
    1de4:	56                   	push   %esi
    1de5:	53                   	push   %ebx
    1de6:	83 ec 4c             	sub    $0x4c,%esp
    1de9:	8b 5d 08             	mov    0x8(%ebp),%ebx
    1dec:	8a 45 14             	mov    0x14(%ebp),%al
    1def:	88 45 e3             	mov    %al,-0x1d(%ebp)
    1df2:	85 db                	test   %ebx,%ebx
    1df4:	0f 84 58 05 00 00    	je     2352 <hc_init+0x572>
    1dfa:	8d 83 8c 06 00 00    	lea    0x68c(%ebx),%eax
    1e00:	89 44 24 08          	mov    %eax,0x8(%esp)
    1e04:	8b 45 10             	mov    0x10(%ebp),%eax
    1e07:	89 44 24 04          	mov    %eax,0x4(%esp)
    1e0b:	8b 45 0c             	mov    0xc(%ebp),%eax
    1e0e:	89 04 24             	mov    %eax,(%esp)
    1e11:	e8 9a bc 00 00       	call   dab0 <pio_enable>
    1e16:	89 c6                	mov    %eax,%esi
    1e18:	85 c0                	test   %eax,%eax
    1e1a:	0f 85 e0 03 00 00    	jne    2200 <hc_init+0x420>
    1e20:	8d 83 24 07 00 00    	lea    0x724(%ebx),%eax
    1e26:	89 83 24 07 00 00    	mov    %eax,0x724(%ebx)
    1e2c:	89 83 28 07 00 00    	mov    %eax,0x728(%ebx)
    1e32:	c7 44 24 04 01 00 00 	movl   $0x1,0x4(%esp)
    1e39:	00 
    1e3a:	89 1c 24             	mov    %ebx,(%esp)
    1e3d:	e8 6e 48 00 00       	call   66b0 <usb_device_manager_init>
    1e42:	8d 83 24 06 00 00    	lea    0x624(%ebx),%eax
    1e48:	c7 44 24 08 10 6d 00 	movl   $0x6d10,0x8(%esp)
    1e4f:	00 
    1e50:	c7 44 24 04 70 99 14 	movl   $0x149970,0x4(%esp)
    1e57:	00 
    1e58:	89 04 24             	mov    %eax,(%esp)
    1e5b:	e8 60 4f 00 00       	call   6dc0 <usb_endpoint_manager_init>
    1e60:	8d 83 40 07 00 00    	lea    0x740(%ebx),%eax
    1e66:	89 9b 7c 06 00 00    	mov    %ebx,0x67c(%ebx)
    1e6c:	c7 83 80 06 00 00 a0 	movl   $0x16a0,0x680(%ebx)
    1e73:	16 00 00 
    1e76:	c7 83 84 06 00 00 50 	movl   $0x4350,0x684(%ebx)
    1e7d:	43 00 00 
    1e80:	c7 83 88 06 00 00 40 	movl   $0x4440,0x688(%ebx)
    1e87:	44 00 00 
    1e8a:	c7 44 24 08 4c 00 00 	movl   $0x4c,0x8(%esp)
    1e91:	00 
    1e92:	c7 44 24 04 00 00 00 	movl   $0x0,0x4(%esp)
    1e99:	00 
    1e9a:	89 04 24             	mov    %eax,(%esp)
    1e9d:	89 45 e4             	mov    %eax,-0x1c(%ebp)
    1ea0:	e8 6b e3 00 00       	call   10210 <memset>
    1ea5:	c7 04 24 01 00 00 00 	movl   $0x1,(%esp)
    1eac:	e8 1f 5c 00 00       	call   7ad0 <usb_str_transfer_type>
    1eb1:	89 c7                	mov    %eax,%edi
    1eb3:	8d 83 b8 06 00 00    	lea    0x6b8(%ebx),%eax
    1eb9:	89 7c 24 04          	mov    %edi,0x4(%esp)
    1ebd:	89 04 24             	mov    %eax,(%esp)
    1ec0:	89 45 dc             	mov    %eax,-0x24(%ebp)
    1ec3:	e8 f8 f1 ff ff       	call   10c0 <endpoint_list_init>
    1ec8:	89 c6                	mov    %eax,%esi
    1eca:	85 c0                	test   %eax,%eax
    1ecc:	0f 85 96 02 00 00    	jne    2168 <hc_init+0x388>
    1ed2:	c7 04 24 03 00 00 00 	movl   $0x3,(%esp)
    1ed9:	e8 f2 5b 00 00       	call   7ad0 <usb_str_transfer_type>
    1ede:	89 c7                	mov    %eax,%edi
    1ee0:	8d 83 00 07 00 00    	lea    0x700(%ebx),%eax
    1ee6:	89 7c 24 04          	mov    %edi,0x4(%esp)
    1eea:	89 04 24             	mov    %eax,(%esp)
    1eed:	89 45 d8             	mov    %eax,-0x28(%ebp)
    1ef0:	e8 cb f1 ff ff       	call   10c0 <endpoint_list_init>
    1ef5:	89 c6                	mov    %eax,%esi
    1ef7:	85 c0                	test   %eax,%eax
    1ef9:	0f 85 69 02 00 00    	jne    2168 <hc_init+0x388>
    1eff:	c7 04 24 00 00 00 00 	movl   $0x0,(%esp)
    1f06:	e8 c5 5b 00 00       	call   7ad0 <usb_str_transfer_type>
    1f0b:	89 44 24 04          	mov    %eax,0x4(%esp)
    1f0f:	89 c7                	mov    %eax,%edi
    1f11:	8d 83 94 06 00 00    	lea    0x694(%ebx),%eax
    1f17:	89 04 24             	mov    %eax,(%esp)
    1f1a:	e8 a1 f1 ff ff       	call   10c0 <endpoint_list_init>
    1f1f:	89 c6                	mov    %eax,%esi
    1f21:	85 c0                	test   %eax,%eax
    1f23:	0f 85 3f 02 00 00    	jne    2168 <hc_init+0x388>
    1f29:	c7 04 24 02 00 00 00 	movl   $0x2,(%esp)
    1f30:	e8 9b 5b 00 00       	call   7ad0 <usb_str_transfer_type>
    1f35:	89 44 24 04          	mov    %eax,0x4(%esp)
    1f39:	89 c7                	mov    %eax,%edi
    1f3b:	8d 83 dc 06 00 00    	lea    0x6dc(%ebx),%eax
    1f41:	89 04 24             	mov    %eax,(%esp)
    1f44:	e8 77 f1 ff ff       	call   10c0 <endpoint_list_init>
    1f49:	89 c6                	mov    %eax,%esi
    1f4b:	85 c0                	test   %eax,%eax
    1f4d:	0f 85 15 02 00 00    	jne    2168 <hc_init+0x388>
    1f53:	8b 45 dc             	mov    -0x24(%ebp),%eax
    1f56:	89 44 24 04          	mov    %eax,0x4(%esp)
    1f5a:	8b 45 d8             	mov    -0x28(%ebp),%eax
    1f5d:	89 04 24             	mov    %eax,(%esp)
    1f60:	e8 4b f2 ff ff       	call   11b0 <endpoint_list_set_next>
    1f65:	c7 44 24 04 00 01 00 	movl   $0x100,0x4(%esp)
    1f6c:	00 
    1f6d:	c7 04 24 00 01 00 00 	movl   $0x100,(%esp)
    1f74:	e8 17 b8 01 00       	call   1d790 <memalign>
    1f79:	89 c7                	mov    %eax,%edi
    1f7b:	85 c0                	test   %eax,%eax
    1f7d:	0f 84 9a 03 00 00    	je     231d <hc_init+0x53d>
    1f83:	c7 44 24 08 00 01 00 	movl   $0x100,0x8(%esp)
    1f8a:	00 
    1f8b:	c7 44 24 04 00 00 00 	movl   $0x0,0x4(%esp)
    1f92:	00 
    1f93:	89 04 24             	mov    %eax,(%esp)
    1f96:	e8 75 e2 00 00       	call   10210 <memset>
    1f9b:	89 bb 90 06 00 00    	mov    %edi,0x690(%ebx)
    1fa1:	89 7c 24 0c          	mov    %edi,0xc(%esp)
    1fa5:	c7 44 24 08 d1 c8 02 	movl   $0x2c8d1,0x8(%esp)
    1fac:	00 
    1fad:	c7 44 24 04 05 00 00 	movl   $0x5,0x4(%esp)
    1fb4:	00 
    1fb5:	c7 04 24 ff ff ff ff 	movl   $0xffffffff,(%esp)
    1fbc:	e8 ef 66 01 00       	call   186b0 <log_msg>
    1fc1:	8b 8b 90 06 00 00    	mov    0x690(%ebx),%ecx
    1fc7:	8b 93 14 07 00 00    	mov    0x714(%ebx),%edx
    1fcd:	85 c9                	test   %ecx,%ecx
    1fcf:	0f 84 99 03 00 00    	je     236e <hc_init+0x58e>
    1fd5:	31 c0                	xor    %eax,%eax
    1fd7:	90                   	nop
    1fd8:	89 14 81             	mov    %edx,(%ecx,%eax,4)
    1fdb:	40                   	inc    %eax
    1fdc:	83 f8 20             	cmp    $0x20,%eax
    1fdf:	75 f7                	jne    1fd8 <hc_init+0x1f8>
    1fe1:	89 54 24 10          	mov    %edx,0x10(%esp)
    1fe5:	8b 83 10 07 00 00    	mov    0x710(%ebx),%eax
    1feb:	c7 44 24 08 7c cc 02 	movl   $0x2cc7c,0x8(%esp)
    1ff2:	00 
    1ff3:	89 44 24 0c          	mov    %eax,0xc(%esp)
    1ff7:	c7 44 24 04 05 00 00 	movl   $0x5,0x4(%esp)
    1ffe:	00 
    1fff:	c7 04 24 ff ff ff ff 	movl   $0xffffffff,(%esp)
    2006:	e8 a5 66 01 00       	call   186b0 <log_msg>
    200b:	8d 83 30 07 00 00    	lea    0x730(%ebx),%eax
    2011:	89 04 24             	mov    %eax,(%esp)
    2014:	e8 37 24 01 00       	call   14450 <fibril_mutex_initialize>
    2019:	c7 44 24 08 05 c9 02 	movl   $0x2c905,0x8(%esp)
    2020:	00 
    2021:	c7 44 24 04 04 00 00 	movl   $0x4,0x4(%esp)
    2028:	00 
    2029:	c7 04 24 ff ff ff ff 	movl   $0xffffffff,(%esp)
    2030:	e8 7b 66 01 00       	call   186b0 <log_msg>
    2035:	8b bb 8c 06 00 00    	mov    0x68c(%ebx),%edi
    203b:	8b 07                	mov    (%edi),%eax
    203d:	a8 80                	test   $0x80,%al
    203f:	74 77                	je     20b8 <hc_init+0x2d8>
    2041:	8b 87 00 01 00 00    	mov    0x100(%edi),%eax
    2047:	8d 97 00 01 00 00    	lea    0x100(%edi),%edx
    204d:	89 44 24 10          	mov    %eax,0x10(%esp)
    2051:	89 54 24 0c          	mov    %edx,0xc(%esp)
    2055:	c7 44 24 08 1f c9 02 	movl   $0x2c91f,0x8(%esp)
    205c:	00 
    205d:	c7 44 24 04 04 00 00 	movl   $0x4,0x4(%esp)
    2064:	00 
    2065:	c7 04 24 ff ff ff ff 	movl   $0xffffffff,(%esp)
    206c:	89 55 d4             	mov    %edx,-0x2c(%ebp)
    206f:	e8 3c 66 01 00       	call   186b0 <log_msg>
    2074:	8b 87 00 01 00 00    	mov    0x100(%edi),%eax
    207a:	25 00 01 00 00       	and    $0x100,%eax
    207f:	8b 55 d4             	mov    -0x2c(%ebp),%edx
    2082:	89 87 00 01 00 00    	mov    %eax,0x100(%edi)
    2088:	8b 87 00 01 00 00    	mov    0x100(%edi),%eax
    208e:	89 54 24 0c          	mov    %edx,0xc(%esp)
    2092:	89 44 24 10          	mov    %eax,0x10(%esp)
    2096:	c7 44 24 08 a0 cc 02 	movl   $0x2cca0,0x8(%esp)
    209d:	00 
    209e:	c7 44 24 04 04 00 00 	movl   $0x4,0x4(%esp)
    20a5:	00 
    20a6:	c7 04 24 ff ff ff ff 	movl   $0xffffffff,(%esp)
    20ad:	e8 fe 65 01 00       	call   186b0 <log_msg>
    20b2:	8b bb 8c 06 00 00    	mov    0x68c(%ebx),%edi
    20b8:	8b 47 04             	mov    0x4(%edi),%eax
    20bb:	f6 c4 01             	test   $0x1,%ah
    20be:	0f 85 cc 01 00 00    	jne    2290 <hc_init+0x4b0>
    20c4:	8b 7f 04             	mov    0x4(%edi),%edi
    20c7:	c1 ef 06             	shr    $0x6,%edi
    20ca:	83 e7 03             	and    $0x3,%edi
    20cd:	0f 84 65 01 00 00    	je     2238 <hc_init+0x458>
    20d3:	c7 44 24 08 5b c9 02 	movl   $0x2c95b,0x8(%esp)
    20da:	00 
    20db:	c7 44 24 04 04 00 00 	movl   $0x4,0x4(%esp)
    20e2:	00 
    20e3:	c7 04 24 ff ff ff ff 	movl   $0xffffffff,(%esp)
    20ea:	e8 c1 65 01 00       	call   186b0 <log_msg>
    20ef:	83 ff 02             	cmp    $0x2,%edi
    20f2:	0f 84 39 02 00 00    	je     2331 <hc_init+0x551>
    20f8:	8b 93 8c 06 00 00    	mov    0x68c(%ebx),%edx
    20fe:	8b 42 04             	mov    0x4(%edx),%eax
    2101:	24 3f                	and    $0x3f,%al
    2103:	83 c8 40             	or     $0x40,%eax
    2106:	89 42 04             	mov    %eax,0x4(%edx)
    2109:	c7 04 24 20 4e 00 00 	movl   $0x4e20,(%esp)
    2110:	e8 fb d9 01 00       	call   1fb10 <async_usleep>
    2115:	c7 44 24 08 8d c9 02 	movl   $0x2c98d,0x8(%esp)
    211c:	00 
    211d:	c7 44 24 04 03 00 00 	movl   $0x3,0x4(%esp)
    2124:	00 
    2125:	c7 04 24 ff ff ff ff 	movl   $0xffffffff,(%esp)
    212c:	e8 7f 65 01 00       	call   186b0 <log_msg>
    2131:	80 7d e3 00          	cmpb   $0x0,-0x1d(%ebp)
    2135:	0f 84 2f 01 00 00    	je     226a <hc_init+0x48a>
    213b:	8b 83 8c 06 00 00    	mov    0x68c(%ebx),%eax
    2141:	89 44 24 04          	mov    %eax,0x4(%esp)
    2145:	8b 45 e4             	mov    -0x1c(%ebp),%eax
    2148:	89 04 24             	mov    %eax,(%esp)
    214b:	e8 80 25 00 00       	call   46d0 <rh_init>
    2150:	89 d8                	mov    %ebx,%eax
    2152:	e8 99 f6 ff ff       	call   17f0 <hc_start>
    2157:	83 c4 4c             	add    $0x4c,%esp
    215a:	89 f0                	mov    %esi,%eax
    215c:	5b                   	pop    %ebx
    215d:	5e                   	pop    %esi
    215e:	5f                   	pop    %edi
    215f:	5d                   	pop    %ebp
    2160:	c3                   	ret    
    2161:	8d b4 26 00 00 00 00 	lea    0x0(%esi,%eiz,1),%esi
    2168:	89 34 24             	mov    %esi,(%esp)
    216b:	e8 10 19 01 00       	call   13a80 <str_error>
    2170:	89 7c 24 0c          	mov    %edi,0xc(%esp)
    2174:	89 44 24 10          	mov    %eax,0x10(%esp)
    2178:	c7 44 24 08 54 cc 02 	movl   $0x2cc54,0x8(%esp)
    217f:	00 
    2180:	c7 44 24 04 01 00 00 	movl   $0x1,0x4(%esp)
    2187:	00 
    2188:	c7 04 24 ff ff ff ff 	movl   $0xffffffff,(%esp)
    218f:	e8 1c 65 01 00       	call   186b0 <log_msg>
    2194:	8b 83 c8 06 00 00    	mov    0x6c8(%ebx),%eax
    219a:	89 04 24             	mov    %eax,(%esp)
    219d:	e8 be b6 01 00       	call   1d860 <free>
    21a2:	8b 83 10 07 00 00    	mov    0x710(%ebx),%eax
    21a8:	89 04 24             	mov    %eax,(%esp)
    21ab:	e8 b0 b6 01 00       	call   1d860 <free>
    21b0:	8b 83 a4 06 00 00    	mov    0x6a4(%ebx),%eax
    21b6:	89 04 24             	mov    %eax,(%esp)
    21b9:	e8 a2 b6 01 00       	call   1d860 <free>
    21be:	8b 83 ec 06 00 00    	mov    0x6ec(%ebx),%eax
    21c4:	89 04 24             	mov    %eax,(%esp)
    21c7:	e8 94 b6 01 00       	call   1d860 <free>
    21cc:	89 34 24             	mov    %esi,(%esp)
    21cf:	e8 ac 18 01 00       	call   13a80 <str_error>
    21d4:	c7 44 24 08 28 cd 02 	movl   $0x2cd28,0x8(%esp)
    21db:	00 
    21dc:	89 44 24 0c          	mov    %eax,0xc(%esp)
    21e0:	c7 44 24 04 01 00 00 	movl   $0x1,0x4(%esp)
    21e7:	00 
    21e8:	c7 04 24 ff ff ff ff 	movl   $0xffffffff,(%esp)
    21ef:	e8 bc 64 01 00       	call   186b0 <log_msg>
    21f4:	83 c4 4c             	add    $0x4c,%esp
    21f7:	89 f0                	mov    %esi,%eax
    21f9:	5b                   	pop    %ebx
    21fa:	5e                   	pop    %esi
    21fb:	5f                   	pop    %edi
    21fc:	5d                   	pop    %ebp
    21fd:	c3                   	ret    
    21fe:	66 90                	xchg   %ax,%ax
    2200:	89 04 24             	mov    %eax,(%esp)
    2203:	e8 78 18 01 00       	call   13a80 <str_error>
    2208:	c7 44 24 08 24 cc 02 	movl   $0x2cc24,0x8(%esp)
    220f:	00 
    2210:	89 44 24 0c          	mov    %eax,0xc(%esp)
    2214:	c7 44 24 04 01 00 00 	movl   $0x1,0x4(%esp)
    221b:	00 
    221c:	c7 04 24 ff ff ff ff 	movl   $0xffffffff,(%esp)
    2223:	e8 88 64 01 00       	call   186b0 <log_msg>
    2228:	83 c4 4c             	add    $0x4c,%esp
    222b:	89 f0                	mov    %esi,%eax
    222d:	5b                   	pop    %ebx
    222e:	5e                   	pop    %esi
    222f:	5f                   	pop    %edi
    2230:	5d                   	pop    %ebp
    2231:	c3                   	ret    
    2232:	8d b6 00 00 00 00    	lea    0x0(%esi),%esi
    2238:	c7 44 24 08 00 cd 02 	movl   $0x2cd00,0x8(%esp)
    223f:	00 
    2240:	c7 44 24 04 04 00 00 	movl   $0x4,0x4(%esp)
    2247:	00 
    2248:	c7 04 24 ff ff ff ff 	movl   $0xffffffff,(%esp)
    224f:	e8 5c 64 01 00       	call   186b0 <log_msg>
    2254:	c7 04 24 50 c3 00 00 	movl   $0xc350,(%esp)
    225b:	e8 b0 d8 01 00       	call   1fb10 <async_usleep>
    2260:	80 7d e3 00          	cmpb   $0x0,-0x1d(%ebp)
    2264:	0f 85 d1 fe ff ff    	jne    213b <hc_init+0x35b>
    226a:	89 5c 24 04          	mov    %ebx,0x4(%esp)
    226e:	c7 04 24 00 28 00 00 	movl   $0x2800,(%esp)
    2275:	e8 16 1d 01 00       	call   13f90 <fibril_create>
    227a:	89 83 2c 07 00 00    	mov    %eax,0x72c(%ebx)
    2280:	89 04 24             	mov    %eax,(%esp)
    2283:	e8 48 1e 01 00       	call   140d0 <fibril_add_ready>
    2288:	e9 ae fe ff ff       	jmp    213b <hc_init+0x35b>
    228d:	8d 76 00             	lea    0x0(%esi),%esi
    2290:	c7 44 24 08 d8 cc 02 	movl   $0x2ccd8,0x8(%esp)
    2297:	00 
    2298:	c7 44 24 04 04 00 00 	movl   $0x4,0x4(%esp)
    229f:	00 
    22a0:	c7 04 24 ff ff ff ff 	movl   $0xffffffff,(%esp)
    22a7:	e8 04 64 01 00       	call   186b0 <log_msg>
    22ac:	8b 83 8c 06 00 00    	mov    0x68c(%ebx),%eax
    22b2:	8b 50 08             	mov    0x8(%eax),%edx
    22b5:	83 ca 08             	or     $0x8,%edx
    22b8:	89 50 08             	mov    %edx,0x8(%eax)
    22bb:	8b 40 04             	mov    0x4(%eax),%eax
    22be:	f6 c4 01             	test   $0x1,%ah
    22c1:	74 1f                	je     22e2 <hc_init+0x502>
    22c3:	90                   	nop
    22c4:	8d 74 26 00          	lea    0x0(%esi,%eiz,1),%esi
    22c8:	c7 04 24 e8 03 00 00 	movl   $0x3e8,(%esp)
    22cf:	e8 3c d8 01 00       	call   1fb10 <async_usleep>
    22d4:	8b 83 8c 06 00 00    	mov    0x68c(%ebx),%eax
    22da:	8b 40 04             	mov    0x4(%eax),%eax
    22dd:	f6 c4 01             	test   $0x1,%ah
    22e0:	75 e6                	jne    22c8 <hc_init+0x4e8>
    22e2:	c7 44 24 08 3d c9 02 	movl   $0x2c93d,0x8(%esp)
    22e9:	00 
    22ea:	c7 44 24 04 03 00 00 	movl   $0x3,0x4(%esp)
    22f1:	00 
    22f2:	c7 04 24 ff ff ff ff 	movl   $0xffffffff,(%esp)
    22f9:	e8 b2 63 01 00       	call   186b0 <log_msg>
    22fe:	8b 93 8c 06 00 00    	mov    0x68c(%ebx),%edx
    2304:	8b 42 04             	mov    0x4(%edx),%eax
    2307:	24 3f                	and    $0x3f,%al
    2309:	89 42 04             	mov    %eax,0x4(%edx)
    230c:	c7 04 24 50 c3 00 00 	movl   $0xc350,(%esp)
    2313:	e8 f8 d7 01 00       	call   1fb10 <async_usleep>
    2318:	e9 14 fe ff ff       	jmp    2131 <hc_init+0x351>
    231d:	c7 83 90 06 00 00 00 	movl   $0x0,0x690(%ebx)
    2324:	00 00 00 
    2327:	be fe ff ff ff       	mov    $0xfffffffe,%esi
    232c:	e9 9b fe ff ff       	jmp    21cc <hc_init+0x3ec>
    2331:	c7 44 24 08 6f c9 02 	movl   $0x2c96f,0x8(%esp)
    2338:	00 
    2339:	c7 44 24 04 03 00 00 	movl   $0x3,0x4(%esp)
    2340:	00 
    2341:	c7 04 24 ff ff ff ff 	movl   $0xffffffff,(%esp)
    2348:	e8 63 63 01 00       	call   186b0 <log_msg>
    234d:	e9 df fd ff ff       	jmp    2131 <hc_init+0x351>
    2352:	c7 44 24 08 d0 00 00 	movl   $0xd0,0x8(%esp)
    2359:	00 
    235a:	c7 44 24 04 ef e8 02 	movl   $0x2e8ef,0x4(%esp)
    2361:	00 
    2362:	c7 04 24 52 c6 02 00 	movl   $0x2c652,(%esp)
    2369:	e8 42 5c 02 00       	call   27fb0 <assert_abort>
    236e:	c7 44 24 08 51 00 00 	movl   $0x51,0x8(%esp)
    2375:	00 
    2376:	c7 44 24 04 ef c8 02 	movl   $0x2c8ef,0x4(%esp)
    237d:	00 
    237e:	c7 04 24 00 c9 02 00 	movl   $0x2c900,(%esp)
    2385:	e8 26 5c 02 00       	call   27fb0 <assert_abort>
    238a:	8d b6 00 00 00 00    	lea    0x0(%esi),%esi

00002390 <hc_enqueue_endpoint>:
    2390:	55                   	push   %ebp
    2391:	89 e5                	mov    %esp,%ebp
    2393:	56                   	push   %esi
    2394:	53                   	push   %ebx
    2395:	83 ec 10             	sub    $0x10,%esp
    2398:	8b 5d 08             	mov    0x8(%ebp),%ebx
    239b:	8b 55 0c             	mov    0xc(%ebp),%edx
    239e:	85 db                	test   %ebx,%ebx
    23a0:	0f 84 12 01 00 00    	je     24b8 <hc_enqueue_endpoint+0x128>
    23a6:	85 d2                	test   %edx,%edx
    23a8:	0f 84 ee 00 00 00    	je     249c <hc_enqueue_endpoint+0x10c>
    23ae:	8b 42 10             	mov    0x10(%edx),%eax
    23b1:	8b 52 3c             	mov    0x3c(%edx),%edx
    23b4:	85 d2                	test   %edx,%edx
    23b6:	8d 0c c0             	lea    (%eax,%eax,8),%ecx
    23b9:	8d 8c 8b 94 06 00 00 	lea    0x694(%ebx,%ecx,4),%ecx
    23c0:	0f 84 ba 00 00 00    	je     2480 <hc_enqueue_endpoint+0xf0>
    23c6:	83 f8 01             	cmp    $0x1,%eax
    23c9:	74 47                	je     2412 <hc_enqueue_endpoint+0x82>
    23cb:	73 3b                	jae    2408 <hc_enqueue_endpoint+0x78>
    23cd:	8b b3 8c 06 00 00    	mov    0x68c(%ebx),%esi
    23d3:	8b 46 04             	mov    0x4(%esi),%eax
    23d6:	83 e0 ef             	and    $0xffffffef,%eax
    23d9:	89 46 04             	mov    %eax,0x4(%esi)
    23dc:	89 54 24 04          	mov    %edx,0x4(%esp)
    23e0:	89 0c 24             	mov    %ecx,(%esp)
    23e3:	e8 b8 ee ff ff       	call   12a0 <endpoint_list_add_ep>
    23e8:	8b 83 8c 06 00 00    	mov    0x68c(%ebx),%eax
    23ee:	c7 40 24 00 00 00 00 	movl   $0x0,0x24(%eax)
    23f5:	8b 50 04             	mov    0x4(%eax),%edx
    23f8:	83 ca 10             	or     $0x10,%edx
    23fb:	89 50 04             	mov    %edx,0x4(%eax)
    23fe:	83 c4 10             	add    $0x10,%esp
    2401:	5b                   	pop    %ebx
    2402:	5e                   	pop    %esi
    2403:	5d                   	pop    %ebp
    2404:	c3                   	ret    
    2405:	8d 76 00             	lea    0x0(%esi),%esi
    2408:	83 f8 02             	cmp    $0x2,%eax
    240b:	74 3b                	je     2448 <hc_enqueue_endpoint+0xb8>
    240d:	83 f8 03             	cmp    $0x3,%eax
    2410:	75 ec                	jne    23fe <hc_enqueue_endpoint+0x6e>
    2412:	8b b3 8c 06 00 00    	mov    0x68c(%ebx),%esi
    2418:	8b 46 04             	mov    0x4(%esi),%eax
    241b:	83 e0 fb             	and    $0xfffffffb,%eax
    241e:	89 46 04             	mov    %eax,0x4(%esi)
    2421:	89 54 24 04          	mov    %edx,0x4(%esp)
    2425:	89 0c 24             	mov    %ecx,(%esp)
    2428:	e8 73 ee ff ff       	call   12a0 <endpoint_list_add_ep>
    242d:	8b 93 8c 06 00 00    	mov    0x68c(%ebx),%edx
    2433:	8b 42 04             	mov    0x4(%edx),%eax
    2436:	83 c8 0c             	or     $0xc,%eax
    2439:	89 42 04             	mov    %eax,0x4(%edx)
    243c:	83 c4 10             	add    $0x10,%esp
    243f:	5b                   	pop    %ebx
    2440:	5e                   	pop    %esi
    2441:	5d                   	pop    %ebp
    2442:	c3                   	ret    
    2443:	90                   	nop
    2444:	8d 74 26 00          	lea    0x0(%esi,%eiz,1),%esi
    2448:	8b b3 8c 06 00 00    	mov    0x68c(%ebx),%esi
    244e:	8b 46 04             	mov    0x4(%esi),%eax
    2451:	83 e0 df             	and    $0xffffffdf,%eax
    2454:	89 46 04             	mov    %eax,0x4(%esi)
    2457:	89 54 24 04          	mov    %edx,0x4(%esp)
    245b:	89 0c 24             	mov    %ecx,(%esp)
    245e:	e8 3d ee ff ff       	call   12a0 <endpoint_list_add_ep>
    2463:	8b 83 8c 06 00 00    	mov    0x68c(%ebx),%eax
    2469:	c7 40 2c 00 00 00 00 	movl   $0x0,0x2c(%eax)
    2470:	8b 50 04             	mov    0x4(%eax),%edx
    2473:	83 ca 20             	or     $0x20,%edx
    2476:	89 50 04             	mov    %edx,0x4(%eax)
    2479:	83 c4 10             	add    $0x10,%esp
    247c:	5b                   	pop    %ebx
    247d:	5e                   	pop    %esi
    247e:	5d                   	pop    %ebp
    247f:	c3                   	ret    
    2480:	c7 44 24 08 03 01 00 	movl   $0x103,0x8(%esp)
    2487:	00 
    2488:	c7 44 24 04 ef e8 02 	movl   $0x2e8ef,0x4(%esp)
    248f:	00 
    2490:	c7 04 24 a7 c9 02 00 	movl   $0x2c9a7,(%esp)
    2497:	e8 14 5b 02 00       	call   27fb0 <assert_abort>
    249c:	c7 44 24 08 fe 00 00 	movl   $0xfe,0x8(%esp)
    24a3:	00 
    24a4:	c7 44 24 04 ef e8 02 	movl   $0x2e8ef,0x4(%esp)
    24ab:	00 
    24ac:	c7 04 24 9a fa 02 00 	movl   $0x2fa9a,(%esp)
    24b3:	e8 f8 5a 02 00       	call   27fb0 <assert_abort>
    24b8:	c7 44 24 08 fd 00 00 	movl   $0xfd,0x8(%esp)
    24bf:	00 
    24c0:	c7 44 24 04 ef e8 02 	movl   $0x2e8ef,0x4(%esp)
    24c7:	00 
    24c8:	c7 04 24 52 c6 02 00 	movl   $0x2c652,(%esp)
    24cf:	e8 dc 5a 02 00       	call   27fb0 <assert_abort>
    24d4:	8d b6 00 00 00 00    	lea    0x0(%esi),%esi
    24da:	8d bf 00 00 00 00    	lea    0x0(%edi),%edi

000024e0 <hc_dequeue_endpoint>:
    24e0:	55                   	push   %ebp
    24e1:	89 e5                	mov    %esp,%ebp
    24e3:	56                   	push   %esi
    24e4:	53                   	push   %ebx
    24e5:	83 ec 10             	sub    $0x10,%esp
    24e8:	8b 5d 08             	mov    0x8(%ebp),%ebx
    24eb:	8b 55 0c             	mov    0xc(%ebp),%edx
    24ee:	85 db                	test   %ebx,%ebx
    24f0:	0f 84 12 01 00 00    	je     2608 <hc_dequeue_endpoint+0x128>
    24f6:	85 d2                	test   %edx,%edx
    24f8:	0f 84 ee 00 00 00    	je     25ec <hc_dequeue_endpoint+0x10c>
    24fe:	8b 42 10             	mov    0x10(%edx),%eax
    2501:	8b 52 3c             	mov    0x3c(%edx),%edx
    2504:	85 d2                	test   %edx,%edx
    2506:	8d 0c c0             	lea    (%eax,%eax,8),%ecx
    2509:	8d 8c 8b 94 06 00 00 	lea    0x694(%ebx,%ecx,4),%ecx
    2510:	0f 84 ba 00 00 00    	je     25d0 <hc_dequeue_endpoint+0xf0>
    2516:	83 f8 01             	cmp    $0x1,%eax
    2519:	74 47                	je     2562 <hc_dequeue_endpoint+0x82>
    251b:	73 3b                	jae    2558 <hc_dequeue_endpoint+0x78>
    251d:	8b b3 8c 06 00 00    	mov    0x68c(%ebx),%esi
    2523:	8b 46 04             	mov    0x4(%esi),%eax
    2526:	83 e0 ef             	and    $0xffffffef,%eax
    2529:	89 46 04             	mov    %eax,0x4(%esi)
    252c:	89 54 24 04          	mov    %edx,0x4(%esp)
    2530:	89 0c 24             	mov    %ecx,(%esp)
    2533:	e8 78 ef ff ff       	call   14b0 <endpoint_list_remove_ep>
    2538:	8b 83 8c 06 00 00    	mov    0x68c(%ebx),%eax
    253e:	c7 40 24 00 00 00 00 	movl   $0x0,0x24(%eax)
    2545:	8b 50 04             	mov    0x4(%eax),%edx
    2548:	83 ca 10             	or     $0x10,%edx
    254b:	89 50 04             	mov    %edx,0x4(%eax)
    254e:	83 c4 10             	add    $0x10,%esp
    2551:	5b                   	pop    %ebx
    2552:	5e                   	pop    %esi
    2553:	5d                   	pop    %ebp
    2554:	c3                   	ret    
    2555:	8d 76 00             	lea    0x0(%esi),%esi
    2558:	83 f8 02             	cmp    $0x2,%eax
    255b:	74 3b                	je     2598 <hc_dequeue_endpoint+0xb8>
    255d:	83 f8 03             	cmp    $0x3,%eax
    2560:	75 ec                	jne    254e <hc_dequeue_endpoint+0x6e>
    2562:	8b b3 8c 06 00 00    	mov    0x68c(%ebx),%esi
    2568:	8b 46 04             	mov    0x4(%esi),%eax
    256b:	83 e0 fb             	and    $0xfffffffb,%eax
    256e:	89 46 04             	mov    %eax,0x4(%esi)
    2571:	89 54 24 04          	mov    %edx,0x4(%esp)
    2575:	89 0c 24             	mov    %ecx,(%esp)
    2578:	e8 33 ef ff ff       	call   14b0 <endpoint_list_remove_ep>
    257d:	8b 93 8c 06 00 00    	mov    0x68c(%ebx),%edx
    2583:	8b 42 04             	mov    0x4(%edx),%eax
    2586:	83 c8 0c             	or     $0xc,%eax
    2589:	89 42 04             	mov    %eax,0x4(%edx)
    258c:	83 c4 10             	add    $0x10,%esp
    258f:	5b                   	pop    %ebx
    2590:	5e                   	pop    %esi
    2591:	5d                   	pop    %ebp
    2592:	c3                   	ret    
    2593:	90                   	nop
    2594:	8d 74 26 00          	lea    0x0(%esi,%eiz,1),%esi
    2598:	8b b3 8c 06 00 00    	mov    0x68c(%ebx),%esi
    259e:	8b 46 04             	mov    0x4(%esi),%eax
    25a1:	83 e0 df             	and    $0xffffffdf,%eax
    25a4:	89 46 04             	mov    %eax,0x4(%esi)
    25a7:	89 54 24 04          	mov    %edx,0x4(%esp)
    25ab:	89 0c 24             	mov    %ecx,(%esp)
    25ae:	e8 fd ee ff ff       	call   14b0 <endpoint_list_remove_ep>
    25b3:	8b 83 8c 06 00 00    	mov    0x68c(%ebx),%eax
    25b9:	c7 40 2c 00 00 00 00 	movl   $0x0,0x2c(%eax)
    25c0:	8b 50 04             	mov    0x4(%eax),%edx
    25c3:	83 ca 20             	or     $0x20,%edx
    25c6:	89 50 04             	mov    %edx,0x4(%eax)
    25c9:	83 c4 10             	add    $0x10,%esp
    25cc:	5b                   	pop    %ebx
    25cd:	5e                   	pop    %esi
    25ce:	5d                   	pop    %ebp
    25cf:	c3                   	ret    
    25d0:	c7 44 24 08 26 01 00 	movl   $0x126,0x8(%esp)
    25d7:	00 
    25d8:	c7 44 24 04 ef e8 02 	movl   $0x2e8ef,0x4(%esp)
    25df:	00 
    25e0:	c7 04 24 a7 c9 02 00 	movl   $0x2c9a7,(%esp)
    25e7:	e8 c4 59 02 00       	call   27fb0 <assert_abort>
    25ec:	c7 44 24 08 1f 01 00 	movl   $0x11f,0x8(%esp)
    25f3:	00 
    25f4:	c7 44 24 04 ef e8 02 	movl   $0x2e8ef,0x4(%esp)
    25fb:	00 
    25fc:	c7 04 24 9a fa 02 00 	movl   $0x2fa9a,(%esp)
    2603:	e8 a8 59 02 00       	call   27fb0 <assert_abort>
    2608:	c7 44 24 08 1e 01 00 	movl   $0x11e,0x8(%esp)
    260f:	00 
    2610:	c7 44 24 04 ef e8 02 	movl   $0x2e8ef,0x4(%esp)
    2617:	00 
    2618:	c7 04 24 52 c6 02 00 	movl   $0x2c652,(%esp)
    261f:	e8 8c 59 02 00       	call   27fb0 <assert_abort>
    2624:	8d b6 00 00 00 00    	lea    0x0(%esi),%esi
    262a:	8d bf 00 00 00 00    	lea    0x0(%edi),%edi

00002630 <hc_interrupt>:
    2630:	55                   	push   %ebp
    2631:	89 e5                	mov    %esp,%ebp
    2633:	57                   	push   %edi
    2634:	56                   	push   %esi
    2635:	53                   	push   %ebx
    2636:	83 ec 4c             	sub    $0x4c,%esp
    2639:	8b 75 08             	mov    0x8(%ebp),%esi
    263c:	85 f6                	test   %esi,%esi
    263e:	0f 84 97 01 00 00    	je     27db <hc_interrupt+0x1ab>
    2644:	f7 45 0c fb ff ff ff 	testl  $0xfffffffb,0xc(%ebp)
    264b:	75 0b                	jne    2658 <hc_interrupt+0x28>
    264d:	83 c4 4c             	add    $0x4c,%esp
    2650:	5b                   	pop    %ebx
    2651:	5e                   	pop    %esi
    2652:	5f                   	pop    %edi
    2653:	5d                   	pop    %ebp
    2654:	c3                   	ret    
    2655:	8d 76 00             	lea    0x0(%esi),%esi
    2658:	8b 45 0c             	mov    0xc(%ebp),%eax
    265b:	89 74 24 0c          	mov    %esi,0xc(%esp)
    265f:	89 44 24 10          	mov    %eax,0x10(%esp)
    2663:	c7 44 24 08 af c9 02 	movl   $0x2c9af,0x8(%esp)
    266a:	00 
    266b:	c7 44 24 04 05 00 00 	movl   $0x5,0x4(%esp)
    2672:	00 
    2673:	c7 04 24 ff ff ff ff 	movl   $0xffffffff,(%esp)
    267a:	e8 31 60 01 00       	call   186b0 <log_msg>
    267f:	f6 45 0c 40          	testb  $0x40,0xc(%ebp)
    2683:	0f 85 3f 01 00 00    	jne    27c8 <hc_interrupt+0x198>
    2689:	f6 45 0c 02          	testb  $0x2,0xc(%ebp)
    268d:	75 31                	jne    26c0 <hc_interrupt+0x90>
    268f:	f6 45 0c 10          	testb  $0x10,0xc(%ebp)
    2693:	74 b8                	je     264d <hc_interrupt+0x1d>
    2695:	c7 44 24 08 f4 c9 02 	movl   $0x2c9f4,0x8(%esp)
    269c:	00 
    269d:	c7 44 24 04 00 00 00 	movl   $0x0,0x4(%esp)
    26a4:	00 
    26a5:	c7 04 24 ff ff ff ff 	movl   $0xffffffff,(%esp)
    26ac:	e8 ff 5f 01 00       	call   186b0 <log_msg>
    26b1:	89 f0                	mov    %esi,%eax
    26b3:	e8 38 f1 ff ff       	call   17f0 <hc_start>
    26b8:	83 c4 4c             	add    $0x4c,%esp
    26bb:	5b                   	pop    %ebx
    26bc:	5e                   	pop    %esi
    26bd:	5f                   	pop    %edi
    26be:	5d                   	pop    %ebp
    26bf:	c3                   	ret    
    26c0:	8d 86 30 07 00 00    	lea    0x730(%esi),%eax
    26c6:	89 04 24             	mov    %eax,(%esp)
    26c9:	89 45 d4             	mov    %eax,-0x2c(%ebp)
    26cc:	e8 9f 1d 01 00       	call   14470 <fibril_mutex_lock>
    26d1:	8d 45 e4             	lea    -0x1c(%ebp),%eax
    26d4:	89 44 24 04          	mov    %eax,0x4(%esp)
    26d8:	8b 86 90 06 00 00    	mov    0x690(%esi),%eax
    26de:	89 04 24             	mov    %eax,(%esp)
    26e1:	e8 4a b8 00 00       	call   df30 <as_get_physical_mapping>
    26e6:	31 d2                	xor    %edx,%edx
    26e8:	85 c0                	test   %eax,%eax
    26ea:	75 03                	jne    26ef <hc_interrupt+0xbf>
    26ec:	8b 55 e4             	mov    -0x1c(%ebp),%edx
    26ef:	8b 86 8c 06 00 00    	mov    0x68c(%esi),%eax
    26f5:	8b 40 18             	mov    0x18(%eax),%eax
    26f8:	89 54 24 14          	mov    %edx,0x14(%esp)
    26fc:	89 44 24 10          	mov    %eax,0x10(%esp)
    2700:	8b 86 90 06 00 00    	mov    0x690(%esi),%eax
    2706:	c7 44 24 08 c8 c9 02 	movl   $0x2c9c8,0x8(%esp)
    270d:	00 
    270e:	89 44 24 0c          	mov    %eax,0xc(%esp)
    2712:	c7 44 24 04 05 00 00 	movl   $0x5,0x4(%esp)
    2719:	00 
    271a:	c7 04 24 ff ff ff ff 	movl   $0xffffffff,(%esp)
    2721:	e8 8a 5f 01 00       	call   186b0 <log_msg>
    2726:	8b 86 8c 06 00 00    	mov    0x68c(%esi),%eax
    272c:	8b 40 1c             	mov    0x1c(%eax),%eax
    272f:	c7 44 24 08 dc c9 02 	movl   $0x2c9dc,0x8(%esp)
    2736:	00 
    2737:	89 44 24 0c          	mov    %eax,0xc(%esp)
    273b:	c7 44 24 04 05 00 00 	movl   $0x5,0x4(%esp)
    2742:	00 
    2743:	c7 04 24 ff ff ff ff 	movl   $0xffffffff,(%esp)
    274a:	e8 61 5f 01 00       	call   186b0 <log_msg>
    274f:	8b be 28 07 00 00    	mov    0x728(%esi),%edi
    2755:	8d 96 24 07 00 00    	lea    0x724(%esi),%edx
    275b:	39 d7                	cmp    %edx,%edi
    275d:	74 56                	je     27b5 <hc_interrupt+0x185>
    275f:	85 ff                	test   %edi,%edi
    2761:	74 52                	je     27b5 <hc_interrupt+0x185>
    2763:	39 fa                	cmp    %edi,%edx
    2765:	74 4e                	je     27b5 <hc_interrupt+0x185>
    2767:	89 75 d0             	mov    %esi,-0x30(%ebp)
    276a:	89 fe                	mov    %edi,%esi
    276c:	89 d7                	mov    %edx,%edi
    276e:	eb 06                	jmp    2776 <hc_interrupt+0x146>
    2770:	89 de                	mov    %ebx,%esi
    2772:	39 df                	cmp    %ebx,%edi
    2774:	74 3c                	je     27b2 <hc_interrupt+0x182>
    2776:	8b 5e 04             	mov    0x4(%esi),%ebx
    2779:	89 34 24             	mov    %esi,(%esp)
    277c:	e8 9f 15 00 00       	call   3d20 <ohci_transfer_batch_is_complete>
    2781:	84 c0                	test   %al,%al
    2783:	74 29                	je     27ae <hc_interrupt+0x17e>
    2785:	8b 0e                	mov    (%esi),%ecx
    2787:	85 c9                	test   %ecx,%ecx
    2789:	74 0e                	je     2799 <hc_interrupt+0x169>
    278b:	8b 46 04             	mov    0x4(%esi),%eax
    278e:	85 c0                	test   %eax,%eax
    2790:	74 07                	je     2799 <hc_interrupt+0x169>
    2792:	89 08                	mov    %ecx,(%eax)
    2794:	8b 0e                	mov    (%esi),%ecx
    2796:	89 41 04             	mov    %eax,0x4(%ecx)
    2799:	c7 06 00 00 00 00    	movl   $0x0,(%esi)
    279f:	c7 46 04 00 00 00 00 	movl   $0x0,0x4(%esi)
    27a6:	89 34 24             	mov    %esi,(%esp)
    27a9:	e8 d2 0f 00 00       	call   3780 <ohci_transfer_batch_finish_dispose>
    27ae:	85 db                	test   %ebx,%ebx
    27b0:	75 be                	jne    2770 <hc_interrupt+0x140>
    27b2:	8b 75 d0             	mov    -0x30(%ebp),%esi
    27b5:	8b 45 d4             	mov    -0x2c(%ebp),%eax
    27b8:	89 04 24             	mov    %eax,(%esp)
    27bb:	e8 d0 1d 01 00       	call   14590 <fibril_mutex_unlock>
    27c0:	e9 ca fe ff ff       	jmp    268f <hc_interrupt+0x5f>
    27c5:	8d 76 00             	lea    0x0(%esi),%esi
    27c8:	8d 86 40 07 00 00    	lea    0x740(%esi),%eax
    27ce:	89 04 24             	mov    %eax,(%esp)
    27d1:	e8 1a 2c 00 00       	call   53f0 <rh_interrupt>
    27d6:	e9 ae fe ff ff       	jmp    2689 <hc_interrupt+0x59>
    27db:	c7 44 24 08 71 01 00 	movl   $0x171,0x8(%esp)
    27e2:	00 
    27e3:	c7 44 24 04 ef e8 02 	movl   $0x2e8ef,0x4(%esp)
    27ea:	00 
    27eb:	c7 04 24 52 c6 02 00 	movl   $0x2c652,(%esp)
    27f2:	e8 b9 57 02 00       	call   27fb0 <assert_abort>
    27f7:	89 f6                	mov    %esi,%esi
    27f9:	8d bc 27 00 00 00 00 	lea    0x0(%edi,%eiz,1),%edi

00002800 <interrupt_emulator>:
    2800:	55                   	push   %ebp
    2801:	89 e5                	mov    %esp,%ebp
    2803:	53                   	push   %ebx
    2804:	83 ec 14             	sub    $0x14,%esp
    2807:	8b 5d 08             	mov    0x8(%ebp),%ebx
    280a:	85 db                	test   %ebx,%ebx
    280c:	74 48                	je     2856 <interrupt_emulator+0x56>
    280e:	c7 44 24 08 0a ca 02 	movl   $0x2ca0a,0x8(%esp)
    2815:	00 
    2816:	c7 44 24 04 03 00 00 	movl   $0x3,0x4(%esp)
    281d:	00 
    281e:	c7 04 24 ff ff ff ff 	movl   $0xffffffff,(%esp)
    2825:	e8 86 5e 01 00       	call   186b0 <log_msg>
    282a:	8d b6 00 00 00 00    	lea    0x0(%esi),%esi
    2830:	8b 93 8c 06 00 00    	mov    0x68c(%ebx),%edx
    2836:	8b 42 0c             	mov    0xc(%edx),%eax
    2839:	89 42 0c             	mov    %eax,0xc(%edx)
    283c:	89 44 24 04          	mov    %eax,0x4(%esp)
    2840:	89 1c 24             	mov    %ebx,(%esp)
    2843:	e8 e8 fd ff ff       	call   2630 <hc_interrupt>
    2848:	c7 04 24 10 27 00 00 	movl   $0x2710,(%esp)
    284f:	e8 bc d2 01 00       	call   1fb10 <async_usleep>
    2854:	eb da                	jmp    2830 <interrupt_emulator+0x30>
    2856:	c7 44 24 08 9e 01 00 	movl   $0x19e,0x8(%esp)
    285d:	00 
    285e:	c7 44 24 04 ef e8 02 	movl   $0x2e8ef,0x4(%esp)
    2865:	00 
    2866:	c7 04 24 52 c6 02 00 	movl   $0x2c652,(%esp)
    286d:	e8 3e 57 02 00       	call   27fb0 <assert_abort>

00002872 <endpoint_list_fini.part.1>:
    2872:	55                   	push   %ebp
    2873:	89 e5                	mov    %esp,%ebp
    2875:	83 ec 18             	sub    $0x18,%esp
    2878:	c7 44 24 08 41 00 00 	movl   $0x41,0x8(%esp)
    287f:	00 
    2880:	c7 44 24 04 37 c8 02 	movl   $0x2c837,0x4(%esp)
    2887:	00 
    2888:	c7 04 24 52 c6 02 00 	movl   $0x2c652,(%esp)
    288f:	e8 1c 57 02 00       	call   27fb0 <assert_abort>
    2894:	66 90                	xchg   %ax,%ax
    2896:	66 90                	xchg   %ax,%ax
    2898:	66 90                	xchg   %ax,%ax
    289a:	66 90                	xchg   %ax,%ax
    289c:	66 90                	xchg   %ax,%ax
    289e:	66 90                	xchg   %ax,%ax

000028a0 <ohci_dev_add>:
    28a0:	55                   	push   %ebp
    28a1:	89 e5                	mov    %esp,%ebp
    28a3:	56                   	push   %esi
    28a4:	53                   	push   %ebx
    28a5:	83 ec 10             	sub    $0x10,%esp
    28a8:	8b 5d 08             	mov    0x8(%ebp),%ebx
    28ab:	c7 44 24 08 e4 cd 02 	movl   $0x2cde4,0x8(%esp)
    28b2:	00 
    28b3:	c7 44 24 04 04 00 00 	movl   $0x4,0x4(%esp)
    28ba:	00 
    28bb:	c7 04 24 ff ff ff ff 	movl   $0xffffffff,(%esp)
    28c2:	e8 e9 5d 01 00       	call   186b0 <log_msg>
    28c7:	85 db                	test   %ebx,%ebx
    28c9:	74 76                	je     2941 <ohci_dev_add+0xa1>
    28cb:	89 1c 24             	mov    %ebx,(%esp)
    28ce:	e8 1d 02 00 00       	call   2af0 <device_setup_ohci>
    28d3:	89 c6                	mov    %eax,%esi
    28d5:	85 c0                	test   %eax,%eax
    28d7:	75 37                	jne    2910 <ohci_dev_add+0x70>
    28d9:	89 1c 24             	mov    %ebx,(%esp)
    28dc:	e8 ef 5b 00 00       	call   84d0 <ddf_dev_get_name>
    28e1:	c7 44 24 08 38 ce 02 	movl   $0x2ce38,0x8(%esp)
    28e8:	00 
    28e9:	89 44 24 0c          	mov    %eax,0xc(%esp)
    28ed:	c7 44 24 04 03 00 00 	movl   $0x3,0x4(%esp)
    28f4:	00 
    28f5:	c7 04 24 ff ff ff ff 	movl   $0xffffffff,(%esp)
    28fc:	e8 af 5d 01 00       	call   186b0 <log_msg>
    2901:	83 c4 10             	add    $0x10,%esp
    2904:	89 f0                	mov    %esi,%eax
    2906:	5b                   	pop    %ebx
    2907:	5e                   	pop    %esi
    2908:	5d                   	pop    %ebp
    2909:	c3                   	ret    
    290a:	8d b6 00 00 00 00    	lea    0x0(%esi),%esi
    2910:	89 04 24             	mov    %eax,(%esp)
    2913:	e8 68 11 01 00       	call   13a80 <str_error>
    2918:	c7 44 24 08 10 ce 02 	movl   $0x2ce10,0x8(%esp)
    291f:	00 
    2920:	89 44 24 0c          	mov    %eax,0xc(%esp)
    2924:	c7 44 24 04 01 00 00 	movl   $0x1,0x4(%esp)
    292b:	00 
    292c:	c7 04 24 ff ff ff ff 	movl   $0xffffffff,(%esp)
    2933:	e8 78 5d 01 00       	call   186b0 <log_msg>
    2938:	83 c4 10             	add    $0x10,%esp
    293b:	89 f0                	mov    %esi,%eax
    293d:	5b                   	pop    %ebx
    293e:	5e                   	pop    %esi
    293f:	5d                   	pop    %ebp
    2940:	c3                   	ret    
    2941:	c7 44 24 08 35 00 00 	movl   $0x35,0x8(%esp)
    2948:	00 
    2949:	c7 44 24 04 fb cd 02 	movl   $0x2cdfb,0x4(%esp)
    2950:	00 
    2951:	c7 04 24 02 ce 02 00 	movl   $0x2ce02,(%esp)
    2958:	e8 53 56 02 00       	call   27fb0 <assert_abort>
    295d:	66 90                	xchg   %ax,%ax
    295f:	90                   	nop

00002960 <main>:
    2960:	55                   	push   %ebp
    2961:	89 e5                	mov    %esp,%ebp
    2963:	83 e4 f0             	and    $0xfffffff0,%esp
    2966:	83 ec 10             	sub    $0x10,%esp
    2969:	c7 04 24 09 ce 02 00 	movl   $0x2ce09,(%esp)
    2970:	e8 6b 5b 01 00       	call   184e0 <log_init>
    2975:	c7 04 24 e0 14 03 00 	movl   $0x314e0,(%esp)
    297c:	e8 9f 62 00 00       	call   8c20 <ddf_driver_main>
    2981:	c9                   	leave  
    2982:	c3                   	ret    
    2983:	66 90                	xchg   %ax,%ax
    2985:	66 90                	xchg   %ax,%ax
    2987:	66 90                	xchg   %ax,%ax
    2989:	66 90                	xchg   %ax,%ax
    298b:	66 90                	xchg   %ax,%ax
    298d:	66 90                	xchg   %ax,%ax
    298f:	90                   	nop

00002990 <rh_get_hc_handle>:
    2990:	55                   	push   %ebp
    2991:	89 e5                	mov    %esp,%ebp
    2993:	53                   	push   %ebx
    2994:	83 ec 14             	sub    $0x14,%esp
    2997:	8b 45 08             	mov    0x8(%ebp),%eax
    299a:	8b 5d 0c             	mov    0xc(%ebp),%ebx
    299d:	85 c0                	test   %eax,%eax
    299f:	74 2c                	je     29cd <rh_get_hc_handle+0x3d>
    29a1:	89 04 24             	mov    %eax,(%esp)
    29a4:	e8 e7 5b 00 00       	call   8590 <ddf_fun_get_dev>
    29a9:	89 04 24             	mov    %eax,(%esp)
    29ac:	e8 ff 5a 00 00       	call   84b0 <ddf_dev_data_get>
    29b1:	8b 00                	mov    (%eax),%eax
    29b3:	85 c0                	test   %eax,%eax
    29b5:	74 32                	je     29e9 <rh_get_hc_handle+0x59>
    29b7:	85 db                	test   %ebx,%ebx
    29b9:	74 0a                	je     29c5 <rh_get_hc_handle+0x35>
    29bb:	89 04 24             	mov    %eax,(%esp)
    29be:	e8 dd 5b 00 00       	call   85a0 <ddf_fun_get_handle>
    29c3:	89 03                	mov    %eax,(%ebx)
    29c5:	83 c4 14             	add    $0x14,%esp
    29c8:	31 c0                	xor    %eax,%eax
    29ca:	5b                   	pop    %ebx
    29cb:	5d                   	pop    %ebp
    29cc:	c3                   	ret    
    29cd:	c7 44 24 08 6b 00 00 	movl   $0x6b,0x8(%esp)
    29d4:	00 
    29d5:	c7 44 24 04 5b ce 02 	movl   $0x2ce5b,0x4(%esp)
    29dc:	00 
    29dd:	c7 04 24 bf c8 02 00 	movl   $0x2c8bf,(%esp)
    29e4:	e8 c7 55 02 00       	call   27fb0 <assert_abort>
    29e9:	c7 44 24 08 6d 00 00 	movl   $0x6d,0x8(%esp)
    29f0:	00 
    29f1:	c7 44 24 04 5b ce 02 	movl   $0x2ce5b,0x4(%esp)
    29f8:	00 
    29f9:	c7 04 24 62 ce 02 00 	movl   $0x2ce62,(%esp)
    2a00:	e8 ab 55 02 00       	call   27fb0 <assert_abort>
    2a05:	8d 74 26 00          	lea    0x0(%esi,%eiz,1),%esi
    2a09:	8d bc 27 00 00 00 00 	lea    0x0(%edi,%eiz,1),%edi

00002a10 <rh_get_my_address>:
    2a10:	55                   	push   %ebp
    2a11:	89 e5                	mov    %esp,%ebp
    2a13:	53                   	push   %ebx
    2a14:	83 ec 14             	sub    $0x14,%esp
    2a17:	8b 45 08             	mov    0x8(%ebp),%eax
    2a1a:	8b 5d 0c             	mov    0xc(%ebp),%ebx
    2a1d:	85 c0                	test   %eax,%eax
    2a1f:	74 25                	je     2a46 <rh_get_my_address+0x36>
    2a21:	85 db                	test   %ebx,%ebx
    2a23:	74 19                	je     2a3e <rh_get_my_address+0x2e>
    2a25:	89 04 24             	mov    %eax,(%esp)
    2a28:	e8 63 5b 00 00       	call   8590 <ddf_fun_get_dev>
    2a2d:	89 04 24             	mov    %eax,(%esp)
    2a30:	e8 7b 5a 00 00       	call   84b0 <ddf_dev_data_get>
    2a35:	8b 80 5c 07 00 00    	mov    0x75c(%eax),%eax
    2a3b:	66 89 03             	mov    %ax,(%ebx)
    2a3e:	83 c4 14             	add    $0x14,%esp
    2a41:	31 c0                	xor    %eax,%eax
    2a43:	5b                   	pop    %ebx
    2a44:	5d                   	pop    %ebp
    2a45:	c3                   	ret    
    2a46:	c7 44 24 08 59 00 00 	movl   $0x59,0x8(%esp)
    2a4d:	00 
    2a4e:	c7 44 24 04 5b ce 02 	movl   $0x2ce5b,0x4(%esp)
    2a55:	00 
    2a56:	c7 04 24 bf c8 02 00 	movl   $0x2c8bf,(%esp)
    2a5d:	e8 4e 55 02 00       	call   27fb0 <assert_abort>
    2a62:	8d b4 26 00 00 00 00 	lea    0x0(%esi,%eiz,1),%esi
    2a69:	8d bc 27 00 00 00 00 	lea    0x0(%edi,%eiz,1),%edi

00002a70 <irq_handler>:
    2a70:	55                   	push   %ebp
    2a71:	89 e5                	mov    %esp,%ebp
    2a73:	53                   	push   %ebx
    2a74:	83 ec 14             	sub    $0x14,%esp
    2a77:	8b 45 08             	mov    0x8(%ebp),%eax
    2a7a:	8b 5d 10             	mov    0x10(%ebp),%ebx
    2a7d:	85 c0                	test   %eax,%eax
    2a7f:	74 4e                	je     2acf <irq_handler+0x5f>
    2a81:	89 04 24             	mov    %eax,(%esp)
    2a84:	e8 27 5a 00 00       	call   84b0 <ddf_dev_data_get>
    2a89:	85 c0                	test   %eax,%eax
    2a8b:	74 23                	je     2ab0 <irq_handler+0x40>
    2a8d:	8b 53 04             	mov    0x4(%ebx),%edx
    2a90:	83 c0 08             	add    $0x8,%eax
    2a93:	81 e2 ff ff 00 00    	and    $0xffff,%edx
    2a99:	89 45 08             	mov    %eax,0x8(%ebp)
    2a9c:	89 55 0c             	mov    %edx,0xc(%ebp)
    2a9f:	83 c4 14             	add    $0x14,%esp
    2aa2:	5b                   	pop    %ebx
    2aa3:	5d                   	pop    %ebp
    2aa4:	e9 87 fb ff ff       	jmp    2630 <hc_interrupt>
    2aa9:	8d b4 26 00 00 00 00 	lea    0x0(%esi,%eiz,1),%esi
    2ab0:	c7 45 10 bc ce 02 00 	movl   $0x2cebc,0x10(%ebp)
    2ab7:	c7 45 0c 02 00 00 00 	movl   $0x2,0xc(%ebp)
    2abe:	c7 45 08 ff ff ff ff 	movl   $0xffffffff,0x8(%ebp)
    2ac5:	83 c4 14             	add    $0x14,%esp
    2ac8:	5b                   	pop    %ebx
    2ac9:	5d                   	pop    %ebp
    2aca:	e9 e1 5b 01 00       	jmp    186b0 <log_msg>
    2acf:	c7 44 24 08 46 00 00 	movl   $0x46,0x8(%esp)
    2ad6:	00 
    2ad7:	c7 44 24 04 5b ce 02 	movl   $0x2ce5b,0x4(%esp)
    2ade:	00 
    2adf:	c7 04 24 69 ce 02 00 	movl   $0x2ce69,(%esp)
    2ae6:	e8 c5 54 02 00       	call   27fb0 <assert_abort>
    2aeb:	90                   	nop
    2aec:	8d 74 26 00          	lea    0x0(%esi,%eiz,1),%esi

00002af0 <device_setup_ohci>:
    2af0:	55                   	push   %ebp
    2af1:	89 e5                	mov    %esp,%ebp
    2af3:	57                   	push   %edi
    2af4:	56                   	push   %esi
    2af5:	53                   	push   %ebx
    2af6:	83 ec 6c             	sub    $0x6c,%esp
    2af9:	8b 75 08             	mov    0x8(%ebp),%esi
    2afc:	85 f6                	test   %esi,%esi
    2afe:	0f 84 ec 02 00 00    	je     2df0 <device_setup_ohci+0x300>
    2b04:	c7 44 24 04 94 07 00 	movl   $0x794,0x4(%esp)
    2b0b:	00 
    2b0c:	89 34 24             	mov    %esi,(%esp)
    2b0f:	e8 0c 59 00 00       	call   8420 <ddf_dev_data_alloc>
    2b14:	89 c3                	mov    %eax,%ebx
    2b16:	85 c0                	test   %eax,%eax
    2b18:	0f 84 dc 02 00 00    	je     2dfa <device_setup_ohci+0x30a>
    2b1e:	c7 44 24 08 6d ce 02 	movl   $0x2ce6d,0x8(%esp)
    2b25:	00 
    2b26:	c7 44 24 04 02 00 00 	movl   $0x2,0x4(%esp)
    2b2d:	00 
    2b2e:	89 34 24             	mov    %esi,(%esp)
    2b31:	e8 7a 5a 00 00       	call   85b0 <ddf_fun_create>
    2b36:	89 03                	mov    %eax,(%ebx)
    2b38:	85 c0                	test   %eax,%eax
    2b3a:	0f 84 f8 00 00 00    	je     2c38 <device_setup_ohci+0x148>
    2b40:	89 04 24             	mov    %eax,(%esp)
    2b43:	c7 44 24 04 00 15 03 	movl   $0x31500,0x4(%esp)
    2b4a:	00 
    2b4b:	8d 7b 08             	lea    0x8(%ebx),%edi
    2b4e:	e8 ed 5f 00 00       	call   8b40 <ddf_fun_set_ops>
    2b53:	89 7c 24 04          	mov    %edi,0x4(%esp)
    2b57:	8b 03                	mov    (%ebx),%eax
    2b59:	89 04 24             	mov    %eax,(%esp)
    2b5c:	e8 0f 59 00 00       	call   8470 <ddf_fun_data_implant>
    2b61:	c7 44 24 08 b1 ce 02 	movl   $0x2ceb1,0x8(%esp)
    2b68:	00 
    2b69:	c7 44 24 04 01 00 00 	movl   $0x1,0x4(%esp)
    2b70:	00 
    2b71:	89 34 24             	mov    %esi,(%esp)
    2b74:	e8 37 5a 00 00       	call   85b0 <ddf_fun_create>
    2b79:	89 43 04             	mov    %eax,0x4(%ebx)
    2b7c:	85 c0                	test   %eax,%eax
    2b7e:	0f 84 14 02 00 00    	je     2d98 <device_setup_ohci+0x2a8>
    2b84:	89 04 24             	mov    %eax,(%esp)
    2b87:	c7 44 24 04 40 15 03 	movl   $0x31540,0x4(%esp)
    2b8e:	00 
    2b8f:	e8 ac 5f 00 00       	call   8b40 <ddf_fun_set_ops>
    2b94:	8d 45 d4             	lea    -0x2c(%ebp),%eax
    2b97:	89 44 24 0c          	mov    %eax,0xc(%esp)
    2b9b:	8d 45 d0             	lea    -0x30(%ebp),%eax
    2b9e:	89 44 24 08          	mov    %eax,0x8(%esp)
    2ba2:	8d 45 cc             	lea    -0x34(%ebp),%eax
    2ba5:	89 44 24 04          	mov    %eax,0x4(%esp)
    2ba9:	89 34 24             	mov    %esi,(%esp)
    2bac:	c7 45 cc 00 00 00 00 	movl   $0x0,-0x34(%ebp)
    2bb3:	c7 45 d0 00 00 00 00 	movl   $0x0,-0x30(%ebp)
    2bba:	c7 45 d4 00 00 00 00 	movl   $0x0,-0x2c(%ebp)
    2bc1:	e8 1a 19 00 00       	call   44e0 <get_my_registers>
    2bc6:	89 c2                	mov    %eax,%edx
    2bc8:	85 c0                	test   %eax,%eax
    2bca:	0f 84 b8 00 00 00    	je     2c88 <device_setup_ohci+0x198>
    2bd0:	8b 03                	mov    (%ebx),%eax
    2bd2:	85 c0                	test   %eax,%eax
    2bd4:	74 0e                	je     2be4 <device_setup_ohci+0xf4>
    2bd6:	89 04 24             	mov    %eax,(%esp)
    2bd9:	89 55 b8             	mov    %edx,-0x48(%ebp)
    2bdc:	e8 4f 5b 00 00       	call   8730 <ddf_fun_destroy>
    2be1:	8b 55 b8             	mov    -0x48(%ebp),%edx
    2be4:	8b 43 04             	mov    0x4(%ebx),%eax
    2be7:	85 c0                	test   %eax,%eax
    2be9:	74 0e                	je     2bf9 <device_setup_ohci+0x109>
    2beb:	89 04 24             	mov    %eax,(%esp)
    2bee:	89 55 b8             	mov    %edx,-0x48(%ebp)
    2bf1:	e8 3a 5b 00 00       	call   8730 <ddf_fun_destroy>
    2bf6:	8b 55 b8             	mov    -0x48(%ebp),%edx
    2bf9:	89 14 24             	mov    %edx,(%esp)
    2bfc:	89 55 b8             	mov    %edx,-0x48(%ebp)
    2bff:	e8 7c 0e 01 00       	call   13a80 <str_error>
    2c04:	89 34 24             	mov    %esi,(%esp)
    2c07:	89 c3                	mov    %eax,%ebx
    2c09:	e8 b2 58 00 00       	call   84c0 <ddf_dev_get_handle>
    2c0e:	89 5c 24 10          	mov    %ebx,0x10(%esp)
    2c12:	89 44 24 0c          	mov    %eax,0xc(%esp)
    2c16:	c7 44 24 08 58 cf 02 	movl   $0x2cf58,0x8(%esp)
    2c1d:	00 
    2c1e:	c7 44 24 04 01 00 00 	movl   $0x1,0x4(%esp)
    2c25:	00 
    2c26:	c7 04 24 ff ff ff ff 	movl   $0xffffffff,(%esp)
    2c2d:	e8 7e 5a 01 00       	call   186b0 <log_msg>
    2c32:	8b 55 b8             	mov    -0x48(%ebp),%edx
    2c35:	eb 41                	jmp    2c78 <device_setup_ohci+0x188>
    2c37:	90                   	nop
    2c38:	8b 43 04             	mov    0x4(%ebx),%eax
    2c3b:	85 c0                	test   %eax,%eax
    2c3d:	74 08                	je     2c47 <device_setup_ohci+0x157>
    2c3f:	89 04 24             	mov    %eax,(%esp)
    2c42:	e8 e9 5a 00 00       	call   8730 <ddf_fun_destroy>
    2c47:	c7 04 24 fe ff ff ff 	movl   $0xfffffffe,(%esp)
    2c4e:	e8 2d 0e 01 00       	call   13a80 <str_error>
    2c53:	c7 44 24 08 08 cf 02 	movl   $0x2cf08,0x8(%esp)
    2c5a:	00 
    2c5b:	89 44 24 0c          	mov    %eax,0xc(%esp)
    2c5f:	c7 44 24 04 01 00 00 	movl   $0x1,0x4(%esp)
    2c66:	00 
    2c67:	c7 04 24 ff ff ff ff 	movl   $0xffffffff,(%esp)
    2c6e:	e8 3d 5a 01 00       	call   186b0 <log_msg>
    2c73:	ba fe ff ff ff       	mov    $0xfffffffe,%edx
    2c78:	8d 65 f4             	lea    -0xc(%ebp),%esp
    2c7b:	89 d0                	mov    %edx,%eax
    2c7d:	5b                   	pop    %ebx
    2c7e:	5e                   	pop    %esi
    2c7f:	5f                   	pop    %edi
    2c80:	5d                   	pop    %ebp
    2c81:	c3                   	ret    
    2c82:	8d b6 00 00 00 00    	lea    0x0(%esi),%esi
    2c88:	8b 45 d4             	mov    -0x2c(%ebp),%eax
    2c8b:	c7 44 24 08 90 cf 02 	movl   $0x2cf90,0x8(%esp)
    2c92:	00 
    2c93:	89 44 24 14          	mov    %eax,0x14(%esp)
    2c97:	8b 45 d0             	mov    -0x30(%ebp),%eax
    2c9a:	89 44 24 10          	mov    %eax,0x10(%esp)
    2c9e:	8b 45 cc             	mov    -0x34(%ebp),%eax
    2ca1:	89 44 24 0c          	mov    %eax,0xc(%esp)
    2ca5:	c7 44 24 04 04 00 00 	movl   $0x4,0x4(%esp)
    2cac:	00 
    2cad:	c7 04 24 ff ff ff ff 	movl   $0xffffffff,(%esp)
    2cb4:	e8 f7 59 01 00       	call   186b0 <log_msg>
    2cb9:	e8 02 ee ff ff       	call   1ac0 <hc_irq_pio_range_count>
    2cbe:	89 45 c4             	mov    %eax,-0x3c(%ebp)
    2cc1:	e8 0a ee ff ff       	call   1ad0 <hc_irq_cmd_count>
    2cc6:	89 c2                	mov    %eax,%edx
    2cc8:	8b 45 c4             	mov    -0x3c(%ebp),%eax
    2ccb:	c1 e0 03             	shl    $0x3,%eax
    2cce:	89 55 e0             	mov    %edx,-0x20(%ebp)
    2cd1:	89 45 c0             	mov    %eax,-0x40(%ebp)
    2cd4:	83 c0 12             	add    $0x12,%eax
    2cd7:	83 e0 f0             	and    $0xfffffff0,%eax
    2cda:	29 c4                	sub    %eax,%esp
    2cdc:	8d 04 92             	lea    (%edx,%edx,4),%eax
    2cdf:	c1 e0 02             	shl    $0x2,%eax
    2ce2:	8b 55 d0             	mov    -0x30(%ebp),%edx
    2ce5:	89 45 bc             	mov    %eax,-0x44(%ebp)
    2ce8:	83 c0 12             	add    $0x12,%eax
    2ceb:	83 e0 f0             	and    $0xfffffff0,%eax
    2cee:	8d 4c 24 18          	lea    0x18(%esp),%ecx
    2cf2:	29 c4                	sub    %eax,%esp
    2cf4:	89 4d b4             	mov    %ecx,-0x4c(%ebp)
    2cf7:	8b 4d c4             	mov    -0x3c(%ebp),%ecx
    2cfa:	8d 44 24 18          	lea    0x18(%esp),%eax
    2cfe:	89 4d d8             	mov    %ecx,-0x28(%ebp)
    2d01:	89 54 24 14          	mov    %edx,0x14(%esp)
    2d05:	8b 4d b4             	mov    -0x4c(%ebp),%ecx
    2d08:	8b 55 cc             	mov    -0x34(%ebp),%edx
    2d0b:	89 4d dc             	mov    %ecx,-0x24(%ebp)
    2d0e:	89 45 e4             	mov    %eax,-0x1c(%ebp)
    2d11:	89 54 24 10          	mov    %edx,0x10(%esp)
    2d15:	89 44 24 08          	mov    %eax,0x8(%esp)
    2d19:	8b 55 bc             	mov    -0x44(%ebp),%edx
    2d1c:	8b 4d c0             	mov    -0x40(%ebp),%ecx
    2d1f:	8b 45 b4             	mov    -0x4c(%ebp),%eax
    2d22:	89 54 24 0c          	mov    %edx,0xc(%esp)
    2d26:	89 4c 24 04          	mov    %ecx,0x4(%esp)
    2d2a:	89 04 24             	mov    %eax,(%esp)
    2d2d:	e8 ae ed ff ff       	call   1ae0 <hc_get_irq_code>
    2d32:	89 c2                	mov    %eax,%edx
    2d34:	85 c0                	test   %eax,%eax
    2d36:	0f 84 e4 00 00 00    	je     2e20 <device_setup_ohci+0x330>
    2d3c:	8b 03                	mov    (%ebx),%eax
    2d3e:	85 c0                	test   %eax,%eax
    2d40:	74 0e                	je     2d50 <device_setup_ohci+0x260>
    2d42:	89 04 24             	mov    %eax,(%esp)
    2d45:	89 55 b8             	mov    %edx,-0x48(%ebp)
    2d48:	e8 e3 59 00 00       	call   8730 <ddf_fun_destroy>
    2d4d:	8b 55 b8             	mov    -0x48(%ebp),%edx
    2d50:	8b 43 04             	mov    0x4(%ebx),%eax
    2d53:	85 c0                	test   %eax,%eax
    2d55:	74 0e                	je     2d65 <device_setup_ohci+0x275>
    2d57:	89 04 24             	mov    %eax,(%esp)
    2d5a:	89 55 b8             	mov    %edx,-0x48(%ebp)
    2d5d:	e8 ce 59 00 00       	call   8730 <ddf_fun_destroy>
    2d62:	8b 55 b8             	mov    -0x48(%ebp),%edx
    2d65:	89 14 24             	mov    %edx,(%esp)
    2d68:	89 55 b8             	mov    %edx,-0x48(%ebp)
    2d6b:	e8 10 0d 01 00       	call   13a80 <str_error>
    2d70:	c7 44 24 08 c0 cf 02 	movl   $0x2cfc0,0x8(%esp)
    2d77:	00 
    2d78:	89 44 24 0c          	mov    %eax,0xc(%esp)
    2d7c:	c7 44 24 04 01 00 00 	movl   $0x1,0x4(%esp)
    2d83:	00 
    2d84:	c7 04 24 ff ff ff ff 	movl   $0xffffffff,(%esp)
    2d8b:	e8 20 59 01 00       	call   186b0 <log_msg>
    2d90:	8b 55 b8             	mov    -0x48(%ebp),%edx
    2d93:	e9 e0 fe ff ff       	jmp    2c78 <device_setup_ohci+0x188>
    2d98:	8b 03                	mov    (%ebx),%eax
    2d9a:	85 c0                	test   %eax,%eax
    2d9c:	74 17                	je     2db5 <device_setup_ohci+0x2c5>
    2d9e:	89 04 24             	mov    %eax,(%esp)
    2da1:	e8 8a 59 00 00       	call   8730 <ddf_fun_destroy>
    2da6:	8b 43 04             	mov    0x4(%ebx),%eax
    2da9:	85 c0                	test   %eax,%eax
    2dab:	74 08                	je     2db5 <device_setup_ohci+0x2c5>
    2dad:	89 04 24             	mov    %eax,(%esp)
    2db0:	e8 7b 59 00 00       	call   8730 <ddf_fun_destroy>
    2db5:	c7 04 24 fe ff ff ff 	movl   $0xfffffffe,(%esp)
    2dbc:	e8 bf 0c 01 00       	call   13a80 <str_error>
    2dc1:	c7 44 24 08 30 cf 02 	movl   $0x2cf30,0x8(%esp)
    2dc8:	00 
    2dc9:	89 44 24 0c          	mov    %eax,0xc(%esp)
    2dcd:	c7 44 24 04 01 00 00 	movl   $0x1,0x4(%esp)
    2dd4:	00 
    2dd5:	c7 04 24 ff ff ff ff 	movl   $0xffffffff,(%esp)
    2ddc:	e8 cf 58 01 00       	call   186b0 <log_msg>
    2de1:	8d 65 f4             	lea    -0xc(%ebp),%esp
    2de4:	ba fe ff ff ff       	mov    $0xfffffffe,%edx
    2de9:	5b                   	pop    %ebx
    2dea:	89 d0                	mov    %edx,%eax
    2dec:	5e                   	pop    %esi
    2ded:	5f                   	pop    %edi
    2dee:	5d                   	pop    %ebp
    2def:	c3                   	ret    
    2df0:	ba f6 ff ff ff       	mov    $0xfffffff6,%edx
    2df5:	e9 7e fe ff ff       	jmp    2c78 <device_setup_ohci+0x188>
    2dfa:	c7 44 24 08 e4 ce 02 	movl   $0x2cee4,0x8(%esp)
    2e01:	00 
    2e02:	c7 44 24 04 01 00 00 	movl   $0x1,0x4(%esp)
    2e09:	00 
    2e0a:	c7 04 24 ff ff ff ff 	movl   $0xffffffff,(%esp)
    2e11:	e8 9a 58 01 00       	call   186b0 <log_msg>
    2e16:	ba fe ff ff ff       	mov    $0xfffffffe,%edx
    2e1b:	e9 58 fe ff ff       	jmp    2c78 <device_setup_ohci+0x188>
    2e20:	8d 45 d8             	lea    -0x28(%ebp),%eax
    2e23:	c7 44 24 08 70 2a 00 	movl   $0x2a70,0x8(%esp)
    2e2a:	00 
    2e2b:	89 44 24 0c          	mov    %eax,0xc(%esp)
    2e2f:	8b 45 d4             	mov    -0x2c(%ebp),%eax
    2e32:	89 44 24 04          	mov    %eax,0x4(%esp)
    2e36:	89 34 24             	mov    %esi,(%esp)
    2e39:	e8 c2 5f 00 00       	call   8e00 <register_interrupt_handler>
    2e3e:	89 c2                	mov    %eax,%edx
    2e40:	85 c0                	test   %eax,%eax
    2e42:	74 5c                	je     2ea0 <device_setup_ohci+0x3b0>
    2e44:	8b 03                	mov    (%ebx),%eax
    2e46:	85 c0                	test   %eax,%eax
    2e48:	74 0e                	je     2e58 <device_setup_ohci+0x368>
    2e4a:	89 04 24             	mov    %eax,(%esp)
    2e4d:	89 55 b8             	mov    %edx,-0x48(%ebp)
    2e50:	e8 db 58 00 00       	call   8730 <ddf_fun_destroy>
    2e55:	8b 55 b8             	mov    -0x48(%ebp),%edx
    2e58:	8b 43 04             	mov    0x4(%ebx),%eax
    2e5b:	85 c0                	test   %eax,%eax
    2e5d:	74 0e                	je     2e6d <device_setup_ohci+0x37d>
    2e5f:	89 04 24             	mov    %eax,(%esp)
    2e62:	89 55 b8             	mov    %edx,-0x48(%ebp)
    2e65:	e8 c6 58 00 00       	call   8730 <ddf_fun_destroy>
    2e6a:	8b 55 b8             	mov    -0x48(%ebp),%edx
    2e6d:	89 14 24             	mov    %edx,(%esp)
    2e70:	89 55 b8             	mov    %edx,-0x48(%ebp)
    2e73:	e8 08 0c 01 00       	call   13a80 <str_error>
    2e78:	c7 44 24 08 e4 cf 02 	movl   $0x2cfe4,0x8(%esp)
    2e7f:	00 
    2e80:	89 44 24 0c          	mov    %eax,0xc(%esp)
    2e84:	c7 44 24 04 01 00 00 	movl   $0x1,0x4(%esp)
    2e8b:	00 
    2e8c:	c7 04 24 ff ff ff ff 	movl   $0xffffffff,(%esp)
    2e93:	e8 18 58 01 00       	call   186b0 <log_msg>
    2e98:	8b 55 b8             	mov    -0x48(%ebp),%edx
    2e9b:	e9 d8 fd ff ff       	jmp    2c78 <device_setup_ohci+0x188>
    2ea0:	89 34 24             	mov    %esi,(%esp)
    2ea3:	e8 c8 17 00 00       	call   4670 <enable_interrupts>
    2ea8:	85 c0                	test   %eax,%eax
    2eaa:	0f 84 b9 00 00 00    	je     2f69 <device_setup_ohci+0x479>
    2eb0:	89 04 24             	mov    %eax,(%esp)
    2eb3:	e8 c8 0b 01 00       	call   13a80 <str_error>
    2eb8:	c7 44 24 08 10 d0 02 	movl   $0x2d010,0x8(%esp)
    2ebf:	00 
    2ec0:	89 44 24 0c          	mov    %eax,0xc(%esp)
    2ec4:	c7 44 24 04 02 00 00 	movl   $0x2,0x4(%esp)
    2ecb:	00 
    2ecc:	c7 04 24 ff ff ff ff 	movl   $0xffffffff,(%esp)
    2ed3:	e8 d8 57 01 00       	call   186b0 <log_msg>
    2ed8:	8b 45 d4             	mov    -0x2c(%ebp),%eax
    2edb:	89 44 24 04          	mov    %eax,0x4(%esp)
    2edf:	89 34 24             	mov    %esi,(%esp)
    2ee2:	e8 39 60 00 00       	call   8f20 <unregister_interrupt_handler>
    2ee7:	31 c0                	xor    %eax,%eax
    2ee9:	89 44 24 0c          	mov    %eax,0xc(%esp)
    2eed:	8b 45 d0             	mov    -0x30(%ebp),%eax
    2ef0:	89 44 24 08          	mov    %eax,0x8(%esp)
    2ef4:	8b 45 cc             	mov    -0x34(%ebp),%eax
    2ef7:	89 44 24 04          	mov    %eax,0x4(%esp)
    2efb:	89 3c 24             	mov    %edi,(%esp)
    2efe:	e8 dd ee ff ff       	call   1de0 <hc_init>
    2f03:	89 c2                	mov    %eax,%edx
    2f05:	8b 03                	mov    (%ebx),%eax
    2f07:	85 d2                	test   %edx,%edx
    2f09:	0f 84 80 00 00 00    	je     2f8f <device_setup_ohci+0x49f>
    2f0f:	85 c0                	test   %eax,%eax
    2f11:	74 0e                	je     2f21 <device_setup_ohci+0x431>
    2f13:	89 04 24             	mov    %eax,(%esp)
    2f16:	89 55 b8             	mov    %edx,-0x48(%ebp)
    2f19:	e8 12 58 00 00       	call   8730 <ddf_fun_destroy>
    2f1e:	8b 55 b8             	mov    -0x48(%ebp),%edx
    2f21:	8b 43 04             	mov    0x4(%ebx),%eax
    2f24:	85 c0                	test   %eax,%eax
    2f26:	74 0e                	je     2f36 <device_setup_ohci+0x446>
    2f28:	89 04 24             	mov    %eax,(%esp)
    2f2b:	89 55 b8             	mov    %edx,-0x48(%ebp)
    2f2e:	e8 fd 57 00 00       	call   8730 <ddf_fun_destroy>
    2f33:	8b 55 b8             	mov    -0x48(%ebp),%edx
    2f36:	89 14 24             	mov    %edx,(%esp)
    2f39:	89 55 b8             	mov    %edx,-0x48(%ebp)
    2f3c:	e8 3f 0b 01 00       	call   13a80 <str_error>
    2f41:	c7 44 24 08 8d ce 02 	movl   $0x2ce8d,0x8(%esp)
    2f48:	00 
    2f49:	89 44 24 0c          	mov    %eax,0xc(%esp)
    2f4d:	c7 44 24 04 01 00 00 	movl   $0x1,0x4(%esp)
    2f54:	00 
    2f55:	c7 04 24 ff ff ff ff 	movl   $0xffffffff,(%esp)
    2f5c:	e8 4f 57 01 00       	call   186b0 <log_msg>
    2f61:	8b 55 b8             	mov    -0x48(%ebp),%edx
    2f64:	e9 0f fd ff ff       	jmp    2c78 <device_setup_ohci+0x188>
    2f69:	c7 44 24 08 75 ce 02 	movl   $0x2ce75,0x8(%esp)
    2f70:	00 
    2f71:	c7 44 24 04 04 00 00 	movl   $0x4,0x4(%esp)
    2f78:	00 
    2f79:	c7 04 24 ff ff ff ff 	movl   $0xffffffff,(%esp)
    2f80:	e8 2b 57 01 00       	call   186b0 <log_msg>
    2f85:	b8 01 00 00 00       	mov    $0x1,%eax
    2f8a:	e9 5a ff ff ff       	jmp    2ee9 <device_setup_ohci+0x3f9>
    2f8f:	89 04 24             	mov    %eax,(%esp)
    2f92:	e8 a9 58 00 00       	call   8840 <ddf_fun_bind>
    2f97:	89 c2                	mov    %eax,%edx
    2f99:	85 c0                	test   %eax,%eax
    2f9b:	74 6e                	je     300b <device_setup_ohci+0x51b>
    2f9d:	8b 45 d4             	mov    -0x2c(%ebp),%eax
    2fa0:	89 34 24             	mov    %esi,(%esp)
    2fa3:	89 44 24 04          	mov    %eax,0x4(%esp)
    2fa7:	89 55 b8             	mov    %edx,-0x48(%ebp)
    2faa:	e8 71 5f 00 00       	call   8f20 <unregister_interrupt_handler>
    2faf:	8b 03                	mov    (%ebx),%eax
    2fb1:	85 c0                	test   %eax,%eax
    2fb3:	8b 55 b8             	mov    -0x48(%ebp),%edx
    2fb6:	74 0b                	je     2fc3 <device_setup_ohci+0x4d3>
    2fb8:	89 04 24             	mov    %eax,(%esp)
    2fbb:	e8 70 57 00 00       	call   8730 <ddf_fun_destroy>
    2fc0:	8b 55 b8             	mov    -0x48(%ebp),%edx
    2fc3:	8b 43 04             	mov    0x4(%ebx),%eax
    2fc6:	85 c0                	test   %eax,%eax
    2fc8:	74 0e                	je     2fd8 <device_setup_ohci+0x4e8>
    2fca:	89 04 24             	mov    %eax,(%esp)
    2fcd:	89 55 b8             	mov    %edx,-0x48(%ebp)
    2fd0:	e8 5b 57 00 00       	call   8730 <ddf_fun_destroy>
    2fd5:	8b 55 b8             	mov    -0x48(%ebp),%edx
    2fd8:	89 14 24             	mov    %edx,(%esp)
    2fdb:	89 55 b8             	mov    %edx,-0x48(%ebp)
    2fde:	e8 9d 0a 01 00       	call   13a80 <str_error>
    2fe3:	c7 44 24 08 4c d0 02 	movl   $0x2d04c,0x8(%esp)
    2fea:	00 
    2feb:	89 44 24 0c          	mov    %eax,0xc(%esp)
    2fef:	c7 44 24 04 01 00 00 	movl   $0x1,0x4(%esp)
    2ff6:	00 
    2ff7:	c7 04 24 ff ff ff ff 	movl   $0xffffffff,(%esp)
    2ffe:	e8 ad 56 01 00       	call   186b0 <log_msg>
    3003:	8b 55 b8             	mov    -0x48(%ebp),%edx
    3006:	e9 6d fc ff ff       	jmp    2c78 <device_setup_ohci+0x188>
    300b:	c7 44 24 04 ab ce 02 	movl   $0x2ceab,0x4(%esp)
    3012:	00 
    3013:	8b 03                	mov    (%ebx),%eax
    3015:	89 04 24             	mov    %eax,(%esp)
    3018:	e8 a3 5b 00 00       	call   8bc0 <ddf_fun_add_to_category>
    301d:	89 c2                	mov    %eax,%edx
    301f:	85 c0                	test   %eax,%eax
    3021:	74 6e                	je     3091 <device_setup_ohci+0x5a1>
    3023:	8b 45 d4             	mov    -0x2c(%ebp),%eax
    3026:	89 34 24             	mov    %esi,(%esp)
    3029:	89 44 24 04          	mov    %eax,0x4(%esp)
    302d:	89 55 b8             	mov    %edx,-0x48(%ebp)
    3030:	e8 eb 5e 00 00       	call   8f20 <unregister_interrupt_handler>
    3035:	8b 03                	mov    (%ebx),%eax
    3037:	85 c0                	test   %eax,%eax
    3039:	8b 55 b8             	mov    -0x48(%ebp),%edx
    303c:	74 0b                	je     3049 <device_setup_ohci+0x559>
    303e:	89 04 24             	mov    %eax,(%esp)
    3041:	e8 ea 56 00 00       	call   8730 <ddf_fun_destroy>
    3046:	8b 55 b8             	mov    -0x48(%ebp),%edx
    3049:	8b 43 04             	mov    0x4(%ebx),%eax
    304c:	85 c0                	test   %eax,%eax
    304e:	74 0e                	je     305e <device_setup_ohci+0x56e>
    3050:	89 04 24             	mov    %eax,(%esp)
    3053:	89 55 b8             	mov    %edx,-0x48(%ebp)
    3056:	e8 d5 56 00 00       	call   8730 <ddf_fun_destroy>
    305b:	8b 55 b8             	mov    -0x48(%ebp),%edx
    305e:	89 14 24             	mov    %edx,(%esp)
    3061:	89 55 b8             	mov    %edx,-0x48(%ebp)
    3064:	e8 17 0a 01 00       	call   13a80 <str_error>
    3069:	c7 44 24 08 78 d0 02 	movl   $0x2d078,0x8(%esp)
    3070:	00 
    3071:	89 44 24 0c          	mov    %eax,0xc(%esp)
    3075:	c7 44 24 04 01 00 00 	movl   $0x1,0x4(%esp)
    307c:	00 
    307d:	c7 04 24 ff ff ff ff 	movl   $0xffffffff,(%esp)
    3084:	e8 27 56 01 00       	call   186b0 <log_msg>
    3089:	8b 55 b8             	mov    -0x48(%ebp),%edx
    308c:	e9 e7 fb ff ff       	jmp    2c78 <device_setup_ohci+0x188>
    3091:	8b 43 04             	mov    0x4(%ebx),%eax
    3094:	89 3c 24             	mov    %edi,(%esp)
    3097:	89 44 24 04          	mov    %eax,0x4(%esp)
    309b:	e8 c0 ea ff ff       	call   1b60 <hc_register_hub>
    30a0:	89 c2                	mov    %eax,%edx
    30a2:	85 c0                	test   %eax,%eax
    30a4:	0f 84 ce fb ff ff    	je     2c78 <device_setup_ohci+0x188>
    30aa:	8b 45 d4             	mov    -0x2c(%ebp),%eax
    30ad:	89 34 24             	mov    %esi,(%esp)
    30b0:	89 44 24 04          	mov    %eax,0x4(%esp)
    30b4:	89 55 b8             	mov    %edx,-0x48(%ebp)
    30b7:	e8 64 5e 00 00       	call   8f20 <unregister_interrupt_handler>
    30bc:	8b 03                	mov    (%ebx),%eax
    30be:	85 c0                	test   %eax,%eax
    30c0:	8b 55 b8             	mov    -0x48(%ebp),%edx
    30c3:	74 0b                	je     30d0 <device_setup_ohci+0x5e0>
    30c5:	89 04 24             	mov    %eax,(%esp)
    30c8:	e8 63 56 00 00       	call   8730 <ddf_fun_destroy>
    30cd:	8b 55 b8             	mov    -0x48(%ebp),%edx
    30d0:	8b 43 04             	mov    0x4(%ebx),%eax
    30d3:	85 c0                	test   %eax,%eax
    30d5:	74 0e                	je     30e5 <device_setup_ohci+0x5f5>
    30d7:	89 04 24             	mov    %eax,(%esp)
    30da:	89 55 b8             	mov    %edx,-0x48(%ebp)
    30dd:	e8 4e 56 00 00       	call   8730 <ddf_fun_destroy>
    30e2:	8b 55 b8             	mov    -0x48(%ebp),%edx
    30e5:	89 14 24             	mov    %edx,(%esp)
    30e8:	89 55 b8             	mov    %edx,-0x48(%ebp)
    30eb:	e8 90 09 01 00       	call   13a80 <str_error>
    30f0:	c7 44 24 08 a0 d0 02 	movl   $0x2d0a0,0x8(%esp)
    30f7:	00 
    30f8:	89 44 24 0c          	mov    %eax,0xc(%esp)
    30fc:	c7 44 24 04 01 00 00 	movl   $0x1,0x4(%esp)
    3103:	00 
    3104:	c7 04 24 ff ff ff ff 	movl   $0xffffffff,(%esp)
    310b:	e8 a0 55 01 00       	call   186b0 <log_msg>
    3110:	8b 55 b8             	mov    -0x48(%ebp),%edx
    3113:	e9 60 fb ff ff       	jmp    2c78 <device_setup_ohci+0x188>
    3118:	66 90                	xchg   %ax,%ax
    311a:	66 90                	xchg   %ax,%ax
    311c:	66 90                	xchg   %ax,%ax
    311e:	66 90                	xchg   %ax,%ax

00003120 <batch_data>:
    3120:	55                   	push   %ebp
    3121:	89 e5                	mov    %esp,%ebp
    3123:	57                   	push   %edi
    3124:	56                   	push   %esi
    3125:	53                   	push   %ebx
    3126:	83 ec 6c             	sub    $0x6c,%esp
    3129:	8b 75 08             	mov    0x8(%ebp),%esi
    312c:	85 f6                	test   %esi,%esi
    312e:	0f 84 26 02 00 00    	je     335a <batch_data+0x23a>
    3134:	8b 5e 18             	mov    0x18(%esi),%ebx
    3137:	85 db                	test   %ebx,%ebx
    3139:	0f 84 53 02 00 00    	je     3392 <batch_data+0x272>
    313f:	83 7d 0c 01          	cmpl   $0x1,0xc(%ebp)
    3143:	0f 87 2d 02 00 00    	ja     3376 <batch_data+0x256>
    3149:	8b 46 08             	mov    0x8(%esi),%eax
    314c:	8b 58 0c             	mov    0xc(%eax),%ebx
    314f:	8b 48 08             	mov    0x8(%eax),%ecx
    3152:	8b 50 04             	mov    0x4(%eax),%edx
    3155:	8b 38                	mov    (%eax),%edi
    3157:	89 7c 24 10          	mov    %edi,0x10(%esp)
    315b:	89 4c 24 18          	mov    %ecx,0x18(%esp)
    315f:	89 54 24 14          	mov    %edx,0x14(%esp)
    3163:	89 44 24 0c          	mov    %eax,0xc(%esp)
    3167:	89 5c 24 1c          	mov    %ebx,0x1c(%esp)
    316b:	c7 44 24 08 a8 d1 02 	movl   $0x2d1a8,0x8(%esp)
    3172:	00 
    3173:	c7 44 24 04 04 00 00 	movl   $0x4,0x4(%esp)
    317a:	00 
    317b:	c7 04 24 ff ff ff ff 	movl   $0xffffffff,(%esp)
    3182:	e8 29 55 01 00       	call   186b0 <log_msg>
    3187:	8b 46 18             	mov    0x18(%esi),%eax
    318a:	8b 4e 14             	mov    0x14(%esi),%ecx
    318d:	8b 50 14             	mov    0x14(%eax),%edx
    3190:	89 55 e4             	mov    %edx,-0x1c(%ebp)
    3193:	89 4d dc             	mov    %ecx,-0x24(%ebp)
    3196:	85 d2                	test   %edx,%edx
    3198:	0f 84 94 01 00 00    	je     3332 <batch_data+0x212>
    319e:	31 db                	xor    %ebx,%ebx
    31a0:	8b 45 e4             	mov    -0x1c(%ebp),%eax
    31a3:	89 45 e0             	mov    %eax,-0x20(%ebp)
    31a6:	3d 00 10 00 00       	cmp    $0x1000,%eax
    31ab:	76 07                	jbe    31b4 <batch_data+0x94>
    31ad:	c7 45 e0 00 10 00 00 	movl   $0x1000,-0x20(%ebp)
    31b4:	8b 4d e0             	mov    -0x20(%ebp),%ecx
    31b7:	8d 53 01             	lea    0x1(%ebx),%edx
    31ba:	8b 46 0c             	mov    0xc(%esi),%eax
    31bd:	89 55 d8             	mov    %edx,-0x28(%ebp)
    31c0:	89 4c 24 10          	mov    %ecx,0x10(%esp)
    31c4:	8b 4d 0c             	mov    0xc(%ebp),%ecx
    31c7:	89 4c 24 08          	mov    %ecx,0x8(%esp)
    31cb:	8b 55 dc             	mov    -0x24(%ebp),%edx
    31ce:	8b 4d d8             	mov    -0x28(%ebp),%ecx
    31d1:	c7 44 24 14 ff ff ff 	movl   $0xffffffff,0x14(%esp)
    31d8:	ff 
    31d9:	89 54 24 0c          	mov    %edx,0xc(%esp)
    31dd:	8d 3c 9d 00 00 00 00 	lea    0x0(,%ebx,4),%edi
    31e4:	8b 14 88             	mov    (%eax,%ecx,4),%edx
    31e7:	89 54 24 04          	mov    %edx,0x4(%esp)
    31eb:	8b 04 38             	mov    (%eax,%edi,1),%eax
    31ee:	89 04 24             	mov    %eax,(%esp)
    31f1:	e8 8a 24 00 00       	call   5680 <td_init>
    31f6:	8b 46 0c             	mov    0xc(%esi),%eax
    31f9:	8b 04 38             	mov    (%eax,%edi,1),%eax
    31fc:	8b 78 0c             	mov    0xc(%eax),%edi
    31ff:	8b 48 08             	mov    0x8(%eax),%ecx
    3202:	8b 50 04             	mov    0x4(%eax),%edx
    3205:	8b 00                	mov    (%eax),%eax
    3207:	89 44 24 0c          	mov    %eax,0xc(%esp)
    320b:	89 4c 24 14          	mov    %ecx,0x14(%esp)
    320f:	89 54 24 10          	mov    %edx,0x10(%esp)
    3213:	89 7c 24 18          	mov    %edi,0x18(%esp)
    3217:	c7 44 24 08 cc d1 02 	movl   $0x2d1cc,0x8(%esp)
    321e:	00 
    321f:	c7 44 24 04 04 00 00 	movl   $0x4,0x4(%esp)
    3226:	00 
    3227:	c7 04 24 ff ff ff ff 	movl   $0xffffffff,(%esp)
    322e:	e8 7d 54 01 00       	call   186b0 <log_msg>
    3233:	8b 45 e0             	mov    -0x20(%ebp),%eax
    3236:	8b 55 dc             	mov    -0x24(%ebp),%edx
    3239:	8b 4d e4             	mov    -0x1c(%ebp),%ecx
    323c:	01 c2                	add    %eax,%edx
    323e:	29 c1                	sub    %eax,%ecx
    3240:	89 55 dc             	mov    %edx,-0x24(%ebp)
    3243:	89 4d e4             	mov    %ecx,-0x1c(%ebp)
    3246:	39 5e 10             	cmp    %ebx,0x10(%esi)
    3249:	0f 86 ef 00 00 00    	jbe    333e <batch_data+0x21e>
    324f:	8b 45 e4             	mov    -0x1c(%ebp),%eax
    3252:	8b 5d d8             	mov    -0x28(%ebp),%ebx
    3255:	85 c0                	test   %eax,%eax
    3257:	0f 85 43 ff ff ff    	jne    31a0 <batch_data+0x80>
    325d:	8b 46 18             	mov    0x18(%esi),%eax
    3260:	8b 50 14             	mov    0x14(%eax),%edx
    3263:	89 55 d8             	mov    %edx,-0x28(%ebp)
    3266:	8b 00                	mov    (%eax),%eax
    3268:	8b 48 18             	mov    0x18(%eax),%ecx
    326b:	8b 40 0c             	mov    0xc(%eax),%eax
    326e:	89 04 24             	mov    %eax,(%esp)
    3271:	89 4d d4             	mov    %ecx,-0x2c(%ebp)
    3274:	e8 97 48 00 00       	call   7b10 <usb_str_direction>
    3279:	89 45 e4             	mov    %eax,-0x1c(%ebp)
    327c:	8b 46 18             	mov    0x18(%esi),%eax
    327f:	8b 00                	mov    (%eax),%eax
    3281:	8b 40 10             	mov    0x10(%eax),%eax
    3284:	89 04 24             	mov    %eax,(%esp)
    3287:	e8 64 48 00 00       	call   7af0 <usb_str_transfer_type_short>
    328c:	89 45 e0             	mov    %eax,-0x20(%ebp)
    328f:	8b 46 18             	mov    0x18(%esi),%eax
    3292:	8b 00                	mov    (%eax),%eax
    3294:	8b 40 14             	mov    0x14(%eax),%eax
    3297:	89 04 24             	mov    %eax,(%esp)
    329a:	e8 91 48 00 00       	call   7b30 <usb_str_speed>
    329f:	89 c7                	mov    %eax,%edi
    32a1:	8b 46 18             	mov    0x18(%esi),%eax
    32a4:	8b 00                	mov    (%eax),%eax
    32a6:	0f bf 50 0a          	movswl 0xa(%eax),%edx
    32aa:	89 55 dc             	mov    %edx,-0x24(%ebp)
    32ad:	8b 55 0c             	mov    0xc(%ebp),%edx
    32b0:	0f bf 58 08          	movswl 0x8(%eax),%ebx
    32b4:	89 14 24             	mov    %edx,(%esp)
    32b7:	e8 54 48 00 00       	call   7b10 <usb_str_direction>
    32bc:	89 c2                	mov    %eax,%edx
    32be:	8b 46 18             	mov    0x18(%esi),%eax
    32c1:	8b 00                	mov    (%eax),%eax
    32c3:	8b 40 10             	mov    0x10(%eax),%eax
    32c6:	89 55 d0             	mov    %edx,-0x30(%ebp)
    32c9:	89 04 24             	mov    %eax,(%esp)
    32cc:	e8 ff 47 00 00       	call   7ad0 <usb_str_transfer_type>
    32d1:	8b 4d d4             	mov    -0x2c(%ebp),%ecx
    32d4:	89 4c 24 30          	mov    %ecx,0x30(%esp)
    32d8:	8b 4d d8             	mov    -0x28(%ebp),%ecx
    32db:	89 4c 24 2c          	mov    %ecx,0x2c(%esp)
    32df:	8b 4d e4             	mov    -0x1c(%ebp),%ecx
    32e2:	89 4c 24 28          	mov    %ecx,0x28(%esp)
    32e6:	8b 4d e0             	mov    -0x20(%ebp),%ecx
    32e9:	89 4c 24 24          	mov    %ecx,0x24(%esp)
    32ed:	8b 55 d0             	mov    -0x30(%ebp),%edx
    32f0:	8b 4d dc             	mov    -0x24(%ebp),%ecx
    32f3:	89 7c 24 20          	mov    %edi,0x20(%esp)
    32f7:	89 5c 24 18          	mov    %ebx,0x18(%esp)
    32fb:	89 4c 24 1c          	mov    %ecx,0x1c(%esp)
    32ff:	89 54 24 14          	mov    %edx,0x14(%esp)
    3303:	89 44 24 10          	mov    %eax,0x10(%esp)
    3307:	8b 46 18             	mov    0x18(%esi),%eax
    330a:	c7 44 24 08 18 d2 02 	movl   $0x2d218,0x8(%esp)
    3311:	00 
    3312:	89 44 24 0c          	mov    %eax,0xc(%esp)
    3316:	c7 44 24 04 05 00 00 	movl   $0x5,0x4(%esp)
    331d:	00 
    331e:	c7 04 24 ff ff ff ff 	movl   $0xffffffff,(%esp)
    3325:	e8 86 53 01 00       	call   186b0 <log_msg>
    332a:	83 c4 6c             	add    $0x6c,%esp
    332d:	5b                   	pop    %ebx
    332e:	5e                   	pop    %esi
    332f:	5f                   	pop    %edi
    3330:	5d                   	pop    %ebp
    3331:	c3                   	ret    
    3332:	c7 45 d8 00 00 00 00 	movl   $0x0,-0x28(%ebp)
    3339:	e9 28 ff ff ff       	jmp    3266 <batch_data+0x146>
    333e:	c7 44 24 08 7f 01 00 	movl   $0x17f,0x8(%esp)
    3345:	00 
    3346:	c7 44 24 04 c7 d0 02 	movl   $0x2d0c7,0x4(%esp)
    334d:	00 
    334e:	c7 04 24 f4 d1 02 00 	movl   $0x2d1f4,(%esp)
    3355:	e8 56 4c 02 00       	call   27fb0 <assert_abort>
    335a:	c7 44 24 08 65 01 00 	movl   $0x165,0x8(%esp)
    3361:	00 
    3362:	c7 44 24 04 c7 d0 02 	movl   $0x2d0c7,0x4(%esp)
    3369:	00 
    336a:	c7 04 24 d4 d0 02 00 	movl   $0x2d0d4,(%esp)
    3371:	e8 3a 4c 02 00       	call   27fb0 <assert_abort>
    3376:	c7 44 24 08 67 01 00 	movl   $0x167,0x8(%esp)
    337d:	00 
    337e:	c7 44 24 04 c7 d0 02 	movl   $0x2d0c7,0x4(%esp)
    3385:	00 
    3386:	c7 04 24 74 d1 02 00 	movl   $0x2d174,(%esp)
    338d:	e8 1e 4c 02 00       	call   27fb0 <assert_abort>
    3392:	c7 44 24 08 66 01 00 	movl   $0x166,0x8(%esp)
    3399:	00 
    339a:	c7 44 24 04 c7 d0 02 	movl   $0x2d0c7,0x4(%esp)
    33a1:	00 
    33a2:	c7 04 24 df d0 02 00 	movl   $0x2d0df,(%esp)
    33a9:	e8 02 4c 02 00       	call   27fb0 <assert_abort>
    33ae:	66 90                	xchg   %ax,%ax

000033b0 <batch_control>:
    33b0:	55                   	push   %ebp
    33b1:	89 e5                	mov    %esp,%ebp
    33b3:	57                   	push   %edi
    33b4:	56                   	push   %esi
    33b5:	53                   	push   %ebx
    33b6:	83 ec 6c             	sub    $0x6c,%esp
    33b9:	8b 75 08             	mov    0x8(%ebp),%esi
    33bc:	85 f6                	test   %esi,%esi
    33be:	0f 84 5f 03 00 00    	je     3723 <batch_control+0x373>
    33c4:	8b 4e 18             	mov    0x18(%esi),%ecx
    33c7:	85 c9                	test   %ecx,%ecx
    33c9:	0f 84 70 03 00 00    	je     373f <batch_control+0x38f>
    33cf:	83 7d 0c 01          	cmpl   $0x1,0xc(%ebp)
    33d3:	0f 87 82 03 00 00    	ja     375b <batch_control+0x3ab>
    33d9:	8b 46 08             	mov    0x8(%esi),%eax
    33dc:	8b 58 0c             	mov    0xc(%eax),%ebx
    33df:	8b 48 08             	mov    0x8(%eax),%ecx
    33e2:	8b 50 04             	mov    0x4(%eax),%edx
    33e5:	8b 38                	mov    (%eax),%edi
    33e7:	89 7c 24 10          	mov    %edi,0x10(%esp)
    33eb:	89 4c 24 18          	mov    %ecx,0x18(%esp)
    33ef:	89 5c 24 1c          	mov    %ebx,0x1c(%esp)
    33f3:	89 54 24 14          	mov    %edx,0x14(%esp)
    33f7:	89 44 24 0c          	mov    %eax,0xc(%esp)
    33fb:	c7 44 24 08 a8 d1 02 	movl   $0x2d1a8,0x8(%esp)
    3402:	00 
    3403:	c7 44 24 04 04 00 00 	movl   $0x4,0x4(%esp)
    340a:	00 
    340b:	c7 04 24 ff ff ff ff 	movl   $0xffffffff,(%esp)
    3412:	e8 99 52 01 00       	call   186b0 <log_msg>
    3417:	8b 55 0c             	mov    0xc(%ebp),%edx
    341a:	8b 46 0c             	mov    0xc(%esi),%eax
    341d:	8b 5e 14             	mov    0x14(%esi),%ebx
    3420:	8b 14 95 10 d7 02 00 	mov    0x2d710(,%edx,4),%edx
    3427:	c7 44 24 14 00 00 00 	movl   $0x0,0x14(%esp)
    342e:	00 
    342f:	89 55 d0             	mov    %edx,-0x30(%ebp)
    3432:	8b 56 18             	mov    0x18(%esi),%edx
    3435:	8b 52 20             	mov    0x20(%edx),%edx
    3438:	89 5c 24 0c          	mov    %ebx,0xc(%esp)
    343c:	89 54 24 10          	mov    %edx,0x10(%esp)
    3440:	c7 44 24 08 02 00 00 	movl   $0x2,0x8(%esp)
    3447:	00 
    3448:	8b 50 04             	mov    0x4(%eax),%edx
    344b:	89 54 24 04          	mov    %edx,0x4(%esp)
    344f:	8b 00                	mov    (%eax),%eax
    3451:	89 04 24             	mov    %eax,(%esp)
    3454:	e8 27 22 00 00       	call   5680 <td_init>
    3459:	8b 46 0c             	mov    0xc(%esi),%eax
    345c:	8b 00                	mov    (%eax),%eax
    345e:	8b 78 0c             	mov    0xc(%eax),%edi
    3461:	8b 48 08             	mov    0x8(%eax),%ecx
    3464:	8b 50 04             	mov    0x4(%eax),%edx
    3467:	8b 00                	mov    (%eax),%eax
    3469:	89 44 24 0c          	mov    %eax,0xc(%esp)
    346d:	89 54 24 10          	mov    %edx,0x10(%esp)
    3471:	89 7c 24 18          	mov    %edi,0x18(%esp)
    3475:	89 4c 24 14          	mov    %ecx,0x14(%esp)
    3479:	c7 44 24 08 50 d2 02 	movl   $0x2d250,0x8(%esp)
    3480:	00 
    3481:	c7 44 24 04 04 00 00 	movl   $0x4,0x4(%esp)
    3488:	00 
    3489:	c7 04 24 ff ff ff ff 	movl   $0xffffffff,(%esp)
    3490:	e8 1b 52 01 00       	call   186b0 <log_msg>
    3495:	8b 46 18             	mov    0x18(%esi),%eax
    3498:	8b 50 20             	mov    0x20(%eax),%edx
    349b:	8b 40 14             	mov    0x14(%eax),%eax
    349e:	01 d3                	add    %edx,%ebx
    34a0:	89 45 e4             	mov    %eax,-0x1c(%ebp)
    34a3:	89 5d d4             	mov    %ebx,-0x2c(%ebp)
    34a6:	c7 45 dc 01 00 00 00 	movl   $0x1,-0x24(%ebp)
    34ad:	c7 45 d8 00 00 00 00 	movl   $0x0,-0x28(%ebp)
    34b4:	85 c0                	test   %eax,%eax
    34b6:	0f 84 1f 02 00 00    	je     36db <batch_control+0x32b>
    34bc:	8d 74 26 00          	lea    0x0(%esi,%eiz,1),%esi
    34c0:	8b 4d e4             	mov    -0x1c(%ebp),%ecx
    34c3:	89 4d e0             	mov    %ecx,-0x20(%ebp)
    34c6:	81 f9 00 10 00 00    	cmp    $0x1000,%ecx
    34cc:	76 0a                	jbe    34d8 <batch_control+0x128>
    34ce:	c7 45 e0 00 10 00 00 	movl   $0x1000,-0x20(%ebp)
    34d5:	8b 4d e0             	mov    -0x20(%ebp),%ecx
    34d8:	8b 55 d8             	mov    -0x28(%ebp),%edx
    34db:	b8 01 00 00 00       	mov    $0x1,%eax
    34e0:	29 d0                	sub    %edx,%eax
    34e2:	8b 5d dc             	mov    -0x24(%ebp),%ebx
    34e5:	89 45 d8             	mov    %eax,-0x28(%ebp)
    34e8:	43                   	inc    %ebx
    34e9:	8b 55 d8             	mov    -0x28(%ebp),%edx
    34ec:	8b 46 0c             	mov    0xc(%esi),%eax
    34ef:	89 54 24 14          	mov    %edx,0x14(%esp)
    34f3:	89 4c 24 10          	mov    %ecx,0x10(%esp)
    34f7:	8b 55 d4             	mov    -0x2c(%ebp),%edx
    34fa:	8b 4d 0c             	mov    0xc(%ebp),%ecx
    34fd:	89 4c 24 08          	mov    %ecx,0x8(%esp)
    3501:	89 54 24 0c          	mov    %edx,0xc(%esp)
    3505:	8b 7d dc             	mov    -0x24(%ebp),%edi
    3508:	8b 14 98             	mov    (%eax,%ebx,4),%edx
    350b:	c1 e7 02             	shl    $0x2,%edi
    350e:	89 54 24 04          	mov    %edx,0x4(%esp)
    3512:	8b 04 38             	mov    (%eax,%edi,1),%eax
    3515:	89 04 24             	mov    %eax,(%esp)
    3518:	e8 63 21 00 00       	call   5680 <td_init>
    351d:	8b 46 0c             	mov    0xc(%esi),%eax
    3520:	8b 04 38             	mov    (%eax,%edi,1),%eax
    3523:	8b 78 0c             	mov    0xc(%eax),%edi
    3526:	8b 48 08             	mov    0x8(%eax),%ecx
    3529:	8b 50 04             	mov    0x4(%eax),%edx
    352c:	8b 00                	mov    (%eax),%eax
    352e:	89 44 24 0c          	mov    %eax,0xc(%esp)
    3532:	89 7c 24 18          	mov    %edi,0x18(%esp)
    3536:	89 4c 24 14          	mov    %ecx,0x14(%esp)
    353a:	89 54 24 10          	mov    %edx,0x10(%esp)
    353e:	c7 44 24 08 80 d2 02 	movl   $0x2d280,0x8(%esp)
    3545:	00 
    3546:	c7 44 24 04 04 00 00 	movl   $0x4,0x4(%esp)
    354d:	00 
    354e:	c7 04 24 ff ff ff ff 	movl   $0xffffffff,(%esp)
    3555:	e8 56 51 01 00       	call   186b0 <log_msg>
    355a:	8b 45 e0             	mov    -0x20(%ebp),%eax
    355d:	8b 4d d4             	mov    -0x2c(%ebp),%ecx
    3560:	8b 7d e4             	mov    -0x1c(%ebp),%edi
    3563:	01 c1                	add    %eax,%ecx
    3565:	29 c7                	sub    %eax,%edi
    3567:	8b 46 10             	mov    0x10(%esi),%eax
    356a:	89 4d d4             	mov    %ecx,-0x2c(%ebp)
    356d:	89 7d e4             	mov    %edi,-0x1c(%ebp)
    3570:	8d 50 ff             	lea    -0x1(%eax),%edx
    3573:	3b 55 dc             	cmp    -0x24(%ebp),%edx
    3576:	0f 86 6f 01 00 00    	jbe    36eb <batch_control+0x33b>
    357c:	8b 7d e4             	mov    -0x1c(%ebp),%edi
    357f:	89 5d dc             	mov    %ebx,-0x24(%ebp)
    3582:	85 ff                	test   %edi,%edi
    3584:	0f 85 36 ff ff ff    	jne    34c0 <batch_control+0x110>
    358a:	39 d3                	cmp    %edx,%ebx
    358c:	0f 85 75 01 00 00    	jne    3707 <batch_control+0x357>
    3592:	8b 56 0c             	mov    0xc(%esi),%edx
    3595:	8b 4d d0             	mov    -0x30(%ebp),%ecx
    3598:	89 4c 24 08          	mov    %ecx,0x8(%esp)
    359c:	c7 44 24 14 01 00 00 	movl   $0x1,0x14(%esp)
    35a3:	00 
    35a4:	c7 44 24 10 00 00 00 	movl   $0x0,0x10(%esp)
    35ab:	00 
    35ac:	c7 44 24 0c 00 00 00 	movl   $0x0,0xc(%esp)
    35b3:	00 
    35b4:	c1 e3 02             	shl    $0x2,%ebx
    35b7:	8b 04 82             	mov    (%edx,%eax,4),%eax
    35ba:	89 44 24 04          	mov    %eax,0x4(%esp)
    35be:	8b 04 1a             	mov    (%edx,%ebx,1),%eax
    35c1:	89 04 24             	mov    %eax,(%esp)
    35c4:	e8 b7 20 00 00       	call   5680 <td_init>
    35c9:	8b 46 0c             	mov    0xc(%esi),%eax
    35cc:	8b 04 18             	mov    (%eax,%ebx,1),%eax
    35cf:	8b 58 0c             	mov    0xc(%eax),%ebx
    35d2:	8b 48 08             	mov    0x8(%eax),%ecx
    35d5:	8b 50 04             	mov    0x4(%eax),%edx
    35d8:	8b 00                	mov    (%eax),%eax
    35da:	89 44 24 0c          	mov    %eax,0xc(%esp)
    35de:	89 5c 24 18          	mov    %ebx,0x18(%esp)
    35e2:	89 4c 24 14          	mov    %ecx,0x14(%esp)
    35e6:	89 54 24 10          	mov    %edx,0x10(%esp)
    35ea:	c7 44 24 08 00 d3 02 	movl   $0x2d300,0x8(%esp)
    35f1:	00 
    35f2:	c7 44 24 04 04 00 00 	movl   $0x4,0x4(%esp)
    35f9:	00 
    35fa:	c7 04 24 ff ff ff ff 	movl   $0xffffffff,(%esp)
    3601:	e8 aa 50 01 00       	call   186b0 <log_msg>
    3606:	8b 56 18             	mov    0x18(%esi),%edx
    3609:	8b 02                	mov    (%edx),%eax
    360b:	8b 52 14             	mov    0x14(%edx),%edx
    360e:	89 55 e4             	mov    %edx,-0x1c(%ebp)
    3611:	8b 48 18             	mov    0x18(%eax),%ecx
    3614:	8b 40 0c             	mov    0xc(%eax),%eax
    3617:	89 04 24             	mov    %eax,(%esp)
    361a:	89 4d cc             	mov    %ecx,-0x34(%ebp)
    361d:	e8 ee 44 00 00       	call   7b10 <usb_str_direction>
    3622:	89 45 e0             	mov    %eax,-0x20(%ebp)
    3625:	8b 46 18             	mov    0x18(%esi),%eax
    3628:	8b 00                	mov    (%eax),%eax
    362a:	8b 40 10             	mov    0x10(%eax),%eax
    362d:	89 04 24             	mov    %eax,(%esp)
    3630:	e8 bb 44 00 00       	call   7af0 <usb_str_transfer_type_short>
    3635:	89 45 dc             	mov    %eax,-0x24(%ebp)
    3638:	8b 46 18             	mov    0x18(%esi),%eax
    363b:	8b 00                	mov    (%eax),%eax
    363d:	8b 40 14             	mov    0x14(%eax),%eax
    3640:	89 04 24             	mov    %eax,(%esp)
    3643:	e8 e8 44 00 00       	call   7b30 <usb_str_speed>
    3648:	89 c7                	mov    %eax,%edi
    364a:	8b 46 18             	mov    0x18(%esi),%eax
    364d:	8b 00                	mov    (%eax),%eax
    364f:	0f bf 50 0a          	movswl 0xa(%eax),%edx
    3653:	89 55 d8             	mov    %edx,-0x28(%ebp)
    3656:	8b 55 0c             	mov    0xc(%ebp),%edx
    3659:	0f bf 58 08          	movswl 0x8(%eax),%ebx
    365d:	89 14 24             	mov    %edx,(%esp)
    3660:	e8 ab 44 00 00       	call   7b10 <usb_str_direction>
    3665:	89 c2                	mov    %eax,%edx
    3667:	8b 46 18             	mov    0x18(%esi),%eax
    366a:	8b 00                	mov    (%eax),%eax
    366c:	8b 40 10             	mov    0x10(%eax),%eax
    366f:	89 55 c8             	mov    %edx,-0x38(%ebp)
    3672:	89 04 24             	mov    %eax,(%esp)
    3675:	e8 56 44 00 00       	call   7ad0 <usb_str_transfer_type>
    367a:	8b 4d cc             	mov    -0x34(%ebp),%ecx
    367d:	89 4c 24 30          	mov    %ecx,0x30(%esp)
    3681:	8b 4d e4             	mov    -0x1c(%ebp),%ecx
    3684:	89 4c 24 2c          	mov    %ecx,0x2c(%esp)
    3688:	8b 4d e0             	mov    -0x20(%ebp),%ecx
    368b:	89 4c 24 28          	mov    %ecx,0x28(%esp)
    368f:	8b 4d dc             	mov    -0x24(%ebp),%ecx
    3692:	89 4c 24 24          	mov    %ecx,0x24(%esp)
    3696:	8b 55 c8             	mov    -0x38(%ebp),%edx
    3699:	8b 4d d8             	mov    -0x28(%ebp),%ecx
    369c:	89 7c 24 20          	mov    %edi,0x20(%esp)
    36a0:	89 5c 24 18          	mov    %ebx,0x18(%esp)
    36a4:	89 4c 24 1c          	mov    %ecx,0x1c(%esp)
    36a8:	89 54 24 14          	mov    %edx,0x14(%esp)
    36ac:	89 44 24 10          	mov    %eax,0x10(%esp)
    36b0:	8b 46 18             	mov    0x18(%esi),%eax
    36b3:	c7 44 24 08 18 d2 02 	movl   $0x2d218,0x8(%esp)
    36ba:	00 
    36bb:	89 44 24 0c          	mov    %eax,0xc(%esp)
    36bf:	c7 44 24 04 05 00 00 	movl   $0x5,0x4(%esp)
    36c6:	00 
    36c7:	c7 04 24 ff ff ff ff 	movl   $0xffffffff,(%esp)
    36ce:	e8 dd 4f 01 00       	call   186b0 <log_msg>
    36d3:	83 c4 6c             	add    $0x6c,%esp
    36d6:	5b                   	pop    %ebx
    36d7:	5e                   	pop    %esi
    36d8:	5f                   	pop    %edi
    36d9:	5d                   	pop    %ebp
    36da:	c3                   	ret    
    36db:	8b 46 10             	mov    0x10(%esi),%eax
    36de:	bb 01 00 00 00       	mov    $0x1,%ebx
    36e3:	8d 50 ff             	lea    -0x1(%eax),%edx
    36e6:	e9 9f fe ff ff       	jmp    358a <batch_control+0x1da>
    36eb:	c7 44 24 08 46 01 00 	movl   $0x146,0x8(%esp)
    36f2:	00 
    36f3:	c7 44 24 04 c7 d0 02 	movl   $0x2d0c7,0x4(%esp)
    36fa:	00 
    36fb:	c7 04 24 b0 d2 02 00 	movl   $0x2d2b0,(%esp)
    3702:	e8 a9 48 02 00       	call   27fb0 <assert_abort>
    3707:	c7 44 24 08 4b 01 00 	movl   $0x14b,0x8(%esp)
    370e:	00 
    370f:	c7 44 24 04 c7 d0 02 	movl   $0x2d0c7,0x4(%esp)
    3716:	00 
    3717:	c7 04 24 d8 d2 02 00 	movl   $0x2d2d8,(%esp)
    371e:	e8 8d 48 02 00       	call   27fb0 <assert_abort>
    3723:	c7 44 24 08 1a 01 00 	movl   $0x11a,0x8(%esp)
    372a:	00 
    372b:	c7 44 24 04 c7 d0 02 	movl   $0x2d0c7,0x4(%esp)
    3732:	00 
    3733:	c7 04 24 d4 d0 02 00 	movl   $0x2d0d4,(%esp)
    373a:	e8 71 48 02 00       	call   27fb0 <assert_abort>
    373f:	c7 44 24 08 1b 01 00 	movl   $0x11b,0x8(%esp)
    3746:	00 
    3747:	c7 44 24 04 c7 d0 02 	movl   $0x2d0c7,0x4(%esp)
    374e:	00 
    374f:	c7 04 24 df d0 02 00 	movl   $0x2d0df,(%esp)
    3756:	e8 55 48 02 00       	call   27fb0 <assert_abort>
    375b:	c7 44 24 08 1c 01 00 	movl   $0x11c,0x8(%esp)
    3762:	00 
    3763:	c7 44 24 04 c7 d0 02 	movl   $0x2d0c7,0x4(%esp)
    376a:	00 
    376b:	c7 04 24 74 d1 02 00 	movl   $0x2d174,(%esp)
    3772:	e8 39 48 02 00       	call   27fb0 <assert_abort>
    3777:	89 f6                	mov    %esi,%esi
    3779:	8d bc 27 00 00 00 00 	lea    0x0(%edi,%eiz,1),%edi

00003780 <ohci_transfer_batch_finish_dispose>:
    3780:	55                   	push   %ebp
    3781:	89 e5                	mov    %esp,%ebp
    3783:	57                   	push   %edi
    3784:	56                   	push   %esi
    3785:	53                   	push   %ebx
    3786:	83 ec 1c             	sub    $0x1c,%esp
    3789:	8b 7d 08             	mov    0x8(%ebp),%edi
    378c:	85 ff                	test   %edi,%edi
    378e:	0f 84 9c 00 00 00    	je     3830 <ohci_transfer_batch_finish_dispose+0xb0>
    3794:	8b 47 18             	mov    0x18(%edi),%eax
    3797:	85 c0                	test   %eax,%eax
    3799:	0f 84 ce 00 00 00    	je     386d <ohci_transfer_batch_finish_dispose+0xed>
    379f:	8b 50 2c             	mov    0x2c(%eax),%edx
    37a2:	89 54 24 0c          	mov    %edx,0xc(%esp)
    37a6:	8b 50 28             	mov    0x28(%eax),%edx
    37a9:	89 54 24 08          	mov    %edx,0x8(%esp)
    37ad:	8b 57 14             	mov    0x14(%edi),%edx
    37b0:	8b 58 20             	mov    0x20(%eax),%ebx
    37b3:	01 da                	add    %ebx,%edx
    37b5:	89 04 24             	mov    %eax,(%esp)
    37b8:	89 54 24 04          	mov    %edx,0x4(%esp)
    37bc:	e8 9f 40 00 00       	call   7860 <usb_transfer_batch_finish_error>
    37c1:	8b 57 0c             	mov    0xc(%edi),%edx
    37c4:	85 d2                	test   %edx,%edx
    37c6:	74 43                	je     380b <ohci_transfer_batch_finish_dispose+0x8b>
    37c8:	8b 47 18             	mov    0x18(%edi),%eax
    37cb:	8b 00                	mov    (%eax),%eax
    37cd:	85 c0                	test   %eax,%eax
    37cf:	0f 84 93 00 00 00    	je     3868 <ohci_transfer_batch_finish_dispose+0xe8>
    37d5:	8b 70 3c             	mov    0x3c(%eax),%esi
    37d8:	85 f6                	test   %esi,%esi
    37da:	74 70                	je     384c <ohci_transfer_batch_finish_dispose+0xcc>
    37dc:	8b 4f 10             	mov    0x10(%edi),%ecx
    37df:	31 db                	xor    %ebx,%ebx
    37e1:	85 c9                	test   %ecx,%ecx
    37e3:	74 1e                	je     3803 <ohci_transfer_batch_finish_dispose+0x83>
    37e5:	8d 76 00             	lea    0x0(%esi),%esi
    37e8:	8b 04 9a             	mov    (%edx,%ebx,4),%eax
    37eb:	3b 46 04             	cmp    0x4(%esi),%eax
    37ee:	74 0e                	je     37fe <ohci_transfer_batch_finish_dispose+0x7e>
    37f0:	89 04 24             	mov    %eax,(%esp)
    37f3:	e8 68 a0 01 00       	call   1d860 <free>
    37f8:	8b 57 0c             	mov    0xc(%edi),%edx
    37fb:	8b 4f 10             	mov    0x10(%edi),%ecx
    37fe:	43                   	inc    %ebx
    37ff:	39 cb                	cmp    %ecx,%ebx
    3801:	72 e5                	jb     37e8 <ohci_transfer_batch_finish_dispose+0x68>
    3803:	89 14 24             	mov    %edx,(%esp)
    3806:	e8 55 a0 01 00       	call   1d860 <free>
    380b:	8b 47 18             	mov    0x18(%edi),%eax
    380e:	89 04 24             	mov    %eax,(%esp)
    3811:	e8 5a 3f 00 00       	call   7770 <usb_transfer_batch_destroy>
    3816:	8b 47 14             	mov    0x14(%edi),%eax
    3819:	89 04 24             	mov    %eax,(%esp)
    381c:	e8 3f a0 01 00       	call   1d860 <free>
    3821:	89 7d 08             	mov    %edi,0x8(%ebp)
    3824:	83 c4 1c             	add    $0x1c,%esp
    3827:	5b                   	pop    %ebx
    3828:	5e                   	pop    %esi
    3829:	5f                   	pop    %edi
    382a:	5d                   	pop    %ebp
    382b:	e9 30 a0 01 00       	jmp    1d860 <free>
    3830:	c7 44 24 08 4c 00 00 	movl   $0x4c,0x8(%esp)
    3837:	00 
    3838:	c7 44 24 04 c7 d0 02 	movl   $0x2d0c7,0x4(%esp)
    383f:	00 
    3840:	c7 04 24 d4 d0 02 00 	movl   $0x2d0d4,(%esp)
    3847:	e8 64 47 02 00       	call   27fb0 <assert_abort>
    384c:	c7 44 24 08 3a 00 00 	movl   $0x3a,0x8(%esp)
    3853:	00 
    3854:	c7 44 24 04 c7 d0 02 	movl   $0x2d0c7,0x4(%esp)
    385b:	00 
    385c:	c7 04 24 a7 c9 02 00 	movl   $0x2c9a7,(%esp)
    3863:	e8 48 47 02 00       	call   27fb0 <assert_abort>
    3868:	e8 ed 09 00 00       	call   425a <ohci_endpoint_get.part.0>
    386d:	c7 44 24 08 4d 00 00 	movl   $0x4d,0x8(%esp)
    3874:	00 
    3875:	c7 44 24 04 c7 d0 02 	movl   $0x2d0c7,0x4(%esp)
    387c:	00 
    387d:	c7 04 24 df d0 02 00 	movl   $0x2d0df,(%esp)
    3884:	e8 27 47 02 00       	call   27fb0 <assert_abort>
    3889:	8d b4 26 00 00 00 00 	lea    0x0(%esi,%eiz,1),%esi

00003890 <ohci_transfer_batch_get>:
    3890:	55                   	push   %ebp
    3891:	89 e5                	mov    %esp,%ebp
    3893:	57                   	push   %edi
    3894:	56                   	push   %esi
    3895:	53                   	push   %ebx
    3896:	83 ec 2c             	sub    $0x2c,%esp
    3899:	8b 5d 08             	mov    0x8(%ebp),%ebx
    389c:	85 db                	test   %ebx,%ebx
    389e:	0f 84 44 04 00 00    	je     3ce8 <ohci_transfer_batch_get+0x458>
    38a4:	c7 44 24 04 1c 00 00 	movl   $0x1c,0x4(%esp)
    38ab:	00 
    38ac:	c7 04 24 01 00 00 00 	movl   $0x1,(%esp)
    38b3:	e8 38 9e 01 00       	call   1d6f0 <calloc>
    38b8:	89 c7                	mov    %eax,%edi
    38ba:	85 c0                	test   %eax,%eax
    38bc:	0f 84 ee 02 00 00    	je     3bb0 <ohci_transfer_batch_get+0x320>
    38c2:	8b 55 08             	mov    0x8(%ebp),%edx
    38c5:	c7 00 00 00 00 00    	movl   $0x0,(%eax)
    38cb:	c7 40 04 00 00 00 00 	movl   $0x0,0x4(%eax)
    38d2:	8b 52 14             	mov    0x14(%edx),%edx
    38d5:	89 d0                	mov    %edx,%eax
    38d7:	8b 55 08             	mov    0x8(%ebp),%edx
    38da:	05 ff 0f 00 00       	add    $0xfff,%eax
    38df:	c1 e8 0c             	shr    $0xc,%eax
    38e2:	8b 0a                	mov    (%edx),%ecx
    38e4:	89 47 10             	mov    %eax,0x10(%edi)
    38e7:	8b 49 10             	mov    0x10(%ecx),%ecx
    38ea:	85 c9                	test   %ecx,%ecx
    38ec:	0f 84 26 01 00 00    	je     3a18 <ohci_transfer_batch_get+0x188>
    38f2:	40                   	inc    %eax
    38f3:	c7 44 24 04 04 00 00 	movl   $0x4,0x4(%esp)
    38fa:	00 
    38fb:	89 04 24             	mov    %eax,(%esp)
    38fe:	e8 ed 9d 01 00       	call   1d6f0 <calloc>
    3903:	89 47 0c             	mov    %eax,0xc(%edi)
    3906:	85 c0                	test   %eax,%eax
    3908:	0f 84 36 02 00 00    	je     3b44 <ohci_transfer_batch_get+0x2b4>
    390e:	8b 55 08             	mov    0x8(%ebp),%edx
    3911:	8b 0a                	mov    (%edx),%ecx
    3913:	85 c9                	test   %ecx,%ecx
    3915:	0f 84 c8 03 00 00    	je     3ce3 <ohci_transfer_batch_get+0x453>
    391b:	8b 49 3c             	mov    0x3c(%ecx),%ecx
    391e:	8b 57 10             	mov    0x10(%edi),%edx
    3921:	85 d2                	test   %edx,%edx
    3923:	8b 19                	mov    (%ecx),%ebx
    3925:	8b 49 04             	mov    0x4(%ecx),%ecx
    3928:	89 5f 08             	mov    %ebx,0x8(%edi)
    392b:	89 08                	mov    %ecx,(%eax)
    392d:	bb 01 00 00 00       	mov    $0x1,%ebx
    3932:	75 16                	jne    394a <ohci_transfer_batch_get+0xba>
    3934:	e9 ef 00 00 00       	jmp    3a28 <ohci_transfer_batch_get+0x198>
    3939:	8d b4 26 00 00 00 00 	lea    0x0(%esi,%eiz,1),%esi
    3940:	43                   	inc    %ebx
    3941:	39 5f 10             	cmp    %ebx,0x10(%edi)
    3944:	0f 82 de 00 00 00    	jb     3a28 <ohci_transfer_batch_get+0x198>
    394a:	8d 34 9d 00 00 00 00 	lea    0x0(,%ebx,4),%esi
    3951:	c7 44 24 04 10 00 00 	movl   $0x10,0x4(%esp)
    3958:	00 
    3959:	01 f0                	add    %esi,%eax
    395b:	c7 04 24 20 00 00 00 	movl   $0x20,(%esp)
    3962:	89 45 e4             	mov    %eax,-0x1c(%ebp)
    3965:	e8 26 9e 01 00       	call   1d790 <memalign>
    396a:	8b 55 e4             	mov    -0x1c(%ebp),%edx
    396d:	89 02                	mov    %eax,(%edx)
    396f:	8b 47 0c             	mov    0xc(%edi),%eax
    3972:	8b 34 30             	mov    (%eax,%esi,1),%esi
    3975:	85 f6                	test   %esi,%esi
    3977:	75 c7                	jne    3940 <ohci_transfer_batch_get+0xb0>
    3979:	89 5c 24 0c          	mov    %ebx,0xc(%esp)
    397d:	c7 44 24 08 05 d1 02 	movl   $0x2d105,0x8(%esp)
    3984:	00 
    3985:	c7 44 24 04 01 00 00 	movl   $0x1,0x4(%esp)
    398c:	00 
    398d:	c7 04 24 ff ff ff ff 	movl   $0xffffffff,(%esp)
    3994:	e8 17 4d 01 00       	call   186b0 <log_msg>
    3999:	8b 4f 0c             	mov    0xc(%edi),%ecx
    399c:	85 c9                	test   %ecx,%ecx
    399e:	74 4b                	je     39eb <ohci_transfer_batch_get+0x15b>
    39a0:	8b 47 18             	mov    0x18(%edi),%eax
    39a3:	8b 00                	mov    (%eax),%eax
    39a5:	85 c0                	test   %eax,%eax
    39a7:	0f 84 36 03 00 00    	je     3ce3 <ohci_transfer_batch_get+0x453>
    39ad:	8b 70 3c             	mov    0x3c(%eax),%esi
    39b0:	85 f6                	test   %esi,%esi
    39b2:	0f 84 4c 03 00 00    	je     3d04 <ohci_transfer_batch_get+0x474>
    39b8:	8b 57 10             	mov    0x10(%edi),%edx
    39bb:	85 d2                	test   %edx,%edx
    39bd:	74 24                	je     39e3 <ohci_transfer_batch_get+0x153>
    39bf:	31 db                	xor    %ebx,%ebx
    39c1:	8d b4 26 00 00 00 00 	lea    0x0(%esi,%eiz,1),%esi
    39c8:	8b 04 99             	mov    (%ecx,%ebx,4),%eax
    39cb:	3b 46 04             	cmp    0x4(%esi),%eax
    39ce:	74 0e                	je     39de <ohci_transfer_batch_get+0x14e>
    39d0:	89 04 24             	mov    %eax,(%esp)
    39d3:	e8 88 9e 01 00       	call   1d860 <free>
    39d8:	8b 4f 0c             	mov    0xc(%edi),%ecx
    39db:	8b 57 10             	mov    0x10(%edi),%edx
    39de:	43                   	inc    %ebx
    39df:	39 d3                	cmp    %edx,%ebx
    39e1:	72 e5                	jb     39c8 <ohci_transfer_batch_get+0x138>
    39e3:	89 0c 24             	mov    %ecx,(%esp)
    39e6:	e8 75 9e 01 00       	call   1d860 <free>
    39eb:	8b 47 18             	mov    0x18(%edi),%eax
    39ee:	89 04 24             	mov    %eax,(%esp)
    39f1:	e8 7a 3d 00 00       	call   7770 <usb_transfer_batch_destroy>
    39f6:	8b 47 14             	mov    0x14(%edi),%eax
    39f9:	89 04 24             	mov    %eax,(%esp)
    39fc:	e8 5f 9e 01 00       	call   1d860 <free>
    3a01:	89 3c 24             	mov    %edi,(%esp)
    3a04:	e8 57 9e 01 00       	call   1d860 <free>
    3a09:	31 ff                	xor    %edi,%edi
    3a0b:	83 c4 2c             	add    $0x2c,%esp
    3a0e:	89 f8                	mov    %edi,%eax
    3a10:	5b                   	pop    %ebx
    3a11:	5e                   	pop    %esi
    3a12:	5f                   	pop    %edi
    3a13:	5d                   	pop    %ebp
    3a14:	c3                   	ret    
    3a15:	8d 76 00             	lea    0x0(%esi),%esi
    3a18:	83 c0 02             	add    $0x2,%eax
    3a1b:	89 47 10             	mov    %eax,0x10(%edi)
    3a1e:	e9 cf fe ff ff       	jmp    38f2 <ohci_transfer_batch_get+0x62>
    3a23:	90                   	nop
    3a24:	8d 74 26 00          	lea    0x0(%esi,%eiz,1),%esi
    3a28:	8b 55 08             	mov    0x8(%ebp),%edx
    3a2b:	8b 42 14             	mov    0x14(%edx),%eax
    3a2e:	03 42 20             	add    0x20(%edx),%eax
    3a31:	0f 84 b8 00 00 00    	je     3aef <ohci_transfer_batch_get+0x25f>
    3a37:	89 44 24 04          	mov    %eax,0x4(%esp)
    3a3b:	c7 04 24 20 00 00 00 	movl   $0x20,(%esp)
    3a42:	e8 49 9d 01 00       	call   1d790 <memalign>
    3a47:	89 47 14             	mov    %eax,0x14(%edi)
    3a4a:	85 c0                	test   %eax,%eax
    3a4c:	0f 84 8f 01 00 00    	je     3be1 <ohci_transfer_batch_get+0x351>
    3a52:	8b 55 08             	mov    0x8(%ebp),%edx
    3a55:	8b 4a 20             	mov    0x20(%edx),%ecx
    3a58:	89 04 24             	mov    %eax,(%esp)
    3a5b:	89 4c 24 08          	mov    %ecx,0x8(%esp)
    3a5f:	89 d1                	mov    %edx,%ecx
    3a61:	83 c1 18             	add    $0x18,%ecx
    3a64:	89 4c 24 04          	mov    %ecx,0x4(%esp)
    3a68:	e8 23 c9 00 00       	call   10390 <memcpy>
    3a6d:	8b 55 08             	mov    0x8(%ebp),%edx
    3a70:	8b 02                	mov    (%edx),%eax
    3a72:	8b 58 0c             	mov    0xc(%eax),%ebx
    3a75:	85 db                	test   %ebx,%ebx
    3a77:	75 58                	jne    3ad1 <ohci_transfer_batch_get+0x241>
    3a79:	8b 42 04             	mov    0x4(%edx),%eax
    3a7c:	89 57 18             	mov    %edx,0x18(%edi)
    3a7f:	85 c0                	test   %eax,%eax
    3a81:	74 7b                	je     3afe <ohci_transfer_batch_get+0x26e>
    3a83:	8b 42 08             	mov    0x8(%edx),%eax
    3a86:	85 c0                	test   %eax,%eax
    3a88:	0f 85 01 02 00 00    	jne    3c8f <ohci_transfer_batch_get+0x3ff>
    3a8e:	8b 55 08             	mov    0x8(%ebp),%edx
    3a91:	8b 02                	mov    (%edx),%eax
    3a93:	85 c0                	test   %eax,%eax
    3a95:	0f 84 9c 00 00 00    	je     3b37 <ohci_transfer_batch_get+0x2a7>
    3a9b:	8b 48 10             	mov    0x10(%eax),%ecx
    3a9e:	85 c9                	test   %ecx,%ecx
    3aa0:	74 56                	je     3af8 <ohci_transfer_batch_get+0x268>
    3aa2:	8b 40 0c             	mov    0xc(%eax),%eax
    3aa5:	85 c0                	test   %eax,%eax
    3aa7:	0f 85 fe 01 00 00    	jne    3cab <ohci_transfer_batch_get+0x41b>
    3aad:	31 db                	xor    %ebx,%ebx
    3aaf:	8b 04 8d 00 d7 02 00 	mov    0x2d700(,%ecx,4),%eax
    3ab6:	85 c0                	test   %eax,%eax
    3ab8:	0f 84 b5 01 00 00    	je     3c73 <ohci_transfer_batch_get+0x3e3>
    3abe:	89 5c 24 04          	mov    %ebx,0x4(%esp)
    3ac2:	89 3c 24             	mov    %edi,(%esp)
    3ac5:	ff d0                	call   *%eax
    3ac7:	83 c4 2c             	add    $0x2c,%esp
    3aca:	89 f8                	mov    %edi,%eax
    3acc:	5b                   	pop    %ebx
    3acd:	5e                   	pop    %esi
    3ace:	5f                   	pop    %edi
    3acf:	5d                   	pop    %ebp
    3ad0:	c3                   	ret    
    3ad1:	8b 42 14             	mov    0x14(%edx),%eax
    3ad4:	89 44 24 08          	mov    %eax,0x8(%esp)
    3ad8:	8b 42 10             	mov    0x10(%edx),%eax
    3adb:	89 44 24 04          	mov    %eax,0x4(%esp)
    3adf:	8b 47 14             	mov    0x14(%edi),%eax
    3ae2:	8b 4a 20             	mov    0x20(%edx),%ecx
    3ae5:	01 c8                	add    %ecx,%eax
    3ae7:	89 04 24             	mov    %eax,(%esp)
    3aea:	e8 a1 c8 00 00       	call   10390 <memcpy>
    3aef:	8b 55 08             	mov    0x8(%ebp),%edx
    3af2:	eb 85                	jmp    3a79 <ohci_transfer_batch_get+0x1e9>
    3af4:	8d 74 26 00          	lea    0x0(%esi,%eiz,1),%esi
    3af8:	31 c9                	xor    %ecx,%ecx
    3afa:	31 db                	xor    %ebx,%ebx
    3afc:	eb b1                	jmp    3aaf <ohci_transfer_batch_get+0x21f>
    3afe:	8b 72 08             	mov    0x8(%edx),%esi
    3b01:	85 f6                	test   %esi,%esi
    3b03:	0f 84 be 01 00 00    	je     3cc7 <ohci_transfer_batch_get+0x437>
    3b09:	8b 02                	mov    (%edx),%eax
    3b0b:	85 c0                	test   %eax,%eax
    3b0d:	0f 84 be 00 00 00    	je     3bd1 <ohci_transfer_batch_get+0x341>
    3b13:	8b 48 10             	mov    0x10(%eax),%ecx
    3b16:	85 c9                	test   %ecx,%ecx
    3b18:	74 11                	je     3b2b <ohci_transfer_batch_get+0x29b>
    3b1a:	83 78 0c 01          	cmpl   $0x1,0xc(%eax)
    3b1e:	0f 85 33 01 00 00    	jne    3c57 <ohci_transfer_batch_get+0x3c7>
    3b24:	bb 01 00 00 00       	mov    $0x1,%ebx
    3b29:	eb 84                	jmp    3aaf <ohci_transfer_batch_get+0x21f>
    3b2b:	31 c9                	xor    %ecx,%ecx
    3b2d:	bb 01 00 00 00       	mov    $0x1,%ebx
    3b32:	e9 78 ff ff ff       	jmp    3aaf <ohci_transfer_batch_get+0x21f>
    3b37:	8b 0d 10 00 00 00    	mov    0x10,%ecx
    3b3d:	31 db                	xor    %ebx,%ebx
    3b3f:	e9 6b ff ff ff       	jmp    3aaf <ohci_transfer_batch_get+0x21f>
    3b44:	c7 44 24 08 5c d3 02 	movl   $0x2d35c,0x8(%esp)
    3b4b:	00 
    3b4c:	c7 44 24 04 01 00 00 	movl   $0x1,0x4(%esp)
    3b53:	00 
    3b54:	c7 04 24 ff ff ff ff 	movl   $0xffffffff,(%esp)
    3b5b:	e8 50 4b 01 00       	call   186b0 <log_msg>
    3b60:	8b 4f 0c             	mov    0xc(%edi),%ecx
    3b63:	85 c9                	test   %ecx,%ecx
    3b65:	0f 84 80 fe ff ff    	je     39eb <ohci_transfer_batch_get+0x15b>
    3b6b:	8b 47 18             	mov    0x18(%edi),%eax
    3b6e:	8b 00                	mov    (%eax),%eax
    3b70:	85 c0                	test   %eax,%eax
    3b72:	0f 84 6b 01 00 00    	je     3ce3 <ohci_transfer_batch_get+0x453>
    3b78:	8b 70 3c             	mov    0x3c(%eax),%esi
    3b7b:	85 f6                	test   %esi,%esi
    3b7d:	0f 84 81 01 00 00    	je     3d04 <ohci_transfer_batch_get+0x474>
    3b83:	8b 57 10             	mov    0x10(%edi),%edx
    3b86:	31 db                	xor    %ebx,%ebx
    3b88:	85 d2                	test   %edx,%edx
    3b8a:	0f 84 53 fe ff ff    	je     39e3 <ohci_transfer_batch_get+0x153>
    3b90:	8b 04 99             	mov    (%ecx,%ebx,4),%eax
    3b93:	3b 46 04             	cmp    0x4(%esi),%eax
    3b96:	74 0e                	je     3ba6 <ohci_transfer_batch_get+0x316>
    3b98:	89 04 24             	mov    %eax,(%esp)
    3b9b:	e8 c0 9c 01 00       	call   1d860 <free>
    3ba0:	8b 4f 0c             	mov    0xc(%edi),%ecx
    3ba3:	8b 57 10             	mov    0x10(%edi),%edx
    3ba6:	43                   	inc    %ebx
    3ba7:	39 d3                	cmp    %edx,%ebx
    3ba9:	72 e5                	jb     3b90 <ohci_transfer_batch_get+0x300>
    3bab:	e9 33 fe ff ff       	jmp    39e3 <ohci_transfer_batch_get+0x153>
    3bb0:	c7 44 24 08 34 d3 02 	movl   $0x2d334,0x8(%esp)
    3bb7:	00 
    3bb8:	c7 44 24 04 01 00 00 	movl   $0x1,0x4(%esp)
    3bbf:	00 
    3bc0:	c7 04 24 ff ff ff ff 	movl   $0xffffffff,(%esp)
    3bc7:	e8 e4 4a 01 00       	call   186b0 <log_msg>
    3bcc:	e9 3a fe ff ff       	jmp    3a0b <ohci_transfer_batch_get+0x17b>
    3bd1:	8b 0d 10 00 00 00    	mov    0x10,%ecx
    3bd7:	bb 01 00 00 00       	mov    $0x1,%ebx
    3bdc:	e9 ce fe ff ff       	jmp    3aaf <ohci_transfer_batch_get+0x21f>
    3be1:	c7 44 24 08 8c d3 02 	movl   $0x2d38c,0x8(%esp)
    3be8:	00 
    3be9:	c7 44 24 04 01 00 00 	movl   $0x1,0x4(%esp)
    3bf0:	00 
    3bf1:	c7 04 24 ff ff ff ff 	movl   $0xffffffff,(%esp)
    3bf8:	e8 b3 4a 01 00       	call   186b0 <log_msg>
    3bfd:	8b 47 0c             	mov    0xc(%edi),%eax
    3c00:	85 c0                	test   %eax,%eax
    3c02:	0f 84 e3 fd ff ff    	je     39eb <ohci_transfer_batch_get+0x15b>
    3c08:	8b 4f 18             	mov    0x18(%edi),%ecx
    3c0b:	8b 09                	mov    (%ecx),%ecx
    3c0d:	85 c9                	test   %ecx,%ecx
    3c0f:	0f 84 ce 00 00 00    	je     3ce3 <ohci_transfer_batch_get+0x453>
    3c15:	8b 51 3c             	mov    0x3c(%ecx),%edx
    3c18:	85 d2                	test   %edx,%edx
    3c1a:	0f 84 e4 00 00 00    	je     3d04 <ohci_transfer_batch_get+0x474>
    3c20:	8b 77 10             	mov    0x10(%edi),%esi
    3c23:	85 f6                	test   %esi,%esi
    3c25:	74 23                	je     3c4a <ohci_transfer_batch_get+0x3ba>
    3c27:	31 db                	xor    %ebx,%ebx
    3c29:	8b 0c 98             	mov    (%eax,%ebx,4),%ecx
    3c2c:	3b 4a 04             	cmp    0x4(%edx),%ecx
    3c2f:	74 14                	je     3c45 <ohci_transfer_batch_get+0x3b5>
    3c31:	89 0c 24             	mov    %ecx,(%esp)
    3c34:	89 55 dc             	mov    %edx,-0x24(%ebp)
    3c37:	e8 24 9c 01 00       	call   1d860 <free>
    3c3c:	8b 47 0c             	mov    0xc(%edi),%eax
    3c3f:	8b 77 10             	mov    0x10(%edi),%esi
    3c42:	8b 55 dc             	mov    -0x24(%ebp),%edx
    3c45:	43                   	inc    %ebx
    3c46:	39 f3                	cmp    %esi,%ebx
    3c48:	72 df                	jb     3c29 <ohci_transfer_batch_get+0x399>
    3c4a:	89 04 24             	mov    %eax,(%esp)
    3c4d:	e8 0e 9c 01 00       	call   1d860 <free>
    3c52:	e9 94 fd ff ff       	jmp    39eb <ohci_transfer_batch_get+0x15b>
    3c57:	c7 44 24 08 98 00 00 	movl   $0x98,0x8(%esp)
    3c5e:	00 
    3c5f:	c7 44 24 04 bc d3 02 	movl   $0x2d3bc,0x4(%esp)
    3c66:	00 
    3c67:	c7 04 24 98 d4 02 00 	movl   $0x2d498,(%esp)
    3c6e:	e8 3d 43 02 00       	call   27fb0 <assert_abort>
    3c73:	c7 44 24 08 9a 00 00 	movl   $0x9a,0x8(%esp)
    3c7a:	00 
    3c7b:	c7 44 24 04 c7 d0 02 	movl   $0x2d0c7,0x4(%esp)
    3c82:	00 
    3c83:	c7 04 24 14 d5 02 00 	movl   $0x2d514,(%esp)
    3c8a:	e8 21 43 02 00       	call   27fb0 <assert_abort>
    3c8f:	c7 44 24 08 8e 00 00 	movl   $0x8e,0x8(%esp)
    3c96:	00 
    3c97:	c7 44 24 04 bc d3 02 	movl   $0x2d3bc,0x4(%esp)
    3c9e:	00 
    3c9f:	c7 04 24 fc d3 02 00 	movl   $0x2d3fc,(%esp)
    3ca6:	e8 05 43 02 00       	call   27fb0 <assert_abort>
    3cab:	c7 44 24 08 91 00 00 	movl   $0x91,0x8(%esp)
    3cb2:	00 
    3cb3:	c7 44 24 04 bc d3 02 	movl   $0x2d3bc,0x4(%esp)
    3cba:	00 
    3cbb:	c7 04 24 1c d4 02 00 	movl   $0x2d41c,(%esp)
    3cc2:	e8 e9 42 02 00       	call   27fb0 <assert_abort>
    3cc7:	c7 44 24 08 9b 00 00 	movl   $0x9b,0x8(%esp)
    3cce:	00 
    3ccf:	c7 44 24 04 bc d3 02 	movl   $0x2d3bc,0x4(%esp)
    3cd6:	00 
    3cd7:	c7 04 24 2e e5 02 00 	movl   $0x2e52e,(%esp)
    3cde:	e8 cd 42 02 00       	call   27fb0 <assert_abort>
    3ce3:	e8 72 05 00 00       	call   425a <ohci_endpoint_get.part.0>
    3ce8:	c7 44 24 08 5f 00 00 	movl   $0x5f,0x8(%esp)
    3cef:	00 
    3cf0:	c7 44 24 04 c7 d0 02 	movl   $0x2d0c7,0x4(%esp)
    3cf7:	00 
    3cf8:	c7 04 24 eb d0 02 00 	movl   $0x2d0eb,(%esp)
    3cff:	e8 ac 42 02 00       	call   27fb0 <assert_abort>
    3d04:	c7 44 24 08 3a 00 00 	movl   $0x3a,0x8(%esp)
    3d0b:	00 
    3d0c:	c7 44 24 04 c7 d0 02 	movl   $0x2d0c7,0x4(%esp)
    3d13:	00 
    3d14:	c7 04 24 a7 c9 02 00 	movl   $0x2c9a7,(%esp)
    3d1b:	e8 90 42 02 00       	call   27fb0 <assert_abort>

00003d20 <ohci_transfer_batch_is_complete>:
    3d20:	55                   	push   %ebp
    3d21:	89 e5                	mov    %esp,%ebp
    3d23:	57                   	push   %edi
    3d24:	56                   	push   %esi
    3d25:	53                   	push   %ebx
    3d26:	83 ec 4c             	sub    $0x4c,%esp
    3d29:	8b 7d 08             	mov    0x8(%ebp),%edi
    3d2c:	85 ff                	test   %edi,%edi
    3d2e:	0f 84 9e 03 00 00    	je     40d2 <ohci_transfer_batch_is_complete+0x3b2>
    3d34:	8b 47 18             	mov    0x18(%edi),%eax
    3d37:	85 c0                	test   %eax,%eax
    3d39:	0f 84 77 03 00 00    	je     40b6 <ohci_transfer_batch_is_complete+0x396>
    3d3f:	8b 57 10             	mov    0x10(%edi),%edx
    3d42:	89 44 24 0c          	mov    %eax,0xc(%esp)
    3d46:	89 54 24 10          	mov    %edx,0x10(%esp)
    3d4a:	c7 44 24 08 40 d5 02 	movl   $0x2d540,0x8(%esp)
    3d51:	00 
    3d52:	c7 44 24 04 04 00 00 	movl   $0x4,0x4(%esp)
    3d59:	00 
    3d5a:	c7 04 24 ff ff ff ff 	movl   $0xffffffff,(%esp)
    3d61:	e8 4a 49 01 00       	call   186b0 <log_msg>
    3d66:	8b 47 08             	mov    0x8(%edi),%eax
    3d69:	8b 58 0c             	mov    0xc(%eax),%ebx
    3d6c:	8b 48 04             	mov    0x4(%eax),%ecx
    3d6f:	8b 50 08             	mov    0x8(%eax),%edx
    3d72:	8b 00                	mov    (%eax),%eax
    3d74:	89 44 24 0c          	mov    %eax,0xc(%esp)
    3d78:	89 5c 24 18          	mov    %ebx,0x18(%esp)
    3d7c:	89 4c 24 14          	mov    %ecx,0x14(%esp)
    3d80:	89 54 24 10          	mov    %edx,0x10(%esp)
    3d84:	c7 44 24 08 20 d1 02 	movl   $0x2d120,0x8(%esp)
    3d8b:	00 
    3d8c:	c7 44 24 04 05 00 00 	movl   $0x5,0x4(%esp)
    3d93:	00 
    3d94:	c7 04 24 ff ff ff ff 	movl   $0xffffffff,(%esp)
    3d9b:	e8 10 49 01 00       	call   186b0 <log_msg>
    3da0:	8b 47 08             	mov    0x8(%edi),%eax
    3da3:	85 c0                	test   %eax,%eax
    3da5:	0f 84 ef 02 00 00    	je     409a <ohci_transfer_batch_is_complete+0x37a>
    3dab:	8b 50 08             	mov    0x8(%eax),%edx
    3dae:	83 e2 01             	and    $0x1,%edx
    3db1:	75 18                	jne    3dcb <ohci_transfer_batch_is_complete+0xab>
    3db3:	8b 10                	mov    (%eax),%edx
    3db5:	80 e6 40             	and    $0x40,%dh
    3db8:	75 11                	jne    3dcb <ohci_transfer_batch_is_complete+0xab>
    3dba:	8b 50 08             	mov    0x8(%eax),%edx
    3dbd:	8b 40 04             	mov    0x4(%eax),%eax
    3dc0:	31 d0                	xor    %edx,%eax
    3dc2:	83 e0 f0             	and    $0xfffffff0,%eax
    3dc5:	0f 85 4d 02 00 00    	jne    4018 <ohci_transfer_batch_is_complete+0x2f8>
    3dcb:	8b 57 18             	mov    0x18(%edi),%edx
    3dce:	8b 4f 10             	mov    0x10(%edi),%ecx
    3dd1:	89 4d cc             	mov    %ecx,-0x34(%ebp)
    3dd4:	85 c9                	test   %ecx,%ecx
    3dd6:	8b 42 14             	mov    0x14(%edx),%eax
    3dd9:	89 42 28             	mov    %eax,0x28(%edx)
    3ddc:	0f 84 95 01 00 00    	je     3f77 <ohci_transfer_batch_is_complete+0x257>
    3de2:	8b 47 0c             	mov    0xc(%edi),%eax
    3de5:	8b 00                	mov    (%eax),%eax
    3de7:	85 c0                	test   %eax,%eax
    3de9:	0f 84 33 02 00 00    	je     4022 <ohci_transfer_batch_is_complete+0x302>
    3def:	31 f6                	xor    %esi,%esi
    3df1:	31 db                	xor    %ebx,%ebx
    3df3:	89 7d d4             	mov    %edi,-0x2c(%ebp)
    3df6:	eb 53                	jmp    3e4b <ohci_transfer_batch_is_complete+0x12b>
    3df8:	8b 0c 8d 20 d7 02 00 	mov    0x2d720(,%ecx,4),%ecx
    3dff:	89 4a 2c             	mov    %ecx,0x2c(%edx)
    3e02:	85 c9                	test   %ecx,%ecx
    3e04:	0f 85 6c 02 00 00    	jne    4076 <ohci_transfer_batch_is_complete+0x356>
    3e0a:	8b 4a 28             	mov    0x28(%edx),%ecx
    3e0d:	8b 70 04             	mov    0x4(%eax),%esi
    3e10:	89 4d d0             	mov    %ecx,-0x30(%ebp)
    3e13:	31 c9                	xor    %ecx,%ecx
    3e15:	85 f6                	test   %esi,%esi
    3e17:	74 09                	je     3e22 <ohci_transfer_batch_is_complete+0x102>
    3e19:	8b 48 0c             	mov    0xc(%eax),%ecx
    3e1c:	8b 40 04             	mov    0x4(%eax),%eax
    3e1f:	41                   	inc    %ecx
    3e20:	29 c1                	sub    %eax,%ecx
    3e22:	8b 45 d0             	mov    -0x30(%ebp),%eax
    3e25:	43                   	inc    %ebx
    3e26:	29 c8                	sub    %ecx,%eax
    3e28:	89 c1                	mov    %eax,%ecx
    3e2a:	89 42 28             	mov    %eax,0x28(%edx)
    3e2d:	8b 45 d4             	mov    -0x2c(%ebp),%eax
    3e30:	39 58 10             	cmp    %ebx,0x10(%eax)
    3e33:	0f 86 cf 01 00 00    	jbe    4008 <ohci_transfer_batch_is_complete+0x2e8>
    3e39:	8d 34 9d 00 00 00 00 	lea    0x0(,%ebx,4),%esi
    3e40:	8b 04 37             	mov    (%edi,%esi,1),%eax
    3e43:	85 c0                	test   %eax,%eax
    3e45:	0f 84 d7 01 00 00    	je     4022 <ohci_transfer_batch_is_complete+0x302>
    3e4b:	8b 78 0c             	mov    0xc(%eax),%edi
    3e4e:	8b 48 08             	mov    0x8(%eax),%ecx
    3e51:	8b 50 04             	mov    0x4(%eax),%edx
    3e54:	8b 00                	mov    (%eax),%eax
    3e56:	89 44 24 10          	mov    %eax,0x10(%esp)
    3e5a:	89 7c 24 1c          	mov    %edi,0x1c(%esp)
    3e5e:	89 54 24 14          	mov    %edx,0x14(%esp)
    3e62:	89 4c 24 18          	mov    %ecx,0x18(%esp)
    3e66:	89 5c 24 0c          	mov    %ebx,0xc(%esp)
    3e6a:	c7 44 24 08 55 d1 02 	movl   $0x2d155,0x8(%esp)
    3e71:	00 
    3e72:	c7 44 24 04 04 00 00 	movl   $0x4,0x4(%esp)
    3e79:	00 
    3e7a:	c7 04 24 ff ff ff ff 	movl   $0xffffffff,(%esp)
    3e81:	e8 2a 48 01 00       	call   186b0 <log_msg>
    3e86:	8b 45 d4             	mov    -0x2c(%ebp),%eax
    3e89:	8b 78 0c             	mov    0xc(%eax),%edi
    3e8c:	8b 50 18             	mov    0x18(%eax),%edx
    3e8f:	8b 04 37             	mov    (%edi,%esi,1),%eax
    3e92:	85 c0                	test   %eax,%eax
    3e94:	0f 84 a4 01 00 00    	je     403e <ohci_transfer_batch_is_complete+0x31e>
    3e9a:	8b 08                	mov    (%eax),%ecx
    3e9c:	c1 e9 1c             	shr    $0x1c,%ecx
    3e9f:	83 f9 0d             	cmp    $0xd,%ecx
    3ea2:	0f 86 50 ff ff ff    	jbe    3df8 <ohci_transfer_batch_is_complete+0xd8>
    3ea8:	8b 7d d4             	mov    -0x2c(%ebp),%edi
    3eab:	c7 42 2c f5 ff ff ff 	movl   $0xfffffff5,0x2c(%edx)
    3eb2:	8b 00                	mov    (%eax),%eax
    3eb4:	89 54 24 0c          	mov    %edx,0xc(%esp)
    3eb8:	89 44 24 14          	mov    %eax,0x14(%esp)
    3ebc:	89 5c 24 10          	mov    %ebx,0x10(%esp)
    3ec0:	c7 44 24 08 90 d5 02 	movl   $0x2d590,0x8(%esp)
    3ec7:	00 
    3ec8:	c7 44 24 04 04 00 00 	movl   $0x4,0x4(%esp)
    3ecf:	00 
    3ed0:	c7 04 24 ff ff ff ff 	movl   $0xffffffff,(%esp)
    3ed7:	e8 d4 47 01 00       	call   186b0 <log_msg>
    3edc:	8b 47 08             	mov    0x8(%edi),%eax
    3edf:	8b 50 08             	mov    0x8(%eax),%edx
    3ee2:	83 e2 01             	and    $0x1,%edx
    3ee5:	0f 84 93 01 00 00    	je     407e <ohci_transfer_batch_is_complete+0x35e>
    3eeb:	43                   	inc    %ebx
    3eec:	8b 70 08             	mov    0x8(%eax),%esi
    3eef:	89 5d cc             	mov    %ebx,-0x34(%ebp)
    3ef2:	89 d9                	mov    %ebx,%ecx
    3ef4:	8d 5d e4             	lea    -0x1c(%ebp),%ebx
    3ef7:	83 e6 f0             	and    $0xfffffff0,%esi
    3efa:	c1 e1 02             	shl    $0x2,%ecx
    3efd:	89 5c 24 04          	mov    %ebx,0x4(%esp)
    3f01:	8b 47 0c             	mov    0xc(%edi),%eax
    3f04:	8b 04 08             	mov    (%eax,%ecx,1),%eax
    3f07:	89 4d c8             	mov    %ecx,-0x38(%ebp)
    3f0a:	89 04 24             	mov    %eax,(%esp)
    3f0d:	e8 1e a0 00 00       	call   df30 <as_get_physical_mapping>
    3f12:	31 d2                	xor    %edx,%edx
    3f14:	8b 4d c8             	mov    -0x38(%ebp),%ecx
    3f17:	85 c0                	test   %eax,%eax
    3f19:	75 03                	jne    3f1e <ohci_transfer_batch_is_complete+0x1fe>
    3f1b:	8b 55 e4             	mov    -0x1c(%ebp),%edx
    3f1e:	39 d6                	cmp    %edx,%esi
    3f20:	0f 85 59 02 00 00    	jne    417f <ohci_transfer_batch_is_complete+0x45f>
    3f26:	8b 47 0c             	mov    0xc(%edi),%eax
    3f29:	8b 77 08             	mov    0x8(%edi),%esi
    3f2c:	85 f6                	test   %esi,%esi
    3f2e:	8b 04 08             	mov    (%eax,%ecx,1),%eax
    3f31:	0f 84 64 02 00 00    	je     419b <ohci_transfer_batch_is_complete+0x47b>
    3f37:	89 5c 24 04          	mov    %ebx,0x4(%esp)
    3f3b:	89 04 24             	mov    %eax,(%esp)
    3f3e:	e8 ed 9f 00 00       	call   df30 <as_get_physical_mapping>
    3f43:	31 d2                	xor    %edx,%edx
    3f45:	85 c0                	test   %eax,%eax
    3f47:	75 06                	jne    3f4f <ohci_transfer_batch_is_complete+0x22f>
    3f49:	8b 55 e4             	mov    -0x1c(%ebp),%edx
    3f4c:	83 e2 f0             	and    $0xfffffff0,%edx
    3f4f:	8b 47 08             	mov    0x8(%edi),%eax
    3f52:	89 56 04             	mov    %edx,0x4(%esi)
    3f55:	85 c0                	test   %eax,%eax
    3f57:	0f 84 5a 02 00 00    	je     41b7 <ohci_transfer_batch_is_complete+0x497>
    3f5d:	8b 50 08             	mov    0x8(%eax),%edx
    3f60:	83 e2 fe             	and    $0xfffffffe,%edx
    3f63:	89 50 08             	mov    %edx,0x8(%eax)
    3f66:	8b 57 18             	mov    0x18(%edi),%edx
    3f69:	8b 4a 28             	mov    0x28(%edx),%ecx
    3f6c:	8b 42 14             	mov    0x14(%edx),%eax
    3f6f:	39 c8                	cmp    %ecx,%eax
    3f71:	0f 82 e3 00 00 00    	jb     405a <ohci_transfer_batch_is_complete+0x33a>
    3f77:	8b 02                	mov    (%edx),%eax
    3f79:	85 c0                	test   %eax,%eax
    3f7b:	0f 84 f9 01 00 00    	je     417a <ohci_transfer_batch_is_complete+0x45a>
    3f81:	8b 70 3c             	mov    0x3c(%eax),%esi
    3f84:	85 f6                	test   %esi,%esi
    3f86:	0f 84 d2 01 00 00    	je     415e <ohci_transfer_batch_is_complete+0x43e>
    3f8c:	8b 47 0c             	mov    0xc(%edi),%eax
    3f8f:	8b 55 cc             	mov    -0x34(%ebp),%edx
    3f92:	8d 5d e4             	lea    -0x1c(%ebp),%ebx
    3f95:	8b 04 90             	mov    (%eax,%edx,4),%eax
    3f98:	89 46 04             	mov    %eax,0x4(%esi)
    3f9b:	89 5c 24 04          	mov    %ebx,0x4(%esp)
    3f9f:	89 04 24             	mov    %eax,(%esp)
    3fa2:	e8 89 9f 00 00       	call   df30 <as_get_physical_mapping>
    3fa7:	31 d2                	xor    %edx,%edx
    3fa9:	85 c0                	test   %eax,%eax
    3fab:	75 03                	jne    3fb0 <ohci_transfer_batch_is_complete+0x290>
    3fad:	8b 55 e4             	mov    -0x1c(%ebp),%edx
    3fb0:	8b 47 08             	mov    0x8(%edi),%eax
    3fb3:	85 c0                	test   %eax,%eax
    3fb5:	0f 84 87 01 00 00    	je     4142 <ohci_transfer_batch_is_complete+0x422>
    3fbb:	8b 40 08             	mov    0x8(%eax),%eax
    3fbe:	83 e0 f0             	and    $0xfffffff0,%eax
    3fc1:	39 c2                	cmp    %eax,%edx
    3fc3:	0f 85 5d 01 00 00    	jne    4126 <ohci_transfer_batch_is_complete+0x406>
    3fc9:	89 5c 24 04          	mov    %ebx,0x4(%esp)
    3fcd:	8b 46 04             	mov    0x4(%esi),%eax
    3fd0:	89 04 24             	mov    %eax,(%esp)
    3fd3:	e8 58 9f 00 00       	call   df30 <as_get_physical_mapping>
    3fd8:	31 d2                	xor    %edx,%edx
    3fda:	85 c0                	test   %eax,%eax
    3fdc:	75 03                	jne    3fe1 <ohci_transfer_batch_is_complete+0x2c1>
    3fde:	8b 55 e4             	mov    -0x1c(%ebp),%edx
    3fe1:	8b 47 08             	mov    0x8(%edi),%eax
    3fe4:	85 c0                	test   %eax,%eax
    3fe6:	0f 84 1e 01 00 00    	je     410a <ohci_transfer_batch_is_complete+0x3ea>
    3fec:	8b 40 04             	mov    0x4(%eax),%eax
    3fef:	83 e0 f0             	and    $0xfffffff0,%eax
    3ff2:	39 c2                	cmp    %eax,%edx
    3ff4:	0f 85 f4 00 00 00    	jne    40ee <ohci_transfer_batch_is_complete+0x3ce>
    3ffa:	83 c4 4c             	add    $0x4c,%esp
    3ffd:	b0 01                	mov    $0x1,%al
    3fff:	5b                   	pop    %ebx
    4000:	5e                   	pop    %esi
    4001:	5f                   	pop    %edi
    4002:	5d                   	pop    %ebp
    4003:	c3                   	ret    
    4004:	8d 74 26 00          	lea    0x0(%esi,%eiz,1),%esi
    4008:	89 c7                	mov    %eax,%edi
    400a:	8b 42 14             	mov    0x14(%edx),%eax
    400d:	e9 5d ff ff ff       	jmp    3f6f <ohci_transfer_batch_is_complete+0x24f>
    4012:	8d b6 00 00 00 00    	lea    0x0(%esi),%esi
    4018:	83 c4 4c             	add    $0x4c,%esp
    401b:	31 c0                	xor    %eax,%eax
    401d:	5b                   	pop    %ebx
    401e:	5e                   	pop    %esi
    401f:	5f                   	pop    %edi
    4020:	5d                   	pop    %ebp
    4021:	c3                   	ret    
    4022:	c7 44 24 08 c4 00 00 	movl   $0xc4,0x8(%esp)
    4029:	00 
    402a:	c7 44 24 04 c7 d0 02 	movl   $0x2d0c7,0x4(%esp)
    4031:	00 
    4032:	c7 04 24 3a d1 02 00 	movl   $0x2d13a,(%esp)
    4039:	e8 72 3f 02 00       	call   27fb0 <assert_abort>
    403e:	c7 44 24 08 78 00 00 	movl   $0x78,0x8(%esp)
    4045:	00 
    4046:	c7 44 24 04 70 d5 02 	movl   $0x2d570,0x4(%esp)
    404d:	00 
    404e:	c7 04 24 52 c6 02 00 	movl   $0x2c652,(%esp)
    4055:	e8 56 3f 02 00       	call   27fb0 <assert_abort>
    405a:	c7 44 24 08 f7 00 00 	movl   $0xf7,0x8(%esp)
    4061:	00 
    4062:	c7 44 24 04 c7 d0 02 	movl   $0x2d0c7,0x4(%esp)
    4069:	00 
    406a:	c7 04 24 34 d6 02 00 	movl   $0x2d634,(%esp)
    4071:	e8 3a 3f 02 00       	call   27fb0 <assert_abort>
    4076:	8b 7d d4             	mov    -0x2c(%ebp),%edi
    4079:	e9 34 fe ff ff       	jmp    3eb2 <ohci_transfer_batch_is_complete+0x192>
    407e:	c7 44 24 08 df 00 00 	movl   $0xdf,0x8(%esp)
    4085:	00 
    4086:	c7 44 24 04 c7 d0 02 	movl   $0x2d0c7,0x4(%esp)
    408d:	00 
    408e:	c7 04 24 b4 d5 02 00 	movl   $0x2d5b4,(%esp)
    4095:	e8 16 3f 02 00       	call   27fb0 <assert_abort>
    409a:	c7 44 24 08 76 00 00 	movl   $0x76,0x8(%esp)
    40a1:	00 
    40a2:	c7 44 24 04 d8 c6 02 	movl   $0x2c6d8,0x4(%esp)
    40a9:	00 
    40aa:	c7 04 24 52 c6 02 00 	movl   $0x2c652,(%esp)
    40b1:	e8 fa 3e 02 00       	call   27fb0 <assert_abort>
    40b6:	c7 44 24 08 ad 00 00 	movl   $0xad,0x8(%esp)
    40bd:	00 
    40be:	c7 44 24 04 c7 d0 02 	movl   $0x2d0c7,0x4(%esp)
    40c5:	00 
    40c6:	c7 04 24 df d0 02 00 	movl   $0x2d0df,(%esp)
    40cd:	e8 de 3e 02 00       	call   27fb0 <assert_abort>
    40d2:	c7 44 24 08 ac 00 00 	movl   $0xac,0x8(%esp)
    40d9:	00 
    40da:	c7 44 24 04 c7 d0 02 	movl   $0x2d0c7,0x4(%esp)
    40e1:	00 
    40e2:	c7 04 24 d4 d0 02 00 	movl   $0x2d0d4,(%esp)
    40e9:	e8 c2 3e 02 00       	call   27fb0 <assert_abort>
    40ee:	c7 44 24 08 00 01 00 	movl   $0x100,0x8(%esp)
    40f5:	00 
    40f6:	c7 44 24 04 c7 d0 02 	movl   $0x2d0c7,0x4(%esp)
    40fd:	00 
    40fe:	c7 04 24 bc d6 02 00 	movl   $0x2d6bc,(%esp)
    4105:	e8 a6 3e 02 00       	call   27fb0 <assert_abort>
    410a:	c7 44 24 08 9b 00 00 	movl   $0x9b,0x8(%esp)
    4111:	00 
    4112:	c7 44 24 04 d8 c6 02 	movl   $0x2c6d8,0x4(%esp)
    4119:	00 
    411a:	c7 04 24 52 c6 02 00 	movl   $0x2c652,(%esp)
    4121:	e8 8a 3e 02 00       	call   27fb0 <assert_abort>
    4126:	c7 44 24 08 ff 00 00 	movl   $0xff,0x8(%esp)
    412d:	00 
    412e:	c7 44 24 04 c7 d0 02 	movl   $0x2d0c7,0x4(%esp)
    4135:	00 
    4136:	c7 04 24 84 d6 02 00 	movl   $0x2d684,(%esp)
    413d:	e8 6e 3e 02 00       	call   27fb0 <assert_abort>
    4142:	c7 44 24 08 a1 00 00 	movl   $0xa1,0x8(%esp)
    4149:	00 
    414a:	c7 44 24 04 d8 c6 02 	movl   $0x2c6d8,0x4(%esp)
    4151:	00 
    4152:	c7 04 24 52 c6 02 00 	movl   $0x2c652,(%esp)
    4159:	e8 52 3e 02 00       	call   27fb0 <assert_abort>
    415e:	c7 44 24 08 fb 00 00 	movl   $0xfb,0x8(%esp)
    4165:	00 
    4166:	c7 44 24 04 c7 d0 02 	movl   $0x2d0c7,0x4(%esp)
    416d:	00 
    416e:	c7 04 24 a7 c9 02 00 	movl   $0x2c9a7,(%esp)
    4175:	e8 36 3e 02 00       	call   27fb0 <assert_abort>
    417a:	e8 db 00 00 00       	call   425a <ohci_endpoint_get.part.0>
    417f:	c7 44 24 08 eb 00 00 	movl   $0xeb,0x8(%esp)
    4186:	00 
    4187:	c7 44 24 04 c7 d0 02 	movl   $0x2d0c7,0x4(%esp)
    418e:	00 
    418f:	c7 04 24 ec d5 02 00 	movl   $0x2d5ec,(%esp)
    4196:	e8 15 3e 02 00       	call   27fb0 <assert_abort>
    419b:	c7 44 24 08 94 00 00 	movl   $0x94,0x8(%esp)
    41a2:	00 
    41a3:	c7 44 24 04 d8 c6 02 	movl   $0x2c6d8,0x4(%esp)
    41aa:	00 
    41ab:	c7 04 24 52 c6 02 00 	movl   $0x2c652,(%esp)
    41b2:	e8 f9 3d 02 00       	call   27fb0 <assert_abort>
    41b7:	c7 44 24 08 7d 00 00 	movl   $0x7d,0x8(%esp)
    41be:	00 
    41bf:	c7 44 24 04 d8 c6 02 	movl   $0x2c6d8,0x4(%esp)
    41c6:	00 
    41c7:	c7 04 24 52 c6 02 00 	movl   $0x2c652,(%esp)
    41ce:	e8 dd 3d 02 00       	call   27fb0 <assert_abort>
    41d3:	8d b6 00 00 00 00    	lea    0x0(%esi),%esi
    41d9:	8d bc 27 00 00 00 00 	lea    0x0(%edi,%eiz,1),%edi

000041e0 <ohci_transfer_batch_commit>:
    41e0:	55                   	push   %ebp
    41e1:	89 e5                	mov    %esp,%ebp
    41e3:	53                   	push   %ebx
    41e4:	83 ec 24             	sub    $0x24,%esp
    41e7:	8b 45 08             	mov    0x8(%ebp),%eax
    41ea:	85 c0                	test   %eax,%eax
    41ec:	74 34                	je     4222 <ohci_transfer_batch_commit+0x42>
    41ee:	8b 48 10             	mov    0x10(%eax),%ecx
    41f1:	8b 50 0c             	mov    0xc(%eax),%edx
    41f4:	8b 58 08             	mov    0x8(%eax),%ebx
    41f7:	8b 14 8a             	mov    (%edx,%ecx,4),%edx
    41fa:	85 db                	test   %ebx,%ebx
    41fc:	74 40                	je     423e <ohci_transfer_batch_commit+0x5e>
    41fe:	8d 45 f4             	lea    -0xc(%ebp),%eax
    4201:	89 14 24             	mov    %edx,(%esp)
    4204:	89 44 24 04          	mov    %eax,0x4(%esp)
    4208:	e8 23 9d 00 00       	call   df30 <as_get_physical_mapping>
    420d:	31 d2                	xor    %edx,%edx
    420f:	85 c0                	test   %eax,%eax
    4211:	75 06                	jne    4219 <ohci_transfer_batch_commit+0x39>
    4213:	8b 55 f4             	mov    -0xc(%ebp),%edx
    4216:	83 e2 f0             	and    $0xfffffff0,%edx
    4219:	89 53 04             	mov    %edx,0x4(%ebx)
    421c:	83 c4 24             	add    $0x24,%esp
    421f:	5b                   	pop    %ebx
    4220:	5d                   	pop    %ebp
    4221:	c3                   	ret    
    4222:	c7 44 24 08 0b 01 00 	movl   $0x10b,0x8(%esp)
    4229:	00 
    422a:	c7 44 24 04 c7 d0 02 	movl   $0x2d0c7,0x4(%esp)
    4231:	00 
    4232:	c7 04 24 d4 d0 02 00 	movl   $0x2d0d4,(%esp)
    4239:	e8 72 3d 02 00       	call   27fb0 <assert_abort>
    423e:	c7 44 24 08 94 00 00 	movl   $0x94,0x8(%esp)
    4245:	00 
    4246:	c7 44 24 04 d8 c6 02 	movl   $0x2c6d8,0x4(%esp)
    424d:	00 
    424e:	c7 04 24 52 c6 02 00 	movl   $0x2c652,(%esp)
    4255:	e8 56 3d 02 00       	call   27fb0 <assert_abort>

0000425a <ohci_endpoint_get.part.0>:
    425a:	55                   	push   %ebp
    425b:	89 e5                	mov    %esp,%ebp
    425d:	83 ec 18             	sub    $0x18,%esp
    4260:	c7 44 24 08 40 00 00 	movl   $0x40,0x8(%esp)
    4267:	00 
    4268:	c7 44 24 04 f5 d0 02 	movl   $0x2d0f5,0x4(%esp)
    426f:	00 
    4270:	c7 04 24 9a fa 02 00 	movl   $0x2fa9a,(%esp)
    4277:	e8 34 3d 02 00       	call   27fb0 <assert_abort>
    427c:	66 90                	xchg   %ax,%ax
    427e:	66 90                	xchg   %ax,%ax

00004280 <ohci_ep_toggle_set>:
    4280:	55                   	push   %ebp
    4281:	89 e5                	mov    %esp,%ebp
    4283:	83 ec 18             	sub    $0x18,%esp
    4286:	8b 45 08             	mov    0x8(%ebp),%eax
    4289:	85 c0                	test   %eax,%eax
    428b:	74 47                	je     42d4 <ohci_ep_toggle_set+0x54>
    428d:	8b 00                	mov    (%eax),%eax
    428f:	85 c0                	test   %eax,%eax
    4291:	74 25                	je     42b8 <ohci_ep_toggle_set+0x38>
    4293:	8b 55 0c             	mov    0xc(%ebp),%edx
    4296:	85 d2                	test   %edx,%edx
    4298:	8b 50 08             	mov    0x8(%eax),%edx
    429b:	75 13                	jne    42b0 <ohci_ep_toggle_set+0x30>
    429d:	83 e2 fd             	and    $0xfffffffd,%edx
    42a0:	89 50 08             	mov    %edx,0x8(%eax)
    42a3:	8b 50 08             	mov    0x8(%eax),%edx
    42a6:	83 e2 fe             	and    $0xfffffffe,%edx
    42a9:	89 50 08             	mov    %edx,0x8(%eax)
    42ac:	c9                   	leave  
    42ad:	c3                   	ret    
    42ae:	66 90                	xchg   %ax,%ax
    42b0:	83 ca 02             	or     $0x2,%edx
    42b3:	89 50 08             	mov    %edx,0x8(%eax)
    42b6:	c9                   	leave  
    42b7:	c3                   	ret    
    42b8:	c7 44 24 08 2f 00 00 	movl   $0x2f,0x8(%esp)
    42bf:	00 
    42c0:	c7 44 24 04 58 d7 02 	movl   $0x2d758,0x4(%esp)
    42c7:	00 
    42c8:	c7 04 24 68 d7 02 00 	movl   $0x2d768,(%esp)
    42cf:	e8 dc 3c 02 00       	call   27fb0 <assert_abort>
    42d4:	c7 44 24 08 2e 00 00 	movl   $0x2e,0x8(%esp)
    42db:	00 
    42dc:	c7 44 24 04 58 d7 02 	movl   $0x2d758,0x4(%esp)
    42e3:	00 
    42e4:	c7 04 24 52 c6 02 00 	movl   $0x2c652,(%esp)
    42eb:	e8 c0 3c 02 00       	call   27fb0 <assert_abort>

000042f0 <ohci_ep_toggle_get>:
    42f0:	55                   	push   %ebp
    42f1:	89 e5                	mov    %esp,%ebp
    42f3:	83 ec 18             	sub    $0x18,%esp
    42f6:	8b 45 08             	mov    0x8(%ebp),%eax
    42f9:	85 c0                	test   %eax,%eax
    42fb:	74 10                	je     430d <ohci_ep_toggle_get+0x1d>
    42fd:	8b 00                	mov    (%eax),%eax
    42ff:	85 c0                	test   %eax,%eax
    4301:	74 26                	je     4329 <ohci_ep_toggle_get+0x39>
    4303:	8b 40 08             	mov    0x8(%eax),%eax
    4306:	c9                   	leave  
    4307:	d1 e8                	shr    %eax
    4309:	83 e0 01             	and    $0x1,%eax
    430c:	c3                   	ret    
    430d:	c7 44 24 08 3b 00 00 	movl   $0x3b,0x8(%esp)
    4314:	00 
    4315:	c7 44 24 04 58 d7 02 	movl   $0x2d758,0x4(%esp)
    431c:	00 
    431d:	c7 04 24 52 c6 02 00 	movl   $0x2c652,(%esp)
    4324:	e8 87 3c 02 00       	call   27fb0 <assert_abort>
    4329:	c7 44 24 08 3c 00 00 	movl   $0x3c,0x8(%esp)
    4330:	00 
    4331:	c7 44 24 04 58 d7 02 	movl   $0x2d758,0x4(%esp)
    4338:	00 
    4339:	c7 04 24 68 d7 02 00 	movl   $0x2d768,(%esp)
    4340:	e8 6b 3c 02 00       	call   27fb0 <assert_abort>
    4345:	8d 74 26 00          	lea    0x0(%esi,%eiz,1),%esi
    4349:	8d bc 27 00 00 00 00 	lea    0x0(%edi,%eiz,1),%edi

00004350 <ohci_endpoint_init>:
    4350:	55                   	push   %ebp
    4351:	89 e5                	mov    %esp,%ebp
    4353:	56                   	push   %esi
    4354:	53                   	push   %ebx
    4355:	83 ec 10             	sub    $0x10,%esp
    4358:	8b 75 0c             	mov    0xc(%ebp),%esi
    435b:	85 f6                	test   %esi,%esi
    435d:	0f 84 bd 00 00 00    	je     4420 <ohci_endpoint_init+0xd0>
    4363:	c7 04 24 10 00 00 00 	movl   $0x10,(%esp)
    436a:	e8 e1 93 01 00       	call   1d750 <malloc>
    436f:	89 c3                	mov    %eax,%ebx
    4371:	85 c0                	test   %eax,%eax
    4373:	0f 84 87 00 00 00    	je     4400 <ohci_endpoint_init+0xb0>
    4379:	c7 44 24 04 10 00 00 	movl   $0x10,0x4(%esp)
    4380:	00 
    4381:	c7 04 24 20 00 00 00 	movl   $0x20,(%esp)
    4388:	e8 03 94 01 00       	call   1d790 <memalign>
    438d:	89 03                	mov    %eax,(%ebx)
    438f:	85 c0                	test   %eax,%eax
    4391:	74 7e                	je     4411 <ohci_endpoint_init+0xc1>
    4393:	c7 44 24 04 10 00 00 	movl   $0x10,0x4(%esp)
    439a:	00 
    439b:	c7 04 24 20 00 00 00 	movl   $0x20,(%esp)
    43a2:	e8 e9 93 01 00       	call   1d790 <memalign>
    43a7:	89 43 04             	mov    %eax,0x4(%ebx)
    43aa:	85 c0                	test   %eax,%eax
    43ac:	74 59                	je     4407 <ohci_endpoint_init+0xb7>
    43ae:	89 44 24 08          	mov    %eax,0x8(%esp)
    43b2:	8b 03                	mov    (%ebx),%eax
    43b4:	89 04 24             	mov    %eax,(%esp)
    43b7:	89 74 24 04          	mov    %esi,0x4(%esp)
    43bb:	e8 a0 11 00 00       	call   5560 <ed_init>
    43c0:	c7 44 24 0c 80 42 00 	movl   $0x4280,0xc(%esp)
    43c7:	00 
    43c8:	c7 44 24 08 f0 42 00 	movl   $0x42f0,0x8(%esp)
    43cf:	00 
    43d0:	89 5c 24 04          	mov    %ebx,0x4(%esp)
    43d4:	89 34 24             	mov    %esi,(%esp)
    43d7:	e8 e4 14 00 00       	call   58c0 <endpoint_set_hc_data>
    43dc:	8b 45 08             	mov    0x8(%ebp),%eax
    43df:	89 74 24 04          	mov    %esi,0x4(%esp)
    43e3:	8b 80 7c 06 00 00    	mov    0x67c(%eax),%eax
    43e9:	89 04 24             	mov    %eax,(%esp)
    43ec:	e8 9f df ff ff       	call   2390 <hc_enqueue_endpoint>
    43f1:	31 c0                	xor    %eax,%eax
    43f3:	83 c4 10             	add    $0x10,%esp
    43f6:	5b                   	pop    %ebx
    43f7:	5e                   	pop    %esi
    43f8:	5d                   	pop    %ebp
    43f9:	c3                   	ret    
    43fa:	8d b6 00 00 00 00    	lea    0x0(%esi),%esi
    4400:	b8 fe ff ff ff       	mov    $0xfffffffe,%eax
    4405:	eb ec                	jmp    43f3 <ohci_endpoint_init+0xa3>
    4407:	8b 03                	mov    (%ebx),%eax
    4409:	89 04 24             	mov    %eax,(%esp)
    440c:	e8 4f 94 01 00       	call   1d860 <free>
    4411:	89 1c 24             	mov    %ebx,(%esp)
    4414:	e8 47 94 01 00       	call   1d860 <free>
    4419:	b8 fe ff ff ff       	mov    $0xfffffffe,%eax
    441e:	eb d3                	jmp    43f3 <ohci_endpoint_init+0xa3>
    4420:	c7 44 24 08 47 00 00 	movl   $0x47,0x8(%esp)
    4427:	00 
    4428:	c7 44 24 04 58 d7 02 	movl   $0x2d758,0x4(%esp)
    442f:	00 
    4430:	c7 04 24 9a fa 02 00 	movl   $0x2fa9a,(%esp)
    4437:	e8 74 3b 02 00       	call   27fb0 <assert_abort>
    443c:	8d 74 26 00          	lea    0x0(%esi,%eiz,1),%esi

00004440 <ohci_endpoint_fini>:
    4440:	55                   	push   %ebp
    4441:	89 e5                	mov    %esp,%ebp
    4443:	56                   	push   %esi
    4444:	53                   	push   %ebx
    4445:	83 ec 10             	sub    $0x10,%esp
    4448:	8b 45 08             	mov    0x8(%ebp),%eax
    444b:	8b 5d 0c             	mov    0xc(%ebp),%ebx
    444e:	85 c0                	test   %eax,%eax
    4450:	74 48                	je     449a <ohci_endpoint_fini+0x5a>
    4452:	85 db                	test   %ebx,%ebx
    4454:	74 60                	je     44b6 <ohci_endpoint_fini+0x76>
    4456:	8b 73 3c             	mov    0x3c(%ebx),%esi
    4459:	89 5c 24 04          	mov    %ebx,0x4(%esp)
    445d:	8b 80 7c 06 00 00    	mov    0x67c(%eax),%eax
    4463:	89 04 24             	mov    %eax,(%esp)
    4466:	e8 75 e0 ff ff       	call   24e0 <hc_dequeue_endpoint>
    446b:	85 f6                	test   %esi,%esi
    446d:	74 1d                	je     448c <ohci_endpoint_fini+0x4c>
    446f:	8b 06                	mov    (%esi),%eax
    4471:	89 04 24             	mov    %eax,(%esp)
    4474:	e8 e7 93 01 00       	call   1d860 <free>
    4479:	8b 46 04             	mov    0x4(%esi),%eax
    447c:	89 04 24             	mov    %eax,(%esp)
    447f:	e8 dc 93 01 00       	call   1d860 <free>
    4484:	89 34 24             	mov    %esi,(%esp)
    4487:	e8 d4 93 01 00       	call   1d860 <free>
    448c:	89 5d 08             	mov    %ebx,0x8(%ebp)
    448f:	83 c4 10             	add    $0x10,%esp
    4492:	5b                   	pop    %ebx
    4493:	5e                   	pop    %esi
    4494:	5d                   	pop    %ebp
    4495:	e9 96 14 00 00       	jmp    5930 <endpoint_clear_hc_data>
    449a:	c7 44 24 08 67 00 00 	movl   $0x67,0x8(%esp)
    44a1:	00 
    44a2:	c7 44 24 04 58 d7 02 	movl   $0x2d758,0x4(%esp)
    44a9:	00 
    44aa:	c7 04 24 1b c8 02 00 	movl   $0x2c81b,(%esp)
    44b1:	e8 fa 3a 02 00       	call   27fb0 <assert_abort>
    44b6:	c7 44 24 08 68 00 00 	movl   $0x68,0x8(%esp)
    44bd:	00 
    44be:	c7 44 24 04 58 d7 02 	movl   $0x2d758,0x4(%esp)
    44c5:	00 
    44c6:	c7 04 24 9a fa 02 00 	movl   $0x2fa9a,(%esp)
    44cd:	e8 de 3a 02 00       	call   27fb0 <assert_abort>
    44d2:	66 90                	xchg   %ax,%ax
    44d4:	66 90                	xchg   %ax,%ax
    44d6:	66 90                	xchg   %ax,%ax
    44d8:	66 90                	xchg   %ax,%ax
    44da:	66 90                	xchg   %ax,%ax
    44dc:	66 90                	xchg   %ax,%ax
    44de:	66 90                	xchg   %ax,%ax

000044e0 <get_my_registers>:
    44e0:	55                   	push   %ebp
    44e1:	89 e5                	mov    %esp,%ebp
    44e3:	57                   	push   %edi
    44e4:	56                   	push   %esi
    44e5:	53                   	push   %ebx
    44e6:	83 ec 3c             	sub    $0x3c,%esp
    44e9:	8b 45 08             	mov    0x8(%ebp),%eax
    44ec:	85 c0                	test   %eax,%eax
    44ee:	0f 84 53 01 00 00    	je     4647 <get_my_registers+0x167>
    44f4:	89 04 24             	mov    %eax,(%esp)
    44f7:	e8 c4 3f 00 00       	call   84c0 <ddf_dev_get_handle>
    44fc:	c7 44 24 08 01 00 00 	movl   $0x1,0x8(%esp)
    4503:	00 
    4504:	89 44 24 04          	mov    %eax,0x4(%esp)
    4508:	c7 04 24 02 00 00 00 	movl   $0x2,(%esp)
    450f:	e8 1c a8 00 00       	call   ed30 <devman_parent_device_connect>
    4514:	89 c3                	mov    %eax,%ebx
    4516:	85 c0                	test   %eax,%eax
    4518:	0f 84 22 01 00 00    	je     4640 <get_my_registers+0x160>
    451e:	8d 75 c8             	lea    -0x38(%ebp),%esi
    4521:	c7 44 24 08 20 00 00 	movl   $0x20,0x8(%esp)
    4528:	00 
    4529:	c7 44 24 04 00 00 00 	movl   $0x0,0x4(%esp)
    4530:	00 
    4531:	89 34 24             	mov    %esi,(%esp)
    4534:	e8 d7 bc 00 00       	call   10210 <memset>
    4539:	c7 44 24 08 00 00 00 	movl   $0x0,0x8(%esp)
    4540:	00 
    4541:	89 74 24 04          	mov    %esi,0x4(%esp)
    4545:	89 1c 24             	mov    %ebx,(%esp)
    4548:	e8 f3 bb 00 00       	call   10140 <hw_res_get_list_parsed>
    454d:	89 1c 24             	mov    %ebx,(%esp)
    4550:	89 c7                	mov    %eax,%edi
    4552:	e8 39 c6 01 00       	call   20b90 <async_hangup>
    4557:	89 f8                	mov    %edi,%eax
    4559:	85 ff                	test   %edi,%edi
    455b:	0f 85 87 00 00 00    	jne    45e8 <get_my_registers+0x108>
    4561:	83 7d c8 01          	cmpl   $0x1,-0x38(%ebp)
    4565:	0f 85 85 00 00 00    	jne    45f0 <get_my_registers+0x110>
    456b:	83 7d d8 01          	cmpl   $0x1,-0x28(%ebp)
    456f:	75 7f                	jne    45f0 <get_my_registers+0x110>
    4571:	8b 5d 0c             	mov    0xc(%ebp),%ebx
    4574:	85 db                	test   %ebx,%ebx
    4576:	74 0a                	je     4582 <get_my_registers+0xa2>
    4578:	8b 45 dc             	mov    -0x24(%ebp),%eax
    457b:	8b 55 0c             	mov    0xc(%ebp),%edx
    457e:	8b 00                	mov    (%eax),%eax
    4580:	89 02                	mov    %eax,(%edx)
    4582:	8b 4d 10             	mov    0x10(%ebp),%ecx
    4585:	85 c9                	test   %ecx,%ecx
    4587:	74 0b                	je     4594 <get_my_registers+0xb4>
    4589:	8b 45 dc             	mov    -0x24(%ebp),%eax
    458c:	8b 4d 10             	mov    0x10(%ebp),%ecx
    458f:	8b 40 0c             	mov    0xc(%eax),%eax
    4592:	89 01                	mov    %eax,(%ecx)
    4594:	8b 55 14             	mov    0x14(%ebp),%edx
    4597:	8b 45 cc             	mov    -0x34(%ebp),%eax
    459a:	85 d2                	test   %edx,%edx
    459c:	74 07                	je     45a5 <get_my_registers+0xc5>
    459e:	8b 4d 14             	mov    0x14(%ebp),%ecx
    45a1:	8b 10                	mov    (%eax),%edx
    45a3:	89 11                	mov    %edx,(%ecx)
    45a5:	89 04 24             	mov    %eax,(%esp)
    45a8:	e8 b3 92 01 00       	call   1d860 <free>
    45ad:	8b 45 e4             	mov    -0x1c(%ebp),%eax
    45b0:	89 04 24             	mov    %eax,(%esp)
    45b3:	e8 a8 92 01 00       	call   1d860 <free>
    45b8:	8b 45 dc             	mov    -0x24(%ebp),%eax
    45bb:	89 04 24             	mov    %eax,(%esp)
    45be:	e8 9d 92 01 00       	call   1d860 <free>
    45c3:	8b 45 d4             	mov    -0x2c(%ebp),%eax
    45c6:	89 04 24             	mov    %eax,(%esp)
    45c9:	e8 92 92 01 00       	call   1d860 <free>
    45ce:	c7 44 24 08 20 00 00 	movl   $0x20,0x8(%esp)
    45d5:	00 
    45d6:	c7 44 24 04 00 00 00 	movl   $0x0,0x4(%esp)
    45dd:	00 
    45de:	89 34 24             	mov    %esi,(%esp)
    45e1:	e8 2a bc 00 00       	call   10210 <memset>
    45e6:	31 c0                	xor    %eax,%eax
    45e8:	83 c4 3c             	add    $0x3c,%esp
    45eb:	5b                   	pop    %ebx
    45ec:	5e                   	pop    %esi
    45ed:	5f                   	pop    %edi
    45ee:	5d                   	pop    %ebp
    45ef:	c3                   	ret    
    45f0:	8b 45 cc             	mov    -0x34(%ebp),%eax
    45f3:	89 04 24             	mov    %eax,(%esp)
    45f6:	e8 65 92 01 00       	call   1d860 <free>
    45fb:	8b 45 e4             	mov    -0x1c(%ebp),%eax
    45fe:	89 04 24             	mov    %eax,(%esp)
    4601:	e8 5a 92 01 00       	call   1d860 <free>
    4606:	8b 45 dc             	mov    -0x24(%ebp),%eax
    4609:	89 04 24             	mov    %eax,(%esp)
    460c:	e8 4f 92 01 00       	call   1d860 <free>
    4611:	8b 45 d4             	mov    -0x2c(%ebp),%eax
    4614:	89 04 24             	mov    %eax,(%esp)
    4617:	e8 44 92 01 00       	call   1d860 <free>
    461c:	c7 44 24 08 20 00 00 	movl   $0x20,0x8(%esp)
    4623:	00 
    4624:	c7 44 24 04 00 00 00 	movl   $0x0,0x4(%esp)
    462b:	00 
    462c:	89 34 24             	mov    %esi,(%esp)
    462f:	e8 dc bb 00 00       	call   10210 <memset>
    4634:	b8 f2 ff ff ff       	mov    $0xfffffff2,%eax
    4639:	eb ad                	jmp    45e8 <get_my_registers+0x108>
    463b:	90                   	nop
    463c:	8d 74 26 00          	lea    0x0(%esi,%eiz,1),%esi
    4640:	b8 fe ff ff ff       	mov    $0xfffffffe,%eax
    4645:	eb a1                	jmp    45e8 <get_my_registers+0x108>
    4647:	c7 44 24 08 3a 00 00 	movl   $0x3a,0x8(%esp)
    464e:	00 
    464f:	c7 44 24 04 75 d7 02 	movl   $0x2d775,0x4(%esp)
    4656:	00 
    4657:	c7 04 24 69 ce 02 00 	movl   $0x2ce69,(%esp)
    465e:	e8 4d 39 02 00       	call   27fb0 <assert_abort>
    4663:	8d b6 00 00 00 00    	lea    0x0(%esi),%esi
    4669:	8d bc 27 00 00 00 00 	lea    0x0(%edi,%eiz,1),%edi

00004670 <enable_interrupts>:
    4670:	55                   	push   %ebp
    4671:	89 e5                	mov    %esp,%ebp
    4673:	56                   	push   %esi
    4674:	53                   	push   %ebx
    4675:	83 ec 10             	sub    $0x10,%esp
    4678:	8b 45 08             	mov    0x8(%ebp),%eax
    467b:	89 04 24             	mov    %eax,(%esp)
    467e:	e8 3d 3e 00 00       	call   84c0 <ddf_dev_get_handle>
    4683:	c7 44 24 08 01 00 00 	movl   $0x1,0x8(%esp)
    468a:	00 
    468b:	89 44 24 04          	mov    %eax,0x4(%esp)
    468f:	c7 04 24 02 00 00 00 	movl   $0x2,(%esp)
    4696:	e8 95 a6 00 00       	call   ed30 <devman_parent_device_connect>
    469b:	89 c3                	mov    %eax,%ebx
    469d:	85 c0                	test   %eax,%eax
    469f:	74 27                	je     46c8 <enable_interrupts+0x58>
    46a1:	89 04 24             	mov    %eax,(%esp)
    46a4:	e8 07 b7 00 00       	call   fdb0 <hw_res_enable_interrupt>
    46a9:	89 1c 24             	mov    %ebx,(%esp)
    46ac:	89 c6                	mov    %eax,%esi
    46ae:	e8 dd c4 01 00       	call   20b90 <async_hangup>
    46b3:	89 f0                	mov    %esi,%eax
    46b5:	3c 01                	cmp    $0x1,%al
    46b7:	19 c0                	sbb    %eax,%eax
    46b9:	25 f7 fe ff ff       	and    $0xfffffef7,%eax
    46be:	83 c4 10             	add    $0x10,%esp
    46c1:	5b                   	pop    %ebx
    46c2:	5e                   	pop    %esi
    46c3:	5d                   	pop    %ebp
    46c4:	c3                   	ret    
    46c5:	8d 76 00             	lea    0x0(%esi),%esi
    46c8:	b8 fe ff ff ff       	mov    $0xfffffffe,%eax
    46cd:	eb ef                	jmp    46be <enable_interrupts+0x4e>
    46cf:	90                   	nop

000046d0 <rh_init>:
    46d0:	55                   	push   %ebp
    46d1:	89 e5                	mov    %esp,%ebp
    46d3:	57                   	push   %edi
    46d4:	56                   	push   %esi
    46d5:	53                   	push   %ebx
    46d6:	83 ec 2c             	sub    $0x2c,%esp
    46d9:	8b 5d 08             	mov    0x8(%ebp),%ebx
    46dc:	8b 75 0c             	mov    0xc(%ebp),%esi
    46df:	85 db                	test   %ebx,%ebx
    46e1:	0f 84 64 02 00 00    	je     494b <rh_init+0x27b>
    46e7:	85 f6                	test   %esi,%esi
    46e9:	0f 84 40 02 00 00    	je     492f <rh_init+0x25f>
    46ef:	8b 46 48             	mov    0x48(%esi),%eax
    46f2:	89 73 10             	mov    %esi,0x10(%ebx)
    46f5:	25 ff 00 00 00       	and    $0xff,%eax
    46fa:	89 43 18             	mov    %eax,0x18(%ebx)
    46fd:	8b 46 48             	mov    0x48(%esi),%eax
    4700:	89 44 24 0c          	mov    %eax,0xc(%esp)
    4704:	c7 44 24 08 8b d7 02 	movl   $0x2d78b,0x8(%esp)
    470b:	00 
    470c:	c7 44 24 04 05 00 00 	movl   $0x5,0x4(%esp)
    4713:	00 
    4714:	c7 04 24 ff ff ff ff 	movl   $0xffffffff,(%esp)
    471b:	e8 90 3f 01 00       	call   186b0 <log_msg>
    4720:	8b 43 18             	mov    0x18(%ebx),%eax
    4723:	83 f8 0f             	cmp    $0xf,%eax
    4726:	0f 87 a4 01 00 00    	ja     48d0 <rh_init+0x200>
    472c:	c1 e8 03             	shr    $0x3,%eax
    472f:	40                   	inc    %eax
    4730:	89 43 20             	mov    %eax,0x20(%ebx)
    4733:	c7 43 1c 00 00 00 00 	movl   $0x0,0x1c(%ebx)
    473a:	c7 44 24 08 78 d9 02 	movl   $0x2d978,0x8(%esp)
    4741:	00 
    4742:	c7 44 24 04 04 00 00 	movl   $0x4,0x4(%esp)
    4749:	00 
    474a:	c7 04 24 ff ff ff ff 	movl   $0xffffffff,(%esp)
    4751:	e8 5a 3f 01 00       	call   186b0 <log_msg>
    4756:	8b 46 48             	mov    0x48(%esi),%eax
    4759:	80 e4 fd             	and    $0xfd,%ah
    475c:	89 46 48             	mov    %eax,0x48(%esi)
    475f:	8b 46 48             	mov    0x48(%esi),%eax
    4762:	80 e4 fe             	and    $0xfe,%ah
    4765:	89 46 48             	mov    %eax,0x48(%esi)
    4768:	c7 46 50 01 00 00 00 	movl   $0x1,0x50(%esi)
    476f:	8b 46 48             	mov    0x48(%esi),%eax
    4772:	80 e4 ef             	and    $0xef,%ah
    4775:	89 46 48             	mov    %eax,0x48(%esi)
    4778:	8b 46 48             	mov    0x48(%esi),%eax
    477b:	80 e4 f7             	and    $0xf7,%ah
    477e:	89 46 48             	mov    %eax,0x48(%esi)
    4781:	89 1c 24             	mov    %ebx,(%esp)
    4784:	e8 c7 fc 00 00       	call   14450 <fibril_mutex_initialize>
    4789:	8b 7b 20             	mov    0x20(%ebx),%edi
    478c:	8d 74 3f 07          	lea    0x7(%edi,%edi,1),%esi
    4790:	c7 43 28 00 00 00 00 	movl   $0x0,0x28(%ebx)
    4797:	c7 43 24 00 00 00 00 	movl   $0x0,0x24(%ebx)
    479e:	c6 43 2c 00          	movb   $0x0,0x2c(%ebx)
    47a2:	c6 43 24 09          	movb   $0x9,0x24(%ebx)
    47a6:	c6 43 25 02          	movb   $0x2,0x25(%ebx)
    47aa:	c6 43 28 01          	movb   $0x1,0x28(%ebx)
    47ae:	c6 43 29 01          	movb   $0x1,0x29(%ebx)
    47b2:	c6 43 2b 80          	movb   $0x80,0x2b(%ebx)
    47b6:	c6 43 2d 09          	movb   $0x9,0x2d(%ebx)
    47ba:	c6 43 2e 04          	movb   $0x4,0x2e(%ebx)
    47be:	c6 43 2f 01          	movb   $0x1,0x2f(%ebx)
    47c2:	c6 43 30 00          	movb   $0x0,0x30(%ebx)
    47c6:	c6 43 31 01          	movb   $0x1,0x31(%ebx)
    47ca:	c6 43 32 09          	movb   $0x9,0x32(%ebx)
    47ce:	c6 43 33 00          	movb   $0x0,0x33(%ebx)
    47d2:	c6 43 34 00          	movb   $0x0,0x34(%ebx)
    47d6:	c6 43 35 00          	movb   $0x0,0x35(%ebx)
    47da:	c6 43 36 07          	movb   $0x7,0x36(%ebx)
    47de:	c6 43 37 05          	movb   $0x5,0x37(%ebx)
    47e2:	c6 43 38 81          	movb   $0x81,0x38(%ebx)
    47e6:	c6 43 39 03          	movb   $0x3,0x39(%ebx)
    47ea:	66 c7 43 3a 02 00    	movw   $0x2,0x3a(%ebx)
    47f0:	c6 43 3c ff          	movb   $0xff,0x3c(%ebx)
    47f4:	83 fe 0b             	cmp    $0xb,%esi
    47f7:	0f 87 16 01 00 00    	ja     4913 <rh_init+0x243>
    47fd:	8b 43 10             	mov    0x10(%ebx),%eax
    4800:	89 73 48             	mov    %esi,0x48(%ebx)
    4803:	8b 50 48             	mov    0x48(%eax),%edx
    4806:	8b 40 4c             	mov    0x4c(%eax),%eax
    4809:	89 45 e0             	mov    %eax,-0x20(%ebp)
    480c:	89 f0                	mov    %esi,%eax
    480e:	88 43 3d             	mov    %al,0x3d(%ebx)
    4811:	8b 43 18             	mov    0x18(%ebx),%eax
    4814:	89 d1                	mov    %edx,%ecx
    4816:	89 45 e4             	mov    %eax,-0x1c(%ebp)
    4819:	88 43 3f             	mov    %al,0x3f(%ebx)
    481c:	89 d0                	mov    %edx,%eax
    481e:	c1 e9 08             	shr    $0x8,%ecx
    4821:	25 00 02 00 00       	and    $0x200,%eax
    4826:	83 e1 01             	and    $0x1,%ecx
    4829:	83 f8 01             	cmp    $0x1,%eax
    482c:	19 c0                	sbb    %eax,%eax
    482e:	c6 43 3e 29          	movb   $0x29,0x3e(%ebx)
    4832:	83 f0 ff             	xor    $0xffffffff,%eax
    4835:	c6 43 41 00          	movb   $0x0,0x41(%ebx)
    4839:	83 e0 02             	and    $0x2,%eax
    483c:	c6 43 43 00          	movb   $0x0,0x43(%ebx)
    4840:	09 c8                	or     %ecx,%eax
    4842:	89 d1                	mov    %edx,%ecx
    4844:	81 e1 00 04 00 00    	and    $0x400,%ecx
    484a:	83 f9 01             	cmp    $0x1,%ecx
    484d:	19 c9                	sbb    %ecx,%ecx
    484f:	83 f1 ff             	xor    $0xffffffff,%ecx
    4852:	83 e1 04             	and    $0x4,%ecx
    4855:	09 c8                	or     %ecx,%eax
    4857:	89 d1                	mov    %edx,%ecx
    4859:	81 e1 00 08 00 00    	and    $0x800,%ecx
    485f:	83 f9 01             	cmp    $0x1,%ecx
    4862:	19 c9                	sbb    %ecx,%ecx
    4864:	83 f1 ff             	xor    $0xffffffff,%ecx
    4867:	83 e1 08             	and    $0x8,%ecx
    486a:	09 c8                	or     %ecx,%eax
    486c:	89 d1                	mov    %edx,%ecx
    486e:	81 e1 00 10 00 00    	and    $0x1000,%ecx
    4874:	83 f9 01             	cmp    $0x1,%ecx
    4877:	19 c9                	sbb    %ecx,%ecx
    4879:	c1 ea 18             	shr    $0x18,%edx
    487c:	83 f1 ff             	xor    $0xffffffff,%ecx
    487f:	83 e1 10             	and    $0x10,%ecx
    4882:	88 53 42             	mov    %dl,0x42(%ebx)
    4885:	09 c8                	or     %ecx,%eax
    4887:	83 ff 02             	cmp    $0x2,%edi
    488a:	88 43 40             	mov    %al,0x40(%ebx)
    488d:	8a 45 e0             	mov    -0x20(%ebp),%al
    4890:	88 43 44             	mov    %al,0x44(%ebx)
    4893:	74 6b                	je     4900 <rh_init+0x230>
    4895:	c6 43 45 ff          	movb   $0xff,0x45(%ebx)
    4899:	8b 45 e4             	mov    -0x1c(%ebp),%eax
    489c:	83 c6 19             	add    $0x19,%esi
    489f:	66 89 7b 3a          	mov    %di,0x3a(%ebx)
    48a3:	66 89 73 26          	mov    %si,0x26(%ebx)
    48a7:	89 44 24 0c          	mov    %eax,0xc(%esp)
    48ab:	c7 44 24 08 cc d9 02 	movl   $0x2d9cc,0x8(%esp)
    48b2:	00 
    48b3:	c7 44 24 04 03 00 00 	movl   $0x3,0x4(%esp)
    48ba:	00 
    48bb:	c7 04 24 ff ff ff ff 	movl   $0xffffffff,(%esp)
    48c2:	e8 e9 3d 01 00       	call   186b0 <log_msg>
    48c7:	83 c4 2c             	add    $0x2c,%esp
    48ca:	5b                   	pop    %ebx
    48cb:	5e                   	pop    %esi
    48cc:	5f                   	pop    %edi
    48cd:	5d                   	pop    %ebp
    48ce:	c3                   	ret    
    48cf:	90                   	nop
    48d0:	c7 44 24 08 28 d9 02 	movl   $0x2d928,0x8(%esp)
    48d7:	00 
    48d8:	c7 44 24 04 02 00 00 	movl   $0x2,0x4(%esp)
    48df:	00 
    48e0:	c7 04 24 ff ff ff ff 	movl   $0xffffffff,(%esp)
    48e7:	e8 c4 3d 01 00       	call   186b0 <log_msg>
    48ec:	c7 43 18 0f 00 00 00 	movl   $0xf,0x18(%ebx)
    48f3:	b8 02 00 00 00       	mov    $0x2,%eax
    48f8:	e9 33 fe ff ff       	jmp    4730 <rh_init+0x60>
    48fd:	8d 76 00             	lea    0x0(%esi),%esi
    4900:	8b 45 e0             	mov    -0x20(%ebp),%eax
    4903:	c6 43 46 ff          	movb   $0xff,0x46(%ebx)
    4907:	c1 e8 08             	shr    $0x8,%eax
    490a:	c6 43 47 ff          	movb   $0xff,0x47(%ebx)
    490e:	88 43 45             	mov    %al,0x45(%ebx)
    4911:	eb 86                	jmp    4899 <rh_init+0x1c9>
    4913:	c7 44 24 08 21 01 00 	movl   $0x121,0x8(%esp)
    491a:	00 
    491b:	c7 44 24 04 7b d7 02 	movl   $0x2d77b,0x4(%esp)
    4922:	00 
    4923:	c7 04 24 ac d9 02 00 	movl   $0x2d9ac,(%esp)
    492a:	e8 81 36 02 00       	call   27fb0 <assert_abort>
    492f:	c7 44 24 08 99 00 00 	movl   $0x99,0x8(%esp)
    4936:	00 
    4937:	c7 44 24 04 7b d7 02 	movl   $0x2d77b,0x4(%esp)
    493e:	00 
    493f:	c7 04 24 86 d7 02 00 	movl   $0x2d786,(%esp)
    4946:	e8 65 36 02 00       	call   27fb0 <assert_abort>
    494b:	c7 44 24 08 98 00 00 	movl   $0x98,0x8(%esp)
    4952:	00 
    4953:	c7 44 24 04 7b d7 02 	movl   $0x2d77b,0x4(%esp)
    495a:	00 
    495b:	c7 04 24 52 c6 02 00 	movl   $0x2c652,(%esp)
    4962:	e8 49 36 02 00       	call   27fb0 <assert_abort>
    4967:	89 f6                	mov    %esi,%esi
    4969:	8d bc 27 00 00 00 00 	lea    0x0(%edi,%eiz,1),%edi

00004970 <rh_request>:
    4970:	55                   	push   %ebp
    4971:	89 e5                	mov    %esp,%ebp
    4973:	57                   	push   %edi
    4974:	56                   	push   %esi
    4975:	53                   	push   %ebx
    4976:	83 ec 5c             	sub    $0x5c,%esp
    4979:	8b 4d 08             	mov    0x8(%ebp),%ecx
    497c:	8b 75 0c             	mov    0xc(%ebp),%esi
    497f:	85 c9                	test   %ecx,%ecx
    4981:	0f 84 2d 0a 00 00    	je     53b4 <rh_request+0xa44>
    4987:	85 f6                	test   %esi,%esi
    4989:	0f 84 09 0a 00 00    	je     5398 <rh_request+0xa28>
    498f:	8b 06                	mov    (%esi),%eax
    4991:	8b 40 10             	mov    0x10(%eax),%eax
    4994:	85 c0                	test   %eax,%eax
    4996:	74 58                	je     49f0 <rh_request+0x80>
    4998:	83 f8 03             	cmp    $0x3,%eax
    499b:	0f 84 e7 00 00 00    	je     4a88 <rh_request+0x118>
    49a1:	c7 44 24 08 28 dd 02 	movl   $0x2dd28,0x8(%esp)
    49a8:	00 
    49a9:	c7 44 24 04 01 00 00 	movl   $0x1,0x4(%esp)
    49b0:	00 
    49b1:	c7 04 24 ff ff ff ff 	movl   $0xffffffff,(%esp)
    49b8:	e8 f3 3c 01 00       	call   186b0 <log_msg>
    49bd:	c7 44 24 0c f5 ff ff 	movl   $0xfffffff5,0xc(%esp)
    49c4:	ff 
    49c5:	c7 44 24 08 00 00 00 	movl   $0x0,0x8(%esp)
    49cc:	00 
    49cd:	c7 44 24 04 00 00 00 	movl   $0x0,0x4(%esp)
    49d4:	00 
    49d5:	89 34 24             	mov    %esi,(%esp)
    49d8:	e8 83 2e 00 00       	call   7860 <usb_transfer_batch_finish_error>
    49dd:	89 34 24             	mov    %esi,(%esp)
    49e0:	e8 8b 2d 00 00       	call   7770 <usb_transfer_batch_destroy>
    49e5:	83 c4 5c             	add    $0x5c,%esp
    49e8:	5b                   	pop    %ebx
    49e9:	5e                   	pop    %esi
    49ea:	5f                   	pop    %edi
    49eb:	5d                   	pop    %ebp
    49ec:	c3                   	ret    
    49ed:	8d 76 00             	lea    0x0(%esi),%esi
    49f0:	c7 44 24 08 a3 d7 02 	movl   $0x2d7a3,0x8(%esp)
    49f7:	00 
    49f8:	c7 44 24 04 04 00 00 	movl   $0x4,0x4(%esp)
    49ff:	00 
    4a00:	c7 04 24 ff ff ff ff 	movl   $0xffffffff,(%esp)
    4a07:	e8 a4 3c 01 00       	call   186b0 <log_msg>
    4a0c:	83 7e 20 07          	cmpl   $0x7,0x20(%esi)
    4a10:	0f 86 ea 01 00 00    	jbe    4c00 <rh_request+0x290>
    4a16:	8d 46 18             	lea    0x18(%esi),%eax
    4a19:	c7 44 24 08 08 00 00 	movl   $0x8,0x8(%esp)
    4a20:	00 
    4a21:	c7 44 24 04 08 00 00 	movl   $0x8,0x4(%esp)
    4a28:	00 
    4a29:	89 04 24             	mov    %eax,(%esp)
    4a2c:	e8 ef 2f 00 00       	call   7a20 <usb_debug_str_buffer>
    4a31:	c7 44 24 08 d8 d7 02 	movl   $0x2d7d8,0x8(%esp)
    4a38:	00 
    4a39:	89 44 24 0c          	mov    %eax,0xc(%esp)
    4a3d:	c7 44 24 04 05 00 00 	movl   $0x5,0x4(%esp)
    4a44:	00 
    4a45:	c7 04 24 ff ff ff ff 	movl   $0xffffffff,(%esp)
    4a4c:	e8 5f 3c 01 00       	call   186b0 <log_msg>
    4a51:	8a 46 19             	mov    0x19(%esi),%al
    4a54:	3c 09                	cmp    $0x9,%al
    4a56:	0f 86 94 01 00 00    	jbe    4bf0 <rh_request+0x280>
    4a5c:	25 ff 00 00 00       	and    $0xff,%eax
    4a61:	c7 44 24 08 64 dc 02 	movl   $0x2dc64,0x8(%esp)
    4a68:	00 
    4a69:	89 44 24 0c          	mov    %eax,0xc(%esp)
    4a6d:	c7 44 24 04 01 00 00 	movl   $0x1,0x4(%esp)
    4a74:	00 
    4a75:	c7 04 24 ff ff ff ff 	movl   $0xffffffff,(%esp)
    4a7c:	e8 2f 3c 01 00       	call   186b0 <log_msg>
    4a81:	e9 37 ff ff ff       	jmp    49bd <rh_request+0x4d>
    4a86:	66 90                	xchg   %ax,%ax
    4a88:	c7 44 24 08 88 dc 02 	movl   $0x2dc88,0x8(%esp)
    4a8f:	00 
    4a90:	c7 44 24 04 04 00 00 	movl   $0x4,0x4(%esp)
    4a97:	00 
    4a98:	c7 04 24 ff ff ff ff 	movl   $0xffffffff,(%esp)
    4a9f:	e8 0c 3c 01 00       	call   186b0 <log_msg>
    4aa4:	8b 55 08             	mov    0x8(%ebp),%edx
    4aa7:	89 14 24             	mov    %edx,(%esp)
    4aaa:	e8 c1 f9 00 00       	call   14470 <fibril_mutex_lock>
    4aaf:	8b 55 08             	mov    0x8(%ebp),%edx
    4ab2:	8b 42 1c             	mov    0x1c(%edx),%eax
    4ab5:	85 c0                	test   %eax,%eax
    4ab7:	0f 85 13 09 00 00    	jne    53d0 <rh_request+0xa60>
    4abd:	89 d1                	mov    %edx,%ecx
    4abf:	8b 52 10             	mov    0x10(%edx),%edx
    4ac2:	8b 42 50             	mov    0x50(%edx),%eax
    4ac5:	a9 00 00 03 00       	test   $0x30000,%eax
    4aca:	8b 41 18             	mov    0x18(%ecx),%eax
    4acd:	0f 95 c3             	setne  %bl
    4ad0:	81 e3 ff 00 00 00    	and    $0xff,%ebx
    4ad6:	85 c0                	test   %eax,%eax
    4ad8:	74 2f                	je     4b09 <rh_request+0x199>
    4ada:	89 75 d4             	mov    %esi,-0x2c(%ebp)
    4add:	b9 01 00 00 00       	mov    $0x1,%ecx
    4ae2:	89 c6                	mov    %eax,%esi
    4ae4:	8d 74 26 00          	lea    0x0(%esi,%eiz,1),%esi
    4ae8:	8d 41 13             	lea    0x13(%ecx),%eax
    4aeb:	bf 01 00 00 00       	mov    $0x1,%edi
    4af0:	d3 e7                	shl    %cl,%edi
    4af2:	8b 44 82 04          	mov    0x4(%edx,%eax,4),%eax
    4af6:	09 df                	or     %ebx,%edi
    4af8:	a9 00 00 1f 00       	test   $0x1f0000,%eax
    4afd:	74 02                	je     4b01 <rh_request+0x191>
    4aff:	89 fb                	mov    %edi,%ebx
    4b01:	41                   	inc    %ecx
    4b02:	39 ce                	cmp    %ecx,%esi
    4b04:	73 e2                	jae    4ae8 <rh_request+0x178>
    4b06:	8b 75 d4             	mov    -0x2c(%ebp),%esi
    4b09:	89 df                	mov    %ebx,%edi
    4b0b:	c7 44 24 08 d8 dc 02 	movl   $0x2dcd8,0x8(%esp)
    4b12:	00 
    4b13:	81 e7 ff ff 00 00    	and    $0xffff,%edi
    4b19:	c7 44 24 04 05 00 00 	movl   $0x5,0x4(%esp)
    4b20:	00 
    4b21:	89 7c 24 0c          	mov    %edi,0xc(%esp)
    4b25:	c7 04 24 ff ff ff ff 	movl   $0xffffffff,(%esp)
    4b2c:	e8 7f 3b 01 00       	call   186b0 <log_msg>
    4b31:	66 85 db             	test   %bx,%bx
    4b34:	0f 84 8e 00 00 00    	je     4bc8 <rh_request+0x258>
    4b3a:	c7 44 24 08 0e d9 02 	movl   $0x2d90e,0x8(%esp)
    4b41:	00 
    4b42:	c7 44 24 04 04 00 00 	movl   $0x4,0x4(%esp)
    4b49:	00 
    4b4a:	c7 04 24 ff ff ff ff 	movl   $0xffffffff,(%esp)
    4b51:	e8 5a 3b 01 00       	call   186b0 <log_msg>
    4b56:	8b 55 08             	mov    0x8(%ebp),%edx
    4b59:	0f b6 c7             	movzbl %bh,%eax
    4b5c:	8b 7a 20             	mov    0x20(%edx),%edi
    4b5f:	66 89 5d e2          	mov    %bx,-0x1e(%ebp)
    4b63:	81 e3 ff 00 00 00    	and    $0xff,%ebx
    4b69:	89 44 24 14          	mov    %eax,0x14(%esp)
    4b6d:	89 5c 24 10          	mov    %ebx,0x10(%esp)
    4b71:	89 7c 24 0c          	mov    %edi,0xc(%esp)
    4b75:	c7 44 24 08 fc dc 02 	movl   $0x2dcfc,0x8(%esp)
    4b7c:	00 
    4b7d:	c7 44 24 04 04 00 00 	movl   $0x4,0x4(%esp)
    4b84:	00 
    4b85:	c7 04 24 ff ff ff ff 	movl   $0xffffffff,(%esp)
    4b8c:	e8 1f 3b 01 00       	call   186b0 <log_msg>
    4b91:	8d 45 e2             	lea    -0x1e(%ebp),%eax
    4b94:	89 44 24 04          	mov    %eax,0x4(%esp)
    4b98:	c7 44 24 0c 00 00 00 	movl   $0x0,0xc(%esp)
    4b9f:	00 
    4ba0:	89 7c 24 08          	mov    %edi,0x8(%esp)
    4ba4:	89 34 24             	mov    %esi,(%esp)
    4ba7:	e8 b4 2c 00 00       	call   7860 <usb_transfer_batch_finish_error>
    4bac:	89 34 24             	mov    %esi,(%esp)
    4baf:	e8 bc 2b 00 00       	call   7770 <usb_transfer_batch_destroy>
    4bb4:	8b 55 08             	mov    0x8(%ebp),%edx
    4bb7:	89 14 24             	mov    %edx,(%esp)
    4bba:	e8 d1 f9 00 00       	call   14590 <fibril_mutex_unlock>
    4bbf:	83 c4 5c             	add    $0x5c,%esp
    4bc2:	5b                   	pop    %ebx
    4bc3:	5e                   	pop    %esi
    4bc4:	5f                   	pop    %edi
    4bc5:	5d                   	pop    %ebp
    4bc6:	c3                   	ret    
    4bc7:	90                   	nop
    4bc8:	89 7c 24 0c          	mov    %edi,0xc(%esp)
    4bcc:	c7 44 24 08 fa d8 02 	movl   $0x2d8fa,0x8(%esp)
    4bd3:	00 
    4bd4:	c7 44 24 04 04 00 00 	movl   $0x4,0x4(%esp)
    4bdb:	00 
    4bdc:	c7 04 24 ff ff ff ff 	movl   $0xffffffff,(%esp)
    4be3:	e8 c8 3a 01 00       	call   186b0 <log_msg>
    4be8:	8b 55 08             	mov    0x8(%ebp),%edx
    4beb:	89 72 1c             	mov    %esi,0x1c(%edx)
    4bee:	eb c7                	jmp    4bb7 <rh_request+0x247>
    4bf0:	31 d2                	xor    %edx,%edx
    4bf2:	88 c2                	mov    %al,%dl
    4bf4:	ff 24 95 6c dd 02 00 	jmp    *0x2dd6c(,%edx,4)
    4bfb:	90                   	nop
    4bfc:	8d 74 26 00          	lea    0x0(%esi,%eiz,1),%esi
    4c00:	c7 44 24 08 c0 d7 02 	movl   $0x2d7c0,0x8(%esp)
    4c07:	00 
    4c08:	c7 44 24 04 01 00 00 	movl   $0x1,0x4(%esp)
    4c0f:	00 
    4c10:	c7 04 24 ff ff ff ff 	movl   $0xffffffff,(%esp)
    4c17:	e8 94 3a 01 00       	call   186b0 <log_msg>
    4c1c:	c7 44 24 0c f0 ff ff 	movl   $0xfffffff0,0xc(%esp)
    4c23:	ff 
    4c24:	e9 9c fd ff ff       	jmp    49c5 <rh_request+0x55>
    4c29:	66 8b 46 1a          	mov    0x1a(%esi),%ax
    4c2d:	c7 44 24 08 40 dc 02 	movl   $0x2dc40,0x8(%esp)
    4c34:	00 
    4c35:	25 ff ff 00 00       	and    $0xffff,%eax
    4c3a:	c7 44 24 04 04 00 00 	movl   $0x4,0x4(%esp)
    4c41:	00 
    4c42:	89 44 24 0c          	mov    %eax,0xc(%esp)
    4c46:	c7 04 24 ff ff ff ff 	movl   $0xffffffff,(%esp)
    4c4d:	e8 5e 3a 01 00       	call   186b0 <log_msg>
    4c52:	66 83 7e 1a 01       	cmpw   $0x1,0x1a(%esi)
    4c57:	0f 84 64 05 00 00    	je     51c1 <rh_request+0x851>
    4c5d:	c7 44 24 0c f2 ff ff 	movl   $0xfffffff2,0xc(%esp)
    4c64:	ff 
    4c65:	e9 5b fd ff ff       	jmp    49c5 <rh_request+0x55>
    4c6a:	c7 44 24 08 8e d8 02 	movl   $0x2d88e,0x8(%esp)
    4c71:	00 
    4c72:	c7 44 24 04 04 00 00 	movl   $0x4,0x4(%esp)
    4c79:	00 
    4c7a:	c7 04 24 ff ff ff ff 	movl   $0xffffffff,(%esp)
    4c81:	e8 2a 3a 01 00       	call   186b0 <log_msg>
    4c86:	8b 56 14             	mov    0x14(%esi),%edx
    4c89:	85 d2                	test   %edx,%edx
    4c8b:	0f 85 de 02 00 00    	jne    4f6f <rh_request+0x5ff>
    4c91:	c7 44 24 0c f0 ff ff 	movl   $0xfffffff0,0xc(%esp)
    4c98:	ff 
    4c99:	e9 27 fd ff ff       	jmp    49c5 <rh_request+0x55>
    4c9e:	c7 44 24 08 01 d8 02 	movl   $0x2d801,0x8(%esp)
    4ca5:	00 
    4ca6:	c7 44 24 04 04 00 00 	movl   $0x4,0x4(%esp)
    4cad:	00 
    4cae:	c7 04 24 ff ff ff ff 	movl   $0xffffffff,(%esp)
    4cb5:	e8 f6 39 01 00       	call   186b0 <log_msg>
    4cba:	66 8b 56 1a          	mov    0x1a(%esi),%dx
    4cbe:	89 d0                	mov    %edx,%eax
    4cc0:	66 c1 e8 08          	shr    $0x8,%ax
    4cc4:	66 83 f8 29          	cmp    $0x29,%ax
    4cc8:	0f 86 ba 02 00 00    	jbe    4f88 <rh_request+0x618>
    4cce:	66 8b 4e 1e          	mov    0x1e(%esi),%cx
    4cd2:	25 ff ff 00 00       	and    $0xffff,%eax
    4cd7:	81 e1 ff ff 00 00    	and    $0xffff,%ecx
    4cdd:	81 e2 ff ff 00 00    	and    $0xffff,%edx
    4ce3:	89 4c 24 20          	mov    %ecx,0x20(%esp)
    4ce7:	66 8b 4e 1c          	mov    0x1c(%esi),%cx
    4ceb:	89 44 24 18          	mov    %eax,0x18(%esp)
    4cef:	81 e1 ff ff 00 00    	and    $0xffff,%ecx
    4cf5:	31 c0                	xor    %eax,%eax
    4cf7:	89 4c 24 1c          	mov    %ecx,0x1c(%esp)
    4cfb:	8a 46 19             	mov    0x19(%esi),%al
    4cfe:	89 44 24 14          	mov    %eax,0x14(%esp)
    4d02:	31 c0                	xor    %eax,%eax
    4d04:	8a 46 18             	mov    0x18(%esi),%al
    4d07:	89 54 24 0c          	mov    %edx,0xc(%esp)
    4d0b:	89 44 24 10          	mov    %eax,0x10(%esp)
    4d0f:	c7 44 24 08 84 da 02 	movl   $0x2da84,0x8(%esp)
    4d16:	00 
    4d17:	c7 44 24 04 05 00 00 	movl   $0x5,0x4(%esp)
    4d1e:	00 
    4d1f:	c7 04 24 ff ff ff ff 	movl   $0xffffffff,(%esp)
    4d26:	e8 85 39 01 00       	call   186b0 <log_msg>
    4d2b:	c7 44 24 0c f2 ff ff 	movl   $0xfffffff2,0xc(%esp)
    4d32:	ff 
    4d33:	e9 8d fc ff ff       	jmp    49c5 <rh_request+0x55>
    4d38:	c7 44 24 08 ea d7 02 	movl   $0x2d7ea,0x8(%esp)
    4d3f:	00 
    4d40:	c7 44 24 04 04 00 00 	movl   $0x4,0x4(%esp)
    4d47:	00 
    4d48:	c7 04 24 ff ff ff ff 	movl   $0xffffffff,(%esp)
    4d4f:	e8 5c 39 01 00       	call   186b0 <log_msg>
    4d54:	8a 46 18             	mov    0x18(%esi),%al
    4d57:	83 c0 80             	add    $0xffffff80,%eax
    4d5a:	66 8b 56 1c          	mov    0x1c(%esi),%dx
    4d5e:	3c 23                	cmp    $0x23,%al
    4d60:	0f 86 0a 01 00 00    	jbe    4e70 <rh_request+0x500>
    4d66:	c7 44 24 08 60 da 02 	movl   $0x2da60,0x8(%esp)
    4d6d:	00 
    4d6e:	e9 36 fc ff ff       	jmp    49a9 <rh_request+0x39>
    4d73:	c7 44 24 08 c6 d8 02 	movl   $0x2d8c6,0x8(%esp)
    4d7a:	00 
    4d7b:	c7 44 24 04 05 00 00 	movl   $0x5,0x4(%esp)
    4d82:	00 
    4d83:	c7 04 24 ff ff ff ff 	movl   $0xffffffff,(%esp)
    4d8a:	e8 21 39 01 00       	call   186b0 <log_msg>
    4d8f:	8a 46 18             	mov    0x18(%esi),%al
    4d92:	3c 20                	cmp    $0x20,%al
    4d94:	0f 84 96 03 00 00    	je     5130 <rh_request+0x7c0>
    4d9a:	3c 23                	cmp    $0x23,%al
    4d9c:	0f 84 22 03 00 00    	je     50c4 <rh_request+0x754>
    4da2:	25 ff 00 00 00       	and    $0xff,%eax
    4da7:	c7 44 24 08 18 dc 02 	movl   $0x2dc18,0x8(%esp)
    4dae:	00 
    4daf:	89 44 24 0c          	mov    %eax,0xc(%esp)
    4db3:	c7 44 24 04 01 00 00 	movl   $0x1,0x4(%esp)
    4dba:	00 
    4dbb:	c7 04 24 ff ff ff ff 	movl   $0xffffffff,(%esp)
    4dc2:	e8 e9 38 01 00       	call   186b0 <log_msg>
    4dc7:	e9 f1 fb ff ff       	jmp    49bd <rh_request+0x4d>
    4dcc:	66 8b 46 1a          	mov    0x1a(%esi),%ax
    4dd0:	c7 44 24 08 de d8 02 	movl   $0x2d8de,0x8(%esp)
    4dd7:	00 
    4dd8:	25 ff ff 00 00       	and    $0xffff,%eax
    4ddd:	c7 44 24 04 04 00 00 	movl   $0x4,0x4(%esp)
    4de4:	00 
    4de5:	89 44 24 0c          	mov    %eax,0xc(%esp)
    4de9:	c7 04 24 ff ff ff ff 	movl   $0xffffffff,(%esp)
    4df0:	e8 bb 38 01 00       	call   186b0 <log_msg>
    4df5:	66 8b 46 1a          	mov    0x1a(%esi),%ax
    4df9:	66 83 f8 7f          	cmp    $0x7f,%ax
    4dfd:	0f 87 5a fe ff ff    	ja     4c5d <rh_request+0x2ed>
    4e03:	8b 55 08             	mov    0x8(%ebp),%edx
    4e06:	66 89 42 14          	mov    %ax,0x14(%edx)
    4e0a:	c7 44 24 0c 00 00 00 	movl   $0x0,0xc(%esp)
    4e11:	00 
    4e12:	e9 ae fb ff ff       	jmp    49c5 <rh_request+0x55>
    4e17:	c7 44 24 08 ac d8 02 	movl   $0x2d8ac,0x8(%esp)
    4e1e:	00 
    4e1f:	c7 44 24 04 05 00 00 	movl   $0x5,0x4(%esp)
    4e26:	00 
    4e27:	c7 04 24 ff ff ff ff 	movl   $0xffffffff,(%esp)
    4e2e:	e8 7d 38 01 00       	call   186b0 <log_msg>
    4e33:	8a 46 18             	mov    0x18(%esi),%al
    4e36:	3c 20                	cmp    $0x20,%al
    4e38:	0f 84 54 03 00 00    	je     5192 <rh_request+0x822>
    4e3e:	3c 23                	cmp    $0x23,%al
    4e40:	0f 84 f7 02 00 00    	je     513d <rh_request+0x7cd>
    4e46:	25 ff 00 00 00       	and    $0xff,%eax
    4e4b:	c7 44 24 08 6c db 02 	movl   $0x2db6c,0x8(%esp)
    4e52:	00 
    4e53:	89 44 24 0c          	mov    %eax,0xc(%esp)
    4e57:	c7 44 24 04 01 00 00 	movl   $0x1,0x4(%esp)
    4e5e:	00 
    4e5f:	c7 04 24 ff ff ff ff 	movl   $0xffffffff,(%esp)
    4e66:	e8 45 38 01 00       	call   186b0 <log_msg>
    4e6b:	e9 4d fb ff ff       	jmp    49bd <rh_request+0x4d>
    4e70:	25 ff 00 00 00       	and    $0xff,%eax
    4e75:	ff 24 85 94 dd 02 00 	jmp    *0x2dd94(,%eax,4)
    4e7c:	8b 46 14             	mov    0x14(%esi),%eax
    4e7f:	83 f8 03             	cmp    $0x3,%eax
    4e82:	0f 86 71 04 00 00    	jbe    52f9 <rh_request+0x989>
    4e88:	81 e2 ff ff 00 00    	and    $0xffff,%edx
    4e8e:	85 d2                	test   %edx,%edx
    4e90:	0f 84 c7 fd ff ff    	je     4c5d <rh_request+0x2ed>
    4e96:	8b 4d 08             	mov    0x8(%ebp),%ecx
    4e99:	3b 51 18             	cmp    0x18(%ecx),%edx
    4e9c:	0f 87 bb fd ff ff    	ja     4c5d <rh_request+0x2ed>
    4ea2:	8b 41 10             	mov    0x10(%ecx),%eax
    4ea5:	83 c2 13             	add    $0x13,%edx
    4ea8:	8b 44 90 04          	mov    0x4(%eax,%edx,4),%eax
    4eac:	c7 44 24 0c 00 00 00 	movl   $0x0,0xc(%esp)
    4eb3:	00 
    4eb4:	89 45 e4             	mov    %eax,-0x1c(%ebp)
    4eb7:	c7 44 24 08 04 00 00 	movl   $0x4,0x8(%esp)
    4ebe:	00 
    4ebf:	8d 45 e4             	lea    -0x1c(%ebp),%eax
    4ec2:	89 44 24 04          	mov    %eax,0x4(%esp)
    4ec6:	89 34 24             	mov    %esi,(%esp)
    4ec9:	e8 92 29 00 00       	call   7860 <usb_transfer_batch_finish_error>
    4ece:	89 34 24             	mov    %esi,(%esp)
    4ed1:	e8 9a 28 00 00       	call   7770 <usb_transfer_batch_destroy>
    4ed6:	e9 0a fb ff ff       	jmp    49e5 <rh_request+0x75>
    4edb:	8b 46 14             	mov    0x14(%esi),%eax
    4ede:	83 f8 03             	cmp    $0x3,%eax
    4ee1:	0f 86 12 04 00 00    	jbe    52f9 <rh_request+0x989>
    4ee7:	8b 55 08             	mov    0x8(%ebp),%edx
    4eea:	8b 42 10             	mov    0x10(%edx),%eax
    4eed:	8b 40 50             	mov    0x50(%eax),%eax
    4ef0:	c7 44 24 0c 00 00 00 	movl   $0x0,0xc(%esp)
    4ef7:	00 
    4ef8:	25 03 00 03 00       	and    $0x30003,%eax
    4efd:	c7 44 24 08 04 00 00 	movl   $0x4,0x8(%esp)
    4f04:	00 
    4f05:	89 45 e4             	mov    %eax,-0x1c(%ebp)
    4f08:	eb b5                	jmp    4ebf <rh_request+0x54f>
    4f0a:	66 83 fa 01          	cmp    $0x1,%dx
    4f0e:	0f 87 49 fd ff ff    	ja     4c5d <rh_request+0x2ed>
    4f14:	8b 46 14             	mov    0x14(%esi),%eax
    4f17:	83 f8 01             	cmp    $0x1,%eax
    4f1a:	0f 86 06 04 00 00    	jbe    5326 <rh_request+0x9b6>
    4f20:	66 c7 45 e2 00 00    	movw   $0x0,-0x1e(%ebp)
    4f26:	c7 44 24 0c 00 00 00 	movl   $0x0,0xc(%esp)
    4f2d:	00 
    4f2e:	c7 44 24 08 02 00 00 	movl   $0x2,0x8(%esp)
    4f35:	00 
    4f36:	8d 45 e2             	lea    -0x1e(%ebp),%eax
    4f39:	eb 87                	jmp    4ec2 <rh_request+0x552>
    4f3b:	66 85 d2             	test   %dx,%dx
    4f3e:	74 d4                	je     4f14 <rh_request+0x5a4>
    4f40:	e9 18 fd ff ff       	jmp    4c5d <rh_request+0x2ed>
    4f45:	8b 46 14             	mov    0x14(%esi),%eax
    4f48:	83 f8 01             	cmp    $0x1,%eax
    4f4b:	0f 86 d5 03 00 00    	jbe    5326 <rh_request+0x9b6>
    4f51:	66 c7 45 e2 01 00    	movw   $0x1,-0x1e(%ebp)
    4f57:	c7 44 24 0c 00 00 00 	movl   $0x0,0xc(%esp)
    4f5e:	00 
    4f5f:	c7 44 24 08 02 00 00 	movl   $0x2,0x8(%esp)
    4f66:	00 
    4f67:	8d 45 e2             	lea    -0x1e(%ebp),%eax
    4f6a:	e9 53 ff ff ff       	jmp    4ec2 <rh_request+0x552>
    4f6f:	c6 45 e4 01          	movb   $0x1,-0x1c(%ebp)
    4f73:	c7 44 24 0c 00 00 00 	movl   $0x0,0xc(%esp)
    4f7a:	00 
    4f7b:	c7 44 24 08 01 00 00 	movl   $0x1,0x8(%esp)
    4f82:	00 
    4f83:	e9 37 ff ff ff       	jmp    4ebf <rh_request+0x54f>
    4f88:	89 c1                	mov    %eax,%ecx
    4f8a:	81 e1 ff ff 00 00    	and    $0xffff,%ecx
    4f90:	ff 24 8d 24 de 02 00 	jmp    *0x2de24(,%ecx,4)
    4f97:	c7 44 24 08 1c d8 02 	movl   $0x2d81c,0x8(%esp)
    4f9e:	00 
    4f9f:	c7 44 24 04 05 00 00 	movl   $0x5,0x4(%esp)
    4fa6:	00 
    4fa7:	c7 04 24 ff ff ff ff 	movl   $0xffffffff,(%esp)
    4fae:	e8 fd 36 01 00       	call   186b0 <log_msg>
    4fb3:	8b 55 08             	mov    0x8(%ebp),%edx
    4fb6:	c7 44 24 0c 00 00 00 	movl   $0x0,0xc(%esp)
    4fbd:	00 
    4fbe:	8b 42 48             	mov    0x48(%edx),%eax
    4fc1:	89 44 24 08          	mov    %eax,0x8(%esp)
    4fc5:	89 d0                	mov    %edx,%eax
    4fc7:	83 c0 3d             	add    $0x3d,%eax
    4fca:	e9 f3 fe ff ff       	jmp    4ec2 <rh_request+0x552>
    4fcf:	c7 44 24 08 77 d8 02 	movl   $0x2d877,0x8(%esp)
    4fd6:	00 
    4fd7:	c7 44 24 04 05 00 00 	movl   $0x5,0x4(%esp)
    4fde:	00 
    4fdf:	c7 04 24 ff ff ff ff 	movl   $0xffffffff,(%esp)
    4fe6:	e8 c5 36 01 00       	call   186b0 <log_msg>
    4feb:	8b 45 08             	mov    0x8(%ebp),%eax
    4fee:	c7 44 24 0c 00 00 00 	movl   $0x0,0xc(%esp)
    4ff5:	00 
    4ff6:	c7 44 24 08 07 00 00 	movl   $0x7,0x8(%esp)
    4ffd:	00 
    4ffe:	83 c0 36             	add    $0x36,%eax
    5001:	e9 bc fe ff ff       	jmp    4ec2 <rh_request+0x552>
    5006:	c7 44 24 08 5f d8 02 	movl   $0x2d85f,0x8(%esp)
    500d:	00 
    500e:	c7 44 24 04 05 00 00 	movl   $0x5,0x4(%esp)
    5015:	00 
    5016:	c7 04 24 ff ff ff ff 	movl   $0xffffffff,(%esp)
    501d:	e8 8e 36 01 00       	call   186b0 <log_msg>
    5022:	8b 45 08             	mov    0x8(%ebp),%eax
    5025:	c7 44 24 0c 00 00 00 	movl   $0x0,0xc(%esp)
    502c:	00 
    502d:	c7 44 24 08 09 00 00 	movl   $0x9,0x8(%esp)
    5034:	00 
    5035:	83 c0 2d             	add    $0x2d,%eax
    5038:	e9 85 fe ff ff       	jmp    4ec2 <rh_request+0x552>
    503d:	c7 44 24 08 43 d8 02 	movl   $0x2d843,0x8(%esp)
    5044:	00 
    5045:	c7 44 24 04 05 00 00 	movl   $0x5,0x4(%esp)
    504c:	00 
    504d:	c7 04 24 ff ff ff ff 	movl   $0xffffffff,(%esp)
    5054:	e8 57 36 01 00       	call   186b0 <log_msg>
    5059:	8b 55 08             	mov    0x8(%ebp),%edx
    505c:	c7 44 24 0c 00 00 00 	movl   $0x0,0xc(%esp)
    5063:	00 
    5064:	66 8b 42 26          	mov    0x26(%edx),%ax
    5068:	25 ff ff 00 00       	and    $0xffff,%eax
    506d:	89 44 24 08          	mov    %eax,0x8(%esp)
    5071:	89 d0                	mov    %edx,%eax
    5073:	83 c0 24             	add    $0x24,%eax
    5076:	e9 47 fe ff ff       	jmp    4ec2 <rh_request+0x552>
    507b:	c7 44 24 08 2e d8 02 	movl   $0x2d82e,0x8(%esp)
    5082:	00 
    5083:	c7 44 24 04 05 00 00 	movl   $0x5,0x4(%esp)
    508a:	00 
    508b:	c7 04 24 ff ff ff ff 	movl   $0xffffffff,(%esp)
    5092:	e8 19 36 01 00       	call   186b0 <log_msg>
    5097:	c7 44 24 0c 00 00 00 	movl   $0x0,0xc(%esp)
    509e:	00 
    509f:	c7 44 24 08 12 00 00 	movl   $0x12,0x8(%esp)
    50a6:	00 
    50a7:	c7 44 24 04 20 df 02 	movl   $0x2df20,0x4(%esp)
    50ae:	00 
    50af:	89 34 24             	mov    %esi,(%esp)
    50b2:	e8 a9 27 00 00       	call   7860 <usb_transfer_batch_finish_error>
    50b7:	89 34 24             	mov    %esi,(%esp)
    50ba:	e8 b1 26 00 00       	call   7770 <usb_transfer_batch_destroy>
    50bf:	e9 21 f9 ff ff       	jmp    49e5 <rh_request+0x75>
    50c4:	c7 44 24 08 94 db 02 	movl   $0x2db94,0x8(%esp)
    50cb:	00 
    50cc:	c7 44 24 04 04 00 00 	movl   $0x4,0x4(%esp)
    50d3:	00 
    50d4:	c7 04 24 ff ff ff ff 	movl   $0xffffffff,(%esp)
    50db:	e8 d0 35 01 00       	call   186b0 <log_msg>
    50e0:	66 8b 46 1c          	mov    0x1c(%esi),%ax
    50e4:	66 85 c0             	test   %ax,%ax
    50e7:	66 8b 5e 1a          	mov    0x1a(%esi),%bx
    50eb:	0f 84 83 02 00 00    	je     5374 <rh_request+0xa04>
    50f1:	89 c2                	mov    %eax,%edx
    50f3:	8b 4d 08             	mov    0x8(%ebp),%ecx
    50f6:	81 e2 ff ff 00 00    	and    $0xffff,%edx
    50fc:	3b 51 18             	cmp    0x18(%ecx),%edx
    50ff:	0f 87 6f 02 00 00    	ja     5374 <rh_request+0xa04>
    5105:	66 83 fb 04          	cmp    $0x4,%bx
    5109:	0f 84 76 01 00 00    	je     5285 <rh_request+0x915>
    510f:	0f 87 b5 01 00 00    	ja     52ca <rh_request+0x95a>
    5115:	8d 53 ff             	lea    -0x1(%ebx),%edx
    5118:	66 83 fa 01          	cmp    $0x1,%dx
    511c:	0f 86 63 01 00 00    	jbe    5285 <rh_request+0x915>
    5122:	bf f5 ff ff ff       	mov    $0xfffffff5,%edi
    5127:	89 7c 24 0c          	mov    %edi,0xc(%esp)
    512b:	e9 95 f8 ff ff       	jmp    49c5 <rh_request+0x55>
    5130:	c7 44 24 08 f4 db 02 	movl   $0x2dbf4,0x8(%esp)
    5137:	00 
    5138:	e9 6c f8 ff ff       	jmp    49a9 <rh_request+0x39>
    513d:	c7 44 24 08 d0 da 02 	movl   $0x2dad0,0x8(%esp)
    5144:	00 
    5145:	c7 44 24 04 04 00 00 	movl   $0x4,0x4(%esp)
    514c:	00 
    514d:	c7 04 24 ff ff ff ff 	movl   $0xffffffff,(%esp)
    5154:	e8 57 35 01 00       	call   186b0 <log_msg>
    5159:	66 8b 46 1c          	mov    0x1c(%esi),%ax
    515d:	66 85 c0             	test   %ax,%ax
    5160:	66 8b 5e 1a          	mov    0x1a(%esi),%bx
    5164:	0f 84 e9 01 00 00    	je     5353 <rh_request+0x9e3>
    516a:	89 c2                	mov    %eax,%edx
    516c:	8b 4d 08             	mov    0x8(%ebp),%ecx
    516f:	81 e2 ff ff 00 00    	and    $0xffff,%edx
    5175:	3b 51 18             	cmp    0x18(%ecx),%edx
    5178:	0f 87 d5 01 00 00    	ja     5353 <rh_request+0x9e3>
    517e:	66 83 fb 14          	cmp    $0x14,%bx
    5182:	76 4a                	jbe    51ce <rh_request+0x85e>
    5184:	b8 f5 ff ff ff       	mov    $0xfffffff5,%eax
    5189:	89 44 24 0c          	mov    %eax,0xc(%esp)
    518d:	e9 33 f8 ff ff       	jmp    49c5 <rh_request+0x55>
    5192:	c7 44 24 08 48 db 02 	movl   $0x2db48,0x8(%esp)
    5199:	00 
    519a:	c7 44 24 04 04 00 00 	movl   $0x4,0x4(%esp)
    51a1:	00 
    51a2:	c7 04 24 ff ff ff ff 	movl   $0xffffffff,(%esp)
    51a9:	e8 02 35 01 00       	call   186b0 <log_msg>
    51ae:	66 83 7e 1a 01       	cmpw   $0x1,0x1a(%esi)
    51b3:	0f 84 c5 01 00 00    	je     537e <rh_request+0xa0e>
    51b9:	8a 46 18             	mov    0x18(%esi),%al
    51bc:	e9 85 fc ff ff       	jmp    4e46 <rh_request+0x4d6>
    51c1:	c7 44 24 0c 00 00 00 	movl   $0x0,0xc(%esp)
    51c8:	00 
    51c9:	e9 f7 f7 ff ff       	jmp    49c5 <rh_request+0x55>
    51ce:	89 da                	mov    %ebx,%edx
    51d0:	81 e2 ff ff 00 00    	and    $0xffff,%edx
    51d6:	ff 24 95 cc de 02 00 	jmp    *0x2decc(,%edx,4)
    51dd:	89 c7                	mov    %eax,%edi
    51df:	c7 44 24 08 f8 da 02 	movl   $0x2daf8,0x8(%esp)
    51e6:	00 
    51e7:	81 e7 ff ff 00 00    	and    $0xffff,%edi
    51ed:	c7 44 24 04 05 00 00 	movl   $0x5,0x4(%esp)
    51f4:	00 
    51f5:	89 7c 24 0c          	mov    %edi,0xc(%esp)
    51f9:	c7 04 24 ff ff ff ff 	movl   $0xffffffff,(%esp)
    5200:	e8 ab 34 01 00       	call   186b0 <log_msg>
    5205:	8b 55 08             	mov    0x8(%ebp),%edx
    5208:	88 d9                	mov    %bl,%cl
    520a:	8b 42 10             	mov    0x10(%edx),%eax
    520d:	83 c7 13             	add    $0x13,%edi
    5210:	ba 01 00 00 00       	mov    $0x1,%edx
    5215:	d3 e2                	shl    %cl,%edx
    5217:	89 54 b8 04          	mov    %edx,0x4(%eax,%edi,4)
    521b:	31 c0                	xor    %eax,%eax
    521d:	e9 67 ff ff ff       	jmp    5189 <rh_request+0x819>
    5222:	8b 4d 08             	mov    0x8(%ebp),%ecx
    5225:	8b 51 10             	mov    0x10(%ecx),%edx
    5228:	8b 4a 48             	mov    0x48(%edx),%ecx
    522b:	f6 c5 02             	test   $0x2,%ch
    522e:	0f 85 50 ff ff ff    	jne    5184 <rh_request+0x814>
    5234:	80 e5 01             	and    $0x1,%ch
    5237:	0f 85 20 01 00 00    	jne    535d <rh_request+0x9ed>
    523d:	c7 42 50 01 00 00 00 	movl   $0x1,0x50(%edx)
    5244:	31 c0                	xor    %eax,%eax
    5246:	e9 3e ff ff ff       	jmp    5189 <rh_request+0x819>
    524b:	8b 4d 08             	mov    0x8(%ebp),%ecx
    524e:	25 ff ff 00 00       	and    $0xffff,%eax
    5253:	83 c0 13             	add    $0x13,%eax
    5256:	8b 51 10             	mov    0x10(%ecx),%edx
    5259:	c7 44 82 04 08 00 00 	movl   $0x8,0x4(%edx,%eax,4)
    5260:	00 
    5261:	31 c0                	xor    %eax,%eax
    5263:	e9 21 ff ff ff       	jmp    5189 <rh_request+0x819>
    5268:	8b 4d 08             	mov    0x8(%ebp),%ecx
    526b:	25 ff ff 00 00       	and    $0xffff,%eax
    5270:	83 c0 13             	add    $0x13,%eax
    5273:	8b 51 10             	mov    0x10(%ecx),%edx
    5276:	c7 44 82 04 01 00 00 	movl   $0x1,0x4(%edx,%eax,4)
    527d:	00 
    527e:	31 c0                	xor    %eax,%eax
    5280:	e9 04 ff ff ff       	jmp    5189 <rh_request+0x819>
    5285:	89 c7                	mov    %eax,%edi
    5287:	c7 44 24 08 b8 db 02 	movl   $0x2dbb8,0x8(%esp)
    528e:	00 
    528f:	81 e7 ff ff 00 00    	and    $0xffff,%edi
    5295:	c7 44 24 04 05 00 00 	movl   $0x5,0x4(%esp)
    529c:	00 
    529d:	89 7c 24 0c          	mov    %edi,0xc(%esp)
    52a1:	c7 04 24 ff ff ff ff 	movl   $0xffffffff,(%esp)
    52a8:	e8 03 34 01 00       	call   186b0 <log_msg>
    52ad:	8b 55 08             	mov    0x8(%ebp),%edx
    52b0:	83 c7 13             	add    $0x13,%edi
    52b3:	8b 42 10             	mov    0x10(%edx),%eax
    52b6:	88 d9                	mov    %bl,%cl
    52b8:	ba 01 00 00 00       	mov    $0x1,%edx
    52bd:	d3 e2                	shl    %cl,%edx
    52bf:	89 54 b8 04          	mov    %edx,0x4(%eax,%edi,4)
    52c3:	31 ff                	xor    %edi,%edi
    52c5:	e9 5d fe ff ff       	jmp    5127 <rh_request+0x7b7>
    52ca:	66 83 fb 08          	cmp    $0x8,%bx
    52ce:	0f 85 4e fe ff ff    	jne    5122 <rh_request+0x7b2>
    52d4:	8b 4d 08             	mov    0x8(%ebp),%ecx
    52d7:	31 ff                	xor    %edi,%edi
    52d9:	8b 51 10             	mov    0x10(%ecx),%edx
    52dc:	8b 4a 48             	mov    0x48(%edx),%ecx
    52df:	f6 c5 02             	test   $0x2,%ch
    52e2:	0f 85 3f fe ff ff    	jne    5127 <rh_request+0x7b7>
    52e8:	80 e5 01             	and    $0x1,%ch
    52eb:	75 98                	jne    5285 <rh_request+0x915>
    52ed:	c7 42 50 00 00 01 00 	movl   $0x10000,0x50(%edx)
    52f4:	e9 2e fe ff ff       	jmp    5127 <rh_request+0x7b7>
    52f9:	89 44 24 0c          	mov    %eax,0xc(%esp)
    52fd:	c7 44 24 08 f0 d9 02 	movl   $0x2d9f0,0x8(%esp)
    5304:	00 
    5305:	c7 44 24 04 01 00 00 	movl   $0x1,0x4(%esp)
    530c:	00 
    530d:	c7 04 24 ff ff ff ff 	movl   $0xffffffff,(%esp)
    5314:	e8 97 33 01 00       	call   186b0 <log_msg>
    5319:	c7 44 24 0c f0 ff ff 	movl   $0xfffffff0,0xc(%esp)
    5320:	ff 
    5321:	e9 9f f6 ff ff       	jmp    49c5 <rh_request+0x55>
    5326:	89 44 24 0c          	mov    %eax,0xc(%esp)
    532a:	c7 44 24 08 24 da 02 	movl   $0x2da24,0x8(%esp)
    5331:	00 
    5332:	c7 44 24 04 01 00 00 	movl   $0x1,0x4(%esp)
    5339:	00 
    533a:	c7 04 24 ff ff ff ff 	movl   $0xffffffff,(%esp)
    5341:	e8 6a 33 01 00       	call   186b0 <log_msg>
    5346:	c7 44 24 0c f0 ff ff 	movl   $0xfffffff0,0xc(%esp)
    534d:	ff 
    534e:	e9 72 f6 ff ff       	jmp    49c5 <rh_request+0x55>
    5353:	b8 f2 ff ff ff       	mov    $0xfffffff2,%eax
    5358:	e9 2c fe ff ff       	jmp    5189 <rh_request+0x819>
    535d:	25 ff ff 00 00       	and    $0xffff,%eax
    5362:	83 c0 13             	add    $0x13,%eax
    5365:	c7 44 82 04 00 02 00 	movl   $0x200,0x4(%edx,%eax,4)
    536c:	00 
    536d:	31 c0                	xor    %eax,%eax
    536f:	e9 15 fe ff ff       	jmp    5189 <rh_request+0x819>
    5374:	bf f2 ff ff ff       	mov    $0xfffffff2,%edi
    5379:	e9 a9 fd ff ff       	jmp    5127 <rh_request+0x7b7>
    537e:	8b 55 08             	mov    0x8(%ebp),%edx
    5381:	8b 42 10             	mov    0x10(%edx),%eax
    5384:	c7 40 50 00 00 02 00 	movl   $0x20000,0x50(%eax)
    538b:	c7 44 24 0c 00 00 00 	movl   $0x0,0xc(%esp)
    5392:	00 
    5393:	e9 2d f6 ff ff       	jmp    49c5 <rh_request+0x55>
    5398:	c7 44 24 08 df 00 00 	movl   $0xdf,0x8(%esp)
    539f:	00 
    53a0:	c7 44 24 04 7b d7 02 	movl   $0x2d77b,0x4(%esp)
    53a7:	00 
    53a8:	c7 04 24 9b d7 02 00 	movl   $0x2d79b,(%esp)
    53af:	e8 fc 2b 02 00       	call   27fb0 <assert_abort>
    53b4:	c7 44 24 08 de 00 00 	movl   $0xde,0x8(%esp)
    53bb:	00 
    53bc:	c7 44 24 04 7b d7 02 	movl   $0x2d77b,0x4(%esp)
    53c3:	00 
    53c4:	c7 04 24 52 c6 02 00 	movl   $0x2c652,(%esp)
    53cb:	e8 e0 2b 02 00       	call   27fb0 <assert_abort>
    53d0:	c7 44 24 08 eb 00 00 	movl   $0xeb,0x8(%esp)
    53d7:	00 
    53d8:	c7 44 24 04 7b d7 02 	movl   $0x2d77b,0x4(%esp)
    53df:	00 
    53e0:	c7 04 24 a8 dc 02 00 	movl   $0x2dca8,(%esp)
    53e7:	e8 c4 2b 02 00       	call   27fb0 <assert_abort>
    53ec:	8d 74 26 00          	lea    0x0(%esi,%eiz,1),%esi

000053f0 <rh_interrupt>:
    53f0:	55                   	push   %ebp
    53f1:	89 e5                	mov    %esp,%ebp
    53f3:	57                   	push   %edi
    53f4:	56                   	push   %esi
    53f5:	53                   	push   %ebx
    53f6:	83 ec 4c             	sub    $0x4c,%esp
    53f9:	8b 75 08             	mov    0x8(%ebp),%esi
    53fc:	85 f6                	test   %esi,%esi
    53fe:	0f 84 20 01 00 00    	je     5524 <rh_interrupt+0x134>
    5404:	89 34 24             	mov    %esi,(%esp)
    5407:	e8 64 f0 00 00       	call   14470 <fibril_mutex_lock>
    540c:	8b 5e 1c             	mov    0x1c(%esi),%ebx
    540f:	85 db                	test   %ebx,%ebx
    5411:	0f 84 fd 00 00 00    	je     5514 <rh_interrupt+0x124>
    5417:	c7 44 24 08 4c dd 02 	movl   $0x2dd4c,0x8(%esp)
    541e:	00 
    541f:	c7 44 24 04 04 00 00 	movl   $0x4,0x4(%esp)
    5426:	00 
    5427:	c7 04 24 ff ff ff ff 	movl   $0xffffffff,(%esp)
    542e:	e8 7d 32 01 00       	call   186b0 <log_msg>
    5433:	8b 56 10             	mov    0x10(%esi),%edx
    5436:	8b 42 50             	mov    0x50(%edx),%eax
    5439:	a9 00 00 03 00       	test   $0x30000,%eax
    543e:	8b 46 18             	mov    0x18(%esi),%eax
    5441:	0f 95 c3             	setne  %bl
    5444:	81 e3 ff 00 00 00    	and    $0xff,%ebx
    544a:	85 c0                	test   %eax,%eax
    544c:	74 2b                	je     5479 <rh_interrupt+0x89>
    544e:	89 75 d4             	mov    %esi,-0x2c(%ebp)
    5451:	b9 01 00 00 00       	mov    $0x1,%ecx
    5456:	89 c6                	mov    %eax,%esi
    5458:	8d 41 13             	lea    0x13(%ecx),%eax
    545b:	bf 01 00 00 00       	mov    $0x1,%edi
    5460:	d3 e7                	shl    %cl,%edi
    5462:	8b 44 82 04          	mov    0x4(%edx,%eax,4),%eax
    5466:	09 df                	or     %ebx,%edi
    5468:	a9 00 00 1f 00       	test   $0x1f0000,%eax
    546d:	74 02                	je     5471 <rh_interrupt+0x81>
    546f:	89 fb                	mov    %edi,%ebx
    5471:	41                   	inc    %ecx
    5472:	39 f1                	cmp    %esi,%ecx
    5474:	76 e2                	jbe    5458 <rh_interrupt+0x68>
    5476:	8b 75 d4             	mov    -0x2c(%ebp),%esi
    5479:	89 d8                	mov    %ebx,%eax
    547b:	c7 44 24 08 d8 dc 02 	movl   $0x2dcd8,0x8(%esp)
    5482:	00 
    5483:	25 ff ff 00 00       	and    $0xffff,%eax
    5488:	c7 44 24 04 05 00 00 	movl   $0x5,0x4(%esp)
    548f:	00 
    5490:	89 44 24 0c          	mov    %eax,0xc(%esp)
    5494:	c7 04 24 ff ff ff ff 	movl   $0xffffffff,(%esp)
    549b:	e8 10 32 01 00       	call   186b0 <log_msg>
    54a0:	8b 7e 1c             	mov    0x1c(%esi),%edi
    54a3:	8b 46 20             	mov    0x20(%esi),%eax
    54a6:	66 89 5d e6          	mov    %bx,-0x1a(%ebp)
    54aa:	85 ff                	test   %edi,%edi
    54ac:	0f 84 8e 00 00 00    	je     5540 <rh_interrupt+0x150>
    54b2:	31 d2                	xor    %edx,%edx
    54b4:	89 44 24 0c          	mov    %eax,0xc(%esp)
    54b8:	8a 55 e7             	mov    -0x19(%ebp),%dl
    54bb:	c7 44 24 08 fc dc 02 	movl   $0x2dcfc,0x8(%esp)
    54c2:	00 
    54c3:	89 54 24 14          	mov    %edx,0x14(%esp)
    54c7:	31 d2                	xor    %edx,%edx
    54c9:	8a 55 e6             	mov    -0x1a(%ebp),%dl
    54cc:	c7 44 24 04 04 00 00 	movl   $0x4,0x4(%esp)
    54d3:	00 
    54d4:	89 54 24 10          	mov    %edx,0x10(%esp)
    54d8:	c7 04 24 ff ff ff ff 	movl   $0xffffffff,(%esp)
    54df:	89 45 d0             	mov    %eax,-0x30(%ebp)
    54e2:	e8 c9 31 01 00       	call   186b0 <log_msg>
    54e7:	8b 45 d0             	mov    -0x30(%ebp),%eax
    54ea:	c7 44 24 0c 00 00 00 	movl   $0x0,0xc(%esp)
    54f1:	00 
    54f2:	89 44 24 08          	mov    %eax,0x8(%esp)
    54f6:	8d 45 e6             	lea    -0x1a(%ebp),%eax
    54f9:	89 44 24 04          	mov    %eax,0x4(%esp)
    54fd:	89 3c 24             	mov    %edi,(%esp)
    5500:	e8 5b 23 00 00       	call   7860 <usb_transfer_batch_finish_error>
    5505:	89 3c 24             	mov    %edi,(%esp)
    5508:	e8 63 22 00 00       	call   7770 <usb_transfer_batch_destroy>
    550d:	c7 46 1c 00 00 00 00 	movl   $0x0,0x1c(%esi)
    5514:	89 34 24             	mov    %esi,(%esp)
    5517:	e8 74 f0 00 00       	call   14590 <fibril_mutex_unlock>
    551c:	83 c4 4c             	add    $0x4c,%esp
    551f:	5b                   	pop    %ebx
    5520:	5e                   	pop    %esi
    5521:	5f                   	pop    %edi
    5522:	5d                   	pop    %ebp
    5523:	c3                   	ret    
    5524:	c7 44 24 08 06 01 00 	movl   $0x106,0x8(%esp)
    552b:	00 
    552c:	c7 44 24 04 7b d7 02 	movl   $0x2d77b,0x4(%esp)
    5533:	00 
    5534:	c7 04 24 52 c6 02 00 	movl   $0x2c652,(%esp)
    553b:	e8 70 2a 02 00       	call   27fb0 <assert_abort>
    5540:	c7 44 24 08 7d 00 00 	movl   $0x7d,0x8(%esp)
    5547:	00 
    5548:	c7 44 24 04 7b d7 02 	movl   $0x2d77b,0x4(%esp)
    554f:	00 
    5550:	c7 04 24 9b d7 02 00 	movl   $0x2d79b,(%esp)
    5557:	e8 54 2a 02 00       	call   27fb0 <assert_abort>
    555c:	66 90                	xchg   %ax,%ax
    555e:	66 90                	xchg   %ax,%ax

00005560 <ed_init>:
    5560:	55                   	push   %ebp
    5561:	89 e5                	mov    %esp,%ebp
    5563:	57                   	push   %edi
    5564:	56                   	push   %esi
    5565:	53                   	push   %ebx
    5566:	83 ec 2c             	sub    $0x2c,%esp
    5569:	8b 5d 08             	mov    0x8(%ebp),%ebx
    556c:	8b 7d 0c             	mov    0xc(%ebp),%edi
    556f:	8b 75 10             	mov    0x10(%ebp),%esi
    5572:	85 db                	test   %ebx,%ebx
    5574:	0f 84 e8 00 00 00    	je     5662 <ed_init+0x102>
    557a:	c7 44 24 08 10 00 00 	movl   $0x10,0x8(%esp)
    5581:	00 
    5582:	c7 44 24 04 00 00 00 	movl   $0x0,0x4(%esp)
    5589:	00 
    558a:	89 1c 24             	mov    %ebx,(%esp)
    558d:	e8 7e ac 00 00       	call   10210 <memset>
    5592:	85 ff                	test   %edi,%edi
    5594:	0f 84 9e 00 00 00    	je     5638 <ed_init+0xd8>
    559a:	85 f6                	test   %esi,%esi
    559c:	0f 84 a4 00 00 00    	je     5646 <ed_init+0xe6>
    55a2:	8b 47 0c             	mov    0xc(%edi),%eax
    55a5:	8b 57 18             	mov    0x18(%edi),%edx
    55a8:	81 e2 ff 03 00 00    	and    $0x3ff,%edx
    55ae:	8b 4f 08             	mov    0x8(%edi),%ecx
    55b1:	8b 04 85 58 df 02 00 	mov    0x2df58(,%eax,4),%eax
    55b8:	83 e1 7f             	and    $0x7f,%ecx
    55bb:	c1 e2 10             	shl    $0x10,%edx
    55be:	83 e0 03             	and    $0x3,%eax
    55c1:	c1 e0 0b             	shl    $0xb,%eax
    55c4:	09 d0                	or     %edx,%eax
    55c6:	66 8b 57 0a          	mov    0xa(%edi),%dx
    55ca:	83 e2 0f             	and    $0xf,%edx
    55cd:	c1 e2 07             	shl    $0x7,%edx
    55d0:	09 ca                	or     %ecx,%edx
    55d2:	09 d0                	or     %edx,%eax
    55d4:	89 03                	mov    %eax,(%ebx)
    55d6:	8b 47 14             	mov    0x14(%edi),%eax
    55d9:	85 c0                	test   %eax,%eax
    55db:	74 43                	je     5620 <ed_init+0xc0>
    55dd:	83 7f 10 01          	cmpl   $0x1,0x10(%edi)
    55e1:	74 4a                	je     562d <ed_init+0xcd>
    55e3:	8d 45 e4             	lea    -0x1c(%ebp),%eax
    55e6:	89 34 24             	mov    %esi,(%esp)
    55e9:	89 44 24 04          	mov    %eax,0x4(%esp)
    55ed:	e8 3e 89 00 00       	call   df30 <as_get_physical_mapping>
    55f2:	31 d2                	xor    %edx,%edx
    55f4:	85 c0                	test   %eax,%eax
    55f6:	75 06                	jne    55fe <ed_init+0x9e>
    55f8:	8b 55 e4             	mov    -0x1c(%ebp),%edx
    55fb:	83 e2 f0             	and    $0xfffffff0,%edx
    55fe:	89 53 08             	mov    %edx,0x8(%ebx)
    5601:	89 53 04             	mov    %edx,0x4(%ebx)
    5604:	f6 47 20 01          	testb  $0x1,0x20(%edi)
    5608:	74 09                	je     5613 <ed_init+0xb3>
    560a:	8b 43 08             	mov    0x8(%ebx),%eax
    560d:	83 c8 02             	or     $0x2,%eax
    5610:	89 43 08             	mov    %eax,0x8(%ebx)
    5613:	83 c4 2c             	add    $0x2c,%esp
    5616:	5b                   	pop    %ebx
    5617:	5e                   	pop    %esi
    5618:	5f                   	pop    %edi
    5619:	5d                   	pop    %ebp
    561a:	c3                   	ret    
    561b:	90                   	nop
    561c:	8d 74 26 00          	lea    0x0(%esi,%eiz,1),%esi
    5620:	8b 03                	mov    (%ebx),%eax
    5622:	80 cc 20             	or     $0x20,%ah
    5625:	89 03                	mov    %eax,(%ebx)
    5627:	83 7f 10 01          	cmpl   $0x1,0x10(%edi)
    562b:	75 b6                	jne    55e3 <ed_init+0x83>
    562d:	8b 03                	mov    (%ebx),%eax
    562f:	80 cc 80             	or     $0x80,%ah
    5632:	89 03                	mov    %eax,(%ebx)
    5634:	eb ad                	jmp    55e3 <ed_init+0x83>
    5636:	66 90                	xchg   %ax,%ax
    5638:	c7 03 00 40 00 00    	movl   $0x4000,(%ebx)
    563e:	83 c4 2c             	add    $0x2c,%esp
    5641:	5b                   	pop    %ebx
    5642:	5e                   	pop    %esi
    5643:	5f                   	pop    %edi
    5644:	5d                   	pop    %ebp
    5645:	c3                   	ret    
    5646:	c7 44 24 08 40 00 00 	movl   $0x40,0x8(%esp)
    564d:	00 
    564e:	c7 44 24 04 34 df 02 	movl   $0x2df34,0x4(%esp)
    5655:	00 
    5656:	c7 04 24 54 df 02 00 	movl   $0x2df54,(%esp)
    565d:	e8 4e 29 02 00       	call   27fb0 <assert_abort>
    5662:	c7 44 24 08 36 00 00 	movl   $0x36,0x8(%esp)
    5669:	00 
    566a:	c7 44 24 04 34 df 02 	movl   $0x2df34,0x4(%esp)
    5671:	00 
    5672:	c7 04 24 52 c6 02 00 	movl   $0x2c652,(%esp)
    5679:	e8 32 29 02 00       	call   27fb0 <assert_abort>
    567e:	66 90                	xchg   %ax,%ax

00005680 <td_init>:
    5680:	55                   	push   %ebp
    5681:	89 e5                	mov    %esp,%ebp
    5683:	57                   	push   %edi
    5684:	56                   	push   %esi
    5685:	53                   	push   %ebx
    5686:	83 ec 2c             	sub    $0x2c,%esp
    5689:	8b 5d 08             	mov    0x8(%ebp),%ebx
    568c:	8b 75 14             	mov    0x14(%ebp),%esi
    568f:	85 db                	test   %ebx,%ebx
    5691:	0f 84 cb 00 00 00    	je     5762 <td_init+0xe2>
    5697:	c7 44 24 08 10 00 00 	movl   $0x10,0x8(%esp)
    569e:	00 
    569f:	c7 44 24 04 00 00 00 	movl   $0x0,0x4(%esp)
    56a6:	00 
    56a7:	89 1c 24             	mov    %ebx,(%esp)
    56aa:	e8 61 ab 00 00       	call   10210 <memset>
    56af:	8b 45 10             	mov    0x10(%ebp),%eax
    56b2:	8b 04 85 90 df 02 00 	mov    0x2df90(,%eax,4),%eax
