
mfs:     file format elf32-i386


Disassembly of section .init:

00001094 <__entry>:
    1094:	66 8c d0             	mov    %ss,%ax
    1097:	8e d8                	mov    %eax,%ds
    1099:	8e c0                	mov    %eax,%es
    109b:	8e e0                	mov    %eax,%fs
    109d:	b8 01 00 00 00       	mov    $0x1,%eax
    10a2:	0f a2                	cpuid  
    10a4:	0f ba e2 0b          	bt     $0xb,%edx
    10a8:	73 0c                	jae    10b6 <__entry+0x22>
    10aa:	8d 05 94 77 02 00    	lea    0x27794,%eax
    10b0:	c7 00 77 23 02 00    	movl   $0x22377,(%eax)
    10b6:	6a 00                	push   $0x0
    10b8:	89 e5                	mov    %esp,%ebp
    10ba:	57                   	push   %edi
    10bb:	e8 10 6e 00 00       	call   7ed0 <__main>

Disassembly of section .text:

000010c0 <main>:
    10c0:	55                   	push   %ebp
    10c1:	89 e5                	mov    %esp,%ebp
    10c3:	56                   	push   %esi
    10c4:	53                   	push   %ebx
    10c5:	83 e4 f0             	and    $0xfffffff0,%esp
    10c8:	83 ec 10             	sub    $0x10,%esp
    10cb:	c7 04 24 a4 48 02 00 	movl   $0x248a4,(%esp)
    10d2:	e8 b9 1d 01 00       	call   12e90 <printf>
    10d7:	83 7d 08 03          	cmpl   $0x3,0x8(%ebp)
    10db:	0f 84 86 00 00 00    	je     1167 <main+0xa7>
    10e1:	c7 44 24 0c 00 00 00 	movl   $0x0,0xc(%esp)
    10e8:	00 
    10e9:	c7 44 24 08 00 00 00 	movl   $0x0,0x8(%esp)
    10f0:	00 
    10f1:	c7 44 24 04 76 66 73 	movl   $0x20736676,0x4(%esp)
    10f8:	20 
    10f9:	c7 04 24 02 00 00 00 	movl   $0x2,(%esp)
    1100:	e8 9b 72 01 00       	call   183a0 <service_connect_blocking>
    1105:	89 c6                	mov    %eax,%esi
    1107:	85 c0                	test   %eax,%eax
    1109:	0f 84 d4 00 00 00    	je     11e3 <main+0x123>
    110f:	e8 ac 24 00 00       	call   35c0 <mfs_global_init>
    1114:	89 c3                	mov    %eax,%ebx
    1116:	85 c0                	test   %eax,%eax
    1118:	75 3f                	jne    1159 <main+0x99>
    111a:	c7 44 24 0c 20 75 02 	movl   $0x27520,0xc(%esp)
    1121:	00 
    1122:	c7 44 24 08 00 75 02 	movl   $0x27500,0x8(%esp)
    1129:	00 
    112a:	c7 44 24 04 e0 74 02 	movl   $0x274e0,0x4(%esp)
    1131:	00 
    1132:	89 34 24             	mov    %esi,(%esp)
    1135:	e8 f6 68 00 00       	call   7a30 <fs_register>
    113a:	89 c3                	mov    %eax,%ebx
    113c:	85 c0                	test   %eax,%eax
    113e:	74 7a                	je     11ba <main+0xfa>
    1140:	89 5c 24 04          	mov    %ebx,0x4(%esp)
    1144:	c7 04 24 10 49 02 00 	movl   $0x24910,(%esp)
    114b:	e8 40 1d 01 00       	call   12e90 <printf>
    1150:	8d 65 f8             	lea    -0x8(%ebp),%esp
    1153:	89 d8                	mov    %ebx,%eax
    1155:	5b                   	pop    %ebx
    1156:	5e                   	pop    %esi
    1157:	5d                   	pop    %ebp
    1158:	c3                   	ret    
    1159:	c7 04 24 ec 48 02 00 	movl   $0x248ec,(%esp)
    1160:	e8 2b 1d 01 00       	call   12e90 <printf>
    1165:	eb d9                	jmp    1140 <main+0x80>
    1167:	8b 55 0c             	mov    0xc(%ebp),%edx
    116a:	c7 44 24 04 3a 49 02 	movl   $0x2493a,0x4(%esp)
    1171:	00 
    1172:	8b 42 04             	mov    0x4(%edx),%eax
    1175:	89 04 24             	mov    %eax,(%esp)
    1178:	e8 93 b0 00 00       	call   c210 <str_cmp>
    117d:	85 c0                	test   %eax,%eax
    117f:	75 28                	jne    11a9 <main+0xe9>
    1181:	8b 55 0c             	mov    0xc(%ebp),%edx
    1184:	c7 44 24 08 0a 00 00 	movl   $0xa,0x8(%esp)
    118b:	00 
    118c:	c7 44 24 04 00 00 00 	movl   $0x0,0x4(%esp)
    1193:	00 
    1194:	8b 42 08             	mov    0x8(%edx),%eax
    1197:	89 04 24             	mov    %eax,(%esp)
    119a:	e8 a1 ca 00 00       	call   dc40 <strtol>
    119f:	a3 f8 74 02 00       	mov    %eax,0x274f8
    11a4:	e9 38 ff ff ff       	jmp    10e1 <main+0x21>
    11a9:	c7 04 24 45 49 02 00 	movl   $0x24945,(%esp)
    11b0:	83 cb ff             	or     $0xffffffff,%ebx
    11b3:	e8 d8 1c 01 00       	call   12e90 <printf>
    11b8:	eb 86                	jmp    1140 <main+0x80>
    11ba:	c7 04 24 61 49 02 00 	movl   $0x24961,(%esp)
    11c1:	e8 ca 1c 01 00       	call   12e90 <printf>
    11c6:	c7 04 24 00 00 00 00 	movl   $0x0,(%esp)
    11cd:	e8 7e f6 00 00       	call   10850 <task_retval>
    11d2:	c7 04 24 01 00 00 00 	movl   $0x1,(%esp)
    11d9:	e8 52 d5 00 00       	call   e730 <fibril_switch>
    11de:	e9 6d ff ff ff       	jmp    1150 <main+0x90>
    11e3:	c7 04 24 cc 48 02 00 	movl   $0x248cc,(%esp)
    11ea:	83 cb ff             	or     $0xffffffff,%ebx
    11ed:	e8 9e 1c 01 00       	call   12e90 <printf>
    11f2:	e9 59 ff ff ff       	jmp    1150 <main+0x90>
    11f7:	66 90                	xchg   %ax,%ax
    11f9:	66 90                	xchg   %ax,%ax
    11fb:	66 90                	xchg   %ax,%ax
    11fd:	66 90                	xchg   %ax,%ax
    11ff:	90                   	nop

00001200 <open_nodes_key_hash>:
    1200:	55                   	push   %ebp
    1201:	89 e5                	mov    %esp,%ebp
    1203:	8b 45 08             	mov    0x8(%ebp),%eax
    1206:	5d                   	pop    %ebp
    1207:	8b 10                	mov    (%eax),%edx
    1209:	8b 48 04             	mov    0x4(%eax),%ecx
    120c:	89 d0                	mov    %edx,%eax
    120e:	c1 c8 1b             	ror    $0x1b,%eax
    1211:	8d 84 01 b9 79 37 9e 	lea    -0x61c88647(%ecx,%eax,1),%eax
    1218:	31 d0                	xor    %edx,%eax
    121a:	c3                   	ret    
    121b:	90                   	nop
    121c:	8d 74 26 00          	lea    0x0(%esi,%eiz,1),%esi

00001220 <open_nodes_hash>:
    1220:	55                   	push   %ebp
    1221:	89 e5                	mov    %esp,%ebp
    1223:	8b 45 08             	mov    0x8(%ebp),%eax
    1226:	5d                   	pop    %ebp
    1227:	8b 50 f4             	mov    -0xc(%eax),%edx
    122a:	8b 40 f0             	mov    -0x10(%eax),%eax
    122d:	8b 12                	mov    (%edx),%edx
    122f:	8b 48 44             	mov    0x44(%eax),%ecx
    1232:	89 d0                	mov    %edx,%eax
    1234:	c1 c8 1b             	ror    $0x1b,%eax
    1237:	8d 84 01 b9 79 37 9e 	lea    -0x61c88647(%ecx,%eax,1),%eax
    123e:	31 d0                	xor    %edx,%eax
    1240:	c3                   	ret    
    1241:	eb 0d                	jmp    1250 <open_nodes_key_equal>
    1243:	90                   	nop
    1244:	90                   	nop
    1245:	90                   	nop
    1246:	90                   	nop
    1247:	90                   	nop
    1248:	90                   	nop
    1249:	90                   	nop
    124a:	90                   	nop
    124b:	90                   	nop
    124c:	90                   	nop
    124d:	90                   	nop
    124e:	90                   	nop
    124f:	90                   	nop

00001250 <open_nodes_key_equal>:
    1250:	55                   	push   %ebp
    1251:	31 c0                	xor    %eax,%eax
    1253:	89 e5                	mov    %esp,%ebp
    1255:	53                   	push   %ebx
    1256:	8b 4d 0c             	mov    0xc(%ebp),%ecx
    1259:	8b 55 08             	mov    0x8(%ebp),%edx
    125c:	8b 59 f4             	mov    -0xc(%ecx),%ebx
    125f:	8b 1b                	mov    (%ebx),%ebx
    1261:	39 1a                	cmp    %ebx,(%edx)
    1263:	74 03                	je     1268 <open_nodes_key_equal+0x18>
    1265:	5b                   	pop    %ebx
    1266:	5d                   	pop    %ebp
    1267:	c3                   	ret    
    1268:	8b 41 f0             	mov    -0x10(%ecx),%eax
    126b:	5b                   	pop    %ebx
    126c:	5d                   	pop    %ebp
    126d:	8b 48 44             	mov    0x44(%eax),%ecx
    1270:	39 4a 04             	cmp    %ecx,0x4(%edx)
    1273:	0f 94 c0             	sete   %al
    1276:	c3                   	ret    
    1277:	89 f6                	mov    %esi,%esi
    1279:	8d bc 27 00 00 00 00 	lea    0x0(%edi,%eiz,1),%edi

00001280 <mfs_service_get>:
    1280:	55                   	push   %ebp
    1281:	89 e5                	mov    %esp,%ebp
    1283:	8b 45 08             	mov    0x8(%ebp),%eax
    1286:	5d                   	pop    %ebp
    1287:	8b 40 10             	mov    0x10(%eax),%eax
    128a:	8b 40 04             	mov    0x4(%eax),%eax
    128d:	8b 00                	mov    (%eax),%eax
    128f:	c3                   	ret    

00001290 <mfs_size_get>:
    1290:	55                   	push   %ebp
    1291:	31 d2                	xor    %edx,%edx
    1293:	89 e5                	mov    %esp,%ebp
    1295:	8b 45 08             	mov    0x8(%ebp),%eax
    1298:	5d                   	pop    %ebp
    1299:	8b 40 10             	mov    0x10(%eax),%eax
    129c:	8b 00                	mov    (%eax),%eax
    129e:	8b 40 08             	mov    0x8(%eax),%eax
    12a1:	c3                   	ret    
    12a2:	8d b4 26 00 00 00 00 	lea    0x0(%esi,%eiz,1),%esi
    12a9:	8d bc 27 00 00 00 00 	lea    0x0(%edi,%eiz,1),%edi

000012b0 <mfs_node_open>:
    12b0:	55                   	push   %ebp
    12b1:	31 c0                	xor    %eax,%eax
    12b3:	89 e5                	mov    %esp,%ebp
    12b5:	5d                   	pop    %ebp
    12b6:	c3                   	ret    
    12b7:	89 f6                	mov    %esi,%esi
    12b9:	8d bc 27 00 00 00 00 	lea    0x0(%edi,%eiz,1),%edi

000012c0 <mfs_index_get>:
    12c0:	55                   	push   %ebp
    12c1:	89 e5                	mov    %esp,%ebp
    12c3:	8b 45 08             	mov    0x8(%ebp),%eax
    12c6:	5d                   	pop    %ebp
    12c7:	8b 40 10             	mov    0x10(%eax),%eax
    12ca:	8b 00                	mov    (%eax),%eax
    12cc:	8b 40 44             	mov    0x44(%eax),%eax
    12cf:	c3                   	ret    

000012d0 <mfs_lnkcnt_get>:
    12d0:	55                   	push   %ebp
    12d1:	89 e5                	mov    %esp,%ebp
    12d3:	8b 45 08             	mov    0x8(%ebp),%eax
    12d6:	8b 40 10             	mov    0x10(%eax),%eax
    12d9:	8b 10                	mov    (%eax),%edx
    12db:	8b 02                	mov    (%edx),%eax
    12dd:	25 00 f0 ff ff       	and    $0xfffff000,%eax
    12e2:	66 3d 00 40          	cmp    $0x4000,%ax
    12e6:	74 10                	je     12f8 <mfs_lnkcnt_get+0x28>
    12e8:	66 8b 42 02          	mov    0x2(%edx),%ax
    12ec:	5d                   	pop    %ebp
    12ed:	25 ff ff 00 00       	and    $0xffff,%eax
    12f2:	c3                   	ret    
    12f3:	90                   	nop
    12f4:	8d 74 26 00          	lea    0x0(%esi,%eiz,1),%esi
    12f8:	66 83 7a 02 01       	cmpw   $0x1,0x2(%edx)
    12fd:	0f 97 c0             	seta   %al
    1300:	25 ff 00 00 00       	and    $0xff,%eax
    1305:	5d                   	pop    %ebp
    1306:	c3                   	ret    
    1307:	89 f6                	mov    %esi,%esi
    1309:	8d bc 27 00 00 00 00 	lea    0x0(%edi,%eiz,1),%edi

00001310 <mfs_is_directory>:
    1310:	55                   	push   %ebp
    1311:	89 e5                	mov    %esp,%ebp
    1313:	8b 45 08             	mov    0x8(%ebp),%eax
    1316:	5d                   	pop    %ebp
    1317:	8b 40 10             	mov    0x10(%eax),%eax
    131a:	8b 00                	mov    (%eax),%eax
    131c:	8b 00                	mov    (%eax),%eax
    131e:	25 00 f0 ff ff       	and    $0xfffff000,%eax
    1323:	66 3d 00 40          	cmp    $0x4000,%ax
    1327:	0f 94 c0             	sete   %al
    132a:	c3                   	ret    
    132b:	90                   	nop
    132c:	8d 74 26 00          	lea    0x0(%esi,%eiz,1),%esi

00001330 <mfs_is_file>:
    1330:	55                   	push   %ebp
    1331:	89 e5                	mov    %esp,%ebp
    1333:	8b 45 08             	mov    0x8(%ebp),%eax
    1336:	5d                   	pop    %ebp
    1337:	8b 40 10             	mov    0x10(%eax),%eax
    133a:	8b 00                	mov    (%eax),%eax
    133c:	8b 00                	mov    (%eax),%eax
    133e:	25 00 f0 ff ff       	and    $0xfffff000,%eax
    1343:	66 3d 00 80          	cmp    $0x8000,%ax
    1347:	0f 94 c0             	sete   %al
    134a:	c3                   	ret    
    134b:	90                   	nop
    134c:	8d 74 26 00          	lea    0x0(%esi,%eiz,1),%esi

00001350 <mfs_close>:
    1350:	55                   	push   %ebp
    1351:	31 c0                	xor    %eax,%eax
    1353:	89 e5                	mov    %esp,%ebp
    1355:	5d                   	pop    %ebp
    1356:	c3                   	ret    
    1357:	89 f6                	mov    %esi,%esi
    1359:	8d bc 27 00 00 00 00 	lea    0x0(%edi,%eiz,1),%edi

00001360 <mfs_has_children>:
    1360:	55                   	push   %ebp
    1361:	89 e5                	mov    %esp,%ebp
    1363:	57                   	push   %edi
    1364:	56                   	push   %esi
    1365:	53                   	push   %ebx
    1366:	83 ec 6c             	sub    $0x6c,%esp
    1369:	8b 45 0c             	mov    0xc(%ebp),%eax
    136c:	8b 78 10             	mov    0x10(%eax),%edi
    136f:	8b 47 04             	mov    0x4(%edi),%eax
    1372:	8b 17                	mov    (%edi),%edx
    1374:	8b 70 04             	mov    0x4(%eax),%esi
    1377:	8b 45 08             	mov    0x8(%ebp),%eax
    137a:	c6 00 00             	movb   $0x0,(%eax)
    137d:	8b 02                	mov    (%edx),%eax
    137f:	25 00 f0 ff ff       	and    $0xfffff000,%eax
    1384:	66 3d 00 40          	cmp    $0x4000,%ax
    1388:	74 0e                	je     1398 <mfs_has_children+0x38>
    138a:	31 c0                	xor    %eax,%eax
    138c:	83 c4 6c             	add    $0x6c,%esp
    138f:	5b                   	pop    %ebx
    1390:	5e                   	pop    %esi
    1391:	5f                   	pop    %edi
    1392:	5d                   	pop    %ebp
    1393:	c3                   	ret    
    1394:	8d 74 26 00          	lea    0x0(%esi,%eiz,1),%esi
    1398:	8b 42 08             	mov    0x8(%edx),%eax
    139b:	31 d2                	xor    %edx,%edx
    139d:	f7 76 30             	divl   0x30(%esi)
    13a0:	83 f8 02             	cmp    $0x2,%eax
    13a3:	76 e5                	jbe    138a <mfs_has_children+0x2a>
    13a5:	bb 02 00 00 00       	mov    $0x2,%ebx
    13aa:	eb 13                	jmp    13bf <mfs_has_children+0x5f>
    13ac:	8d 74 26 00          	lea    0x0(%esi,%eiz,1),%esi
    13b0:	8b 07                	mov    (%edi),%eax
    13b2:	31 d2                	xor    %edx,%edx
    13b4:	43                   	inc    %ebx
    13b5:	8b 40 08             	mov    0x8(%eax),%eax
    13b8:	f7 76 30             	divl   0x30(%esi)
    13bb:	39 d8                	cmp    %ebx,%eax
    13bd:	76 cb                	jbe    138a <mfs_has_children+0x2a>
    13bf:	8d 55 9c             	lea    -0x64(%ebp),%edx
    13c2:	89 5c 24 08          	mov    %ebx,0x8(%esp)
    13c6:	89 54 24 04          	mov    %edx,0x4(%esp)
    13ca:	89 3c 24             	mov    %edi,(%esp)
    13cd:	e8 8e 33 00 00       	call   4760 <mfs_read_dentry>
    13d2:	85 c0                	test   %eax,%eax
    13d4:	75 b6                	jne    138c <mfs_has_children+0x2c>
    13d6:	8b 55 9c             	mov    -0x64(%ebp),%edx
    13d9:	85 d2                	test   %edx,%edx
    13db:	74 d3                	je     13b0 <mfs_has_children+0x50>
    13dd:	8b 55 08             	mov    0x8(%ebp),%edx
    13e0:	c6 02 01             	movb   $0x1,(%edx)
    13e3:	83 c4 6c             	add    $0x6c,%esp
    13e6:	5b                   	pop    %ebx
    13e7:	5e                   	pop    %esi
    13e8:	5f                   	pop    %edi
    13e9:	5d                   	pop    %ebp
    13ea:	c3                   	ret    
    13eb:	90                   	nop
    13ec:	8d 74 26 00          	lea    0x0(%esi,%eiz,1),%esi

000013f0 <mfs_link>:
    13f0:	55                   	push   %ebp
    13f1:	89 e5                	mov    %esp,%ebp
    13f3:	57                   	push   %edi
    13f4:	56                   	push   %esi
    13f5:	53                   	push   %ebx
    13f6:	83 ec 1c             	sub    $0x1c,%esp
    13f9:	8b 45 08             	mov    0x8(%ebp),%eax
    13fc:	8b 70 10             	mov    0x10(%eax),%esi
    13ff:	8b 45 0c             	mov    0xc(%ebp),%eax
    1402:	8b 78 10             	mov    0x10(%eax),%edi
    1405:	8b 46 04             	mov    0x4(%esi),%eax
    1408:	8b 58 04             	mov    0x4(%eax),%ebx
    140b:	8b 45 10             	mov    0x10(%ebp),%eax
    140e:	89 04 24             	mov    %eax,(%esp)
    1411:	e8 ca a8 00 00       	call   bce0 <str_size>
    1416:	3b 43 38             	cmp    0x38(%ebx),%eax
    1419:	77 6d                	ja     1488 <mfs_link+0x98>
    141b:	8b 07                	mov    (%edi),%eax
    141d:	8b 40 44             	mov    0x44(%eax),%eax
    1420:	89 34 24             	mov    %esi,(%esp)
    1423:	89 44 24 08          	mov    %eax,0x8(%esp)
    1427:	8b 45 10             	mov    0x10(%ebp),%eax
    142a:	89 44 24 04          	mov    %eax,0x4(%esp)
    142e:	e8 bd 36 00 00       	call   4af0 <mfs_insert_dentry>
    1433:	89 c3                	mov    %eax,%ebx
    1435:	85 c0                	test   %eax,%eax
    1437:	75 19                	jne    1452 <mfs_link+0x62>
    1439:	8b 07                	mov    (%edi),%eax
    143b:	8b 08                	mov    (%eax),%ecx
    143d:	81 e1 00 f0 ff ff    	and    $0xfffff000,%ecx
    1443:	66 81 f9 00 40       	cmp    $0x4000,%cx
    1448:	74 16                	je     1460 <mfs_link+0x70>
    144a:	66 ff 40 02          	incw   0x2(%eax)
    144e:	c6 40 40 01          	movb   $0x1,0x40(%eax)
    1452:	83 c4 1c             	add    $0x1c,%esp
    1455:	89 d8                	mov    %ebx,%eax
    1457:	5b                   	pop    %ebx
    1458:	5e                   	pop    %esi
    1459:	5f                   	pop    %edi
    145a:	5d                   	pop    %ebp
    145b:	c3                   	ret    
    145c:	8d 74 26 00          	lea    0x0(%esi,%eiz,1),%esi
    1460:	66 83 78 02 01       	cmpw   $0x1,0x2(%eax)
    1465:	74 29                	je     1490 <mfs_link+0xa0>
    1467:	bb f6 fe ff ff       	mov    $0xfffffef6,%ebx
    146c:	8b 45 10             	mov    0x10(%ebp),%eax
    146f:	89 34 24             	mov    %esi,(%esp)
    1472:	89 44 24 04          	mov    %eax,0x4(%esp)
    1476:	e8 a5 35 00 00       	call   4a20 <mfs_remove_dentry>
    147b:	85 c0                	test   %eax,%eax
    147d:	74 d3                	je     1452 <mfs_link+0x62>
    147f:	89 c3                	mov    %eax,%ebx
    1481:	eb cf                	jmp    1452 <mfs_link+0x62>
    1483:	90                   	nop
    1484:	8d 74 26 00          	lea    0x0(%esi,%eiz,1),%esi
    1488:	bb 00 ff ff ff       	mov    $0xffffff00,%ebx
    148d:	eb c3                	jmp    1452 <mfs_link+0x62>
    148f:	90                   	nop
    1490:	8b 40 44             	mov    0x44(%eax),%eax
    1493:	c7 44 24 04 7e 49 02 	movl   $0x2497e,0x4(%esp)
    149a:	00 
    149b:	89 44 24 08          	mov    %eax,0x8(%esp)
    149f:	89 3c 24             	mov    %edi,(%esp)
    14a2:	e8 49 36 00 00       	call   4af0 <mfs_insert_dentry>
    14a7:	85 c0                	test   %eax,%eax
    14a9:	74 04                	je     14af <mfs_link+0xbf>
    14ab:	89 c3                	mov    %eax,%ebx
    14ad:	eb bd                	jmp    146c <mfs_link+0x7c>
    14af:	8b 06                	mov    (%esi),%eax
    14b1:	8b 40 44             	mov    0x44(%eax),%eax
    14b4:	c7 44 24 04 7d 49 02 	movl   $0x2497d,0x4(%esp)
    14bb:	00 
    14bc:	89 44 24 08          	mov    %eax,0x8(%esp)
    14c0:	89 3c 24             	mov    %edi,(%esp)
    14c3:	e8 28 36 00 00       	call   4af0 <mfs_insert_dentry>
    14c8:	85 c0                	test   %eax,%eax
    14ca:	75 df                	jne    14ab <mfs_link+0xbb>
    14cc:	8b 06                	mov    (%esi),%eax
    14ce:	66 ff 40 02          	incw   0x2(%eax)
    14d2:	c6 40 40 01          	movb   $0x1,0x40(%eax)
    14d6:	8b 07                	mov    (%edi),%eax
    14d8:	e9 6d ff ff ff       	jmp    144a <mfs_link+0x5a>
    14dd:	8d 76 00             	lea    0x0(%esi),%esi

000014e0 <mfs_create_node>:
    14e0:	55                   	push   %ebp
    14e1:	89 e5                	mov    %esp,%ebp
    14e3:	57                   	push   %edi
    14e4:	56                   	push   %esi
    14e5:	53                   	push   %ebx
    14e6:	83 ec 3c             	sub    $0x3c,%esp
    14e9:	8d 45 e4             	lea    -0x1c(%ebp),%eax
    14ec:	89 44 24 04          	mov    %eax,0x4(%esp)
    14f0:	8b 45 0c             	mov    0xc(%ebp),%eax
    14f3:	89 04 24             	mov    %eax,(%esp)
    14f6:	e8 f5 67 00 00       	call   7cf0 <fs_instance_get>
    14fb:	89 c3                	mov    %eax,%ebx
    14fd:	85 c0                	test   %eax,%eax
    14ff:	75 18                	jne    1519 <mfs_create_node+0x39>
    1501:	8b 7d e4             	mov    -0x1c(%ebp),%edi
    1504:	8d 45 e0             	lea    -0x20(%ebp),%eax
    1507:	89 44 24 04          	mov    %eax,0x4(%esp)
    150b:	89 3c 24             	mov    %edi,(%esp)
    150e:	e8 8d 3a 00 00       	call   4fa0 <mfs_alloc_inode>
    1513:	89 c3                	mov    %eax,%ebx
    1515:	85 c0                	test   %eax,%eax
    1517:	74 0f                	je     1528 <mfs_create_node+0x48>
    1519:	83 c4 3c             	add    $0x3c,%esp
    151c:	89 d8                	mov    %ebx,%eax
    151e:	5b                   	pop    %ebx
    151f:	5e                   	pop    %esi
    1520:	5f                   	pop    %edi
    1521:	5d                   	pop    %ebp
    1522:	c3                   	ret    
    1523:	90                   	nop
    1524:	8d 74 26 00          	lea    0x0(%esi,%eiz,1),%esi
    1528:	c7 04 24 48 00 00 00 	movl   $0x48,(%esp)
    152f:	e8 dc 65 01 00       	call   17b10 <malloc>
    1534:	89 c6                	mov    %eax,%esi
    1536:	85 c0                	test   %eax,%eax
    1538:	0f 84 2a 01 00 00    	je     1668 <mfs_create_node+0x188>
    153e:	c7 04 24 18 00 00 00 	movl   $0x18,(%esp)
    1545:	e8 c6 65 01 00       	call   17b10 <malloc>
    154a:	85 c0                	test   %eax,%eax
    154c:	0f 84 28 01 00 00    	je     167a <mfs_create_node+0x19a>
    1552:	c7 04 24 14 00 00 00 	movl   $0x14,(%esp)
    1559:	89 45 d4             	mov    %eax,-0x2c(%ebp)
    155c:	e8 af 65 01 00       	call   17b10 <malloc>
    1561:	8b 55 d4             	mov    -0x2c(%ebp),%edx
    1564:	89 c1                	mov    %eax,%ecx
    1566:	85 c0                	test   %eax,%eax
    1568:	0f 84 04 01 00 00    	je     1672 <mfs_create_node+0x192>
    156e:	b8 00 80 ff ff       	mov    $0xffff8000,%eax
    1573:	f6 45 10 02          	testb  $0x2,0x10(%ebp)
    1577:	74 0b                	je     1584 <mfs_create_node+0xa4>
    1579:	66 c7 46 02 01 00    	movw   $0x1,0x2(%esi)
    157f:	b8 00 40 00 00       	mov    $0x4000,%eax
    1584:	66 89 06             	mov    %ax,(%esi)
    1587:	8d 46 18             	lea    0x18(%esi),%eax
    158a:	c7 44 24 08 1c 00 00 	movl   $0x1c,0x8(%esp)
    1591:	00 
    1592:	c7 44 24 04 00 00 00 	movl   $0x0,0x4(%esp)
    1599:	00 
    159a:	89 04 24             	mov    %eax,(%esp)
    159d:	89 4d d0             	mov    %ecx,-0x30(%ebp)
    15a0:	89 55 d4             	mov    %edx,-0x2c(%ebp)
    15a3:	66 c7 46 04 00 00    	movw   $0x0,0x4(%esi)
    15a9:	66 c7 46 06 00 00    	movw   $0x0,0x6(%esi)
    15af:	c7 46 08 00 00 00 00 	movl   $0x0,0x8(%esi)
    15b6:	c7 46 0c 00 00 00 00 	movl   $0x0,0xc(%esi)
    15bd:	c7 46 10 00 00 00 00 	movl   $0x0,0x10(%esi)
    15c4:	c7 46 14 00 00 00 00 	movl   $0x0,0x14(%esi)
    15cb:	e8 80 97 00 00       	call   ad50 <memset>
    15d0:	8d 46 34             	lea    0x34(%esi),%eax
    15d3:	c7 44 24 08 0c 00 00 	movl   $0xc,0x8(%esp)
    15da:	00 
    15db:	c7 44 24 04 00 00 00 	movl   $0x0,0x4(%esp)
    15e2:	00 
    15e3:	89 04 24             	mov    %eax,(%esp)
    15e6:	e8 65 97 00 00       	call   ad50 <memset>
    15eb:	8b 55 d4             	mov    -0x2c(%ebp),%edx
    15ee:	8b 45 e0             	mov    -0x20(%ebp),%eax
    15f1:	89 32                	mov    %esi,(%edx)
    15f3:	89 7a 04             	mov    %edi,0x4(%edx)
    15f6:	c7 42 08 01 00 00 00 	movl   $0x1,0x8(%edx)
    15fd:	c7 04 24 74 75 02 00 	movl   $0x27574,(%esp)
    1604:	89 46 44             	mov    %eax,0x44(%esi)
    1607:	c6 46 40 01          	movb   $0x1,0x40(%esi)
    160b:	e8 f0 d8 00 00       	call   ef00 <fibril_mutex_lock>
    1610:	8b 55 d4             	mov    -0x2c(%ebp),%edx
    1613:	c7 04 24 d0 77 02 00 	movl   $0x277d0,(%esp)
    161a:	8d 42 10             	lea    0x10(%edx),%eax
    161d:	89 44 24 04          	mov    %eax,0x4(%esp)
    1621:	e8 6a c5 01 00       	call   1db90 <hash_table_insert>
    1626:	c7 04 24 74 75 02 00 	movl   $0x27574,(%esp)
    162d:	e8 ee d9 00 00       	call   f020 <fibril_mutex_unlock>
    1632:	8b 55 d4             	mov    -0x2c(%ebp),%edx
    1635:	8b 4f 08             	mov    0x8(%edi),%ecx
    1638:	8b 02                	mov    (%edx),%eax
    163a:	41                   	inc    %ecx
    163b:	89 4f 08             	mov    %ecx,0x8(%edi)
    163e:	8b 4d d0             	mov    -0x30(%ebp),%ecx
    1641:	c6 40 40 01          	movb   $0x1,0x40(%eax)
    1645:	89 0c 24             	mov    %ecx,(%esp)
    1648:	e8 53 65 00 00       	call   7ba0 <fs_node_initialize>
    164d:	8b 55 d4             	mov    -0x2c(%ebp),%edx
    1650:	8b 4d d0             	mov    -0x30(%ebp),%ecx
    1653:	8b 45 08             	mov    0x8(%ebp),%eax
    1656:	89 4a 0c             	mov    %ecx,0xc(%edx)
    1659:	89 51 10             	mov    %edx,0x10(%ecx)
    165c:	89 08                	mov    %ecx,(%eax)
    165e:	83 c4 3c             	add    $0x3c,%esp
    1661:	89 d8                	mov    %ebx,%eax
    1663:	5b                   	pop    %ebx
    1664:	5e                   	pop    %esi
    1665:	5f                   	pop    %edi
    1666:	5d                   	pop    %ebp
    1667:	c3                   	ret    
    1668:	bb fe ff ff ff       	mov    $0xfffffffe,%ebx
    166d:	e9 a7 fe ff ff       	jmp    1519 <mfs_create_node+0x39>
    1672:	89 14 24             	mov    %edx,(%esp)
    1675:	e8 a6 65 01 00       	call   17c20 <free>
    167a:	89 34 24             	mov    %esi,(%esp)
    167d:	bb fe ff ff ff       	mov    $0xfffffffe,%ebx
    1682:	e8 99 65 01 00       	call   17c20 <free>
    1687:	e9 8d fe ff ff       	jmp    1519 <mfs_create_node+0x39>
    168c:	8d 74 26 00          	lea    0x0(%esi,%eiz,1),%esi

00001690 <mfs_node_put>:
    1690:	55                   	push   %ebp
    1691:	89 e5                	mov    %esp,%ebp
    1693:	57                   	push   %edi
    1694:	56                   	push   %esi
    1695:	53                   	push   %ebx
    1696:	83 ec 1c             	sub    $0x1c,%esp
    1699:	8b 75 08             	mov    0x8(%ebp),%esi
    169c:	8b 5e 10             	mov    0x10(%esi),%ebx
    169f:	c7 04 24 74 75 02 00 	movl   $0x27574,(%esp)
    16a6:	e8 55 d8 00 00       	call   ef00 <fibril_mutex_lock>
    16ab:	8b 43 08             	mov    0x8(%ebx),%eax
    16ae:	85 c0                	test   %eax,%eax
    16b0:	74 6a                	je     171c <mfs_node_put+0x8c>
    16b2:	48                   	dec    %eax
    16b3:	89 43 08             	mov    %eax,0x8(%ebx)
    16b6:	85 c0                	test   %eax,%eax
    16b8:	75 5e                	jne    1718 <mfs_node_put+0x88>
    16ba:	8d 43 10             	lea    0x10(%ebx),%eax
    16bd:	c7 04 24 d0 77 02 00 	movl   $0x277d0,(%esp)
    16c4:	89 44 24 04          	mov    %eax,0x4(%esp)
    16c8:	e8 73 c9 01 00       	call   1e040 <hash_table_remove_item>
    16cd:	8b 43 04             	mov    0x4(%ebx),%eax
    16d0:	8b 50 08             	mov    0x8(%eax),%edx
    16d3:	85 d2                	test   %edx,%edx
    16d5:	74 61                	je     1738 <mfs_node_put+0xa8>
    16d7:	4a                   	dec    %edx
    16d8:	89 50 08             	mov    %edx,0x8(%eax)
    16db:	89 1c 24             	mov    %ebx,(%esp)
    16de:	e8 ad 23 00 00       	call   3a90 <mfs_put_inode>
    16e3:	89 c7                	mov    %eax,%edi
    16e5:	8b 03                	mov    (%ebx),%eax
    16e7:	89 04 24             	mov    %eax,(%esp)
    16ea:	e8 31 65 01 00       	call   17c20 <free>
    16ef:	89 1c 24             	mov    %ebx,(%esp)
    16f2:	e8 29 65 01 00       	call   17c20 <free>
    16f7:	89 34 24             	mov    %esi,(%esp)
    16fa:	e8 21 65 01 00       	call   17c20 <free>
    16ff:	c7 04 24 74 75 02 00 	movl   $0x27574,(%esp)
    1706:	e8 15 d9 00 00       	call   f020 <fibril_mutex_unlock>
    170b:	83 c4 1c             	add    $0x1c,%esp
    170e:	89 f8                	mov    %edi,%eax
    1710:	5b                   	pop    %ebx
    1711:	5e                   	pop    %esi
    1712:	5f                   	pop    %edi
    1713:	5d                   	pop    %ebp
    1714:	c3                   	ret    
    1715:	8d 76 00             	lea    0x0(%esi),%esi
    1718:	31 ff                	xor    %edi,%edi
    171a:	eb e3                	jmp    16ff <mfs_node_put+0x6f>
    171c:	c7 44 24 08 f3 01 00 	movl   $0x1f3,0x8(%esp)
    1723:	00 
    1724:	c7 44 24 04 80 49 02 	movl   $0x24980,0x4(%esp)
    172b:	00 
    172c:	c7 04 24 8a 49 02 00 	movl   $0x2498a,(%esp)
    1733:	e8 b8 0b 02 00       	call   222f0 <assert_abort>
    1738:	c7 44 24 08 f7 01 00 	movl   $0x1f7,0x8(%esp)
    173f:	00 
    1740:	c7 44 24 04 80 49 02 	movl   $0x24980,0x4(%esp)
    1747:	00 
    1748:	c7 04 24 c8 49 02 00 	movl   $0x249c8,(%esp)
    174f:	e8 9c 0b 02 00       	call   222f0 <assert_abort>
    1754:	8d b6 00 00 00 00    	lea    0x0(%esi),%esi
    175a:	8d bf 00 00 00 00    	lea    0x0(%edi),%edi

00001760 <mfs_node_core_get.part.3>:
    1760:	55                   	push   %ebp
    1761:	89 e5                	mov    %esp,%ebp
    1763:	57                   	push   %edi
    1764:	56                   	push   %esi
    1765:	53                   	push   %ebx
    1766:	83 ec 3c             	sub    $0x3c,%esp
    1769:	89 d6                	mov    %edx,%esi
    176b:	89 45 d0             	mov    %eax,-0x30(%ebp)
    176e:	89 4d d4             	mov    %ecx,-0x2c(%ebp)
    1771:	c7 04 24 14 00 00 00 	movl   $0x14,(%esp)
    1778:	e8 93 63 01 00       	call   17b10 <malloc>
    177d:	89 c3                	mov    %eax,%ebx
    177f:	85 c0                	test   %eax,%eax
    1781:	74 75                	je     17f8 <mfs_node_core_get.part.3+0x98>
    1783:	89 04 24             	mov    %eax,(%esp)
    1786:	e8 15 64 00 00       	call   7ba0 <fs_node_initialize>
    178b:	c7 04 24 18 00 00 00 	movl   $0x18,(%esp)
    1792:	e8 79 63 01 00       	call   17b10 <malloc>
    1797:	89 c7                	mov    %eax,%edi
    1799:	85 c0                	test   %eax,%eax
    179b:	74 4b                	je     17e8 <mfs_node_core_get.part.3+0x88>
    179d:	8b 45 d4             	mov    -0x2c(%ebp),%eax
    17a0:	89 34 24             	mov    %esi,(%esp)
    17a3:	89 44 24 08          	mov    %eax,0x8(%esp)
    17a7:	8d 45 e4             	lea    -0x1c(%ebp),%eax
    17aa:	89 44 24 04          	mov    %eax,0x4(%esp)
    17ae:	e8 4d 1e 00 00       	call   3600 <mfs_get_inode>
    17b3:	85 c0                	test   %eax,%eax
    17b5:	74 49                	je     1800 <mfs_node_core_get.part.3+0xa0>
    17b7:	89 1c 24             	mov    %ebx,(%esp)
    17ba:	89 45 cc             	mov    %eax,-0x34(%ebp)
    17bd:	e8 5e 64 01 00       	call   17c20 <free>
    17c2:	89 3c 24             	mov    %edi,(%esp)
    17c5:	e8 56 64 01 00       	call   17c20 <free>
    17ca:	8b 45 cc             	mov    -0x34(%ebp),%eax
    17cd:	c7 04 24 74 75 02 00 	movl   $0x27574,(%esp)
    17d4:	89 45 cc             	mov    %eax,-0x34(%ebp)
    17d7:	e8 44 d8 00 00       	call   f020 <fibril_mutex_unlock>
    17dc:	8b 45 cc             	mov    -0x34(%ebp),%eax
    17df:	83 c4 3c             	add    $0x3c,%esp
    17e2:	5b                   	pop    %ebx
    17e3:	5e                   	pop    %esi
    17e4:	5f                   	pop    %edi
    17e5:	5d                   	pop    %ebp
    17e6:	c3                   	ret    
    17e7:	90                   	nop
    17e8:	89 1c 24             	mov    %ebx,(%esp)
    17eb:	e8 30 64 01 00       	call   17c20 <free>
    17f0:	b8 fe ff ff ff       	mov    $0xfffffffe,%eax
    17f5:	eb d6                	jmp    17cd <mfs_node_core_get.part.3+0x6d>
    17f7:	90                   	nop
    17f8:	b8 fe ff ff ff       	mov    $0xfffffffe,%eax
    17fd:	eb ce                	jmp    17cd <mfs_node_core_get.part.3+0x6d>
    17ff:	90                   	nop
    1800:	8b 4d e4             	mov    -0x1c(%ebp),%ecx
    1803:	8b 55 d4             	mov    -0x2c(%ebp),%edx
    1806:	89 51 44             	mov    %edx,0x44(%ecx)
    1809:	8b 55 d0             	mov    -0x30(%ebp),%edx
    180c:	89 7b 10             	mov    %edi,0x10(%ebx)
    180f:	89 0f                	mov    %ecx,(%edi)
    1811:	89 77 04             	mov    %esi,0x4(%edi)
    1814:	89 5f 0c             	mov    %ebx,0xc(%edi)
    1817:	c7 47 08 01 00 00 00 	movl   $0x1,0x8(%edi)
    181e:	89 1a                	mov    %ebx,(%edx)
    1820:	8d 57 10             	lea    0x10(%edi),%edx
    1823:	c7 04 24 d0 77 02 00 	movl   $0x277d0,(%esp)
    182a:	89 54 24 04          	mov    %edx,0x4(%esp)
    182e:	89 45 cc             	mov    %eax,-0x34(%ebp)
    1831:	e8 5a c3 01 00       	call   1db90 <hash_table_insert>
    1836:	8b 5e 08             	mov    0x8(%esi),%ebx
    1839:	43                   	inc    %ebx
    183a:	c7 04 24 74 75 02 00 	movl   $0x27574,(%esp)
    1841:	89 5e 08             	mov    %ebx,0x8(%esi)
    1844:	e8 d7 d7 00 00       	call   f020 <fibril_mutex_unlock>
    1849:	8b 45 cc             	mov    -0x34(%ebp),%eax
    184c:	83 c4 3c             	add    $0x3c,%esp
    184f:	5b                   	pop    %ebx
    1850:	5e                   	pop    %esi
    1851:	5f                   	pop    %edi
    1852:	5d                   	pop    %ebp
    1853:	c3                   	ret    
    1854:	8d b6 00 00 00 00    	lea    0x0(%esi),%esi
    185a:	8d bf 00 00 00 00    	lea    0x0(%edi),%edi

00001860 <mfs_match>:
    1860:	55                   	push   %ebp
    1861:	89 e5                	mov    %esp,%ebp
    1863:	57                   	push   %edi
    1864:	56                   	push   %esi
    1865:	53                   	push   %ebx
    1866:	81 ec 8c 00 00 00    	sub    $0x8c,%esp
    186c:	8b 45 0c             	mov    0xc(%ebp),%eax
    186f:	8b 78 10             	mov    0x10(%eax),%edi
    1872:	8b 07                	mov    (%edi),%eax
    1874:	8b 00                	mov    (%eax),%eax
    1876:	25 00 f0 ff ff       	and    $0xfffff000,%eax
    187b:	66 3d 00 40          	cmp    $0x4000,%ax
    187f:	0f 85 1b 01 00 00    	jne    19a0 <mfs_match+0x140>
    1885:	8b 47 04             	mov    0x4(%edi),%eax
    1888:	8b 4d 10             	mov    0x10(%ebp),%ecx
    188b:	31 db                	xor    %ebx,%ebx
    188d:	8b 70 04             	mov    0x4(%eax),%esi
    1890:	89 0c 24             	mov    %ecx,(%esp)
    1893:	e8 48 a4 00 00       	call   bce0 <str_size>
    1898:	31 d2                	xor    %edx,%edx
    189a:	89 45 84             	mov    %eax,-0x7c(%ebp)
    189d:	8b 07                	mov    (%edi),%eax
    189f:	8b 40 08             	mov    0x8(%eax),%eax
    18a2:	f7 76 30             	divl   0x30(%esi)
    18a5:	85 c0                	test   %eax,%eax
    18a7:	75 1a                	jne    18c3 <mfs_match+0x63>
    18a9:	e9 ca 00 00 00       	jmp    1978 <mfs_match+0x118>
    18ae:	66 90                	xchg   %ax,%ax
    18b0:	8b 07                	mov    (%edi),%eax
    18b2:	31 d2                	xor    %edx,%edx
    18b4:	43                   	inc    %ebx
    18b5:	8b 40 08             	mov    0x8(%eax),%eax
    18b8:	f7 76 30             	divl   0x30(%esi)
    18bb:	39 d8                	cmp    %ebx,%eax
    18bd:	0f 86 b5 00 00 00    	jbe    1978 <mfs_match+0x118>
    18c3:	8d 4d 9c             	lea    -0x64(%ebp),%ecx
    18c6:	89 5c 24 08          	mov    %ebx,0x8(%esp)
    18ca:	89 4c 24 04          	mov    %ecx,0x4(%esp)
    18ce:	89 3c 24             	mov    %edi,(%esp)
    18d1:	e8 8a 2e 00 00       	call   4760 <mfs_read_dentry>
    18d6:	89 c2                	mov    %eax,%edx
    18d8:	85 c0                	test   %eax,%eax
    18da:	0f 85 b0 00 00 00    	jne    1990 <mfs_match+0x130>
    18e0:	8b 45 9c             	mov    -0x64(%ebp),%eax
    18e3:	85 c0                	test   %eax,%eax
    18e5:	74 c9                	je     18b0 <mfs_match+0x50>
    18e7:	8d 45 a0             	lea    -0x60(%ebp),%eax
    18ea:	89 55 80             	mov    %edx,-0x80(%ebp)
    18ed:	89 04 24             	mov    %eax,(%esp)
    18f0:	e8 eb a3 00 00       	call   bce0 <str_size>
    18f5:	39 45 84             	cmp    %eax,-0x7c(%ebp)
    18f8:	75 b6                	jne    18b0 <mfs_match+0x50>
    18fa:	8d 4d a0             	lea    -0x60(%ebp),%ecx
    18fd:	8b 45 84             	mov    -0x7c(%ebp),%eax
    1900:	89 4c 24 04          	mov    %ecx,0x4(%esp)
    1904:	8b 4d 10             	mov    0x10(%ebp),%ecx
    1907:	89 44 24 08          	mov    %eax,0x8(%esp)
    190b:	89 0c 24             	mov    %ecx,(%esp)
    190e:	e8 dd 9a 00 00       	call   b3f0 <bcmp>
    1913:	8b 55 80             	mov    -0x80(%ebp),%edx
    1916:	85 c0                	test   %eax,%eax
    1918:	75 96                	jne    18b0 <mfs_match+0x50>
    191a:	8b 5f 04             	mov    0x4(%edi),%ebx
    191d:	8b 4d 9c             	mov    -0x64(%ebp),%ecx
    1920:	c7 04 24 74 75 02 00 	movl   $0x27574,(%esp)
    1927:	89 d6                	mov    %edx,%esi
    1929:	89 4d 80             	mov    %ecx,-0x80(%ebp)
    192c:	e8 cf d5 00 00       	call   ef00 <fibril_mutex_lock>
    1931:	8b 03                	mov    (%ebx),%eax
    1933:	8b 4d 80             	mov    -0x80(%ebp),%ecx
    1936:	89 45 94             	mov    %eax,-0x6c(%ebp)
    1939:	8d 45 94             	lea    -0x6c(%ebp),%eax
    193c:	89 44 24 04          	mov    %eax,0x4(%esp)
    1940:	c7 04 24 d0 77 02 00 	movl   $0x277d0,(%esp)
    1947:	89 4d 98             	mov    %ecx,-0x68(%ebp)
    194a:	e8 71 c4 01 00       	call   1ddc0 <hash_table_find>
    194f:	8b 4d 80             	mov    -0x80(%ebp),%ecx
    1952:	85 c0                	test   %eax,%eax
    1954:	74 5c                	je     19b2 <mfs_match+0x152>
    1956:	8b 50 fc             	mov    -0x4(%eax),%edx
    1959:	83 e8 10             	sub    $0x10,%eax
    195c:	8b 4d 08             	mov    0x8(%ebp),%ecx
    195f:	8b 78 08             	mov    0x8(%eax),%edi
    1962:	47                   	inc    %edi
    1963:	89 11                	mov    %edx,(%ecx)
    1965:	89 78 08             	mov    %edi,0x8(%eax)
    1968:	c7 04 24 74 75 02 00 	movl   $0x27574,(%esp)
    196f:	e8 ac d6 00 00       	call   f020 <fibril_mutex_unlock>
    1974:	eb 0d                	jmp    1983 <mfs_match+0x123>
    1976:	66 90                	xchg   %ax,%ax
    1978:	8b 45 08             	mov    0x8(%ebp),%eax
    197b:	31 f6                	xor    %esi,%esi
    197d:	c7 00 00 00 00 00    	movl   $0x0,(%eax)
    1983:	81 c4 8c 00 00 00    	add    $0x8c,%esp
    1989:	89 f0                	mov    %esi,%eax
    198b:	5b                   	pop    %ebx
    198c:	5e                   	pop    %esi
    198d:	5f                   	pop    %edi
    198e:	5d                   	pop    %ebp
    198f:	c3                   	ret    
    1990:	81 c4 8c 00 00 00    	add    $0x8c,%esp
    1996:	89 c6                	mov    %eax,%esi
    1998:	89 f0                	mov    %esi,%eax
    199a:	5b                   	pop    %ebx
    199b:	5e                   	pop    %esi
    199c:	5f                   	pop    %edi
    199d:	5d                   	pop    %ebp
    199e:	c3                   	ret    
    199f:	90                   	nop
    19a0:	81 c4 8c 00 00 00    	add    $0x8c,%esp
    19a6:	be fe fe ff ff       	mov    $0xfffffefe,%esi
    19ab:	89 f0                	mov    %esi,%eax
    19ad:	5b                   	pop    %ebx
    19ae:	5e                   	pop    %esi
    19af:	5f                   	pop    %edi
    19b0:	5d                   	pop    %ebp
    19b1:	c3                   	ret    
    19b2:	89 da                	mov    %ebx,%edx
    19b4:	8b 45 08             	mov    0x8(%ebp),%eax
    19b7:	e8 a4 fd ff ff       	call   1760 <mfs_node_core_get.part.3>
    19bc:	eb c5                	jmp    1983 <mfs_match+0x123>
    19be:	66 90                	xchg   %ax,%ax

000019c0 <mfs_unmounted>:
    19c0:	55                   	push   %ebp
    19c1:	89 e5                	mov    %esp,%ebp
    19c3:	57                   	push   %edi
    19c4:	56                   	push   %esi
    19c5:	53                   	push   %ebx
    19c6:	83 ec 2c             	sub    $0x2c,%esp
    19c9:	8d 45 e4             	lea    -0x1c(%ebp),%eax
    19cc:	8b 5d 08             	mov    0x8(%ebp),%ebx
    19cf:	89 44 24 04          	mov    %eax,0x4(%esp)
    19d3:	89 1c 24             	mov    %ebx,(%esp)
    19d6:	e8 15 63 00 00       	call   7cf0 <fs_instance_get>
    19db:	89 c6                	mov    %eax,%esi
    19dd:	85 c0                	test   %eax,%eax
    19df:	75 35                	jne    1a16 <mfs_unmounted+0x56>
    19e1:	8b 7d e4             	mov    -0x1c(%ebp),%edi
    19e4:	8b 47 08             	mov    0x8(%edi),%eax
    19e7:	85 c0                	test   %eax,%eax
    19e9:	75 35                	jne    1a20 <mfs_unmounted+0x60>
    19eb:	89 1c 24             	mov    %ebx,(%esp)
    19ee:	e8 5d 3b 00 00       	call   5550 <block_cache_fini>
    19f3:	89 1c 24             	mov    %ebx,(%esp)
    19f6:	e8 15 3d 00 00       	call   5710 <block_fini>
    19fb:	89 1c 24             	mov    %ebx,(%esp)
    19fe:	e8 5d 63 00 00       	call   7d60 <fs_instance_destroy>
    1a03:	8b 47 04             	mov    0x4(%edi),%eax
    1a06:	89 04 24             	mov    %eax,(%esp)
    1a09:	e8 12 62 01 00       	call   17c20 <free>
    1a0e:	89 3c 24             	mov    %edi,(%esp)
    1a11:	e8 0a 62 01 00       	call   17c20 <free>
    1a16:	83 c4 2c             	add    $0x2c,%esp
    1a19:	89 f0                	mov    %esi,%eax
    1a1b:	5b                   	pop    %ebx
    1a1c:	5e                   	pop    %esi
    1a1d:	5f                   	pop    %edi
    1a1e:	5d                   	pop    %ebp
    1a1f:	c3                   	ret    
    1a20:	be f1 ff ff ff       	mov    $0xfffffff1,%esi
    1a25:	eb ef                	jmp    1a16 <mfs_unmounted+0x56>
    1a27:	89 f6                	mov    %esi,%esi
    1a29:	8d bc 27 00 00 00 00 	lea    0x0(%edi,%eiz,1),%edi

00001a30 <mfs_node_get>:
    1a30:	55                   	push   %ebp
    1a31:	89 e5                	mov    %esp,%ebp
    1a33:	56                   	push   %esi
    1a34:	53                   	push   %ebx
    1a35:	83 ec 20             	sub    $0x20,%esp
    1a38:	8d 45 ec             	lea    -0x14(%ebp),%eax
    1a3b:	89 44 24 04          	mov    %eax,0x4(%esp)
    1a3f:	8b 45 0c             	mov    0xc(%ebp),%eax
    1a42:	89 04 24             	mov    %eax,(%esp)
    1a45:	e8 a6 62 00 00       	call   7cf0 <fs_instance_get>
    1a4a:	89 c3                	mov    %eax,%ebx
    1a4c:	85 c0                	test   %eax,%eax
    1a4e:	75 4f                	jne    1a9f <mfs_node_get+0x6f>
    1a50:	8b 75 ec             	mov    -0x14(%ebp),%esi
    1a53:	c7 04 24 74 75 02 00 	movl   $0x27574,(%esp)
    1a5a:	e8 a1 d4 00 00       	call   ef00 <fibril_mutex_lock>
    1a5f:	8b 06                	mov    (%esi),%eax
    1a61:	c7 04 24 d0 77 02 00 	movl   $0x277d0,(%esp)
    1a68:	89 45 f0             	mov    %eax,-0x10(%ebp)
    1a6b:	8b 45 10             	mov    0x10(%ebp),%eax
    1a6e:	89 45 f4             	mov    %eax,-0xc(%ebp)
    1a71:	8d 45 f0             	lea    -0x10(%ebp),%eax
    1a74:	89 44 24 04          	mov    %eax,0x4(%esp)
    1a78:	e8 43 c3 01 00       	call   1ddc0 <hash_table_find>
    1a7d:	85 c0                	test   %eax,%eax
    1a7f:	74 27                	je     1aa8 <mfs_node_get+0x78>
    1a81:	8b 50 fc             	mov    -0x4(%eax),%edx
    1a84:	8b 4d 08             	mov    0x8(%ebp),%ecx
    1a87:	83 e8 10             	sub    $0x10,%eax
    1a8a:	89 11                	mov    %edx,(%ecx)
    1a8c:	8b 50 08             	mov    0x8(%eax),%edx
    1a8f:	42                   	inc    %edx
    1a90:	89 50 08             	mov    %edx,0x8(%eax)
    1a93:	c7 04 24 74 75 02 00 	movl   $0x27574,(%esp)
    1a9a:	e8 81 d5 00 00       	call   f020 <fibril_mutex_unlock>
    1a9f:	83 c4 20             	add    $0x20,%esp
    1aa2:	89 d8                	mov    %ebx,%eax
    1aa4:	5b                   	pop    %ebx
    1aa5:	5e                   	pop    %esi
    1aa6:	5d                   	pop    %ebp
    1aa7:	c3                   	ret    
    1aa8:	8b 4d 10             	mov    0x10(%ebp),%ecx
    1aab:	89 f2                	mov    %esi,%edx
    1aad:	8b 45 08             	mov    0x8(%ebp),%eax
    1ab0:	e8 ab fc ff ff       	call   1760 <mfs_node_core_get.part.3>
    1ab5:	89 c3                	mov    %eax,%ebx
    1ab7:	eb e6                	jmp    1a9f <mfs_node_get+0x6f>
    1ab9:	8d b4 26 00 00 00 00 	lea    0x0(%esi,%eiz,1),%esi

00001ac0 <mfs_root_get>:
    1ac0:	55                   	push   %ebp
    1ac1:	89 e5                	mov    %esp,%ebp
    1ac3:	56                   	push   %esi
    1ac4:	53                   	push   %ebx
    1ac5:	83 ec 20             	sub    $0x20,%esp
    1ac8:	8d 45 ec             	lea    -0x14(%ebp),%eax
    1acb:	89 44 24 04          	mov    %eax,0x4(%esp)
    1acf:	8b 45 0c             	mov    0xc(%ebp),%eax
    1ad2:	89 04 24             	mov    %eax,(%esp)
    1ad5:	e8 16 62 00 00       	call   7cf0 <fs_instance_get>
    1ada:	89 c3                	mov    %eax,%ebx
    1adc:	85 c0                	test   %eax,%eax
    1ade:	75 50                	jne    1b30 <mfs_root_get+0x70>
    1ae0:	8b 75 ec             	mov    -0x14(%ebp),%esi
    1ae3:	c7 04 24 74 75 02 00 	movl   $0x27574,(%esp)
    1aea:	e8 11 d4 00 00       	call   ef00 <fibril_mutex_lock>
    1aef:	8b 06                	mov    (%esi),%eax
    1af1:	c7 04 24 d0 77 02 00 	movl   $0x277d0,(%esp)
    1af8:	89 45 f0             	mov    %eax,-0x10(%ebp)
    1afb:	8d 45 f0             	lea    -0x10(%ebp),%eax
    1afe:	89 44 24 04          	mov    %eax,0x4(%esp)
    1b02:	c7 45 f4 01 00 00 00 	movl   $0x1,-0xc(%ebp)
    1b09:	e8 b2 c2 01 00       	call   1ddc0 <hash_table_find>
    1b0e:	85 c0                	test   %eax,%eax
    1b10:	74 2e                	je     1b40 <mfs_root_get+0x80>
    1b12:	8b 50 fc             	mov    -0x4(%eax),%edx
    1b15:	8b 4d 08             	mov    0x8(%ebp),%ecx
    1b18:	83 e8 10             	sub    $0x10,%eax
    1b1b:	89 11                	mov    %edx,(%ecx)
    1b1d:	8b 48 08             	mov    0x8(%eax),%ecx
    1b20:	41                   	inc    %ecx
    1b21:	89 48 08             	mov    %ecx,0x8(%eax)
    1b24:	c7 04 24 74 75 02 00 	movl   $0x27574,(%esp)
    1b2b:	e8 f0 d4 00 00       	call   f020 <fibril_mutex_unlock>
    1b30:	83 c4 20             	add    $0x20,%esp
    1b33:	89 d8                	mov    %ebx,%eax
    1b35:	5b                   	pop    %ebx
    1b36:	5e                   	pop    %esi
    1b37:	5d                   	pop    %ebp
    1b38:	c3                   	ret    
    1b39:	8d b4 26 00 00 00 00 	lea    0x0(%esi,%eiz,1),%esi
    1b40:	b9 01 00 00 00       	mov    $0x1,%ecx
    1b45:	89 f2                	mov    %esi,%edx
    1b47:	8b 45 08             	mov    0x8(%ebp),%eax
    1b4a:	e8 11 fc ff ff       	call   1760 <mfs_node_core_get.part.3>
    1b4f:	89 c3                	mov    %eax,%ebx
    1b51:	eb dd                	jmp    1b30 <mfs_root_get+0x70>
    1b53:	8d b6 00 00 00 00    	lea    0x0(%esi),%esi
    1b59:	8d bc 27 00 00 00 00 	lea    0x0(%edi,%eiz,1),%edi

00001b60 <mfs_unlink>:
    1b60:	55                   	push   %ebp
    1b61:	89 e5                	mov    %esp,%ebp
    1b63:	57                   	push   %edi
    1b64:	56                   	push   %esi
    1b65:	53                   	push   %ebx
    1b66:	83 ec 7c             	sub    $0x7c,%esp
    1b69:	8b 45 08             	mov    0x8(%ebp),%eax
    1b6c:	8b 40 10             	mov    0x10(%eax),%eax
    1b6f:	89 45 94             	mov    %eax,-0x6c(%ebp)
    1b72:	8b 45 0c             	mov    0xc(%ebp),%eax
    1b75:	8b 78 10             	mov    0x10(%eax),%edi
    1b78:	8b 45 94             	mov    -0x6c(%ebp),%eax
    1b7b:	85 c0                	test   %eax,%eax
    1b7d:	0f 84 ce 00 00 00    	je     1c51 <mfs_unlink+0xf1>
    1b83:	8b 47 04             	mov    0x4(%edi),%eax
    1b86:	8b 17                	mov    (%edi),%edx
    1b88:	8b 70 04             	mov    0x4(%eax),%esi
    1b8b:	8b 02                	mov    (%edx),%eax
    1b8d:	25 00 f0 ff ff       	and    $0xfffff000,%eax
    1b92:	66 3d 00 40          	cmp    $0x4000,%ax
    1b96:	74 40                	je     1bd8 <mfs_unlink+0x78>
    1b98:	8b 45 10             	mov    0x10(%ebp),%eax
    1b9b:	8b 5d 94             	mov    -0x6c(%ebp),%ebx
    1b9e:	89 44 24 04          	mov    %eax,0x4(%esp)
    1ba2:	89 1c 24             	mov    %ebx,(%esp)
    1ba5:	e8 76 2e 00 00       	call   4a20 <mfs_remove_dentry>
    1baa:	85 c0                	test   %eax,%eax
    1bac:	75 1e                	jne    1bcc <mfs_unlink+0x6c>
    1bae:	8b 17                	mov    (%edi),%edx
    1bb0:	66 8b 4a 02          	mov    0x2(%edx),%cx
    1bb4:	66 85 c9             	test   %cx,%cx
    1bb7:	0f 84 9e 00 00 00    	je     1c5b <mfs_unlink+0xfb>
    1bbd:	49                   	dec    %ecx
    1bbe:	66 83 f9 01          	cmp    $0x1,%cx
    1bc2:	66 89 4a 02          	mov    %cx,0x2(%edx)
    1bc6:	76 68                	jbe    1c30 <mfs_unlink+0xd0>
    1bc8:	c6 42 40 01          	movb   $0x1,0x40(%edx)
    1bcc:	83 c4 7c             	add    $0x7c,%esp
    1bcf:	5b                   	pop    %ebx
    1bd0:	5e                   	pop    %esi
    1bd1:	5f                   	pop    %edi
    1bd2:	5d                   	pop    %ebp
    1bd3:	c3                   	ret    
    1bd4:	8d 74 26 00          	lea    0x0(%esi,%eiz,1),%esi
    1bd8:	8b 42 08             	mov    0x8(%edx),%eax
    1bdb:	31 d2                	xor    %edx,%edx
    1bdd:	f7 76 30             	divl   0x30(%esi)
    1be0:	83 f8 02             	cmp    $0x2,%eax
    1be3:	76 b3                	jbe    1b98 <mfs_unlink+0x38>
    1be5:	bb 02 00 00 00       	mov    $0x2,%ebx
    1bea:	eb 1a                	jmp    1c06 <mfs_unlink+0xa6>
    1bec:	8d 74 26 00          	lea    0x0(%esi,%eiz,1),%esi
    1bf0:	8b 45 9c             	mov    -0x64(%ebp),%eax
    1bf3:	85 c0                	test   %eax,%eax
    1bf5:	75 29                	jne    1c20 <mfs_unlink+0xc0>
    1bf7:	8b 07                	mov    (%edi),%eax
    1bf9:	31 d2                	xor    %edx,%edx
    1bfb:	43                   	inc    %ebx
    1bfc:	8b 40 08             	mov    0x8(%eax),%eax
    1bff:	f7 76 30             	divl   0x30(%esi)
    1c02:	39 c3                	cmp    %eax,%ebx
    1c04:	73 92                	jae    1b98 <mfs_unlink+0x38>
    1c06:	8d 45 9c             	lea    -0x64(%ebp),%eax
    1c09:	89 5c 24 08          	mov    %ebx,0x8(%esp)
    1c0d:	89 44 24 04          	mov    %eax,0x4(%esp)
    1c11:	89 3c 24             	mov    %edi,(%esp)
    1c14:	e8 47 2b 00 00       	call   4760 <mfs_read_dentry>
    1c19:	85 c0                	test   %eax,%eax
    1c1b:	74 d3                	je     1bf0 <mfs_unlink+0x90>
    1c1d:	eb ad                	jmp    1bcc <mfs_unlink+0x6c>
    1c1f:	90                   	nop
    1c20:	83 c4 7c             	add    $0x7c,%esp
    1c23:	b8 fb fe ff ff       	mov    $0xfffffefb,%eax
    1c28:	5b                   	pop    %ebx
    1c29:	5e                   	pop    %esi
    1c2a:	5f                   	pop    %edi
    1c2b:	5d                   	pop    %ebp
    1c2c:	c3                   	ret    
    1c2d:	8d 76 00             	lea    0x0(%esi),%esi
    1c30:	8b 0a                	mov    (%edx),%ecx
    1c32:	81 e1 00 f0 ff ff    	and    $0xfffff000,%ecx
    1c38:	66 81 f9 00 40       	cmp    $0x4000,%cx
    1c3d:	75 89                	jne    1bc8 <mfs_unlink+0x68>
    1c3f:	8b 5d 94             	mov    -0x6c(%ebp),%ebx
    1c42:	8b 0b                	mov    (%ebx),%ecx
    1c44:	66 ff 49 02          	decw   0x2(%ecx)
    1c48:	c6 41 40 01          	movb   $0x1,0x40(%ecx)
    1c4c:	e9 77 ff ff ff       	jmp    1bc8 <mfs_unlink+0x68>
    1c51:	b8 f1 ff ff ff       	mov    $0xfffffff1,%eax
    1c56:	e9 71 ff ff ff       	jmp    1bcc <mfs_unlink+0x6c>
    1c5b:	c7 44 24 08 d1 02 00 	movl   $0x2d1,0x8(%esp)
    1c62:	00 
    1c63:	c7 44 24 04 80 49 02 	movl   $0x24980,0x4(%esp)
    1c6a:	00 
    1c6b:	c7 04 24 9c 49 02 00 	movl   $0x2499c,(%esp)
    1c72:	e8 79 06 02 00       	call   222f0 <assert_abort>
    1c77:	89 f6                	mov    %esi,%esi
    1c79:	8d bc 27 00 00 00 00 	lea    0x0(%edi,%eiz,1),%edi

00001c80 <mfs_destroy_node>:
    1c80:	55                   	push   %ebp
    1c81:	89 e5                	mov    %esp,%ebp
    1c83:	57                   	push   %edi
    1c84:	56                   	push   %esi
    1c85:	53                   	push   %ebx
    1c86:	83 ec 6c             	sub    $0x6c,%esp
    1c89:	8b 45 08             	mov    0x8(%ebp),%eax
    1c8c:	8b 70 10             	mov    0x10(%eax),%esi
    1c8f:	8b 46 04             	mov    0x4(%esi),%eax
    1c92:	8b 0e                	mov    (%esi),%ecx
    1c94:	8b 78 04             	mov    0x4(%eax),%edi
    1c97:	8b 01                	mov    (%ecx),%eax
    1c99:	25 00 f0 ff ff       	and    $0xfffff000,%eax
    1c9e:	66 3d 00 40          	cmp    $0x4000,%ax
    1ca2:	0f 84 c0 00 00 00    	je     1d68 <mfs_destroy_node+0xe8>
    1ca8:	8b 41 08             	mov    0x8(%ecx),%eax
    1cab:	89 34 24             	mov    %esi,(%esp)
    1cae:	89 44 24 04          	mov    %eax,0x4(%esp)
    1cb2:	e8 59 21 00 00       	call   3e10 <mfs_inode_shrink>
    1cb7:	89 c7                	mov    %eax,%edi
    1cb9:	85 c0                	test   %eax,%eax
    1cbb:	0f 84 87 00 00 00    	je     1d48 <mfs_destroy_node+0xc8>
    1cc1:	8b 45 08             	mov    0x8(%ebp),%eax
    1cc4:	8b 58 10             	mov    0x10(%eax),%ebx
    1cc7:	c7 04 24 74 75 02 00 	movl   $0x27574,(%esp)
    1cce:	e8 2d d2 00 00       	call   ef00 <fibril_mutex_lock>
    1cd3:	8b 43 08             	mov    0x8(%ebx),%eax
    1cd6:	85 c0                	test   %eax,%eax
    1cd8:	0f 84 f6 00 00 00    	je     1dd4 <mfs_destroy_node+0x154>
    1cde:	48                   	dec    %eax
    1cdf:	89 43 08             	mov    %eax,0x8(%ebx)
    1ce2:	85 c0                	test   %eax,%eax
    1ce4:	75 4a                	jne    1d30 <mfs_destroy_node+0xb0>
    1ce6:	8d 43 10             	lea    0x10(%ebx),%eax
    1ce9:	c7 04 24 d0 77 02 00 	movl   $0x277d0,(%esp)
    1cf0:	89 44 24 04          	mov    %eax,0x4(%esp)
    1cf4:	e8 47 c3 01 00       	call   1e040 <hash_table_remove_item>
    1cf9:	8b 43 04             	mov    0x4(%ebx),%eax
    1cfc:	8b 48 08             	mov    0x8(%eax),%ecx
    1cff:	85 c9                	test   %ecx,%ecx
    1d01:	0f 84 e9 00 00 00    	je     1df0 <mfs_destroy_node+0x170>
    1d07:	49                   	dec    %ecx
    1d08:	89 48 08             	mov    %ecx,0x8(%eax)
    1d0b:	89 1c 24             	mov    %ebx,(%esp)
    1d0e:	e8 7d 1d 00 00       	call   3a90 <mfs_put_inode>
    1d13:	8b 03                	mov    (%ebx),%eax
    1d15:	89 04 24             	mov    %eax,(%esp)
    1d18:	e8 03 5f 01 00       	call   17c20 <free>
    1d1d:	89 1c 24             	mov    %ebx,(%esp)
    1d20:	e8 fb 5e 01 00       	call   17c20 <free>
    1d25:	8b 45 08             	mov    0x8(%ebp),%eax
    1d28:	89 04 24             	mov    %eax,(%esp)
    1d2b:	e8 f0 5e 01 00       	call   17c20 <free>
    1d30:	c7 04 24 74 75 02 00 	movl   $0x27574,(%esp)
    1d37:	e8 e4 d2 00 00       	call   f020 <fibril_mutex_unlock>
    1d3c:	83 c4 6c             	add    $0x6c,%esp
    1d3f:	89 f8                	mov    %edi,%eax
    1d41:	5b                   	pop    %ebx
    1d42:	5e                   	pop    %esi
    1d43:	5f                   	pop    %edi
    1d44:	5d                   	pop    %ebp
    1d45:	c3                   	ret    
    1d46:	66 90                	xchg   %ax,%ax
    1d48:	8b 06                	mov    (%esi),%eax
    1d4a:	8b 40 44             	mov    0x44(%eax),%eax
    1d4d:	89 44 24 04          	mov    %eax,0x4(%esp)
    1d51:	8b 46 04             	mov    0x4(%esi),%eax
    1d54:	89 04 24             	mov    %eax,(%esp)
    1d57:	e8 64 32 00 00       	call   4fc0 <mfs_free_inode>
    1d5c:	89 c7                	mov    %eax,%edi
    1d5e:	e9 5e ff ff ff       	jmp    1cc1 <mfs_destroy_node+0x41>
    1d63:	90                   	nop
    1d64:	8d 74 26 00          	lea    0x0(%esi,%eiz,1),%esi
    1d68:	31 d2                	xor    %edx,%edx
    1d6a:	8b 41 08             	mov    0x8(%ecx),%eax
    1d6d:	f7 77 30             	divl   0x30(%edi)
    1d70:	83 f8 02             	cmp    $0x2,%eax
    1d73:	0f 86 2f ff ff ff    	jbe    1ca8 <mfs_destroy_node+0x28>
    1d79:	bb 02 00 00 00       	mov    $0x2,%ebx
    1d7e:	eb 1a                	jmp    1d9a <mfs_destroy_node+0x11a>
    1d80:	8b 45 9c             	mov    -0x64(%ebp),%eax
    1d83:	85 c0                	test   %eax,%eax
    1d85:	75 31                	jne    1db8 <mfs_destroy_node+0x138>
    1d87:	8b 0e                	mov    (%esi),%ecx
    1d89:	31 d2                	xor    %edx,%edx
    1d8b:	43                   	inc    %ebx
    1d8c:	8b 41 08             	mov    0x8(%ecx),%eax
    1d8f:	f7 77 30             	divl   0x30(%edi)
    1d92:	39 c3                	cmp    %eax,%ebx
    1d94:	0f 83 0e ff ff ff    	jae    1ca8 <mfs_destroy_node+0x28>
    1d9a:	8d 45 9c             	lea    -0x64(%ebp),%eax
    1d9d:	89 5c 24 08          	mov    %ebx,0x8(%esp)
    1da1:	89 44 24 04          	mov    %eax,0x4(%esp)
    1da5:	89 34 24             	mov    %esi,(%esp)
    1da8:	e8 b3 29 00 00       	call   4760 <mfs_read_dentry>
    1dad:	85 c0                	test   %eax,%eax
    1daf:	74 cf                	je     1d80 <mfs_destroy_node+0x100>
    1db1:	89 c7                	mov    %eax,%edi
    1db3:	e9 09 ff ff ff       	jmp    1cc1 <mfs_destroy_node+0x41>
    1db8:	c7 44 24 08 e1 03 00 	movl   $0x3e1,0x8(%esp)
    1dbf:	00 
    1dc0:	c7 44 24 04 80 49 02 	movl   $0x24980,0x4(%esp)
    1dc7:	00 
    1dc8:	c7 04 24 b1 49 02 00 	movl   $0x249b1,(%esp)
    1dcf:	e8 1c 05 02 00       	call   222f0 <assert_abort>
    1dd4:	c7 44 24 08 f3 01 00 	movl   $0x1f3,0x8(%esp)
    1ddb:	00 
    1ddc:	c7 44 24 04 80 49 02 	movl   $0x24980,0x4(%esp)
    1de3:	00 
    1de4:	c7 04 24 8a 49 02 00 	movl   $0x2498a,(%esp)
    1deb:	e8 00 05 02 00       	call   222f0 <assert_abort>
    1df0:	c7 44 24 08 f7 01 00 	movl   $0x1f7,0x8(%esp)
    1df7:	00 
    1df8:	c7 44 24 04 80 49 02 	movl   $0x24980,0x4(%esp)
    1dff:	00 
    1e00:	c7 04 24 c8 49 02 00 	movl   $0x249c8,(%esp)
    1e07:	e8 e4 04 02 00       	call   222f0 <assert_abort>
    1e0c:	8d 74 26 00          	lea    0x0(%esi,%eiz,1),%esi

00001e10 <mfs_sync>:
    1e10:	55                   	push   %ebp
    1e11:	89 e5                	mov    %esp,%ebp
    1e13:	57                   	push   %edi
    1e14:	56                   	push   %esi
    1e15:	53                   	push   %ebx
    1e16:	83 ec 2c             	sub    $0x2c,%esp
    1e19:	8d 5d dc             	lea    -0x24(%ebp),%ebx
    1e1c:	8b 45 08             	mov    0x8(%ebp),%eax
    1e1f:	89 5c 24 04          	mov    %ebx,0x4(%esp)
    1e23:	89 04 24             	mov    %eax,(%esp)
    1e26:	e8 c5 5e 00 00       	call   7cf0 <fs_instance_get>
    1e2b:	89 c6                	mov    %eax,%esi
    1e2d:	85 c0                	test   %eax,%eax
    1e2f:	0f 85 d5 00 00 00    	jne    1f0a <mfs_sync+0xfa>
    1e35:	8b 7d dc             	mov    -0x24(%ebp),%edi
    1e38:	c7 04 24 74 75 02 00 	movl   $0x27574,(%esp)
    1e3f:	e8 bc d0 00 00       	call   ef00 <fibril_mutex_lock>
    1e44:	8b 07                	mov    (%edi),%eax
    1e46:	c7 04 24 d0 77 02 00 	movl   $0x277d0,(%esp)
    1e4d:	89 45 e0             	mov    %eax,-0x20(%ebp)
    1e50:	8b 45 0c             	mov    0xc(%ebp),%eax
    1e53:	89 45 e4             	mov    %eax,-0x1c(%ebp)
    1e56:	8d 45 e0             	lea    -0x20(%ebp),%eax
    1e59:	89 44 24 04          	mov    %eax,0x4(%esp)
    1e5d:	e8 5e bf 01 00       	call   1ddc0 <hash_table_find>
    1e62:	85 c0                	test   %eax,%eax
    1e64:	0f 84 ae 00 00 00    	je     1f18 <mfs_sync+0x108>
    1e6a:	8b 50 fc             	mov    -0x4(%eax),%edx
    1e6d:	83 e8 10             	sub    $0x10,%eax
    1e70:	89 55 dc             	mov    %edx,-0x24(%ebp)
    1e73:	8b 50 08             	mov    0x8(%eax),%edx
    1e76:	42                   	inc    %edx
    1e77:	89 50 08             	mov    %edx,0x8(%eax)
    1e7a:	c7 04 24 74 75 02 00 	movl   $0x27574,(%esp)
    1e81:	e8 9a d1 00 00       	call   f020 <fibril_mutex_unlock>
    1e86:	8b 7d dc             	mov    -0x24(%ebp),%edi
    1e89:	85 ff                	test   %edi,%edi
    1e8b:	0f 84 9f 00 00 00    	je     1f30 <mfs_sync+0x120>
    1e91:	8b 5f 10             	mov    0x10(%edi),%ebx
    1e94:	8b 03                	mov    (%ebx),%eax
    1e96:	c6 40 40 01          	movb   $0x1,0x40(%eax)
    1e9a:	c7 04 24 74 75 02 00 	movl   $0x27574,(%esp)
    1ea1:	e8 5a d0 00 00       	call   ef00 <fibril_mutex_lock>
    1ea6:	8b 43 08             	mov    0x8(%ebx),%eax
    1ea9:	85 c0                	test   %eax,%eax
    1eab:	0f 84 84 00 00 00    	je     1f35 <mfs_sync+0x125>
    1eb1:	48                   	dec    %eax
    1eb2:	89 43 08             	mov    %eax,0x8(%ebx)
    1eb5:	85 c0                	test   %eax,%eax
    1eb7:	75 45                	jne    1efe <mfs_sync+0xee>
    1eb9:	8d 43 10             	lea    0x10(%ebx),%eax
    1ebc:	c7 04 24 d0 77 02 00 	movl   $0x277d0,(%esp)
    1ec3:	89 44 24 04          	mov    %eax,0x4(%esp)
    1ec7:	e8 74 c1 01 00       	call   1e040 <hash_table_remove_item>
    1ecc:	8b 43 04             	mov    0x4(%ebx),%eax
    1ecf:	8b 50 08             	mov    0x8(%eax),%edx
    1ed2:	85 d2                	test   %edx,%edx
    1ed4:	74 7b                	je     1f51 <mfs_sync+0x141>
    1ed6:	4a                   	dec    %edx
    1ed7:	89 50 08             	mov    %edx,0x8(%eax)
    1eda:	89 1c 24             	mov    %ebx,(%esp)
    1edd:	e8 ae 1b 00 00       	call   3a90 <mfs_put_inode>
    1ee2:	89 c6                	mov    %eax,%esi
    1ee4:	8b 03                	mov    (%ebx),%eax
    1ee6:	89 04 24             	mov    %eax,(%esp)
    1ee9:	e8 32 5d 01 00       	call   17c20 <free>
    1eee:	89 1c 24             	mov    %ebx,(%esp)
    1ef1:	e8 2a 5d 01 00       	call   17c20 <free>
    1ef6:	89 3c 24             	mov    %edi,(%esp)
    1ef9:	e8 22 5d 01 00       	call   17c20 <free>
    1efe:	c7 04 24 74 75 02 00 	movl   $0x27574,(%esp)
    1f05:	e8 16 d1 00 00       	call   f020 <fibril_mutex_unlock>
    1f0a:	83 c4 2c             	add    $0x2c,%esp
    1f0d:	89 f0                	mov    %esi,%eax
    1f0f:	5b                   	pop    %ebx
    1f10:	5e                   	pop    %esi
    1f11:	5f                   	pop    %edi
    1f12:	5d                   	pop    %ebp
    1f13:	c3                   	ret    
    1f14:	8d 74 26 00          	lea    0x0(%esi,%eiz,1),%esi
    1f18:	8b 4d 0c             	mov    0xc(%ebp),%ecx
    1f1b:	89 fa                	mov    %edi,%edx
    1f1d:	89 d8                	mov    %ebx,%eax
    1f1f:	e8 3c f8 ff ff       	call   1760 <mfs_node_core_get.part.3>
    1f24:	85 c0                	test   %eax,%eax
    1f26:	0f 84 5a ff ff ff    	je     1e86 <mfs_sync+0x76>
    1f2c:	89 c6                	mov    %eax,%esi
    1f2e:	eb da                	jmp    1f0a <mfs_sync+0xfa>
    1f30:	83 ce ff             	or     $0xffffffff,%esi
    1f33:	eb d5                	jmp    1f0a <mfs_sync+0xfa>
    1f35:	c7 44 24 08 f3 01 00 	movl   $0x1f3,0x8(%esp)
    1f3c:	00 
    1f3d:	c7 44 24 04 80 49 02 	movl   $0x24980,0x4(%esp)
    1f44:	00 
    1f45:	c7 04 24 8a 49 02 00 	movl   $0x2498a,(%esp)
    1f4c:	e8 9f 03 02 00       	call   222f0 <assert_abort>
    1f51:	c7 44 24 08 f7 01 00 	movl   $0x1f7,0x8(%esp)
    1f58:	00 
    1f59:	c7 44 24 04 80 49 02 	movl   $0x24980,0x4(%esp)
    1f60:	00 
    1f61:	c7 04 24 c8 49 02 00 	movl   $0x249c8,(%esp)
    1f68:	e8 83 03 02 00       	call   222f0 <assert_abort>
    1f6d:	8d 76 00             	lea    0x0(%esi),%esi

00001f70 <mfs_destroy>:
    1f70:	55                   	push   %ebp
    1f71:	89 e5                	mov    %esp,%ebp
    1f73:	57                   	push   %edi
    1f74:	56                   	push   %esi
    1f75:	53                   	push   %ebx
    1f76:	81 ec 8c 00 00 00    	sub    $0x8c,%esp
    1f7c:	8d 5d 90             	lea    -0x70(%ebp),%ebx
    1f7f:	8b 45 08             	mov    0x8(%ebp),%eax
    1f82:	89 5c 24 04          	mov    %ebx,0x4(%esp)
    1f86:	89 04 24             	mov    %eax,(%esp)
    1f89:	e8 62 5d 00 00       	call   7cf0 <fs_instance_get>
    1f8e:	89 c7                	mov    %eax,%edi
    1f90:	85 c0                	test   %eax,%eax
    1f92:	0f 85 21 01 00 00    	jne    20b9 <mfs_destroy+0x149>
    1f98:	8b 75 90             	mov    -0x70(%ebp),%esi
    1f9b:	c7 04 24 74 75 02 00 	movl   $0x27574,(%esp)
    1fa2:	e8 59 cf 00 00       	call   ef00 <fibril_mutex_lock>
    1fa7:	8b 06                	mov    (%esi),%eax
    1fa9:	c7 04 24 d0 77 02 00 	movl   $0x277d0,(%esp)
    1fb0:	89 45 94             	mov    %eax,-0x6c(%ebp)
    1fb3:	8b 45 0c             	mov    0xc(%ebp),%eax
    1fb6:	89 45 98             	mov    %eax,-0x68(%ebp)
    1fb9:	8d 45 94             	lea    -0x6c(%ebp),%eax
    1fbc:	89 44 24 04          	mov    %eax,0x4(%esp)
    1fc0:	e8 fb bd 01 00       	call   1ddc0 <hash_table_find>
    1fc5:	85 c0                	test   %eax,%eax
    1fc7:	0f 84 4b 01 00 00    	je     2118 <mfs_destroy+0x1a8>
    1fcd:	8b 50 fc             	mov    -0x4(%eax),%edx
    1fd0:	83 e8 10             	sub    $0x10,%eax
    1fd3:	89 55 90             	mov    %edx,-0x70(%ebp)
    1fd6:	8b 58 08             	mov    0x8(%eax),%ebx
    1fd9:	43                   	inc    %ebx
    1fda:	89 58 08             	mov    %ebx,0x8(%eax)
    1fdd:	c7 04 24 74 75 02 00 	movl   $0x27574,(%esp)
    1fe4:	e8 37 d0 00 00       	call   f020 <fibril_mutex_unlock>
    1fe9:	8b 45 90             	mov    -0x70(%ebp),%eax
    1fec:	89 45 84             	mov    %eax,-0x7c(%ebp)
    1fef:	85 c0                	test   %eax,%eax
    1ff1:	0f 84 55 01 00 00    	je     214c <mfs_destroy+0x1dc>
    1ff7:	8b 70 10             	mov    0x10(%eax),%esi
    1ffa:	8b 46 04             	mov    0x4(%esi),%eax
    1ffd:	8b 0e                	mov    (%esi),%ecx
    1fff:	8b 78 04             	mov    0x4(%eax),%edi
    2002:	8b 01                	mov    (%ecx),%eax
    2004:	25 00 f0 ff ff       	and    $0xfffff000,%eax
    2009:	66 3d 00 40          	cmp    $0x4000,%ax
    200d:	0f 84 b5 00 00 00    	je     20c8 <mfs_destroy+0x158>
    2013:	8b 41 08             	mov    0x8(%ecx),%eax
    2016:	89 34 24             	mov    %esi,(%esp)
    2019:	89 44 24 04          	mov    %eax,0x4(%esp)
    201d:	e8 ee 1d 00 00       	call   3e10 <mfs_inode_shrink>
    2022:	89 c7                	mov    %eax,%edi
    2024:	85 c0                	test   %eax,%eax
    2026:	75 16                	jne    203e <mfs_destroy+0xce>
    2028:	8b 06                	mov    (%esi),%eax
    202a:	8b 40 44             	mov    0x44(%eax),%eax
    202d:	89 44 24 04          	mov    %eax,0x4(%esp)
    2031:	8b 46 04             	mov    0x4(%esi),%eax
    2034:	89 04 24             	mov    %eax,(%esp)
    2037:	e8 84 2f 00 00       	call   4fc0 <mfs_free_inode>
    203c:	89 c7                	mov    %eax,%edi
    203e:	8b 45 84             	mov    -0x7c(%ebp),%eax
    2041:	8b 58 10             	mov    0x10(%eax),%ebx
    2044:	c7 04 24 74 75 02 00 	movl   $0x27574,(%esp)
    204b:	e8 b0 ce 00 00       	call   ef00 <fibril_mutex_lock>
    2050:	8b 43 08             	mov    0x8(%ebx),%eax
    2053:	85 c0                	test   %eax,%eax
    2055:	0f 84 f9 00 00 00    	je     2154 <mfs_destroy+0x1e4>
    205b:	48                   	dec    %eax
    205c:	89 43 08             	mov    %eax,0x8(%ebx)
    205f:	85 c0                	test   %eax,%eax
    2061:	75 4a                	jne    20ad <mfs_destroy+0x13d>
    2063:	8d 43 10             	lea    0x10(%ebx),%eax
    2066:	c7 04 24 d0 77 02 00 	movl   $0x277d0,(%esp)
    206d:	89 44 24 04          	mov    %eax,0x4(%esp)
    2071:	e8 ca bf 01 00       	call   1e040 <hash_table_remove_item>
    2076:	8b 43 04             	mov    0x4(%ebx),%eax
    2079:	8b 48 08             	mov    0x8(%eax),%ecx
    207c:	85 c9                	test   %ecx,%ecx
    207e:	0f 84 ec 00 00 00    	je     2170 <mfs_destroy+0x200>
    2084:	49                   	dec    %ecx
    2085:	89 48 08             	mov    %ecx,0x8(%eax)
    2088:	89 1c 24             	mov    %ebx,(%esp)
    208b:	e8 00 1a 00 00       	call   3a90 <mfs_put_inode>
    2090:	8b 03                	mov    (%ebx),%eax
    2092:	89 04 24             	mov    %eax,(%esp)
    2095:	e8 86 5b 01 00       	call   17c20 <free>
    209a:	89 1c 24             	mov    %ebx,(%esp)
    209d:	e8 7e 5b 01 00       	call   17c20 <free>
    20a2:	8b 45 84             	mov    -0x7c(%ebp),%eax
    20a5:	89 04 24             	mov    %eax,(%esp)
    20a8:	e8 73 5b 01 00       	call   17c20 <free>
    20ad:	c7 04 24 74 75 02 00 	movl   $0x27574,(%esp)
    20b4:	e8 67 cf 00 00       	call   f020 <fibril_mutex_unlock>
    20b9:	81 c4 8c 00 00 00    	add    $0x8c,%esp
    20bf:	89 f8                	mov    %edi,%eax
    20c1:	5b                   	pop    %ebx
    20c2:	5e                   	pop    %esi
    20c3:	5f                   	pop    %edi
    20c4:	5d                   	pop    %ebp
    20c5:	c3                   	ret    
    20c6:	66 90                	xchg   %ax,%ax
    20c8:	31 d2                	xor    %edx,%edx
    20ca:	8b 41 08             	mov    0x8(%ecx),%eax
    20cd:	f7 77 30             	divl   0x30(%edi)
    20d0:	83 f8 02             	cmp    $0x2,%eax
    20d3:	0f 86 3a ff ff ff    	jbe    2013 <mfs_destroy+0xa3>
    20d9:	bb 02 00 00 00       	mov    $0x2,%ebx
    20de:	eb 1a                	jmp    20fa <mfs_destroy+0x18a>
    20e0:	8b 4d 9c             	mov    -0x64(%ebp),%ecx
    20e3:	85 c9                	test   %ecx,%ecx
    20e5:	75 49                	jne    2130 <mfs_destroy+0x1c0>
    20e7:	8b 0e                	mov    (%esi),%ecx
    20e9:	31 d2                	xor    %edx,%edx
    20eb:	43                   	inc    %ebx
    20ec:	8b 41 08             	mov    0x8(%ecx),%eax
    20ef:	f7 77 30             	divl   0x30(%edi)
    20f2:	39 c3                	cmp    %eax,%ebx
    20f4:	0f 83 19 ff ff ff    	jae    2013 <mfs_destroy+0xa3>
    20fa:	8d 45 9c             	lea    -0x64(%ebp),%eax
    20fd:	89 5c 24 08          	mov    %ebx,0x8(%esp)
    2101:	89 44 24 04          	mov    %eax,0x4(%esp)
    2105:	89 34 24             	mov    %esi,(%esp)
    2108:	e8 53 26 00 00       	call   4760 <mfs_read_dentry>
    210d:	85 c0                	test   %eax,%eax
    210f:	74 cf                	je     20e0 <mfs_destroy+0x170>
    2111:	89 c7                	mov    %eax,%edi
    2113:	e9 26 ff ff ff       	jmp    203e <mfs_destroy+0xce>
    2118:	8b 4d 0c             	mov    0xc(%ebp),%ecx
    211b:	89 f2                	mov    %esi,%edx
    211d:	89 d8                	mov    %ebx,%eax
    211f:	e8 3c f6 ff ff       	call   1760 <mfs_node_core_get.part.3>
    2124:	89 c7                	mov    %eax,%edi
    2126:	85 c0                	test   %eax,%eax
    2128:	0f 84 bb fe ff ff    	je     1fe9 <mfs_destroy+0x79>
    212e:	eb 89                	jmp    20b9 <mfs_destroy+0x149>
    2130:	c7 44 24 08 e1 03 00 	movl   $0x3e1,0x8(%esp)
    2137:	00 
    2138:	c7 44 24 04 80 49 02 	movl   $0x24980,0x4(%esp)
    213f:	00 
    2140:	c7 04 24 b1 49 02 00 	movl   $0x249b1,(%esp)
    2147:	e8 a4 01 02 00       	call   222f0 <assert_abort>
    214c:	83 cf ff             	or     $0xffffffff,%edi
    214f:	e9 65 ff ff ff       	jmp    20b9 <mfs_destroy+0x149>
    2154:	c7 44 24 08 f3 01 00 	movl   $0x1f3,0x8(%esp)
    215b:	00 
    215c:	c7 44 24 04 80 49 02 	movl   $0x24980,0x4(%esp)
    2163:	00 
    2164:	c7 04 24 8a 49 02 00 	movl   $0x2498a,(%esp)
    216b:	e8 80 01 02 00       	call   222f0 <assert_abort>
    2170:	c7 44 24 08 f7 01 00 	movl   $0x1f7,0x8(%esp)
    2177:	00 
    2178:	c7 44 24 04 80 49 02 	movl   $0x24980,0x4(%esp)
    217f:	00 
    2180:	c7 04 24 c8 49 02 00 	movl   $0x249c8,(%esp)
    2187:	e8 64 01 02 00       	call   222f0 <assert_abort>
    218c:	8d 74 26 00          	lea    0x0(%esi,%eiz,1),%esi

00002190 <mfs_mounted>:
    2190:	55                   	push   %ebp
    2191:	89 e5                	mov    %esp,%ebp
    2193:	57                   	push   %edi
    2194:	56                   	push   %esi
    2195:	53                   	push   %ebx
    2196:	83 ec 4c             	sub    $0x4c,%esp
    2199:	8b 45 0c             	mov    0xc(%ebp),%eax
    219c:	c7 44 24 04 bf 49 02 	movl   $0x249bf,0x4(%esp)
    21a3:	00 
    21a4:	89 04 24             	mov    %eax,(%esp)
    21a7:	e8 64 a0 00 00       	call   c210 <str_cmp>
    21ac:	8b 55 08             	mov    0x8(%ebp),%edx
    21af:	c7 44 24 08 00 10 00 	movl   $0x1000,0x8(%esp)
    21b6:	00 
    21b7:	89 54 24 04          	mov    %edx,0x4(%esp)
    21bb:	c7 04 24 02 00 00 00 	movl   $0x2,(%esp)
    21c2:	89 45 d0             	mov    %eax,-0x30(%ebp)
    21c5:	e8 16 2f 00 00       	call   50e0 <block_init>
    21ca:	89 c7                	mov    %eax,%edi
    21cc:	85 c0                	test   %eax,%eax
    21ce:	74 10                	je     21e0 <mfs_mounted+0x50>
    21d0:	83 c4 4c             	add    $0x4c,%esp
    21d3:	89 f8                	mov    %edi,%eax
    21d5:	5b                   	pop    %ebx
    21d6:	5e                   	pop    %esi
    21d7:	5f                   	pop    %edi
    21d8:	5d                   	pop    %ebp
    21d9:	c3                   	ret    
    21da:	8d b6 00 00 00 00    	lea    0x0(%esi),%esi
    21e0:	c7 04 24 48 00 00 00 	movl   $0x48,(%esp)
    21e7:	e8 24 59 01 00       	call   17b10 <malloc>
    21ec:	89 c3                	mov    %eax,%ebx
    21ee:	85 c0                	test   %eax,%eax
    21f0:	0f 84 aa 00 00 00    	je     22a0 <mfs_mounted+0x110>
    21f6:	c7 04 24 0c 00 00 00 	movl   $0xc,(%esp)
    21fd:	e8 0e 59 01 00       	call   17b10 <malloc>
    2202:	89 45 d4             	mov    %eax,-0x2c(%ebp)
    2205:	85 c0                	test   %eax,%eax
    2207:	0f 84 93 00 00 00    	je     22a0 <mfs_mounted+0x110>
    220d:	c7 04 24 00 04 00 00 	movl   $0x400,(%esp)
    2214:	e8 f7 58 01 00       	call   17b10 <malloc>
    2219:	89 c6                	mov    %eax,%esi
    221b:	85 c0                	test   %eax,%eax
    221d:	74 69                	je     2288 <mfs_mounted+0xf8>
    221f:	8b 7d 08             	mov    0x8(%ebp),%edi
    2222:	89 44 24 10          	mov    %eax,0x10(%esp)
    2226:	89 3c 24             	mov    %edi,(%esp)
    2229:	c7 44 24 0c 02 00 00 	movl   $0x2,0xc(%esp)
    2230:	00 
    2231:	c7 44 24 04 02 00 00 	movl   $0x2,0x4(%esp)
    2238:	00 
    2239:	c7 44 24 08 00 00 00 	movl   $0x0,0x8(%esp)
    2240:	00 
    2241:	e8 4a 3f 00 00       	call   6190 <block_read_direct>
    2246:	89 c7                	mov    %eax,%edi
    2248:	85 c0                	test   %eax,%eax
    224a:	74 7c                	je     22c8 <mfs_mounted+0x138>
    224c:	8b 55 08             	mov    0x8(%ebp),%edx
    224f:	89 14 24             	mov    %edx,(%esp)
    2252:	e8 b9 34 00 00       	call   5710 <block_fini>
    2257:	89 34 24             	mov    %esi,(%esp)
    225a:	e8 c1 59 01 00       	call   17c20 <free>
    225f:	89 1c 24             	mov    %ebx,(%esp)
    2262:	e8 b9 59 01 00       	call   17c20 <free>
    2267:	8b 45 d4             	mov    -0x2c(%ebp),%eax
    226a:	85 c0                	test   %eax,%eax
    226c:	0f 84 5e ff ff ff    	je     21d0 <mfs_mounted+0x40>
    2272:	8b 45 d4             	mov    -0x2c(%ebp),%eax
    2275:	89 04 24             	mov    %eax,(%esp)
    2278:	e8 a3 59 01 00       	call   17c20 <free>
    227d:	83 c4 4c             	add    $0x4c,%esp
    2280:	89 f8                	mov    %edi,%eax
    2282:	5b                   	pop    %ebx
    2283:	5e                   	pop    %esi
    2284:	5f                   	pop    %edi
    2285:	5d                   	pop    %ebp
    2286:	c3                   	ret    
    2287:	90                   	nop
    2288:	8b 55 08             	mov    0x8(%ebp),%edx
    228b:	bf fe ff ff ff       	mov    $0xfffffffe,%edi
    2290:	89 14 24             	mov    %edx,(%esp)
    2293:	e8 78 34 00 00       	call   5710 <block_fini>
    2298:	eb c5                	jmp    225f <mfs_mounted+0xcf>
    229a:	8d b6 00 00 00 00    	lea    0x0(%esi),%esi
    22a0:	8b 7d 08             	mov    0x8(%ebp),%edi
    22a3:	89 3c 24             	mov    %edi,(%esp)
    22a6:	e8 65 34 00 00       	call   5710 <block_fini>
    22ab:	85 db                	test   %ebx,%ebx
    22ad:	0f 85 55 02 00 00    	jne    2508 <mfs_mounted+0x378>
    22b3:	83 c4 4c             	add    $0x4c,%esp
    22b6:	bf fe ff ff ff       	mov    $0xfffffffe,%edi
    22bb:	89 f8                	mov    %edi,%eax
    22bd:	5b                   	pop    %ebx
    22be:	5e                   	pop    %esi
    22bf:	5f                   	pop    %edi
    22c0:	5d                   	pop    %ebp
    22c1:	c3                   	ret    
    22c2:	8d b6 00 00 00 00    	lea    0x0(%esi),%esi
    22c8:	66 8b 46 10          	mov    0x10(%esi),%ax
    22cc:	66 3d 7f 13          	cmp    $0x137f,%ax
    22d0:	0f 94 c1             	sete   %cl
    22d3:	66 3d 13 7f          	cmp    $0x7f13,%ax
    22d7:	0f 84 5b 02 00 00    	je     2538 <mfs_mounted+0x3a8>
    22dd:	84 c9                	test   %cl,%cl
    22df:	0f 85 53 02 00 00    	jne    2538 <mfs_mounted+0x3a8>
    22e5:	66 3d 8f 13          	cmp    $0x138f,%ax
    22e9:	0f 94 c1             	sete   %cl
    22ec:	66 3d 13 8f          	cmp    $0x8f13,%ax
    22f0:	0f 84 52 02 00 00    	je     2548 <mfs_mounted+0x3b8>
    22f6:	84 c9                	test   %cl,%cl
    22f8:	0f 85 4a 02 00 00    	jne    2548 <mfs_mounted+0x3b8>
    22fe:	66 3d 68 24          	cmp    $0x2468,%ax
    2302:	0f 94 c1             	sete   %cl
    2305:	66 3d 24 68          	cmp    $0x6824,%ax
    2309:	0f 84 25 03 00 00    	je     2634 <mfs_mounted+0x4a4>
    230f:	84 c9                	test   %cl,%cl
    2311:	0f 85 1d 03 00 00    	jne    2634 <mfs_mounted+0x4a4>
    2317:	66 3d 78 24          	cmp    $0x2478,%ax
    231b:	0f 94 c1             	sete   %cl
    231e:	66 3d 24 78          	cmp    $0x7824,%ax
    2322:	0f 84 3b 03 00 00    	je     2663 <mfs_mounted+0x4d3>
    2328:	84 c9                	test   %cl,%cl
    232a:	0f 85 33 03 00 00    	jne    2663 <mfs_mounted+0x4d3>
    2330:	66 3d 5a 4d          	cmp    $0x4d5a,%ax
    2334:	0f 94 c1             	sete   %cl
    2337:	66 3d 4d 5a          	cmp    $0x5a4d,%ax
    233b:	0f 85 68 03 00 00    	jne    26a9 <mfs_mounted+0x519>
    2341:	31 d2                	xor    %edx,%edx
    2343:	c7 45 cc 03 00 00 00 	movl   $0x3,-0x34(%ebp)
    234a:	8d b6 00 00 00 00    	lea    0x0(%esi),%esi
    2350:	8b 7d cc             	mov    -0x34(%ebp),%edi
    2353:	88 4b 3d             	mov    %cl,0x3d(%ebx)
    2356:	81 e1 ff 00 00 00    	and    $0xff,%ecx
    235c:	89 7b 28             	mov    %edi,0x28(%ebx)
    235f:	83 ff 03             	cmp    $0x3,%edi
    2362:	88 53 3c             	mov    %dl,0x3c(%ebx)
    2365:	66 89 43 20          	mov    %ax,0x20(%ebx)
    2369:	c7 43 40 00 00 00 00 	movl   $0x0,0x40(%ebx)
    2370:	c7 43 44 00 00 00 00 	movl   $0x0,0x44(%ebx)
    2377:	89 cf                	mov    %ecx,%edi
    2379:	0f 84 d7 01 00 00    	je     2556 <mfs_mounted+0x3c6>
    237f:	66 8b 06             	mov    (%esi),%ax
    2382:	89 0c 24             	mov    %ecx,(%esp)
    2385:	25 ff ff 00 00       	and    $0xffff,%eax
    238a:	88 55 c8             	mov    %dl,-0x38(%ebp)
    238d:	89 44 24 04          	mov    %eax,0x4(%esp)
    2391:	e8 ba 2c 00 00       	call   5050 <conv16>
    2396:	25 ff ff 00 00       	and    $0xffff,%eax
    239b:	89 03                	mov    %eax,(%ebx)
    239d:	66 8b 46 04          	mov    0x4(%esi),%ax
    23a1:	25 ff ff 00 00       	and    $0xffff,%eax
    23a6:	89 3c 24             	mov    %edi,(%esp)
    23a9:	89 44 24 04          	mov    %eax,0x4(%esp)
    23ad:	e8 9e 2c 00 00       	call   5050 <conv16>
    23b2:	25 ff ff 00 00       	and    $0xffff,%eax
    23b7:	89 43 08             	mov    %eax,0x8(%ebx)
    23ba:	66 8b 46 06          	mov    0x6(%esi),%ax
    23be:	25 ff ff 00 00       	and    $0xffff,%eax
    23c3:	89 3c 24             	mov    %edi,(%esp)
    23c6:	89 44 24 04          	mov    %eax,0x4(%esp)
    23ca:	e8 81 2c 00 00       	call   5050 <conv16>
    23cf:	25 ff ff 00 00       	and    $0xffff,%eax
    23d4:	89 43 0c             	mov    %eax,0xc(%ebx)
    23d7:	66 8b 46 08          	mov    0x8(%esi),%ax
    23db:	25 ff ff 00 00       	and    $0xffff,%eax
    23e0:	89 3c 24             	mov    %edi,(%esp)
    23e3:	89 44 24 04          	mov    %eax,0x4(%esp)
    23e7:	e8 64 2c 00 00       	call   5050 <conv16>
    23ec:	25 ff ff 00 00       	and    $0xffff,%eax
    23f1:	89 43 10             	mov    %eax,0x10(%ebx)
    23f4:	66 8b 46 0a          	mov    0xa(%esi),%ax
    23f8:	25 ff ff 00 00       	and    $0xffff,%eax
    23fd:	89 3c 24             	mov    %edi,(%esp)
    2400:	89 44 24 04          	mov    %eax,0x4(%esp)
    2404:	e8 47 2c 00 00       	call   5050 <conv16>
    2409:	25 ff ff 00 00       	and    $0xffff,%eax
    240e:	89 43 14             	mov    %eax,0x14(%ebx)
    2411:	8b 46 0c             	mov    0xc(%esi),%eax
    2414:	89 44 24 04          	mov    %eax,0x4(%esp)
    2418:	89 3c 24             	mov    %edi,(%esp)
    241b:	e8 50 2c 00 00       	call   5070 <conv32>
    2420:	c7 43 18 00 04 00 00 	movl   $0x400,0x18(%ebx)
    2427:	89 43 1c             	mov    %eax,0x1c(%ebx)
    242a:	8a 55 c8             	mov    -0x38(%ebp),%dl
    242d:	83 7d cc 02          	cmpl   $0x2,-0x34(%ebp)
    2431:	0f 84 0b 02 00 00    	je     2642 <mfs_mounted+0x4b2>
    2437:	66 8b 46 02          	mov    0x2(%esi),%ax
    243b:	89 3c 24             	mov    %edi,(%esp)
    243e:	25 ff ff 00 00       	and    $0xffff,%eax
    2443:	88 55 c8             	mov    %dl,-0x38(%ebp)
    2446:	89 44 24 04          	mov    %eax,0x4(%esp)
    244a:	e8 01 2c 00 00       	call   5050 <conv16>
    244f:	c7 43 2c 20 00 00 00 	movl   $0x20,0x2c(%ebx)
    2456:	25 ff ff 00 00       	and    $0xffff,%eax
    245b:	8a 55 c8             	mov    -0x38(%ebp),%dl
    245e:	89 43 04             	mov    %eax,0x4(%ebx)
    2461:	80 fa 01             	cmp    $0x1,%dl
    2464:	19 c0                	sbb    %eax,%eax
    2466:	83 e0 f0             	and    $0xfffffff0,%eax
    2469:	83 c0 20             	add    $0x20,%eax
    246c:	80 fa 01             	cmp    $0x1,%dl
    246f:	19 c9                	sbb    %ecx,%ecx
    2471:	89 43 30             	mov    %eax,0x30(%ebx)
    2474:	83 e1 f0             	and    $0xfffffff0,%ecx
    2477:	83 c1 1e             	add    $0x1e,%ecx
    247a:	89 4b 38             	mov    %ecx,0x38(%ebx)
    247d:	8b 43 14             	mov    0x14(%ebx),%eax
    2480:	85 c0                	test   %eax,%eax
    2482:	0f 85 a6 00 00 00    	jne    252e <mfs_mounted+0x39e>
    2488:	8b 7b 08             	mov    0x8(%ebx),%edi
    248b:	8b 53 0c             	mov    0xc(%ebx),%edx
    248e:	8d 44 17 02          	lea    0x2(%edi,%edx,1),%eax
    2492:	89 43 34             	mov    %eax,0x34(%ebx)
    2495:	8b 43 18             	mov    0x18(%ebx),%eax
    2498:	85 c0                	test   %eax,%eax
    249a:	74 7d                	je     2519 <mfs_mounted+0x389>
    249c:	8d 48 ff             	lea    -0x1(%eax),%ecx
    249f:	85 c1                	test   %eax,%ecx
    24a1:	75 76                	jne    2519 <mfs_mounted+0x389>
    24a3:	3d ff 03 00 00       	cmp    $0x3ff,%eax
    24a8:	7e 6f                	jle    2519 <mfs_mounted+0x389>
    24aa:	3d 00 10 00 00       	cmp    $0x1000,%eax
    24af:	7f 68                	jg     2519 <mfs_mounted+0x389>
    24b1:	85 ff                	test   %edi,%edi
    24b3:	74 64                	je     2519 <mfs_mounted+0x389>
    24b5:	85 d2                	test   %edx,%edx
    24b7:	74 60                	je     2519 <mfs_mounted+0x389>
    24b9:	8b 3b                	mov    (%ebx),%edi
    24bb:	85 ff                	test   %edi,%edi
    24bd:	74 5a                	je     2519 <mfs_mounted+0x389>
    24bf:	8b 4b 04             	mov    0x4(%ebx),%ecx
    24c2:	85 c9                	test   %ecx,%ecx
    24c4:	74 53                	je     2519 <mfs_mounted+0x389>
    24c6:	8b 53 10             	mov    0x10(%ebx),%edx
    24c9:	85 d2                	test   %edx,%edx
    24cb:	74 4c                	je     2519 <mfs_mounted+0x389>
    24cd:	8b 7d d0             	mov    -0x30(%ebp),%edi
    24d0:	8b 55 08             	mov    0x8(%ebp),%edx
    24d3:	85 ff                	test   %edi,%edi
    24d5:	c7 44 24 08 00 00 00 	movl   $0x0,0x8(%esp)
    24dc:	00 
    24dd:	0f 95 c1             	setne  %cl
    24e0:	81 e1 ff 00 00 00    	and    $0xff,%ecx
    24e6:	89 44 24 04          	mov    %eax,0x4(%esp)
    24ea:	89 4c 24 0c          	mov    %ecx,0xc(%esp)
    24ee:	89 14 24             	mov    %edx,(%esp)
    24f1:	e8 2a 2f 00 00       	call   5420 <block_cache_init>
    24f6:	85 c0                	test   %eax,%eax
    24f8:	0f 84 73 01 00 00    	je     2671 <mfs_mounted+0x4e1>
    24fe:	bf f2 ff ff ff       	mov    $0xfffffff2,%edi
    2503:	e9 44 fd ff ff       	jmp    224c <mfs_mounted+0xbc>
    2508:	c7 45 d4 00 00 00 00 	movl   $0x0,-0x2c(%ebp)
    250f:	bf fe ff ff ff       	mov    $0xfffffffe,%edi
    2514:	e9 46 fd ff ff       	jmp    225f <mfs_mounted+0xcf>
    2519:	a1 24 78 02 00       	mov    0x27824,%eax
    251e:	c7 44 24 04 ec 49 02 	movl   $0x249ec,0x4(%esp)
    2525:	00 
    2526:	89 04 24             	mov    %eax,(%esp)
    2529:	e8 32 09 01 00       	call   12e60 <fprintf>
    252e:	bf f5 ff ff ff       	mov    $0xfffffff5,%edi
    2533:	e9 14 fd ff ff       	jmp    224c <mfs_mounted+0xbc>
    2538:	c7 45 cc 01 00 00 00 	movl   $0x1,-0x34(%ebp)
    253f:	31 d2                	xor    %edx,%edx
    2541:	e9 0a fe ff ff       	jmp    2350 <mfs_mounted+0x1c0>
    2546:	66 90                	xchg   %ax,%ax
    2548:	c7 45 cc 01 00 00 00 	movl   $0x1,-0x34(%ebp)
    254f:	b2 01                	mov    $0x1,%dl
    2551:	e9 fa fd ff ff       	jmp    2350 <mfs_mounted+0x1c0>
    2556:	8b 06                	mov    (%esi),%eax
    2558:	89 0c 24             	mov    %ecx,(%esp)
    255b:	89 44 24 04          	mov    %eax,0x4(%esp)
    255f:	e8 0c 2b 00 00       	call   5070 <conv32>
    2564:	89 03                	mov    %eax,(%ebx)
    2566:	66 8b 46 06          	mov    0x6(%esi),%ax
    256a:	25 ff ff 00 00       	and    $0xffff,%eax
    256f:	89 3c 24             	mov    %edi,(%esp)
    2572:	89 44 24 04          	mov    %eax,0x4(%esp)
    2576:	e8 d5 2a 00 00       	call   5050 <conv16>
    257b:	25 ff ff 00 00       	and    $0xffff,%eax
    2580:	89 43 08             	mov    %eax,0x8(%ebx)
    2583:	66 8b 46 08          	mov    0x8(%esi),%ax
    2587:	25 ff ff 00 00       	and    $0xffff,%eax
    258c:	89 3c 24             	mov    %edi,(%esp)
    258f:	89 44 24 04          	mov    %eax,0x4(%esp)
    2593:	e8 b8 2a 00 00       	call   5050 <conv16>
    2598:	25 ff ff 00 00       	and    $0xffff,%eax
    259d:	89 43 0c             	mov    %eax,0xc(%ebx)
    25a0:	66 8b 46 0a          	mov    0xa(%esi),%ax
    25a4:	25 ff ff 00 00       	and    $0xffff,%eax
    25a9:	89 3c 24             	mov    %edi,(%esp)
    25ac:	89 44 24 04          	mov    %eax,0x4(%esp)
    25b0:	e8 9b 2a 00 00       	call   5050 <conv16>
    25b5:	25 ff ff 00 00       	and    $0xffff,%eax
    25ba:	89 43 10             	mov    %eax,0x10(%ebx)
    25bd:	66 8b 46 0c          	mov    0xc(%esi),%ax
    25c1:	25 ff ff 00 00       	and    $0xffff,%eax
    25c6:	89 3c 24             	mov    %edi,(%esp)
    25c9:	89 44 24 04          	mov    %eax,0x4(%esp)
    25cd:	e8 7e 2a 00 00       	call   5050 <conv16>
    25d2:	25 ff ff 00 00       	and    $0xffff,%eax
    25d7:	89 43 14             	mov    %eax,0x14(%ebx)
    25da:	8b 46 10             	mov    0x10(%esi),%eax
    25dd:	89 44 24 04          	mov    %eax,0x4(%esp)
    25e1:	89 3c 24             	mov    %edi,(%esp)
    25e4:	e8 87 2a 00 00       	call   5070 <conv32>
    25e9:	89 43 1c             	mov    %eax,0x1c(%ebx)
    25ec:	8b 46 14             	mov    0x14(%esi),%eax
    25ef:	89 44 24 04          	mov    %eax,0x4(%esp)
    25f3:	89 3c 24             	mov    %edi,(%esp)
    25f6:	e8 75 2a 00 00       	call   5070 <conv32>
    25fb:	89 43 04             	mov    %eax,0x4(%ebx)
    25fe:	66 8b 46 1c          	mov    0x1c(%esi),%ax
    2602:	25 ff ff 00 00       	and    $0xffff,%eax
    2607:	89 3c 24             	mov    %edi,(%esp)
    260a:	89 44 24 04          	mov    %eax,0x4(%esp)
    260e:	e8 3d 2a 00 00       	call   5050 <conv16>
    2613:	c7 43 30 40 00 00 00 	movl   $0x40,0x30(%ebx)
    261a:	25 ff ff 00 00       	and    $0xffff,%eax
    261f:	c7 43 38 3c 00 00 00 	movl   $0x3c,0x38(%ebx)
    2626:	89 43 18             	mov    %eax,0x18(%ebx)
    2629:	c1 e8 06             	shr    $0x6,%eax
    262c:	89 43 2c             	mov    %eax,0x2c(%ebx)
    262f:	e9 49 fe ff ff       	jmp    247d <mfs_mounted+0x2ed>
    2634:	c7 45 cc 02 00 00 00 	movl   $0x2,-0x34(%ebp)
    263b:	31 d2                	xor    %edx,%edx
    263d:	e9 0e fd ff ff       	jmp    2350 <mfs_mounted+0x1c0>
    2642:	8b 46 14             	mov    0x14(%esi),%eax
    2645:	89 3c 24             	mov    %edi,(%esp)
    2648:	89 44 24 04          	mov    %eax,0x4(%esp)
    264c:	e8 1f 2a 00 00       	call   5070 <conv32>
    2651:	c7 43 2c 10 00 00 00 	movl   $0x10,0x2c(%ebx)
    2658:	89 43 04             	mov    %eax,0x4(%ebx)
    265b:	8a 55 c8             	mov    -0x38(%ebp),%dl
    265e:	e9 fe fd ff ff       	jmp    2461 <mfs_mounted+0x2d1>
    2663:	c7 45 cc 02 00 00 00 	movl   $0x2,-0x34(%ebp)
    266a:	b2 01                	mov    $0x1,%dl
    266c:	e9 df fc ff ff       	jmp    2350 <mfs_mounted+0x1c0>
    2671:	8b 45 d4             	mov    -0x2c(%ebp),%eax
    2674:	8b 55 08             	mov    0x8(%ebp),%edx
    2677:	89 10                	mov    %edx,(%eax)
    2679:	89 58 04             	mov    %ebx,0x4(%eax)
    267c:	c7 40 08 00 00 00 00 	movl   $0x0,0x8(%eax)
    2683:	89 44 24 04          	mov    %eax,0x4(%esp)
    2687:	89 14 24             	mov    %edx,(%esp)
    268a:	e8 41 55 00 00       	call   7bd0 <fs_instance_create>
    268f:	89 c7                	mov    %eax,%edi
    2691:	85 c0                	test   %eax,%eax
    2693:	0f 84 9e 00 00 00    	je     2737 <mfs_mounted+0x5a7>
    2699:	8b 55 08             	mov    0x8(%ebp),%edx
    269c:	89 14 24             	mov    %edx,(%esp)
    269f:	e8 ac 2e 00 00       	call   5550 <block_cache_fini>
    26a4:	e9 a3 fb ff ff       	jmp    224c <mfs_mounted+0xbc>
    26a9:	84 c9                	test   %cl,%cl
    26ab:	0f 85 90 fc ff ff    	jne    2341 <mfs_mounted+0x1b1>
    26b1:	66 8b 46 18          	mov    0x18(%esi),%ax
    26b5:	66 3d 7f 13          	cmp    $0x137f,%ax
    26b9:	0f 94 c1             	sete   %cl
    26bc:	66 3d 13 7f          	cmp    $0x7f13,%ax
    26c0:	0f 84 72 fe ff ff    	je     2538 <mfs_mounted+0x3a8>
    26c6:	84 c9                	test   %cl,%cl
    26c8:	0f 85 6a fe ff ff    	jne    2538 <mfs_mounted+0x3a8>
    26ce:	66 3d 8f 13          	cmp    $0x138f,%ax
    26d2:	0f 94 c1             	sete   %cl
    26d5:	66 3d 13 8f          	cmp    $0x8f13,%ax
    26d9:	0f 84 69 fe ff ff    	je     2548 <mfs_mounted+0x3b8>
    26df:	84 c9                	test   %cl,%cl
    26e1:	0f 85 61 fe ff ff    	jne    2548 <mfs_mounted+0x3b8>
    26e7:	66 3d 68 24          	cmp    $0x2468,%ax
    26eb:	0f 94 c1             	sete   %cl
    26ee:	66 3d 24 68          	cmp    $0x6824,%ax
    26f2:	0f 84 3c ff ff ff    	je     2634 <mfs_mounted+0x4a4>
    26f8:	84 c9                	test   %cl,%cl
    26fa:	0f 85 34 ff ff ff    	jne    2634 <mfs_mounted+0x4a4>
    2700:	66 3d 78 24          	cmp    $0x2478,%ax
    2704:	0f 94 c1             	sete   %cl
    2707:	66 3d 24 78          	cmp    $0x7824,%ax
    270b:	0f 84 52 ff ff ff    	je     2663 <mfs_mounted+0x4d3>
    2711:	84 c9                	test   %cl,%cl
    2713:	0f 85 4a ff ff ff    	jne    2663 <mfs_mounted+0x4d3>
    2719:	66 3d 5a 4d          	cmp    $0x4d5a,%ax
    271d:	0f 94 c1             	sete   %cl
    2720:	66 3d 4d 5a          	cmp    $0x5a4d,%ax
    2724:	0f 84 17 fc ff ff    	je     2341 <mfs_mounted+0x1b1>
    272a:	84 c9                	test   %cl,%cl
    272c:	0f 85 0f fc ff ff    	jne    2341 <mfs_mounted+0x1b1>
    2732:	e9 f7 fd ff ff       	jmp    252e <mfs_mounted+0x39e>
    2737:	8b 7d 08             	mov    0x8(%ebp),%edi
    273a:	8d 45 e4             	lea    -0x1c(%ebp),%eax
    273d:	89 7c 24 04          	mov    %edi,0x4(%esp)
    2741:	c7 44 24 08 01 00 00 	movl   $0x1,0x8(%esp)
    2748:	00 
    2749:	89 04 24             	mov    %eax,(%esp)
    274c:	e8 df f2 ff ff       	call   1a30 <mfs_node_get>
    2751:	8b 45 e4             	mov    -0x1c(%ebp),%eax
    2754:	8b 40 10             	mov    0x10(%eax),%eax
    2757:	8b 4d 10             	mov    0x10(%ebp),%ecx
    275a:	8b 00                	mov    (%eax),%eax
    275c:	8b 58 44             	mov    0x44(%eax),%ebx
    275f:	89 19                	mov    %ebx,(%ecx)
    2761:	8b 4d 14             	mov    0x14(%ebp),%ecx
    2764:	8b 50 08             	mov    0x8(%eax),%edx
    2767:	8b 45 18             	mov    0x18(%ebp),%eax
    276a:	89 11                	mov    %edx,(%ecx)
    276c:	c7 41 04 00 00 00 00 	movl   $0x0,0x4(%ecx)
    2773:	c7 00 01 00 00 00    	movl   $0x1,(%eax)
    2779:	89 34 24             	mov    %esi,(%esp)
    277c:	e8 9f 54 01 00       	call   17c20 <free>
    2781:	8b 45 e4             	mov    -0x1c(%ebp),%eax
    2784:	89 04 24             	mov    %eax,(%esp)
    2787:	e8 04 ef ff ff       	call   1690 <mfs_node_put>
    278c:	89 c7                	mov    %eax,%edi
    278e:	e9 3d fa ff ff       	jmp    21d0 <mfs_mounted+0x40>
    2793:	8d b6 00 00 00 00    	lea    0x0(%esi),%esi
    2799:	8d bc 27 00 00 00 00 	lea    0x0(%edi,%eiz,1),%edi

000027a0 <mfs_truncate>:
    27a0:	55                   	push   %ebp
    27a1:	89 e5                	mov    %esp,%ebp
    27a3:	57                   	push   %edi
    27a4:	56                   	push   %esi
    27a5:	53                   	push   %ebx
    27a6:	83 ec 3c             	sub    $0x3c,%esp
    27a9:	8d 75 dc             	lea    -0x24(%ebp),%esi
    27ac:	8b 45 10             	mov    0x10(%ebp),%eax
    27af:	89 45 d4             	mov    %eax,-0x2c(%ebp)
    27b2:	8b 45 14             	mov    0x14(%ebp),%eax
    27b5:	89 45 d0             	mov    %eax,-0x30(%ebp)
    27b8:	8b 45 08             	mov    0x8(%ebp),%eax
    27bb:	89 74 24 04          	mov    %esi,0x4(%esp)
    27bf:	89 04 24             	mov    %eax,(%esp)
    27c2:	e8 29 55 00 00       	call   7cf0 <fs_instance_get>
    27c7:	89 c3                	mov    %eax,%ebx
    27c9:	85 c0                	test   %eax,%eax
    27cb:	0f 85 f1 00 00 00    	jne    28c2 <mfs_truncate+0x122>
    27d1:	8b 7d dc             	mov    -0x24(%ebp),%edi
    27d4:	c7 04 24 74 75 02 00 	movl   $0x27574,(%esp)
    27db:	e8 20 c7 00 00       	call   ef00 <fibril_mutex_lock>
    27e0:	8b 07                	mov    (%edi),%eax
    27e2:	c7 04 24 d0 77 02 00 	movl   $0x277d0,(%esp)
    27e9:	89 45 e0             	mov    %eax,-0x20(%ebp)
    27ec:	8b 45 0c             	mov    0xc(%ebp),%eax
    27ef:	89 45 e4             	mov    %eax,-0x1c(%ebp)
    27f2:	8d 45 e0             	lea    -0x20(%ebp),%eax
    27f5:	89 44 24 04          	mov    %eax,0x4(%esp)
    27f9:	e8 c2 b5 01 00       	call   1ddc0 <hash_table_find>
    27fe:	85 c0                	test   %eax,%eax
    2800:	0f 84 ca 00 00 00    	je     28d0 <mfs_truncate+0x130>
    2806:	8b 50 fc             	mov    -0x4(%eax),%edx
    2809:	83 e8 10             	sub    $0x10,%eax
    280c:	89 55 dc             	mov    %edx,-0x24(%ebp)
    280f:	8b 50 08             	mov    0x8(%eax),%edx
    2812:	42                   	inc    %edx
    2813:	89 50 08             	mov    %edx,0x8(%eax)
    2816:	c7 04 24 74 75 02 00 	movl   $0x27574,(%esp)
    281d:	e8 fe c7 00 00       	call   f020 <fibril_mutex_unlock>
    2822:	8b 7d dc             	mov    -0x24(%ebp),%edi
    2825:	85 ff                	test   %edi,%edi
    2827:	0f 84 95 00 00 00    	je     28c2 <mfs_truncate+0x122>
    282d:	8b 77 10             	mov    0x10(%edi),%esi
    2830:	8b 06                	mov    (%esi),%eax
    2832:	8b 50 08             	mov    0x8(%eax),%edx
    2835:	8b 45 d4             	mov    -0x2c(%ebp),%eax
    2838:	31 d0                	xor    %edx,%eax
    283a:	0b 45 d0             	or     -0x30(%ebp),%eax
    283d:	74 19                	je     2858 <mfs_truncate+0xb8>
    283f:	8b 45 d4             	mov    -0x2c(%ebp),%eax
    2842:	89 34 24             	mov    %esi,(%esp)
    2845:	29 c2                	sub    %eax,%edx
    2847:	89 54 24 04          	mov    %edx,0x4(%esp)
    284b:	e8 c0 15 00 00       	call   3e10 <mfs_inode_shrink>
    2850:	8b 7d dc             	mov    -0x24(%ebp),%edi
    2853:	89 c3                	mov    %eax,%ebx
    2855:	8b 77 10             	mov    0x10(%edi),%esi
    2858:	c7 04 24 74 75 02 00 	movl   $0x27574,(%esp)
    285f:	e8 9c c6 00 00       	call   ef00 <fibril_mutex_lock>
    2864:	8b 46 08             	mov    0x8(%esi),%eax
    2867:	85 c0                	test   %eax,%eax
    2869:	74 7d                	je     28e8 <mfs_truncate+0x148>
    286b:	48                   	dec    %eax
    286c:	89 46 08             	mov    %eax,0x8(%esi)
    286f:	85 c0                	test   %eax,%eax
    2871:	75 43                	jne    28b6 <mfs_truncate+0x116>
    2873:	8d 46 10             	lea    0x10(%esi),%eax
    2876:	c7 04 24 d0 77 02 00 	movl   $0x277d0,(%esp)
    287d:	89 44 24 04          	mov    %eax,0x4(%esp)
    2881:	e8 ba b7 01 00       	call   1e040 <hash_table_remove_item>
    2886:	8b 46 04             	mov    0x4(%esi),%eax
    2889:	8b 50 08             	mov    0x8(%eax),%edx
    288c:	85 d2                	test   %edx,%edx
    288e:	74 74                	je     2904 <mfs_truncate+0x164>
    2890:	4a                   	dec    %edx
    2891:	89 50 08             	mov    %edx,0x8(%eax)
    2894:	89 34 24             	mov    %esi,(%esp)
    2897:	e8 f4 11 00 00       	call   3a90 <mfs_put_inode>
    289c:	8b 06                	mov    (%esi),%eax
    289e:	89 04 24             	mov    %eax,(%esp)
    28a1:	e8 7a 53 01 00       	call   17c20 <free>
    28a6:	89 34 24             	mov    %esi,(%esp)
    28a9:	e8 72 53 01 00       	call   17c20 <free>
    28ae:	89 3c 24             	mov    %edi,(%esp)
    28b1:	e8 6a 53 01 00       	call   17c20 <free>
    28b6:	c7 04 24 74 75 02 00 	movl   $0x27574,(%esp)
    28bd:	e8 5e c7 00 00       	call   f020 <fibril_mutex_unlock>
    28c2:	83 c4 3c             	add    $0x3c,%esp
    28c5:	89 d8                	mov    %ebx,%eax
    28c7:	5b                   	pop    %ebx
    28c8:	5e                   	pop    %esi
    28c9:	5f                   	pop    %edi
    28ca:	5d                   	pop    %ebp
    28cb:	c3                   	ret    
    28cc:	8d 74 26 00          	lea    0x0(%esi,%eiz,1),%esi
    28d0:	8b 4d 0c             	mov    0xc(%ebp),%ecx
    28d3:	89 fa                	mov    %edi,%edx
    28d5:	89 f0                	mov    %esi,%eax
    28d7:	e8 84 ee ff ff       	call   1760 <mfs_node_core_get.part.3>
    28dc:	85 c0                	test   %eax,%eax
    28de:	0f 84 3e ff ff ff    	je     2822 <mfs_truncate+0x82>
    28e4:	89 c3                	mov    %eax,%ebx
    28e6:	eb da                	jmp    28c2 <mfs_truncate+0x122>
    28e8:	c7 44 24 08 f3 01 00 	movl   $0x1f3,0x8(%esp)
    28ef:	00 
    28f0:	c7 44 24 04 80 49 02 	movl   $0x24980,0x4(%esp)
    28f7:	00 
    28f8:	c7 04 24 8a 49 02 00 	movl   $0x2498a,(%esp)
    28ff:	e8 ec f9 01 00       	call   222f0 <assert_abort>
    2904:	c7 44 24 08 f7 01 00 	movl   $0x1f7,0x8(%esp)
    290b:	00 
    290c:	c7 44 24 04 80 49 02 	movl   $0x24980,0x4(%esp)
    2913:	00 
    2914:	c7 04 24 c8 49 02 00 	movl   $0x249c8,(%esp)
    291b:	e8 d0 f9 01 00       	call   222f0 <assert_abort>

00002920 <mfs_read>:
    2920:	55                   	push   %ebp
    2921:	89 e5                	mov    %esp,%ebp
    2923:	57                   	push   %edi
    2924:	56                   	push   %esi
    2925:	53                   	push   %ebx
    2926:	81 ec cc 00 00 00    	sub    $0xcc,%esp
    292c:	8d 75 90             	lea    -0x70(%ebp),%esi
    292f:	8b 5d 08             	mov    0x8(%ebp),%ebx
    2932:	8b 45 10             	mov    0x10(%ebp),%eax
    2935:	8b 55 14             	mov    0x14(%ebp),%edx
    2938:	89 74 24 04          	mov    %esi,0x4(%esp)
    293c:	89 1c 24             	mov    %ebx,(%esp)
    293f:	89 85 60 ff ff ff    	mov    %eax,-0xa0(%ebp)
    2945:	89 95 64 ff ff ff    	mov    %edx,-0x9c(%ebp)
    294b:	e8 a0 53 00 00       	call   7cf0 <fs_instance_get>
    2950:	89 85 68 ff ff ff    	mov    %eax,-0x98(%ebp)
    2956:	85 c0                	test   %eax,%eax
    2958:	0f 85 5c 01 00 00    	jne    2aba <mfs_read+0x19a>
    295e:	8b 5d 90             	mov    -0x70(%ebp),%ebx
    2961:	c7 04 24 74 75 02 00 	movl   $0x27574,(%esp)
    2968:	e8 93 c5 00 00       	call   ef00 <fibril_mutex_lock>
    296d:	8b 03                	mov    (%ebx),%eax
    296f:	c7 04 24 d0 77 02 00 	movl   $0x277d0,(%esp)
    2976:	89 45 94             	mov    %eax,-0x6c(%ebp)
    2979:	8b 45 0c             	mov    0xc(%ebp),%eax
    297c:	89 45 98             	mov    %eax,-0x68(%ebp)
    297f:	8d 45 94             	lea    -0x6c(%ebp),%eax
    2982:	89 44 24 04          	mov    %eax,0x4(%esp)
    2986:	e8 35 b4 01 00       	call   1ddc0 <hash_table_find>
    298b:	85 c0                	test   %eax,%eax
    298d:	0f 84 dd 02 00 00    	je     2c70 <mfs_read+0x350>
    2993:	8b 50 fc             	mov    -0x4(%eax),%edx
    2996:	83 e8 10             	sub    $0x10,%eax
    2999:	89 55 80             	mov    %edx,-0x80(%ebp)
    299c:	8b 50 08             	mov    0x8(%eax),%edx
    299f:	42                   	inc    %edx
    29a0:	89 50 08             	mov    %edx,0x8(%eax)
    29a3:	c7 04 24 74 75 02 00 	movl   $0x27574,(%esp)
    29aa:	e8 71 c6 00 00       	call   f020 <fibril_mutex_unlock>
    29af:	8b 45 80             	mov    -0x80(%ebp),%eax
    29b2:	85 c0                	test   %eax,%eax
    29b4:	0f 84 e9 06 00 00    	je     30a3 <mfs_read+0x783>
    29ba:	8b 58 10             	mov    0x10(%eax),%ebx
    29bd:	8d 45 84             	lea    -0x7c(%ebp),%eax
    29c0:	8b 3b                	mov    (%ebx),%edi
    29c2:	89 44 24 04          	mov    %eax,0x4(%esp)
    29c6:	8d 45 88             	lea    -0x78(%ebp),%eax
    29c9:	89 04 24             	mov    %eax,(%esp)
    29cc:	e8 ef 91 01 00       	call   1bbc0 <async_data_read_receive>
    29d1:	84 c0                	test   %al,%al
    29d3:	0f 84 b7 02 00 00    	je     2c90 <mfs_read+0x370>
    29d9:	8b 07                	mov    (%edi),%eax
    29db:	25 00 f0 ff ff       	and    $0xfffff000,%eax
    29e0:	66 3d 00 40          	cmp    $0x4000,%ax
    29e4:	8b 43 04             	mov    0x4(%ebx),%eax
    29e7:	8b 40 04             	mov    0x4(%eax),%eax
    29ea:	89 85 6c ff ff ff    	mov    %eax,-0x94(%ebp)
    29f0:	0f 84 82 03 00 00    	je     2d78 <mfs_read+0x458>
    29f6:	31 c9                	xor    %ecx,%ecx
    29f8:	8b 57 08             	mov    0x8(%edi),%edx
    29fb:	89 95 58 ff ff ff    	mov    %edx,-0xa8(%ebp)
    2a01:	89 8d 5c ff ff ff    	mov    %ecx,-0xa4(%ebp)
    2a07:	83 bd 64 ff ff ff 00 	cmpl   $0x0,-0x9c(%ebp)
    2a0e:	0f 86 b4 00 00 00    	jbe    2ac8 <mfs_read+0x1a8>
    2a14:	8b 45 88             	mov    -0x78(%ebp),%eax
    2a17:	c7 44 24 08 00 00 00 	movl   $0x0,0x8(%esp)
    2a1e:	00 
    2a1f:	c7 44 24 04 00 00 00 	movl   $0x0,0x4(%esp)
    2a26:	00 
    2a27:	89 04 24             	mov    %eax,(%esp)
    2a2a:	e8 f1 91 01 00       	call   1bc20 <async_data_read_finalize>
    2a2f:	31 db                	xor    %ebx,%ebx
    2a31:	8b 75 80             	mov    -0x80(%ebp),%esi
    2a34:	8b 7e 10             	mov    0x10(%esi),%edi
    2a37:	c7 04 24 74 75 02 00 	movl   $0x27574,(%esp)
    2a3e:	e8 bd c4 00 00       	call   ef00 <fibril_mutex_lock>
    2a43:	8b 47 08             	mov    0x8(%edi),%eax
    2a46:	85 c0                	test   %eax,%eax
    2a48:	0f 84 6a 06 00 00    	je     30b8 <mfs_read+0x798>
    2a4e:	48                   	dec    %eax
    2a4f:	89 47 08             	mov    %eax,0x8(%edi)
    2a52:	85 c0                	test   %eax,%eax
    2a54:	75 4d                	jne    2aa3 <mfs_read+0x183>
    2a56:	8d 47 10             	lea    0x10(%edi),%eax
    2a59:	c7 04 24 d0 77 02 00 	movl   $0x277d0,(%esp)
    2a60:	89 44 24 04          	mov    %eax,0x4(%esp)
    2a64:	e8 d7 b5 01 00       	call   1e040 <hash_table_remove_item>
    2a69:	8b 47 04             	mov    0x4(%edi),%eax
    2a6c:	8b 50 08             	mov    0x8(%eax),%edx
    2a6f:	85 d2                	test   %edx,%edx
    2a71:	0f 84 5d 06 00 00    	je     30d4 <mfs_read+0x7b4>
    2a77:	4a                   	dec    %edx
    2a78:	89 50 08             	mov    %edx,0x8(%eax)
    2a7b:	89 3c 24             	mov    %edi,(%esp)
    2a7e:	e8 0d 10 00 00       	call   3a90 <mfs_put_inode>
    2a83:	89 85 68 ff ff ff    	mov    %eax,-0x98(%ebp)
    2a89:	8b 07                	mov    (%edi),%eax
    2a8b:	89 04 24             	mov    %eax,(%esp)
    2a8e:	e8 8d 51 01 00       	call   17c20 <free>
    2a93:	89 3c 24             	mov    %edi,(%esp)
    2a96:	e8 85 51 01 00       	call   17c20 <free>
    2a9b:	89 34 24             	mov    %esi,(%esp)
    2a9e:	e8 7d 51 01 00       	call   17c20 <free>
    2aa3:	c7 04 24 74 75 02 00 	movl   $0x27574,(%esp)
    2aaa:	e8 71 c5 00 00       	call   f020 <fibril_mutex_unlock>
    2aaf:	8b 45 18             	mov    0x18(%ebp),%eax
    2ab2:	89 18                	mov    %ebx,(%eax)
    2ab4:	8b 85 68 ff ff ff    	mov    -0x98(%ebp),%eax
    2aba:	81 c4 cc 00 00 00    	add    $0xcc,%esp
    2ac0:	5b                   	pop    %ebx
    2ac1:	5e                   	pop    %esi
    2ac2:	5f                   	pop    %edi
    2ac3:	5d                   	pop    %ebp
    2ac4:	c3                   	ret    
    2ac5:	8d 76 00             	lea    0x0(%esi),%esi
    2ac8:	39 95 60 ff ff ff    	cmp    %edx,-0xa0(%ebp)
    2ace:	0f 83 40 ff ff ff    	jae    2a14 <mfs_read+0xf4>
    2ad4:	8b 8d 6c ff ff ff    	mov    -0x94(%ebp),%ecx
    2ada:	8d 45 8c             	lea    -0x74(%ebp),%eax
    2add:	8b 55 84             	mov    -0x7c(%ebp),%edx
    2ae0:	8b 79 18             	mov    0x18(%ecx),%edi
    2ae3:	8b 8d 60 ff ff ff    	mov    -0xa0(%ebp),%ecx
    2ae9:	89 4c 24 08          	mov    %ecx,0x8(%esp)
    2aed:	89 5c 24 04          	mov    %ebx,0x4(%esp)
    2af1:	89 04 24             	mov    %eax,(%esp)
    2af4:	89 95 4c ff ff ff    	mov    %edx,-0xb4(%ebp)
    2afa:	e8 f1 19 00 00       	call   44f0 <mfs_read_map>
    2aff:	85 c0                	test   %eax,%eax
    2b01:	0f 85 f1 03 00 00    	jne    2ef8 <mfs_read+0x5d8>
    2b07:	89 fb                	mov    %edi,%ebx
    2b09:	8b 85 58 ff ff ff    	mov    -0xa8(%ebp),%eax
    2b0f:	c1 fb 1f             	sar    $0x1f,%ebx
    2b12:	2b 85 60 ff ff ff    	sub    -0xa0(%ebp),%eax
    2b18:	8b 95 5c ff ff ff    	mov    -0xa4(%ebp),%edx
    2b1e:	89 bd 50 ff ff ff    	mov    %edi,-0xb0(%ebp)
    2b24:	1b 95 64 ff ff ff    	sbb    -0x9c(%ebp),%edx
    2b2a:	89 9d 54 ff ff ff    	mov    %ebx,-0xac(%ebp)
    2b30:	89 c7                	mov    %eax,%edi
    2b32:	89 d3                	mov    %edx,%ebx
    2b34:	83 fa 00             	cmp    $0x0,%edx
    2b37:	0f 86 cb 03 00 00    	jbe    2f08 <mfs_read+0x5e8>
    2b3d:	8b bd 4c ff ff ff    	mov    -0xb4(%ebp),%edi
    2b43:	31 db                	xor    %ebx,%ebx
    2b45:	8b 95 54 ff ff ff    	mov    -0xac(%ebp),%edx
    2b4b:	8b 85 50 ff ff ff    	mov    -0xb0(%ebp),%eax
    2b51:	89 54 24 0c          	mov    %edx,0xc(%esp)
    2b55:	8b 8d 64 ff ff ff    	mov    -0x9c(%ebp),%ecx
    2b5b:	8b 95 60 ff ff ff    	mov    -0xa0(%ebp),%edx
    2b61:	89 44 24 08          	mov    %eax,0x8(%esp)
    2b65:	89 14 24             	mov    %edx,(%esp)
    2b68:	89 4c 24 04          	mov    %ecx,0x4(%esp)
    2b6c:	e8 ef 18 02 00       	call   24460 <__umoddi3>
    2b71:	89 85 70 ff ff ff    	mov    %eax,-0x90(%ebp)
    2b77:	8b 85 50 ff ff ff    	mov    -0xb0(%ebp),%eax
    2b7d:	2b 85 70 ff ff ff    	sub    -0x90(%ebp),%eax
    2b83:	89 95 74 ff ff ff    	mov    %edx,-0x8c(%ebp)
    2b89:	8b 95 54 ff ff ff    	mov    -0xac(%ebp),%edx
    2b8f:	89 85 70 ff ff ff    	mov    %eax,-0x90(%ebp)
    2b95:	1b 95 74 ff ff ff    	sbb    -0x8c(%ebp),%edx
    2b9b:	89 95 74 ff ff ff    	mov    %edx,-0x8c(%ebp)
    2ba1:	39 d3                	cmp    %edx,%ebx
    2ba3:	72 0c                	jb     2bb1 <mfs_read+0x291>
    2ba5:	77 04                	ja     2bab <mfs_read+0x28b>
    2ba7:	39 c7                	cmp    %eax,%edi
    2ba9:	76 06                	jbe    2bb1 <mfs_read+0x291>
    2bab:	8b bd 70 ff ff ff    	mov    -0x90(%ebp),%edi
    2bb1:	8b 45 8c             	mov    -0x74(%ebp),%eax
    2bb4:	89 fb                	mov    %edi,%ebx
    2bb6:	85 c0                	test   %eax,%eax
    2bb8:	0f 85 aa 03 00 00    	jne    2f68 <mfs_read+0x648>
    2bbe:	8b 8d 6c ff ff ff    	mov    -0x94(%ebp),%ecx
    2bc4:	8b 41 18             	mov    0x18(%ecx),%eax
    2bc7:	89 04 24             	mov    %eax,(%esp)
    2bca:	e8 41 4f 01 00       	call   17b10 <malloc>
    2bcf:	89 c6                	mov    %eax,%esi
    2bd1:	85 c0                	test   %eax,%eax
    2bd3:	0f 84 14 03 00 00    	je     2eed <mfs_read+0x5cd>
    2bd9:	c7 44 24 08 04 00 00 	movl   $0x4,0x8(%esp)
    2be0:	00 
    2be1:	c7 44 24 04 00 00 00 	movl   $0x0,0x4(%esp)
    2be8:	00 
    2be9:	89 04 24             	mov    %eax,(%esp)
    2bec:	e8 5f 81 00 00       	call   ad50 <memset>
    2bf1:	8b 8d 6c ff ff ff    	mov    -0x94(%ebp),%ecx
    2bf7:	89 7c 24 08          	mov    %edi,0x8(%esp)
    2bfb:	8b 41 18             	mov    0x18(%ecx),%eax
    2bfe:	8b 4c 24 0c          	mov    0xc(%esp),%ecx
    2c02:	8b 54 24 08          	mov    0x8(%esp),%edx
    2c06:	89 8d 74 ff ff ff    	mov    %ecx,-0x8c(%ebp)
    2c0c:	89 c1                	mov    %eax,%ecx
    2c0e:	89 95 70 ff ff ff    	mov    %edx,-0x90(%ebp)
    2c14:	c1 f9 1f             	sar    $0x1f,%ecx
    2c17:	8b 95 64 ff ff ff    	mov    -0x9c(%ebp),%edx
    2c1d:	89 44 24 08          	mov    %eax,0x8(%esp)
    2c21:	8b 85 60 ff ff ff    	mov    -0xa0(%ebp),%eax
    2c27:	89 4c 24 0c          	mov    %ecx,0xc(%esp)
    2c2b:	89 04 24             	mov    %eax,(%esp)
    2c2e:	89 54 24 04          	mov    %edx,0x4(%esp)
    2c32:	e8 29 18 02 00       	call   24460 <__umoddi3>
    2c37:	8b 95 70 ff ff ff    	mov    -0x90(%ebp),%edx
    2c3d:	01 f0                	add    %esi,%eax
    2c3f:	8b 8d 74 ff ff ff    	mov    -0x8c(%ebp),%ecx
    2c45:	89 44 24 04          	mov    %eax,0x4(%esp)
    2c49:	8b 45 88             	mov    -0x78(%ebp),%eax
    2c4c:	89 54 24 08          	mov    %edx,0x8(%esp)
    2c50:	89 04 24             	mov    %eax,(%esp)
    2c53:	89 4c 24 0c          	mov    %ecx,0xc(%esp)
    2c57:	e8 c4 8f 01 00       	call   1bc20 <async_data_read_finalize>
    2c5c:	89 34 24             	mov    %esi,(%esp)
    2c5f:	e8 bc 4f 01 00       	call   17c20 <free>
    2c64:	e9 c8 fd ff ff       	jmp    2a31 <mfs_read+0x111>
    2c69:	8d b4 26 00 00 00 00 	lea    0x0(%esi,%eiz,1),%esi
    2c70:	8b 4d 0c             	mov    0xc(%ebp),%ecx
    2c73:	89 da                	mov    %ebx,%edx
    2c75:	8d 45 80             	lea    -0x80(%ebp),%eax
    2c78:	e8 e3 ea ff ff       	call   1760 <mfs_node_core_get.part.3>
    2c7d:	85 c0                	test   %eax,%eax
    2c7f:	0f 84 2a fd ff ff    	je     29af <mfs_read+0x8f>
    2c85:	89 85 68 ff ff ff    	mov    %eax,-0x98(%ebp)
    2c8b:	e9 2a fe ff ff       	jmp    2aba <mfs_read+0x19a>
    2c90:	c7 85 68 ff ff ff f2 	movl   $0xfffffff2,-0x98(%ebp)
    2c97:	ff ff ff 
    2c9a:	8b 5d 80             	mov    -0x80(%ebp),%ebx
    2c9d:	8b 7b 10             	mov    0x10(%ebx),%edi
    2ca0:	c7 04 24 74 75 02 00 	movl   $0x27574,(%esp)
    2ca7:	e8 54 c2 00 00       	call   ef00 <fibril_mutex_lock>
    2cac:	8b 47 08             	mov    0x8(%edi),%eax
    2caf:	85 c0                	test   %eax,%eax
    2cb1:	0f 84 01 04 00 00    	je     30b8 <mfs_read+0x798>
    2cb7:	48                   	dec    %eax
    2cb8:	89 47 08             	mov    %eax,0x8(%edi)
    2cbb:	85 c0                	test   %eax,%eax
    2cbd:	0f 85 7d 00 00 00    	jne    2d40 <mfs_read+0x420>
    2cc3:	8d 47 10             	lea    0x10(%edi),%eax
    2cc6:	c7 04 24 d0 77 02 00 	movl   $0x277d0,(%esp)
    2ccd:	89 44 24 04          	mov    %eax,0x4(%esp)
    2cd1:	e8 6a b3 01 00       	call   1e040 <hash_table_remove_item>
    2cd6:	8b 47 04             	mov    0x4(%edi),%eax
    2cd9:	8b 50 08             	mov    0x8(%eax),%edx
    2cdc:	85 d2                	test   %edx,%edx
    2cde:	0f 84 f0 03 00 00    	je     30d4 <mfs_read+0x7b4>
    2ce4:	4a                   	dec    %edx
    2ce5:	89 50 08             	mov    %edx,0x8(%eax)
    2ce8:	89 3c 24             	mov    %edi,(%esp)
    2ceb:	e8 a0 0d 00 00       	call   3a90 <mfs_put_inode>
    2cf0:	89 c6                	mov    %eax,%esi
    2cf2:	8b 07                	mov    (%edi),%eax
    2cf4:	89 04 24             	mov    %eax,(%esp)
    2cf7:	e8 24 4f 01 00       	call   17c20 <free>
    2cfc:	89 3c 24             	mov    %edi,(%esp)
    2cff:	e8 1c 4f 01 00       	call   17c20 <free>
    2d04:	89 1c 24             	mov    %ebx,(%esp)
    2d07:	e8 14 4f 01 00       	call   17c20 <free>
    2d0c:	c7 04 24 74 75 02 00 	movl   $0x27574,(%esp)
    2d13:	e8 08 c3 00 00       	call   f020 <fibril_mutex_unlock>
    2d18:	85 f6                	test   %esi,%esi
    2d1a:	74 30                	je     2d4c <mfs_read+0x42c>
    2d1c:	8b 45 88             	mov    -0x78(%ebp),%eax
    2d1f:	89 74 24 04          	mov    %esi,0x4(%esp)
    2d23:	89 04 24             	mov    %eax,(%esp)
    2d26:	e8 25 79 01 00       	call   1a650 <async_answer_0>
    2d2b:	89 b5 68 ff ff ff    	mov    %esi,-0x98(%ebp)
    2d31:	81 c4 cc 00 00 00    	add    $0xcc,%esp
    2d37:	89 f0                	mov    %esi,%eax
    2d39:	5b                   	pop    %ebx
    2d3a:	5e                   	pop    %esi
    2d3b:	5f                   	pop    %edi
    2d3c:	5d                   	pop    %ebp
    2d3d:	c3                   	ret    
    2d3e:	66 90                	xchg   %ax,%ax
    2d40:	c7 04 24 74 75 02 00 	movl   $0x27574,(%esp)
    2d47:	e8 d4 c2 00 00       	call   f020 <fibril_mutex_unlock>
    2d4c:	8b 85 68 ff ff ff    	mov    -0x98(%ebp),%eax
    2d52:	89 44 24 04          	mov    %eax,0x4(%esp)
    2d56:	8b 45 88             	mov    -0x78(%ebp),%eax
    2d59:	89 04 24             	mov    %eax,(%esp)
    2d5c:	e8 ef 78 01 00       	call   1a650 <async_answer_0>
    2d61:	8b 85 68 ff ff ff    	mov    -0x98(%ebp),%eax
    2d67:	81 c4 cc 00 00 00    	add    $0xcc,%esp
    2d6d:	5b                   	pop    %ebx
    2d6e:	5e                   	pop    %esi
    2d6f:	5f                   	pop    %edi
    2d70:	5d                   	pop    %ebp
    2d71:	c3                   	ret    
    2d72:	8d b6 00 00 00 00    	lea    0x0(%esi),%esi
    2d78:	83 bd 64 ff ff ff 00 	cmpl   $0x0,-0x9c(%ebp)
    2d7f:	0f 87 43 01 00 00    	ja     2ec8 <mfs_read+0x5a8>
    2d85:	31 ff                	xor    %edi,%edi
    2d87:	be 02 00 00 00       	mov    $0x2,%esi
    2d8c:	83 bd 60 ff ff ff 01 	cmpl   $0x1,-0xa0(%ebp)
    2d93:	0f 87 2f 01 00 00    	ja     2ec8 <mfs_read+0x5a8>
    2d99:	8d b4 26 00 00 00 00 	lea    0x0(%esi,%eiz,1),%esi
    2da0:	8b 03                	mov    (%ebx),%eax
    2da2:	8b 8d 6c ff ff ff    	mov    -0x94(%ebp),%ecx
    2da8:	31 d2                	xor    %edx,%edx
    2daa:	8b 40 08             	mov    0x8(%eax),%eax
    2dad:	f7 71 30             	divl   0x30(%ecx)
    2db0:	83 ff 00             	cmp    $0x0,%edi
    2db3:	77 7b                	ja     2e30 <mfs_read+0x510>
    2db5:	39 c6                	cmp    %eax,%esi
    2db7:	73 77                	jae    2e30 <mfs_read+0x510>
    2db9:	89 b5 70 ff ff ff    	mov    %esi,-0x90(%ebp)
    2dbf:	89 9d 4c ff ff ff    	mov    %ebx,-0xb4(%ebp)
    2dc5:	8b 8d 4c ff ff ff    	mov    -0xb4(%ebp),%ecx
    2dcb:	8b 9d 70 ff ff ff    	mov    -0x90(%ebp),%ebx
    2dd1:	8d 45 9c             	lea    -0x64(%ebp),%eax
    2dd4:	89 0c 24             	mov    %ecx,(%esp)
    2dd7:	89 5c 24 08          	mov    %ebx,0x8(%esp)
    2ddb:	89 44 24 04          	mov    %eax,0x4(%esp)
    2ddf:	e8 7c 19 00 00       	call   4760 <mfs_read_dentry>
    2de4:	89 c1                	mov    %eax,%ecx
    2de6:	85 c0                	test   %eax,%eax
    2de8:	0f 85 32 01 00 00    	jne    2f20 <mfs_read+0x600>
    2dee:	8b 45 9c             	mov    -0x64(%ebp),%eax
    2df1:	85 c0                	test   %eax,%eax
    2df3:	0f 85 37 01 00 00    	jne    2f30 <mfs_read+0x610>
    2df9:	83 c6 01             	add    $0x1,%esi
    2dfc:	83 d7 00             	adc    $0x0,%edi
    2dff:	43                   	inc    %ebx
    2e00:	89 9d 70 ff ff ff    	mov    %ebx,-0x90(%ebp)
    2e06:	8b 9d 4c ff ff ff    	mov    -0xb4(%ebp),%ebx
    2e0c:	31 d2                	xor    %edx,%edx
    2e0e:	8b 03                	mov    (%ebx),%eax
    2e10:	8b 9d 6c ff ff ff    	mov    -0x94(%ebp),%ebx
    2e16:	8b 40 08             	mov    0x8(%eax),%eax
    2e19:	89 85 58 ff ff ff    	mov    %eax,-0xa8(%ebp)
    2e1f:	f7 73 30             	divl   0x30(%ebx)
    2e22:	89 85 50 ff ff ff    	mov    %eax,-0xb0(%ebp)
    2e28:	39 f9                	cmp    %edi,%ecx
    2e2a:	0f 83 b0 00 00 00    	jae    2ee0 <mfs_read+0x5c0>
    2e30:	8b 75 80             	mov    -0x80(%ebp),%esi
    2e33:	8b 5e 10             	mov    0x10(%esi),%ebx
    2e36:	c7 04 24 74 75 02 00 	movl   $0x27574,(%esp)
    2e3d:	e8 be c0 00 00       	call   ef00 <fibril_mutex_lock>
    2e42:	8b 43 08             	mov    0x8(%ebx),%eax
    2e45:	85 c0                	test   %eax,%eax
    2e47:	0f 84 6b 02 00 00    	je     30b8 <mfs_read+0x798>
    2e4d:	48                   	dec    %eax
    2e4e:	89 43 08             	mov    %eax,0x8(%ebx)
    2e51:	85 c0                	test   %eax,%eax
    2e53:	0f 85 39 02 00 00    	jne    3092 <mfs_read+0x772>
    2e59:	8d 43 10             	lea    0x10(%ebx),%eax
    2e5c:	c7 04 24 d0 77 02 00 	movl   $0x277d0,(%esp)
    2e63:	89 44 24 04          	mov    %eax,0x4(%esp)
    2e67:	e8 d4 b1 01 00       	call   1e040 <hash_table_remove_item>
    2e6c:	8b 43 04             	mov    0x4(%ebx),%eax
    2e6f:	8b 50 08             	mov    0x8(%eax),%edx
    2e72:	85 d2                	test   %edx,%edx
    2e74:	0f 84 5a 02 00 00    	je     30d4 <mfs_read+0x7b4>
    2e7a:	4a                   	dec    %edx
    2e7b:	89 50 08             	mov    %edx,0x8(%eax)
    2e7e:	89 1c 24             	mov    %ebx,(%esp)
    2e81:	e8 0a 0c 00 00       	call   3a90 <mfs_put_inode>
    2e86:	89 85 68 ff ff ff    	mov    %eax,-0x98(%ebp)
    2e8c:	8b 03                	mov    (%ebx),%eax
    2e8e:	89 04 24             	mov    %eax,(%esp)
    2e91:	e8 8a 4d 01 00       	call   17c20 <free>
    2e96:	89 1c 24             	mov    %ebx,(%esp)
    2e99:	e8 82 4d 01 00       	call   17c20 <free>
    2e9e:	89 34 24             	mov    %esi,(%esp)
    2ea1:	e8 7a 4d 01 00       	call   17c20 <free>
    2ea6:	c7 04 24 74 75 02 00 	movl   $0x27574,(%esp)
    2ead:	e8 6e c1 00 00       	call   f020 <fibril_mutex_unlock>
    2eb2:	8b 85 68 ff ff ff    	mov    -0x98(%ebp),%eax
    2eb8:	85 c0                	test   %eax,%eax
    2eba:	0f 85 8c fe ff ff    	jne    2d4c <mfs_read+0x42c>
    2ec0:	83 c8 ff             	or     $0xffffffff,%eax
    2ec3:	e9 8a fe ff ff       	jmp    2d52 <mfs_read+0x432>
    2ec8:	8b b5 60 ff ff ff    	mov    -0xa0(%ebp),%esi
    2ece:	8b bd 64 ff ff ff    	mov    -0x9c(%ebp),%edi
    2ed4:	e9 c7 fe ff ff       	jmp    2da0 <mfs_read+0x480>
    2ed9:	8d b4 26 00 00 00 00 	lea    0x0(%esi,%eiz,1),%esi
    2ee0:	39 f0                	cmp    %esi,%eax
    2ee2:	0f 87 dd fe ff ff    	ja     2dc5 <mfs_read+0x4a5>
    2ee8:	e9 43 ff ff ff       	jmp    2e30 <mfs_read+0x510>
    2eed:	b8 fe ff ff ff       	mov    $0xfffffffe,%eax
    2ef2:	8d b6 00 00 00 00    	lea    0x0(%esi),%esi
    2ef8:	89 85 68 ff ff ff    	mov    %eax,-0x98(%ebp)
    2efe:	e9 97 fd ff ff       	jmp    2c9a <mfs_read+0x37a>
    2f03:	90                   	nop
    2f04:	8d 74 26 00          	lea    0x0(%esi,%eiz,1),%esi
    2f08:	3b 85 4c ff ff ff    	cmp    -0xb4(%ebp),%eax
    2f0e:	0f 86 31 fc ff ff    	jbe    2b45 <mfs_read+0x225>
    2f14:	e9 24 fc ff ff       	jmp    2b3d <mfs_read+0x21d>
    2f19:	8d b4 26 00 00 00 00 	lea    0x0(%esi,%eiz,1),%esi
    2f20:	89 85 68 ff ff ff    	mov    %eax,-0x98(%ebp)
    2f26:	e9 6f fd ff ff       	jmp    2c9a <mfs_read+0x37a>
    2f2b:	90                   	nop
    2f2c:	8d 74 26 00          	lea    0x0(%esi,%eiz,1),%esi
    2f30:	8d 5d a0             	lea    -0x60(%ebp),%ebx
    2f33:	89 1c 24             	mov    %ebx,(%esp)
    2f36:	e8 a5 8d 00 00       	call   bce0 <str_size>
    2f3b:	89 5c 24 04          	mov    %ebx,0x4(%esp)
    2f3f:	40                   	inc    %eax
    2f40:	89 44 24 08          	mov    %eax,0x8(%esp)
    2f44:	8b 45 88             	mov    -0x78(%ebp),%eax
    2f47:	89 04 24             	mov    %eax,(%esp)
    2f4a:	e8 d1 8c 01 00       	call   1bc20 <async_data_read_finalize>
    2f4f:	8b b5 70 ff ff ff    	mov    -0x90(%ebp),%esi
    2f55:	8b bd 60 ff ff ff    	mov    -0xa0(%ebp),%edi
    2f5b:	29 fe                	sub    %edi,%esi
    2f5d:	8d 5e 01             	lea    0x1(%esi),%ebx
    2f60:	e9 cc fa ff ff       	jmp    2a31 <mfs_read+0x111>
    2f65:	8d 76 00             	lea    0x0(%esi),%esi
    2f68:	8b 4d 08             	mov    0x8(%ebp),%ecx
    2f6b:	c7 44 24 10 00 00 00 	movl   $0x0,0x10(%esp)
    2f72:	00 
    2f73:	89 44 24 08          	mov    %eax,0x8(%esp)
    2f77:	c7 44 24 0c 00 00 00 	movl   $0x0,0xc(%esp)
    2f7e:	00 
    2f7f:	89 4c 24 04          	mov    %ecx,0x4(%esp)
    2f83:	89 34 24             	mov    %esi,(%esp)
    2f86:	e8 35 2b 00 00       	call   5ac0 <block_get>
    2f8b:	85 c0                	test   %eax,%eax
    2f8d:	0f 85 65 ff ff ff    	jne    2ef8 <mfs_read+0x5d8>
    2f93:	8b 95 6c ff ff ff    	mov    -0x94(%ebp),%edx
    2f99:	89 7c 24 08          	mov    %edi,0x8(%esp)
    2f9d:	8b 74 24 08          	mov    0x8(%esp),%esi
    2fa1:	8b 7c 24 0c          	mov    0xc(%esp),%edi
    2fa5:	8b 42 18             	mov    0x18(%edx),%eax
    2fa8:	8b 4d 90             	mov    -0x70(%ebp),%ecx
    2fab:	89 c2                	mov    %eax,%edx
    2fad:	89 44 24 08          	mov    %eax,0x8(%esp)
    2fb1:	c1 fa 1f             	sar    $0x1f,%edx
    2fb4:	8b 85 60 ff ff ff    	mov    -0xa0(%ebp),%eax
    2fba:	89 54 24 0c          	mov    %edx,0xc(%esp)
    2fbe:	8b 95 64 ff ff ff    	mov    -0x9c(%ebp),%edx
    2fc4:	89 04 24             	mov    %eax,(%esp)
    2fc7:	89 54 24 04          	mov    %edx,0x4(%esp)
    2fcb:	89 8d 48 ff ff ff    	mov    %ecx,-0xb8(%ebp)
    2fd1:	e8 8a 14 02 00       	call   24460 <__umoddi3>
    2fd6:	8b 8d 48 ff ff ff    	mov    -0xb8(%ebp),%ecx
    2fdc:	89 74 24 08          	mov    %esi,0x8(%esp)
    2fe0:	89 7c 24 0c          	mov    %edi,0xc(%esp)
    2fe4:	8b 71 54             	mov    0x54(%ecx),%esi
    2fe7:	01 f0                	add    %esi,%eax
    2fe9:	89 44 24 04          	mov    %eax,0x4(%esp)
    2fed:	8b 45 88             	mov    -0x78(%ebp),%eax
    2ff0:	89 04 24             	mov    %eax,(%esp)
    2ff3:	e8 28 8c 01 00       	call   1bc20 <async_data_read_finalize>
    2ff8:	8b 45 90             	mov    -0x70(%ebp),%eax
    2ffb:	89 04 24             	mov    %eax,(%esp)
    2ffe:	e8 0d 28 00 00       	call   5810 <block_put>
    3003:	89 c6                	mov    %eax,%esi
    3005:	85 c0                	test   %eax,%eax
    3007:	0f 84 24 fa ff ff    	je     2a31 <mfs_read+0x111>
    300d:	8b 7d 80             	mov    -0x80(%ebp),%edi
    3010:	8b 5f 10             	mov    0x10(%edi),%ebx
    3013:	c7 04 24 74 75 02 00 	movl   $0x27574,(%esp)
    301a:	e8 e1 be 00 00       	call   ef00 <fibril_mutex_lock>
    301f:	8b 43 08             	mov    0x8(%ebx),%eax
    3022:	85 c0                	test   %eax,%eax
    3024:	0f 84 8e 00 00 00    	je     30b8 <mfs_read+0x798>
    302a:	48                   	dec    %eax
    302b:	89 43 08             	mov    %eax,0x8(%ebx)
    302e:	85 c0                	test   %eax,%eax
    3030:	75 47                	jne    3079 <mfs_read+0x759>
    3032:	8d 43 10             	lea    0x10(%ebx),%eax
    3035:	c7 04 24 d0 77 02 00 	movl   $0x277d0,(%esp)
    303c:	89 44 24 04          	mov    %eax,0x4(%esp)
    3040:	e8 fb af 01 00       	call   1e040 <hash_table_remove_item>
    3045:	8b 43 04             	mov    0x4(%ebx),%eax
    3048:	8b 50 08             	mov    0x8(%eax),%edx
    304b:	85 d2                	test   %edx,%edx
    304d:	0f 84 81 00 00 00    	je     30d4 <mfs_read+0x7b4>
    3053:	4a                   	dec    %edx
    3054:	89 50 08             	mov    %edx,0x8(%eax)
    3057:	89 1c 24             	mov    %ebx,(%esp)
    305a:	e8 31 0a 00 00       	call   3a90 <mfs_put_inode>
    305f:	8b 03                	mov    (%ebx),%eax
    3061:	89 04 24             	mov    %eax,(%esp)
    3064:	e8 b7 4b 01 00       	call   17c20 <free>
    3069:	89 1c 24             	mov    %ebx,(%esp)
    306c:	e8 af 4b 01 00       	call   17c20 <free>
    3071:	89 3c 24             	mov    %edi,(%esp)
    3074:	e8 a7 4b 01 00       	call   17c20 <free>
    3079:	c7 04 24 74 75 02 00 	movl   $0x27574,(%esp)
    3080:	e8 9b bf 00 00       	call   f020 <fibril_mutex_unlock>
    3085:	89 b5 68 ff ff ff    	mov    %esi,-0x98(%ebp)
    308b:	89 f0                	mov    %esi,%eax
    308d:	e9 28 fa ff ff       	jmp    2aba <mfs_read+0x19a>
    3092:	c7 04 24 74 75 02 00 	movl   $0x27574,(%esp)
    3099:	e8 82 bf 00 00       	call   f020 <fibril_mutex_unlock>
    309e:	e9 1d fe ff ff       	jmp    2ec0 <mfs_read+0x5a0>
    30a3:	c7 85 68 ff ff ff ff 	movl   $0xffffffff,-0x98(%ebp)
    30aa:	ff ff ff 
    30ad:	8b 85 68 ff ff ff    	mov    -0x98(%ebp),%eax
    30b3:	e9 02 fa ff ff       	jmp    2aba <mfs_read+0x19a>
    30b8:	c7 44 24 08 f3 01 00 	movl   $0x1f3,0x8(%esp)
    30bf:	00 
    30c0:	c7 44 24 04 80 49 02 	movl   $0x24980,0x4(%esp)
    30c7:	00 
    30c8:	c7 04 24 8a 49 02 00 	movl   $0x2498a,(%esp)
    30cf:	e8 1c f2 01 00       	call   222f0 <assert_abort>
    30d4:	c7 44 24 08 f7 01 00 	movl   $0x1f7,0x8(%esp)
    30db:	00 
    30dc:	c7 44 24 04 80 49 02 	movl   $0x24980,0x4(%esp)
    30e3:	00 
    30e4:	c7 04 24 c8 49 02 00 	movl   $0x249c8,(%esp)
    30eb:	e8 00 f2 01 00       	call   222f0 <assert_abort>

000030f0 <mfs_write>:
    30f0:	55                   	push   %ebp
    30f1:	89 e5                	mov    %esp,%ebp
    30f3:	57                   	push   %edi
    30f4:	56                   	push   %esi
    30f5:	53                   	push   %ebx
    30f6:	83 ec 7c             	sub    $0x7c,%esp
    30f9:	8d 75 dc             	lea    -0x24(%ebp),%esi
    30fc:	8b 55 14             	mov    0x14(%ebp),%edx
    30ff:	8b 45 10             	mov    0x10(%ebp),%eax
    3102:	89 55 bc             	mov    %edx,-0x44(%ebp)
    3105:	8b 55 08             	mov    0x8(%ebp),%edx
    3108:	89 74 24 04          	mov    %esi,0x4(%esp)
    310c:	89 14 24             	mov    %edx,(%esp)
    310f:	89 45 b8             	mov    %eax,-0x48(%ebp)
    3112:	e8 d9 4b 00 00       	call   7cf0 <fs_instance_get>
    3117:	89 c7                	mov    %eax,%edi
    3119:	85 c0                	test   %eax,%eax
    311b:	0f 85 ce 01 00 00    	jne    32ef <mfs_write+0x1ff>
    3121:	8b 5d dc             	mov    -0x24(%ebp),%ebx
    3124:	c7 04 24 74 75 02 00 	movl   $0x27574,(%esp)
    312b:	e8 d0 bd 00 00       	call   ef00 <fibril_mutex_lock>
    3130:	8b 03                	mov    (%ebx),%eax
    3132:	c7 04 24 d0 77 02 00 	movl   $0x277d0,(%esp)
    3139:	89 45 e0             	mov    %eax,-0x20(%ebp)
    313c:	8b 45 0c             	mov    0xc(%ebp),%eax
    313f:	89 45 e4             	mov    %eax,-0x1c(%ebp)
    3142:	8d 45 e0             	lea    -0x20(%ebp),%eax
    3145:	89 44 24 04          	mov    %eax,0x4(%esp)
    3149:	e8 72 ac 01 00       	call   1ddc0 <hash_table_find>
    314e:	85 c0                	test   %eax,%eax
    3150:	0f 84 aa 01 00 00    	je     3300 <mfs_write+0x210>
    3156:	8b 50 fc             	mov    -0x4(%eax),%edx
    3159:	83 e8 10             	sub    $0x10,%eax
    315c:	89 55 c8             	mov    %edx,-0x38(%ebp)
    315f:	8b 50 08             	mov    0x8(%eax),%edx
    3162:	42                   	inc    %edx
    3163:	89 50 08             	mov    %edx,0x8(%eax)
    3166:	c7 04 24 74 75 02 00 	movl   $0x27574,(%esp)
    316d:	e8 ae be 00 00       	call   f020 <fibril_mutex_unlock>
    3172:	8b 7d c8             	mov    -0x38(%ebp),%edi
    3175:	85 ff                	test   %edi,%edi
    3177:	0f 84 fb 03 00 00    	je     3578 <mfs_write+0x488>
    317d:	8d 45 d0             	lea    -0x30(%ebp),%eax
    3180:	89 44 24 04          	mov    %eax,0x4(%esp)
    3184:	8d 45 cc             	lea    -0x34(%ebp),%eax
    3187:	89 04 24             	mov    %eax,(%esp)
    318a:	e8 51 8f 01 00       	call   1c0e0 <async_data_write_receive>
    318f:	84 c0                	test   %al,%al
    3191:	0f 84 99 01 00 00    	je     3330 <mfs_write+0x240>
    3197:	8b 45 c8             	mov    -0x38(%ebp),%eax
    319a:	8b 58 10             	mov    0x10(%eax),%ebx
    319d:	8b 43 04             	mov    0x4(%ebx),%eax
    31a0:	8b 13                	mov    (%ebx),%edx
    31a2:	89 55 a8             	mov    %edx,-0x58(%ebp)
    31a5:	8b 55 d0             	mov    -0x30(%ebp),%edx
    31a8:	8b 40 04             	mov    0x4(%eax),%eax
    31ab:	89 55 b4             	mov    %edx,-0x4c(%ebp)
    31ae:	89 45 b0             	mov    %eax,-0x50(%ebp)
    31b1:	8b 40 18             	mov    0x18(%eax),%eax
    31b4:	89 5c 24 04          	mov    %ebx,0x4(%esp)
    31b8:	89 45 ac             	mov    %eax,-0x54(%ebp)
    31bb:	8b 45 b8             	mov    -0x48(%ebp),%eax
    31be:	89 45 9c             	mov    %eax,-0x64(%ebp)
    31c1:	89 44 24 08          	mov    %eax,0x8(%esp)
    31c5:	8d 45 d4             	lea    -0x2c(%ebp),%eax
    31c8:	89 04 24             	mov    %eax,(%esp)
    31cb:	e8 20 13 00 00       	call   44f0 <mfs_read_map>
    31d0:	89 c7                	mov    %eax,%edi
    31d2:	85 c0                	test   %eax,%eax
    31d4:	0f 85 8e 00 00 00    	jne    3268 <mfs_write+0x178>
    31da:	8b 55 ac             	mov    -0x54(%ebp),%edx
    31dd:	c7 45 c4 00 00 00 00 	movl   $0x0,-0x3c(%ebp)
    31e4:	89 55 c0             	mov    %edx,-0x40(%ebp)
    31e7:	8b 55 c4             	mov    -0x3c(%ebp),%edx
    31ea:	8b 45 c0             	mov    -0x40(%ebp),%eax
    31ed:	89 54 24 0c          	mov    %edx,0xc(%esp)
    31f1:	89 44 24 08          	mov    %eax,0x8(%esp)
    31f5:	8b 55 bc             	mov    -0x44(%ebp),%edx
    31f8:	8b 45 b8             	mov    -0x48(%ebp),%eax
    31fb:	89 54 24 04          	mov    %edx,0x4(%esp)
    31ff:	89 04 24             	mov    %eax,(%esp)
    3202:	e8 59 12 02 00       	call   24460 <__umoddi3>
    3207:	89 45 a0             	mov    %eax,-0x60(%ebp)
    320a:	8b 45 c0             	mov    -0x40(%ebp),%eax
    320d:	2b 45 a0             	sub    -0x60(%ebp),%eax
    3210:	89 55 a4             	mov    %edx,-0x5c(%ebp)
    3213:	8b 55 c4             	mov    -0x3c(%ebp),%edx
    3216:	89 45 c0             	mov    %eax,-0x40(%ebp)
    3219:	1b 55 a4             	sbb    -0x5c(%ebp),%edx
    321c:	89 55 c4             	mov    %edx,-0x3c(%ebp)
    321f:	83 fa 00             	cmp    $0x0,%edx
    3222:	0f 86 f8 00 00 00    	jbe    3320 <mfs_write+0x230>
    3228:	8b 45 b4             	mov    -0x4c(%ebp),%eax
    322b:	c7 45 c4 00 00 00 00 	movl   $0x0,-0x3c(%ebp)
    3232:	89 45 c0             	mov    %eax,-0x40(%ebp)
    3235:	8b 55 c0             	mov    -0x40(%ebp),%edx
    3238:	8b 45 d4             	mov    -0x2c(%ebp),%eax
    323b:	89 55 b4             	mov    %edx,-0x4c(%ebp)
    323e:	85 c0                	test   %eax,%eax
    3240:	0f 85 fa 00 00 00    	jne    3340 <mfs_write+0x250>
    3246:	8d 45 d4             	lea    -0x2c(%ebp),%eax
    3249:	89 44 24 04          	mov    %eax,0x4(%esp)
    324d:	8b 43 04             	mov    0x4(%ebx),%eax
    3250:	89 04 24             	mov    %eax,(%esp)
    3253:	e8 88 1d 00 00       	call   4fe0 <mfs_alloc_zone>
    3258:	89 c7                	mov    %eax,%edi
    325a:	85 c0                	test   %eax,%eax
    325c:	0f 84 1e 02 00 00    	je     3480 <mfs_write+0x390>
    3262:	8d b6 00 00 00 00    	lea    0x0(%esi),%esi
    3268:	8b 75 c8             	mov    -0x38(%ebp),%esi
    326b:	8b 5e 10             	mov    0x10(%esi),%ebx
    326e:	c7 04 24 74 75 02 00 	movl   $0x27574,(%esp)
    3275:	e8 86 bc 00 00       	call   ef00 <fibril_mutex_lock>
    327a:	8b 43 08             	mov    0x8(%ebx),%eax
    327d:	85 c0                	test   %eax,%eax
    327f:	0f 84 fb 02 00 00    	je     3580 <mfs_write+0x490>
    3285:	48                   	dec    %eax
    3286:	89 43 08             	mov    %eax,0x8(%ebx)
    3289:	85 c0                	test   %eax,%eax
    328b:	75 47                	jne    32d4 <mfs_write+0x1e4>
    328d:	8d 43 10             	lea    0x10(%ebx),%eax
    3290:	c7 04 24 d0 77 02 00 	movl   $0x277d0,(%esp)
    3297:	89 44 24 04          	mov    %eax,0x4(%esp)
    329b:	e8 a0 ad 01 00       	call   1e040 <hash_table_remove_item>
    32a0:	8b 43 04             	mov    0x4(%ebx),%eax
    32a3:	8b 50 08             	mov    0x8(%eax),%edx
    32a6:	85 d2                	test   %edx,%edx
    32a8:	0f 84 ee 02 00 00    	je     359c <mfs_write+0x4ac>
    32ae:	4a                   	dec    %edx
    32af:	89 50 08             	mov    %edx,0x8(%eax)
    32b2:	89 1c 24             	mov    %ebx,(%esp)
    32b5:	e8 d6 07 00 00       	call   3a90 <mfs_put_inode>
    32ba:	8b 03                	mov    (%ebx),%eax
    32bc:	89 04 24             	mov    %eax,(%esp)
    32bf:	e8 5c 49 01 00       	call   17c20 <free>
    32c4:	89 1c 24             	mov    %ebx,(%esp)
    32c7:	e8 54 49 01 00       	call   17c20 <free>
    32cc:	89 34 24             	mov    %esi,(%esp)
    32cf:	e8 4c 49 01 00       	call   17c20 <free>
    32d4:	c7 04 24 74 75 02 00 	movl   $0x27574,(%esp)
    32db:	e8 40 bd 00 00       	call   f020 <fibril_mutex_unlock>
    32e0:	8b 45 cc             	mov    -0x34(%ebp),%eax
    32e3:	89 7c 24 04          	mov    %edi,0x4(%esp)
    32e7:	89 04 24             	mov    %eax,(%esp)
    32ea:	e8 61 73 01 00       	call   1a650 <async_answer_0>
    32ef:	83 c4 7c             	add    $0x7c,%esp
    32f2:	89 f8                	mov    %edi,%eax
    32f4:	5b                   	pop    %ebx
    32f5:	5e                   	pop    %esi
    32f6:	5f                   	pop    %edi
    32f7:	5d                   	pop    %ebp
    32f8:	c3                   	ret    
    32f9:	8d b4 26 00 00 00 00 	lea    0x0(%esi,%eiz,1),%esi
    3300:	8b 4d 0c             	mov    0xc(%ebp),%ecx
    3303:	89 da                	mov    %ebx,%edx
    3305:	8d 45 c8             	lea    -0x38(%ebp),%eax
    3308:	e8 53 e4 ff ff       	call   1760 <mfs_node_core_get.part.3>
    330d:	89 c7                	mov    %eax,%edi
    330f:	85 c0                	test   %eax,%eax
    3311:	0f 84 5b fe ff ff    	je     3172 <mfs_write+0x82>
    3317:	eb d6                	jmp    32ef <mfs_write+0x1ff>
    3319:	8d b4 26 00 00 00 00 	lea    0x0(%esi,%eiz,1),%esi
    3320:	8b 55 b4             	mov    -0x4c(%ebp),%edx
    3323:	39 d0                	cmp    %edx,%eax
    3325:	0f 86 0a ff ff ff    	jbe    3235 <mfs_write+0x145>
    332b:	e9 f8 fe ff ff       	jmp    3228 <mfs_write+0x138>
    3330:	bf f2 ff ff ff       	mov    $0xfffffff2,%edi
    3335:	e9 2e ff ff ff       	jmp    3268 <mfs_write+0x178>
    333a:	8d b6 00 00 00 00    	lea    0x0(%esi),%esi
    3340:	39 55 ac             	cmp    %edx,-0x54(%ebp)
    3343:	89 44 24 08          	mov    %eax,0x8(%esp)
    3347:	0f 94 c3             	sete   %bl
    334a:	81 e3 ff 00 00 00    	and    $0xff,%ebx
    3350:	8b 45 08             	mov    0x8(%ebp),%eax
    3353:	89 5c 24 10          	mov    %ebx,0x10(%esp)
    3357:	c7 44 24 0c 00 00 00 	movl   $0x0,0xc(%esp)
    335e:	00 
    335f:	89 44 24 04          	mov    %eax,0x4(%esp)
    3363:	89 34 24             	mov    %esi,(%esp)
    3366:	e8 55 27 00 00       	call   5ac0 <block_get>
    336b:	89 c7                	mov    %eax,%edi
    336d:	85 c0                	test   %eax,%eax
    336f:	0f 85 f3 fe ff ff    	jne    3268 <mfs_write+0x178>
    3375:	4b                   	dec    %ebx
    3376:	0f 84 5b 01 00 00    	je     34d7 <mfs_write+0x3e7>
    337c:	8b 55 b4             	mov    -0x4c(%ebp),%edx
    337f:	8b 45 dc             	mov    -0x24(%ebp),%eax
    3382:	89 54 24 08          	mov    %edx,0x8(%esp)
    3386:	8b 5d a0             	mov    -0x60(%ebp),%ebx
    3389:	8b 40 54             	mov    0x54(%eax),%eax
    338c:	01 d8                	add    %ebx,%eax
    338e:	89 44 24 04          	mov    %eax,0x4(%esp)
    3392:	8b 45 cc             	mov    -0x34(%ebp),%eax
    3395:	89 04 24             	mov    %eax,(%esp)
    3398:	e8 93 8d 01 00       	call   1c130 <async_data_write_finalize>
    339d:	8b 45 dc             	mov    -0x24(%ebp),%eax
    33a0:	c6 40 14 01          	movb   $0x1,0x14(%eax)
    33a4:	89 04 24             	mov    %eax,(%esp)
    33a7:	e8 64 24 00 00       	call   5810 <block_put>
    33ac:	89 c7                	mov    %eax,%edi
    33ae:	85 c0                	test   %eax,%eax
    33b0:	0f 85 4a 01 00 00    	jne    3500 <mfs_write+0x410>
    33b6:	8b 45 c0             	mov    -0x40(%ebp),%eax
    33b9:	8b 55 c4             	mov    -0x3c(%ebp),%edx
    33bc:	03 45 b8             	add    -0x48(%ebp),%eax
    33bf:	8b 75 a8             	mov    -0x58(%ebp),%esi
    33c2:	13 55 bc             	adc    -0x44(%ebp),%edx
    33c5:	8b 4e 08             	mov    0x8(%esi),%ecx
    33c8:	83 fa 00             	cmp    $0x0,%edx
    33cb:	77 04                	ja     33d1 <mfs_write+0x2e1>
    33cd:	39 c8                	cmp    %ecx,%eax
    33cf:	76 12                	jbe    33e3 <mfs_write+0x2f3>
    33d1:	8b 75 a8             	mov    -0x58(%ebp),%esi
    33d4:	8b 45 b4             	mov    -0x4c(%ebp),%eax
    33d7:	8b 4d 9c             	mov    -0x64(%ebp),%ecx
    33da:	01 c8                	add    %ecx,%eax
    33dc:	c6 46 40 01          	movb   $0x1,0x40(%esi)
    33e0:	89 46 08             	mov    %eax,0x8(%esi)
    33e3:	8b 75 c8             	mov    -0x38(%ebp),%esi
    33e6:	8b 5e 10             	mov    0x10(%esi),%ebx
    33e9:	c7 04 24 74 75 02 00 	movl   $0x27574,(%esp)
    33f0:	e8 0b bb 00 00       	call   ef00 <fibril_mutex_lock>
    33f5:	8b 43 08             	mov    0x8(%ebx),%eax
    33f8:	85 c0                	test   %eax,%eax
    33fa:	0f 84 80 01 00 00    	je     3580 <mfs_write+0x490>
    3400:	48                   	dec    %eax
    3401:	89 43 08             	mov    %eax,0x8(%ebx)
    3404:	85 c0                	test   %eax,%eax
    3406:	75 49                	jne    3451 <mfs_write+0x361>
    3408:	8d 43 10             	lea    0x10(%ebx),%eax
    340b:	c7 04 24 d0 77 02 00 	movl   $0x277d0,(%esp)
    3412:	89 44 24 04          	mov    %eax,0x4(%esp)
    3416:	e8 25 ac 01 00       	call   1e040 <hash_table_remove_item>
    341b:	8b 43 04             	mov    0x4(%ebx),%eax
    341e:	8b 48 08             	mov    0x8(%eax),%ecx
    3421:	85 c9                	test   %ecx,%ecx
    3423:	0f 84 73 01 00 00    	je     359c <mfs_write+0x4ac>
    3429:	49                   	dec    %ecx
    342a:	89 48 08             	mov    %ecx,0x8(%eax)
    342d:	89 1c 24             	mov    %ebx,(%esp)
    3430:	e8 5b 06 00 00       	call   3a90 <mfs_put_inode>
    3435:	89 c7                	mov    %eax,%edi
    3437:	8b 03                	mov    (%ebx),%eax
    3439:	89 04 24             	mov    %eax,(%esp)
    343c:	e8 df 47 01 00       	call   17c20 <free>
    3441:	89 1c 24             	mov    %ebx,(%esp)
    3444:	e8 d7 47 01 00       	call   17c20 <free>
    3449:	89 34 24             	mov    %esi,(%esp)
    344c:	e8 cf 47 01 00       	call   17c20 <free>
    3451:	c7 04 24 74 75 02 00 	movl   $0x27574,(%esp)
    3458:	e8 c3 bb 00 00       	call   f020 <fibril_mutex_unlock>
    345d:	8b 75 a8             	mov    -0x58(%ebp),%esi
    3460:	8b 45 1c             	mov    0x1c(%ebp),%eax
    3463:	8b 76 08             	mov    0x8(%esi),%esi
    3466:	8b 55 b4             	mov    -0x4c(%ebp),%edx
    3469:	89 30                	mov    %esi,(%eax)
    346b:	c7 40 04 00 00 00 00 	movl   $0x0,0x4(%eax)
    3472:	8b 45 18             	mov    0x18(%ebp),%eax
    3475:	89 10                	mov    %edx,(%eax)
    3477:	e9 73 fe ff ff       	jmp    32ef <mfs_write+0x1ff>
    347c:	8d 74 26 00          	lea    0x0(%esi,%eiz,1),%esi
    3480:	8d 45 d8             	lea    -0x28(%ebp),%eax
    3483:	8b 55 9c             	mov    -0x64(%ebp),%edx
    3486:	89 44 24 0c          	mov    %eax,0xc(%esp)
    348a:	8b 45 d4             	mov    -0x2c(%ebp),%eax
    348d:	89 44 24 08          	mov    %eax,0x8(%esp)
    3491:	89 54 24 04          	mov    %edx,0x4(%esp)
    3495:	89 1c 24             	mov    %ebx,(%esp)
    3498:	e8 d3 10 00 00       	call   4570 <mfs_write_map>
    349d:	89 c7                	mov    %eax,%edi
    349f:	85 c0                	test   %eax,%eax
    34a1:	0f 85 c1 fd ff ff    	jne    3268 <mfs_write+0x178>
    34a7:	8b 45 d4             	mov    -0x2c(%ebp),%eax
    34aa:	8b 55 08             	mov    0x8(%ebp),%edx
    34ad:	c7 44 24 10 01 00 00 	movl   $0x1,0x10(%esp)
    34b4:	00 
    34b5:	89 44 24 08          	mov    %eax,0x8(%esp)
    34b9:	c7 44 24 0c 00 00 00 	movl   $0x0,0xc(%esp)
    34c0:	00 
    34c1:	89 54 24 04          	mov    %edx,0x4(%esp)
    34c5:	89 34 24             	mov    %esi,(%esp)
    34c8:	e8 f3 25 00 00       	call   5ac0 <block_get>
    34cd:	89 c7                	mov    %eax,%edi
    34cf:	85 c0                	test   %eax,%eax
    34d1:	0f 85 91 fd ff ff    	jne    3268 <mfs_write+0x178>
    34d7:	8b 75 b0             	mov    -0x50(%ebp),%esi
    34da:	8b 46 18             	mov    0x18(%esi),%eax
    34dd:	c7 44 24 04 00 00 00 	movl   $0x0,0x4(%esp)
    34e4:	00 
    34e5:	89 44 24 08          	mov    %eax,0x8(%esp)
    34e9:	8b 45 dc             	mov    -0x24(%ebp),%eax
    34ec:	8b 40 54             	mov    0x54(%eax),%eax
    34ef:	89 04 24             	mov    %eax,(%esp)
    34f2:	e8 59 78 00 00       	call   ad50 <memset>
    34f7:	e9 80 fe ff ff       	jmp    337c <mfs_write+0x28c>
    34fc:	8d 74 26 00          	lea    0x0(%esi,%eiz,1),%esi
    3500:	8b 75 c8             	mov    -0x38(%ebp),%esi
    3503:	8b 5e 10             	mov    0x10(%esi),%ebx
    3506:	c7 04 24 74 75 02 00 	movl   $0x27574,(%esp)
    350d:	e8 ee b9 00 00       	call   ef00 <fibril_mutex_lock>
    3512:	8b 43 08             	mov    0x8(%ebx),%eax
    3515:	85 c0                	test   %eax,%eax
    3517:	74 67                	je     3580 <mfs_write+0x490>
    3519:	48                   	dec    %eax
    351a:	89 43 08             	mov    %eax,0x8(%ebx)
    351d:	85 c0                	test   %eax,%eax
    351f:	75 43                	jne    3564 <mfs_write+0x474>
    3521:	8d 43 10             	lea    0x10(%ebx),%eax
    3524:	c7 04 24 d0 77 02 00 	movl   $0x277d0,(%esp)
    352b:	89 44 24 04          	mov    %eax,0x4(%esp)
    352f:	e8 0c ab 01 00       	call   1e040 <hash_table_remove_item>
    3534:	8b 43 04             	mov    0x4(%ebx),%eax
    3537:	8b 50 08             	mov    0x8(%eax),%edx
    353a:	85 d2                	test   %edx,%edx
    353c:	74 5e                	je     359c <mfs_write+0x4ac>
    353e:	4a                   	dec    %edx
    353f:	89 50 08             	mov    %edx,0x8(%eax)
    3542:	89 1c 24             	mov    %ebx,(%esp)
    3545:	e8 46 05 00 00       	call   3a90 <mfs_put_inode>
    354a:	8b 03                	mov    (%ebx),%eax
    354c:	89 04 24             	mov    %eax,(%esp)
    354f:	e8 cc 46 01 00       	call   17c20 <free>
    3554:	89 1c 24             	mov    %ebx,(%esp)
    3557:	e8 c4 46 01 00       	call   17c20 <free>
    355c:	89 34 24             	mov    %esi,(%esp)
    355f:	e8 bc 46 01 00       	call   17c20 <free>
    3564:	c7 04 24 74 75 02 00 	movl   $0x27574,(%esp)
    356b:	e8 b0 ba 00 00       	call   f020 <fibril_mutex_unlock>
    3570:	e9 7a fd ff ff       	jmp    32ef <mfs_write+0x1ff>
    3575:	8d 76 00             	lea    0x0(%esi),%esi
    3578:	83 cf ff             	or     $0xffffffff,%edi
    357b:	e9 6f fd ff ff       	jmp    32ef <mfs_write+0x1ff>
    3580:	c7 44 24 08 f3 01 00 	movl   $0x1f3,0x8(%esp)
    3587:	00 
    3588:	c7 44 24 04 80 49 02 	movl   $0x24980,0x4(%esp)
    358f:	00 
    3590:	c7 04 24 8a 49 02 00 	movl   $0x2498a,(%esp)
    3597:	e8 54 ed 01 00       	call   222f0 <assert_abort>
    359c:	c7 44 24 08 f7 01 00 	movl   $0x1f7,0x8(%esp)
    35a3:	00 
    35a4:	c7 44 24 04 80 49 02 	movl   $0x24980,0x4(%esp)
    35ab:	00 
    35ac:	c7 04 24 c8 49 02 00 	movl   $0x249c8,(%esp)
    35b3:	e8 38 ed 01 00       	call   222f0 <assert_abort>
    35b8:	90                   	nop
    35b9:	8d b4 26 00 00 00 00 	lea    0x0(%esi,%eiz,1),%esi

000035c0 <mfs_global_init>:
    35c0:	55                   	push   %ebp
    35c1:	89 e5                	mov    %esp,%ebp
    35c3:	83 ec 18             	sub    $0x18,%esp
    35c6:	c7 44 24 0c 60 75 02 	movl   $0x27560,0xc(%esp)
    35cd:	00 
    35ce:	c7 44 24 08 00 00 00 	movl   $0x0,0x8(%esp)
    35d5:	00 
    35d6:	c7 44 24 04 00 00 00 	movl   $0x0,0x4(%esp)
    35dd:	00 
    35de:	c7 04 24 d0 77 02 00 	movl   $0x277d0,(%esp)
    35e5:	e8 c6 a1 01 00       	call   1d7b0 <hash_table_create>
    35ea:	c9                   	leave  
    35eb:	3c 01                	cmp    $0x1,%al
    35ed:	19 c0                	sbb    %eax,%eax
    35ef:	83 e0 fe             	and    $0xfffffffe,%eax
    35f2:	c3                   	ret    
    35f3:	66 90                	xchg   %ax,%ax
    35f5:	66 90                	xchg   %ax,%ax
    35f7:	66 90                	xchg   %ax,%ax
    35f9:	66 90                	xchg   %ax,%ax
    35fb:	66 90                	xchg   %ax,%ax
    35fd:	66 90                	xchg   %ax,%ax
    35ff:	90                   	nop

00003600 <mfs_get_inode>:
    3600:	55                   	push   %ebp
    3601:	89 e5                	mov    %esp,%ebp
    3603:	57                   	push   %edi
    3604:	56                   	push   %esi
    3605:	53                   	push   %ebx
    3606:	83 ec 4c             	sub    $0x4c,%esp
    3609:	8b 7d 08             	mov    0x8(%ebp),%edi
    360c:	8b 77 04             	mov    0x4(%edi),%esi
    360f:	83 7e 28 01          	cmpl   $0x1,0x28(%esi)
    3613:	0f 84 4f 02 00 00    	je     3868 <mfs_get_inode+0x268>
    3619:	c7 04 24 48 00 00 00 	movl   $0x48,(%esp)
    3620:	e8 eb 44 01 00       	call   17b10 <malloc>
    3625:	89 c3                	mov    %eax,%ebx
    3627:	85 c0                	test   %eax,%eax
    3629:	74 47                	je     3672 <mfs_get_inode+0x72>
    362b:	8b 77 04             	mov    0x4(%edi),%esi
    362e:	8b 45 10             	mov    0x10(%ebp),%eax
    3631:	48                   	dec    %eax
    3632:	31 d2                	xor    %edx,%edx
    3634:	8b 4e 2c             	mov    0x2c(%esi),%ecx
    3637:	c7 44 24 10 00 00 00 	movl   $0x0,0x10(%esp)
    363e:	00 
    363f:	f7 f1                	div    %ecx
    3641:	8b 4e 34             	mov    0x34(%esi),%ecx
    3644:	c7 44 24 0c 00 00 00 	movl   $0x0,0xc(%esp)
    364b:	00 
    364c:	01 c8                	add    %ecx,%eax
    364e:	89 55 d4             	mov    %edx,-0x2c(%ebp)
    3651:	89 44 24 08          	mov    %eax,0x8(%esp)
    3655:	8b 07                	mov    (%edi),%eax
    3657:	89 44 24 04          	mov    %eax,0x4(%esp)
    365b:	8d 45 e4             	lea    -0x1c(%ebp),%eax
    365e:	89 04 24             	mov    %eax,(%esp)
    3661:	e8 5a 24 00 00       	call   5ac0 <block_get>
    3666:	85 c0                	test   %eax,%eax
    3668:	74 16                	je     3680 <mfs_get_inode+0x80>
    366a:	89 1c 24             	mov    %ebx,(%esp)
    366d:	e8 ae 45 01 00       	call   17c20 <free>
    3672:	83 c4 4c             	add    $0x4c,%esp
    3675:	31 c0                	xor    %eax,%eax
    3677:	5b                   	pop    %ebx
    3678:	5e                   	pop    %esi
    3679:	5f                   	pop    %edi
    367a:	5d                   	pop    %ebp
    367b:	c3                   	ret    
    367c:	8d 74 26 00          	lea    0x0(%esi,%eiz,1),%esi
    3680:	8b 45 e4             	mov    -0x1c(%ebp),%eax
    3683:	8b 7d d4             	mov    -0x2c(%ebp),%edi
    3686:	c1 e7 06             	shl    $0x6,%edi
    3689:	8b 50 54             	mov    0x54(%eax),%edx
    368c:	01 d7                	add    %edx,%edi
    368e:	66 8b 07             	mov    (%edi),%ax
    3691:	25 ff ff 00 00       	and    $0xffff,%eax
    3696:	89 44 24 04          	mov    %eax,0x4(%esp)
    369a:	31 c0                	xor    %eax,%eax
    369c:	8a 46 3d             	mov    0x3d(%esi),%al
    369f:	89 04 24             	mov    %eax,(%esp)
    36a2:	e8 a9 19 00 00       	call   5050 <conv16>
    36a7:	66 89 03             	mov    %ax,(%ebx)
    36aa:	66 8b 47 02          	mov    0x2(%edi),%ax
    36ae:	25 ff ff 00 00       	and    $0xffff,%eax
    36b3:	89 44 24 04          	mov    %eax,0x4(%esp)
    36b7:	31 c0                	xor    %eax,%eax
    36b9:	8a 46 3d             	mov    0x3d(%esi),%al
    36bc:	89 04 24             	mov    %eax,(%esp)
    36bf:	e8 8c 19 00 00       	call   5050 <conv16>
    36c4:	66 89 43 02          	mov    %ax,0x2(%ebx)
    36c8:	66 8b 47 04          	mov    0x4(%edi),%ax
    36cc:	25 ff ff 00 00       	and    $0xffff,%eax
    36d1:	89 44 24 04          	mov    %eax,0x4(%esp)
    36d5:	31 c0                	xor    %eax,%eax
    36d7:	8a 46 3d             	mov    0x3d(%esi),%al
    36da:	89 04 24             	mov    %eax,(%esp)
    36dd:	e8 6e 19 00 00       	call   5050 <conv16>
    36e2:	66 89 43 04          	mov    %ax,0x4(%ebx)
    36e6:	66 8b 47 06          	mov    0x6(%edi),%ax
    36ea:	25 ff ff 00 00       	and    $0xffff,%eax
    36ef:	89 44 24 04          	mov    %eax,0x4(%esp)
    36f3:	31 c0                	xor    %eax,%eax
    36f5:	8a 46 3d             	mov    0x3d(%esi),%al
    36f8:	89 04 24             	mov    %eax,(%esp)
    36fb:	e8 50 19 00 00       	call   5050 <conv16>
    3700:	66 89 43 06          	mov    %ax,0x6(%ebx)
    3704:	8b 47 08             	mov    0x8(%edi),%eax
    3707:	89 44 24 04          	mov    %eax,0x4(%esp)
    370b:	31 c0                	xor    %eax,%eax
    370d:	8a 46 3d             	mov    0x3d(%esi),%al
    3710:	89 04 24             	mov    %eax,(%esp)
    3713:	e8 58 19 00 00       	call   5070 <conv32>
    3718:	89 43 08             	mov    %eax,0x8(%ebx)
    371b:	8b 47 0c             	mov    0xc(%edi),%eax
    371e:	89 44 24 04          	mov    %eax,0x4(%esp)
    3722:	31 c0                	xor    %eax,%eax
    3724:	8a 46 3d             	mov    0x3d(%esi),%al
    3727:	89 04 24             	mov    %eax,(%esp)
    372a:	e8 41 19 00 00       	call   5070 <conv32>
    372f:	89 43 0c             	mov    %eax,0xc(%ebx)
    3732:	8b 47 10             	mov    0x10(%edi),%eax
    3735:	89 44 24 04          	mov    %eax,0x4(%esp)
    3739:	31 c0                	xor    %eax,%eax
    373b:	8a 46 3d             	mov    0x3d(%esi),%al
    373e:	89 04 24             	mov    %eax,(%esp)
    3741:	e8 2a 19 00 00       	call   5070 <conv32>
    3746:	89 43 10             	mov    %eax,0x10(%ebx)
    3749:	8b 47 14             	mov    0x14(%edi),%eax
    374c:	89 44 24 04          	mov    %eax,0x4(%esp)
    3750:	31 c0                	xor    %eax,%eax
    3752:	8a 46 3d             	mov    0x3d(%esi),%al
    3755:	89 04 24             	mov    %eax,(%esp)
    3758:	e8 13 19 00 00       	call   5070 <conv32>
    375d:	89 43 14             	mov    %eax,0x14(%ebx)
    3760:	8b 47 18             	mov    0x18(%edi),%eax
    3763:	89 44 24 04          	mov    %eax,0x4(%esp)
    3767:	31 c0                	xor    %eax,%eax
    3769:	8a 46 3d             	mov    0x3d(%esi),%al
    376c:	89 04 24             	mov    %eax,(%esp)
    376f:	e8 fc 18 00 00       	call   5070 <conv32>
    3774:	89 43 18             	mov    %eax,0x18(%ebx)
    3777:	8b 47 1c             	mov    0x1c(%edi),%eax
    377a:	89 44 24 04          	mov    %eax,0x4(%esp)
    377e:	31 c0                	xor    %eax,%eax
    3780:	8a 46 3d             	mov    0x3d(%esi),%al
    3783:	89 04 24             	mov    %eax,(%esp)
    3786:	e8 e5 18 00 00       	call   5070 <conv32>
    378b:	89 43 1c             	mov    %eax,0x1c(%ebx)
    378e:	8b 47 20             	mov    0x20(%edi),%eax
    3791:	89 44 24 04          	mov    %eax,0x4(%esp)
    3795:	31 c0                	xor    %eax,%eax
    3797:	8a 46 3d             	mov    0x3d(%esi),%al
    379a:	89 04 24             	mov    %eax,(%esp)
    379d:	e8 ce 18 00 00       	call   5070 <conv32>
    37a2:	89 43 20             	mov    %eax,0x20(%ebx)
    37a5:	8b 47 24             	mov    0x24(%edi),%eax
    37a8:	89 44 24 04          	mov    %eax,0x4(%esp)
    37ac:	31 c0                	xor    %eax,%eax
    37ae:	8a 46 3d             	mov    0x3d(%esi),%al
    37b1:	89 04 24             	mov    %eax,(%esp)
    37b4:	e8 b7 18 00 00       	call   5070 <conv32>
    37b9:	89 43 24             	mov    %eax,0x24(%ebx)
    37bc:	8b 47 28             	mov    0x28(%edi),%eax
    37bf:	89 44 24 04          	mov    %eax,0x4(%esp)
    37c3:	31 c0                	xor    %eax,%eax
    37c5:	8a 46 3d             	mov    0x3d(%esi),%al
    37c8:	89 04 24             	mov    %eax,(%esp)
    37cb:	e8 a0 18 00 00       	call   5070 <conv32>
    37d0:	89 43 28             	mov    %eax,0x28(%ebx)
    37d3:	8b 47 2c             	mov    0x2c(%edi),%eax
    37d6:	89 44 24 04          	mov    %eax,0x4(%esp)
    37da:	31 c0                	xor    %eax,%eax
    37dc:	8a 46 3d             	mov    0x3d(%esi),%al
    37df:	89 04 24             	mov    %eax,(%esp)
    37e2:	e8 89 18 00 00       	call   5070 <conv32>
    37e7:	89 43 2c             	mov    %eax,0x2c(%ebx)
    37ea:	8b 47 30             	mov    0x30(%edi),%eax
    37ed:	89 44 24 04          	mov    %eax,0x4(%esp)
    37f1:	31 c0                	xor    %eax,%eax
    37f3:	8a 46 3d             	mov    0x3d(%esi),%al
    37f6:	89 04 24             	mov    %eax,(%esp)
    37f9:	e8 72 18 00 00       	call   5070 <conv32>
    37fe:	89 43 30             	mov    %eax,0x30(%ebx)
    3801:	8b 47 34             	mov    0x34(%edi),%eax
    3804:	89 44 24 04          	mov    %eax,0x4(%esp)
    3808:	31 c0                	xor    %eax,%eax
    380a:	8a 46 3d             	mov    0x3d(%esi),%al
    380d:	89 04 24             	mov    %eax,(%esp)
    3810:	e8 5b 18 00 00       	call   5070 <conv32>
    3815:	89 43 34             	mov    %eax,0x34(%ebx)
    3818:	8b 47 38             	mov    0x38(%edi),%eax
    381b:	89 44 24 04          	mov    %eax,0x4(%esp)
    381f:	31 c0                	xor    %eax,%eax
    3821:	8a 46 3d             	mov    0x3d(%esi),%al
    3824:	89 04 24             	mov    %eax,(%esp)
    3827:	e8 44 18 00 00       	call   5070 <conv32>
    382c:	89 43 38             	mov    %eax,0x38(%ebx)
    382f:	8b 47 3c             	mov    0x3c(%edi),%eax
    3832:	89 44 24 04          	mov    %eax,0x4(%esp)
    3836:	31 c0                	xor    %eax,%eax
    3838:	8a 46 3d             	mov    0x3d(%esi),%al
    383b:	89 04 24             	mov    %eax,(%esp)
    383e:	e8 2d 18 00 00       	call   5070 <conv32>
    3843:	89 43 3c             	mov    %eax,0x3c(%ebx)
    3846:	8b 45 e4             	mov    -0x1c(%ebp),%eax
    3849:	89 04 24             	mov    %eax,(%esp)
    384c:	e8 bf 1f 00 00       	call   5810 <block_put>
    3851:	8b 55 0c             	mov    0xc(%ebp),%edx
    3854:	c6 43 40 00          	movb   $0x0,0x40(%ebx)
    3858:	89 1a                	mov    %ebx,(%edx)
    385a:	83 c4 4c             	add    $0x4c,%esp
    385d:	5b                   	pop    %ebx
    385e:	5e                   	pop    %esi
    385f:	5f                   	pop    %edi
    3860:	5d                   	pop    %ebp
    3861:	c3                   	ret    
    3862:	8d b6 00 00 00 00    	lea    0x0(%esi),%esi
    3868:	8b 46 2c             	mov    0x2c(%esi),%eax
    386b:	c7 04 24 48 00 00 00 	movl   $0x48,(%esp)
    3872:	89 45 d0             	mov    %eax,-0x30(%ebp)
    3875:	e8 96 42 01 00       	call   17b10 <malloc>
    387a:	89 c3                	mov    %eax,%ebx
    387c:	85 c0                	test   %eax,%eax
    387e:	0f 84 ee fd ff ff    	je     3672 <mfs_get_inode+0x72>
    3884:	8b 45 10             	mov    0x10(%ebp),%eax
    3887:	c7 44 24 10 00 00 00 	movl   $0x0,0x10(%esp)
    388e:	00 
    388f:	48                   	dec    %eax
    3890:	8b 4e 34             	mov    0x34(%esi),%ecx
    3893:	25 ff ff 00 00       	and    $0xffff,%eax
    3898:	89 c2                	mov    %eax,%edx
    389a:	89 45 d4             	mov    %eax,-0x2c(%ebp)
    389d:	c1 fa 1f             	sar    $0x1f,%edx
    38a0:	f7 7e 2c             	idivl  0x2c(%esi)
    38a3:	01 c8                	add    %ecx,%eax
    38a5:	89 c2                	mov    %eax,%edx
    38a7:	89 44 24 08          	mov    %eax,0x8(%esp)
    38ab:	c1 fa 1f             	sar    $0x1f,%edx
    38ae:	89 54 24 0c          	mov    %edx,0xc(%esp)
    38b2:	8b 07                	mov    (%edi),%eax
    38b4:	89 44 24 04          	mov    %eax,0x4(%esp)
    38b8:	8d 45 e4             	lea    -0x1c(%ebp),%eax
    38bb:	89 04 24             	mov    %eax,(%esp)
    38be:	e8 fd 21 00 00       	call   5ac0 <block_get>
    38c3:	85 c0                	test   %eax,%eax
    38c5:	0f 85 9f fd ff ff    	jne    366a <mfs_get_inode+0x6a>
    38cb:	8b 45 d4             	mov    -0x2c(%ebp),%eax
    38ce:	89 c2                	mov    %eax,%edx
    38d0:	c1 fa 1f             	sar    $0x1f,%edx
    38d3:	f7 7d d0             	idivl  -0x30(%ebp)
    38d6:	8b 45 e4             	mov    -0x1c(%ebp),%eax
    38d9:	89 d7                	mov    %edx,%edi
    38db:	c1 e7 05             	shl    $0x5,%edi
    38de:	8b 50 54             	mov    0x54(%eax),%edx
    38e1:	01 d7                	add    %edx,%edi
    38e3:	66 8b 07             	mov    (%edi),%ax
    38e6:	25 ff ff 00 00       	and    $0xffff,%eax
    38eb:	89 44 24 04          	mov    %eax,0x4(%esp)
    38ef:	31 c0                	xor    %eax,%eax
    38f1:	8a 46 3d             	mov    0x3d(%esi),%al
    38f4:	89 04 24             	mov    %eax,(%esp)
    38f7:	e8 54 17 00 00       	call   5050 <conv16>
    38fc:	66 89 03             	mov    %ax,(%ebx)
    38ff:	66 8b 47 02          	mov    0x2(%edi),%ax
    3903:	25 ff ff 00 00       	and    $0xffff,%eax
    3908:	89 44 24 04          	mov    %eax,0x4(%esp)
    390c:	31 c0                	xor    %eax,%eax
    390e:	8a 46 3d             	mov    0x3d(%esi),%al
    3911:	89 04 24             	mov    %eax,(%esp)
    3914:	e8 37 17 00 00       	call   5050 <conv16>
    3919:	66 89 43 04          	mov    %ax,0x4(%ebx)
    391d:	8b 47 04             	mov    0x4(%edi),%eax
    3920:	89 44 24 04          	mov    %eax,0x4(%esp)
    3924:	31 c0                	xor    %eax,%eax
    3926:	8a 46 3d             	mov    0x3d(%esi),%al
    3929:	89 04 24             	mov    %eax,(%esp)
    392c:	e8 3f 17 00 00       	call   5070 <conv32>
    3931:	89 43 08             	mov    %eax,0x8(%ebx)
    3934:	8b 47 08             	mov    0x8(%edi),%eax
    3937:	89 44 24 04          	mov    %eax,0x4(%esp)
    393b:	31 c0                	xor    %eax,%eax
    393d:	8a 46 3d             	mov    0x3d(%esi),%al
    3940:	89 04 24             	mov    %eax,(%esp)
    3943:	e8 28 17 00 00       	call   5070 <conv32>
    3948:	89 43 10             	mov    %eax,0x10(%ebx)
    394b:	31 c0                	xor    %eax,%eax
    394d:	8a 47 0d             	mov    0xd(%edi),%al
    3950:	66 89 43 02          	mov    %ax,0x2(%ebx)
    3954:	66 8b 47 0e          	mov    0xe(%edi),%ax
    3958:	25 ff ff 00 00       	and    $0xffff,%eax
    395d:	89 44 24 04          	mov    %eax,0x4(%esp)
    3961:	31 c0                	xor    %eax,%eax
    3963:	8a 46 3d             	mov    0x3d(%esi),%al
    3966:	89 04 24             	mov    %eax,(%esp)
    3969:	e8 e2 16 00 00       	call   5050 <conv16>
    396e:	25 ff ff 00 00       	and    $0xffff,%eax
    3973:	89 43 18             	mov    %eax,0x18(%ebx)
    3976:	66 8b 47 10          	mov    0x10(%edi),%ax
    397a:	25 ff ff 00 00       	and    $0xffff,%eax
    397f:	89 44 24 04          	mov    %eax,0x4(%esp)
    3983:	31 c0                	xor    %eax,%eax
    3985:	8a 46 3d             	mov    0x3d(%esi),%al
    3988:	89 04 24             	mov    %eax,(%esp)
    398b:	e8 c0 16 00 00       	call   5050 <conv16>
    3990:	25 ff ff 00 00       	and    $0xffff,%eax
    3995:	89 43 1c             	mov    %eax,0x1c(%ebx)
    3998:	66 8b 47 12          	mov    0x12(%edi),%ax
    399c:	25 ff ff 00 00       	and    $0xffff,%eax
    39a1:	89 44 24 04          	mov    %eax,0x4(%esp)
    39a5:	31 c0                	xor    %eax,%eax
    39a7:	8a 46 3d             	mov    0x3d(%esi),%al
    39aa:	89 04 24             	mov    %eax,(%esp)
    39ad:	e8 9e 16 00 00       	call   5050 <conv16>
    39b2:	25 ff ff 00 00       	and    $0xffff,%eax
    39b7:	89 43 20             	mov    %eax,0x20(%ebx)
    39ba:	66 8b 47 14          	mov    0x14(%edi),%ax
    39be:	25 ff ff 00 00       	and    $0xffff,%eax
    39c3:	89 44 24 04          	mov    %eax,0x4(%esp)
    39c7:	31 c0                	xor    %eax,%eax
    39c9:	8a 46 3d             	mov    0x3d(%esi),%al
    39cc:	89 04 24             	mov    %eax,(%esp)
    39cf:	e8 7c 16 00 00       	call   5050 <conv16>
    39d4:	25 ff ff 00 00       	and    $0xffff,%eax
    39d9:	89 43 24             	mov    %eax,0x24(%ebx)
    39dc:	66 8b 47 16          	mov    0x16(%edi),%ax
    39e0:	25 ff ff 00 00       	and    $0xffff,%eax
    39e5:	89 44 24 04          	mov    %eax,0x4(%esp)
    39e9:	31 c0                	xor    %eax,%eax
    39eb:	8a 46 3d             	mov    0x3d(%esi),%al
    39ee:	89 04 24             	mov    %eax,(%esp)
    39f1:	e8 5a 16 00 00       	call   5050 <conv16>
    39f6:	25 ff ff 00 00       	and    $0xffff,%eax
    39fb:	89 43 28             	mov    %eax,0x28(%ebx)
    39fe:	66 8b 47 18          	mov    0x18(%edi),%ax
    3a02:	25 ff ff 00 00       	and    $0xffff,%eax
    3a07:	89 44 24 04          	mov    %eax,0x4(%esp)
    3a0b:	31 c0                	xor    %eax,%eax
    3a0d:	8a 46 3d             	mov    0x3d(%esi),%al
    3a10:	89 04 24             	mov    %eax,(%esp)
    3a13:	e8 38 16 00 00       	call   5050 <conv16>
    3a18:	25 ff ff 00 00       	and    $0xffff,%eax
    3a1d:	89 43 2c             	mov    %eax,0x2c(%ebx)
    3a20:	66 8b 47 1a          	mov    0x1a(%edi),%ax
    3a24:	25 ff ff 00 00       	and    $0xffff,%eax
    3a29:	89 44 24 04          	mov    %eax,0x4(%esp)
    3a2d:	31 c0                	xor    %eax,%eax
    3a2f:	8a 46 3d             	mov    0x3d(%esi),%al
    3a32:	89 04 24             	mov    %eax,(%esp)
    3a35:	e8 16 16 00 00       	call   5050 <conv16>
    3a3a:	25 ff ff 00 00       	and    $0xffff,%eax
    3a3f:	89 43 30             	mov    %eax,0x30(%ebx)
    3a42:	66 8b 47 1c          	mov    0x1c(%edi),%ax
    3a46:	25 ff ff 00 00       	and    $0xffff,%eax
    3a4b:	89 44 24 04          	mov    %eax,0x4(%esp)
    3a4f:	31 c0                	xor    %eax,%eax
    3a51:	8a 46 3d             	mov    0x3d(%esi),%al
    3a54:	89 04 24             	mov    %eax,(%esp)
    3a57:	e8 f4 15 00 00       	call   5050 <conv16>
    3a5c:	25 ff ff 00 00       	and    $0xffff,%eax
    3a61:	89 43 34             	mov    %eax,0x34(%ebx)
    3a64:	66 8b 47 1e          	mov    0x1e(%edi),%ax
    3a68:	25 ff ff 00 00       	and    $0xffff,%eax
    3a6d:	89 44 24 04          	mov    %eax,0x4(%esp)
    3a71:	31 c0                	xor    %eax,%eax
    3a73:	8a 46 3d             	mov    0x3d(%esi),%al
    3a76:	89 04 24             	mov    %eax,(%esp)
    3a79:	e8 d2 15 00 00       	call   5050 <conv16>
    3a7e:	25 ff ff 00 00       	and    $0xffff,%eax
    3a83:	89 43 38             	mov    %eax,0x38(%ebx)
    3a86:	e9 bb fd ff ff       	jmp    3846 <mfs_get_inode+0x246>
    3a8b:	90                   	nop
    3a8c:	8d 74 26 00          	lea    0x0(%esi,%eiz,1),%esi

00003a90 <mfs_put_inode>:
    3a90:	55                   	push   %ebp
    3a91:	31 c0                	xor    %eax,%eax
    3a93:	89 e5                	mov    %esp,%ebp
    3a95:	57                   	push   %edi
    3a96:	56                   	push   %esi
    3a97:	53                   	push   %ebx
    3a98:	83 ec 4c             	sub    $0x4c,%esp
    3a9b:	8b 55 08             	mov    0x8(%ebp),%edx
    3a9e:	8b 1a                	mov    (%edx),%ebx
    3aa0:	80 7b 40 00          	cmpb   $0x0,0x40(%ebx)
    3aa4:	74 54                	je     3afa <mfs_put_inode+0x6a>
    3aa6:	8b 7a 04             	mov    0x4(%edx),%edi
    3aa9:	8b 43 44             	mov    0x44(%ebx),%eax
    3aac:	8b 4f 04             	mov    0x4(%edi),%ecx
    3aaf:	83 79 28 01          	cmpl   $0x1,0x28(%ecx)
    3ab3:	0f 84 df 01 00 00    	je     3c98 <mfs_put_inode+0x208>
    3ab9:	8b 51 2c             	mov    0x2c(%ecx),%edx
    3abc:	48                   	dec    %eax
    3abd:	89 55 d0             	mov    %edx,-0x30(%ebp)
    3ac0:	31 d2                	xor    %edx,%edx
    3ac2:	0f b6 71 3d          	movzbl 0x3d(%ecx),%esi
    3ac6:	f7 75 d0             	divl   -0x30(%ebp)
    3ac9:	c7 44 24 10 00 00 00 	movl   $0x0,0x10(%esp)
    3ad0:	00 
    3ad1:	89 55 d4             	mov    %edx,-0x2c(%ebp)
    3ad4:	8b 51 34             	mov    0x34(%ecx),%edx
    3ad7:	c7 44 24 0c 00 00 00 	movl   $0x0,0xc(%esp)
    3ade:	00 
    3adf:	01 d0                	add    %edx,%eax
    3ae1:	89 44 24 08          	mov    %eax,0x8(%esp)
    3ae5:	8b 07                	mov    (%edi),%eax
    3ae7:	89 44 24 04          	mov    %eax,0x4(%esp)
    3aeb:	8d 45 e4             	lea    -0x1c(%ebp),%eax
    3aee:	89 04 24             	mov    %eax,(%esp)
    3af1:	e8 ca 1f 00 00       	call   5ac0 <block_get>
    3af6:	85 c0                	test   %eax,%eax
    3af8:	74 0e                	je     3b08 <mfs_put_inode+0x78>
    3afa:	83 c4 4c             	add    $0x4c,%esp
    3afd:	5b                   	pop    %ebx
    3afe:	5e                   	pop    %esi
    3aff:	5f                   	pop    %edi
    3b00:	5d                   	pop    %ebp
    3b01:	c3                   	ret    
    3b02:	8d b6 00 00 00 00    	lea    0x0(%esi),%esi
    3b08:	8b 45 e4             	mov    -0x1c(%ebp),%eax
    3b0b:	81 e6 ff 00 00 00    	and    $0xff,%esi
    3b11:	8b 7d d4             	mov    -0x2c(%ebp),%edi
    3b14:	c1 e7 06             	shl    $0x6,%edi
    3b17:	8b 50 54             	mov    0x54(%eax),%edx
    3b1a:	8b 03                	mov    (%ebx),%eax
    3b1c:	89 34 24             	mov    %esi,(%esp)
    3b1f:	25 ff ff 00 00       	and    $0xffff,%eax
    3b24:	01 d7                	add    %edx,%edi
    3b26:	89 44 24 04          	mov    %eax,0x4(%esp)
    3b2a:	e8 21 15 00 00       	call   5050 <conv16>
    3b2f:	66 89 07             	mov    %ax,(%edi)
    3b32:	66 8b 43 02          	mov    0x2(%ebx),%ax
    3b36:	25 ff ff 00 00       	and    $0xffff,%eax
    3b3b:	89 34 24             	mov    %esi,(%esp)
    3b3e:	89 44 24 04          	mov    %eax,0x4(%esp)
    3b42:	e8 09 15 00 00       	call   5050 <conv16>
    3b47:	66 89 47 02          	mov    %ax,0x2(%edi)
    3b4b:	8b 43 04             	mov    0x4(%ebx),%eax
    3b4e:	25 ff ff 00 00       	and    $0xffff,%eax
    3b53:	89 34 24             	mov    %esi,(%esp)
    3b56:	89 44 24 04          	mov    %eax,0x4(%esp)
    3b5a:	e8 f1 14 00 00       	call   5050 <conv16>
    3b5f:	66 89 47 04          	mov    %ax,0x4(%edi)
    3b63:	66 8b 43 06          	mov    0x6(%ebx),%ax
    3b67:	25 ff ff 00 00       	and    $0xffff,%eax
    3b6c:	89 34 24             	mov    %esi,(%esp)
    3b6f:	89 44 24 04          	mov    %eax,0x4(%esp)
    3b73:	e8 d8 14 00 00       	call   5050 <conv16>
    3b78:	66 89 47 06          	mov    %ax,0x6(%edi)
    3b7c:	8b 43 08             	mov    0x8(%ebx),%eax
    3b7f:	89 44 24 04          	mov    %eax,0x4(%esp)
    3b83:	89 34 24             	mov    %esi,(%esp)
    3b86:	e8 e5 14 00 00       	call   5070 <conv32>
    3b8b:	89 47 08             	mov    %eax,0x8(%edi)
    3b8e:	8b 43 0c             	mov    0xc(%ebx),%eax
    3b91:	89 44 24 04          	mov    %eax,0x4(%esp)
    3b95:	89 34 24             	mov    %esi,(%esp)
    3b98:	e8 d3 14 00 00       	call   5070 <conv32>
    3b9d:	89 47 0c             	mov    %eax,0xc(%edi)
    3ba0:	8b 43 10             	mov    0x10(%ebx),%eax
    3ba3:	89 44 24 04          	mov    %eax,0x4(%esp)
    3ba7:	89 34 24             	mov    %esi,(%esp)
    3baa:	e8 c1 14 00 00       	call   5070 <conv32>
    3baf:	89 47 10             	mov    %eax,0x10(%edi)
    3bb2:	8b 43 14             	mov    0x14(%ebx),%eax
    3bb5:	89 44 24 04          	mov    %eax,0x4(%esp)
    3bb9:	89 34 24             	mov    %esi,(%esp)
    3bbc:	e8 af 14 00 00       	call   5070 <conv32>
    3bc1:	89 47 14             	mov    %eax,0x14(%edi)
    3bc4:	8b 43 18             	mov    0x18(%ebx),%eax
    3bc7:	89 44 24 04          	mov    %eax,0x4(%esp)
    3bcb:	89 34 24             	mov    %esi,(%esp)
    3bce:	e8 9d 14 00 00       	call   5070 <conv32>
    3bd3:	89 47 18             	mov    %eax,0x18(%edi)
    3bd6:	8b 43 1c             	mov    0x1c(%ebx),%eax
    3bd9:	89 44 24 04          	mov    %eax,0x4(%esp)
    3bdd:	89 34 24             	mov    %esi,(%esp)
    3be0:	e8 8b 14 00 00       	call   5070 <conv32>
    3be5:	89 47 1c             	mov    %eax,0x1c(%edi)
    3be8:	8b 43 20             	mov    0x20(%ebx),%eax
    3beb:	89 44 24 04          	mov    %eax,0x4(%esp)
    3bef:	89 34 24             	mov    %esi,(%esp)
    3bf2:	e8 79 14 00 00       	call   5070 <conv32>
    3bf7:	89 47 20             	mov    %eax,0x20(%edi)
    3bfa:	8b 43 24             	mov    0x24(%ebx),%eax
    3bfd:	89 44 24 04          	mov    %eax,0x4(%esp)
    3c01:	89 34 24             	mov    %esi,(%esp)
    3c04:	e8 67 14 00 00       	call   5070 <conv32>
    3c09:	89 47 24             	mov    %eax,0x24(%edi)
    3c0c:	8b 43 28             	mov    0x28(%ebx),%eax
    3c0f:	89 44 24 04          	mov    %eax,0x4(%esp)
    3c13:	89 34 24             	mov    %esi,(%esp)
    3c16:	e8 55 14 00 00       	call   5070 <conv32>
    3c1b:	89 47 28             	mov    %eax,0x28(%edi)
    3c1e:	8b 43 2c             	mov    0x2c(%ebx),%eax
    3c21:	89 44 24 04          	mov    %eax,0x4(%esp)
    3c25:	89 34 24             	mov    %esi,(%esp)
    3c28:	e8 43 14 00 00       	call   5070 <conv32>
    3c2d:	89 47 2c             	mov    %eax,0x2c(%edi)
    3c30:	8b 43 30             	mov    0x30(%ebx),%eax
    3c33:	89 44 24 04          	mov    %eax,0x4(%esp)
    3c37:	89 34 24             	mov    %esi,(%esp)
    3c3a:	e8 31 14 00 00       	call   5070 <conv32>
    3c3f:	89 47 30             	mov    %eax,0x30(%edi)
    3c42:	8b 43 34             	mov    0x34(%ebx),%eax
    3c45:	89 44 24 04          	mov    %eax,0x4(%esp)
    3c49:	89 34 24             	mov    %esi,(%esp)
    3c4c:	e8 1f 14 00 00       	call   5070 <conv32>
    3c51:	89 47 34             	mov    %eax,0x34(%edi)
    3c54:	8b 43 38             	mov    0x38(%ebx),%eax
    3c57:	89 44 24 04          	mov    %eax,0x4(%esp)
    3c5b:	89 34 24             	mov    %esi,(%esp)
    3c5e:	e8 0d 14 00 00       	call   5070 <conv32>
    3c63:	89 47 38             	mov    %eax,0x38(%edi)
    3c66:	8b 43 3c             	mov    0x3c(%ebx),%eax
    3c69:	89 44 24 04          	mov    %eax,0x4(%esp)
    3c6d:	89 34 24             	mov    %esi,(%esp)
    3c70:	e8 fb 13 00 00       	call   5070 <conv32>
    3c75:	89 47 3c             	mov    %eax,0x3c(%edi)
    3c78:	8b 45 e4             	mov    -0x1c(%ebp),%eax
    3c7b:	c6 40 14 01          	movb   $0x1,0x14(%eax)
    3c7f:	89 04 24             	mov    %eax,(%esp)
    3c82:	e8 89 1b 00 00       	call   5810 <block_put>
    3c87:	c6 43 40 00          	movb   $0x0,0x40(%ebx)
    3c8b:	83 c4 4c             	add    $0x4c,%esp
    3c8e:	5b                   	pop    %ebx
    3c8f:	5e                   	pop    %esi
    3c90:	5f                   	pop    %edi
    3c91:	5d                   	pop    %ebp
    3c92:	c3                   	ret    
    3c93:	90                   	nop
    3c94:	8d 74 26 00          	lea    0x0(%esi,%eiz,1),%esi
    3c98:	8b 51 2c             	mov    0x2c(%ecx),%edx
    3c9b:	48                   	dec    %eax
    3c9c:	89 55 d0             	mov    %edx,-0x30(%ebp)
    3c9f:	31 d2                	xor    %edx,%edx
    3ca1:	0f b6 71 3d          	movzbl 0x3d(%ecx),%esi
    3ca5:	f7 75 d0             	divl   -0x30(%ebp)
    3ca8:	c7 44 24 10 00 00 00 	movl   $0x0,0x10(%esp)
    3caf:	00 
    3cb0:	89 55 d4             	mov    %edx,-0x2c(%ebp)
    3cb3:	8b 51 34             	mov    0x34(%ecx),%edx
    3cb6:	c7 44 24 0c 00 00 00 	movl   $0x0,0xc(%esp)
    3cbd:	00 
    3cbe:	01 d0                	add    %edx,%eax
    3cc0:	89 44 24 08          	mov    %eax,0x8(%esp)
    3cc4:	8b 07                	mov    (%edi),%eax
    3cc6:	89 44 24 04          	mov    %eax,0x4(%esp)
    3cca:	8d 45 e4             	lea    -0x1c(%ebp),%eax
    3ccd:	89 04 24             	mov    %eax,(%esp)
    3cd0:	e8 eb 1d 00 00       	call   5ac0 <block_get>
    3cd5:	85 c0                	test   %eax,%eax
    3cd7:	0f 85 1d fe ff ff    	jne    3afa <mfs_put_inode+0x6a>
    3cdd:	8b 45 e4             	mov    -0x1c(%ebp),%eax
    3ce0:	81 e6 ff 00 00 00    	and    $0xff,%esi
    3ce6:	8b 7d d4             	mov    -0x2c(%ebp),%edi
    3ce9:	c1 e7 05             	shl    $0x5,%edi
    3cec:	8b 48 54             	mov    0x54(%eax),%ecx
    3cef:	8b 03                	mov    (%ebx),%eax
    3cf1:	89 34 24             	mov    %esi,(%esp)
    3cf4:	25 ff ff 00 00       	and    $0xffff,%eax
    3cf9:	01 cf                	add    %ecx,%edi
    3cfb:	89 44 24 04          	mov    %eax,0x4(%esp)
    3cff:	e8 4c 13 00 00       	call   5050 <conv16>
    3d04:	66 89 07             	mov    %ax,(%edi)
    3d07:	8b 43 04             	mov    0x4(%ebx),%eax
    3d0a:	25 ff ff 00 00       	and    $0xffff,%eax
    3d0f:	89 34 24             	mov    %esi,(%esp)
    3d12:	89 44 24 04          	mov    %eax,0x4(%esp)
    3d16:	e8 35 13 00 00       	call   5050 <conv16>
    3d1b:	66 89 47 02          	mov    %ax,0x2(%edi)
    3d1f:	8a 43 06             	mov    0x6(%ebx),%al
    3d22:	88 47 0c             	mov    %al,0xc(%edi)
    3d25:	8a 53 02             	mov    0x2(%ebx),%dl
    3d28:	88 57 0d             	mov    %dl,0xd(%edi)
    3d2b:	8b 43 08             	mov    0x8(%ebx),%eax
    3d2e:	89 34 24             	mov    %esi,(%esp)
    3d31:	89 44 24 04          	mov    %eax,0x4(%esp)
    3d35:	e8 36 13 00 00       	call   5070 <conv32>
    3d3a:	89 47 04             	mov    %eax,0x4(%edi)
    3d3d:	8b 43 10             	mov    0x10(%ebx),%eax
    3d40:	89 44 24 04          	mov    %eax,0x4(%esp)
    3d44:	89 34 24             	mov    %esi,(%esp)
    3d47:	e8 24 13 00 00       	call   5070 <conv32>
    3d4c:	89 47 08             	mov    %eax,0x8(%edi)
    3d4f:	0f b7 43 18          	movzwl 0x18(%ebx),%eax
    3d53:	89 34 24             	mov    %esi,(%esp)
    3d56:	89 44 24 04          	mov    %eax,0x4(%esp)
    3d5a:	e8 f1 12 00 00       	call   5050 <conv16>
    3d5f:	66 89 47 0e          	mov    %ax,0xe(%edi)
    3d63:	0f b7 43 1c          	movzwl 0x1c(%ebx),%eax
    3d67:	89 34 24             	mov    %esi,(%esp)
    3d6a:	89 44 24 04          	mov    %eax,0x4(%esp)
    3d6e:	e8 dd 12 00 00       	call   5050 <conv16>
    3d73:	66 89 47 10          	mov    %ax,0x10(%edi)
    3d77:	0f b7 43 20          	movzwl 0x20(%ebx),%eax
    3d7b:	89 34 24             	mov    %esi,(%esp)
    3d7e:	89 44 24 04          	mov    %eax,0x4(%esp)
    3d82:	e8 c9 12 00 00       	call   5050 <conv16>
    3d87:	66 89 47 12          	mov    %ax,0x12(%edi)
    3d8b:	0f b7 43 24          	movzwl 0x24(%ebx),%eax
    3d8f:	89 34 24             	mov    %esi,(%esp)
    3d92:	89 44 24 04          	mov    %eax,0x4(%esp)
    3d96:	e8 b5 12 00 00       	call   5050 <conv16>
    3d9b:	66 89 47 14          	mov    %ax,0x14(%edi)
    3d9f:	0f b7 43 28          	movzwl 0x28(%ebx),%eax
    3da3:	89 34 24             	mov    %esi,(%esp)
    3da6:	89 44 24 04          	mov    %eax,0x4(%esp)
    3daa:	e8 a1 12 00 00       	call   5050 <conv16>
    3daf:	66 89 47 16          	mov    %ax,0x16(%edi)
    3db3:	0f b7 43 2c          	movzwl 0x2c(%ebx),%eax
    3db7:	89 34 24             	mov    %esi,(%esp)
    3dba:	89 44 24 04          	mov    %eax,0x4(%esp)
    3dbe:	e8 8d 12 00 00       	call   5050 <conv16>
    3dc3:	66 89 47 18          	mov    %ax,0x18(%edi)
    3dc7:	0f b7 43 30          	movzwl 0x30(%ebx),%eax
    3dcb:	89 34 24             	mov    %esi,(%esp)
    3dce:	89 44 24 04          	mov    %eax,0x4(%esp)
    3dd2:	e8 79 12 00 00       	call   5050 <conv16>
    3dd7:	66 89 47 1a          	mov    %ax,0x1a(%edi)
    3ddb:	0f b7 43 34          	movzwl 0x34(%ebx),%eax
    3ddf:	89 34 24             	mov    %esi,(%esp)
    3de2:	89 44 24 04          	mov    %eax,0x4(%esp)
    3de6:	e8 65 12 00 00       	call   5050 <conv16>
    3deb:	66 89 47 1c          	mov    %ax,0x1c(%edi)
    3def:	0f b7 43 38          	movzwl 0x38(%ebx),%eax
    3df3:	89 34 24             	mov    %esi,(%esp)
    3df6:	89 44 24 04          	mov    %eax,0x4(%esp)
    3dfa:	e8 51 12 00 00       	call   5050 <conv16>
    3dff:	66 89 47 1e          	mov    %ax,0x1e(%edi)
    3e03:	e9 70 fe ff ff       	jmp    3c78 <mfs_put_inode+0x1e8>
    3e08:	90                   	nop
    3e09:	8d b4 26 00 00 00 00 	lea    0x0(%esi,%eiz,1),%esi

00003e10 <mfs_inode_shrink>:
    3e10:	55                   	push   %ebp
    3e11:	89 e5                	mov    %esp,%ebp
    3e13:	57                   	push   %edi
    3e14:	56                   	push   %esi
    3e15:	53                   	push   %ebx
    3e16:	83 ec 3c             	sub    $0x3c,%esp
    3e19:	8b 7d 08             	mov    0x8(%ebp),%edi
    3e1c:	8b 5d 0c             	mov    0xc(%ebp),%ebx
    3e1f:	85 db                	test   %ebx,%ebx
    3e21:	8b 47 04             	mov    0x4(%edi),%eax
    3e24:	8b 37                	mov    (%edi),%esi
    3e26:	8b 40 04             	mov    0x4(%eax),%eax
    3e29:	8b 40 18             	mov    0x18(%eax),%eax
    3e2c:	89 45 d0             	mov    %eax,-0x30(%ebp)
    3e2f:	0f 84 9b 00 00 00    	je     3ed0 <mfs_inode_shrink+0xc0>
    3e35:	8b 46 08             	mov    0x8(%esi),%eax
    3e38:	89 45 c8             	mov    %eax,-0x38(%ebp)
    3e3b:	39 45 0c             	cmp    %eax,0xc(%ebp)
    3e3e:	0f 87 bb 00 00 00    	ja     3eff <mfs_inode_shrink+0xef>
    3e44:	89 c3                	mov    %eax,%ebx
    3e46:	31 d2                	xor    %edx,%edx
    3e48:	8b 45 0c             	mov    0xc(%ebp),%eax
    3e4b:	c6 46 40 01          	movb   $0x1,0x40(%esi)
    3e4f:	f7 75 d0             	divl   -0x30(%ebp)
    3e52:	83 fa 01             	cmp    $0x1,%edx
    3e55:	c7 45 d4 00 00 00 00 	movl   $0x0,-0x2c(%ebp)
    3e5c:	83 d8 ff             	sbb    $0xffffffff,%eax
    3e5f:	4b                   	dec    %ebx
    3e60:	89 45 cc             	mov    %eax,-0x34(%ebp)
    3e63:	85 c0                	test   %eax,%eax
    3e65:	75 1d                	jne    3e84 <mfs_inode_shrink+0x74>
    3e67:	eb 77                	jmp    3ee0 <mfs_inode_shrink+0xd0>
    3e69:	8d b4 26 00 00 00 00 	lea    0x0(%esi,%eiz,1),%esi
    3e70:	8b 4d d4             	mov    -0x2c(%ebp),%ecx
    3e73:	8b 45 d0             	mov    -0x30(%ebp),%eax
    3e76:	41                   	inc    %ecx
    3e77:	29 c3                	sub    %eax,%ebx
    3e79:	89 4d d4             	mov    %ecx,-0x2c(%ebp)
    3e7c:	8b 45 cc             	mov    -0x34(%ebp),%eax
    3e7f:	39 45 d4             	cmp    %eax,-0x2c(%ebp)
    3e82:	74 5c                	je     3ee0 <mfs_inode_shrink+0xd0>
    3e84:	8d 45 e4             	lea    -0x1c(%ebp),%eax
    3e87:	c7 44 24 08 00 00 00 	movl   $0x0,0x8(%esp)
    3e8e:	00 
    3e8f:	89 44 24 0c          	mov    %eax,0xc(%esp)
    3e93:	89 5c 24 04          	mov    %ebx,0x4(%esp)
    3e97:	89 3c 24             	mov    %edi,(%esp)
    3e9a:	e8 d1 06 00 00       	call   4570 <mfs_write_map>
    3e9f:	85 c0                	test   %eax,%eax
    3ea1:	75 25                	jne    3ec8 <mfs_inode_shrink+0xb8>
    3ea3:	8b 45 d0             	mov    -0x30(%ebp),%eax
    3ea6:	8b 56 08             	mov    0x8(%esi),%edx
    3ea9:	29 c2                	sub    %eax,%edx
    3eab:	8b 45 e4             	mov    -0x1c(%ebp),%eax
    3eae:	89 56 08             	mov    %edx,0x8(%esi)
    3eb1:	85 c0                	test   %eax,%eax
    3eb3:	74 bb                	je     3e70 <mfs_inode_shrink+0x60>
    3eb5:	89 44 24 04          	mov    %eax,0x4(%esp)
    3eb9:	8b 47 04             	mov    0x4(%edi),%eax
    3ebc:	89 04 24             	mov    %eax,(%esp)
    3ebf:	e8 5c 11 00 00       	call   5020 <mfs_free_zone>
    3ec4:	85 c0                	test   %eax,%eax
    3ec6:	74 a8                	je     3e70 <mfs_inode_shrink+0x60>
    3ec8:	83 c4 3c             	add    $0x3c,%esp
    3ecb:	5b                   	pop    %ebx
    3ecc:	5e                   	pop    %esi
    3ecd:	5f                   	pop    %edi
    3ece:	5d                   	pop    %ebp
    3ecf:	c3                   	ret    
    3ed0:	83 c4 3c             	add    $0x3c,%esp
    3ed3:	31 c0                	xor    %eax,%eax
    3ed5:	5b                   	pop    %ebx
    3ed6:	5e                   	pop    %esi
    3ed7:	5f                   	pop    %edi
    3ed8:	5d                   	pop    %ebp
    3ed9:	c3                   	ret    
    3eda:	8d b6 00 00 00 00    	lea    0x0(%esi),%esi
    3ee0:	8b 45 c8             	mov    -0x38(%ebp),%eax
    3ee3:	8b 4d 0c             	mov    0xc(%ebp),%ecx
    3ee6:	29 c8                	sub    %ecx,%eax
    3ee8:	89 46 08             	mov    %eax,0x8(%esi)
    3eeb:	89 3c 24             	mov    %edi,(%esp)
    3eee:	89 44 24 04          	mov    %eax,0x4(%esp)
    3ef2:	e8 c9 06 00 00       	call   45c0 <mfs_prune_ind_zones>
    3ef7:	83 c4 3c             	add    $0x3c,%esp
    3efa:	5b                   	pop    %ebx
    3efb:	5e                   	pop    %esi
    3efc:	5f                   	pop    %edi
    3efd:	5d                   	pop    %ebp
    3efe:	c3                   	ret    
    3eff:	c7 44 24 08 4f 01 00 	movl   $0x14f,0x8(%esp)
    3f06:	00 
    3f07:	c7 44 24 04 15 4a 02 	movl   $0x24a15,0x4(%esp)
    3f0e:	00 
    3f0f:	c7 04 24 21 4a 02 00 	movl   $0x24a21,(%esp)
    3f16:	e8 d5 e3 01 00       	call   222f0 <assert_abort>
    3f1b:	66 90                	xchg   %ax,%ax
    3f1d:	66 90                	xchg   %ax,%ax
    3f1f:	90                   	nop

00003f20 <read_ind_zone.isra.0>:
    3f20:	55                   	push   %ebp
    3f21:	89 e5                	mov    %esp,%ebp
    3f23:	57                   	push   %edi
    3f24:	56                   	push   %esi
    3f25:	53                   	push   %ebx
    3f26:	83 ec 4c             	sub    $0x4c,%esp
    3f29:	89 c3                	mov    %eax,%ebx
    3f2b:	8b 75 08             	mov    0x8(%ebp),%esi
    3f2e:	89 4d d4             	mov    %ecx,-0x2c(%ebp)
    3f31:	c7 04 24 00 20 00 00 	movl   $0x2000,(%esp)
    3f38:	89 d7                	mov    %edx,%edi
    3f3a:	e8 d1 3b 01 00       	call   17b10 <malloc>
    3f3f:	8b 4d d4             	mov    -0x2c(%ebp),%ecx
    3f42:	89 06                	mov    %eax,(%esi)
    3f44:	85 c0                	test   %eax,%eax
    3f46:	0f 84 ec 00 00 00    	je     4038 <read_ind_zone.isra.0+0x118>
    3f4c:	c7 44 24 10 00 00 00 	movl   $0x0,0x10(%esp)
    3f53:	00 
    3f54:	89 4c 24 08          	mov    %ecx,0x8(%esp)
    3f58:	c7 44 24 0c 00 00 00 	movl   $0x0,0xc(%esp)
    3f5f:	00 
    3f60:	8b 03                	mov    (%ebx),%eax
    3f62:	89 44 24 04          	mov    %eax,0x4(%esp)
    3f66:	8d 45 e4             	lea    -0x1c(%ebp),%eax
    3f69:	89 04 24             	mov    %eax,(%esp)
    3f6c:	e8 4f 1b 00 00       	call   5ac0 <block_get>
    3f71:	85 c0                	test   %eax,%eax
    3f73:	0f 85 a7 00 00 00    	jne    4020 <read_ind_zone.isra.0+0x100>
    3f79:	8b 45 e4             	mov    -0x1c(%ebp),%eax
    3f7c:	8b 4f 18             	mov    0x18(%edi),%ecx
    3f7f:	83 7f 28 01          	cmpl   $0x1,0x28(%edi)
    3f83:	8b 50 54             	mov    0x54(%eax),%edx
    3f86:	74 50                	je     3fd8 <read_ind_zone.isra.0+0xb8>
    3f88:	c1 e9 02             	shr    $0x2,%ecx
    3f8b:	74 38                	je     3fc5 <read_ind_zone.isra.0+0xa5>
    3f8d:	31 db                	xor    %ebx,%ebx
    3f8f:	90                   	nop
    3f90:	8b 06                	mov    (%esi),%eax
    3f92:	8d 0c 98             	lea    (%eax,%ebx,4),%ecx
    3f95:	8b 04 9a             	mov    (%edx,%ebx,4),%eax
    3f98:	89 44 24 04          	mov    %eax,0x4(%esp)
    3f9c:	31 c0                	xor    %eax,%eax
    3f9e:	8a 47 3d             	mov    0x3d(%edi),%al
    3fa1:	89 55 d0             	mov    %edx,-0x30(%ebp)
    3fa4:	89 04 24             	mov    %eax,(%esp)
    3fa7:	89 4d d4             	mov    %ecx,-0x2c(%ebp)
    3faa:	e8 c1 10 00 00       	call   5070 <conv32>
    3faf:	8b 4d d4             	mov    -0x2c(%ebp),%ecx
    3fb2:	43                   	inc    %ebx
    3fb3:	8b 55 d0             	mov    -0x30(%ebp),%edx
    3fb6:	89 01                	mov    %eax,(%ecx)
    3fb8:	8b 47 18             	mov    0x18(%edi),%eax
    3fbb:	c1 e8 02             	shr    $0x2,%eax
    3fbe:	39 c3                	cmp    %eax,%ebx
    3fc0:	72 ce                	jb     3f90 <read_ind_zone.isra.0+0x70>
    3fc2:	8b 45 e4             	mov    -0x1c(%ebp),%eax
    3fc5:	89 04 24             	mov    %eax,(%esp)
    3fc8:	e8 43 18 00 00       	call   5810 <block_put>
    3fcd:	83 c4 4c             	add    $0x4c,%esp
    3fd0:	5b                   	pop    %ebx
    3fd1:	5e                   	pop    %esi
    3fd2:	5f                   	pop    %edi
    3fd3:	5d                   	pop    %ebp
    3fd4:	c3                   	ret    
    3fd5:	8d 76 00             	lea    0x0(%esi),%esi
    3fd8:	d1 e9                	shr    %ecx
    3fda:	74 e9                	je     3fc5 <read_ind_zone.isra.0+0xa5>
    3fdc:	31 db                	xor    %ebx,%ebx
    3fde:	66 90                	xchg   %ax,%ax
    3fe0:	8b 06                	mov    (%esi),%eax
    3fe2:	8d 0c 98             	lea    (%eax,%ebx,4),%ecx
    3fe5:	66 8b 04 5a          	mov    (%edx,%ebx,2),%ax
    3fe9:	25 ff ff 00 00       	and    $0xffff,%eax
    3fee:	89 55 d0             	mov    %edx,-0x30(%ebp)
    3ff1:	89 44 24 04          	mov    %eax,0x4(%esp)
    3ff5:	31 c0                	xor    %eax,%eax
    3ff7:	8a 47 3d             	mov    0x3d(%edi),%al
    3ffa:	89 4d d4             	mov    %ecx,-0x2c(%ebp)
    3ffd:	89 04 24             	mov    %eax,(%esp)
    4000:	43                   	inc    %ebx
    4001:	e8 4a 10 00 00       	call   5050 <conv16>
    4006:	8b 4d d4             	mov    -0x2c(%ebp),%ecx
    4009:	25 ff ff 00 00       	and    $0xffff,%eax
    400e:	8b 55 d0             	mov    -0x30(%ebp),%edx
    4011:	89 01                	mov    %eax,(%ecx)
    4013:	8b 47 18             	mov    0x18(%edi),%eax
    4016:	d1 e8                	shr    %eax
    4018:	39 c3                	cmp    %eax,%ebx
    401a:	72 c4                	jb     3fe0 <read_ind_zone.isra.0+0xc0>
    401c:	eb a4                	jmp    3fc2 <read_ind_zone.isra.0+0xa2>
    401e:	66 90                	xchg   %ax,%ax
    4020:	8b 16                	mov    (%esi),%edx
    4022:	89 45 d4             	mov    %eax,-0x2c(%ebp)
    4025:	89 14 24             	mov    %edx,(%esp)
    4028:	e8 f3 3b 01 00       	call   17c20 <free>
    402d:	8b 45 d4             	mov    -0x2c(%ebp),%eax
    4030:	83 c4 4c             	add    $0x4c,%esp
    4033:	5b                   	pop    %ebx
    4034:	5e                   	pop    %esi
    4035:	5f                   	pop    %edi
    4036:	5d                   	pop    %ebp
    4037:	c3                   	ret    
    4038:	b8 fe ff ff ff       	mov    $0xfffffffe,%eax
    403d:	eb 8e                	jmp    3fcd <read_ind_zone.isra.0+0xad>
    403f:	90                   	nop

00004040 <write_ind_zone.isra.1>:
    4040:	55                   	push   %ebp
    4041:	89 e5                	mov    %esp,%ebp
    4043:	57                   	push   %edi
    4044:	56                   	push   %esi
    4045:	53                   	push   %ebx
    4046:	83 ec 4c             	sub    $0x4c,%esp
    4049:	89 d6                	mov    %edx,%esi
    404b:	89 44 24 04          	mov    %eax,0x4(%esp)
    404f:	8d 45 e4             	lea    -0x1c(%ebp),%eax
    4052:	c7 44 24 10 01 00 00 	movl   $0x1,0x10(%esp)
    4059:	00 
    405a:	89 4c 24 08          	mov    %ecx,0x8(%esp)
    405e:	c7 44 24 0c 00 00 00 	movl   $0x0,0xc(%esp)
    4065:	00 
    4066:	89 04 24             	mov    %eax,(%esp)
    4069:	e8 52 1a 00 00       	call   5ac0 <block_get>
    406e:	85 c0                	test   %eax,%eax
    4070:	75 4a                	jne    40bc <write_ind_zone.isra.1+0x7c>
    4072:	8b 45 e4             	mov    -0x1c(%ebp),%eax
    4075:	83 7e 28 01          	cmpl   $0x1,0x28(%esi)
    4079:	74 4d                	je     40c8 <write_ind_zone.isra.1+0x88>
    407b:	8b 4e 18             	mov    0x18(%esi),%ecx
    407e:	8b 78 54             	mov    0x54(%eax),%edi
    4081:	c1 e9 02             	shr    $0x2,%ecx
    4084:	74 2a                	je     40b0 <write_ind_zone.isra.1+0x70>
    4086:	31 db                	xor    %ebx,%ebx
    4088:	8b 55 08             	mov    0x8(%ebp),%edx
    408b:	8b 04 9a             	mov    (%edx,%ebx,4),%eax
    408e:	89 44 24 04          	mov    %eax,0x4(%esp)
    4092:	31 c0                	xor    %eax,%eax
    4094:	8a 46 3d             	mov    0x3d(%esi),%al
    4097:	89 04 24             	mov    %eax,(%esp)
    409a:	e8 d1 0f 00 00       	call   5070 <conv32>
    409f:	89 04 9f             	mov    %eax,(%edi,%ebx,4)
    40a2:	43                   	inc    %ebx
    40a3:	8b 46 18             	mov    0x18(%esi),%eax
    40a6:	c1 e8 02             	shr    $0x2,%eax
    40a9:	39 c3                	cmp    %eax,%ebx
    40ab:	72 db                	jb     4088 <write_ind_zone.isra.1+0x48>
    40ad:	8b 45 e4             	mov    -0x1c(%ebp),%eax
    40b0:	c6 40 14 01          	movb   $0x1,0x14(%eax)
    40b4:	89 04 24             	mov    %eax,(%esp)
    40b7:	e8 54 17 00 00       	call   5810 <block_put>
    40bc:	83 c4 4c             	add    $0x4c,%esp
    40bf:	5b                   	pop    %ebx
    40c0:	5e                   	pop    %esi
    40c1:	5f                   	pop    %edi
    40c2:	5d                   	pop    %ebp
    40c3:	c3                   	ret    
    40c4:	8d 74 26 00          	lea    0x0(%esi,%eiz,1),%esi
    40c8:	8b 4e 18             	mov    0x18(%esi),%ecx
    40cb:	8b 58 54             	mov    0x54(%eax),%ebx
    40ce:	d1 e9                	shr    %ecx
    40d0:	74 de                	je     40b0 <write_ind_zone.isra.1+0x70>
    40d2:	31 ff                	xor    %edi,%edi
    40d4:	8d 74 26 00          	lea    0x0(%esi,%eiz,1),%esi
    40d8:	8b 55 08             	mov    0x8(%ebp),%edx
    40db:	8b 14 ba             	mov    (%edx,%edi,4),%edx
    40de:	0f b7 c2             	movzwl %dx,%eax
    40e1:	89 44 24 04          	mov    %eax,0x4(%esp)
    40e5:	31 c0                	xor    %eax,%eax
    40e7:	8a 46 3d             	mov    0x3d(%esi),%al
    40ea:	89 04 24             	mov    %eax,(%esp)
    40ed:	e8 5e 0f 00 00       	call   5050 <conv16>
    40f2:	66 89 04 7b          	mov    %ax,(%ebx,%edi,2)
    40f6:	8b 46 18             	mov    0x18(%esi),%eax
    40f9:	d1 e8                	shr    %eax
    40fb:	47                   	inc    %edi
    40fc:	39 c7                	cmp    %eax,%edi
    40fe:	72 d8                	jb     40d8 <write_ind_zone.isra.1+0x98>
    4100:	eb ab                	jmp    40ad <write_ind_zone.isra.1+0x6d>
    4102:	8d b4 26 00 00 00 00 	lea    0x0(%esi,%eiz,1),%esi
    4109:	8d bc 27 00 00 00 00 	lea    0x0(%edi,%eiz,1),%edi

00004110 <rw_map_ondisk.isra.4>:
    4110:	55                   	push   %ebp
    4111:	89 e5                	mov    %esp,%ebp
    4113:	57                   	push   %edi
    4114:	56                   	push   %esi
    4115:	53                   	push   %ebx
    4116:	83 ec 5c             	sub    $0x5c,%esp
    4119:	89 d3                	mov    %edx,%ebx
    411b:	8a 55 0c             	mov    0xc(%ebp),%dl
    411e:	89 45 cc             	mov    %eax,-0x34(%ebp)
    4121:	88 55 d3             	mov    %dl,-0x2d(%ebp)
    4124:	8b 51 04             	mov    0x4(%ecx),%edx
    4127:	89 cf                	mov    %ecx,%edi
    4129:	8b 45 08             	mov    0x8(%ebp),%eax
    412c:	83 7a 28 01          	cmpl   $0x1,0x28(%edx)
    4130:	0f 84 92 01 00 00    	je     42c8 <rw_map_ondisk.isra.4+0x1b8>
    4136:	8b 4a 18             	mov    0x18(%edx),%ecx
    4139:	c1 e9 02             	shr    $0x2,%ecx
    413c:	89 4d d4             	mov    %ecx,-0x2c(%ebp)
    413f:	83 f8 06             	cmp    $0x6,%eax
    4142:	7f 2c                	jg     4170 <rw_map_ondisk.isra.4+0x60>
    4144:	83 c0 04             	add    $0x4,%eax
    4147:	8b 4d cc             	mov    -0x34(%ebp),%ecx
    414a:	31 f6                	xor    %esi,%esi
    414c:	8b 54 83 08          	mov    0x8(%ebx,%eax,4),%edx
    4150:	89 11                	mov    %edx,(%ecx)
    4152:	80 7d d3 00          	cmpb   $0x0,-0x2d(%ebp)
    4156:	74 0b                	je     4163 <rw_map_ondisk.isra.4+0x53>
    4158:	8b 55 10             	mov    0x10(%ebp),%edx
    415b:	c6 43 40 01          	movb   $0x1,0x40(%ebx)
    415f:	89 54 83 08          	mov    %edx,0x8(%ebx,%eax,4)
    4163:	83 c4 5c             	add    $0x5c,%esp
    4166:	89 f0                	mov    %esi,%eax
    4168:	5b                   	pop    %ebx
    4169:	5e                   	pop    %esi
    416a:	5f                   	pop    %edi
    416b:	5d                   	pop    %ebp
    416c:	c3                   	ret    
    416d:	8d 76 00             	lea    0x0(%esi),%esi
    4170:	8b 4d 10             	mov    0x10(%ebp),%ecx
    4173:	85 c9                	test   %ecx,%ecx
    4175:	8a 4d d3             	mov    -0x2d(%ebp),%cl
    4178:	0f 94 45 d2          	sete   -0x2e(%ebp)
    417c:	83 e8 07             	sub    $0x7,%eax
    417f:	20 4d d2             	and    %cl,-0x2e(%ebp)
    4182:	8b 4d d4             	mov    -0x2c(%ebp),%ecx
    4185:	89 45 c8             	mov    %eax,-0x38(%ebp)
    4188:	39 c8                	cmp    %ecx,%eax
    418a:	7d 2c                	jge    41b8 <rw_map_ondisk.isra.4+0xa8>
    418c:	8b 4b 34             	mov    0x34(%ebx),%ecx
    418f:	85 c9                	test   %ecx,%ecx
    4191:	0f 85 d9 01 00 00    	jne    4370 <rw_map_ondisk.isra.4+0x260>
    4197:	80 7d d2 00          	cmpb   $0x0,-0x2e(%ebp)
    419b:	0f 84 37 01 00 00    	je     42d8 <rw_map_ondisk.isra.4+0x1c8>
    41a1:	8b 45 cc             	mov    -0x34(%ebp),%eax
    41a4:	31 f6                	xor    %esi,%esi
    41a6:	c7 00 00 00 00 00    	movl   $0x0,(%eax)
    41ac:	83 c4 5c             	add    $0x5c,%esp
    41af:	89 f0                	mov    %esi,%eax
    41b1:	5b                   	pop    %ebx
    41b2:	5e                   	pop    %esi
    41b3:	5f                   	pop    %edi
    41b4:	5d                   	pop    %ebp
    41b5:	c3                   	ret    
    41b6:	66 90                	xchg   %ax,%ax
    41b8:	8b 4b 38             	mov    0x38(%ebx),%ecx
    41bb:	85 c9                	test   %ecx,%ecx
    41bd:	0f 85 9a 00 00 00    	jne    425d <rw_map_ondisk.isra.4+0x14d>
    41c3:	80 7d d2 00          	cmpb   $0x0,-0x2e(%ebp)
    41c7:	75 d8                	jne    41a1 <rw_map_ondisk.isra.4+0x91>
    41c9:	80 7d d3 00          	cmpb   $0x0,-0x2d(%ebp)
    41cd:	74 d2                	je     41a1 <rw_map_ondisk.isra.4+0x91>
    41cf:	8d 45 e0             	lea    -0x20(%ebp),%eax
    41d2:	89 3c 24             	mov    %edi,(%esp)
    41d5:	89 44 24 04          	mov    %eax,0x4(%esp)
    41d9:	e8 02 0e 00 00       	call   4fe0 <mfs_alloc_zone>
    41de:	89 c6                	mov    %eax,%esi
    41e0:	85 c0                	test   %eax,%eax
    41e2:	0f 85 7b ff ff ff    	jne    4163 <rw_map_ondisk.isra.4+0x53>
    41e8:	8b 07                	mov    (%edi),%eax
    41ea:	8b 4d e0             	mov    -0x20(%ebp),%ecx
    41ed:	89 44 24 04          	mov    %eax,0x4(%esp)
    41f1:	8d 45 e4             	lea    -0x1c(%ebp),%eax
    41f4:	c7 44 24 10 01 00 00 	movl   $0x1,0x10(%esp)
    41fb:	00 
    41fc:	89 4c 24 08          	mov    %ecx,0x8(%esp)
    4200:	c7 44 24 0c 00 00 00 	movl   $0x0,0xc(%esp)
    4207:	00 
    4208:	89 04 24             	mov    %eax,(%esp)
    420b:	e8 b0 18 00 00       	call   5ac0 <block_get>
    4210:	89 c6                	mov    %eax,%esi
    4212:	85 c0                	test   %eax,%eax
    4214:	0f 85 49 ff ff ff    	jne    4163 <rw_map_ondisk.isra.4+0x53>
    421a:	8b 45 e4             	mov    -0x1c(%ebp),%eax
    421d:	8b 50 40             	mov    0x40(%eax),%edx
    4220:	c7 44 24 04 00 00 00 	movl   $0x0,0x4(%esp)
    4227:	00 
    4228:	89 54 24 08          	mov    %edx,0x8(%esp)
    422c:	8b 40 54             	mov    0x54(%eax),%eax
    422f:	89 04 24             	mov    %eax,(%esp)
    4232:	e8 19 6b 00 00       	call   ad50 <memset>
    4237:	8b 45 e4             	mov    -0x1c(%ebp),%eax
    423a:	c6 40 14 01          	movb   $0x1,0x14(%eax)
    423e:	89 04 24             	mov    %eax,(%esp)
    4241:	e8 ca 15 00 00       	call   5810 <block_put>
    4246:	89 c6                	mov    %eax,%esi
    4248:	85 c0                	test   %eax,%eax
    424a:	0f 85 13 ff ff ff    	jne    4163 <rw_map_ondisk.isra.4+0x53>
    4250:	8b 4d e0             	mov    -0x20(%ebp),%ecx
    4253:	c6 43 40 01          	movb   $0x1,0x40(%ebx)
    4257:	89 4b 38             	mov    %ecx,0x38(%ebx)
    425a:	8b 57 04             	mov    0x4(%edi),%edx
    425d:	8d 45 dc             	lea    -0x24(%ebp),%eax
    4260:	89 04 24             	mov    %eax,(%esp)
    4263:	89 f8                	mov    %edi,%eax
    4265:	e8 b6 fc ff ff       	call   3f20 <read_ind_zone.isra.0>
    426a:	89 c6                	mov    %eax,%esi
    426c:	85 c0                	test   %eax,%eax
    426e:	0f 85 ef fe ff ff    	jne    4163 <rw_map_ondisk.isra.4+0x53>
    4274:	8b 55 c8             	mov    -0x38(%ebp),%edx
    4277:	8b 45 d4             	mov    -0x2c(%ebp),%eax
    427a:	29 c2                	sub    %eax,%edx
    427c:	89 d0                	mov    %edx,%eax
    427e:	89 55 c8             	mov    %edx,-0x38(%ebp)
    4281:	c1 fa 1f             	sar    $0x1f,%edx
    4284:	f7 7d d4             	idivl  -0x2c(%ebp)
    4287:	89 45 c4             	mov    %eax,-0x3c(%ebp)
    428a:	8b 45 dc             	mov    -0x24(%ebp),%eax
    428d:	8b 55 c4             	mov    -0x3c(%ebp),%edx
    4290:	c1 e2 02             	shl    $0x2,%edx
    4293:	89 55 c0             	mov    %edx,-0x40(%ebp)
    4296:	8b 0c 10             	mov    (%eax,%edx,1),%ecx
    4299:	85 c9                	test   %ecx,%ecx
    429b:	0f 85 27 01 00 00    	jne    43c8 <rw_map_ondisk.isra.4+0x2b8>
    42a1:	80 7d d2 00          	cmpb   $0x0,-0x2e(%ebp)
    42a5:	0f 84 6d 01 00 00    	je     4418 <rw_map_ondisk.isra.4+0x308>
    42ab:	8b 55 cc             	mov    -0x34(%ebp),%edx
    42ae:	c7 02 00 00 00 00    	movl   $0x0,(%edx)
    42b4:	89 04 24             	mov    %eax,(%esp)
    42b7:	e8 64 39 01 00       	call   17c20 <free>
    42bc:	83 c4 5c             	add    $0x5c,%esp
    42bf:	89 f0                	mov    %esi,%eax
    42c1:	5b                   	pop    %ebx
    42c2:	5e                   	pop    %esi
    42c3:	5f                   	pop    %edi
    42c4:	5d                   	pop    %ebp
    42c5:	c3                   	ret    
    42c6:	66 90                	xchg   %ax,%ax
    42c8:	c7 45 d4 00 02 00 00 	movl   $0x200,-0x2c(%ebp)
    42cf:	e9 6b fe ff ff       	jmp    413f <rw_map_ondisk.isra.4+0x2f>
    42d4:	8d 74 26 00          	lea    0x0(%esi,%eiz,1),%esi
    42d8:	80 7d d3 00          	cmpb   $0x0,-0x2d(%ebp)
    42dc:	0f 84 bf fe ff ff    	je     41a1 <rw_map_ondisk.isra.4+0x91>
    42e2:	8d 45 e0             	lea    -0x20(%ebp),%eax
    42e5:	89 3c 24             	mov    %edi,(%esp)
    42e8:	89 44 24 04          	mov    %eax,0x4(%esp)
    42ec:	e8 ef 0c 00 00       	call   4fe0 <mfs_alloc_zone>
    42f1:	89 c6                	mov    %eax,%esi
    42f3:	85 c0                	test   %eax,%eax
    42f5:	0f 85 68 fe ff ff    	jne    4163 <rw_map_ondisk.isra.4+0x53>
    42fb:	8b 45 e0             	mov    -0x20(%ebp),%eax
    42fe:	c7 44 24 10 01 00 00 	movl   $0x1,0x10(%esp)
    4305:	00 
    4306:	89 44 24 08          	mov    %eax,0x8(%esp)
    430a:	8b 07                	mov    (%edi),%eax
    430c:	89 44 24 04          	mov    %eax,0x4(%esp)
    4310:	8d 45 e4             	lea    -0x1c(%ebp),%eax
    4313:	c7 44 24 0c 00 00 00 	movl   $0x0,0xc(%esp)
    431a:	00 
    431b:	89 04 24             	mov    %eax,(%esp)
    431e:	e8 9d 17 00 00       	call   5ac0 <block_get>
    4323:	89 c6                	mov    %eax,%esi
    4325:	85 c0                	test   %eax,%eax
    4327:	0f 85 36 fe ff ff    	jne    4163 <rw_map_ondisk.isra.4+0x53>
    432d:	8b 45 e4             	mov    -0x1c(%ebp),%eax
    4330:	8b 50 40             	mov    0x40(%eax),%edx
    4333:	c7 44 24 04 00 00 00 	movl   $0x0,0x4(%esp)
    433a:	00 
    433b:	89 54 24 08          	mov    %edx,0x8(%esp)
    433f:	8b 40 54             	mov    0x54(%eax),%eax
    4342:	89 04 24             	mov    %eax,(%esp)
    4345:	e8 06 6a 00 00       	call   ad50 <memset>
    434a:	8b 45 e4             	mov    -0x1c(%ebp),%eax
    434d:	c6 40 14 01          	movb   $0x1,0x14(%eax)
    4351:	89 04 24             	mov    %eax,(%esp)
    4354:	e8 b7 14 00 00       	call   5810 <block_put>
    4359:	89 c6                	mov    %eax,%esi
    435b:	85 c0                	test   %eax,%eax
    435d:	0f 85 00 fe ff ff    	jne    4163 <rw_map_ondisk.isra.4+0x53>
    4363:	8b 4d e0             	mov    -0x20(%ebp),%ecx
    4366:	c6 43 40 01          	movb   $0x1,0x40(%ebx)
    436a:	89 4b 34             	mov    %ecx,0x34(%ebx)
    436d:	8b 57 04             	mov    0x4(%edi),%edx
    4370:	8d 45 dc             	lea    -0x24(%ebp),%eax
    4373:	89 04 24             	mov    %eax,(%esp)
    4376:	89 f8                	mov    %edi,%eax
    4378:	e8 a3 fb ff ff       	call   3f20 <read_ind_zone.isra.0>
    437d:	89 c6                	mov    %eax,%esi
    437f:	85 c0                	test   %eax,%eax
    4381:	0f 85 dc fd ff ff    	jne    4163 <rw_map_ondisk.isra.4+0x53>
    4387:	8b 45 dc             	mov    -0x24(%ebp),%eax
    438a:	8b 55 c8             	mov    -0x38(%ebp),%edx
    438d:	80 7d d3 00          	cmpb   $0x0,-0x2d(%ebp)
    4391:	8d 14 90             	lea    (%eax,%edx,4),%edx
    4394:	89 55 d4             	mov    %edx,-0x2c(%ebp)
    4397:	8b 0a                	mov    (%edx),%ecx
    4399:	8b 55 cc             	mov    -0x34(%ebp),%edx
    439c:	89 0a                	mov    %ecx,(%edx)
    439e:	0f 84 10 ff ff ff    	je     42b4 <rw_map_ondisk.isra.4+0x1a4>
    43a4:	8b 4d d4             	mov    -0x2c(%ebp),%ecx
    43a7:	8b 55 10             	mov    0x10(%ebp),%edx
    43aa:	89 11                	mov    %edx,(%ecx)
    43ac:	8b 4b 34             	mov    0x34(%ebx),%ecx
    43af:	8b 57 04             	mov    0x4(%edi),%edx
    43b2:	89 04 24             	mov    %eax,(%esp)
    43b5:	8b 07                	mov    (%edi),%eax
    43b7:	e8 84 fc ff ff       	call   4040 <write_ind_zone.isra.1>
    43bc:	8b 45 dc             	mov    -0x24(%ebp),%eax
    43bf:	e9 f0 fe ff ff       	jmp    42b4 <rw_map_ondisk.isra.4+0x1a4>
    43c4:	8d 74 26 00          	lea    0x0(%esi,%eiz,1),%esi
    43c8:	8d 5d e4             	lea    -0x1c(%ebp),%ebx
    43cb:	89 5d bc             	mov    %ebx,-0x44(%ebp)
    43ce:	8b 57 04             	mov    0x4(%edi),%edx
    43d1:	89 1c 24             	mov    %ebx,(%esp)
    43d4:	89 f8                	mov    %edi,%eax
    43d6:	e8 45 fb ff ff       	call   3f20 <read_ind_zone.isra.0>
    43db:	89 c6                	mov    %eax,%esi
    43dd:	85 c0                	test   %eax,%eax
    43df:	75 2d                	jne    440e <rw_map_ondisk.isra.4+0x2fe>
    43e1:	8b 4d d4             	mov    -0x2c(%ebp),%ecx
    43e4:	8b 55 c4             	mov    -0x3c(%ebp),%edx
    43e7:	0f af d1             	imul   %ecx,%edx
    43ea:	8b 4d c8             	mov    -0x38(%ebp),%ecx
    43ed:	8b 45 e4             	mov    -0x1c(%ebp),%eax
    43f0:	29 d1                	sub    %edx,%ecx
    43f2:	8b 5d cc             	mov    -0x34(%ebp),%ebx
    43f5:	80 7d d3 00          	cmpb   $0x0,-0x2d(%ebp)
    43f9:	8d 14 88             	lea    (%eax,%ecx,4),%edx
    43fc:	8b 0a                	mov    (%edx),%ecx
    43fe:	89 0b                	mov    %ecx,(%ebx)
    4400:	0f 85 c5 00 00 00    	jne    44cb <rw_map_ondisk.isra.4+0x3bb>
    4406:	89 04 24             	mov    %eax,(%esp)
    4409:	e8 12 38 01 00       	call   17c20 <free>
    440e:	8b 45 dc             	mov    -0x24(%ebp),%eax
    4411:	e9 9e fe ff ff       	jmp    42b4 <rw_map_ondisk.isra.4+0x1a4>
    4416:	66 90                	xchg   %ax,%ax
    4418:	80 7d d3 00          	cmpb   $0x0,-0x2d(%ebp)
    441c:	0f 84 89 fe ff ff    	je     42ab <rw_map_ondisk.isra.4+0x19b>
    4422:	8d 45 e0             	lea    -0x20(%ebp),%eax
    4425:	89 3c 24             	mov    %edi,(%esp)
    4428:	89 44 24 04          	mov    %eax,0x4(%esp)
    442c:	e8 af 0b 00 00       	call   4fe0 <mfs_alloc_zone>
    4431:	89 c6                	mov    %eax,%esi
    4433:	85 c0                	test   %eax,%eax
    4435:	75 d7                	jne    440e <rw_map_ondisk.isra.4+0x2fe>
    4437:	8b 45 e0             	mov    -0x20(%ebp),%eax
    443a:	8d 55 e4             	lea    -0x1c(%ebp),%edx
    443d:	89 44 24 08          	mov    %eax,0x8(%esp)
    4441:	8b 07                	mov    (%edi),%eax
    4443:	c7 44 24 10 01 00 00 	movl   $0x1,0x10(%esp)
    444a:	00 
    444b:	c7 44 24 0c 00 00 00 	movl   $0x0,0xc(%esp)
    4452:	00 
    4453:	89 44 24 04          	mov    %eax,0x4(%esp)
    4457:	89 14 24             	mov    %edx,(%esp)
    445a:	89 55 bc             	mov    %edx,-0x44(%ebp)
    445d:	e8 5e 16 00 00       	call   5ac0 <block_get>
    4462:	89 c6                	mov    %eax,%esi
    4464:	85 c0                	test   %eax,%eax
    4466:	75 a6                	jne    440e <rw_map_ondisk.isra.4+0x2fe>
    4468:	8b 45 e4             	mov    -0x1c(%ebp),%eax
    446b:	8b 50 40             	mov    0x40(%eax),%edx
    446e:	c7 44 24 04 00 00 00 	movl   $0x0,0x4(%esp)
    4475:	00 
    4476:	89 54 24 08          	mov    %edx,0x8(%esp)
    447a:	8b 40 54             	mov    0x54(%eax),%eax
    447d:	89 04 24             	mov    %eax,(%esp)
    4480:	e8 cb 68 00 00       	call   ad50 <memset>
    4485:	8b 45 e4             	mov    -0x1c(%ebp),%eax
    4488:	c6 40 14 01          	movb   $0x1,0x14(%eax)
    448c:	89 04 24             	mov    %eax,(%esp)
    448f:	e8 7c 13 00 00       	call   5810 <block_put>
    4494:	89 c6                	mov    %eax,%esi
    4496:	85 c0                	test   %eax,%eax
    4498:	0f 85 70 ff ff ff    	jne    440e <rw_map_ondisk.isra.4+0x2fe>
    449e:	8b 45 dc             	mov    -0x24(%ebp),%eax
    44a1:	8b 4d c0             	mov    -0x40(%ebp),%ecx
    44a4:	8b 55 e0             	mov    -0x20(%ebp),%edx
    44a7:	89 14 08             	mov    %edx,(%eax,%ecx,1)
    44aa:	8b 4b 38             	mov    0x38(%ebx),%ecx
    44ad:	8b 57 04             	mov    0x4(%edi),%edx
    44b0:	89 04 24             	mov    %eax,(%esp)
    44b3:	8b 07                	mov    (%edi),%eax
    44b5:	e8 86 fb ff ff       	call   4040 <write_ind_zone.isra.1>
    44ba:	8b 5d c0             	mov    -0x40(%ebp),%ebx
    44bd:	8b 45 dc             	mov    -0x24(%ebp),%eax
    44c0:	8b 0c 18             	mov    (%eax,%ebx,1),%ecx
    44c3:	8b 5d bc             	mov    -0x44(%ebp),%ebx
    44c6:	e9 03 ff ff ff       	jmp    43ce <rw_map_ondisk.isra.4+0x2be>
    44cb:	8b 4d 10             	mov    0x10(%ebp),%ecx
    44ce:	8b 5d c0             	mov    -0x40(%ebp),%ebx
    44d1:	89 0a                	mov    %ecx,(%edx)
    44d3:	8b 55 dc             	mov    -0x24(%ebp),%edx
    44d6:	8b 0c 1a             	mov    (%edx,%ebx,1),%ecx
    44d9:	89 04 24             	mov    %eax,(%esp)
    44dc:	8b 57 04             	mov    0x4(%edi),%edx
    44df:	8b 07                	mov    (%edi),%eax
    44e1:	e8 5a fb ff ff       	call   4040 <write_ind_zone.isra.1>
    44e6:	8b 45 e4             	mov    -0x1c(%ebp),%eax
    44e9:	e9 18 ff ff ff       	jmp    4406 <rw_map_ondisk.isra.4+0x2f6>
    44ee:	66 90                	xchg   %ax,%ax

000044f0 <mfs_read_map>:
    44f0:	55                   	push   %ebp
    44f1:	89 e5                	mov    %esp,%ebp
    44f3:	57                   	push   %edi
    44f4:	56                   	push   %esi
    44f5:	53                   	push   %ebx
    44f6:	83 ec 1c             	sub    $0x1c,%esp
    44f9:	8b 45 0c             	mov    0xc(%ebp),%eax
    44fc:	8b 55 10             	mov    0x10(%ebp),%edx
    44ff:	89 55 e4             	mov    %edx,-0x1c(%ebp)
    4502:	8b 7d 08             	mov    0x8(%ebp),%edi
    4505:	8b 48 04             	mov    0x4(%eax),%ecx
    4508:	8b 30                	mov    (%eax),%esi
    450a:	8b 51 04             	mov    0x4(%ecx),%edx
    450d:	8b 46 08             	mov    0x8(%esi),%eax
    4510:	8b 5a 18             	mov    0x18(%edx),%ebx
    4513:	31 d2                	xor    %edx,%edx
    4515:	f7 f3                	div    %ebx
    4517:	85 d2                	test   %edx,%edx
    4519:	0f 95 c2             	setne  %dl
    451c:	81 e2 ff 00 00 00    	and    $0xff,%edx
    4522:	01 d0                	add    %edx,%eax
    4524:	0f af c3             	imul   %ebx,%eax
    4527:	39 45 e4             	cmp    %eax,-0x1c(%ebp)
    452a:	76 14                	jbe    4540 <mfs_read_map+0x50>
    452c:	c7 07 00 00 00 00    	movl   $0x0,(%edi)
    4532:	83 c4 1c             	add    $0x1c,%esp
    4535:	31 c0                	xor    %eax,%eax
    4537:	5b                   	pop    %ebx
    4538:	5e                   	pop    %esi
    4539:	5f                   	pop    %edi
    453a:	5d                   	pop    %ebp
    453b:	c3                   	ret    
    453c:	8d 74 26 00          	lea    0x0(%esi,%eiz,1),%esi
    4540:	8b 45 e4             	mov    -0x1c(%ebp),%eax
    4543:	31 d2                	xor    %edx,%edx
    4545:	f7 f3                	div    %ebx
    4547:	89 45 08             	mov    %eax,0x8(%ebp)
    454a:	c7 45 10 00 00 00 00 	movl   $0x0,0x10(%ebp)
    4551:	c7 45 0c 00 00 00 00 	movl   $0x0,0xc(%ebp)
    4558:	83 c4 1c             	add    $0x1c,%esp
    455b:	89 f2                	mov    %esi,%edx
    455d:	89 f8                	mov    %edi,%eax
    455f:	5b                   	pop    %ebx
    4560:	5e                   	pop    %esi
    4561:	5f                   	pop    %edi
    4562:	5d                   	pop    %ebp
    4563:	e9 a8 fb ff ff       	jmp    4110 <rw_map_ondisk.isra.4>
    4568:	90                   	nop
    4569:	8d b4 26 00 00 00 00 	lea    0x0(%esi,%eiz,1),%esi

00004570 <mfs_write_map>:
    4570:	55                   	push   %ebp
    4571:	89 e5                	mov    %esp,%ebp
    4573:	57                   	push   %edi
    4574:	56                   	push   %esi
    4575:	53                   	push   %ebx
    4576:	8b 75 08             	mov    0x8(%ebp),%esi
    4579:	8b 45 0c             	mov    0xc(%ebp),%eax
    457c:	8b 7d 14             	mov    0x14(%ebp),%edi
    457f:	8b 4e 04             	mov    0x4(%esi),%ecx
    4582:	8b 59 04             	mov    0x4(%ecx),%ebx
    4585:	39 43 1c             	cmp    %eax,0x1c(%ebx)
    4588:	76 1e                	jbe    45a8 <mfs_write_map+0x38>
    458a:	c7 45 0c 01 00 00 00 	movl   $0x1,0xc(%ebp)
    4591:	31 d2                	xor    %edx,%edx
    4593:	f7 73 18             	divl   0x18(%ebx)
    4596:	89 45 08             	mov    %eax,0x8(%ebp)
    4599:	89 f8                	mov    %edi,%eax
    459b:	8b 16                	mov    (%esi),%edx
    459d:	5b                   	pop    %ebx
    459e:	5e                   	pop    %esi
    459f:	5f                   	pop    %edi
    45a0:	5d                   	pop    %ebp
    45a1:	e9 6a fb ff ff       	jmp    4110 <rw_map_ondisk.isra.4>
    45a6:	66 90                	xchg   %ax,%ax
    45a8:	5b                   	pop    %ebx
    45a9:	b8 f2 ff ff ff       	mov    $0xfffffff2,%eax
    45ae:	5e                   	pop    %esi
    45af:	5f                   	pop    %edi
    45b0:	5d                   	pop    %ebp
    45b1:	c3                   	ret    
    45b2:	8d b4 26 00 00 00 00 	lea    0x0(%esi,%eiz,1),%esi
    45b9:	8d bc 27 00 00 00 00 	lea    0x0(%edi,%eiz,1),%edi

000045c0 <mfs_prune_ind_zones>:
    45c0:	55                   	push   %ebp
    45c1:	89 e5                	mov    %esp,%ebp
    45c3:	57                   	push   %edi
    45c4:	56                   	push   %esi
    45c5:	53                   	push   %ebx
    45c6:	83 ec 4c             	sub    $0x4c,%esp
    45c9:	8b 55 08             	mov    0x8(%ebp),%edx
    45cc:	8b 45 0c             	mov    0xc(%ebp),%eax
    45cf:	8b 72 04             	mov    0x4(%edx),%esi
    45d2:	8b 3a                	mov    (%edx),%edi
    45d4:	8b 4e 04             	mov    0x4(%esi),%ecx
    45d7:	39 47 08             	cmp    %eax,0x8(%edi)
    45da:	8b 51 28             	mov    0x28(%ecx),%edx
    45dd:	0f 82 5c 01 00 00    	jb     473f <mfs_prune_ind_zones+0x17f>
    45e3:	8b 49 18             	mov    0x18(%ecx),%ecx
    45e6:	4a                   	dec    %edx
    45e7:	0f 84 cb 00 00 00    	je     46b8 <mfs_prune_ind_zones+0xf8>
    45ed:	89 cb                	mov    %ecx,%ebx
    45ef:	c1 eb 02             	shr    $0x2,%ebx
    45f2:	31 d2                	xor    %edx,%edx
    45f4:	f7 f1                	div    %ecx
    45f6:	89 c1                	mov    %eax,%ecx
    45f8:	83 f8 06             	cmp    $0x6,%eax
    45fb:	7f 0b                	jg     4608 <mfs_prune_ind_zones+0x48>
    45fd:	8b 47 34             	mov    0x34(%edi),%eax
    4600:	85 c0                	test   %eax,%eax
    4602:	0f 85 c0 00 00 00    	jne    46c8 <mfs_prune_ind_zones+0x108>
    4608:	8d 43 07             	lea    0x7(%ebx),%eax
    460b:	c7 45 d0 00 00 00 00 	movl   $0x0,-0x30(%ebp)
    4612:	29 c1                	sub    %eax,%ecx
    4614:	89 ca                	mov    %ecx,%edx
    4616:	89 c8                	mov    %ecx,%eax
    4618:	83 f2 ff             	xor    $0xffffffff,%edx
    461b:	8b 4f 38             	mov    0x38(%edi),%ecx
    461e:	c1 fa 1f             	sar    $0x1f,%edx
    4621:	21 d0                	and    %edx,%eax
    4623:	89 c2                	mov    %eax,%edx
    4625:	c1 fa 1f             	sar    $0x1f,%edx
    4628:	f7 fb                	idiv   %ebx
    462a:	89 c2                	mov    %eax,%edx
    462c:	89 45 d4             	mov    %eax,-0x2c(%ebp)
    462f:	c1 fa 1f             	sar    $0x1f,%edx
    4632:	f7 fb                	idiv   %ebx
    4634:	83 fa 01             	cmp    $0x1,%edx
    4637:	83 5d d4 ff          	sbbl   $0xffffffff,-0x2c(%ebp)
    463b:	85 c9                	test   %ecx,%ecx
    463d:	75 11                	jne    4650 <mfs_prune_ind_zones+0x90>
    463f:	8b 45 d0             	mov    -0x30(%ebp),%eax
    4642:	83 c4 4c             	add    $0x4c,%esp
    4645:	5b                   	pop    %ebx
    4646:	5e                   	pop    %esi
    4647:	5f                   	pop    %edi
    4648:	5d                   	pop    %ebp
    4649:	c3                   	ret    
    464a:	8d b6 00 00 00 00    	lea    0x0(%esi),%esi
    4650:	8d 45 e4             	lea    -0x1c(%ebp),%eax
    4653:	8b 56 04             	mov    0x4(%esi),%edx
    4656:	89 04 24             	mov    %eax,(%esp)
    4659:	89 f0                	mov    %esi,%eax
    465b:	e8 c0 f8 ff ff       	call   3f20 <read_ind_zone.isra.0>
    4660:	89 45 d0             	mov    %eax,-0x30(%ebp)
    4663:	85 c0                	test   %eax,%eax
    4665:	75 d8                	jne    463f <mfs_prune_ind_zones+0x7f>
    4667:	8b 55 d4             	mov    -0x2c(%ebp),%edx
    466a:	8b 4d d4             	mov    -0x2c(%ebp),%ecx
    466d:	c1 e2 02             	shl    $0x2,%edx
    4670:	39 cb                	cmp    %ecx,%ebx
    4672:	0f 8e 86 00 00 00    	jle    46fe <mfs_prune_ind_zones+0x13e>
    4678:	89 75 cc             	mov    %esi,-0x34(%ebp)
    467b:	89 7d c8             	mov    %edi,-0x38(%ebp)
    467e:	89 ce                	mov    %ecx,%esi
    4680:	89 d7                	mov    %edx,%edi
    4682:	eb 0c                	jmp    4690 <mfs_prune_ind_zones+0xd0>
    4684:	8d 74 26 00          	lea    0x0(%esi,%eiz,1),%esi
    4688:	46                   	inc    %esi
    4689:	83 c7 04             	add    $0x4,%edi
    468c:	39 de                	cmp    %ebx,%esi
    468e:	74 68                	je     46f8 <mfs_prune_ind_zones+0x138>
    4690:	8b 45 e4             	mov    -0x1c(%ebp),%eax
    4693:	8b 04 38             	mov    (%eax,%edi,1),%eax
    4696:	85 c0                	test   %eax,%eax
    4698:	74 ee                	je     4688 <mfs_prune_ind_zones+0xc8>
    469a:	89 44 24 04          	mov    %eax,0x4(%esp)
    469e:	8b 45 cc             	mov    -0x34(%ebp),%eax
    46a1:	89 04 24             	mov    %eax,(%esp)
    46a4:	e8 77 09 00 00       	call   5020 <mfs_free_zone>
    46a9:	85 c0                	test   %eax,%eax
    46ab:	74 db                	je     4688 <mfs_prune_ind_zones+0xc8>
    46ad:	89 45 d0             	mov    %eax,-0x30(%ebp)
    46b0:	eb 53                	jmp    4705 <mfs_prune_ind_zones+0x145>
    46b2:	8d b6 00 00 00 00    	lea    0x0(%esi),%esi
    46b8:	bb 00 02 00 00       	mov    $0x200,%ebx
    46bd:	e9 30 ff ff ff       	jmp    45f2 <mfs_prune_ind_zones+0x32>
    46c2:	8d b6 00 00 00 00    	lea    0x0(%esi),%esi
    46c8:	89 44 24 04          	mov    %eax,0x4(%esp)
    46cc:	89 34 24             	mov    %esi,(%esp)
    46cf:	89 4d c4             	mov    %ecx,-0x3c(%ebp)
    46d2:	e8 49 09 00 00       	call   5020 <mfs_free_zone>
    46d7:	8b 4d c4             	mov    -0x3c(%ebp),%ecx
    46da:	89 45 d0             	mov    %eax,-0x30(%ebp)
    46dd:	85 c0                	test   %eax,%eax
    46df:	0f 85 5a ff ff ff    	jne    463f <mfs_prune_ind_zones+0x7f>
    46e5:	c7 47 34 00 00 00 00 	movl   $0x0,0x34(%edi)
    46ec:	c6 47 40 01          	movb   $0x1,0x40(%edi)
    46f0:	e9 13 ff ff ff       	jmp    4608 <mfs_prune_ind_zones+0x48>
    46f5:	8d 76 00             	lea    0x0(%esi),%esi
    46f8:	8b 75 cc             	mov    -0x34(%ebp),%esi
    46fb:	8b 7d c8             	mov    -0x38(%ebp),%edi
    46fe:	8b 5d d4             	mov    -0x2c(%ebp),%ebx
    4701:	85 db                	test   %ebx,%ebx
    4703:	74 1b                	je     4720 <mfs_prune_ind_zones+0x160>
    4705:	8b 45 e4             	mov    -0x1c(%ebp),%eax
    4708:	89 04 24             	mov    %eax,(%esp)
    470b:	e8 10 35 01 00       	call   17c20 <free>
    4710:	8b 45 d0             	mov    -0x30(%ebp),%eax
    4713:	83 c4 4c             	add    $0x4c,%esp
    4716:	5b                   	pop    %ebx
    4717:	5e                   	pop    %esi
    4718:	5f                   	pop    %edi
    4719:	5d                   	pop    %ebp
    471a:	c3                   	ret    
    471b:	90                   	nop
    471c:	8d 74 26 00          	lea    0x0(%esi,%eiz,1),%esi
    4720:	8b 47 38             	mov    0x38(%edi),%eax
    4723:	89 34 24             	mov    %esi,(%esp)
    4726:	89 44 24 04          	mov    %eax,0x4(%esp)
    472a:	e8 f1 08 00 00       	call   5020 <mfs_free_zone>
    472f:	c7 47 38 00 00 00 00 	movl   $0x0,0x38(%edi)
    4736:	89 45 d0             	mov    %eax,-0x30(%ebp)
    4739:	c6 47 40 01          	movb   $0x1,0x40(%edi)
    473d:	eb c6                	jmp    4705 <mfs_prune_ind_zones+0x145>
    473f:	c7 44 24 08 fd 00 00 	movl   $0xfd,0x8(%esp)
    4746:	00 
    4747:	c7 44 24 04 39 4a 02 	movl   $0x24a39,0x4(%esp)
    474e:	00 
    474f:	c7 04 24 42 4a 02 00 	movl   $0x24a42,(%esp)
    4756:	e8 95 db 01 00       	call   222f0 <assert_abort>
    475b:	66 90                	xchg   %ax,%ax
    475d:	66 90                	xchg   %ax,%ax
    475f:	90                   	nop

00004760 <mfs_read_dentry>:
    4760:	55                   	push   %ebp
    4761:	89 e5                	mov    %esp,%ebp
    4763:	57                   	push   %edi
    4764:	56                   	push   %esi
    4765:	53                   	push   %ebx
    4766:	83 ec 4c             	sub    $0x4c,%esp
    4769:	8b 5d 08             	mov    0x8(%ebp),%ebx
    476c:	8b 45 10             	mov    0x10(%ebp),%eax
    476f:	8b 7b 04             	mov    0x4(%ebx),%edi
    4772:	8b 77 04             	mov    0x4(%edi),%esi
    4775:	8a 4e 3c             	mov    0x3c(%esi),%cl
    4778:	88 4d d4             	mov    %cl,-0x2c(%ebp)
    477b:	8b 4e 30             	mov    0x30(%esi),%ecx
    477e:	0f af c1             	imul   %ecx,%eax
    4781:	89 44 24 08          	mov    %eax,0x8(%esp)
    4785:	8d 45 e0             	lea    -0x20(%ebp),%eax
    4788:	89 5c 24 04          	mov    %ebx,0x4(%esp)
    478c:	89 04 24             	mov    %eax,(%esp)
    478f:	e8 5c fd ff ff       	call   44f0 <mfs_read_map>
    4794:	85 c0                	test   %eax,%eax
    4796:	75 07                	jne    479f <mfs_read_dentry+0x3f>
    4798:	8b 55 e0             	mov    -0x20(%ebp),%edx
    479b:	85 d2                	test   %edx,%edx
    479d:	75 09                	jne    47a8 <mfs_read_dentry+0x48>
    479f:	83 c4 4c             	add    $0x4c,%esp
    47a2:	5b                   	pop    %ebx
    47a3:	5e                   	pop    %esi
    47a4:	5f                   	pop    %edi
    47a5:	5d                   	pop    %ebp
    47a6:	c3                   	ret    
    47a7:	90                   	nop
    47a8:	c7 44 24 10 00 00 00 	movl   $0x0,0x10(%esp)
    47af:	00 
    47b0:	89 54 24 08          	mov    %edx,0x8(%esp)
    47b4:	c7 44 24 0c 00 00 00 	movl   $0x0,0xc(%esp)
    47bb:	00 
    47bc:	8b 07                	mov    (%edi),%eax
    47be:	89 44 24 04          	mov    %eax,0x4(%esp)
    47c2:	8d 45 e4             	lea    -0x1c(%ebp),%eax
    47c5:	89 04 24             	mov    %eax,(%esp)
    47c8:	e8 f3 12 00 00       	call   5ac0 <block_get>
    47cd:	85 c0                	test   %eax,%eax
    47cf:	75 ce                	jne    479f <mfs_read_dentry+0x3f>
    47d1:	31 d2                	xor    %edx,%edx
    47d3:	8b 46 18             	mov    0x18(%esi),%eax
    47d6:	f7 76 30             	divl   0x30(%esi)
    47d9:	89 c7                	mov    %eax,%edi
    47db:	31 d2                	xor    %edx,%edx
    47dd:	8b 45 10             	mov    0x10(%ebp),%eax
    47e0:	f7 f7                	div    %edi
    47e2:	83 7e 28 03          	cmpl   $0x3,0x28(%esi)
    47e6:	0f 84 bc 00 00 00    	je     48a8 <mfs_read_dentry+0x148>
    47ec:	80 7d d4 00          	cmpb   $0x0,-0x2c(%ebp)
    47f0:	0f 84 92 00 00 00    	je     4888 <mfs_read_dentry+0x128>
    47f6:	8b 45 e4             	mov    -0x1c(%ebp),%eax
    47f9:	c7 45 d0 1e 00 00 00 	movl   $0x1e,-0x30(%ebp)
    4800:	c7 45 cc 1e 00 00 00 	movl   $0x1e,-0x34(%ebp)
    4807:	c7 45 d4 20 00 00 00 	movl   $0x20,-0x2c(%ebp)
    480e:	8b 40 54             	mov    0x54(%eax),%eax
    4811:	8b 4d d4             	mov    -0x2c(%ebp),%ecx
    4814:	0f af d1             	imul   %ecx,%edx
    4817:	8d 3c 10             	lea    (%eax,%edx,1),%edi
    481a:	66 8b 07             	mov    (%edi),%ax
    481d:	25 ff ff 00 00       	and    $0xffff,%eax
    4822:	89 44 24 04          	mov    %eax,0x4(%esp)
    4826:	31 c0                	xor    %eax,%eax
    4828:	8a 46 3d             	mov    0x3d(%esi),%al
    482b:	89 04 24             	mov    %eax,(%esp)
    482e:	e8 1d 08 00 00       	call   5050 <conv16>
    4833:	8b 55 0c             	mov    0xc(%ebp),%edx
    4836:	25 ff ff 00 00       	and    $0xffff,%eax
    483b:	8b 4d d0             	mov    -0x30(%ebp),%ecx
    483e:	89 02                	mov    %eax,(%edx)
    4840:	8b 45 0c             	mov    0xc(%ebp),%eax
    4843:	8d 57 02             	lea    0x2(%edi),%edx
    4846:	83 c0 04             	add    $0x4,%eax
    4849:	89 4c 24 08          	mov    %ecx,0x8(%esp)
    484d:	89 54 24 04          	mov    %edx,0x4(%esp)
    4851:	89 04 24             	mov    %eax,(%esp)
    4854:	e8 77 66 00 00       	call   aed0 <memcpy>
    4859:	8b 4d 0c             	mov    0xc(%ebp),%ecx
    485c:	8b 55 cc             	mov    -0x34(%ebp),%edx
    485f:	c6 44 11 04 00       	movb   $0x0,0x4(%ecx,%edx,1)
    4864:	8b 45 e4             	mov    -0x1c(%ebp),%eax
    4867:	89 04 24             	mov    %eax,(%esp)
    486a:	e8 a1 0f 00 00       	call   5810 <block_put>
    486f:	8b 55 0c             	mov    0xc(%ebp),%edx
    4872:	8b 4d 10             	mov    0x10(%ebp),%ecx
    4875:	89 5a 48             	mov    %ebx,0x48(%edx)
    4878:	89 4a 44             	mov    %ecx,0x44(%edx)
    487b:	83 c4 4c             	add    $0x4c,%esp
    487e:	5b                   	pop    %ebx
    487f:	5e                   	pop    %esi
    4880:	5f                   	pop    %edi
    4881:	5d                   	pop    %ebp
    4882:	c3                   	ret    
    4883:	90                   	nop
    4884:	8d 74 26 00          	lea    0x0(%esi,%eiz,1),%esi
    4888:	8b 45 e4             	mov    -0x1c(%ebp),%eax
    488b:	c7 45 d0 0e 00 00 00 	movl   $0xe,-0x30(%ebp)
    4892:	c7 45 cc 0e 00 00 00 	movl   $0xe,-0x34(%ebp)
    4899:	c7 45 d4 10 00 00 00 	movl   $0x10,-0x2c(%ebp)
    48a0:	8b 40 54             	mov    0x54(%eax),%eax
    48a3:	e9 69 ff ff ff       	jmp    4811 <mfs_read_dentry+0xb1>
    48a8:	8b 45 e4             	mov    -0x1c(%ebp),%eax
    48ab:	89 d7                	mov    %edx,%edi
    48ad:	c1 e7 06             	shl    $0x6,%edi
    48b0:	8b 50 54             	mov    0x54(%eax),%edx
    48b3:	01 d7                	add    %edx,%edi
    48b5:	8b 07                	mov    (%edi),%eax
    48b7:	89 44 24 04          	mov    %eax,0x4(%esp)
    48bb:	31 c0                	xor    %eax,%eax
    48bd:	8a 46 3d             	mov    0x3d(%esi),%al
    48c0:	8d 77 04             	lea    0x4(%edi),%esi
    48c3:	89 04 24             	mov    %eax,(%esp)
    48c6:	e8 a5 07 00 00       	call   5070 <conv32>
    48cb:	8b 55 0c             	mov    0xc(%ebp),%edx
    48ce:	89 02                	mov    %eax,(%edx)
    48d0:	89 d0                	mov    %edx,%eax
    48d2:	83 c0 04             	add    $0x4,%eax
    48d5:	c7 44 24 08 3c 00 00 	movl   $0x3c,0x8(%esp)
    48dc:	00 
    48dd:	89 74 24 04          	mov    %esi,0x4(%esp)
    48e1:	89 04 24             	mov    %eax,(%esp)
    48e4:	e8 e7 65 00 00       	call   aed0 <memcpy>
    48e9:	8b 4d 0c             	mov    0xc(%ebp),%ecx
    48ec:	c6 41 40 00          	movb   $0x0,0x40(%ecx)
    48f0:	e9 6f ff ff ff       	jmp    4864 <mfs_read_dentry+0x104>
    48f5:	8d 74 26 00          	lea    0x0(%esi,%eiz,1),%esi
    48f9:	8d bc 27 00 00 00 00 	lea    0x0(%edi,%eiz,1),%edi

00004900 <mfs_write_dentry>:
    4900:	55                   	push   %ebp
    4901:	89 e5                	mov    %esp,%ebp
    4903:	57                   	push   %edi
    4904:	56                   	push   %esi
    4905:	53                   	push   %ebx
    4906:	83 ec 4c             	sub    $0x4c,%esp
    4909:	8b 5d 08             	mov    0x8(%ebp),%ebx
    490c:	8b 73 48             	mov    0x48(%ebx),%esi
    490f:	8b 46 04             	mov    0x4(%esi),%eax
    4912:	8b 78 04             	mov    0x4(%eax),%edi
    4915:	8b 47 18             	mov    0x18(%edi),%eax
    4918:	8b 57 30             	mov    0x30(%edi),%edx
    491b:	89 45 d0             	mov    %eax,-0x30(%ebp)
    491e:	8b 43 44             	mov    0x44(%ebx),%eax
    4921:	0f af c2             	imul   %edx,%eax
    4924:	89 44 24 08          	mov    %eax,0x8(%esp)
    4928:	8d 45 e4             	lea    -0x1c(%ebp),%eax
    492b:	89 74 24 04          	mov    %esi,0x4(%esp)
    492f:	89 04 24             	mov    %eax,(%esp)
    4932:	89 55 d4             	mov    %edx,-0x2c(%ebp)
    4935:	e8 b6 fb ff ff       	call   44f0 <mfs_read_map>
    493a:	85 c0                	test   %eax,%eax
    493c:	74 0a                	je     4948 <mfs_write_dentry+0x48>
    493e:	83 c4 4c             	add    $0x4c,%esp
    4941:	5b                   	pop    %ebx
    4942:	5e                   	pop    %esi
    4943:	5f                   	pop    %edi
    4944:	5d                   	pop    %ebp
    4945:	c3                   	ret    
    4946:	66 90                	xchg   %ax,%ax
    4948:	8b 55 e4             	mov    -0x1c(%ebp),%edx
    494b:	c7 44 24 10 00 00 00 	movl   $0x0,0x10(%esp)
    4952:	00 
    4953:	89 54 24 08          	mov    %edx,0x8(%esp)
    4957:	c7 44 24 0c 00 00 00 	movl   $0x0,0xc(%esp)
    495e:	00 
    495f:	8b 46 04             	mov    0x4(%esi),%eax
    4962:	8b 00                	mov    (%eax),%eax
    4964:	89 44 24 04          	mov    %eax,0x4(%esp)
    4968:	8d 45 e0             	lea    -0x20(%ebp),%eax
    496b:	89 04 24             	mov    %eax,(%esp)
    496e:	e8 4d 11 00 00       	call   5ac0 <block_get>
    4973:	85 c0                	test   %eax,%eax
    4975:	75 c7                	jne    493e <mfs_write_dentry+0x3e>
    4977:	8b 47 38             	mov    0x38(%edi),%eax
    497a:	31 d2                	xor    %edx,%edx
    497c:	89 45 cc             	mov    %eax,-0x34(%ebp)
    497f:	8b 45 d0             	mov    -0x30(%ebp),%eax
    4982:	f7 75 d4             	divl   -0x2c(%ebp)
    4985:	89 c1                	mov    %eax,%ecx
    4987:	31 d2                	xor    %edx,%edx
    4989:	8b 43 44             	mov    0x44(%ebx),%eax
    498c:	8b 77 30             	mov    0x30(%edi),%esi
    498f:	f7 f1                	div    %ecx
    4991:	0f af f2             	imul   %edx,%esi
    4994:	8b 45 e0             	mov    -0x20(%ebp),%eax
    4997:	8b 50 54             	mov    0x54(%eax),%edx
    499a:	01 d6                	add    %edx,%esi
    499c:	83 7f 28 03          	cmpl   $0x3,0x28(%edi)
    49a0:	74 4e                	je     49f0 <mfs_write_dentry+0xf0>
    49a2:	0f b7 03             	movzwl (%ebx),%eax
    49a5:	89 44 24 04          	mov    %eax,0x4(%esp)
    49a9:	31 c0                	xor    %eax,%eax
    49ab:	8a 47 3d             	mov    0x3d(%edi),%al
    49ae:	83 c3 04             	add    $0x4,%ebx
    49b1:	89 04 24             	mov    %eax,(%esp)
    49b4:	e8 97 06 00 00       	call   5050 <conv16>
    49b9:	8b 55 cc             	mov    -0x34(%ebp),%edx
    49bc:	66 89 06             	mov    %ax,(%esi)
    49bf:	83 c6 02             	add    $0x2,%esi
    49c2:	89 54 24 08          	mov    %edx,0x8(%esp)
    49c6:	89 5c 24 04          	mov    %ebx,0x4(%esp)
    49ca:	89 34 24             	mov    %esi,(%esp)
    49cd:	e8 fe 64 00 00       	call   aed0 <memcpy>
    49d2:	8b 45 e0             	mov    -0x20(%ebp),%eax
    49d5:	c6 40 14 01          	movb   $0x1,0x14(%eax)
    49d9:	89 04 24             	mov    %eax,(%esp)
    49dc:	e8 2f 0e 00 00       	call   5810 <block_put>
    49e1:	83 c4 4c             	add    $0x4c,%esp
    49e4:	5b                   	pop    %ebx
    49e5:	5e                   	pop    %esi
    49e6:	5f                   	pop    %edi
    49e7:	5d                   	pop    %ebp
    49e8:	c3                   	ret    
    49e9:	8d b4 26 00 00 00 00 	lea    0x0(%esi,%eiz,1),%esi
    49f0:	8b 03                	mov    (%ebx),%eax
    49f2:	83 c3 04             	add    $0x4,%ebx
    49f5:	89 44 24 04          	mov    %eax,0x4(%esp)
    49f9:	31 c0                	xor    %eax,%eax
    49fb:	8a 47 3d             	mov    0x3d(%edi),%al
    49fe:	89 04 24             	mov    %eax,(%esp)
    4a01:	e8 6a 06 00 00       	call   5070 <conv32>
    4a06:	89 06                	mov    %eax,(%esi)
    4a08:	8b 45 cc             	mov    -0x34(%ebp),%eax
    4a0b:	83 c6 04             	add    $0x4,%esi
    4a0e:	89 44 24 08          	mov    %eax,0x8(%esp)
    4a12:	89 5c 24 04          	mov    %ebx,0x4(%esp)
    4a16:	89 34 24             	mov    %esi,(%esp)
    4a19:	e8 b2 64 00 00       	call   aed0 <memcpy>
    4a1e:	eb b2                	jmp    49d2 <mfs_write_dentry+0xd2>

00004a20 <mfs_remove_dentry>:
    4a20:	55                   	push   %ebp
    4a21:	89 e5                	mov    %esp,%ebp
    4a23:	57                   	push   %edi
    4a24:	56                   	push   %esi
    4a25:	53                   	push   %ebx
    4a26:	83 ec 7c             	sub    $0x7c,%esp
    4a29:	8b 75 08             	mov    0x8(%ebp),%esi
    4a2c:	8b 4d 0c             	mov    0xc(%ebp),%ecx
    4a2f:	8b 46 04             	mov    0x4(%esi),%eax
    4a32:	8b 40 04             	mov    0x4(%eax),%eax
    4a35:	89 0c 24             	mov    %ecx,(%esp)
    4a38:	89 45 94             	mov    %eax,-0x6c(%ebp)
    4a3b:	e8 a0 72 00 00       	call   bce0 <str_size>
    4a40:	8b 4d 94             	mov    -0x6c(%ebp),%ecx
    4a43:	89 45 90             	mov    %eax,-0x70(%ebp)
    4a46:	3b 41 38             	cmp    0x38(%ecx),%eax
    4a49:	0f 87 94 00 00 00    	ja     4ae3 <mfs_remove_dentry+0xc3>
    4a4f:	8b 06                	mov    (%esi),%eax
    4a51:	31 d2                	xor    %edx,%edx
    4a53:	31 db                	xor    %ebx,%ebx
    4a55:	8d 7d a0             	lea    -0x60(%ebp),%edi
    4a58:	8b 40 08             	mov    0x8(%eax),%eax
    4a5b:	f7 71 30             	divl   0x30(%ecx)
    4a5e:	85 c0                	test   %eax,%eax
    4a60:	75 18                	jne    4a7a <mfs_remove_dentry+0x5a>
    4a62:	eb 74                	jmp    4ad8 <mfs_remove_dentry+0xb8>
    4a64:	8d 74 26 00          	lea    0x0(%esi,%eiz,1),%esi
    4a68:	8b 06                	mov    (%esi),%eax
    4a6a:	8b 4d 94             	mov    -0x6c(%ebp),%ecx
    4a6d:	31 d2                	xor    %edx,%edx
    4a6f:	43                   	inc    %ebx
    4a70:	8b 40 08             	mov    0x8(%eax),%eax
    4a73:	f7 71 30             	divl   0x30(%ecx)
    4a76:	39 d8                	cmp    %ebx,%eax
    4a78:	76 5e                	jbe    4ad8 <mfs_remove_dentry+0xb8>
    4a7a:	8d 45 9c             	lea    -0x64(%ebp),%eax
    4a7d:	89 5c 24 08          	mov    %ebx,0x8(%esp)
    4a81:	89 44 24 04          	mov    %eax,0x4(%esp)
    4a85:	89 34 24             	mov    %esi,(%esp)
    4a88:	e8 d3 fc ff ff       	call   4760 <mfs_read_dentry>
    4a8d:	85 c0                	test   %eax,%eax
    4a8f:	75 3f                	jne    4ad0 <mfs_remove_dentry+0xb0>
    4a91:	89 3c 24             	mov    %edi,(%esp)
    4a94:	e8 47 72 00 00       	call   bce0 <str_size>
    4a99:	39 45 90             	cmp    %eax,-0x70(%ebp)
    4a9c:	75 ca                	jne    4a68 <mfs_remove_dentry+0x48>
    4a9e:	8b 45 90             	mov    -0x70(%ebp),%eax
    4aa1:	8b 4d 0c             	mov    0xc(%ebp),%ecx
    4aa4:	89 44 24 08          	mov    %eax,0x8(%esp)
    4aa8:	89 4c 24 04          	mov    %ecx,0x4(%esp)
    4aac:	89 3c 24             	mov    %edi,(%esp)
    4aaf:	e8 3c 69 00 00       	call   b3f0 <bcmp>
    4ab4:	85 c0                	test   %eax,%eax
    4ab6:	75 b0                	jne    4a68 <mfs_remove_dentry+0x48>
    4ab8:	8d 45 9c             	lea    -0x64(%ebp),%eax
    4abb:	c7 45 9c 00 00 00 00 	movl   $0x0,-0x64(%ebp)
    4ac2:	89 04 24             	mov    %eax,(%esp)
    4ac5:	e8 36 fe ff ff       	call   4900 <mfs_write_dentry>
    4aca:	8d b6 00 00 00 00    	lea    0x0(%esi),%esi
    4ad0:	83 c4 7c             	add    $0x7c,%esp
    4ad3:	5b                   	pop    %ebx
    4ad4:	5e                   	pop    %esi
    4ad5:	5f                   	pop    %edi
    4ad6:	5d                   	pop    %ebp
    4ad7:	c3                   	ret    
    4ad8:	83 c4 7c             	add    $0x7c,%esp
    4adb:	83 c8 ff             	or     $0xffffffff,%eax
    4ade:	5b                   	pop    %ebx
    4adf:	5e                   	pop    %esi
    4ae0:	5f                   	pop    %edi
    4ae1:	5d                   	pop    %ebp
    4ae2:	c3                   	ret    
    4ae3:	b8 00 ff ff ff       	mov    $0xffffff00,%eax
    4ae8:	eb e6                	jmp    4ad0 <mfs_remove_dentry+0xb0>
    4aea:	8d b6 00 00 00 00    	lea    0x0(%esi),%esi

00004af0 <mfs_insert_dentry>:
    4af0:	55                   	push   %ebp
    4af1:	89 e5                	mov    %esp,%ebp
    4af3:	57                   	push   %edi
    4af4:	56                   	push   %esi
    4af5:	53                   	push   %ebx
    4af6:	81 ec 8c 00 00 00    	sub    $0x8c,%esp
    4afc:	8b 75 08             	mov    0x8(%ebp),%esi
    4aff:	8b 46 04             	mov    0x4(%esi),%eax
    4b02:	8b 78 04             	mov    0x4(%eax),%edi
    4b05:	8b 45 0c             	mov    0xc(%ebp),%eax
    4b08:	89 04 24             	mov    %eax,(%esp)
    4b0b:	e8 d0 71 00 00       	call   bce0 <str_size>
    4b10:	89 45 80             	mov    %eax,-0x80(%ebp)
    4b13:	3b 47 38             	cmp    0x38(%edi),%eax
    4b16:	0f 87 3b 01 00 00    	ja     4c57 <mfs_insert_dentry+0x167>
    4b1c:	8b 06                	mov    (%esi),%eax
    4b1e:	31 d2                	xor    %edx,%edx
    4b20:	31 db                	xor    %ebx,%ebx
    4b22:	8b 48 08             	mov    0x8(%eax),%ecx
    4b25:	89 c8                	mov    %ecx,%eax
    4b27:	f7 77 30             	divl   0x30(%edi)
    4b2a:	85 c0                	test   %eax,%eax
    4b2c:	74 4a                	je     4b78 <mfs_insert_dentry+0x88>
    4b2e:	8d 45 9c             	lea    -0x64(%ebp),%eax
    4b31:	89 45 84             	mov    %eax,-0x7c(%ebp)
    4b34:	eb 1e                	jmp    4b54 <mfs_insert_dentry+0x64>
    4b36:	66 90                	xchg   %ax,%ax
    4b38:	8b 45 9c             	mov    -0x64(%ebp),%eax
    4b3b:	85 c0                	test   %eax,%eax
    4b3d:	0f 84 88 00 00 00    	je     4bcb <mfs_insert_dentry+0xdb>
    4b43:	8b 06                	mov    (%esi),%eax
    4b45:	31 d2                	xor    %edx,%edx
    4b47:	43                   	inc    %ebx
    4b48:	8b 48 08             	mov    0x8(%eax),%ecx
    4b4b:	89 c8                	mov    %ecx,%eax
    4b4d:	f7 77 30             	divl   0x30(%edi)
    4b50:	39 d8                	cmp    %ebx,%eax
    4b52:	76 24                	jbe    4b78 <mfs_insert_dentry+0x88>
    4b54:	8b 45 84             	mov    -0x7c(%ebp),%eax
    4b57:	89 5c 24 08          	mov    %ebx,0x8(%esp)
    4b5b:	89 44 24 04          	mov    %eax,0x4(%esp)
    4b5f:	89 34 24             	mov    %esi,(%esp)
    4b62:	e8 f9 fb ff ff       	call   4760 <mfs_read_dentry>
    4b67:	85 c0                	test   %eax,%eax
    4b69:	74 cd                	je     4b38 <mfs_insert_dentry+0x48>
    4b6b:	81 c4 8c 00 00 00    	add    $0x8c,%esp
    4b71:	5b                   	pop    %ebx
    4b72:	5e                   	pop    %esi
    4b73:	5f                   	pop    %edi
    4b74:	5d                   	pop    %ebp
    4b75:	c3                   	ret    
    4b76:	66 90                	xchg   %ax,%ax
    4b78:	8d 55 94             	lea    -0x6c(%ebp),%edx
    4b7b:	89 4c 24 08          	mov    %ecx,0x8(%esp)
    4b7f:	89 14 24             	mov    %edx,(%esp)
    4b82:	89 74 24 04          	mov    %esi,0x4(%esp)
    4b86:	89 95 78 ff ff ff    	mov    %edx,-0x88(%ebp)
    4b8c:	89 8d 7c ff ff ff    	mov    %ecx,-0x84(%ebp)
    4b92:	e8 59 f9 ff ff       	call   44f0 <mfs_read_map>
    4b97:	8b 95 78 ff ff ff    	mov    -0x88(%ebp),%edx
    4b9d:	85 c0                	test   %eax,%eax
    4b9f:	8b 8d 7c ff ff ff    	mov    -0x84(%ebp),%ecx
    4ba5:	75 c4                	jne    4b6b <mfs_insert_dentry+0x7b>
    4ba7:	8b 45 94             	mov    -0x6c(%ebp),%eax
    4baa:	85 c0                	test   %eax,%eax
    4bac:	74 5f                	je     4c0d <mfs_insert_dentry+0x11d>
    4bae:	8b 06                	mov    (%esi),%eax
    4bb0:	8b 57 30             	mov    0x30(%edi),%edx
    4bb3:	8b 48 08             	mov    0x8(%eax),%ecx
    4bb6:	c6 40 40 01          	movb   $0x1,0x40(%eax)
    4bba:	01 d1                	add    %edx,%ecx
    4bbc:	89 48 08             	mov    %ecx,0x8(%eax)
    4bbf:	8d 45 9c             	lea    -0x64(%ebp),%eax
    4bc2:	89 5d e0             	mov    %ebx,-0x20(%ebp)
    4bc5:	89 75 e4             	mov    %esi,-0x1c(%ebp)
    4bc8:	89 45 84             	mov    %eax,-0x7c(%ebp)
    4bcb:	8b 45 10             	mov    0x10(%ebp),%eax
    4bce:	89 45 9c             	mov    %eax,-0x64(%ebp)
    4bd1:	8b 45 80             	mov    -0x80(%ebp),%eax
    4bd4:	89 44 24 08          	mov    %eax,0x8(%esp)
    4bd8:	8b 45 0c             	mov    0xc(%ebp),%eax
    4bdb:	89 44 24 04          	mov    %eax,0x4(%esp)
    4bdf:	8d 45 a0             	lea    -0x60(%ebp),%eax
    4be2:	89 04 24             	mov    %eax,(%esp)
    4be5:	e8 e6 62 00 00       	call   aed0 <memcpy>
    4bea:	8b 45 80             	mov    -0x80(%ebp),%eax
    4bed:	3b 47 38             	cmp    0x38(%edi),%eax
    4bf0:	73 05                	jae    4bf7 <mfs_insert_dentry+0x107>
    4bf2:	c6 44 05 a0 00       	movb   $0x0,-0x60(%ebp,%eax,1)
    4bf7:	8b 45 84             	mov    -0x7c(%ebp),%eax
    4bfa:	89 04 24             	mov    %eax,(%esp)
    4bfd:	e8 fe fc ff ff       	call   4900 <mfs_write_dentry>
    4c02:	81 c4 8c 00 00 00    	add    $0x8c,%esp
    4c08:	5b                   	pop    %ebx
    4c09:	5e                   	pop    %esi
    4c0a:	5f                   	pop    %edi
    4c0b:	5d                   	pop    %ebp
    4c0c:	c3                   	ret    
    4c0d:	89 54 24 04          	mov    %edx,0x4(%esp)
    4c11:	8b 46 04             	mov    0x4(%esi),%eax
    4c14:	89 8d 7c ff ff ff    	mov    %ecx,-0x84(%ebp)
    4c1a:	89 04 24             	mov    %eax,(%esp)
    4c1d:	e8 be 03 00 00       	call   4fe0 <mfs_alloc_zone>
    4c22:	8b 8d 7c ff ff ff    	mov    -0x84(%ebp),%ecx
    4c28:	85 c0                	test   %eax,%eax
    4c2a:	0f 85 3b ff ff ff    	jne    4b6b <mfs_insert_dentry+0x7b>
    4c30:	8d 45 98             	lea    -0x68(%ebp),%eax
    4c33:	89 4c 24 04          	mov    %ecx,0x4(%esp)
    4c37:	89 44 24 0c          	mov    %eax,0xc(%esp)
    4c3b:	8b 45 94             	mov    -0x6c(%ebp),%eax
    4c3e:	89 44 24 08          	mov    %eax,0x8(%esp)
    4c42:	89 34 24             	mov    %esi,(%esp)
    4c45:	e8 26 f9 ff ff       	call   4570 <mfs_write_map>
    4c4a:	85 c0                	test   %eax,%eax
    4c4c:	0f 85 19 ff ff ff    	jne    4b6b <mfs_insert_dentry+0x7b>
    4c52:	e9 57 ff ff ff       	jmp    4bae <mfs_insert_dentry+0xbe>
    4c57:	b8 00 ff ff ff       	mov    $0xffffff00,%eax
    4c5c:	e9 0a ff ff ff       	jmp    4b6b <mfs_insert_dentry+0x7b>
    4c61:	66 90                	xchg   %ax,%ax
    4c63:	66 90                	xchg   %ax,%ax
    4c65:	66 90                	xchg   %ax,%ax
    4c67:	66 90                	xchg   %ax,%ax
    4c69:	66 90                	xchg   %ax,%ax
    4c6b:	66 90                	xchg   %ax,%ax
    4c6d:	66 90                	xchg   %ax,%ax
    4c6f:	90                   	nop

00004c70 <mfs_free_bit.isra.0>:
    4c70:	55                   	push   %ebp
    4c71:	89 e5                	mov    %esp,%ebp
    4c73:	57                   	push   %edi
    4c74:	56                   	push   %esi
    4c75:	53                   	push   %ebx
    4c76:	83 ec 4c             	sub    $0x4c,%esp
    4c79:	89 c7                	mov    %eax,%edi
    4c7b:	8b 45 08             	mov    0x8(%ebp),%eax
    4c7e:	89 d3                	mov    %edx,%ebx
    4c80:	89 ce                	mov    %ecx,%esi
    4c82:	85 c0                	test   %eax,%eax
    4c84:	75 5a                	jne    4ce0 <mfs_free_bit.isra.0+0x70>
    4c86:	8d 42 44             	lea    0x44(%edx),%eax
    4c89:	8b 4a 08             	mov    0x8(%edx),%ecx
    4c8c:	83 c1 02             	add    $0x2,%ecx
    4c8f:	89 45 d0             	mov    %eax,-0x30(%ebp)
    4c92:	39 72 04             	cmp    %esi,0x4(%edx)
    4c95:	0f 82 d5 00 00 00    	jb     4d70 <mfs_free_bit.isra.0+0x100>
    4c9b:	8b 43 18             	mov    0x18(%ebx),%eax
    4c9e:	31 d2                	xor    %edx,%edx
    4ca0:	c1 e0 03             	shl    $0x3,%eax
    4ca3:	c7 44 24 10 00 00 00 	movl   $0x0,0x10(%esp)
    4caa:	00 
    4cab:	89 45 d4             	mov    %eax,-0x2c(%ebp)
    4cae:	89 f0                	mov    %esi,%eax
    4cb0:	f7 75 d4             	divl   -0x2c(%ebp)
    4cb3:	01 c8                	add    %ecx,%eax
    4cb5:	c7 44 24 0c 00 00 00 	movl   $0x0,0xc(%esp)
    4cbc:	00 
    4cbd:	89 44 24 08          	mov    %eax,0x8(%esp)
    4cc1:	8d 45 e4             	lea    -0x1c(%ebp),%eax
    4cc4:	89 7c 24 04          	mov    %edi,0x4(%esp)
    4cc8:	89 04 24             	mov    %eax,(%esp)
    4ccb:	e8 f0 0d 00 00       	call   5ac0 <block_get>
    4cd0:	85 c0                	test   %eax,%eax
    4cd2:	74 24                	je     4cf8 <mfs_free_bit.isra.0+0x88>
    4cd4:	83 c4 4c             	add    $0x4c,%esp
    4cd7:	5b                   	pop    %ebx
    4cd8:	5e                   	pop    %esi
    4cd9:	5f                   	pop    %edi
    4cda:	5d                   	pop    %ebp
    4cdb:	c3                   	ret    
    4cdc:	8d 74 26 00          	lea    0x0(%esi,%eiz,1),%esi
    4ce0:	8d 52 40             	lea    0x40(%edx),%edx
    4ce3:	3b 0b                	cmp    (%ebx),%ecx
    4ce5:	89 55 d0             	mov    %edx,-0x30(%ebp)
    4ce8:	0f 87 82 00 00 00    	ja     4d70 <mfs_free_bit.isra.0+0x100>
    4cee:	b9 02 00 00 00       	mov    $0x2,%ecx
    4cf3:	eb a6                	jmp    4c9b <mfs_free_bit.isra.0+0x2b>
    4cf5:	8d 76 00             	lea    0x0(%esi),%esi
    4cf8:	8b 4b 18             	mov    0x18(%ebx),%ecx
    4cfb:	89 f0                	mov    %esi,%eax
    4cfd:	c1 e1 03             	shl    $0x3,%ecx
    4d00:	31 d2                	xor    %edx,%edx
    4d02:	f7 f1                	div    %ecx
    4d04:	8b 45 e4             	mov    -0x1c(%ebp),%eax
    4d07:	89 55 d4             	mov    %edx,-0x2c(%ebp)
    4d0a:	c1 ea 05             	shr    $0x5,%edx
    4d0d:	bf 01 00 00 00       	mov    $0x1,%edi
    4d12:	8b 40 54             	mov    0x54(%eax),%eax
    4d15:	8d 34 90             	lea    (%eax,%edx,4),%esi
    4d18:	8b 06                	mov    (%esi),%eax
    4d1a:	89 44 24 04          	mov    %eax,0x4(%esp)
    4d1e:	31 c0                	xor    %eax,%eax
    4d20:	8a 43 3d             	mov    0x3d(%ebx),%al
    4d23:	89 04 24             	mov    %eax,(%esp)
    4d26:	e8 45 03 00 00       	call   5070 <conv32>
    4d2b:	8a 4d d4             	mov    -0x2c(%ebp),%cl
    4d2e:	d3 e7                	shl    %cl,%edi
    4d30:	83 f7 ff             	xor    $0xffffffff,%edi
    4d33:	21 f8                	and    %edi,%eax
    4d35:	89 44 24 04          	mov    %eax,0x4(%esp)
    4d39:	31 c0                	xor    %eax,%eax
    4d3b:	8a 43 3d             	mov    0x3d(%ebx),%al
    4d3e:	89 04 24             	mov    %eax,(%esp)
    4d41:	e8 2a 03 00 00       	call   5070 <conv32>
    4d46:	89 06                	mov    %eax,(%esi)
    4d48:	8b 45 e4             	mov    -0x1c(%ebp),%eax
    4d4b:	c6 40 14 01          	movb   $0x1,0x14(%eax)
    4d4f:	89 04 24             	mov    %eax,(%esp)
    4d52:	e8 b9 0a 00 00       	call   5810 <block_put>
    4d57:	8b 55 d0             	mov    -0x30(%ebp),%edx
    4d5a:	8b 4d d4             	mov    -0x2c(%ebp),%ecx
    4d5d:	3b 0a                	cmp    (%edx),%ecx
    4d5f:	0f 83 6f ff ff ff    	jae    4cd4 <mfs_free_bit.isra.0+0x64>
    4d65:	89 0a                	mov    %ecx,(%edx)
    4d67:	83 c4 4c             	add    $0x4c,%esp
    4d6a:	5b                   	pop    %ebx
    4d6b:	5e                   	pop    %esi
    4d6c:	5f                   	pop    %edi
    4d6d:	5d                   	pop    %ebp
    4d6e:	c3                   	ret    
    4d6f:	90                   	nop
    4d70:	c7 04 24 5c 4a 02 00 	movl   $0x24a5c,(%esp)
    4d77:	e8 14 e1 00 00       	call   12e90 <printf>
    4d7c:	83 c8 ff             	or     $0xffffffff,%eax
    4d7f:	e9 50 ff ff ff       	jmp    4cd4 <mfs_free_bit.isra.0+0x64>
    4d84:	8d b6 00 00 00 00    	lea    0x0(%esi),%esi
    4d8a:	8d bf 00 00 00 00    	lea    0x0(%edi),%edi

00004d90 <mfs_alloc_bit.isra.1>:
    4d90:	55                   	push   %ebp
    4d91:	89 e5                	mov    %esp,%ebp
    4d93:	57                   	push   %edi
    4d94:	56                   	push   %esi
    4d95:	53                   	push   %ebx
    4d96:	83 ec 7c             	sub    $0x7c,%esp
    4d99:	89 45 b4             	mov    %eax,-0x4c(%ebp)
    4d9c:	8b 75 08             	mov    0x8(%ebp),%esi
