
tetris:     file format elf32-i386


Disassembly of section .init:

00001094 <__entry>:
    1094:	66 8c d0             	mov    %ss,%ax
    1097:	8e d8                	mov    %eax,%ds
    1099:	8e c0                	mov    %eax,%es
    109b:	8e e0                	mov    %eax,%fs
    109d:	b8 01 00 00 00       	mov    $0x1,%eax
    10a2:	0f a2                	cpuid  
    10a4:	0f ba e2 0b          	bt     $0xb,%edx
    10a8:	73 0c                	jae    10b6 <__entry+0x22>
    10aa:	8d 05 70 3a 02 00    	lea    0x23a70,%eax
    10b0:	c7 00 37 a3 01 00    	movl   $0x1a337,(%eax)
    10b6:	6a 00                	push   $0x0
    10b8:	89 e5                	mov    %esp,%ebp
    10ba:	57                   	push   %edi
    10bb:	e8 40 1e 00 00       	call   2f00 <__main>

Disassembly of section .text:

000010c0 <fits_in>:
    10c0:	55                   	push   %ebp
    10c1:	31 c0                	xor    %eax,%eax
    10c3:	89 e5                	mov    %esp,%ebp
    10c5:	53                   	push   %ebx
    10c6:	8b 55 0c             	mov    0xc(%ebp),%edx
    10c9:	8b 4d 08             	mov    0x8(%ebp),%ecx
    10cc:	8b 1c 95 00 3b 02 00 	mov    0x23b00(,%edx,4),%ebx
    10d3:	85 db                	test   %ebx,%ebx
    10d5:	75 36                	jne    110d <fits_in+0x4d>
    10d7:	8b 59 08             	mov    0x8(%ecx),%ebx
    10da:	01 d3                	add    %edx,%ebx
    10dc:	8b 1c 9d 00 3b 02 00 	mov    0x23b00(,%ebx,4),%ebx
    10e3:	85 db                	test   %ebx,%ebx
    10e5:	75 26                	jne    110d <fits_in+0x4d>
    10e7:	8b 59 0c             	mov    0xc(%ecx),%ebx
    10ea:	01 d3                	add    %edx,%ebx
    10ec:	8b 1c 9d 00 3b 02 00 	mov    0x23b00(,%ebx,4),%ebx
    10f3:	85 db                	test   %ebx,%ebx
    10f5:	75 16                	jne    110d <fits_in+0x4d>
    10f7:	8b 41 10             	mov    0x10(%ecx),%eax
    10fa:	01 c2                	add    %eax,%edx
    10fc:	8b 14 95 00 3b 02 00 	mov    0x23b00(,%edx,4),%edx
    1103:	85 d2                	test   %edx,%edx
    1105:	0f 94 c0             	sete   %al
    1108:	25 ff 00 00 00       	and    $0xff,%eax
    110d:	5b                   	pop    %ebx
    110e:	5d                   	pop    %ebp
    110f:	c3                   	ret    

00001110 <place>:
    1110:	55                   	push   %ebp
    1111:	89 e5                	mov    %esp,%ebp
    1113:	53                   	push   %ebx
    1114:	8b 4d 10             	mov    0x10(%ebp),%ecx
    1117:	8b 45 08             	mov    0x8(%ebp),%eax
    111a:	8b 55 0c             	mov    0xc(%ebp),%edx
    111d:	85 c9                	test   %ecx,%ecx
    111f:	74 3f                	je     1160 <place+0x50>
    1121:	8b 48 14             	mov    0x14(%eax),%ecx
    1124:	89 0c 95 00 3b 02 00 	mov    %ecx,0x23b00(,%edx,4)
    112b:	8b 48 08             	mov    0x8(%eax),%ecx
    112e:	8b 58 14             	mov    0x14(%eax),%ebx
    1131:	01 d1                	add    %edx,%ecx
    1133:	89 1c 8d 00 3b 02 00 	mov    %ebx,0x23b00(,%ecx,4)
    113a:	8b 48 0c             	mov    0xc(%eax),%ecx
    113d:	8b 58 14             	mov    0x14(%eax),%ebx
    1140:	01 d1                	add    %edx,%ecx
    1142:	89 1c 8d 00 3b 02 00 	mov    %ebx,0x23b00(,%ecx,4)
    1149:	8b 58 10             	mov    0x10(%eax),%ebx
    114c:	8b 40 14             	mov    0x14(%eax),%eax
    114f:	01 da                	add    %ebx,%edx
    1151:	5b                   	pop    %ebx
    1152:	5d                   	pop    %ebp
    1153:	89 04 95 00 3b 02 00 	mov    %eax,0x23b00(,%edx,4)
    115a:	c3                   	ret    
    115b:	90                   	nop
    115c:	8d 74 26 00          	lea    0x0(%esi,%eiz,1),%esi
    1160:	c7 04 95 00 3b 02 00 	movl   $0x0,0x23b00(,%edx,4)
    1167:	00 00 00 00 
    116b:	5b                   	pop    %ebx
    116c:	8b 48 08             	mov    0x8(%eax),%ecx
    116f:	5d                   	pop    %ebp
    1170:	01 d1                	add    %edx,%ecx
    1172:	c7 04 8d 00 3b 02 00 	movl   $0x0,0x23b00(,%ecx,4)
    1179:	00 00 00 00 
    117d:	8b 48 0c             	mov    0xc(%eax),%ecx
    1180:	01 d1                	add    %edx,%ecx
    1182:	c7 04 8d 00 3b 02 00 	movl   $0x0,0x23b00(,%ecx,4)
    1189:	00 00 00 00 
    118d:	8b 48 10             	mov    0x10(%eax),%ecx
    1190:	31 c0                	xor    %eax,%eax
    1192:	01 ca                	add    %ecx,%edx
    1194:	89 04 95 00 3b 02 00 	mov    %eax,0x23b00(,%edx,4)
    119b:	c3                   	ret    
    119c:	66 90                	xchg   %ax,%ax
    119e:	66 90                	xchg   %ax,%ax

000011a0 <showscores>:
    11a0:	55                   	push   %ebp
    11a1:	89 e5                	mov    %esp,%ebp
    11a3:	53                   	push   %ebx
    11a4:	83 ec 24             	sub    $0x24,%esp
    11a7:	8b 5d 08             	mov    0x8(%ebp),%ebx
    11aa:	e8 41 12 00 00       	call   23f0 <clear_screen>
    11af:	c7 44 24 04 00 00 00 	movl   $0x0,0x4(%esp)
    11b6:	00 
    11b7:	c7 04 24 0a 00 00 00 	movl   $0xa,(%esp)
    11be:	e8 6d 13 00 00       	call   2530 <moveto>
    11c3:	c7 04 24 28 0b 02 00 	movl   $0x20b28,(%esp)
    11ca:	e8 71 8a 00 00       	call   9c40 <printf>
    11cf:	c7 04 24 58 0b 02 00 	movl   $0x20b58,(%esp)
    11d6:	e8 65 8a 00 00       	call   9c40 <printf>
    11db:	a1 64 40 02 00       	mov    0x24064,%eax
    11e0:	89 44 24 10          	mov    %eax,0x10(%esp)
    11e4:	a1 68 40 02 00       	mov    0x24068,%eax
    11e9:	c7 44 24 0c 20 40 02 	movl   $0x24020,0xc(%esp)
    11f0:	00 
    11f1:	89 44 24 08          	mov    %eax,0x8(%esp)
    11f5:	c7 44 24 04 01 00 00 	movl   $0x1,0x4(%esp)
    11fc:	00 
    11fd:	c7 04 24 e9 0b 02 00 	movl   $0x20be9,(%esp)
    1204:	e8 37 8a 00 00       	call   9c40 <printf>
    1209:	a1 b4 40 02 00       	mov    0x240b4,%eax
    120e:	89 44 24 10          	mov    %eax,0x10(%esp)
    1212:	a1 b8 40 02 00       	mov    0x240b8,%eax
    1217:	c7 44 24 0c 70 40 02 	movl   $0x24070,0xc(%esp)
    121e:	00 
    121f:	89 44 24 08          	mov    %eax,0x8(%esp)
    1223:	c7 44 24 04 02 00 00 	movl   $0x2,0x4(%esp)
    122a:	00 
    122b:	c7 04 24 e9 0b 02 00 	movl   $0x20be9,(%esp)
    1232:	e8 09 8a 00 00       	call   9c40 <printf>
    1237:	a1 04 41 02 00       	mov    0x24104,%eax
    123c:	89 44 24 10          	mov    %eax,0x10(%esp)
    1240:	a1 08 41 02 00       	mov    0x24108,%eax
    1245:	c7 44 24 0c c0 40 02 	movl   $0x240c0,0xc(%esp)
    124c:	00 
    124d:	89 44 24 08          	mov    %eax,0x8(%esp)
    1251:	c7 44 24 04 03 00 00 	movl   $0x3,0x4(%esp)
    1258:	00 
    1259:	c7 04 24 e9 0b 02 00 	movl   $0x20be9,(%esp)
    1260:	e8 db 89 00 00       	call   9c40 <printf>
    1265:	a1 54 41 02 00       	mov    0x24154,%eax
    126a:	89 44 24 10          	mov    %eax,0x10(%esp)
    126e:	a1 58 41 02 00       	mov    0x24158,%eax
    1273:	c7 44 24 0c 10 41 02 	movl   $0x24110,0xc(%esp)
    127a:	00 
    127b:	89 44 24 08          	mov    %eax,0x8(%esp)
    127f:	c7 44 24 04 04 00 00 	movl   $0x4,0x4(%esp)
    1286:	00 
    1287:	c7 04 24 e9 0b 02 00 	movl   $0x20be9,(%esp)
    128e:	e8 ad 89 00 00       	call   9c40 <printf>
    1293:	a1 a4 41 02 00       	mov    0x241a4,%eax
    1298:	89 44 24 10          	mov    %eax,0x10(%esp)
    129c:	a1 a8 41 02 00       	mov    0x241a8,%eax
    12a1:	c7 44 24 0c 60 41 02 	movl   $0x24160,0xc(%esp)
    12a8:	00 
    12a9:	89 44 24 08          	mov    %eax,0x8(%esp)
    12ad:	c7 44 24 04 05 00 00 	movl   $0x5,0x4(%esp)
    12b4:	00 
    12b5:	c7 04 24 e9 0b 02 00 	movl   $0x20be9,(%esp)
    12bc:	e8 7f 89 00 00       	call   9c40 <printf>
    12c1:	a1 f4 41 02 00       	mov    0x241f4,%eax
    12c6:	89 44 24 10          	mov    %eax,0x10(%esp)
    12ca:	a1 f8 41 02 00       	mov    0x241f8,%eax
    12cf:	c7 44 24 0c b0 41 02 	movl   $0x241b0,0xc(%esp)
    12d6:	00 
    12d7:	89 44 24 08          	mov    %eax,0x8(%esp)
    12db:	c7 44 24 04 06 00 00 	movl   $0x6,0x4(%esp)
    12e2:	00 
    12e3:	c7 04 24 e9 0b 02 00 	movl   $0x20be9,(%esp)
    12ea:	e8 51 89 00 00       	call   9c40 <printf>
    12ef:	a1 44 42 02 00       	mov    0x24244,%eax
    12f4:	89 44 24 10          	mov    %eax,0x10(%esp)
    12f8:	a1 48 42 02 00       	mov    0x24248,%eax
    12fd:	c7 44 24 0c 00 42 02 	movl   $0x24200,0xc(%esp)
    1304:	00 
    1305:	89 44 24 08          	mov    %eax,0x8(%esp)
    1309:	c7 44 24 04 07 00 00 	movl   $0x7,0x4(%esp)
    1310:	00 
    1311:	c7 04 24 e9 0b 02 00 	movl   $0x20be9,(%esp)
    1318:	e8 23 89 00 00       	call   9c40 <printf>
    131d:	a1 94 42 02 00       	mov    0x24294,%eax
    1322:	89 44 24 10          	mov    %eax,0x10(%esp)
    1326:	a1 98 42 02 00       	mov    0x24298,%eax
    132b:	c7 44 24 0c 50 42 02 	movl   $0x24250,0xc(%esp)
    1332:	00 
    1333:	89 44 24 08          	mov    %eax,0x8(%esp)
    1337:	c7 44 24 04 08 00 00 	movl   $0x8,0x4(%esp)
    133e:	00 
    133f:	c7 04 24 e9 0b 02 00 	movl   $0x20be9,(%esp)
    1346:	e8 f5 88 00 00       	call   9c40 <printf>
    134b:	a1 e4 42 02 00       	mov    0x242e4,%eax
    1350:	89 44 24 10          	mov    %eax,0x10(%esp)
    1354:	a1 e8 42 02 00       	mov    0x242e8,%eax
    1359:	c7 44 24 0c a0 42 02 	movl   $0x242a0,0xc(%esp)
    1360:	00 
    1361:	89 44 24 08          	mov    %eax,0x8(%esp)
    1365:	c7 44 24 04 09 00 00 	movl   $0x9,0x4(%esp)
    136c:	00 
    136d:	c7 04 24 e9 0b 02 00 	movl   $0x20be9,(%esp)
    1374:	e8 c7 88 00 00       	call   9c40 <printf>
    1379:	a1 34 43 02 00       	mov    0x24334,%eax
    137e:	89 44 24 10          	mov    %eax,0x10(%esp)
    1382:	a1 38 43 02 00       	mov    0x24338,%eax
    1387:	c7 44 24 0c f0 42 02 	movl   $0x242f0,0xc(%esp)
    138e:	00 
    138f:	89 44 24 08          	mov    %eax,0x8(%esp)
    1393:	c7 44 24 04 0a 00 00 	movl   $0xa,0x4(%esp)
    139a:	00 
    139b:	c7 04 24 e9 0b 02 00 	movl   $0x20be9,(%esp)
    13a2:	e8 99 88 00 00       	call   9c40 <printf>
    13a7:	85 db                	test   %ebx,%ebx
    13a9:	75 32                	jne    13dd <showscores+0x23d>
    13ab:	c7 04 24 58 0b 02 00 	movl   $0x20b58,(%esp)
    13b2:	e8 89 88 00 00       	call   9c40 <printf>
    13b7:	a1 84 43 02 00       	mov    0x24384,%eax
    13bc:	89 44 24 0c          	mov    %eax,0xc(%esp)
    13c0:	a1 88 43 02 00       	mov    0x24388,%eax
    13c5:	c7 44 24 08 40 43 02 	movl   $0x24340,0x8(%esp)
    13cc:	00 
    13cd:	89 44 24 04          	mov    %eax,0x4(%esp)
    13d1:	c7 04 24 fe 0b 02 00 	movl   $0x20bfe,(%esp)
    13d8:	e8 63 88 00 00       	call   9c40 <printf>
    13dd:	c7 04 24 94 0b 02 00 	movl   $0x20b94,(%esp)
    13e4:	e8 57 88 00 00       	call   9c40 <printf>
    13e9:	83 c4 24             	add    $0x24,%esp
    13ec:	5b                   	pop    %ebx
    13ed:	5d                   	pop    %ebp
    13ee:	e9 6d 75 00 00       	jmp    8960 <getchar>
    13f3:	8d b6 00 00 00 00    	lea    0x0(%esi),%esi
    13f9:	8d bc 27 00 00 00 00 	lea    0x0(%edi,%eiz,1),%edi

00001400 <insertscore>:
    1400:	55                   	push   %ebp
    1401:	89 e5                	mov    %esp,%ebp
    1403:	57                   	push   %edi
    1404:	56                   	push   %esi
    1405:	53                   	push   %ebx
    1406:	83 ec 3c             	sub    $0x3c,%esp
    1409:	bb 06 00 00 00       	mov    $0x6,%ebx
    140e:	e8 dd 0f 00 00       	call   23f0 <clear_screen>
    1413:	8d 7d d0             	lea    -0x30(%ebp),%edi
    1416:	c7 44 24 04 0a 00 00 	movl   $0xa,0x4(%esp)
    141d:	00 
    141e:	c7 04 24 0a 00 00 00 	movl   $0xa,(%esp)
    1425:	e8 06 11 00 00       	call   2530 <moveto>
    142a:	c7 04 24 16 0c 02 00 	movl   $0x20c16,(%esp)
    1431:	e8 da 81 00 00       	call   9610 <puts>
    1436:	c7 44 24 08 29 0c 02 	movl   $0x20c29,0x8(%esp)
    143d:	00 
    143e:	c7 44 24 04 41 00 00 	movl   $0x41,0x4(%esp)
    1445:	00 
    1446:	c7 04 24 40 43 02 00 	movl   $0x24340,(%esp)
    144d:	e8 ae 36 00 00       	call   4b00 <str_cpy>
    1452:	c7 44 24 04 1c 00 00 	movl   $0x1c,0x4(%esp)
    1459:	00 
    145a:	c7 04 24 0a 00 00 00 	movl   $0xa,(%esp)
    1461:	c7 45 c8 06 00 00 00 	movl   $0x6,-0x38(%ebp)
    1468:	e8 c3 10 00 00       	call   2530 <moveto>
    146d:	c7 44 24 0c c0 0b 02 	movl   $0x20bc0,0xc(%esp)
    1474:	00 
    1475:	c7 44 24 08 0a 00 00 	movl   $0xa,0x8(%esp)
    147c:	00 
    147d:	c7 44 24 04 40 43 02 	movl   $0x24340,0x4(%esp)
    1484:	00 
    1485:	c7 04 24 30 0c 02 00 	movl   $0x20c30,(%esp)
    148c:	8d 75 cc             	lea    -0x34(%ebp),%esi
    148f:	e8 ac 87 00 00       	call   9c40 <printf>
    1494:	8d 74 26 00          	lea    0x0(%esi,%eiz,1),%esi
    1498:	a1 f4 3f 02 00       	mov    0x23ff4,%eax
    149d:	89 04 24             	mov    %eax,(%esp)
    14a0:	e8 8b b4 00 00       	call   c930 <console_flush>
    14a5:	a1 f4 3f 02 00       	mov    0x23ff4,%eax
    14aa:	89 7c 24 04          	mov    %edi,0x4(%esp)
    14ae:	89 04 24             	mov    %eax,(%esp)
    14b1:	e8 8a b9 00 00       	call   ce40 <console_get_kbd_event>
    14b6:	84 c0                	test   %al,%al
    14b8:	0f 84 78 02 00 00    	je     1736 <insertscore+0x336>
    14be:	83 7d d8 01          	cmpl   $0x1,-0x28(%ebp)
    14c2:	74 d4                	je     1498 <insertscore+0x98>
    14c4:	8b 45 dc             	mov    -0x24(%ebp),%eax
    14c7:	83 f8 5a             	cmp    $0x5a,%eax
    14ca:	0f 84 e8 00 00 00    	je     15b8 <insertscore+0x1b8>
    14d0:	83 f8 29             	cmp    $0x29,%eax
    14d3:	0f 84 df 00 00 00    	je     15b8 <insertscore+0x1b8>
    14d9:	83 f8 0e             	cmp    $0xe,%eax
    14dc:	74 52                	je     1530 <insertscore+0x130>
    14de:	8b 45 e4             	mov    -0x1c(%ebp),%eax
    14e1:	85 c0                	test   %eax,%eax
    14e3:	74 09                	je     14ee <insertscore+0xee>
    14e5:	83 fb 0e             	cmp    $0xe,%ebx
    14e8:	0f 8e 92 00 00 00    	jle    1580 <insertscore+0x180>
    14ee:	c7 44 24 04 1c 00 00 	movl   $0x1c,0x4(%esp)
    14f5:	00 
    14f6:	c7 04 24 0a 00 00 00 	movl   $0xa,(%esp)
    14fd:	e8 2e 10 00 00       	call   2530 <moveto>
    1502:	b8 10 00 00 00       	mov    $0x10,%eax
    1507:	29 d8                	sub    %ebx,%eax
    1509:	c7 44 24 0c c0 0b 02 	movl   $0x20bc0,0xc(%esp)
    1510:	00 
    1511:	89 44 24 08          	mov    %eax,0x8(%esp)
    1515:	c7 44 24 04 40 43 02 	movl   $0x24340,0x4(%esp)
    151c:	00 
    151d:	c7 04 24 30 0c 02 00 	movl   $0x20c30,(%esp)
    1524:	e8 17 87 00 00       	call   9c40 <printf>
    1529:	e9 6a ff ff ff       	jmp    1498 <insertscore+0x98>
    152e:	66 90                	xchg   %ax,%ax
    1530:	85 db                	test   %ebx,%ebx
    1532:	7e ba                	jle    14ee <insertscore+0xee>
    1534:	8b 45 c8             	mov    -0x38(%ebp),%eax
    1537:	4b                   	dec    %ebx
    1538:	85 c0                	test   %eax,%eax
    153a:	75 10                	jne    154c <insertscore+0x14c>
    153c:	e9 93 01 00 00       	jmp    16d4 <insertscore+0x2d4>
    1541:	8d b4 26 00 00 00 00 	lea    0x0(%esi,%eiz,1),%esi
    1548:	85 c0                	test   %eax,%eax
    154a:	74 27                	je     1573 <insertscore+0x173>
    154c:	48                   	dec    %eax
    154d:	c7 44 24 08 41 00 00 	movl   $0x41,0x8(%esp)
    1554:	00 
    1555:	89 74 24 04          	mov    %esi,0x4(%esp)
    1559:	c7 04 24 40 43 02 00 	movl   $0x24340,(%esp)
    1560:	89 45 c8             	mov    %eax,-0x38(%ebp)
    1563:	89 45 cc             	mov    %eax,-0x34(%ebp)
    1566:	e8 a5 25 00 00       	call   3b10 <str_decode>
    156b:	83 f8 3f             	cmp    $0x3f,%eax
    156e:	8b 45 c8             	mov    -0x38(%ebp),%eax
    1571:	74 d5                	je     1548 <insertscore+0x148>
    1573:	c6 80 40 43 02 00 00 	movb   $0x0,0x24340(%eax)
    157a:	e9 6f ff ff ff       	jmp    14ee <insertscore+0xee>
    157f:	90                   	nop
    1580:	8d 55 c8             	lea    -0x38(%ebp),%edx
    1583:	c7 44 24 0c 41 00 00 	movl   $0x41,0xc(%esp)
    158a:	00 
    158b:	89 54 24 08          	mov    %edx,0x8(%esp)
    158f:	c7 44 24 04 40 43 02 	movl   $0x24340,0x4(%esp)
    1596:	00 
    1597:	89 04 24             	mov    %eax,(%esp)
    159a:	e8 c1 28 00 00       	call   3e60 <chr_encode>
    159f:	83 f8 01             	cmp    $0x1,%eax
    15a2:	8b 45 c8             	mov    -0x38(%ebp),%eax
    15a5:	83 d3 00             	adc    $0x0,%ebx
    15a8:	c6 80 40 43 02 00 00 	movb   $0x0,0x24340(%eax)
    15af:	e9 3a ff ff ff       	jmp    14ee <insertscore+0xee>
    15b4:	8d 74 26 00          	lea    0x0(%esi,%eiz,1),%esi
    15b8:	8b 55 08             	mov    0x8(%ebp),%edx
    15bb:	8b 45 0c             	mov    0xc(%ebp),%eax
    15be:	89 15 84 43 02 00    	mov    %edx,0x24384
    15c4:	a3 88 43 02 00       	mov    %eax,0x24388
    15c9:	39 15 34 43 02 00    	cmp    %edx,0x24334
    15cf:	0f 8d 0d 01 00 00    	jge    16e2 <insertscore+0x2e2>
    15d5:	3b 15 e4 42 02 00    	cmp    0x242e4,%edx
    15db:	0f 8e 08 01 00 00    	jle    16e9 <insertscore+0x2e9>
    15e1:	3b 15 94 42 02 00    	cmp    0x24294,%edx
    15e7:	0f 8e 03 01 00 00    	jle    16f0 <insertscore+0x2f0>
    15ed:	3b 15 44 42 02 00    	cmp    0x24244,%edx
    15f3:	0f 8e 0b 01 00 00    	jle    1704 <insertscore+0x304>
    15f9:	3b 15 f4 41 02 00    	cmp    0x241f4,%edx
    15ff:	0f 8e f5 00 00 00    	jle    16fa <insertscore+0x2fa>
    1605:	3b 15 a4 41 02 00    	cmp    0x241a4,%edx
    160b:	0f 8e 11 01 00 00    	jle    1722 <insertscore+0x322>
    1611:	3b 15 54 41 02 00    	cmp    0x24154,%edx
    1617:	0f 8e fb 00 00 00    	jle    1718 <insertscore+0x318>
    161d:	3b 15 04 41 02 00    	cmp    0x24104,%edx
    1623:	0f 8e e5 00 00 00    	jle    170e <insertscore+0x30e>
    1629:	3b 15 b4 40 02 00    	cmp    0x240b4,%edx
    162f:	0f 8e f7 00 00 00    	jle    172c <insertscore+0x32c>
    1635:	3b 15 64 40 02 00    	cmp    0x24064,%edx
    163b:	0f 9e c0             	setle  %al
    163e:	25 ff 00 00 00       	and    $0xff,%eax
    1643:	89 c6                	mov    %eax,%esi
    1645:	bb e4 42 02 00       	mov    $0x242e4,%ebx
    164a:	b8 09 00 00 00       	mov    $0x9,%eax
    164f:	90                   	nop
    1650:	8d 78 ff             	lea    -0x1(%eax),%edi
    1653:	8d 04 80             	lea    (%eax,%eax,4),%eax
    1656:	c1 e0 04             	shl    $0x4,%eax
    1659:	c7 44 24 04 41 00 00 	movl   $0x41,0x4(%esp)
    1660:	00 
    1661:	8d 14 bf             	lea    (%edi,%edi,4),%edx
    1664:	05 20 40 02 00       	add    $0x24020,%eax
    1669:	c1 e2 04             	shl    $0x4,%edx
    166c:	89 04 24             	mov    %eax,(%esp)
    166f:	81 c2 20 40 02 00    	add    $0x24020,%edx
    1675:	89 54 24 08          	mov    %edx,0x8(%esp)
    1679:	e8 82 34 00 00       	call   4b00 <str_cpy>
    167e:	8b 03                	mov    (%ebx),%eax
    1680:	89 43 50             	mov    %eax,0x50(%ebx)
    1683:	8b 43 04             	mov    0x4(%ebx),%eax
    1686:	89 43 54             	mov    %eax,0x54(%ebx)
    1689:	83 eb 50             	sub    $0x50,%ebx
    168c:	89 f8                	mov    %edi,%eax
    168e:	39 fe                	cmp    %edi,%esi
    1690:	7c be                	jl     1650 <insertscore+0x250>
    1692:	8d 1c b6             	lea    (%esi,%esi,4),%ebx
    1695:	c7 44 24 08 40 43 02 	movl   $0x24340,0x8(%esp)
    169c:	00 
    169d:	c1 e3 04             	shl    $0x4,%ebx
    16a0:	c7 44 24 04 41 00 00 	movl   $0x41,0x4(%esp)
    16a7:	00 
    16a8:	8d 83 20 40 02 00    	lea    0x24020(%ebx),%eax
    16ae:	89 04 24             	mov    %eax,(%esp)
    16b1:	e8 4a 34 00 00       	call   4b00 <str_cpy>
    16b6:	a1 84 43 02 00       	mov    0x24384,%eax
    16bb:	89 83 64 40 02 00    	mov    %eax,0x24064(%ebx)
    16c1:	a1 88 43 02 00       	mov    0x24388,%eax
    16c6:	89 83 68 40 02 00    	mov    %eax,0x24068(%ebx)
    16cc:	83 c4 3c             	add    $0x3c,%esp
    16cf:	5b                   	pop    %ebx
    16d0:	5e                   	pop    %esi
    16d1:	5f                   	pop    %edi
    16d2:	5d                   	pop    %ebp
    16d3:	c3                   	ret    
    16d4:	31 c0                	xor    %eax,%eax
    16d6:	c6 80 40 43 02 00 00 	movb   $0x0,0x24340(%eax)
    16dd:	e9 0c fe ff ff       	jmp    14ee <insertscore+0xee>
    16e2:	be 0a 00 00 00       	mov    $0xa,%esi
    16e7:	eb a9                	jmp    1692 <insertscore+0x292>
    16e9:	be 09 00 00 00       	mov    $0x9,%esi
    16ee:	eb a2                	jmp    1692 <insertscore+0x292>
    16f0:	be 08 00 00 00       	mov    $0x8,%esi
    16f5:	e9 4b ff ff ff       	jmp    1645 <insertscore+0x245>
    16fa:	be 06 00 00 00       	mov    $0x6,%esi
    16ff:	e9 41 ff ff ff       	jmp    1645 <insertscore+0x245>
    1704:	be 07 00 00 00       	mov    $0x7,%esi
    1709:	e9 37 ff ff ff       	jmp    1645 <insertscore+0x245>
    170e:	be 03 00 00 00       	mov    $0x3,%esi
    1713:	e9 2d ff ff ff       	jmp    1645 <insertscore+0x245>
    1718:	be 04 00 00 00       	mov    $0x4,%esi
    171d:	e9 23 ff ff ff       	jmp    1645 <insertscore+0x245>
    1722:	be 05 00 00 00       	mov    $0x5,%esi
    1727:	e9 19 ff ff ff       	jmp    1645 <insertscore+0x245>
    172c:	be 02 00 00 00       	mov    $0x2,%esi
    1731:	e9 0f ff ff ff       	jmp    1645 <insertscore+0x245>
    1736:	c7 04 24 01 00 00 00 	movl   $0x1,(%esp)
    173d:	e8 ee 16 00 00       	call   2e30 <exit>
    1742:	8d b4 26 00 00 00 00 	lea    0x0(%esi,%eiz,1),%esi
    1749:	8d bc 27 00 00 00 00 	lea    0x0(%edi,%eiz,1),%edi

00001750 <initscores>:
    1750:	55                   	push   %ebp
    1751:	89 e5                	mov    %esp,%ebp
    1753:	83 ec 18             	sub    $0x18,%esp
    1756:	c7 44 24 08 37 0c 02 	movl   $0x20c37,0x8(%esp)
    175d:	00 
    175e:	c7 44 24 04 41 00 00 	movl   $0x41,0x4(%esp)
    1765:	00 
    1766:	c7 04 24 20 40 02 00 	movl   $0x24020,(%esp)
    176d:	e8 8e 33 00 00       	call   4b00 <str_cpy>
    1772:	c7 44 24 08 37 0c 02 	movl   $0x20c37,0x8(%esp)
    1779:	00 
    177a:	c7 44 24 04 41 00 00 	movl   $0x41,0x4(%esp)
    1781:	00 
    1782:	c7 04 24 70 40 02 00 	movl   $0x24070,(%esp)
    1789:	c7 05 64 40 02 00 98 	movl   $0x898,0x24064
    1790:	08 00 00 
    1793:	c7 05 68 40 02 00 01 	movl   $0x1,0x24068
    179a:	00 00 00 
    179d:	e8 5e 33 00 00       	call   4b00 <str_cpy>
    17a2:	c7 44 24 08 37 0c 02 	movl   $0x20c37,0x8(%esp)
    17a9:	00 
    17aa:	c7 44 24 04 41 00 00 	movl   $0x41,0x4(%esp)
    17b1:	00 
    17b2:	c7 04 24 c0 40 02 00 	movl   $0x240c0,(%esp)
    17b9:	c7 05 b4 40 02 00 d0 	movl   $0x7d0,0x240b4
    17c0:	07 00 00 
    17c3:	c7 05 b8 40 02 00 02 	movl   $0x2,0x240b8
    17ca:	00 00 00 
    17cd:	e8 2e 33 00 00       	call   4b00 <str_cpy>
    17d2:	c7 44 24 08 37 0c 02 	movl   $0x20c37,0x8(%esp)
    17d9:	00 
    17da:	c7 44 24 04 41 00 00 	movl   $0x41,0x4(%esp)
    17e1:	00 
    17e2:	c7 04 24 10 41 02 00 	movl   $0x24110,(%esp)
    17e9:	c7 05 04 41 02 00 08 	movl   $0x708,0x24104
    17f0:	07 00 00 
    17f3:	c7 05 08 41 02 00 03 	movl   $0x3,0x24108
    17fa:	00 00 00 
    17fd:	e8 fe 32 00 00       	call   4b00 <str_cpy>
    1802:	c7 44 24 08 37 0c 02 	movl   $0x20c37,0x8(%esp)
    1809:	00 
    180a:	c7 44 24 04 41 00 00 	movl   $0x41,0x4(%esp)
    1811:	00 
    1812:	c7 04 24 60 41 02 00 	movl   $0x24160,(%esp)
    1819:	c7 05 54 41 02 00 40 	movl   $0x640,0x24154
    1820:	06 00 00 
    1823:	c7 05 58 41 02 00 04 	movl   $0x4,0x24158
    182a:	00 00 00 
    182d:	e8 ce 32 00 00       	call   4b00 <str_cpy>
    1832:	c7 44 24 08 37 0c 02 	movl   $0x20c37,0x8(%esp)
    1839:	00 
    183a:	c7 44 24 04 41 00 00 	movl   $0x41,0x4(%esp)
    1841:	00 
    1842:	c7 04 24 b0 41 02 00 	movl   $0x241b0,(%esp)
    1849:	c7 05 a4 41 02 00 78 	movl   $0x578,0x241a4
    1850:	05 00 00 
    1853:	c7 05 a8 41 02 00 05 	movl   $0x5,0x241a8
    185a:	00 00 00 
    185d:	e8 9e 32 00 00       	call   4b00 <str_cpy>
    1862:	c7 44 24 08 37 0c 02 	movl   $0x20c37,0x8(%esp)
    1869:	00 
    186a:	c7 44 24 04 41 00 00 	movl   $0x41,0x4(%esp)
    1871:	00 
    1872:	c7 04 24 00 42 02 00 	movl   $0x24200,(%esp)
    1879:	c7 05 f4 41 02 00 b0 	movl   $0x4b0,0x241f4
    1880:	04 00 00 
    1883:	c7 05 f8 41 02 00 06 	movl   $0x6,0x241f8
    188a:	00 00 00 
    188d:	e8 6e 32 00 00       	call   4b00 <str_cpy>
    1892:	c7 44 24 08 37 0c 02 	movl   $0x20c37,0x8(%esp)
    1899:	00 
    189a:	c7 44 24 04 41 00 00 	movl   $0x41,0x4(%esp)
    18a1:	00 
    18a2:	c7 04 24 50 42 02 00 	movl   $0x24250,(%esp)
    18a9:	c7 05 44 42 02 00 e8 	movl   $0x3e8,0x24244
    18b0:	03 00 00 
    18b3:	c7 05 48 42 02 00 07 	movl   $0x7,0x24248
    18ba:	00 00 00 
    18bd:	e8 3e 32 00 00       	call   4b00 <str_cpy>
    18c2:	c7 44 24 08 37 0c 02 	movl   $0x20c37,0x8(%esp)
    18c9:	00 
    18ca:	c7 44 24 04 41 00 00 	movl   $0x41,0x4(%esp)
    18d1:	00 
    18d2:	c7 04 24 a0 42 02 00 	movl   $0x242a0,(%esp)
    18d9:	c7 05 94 42 02 00 20 	movl   $0x320,0x24294
    18e0:	03 00 00 
    18e3:	c7 05 98 42 02 00 08 	movl   $0x8,0x24298
    18ea:	00 00 00 
    18ed:	e8 0e 32 00 00       	call   4b00 <str_cpy>
    18f2:	c7 44 24 08 37 0c 02 	movl   $0x20c37,0x8(%esp)
    18f9:	00 
    18fa:	c7 44 24 04 41 00 00 	movl   $0x41,0x4(%esp)
    1901:	00 
    1902:	c7 04 24 f0 42 02 00 	movl   $0x242f0,(%esp)
    1909:	c7 05 e4 42 02 00 58 	movl   $0x258,0x242e4
    1910:	02 00 00 
    1913:	c7 05 e8 42 02 00 09 	movl   $0x9,0x242e8
    191a:	00 00 00 
    191d:	e8 de 31 00 00       	call   4b00 <str_cpy>
    1922:	c7 44 24 08 37 0c 02 	movl   $0x20c37,0x8(%esp)
    1929:	00 
    192a:	c7 44 24 04 41 00 00 	movl   $0x41,0x4(%esp)
    1931:	00 
    1932:	c7 04 24 40 43 02 00 	movl   $0x24340,(%esp)
    1939:	c7 05 34 43 02 00 90 	movl   $0x190,0x24334
    1940:	01 00 00 
    1943:	c7 05 38 43 02 00 09 	movl   $0x9,0x24338
    194a:	00 00 00 
    194d:	e8 ae 31 00 00       	call   4b00 <str_cpy>
    1952:	c7 05 84 43 02 00 c8 	movl   $0xc8,0x24384
    1959:	00 00 00 
    195c:	c7 05 88 43 02 00 09 	movl   $0x9,0x24388
    1963:	00 00 00 
    1966:	c9                   	leave  
    1967:	c3                   	ret    
    1968:	90                   	nop
    1969:	8d b4 26 00 00 00 00 	lea    0x0(%esi,%eiz,1),%esi

00001970 <loadscores>:
    1970:	55                   	push   %ebp
    1971:	89 e5                	mov    %esp,%ebp
    1973:	56                   	push   %esi
    1974:	53                   	push   %ebx
    1975:	83 ec 10             	sub    $0x10,%esp
    1978:	c7 44 24 04 44 0c 02 	movl   $0x20c44,0x4(%esp)
    197f:	00 
    1980:	c7 04 24 47 0c 02 00 	movl   $0x20c47,(%esp)
    1987:	e8 54 63 00 00       	call   7ce0 <fopen>
    198c:	89 c3                	mov    %eax,%ebx
    198e:	85 c0                	test   %eax,%eax
    1990:	74 46                	je     19d8 <loadscores+0x68>
    1992:	89 44 24 0c          	mov    %eax,0xc(%esp)
    1996:	c7 44 24 08 0b 00 00 	movl   $0xb,0x8(%esp)
    199d:	00 
    199e:	c7 44 24 04 50 00 00 	movl   $0x50,0x4(%esp)
    19a5:	00 
    19a6:	c7 04 24 20 40 02 00 	movl   $0x24020,(%esp)
    19ad:	e8 ce 67 00 00       	call   8180 <fread>
    19b2:	89 1c 24             	mov    %ebx,(%esp)
    19b5:	89 c6                	mov    %eax,%esi
    19b7:	e8 14 66 00 00       	call   7fd0 <fclose>
    19bc:	85 c0                	test   %eax,%eax
    19be:	75 10                	jne    19d0 <loadscores+0x60>
    19c0:	83 fe 0b             	cmp    $0xb,%esi
    19c3:	75 0b                	jne    19d0 <loadscores+0x60>
    19c5:	83 c4 10             	add    $0x10,%esp
    19c8:	5b                   	pop    %ebx
    19c9:	5e                   	pop    %esi
    19ca:	5d                   	pop    %ebp
    19cb:	c3                   	ret    
    19cc:	8d 74 26 00          	lea    0x0(%esi,%eiz,1),%esi
    19d0:	b8 f7 fe ff ff       	mov    $0xfffffef7,%eax
    19d5:	eb ee                	jmp    19c5 <loadscores+0x55>
    19d7:	90                   	nop
    19d8:	83 c8 ff             	or     $0xffffffff,%eax
    19db:	eb e8                	jmp    19c5 <loadscores+0x55>
    19dd:	8d 76 00             	lea    0x0(%esi),%esi

000019e0 <savescores>:
    19e0:	55                   	push   %ebp
    19e1:	89 e5                	mov    %esp,%ebp
    19e3:	56                   	push   %esi
    19e4:	53                   	push   %ebx
    19e5:	83 ec 10             	sub    $0x10,%esp
    19e8:	c7 44 24 04 58 0c 02 	movl   $0x20c58,0x4(%esp)
    19ef:	00 
    19f0:	c7 04 24 47 0c 02 00 	movl   $0x20c47,(%esp)
    19f7:	e8 e4 62 00 00       	call   7ce0 <fopen>
    19fc:	c7 44 24 08 0b 00 00 	movl   $0xb,0x8(%esp)
    1a03:	00 
    1a04:	89 44 24 0c          	mov    %eax,0xc(%esp)
    1a08:	c7 44 24 04 50 00 00 	movl   $0x50,0x4(%esp)
    1a0f:	00 
    1a10:	c7 04 24 20 40 02 00 	movl   $0x24020,(%esp)
    1a17:	89 c3                	mov    %eax,%ebx
    1a19:	e8 92 78 00 00       	call   92b0 <fwrite>
    1a1e:	89 1c 24             	mov    %ebx,(%esp)
    1a21:	89 c6                	mov    %eax,%esi
    1a23:	e8 a8 65 00 00       	call   7fd0 <fclose>
    1a28:	85 c0                	test   %eax,%eax
    1a2a:	75 0c                	jne    1a38 <savescores+0x58>
    1a2c:	83 fe 0b             	cmp    $0xb,%esi
    1a2f:	75 07                	jne    1a38 <savescores+0x58>
    1a31:	83 c4 10             	add    $0x10,%esp
    1a34:	5b                   	pop    %ebx
    1a35:	5e                   	pop    %esi
    1a36:	5d                   	pop    %ebp
    1a37:	c3                   	ret    
    1a38:	c7 04 24 5b 0c 02 00 	movl   $0x20c5b,(%esp)
    1a3f:	e8 fc 81 00 00       	call   9c40 <printf>
    1a44:	83 c4 10             	add    $0x10,%esp
    1a47:	5b                   	pop    %ebx
    1a48:	5e                   	pop    %esi
    1a49:	5d                   	pop    %ebp
    1a4a:	c3                   	ret    
    1a4b:	66 90                	xchg   %ax,%ax
    1a4d:	66 90                	xchg   %ax,%ax
    1a4f:	90                   	nop

00001a50 <usage>:
    1a50:	55                   	push   %ebp
    1a51:	89 e5                	mov    %esp,%ebp
    1a53:	83 ec 18             	sub    $0x18,%esp
    1a56:	a1 30 48 02 00       	mov    0x24830,%eax
    1a5b:	c7 44 24 04 78 0c 02 	movl   $0x20c78,0x4(%esp)
    1a62:	00 
    1a63:	89 04 24             	mov    %eax,(%esp)
    1a66:	e8 a5 81 00 00       	call   9c10 <fprintf>
    1a6b:	c7 04 24 01 00 00 00 	movl   $0x1,(%esp)
    1a72:	e8 b9 13 00 00       	call   2e30 <exit>
    1a77:	89 f6                	mov    %esi,%esi
    1a79:	8d bc 27 00 00 00 00 	lea    0x0(%edi,%eiz,1),%edi

00001a80 <randshape>:
    1a80:	55                   	push   %ebp
    1a81:	89 e5                	mov    %esp,%ebp
    1a83:	53                   	push   %ebx
    1a84:	53                   	push   %ebx
    1a85:	e8 96 61 01 00       	call   17c20 <random>
    1a8a:	89 c2                	mov    %eax,%edx
    1a8c:	b9 07 00 00 00       	mov    $0x7,%ecx
    1a91:	c1 fa 1f             	sar    $0x1f,%edx
    1a94:	f7 f9                	idiv   %ecx
    1a96:	8d 04 52             	lea    (%edx,%edx,2),%eax
    1a99:	8d 1c c5 60 09 02 00 	lea    0x20960(,%eax,8),%ebx
    1aa0:	e8 7b 61 01 00       	call   17c20 <random>
    1aa5:	89 c2                	mov    %eax,%edx
    1aa7:	c1 fa 1f             	sar    $0x1f,%edx
    1aaa:	c1 ea 1e             	shr    $0x1e,%edx
    1aad:	01 d0                	add    %edx,%eax
    1aaf:	83 e0 03             	and    $0x3,%eax
    1ab2:	29 d0                	sub    %edx,%eax
    1ab4:	85 c0                	test   %eax,%eax
    1ab6:	7e 21                	jle    1ad9 <randshape+0x59>
    1ab8:	8b 0d e4 3f 02 00    	mov    0x23fe4,%ecx
    1abe:	31 d2                	xor    %edx,%edx
    1ac0:	85 c9                	test   %ecx,%ecx
    1ac2:	75 1c                	jne    1ae0 <randshape+0x60>
    1ac4:	8d 74 26 00          	lea    0x0(%esi,%eiz,1),%esi
    1ac8:	8b 0b                	mov    (%ebx),%ecx
    1aca:	42                   	inc    %edx
    1acb:	39 c2                	cmp    %eax,%edx
    1acd:	8d 0c 49             	lea    (%ecx,%ecx,2),%ecx
    1ad0:	8d 1c cd 60 09 02 00 	lea    0x20960(,%ecx,8),%ebx
    1ad7:	75 ef                	jne    1ac8 <randshape+0x48>
    1ad9:	89 d8                	mov    %ebx,%eax
    1adb:	5a                   	pop    %edx
    1adc:	5b                   	pop    %ebx
    1add:	5d                   	pop    %ebp
    1ade:	c3                   	ret    
    1adf:	90                   	nop
    1ae0:	8b 4b 04             	mov    0x4(%ebx),%ecx
    1ae3:	42                   	inc    %edx
    1ae4:	39 c2                	cmp    %eax,%edx
    1ae6:	8d 0c 49             	lea    (%ecx,%ecx,2),%ecx
    1ae9:	8d 1c cd 60 09 02 00 	lea    0x20960(,%ecx,8),%ebx
    1af0:	75 ee                	jne    1ae0 <randshape+0x60>
    1af2:	eb e5                	jmp    1ad9 <randshape+0x59>
    1af4:	8d b6 00 00 00 00    	lea    0x0(%esi),%esi
    1afa:	8d bf 00 00 00 00    	lea    0x0(%edi),%edi

00001b00 <tetris_menu_draw>:
    1b00:	55                   	push   %ebp
    1b01:	89 e5                	mov    %esp,%ebp
    1b03:	53                   	push   %ebx
    1b04:	83 ec 14             	sub    $0x14,%esp
    1b07:	89 c3                	mov    %eax,%ebx
    1b09:	e8 e2 08 00 00       	call   23f0 <clear_screen>
    1b0e:	c7 44 24 04 0a 00 00 	movl   $0xa,0x4(%esp)
    1b15:	00 
    1b16:	c7 04 24 05 00 00 00 	movl   $0x5,(%esp)
    1b1d:	e8 0e 0a 00 00       	call   2530 <moveto>
    1b22:	c7 04 24 7e 0d 02 00 	movl   $0x20d7e,(%esp)
    1b29:	e8 e2 7a 00 00       	call   9610 <puts>
    1b2e:	c7 44 24 04 0a 00 00 	movl   $0xa,0x4(%esp)
    1b35:	00 
    1b36:	c7 04 24 08 00 00 00 	movl   $0x8,(%esp)
    1b3d:	e8 ee 09 00 00       	call   2530 <moveto>
    1b42:	89 5c 24 04          	mov    %ebx,0x4(%esp)
    1b46:	c7 04 24 98 0c 02 00 	movl   $0x20c98,(%esp)
    1b4d:	e8 ee 80 00 00       	call   9c40 <printf>
    1b52:	c7 44 24 04 0a 00 00 	movl   $0xa,0x4(%esp)
    1b59:	00 
    1b5a:	c7 04 24 09 00 00 00 	movl   $0x9,(%esp)
    1b61:	e8 ca 09 00 00       	call   2530 <moveto>
    1b66:	8b 15 60 3f 02 00    	mov    0x23f60,%edx
    1b6c:	b8 7a 0d 02 00       	mov    $0x20d7a,%eax
    1b71:	85 d2                	test   %edx,%edx
    1b73:	74 05                	je     1b7a <tetris_menu_draw+0x7a>
    1b75:	b8 76 0d 02 00       	mov    $0x20d76,%eax
    1b7a:	89 44 24 04          	mov    %eax,0x4(%esp)
    1b7e:	c7 04 24 c0 0c 02 00 	movl   $0x20cc0,(%esp)
    1b85:	e8 b6 80 00 00       	call   9c40 <printf>
    1b8a:	c7 44 24 04 0a 00 00 	movl   $0xa,0x4(%esp)
    1b91:	00 
    1b92:	c7 04 24 0c 00 00 00 	movl   $0xc,(%esp)
    1b99:	e8 92 09 00 00       	call   2530 <moveto>
    1b9e:	c7 04 24 e4 0c 02 00 	movl   $0x20ce4,(%esp)
    1ba5:	e8 96 80 00 00       	call   9c40 <printf>
    1baa:	c7 44 24 04 0a 00 00 	movl   $0xa,0x4(%esp)
    1bb1:	00 
    1bb2:	c7 04 24 0d 00 00 00 	movl   $0xd,(%esp)
    1bb9:	e8 72 09 00 00       	call   2530 <moveto>
    1bbe:	c7 04 24 87 0d 02 00 	movl   $0x20d87,(%esp)
    1bc5:	e8 76 80 00 00       	call   9c40 <printf>
    1bca:	c7 44 24 04 0a 00 00 	movl   $0xa,0x4(%esp)
    1bd1:	00 
    1bd2:	c7 04 24 0e 00 00 00 	movl   $0xe,(%esp)
    1bd9:	e8 52 09 00 00       	call   2530 <moveto>
    1bde:	c7 04 24 a0 0d 02 00 	movl   $0x20da0,(%esp)
    1be5:	e8 56 80 00 00       	call   9c40 <printf>
    1bea:	c7 44 24 04 0a 00 00 	movl   $0xa,0x4(%esp)
    1bf1:	00 
    1bf2:	c7 04 24 14 00 00 00 	movl   $0x14,(%esp)
    1bf9:	e8 32 09 00 00       	call   2530 <moveto>
    1bfe:	c7 04 24 b8 0d 02 00 	movl   $0x20db8,(%esp)
    1c05:	e8 36 80 00 00       	call   9c40 <printf>
    1c0a:	c7 44 24 04 00 00 00 	movl   $0x0,0x4(%esp)
    1c11:	00 
    1c12:	c7 04 24 15 00 00 00 	movl   $0x15,(%esp)
    1c19:	e8 12 09 00 00       	call   2530 <moveto>
    1c1e:	c7 04 24 80 3f 02 00 	movl   $0x23f80,(%esp)
    1c25:	e8 e6 79 00 00       	call   9610 <puts>
    1c2a:	83 c4 14             	add    $0x14,%esp
    1c2d:	5b                   	pop    %ebx
    1c2e:	5d                   	pop    %ebp
    1c2f:	c3                   	ret    

00001c30 <main>:
    1c30:	55                   	push   %ebp
    1c31:	89 e5                	mov    %esp,%ebp
    1c33:	57                   	push   %edi
    1c34:	56                   	push   %esi
    1c35:	53                   	push   %ebx
    1c36:	83 e4 f0             	and    $0xfffffff0,%esp
    1c39:	be ca 0d 02 00       	mov    $0x20dca,%esi
    1c3e:	81 ec 90 00 00 00    	sub    $0x90,%esp
    1c44:	a1 34 48 02 00       	mov    0x24834,%eax
    1c49:	8b 5d 08             	mov    0x8(%ebp),%ebx
    1c4c:	89 44 24 04          	mov    %eax,0x4(%esp)
    1c50:	a1 38 48 02 00       	mov    0x24838,%eax
    1c55:	89 04 24             	mov    %eax,(%esp)
    1c58:	8b 7d 0c             	mov    0xc(%ebp),%edi
    1c5b:	e8 f0 ab 00 00       	call   c850 <console_init>
    1c60:	c7 05 e4 3f 02 00 00 	movl   $0x0,0x23fe4
    1c67:	00 00 00 
    1c6a:	a3 f4 3f 02 00       	mov    %eax,0x23ff4
    1c6f:	c7 05 60 3f 02 00 01 	movl   $0x1,0x23f60
    1c76:	00 00 00 
    1c79:	c7 44 24 08 d1 0d 02 	movl   $0x20dd1,0x8(%esp)
    1c80:	00 
    1c81:	89 7c 24 04          	mov    %edi,0x4(%esp)
    1c85:	89 1c 24             	mov    %ebx,(%esp)
    1c88:	e8 23 34 01 00       	call   150b0 <getopt>
    1c8d:	83 f8 ff             	cmp    $0xffffffff,%eax
    1c90:	74 60                	je     1cf2 <main+0xc2>
    1c92:	83 f8 6b             	cmp    $0x6b,%eax
    1c95:	74 3a                	je     1cd1 <main+0xa1>
    1c97:	7f 0a                	jg     1ca3 <main+0x73>
    1c99:	83 f8 63             	cmp    $0x63,%eax
    1c9c:	74 48                	je     1ce6 <main+0xb6>
    1c9e:	e8 ad fd ff ff       	call   1a50 <usage>
    1ca3:	83 f8 70             	cmp    $0x70,%eax
    1ca6:	74 1d                	je     1cc5 <main+0x95>
    1ca8:	83 f8 73             	cmp    $0x73,%eax
    1cab:	75 f1                	jne    1c9e <main+0x6e>
    1cad:	c7 04 24 00 00 00 00 	movl   $0x0,(%esp)
    1cb4:	e8 e7 f4 ff ff       	call   11a0 <showscores>
    1cb9:	c7 04 24 00 00 00 00 	movl   $0x0,(%esp)
    1cc0:	e8 6b 11 00 00       	call   2e30 <exit>
    1cc5:	c7 05 60 3f 02 00 01 	movl   $0x1,0x23f60
    1ccc:	00 00 00 
    1ccf:	eb a8                	jmp    1c79 <main+0x49>
    1cd1:	8b 35 00 40 02 00    	mov    0x24000,%esi
    1cd7:	89 34 24             	mov    %esi,(%esp)
    1cda:	e8 71 22 00 00       	call   3f50 <str_size>
    1cdf:	83 f8 06             	cmp    $0x6,%eax
    1ce2:	74 95                	je     1c79 <main+0x49>
    1ce4:	eb b8                	jmp    1c9e <main+0x6e>
    1ce6:	c7 05 e4 3f 02 00 01 	movl   $0x1,0x23fe4
    1ced:	00 00 00 
    1cf0:	eb 87                	jmp    1c79 <main+0x49>
    1cf2:	3b 1d 34 3a 02 00    	cmp    0x23a34,%ebx
    1cf8:	75 a4                	jne    1c9e <main+0x6e>
    1cfa:	8d 7c 24 54          	lea    0x54(%esp),%edi
    1cfe:	31 d2                	xor    %edx,%edx
    1d00:	8d 5a 01             	lea    0x1(%edx),%ebx
    1d03:	83 fb 06             	cmp    $0x6,%ebx
    1d06:	74 27                	je     1d2f <main+0xff>
    1d08:	8a 4c 1e ff          	mov    -0x1(%esi,%ebx,1),%cl
    1d0c:	3a 4c 16 01          	cmp    0x1(%esi,%edx,1),%cl
    1d10:	0f 84 a8 06 00 00    	je     23be <main+0x78e>
    1d16:	89 d8                	mov    %ebx,%eax
    1d18:	eb 0f                	jmp    1d29 <main+0xf9>
    1d1a:	8d b6 00 00 00 00    	lea    0x0(%esi),%esi
    1d20:	38 0c 06             	cmp    %cl,(%esi,%eax,1)
    1d23:	0f 84 95 06 00 00    	je     23be <main+0x78e>
    1d29:	40                   	inc    %eax
    1d2a:	83 f8 06             	cmp    $0x6,%eax
    1d2d:	75 f1                	jne    1d20 <main+0xf0>
    1d2f:	8a 44 1e ff          	mov    -0x1(%esi,%ebx,1),%al
    1d33:	3c 20                	cmp    $0x20,%al
    1d35:	0f 84 51 06 00 00    	je     238c <main+0x75c>
    1d3b:	88 07                	mov    %al,(%edi)
    1d3d:	c6 47 01 00          	movb   $0x0,0x1(%edi)
    1d41:	83 c7 0a             	add    $0xa,%edi
    1d44:	89 da                	mov    %ebx,%edx
    1d46:	83 fb 06             	cmp    $0x6,%ebx
    1d49:	75 b5                	jne    1d00 <main+0xd0>
    1d4b:	8d 84 24 86 00 00 00 	lea    0x86(%esp),%eax
    1d52:	c7 44 24 08 2c 0d 02 	movl   $0x20d2c,0x8(%esp)
    1d59:	00 
    1d5a:	89 44 24 20          	mov    %eax,0x20(%esp)
    1d5e:	8d 44 24 7c          	lea    0x7c(%esp),%eax
    1d62:	89 44 24 1c          	mov    %eax,0x1c(%esp)
    1d66:	8d 44 24 72          	lea    0x72(%esp),%eax
    1d6a:	89 44 24 18          	mov    %eax,0x18(%esp)
    1d6e:	8d 44 24 68          	lea    0x68(%esp),%eax
    1d72:	89 44 24 14          	mov    %eax,0x14(%esp)
    1d76:	8d 44 24 5e          	lea    0x5e(%esp),%eax
    1d7a:	89 44 24 10          	mov    %eax,0x10(%esp)
    1d7e:	8d 44 24 54          	lea    0x54(%esp),%eax
    1d82:	89 44 24 0c          	mov    %eax,0xc(%esp)
    1d86:	c7 44 24 04 64 00 00 	movl   $0x64,0x4(%esp)
    1d8d:	00 
    1d8e:	c7 04 24 80 3f 02 00 	movl   $0x23f80,(%esp)
    1d95:	e8 46 81 00 00       	call   9ee0 <snprintf>
    1d9a:	e8 f1 06 00 00       	call   2490 <scr_init>
    1d9f:	e8 cc fb ff ff       	call   1970 <loadscores>
    1da4:	85 c0                	test   %eax,%eax
    1da6:	0f 85 32 06 00 00    	jne    23de <main+0x7ae>
    1dac:	c7 44 24 38 02 00 00 	movl   $0x2,0x38(%esp)
    1db3:	00 
    1db4:	8b 44 24 38          	mov    0x38(%esp),%eax
    1db8:	e8 43 fd ff ff       	call   1b00 <tetris_menu_draw>
    1dbd:	e8 9e 6b 00 00       	call   8960 <getchar>
    1dc2:	83 f8 68             	cmp    $0x68,%eax
    1dc5:	0f 84 94 00 00 00    	je     1e5f <main+0x22f>
    1dcb:	7f 39                	jg     1e06 <main+0x1d6>
    1dcd:	8d 50 cf             	lea    -0x31(%eax),%edx
    1dd0:	83 fa 08             	cmp    $0x8,%edx
    1dd3:	77 e8                	ja     1dbd <main+0x18d>
    1dd5:	83 e8 30             	sub    $0x30,%eax
    1dd8:	c7 44 24 04 12 00 00 	movl   $0x12,0x4(%esp)
    1ddf:	00 
    1de0:	c7 04 24 08 00 00 00 	movl   $0x8,(%esp)
    1de7:	89 44 24 38          	mov    %eax,0x38(%esp)
    1deb:	e8 40 07 00 00       	call   2530 <moveto>
    1df0:	8b 54 24 38          	mov    0x38(%esp),%edx
    1df4:	89 54 24 04          	mov    %edx,0x4(%esp)
    1df8:	c7 04 24 17 0e 02 00 	movl   $0x20e17,(%esp)
    1dff:	e8 3c 7e 00 00       	call   9c40 <printf>
    1e04:	eb b7                	jmp    1dbd <main+0x18d>
    1e06:	83 f8 71             	cmp    $0x71,%eax
    1e09:	0f 84 1f 05 00 00    	je     232e <main+0x6fe>
    1e0f:	83 f8 73             	cmp    $0x73,%eax
    1e12:	74 6b                	je     1e7f <main+0x24f>
    1e14:	83 f8 70             	cmp    $0x70,%eax
    1e17:	75 a4                	jne    1dbd <main+0x18d>
    1e19:	83 3d 60 3f 02 00 00 	cmpl   $0x0,0x23f60
    1e20:	0f 94 c0             	sete   %al
    1e23:	25 ff 00 00 00       	and    $0xff,%eax
    1e28:	c7 44 24 04 15 00 00 	movl   $0x15,0x4(%esp)
    1e2f:	00 
    1e30:	c7 04 24 09 00 00 00 	movl   $0x9,(%esp)
    1e37:	a3 60 3f 02 00       	mov    %eax,0x23f60
    1e3c:	e8 ef 06 00 00       	call   2530 <moveto>
    1e41:	83 3d 60 3f 02 00 00 	cmpl   $0x0,0x23f60
    1e48:	0f 84 21 05 00 00    	je     236f <main+0x73f>
    1e4e:	c7 04 24 76 0d 02 00 	movl   $0x20d76,(%esp)
    1e55:	e8 e6 7d 00 00       	call   9c40 <printf>
    1e5a:	e9 5e ff ff ff       	jmp    1dbd <main+0x18d>
    1e5f:	e8 0c fb ff ff       	call   1970 <loadscores>
    1e64:	a1 c4 38 02 00       	mov    0x238c4,%eax
    1e69:	89 04 24             	mov    %eax,(%esp)
    1e6c:	e8 2f f3 ff ff       	call   11a0 <showscores>
    1e71:	8b 44 24 38          	mov    0x38(%esp),%eax
    1e75:	e8 86 fc ff ff       	call   1b00 <tetris_menu_draw>
    1e7a:	e9 3e ff ff ff       	jmp    1dbd <main+0x18d>
    1e7f:	b8 40 42 0f 00       	mov    $0xf4240,%eax
    1e84:	c7 05 c4 38 02 00 00 	movl   $0x0,0x238c4
    1e8b:	00 00 00 
    1e8e:	89 c2                	mov    %eax,%edx
    1e90:	bb 14 01 00 00       	mov    $0x114,%ebx
    1e95:	c1 fa 1f             	sar    $0x1f,%edx
    1e98:	bf 0c 00 00 00       	mov    $0xc,%edi
    1e9d:	f7 7c 24 38          	idivl  0x38(%esp)
    1ea1:	a3 5c 3f 02 00       	mov    %eax,0x23f5c
    1ea6:	e8 85 05 00 00       	call   2430 <scr_clear>
    1eab:	b9 00 3b 02 00       	mov    $0x23b00,%ecx
    1eb0:	eb 22                	jmp    1ed4 <main+0x2a4>
    1eb2:	8d b6 00 00 00 00    	lea    0x0(%esi),%esi
    1eb8:	89 da                	mov    %ebx,%edx
    1eba:	89 d8                	mov    %ebx,%eax
    1ebc:	c1 fa 1f             	sar    $0x1f,%edx
    1ebf:	f7 ff                	idiv   %edi
    1ec1:	4a                   	dec    %edx
    1ec2:	7e 15                	jle    1ed9 <main+0x2a9>
    1ec4:	31 c0                	xor    %eax,%eax
    1ec6:	4b                   	dec    %ebx
    1ec7:	89 01                	mov    %eax,(%ecx)
    1ec9:	83 c1 04             	add    $0x4,%ecx
    1ecc:	81 f9 50 3f 02 00    	cmp    $0x23f50,%ecx
    1ed2:	74 18                	je     1eec <main+0x2bc>
    1ed4:	83 fb 18             	cmp    $0x18,%ebx
    1ed7:	7f df                	jg     1eb8 <main+0x288>
    1ed9:	b8 ff 00 00 00       	mov    $0xff,%eax
    1ede:	4b                   	dec    %ebx
    1edf:	89 01                	mov    %eax,(%ecx)
    1ee1:	83 c1 04             	add    $0x4,%ecx
    1ee4:	81 f9 50 3f 02 00    	cmp    $0x23f50,%ecx
    1eea:	75 e8                	jne    1ed4 <main+0x2a4>
    1eec:	8d 54 24 4c          	lea    0x4c(%esp),%edx
    1ef0:	c7 44 24 04 00 00 00 	movl   $0x0,0x4(%esp)
    1ef7:	00 
    1ef8:	89 14 24             	mov    %edx,(%esp)
    1efb:	bb 11 00 00 00       	mov    $0x11,%ebx
    1f00:	e8 0b 4e 01 00       	call   16d10 <gettimeofday>
    1f05:	8b 44 24 50          	mov    0x50(%esp),%eax
    1f09:	89 c2                	mov    %eax,%edx
    1f0b:	b9 a0 86 01 00       	mov    $0x186a0,%ecx
    1f10:	c1 fa 1f             	sar    $0x1f,%edx
    1f13:	f7 f9                	idiv   %ecx
    1f15:	03 44 24 4c          	add    0x4c(%esp),%eax
    1f19:	89 04 24             	mov    %eax,(%esp)
    1f1c:	e8 3f 5d 01 00       	call   17c60 <srandom>
    1f21:	e8 9a 06 00 00       	call   25c0 <scr_set>
    1f26:	e8 55 fb ff ff       	call   1a80 <randshape>
    1f2b:	a3 50 3f 02 00       	mov    %eax,0x23f50
    1f30:	e8 4b fb ff ff       	call   1a80 <randshape>
    1f35:	c7 44 24 04 01 00 00 	movl   $0x1,0x4(%esp)
    1f3c:	00 
    1f3d:	c7 04 24 80 3f 02 00 	movl   $0x23f80,(%esp)
    1f44:	a3 e8 3f 02 00       	mov    %eax,0x23fe8
    1f49:	e8 f2 0c 00 00       	call   2c40 <scr_msg>
    1f4e:	8b 3d e8 3f 02 00    	mov    0x23fe8,%edi
    1f54:	8d 74 26 00          	lea    0x0(%esi,%eiz,1),%esi
    1f58:	c7 44 24 08 01 00 00 	movl   $0x1,0x8(%esp)
    1f5f:	00 
    1f60:	89 5c 24 04          	mov    %ebx,0x4(%esp)
    1f64:	89 3c 24             	mov    %edi,(%esp)
    1f67:	e8 a4 f1 ff ff       	call   1110 <place>
    1f6c:	e8 6f 07 00 00       	call   26e0 <scr_update>
    1f71:	a1 e8 3f 02 00       	mov    0x23fe8,%eax
    1f76:	89 04 24             	mov    %eax,(%esp)
    1f79:	c7 44 24 08 00 00 00 	movl   $0x0,0x8(%esp)
    1f80:	00 
    1f81:	89 5c 24 04          	mov    %ebx,0x4(%esp)
    1f85:	e8 86 f1 ff ff       	call   1110 <place>
    1f8a:	e8 c1 0d 00 00       	call   2d50 <tgetchar>
    1f8f:	85 c0                	test   %eax,%eax
    1f91:	0f 88 bd 00 00 00    	js     2054 <main+0x424>
    1f97:	0f be 56 05          	movsbl 0x5(%esi),%edx
    1f9b:	39 c2                	cmp    %eax,%edx
    1f9d:	0f 84 bc 01 00 00    	je     215f <main+0x52f>
    1fa3:	0f be 56 04          	movsbl 0x4(%esi),%edx
    1fa7:	39 c2                	cmp    %eax,%edx
    1fa9:	0f 84 d6 00 00 00    	je     2085 <main+0x455>
    1faf:	0f be 16             	movsbl (%esi),%edx
    1fb2:	39 c2                	cmp    %eax,%edx
    1fb4:	0f 84 75 01 00 00    	je     212f <main+0x4ff>
    1fba:	0f be 56 01          	movsbl 0x1(%esi),%edx
    1fbe:	39 c2                	cmp    %eax,%edx
    1fc0:	74 57                	je     2019 <main+0x3e9>
    1fc2:	0f be 56 02          	movsbl 0x2(%esi),%edx
    1fc6:	39 c2                	cmp    %eax,%edx
    1fc8:	0f 84 c4 01 00 00    	je     2192 <main+0x562>
    1fce:	0f be 56 03          	movsbl 0x3(%esi),%edx
    1fd2:	39 c2                	cmp    %eax,%edx
    1fd4:	74 29                	je     1fff <main+0x3cf>
    1fd6:	83 f8 0c             	cmp    $0xc,%eax
    1fd9:	0f 84 31 03 00 00    	je     2310 <main+0x6e0>
    1fdf:	8b 3d e8 3f 02 00    	mov    0x23fe8,%edi
    1fe5:	e9 6e ff ff ff       	jmp    1f58 <main+0x328>
    1fea:	8d b6 00 00 00 00    	lea    0x0(%esi),%esi
    1ff0:	8b 0d 54 3f 02 00    	mov    0x23f54,%ecx
    1ff6:	89 fb                	mov    %edi,%ebx
    1ff8:	41                   	inc    %ecx
    1ff9:	89 0d 54 3f 02 00    	mov    %ecx,0x23f54
    1fff:	a1 e8 3f 02 00       	mov    0x23fe8,%eax
    2004:	8d 7b 0c             	lea    0xc(%ebx),%edi
    2007:	89 7c 24 04          	mov    %edi,0x4(%esp)
    200b:	89 04 24             	mov    %eax,(%esp)
    200e:	e8 ad f0 ff ff       	call   10c0 <fits_in>
    2013:	85 c0                	test   %eax,%eax
    2015:	75 d9                	jne    1ff0 <main+0x3c0>
    2017:	eb c6                	jmp    1fdf <main+0x3af>
    2019:	8b 3d e4 3f 02 00    	mov    0x23fe4,%edi
    201f:	a1 e8 3f 02 00       	mov    0x23fe8,%eax
    2024:	85 ff                	test   %edi,%edi
    2026:	0f 84 2c 01 00 00    	je     2158 <main+0x528>
    202c:	8b 40 04             	mov    0x4(%eax),%eax
    202f:	8d 04 40             	lea    (%eax,%eax,2),%eax
    2032:	89 5c 24 04          	mov    %ebx,0x4(%esp)
    2036:	8d 3c c5 60 09 02 00 	lea    0x20960(,%eax,8),%edi
    203d:	89 3c 24             	mov    %edi,(%esp)
    2040:	e8 7b f0 ff ff       	call   10c0 <fits_in>
    2045:	85 c0                	test   %eax,%eax
    2047:	74 96                	je     1fdf <main+0x3af>
    2049:	89 3d e8 3f 02 00    	mov    %edi,0x23fe8
    204f:	e9 04 ff ff ff       	jmp    1f58 <main+0x328>
    2054:	8d 53 0c             	lea    0xc(%ebx),%edx
    2057:	a1 e8 3f 02 00       	mov    0x23fe8,%eax
    205c:	89 54 24 04          	mov    %edx,0x4(%esp)
    2060:	89 04 24             	mov    %eax,(%esp)
    2063:	89 54 24 30          	mov    %edx,0x30(%esp)
    2067:	e8 54 f0 ff ff       	call   10c0 <fits_in>
    206c:	8b 54 24 30          	mov    0x30(%esp),%edx
    2070:	85 c0                	test   %eax,%eax
    2072:	0f 84 43 01 00 00    	je     21bb <main+0x58b>
    2078:	8b 3d e8 3f 02 00    	mov    0x23fe8,%edi
    207e:	89 d3                	mov    %edx,%ebx
    2080:	e9 d3 fe ff ff       	jmp    1f58 <main+0x328>
    2085:	a1 e8 3f 02 00       	mov    0x23fe8,%eax
    208a:	c7 44 24 08 01 00 00 	movl   $0x1,0x8(%esp)
    2091:	00 
    2092:	89 5c 24 04          	mov    %ebx,0x4(%esp)
    2096:	89 04 24             	mov    %eax,(%esp)
    2099:	e8 72 f0 ff ff       	call   1110 <place>
    209e:	66 90                	xchg   %ax,%ax
    20a0:	e8 3b 06 00 00       	call   26e0 <scr_update>
    20a5:	c7 44 24 04 00 00 00 	movl   $0x0,0x4(%esp)
    20ac:	00 
    20ad:	c7 04 24 80 3f 02 00 	movl   $0x23f80,(%esp)
    20b4:	e8 87 0b 00 00       	call   2c40 <scr_msg>
    20b9:	c7 44 24 04 01 00 00 	movl   $0x1,0x4(%esp)
    20c0:	00 
    20c1:	c7 04 24 a0 38 02 00 	movl   $0x238a0,(%esp)
    20c8:	e8 73 0b 00 00       	call   2c40 <scr_msg>
    20cd:	a1 f4 3f 02 00       	mov    0x23ff4,%eax
    20d2:	89 04 24             	mov    %eax,(%esp)
    20d5:	e8 56 a8 00 00       	call   c930 <console_flush>
    20da:	e8 01 0d 00 00       	call   2de0 <twait>
    20df:	85 c0                	test   %eax,%eax
    20e1:	74 bd                	je     20a0 <main+0x470>
    20e3:	c7 44 24 04 00 00 00 	movl   $0x0,0x4(%esp)
    20ea:	00 
    20eb:	c7 04 24 a0 38 02 00 	movl   $0x238a0,(%esp)
    20f2:	e8 49 0b 00 00       	call   2c40 <scr_msg>
    20f7:	c7 44 24 04 01 00 00 	movl   $0x1,0x4(%esp)
    20fe:	00 
    20ff:	c7 04 24 80 3f 02 00 	movl   $0x23f80,(%esp)
    2106:	e8 35 0b 00 00       	call   2c40 <scr_msg>
    210b:	a1 e8 3f 02 00       	mov    0x23fe8,%eax
    2110:	c7 44 24 08 00 00 00 	movl   $0x0,0x8(%esp)
    2117:	00 
    2118:	89 5c 24 04          	mov    %ebx,0x4(%esp)
    211c:	89 04 24             	mov    %eax,(%esp)
    211f:	e8 ec ef ff ff       	call   1110 <place>
    2124:	8b 3d e8 3f 02 00    	mov    0x23fe8,%edi
    212a:	e9 29 fe ff ff       	jmp    1f58 <main+0x328>
    212f:	a1 e8 3f 02 00       	mov    0x23fe8,%eax
    2134:	8d 7b ff             	lea    -0x1(%ebx),%edi
    2137:	89 7c 24 04          	mov    %edi,0x4(%esp)
    213b:	89 04 24             	mov    %eax,(%esp)
    213e:	e8 7d ef ff ff       	call   10c0 <fits_in>
    2143:	85 c0                	test   %eax,%eax
    2145:	0f 84 94 fe ff ff    	je     1fdf <main+0x3af>
    214b:	89 fb                	mov    %edi,%ebx
    214d:	8b 3d e8 3f 02 00    	mov    0x23fe8,%edi
    2153:	e9 00 fe ff ff       	jmp    1f58 <main+0x328>
    2158:	8b 00                	mov    (%eax),%eax
    215a:	e9 d0 fe ff ff       	jmp    202f <main+0x3ff>
    215f:	e8 cc 02 00 00       	call   2430 <scr_clear>
    2164:	e8 07 f8 ff ff       	call   1970 <loadscores>
    2169:	8b 44 24 38          	mov    0x38(%esp),%eax
    216d:	89 44 24 04          	mov    %eax,0x4(%esp)
    2171:	a1 54 3f 02 00       	mov    0x23f54,%eax
    2176:	89 04 24             	mov    %eax,(%esp)
    2179:	e8 82 f2 ff ff       	call   1400 <insertscore>
    217e:	e8 5d f8 ff ff       	call   19e0 <savescores>
    2183:	c7 05 54 3f 02 00 00 	movl   $0x0,0x23f54
    218a:	00 00 00 
    218d:	e9 22 fc ff ff       	jmp    1db4 <main+0x184>
    2192:	8d 53 01             	lea    0x1(%ebx),%edx
    2195:	a1 e8 3f 02 00       	mov    0x23fe8,%eax
    219a:	89 54 24 04          	mov    %edx,0x4(%esp)
    219e:	89 04 24             	mov    %eax,(%esp)
    21a1:	89 54 24 30          	mov    %edx,0x30(%esp)
    21a5:	e8 16 ef ff ff       	call   10c0 <fits_in>
    21aa:	8b 54 24 30          	mov    0x30(%esp),%edx
    21ae:	85 c0                	test   %eax,%eax
    21b0:	0f 85 c2 fe ff ff    	jne    2078 <main+0x448>
    21b6:	e9 24 fe ff ff       	jmp    1fdf <main+0x3af>
    21bb:	a1 e8 3f 02 00       	mov    0x23fe8,%eax
    21c0:	c7 44 24 08 01 00 00 	movl   $0x1,0x8(%esp)
    21c7:	00 
    21c8:	89 5c 24 04          	mov    %ebx,0x4(%esp)
    21cc:	89 04 24             	mov    %eax,(%esp)
    21cf:	e8 3c ef ff ff       	call   1110 <place>
    21d4:	ff 05 54 3f 02 00    	incl   0x23f54
    21da:	bf 0c 00 00 00       	mov    $0xc,%edi
    21df:	c7 44 24 3c 00 00 00 	movl   $0x0,0x3c(%esp)
    21e6:	00 
    21e7:	89 74 24 34          	mov    %esi,0x34(%esp)
    21eb:	90                   	nop
    21ec:	8d 74 26 00          	lea    0x0(%esi,%eiz,1),%esi
    21f0:	8d 5f 01             	lea    0x1(%edi),%ebx
    21f3:	8b 14 bd 04 3b 02 00 	mov    0x23b04(,%edi,4),%edx
    21fa:	89 fe                	mov    %edi,%esi
    21fc:	85 d2                	test   %edx,%edx
    21fe:	8d 04 9d 00 3b 02 00 	lea    0x23b00(,%ebx,4),%eax
    2205:	0f 84 92 00 00 00    	je     229d <main+0x66d>
    220b:	8b 48 04             	mov    0x4(%eax),%ecx
    220e:	85 c9                	test   %ecx,%ecx
    2210:	0f 84 87 00 00 00    	je     229d <main+0x66d>
    2216:	8b 50 08             	mov    0x8(%eax),%edx
    2219:	85 d2                	test   %edx,%edx
    221b:	0f 84 7c 00 00 00    	je     229d <main+0x66d>
    2221:	8b 48 0c             	mov    0xc(%eax),%ecx
    2224:	85 c9                	test   %ecx,%ecx
    2226:	74 75                	je     229d <main+0x66d>
    2228:	8b 50 10             	mov    0x10(%eax),%edx
    222b:	85 d2                	test   %edx,%edx
    222d:	74 6e                	je     229d <main+0x66d>
    222f:	8b 48 14             	mov    0x14(%eax),%ecx
    2232:	85 c9                	test   %ecx,%ecx
    2234:	74 67                	je     229d <main+0x66d>
    2236:	8b 50 18             	mov    0x18(%eax),%edx
    2239:	85 d2                	test   %edx,%edx
    223b:	74 60                	je     229d <main+0x66d>
    223d:	8b 48 1c             	mov    0x1c(%eax),%ecx
    2240:	85 c9                	test   %ecx,%ecx
    2242:	74 59                	je     229d <main+0x66d>
    2244:	8b 50 20             	mov    0x20(%eax),%edx
    2247:	85 d2                	test   %edx,%edx
    2249:	74 52                	je     229d <main+0x66d>
    224b:	8b 48 24             	mov    0x24(%eax),%ecx
    224e:	85 c9                	test   %ecx,%ecx
    2250:	74 4b                	je     229d <main+0x66d>
    2252:	8b 54 24 3c          	mov    0x3c(%esp),%edx
    2256:	c7 44 24 08 28 00 00 	movl   $0x28,0x8(%esp)
    225d:	00 
    225e:	42                   	inc    %edx
    225f:	c7 44 24 04 00 00 00 	movl   $0x0,0x4(%esp)
    2266:	00 
    2267:	89 04 24             	mov    %eax,(%esp)
    226a:	89 54 24 3c          	mov    %edx,0x3c(%esp)
    226e:	e8 4d 0d 00 00       	call   2fc0 <memset>
    2273:	e8 68 04 00 00       	call   26e0 <scr_update>
    2278:	e8 83 0a 00 00       	call   2d00 <tsleep>
    227d:	8d 76 00             	lea    0x0(%esi),%esi
    2280:	8b 04 b5 00 3b 02 00 	mov    0x23b00(,%esi,4),%eax
    2287:	89 04 9d 2c 3b 02 00 	mov    %eax,0x23b2c(,%ebx,4)
    228e:	89 f3                	mov    %esi,%ebx
    2290:	4e                   	dec    %esi
    2291:	75 ed                	jne    2280 <main+0x650>
    2293:	e8 48 04 00 00       	call   26e0 <scr_update>
    2298:	e8 63 0a 00 00       	call   2d00 <tsleep>
    229d:	83 c7 0c             	add    $0xc,%edi
    22a0:	81 ff fc 00 00 00    	cmp    $0xfc,%edi
    22a6:	0f 85 44 ff ff ff    	jne    21f0 <main+0x5c0>
    22ac:	8b 74 24 34          	mov    0x34(%esp),%esi
    22b0:	83 7c 24 3c 02       	cmpl   $0x2,0x3c(%esp)
    22b5:	0f 84 c5 00 00 00    	je     2380 <main+0x750>
    22bb:	0f 8f 8d 00 00 00    	jg     234e <main+0x71e>
    22c1:	83 7c 24 3c 01       	cmpl   $0x1,0x3c(%esp)
    22c6:	75 07                	jne    22cf <main+0x69f>
    22c8:	83 05 54 3f 02 00 0a 	addl   $0xa,0x23f54
    22cf:	a1 50 3f 02 00       	mov    0x23f50,%eax
    22d4:	a3 e8 3f 02 00       	mov    %eax,0x23fe8
    22d9:	e8 a2 f7 ff ff       	call   1a80 <randshape>
    22de:	a3 50 3f 02 00       	mov    %eax,0x23f50
    22e3:	a1 e8 3f 02 00       	mov    0x23fe8,%eax
    22e8:	c7 44 24 04 11 00 00 	movl   $0x11,0x4(%esp)
    22ef:	00 
    22f0:	89 04 24             	mov    %eax,(%esp)
    22f3:	e8 c8 ed ff ff       	call   10c0 <fits_in>
    22f8:	85 c0                	test   %eax,%eax
    22fa:	0f 84 5f fe ff ff    	je     215f <main+0x52f>
    2300:	8b 3d e8 3f 02 00    	mov    0x23fe8,%edi
    2306:	bb 11 00 00 00       	mov    $0x11,%ebx
    230b:	e9 48 fc ff ff       	jmp    1f58 <main+0x328>
    2310:	e8 1b 01 00 00       	call   2430 <scr_clear>
    2315:	c7 44 24 04 01 00 00 	movl   $0x1,0x4(%esp)
    231c:	00 
    231d:	c7 04 24 80 3f 02 00 	movl   $0x23f80,(%esp)
    2324:	e8 17 09 00 00       	call   2c40 <scr_msg>
    2329:	e9 b1 fc ff ff       	jmp    1fdf <main+0x3af>
    232e:	e8 fd 00 00 00       	call   2430 <scr_clear>
    2333:	c7 04 24 df 0d 02 00 	movl   $0x20ddf,(%esp)
    233a:	e8 01 79 00 00       	call   9c40 <printf>
    233f:	e8 1c 02 00 00       	call   2560 <scr_end>
    2344:	8d 65 f4             	lea    -0xc(%ebp),%esp
    2347:	31 c0                	xor    %eax,%eax
    2349:	5b                   	pop    %ebx
    234a:	5e                   	pop    %esi
    234b:	5f                   	pop    %edi
    234c:	5d                   	pop    %ebp
    234d:	c3                   	ret    
    234e:	83 7c 24 3c 03       	cmpl   $0x3,0x3c(%esp)
    2353:	74 5d                	je     23b2 <main+0x782>
    2355:	83 7c 24 3c 04       	cmpl   $0x4,0x3c(%esp)
    235a:	0f 85 6f ff ff ff    	jne    22cf <main+0x69f>
    2360:	81 05 54 3f 02 00 96 	addl   $0x96,0x23f54
    2367:	00 00 00 
    236a:	e9 60 ff ff ff       	jmp    22cf <main+0x69f>
    236f:	c7 04 24 7a 0d 02 00 	movl   $0x20d7a,(%esp)
    2376:	e8 c5 78 00 00       	call   9c40 <printf>
    237b:	e9 3d fa ff ff       	jmp    1dbd <main+0x18d>
    2380:	83 05 54 3f 02 00 1e 	addl   $0x1e,0x23f54
    2387:	e9 43 ff ff ff       	jmp    22cf <main+0x69f>
    238c:	6b c2 0a             	imul   $0xa,%edx,%eax
    238f:	8d 54 24 54          	lea    0x54(%esp),%edx
    2393:	c7 44 24 08 d7 0d 02 	movl   $0x20dd7,0x8(%esp)
    239a:	00 
    239b:	01 d0                	add    %edx,%eax
    239d:	c7 44 24 04 0a 00 00 	movl   $0xa,0x4(%esp)
    23a4:	00 
    23a5:	89 04 24             	mov    %eax,(%esp)
    23a8:	e8 53 27 00 00       	call   4b00 <str_cpy>
    23ad:	e9 8f f9 ff ff       	jmp    1d41 <main+0x111>
    23b2:	83 05 54 3f 02 00 46 	addl   $0x46,0x23f54
    23b9:	e9 11 ff ff ff       	jmp    22cf <main+0x69f>
    23be:	c7 44 24 04 08 0d 02 	movl   $0x20d08,0x4(%esp)
    23c5:	00 
    23c6:	c7 04 24 f6 0d 02 00 	movl   $0x20df6,(%esp)
    23cd:	e8 6e 78 00 00       	call   9c40 <printf>
    23d2:	c7 04 24 01 00 00 00 	movl   $0x1,(%esp)
    23d9:	e8 52 0a 00 00       	call   2e30 <exit>
    23de:	e8 6d f3 ff ff       	call   1750 <initscores>
    23e3:	e9 c4 f9 ff ff       	jmp    1dac <main+0x17c>
    23e8:	66 90                	xchg   %ax,%ax
    23ea:	66 90                	xchg   %ax,%ax
    23ec:	66 90                	xchg   %ax,%ax
    23ee:	66 90                	xchg   %ax,%ax

000023f0 <clear_screen>:
    23f0:	55                   	push   %ebp
    23f1:	89 e5                	mov    %esp,%ebp
    23f3:	83 ec 18             	sub    $0x18,%esp
    23f6:	a1 f4 3f 02 00       	mov    0x23ff4,%eax
    23fb:	89 04 24             	mov    %eax,(%esp)
    23fe:	e8 4d a5 00 00       	call   c950 <console_clear>
    2403:	a1 f4 3f 02 00       	mov    0x23ff4,%eax
    2408:	89 04 24             	mov    %eax,(%esp)
    240b:	e8 20 a5 00 00       	call   c930 <console_flush>
    2410:	a1 f4 3f 02 00       	mov    0x23ff4,%eax
    2415:	c7 44 24 08 00 00 00 	movl   $0x0,0x8(%esp)
    241c:	00 
    241d:	c7 44 24 04 00 00 00 	movl   $0x0,0x4(%esp)
    2424:	00 
    2425:	89 04 24             	mov    %eax,(%esp)
    2428:	e8 93 a9 00 00       	call   cdc0 <console_set_pos>
    242d:	c9                   	leave  
    242e:	c3                   	ret    
    242f:	90                   	nop

00002430 <scr_clear>:
    2430:	55                   	push   %ebp
    2431:	89 e5                	mov    %esp,%ebp
    2433:	83 ec 18             	sub    $0x18,%esp
    2436:	a1 f4 3f 02 00       	mov    0x23ff4,%eax
    243b:	89 04 24             	mov    %eax,(%esp)
    243e:	e8 ed a4 00 00       	call   c930 <console_flush>
    2443:	a1 f4 3f 02 00       	mov    0x23ff4,%eax
    2448:	89 04 24             	mov    %eax,(%esp)
    244b:	c7 44 24 04 00 00 00 	movl   $0x0,0x4(%esp)
    2452:	00 
    2453:	e8 08 a6 00 00       	call   ca60 <console_set_style>
    2458:	a1 f4 3f 02 00       	mov    0x23ff4,%eax
    245d:	89 04 24             	mov    %eax,(%esp)
    2460:	e8 eb a4 00 00       	call   c950 <console_clear>
    2465:	c7 44 24 08 50 04 00 	movl   $0x450,0x8(%esp)
    246c:	00 
    246d:	c7 44 24 04 00 00 00 	movl   $0x0,0x4(%esp)
    2474:	00 
    2475:	c7 04 24 c0 43 02 00 	movl   $0x243c0,(%esp)
    247c:	c7 05 a0 43 02 00 ff 	movl   $0xffffffff,0x243a0
    2483:	ff ff ff 
    2486:	e8 35 0b 00 00       	call   2fc0 <memset>
    248b:	c9                   	leave  
    248c:	c3                   	ret    
    248d:	8d 76 00             	lea    0x0(%esi),%esi

00002490 <scr_init>:
    2490:	55                   	push   %ebp
    2491:	89 e5                	mov    %esp,%ebp
    2493:	83 ec 18             	sub    $0x18,%esp
    2496:	a1 f4 3f 02 00       	mov    0x23ff4,%eax
    249b:	89 04 24             	mov    %eax,(%esp)
    249e:	c7 44 24 04 00 00 00 	movl   $0x0,0x4(%esp)
    24a5:	00 
    24a6:	e8 65 a7 00 00       	call   cc10 <console_cursor_visibility>
    24ab:	a1 f4 3f 02 00       	mov    0x23ff4,%eax
    24b0:	89 04 24             	mov    %eax,(%esp)
    24b3:	e8 78 a4 00 00       	call   c930 <console_flush>
    24b8:	a1 f4 3f 02 00       	mov    0x23ff4,%eax
    24bd:	89 04 24             	mov    %eax,(%esp)
    24c0:	c7 44 24 04 00 00 00 	movl   $0x0,0x4(%esp)
    24c7:	00 
    24c8:	e8 93 a5 00 00       	call   ca60 <console_set_style>
    24cd:	a1 f4 3f 02 00       	mov    0x23ff4,%eax
    24d2:	89 04 24             	mov    %eax,(%esp)
    24d5:	e8 56 a4 00 00       	call   c930 <console_flush>
    24da:	a1 f4 3f 02 00       	mov    0x23ff4,%eax
    24df:	89 04 24             	mov    %eax,(%esp)
    24e2:	c7 44 24 04 00 00 00 	movl   $0x0,0x4(%esp)
    24e9:	00 
    24ea:	e8 71 a5 00 00       	call   ca60 <console_set_style>
    24ef:	a1 f4 3f 02 00       	mov    0x23ff4,%eax
    24f4:	89 04 24             	mov    %eax,(%esp)
    24f7:	e8 54 a4 00 00       	call   c950 <console_clear>
    24fc:	c7 44 24 08 50 04 00 	movl   $0x450,0x8(%esp)
    2503:	00 
    2504:	c7 44 24 04 00 00 00 	movl   $0x0,0x4(%esp)
    250b:	00 
    250c:	c7 04 24 c0 43 02 00 	movl   $0x243c0,(%esp)
    2513:	c7 05 a0 43 02 00 ff 	movl   $0xffffffff,0x243a0
    251a:	ff ff ff 
    251d:	e8 9e 0a 00 00       	call   2fc0 <memset>
    2522:	c9                   	leave  
    2523:	c3                   	ret    
    2524:	8d b6 00 00 00 00    	lea    0x0(%esi),%esi
    252a:	8d bf 00 00 00 00    	lea    0x0(%edi),%edi

00002530 <moveto>:
    2530:	55                   	push   %ebp
    2531:	89 e5                	mov    %esp,%ebp
    2533:	83 ec 18             	sub    $0x18,%esp
    2536:	a1 f4 3f 02 00       	mov    0x23ff4,%eax
    253b:	89 04 24             	mov    %eax,(%esp)
    253e:	e8 ed a3 00 00       	call   c930 <console_flush>
    2543:	8b 45 08             	mov    0x8(%ebp),%eax
    2546:	89 44 24 08          	mov    %eax,0x8(%esp)
    254a:	8b 45 0c             	mov    0xc(%ebp),%eax
    254d:	89 44 24 04          	mov    %eax,0x4(%esp)
    2551:	a1 f4 3f 02 00       	mov    0x23ff4,%eax
    2556:	89 04 24             	mov    %eax,(%esp)
    2559:	e8 62 a8 00 00       	call   cdc0 <console_set_pos>
    255e:	c9                   	leave  
    255f:	c3                   	ret    

00002560 <scr_end>:
    2560:	55                   	push   %ebp
    2561:	89 e5                	mov    %esp,%ebp
    2563:	83 ec 18             	sub    $0x18,%esp
    2566:	a1 f4 3f 02 00       	mov    0x23ff4,%eax
    256b:	c7 44 24 04 01 00 00 	movl   $0x1,0x4(%esp)
    2572:	00 
    2573:	89 04 24             	mov    %eax,(%esp)
    2576:	e8 95 a6 00 00       	call   cc10 <console_cursor_visibility>
    257b:	c9                   	leave  
    257c:	c3                   	ret    
    257d:	8d 76 00             	lea    0x0(%esi),%esi

00002580 <stop>:
    2580:	55                   	push   %ebp
    2581:	89 e5                	mov    %esp,%ebp
    2583:	83 ec 18             	sub    $0x18,%esp
    2586:	a1 14 48 02 00       	mov    0x24814,%eax
    258b:	85 c0                	test   %eax,%eax
    258d:	75 1f                	jne    25ae <stop+0x2e>
    258f:	8b 45 08             	mov    0x8(%ebp),%eax
    2592:	c7 04 24 ec 0d 02 00 	movl   $0x20dec,(%esp)
    2599:	89 44 24 04          	mov    %eax,0x4(%esp)
    259d:	e8 9e 76 00 00       	call   9c40 <printf>
    25a2:	c7 04 24 01 00 00 00 	movl   $0x1,(%esp)
    25a9:	e8 82 08 00 00       	call   2e30 <exit>
    25ae:	e8 ad ff ff ff       	call   2560 <scr_end>
    25b3:	eb da                	jmp    258f <stop+0xf>
    25b5:	8d 74 26 00          	lea    0x0(%esi,%eiz,1),%esi
    25b9:	8d bc 27 00 00 00 00 	lea    0x0(%edi,%eiz,1),%edi

000025c0 <scr_set>:
    25c0:	55                   	push   %ebp
    25c1:	89 e5                	mov    %esp,%ebp
    25c3:	53                   	push   %ebx
    25c4:	83 ec 74             	sub    $0x74,%esp
    25c7:	c7 05 64 3f 02 00 00 	movl   $0x0,0x23f64
    25ce:	00 00 00 
    25d1:	8d 45 b8             	lea    -0x48(%ebp),%eax
    25d4:	c7 05 58 3f 02 00 00 	movl   $0x0,0x23f58
    25db:	00 00 00 
    25de:	89 44 24 08          	mov    %eax,0x8(%esp)
    25e2:	8d 45 bc             	lea    -0x44(%ebp),%eax
    25e5:	89 44 24 04          	mov    %eax,0x4(%esp)
    25e9:	a1 f4 3f 02 00       	mov    0x23ff4,%eax
    25ee:	89 04 24             	mov    %eax,(%esp)
    25f1:	e8 da a3 00 00       	call   c9d0 <console_get_size>
    25f6:	85 c0                	test   %eax,%eax
    25f8:	75 10                	jne    260a <scr_set+0x4a>
    25fa:	8b 45 b8             	mov    -0x48(%ebp),%eax
    25fd:	a3 64 3f 02 00       	mov    %eax,0x23f64
    2602:	8b 45 bc             	mov    -0x44(%ebp),%eax
    2605:	a3 58 3f 02 00       	mov    %eax,0x23f58
    260a:	8d 45 b4             	lea    -0x4c(%ebp),%eax
    260d:	89 44 24 04          	mov    %eax,0x4(%esp)
    2611:	a1 f4 3f 02 00       	mov    0x23ff4,%eax
    2616:	89 04 24             	mov    %eax,(%esp)
    2619:	e8 82 a6 00 00       	call   cca0 <console_get_color_cap>
    261e:	31 d2                	xor    %edx,%edx
    2620:	85 c0                	test   %eax,%eax
    2622:	75 09                	jne    262d <scr_set+0x6d>
    2624:	8b 55 b4             	mov    -0x4c(%ebp),%edx
    2627:	c1 ea 02             	shr    $0x2,%edx
    262a:	83 e2 01             	and    $0x1,%edx
    262d:	88 15 10 48 02 00    	mov    %dl,0x24810
    2633:	83 3d 64 3f 02 00 16 	cmpl   $0x16,0x23f64
    263a:	7e 6e                	jle    26aa <scr_set+0xea>
    263c:	83 3d 58 3f 02 00 27 	cmpl   $0x27,0x23f58
    2643:	7e 65                	jle    26aa <scr_set+0xea>
    2645:	a1 f4 3f 02 00       	mov    0x23ff4,%eax
    264a:	c7 05 14 48 02 00 01 	movl   $0x1,0x24814
    2651:	00 00 00 
    2654:	89 04 24             	mov    %eax,(%esp)
    2657:	e8 d4 a2 00 00       	call   c930 <console_flush>
    265c:	a1 f4 3f 02 00       	mov    0x23ff4,%eax
    2661:	89 04 24             	mov    %eax,(%esp)
    2664:	c7 44 24 04 00 00 00 	movl   $0x0,0x4(%esp)
    266b:	00 
    266c:	e8 ef a3 00 00       	call   ca60 <console_set_style>
    2671:	a1 f4 3f 02 00       	mov    0x23ff4,%eax
    2676:	89 04 24             	mov    %eax,(%esp)
    2679:	e8 d2 a2 00 00       	call   c950 <console_clear>
    267e:	c7 44 24 08 50 04 00 	movl   $0x450,0x8(%esp)
    2685:	00 
    2686:	c7 44 24 04 00 00 00 	movl   $0x0,0x4(%esp)
    268d:	00 
    268e:	c7 04 24 c0 43 02 00 	movl   $0x243c0,(%esp)
    2695:	c7 05 a0 43 02 00 ff 	movl   $0xffffffff,0x243a0
    269c:	ff ff ff 
    269f:	e8 1c 09 00 00       	call   2fc0 <memset>
    26a4:	83 c4 74             	add    $0x74,%esp
    26a7:	5b                   	pop    %ebx
    26a8:	5d                   	pop    %ebp
    26a9:	c3                   	ret    
    26aa:	8d 5d c1             	lea    -0x3f(%ebp),%ebx
    26ad:	c7 44 24 10 28 00 00 	movl   $0x28,0x10(%esp)
    26b4:	00 
    26b5:	c7 44 24 0c 17 00 00 	movl   $0x17,0xc(%esp)
    26bc:	00 
    26bd:	c7 44 24 08 1c 0e 02 	movl   $0x20e1c,0x8(%esp)
    26c4:	00 
    26c5:	c7 44 24 04 37 00 00 	movl   $0x37,0x4(%esp)
    26cc:	00 
    26cd:	89 1c 24             	mov    %ebx,(%esp)
    26d0:	e8 0b 78 00 00       	call   9ee0 <snprintf>
    26d5:	89 1c 24             	mov    %ebx,(%esp)
    26d8:	e8 a3 fe ff ff       	call   2580 <stop>
    26dd:	8d 76 00             	lea    0x0(%esi),%esi

000026e0 <scr_update>:
    26e0:	55                   	push   %ebp
    26e1:	89 e5                	mov    %esp,%ebp
    26e3:	57                   	push   %edi
    26e4:	56                   	push   %esi
    26e5:	53                   	push   %ebx
    26e6:	83 ec 3c             	sub    $0x3c,%esp
    26e9:	c7 05 dc 47 02 00 ff 	movl   $0xffffffff,0x247dc
    26f0:	ff ff ff 
    26f3:	a1 a0 43 02 00       	mov    0x243a0,%eax
    26f8:	39 05 54 3f 02 00    	cmp    %eax,0x23f54
    26fe:	74 49                	je     2749 <scr_update+0x69>
    2700:	a1 f4 3f 02 00       	mov    0x23ff4,%eax
    2705:	89 04 24             	mov    %eax,(%esp)
    2708:	e8 23 a2 00 00       	call   c930 <console_flush>
    270d:	a1 f4 3f 02 00       	mov    0x23ff4,%eax
    2712:	89 04 24             	mov    %eax,(%esp)
    2715:	c7 44 24 08 00 00 00 	movl   $0x0,0x8(%esp)
    271c:	00 
    271d:	c7 44 24 04 00 00 00 	movl   $0x0,0x4(%esp)
    2724:	00 
    2725:	e8 96 a6 00 00       	call   cdc0 <console_set_pos>
    272a:	a1 54 3f 02 00       	mov    0x23f54,%eax
    272f:	89 44 24 04          	mov    %eax,0x4(%esp)
    2733:	c7 04 24 10 0e 02 00 	movl   $0x20e10,(%esp)
    273a:	e8 01 75 00 00       	call   9c40 <printf>
    273f:	a1 54 3f 02 00       	mov    0x23f54,%eax
    2744:	a3 a0 43 02 00       	mov    %eax,0x243a0
    2749:	a1 60 3f 02 00       	mov    0x23f60,%eax
    274e:	85 c0                	test   %eax,%eax
    2750:	0f 84 a1 02 00 00    	je     29f7 <scr_update+0x317>
    2756:	a1 50 3f 02 00       	mov    0x23f50,%eax
    275b:	3b 05 18 48 02 00    	cmp    0x24818,%eax
    2761:	0f 84 90 02 00 00    	je     29f7 <scr_update+0x317>
    2767:	a3 18 48 02 00       	mov    %eax,0x24818
    276c:	a1 f4 3f 02 00       	mov    0x23ff4,%eax
    2771:	89 04 24             	mov    %eax,(%esp)
    2774:	bb f9 0d 02 00       	mov    $0x20df9,%ebx
    2779:	e8 b2 a1 00 00       	call   c930 <console_flush>
    277e:	a1 f4 3f 02 00       	mov    0x23ff4,%eax
    2783:	89 04 24             	mov    %eax,(%esp)
    2786:	c7 44 24 04 00 00 00 	movl   $0x0,0x4(%esp)
    278d:	00 
    278e:	e8 cd a2 00 00       	call   ca60 <console_set_style>
    2793:	a1 f4 3f 02 00       	mov    0x23ff4,%eax
    2798:	89 04 24             	mov    %eax,(%esp)
    279b:	e8 90 a1 00 00       	call   c930 <console_flush>
    27a0:	a1 f4 3f 02 00       	mov    0x23ff4,%eax
    27a5:	89 04 24             	mov    %eax,(%esp)
    27a8:	c7 44 24 08 04 00 00 	movl   $0x4,0x8(%esp)
    27af:	00 
    27b0:	c7 44 24 04 01 00 00 	movl   $0x1,0x4(%esp)
    27b7:	00 
    27b8:	e8 03 a6 00 00       	call   cdc0 <console_set_pos>
    27bd:	b8 20 00 00 00       	mov    $0x20,%eax
    27c2:	43                   	inc    %ebx
    27c3:	89 04 24             	mov    %eax,(%esp)
    27c6:	e8 b5 71 00 00       	call   9980 <putchar>
    27cb:	0f be 03             	movsbl (%ebx),%eax
    27ce:	84 c0                	test   %al,%al
    27d0:	75 f0                	jne    27c2 <scr_update+0xe2>
    27d2:	a1 f4 3f 02 00       	mov    0x23ff4,%eax
    27d7:	bb f9 0d 02 00       	mov    $0x20df9,%ebx
    27dc:	89 04 24             	mov    %eax,(%esp)
    27df:	e8 4c a1 00 00       	call   c930 <console_flush>
    27e4:	a1 f4 3f 02 00       	mov    0x23ff4,%eax
    27e9:	89 04 24             	mov    %eax,(%esp)
    27ec:	c7 44 24 08 05 00 00 	movl   $0x5,0x8(%esp)
    27f3:	00 
    27f4:	c7 44 24 04 01 00 00 	movl   $0x1,0x4(%esp)
    27fb:	00 
    27fc:	e8 bf a5 00 00       	call   cdc0 <console_set_pos>
    2801:	b8 20 00 00 00       	mov    $0x20,%eax
    2806:	43                   	inc    %ebx
    2807:	89 04 24             	mov    %eax,(%esp)
    280a:	e8 71 71 00 00       	call   9980 <putchar>
    280f:	0f be 03             	movsbl (%ebx),%eax
    2812:	84 c0                	test   %al,%al
    2814:	75 f0                	jne    2806 <scr_update+0x126>
    2816:	a1 f4 3f 02 00       	mov    0x23ff4,%eax
    281b:	bb f9 0d 02 00       	mov    $0x20df9,%ebx
    2820:	89 04 24             	mov    %eax,(%esp)
    2823:	e8 08 a1 00 00       	call   c930 <console_flush>
    2828:	a1 f4 3f 02 00       	mov    0x23ff4,%eax
    282d:	89 04 24             	mov    %eax,(%esp)
    2830:	c7 44 24 08 06 00 00 	movl   $0x6,0x8(%esp)
    2837:	00 
    2838:	c7 44 24 04 01 00 00 	movl   $0x1,0x4(%esp)
    283f:	00 
    2840:	e8 7b a5 00 00       	call   cdc0 <console_set_pos>
    2845:	b8 20 00 00 00       	mov    $0x20,%eax
    284a:	43                   	inc    %ebx
    284b:	89 04 24             	mov    %eax,(%esp)
    284e:	e8 2d 71 00 00       	call   9980 <putchar>
    2853:	0f be 03             	movsbl (%ebx),%eax
    2856:	84 c0                	test   %al,%al
    2858:	75 f0                	jne    284a <scr_update+0x16a>
    285a:	a1 f4 3f 02 00       	mov    0x23ff4,%eax
    285f:	bb f9 0d 02 00       	mov    $0x20df9,%ebx
    2864:	89 04 24             	mov    %eax,(%esp)
    2867:	e8 c4 a0 00 00       	call   c930 <console_flush>
    286c:	a1 f4 3f 02 00       	mov    0x23ff4,%eax
    2871:	89 04 24             	mov    %eax,(%esp)
    2874:	c7 44 24 08 07 00 00 	movl   $0x7,0x8(%esp)
    287b:	00 
    287c:	c7 44 24 04 01 00 00 	movl   $0x1,0x4(%esp)
    2883:	00 
    2884:	e8 37 a5 00 00       	call   cdc0 <console_set_pos>
    2889:	b8 20 00 00 00       	mov    $0x20,%eax
    288e:	43                   	inc    %ebx
    288f:	89 04 24             	mov    %eax,(%esp)
    2892:	e8 e9 70 00 00       	call   9980 <putchar>
    2897:	0f be 03             	movsbl (%ebx),%eax
    289a:	84 c0                	test   %al,%al
    289c:	75 f0                	jne    288e <scr_update+0x1ae>
    289e:	a1 f4 3f 02 00       	mov    0x23ff4,%eax
    28a3:	bb 04 0e 02 00       	mov    $0x20e04,%ebx
    28a8:	89 04 24             	mov    %eax,(%esp)
    28ab:	e8 80 a0 00 00       	call   c930 <console_flush>
    28b0:	a1 f4 3f 02 00       	mov    0x23ff4,%eax
    28b5:	89 04 24             	mov    %eax,(%esp)
    28b8:	c7 44 24 08 02 00 00 	movl   $0x2,0x8(%esp)
    28bf:	00 
    28c0:	c7 44 24 04 00 00 00 	movl   $0x0,0x4(%esp)
    28c7:	00 
    28c8:	e8 f3 a4 00 00       	call   cdc0 <console_set_pos>
    28cd:	b8 4e 00 00 00       	mov    $0x4e,%eax
    28d2:	43                   	inc    %ebx
    28d3:	89 04 24             	mov    %eax,(%esp)
    28d6:	e8 a5 70 00 00       	call   9980 <putchar>
    28db:	0f be 03             	movsbl (%ebx),%eax
    28de:	84 c0                	test   %al,%al
    28e0:	75 f0                	jne    28d2 <scr_update+0x1f2>
    28e2:	a1 50 3f 02 00       	mov    0x23f50,%eax
    28e7:	8b 58 14             	mov    0x14(%eax),%ebx
    28ea:	a1 f4 3f 02 00       	mov    0x23ff4,%eax
    28ef:	89 04 24             	mov    %eax,(%esp)
    28f2:	e8 39 a0 00 00       	call   c930 <console_flush>
    28f7:	c7 44 24 08 ff ff ff 	movl   $0xffffff,0x8(%esp)
    28fe:	00 
    28ff:	80 3d 10 48 02 00 00 	cmpb   $0x0,0x24810
    2906:	0f 95 c0             	setne  %al
    2909:	25 ff 00 00 00       	and    $0xff,%eax
    290e:	f7 d8                	neg    %eax
    2910:	21 c3                	and    %eax,%ebx
    2912:	a1 f4 3f 02 00       	mov    0x23ff4,%eax
    2917:	89 5c 24 04          	mov    %ebx,0x4(%esp)
    291b:	89 04 24             	mov    %eax,(%esp)
    291e:	e8 6d a2 00 00       	call   cb90 <console_set_rgb_color>
    2923:	a1 f4 3f 02 00       	mov    0x23ff4,%eax
    2928:	89 04 24             	mov    %eax,(%esp)
    292b:	bb 01 0e 02 00       	mov    $0x20e01,%ebx
    2930:	e8 fb 9f 00 00       	call   c930 <console_flush>
    2935:	a1 f4 3f 02 00       	mov    0x23ff4,%eax
    293a:	89 04 24             	mov    %eax,(%esp)
    293d:	c7 44 24 08 05 00 00 	movl   $0x5,0x8(%esp)
    2944:	00 
    2945:	c7 44 24 04 04 00 00 	movl   $0x4,0x4(%esp)
    294c:	00 
    294d:	e8 6e a4 00 00       	call   cdc0 <console_set_pos>
    2952:	b8 20 00 00 00       	mov    $0x20,%eax
    2957:	43                   	inc    %ebx
    2958:	89 04 24             	mov    %eax,(%esp)
    295b:	e8 20 70 00 00       	call   9980 <putchar>
    2960:	0f be 03             	movsbl (%ebx),%eax
    2963:	84 c0                	test   %al,%al
    2965:	75 f0                	jne    2957 <scr_update+0x277>
    2967:	31 db                	xor    %ebx,%ebx
    2969:	be ab aa aa 2a       	mov    $0x2aaaaaab,%esi
    296e:	a1 50 3f 02 00       	mov    0x23f50,%eax
    2973:	8b 7c 98 08          	mov    0x8(%eax,%ebx,4),%edi
    2977:	a1 f4 3f 02 00       	mov    0x23ff4,%eax
    297c:	83 c7 3e             	add    $0x3e,%edi
    297f:	89 04 24             	mov    %eax,(%esp)
    2982:	e8 a9 9f 00 00       	call   c930 <console_flush>
    2987:	89 f8                	mov    %edi,%eax
    2989:	f7 ee                	imul   %esi
    298b:	d1 fa                	sar    %edx
    298d:	89 f8                	mov    %edi,%eax
    298f:	c1 f8 1f             	sar    $0x1f,%eax
    2992:	29 c2                	sub    %eax,%edx
    2994:	89 54 24 08          	mov    %edx,0x8(%esp)
    2998:	8d 04 52             	lea    (%edx,%edx,2),%eax
    299b:	c1 e0 02             	shl    $0x2,%eax
    299e:	29 c7                	sub    %eax,%edi
    29a0:	89 f8                	mov    %edi,%eax
    29a2:	bf 01 0e 02 00       	mov    $0x20e01,%edi
    29a7:	01 c0                	add    %eax,%eax
    29a9:	89 44 24 04          	mov    %eax,0x4(%esp)
    29ad:	a1 f4 3f 02 00       	mov    0x23ff4,%eax
    29b2:	89 04 24             	mov    %eax,(%esp)
    29b5:	e8 06 a4 00 00       	call   cdc0 <console_set_pos>
    29ba:	b8 20 00 00 00       	mov    $0x20,%eax
    29bf:	47                   	inc    %edi
    29c0:	89 04 24             	mov    %eax,(%esp)
    29c3:	e8 b8 6f 00 00       	call   9980 <putchar>
    29c8:	0f be 07             	movsbl (%edi),%eax
    29cb:	84 c0                	test   %al,%al
    29cd:	75 f0                	jne    29bf <scr_update+0x2df>
    29cf:	43                   	inc    %ebx
    29d0:	83 fb 03             	cmp    $0x3,%ebx
    29d3:	75 99                	jne    296e <scr_update+0x28e>
    29d5:	a1 f4 3f 02 00       	mov    0x23ff4,%eax
    29da:	89 04 24             	mov    %eax,(%esp)
    29dd:	e8 4e 9f 00 00       	call   c930 <console_flush>
    29e2:	a1 f4 3f 02 00       	mov    0x23ff4,%eax
    29e7:	c7 44 24 04 00 00 00 	movl   $0x0,0x4(%esp)
    29ee:	00 
    29ef:	89 04 24             	mov    %eax,(%esp)
    29f2:	e8 69 a0 00 00       	call   ca60 <console_set_style>
    29f7:	c7 45 d0 00 00 00 00 	movl   $0x0,-0x30(%ebp)
    29fe:	c7 45 dc 00 00 00 00 	movl   $0x0,-0x24(%ebp)
    2a05:	c7 45 d4 f0 43 02 00 	movl   $0x243f0,-0x2c(%ebp)
    2a0c:	c7 45 d8 30 3b 02 00 	movl   $0x23b30,-0x28(%ebp)
    2a13:	90                   	nop
    2a14:	8d 74 26 00          	lea    0x0(%esi,%eiz,1),%esi
    2a18:	8b 7d d8             	mov    -0x28(%ebp),%edi
    2a1b:	8b 5d d4             	mov    -0x2c(%ebp),%ebx
    2a1e:	83 c7 04             	add    $0x4,%edi
    2a21:	83 c3 04             	add    $0x4,%ebx
    2a24:	89 fa                	mov    %edi,%edx
    2a26:	83 c9 ff             	or     $0xffffffff,%ecx
    2a29:	89 7d e4             	mov    %edi,-0x1c(%ebp)
    2a2c:	c7 45 e0 00 00 00 00 	movl   $0x0,-0x20(%ebp)
    2a33:	8b 72 fc             	mov    -0x4(%edx),%esi
    2a36:	89 5d d4             	mov    %ebx,-0x2c(%ebp)
    2a39:	89 55 d8             	mov    %edx,-0x28(%ebp)
    2a3c:	39 73 fc             	cmp    %esi,-0x4(%ebx)
    2a3f:	0f 84 fd 00 00 00    	je     2b42 <scr_update+0x462>
    2a45:	8d 76 00             	lea    0x0(%esi),%esi
    2a48:	89 73 fc             	mov    %esi,-0x4(%ebx)
    2a4b:	39 4d e0             	cmp    %ecx,-0x20(%ebp)
    2a4e:	74 49                	je     2a99 <scr_update+0x3b9>
    2a50:	8b 7d dc             	mov    -0x24(%ebp),%edi
    2a53:	85 ff                	test   %edi,%edi
    2a55:	0f 85 6d 01 00 00    	jne    2bc8 <scr_update+0x4e8>
    2a5b:	a1 58 3f 02 00       	mov    0x23f58,%eax
    2a60:	8b 55 e0             	mov    -0x20(%ebp),%edx
    2a63:	83 e8 18             	sub    $0x18,%eax
    2a66:	d1 f8                	sar    %eax
    2a68:	8d 7c 50 ff          	lea    -0x1(%eax,%edx,2),%edi
    2a6c:	8b 15 f4 3f 02 00    	mov    0x23ff4,%edx
    2a72:	89 14 24             	mov    %edx,(%esp)
    2a75:	e8 b6 9e 00 00       	call   c930 <console_flush>
    2a7a:	8b 55 d0             	mov    -0x30(%ebp),%edx
    2a7d:	a1 f4 3f 02 00       	mov    0x23ff4,%eax
    2a82:	89 54 24 08          	mov    %edx,0x8(%esp)
    2a86:	89 7c 24 04          	mov    %edi,0x4(%esp)
    2a8a:	89 04 24             	mov    %eax,(%esp)
    2a8d:	e8 2e a3 00 00       	call   cdc0 <console_set_pos>
    2a92:	c7 45 dc 00 00 00 00 	movl   $0x0,-0x24(%ebp)
    2a99:	3b 75 dc             	cmp    -0x24(%ebp),%esi
    2a9c:	74 44                	je     2ae2 <scr_update+0x402>
    2a9e:	a1 f4 3f 02 00       	mov    0x23ff4,%eax
    2aa3:	85 f6                	test   %esi,%esi
    2aa5:	89 04 24             	mov    %eax,(%esp)
    2aa8:	0f 84 f2 00 00 00    	je     2ba0 <scr_update+0x4c0>
    2aae:	e8 7d 9e 00 00       	call   c930 <console_flush>
    2ab3:	c7 44 24 08 ff ff ff 	movl   $0xffffff,0x8(%esp)
    2aba:	00 
    2abb:	80 3d 10 48 02 00 00 	cmpb   $0x0,0x24810
    2ac2:	0f 95 c0             	setne  %al
    2ac5:	25 ff 00 00 00       	and    $0xff,%eax
    2aca:	f7 d8                	neg    %eax
    2acc:	21 f0                	and    %esi,%eax
    2ace:	89 44 24 04          	mov    %eax,0x4(%esp)
    2ad2:	a1 f4 3f 02 00       	mov    0x23ff4,%eax
    2ad7:	89 04 24             	mov    %eax,(%esp)
    2ada:	e8 b1 a0 00 00       	call   cb90 <console_set_rgb_color>
    2adf:	89 75 dc             	mov    %esi,-0x24(%ebp)
    2ae2:	bf 01 0e 02 00       	mov    $0x20e01,%edi
    2ae7:	b8 20 00 00 00       	mov    $0x20,%eax
    2aec:	8d 74 26 00          	lea    0x0(%esi,%eiz,1),%esi
    2af0:	47                   	inc    %edi
    2af1:	89 04 24             	mov    %eax,(%esp)
    2af4:	e8 87 6e 00 00       	call   9980 <putchar>
    2af9:	0f be 07             	movsbl (%edi),%eax
    2afc:	84 c0                	test   %al,%al
    2afe:	75 f0                	jne    2af0 <scr_update+0x410>
    2b00:	8b 45 e0             	mov    -0x20(%ebp),%eax
    2b03:	40                   	inc    %eax
    2b04:	89 c1                	mov    %eax,%ecx
    2b06:	83 7d e0 09          	cmpl   $0x9,-0x20(%ebp)
    2b0a:	7f 0d                	jg     2b19 <scr_update+0x439>
    2b0c:	8b 7d e4             	mov    -0x1c(%ebp),%edi
    2b0f:	8b 13                	mov    (%ebx),%edx
    2b11:	3b 17                	cmp    (%edi),%edx
    2b13:	0f 84 d7 00 00 00    	je     2bf0 <scr_update+0x510>
    2b19:	83 f8 0c             	cmp    $0xc,%eax
    2b1c:	74 2d                	je     2b4b <scr_update+0x46b>
    2b1e:	89 45 e0             	mov    %eax,-0x20(%ebp)
    2b21:	8b 45 e4             	mov    -0x1c(%ebp),%eax
    2b24:	83 c0 04             	add    $0x4,%eax
    2b27:	83 c3 04             	add    $0x4,%ebx
    2b2a:	89 45 e4             	mov    %eax,-0x1c(%ebp)
    2b2d:	89 5d d4             	mov    %ebx,-0x2c(%ebp)
    2b30:	8b 55 e4             	mov    -0x1c(%ebp),%edx
    2b33:	89 55 d8             	mov    %edx,-0x28(%ebp)
    2b36:	8b 72 fc             	mov    -0x4(%edx),%esi
    2b39:	39 73 fc             	cmp    %esi,-0x4(%ebx)
    2b3c:	0f 85 06 ff ff ff    	jne    2a48 <scr_update+0x368>
    2b42:	8b 45 e0             	mov    -0x20(%ebp),%eax
    2b45:	40                   	inc    %eax
    2b46:	83 f8 0c             	cmp    $0xc,%eax
    2b49:	75 d3                	jne    2b1e <scr_update+0x43e>
    2b4b:	8b 4d d0             	mov    -0x30(%ebp),%ecx
    2b4e:	41                   	inc    %ecx
    2b4f:	89 4d d0             	mov    %ecx,-0x30(%ebp)
    2b52:	83 7d d0 15          	cmpl   $0x15,-0x30(%ebp)
    2b56:	0f 85 bc fe ff ff    	jne    2a18 <scr_update+0x338>
    2b5c:	8b 55 dc             	mov    -0x24(%ebp),%edx
    2b5f:	85 d2                	test   %edx,%edx
    2b61:	74 22                	je     2b85 <scr_update+0x4a5>
    2b63:	a1 f4 3f 02 00       	mov    0x23ff4,%eax
    2b68:	89 04 24             	mov    %eax,(%esp)
    2b6b:	e8 c0 9d 00 00       	call   c930 <console_flush>
    2b70:	a1 f4 3f 02 00       	mov    0x23ff4,%eax
    2b75:	c7 44 24 04 00 00 00 	movl   $0x0,0x4(%esp)
    2b7c:	00 
    2b7d:	89 04 24             	mov    %eax,(%esp)
    2b80:	e8 db 9e 00 00       	call   ca60 <console_set_style>
    2b85:	a1 f4 3f 02 00       	mov    0x23ff4,%eax
    2b8a:	89 04 24             	mov    %eax,(%esp)
    2b8d:	e8 9e 9d 00 00       	call   c930 <console_flush>
    2b92:	83 c4 3c             	add    $0x3c,%esp
    2b95:	5b                   	pop    %ebx
    2b96:	5e                   	pop    %esi
    2b97:	5f                   	pop    %edi
    2b98:	5d                   	pop    %ebp
    2b99:	c3                   	ret    
    2b9a:	8d b6 00 00 00 00    	lea    0x0(%esi),%esi
    2ba0:	e8 8b 9d 00 00       	call   c930 <console_flush>
    2ba5:	a1 f4 3f 02 00       	mov    0x23ff4,%eax
    2baa:	c7 44 24 04 00 00 00 	movl   $0x0,0x4(%esp)
    2bb1:	00 
    2bb2:	89 04 24             	mov    %eax,(%esp)
    2bb5:	e8 a6 9e 00 00       	call   ca60 <console_set_style>
    2bba:	c7 45 dc 00 00 00 00 	movl   $0x0,-0x24(%ebp)
    2bc1:	e9 1c ff ff ff       	jmp    2ae2 <scr_update+0x402>
    2bc6:	66 90                	xchg   %ax,%ax
    2bc8:	a1 f4 3f 02 00       	mov    0x23ff4,%eax
    2bcd:	89 04 24             	mov    %eax,(%esp)
    2bd0:	e8 5b 9d 00 00       	call   c930 <console_flush>
    2bd5:	a1 f4 3f 02 00       	mov    0x23ff4,%eax
    2bda:	c7 44 24 04 00 00 00 	movl   $0x0,0x4(%esp)
    2be1:	00 
    2be2:	89 04 24             	mov    %eax,(%esp)
    2be5:	e8 76 9e 00 00       	call   ca60 <console_set_style>
    2bea:	e9 6c fe ff ff       	jmp    2a5b <scr_update+0x37b>
    2bef:	90                   	nop
    2bf0:	39 d6                	cmp    %edx,%esi
    2bf2:	0f 85 21 ff ff ff    	jne    2b19 <scr_update+0x439>
    2bf8:	8b 53 04             	mov    0x4(%ebx),%edx
    2bfb:	3b 57 04             	cmp    0x4(%edi),%edx
    2bfe:	74 0b                	je     2c0b <scr_update+0x52b>
    2c00:	c7 03 ff ff ff ff    	movl   $0xffffffff,(%ebx)
    2c06:	e9 0e ff ff ff       	jmp    2b19 <scr_update+0x439>
    2c0b:	83 7d e0 09          	cmpl   $0x9,-0x20(%ebp)
    2c0f:	0f 84 09 ff ff ff    	je     2b1e <scr_update+0x43e>
    2c15:	39 d6                	cmp    %edx,%esi
    2c17:	0f 85 fc fe ff ff    	jne    2b19 <scr_update+0x439>
    2c1d:	8b 55 e4             	mov    -0x1c(%ebp),%edx
    2c20:	8b 52 08             	mov    0x8(%edx),%edx
    2c23:	39 53 08             	cmp    %edx,0x8(%ebx)
    2c26:	0f 84 ed fe ff ff    	je     2b19 <scr_update+0x439>
    2c2c:	c7 43 04 ff ff ff ff 	movl   $0xffffffff,0x4(%ebx)
    2c33:	eb cb                	jmp    2c00 <scr_update+0x520>
    2c35:	8d 74 26 00          	lea    0x0(%esi,%eiz,1),%esi
    2c39:	8d bc 27 00 00 00 00 	lea    0x0(%edi,%eiz,1),%edi

00002c40 <scr_msg>:
    2c40:	55                   	push   %ebp
    2c41:	89 e5                	mov    %esp,%ebp
    2c43:	57                   	push   %edi
    2c44:	56                   	push   %esi
    2c45:	53                   	push   %ebx
    2c46:	83 ec 2c             	sub    $0x2c,%esp
    2c49:	8b 75 08             	mov    0x8(%ebp),%esi
    2c4c:	8a 5d 0c             	mov    0xc(%ebp),%bl
    2c4f:	89 34 24             	mov    %esi,(%esp)
    2c52:	e8 f9 12 00 00       	call   3f50 <str_size>
    2c57:	8b 3d 58 3f 02 00    	mov    0x23f58,%edi
    2c5d:	29 c7                	sub    %eax,%edi
    2c5f:	8b 0d f4 3f 02 00    	mov    0x23ff4,%ecx
    2c65:	8b 15 64 3f 02 00    	mov    0x23f64,%edx
    2c6b:	89 0c 24             	mov    %ecx,(%esp)
    2c6e:	83 ea 02             	sub    $0x2,%edx
    2c71:	89 45 e0             	mov    %eax,-0x20(%ebp)
    2c74:	d1 ff                	sar    %edi
    2c76:	89 55 e4             	mov    %edx,-0x1c(%ebp)
    2c79:	4f                   	dec    %edi
    2c7a:	e8 b1 9c 00 00       	call   c930 <console_flush>
    2c7f:	8b 55 e4             	mov    -0x1c(%ebp),%edx
    2c82:	8b 0d f4 3f 02 00    	mov    0x23ff4,%ecx
    2c88:	89 54 24 08          	mov    %edx,0x8(%esp)
    2c8c:	89 7c 24 04          	mov    %edi,0x4(%esp)
    2c90:	89 0c 24             	mov    %ecx,(%esp)
    2c93:	e8 28 a1 00 00       	call   cdc0 <console_set_pos>
    2c98:	84 db                	test   %bl,%bl
    2c9a:	8b 45 e0             	mov    -0x20(%ebp),%eax
    2c9d:	75 29                	jne    2cc8 <scr_msg+0x88>
    2c9f:	89 c3                	mov    %eax,%ebx
    2ca1:	4b                   	dec    %ebx
    2ca2:	78 16                	js     2cba <scr_msg+0x7a>
    2ca4:	8d 74 26 00          	lea    0x0(%esi,%eiz,1),%esi
    2ca8:	c7 04 24 20 00 00 00 	movl   $0x20,(%esp)
    2caf:	4b                   	dec    %ebx
    2cb0:	e8 cb 6c 00 00       	call   9980 <putchar>
    2cb5:	83 fb ff             	cmp    $0xffffffff,%ebx
    2cb8:	75 ee                	jne    2ca8 <scr_msg+0x68>
    2cba:	83 c4 2c             	add    $0x2c,%esp
    2cbd:	5b                   	pop    %ebx
    2cbe:	5e                   	pop    %esi
    2cbf:	5f                   	pop    %edi
    2cc0:	5d                   	pop    %ebp
    2cc1:	c3                   	ret    
    2cc2:	8d b6 00 00 00 00    	lea    0x0(%esi),%esi
    2cc8:	0f be 06             	movsbl (%esi),%eax
    2ccb:	84 c0                	test   %al,%al
    2ccd:	74 eb                	je     2cba <scr_msg+0x7a>
    2ccf:	90                   	nop
    2cd0:	46                   	inc    %esi
    2cd1:	89 04 24             	mov    %eax,(%esp)
    2cd4:	e8 a7 6c 00 00       	call   9980 <putchar>
    2cd9:	0f be 06             	movsbl (%esi),%eax
    2cdc:	84 c0                	test   %al,%al
    2cde:	74 da                	je     2cba <scr_msg+0x7a>
    2ce0:	46                   	inc    %esi
    2ce1:	89 04 24             	mov    %eax,(%esp)
    2ce4:	e8 97 6c 00 00       	call   9980 <putchar>
    2ce9:	0f be 06             	movsbl (%esi),%eax
    2cec:	84 c0                	test   %al,%al
    2cee:	75 e0                	jne    2cd0 <scr_msg+0x90>
    2cf0:	eb c8                	jmp    2cba <scr_msg+0x7a>
    2cf2:	8d b4 26 00 00 00 00 	lea    0x0(%esi,%eiz,1),%esi
    2cf9:	8d bc 27 00 00 00 00 	lea    0x0(%edi,%eiz,1),%edi

00002d00 <tsleep>:
    2d00:	55                   	push   %ebp
    2d01:	89 e5                	mov    %esp,%ebp
    2d03:	56                   	push   %esi
    2d04:	53                   	push   %ebx
    2d05:	83 ec 30             	sub    $0x30,%esp
    2d08:	8d 75 dc             	lea    -0x24(%ebp),%esi
    2d0b:	a1 5c 3f 02 00       	mov    0x23f5c,%eax
    2d10:	8d 5d e0             	lea    -0x20(%ebp),%ebx
    2d13:	89 45 dc             	mov    %eax,-0x24(%ebp)
    2d16:	85 c0                	test   %eax,%eax
    2d18:	7f 0d                	jg     2d27 <tsleep+0x27>
    2d1a:	eb 24                	jmp    2d40 <tsleep+0x40>
    2d1c:	8d 74 26 00          	lea    0x0(%esi,%eiz,1),%esi
    2d20:	8b 45 dc             	mov    -0x24(%ebp),%eax
    2d23:	85 c0                	test   %eax,%eax
    2d25:	7e 19                	jle    2d40 <tsleep+0x40>
    2d27:	a1 f4 3f 02 00       	mov    0x23ff4,%eax
    2d2c:	89 74 24 08          	mov    %esi,0x8(%esp)
    2d30:	89 5c 24 04          	mov    %ebx,0x4(%esp)
    2d34:	89 04 24             	mov    %eax,(%esp)
    2d37:	e8 14 a2 00 00       	call   cf50 <console_get_kbd_event_timeout>
    2d3c:	84 c0                	test   %al,%al
    2d3e:	75 e0                	jne    2d20 <tsleep+0x20>
    2d40:	83 c4 30             	add    $0x30,%esp
    2d43:	5b                   	pop    %ebx
    2d44:	5e                   	pop    %esi
    2d45:	5d                   	pop    %ebp
    2d46:	c3                   	ret    
    2d47:	89 f6                	mov    %esi,%esi
    2d49:	8d bc 27 00 00 00 00 	lea    0x0(%edi,%eiz,1),%edi

00002d50 <tgetchar>:
    2d50:	55                   	push   %ebp
    2d51:	89 e5                	mov    %esp,%ebp
    2d53:	53                   	push   %ebx
    2d54:	83 ec 34             	sub    $0x34,%esp
    2d57:	a1 1c 48 02 00       	mov    0x2481c,%eax
    2d5c:	8d 5d e0             	lea    -0x20(%ebp),%ebx
    2d5f:	85 c0                	test   %eax,%eax
    2d61:	7e 55                	jle    2db8 <tgetchar+0x68>
    2d63:	90                   	nop
    2d64:	8d 74 26 00          	lea    0x0(%esi,%eiz,1),%esi
    2d68:	a1 f4 3f 02 00       	mov    0x23ff4,%eax
    2d6d:	c7 44 24 08 1c 48 02 	movl   $0x2481c,0x8(%esp)
    2d74:	00 
    2d75:	89 5c 24 04          	mov    %ebx,0x4(%esp)
    2d79:	89 04 24             	mov    %eax,(%esp)
    2d7c:	e8 cf a1 00 00       	call   cf50 <console_get_kbd_event_timeout>
    2d81:	84 c0                	test   %al,%al
    2d83:	74 1b                	je     2da0 <tgetchar+0x50>
    2d85:	8b 45 e8             	mov    -0x18(%ebp),%eax
    2d88:	85 c0                	test   %eax,%eax
    2d8a:	75 dc                	jne    2d68 <tgetchar+0x18>
    2d8c:	8b 45 f4             	mov    -0xc(%ebp),%eax
    2d8f:	85 c0                	test   %eax,%eax
    2d91:	74 d5                	je     2d68 <tgetchar+0x18>
    2d93:	83 c4 34             	add    $0x34,%esp
    2d96:	5b                   	pop    %ebx
    2d97:	5d                   	pop    %ebp
    2d98:	c3                   	ret    
    2d99:	8d b4 26 00 00 00 00 	lea    0x0(%esi,%eiz,1),%esi
    2da0:	c7 05 1c 48 02 00 00 	movl   $0x0,0x2481c
    2da7:	00 00 00 
    2daa:	83 c4 34             	add    $0x34,%esp
    2dad:	83 c8 ff             	or     $0xffffffff,%eax
    2db0:	5b                   	pop    %ebx
    2db1:	5d                   	pop    %ebp
    2db2:	c3                   	ret    
    2db3:	90                   	nop
    2db4:	8d 74 26 00          	lea    0x0(%esi,%eiz,1),%esi
    2db8:	8b 0d 5c 3f 02 00    	mov    0x23f5c,%ecx
    2dbe:	ba f1 19 76 05       	mov    $0x57619f1,%edx
    2dc3:	89 c8                	mov    %ecx,%eax
    2dc5:	f7 ea                	imul   %edx
    2dc7:	c1 fa 06             	sar    $0x6,%edx
    2dca:	89 c8                	mov    %ecx,%eax
    2dcc:	c1 f8 1f             	sar    $0x1f,%eax
    2dcf:	29 d0                	sub    %edx,%eax
    2dd1:	01 c8                	add    %ecx,%eax
    2dd3:	a3 5c 3f 02 00       	mov    %eax,0x23f5c
    2dd8:	a3 1c 48 02 00       	mov    %eax,0x2481c
    2ddd:	eb 89                	jmp    2d68 <tgetchar+0x18>
    2ddf:	90                   	nop

00002de0 <twait>:
    2de0:	55                   	push   %ebp
    2de1:	89 e5                	mov    %esp,%ebp
    2de3:	53                   	push   %ebx
    2de4:	83 ec 34             	sub    $0x34,%esp
    2de7:	8d 5d e0             	lea    -0x20(%ebp),%ebx
    2dea:	8d b6 00 00 00 00    	lea    0x0(%esi),%esi
    2df0:	a1 f4 3f 02 00       	mov    0x23ff4,%eax
    2df5:	89 5c 24 04          	mov    %ebx,0x4(%esp)
    2df9:	89 04 24             	mov    %eax,(%esp)
    2dfc:	e8 3f a0 00 00       	call   ce40 <console_get_kbd_event>
    2e01:	84 c0                	test   %al,%al
    2e03:	74 1b                	je     2e20 <twait+0x40>
    2e05:	8b 45 e8             	mov    -0x18(%ebp),%eax
    2e08:	85 c0                	test   %eax,%eax
    2e0a:	75 e4                	jne    2df0 <twait+0x10>
    2e0c:	8b 45 f4             	mov    -0xc(%ebp),%eax
    2e0f:	85 c0                	test   %eax,%eax
    2e11:	74 dd                	je     2df0 <twait+0x10>
    2e13:	83 c4 34             	add    $0x34,%esp
    2e16:	5b                   	pop    %ebx
    2e17:	5d                   	pop    %ebp
    2e18:	c3                   	ret    
    2e19:	8d b4 26 00 00 00 00 	lea    0x0(%esi,%eiz,1),%esi
    2e20:	83 c4 34             	add    $0x34,%esp
    2e23:	83 c8 ff             	or     $0xffffffff,%eax
    2e26:	5b                   	pop    %ebx
    2e27:	5d                   	pop    %ebp
    2e28:	c3                   	ret    
    2e29:	66 90                	xchg   %ax,%ax
    2e2b:	66 90                	xchg   %ax,%ax
    2e2d:	66 90                	xchg   %ax,%ax
    2e2f:	90                   	nop

00002e30 <exit>:
    2e30:	55                   	push   %ebp
    2e31:	89 e5                	mov    %esp,%ebp
    2e33:	83 ec 28             	sub    $0x28,%esp
    2e36:	80 3d 20 48 02 00 00 	cmpb   $0x0,0x24820
    2e3d:	75 3f                	jne    2e7e <exit+0x4e>
    2e3f:	c7 44 24 18 0a 00 00 	movl   $0xa,0x18(%esp)
    2e46:	00 
    2e47:	c7 44 24 14 00 00 00 	movl   $0x0,0x14(%esp)
    2e4e:	00 
    2e4f:	c7 44 24 10 00 00 00 	movl   $0x0,0x10(%esp)
    2e56:	00 
    2e57:	c7 44 24 0c 00 00 00 	movl   $0x0,0xc(%esp)
    2e5e:	00 
    2e5f:	c7 44 24 08 00 00 00 	movl   $0x0,0x8(%esp)
    2e66:	00 
    2e67:	c7 44 24 04 00 00 00 	movl   $0x0,0x4(%esp)
    2e6e:	00 
    2e6f:	c7 04 24 00 00 00 00 	movl   $0x0,(%esp)
    2e76:	ff 15 70 3a 02 00    	call   *0x23a70
    2e7c:	eb fe                	jmp    2e7c <exit+0x4c>
    2e7e:	e8 5d 4c 00 00       	call   7ae0 <__stdio_done>
    2e83:	8b 45 08             	mov    0x8(%ebp),%eax
    2e86:	89 04 24             	mov    %eax,(%esp)
    2e89:	e8 72 47 00 00       	call   7600 <task_retval>
    2e8e:	65 a1 00 00 00 00    	mov    %gs:0x0,%eax
    2e94:	8b 40 04             	mov    0x4(%eax),%eax
    2e97:	89 04 24             	mov    %eax,(%esp)
    2e9a:	e8 11 3a 00 00       	call   68b0 <fibril_teardown>
    2e9f:	eb 9e                	jmp    2e3f <exit+0xf>
    2ea1:	eb 0d                	jmp    2eb0 <abort>
    2ea3:	90                   	nop
    2ea4:	90                   	nop
    2ea5:	90                   	nop
    2ea6:	90                   	nop
    2ea7:	90                   	nop
    2ea8:	90                   	nop
    2ea9:	90                   	nop
    2eaa:	90                   	nop
    2eab:	90                   	nop
    2eac:	90                   	nop
    2ead:	90                   	nop
    2eae:	90                   	nop
    2eaf:	90                   	nop

00002eb0 <abort>:
    2eb0:	55                   	push   %ebp
    2eb1:	89 e5                	mov    %esp,%ebp
    2eb3:	83 ec 28             	sub    $0x28,%esp
    2eb6:	c7 44 24 18 0a 00 00 	movl   $0xa,0x18(%esp)
    2ebd:	00 
    2ebe:	c7 44 24 14 00 00 00 	movl   $0x0,0x14(%esp)
    2ec5:	00 
    2ec6:	c7 44 24 10 00 00 00 	movl   $0x0,0x10(%esp)
    2ecd:	00 
    2ece:	c7 44 24 0c 00 00 00 	movl   $0x0,0xc(%esp)
    2ed5:	00 
    2ed6:	c7 44 24 08 00 00 00 	movl   $0x0,0x8(%esp)
    2edd:	00 
    2ede:	c7 44 24 04 00 00 00 	movl   $0x0,0x4(%esp)
    2ee5:	00 
    2ee6:	c7 04 24 01 00 00 00 	movl   $0x1,(%esp)
    2eed:	ff 15 70 3a 02 00    	call   *0x23a70
    2ef3:	eb fe                	jmp    2ef3 <abort+0x43>
    2ef5:	8d 74 26 00          	lea    0x0(%esi,%eiz,1),%esi
    2ef9:	8d bc 27 00 00 00 00 	lea    0x0(%edi,%eiz,1),%edi

00002f00 <__main>:
    2f00:	55                   	push   %ebp
    2f01:	89 e5                	mov    %esp,%ebp
    2f03:	57                   	push   %edi
    2f04:	56                   	push   %esi
    2f05:	53                   	push   %ebx
    2f06:	83 ec 2c             	sub    $0x2c,%esp
    2f09:	8b 5d 08             	mov    0x8(%ebp),%ebx
    2f0c:	e8 df c2 00 00       	call   f1f0 <__malloc_init>
    2f11:	e8 7a de 00 00       	call   10d90 <__async_init>
    2f16:	e8 15 39 00 00       	call   6830 <fibril_setup>
    2f1b:	85 c0                	test   %eax,%eax
    2f1d:	0f 84 82 00 00 00    	je     2fa5 <__main+0xa5>
    2f23:	c7 44 24 18 01 00 00 	movl   $0x1,0x18(%esp)
    2f2a:	00 
    2f2b:	c7 44 24 14 00 00 00 	movl   $0x0,0x14(%esp)
    2f32:	00 
    2f33:	c7 44 24 10 00 00 00 	movl   $0x0,0x10(%esp)
    2f3a:	00 
    2f3b:	c7 44 24 0c 00 00 00 	movl   $0x0,0xc(%esp)
    2f42:	00 
    2f43:	c7 44 24 08 00 00 00 	movl   $0x0,0x8(%esp)
    2f4a:	00 
    2f4b:	c7 44 24 04 00 00 00 	movl   $0x0,0x4(%esp)
    2f52:	00 
    2f53:	8b 40 30             	mov    0x30(%eax),%eax
    2f56:	89 04 24             	mov    %eax,(%esp)
    2f59:	ff 15 70 3a 02 00    	call   *0x23a70
    2f5f:	89 1d f8 3f 02 00    	mov    %ebx,0x23ff8
    2f65:	c6 05 20 48 02 00 01 	movb   $0x1,0x24820
    2f6c:	85 db                	test   %ebx,%ebx
    2f6e:	74 3a                	je     2faa <__main+0xaa>
    2f70:	8b 43 10             	mov    0x10(%ebx),%eax
    2f73:	8b 73 08             	mov    0x8(%ebx),%esi
    2f76:	8b 7b 0c             	mov    0xc(%ebx),%edi
    2f79:	89 04 24             	mov    %eax,(%esp)
    2f7c:	e8 cf 48 00 00       	call   7850 <__stdio_init>
    2f81:	a1 f8 3f 02 00       	mov    0x23ff8,%eax
    2f86:	8b 40 04             	mov    0x4(%eax),%eax
    2f89:	89 04 24             	mov    %eax,(%esp)
    2f8c:	e8 ef 67 01 00       	call   19780 <chdir>
    2f91:	89 7c 24 04          	mov    %edi,0x4(%esp)
    2f95:	89 34 24             	mov    %esi,(%esp)
    2f98:	e8 93 ec ff ff       	call   1c30 <main>
    2f9d:	89 04 24             	mov    %eax,(%esp)
    2fa0:	e8 8b fe ff ff       	call   2e30 <exit>
    2fa5:	e8 06 ff ff ff       	call   2eb0 <abort>
    2faa:	c7 04 24 00 00 00 00 	movl   $0x0,(%esp)
    2fb1:	31 ff                	xor    %edi,%edi
    2fb3:	e8 98 48 00 00       	call   7850 <__stdio_init>
    2fb8:	31 f6                	xor    %esi,%esi
    2fba:	eb d5                	jmp    2f91 <__main+0x91>
    2fbc:	66 90                	xchg   %ax,%ax
    2fbe:	66 90                	xchg   %ax,%ax

00002fc0 <memset>:
    2fc0:	55                   	push   %ebp
    2fc1:	89 e5                	mov    %esp,%ebp
    2fc3:	57                   	push   %edi
    2fc4:	56                   	push   %esi
    2fc5:	53                   	push   %ebx
    2fc6:	83 ec 20             	sub    $0x20,%esp
    2fc9:	c7 45 f0 04 00 00 00 	movl   $0x4,-0x10(%ebp)
    2fd0:	8b 45 08             	mov    0x8(%ebp),%eax
    2fd3:	8b 75 f0             	mov    -0x10(%ebp),%esi
    2fd6:	89 c2                	mov    %eax,%edx
    2fd8:	83 e2 03             	and    $0x3,%edx
    2fdb:	29 d6                	sub    %edx,%esi
    2fdd:	8b 55 10             	mov    0x10(%ebp),%edx
    2fe0:	89 75 f0             	mov    %esi,-0x10(%ebp)
    2fe3:	39 55 f0             	cmp    %edx,-0x10(%ebp)
    2fe6:	76 03                	jbe    2feb <memset+0x2b>
    2fe8:	89 55 f0             	mov    %edx,-0x10(%ebp)
    2feb:	8b 7d f0             	mov    -0x10(%ebp),%edi
    2fee:	8b 5d f0             	mov    -0x10(%ebp),%ebx
    2ff1:	4f                   	dec    %edi
    2ff2:	85 db                	test   %ebx,%ebx
    2ff4:	0f 84 2e 01 00 00    	je     3128 <memset+0x168>
    2ffa:	89 c1                	mov    %eax,%ecx
    2ffc:	8b 55 f0             	mov    -0x10(%ebp),%edx
    2fff:	f7 d9                	neg    %ecx
    3001:	83 e1 03             	and    $0x3,%ecx
    3004:	8a 5d 0c             	mov    0xc(%ebp),%bl
    3007:	89 4d ec             	mov    %ecx,-0x14(%ebp)
    300a:	39 d1                	cmp    %edx,%ecx
    300c:	0f 87 0e 01 00 00    	ja     3120 <memset+0x160>
    3012:	83 7d f0 06          	cmpl   $0x6,-0x10(%ebp)
    3016:	0f 87 10 01 00 00    	ja     312c <memset+0x16c>
    301c:	8b 4d f0             	mov    -0x10(%ebp),%ecx
    301f:	89 4d ec             	mov    %ecx,-0x14(%ebp)
    3022:	8b 75 ec             	mov    -0x14(%ebp),%esi
    3025:	89 c2                	mov    %eax,%edx
    3027:	90                   	nop
    3028:	88 1a                	mov    %bl,(%edx)
    302a:	42                   	inc    %edx
    302b:	89 d1                	mov    %edx,%ecx
    302d:	4f                   	dec    %edi
    302e:	29 c1                	sub    %eax,%ecx
    3030:	39 f1                	cmp    %esi,%ecx
    3032:	72 f4                	jb     3028 <memset+0x68>
    3034:	89 55 d4             	mov    %edx,-0x2c(%ebp)
    3037:	8b 55 ec             	mov    -0x14(%ebp),%edx
    303a:	39 55 f0             	cmp    %edx,-0x10(%ebp)
    303d:	0f 84 84 00 00 00    	je     30c7 <memset+0x107>
    3043:	8b 4d f0             	mov    -0x10(%ebp),%ecx
    3046:	8b 55 ec             	mov    -0x14(%ebp),%edx
    3049:	29 d1                	sub    %edx,%ecx
    304b:	89 4d dc             	mov    %ecx,-0x24(%ebp)
    304e:	c1 e9 02             	shr    $0x2,%ecx
    3051:	89 4d e4             	mov    %ecx,-0x1c(%ebp)
    3054:	c1 e1 02             	shl    $0x2,%ecx
    3057:	89 4d e0             	mov    %ecx,-0x20(%ebp)
    305a:	74 59                	je     30b5 <memset+0xf5>
    305c:	31 c9                	xor    %ecx,%ecx
    305e:	31 d2                	xor    %edx,%edx
    3060:	88 d9                	mov    %bl,%cl
    3062:	88 da                	mov    %bl,%dl
    3064:	8a 6d 0c             	mov    0xc(%ebp),%ch
    3067:	89 55 e8             	mov    %edx,-0x18(%ebp)
    306a:	c1 e2 10             	shl    $0x10,%edx
    306d:	89 ce                	mov    %ecx,%esi
    306f:	81 e6 ff ff 00 00    	and    $0xffff,%esi
    3075:	8b 4d e8             	mov    -0x18(%ebp),%ecx
    3078:	c1 e1 18             	shl    $0x18,%ecx
    307b:	09 d6                	or     %edx,%esi
    307d:	09 ce                	or     %ecx,%esi
    307f:	8b 4d ec             	mov    -0x14(%ebp),%ecx
    3082:	01 c1                	add    %eax,%ecx
    3084:	89 7d e8             	mov    %edi,-0x18(%ebp)
    3087:	89 4d ec             	mov    %ecx,-0x14(%ebp)
    308a:	8b 55 d4             	mov    -0x2c(%ebp),%edx
    308d:	8b 7d ec             	mov    -0x14(%ebp),%edi
    3090:	31 c9                	xor    %ecx,%ecx
    3092:	89 45 ec             	mov    %eax,-0x14(%ebp)
    3095:	8b 45 e4             	mov    -0x1c(%ebp),%eax
    3098:	89 34 8f             	mov    %esi,(%edi,%ecx,4)
    309b:	41                   	inc    %ecx
    309c:	39 c8                	cmp    %ecx,%eax
    309e:	77 f8                	ja     3098 <memset+0xd8>
    30a0:	8b 4d e0             	mov    -0x20(%ebp),%ecx
    30a3:	8b 7d e8             	mov    -0x18(%ebp),%edi
    30a6:	01 ca                	add    %ecx,%edx
    30a8:	29 cf                	sub    %ecx,%edi
    30aa:	8b 45 ec             	mov    -0x14(%ebp),%eax
    30ad:	89 55 d4             	mov    %edx,-0x2c(%ebp)
    30b0:	39 4d dc             	cmp    %ecx,-0x24(%ebp)
    30b3:	74 12                	je     30c7 <memset+0x107>
    30b5:	8b 55 d4             	mov    -0x2c(%ebp),%edx
    30b8:	8d 4c 3a 01          	lea    0x1(%edx,%edi,1),%ecx
    30bc:	8d 74 26 00          	lea    0x0(%esi,%eiz,1),%esi
    30c0:	88 1a                	mov    %bl,(%edx)
    30c2:	42                   	inc    %edx
    30c3:	39 ca                	cmp    %ecx,%edx
    30c5:	75 f9                	jne    30c0 <memset+0x100>
    30c7:	8b 5d f0             	mov    -0x10(%ebp),%ebx
    30ca:	01 c3                	add    %eax,%ebx
    30cc:	8b 75 10             	mov    0x10(%ebp),%esi
    30cf:	2b 75 f0             	sub    -0x10(%ebp),%esi
    30d2:	74 43                	je     3117 <memset+0x157>
    30d4:	0f b6 55 0c          	movzbl 0xc(%ebp),%edx
    30d8:	89 d1                	mov    %edx,%ecx
    30da:	89 f7                	mov    %esi,%edi
    30dc:	c1 e1 08             	shl    $0x8,%ecx
    30df:	83 e7 03             	and    $0x3,%edi
    30e2:	09 d1                	or     %edx,%ecx
    30e4:	c1 e1 08             	shl    $0x8,%ecx
    30e7:	09 d1                	or     %edx,%ecx
    30e9:	c1 e1 08             	shl    $0x8,%ecx
    30ec:	09 d1                	or     %edx,%ecx
    30ee:	c1 ee 02             	shr    $0x2,%esi
    30f1:	74 10                	je     3103 <memset+0x143>
    30f3:	31 d2                	xor    %edx,%edx
    30f5:	8d 76 00             	lea    0x0(%esi),%esi
    30f8:	89 0c 93             	mov    %ecx,(%ebx,%edx,4)
    30fb:	42                   	inc    %edx
    30fc:	39 f2                	cmp    %esi,%edx
    30fe:	75 f8                	jne    30f8 <memset+0x138>
    3100:	8d 1c 93             	lea    (%ebx,%edx,4),%ebx
    3103:	85 ff                	test   %edi,%edi
    3105:	74 10                	je     3117 <memset+0x157>
    3107:	8a 55 0c             	mov    0xc(%ebp),%dl
    310a:	01 df                	add    %ebx,%edi
    310c:	8d 74 26 00          	lea    0x0(%esi,%eiz,1),%esi
    3110:	88 13                	mov    %dl,(%ebx)
    3112:	43                   	inc    %ebx
    3113:	39 fb                	cmp    %edi,%ebx
    3115:	75 f9                	jne    3110 <memset+0x150>
    3117:	83 c4 20             	add    $0x20,%esp
    311a:	5b                   	pop    %ebx
    311b:	5e                   	pop    %esi
    311c:	5f                   	pop    %edi
    311d:	5d                   	pop    %ebp
    311e:	c3                   	ret    
    311f:	90                   	nop
    3120:	89 55 ec             	mov    %edx,-0x14(%ebp)
    3123:	e9 ea fe ff ff       	jmp    3012 <memset+0x52>
    3128:	89 c3                	mov    %eax,%ebx
    312a:	eb a0                	jmp    30cc <memset+0x10c>
    312c:	8b 4d ec             	mov    -0x14(%ebp),%ecx
    312f:	85 c9                	test   %ecx,%ecx
    3131:	0f 85 eb fe ff ff    	jne    3022 <memset+0x62>
    3137:	89 45 d4             	mov    %eax,-0x2c(%ebp)
    313a:	e9 04 ff ff ff       	jmp    3043 <memset+0x83>
    313f:	90                   	nop

00003140 <memcpy>:
    3140:	55                   	push   %ebp
    3141:	89 e5                	mov    %esp,%ebp
    3143:	57                   	push   %edi
    3144:	56                   	push   %esi
    3145:	53                   	push   %ebx
    3146:	83 ec 0c             	sub    $0xc,%esp
    3149:	8b 4d 0c             	mov    0xc(%ebp),%ecx
    314c:	8b 45 08             	mov    0x8(%ebp),%eax
    314f:	89 ca                	mov    %ecx,%edx
    3151:	31 c2                	xor    %eax,%edx
    3153:	83 e2 03             	and    $0x3,%edx
    3156:	0f 85 84 01 00 00    	jne    32e0 <memcpy+0x1a0>
    315c:	c7 45 ec 04 00 00 00 	movl   $0x4,-0x14(%ebp)
    3163:	89 c2                	mov    %eax,%edx
    3165:	83 e2 03             	and    $0x3,%edx
    3168:	8b 75 ec             	mov    -0x14(%ebp),%esi
    316b:	29 d6                	sub    %edx,%esi
    316d:	8b 55 10             	mov    0x10(%ebp),%edx
    3170:	89 75 ec             	mov    %esi,-0x14(%ebp)
    3173:	39 55 ec             	cmp    %edx,-0x14(%ebp)
    3176:	0f 87 5c 01 00 00    	ja     32d8 <memcpy+0x198>
    317c:	8b 5d ec             	mov    -0x14(%ebp),%ebx
    317f:	4b                   	dec    %ebx
    3180:	89 5d f0             	mov    %ebx,-0x10(%ebp)
    3183:	8b 5d ec             	mov    -0x14(%ebp),%ebx
    3186:	85 db                	test   %ebx,%ebx
    3188:	0f 84 91 01 00 00    	je     331f <memcpy+0x1df>
    318e:	8d 51 04             	lea    0x4(%ecx),%edx
    3191:	8b 5d ec             	mov    -0x14(%ebp),%ebx
    3194:	c1 eb 02             	shr    $0x2,%ebx
    3197:	39 d0                	cmp    %edx,%eax
    3199:	0f 93 c2             	setae  %dl
    319c:	89 d6                	mov    %edx,%esi
    319e:	8d 50 04             	lea    0x4(%eax),%edx
    31a1:	39 d1                	cmp    %edx,%ecx
    31a3:	8d 3c 9d 00 00 00 00 	lea    0x0(,%ebx,4),%edi
    31aa:	0f 93 c2             	setae  %dl
    31ad:	09 d6                	or     %edx,%esi
    31af:	83 7d ec 09          	cmpl   $0x9,-0x14(%ebp)
    31b3:	0f 97 c2             	seta   %dl
    31b6:	21 d6                	and    %edx,%esi
    31b8:	89 ca                	mov    %ecx,%edx
    31ba:	09 c2                	or     %eax,%edx
    31bc:	83 e2 03             	and    $0x3,%edx
    31bf:	89 f2                	mov    %esi,%edx
    31c1:	0f 94 45 e8          	sete   -0x18(%ebp)
    31c5:	84 55 e8             	test   %dl,-0x18(%ebp)
    31c8:	0f 84 58 01 00 00    	je     3326 <memcpy+0x1e6>
    31ce:	85 ff                	test   %edi,%edi
    31d0:	0f 84 50 01 00 00    	je     3326 <memcpy+0x1e6>
    31d6:	31 d2                	xor    %edx,%edx
    31d8:	8b 34 91             	mov    (%ecx,%edx,4),%esi
    31db:	89 34 90             	mov    %esi,(%eax,%edx,4)
    31de:	42                   	inc    %edx
    31df:	39 d3                	cmp    %edx,%ebx
    31e1:	77 f5                	ja     31d8 <memcpy+0x98>
    31e3:	8b 55 f0             	mov    -0x10(%ebp),%edx
    31e6:	8d 1c 39             	lea    (%ecx,%edi,1),%ebx
    31e9:	29 fa                	sub    %edi,%edx
    31eb:	8d 34 38             	lea    (%eax,%edi,1),%esi
    31ee:	89 55 f0             	mov    %edx,-0x10(%ebp)
    31f1:	39 7d ec             	cmp    %edi,-0x14(%ebp)
    31f4:	74 18                	je     320e <memcpy+0xce>
    31f6:	8b 7d f0             	mov    -0x10(%ebp),%edi
    31f9:	31 d2                	xor    %edx,%edx
    31fb:	47                   	inc    %edi
    31fc:	89 45 f0             	mov    %eax,-0x10(%ebp)
    31ff:	90                   	nop
    3200:	8a 04 13             	mov    (%ebx,%edx,1),%al
    3203:	88 04 16             	mov    %al,(%esi,%edx,1)
    3206:	42                   	inc    %edx
    3207:	39 fa                	cmp    %edi,%edx
    3209:	75 f5                	jne    3200 <memcpy+0xc0>
    320b:	8b 45 f0             	mov    -0x10(%ebp),%eax
    320e:	8b 55 ec             	mov    -0x14(%ebp),%edx
    3211:	8b 7d ec             	mov    -0x14(%ebp),%edi
    3214:	01 c2                	add    %eax,%edx
    3216:	01 f9                	add    %edi,%ecx
    3218:	8b 5d 10             	mov    0x10(%ebp),%ebx
    321b:	2b 5d ec             	sub    -0x14(%ebp),%ebx
    321e:	0f 84 a9 00 00 00    	je     32cd <memcpy+0x18d>
    3224:	89 df                	mov    %ebx,%edi
    3226:	c1 ef 02             	shr    $0x2,%edi
    3229:	8d 34 bd 00 00 00 00 	lea    0x0(,%edi,4),%esi
    3230:	29 f3                	sub    %esi,%ebx
    3232:	85 ff                	test   %edi,%edi
    3234:	89 5d ec             	mov    %ebx,-0x14(%ebp)
    3237:	74 1c                	je     3255 <memcpy+0x115>
    3239:	31 db                	xor    %ebx,%ebx
    323b:	89 45 f0             	mov    %eax,-0x10(%ebp)
    323e:	66 90                	xchg   %ax,%ax
    3240:	8b 04 99             	mov    (%ecx,%ebx,4),%eax
    3243:	89 04 9a             	mov    %eax,(%edx,%ebx,4)
    3246:	43                   	inc    %ebx
    3247:	39 fb                	cmp    %edi,%ebx
    3249:	75 f5                	jne    3240 <memcpy+0x100>
    324b:	8b 45 f0             	mov    -0x10(%ebp),%eax
    324e:	01 f2                	add    %esi,%edx
    3250:	01 f1                	add    %esi,%ecx
    3252:	8b 5d ec             	mov    -0x14(%ebp),%ebx
    3255:	4b                   	dec    %ebx
    3256:	8b 75 ec             	mov    -0x14(%ebp),%esi
    3259:	89 5d e8             	mov    %ebx,-0x18(%ebp)
    325c:	85 f6                	test   %esi,%esi
    325e:	74 6d                	je     32cd <memcpy+0x18d>
    3260:	8d 5a 04             	lea    0x4(%edx),%ebx
    3263:	8b 75 ec             	mov    -0x14(%ebp),%esi
    3266:	c1 ee 02             	shr    $0x2,%esi
    3269:	39 d9                	cmp    %ebx,%ecx
    326b:	8d 59 04             	lea    0x4(%ecx),%ebx
    326e:	0f 93 45 f0          	setae  -0x10(%ebp)
    3272:	39 da                	cmp    %ebx,%edx
    3274:	8d 3c b5 00 00 00 00 	lea    0x0(,%esi,4),%edi
    327b:	0f 93 c3             	setae  %bl
    327e:	08 5d f0             	or     %bl,-0x10(%ebp)
    3281:	83 7d ec 08          	cmpl   $0x8,-0x14(%ebp)
    3285:	0f 97 c3             	seta   %bl
    3288:	84 5d f0             	test   %bl,-0x10(%ebp)
    328b:	74 2a                	je     32b7 <memcpy+0x177>
    328d:	85 ff                	test   %edi,%edi
    328f:	74 26                	je     32b7 <memcpy+0x177>
    3291:	31 db                	xor    %ebx,%ebx
    3293:	89 45 f0             	mov    %eax,-0x10(%ebp)
    3296:	66 90                	xchg   %ax,%ax
    3298:	8b 04 99             	mov    (%ecx,%ebx,4),%eax
    329b:	89 04 9a             	mov    %eax,(%edx,%ebx,4)
    329e:	43                   	inc    %ebx
    329f:	39 de                	cmp    %ebx,%esi
    32a1:	77 f5                	ja     3298 <memcpy+0x158>
    32a3:	8b 5d e8             	mov    -0x18(%ebp),%ebx
    32a6:	01 f9                	add    %edi,%ecx
    32a8:	29 fb                	sub    %edi,%ebx
    32aa:	01 fa                	add    %edi,%edx
    32ac:	8b 45 f0             	mov    -0x10(%ebp),%eax
    32af:	89 5d e8             	mov    %ebx,-0x18(%ebp)
    32b2:	39 7d ec             	cmp    %edi,-0x14(%ebp)
    32b5:	74 16                	je     32cd <memcpy+0x18d>
    32b7:	8b 75 e8             	mov    -0x18(%ebp),%esi
    32ba:	31 db                	xor    %ebx,%ebx
    32bc:	46                   	inc    %esi
    32bd:	89 c7                	mov    %eax,%edi
    32bf:	90                   	nop
    32c0:	8a 04 19             	mov    (%ecx,%ebx,1),%al
    32c3:	88 04 1a             	mov    %al,(%edx,%ebx,1)
    32c6:	43                   	inc    %ebx
    32c7:	39 f3                	cmp    %esi,%ebx
    32c9:	75 f5                	jne    32c0 <memcpy+0x180>
    32cb:	89 f8                	mov    %edi,%eax
    32cd:	83 c4 0c             	add    $0xc,%esp
    32d0:	5b                   	pop    %ebx
    32d1:	5e                   	pop    %esi
    32d2:	5f                   	pop    %edi
    32d3:	5d                   	pop    %ebp
    32d4:	c3                   	ret    
    32d5:	8d 76 00             	lea    0x0(%esi),%esi
    32d8:	89 55 ec             	mov    %edx,-0x14(%ebp)
    32db:	e9 9c fe ff ff       	jmp    317c <memcpy+0x3c>
    32e0:	8b 75 10             	mov    0x10(%ebp),%esi
    32e3:	31 d2                	xor    %edx,%edx
    32e5:	c1 ee 02             	shr    $0x2,%esi
    32e8:	74 11                	je     32fb <memcpy+0x1bb>
    32ea:	8d b6 00 00 00 00    	lea    0x0(%esi),%esi
    32f0:	8b 1c 91             	mov    (%ecx,%edx,4),%ebx
    32f3:	89 1c 90             	mov    %ebx,(%eax,%edx,4)
    32f6:	42                   	inc    %edx
    32f7:	39 f2                	cmp    %esi,%edx
    32f9:	75 f5                	jne    32f0 <memcpy+0x1b0>
    32fb:	8b 75 10             	mov    0x10(%ebp),%esi
    32fe:	83 e6 03             	and    $0x3,%esi
    3301:	74 ca                	je     32cd <memcpy+0x18d>
    3303:	c1 e2 02             	shl    $0x2,%edx
    3306:	31 db                	xor    %ebx,%ebx
    3308:	01 d1                	add    %edx,%ecx
    330a:	89 c7                	mov    %eax,%edi
    330c:	01 c2                	add    %eax,%edx
    330e:	66 90                	xchg   %ax,%ax
    3310:	8a 04 19             	mov    (%ecx,%ebx,1),%al
    3313:	88 04 1a             	mov    %al,(%edx,%ebx,1)
    3316:	43                   	inc    %ebx
    3317:	39 de                	cmp    %ebx,%esi
    3319:	77 f5                	ja     3310 <memcpy+0x1d0>
    331b:	89 f8                	mov    %edi,%eax
    331d:	eb ae                	jmp    32cd <memcpy+0x18d>
    331f:	89 c2                	mov    %eax,%edx
    3321:	e9 f2 fe ff ff       	jmp    3218 <memcpy+0xd8>
    3326:	89 c6                	mov    %eax,%esi
    3328:	89 cb                	mov    %ecx,%ebx
    332a:	e9 c7 fe ff ff       	jmp    31f6 <memcpy+0xb6>
    332f:	90                   	nop

00003330 <memmove>:
    3330:	55                   	push   %ebp
    3331:	89 e5                	mov    %esp,%ebp
    3333:	57                   	push   %edi
    3334:	56                   	push   %esi
    3335:	53                   	push   %ebx
    3336:	83 ec 0c             	sub    $0xc,%esp
    3339:	8b 45 08             	mov    0x8(%ebp),%eax
    333c:	8b 55 0c             	mov    0xc(%ebp),%edx
    333f:	39 c2                	cmp    %eax,%edx
    3341:	0f 84 b6 00 00 00    	je     33fd <memmove+0xcd>
    3347:	8b 4d 10             	mov    0x10(%ebp),%ecx
    334a:	01 d1                	add    %edx,%ecx
    334c:	39 c8                	cmp    %ecx,%eax
    334e:	0f 83 b4 00 00 00    	jae    3408 <memmove+0xd8>
    3354:	8b 4d 10             	mov    0x10(%ebp),%ecx
    3357:	01 c1                	add    %eax,%ecx
    3359:	39 ca                	cmp    %ecx,%edx
    335b:	0f 83 a7 00 00 00    	jae    3408 <memmove+0xd8>
    3361:	39 c2                	cmp    %eax,%edx
    3363:	0f 86 47 02 00 00    	jbe    35b0 <memmove+0x280>
    3369:	8b 7d 10             	mov    0x10(%ebp),%edi
    336c:	8b 4d 10             	mov    0x10(%ebp),%ecx
    336f:	4f                   	dec    %edi
    3370:	85 c9                	test   %ecx,%ecx
    3372:	0f 84 85 00 00 00    	je     33fd <memmove+0xcd>
    3378:	8d 5a 04             	lea    0x4(%edx),%ebx
    337b:	8b 4d 10             	mov    0x10(%ebp),%ecx
    337e:	c1 e9 02             	shr    $0x2,%ecx
    3381:	39 d8                	cmp    %ebx,%eax
    3383:	8d 58 04             	lea    0x4(%eax),%ebx
    3386:	0f 93 45 f0          	setae  -0x10(%ebp)
    338a:	39 da                	cmp    %ebx,%edx
    338c:	8d 34 8d 00 00 00 00 	lea    0x0(,%ecx,4),%esi
    3393:	0f 93 c3             	setae  %bl
    3396:	08 5d f0             	or     %bl,-0x10(%ebp)
    3399:	83 7d 10 09          	cmpl   $0x9,0x10(%ebp)
    339d:	0f 97 c3             	seta   %bl
    33a0:	20 5d f0             	and    %bl,-0x10(%ebp)
    33a3:	89 d3                	mov    %edx,%ebx
    33a5:	09 c3                	or     %eax,%ebx
    33a7:	83 e3 03             	and    $0x3,%ebx
    33aa:	0f 94 c3             	sete   %bl
    33ad:	84 5d f0             	test   %bl,-0x10(%ebp)
    33b0:	0f 84 8b 02 00 00    	je     3641 <memmove+0x311>
    33b6:	85 f6                	test   %esi,%esi
    33b8:	0f 84 83 02 00 00    	je     3641 <memmove+0x311>
    33be:	31 db                	xor    %ebx,%ebx
    33c0:	89 75 f0             	mov    %esi,-0x10(%ebp)
    33c3:	90                   	nop
    33c4:	8d 74 26 00          	lea    0x0(%esi,%eiz,1),%esi
    33c8:	8b 34 9a             	mov    (%edx,%ebx,4),%esi
    33cb:	89 34 98             	mov    %esi,(%eax,%ebx,4)
    33ce:	43                   	inc    %ebx
    33cf:	39 d9                	cmp    %ebx,%ecx
    33d1:	77 f5                	ja     33c8 <memmove+0x98>
    33d3:	8b 75 f0             	mov    -0x10(%ebp),%esi
    33d6:	01 f2                	add    %esi,%edx
    33d8:	29 f7                	sub    %esi,%edi
    33da:	8d 0c 30             	lea    (%eax,%esi,1),%ecx
    33dd:	39 75 10             	cmp    %esi,0x10(%ebp)
    33e0:	74 1b                	je     33fd <memmove+0xcd>
    33e2:	8d 77 01             	lea    0x1(%edi),%esi
    33e5:	31 db                	xor    %ebx,%ebx
    33e7:	89 c7                	mov    %eax,%edi
    33e9:	8d b4 26 00 00 00 00 	lea    0x0(%esi,%eiz,1),%esi
    33f0:	8a 04 1a             	mov    (%edx,%ebx,1),%al
    33f3:	88 04 19             	mov    %al,(%ecx,%ebx,1)
    33f6:	43                   	inc    %ebx
    33f7:	39 f3                	cmp    %esi,%ebx
    33f9:	75 f5                	jne    33f0 <memmove+0xc0>
    33fb:	89 f8                	mov    %edi,%eax
    33fd:	83 c4 0c             	add    $0xc,%esp
    3400:	5b                   	pop    %ebx
    3401:	5e                   	pop    %esi
    3402:	5f                   	pop    %edi
    3403:	5d                   	pop    %ebp
    3404:	c3                   	ret    
    3405:	8d 76 00             	lea    0x0(%esi),%esi
    3408:	89 d1                	mov    %edx,%ecx
    340a:	31 c1                	xor    %eax,%ecx
    340c:	83 e1 03             	and    $0x3,%ecx
    340f:	0f 85 db 01 00 00    	jne    35f0 <memmove+0x2c0>
    3415:	c7 45 e8 04 00 00 00 	movl   $0x4,-0x18(%ebp)
    341c:	89 c1                	mov    %eax,%ecx
    341e:	83 e1 03             	and    $0x3,%ecx
    3421:	8b 75 e8             	mov    -0x18(%ebp),%esi
    3424:	29 ce                	sub    %ecx,%esi
    3426:	8b 4d 10             	mov    0x10(%ebp),%ecx
    3429:	89 75 e8             	mov    %esi,-0x18(%ebp)
    342c:	39 4d e8             	cmp    %ecx,-0x18(%ebp)
    342f:	0f 87 b3 01 00 00    	ja     35e8 <memmove+0x2b8>
    3435:	8b 5d e8             	mov    -0x18(%ebp),%ebx
    3438:	4b                   	dec    %ebx
    3439:	89 5d f0             	mov    %ebx,-0x10(%ebp)
    343c:	8b 5d e8             	mov    -0x18(%ebp),%ebx
    343f:	85 db                	test   %ebx,%ebx
    3441:	0f 84 f3 01 00 00    	je     363a <memmove+0x30a>
    3447:	8d 4a 04             	lea    0x4(%edx),%ecx
    344a:	8b 5d e8             	mov    -0x18(%ebp),%ebx
    344d:	c1 eb 02             	shr    $0x2,%ebx
    3450:	39 c8                	cmp    %ecx,%eax
    3452:	0f 93 c1             	setae  %cl
    3455:	89 ce                	mov    %ecx,%esi
    3457:	8d 48 04             	lea    0x4(%eax),%ecx
    345a:	39 ca                	cmp    %ecx,%edx
    345c:	8d 3c 9d 00 00 00 00 	lea    0x0(,%ebx,4),%edi
    3463:	0f 93 c1             	setae  %cl
    3466:	09 ce                	or     %ecx,%esi
    3468:	83 7d e8 09          	cmpl   $0x9,-0x18(%ebp)
    346c:	0f 97 c1             	seta   %cl
    346f:	21 ce                	and    %ecx,%esi
    3471:	89 d1                	mov    %edx,%ecx
    3473:	09 c1                	or     %eax,%ecx
    3475:	83 e1 03             	and    $0x3,%ecx
    3478:	89 f1                	mov    %esi,%ecx
    347a:	0f 94 45 ec          	sete   -0x14(%ebp)
    347e:	84 4d ec             	test   %cl,-0x14(%ebp)
    3481:	0f 84 c1 01 00 00    	je     3648 <memmove+0x318>
    3487:	85 ff                	test   %edi,%edi
    3489:	0f 84 b9 01 00 00    	je     3648 <memmove+0x318>
    348f:	31 c9                	xor    %ecx,%ecx
    3491:	8d b4 26 00 00 00 00 	lea    0x0(%esi,%eiz,1),%esi
    3498:	8b 34 8a             	mov    (%edx,%ecx,4),%esi
    349b:	89 34 88             	mov    %esi,(%eax,%ecx,4)
    349e:	41                   	inc    %ecx
    349f:	39 cb                	cmp    %ecx,%ebx
    34a1:	77 f5                	ja     3498 <memmove+0x168>
    34a3:	8b 4d f0             	mov    -0x10(%ebp),%ecx
    34a6:	8d 1c 3a             	lea    (%edx,%edi,1),%ebx
    34a9:	29 f9                	sub    %edi,%ecx
    34ab:	8d 34 38             	lea    (%eax,%edi,1),%esi
    34ae:	89 4d f0             	mov    %ecx,-0x10(%ebp)
    34b1:	39 7d e8             	cmp    %edi,-0x18(%ebp)
    34b4:	74 18                	je     34ce <memmove+0x19e>
    34b6:	8b 7d f0             	mov    -0x10(%ebp),%edi
    34b9:	31 c9                	xor    %ecx,%ecx
    34bb:	47                   	inc    %edi
    34bc:	89 45 f0             	mov    %eax,-0x10(%ebp)
    34bf:	90                   	nop
    34c0:	8a 04 0b             	mov    (%ebx,%ecx,1),%al
    34c3:	88 04 0e             	mov    %al,(%esi,%ecx,1)
    34c6:	41                   	inc    %ecx
    34c7:	39 f9                	cmp    %edi,%ecx
    34c9:	75 f5                	jne    34c0 <memmove+0x190>
    34cb:	8b 45 f0             	mov    -0x10(%ebp),%eax
    34ce:	8b 4d e8             	mov    -0x18(%ebp),%ecx
    34d1:	8b 7d e8             	mov    -0x18(%ebp),%edi
    34d4:	01 c1                	add    %eax,%ecx
    34d6:	01 fa                	add    %edi,%edx
    34d8:	8b 5d 10             	mov    0x10(%ebp),%ebx
    34db:	2b 5d e8             	sub    -0x18(%ebp),%ebx
    34de:	0f 84 19 ff ff ff    	je     33fd <memmove+0xcd>
    34e4:	89 de                	mov    %ebx,%esi
    34e6:	c1 ee 02             	shr    $0x2,%esi
    34e9:	8d 3c b5 00 00 00 00 	lea    0x0(,%esi,4),%edi
    34f0:	29 fb                	sub    %edi,%ebx
    34f2:	85 f6                	test   %esi,%esi
    34f4:	89 5d ec             	mov    %ebx,-0x14(%ebp)
    34f7:	74 1c                	je     3515 <memmove+0x1e5>
    34f9:	31 db                	xor    %ebx,%ebx
    34fb:	89 45 f0             	mov    %eax,-0x10(%ebp)
    34fe:	66 90                	xchg   %ax,%ax
    3500:	8b 04 9a             	mov    (%edx,%ebx,4),%eax
    3503:	89 04 99             	mov    %eax,(%ecx,%ebx,4)
    3506:	43                   	inc    %ebx
    3507:	39 f3                	cmp    %esi,%ebx
    3509:	75 f5                	jne    3500 <memmove+0x1d0>
    350b:	8b 45 f0             	mov    -0x10(%ebp),%eax
    350e:	01 f9                	add    %edi,%ecx
    3510:	01 fa                	add    %edi,%edx
    3512:	8b 5d ec             	mov    -0x14(%ebp),%ebx
    3515:	4b                   	dec    %ebx
    3516:	8b 75 ec             	mov    -0x14(%ebp),%esi
    3519:	89 5d e8             	mov    %ebx,-0x18(%ebp)
    351c:	85 f6                	test   %esi,%esi
    351e:	0f 84 d9 fe ff ff    	je     33fd <memmove+0xcd>
    3524:	8d 59 04             	lea    0x4(%ecx),%ebx
    3527:	8b 75 ec             	mov    -0x14(%ebp),%esi
    352a:	c1 ee 02             	shr    $0x2,%esi
    352d:	39 da                	cmp    %ebx,%edx
    352f:	8d 5a 04             	lea    0x4(%edx),%ebx
    3532:	0f 93 45 f0          	setae  -0x10(%ebp)
    3536:	39 d9                	cmp    %ebx,%ecx
    3538:	8d 3c b5 00 00 00 00 	lea    0x0(,%esi,4),%edi
    353f:	0f 93 c3             	setae  %bl
    3542:	08 5d f0             	or     %bl,-0x10(%ebp)
    3545:	83 7d ec 09          	cmpl   $0x9,-0x14(%ebp)
    3549:	0f 97 c3             	seta   %bl
    354c:	20 5d f0             	and    %bl,-0x10(%ebp)
    354f:	89 cb                	mov    %ecx,%ebx
    3551:	09 d3                	or     %edx,%ebx
    3553:	83 e3 03             	and    $0x3,%ebx
    3556:	0f 94 c3             	sete   %bl
    3559:	84 5d f0             	test   %bl,-0x10(%ebp)
    355c:	74 2d                	je     358b <memmove+0x25b>
    355e:	85 ff                	test   %edi,%edi
    3560:	74 29                	je     358b <memmove+0x25b>
    3562:	31 db                	xor    %ebx,%ebx
    3564:	89 45 f0             	mov    %eax,-0x10(%ebp)
    3567:	90                   	nop
    3568:	8b 04 9a             	mov    (%edx,%ebx,4),%eax
    356b:	89 04 99             	mov    %eax,(%ecx,%ebx,4)
    356e:	43                   	inc    %ebx
    356f:	39 de                	cmp    %ebx,%esi
    3571:	77 f5                	ja     3568 <memmove+0x238>
    3573:	8b 5d e8             	mov    -0x18(%ebp),%ebx
    3576:	01 fa                	add    %edi,%edx
    3578:	29 fb                	sub    %edi,%ebx
    357a:	01 f9                	add    %edi,%ecx
    357c:	8b 45 f0             	mov    -0x10(%ebp),%eax
    357f:	89 5d e8             	mov    %ebx,-0x18(%ebp)
    3582:	39 7d ec             	cmp    %edi,-0x14(%ebp)
    3585:	0f 84 72 fe ff ff    	je     33fd <memmove+0xcd>
    358b:	8b 75 e8             	mov    -0x18(%ebp),%esi
    358e:	31 db                	xor    %ebx,%ebx
    3590:	46                   	inc    %esi
    3591:	89 c7                	mov    %eax,%edi
    3593:	90                   	nop
    3594:	8d 74 26 00          	lea    0x0(%esi,%eiz,1),%esi
    3598:	8a 04 1a             	mov    (%edx,%ebx,1),%al
    359b:	88 04 19             	mov    %al,(%ecx,%ebx,1)
    359e:	43                   	inc    %ebx
    359f:	39 f3                	cmp    %esi,%ebx
    35a1:	75 f5                	jne    3598 <memmove+0x268>
    35a3:	89 f8                	mov    %edi,%eax
    35a5:	e9 53 fe ff ff       	jmp    33fd <memmove+0xcd>
    35aa:	8d b6 00 00 00 00    	lea    0x0(%esi),%esi
    35b0:	8b 4d 10             	mov    0x10(%ebp),%ecx
    35b3:	8b 7d 10             	mov    0x10(%ebp),%edi
    35b6:	49                   	dec    %ecx
    35b7:	01 ca                	add    %ecx,%edx
    35b9:	85 ff                	test   %edi,%edi
    35bb:	8d 1c 08             	lea    (%eax,%ecx,1),%ebx
    35be:	0f 84 39 fe ff ff    	je     33fd <memmove+0xcd>
    35c4:	8b 75 10             	mov    0x10(%ebp),%esi
    35c7:	f7 de                	neg    %esi
    35c9:	01 f2                	add    %esi,%edx
    35cb:	01 f3                	add    %esi,%ebx
    35cd:	89 c6                	mov    %eax,%esi
    35cf:	90                   	nop
    35d0:	8a 44 0a 01          	mov    0x1(%edx,%ecx,1),%al
    35d4:	88 44 0b 01          	mov    %al,0x1(%ebx,%ecx,1)
    35d8:	49                   	dec    %ecx
    35d9:	83 f9 ff             	cmp    $0xffffffff,%ecx
    35dc:	75 f2                	jne    35d0 <memmove+0x2a0>
    35de:	83 c4 0c             	add    $0xc,%esp
    35e1:	89 f0                	mov    %esi,%eax
    35e3:	5b                   	pop    %ebx
    35e4:	5e                   	pop    %esi
    35e5:	5f                   	pop    %edi
    35e6:	5d                   	pop    %ebp
    35e7:	c3                   	ret    
    35e8:	89 4d e8             	mov    %ecx,-0x18(%ebp)
    35eb:	e9 45 fe ff ff       	jmp    3435 <memmove+0x105>
    35f0:	8b 75 10             	mov    0x10(%ebp),%esi
    35f3:	31 c9                	xor    %ecx,%ecx
    35f5:	c1 ee 02             	shr    $0x2,%esi
    35f8:	74 11                	je     360b <memmove+0x2db>
    35fa:	8d b6 00 00 00 00    	lea    0x0(%esi),%esi
    3600:	8b 1c 8a             	mov    (%edx,%ecx,4),%ebx
    3603:	89 1c 88             	mov    %ebx,(%eax,%ecx,4)
    3606:	41                   	inc    %ecx
    3607:	39 f1                	cmp    %esi,%ecx
    3609:	75 f5                	jne    3600 <memmove+0x2d0>
    360b:	8b 75 10             	mov    0x10(%ebp),%esi
    360e:	83 e6 03             	and    $0x3,%esi
    3611:	0f 84 e6 fd ff ff    	je     33fd <memmove+0xcd>
    3617:	c1 e1 02             	shl    $0x2,%ecx
    361a:	31 db                	xor    %ebx,%ebx
    361c:	01 ca                	add    %ecx,%edx
    361e:	89 c7                	mov    %eax,%edi
    3620:	01 c1                	add    %eax,%ecx
    3622:	8d b6 00 00 00 00    	lea    0x0(%esi),%esi
    3628:	8a 04 1a             	mov    (%edx,%ebx,1),%al
    362b:	88 04 19             	mov    %al,(%ecx,%ebx,1)
    362e:	43                   	inc    %ebx
    362f:	39 de                	cmp    %ebx,%esi
    3631:	77 f5                	ja     3628 <memmove+0x2f8>
    3633:	89 f8                	mov    %edi,%eax
    3635:	e9 c3 fd ff ff       	jmp    33fd <memmove+0xcd>
    363a:	89 c1                	mov    %eax,%ecx
    363c:	e9 97 fe ff ff       	jmp    34d8 <memmove+0x1a8>
    3641:	89 c1                	mov    %eax,%ecx
    3643:	e9 9a fd ff ff       	jmp    33e2 <memmove+0xb2>
    3648:	89 c6                	mov    %eax,%esi
    364a:	89 d3                	mov    %edx,%ebx
    364c:	e9 65 fe ff ff       	jmp    34b6 <memmove+0x186>
    3651:	eb 0d                	jmp    3660 <bcmp>
    3653:	90                   	nop
    3654:	90                   	nop
    3655:	90                   	nop
    3656:	90                   	nop
    3657:	90                   	nop
    3658:	90                   	nop
    3659:	90                   	nop
    365a:	90                   	nop
    365b:	90                   	nop
    365c:	90                   	nop
    365d:	90                   	nop
    365e:	90                   	nop
    365f:	90                   	nop

00003660 <bcmp>:
    3660:	55                   	push   %ebp
    3661:	89 e5                	mov    %esp,%ebp
    3663:	57                   	push   %edi
    3664:	56                   	push   %esi
    3665:	53                   	push   %ebx
    3666:	8b 45 10             	mov    0x10(%ebp),%eax
    3669:	8b 7d 08             	mov    0x8(%ebp),%edi
    366c:	8b 75 0c             	mov    0xc(%ebp),%esi
    366f:	85 c0                	test   %eax,%eax
    3671:	74 1d                	je     3690 <bcmp+0x30>
    3673:	8a 0e                	mov    (%esi),%cl
    3675:	31 d2                	xor    %edx,%edx
    3677:	38 0f                	cmp    %cl,(%edi)
    3679:	74 12                	je     368d <bcmp+0x2d>
    367b:	eb 15                	jmp    3692 <bcmp+0x32>
    367d:	8d 76 00             	lea    0x0(%esi),%esi
    3680:	8a 5c 17 01          	mov    0x1(%edi,%edx,1),%bl
    3684:	8a 4c 16 01          	mov    0x1(%esi,%edx,1),%cl
    3688:	42                   	inc    %edx
    3689:	38 cb                	cmp    %cl,%bl
    368b:	75 05                	jne    3692 <bcmp+0x32>
    368d:	48                   	dec    %eax
    368e:	75 f0                	jne    3680 <bcmp+0x20>
    3690:	31 c0                	xor    %eax,%eax
    3692:	5b                   	pop    %ebx
    3693:	5e                   	pop    %esi
    3694:	5f                   	pop    %edi
    3695:	5d                   	pop    %ebp
    3696:	c3                   	ret    
    3697:	66 90                	xchg   %ax,%ax
    3699:	66 90                	xchg   %ax,%ax
    369b:	66 90                	xchg   %ax,%ax
    369d:	66 90                	xchg   %ax,%ax
    369f:	90                   	nop

000036a0 <_strtoul>:
    36a0:	55                   	push   %ebp
    36a1:	89 e5                	mov    %esp,%ebp
    36a3:	57                   	push   %edi
    36a4:	56                   	push   %esi
    36a5:	53                   	push   %ebx
    36a6:	83 ec 08             	sub    $0x8,%esp
    36a9:	89 45 f0             	mov    %eax,-0x10(%ebp)
    36ac:	8a 00                	mov    (%eax),%al
    36ae:	89 55 ec             	mov    %edx,-0x14(%ebp)
    36b1:	0f be d0             	movsbl %al,%edx
    36b4:	83 ea 09             	sub    $0x9,%edx
    36b7:	8b 5d f0             	mov    -0x10(%ebp),%ebx
    36ba:	83 fa 17             	cmp    $0x17,%edx
    36bd:	77 23                	ja     36e2 <_strtoul+0x42>
    36bf:	8b 3c 95 a0 0f 02 00 	mov    0x20fa0(,%edx,4),%edi
    36c6:	85 ff                	test   %edi,%edi
    36c8:	0f 84 94 01 00 00    	je     3862 <_strtoul+0x1c2>
    36ce:	66 90                	xchg   %ax,%ax
    36d0:	43                   	inc    %ebx
    36d1:	8a 03                	mov    (%ebx),%al
    36d3:	0f be d0             	movsbl %al,%edx
    36d6:	83 ea 09             	sub    $0x9,%edx
    36d9:	83 fa 17             	cmp    $0x17,%edx
    36dc:	0f 86 a6 00 00 00    	jbe    3788 <_strtoul+0xe8>
    36e2:	3c 2d                	cmp    $0x2d,%al
    36e4:	0f 84 1e 01 00 00    	je     3808 <_strtoul+0x168>
    36ea:	3c 2b                	cmp    $0x2b,%al
    36ec:	0f 94 c0             	sete   %al
    36ef:	25 ff 00 00 00       	and    $0xff,%eax
    36f4:	01 c3                	add    %eax,%ebx
    36f6:	85 c9                	test   %ecx,%ecx
    36f8:	0f 84 a2 00 00 00    	je     37a0 <_strtoul+0x100>
    36fe:	83 f9 24             	cmp    $0x24,%ecx
    3701:	0f 8f 21 01 00 00    	jg     3828 <_strtoul+0x188>
    3707:	83 f9 01             	cmp    $0x1,%ecx
    370a:	0f 84 18 01 00 00    	je     3828 <_strtoul+0x188>
    3710:	8a 13                	mov    (%ebx),%dl
    3712:	83 f9 10             	cmp    $0x10,%ecx
    3715:	0f 84 16 01 00 00    	je     3831 <_strtoul+0x191>
    371b:	84 d2                	test   %dl,%dl
    371d:	0f 84 2c 01 00 00    	je     384f <_strtoul+0x1af>
    3723:	89 de                	mov    %ebx,%esi
    3725:	31 c0                	xor    %eax,%eax
    3727:	eb 4a                	jmp    3773 <_strtoul+0xd3>
    3729:	8d b4 26 00 00 00 00 	lea    0x0(%esi,%eiz,1),%esi
    3730:	83 ea 57             	sub    $0x57,%edx
    3733:	81 e2 ff 00 00 00    	and    $0xff,%edx
    3739:	39 d1                	cmp    %edx,%ecx
    373b:	0f 8e 94 00 00 00    	jle    37d5 <_strtoul+0x135>
    3741:	0f b6 f8             	movzbl %al,%edi
    3744:	0f af f9             	imul   %ecx,%edi
    3747:	c1 e8 08             	shr    $0x8,%eax
    374a:	01 fa                	add    %edi,%edx
    374c:	0f af c1             	imul   %ecx,%eax
    374f:	89 d7                	mov    %edx,%edi
    3751:	c1 ef 08             	shr    $0x8,%edi
    3754:	01 f8                	add    %edi,%eax
    3756:	3d ff ff ff 00       	cmp    $0xffffff,%eax
    375b:	0f 87 b7 00 00 00    	ja     3818 <_strtoul+0x178>
    3761:	46                   	inc    %esi
    3762:	81 e2 ff 00 00 00    	and    $0xff,%edx
    3768:	c1 e0 08             	shl    $0x8,%eax
    376b:	01 d0                	add    %edx,%eax
    376d:	8a 16                	mov    (%esi),%dl
    376f:	84 d2                	test   %dl,%dl
    3771:	74 62                	je     37d5 <_strtoul+0x135>
    3773:	80 fa 60             	cmp    $0x60,%dl
    3776:	77 b8                	ja     3730 <_strtoul+0x90>
    3778:	80 fa 40             	cmp    $0x40,%dl
    377b:	76 53                	jbe    37d0 <_strtoul+0x130>
    377d:	83 ea 37             	sub    $0x37,%edx
    3780:	eb b1                	jmp    3733 <_strtoul+0x93>
    3782:	8d b6 00 00 00 00    	lea    0x0(%esi),%esi
    3788:	8b 34 95 a0 0f 02 00 	mov    0x20fa0(,%edx,4),%esi
    378f:	85 f6                	test   %esi,%esi
    3791:	0f 85 39 ff ff ff    	jne    36d0 <_strtoul+0x30>
    3797:	e9 46 ff ff ff       	jmp    36e2 <_strtoul+0x42>
    379c:	8d 74 26 00          	lea    0x0(%esi,%eiz,1),%esi
    37a0:	8a 13                	mov    (%ebx),%dl
    37a2:	b9 0a 00 00 00       	mov    $0xa,%ecx
    37a7:	80 fa 30             	cmp    $0x30,%dl
    37aa:	0f 85 6b ff ff ff    	jne    371b <_strtoul+0x7b>
    37b0:	8a 43 01             	mov    0x1(%ebx),%al
    37b3:	83 e0 df             	and    $0xffffffdf,%eax
    37b6:	3c 58                	cmp    $0x58,%al
    37b8:	0f 85 98 00 00 00    	jne    3856 <_strtoul+0x1b6>
    37be:	8a 53 02             	mov    0x2(%ebx),%dl
    37c1:	b1 10                	mov    $0x10,%cl
    37c3:	83 c3 02             	add    $0x2,%ebx
    37c6:	e9 50 ff ff ff       	jmp    371b <_strtoul+0x7b>
    37cb:	90                   	nop
    37cc:	8d 74 26 00          	lea    0x0(%esi,%eiz,1),%esi
    37d0:	80 fa 39             	cmp    $0x39,%dl
    37d3:	76 2b                	jbe    3800 <_strtoul+0x160>
    37d5:	39 f3                	cmp    %esi,%ebx
    37d7:	74 76                	je     384f <_strtoul+0x1af>
    37d9:	8b 5d ec             	mov    -0x14(%ebp),%ebx
    37dc:	85 db                	test   %ebx,%ebx
    37de:	74 05                	je     37e5 <_strtoul+0x145>
    37e0:	8b 55 ec             	mov    -0x14(%ebp),%edx
    37e3:	89 32                	mov    %esi,(%edx)
    37e5:	39 75 f0             	cmp    %esi,-0x10(%ebp)
    37e8:	0f 95 c2             	setne  %dl
    37eb:	81 e2 ff 00 00 00    	and    $0xff,%edx
    37f1:	f7 da                	neg    %edx
    37f3:	21 d0                	and    %edx,%eax
    37f5:	5a                   	pop    %edx
    37f6:	59                   	pop    %ecx
    37f7:	5b                   	pop    %ebx
    37f8:	5e                   	pop    %esi
    37f9:	5f                   	pop    %edi
    37fa:	5d                   	pop    %ebp
    37fb:	c3                   	ret    
    37fc:	8d 74 26 00          	lea    0x0(%esi,%eiz,1),%esi
    3800:	83 ea 30             	sub    $0x30,%edx
    3803:	e9 2b ff ff ff       	jmp    3733 <_strtoul+0x93>
    3808:	8b 45 08             	mov    0x8(%ebp),%eax
    380b:	43                   	inc    %ebx
    380c:	c6 00 01             	movb   $0x1,(%eax)
    380f:	e9 e2 fe ff ff       	jmp    36f6 <_strtoul+0x56>
    3814:	8d 74 26 00          	lea    0x0(%esi,%eiz,1),%esi
    3818:	5a                   	pop    %edx
    3819:	83 c8 ff             	or     $0xffffffff,%eax
    381c:	59                   	pop    %ecx
    381d:	5b                   	pop    %ebx
    381e:	5e                   	pop    %esi
    381f:	5f                   	pop    %edi
    3820:	5d                   	pop    %ebp
    3821:	c3                   	ret    
    3822:	8d b6 00 00 00 00    	lea    0x0(%esi),%esi
    3828:	5a                   	pop    %edx
    3829:	31 c0                	xor    %eax,%eax
    382b:	59                   	pop    %ecx
    382c:	5b                   	pop    %ebx
    382d:	5e                   	pop    %esi
    382e:	5f                   	pop    %edi
    382f:	5d                   	pop    %ebp
    3830:	c3                   	ret    
    3831:	80 fa 30             	cmp    $0x30,%dl
    3834:	0f 85 e1 fe ff ff    	jne    371b <_strtoul+0x7b>
    383a:	8a 43 01             	mov    0x1(%ebx),%al
    383d:	83 e0 df             	and    $0xffffffdf,%eax
    3840:	3c 58                	cmp    $0x58,%al
    3842:	75 17                	jne    385b <_strtoul+0x1bb>
    3844:	8a 53 02             	mov    0x2(%ebx),%dl
    3847:	83 c3 02             	add    $0x2,%ebx
    384a:	e9 cc fe ff ff       	jmp    371b <_strtoul+0x7b>
    384f:	8b 75 f0             	mov    -0x10(%ebp),%esi
    3852:	31 c0                	xor    %eax,%eax
    3854:	eb 83                	jmp    37d9 <_strtoul+0x139>
    3856:	b9 08 00 00 00       	mov    $0x8,%ecx
    385b:	b2 30                	mov    $0x30,%dl
    385d:	e9 c1 fe ff ff       	jmp    3723 <_strtoul+0x83>
    3862:	8b 5d f0             	mov    -0x10(%ebp),%ebx
    3865:	e9 78 fe ff ff       	jmp    36e2 <_strtoul+0x42>
    386a:	8d b6 00 00 00 00    	lea    0x0(%esi),%esi

00003870 <str_uint>:
    3870:	55                   	push   %ebp
    3871:	89 e5                	mov    %esp,%ebp
    3873:	57                   	push   %edi
    3874:	56                   	push   %esi
    3875:	53                   	push   %ebx
    3876:	83 ec 3c             	sub    $0x3c,%esp
    3879:	89 45 dc             	mov    %eax,-0x24(%ebp)
    387c:	89 55 d8             	mov    %edx,-0x28(%ebp)
    387f:	8b 75 08             	mov    0x8(%ebp),%esi
    3882:	85 d2                	test   %edx,%edx
    3884:	0f 84 5f 02 00 00    	je     3ae9 <str_uint+0x279>
    388a:	85 f6                	test   %esi,%esi
    388c:	0f 84 3b 02 00 00    	je     3acd <str_uint+0x25d>
    3892:	8b 45 0c             	mov    0xc(%ebp),%eax
    3895:	85 c0                	test   %eax,%eax
    3897:	0f 84 14 02 00 00    	je     3ab1 <str_uint+0x241>
    389d:	8b 45 dc             	mov    -0x24(%ebp),%eax
    38a0:	c6 06 00             	movb   $0x0,(%esi)
    38a3:	8b 5d dc             	mov    -0x24(%ebp),%ebx
    38a6:	8a 10                	mov    (%eax),%dl
    38a8:	0f be c2             	movsbl %dl,%eax
    38ab:	83 e8 09             	sub    $0x9,%eax
    38ae:	83 f8 17             	cmp    $0x17,%eax
    38b1:	77 27                	ja     38da <str_uint+0x6a>
    38b3:	8b 04 85 a0 0f 02 00 	mov    0x20fa0(,%eax,4),%eax
    38ba:	85 c0                	test   %eax,%eax
    38bc:	0f 84 e7 01 00 00    	je     3aa9 <str_uint+0x239>
    38c2:	8d b6 00 00 00 00    	lea    0x0(%esi),%esi
    38c8:	43                   	inc    %ebx
    38c9:	8a 13                	mov    (%ebx),%dl
    38cb:	0f be c2             	movsbl %dl,%eax
    38ce:	83 e8 09             	sub    $0x9,%eax
    38d1:	83 f8 17             	cmp    $0x17,%eax
    38d4:	0f 86 06 01 00 00    	jbe    39e0 <str_uint+0x170>
    38da:	80 fa 2d             	cmp    $0x2d,%dl
    38dd:	0f 84 4d 01 00 00    	je     3a30 <str_uint+0x1c0>
    38e3:	80 fa 2b             	cmp    $0x2b,%dl
    38e6:	0f 94 c0             	sete   %al
    38e9:	25 ff 00 00 00       	and    $0xff,%eax
    38ee:	01 c3                	add    %eax,%ebx
    38f0:	85 c9                	test   %ecx,%ecx
    38f2:	0f 85 18 01 00 00    	jne    3a10 <str_uint+0x1a0>
    38f8:	b1 0a                	mov    $0xa,%cl
    38fa:	80 3b 30             	cmpb   $0x30,(%ebx)
    38fd:	0f 84 3d 01 00 00    	je     3a40 <str_uint+0x1d0>
    3903:	8b 45 0c             	mov    0xc(%ebp),%eax
    3906:	c7 00 00 00 00 00    	movl   $0x0,(%eax)
    390c:	c7 40 04 00 00 00 00 	movl   $0x0,0x4(%eax)
    3913:	8a 03                	mov    (%ebx),%al
    3915:	84 c0                	test   %al,%al
    3917:	0f 84 37 01 00 00    	je     3a54 <str_uint+0x1e4>
    391d:	8d 50 9f             	lea    -0x61(%eax),%edx
    3920:	c7 45 e0 00 00 00 00 	movl   $0x0,-0x20(%ebp)
    3927:	c7 45 e4 00 00 00 00 	movl   $0x0,-0x1c(%ebp)
    392e:	89 5d d4             	mov    %ebx,-0x2c(%ebp)
    3931:	80 fa 19             	cmp    $0x19,%dl
    3934:	77 64                	ja     399a <str_uint+0x12a>
    3936:	66 90                	xchg   %ax,%ax
    3938:	0f be f0             	movsbl %al,%esi
    393b:	83 ee 57             	sub    $0x57,%esi
    393e:	39 f1                	cmp    %esi,%ecx
    3940:	76 6e                	jbe    39b0 <str_uint+0x140>
    3942:	8b 45 e0             	mov    -0x20(%ebp),%eax
    3945:	8b 7d e4             	mov    -0x1c(%ebp),%edi
    3948:	f7 e1                	mul    %ecx
    394a:	0f af f9             	imul   %ecx,%edi
    394d:	89 45 c8             	mov    %eax,-0x38(%ebp)
    3950:	01 fa                	add    %edi,%edx
    3952:	31 ff                	xor    %edi,%edi
    3954:	03 75 c8             	add    -0x38(%ebp),%esi
    3957:	89 55 cc             	mov    %edx,-0x34(%ebp)
    395a:	8b 55 0c             	mov    0xc(%ebp),%edx
    395d:	13 7d cc             	adc    -0x34(%ebp),%edi
    3960:	89 32                	mov    %esi,(%edx)
    3962:	89 7a 04             	mov    %edi,0x4(%edx)
    3965:	3b 7d e4             	cmp    -0x1c(%ebp),%edi
    3968:	77 1b                	ja     3985 <str_uint+0x115>
    396a:	73 14                	jae    3980 <str_uint+0x110>
    396c:	8b 45 d8             	mov    -0x28(%ebp),%eax
    396f:	89 18                	mov    %ebx,(%eax)
    3971:	b8 f0 ff ff ff       	mov    $0xfffffff0,%eax
    3976:	83 c4 3c             	add    $0x3c,%esp
    3979:	5b                   	pop    %ebx
    397a:	5e                   	pop    %esi
    397b:	5f                   	pop    %edi
    397c:	5d                   	pop    %ebp
    397d:	c3                   	ret    
    397e:	66 90                	xchg   %ax,%ax
    3980:	3b 75 e0             	cmp    -0x20(%ebp),%esi
    3983:	72 e7                	jb     396c <str_uint+0xfc>
    3985:	43                   	inc    %ebx
    3986:	8a 03                	mov    (%ebx),%al
    3988:	84 c0                	test   %al,%al
    398a:	74 24                	je     39b0 <str_uint+0x140>
    398c:	8d 50 9f             	lea    -0x61(%eax),%edx
    398f:	89 75 e0             	mov    %esi,-0x20(%ebp)
    3992:	89 7d e4             	mov    %edi,-0x1c(%ebp)
    3995:	80 fa 19             	cmp    $0x19,%dl
    3998:	76 9e                	jbe    3938 <str_uint+0xc8>
    399a:	8d 50 bf             	lea    -0x41(%eax),%edx
    399d:	80 fa 19             	cmp    $0x19,%dl
    39a0:	77 56                	ja     39f8 <str_uint+0x188>
    39a2:	0f be f0             	movsbl %al,%esi
    39a5:	83 ee 37             	sub    $0x37,%esi
    39a8:	39 f1                	cmp    %esi,%ecx
    39aa:	77 96                	ja     3942 <str_uint+0xd2>
    39ac:	8d 74 26 00          	lea    0x0(%esi,%eiz,1),%esi
    39b0:	89 da                	mov    %ebx,%edx
    39b2:	8b 5d d4             	mov    -0x2c(%ebp),%ebx
    39b5:	39 d3                	cmp    %edx,%ebx
    39b7:	0f 84 97 00 00 00    	je     3a54 <str_uint+0x1e4>
    39bd:	8b 45 d8             	mov    -0x28(%ebp),%eax
    39c0:	39 55 dc             	cmp    %edx,-0x24(%ebp)
    39c3:	89 10                	mov    %edx,(%eax)
    39c5:	0f 95 c0             	setne  %al
    39c8:	25 ff 00 00 00       	and    $0xff,%eax
    39cd:	83 c4 3c             	add    $0x3c,%esp
    39d0:	48                   	dec    %eax
    39d1:	5b                   	pop    %ebx
    39d2:	83 e0 f2             	and    $0xfffffff2,%eax
    39d5:	5e                   	pop    %esi
    39d6:	5f                   	pop    %edi
    39d7:	5d                   	pop    %ebp
    39d8:	c3                   	ret    
    39d9:	8d b4 26 00 00 00 00 	lea    0x0(%esi,%eiz,1),%esi
    39e0:	8b 3c 85 a0 0f 02 00 	mov    0x20fa0(,%eax,4),%edi
    39e7:	85 ff                	test   %edi,%edi
    39e9:	0f 85 d9 fe ff ff    	jne    38c8 <str_uint+0x58>
    39ef:	e9 e6 fe ff ff       	jmp    38da <str_uint+0x6a>
    39f4:	8d 74 26 00          	lea    0x0(%esi,%eiz,1),%esi
    39f8:	8d 50 d0             	lea    -0x30(%eax),%edx
    39fb:	80 fa 09             	cmp    $0x9,%dl
    39fe:	77 b0                	ja     39b0 <str_uint+0x140>
    3a00:	0f be f0             	movsbl %al,%esi
    3a03:	83 ee 30             	sub    $0x30,%esi
    3a06:	e9 33 ff ff ff       	jmp    393e <str_uint+0xce>
    3a0b:	90                   	nop
    3a0c:	8d 74 26 00          	lea    0x0(%esi,%eiz,1),%esi
    3a10:	8d 41 fe             	lea    -0x2(%ecx),%eax
    3a13:	83 f8 22             	cmp    $0x22,%eax
    3a16:	0f 86 e7 fe ff ff    	jbe    3903 <str_uint+0x93>
    3a1c:	8b 55 d8             	mov    -0x28(%ebp),%edx
    3a1f:	b8 f2 ff ff ff       	mov    $0xfffffff2,%eax
    3a24:	89 1a                	mov    %ebx,(%edx)
    3a26:	e9 4b ff ff ff       	jmp    3976 <str_uint+0x106>
    3a2b:	90                   	nop
    3a2c:	8d 74 26 00          	lea    0x0(%esi,%eiz,1),%esi
    3a30:	c6 06 01             	movb   $0x1,(%esi)
    3a33:	43                   	inc    %ebx
    3a34:	e9 b7 fe ff ff       	jmp    38f0 <str_uint+0x80>
    3a39:	8d b4 26 00 00 00 00 	lea    0x0(%esi,%eiz,1),%esi
    3a40:	8a 43 01             	mov    0x1(%ebx),%al
    3a43:	83 e8 42             	sub    $0x42,%eax
    3a46:	3c 36                	cmp    $0x36,%al
    3a48:	76 1f                	jbe    3a69 <str_uint+0x1f9>
    3a4a:	b9 08 00 00 00       	mov    $0x8,%ecx
    3a4f:	e9 af fe ff ff       	jmp    3903 <str_uint+0x93>
    3a54:	8b 55 d8             	mov    -0x28(%ebp),%edx
    3a57:	8b 45 dc             	mov    -0x24(%ebp),%eax
    3a5a:	89 02                	mov    %eax,(%edx)
    3a5c:	83 c4 3c             	add    $0x3c,%esp
    3a5f:	b8 f2 ff ff ff       	mov    $0xfffffff2,%eax
    3a64:	5b                   	pop    %ebx
    3a65:	5e                   	pop    %esi
    3a66:	5f                   	pop    %edi
    3a67:	5d                   	pop    %ebp
    3a68:	c3                   	ret    
    3a69:	25 ff 00 00 00       	and    $0xff,%eax
    3a6e:	ff 24 85 c0 0e 02 00 	jmp    *0x20ec0(,%eax,4)
    3a75:	83 c3 02             	add    $0x2,%ebx
    3a78:	b9 10 00 00 00       	mov    $0x10,%ecx
    3a7d:	e9 81 fe ff ff       	jmp    3903 <str_uint+0x93>
    3a82:	83 c3 02             	add    $0x2,%ebx
    3a85:	b9 08 00 00 00       	mov    $0x8,%ecx
    3a8a:	e9 74 fe ff ff       	jmp    3903 <str_uint+0x93>
    3a8f:	83 c3 02             	add    $0x2,%ebx
    3a92:	b9 0a 00 00 00       	mov    $0xa,%ecx
    3a97:	e9 67 fe ff ff       	jmp    3903 <str_uint+0x93>
    3a9c:	83 c3 02             	add    $0x2,%ebx
    3a9f:	b9 02 00 00 00       	mov    $0x2,%ecx
    3aa4:	e9 5a fe ff ff       	jmp    3903 <str_uint+0x93>
    3aa9:	8b 5d dc             	mov    -0x24(%ebp),%ebx
    3aac:	e9 29 fe ff ff       	jmp    38da <str_uint+0x6a>
    3ab1:	c7 44 24 08 82 05 00 	movl   $0x582,0x8(%esp)
    3ab8:	00 
    3ab9:	c7 44 24 04 4d 0e 02 	movl   $0x20e4d,0x4(%esp)
    3ac0:	00 
    3ac1:	c7 04 24 76 0e 02 00 	movl   $0x20e76,(%esp)
    3ac8:	e8 e3 67 01 00       	call   1a2b0 <assert_abort>
    3acd:	c7 44 24 08 81 05 00 	movl   $0x581,0x8(%esp)
    3ad4:	00 
    3ad5:	c7 44 24 04 4d 0e 02 	movl   $0x20e4d,0x4(%esp)
    3adc:	00 
    3add:	c7 04 24 6a 0e 02 00 	movl   $0x20e6a,(%esp)
    3ae4:	e8 c7 67 01 00       	call   1a2b0 <assert_abort>
    3ae9:	c7 44 24 08 80 05 00 	movl   $0x580,0x8(%esp)
    3af0:	00 
    3af1:	c7 44 24 04 4d 0e 02 	movl   $0x20e4d,0x4(%esp)
    3af8:	00 
    3af9:	c7 04 24 5b 0e 02 00 	movl   $0x20e5b,(%esp)
    3b00:	e8 ab 67 01 00       	call   1a2b0 <assert_abort>
    3b05:	8d 74 26 00          	lea    0x0(%esi,%eiz,1),%esi
    3b09:	8d bc 27 00 00 00 00 	lea    0x0(%edi,%eiz,1),%edi

00003b10 <str_decode>:
    3b10:	55                   	push   %ebp
    3b11:	89 e5                	mov    %esp,%ebp
    3b13:	57                   	push   %edi
    3b14:	56                   	push   %esi
    3b15:	53                   	push   %ebx
    3b16:	83 ec 0c             	sub    $0xc,%esp
    3b19:	8b 45 0c             	mov    0xc(%ebp),%eax
    3b1c:	8b 7d 08             	mov    0x8(%ebp),%edi
    3b1f:	8b 10                	mov    (%eax),%edx
    3b21:	31 c0                	xor    %eax,%eax
    3b23:	8d 4a 01             	lea    0x1(%edx),%ecx
    3b26:	3b 4d 10             	cmp    0x10(%ebp),%ecx
    3b29:	77 0d                	ja     3b38 <str_decode+0x28>
    3b2b:	0f be 04 17          	movsbl (%edi,%edx,1),%eax
    3b2f:	8b 5d 0c             	mov    0xc(%ebp),%ebx
    3b32:	84 c0                	test   %al,%al
    3b34:	89 0b                	mov    %ecx,(%ebx)
    3b36:	78 08                	js     3b40 <str_decode+0x30>
    3b38:	83 c4 0c             	add    $0xc,%esp
    3b3b:	5b                   	pop    %ebx
    3b3c:	5e                   	pop    %esi
    3b3d:	5f                   	pop    %edi
    3b3e:	5d                   	pop    %ebp
    3b3f:	c3                   	ret    
    3b40:	be e0 ff ff ff       	mov    $0xffffffe0,%esi
    3b45:	21 c6                	and    %eax,%esi
    3b47:	89 f3                	mov    %esi,%ebx
    3b49:	80 fb c0             	cmp    $0xc0,%bl
    3b4c:	74 32                	je     3b80 <str_decode+0x70>
    3b4e:	be f0 ff ff ff       	mov    $0xfffffff0,%esi
    3b53:	21 c6                	and    %eax,%esi
    3b55:	89 f3                	mov    %esi,%ebx
    3b57:	80 fb e0             	cmp    $0xe0,%bl
    3b5a:	0f 84 90 00 00 00    	je     3bf0 <str_decode+0xe0>
    3b60:	be f8 ff ff ff       	mov    $0xfffffff8,%esi
    3b65:	21 c6                	and    %eax,%esi
    3b67:	89 f3                	mov    %esi,%ebx
    3b69:	80 fb f0             	cmp    $0xf0,%bl
    3b6c:	0f 84 87 00 00 00    	je     3bf9 <str_decode+0xe9>
    3b72:	83 c4 0c             	add    $0xc,%esp
    3b75:	b8 3f 00 00 00       	mov    $0x3f,%eax
    3b7a:	5b                   	pop    %ebx
    3b7b:	5e                   	pop    %esi
    3b7c:	5f                   	pop    %edi
    3b7d:	5d                   	pop    %ebp
    3b7e:	c3                   	ret    
    3b7f:	90                   	nop
    3b80:	b3 1f                	mov    $0x1f,%bl
    3b82:	be 01 00 00 00       	mov    $0x1,%esi
    3b87:	01 f1                	add    %esi,%ecx
    3b89:	89 4d f0             	mov    %ecx,-0x10(%ebp)
    3b8c:	39 4d 10             	cmp    %ecx,0x10(%ebp)
    3b8f:	72 e1                	jb     3b72 <str_decode+0x62>
    3b91:	21 d8                	and    %ebx,%eax
    3b93:	8a 4c 17 01          	mov    0x1(%edi,%edx,1),%cl
    3b97:	8b 5d 0c             	mov    0xc(%ebp),%ebx
    3b9a:	be c0 ff ff ff       	mov    $0xffffffc0,%esi
    3b9f:	83 c2 02             	add    $0x2,%edx
    3ba2:	21 ce                	and    %ecx,%esi
    3ba4:	89 13                	mov    %edx,(%ebx)
    3ba6:	89 f3                	mov    %esi,%ebx
    3ba8:	25 ff 00 00 00       	and    $0xff,%eax
    3bad:	80 fb 80             	cmp    $0x80,%bl
    3bb0:	75 c0                	jne    3b72 <str_decode+0x62>
    3bb2:	8b 5d 0c             	mov    0xc(%ebp),%ebx
    3bb5:	89 5d e8             	mov    %ebx,-0x18(%ebp)
    3bb8:	eb 1d                	jmp    3bd7 <str_decode+0xc7>
    3bba:	8d b6 00 00 00 00    	lea    0x0(%esi),%esi
    3bc0:	8a 0c 17             	mov    (%edi,%edx,1),%cl
    3bc3:	8b 5d e8             	mov    -0x18(%ebp),%ebx
    3bc6:	be c0 ff ff ff       	mov    $0xffffffc0,%esi
    3bcb:	42                   	inc    %edx
    3bcc:	21 ce                	and    %ecx,%esi
    3bce:	89 13                	mov    %edx,(%ebx)
    3bd0:	89 f3                	mov    %esi,%ebx
    3bd2:	80 fb 80             	cmp    $0x80,%bl
    3bd5:	75 9b                	jne    3b72 <str_decode+0x62>
    3bd7:	89 c6                	mov    %eax,%esi
    3bd9:	89 c8                	mov    %ecx,%eax
    3bdb:	c1 e6 06             	shl    $0x6,%esi
    3bde:	83 e0 3f             	and    $0x3f,%eax
    3be1:	09 f0                	or     %esi,%eax
    3be3:	39 55 f0             	cmp    %edx,-0x10(%ebp)
    3be6:	75 d8                	jne    3bc0 <str_decode+0xb0>
    3be8:	e9 4b ff ff ff       	jmp    3b38 <str_decode+0x28>
    3bed:	8d 76 00             	lea    0x0(%esi),%esi
    3bf0:	b3 0f                	mov    $0xf,%bl
    3bf2:	be 02 00 00 00       	mov    $0x2,%esi
    3bf7:	eb 8e                	jmp    3b87 <str_decode+0x77>
    3bf9:	b3 07                	mov    $0x7,%bl
    3bfb:	be 03 00 00 00       	mov    $0x3,%esi
    3c00:	eb 85                	jmp    3b87 <str_decode+0x77>
    3c02:	8d b4 26 00 00 00 00 	lea    0x0(%esi,%eiz,1),%esi
    3c09:	8d bc 27 00 00 00 00 	lea    0x0(%edi,%eiz,1),%edi

00003c10 <str_decode_reverse>:
    3c10:	55                   	push   %ebp
    3c11:	89 e5                	mov    %esp,%ebp
    3c13:	57                   	push   %edi
    3c14:	56                   	push   %esi
    3c15:	53                   	push   %ebx
    3c16:	50                   	push   %eax
    3c17:	31 c0                	xor    %eax,%eax
    3c19:	8b 7d 0c             	mov    0xc(%ebp),%edi
    3c1c:	8b 1f                	mov    (%edi),%ebx
    3c1e:	85 db                	test   %ebx,%ebx
    3c20:	0f 84 24 01 00 00    	je     3d4a <str_decode_reverse+0x13a>
    3c26:	8d 73 ff             	lea    -0x1(%ebx),%esi
    3c29:	8b 55 08             	mov    0x8(%ebp),%edx
    3c2c:	89 37                	mov    %esi,(%edi)
    3c2e:	8a 14 32             	mov    (%edx,%esi,1),%dl
    3c31:	88 55 f1             	mov    %dl,-0xf(%ebp)
    3c34:	84 d2                	test   %dl,%dl
    3c36:	0f 89 c4 01 00 00    	jns    3e00 <str_decode_reverse+0x1f0>
    3c3c:	88 d1                	mov    %dl,%cl
    3c3e:	83 e1 e0             	and    $0xffffffe0,%ecx
    3c41:	88 4d f2             	mov    %cl,-0xe(%ebp)
    3c44:	80 f9 c0             	cmp    $0xc0,%cl
    3c47:	0f 84 d8 01 00 00    	je     3e25 <str_decode_reverse+0x215>
    3c4d:	88 d1                	mov    %dl,%cl
    3c4f:	83 e1 f0             	and    $0xfffffff0,%ecx
    3c52:	80 f9 e0             	cmp    $0xe0,%cl
    3c55:	0f 84 f1 01 00 00    	je     3e4c <str_decode_reverse+0x23c>
    3c5b:	88 d0                	mov    %dl,%al
    3c5d:	83 e0 f8             	and    $0xfffffff8,%eax
    3c60:	3c f0                	cmp    $0xf0,%al
    3c62:	0f 84 ee 00 00 00    	je     3d56 <str_decode_reverse+0x146>
    3c68:	88 d1                	mov    %dl,%cl
    3c6a:	83 e1 c0             	and    $0xffffffc0,%ecx
    3c6d:	80 f9 80             	cmp    $0x80,%cl
    3c70:	0f 85 cf 00 00 00    	jne    3d45 <str_decode_reverse+0x135>
    3c76:	85 f6                	test   %esi,%esi
    3c78:	0f 84 c7 00 00 00    	je     3d45 <str_decode_reverse+0x135>
    3c7e:	8d 43 fe             	lea    -0x2(%ebx),%eax
    3c81:	8b 4d 08             	mov    0x8(%ebp),%ecx
    3c84:	89 07                	mov    %eax,(%edi)
    3c86:	8a 14 01             	mov    (%ecx,%eax,1),%dl
    3c89:	88 d1                	mov    %dl,%cl
    3c8b:	88 55 f1             	mov    %dl,-0xf(%ebp)
    3c8e:	83 e1 e0             	and    $0xffffffe0,%ecx
    3c91:	88 4d f2             	mov    %cl,-0xe(%ebp)
    3c94:	80 f9 c0             	cmp    $0xc0,%cl
    3c97:	0f 84 b3 00 00 00    	je     3d50 <str_decode_reverse+0x140>
    3c9d:	88 d1                	mov    %dl,%cl
    3c9f:	83 e1 f0             	and    $0xfffffff0,%ecx
    3ca2:	80 f9 e0             	cmp    $0xe0,%cl
    3ca5:	0f 84 65 01 00 00    	je     3e10 <str_decode_reverse+0x200>
    3cab:	88 d1                	mov    %dl,%cl
    3cad:	83 e1 f8             	and    $0xfffffff8,%ecx
    3cb0:	80 f9 f0             	cmp    $0xf0,%cl
    3cb3:	0f 84 57 01 00 00    	je     3e10 <str_decode_reverse+0x200>
    3cb9:	83 e2 c0             	and    $0xffffffc0,%edx
    3cbc:	80 fa 80             	cmp    $0x80,%dl
    3cbf:	0f 85 80 00 00 00    	jne    3d45 <str_decode_reverse+0x135>
    3cc5:	85 c0                	test   %eax,%eax
    3cc7:	74 7c                	je     3d45 <str_decode_reverse+0x135>
    3cc9:	8d 73 fd             	lea    -0x3(%ebx),%esi
    3ccc:	8b 4d 08             	mov    0x8(%ebp),%ecx
    3ccf:	89 37                	mov    %esi,(%edi)
    3cd1:	8a 14 31             	mov    (%ecx,%esi,1),%dl
    3cd4:	88 d1                	mov    %dl,%cl
    3cd6:	88 55 f1             	mov    %dl,-0xf(%ebp)
    3cd9:	83 e1 e0             	and    $0xffffffe0,%ecx
    3cdc:	88 4d f2             	mov    %cl,-0xe(%ebp)
    3cdf:	80 f9 c0             	cmp    $0xc0,%cl
    3ce2:	0f 84 36 01 00 00    	je     3e1e <str_decode_reverse+0x20e>
    3ce8:	88 d1                	mov    %dl,%cl
    3cea:	83 e1 f0             	and    $0xfffffff0,%ecx
    3ced:	80 f9 e0             	cmp    $0xe0,%cl
    3cf0:	0f 84 21 01 00 00    	je     3e17 <str_decode_reverse+0x207>
    3cf6:	88 d1                	mov    %dl,%cl
    3cf8:	83 e1 f8             	and    $0xfffffff8,%ecx
    3cfb:	80 f9 f0             	cmp    $0xf0,%cl
    3cfe:	0f 84 13 01 00 00    	je     3e17 <str_decode_reverse+0x207>
    3d04:	83 e2 c0             	and    $0xffffffc0,%edx
    3d07:	80 fa 80             	cmp    $0x80,%dl
    3d0a:	75 39                	jne    3d45 <str_decode_reverse+0x135>
    3d0c:	85 f6                	test   %esi,%esi
    3d0e:	74 35                	je     3d45 <str_decode_reverse+0x135>
    3d10:	83 eb 04             	sub    $0x4,%ebx
    3d13:	8b 45 08             	mov    0x8(%ebp),%eax
    3d16:	89 1f                	mov    %ebx,(%edi)
    3d18:	8a 14 18             	mov    (%eax,%ebx,1),%dl
    3d1b:	88 d1                	mov    %dl,%cl
    3d1d:	88 55 f1             	mov    %dl,-0xf(%ebp)
    3d20:	83 e1 e0             	and    $0xffffffe0,%ecx
    3d23:	88 4d f2             	mov    %cl,-0xe(%ebp)
    3d26:	80 f9 c0             	cmp    $0xc0,%cl
    3d29:	74 25                	je     3d50 <str_decode_reverse+0x140>
    3d2b:	88 d0                	mov    %dl,%al
    3d2d:	83 e0 f0             	and    $0xfffffff0,%eax
    3d30:	3c e0                	cmp    $0xe0,%al
    3d32:	0f 84 d8 00 00 00    	je     3e10 <str_decode_reverse+0x200>
    3d38:	88 d0                	mov    %dl,%al
    3d3a:	83 e0 f8             	and    $0xfffffff8,%eax
    3d3d:	3c f0                	cmp    $0xf0,%al
    3d3f:	0f 84 cb 00 00 00    	je     3e10 <str_decode_reverse+0x200>
    3d45:	b8 3f 00 00 00       	mov    $0x3f,%eax
    3d4a:	5a                   	pop    %edx
    3d4b:	5b                   	pop    %ebx
    3d4c:	5e                   	pop    %esi
    3d4d:	5f                   	pop    %edi
    3d4e:	5d                   	pop    %ebp
    3d4f:	c3                   	ret    
    3d50:	89 f3                	mov    %esi,%ebx
    3d52:	c6 45 f2 c0          	movb   $0xc0,-0xe(%ebp)
    3d56:	31 c0                	xor    %eax,%eax
    3d58:	39 5d 10             	cmp    %ebx,0x10(%ebp)
    3d5b:	72 ed                	jb     3d4a <str_decode_reverse+0x13a>
    3d5d:	84 d2                	test   %dl,%dl
    3d5f:	78 69                	js     3dca <str_decode_reverse+0x1ba>
    3d61:	bf 7f 00 00 00       	mov    $0x7f,%edi
    3d66:	31 d2                	xor    %edx,%edx
    3d68:	8d 34 1a             	lea    (%edx,%ebx,1),%esi
    3d6b:	b8 3f 00 00 00       	mov    $0x3f,%eax
    3d70:	39 75 10             	cmp    %esi,0x10(%ebp)
    3d73:	72 d5                	jb     3d4a <str_decode_reverse+0x13a>
    3d75:	8a 4d f1             	mov    -0xf(%ebp),%cl
    3d78:	31 c0                	xor    %eax,%eax
    3d7a:	21 f9                	and    %edi,%ecx
    3d7c:	85 d2                	test   %edx,%edx
    3d7e:	88 c8                	mov    %cl,%al
    3d80:	74 c8                	je     3d4a <str_decode_reverse+0x13a>
    3d82:	8b 4d 08             	mov    0x8(%ebp),%ecx
    3d85:	8d 73 01             	lea    0x1(%ebx),%esi
    3d88:	8a 0c 19             	mov    (%ecx,%ebx,1),%cl
    3d8b:	88 4d f3             	mov    %cl,-0xd(%ebp)
    3d8e:	83 e1 c0             	and    $0xffffffc0,%ecx
    3d91:	80 f9 80             	cmp    $0x80,%cl
    3d94:	75 af                	jne    3d45 <str_decode_reverse+0x135>
    3d96:	8b 7d 08             	mov    0x8(%ebp),%edi
    3d99:	8b 4d 08             	mov    0x8(%ebp),%ecx
    3d9c:	01 fb                	add    %edi,%ebx
    3d9e:	01 ce                	add    %ecx,%esi
    3da0:	01 da                	add    %ebx,%edx
    3da2:	8a 4d f3             	mov    -0xd(%ebp),%cl
    3da5:	eb 0e                	jmp    3db5 <str_decode_reverse+0x1a5>
    3da7:	90                   	nop
    3da8:	8a 0e                	mov    (%esi),%cl
    3daa:	46                   	inc    %esi
    3dab:	88 cb                	mov    %cl,%bl
    3dad:	83 e3 c0             	and    $0xffffffc0,%ebx
    3db0:	80 fb 80             	cmp    $0x80,%bl
    3db3:	75 90                	jne    3d45 <str_decode_reverse+0x135>
    3db5:	89 c3                	mov    %eax,%ebx
    3db7:	89 c8                	mov    %ecx,%eax
    3db9:	c1 e3 06             	shl    $0x6,%ebx
    3dbc:	83 e0 3f             	and    $0x3f,%eax
    3dbf:	09 d8                	or     %ebx,%eax
    3dc1:	39 d6                	cmp    %edx,%esi
    3dc3:	75 e3                	jne    3da8 <str_decode_reverse+0x198>
    3dc5:	e9 80 ff ff ff       	jmp    3d4a <str_decode_reverse+0x13a>
    3dca:	80 7d f2 c0          	cmpb   $0xc0,-0xe(%ebp)
    3dce:	74 5e                	je     3e2e <str_decode_reverse+0x21e>
    3dd0:	8a 45 f1             	mov    -0xf(%ebp),%al
    3dd3:	83 e0 f0             	and    $0xfffffff0,%eax
    3dd6:	3c e0                	cmp    $0xe0,%al
    3dd8:	74 63                	je     3e3d <str_decode_reverse+0x22d>
    3dda:	8a 55 f1             	mov    -0xf(%ebp),%dl
    3ddd:	b8 3f 00 00 00       	mov    $0x3f,%eax
    3de2:	83 e2 f8             	and    $0xfffffff8,%edx
    3de5:	80 fa f0             	cmp    $0xf0,%dl
    3de8:	0f 85 5c ff ff ff    	jne    3d4a <str_decode_reverse+0x13a>
    3dee:	bf 07 00 00 00       	mov    $0x7,%edi
    3df3:	ba 03 00 00 00       	mov    $0x3,%edx
    3df8:	e9 6b ff ff ff       	jmp    3d68 <str_decode_reverse+0x158>
    3dfd:	8d 76 00             	lea    0x0(%esi),%esi
    3e00:	0f be 45 f1          	movsbl -0xf(%ebp),%eax
    3e04:	e9 41 ff ff ff       	jmp    3d4a <str_decode_reverse+0x13a>
    3e09:	8d b4 26 00 00 00 00 	lea    0x0(%esi,%eiz,1),%esi
    3e10:	89 f3                	mov    %esi,%ebx
    3e12:	e9 3f ff ff ff       	jmp    3d56 <str_decode_reverse+0x146>
    3e17:	89 c3                	mov    %eax,%ebx
    3e19:	e9 38 ff ff ff       	jmp    3d56 <str_decode_reverse+0x146>
    3e1e:	89 c3                	mov    %eax,%ebx
    3e20:	e9 2d ff ff ff       	jmp    3d52 <str_decode_reverse+0x142>
    3e25:	3b 5d 10             	cmp    0x10(%ebp),%ebx
    3e28:	0f 87 1c ff ff ff    	ja     3d4a <str_decode_reverse+0x13a>
    3e2e:	bf 1f 00 00 00       	mov    $0x1f,%edi
    3e33:	ba 01 00 00 00       	mov    $0x1,%edx
    3e38:	e9 2b ff ff ff       	jmp    3d68 <str_decode_reverse+0x158>
    3e3d:	bf 0f 00 00 00       	mov    $0xf,%edi
    3e42:	ba 02 00 00 00       	mov    $0x2,%edx
    3e47:	e9 1c ff ff ff       	jmp    3d68 <str_decode_reverse+0x158>
    3e4c:	3b 5d 10             	cmp    0x10(%ebp),%ebx
    3e4f:	0f 86 7b ff ff ff    	jbe    3dd0 <str_decode_reverse+0x1c0>
    3e55:	e9 f0 fe ff ff       	jmp    3d4a <str_decode_reverse+0x13a>
    3e5a:	8d b6 00 00 00 00    	lea    0x0(%esi),%esi

00003e60 <chr_encode>:
    3e60:	55                   	push   %ebp
    3e61:	89 e5                	mov    %esp,%ebp
    3e63:	57                   	push   %edi
    3e64:	56                   	push   %esi
    3e65:	53                   	push   %ebx
    3e66:	83 ec 24             	sub    $0x24,%esp
    3e69:	8b 7d 10             	mov    0x10(%ebp),%edi
    3e6c:	8b 1f                	mov    (%edi),%ebx
    3e6e:	3b 5d 14             	cmp    0x14(%ebp),%ebx
    3e71:	0f 83 c5 00 00 00    	jae    3f3c <chr_encode+0xdc>
    3e77:	8b 4d 08             	mov    0x8(%ebp),%ecx
    3e7a:	b8 f2 ff ff ff       	mov    $0xfffffff2,%eax
    3e7f:	81 f9 ff ff 10 00    	cmp    $0x10ffff,%ecx
    3e85:	77 34                	ja     3ebb <chr_encode+0x5b>
    3e87:	f7 c1 80 ff ff ff    	test   $0xffffff80,%ecx
    3e8d:	75 39                	jne    3ec8 <chr_encode+0x68>
    3e8f:	c6 45 d0 00          	movb   $0x0,-0x30(%ebp)
    3e93:	c6 45 e0 7f          	movb   $0x7f,-0x20(%ebp)
    3e97:	c7 45 f0 00 00 00 00 	movl   $0x0,-0x10(%ebp)
    3e9e:	8b 45 e0             	mov    -0x20(%ebp),%eax
    3ea1:	8b 55 0c             	mov    0xc(%ebp),%edx
    3ea4:	21 c1                	and    %eax,%ecx
    3ea6:	8b 45 d0             	mov    -0x30(%ebp),%eax
    3ea9:	09 c1                	or     %eax,%ecx
    3eab:	88 0c 1a             	mov    %cl,(%edx,%ebx,1)
    3eae:	8b 55 f0             	mov    -0x10(%ebp),%edx
    3eb1:	8b 07                	mov    (%edi),%eax
    3eb3:	8d 44 02 01          	lea    0x1(%edx,%eax,1),%eax
    3eb7:	89 07                	mov    %eax,(%edi)
    3eb9:	31 c0                	xor    %eax,%eax
    3ebb:	83 c4 24             	add    $0x24,%esp
    3ebe:	5b                   	pop    %ebx
    3ebf:	5e                   	pop    %esi
    3ec0:	5f                   	pop    %edi
    3ec1:	5d                   	pop    %ebp
    3ec2:	c3                   	ret    
    3ec3:	90                   	nop
    3ec4:	8d 74 26 00          	lea    0x0(%esi,%eiz,1),%esi
    3ec8:	f7 c1 00 f8 ff ff    	test   $0xfffff800,%ecx
    3ece:	74 58                	je     3f28 <chr_encode+0xc8>
    3ed0:	89 c8                	mov    %ecx,%eax
    3ed2:	25 00 00 ff ff       	and    $0xffff0000,%eax
    3ed7:	83 f8 01             	cmp    $0x1,%eax
    3eda:	19 d2                	sbb    %edx,%edx
    3edc:	83 e2 f0             	and    $0xfffffff0,%edx
    3edf:	83 ea 10             	sub    $0x10,%edx
    3ee2:	83 f8 01             	cmp    $0x1,%eax
    3ee5:	88 55 d0             	mov    %dl,-0x30(%ebp)
    3ee8:	19 d2                	sbb    %edx,%edx
    3eea:	83 e2 08             	and    $0x8,%edx
    3eed:	83 c2 07             	add    $0x7,%edx
    3ef0:	83 f8 01             	cmp    $0x1,%eax
    3ef3:	19 c0                	sbb    %eax,%eax
    3ef5:	88 55 e0             	mov    %dl,-0x20(%ebp)
    3ef8:	83 c0 03             	add    $0x3,%eax
    3efb:	89 45 f0             	mov    %eax,-0x10(%ebp)
    3efe:	01 d8                	add    %ebx,%eax
    3f00:	39 45 14             	cmp    %eax,0x14(%ebp)
    3f03:	76 37                	jbe    3f3c <chr_encode+0xdc>
    3f05:	8b 45 f0             	mov    -0x10(%ebp),%eax
    3f08:	89 ca                	mov    %ecx,%edx
    3f0a:	8b 75 0c             	mov    0xc(%ebp),%esi
    3f0d:	01 c6                	add    %eax,%esi
    3f0f:	83 e2 3f             	and    $0x3f,%edx
    3f12:	c1 e9 06             	shr    $0x6,%ecx
    3f15:	80 ca 80             	or     $0x80,%dl
    3f18:	88 14 1e             	mov    %dl,(%esi,%ebx,1)
    3f1b:	48                   	dec    %eax
    3f1c:	8b 1f                	mov    (%edi),%ebx
    3f1e:	75 e8                	jne    3f08 <chr_encode+0xa8>
    3f20:	e9 79 ff ff ff       	jmp    3e9e <chr_encode+0x3e>
    3f25:	8d 76 00             	lea    0x0(%esi),%esi
    3f28:	c7 45 f0 01 00 00 00 	movl   $0x1,-0x10(%ebp)
    3f2f:	c6 45 d0 c0          	movb   $0xc0,-0x30(%ebp)
    3f33:	c6 45 e0 1f          	movb   $0x1f,-0x20(%ebp)
    3f37:	8b 45 f0             	mov    -0x10(%ebp),%eax
    3f3a:	eb c2                	jmp    3efe <chr_encode+0x9e>
    3f3c:	b8 f0 ff ff ff       	mov    $0xfffffff0,%eax
    3f41:	e9 75 ff ff ff       	jmp    3ebb <chr_encode+0x5b>
    3f46:	8d 76 00             	lea    0x0(%esi),%esi
    3f49:	8d bc 27 00 00 00 00 	lea    0x0(%edi,%eiz,1),%edi

00003f50 <str_size>:
    3f50:	55                   	push   %ebp
    3f51:	31 c0                	xor    %eax,%eax
    3f53:	89 e5                	mov    %esp,%ebp
    3f55:	8b 55 08             	mov    0x8(%ebp),%edx
    3f58:	80 3a 00             	cmpb   $0x0,(%edx)
    3f5b:	74 0a                	je     3f67 <str_size+0x17>
    3f5d:	8d 76 00             	lea    0x0(%esi),%esi
    3f60:	40                   	inc    %eax
    3f61:	80 3c 02 00          	cmpb   $0x0,(%edx,%eax,1)
    3f65:	75 f9                	jne    3f60 <str_size+0x10>
    3f67:	5d                   	pop    %ebp
    3f68:	c3                   	ret    
    3f69:	8d b4 26 00 00 00 00 	lea    0x0(%esi,%eiz,1),%esi

00003f70 <wstr_size>:
    3f70:	55                   	push   %ebp
    3f71:	31 c0                	xor    %eax,%eax
    3f73:	89 e5                	mov    %esp,%ebp
    3f75:	8b 55 08             	mov    0x8(%ebp),%edx
    3f78:	8b 0a                	mov    (%edx),%ecx
    3f7a:	85 c9                	test   %ecx,%ecx
    3f7c:	74 0d                	je     3f8b <wstr_size+0x1b>
    3f7e:	66 90                	xchg   %ax,%ax
    3f80:	40                   	inc    %eax
    3f81:	8b 0c 82             	mov    (%edx,%eax,4),%ecx
    3f84:	85 c9                	test   %ecx,%ecx
    3f86:	75 f8                	jne    3f80 <wstr_size+0x10>
    3f88:	c1 e0 02             	shl    $0x2,%eax
    3f8b:	5d                   	pop    %ebp
    3f8c:	c3                   	ret    
    3f8d:	8d 76 00             	lea    0x0(%esi),%esi

00003f90 <str_lsize>:
    3f90:	55                   	push   %ebp
    3f91:	31 c0                	xor    %eax,%eax
    3f93:	89 e5                	mov    %esp,%ebp
    3f95:	57                   	push   %edi
    3f96:	56                   	push   %esi
    3f97:	53                   	push   %ebx
    3f98:	83 ec 0c             	sub    $0xc,%esp
    3f9b:	8b 7d 0c             	mov    0xc(%ebp),%edi
    3f9e:	8b 5d 08             	mov    0x8(%ebp),%ebx
    3fa1:	85 ff                	test   %edi,%edi
    3fa3:	74 5b                	je     4000 <str_lsize+0x70>
    3fa5:	c7 45 f0 00 00 00 00 	movl   $0x0,-0x10(%ebp)
    3fac:	eb 17                	jmp    3fc5 <str_lsize+0x35>
    3fae:	66 90                	xchg   %ax,%ax
    3fb0:	89 f8                	mov    %edi,%eax
    3fb2:	85 d2                	test   %edx,%edx
    3fb4:	74 4a                	je     4000 <str_lsize+0x70>
    3fb6:	8b 75 f0             	mov    -0x10(%ebp),%esi
    3fb9:	8b 55 0c             	mov    0xc(%ebp),%edx
    3fbc:	46                   	inc    %esi
    3fbd:	89 75 f0             	mov    %esi,-0x10(%ebp)
    3fc0:	39 55 f0             	cmp    %edx,-0x10(%ebp)
    3fc3:	74 3b                	je     4000 <str_lsize+0x70>
    3fc5:	0f be 14 03          	movsbl (%ebx,%eax,1),%edx
    3fc9:	8d 78 01             	lea    0x1(%eax),%edi
    3fcc:	84 d2                	test   %dl,%dl
    3fce:	79 e0                	jns    3fb0 <str_lsize+0x20>
    3fd0:	88 d1                	mov    %dl,%cl
    3fd2:	83 e1 e0             	and    $0xffffffe0,%ecx
    3fd5:	80 f9 c0             	cmp    $0xc0,%cl
    3fd8:	74 2e                	je     4008 <str_lsize+0x78>
    3fda:	88 d1                	mov    %dl,%cl
    3fdc:	83 e1 f0             	and    $0xfffffff0,%ecx
    3fdf:	80 f9 e0             	cmp    $0xe0,%cl
    3fe2:	74 7d                	je     4061 <str_lsize+0xd1>
    3fe4:	88 d1                	mov    %dl,%cl
    3fe6:	83 e1 f8             	and    $0xfffffff8,%ecx
    3fe9:	80 f9 f0             	cmp    $0xf0,%cl
    3fec:	74 7c                	je     406a <str_lsize+0xda>
    3fee:	8b 75 f0             	mov    -0x10(%ebp),%esi
    3ff1:	8b 55 0c             	mov    0xc(%ebp),%edx
    3ff4:	46                   	inc    %esi
    3ff5:	89 f8                	mov    %edi,%eax
    3ff7:	89 75 f0             	mov    %esi,-0x10(%ebp)
    3ffa:	39 55 f0             	cmp    %edx,-0x10(%ebp)
    3ffd:	75 c6                	jne    3fc5 <str_lsize+0x35>
    3fff:	90                   	nop
    4000:	83 c4 0c             	add    $0xc,%esp
    4003:	5b                   	pop    %ebx
    4004:	5e                   	pop    %esi
    4005:	5f                   	pop    %edi
    4006:	5d                   	pop    %ebp
    4007:	c3                   	ret    
    4008:	b1 1f                	mov    $0x1f,%cl
    400a:	be 01 00 00 00       	mov    $0x1,%esi
    400f:	21 ca                	and    %ecx,%edx
    4011:	8a 0c 3b             	mov    (%ebx,%edi,1),%cl
    4014:	88 4d ee             	mov    %cl,-0x12(%ebp)
    4017:	83 e1 c0             	and    $0xffffffc0,%ecx
    401a:	81 e2 ff 00 00 00    	and    $0xff,%edx
    4020:	83 c0 02             	add    $0x2,%eax
    4023:	80 f9 80             	cmp    $0x80,%cl
    4026:	75 8e                	jne    3fb6 <str_lsize+0x26>
    4028:	01 f7                	add    %esi,%edi
    402a:	8a 4d ee             	mov    -0x12(%ebp),%cl
    402d:	89 5d e8             	mov    %ebx,-0x18(%ebp)
    4030:	89 d6                	mov    %edx,%esi
    4032:	89 ca                	mov    %ecx,%edx
    4034:	c1 e6 06             	shl    $0x6,%esi
    4037:	83 e2 3f             	and    $0x3f,%edx
    403a:	09 f2                	or     %esi,%edx
    403c:	8b 5d e8             	mov    -0x18(%ebp),%ebx
    403f:	39 f8                	cmp    %edi,%eax
    4041:	0f 84 6b ff ff ff    	je     3fb2 <str_lsize+0x22>
    4047:	8a 0c 03             	mov    (%ebx,%eax,1),%cl
    404a:	be c0 ff ff ff       	mov    $0xffffffc0,%esi
    404f:	21 ce                	and    %ecx,%esi
    4051:	40                   	inc    %eax
    4052:	89 f3                	mov    %esi,%ebx
    4054:	80 fb 80             	cmp    $0x80,%bl
    4057:	74 d7                	je     4030 <str_lsize+0xa0>
    4059:	8b 5d e8             	mov    -0x18(%ebp),%ebx
    405c:	e9 55 ff ff ff       	jmp    3fb6 <str_lsize+0x26>
    4061:	b1 0f                	mov    $0xf,%cl
    4063:	be 02 00 00 00       	mov    $0x2,%esi
    4068:	eb a5                	jmp    400f <str_lsize+0x7f>
    406a:	b1 07                	mov    $0x7,%cl
    406c:	be 03 00 00 00       	mov    $0x3,%esi
    4071:	eb 9c                	jmp    400f <str_lsize+0x7f>
    4073:	8d b6 00 00 00 00    	lea    0x0(%esi),%esi
    4079:	8d bc 27 00 00 00 00 	lea    0x0(%edi,%eiz,1),%edi

00004080 <str_nsize>:
    4080:	55                   	push   %ebp
    4081:	31 c0                	xor    %eax,%eax
    4083:	89 e5                	mov    %esp,%ebp
    4085:	8b 55 08             	mov    0x8(%ebp),%edx
    4088:	8b 4d 0c             	mov    0xc(%ebp),%ecx
    408b:	80 3a 00             	cmpb   $0x0,(%edx)
    408e:	74 13                	je     40a3 <str_nsize+0x23>
    4090:	85 c9                	test   %ecx,%ecx
    4092:	75 08                	jne    409c <str_nsize+0x1c>
    4094:	eb 0d                	jmp    40a3 <str_nsize+0x23>
    4096:	66 90                	xchg   %ax,%ax
    4098:	39 c8                	cmp    %ecx,%eax
    409a:	74 07                	je     40a3 <str_nsize+0x23>
    409c:	40                   	inc    %eax
    409d:	80 3c 02 00          	cmpb   $0x0,(%edx,%eax,1)
    40a1:	75 f5                	jne    4098 <str_nsize+0x18>
    40a3:	5d                   	pop    %ebp
    40a4:	c3                   	ret    
    40a5:	8d 74 26 00          	lea    0x0(%esi,%eiz,1),%esi
    40a9:	8d bc 27 00 00 00 00 	lea    0x0(%edi,%eiz,1),%edi

000040b0 <wstr_nsize>:
    40b0:	55                   	push   %ebp
    40b1:	89 e5                	mov    %esp,%ebp
    40b3:	53                   	push   %ebx
    40b4:	8b 5d 0c             	mov    0xc(%ebp),%ebx
    40b7:	8b 4d 08             	mov    0x8(%ebp),%ecx
    40ba:	83 e3 fc             	and    $0xfffffffc,%ebx
    40bd:	74 26                	je     40e5 <wstr_nsize+0x35>
    40bf:	8b 01                	mov    (%ecx),%eax
    40c1:	85 c0                	test   %eax,%eax
    40c3:	74 20                	je     40e5 <wstr_nsize+0x35>
    40c5:	31 d2                	xor    %edx,%edx
    40c7:	eb 0d                	jmp    40d6 <wstr_nsize+0x26>
    40c9:	8d b4 26 00 00 00 00 	lea    0x0(%esi,%eiz,1),%esi
    40d0:	83 3c 91 00          	cmpl   $0x0,(%ecx,%edx,4)
    40d4:	74 0c                	je     40e2 <wstr_nsize+0x32>
    40d6:	42                   	inc    %edx
    40d7:	8d 04 95 00 00 00 00 	lea    0x0(,%edx,4),%eax
    40de:	39 c3                	cmp    %eax,%ebx
    40e0:	77 ee                	ja     40d0 <wstr_nsize+0x20>
    40e2:	5b                   	pop    %ebx
    40e3:	5d                   	pop    %ebp
    40e4:	c3                   	ret    
    40e5:	31 c0                	xor    %eax,%eax
    40e7:	eb f9                	jmp    40e2 <wstr_nsize+0x32>
    40e9:	8d b4 26 00 00 00 00 	lea    0x0(%esi,%eiz,1),%esi

000040f0 <wstr_lsize>:
    40f0:	55                   	push   %ebp
    40f1:	89 e5                	mov    %esp,%ebp
    40f3:	53                   	push   %ebx
    40f4:	8b 5d 0c             	mov    0xc(%ebp),%ebx
    40f7:	8b 4d 08             	mov    0x8(%ebp),%ecx
    40fa:	c1 e3 02             	shl    $0x2,%ebx
    40fd:	74 26                	je     4125 <wstr_lsize+0x35>
    40ff:	8b 01                	mov    (%ecx),%eax
    4101:	85 c0                	test   %eax,%eax
    4103:	74 20                	je     4125 <wstr_lsize+0x35>
    4105:	31 d2                	xor    %edx,%edx
    4107:	eb 0d                	jmp    4116 <wstr_lsize+0x26>
    4109:	8d b4 26 00 00 00 00 	lea    0x0(%esi,%eiz,1),%esi
    4110:	83 3c 91 00          	cmpl   $0x0,(%ecx,%edx,4)
    4114:	74 0c                	je     4122 <wstr_lsize+0x32>
    4116:	42                   	inc    %edx
    4117:	8d 04 95 00 00 00 00 	lea    0x0(,%edx,4),%eax
    411e:	39 c3                	cmp    %eax,%ebx
    4120:	77 ee                	ja     4110 <wstr_lsize+0x20>
    4122:	5b                   	pop    %ebx
    4123:	5d                   	pop    %ebp
    4124:	c3                   	ret    
    4125:	31 c0                	xor    %eax,%eax
    4127:	eb f9                	jmp    4122 <wstr_lsize+0x32>
    4129:	8d b4 26 00 00 00 00 	lea    0x0(%esi,%eiz,1),%esi

00004130 <str_length>:
    4130:	55                   	push   %ebp
    4131:	89 e5                	mov    %esp,%ebp
    4133:	57                   	push   %edi
    4134:	56                   	push   %esi
    4135:	53                   	push   %ebx
    4136:	83 ec 0c             	sub    $0xc,%esp
    4139:	31 ff                	xor    %edi,%edi
    413b:	8b 5d 08             	mov    0x8(%ebp),%ebx
    413e:	c7 45 f0 00 00 00 00 	movl   $0x0,-0x10(%ebp)
    4145:	eb 0e                	jmp    4155 <str_length+0x25>
    4147:	90                   	nop
    4148:	85 c0                	test   %eax,%eax
    414a:	74 3b                	je     4187 <str_length+0x57>
    414c:	89 d7                	mov    %edx,%edi
    414e:	8b 55 f0             	mov    -0x10(%ebp),%edx
    4151:	42                   	inc    %edx
    4152:	89 55 f0             	mov    %edx,-0x10(%ebp)
    4155:	0f be 04 3b          	movsbl (%ebx,%edi,1),%eax
    4159:	8d 57 01             	lea    0x1(%edi),%edx
    415c:	84 c0                	test   %al,%al
    415e:	79 e8                	jns    4148 <str_length+0x18>
    4160:	88 c1                	mov    %al,%cl
    4162:	83 e1 e0             	and    $0xffffffe0,%ecx
    4165:	80 f9 c0             	cmp    $0xc0,%cl
    4168:	74 28                	je     4192 <str_length+0x62>
    416a:	88 c1                	mov    %al,%cl
    416c:	83 e1 f0             	and    $0xfffffff0,%ecx
    416f:	80 f9 e0             	cmp    $0xe0,%cl
    4172:	74 7d                	je     41f1 <str_length+0xc1>
    4174:	88 c1                	mov    %al,%cl
    4176:	83 e1 f8             	and    $0xfffffff8,%ecx
    4179:	80 f9 f0             	cmp    $0xf0,%cl
    417c:	75 ce                	jne    414c <str_length+0x1c>
    417e:	b1 07                	mov    $0x7,%cl
    4180:	be 03 00 00 00       	mov    $0x3,%esi
    4185:	eb 12                	jmp    4199 <str_length+0x69>
    4187:	8b 45 f0             	mov    -0x10(%ebp),%eax
    418a:	83 c4 0c             	add    $0xc,%esp
    418d:	5b                   	pop    %ebx
    418e:	5e                   	pop    %esi
    418f:	5f                   	pop    %edi
    4190:	5d                   	pop    %ebp
    4191:	c3                   	ret    
    4192:	b1 1f                	mov    $0x1f,%cl
    4194:	be 01 00 00 00       	mov    $0x1,%esi
    4199:	21 c8                	and    %ecx,%eax
    419b:	8a 0c 13             	mov    (%ebx,%edx,1),%cl
    419e:	83 c7 02             	add    $0x2,%edi
    41a1:	88 4d eb             	mov    %cl,-0x15(%ebp)
    41a4:	83 e1 c0             	and    $0xffffffc0,%ecx
    41a7:	25 ff 00 00 00       	and    $0xff,%eax
    41ac:	89 7d ec             	mov    %edi,-0x14(%ebp)
    41af:	80 f9 80             	cmp    $0x80,%cl
    41b2:	75 46                	jne    41fa <str_length+0xca>
    41b4:	8d 3c 32             	lea    (%edx,%esi,1),%edi
    41b7:	8a 4d eb             	mov    -0x15(%ebp),%cl
    41ba:	8b 55 ec             	mov    -0x14(%ebp),%edx
    41bd:	89 5d ec             	mov    %ebx,-0x14(%ebp)
    41c0:	89 c6                	mov    %eax,%esi
    41c2:	89 c8                	mov    %ecx,%eax
    41c4:	c1 e6 06             	shl    $0x6,%esi
    41c7:	83 e0 3f             	and    $0x3f,%eax
    41ca:	09 f0                	or     %esi,%eax
    41cc:	8b 5d ec             	mov    -0x14(%ebp),%ebx
    41cf:	39 fa                	cmp    %edi,%edx
    41d1:	0f 84 71 ff ff ff    	je     4148 <str_length+0x18>
    41d7:	8a 0c 13             	mov    (%ebx,%edx,1),%cl
    41da:	be c0 ff ff ff       	mov    $0xffffffc0,%esi
    41df:	21 ce                	and    %ecx,%esi
    41e1:	42                   	inc    %edx
    41e2:	89 f3                	mov    %esi,%ebx
    41e4:	80 fb 80             	cmp    $0x80,%bl
    41e7:	74 d7                	je     41c0 <str_length+0x90>
    41e9:	8b 5d ec             	mov    -0x14(%ebp),%ebx
    41ec:	e9 5b ff ff ff       	jmp    414c <str_length+0x1c>
    41f1:	b1 0f                	mov    $0xf,%cl
    41f3:	be 02 00 00 00       	mov    $0x2,%esi
    41f8:	eb 9f                	jmp    4199 <str_length+0x69>
    41fa:	89 fa                	mov    %edi,%edx
    41fc:	e9 4b ff ff ff       	jmp    414c <str_length+0x1c>
    4201:	eb 0d                	jmp    4210 <wstr_length>
    4203:	90                   	nop
    4204:	90                   	nop
    4205:	90                   	nop
    4206:	90                   	nop
    4207:	90                   	nop
    4208:	90                   	nop
    4209:	90                   	nop
    420a:	90                   	nop
    420b:	90                   	nop
    420c:	90                   	nop
    420d:	90                   	nop
    420e:	90                   	nop
    420f:	90                   	nop

00004210 <wstr_length>:
    4210:	55                   	push   %ebp
    4211:	31 c0                	xor    %eax,%eax
    4213:	89 e5                	mov    %esp,%ebp
    4215:	8b 55 08             	mov    0x8(%ebp),%edx
    4218:	8b 0a                	mov    (%edx),%ecx
    421a:	85 c9                	test   %ecx,%ecx
    421c:	74 0a                	je     4228 <wstr_length+0x18>
    421e:	66 90                	xchg   %ax,%ax
    4220:	40                   	inc    %eax
    4221:	8b 0c 82             	mov    (%edx,%eax,4),%ecx
    4224:	85 c9                	test   %ecx,%ecx
    4226:	75 f8                	jne    4220 <wstr_length+0x10>
    4228:	5d                   	pop    %ebp
    4229:	c3                   	ret    
    422a:	8d b6 00 00 00 00    	lea    0x0(%esi),%esi

00004230 <str_nlength>:
    4230:	55                   	push   %ebp
    4231:	89 e5                	mov    %esp,%ebp
    4233:	57                   	push   %edi
    4234:	56                   	push   %esi
    4235:	53                   	push   %ebx
    4236:	57                   	push   %edi
    4237:	c7 45 f0 00 00 00 00 	movl   $0x0,-0x10(%ebp)
    423e:	8b 45 0c             	mov    0xc(%ebp),%eax
    4241:	8b 7d 08             	mov    0x8(%ebp),%edi
    4244:	85 c0                	test   %eax,%eax
    4246:	74 2c                	je     4274 <str_nlength+0x44>
    4248:	bb 01 00 00 00       	mov    $0x1,%ebx
    424d:	31 c0                	xor    %eax,%eax
    424f:	90                   	nop
    4250:	8a 04 07             	mov    (%edi,%eax,1),%al
    4253:	84 c0                	test   %al,%al
    4255:	78 79                	js     42d0 <str_nlength+0xa0>
    4257:	b2 7f                	mov    $0x7f,%dl
    4259:	31 c9                	xor    %ecx,%ecx
    425b:	8d 34 19             	lea    (%ecx,%ebx,1),%esi
    425e:	39 75 0c             	cmp    %esi,0xc(%ebp)
    4261:	73 1d                	jae    4280 <str_nlength+0x50>
    4263:	89 d8                	mov    %ebx,%eax
    4265:	8b 75 f0             	mov    -0x10(%ebp),%esi
    4268:	8d 58 01             	lea    0x1(%eax),%ebx
    426b:	46                   	inc    %esi
    426c:	39 5d 0c             	cmp    %ebx,0xc(%ebp)
    426f:	89 75 f0             	mov    %esi,-0x10(%ebp)
    4272:	73 dc                	jae    4250 <str_nlength+0x20>
    4274:	8b 45 f0             	mov    -0x10(%ebp),%eax
    4277:	5b                   	pop    %ebx
    4278:	5b                   	pop    %ebx
    4279:	5e                   	pop    %esi
    427a:	5f                   	pop    %edi
    427b:	5d                   	pop    %ebp
    427c:	c3                   	ret    
    427d:	8d 76 00             	lea    0x0(%esi),%esi
    4280:	21 c2                	and    %eax,%edx
    4282:	81 e2 ff 00 00 00    	and    $0xff,%edx
    4288:	85 c9                	test   %ecx,%ecx
    428a:	0f 84 94 00 00 00    	je     4324 <str_nlength+0xf4>
    4290:	8a 0c 1f             	mov    (%edi,%ebx,1),%cl
    4293:	8d 43 01             	lea    0x1(%ebx),%eax
    4296:	88 cb                	mov    %cl,%bl
    4298:	83 e3 c0             	and    $0xffffffc0,%ebx
    429b:	80 fb 80             	cmp    $0x80,%bl
    429e:	74 16                	je     42b6 <str_nlength+0x86>
    42a0:	eb 5e                	jmp    4300 <str_nlength+0xd0>
    42a2:	8d b6 00 00 00 00    	lea    0x0(%esi),%esi
    42a8:	8a 0c 07             	mov    (%edi,%eax,1),%cl
    42ab:	40                   	inc    %eax
    42ac:	88 cb                	mov    %cl,%bl
    42ae:	83 e3 c0             	and    $0xffffffc0,%ebx
    42b1:	80 fb 80             	cmp    $0x80,%bl
    42b4:	75 4a                	jne    4300 <str_nlength+0xd0>
    42b6:	89 d3                	mov    %edx,%ebx
    42b8:	89 ca                	mov    %ecx,%edx
    42ba:	c1 e3 06             	shl    $0x6,%ebx
    42bd:	83 e2 3f             	and    $0x3f,%edx
    42c0:	09 da                	or     %ebx,%edx
    42c2:	39 c6                	cmp    %eax,%esi
    42c4:	75 e2                	jne    42a8 <str_nlength+0x78>
    42c6:	85 d2                	test   %edx,%edx
    42c8:	75 9b                	jne    4265 <str_nlength+0x35>
    42ca:	eb a8                	jmp    4274 <str_nlength+0x44>
    42cc:	8d 74 26 00          	lea    0x0(%esi,%eiz,1),%esi
    42d0:	88 c2                	mov    %al,%dl
    42d2:	83 e2 e0             	and    $0xffffffe0,%edx
    42d5:	80 fa c0             	cmp    $0xc0,%dl
    42d8:	74 2e                	je     4308 <str_nlength+0xd8>
    42da:	88 c2                	mov    %al,%dl
    42dc:	83 e2 f0             	and    $0xfffffff0,%edx
    42df:	80 fa e0             	cmp    $0xe0,%dl
    42e2:	74 34                	je     4318 <str_nlength+0xe8>
    42e4:	88 c2                	mov    %al,%dl
    42e6:	83 e2 f8             	and    $0xfffffff8,%edx
    42e9:	80 fa f0             	cmp    $0xf0,%dl
    42ec:	0f 85 71 ff ff ff    	jne    4263 <str_nlength+0x33>
    42f2:	b2 07                	mov    $0x7,%dl
    42f4:	b9 03 00 00 00       	mov    $0x3,%ecx
    42f9:	e9 5d ff ff ff       	jmp    425b <str_nlength+0x2b>
    42fe:	66 90                	xchg   %ax,%ax
    4300:	89 c3                	mov    %eax,%ebx
    4302:	e9 5c ff ff ff       	jmp    4263 <str_nlength+0x33>
    4307:	90                   	nop
    4308:	b2 1f                	mov    $0x1f,%dl
    430a:	b9 01 00 00 00       	mov    $0x1,%ecx
    430f:	e9 47 ff ff ff       	jmp    425b <str_nlength+0x2b>
    4314:	8d 74 26 00          	lea    0x0(%esi,%eiz,1),%esi
    4318:	b2 0f                	mov    $0xf,%dl
    431a:	b9 02 00 00 00       	mov    $0x2,%ecx
    431f:	e9 37 ff ff ff       	jmp    425b <str_nlength+0x2b>
    4324:	89 d8                	mov    %ebx,%eax
    4326:	eb 9e                	jmp    42c6 <str_nlength+0x96>
    4328:	90                   	nop
    4329:	8d b4 26 00 00 00 00 	lea    0x0(%esi,%eiz,1),%esi

00004330 <wstr_nlength>:
    4330:	55                   	push   %ebp
    4331:	31 c0                	xor    %eax,%eax
    4333:	89 e5                	mov    %esp,%ebp
    4335:	53                   	push   %ebx
    4336:	8b 5d 0c             	mov    0xc(%ebp),%ebx
    4339:	8b 4d 08             	mov    0x8(%ebp),%ecx
    433c:	83 e3 fc             	and    $0xfffffffc,%ebx
    433f:	74 22                	je     4363 <wstr_nlength+0x33>
    4341:	8b 11                	mov    (%ecx),%edx
    4343:	85 d2                	test   %edx,%edx
    4345:	75 10                	jne    4357 <wstr_nlength+0x27>
    4347:	eb 1a                	jmp    4363 <wstr_nlength+0x33>
    4349:	8d b4 26 00 00 00 00 	lea    0x0(%esi,%eiz,1),%esi
    4350:	8b 14 81             	mov    (%ecx,%eax,4),%edx
    4353:	85 d2                	test   %edx,%edx
    4355:	74 0c                	je     4363 <wstr_nlength+0x33>
    4357:	40                   	inc    %eax
    4358:	8d 14 85 00 00 00 00 	lea    0x0(,%eax,4),%edx
    435f:	39 da                	cmp    %ebx,%edx
    4361:	72 ed                	jb     4350 <wstr_nlength+0x20>
    4363:	5b                   	pop    %ebx
    4364:	5d                   	pop    %ebp
    4365:	c3                   	ret    
    4366:	8d 76 00             	lea    0x0(%esi),%esi
    4369:	8d bc 27 00 00 00 00 	lea    0x0(%edi,%eiz,1),%edi

00004370 <chr_width>:
    4370:	55                   	push   %ebp
    4371:	b8 01 00 00 00       	mov    $0x1,%eax
    4376:	89 e5                	mov    %esp,%ebp
    4378:	5d                   	pop    %ebp
    4379:	c3                   	ret    
    437a:	8d b6 00 00 00 00    	lea    0x0(%esi),%esi

00004380 <str_width>:
    4380:	55                   	push   %ebp
    4381:	89 e5                	mov    %esp,%ebp
    4383:	57                   	push   %edi
    4384:	56                   	push   %esi
    4385:	53                   	push   %ebx
    4386:	83 ec 0c             	sub    $0xc,%esp
    4389:	31 ff                	xor    %edi,%edi
    438b:	8b 5d 08             	mov    0x8(%ebp),%ebx
    438e:	c7 45 f0 00 00 00 00 	movl   $0x0,-0x10(%ebp)
    4395:	eb 0e                	jmp    43a5 <str_width+0x25>
    4397:	90                   	nop
    4398:	85 c0                	test   %eax,%eax
    439a:	74 3b                	je     43d7 <str_width+0x57>
    439c:	8b 4d f0             	mov    -0x10(%ebp),%ecx
    439f:	89 d7                	mov    %edx,%edi
    43a1:	41                   	inc    %ecx
    43a2:	89 4d f0             	mov    %ecx,-0x10(%ebp)
    43a5:	0f be 04 3b          	movsbl (%ebx,%edi,1),%eax
    43a9:	8d 57 01             	lea    0x1(%edi),%edx
    43ac:	84 c0                	test   %al,%al
    43ae:	79 e8                	jns    4398 <str_width+0x18>
    43b0:	88 c1                	mov    %al,%cl
    43b2:	83 e1 e0             	and    $0xffffffe0,%ecx
    43b5:	80 f9 c0             	cmp    $0xc0,%cl
    43b8:	74 28                	je     43e2 <str_width+0x62>
    43ba:	88 c1                	mov    %al,%cl
    43bc:	83 e1 f0             	and    $0xfffffff0,%ecx
    43bf:	80 f9 e0             	cmp    $0xe0,%cl
    43c2:	74 7d                	je     4441 <str_width+0xc1>
    43c4:	88 c1                	mov    %al,%cl
    43c6:	83 e1 f8             	and    $0xfffffff8,%ecx
    43c9:	80 f9 f0             	cmp    $0xf0,%cl
    43cc:	75 ce                	jne    439c <str_width+0x1c>
    43ce:	b1 07                	mov    $0x7,%cl
    43d0:	be 03 00 00 00       	mov    $0x3,%esi
    43d5:	eb 12                	jmp    43e9 <str_width+0x69>
    43d7:	8b 45 f0             	mov    -0x10(%ebp),%eax
    43da:	83 c4 0c             	add    $0xc,%esp
    43dd:	5b                   	pop    %ebx
    43de:	5e                   	pop    %esi
    43df:	5f                   	pop    %edi
    43e0:	5d                   	pop    %ebp
    43e1:	c3                   	ret    
    43e2:	b1 1f                	mov    $0x1f,%cl
    43e4:	be 01 00 00 00       	mov    $0x1,%esi
    43e9:	21 c8                	and    %ecx,%eax
    43eb:	8a 0c 13             	mov    (%ebx,%edx,1),%cl
    43ee:	83 c7 02             	add    $0x2,%edi
    43f1:	88 4d eb             	mov    %cl,-0x15(%ebp)
    43f4:	83 e1 c0             	and    $0xffffffc0,%ecx
    43f7:	25 ff 00 00 00       	and    $0xff,%eax
    43fc:	89 7d ec             	mov    %edi,-0x14(%ebp)
    43ff:	80 f9 80             	cmp    $0x80,%cl
    4402:	75 46                	jne    444a <str_width+0xca>
    4404:	8d 3c 32             	lea    (%edx,%esi,1),%edi
    4407:	8a 4d eb             	mov    -0x15(%ebp),%cl
    440a:	8b 55 ec             	mov    -0x14(%ebp),%edx
    440d:	89 5d ec             	mov    %ebx,-0x14(%ebp)
    4410:	89 c6                	mov    %eax,%esi
    4412:	89 c8                	mov    %ecx,%eax
    4414:	c1 e6 06             	shl    $0x6,%esi
    4417:	83 e0 3f             	and    $0x3f,%eax
    441a:	09 f0                	or     %esi,%eax
    441c:	8b 5d ec             	mov    -0x14(%ebp),%ebx
    441f:	39 fa                	cmp    %edi,%edx
    4421:	0f 84 71 ff ff ff    	je     4398 <str_width+0x18>
    4427:	8a 0c 13             	mov    (%ebx,%edx,1),%cl
    442a:	be c0 ff ff ff       	mov    $0xffffffc0,%esi
    442f:	21 ce                	and    %ecx,%esi
    4431:	42                   	inc    %edx
    4432:	89 f3                	mov    %esi,%ebx
    4434:	80 fb 80             	cmp    $0x80,%bl
    4437:	74 d7                	je     4410 <str_width+0x90>
    4439:	8b 5d ec             	mov    -0x14(%ebp),%ebx
    443c:	e9 5b ff ff ff       	jmp    439c <str_width+0x1c>
    4441:	b1 0f                	mov    $0xf,%cl
    4443:	be 02 00 00 00       	mov    $0x2,%esi
    4448:	eb 9f                	jmp    43e9 <str_width+0x69>
    444a:	89 fa                	mov    %edi,%edx
    444c:	e9 4b ff ff ff       	jmp    439c <str_width+0x1c>
    4451:	eb 0d                	jmp    4460 <ascii_check>
    4453:	90                   	nop
    4454:	90                   	nop
    4455:	90                   	nop
    4456:	90                   	nop
    4457:	90                   	nop
    4458:	90                   	nop
    4459:	90                   	nop
    445a:	90                   	nop
    445b:	90                   	nop
    445c:	90                   	nop
    445d:	90                   	nop
    445e:	90                   	nop
    445f:	90                   	nop

00004460 <ascii_check>:
    4460:	55                   	push   %ebp
    4461:	89 e5                	mov    %esp,%ebp
    4463:	83 7d 08 7f          	cmpl   $0x7f,0x8(%ebp)
    4467:	5d                   	pop    %ebp
    4468:	0f 96 c0             	setbe  %al
    446b:	c3                   	ret    
    446c:	8d 74 26 00          	lea    0x0(%esi,%eiz,1),%esi

00004470 <chr_check>:
    4470:	55                   	push   %ebp
    4471:	89 e5                	mov    %esp,%ebp
    4473:	81 7d 08 ff ff 10 00 	cmpl   $0x10ffff,0x8(%ebp)
    447a:	5d                   	pop    %ebp
    447b:	0f 96 c0             	setbe  %al
    447e:	c3                   	ret    
    447f:	90                   	nop

00004480 <str_cmp>:
    4480:	55                   	push   %ebp
    4481:	31 c9                	xor    %ecx,%ecx
    4483:	89 e5                	mov    %esp,%ebp
    4485:	57                   	push   %edi
    4486:	56                   	push   %esi
    4487:	31 f6                	xor    %esi,%esi
    4489:	53                   	push   %ebx
    448a:	89 f7                	mov    %esi,%edi
    448c:	83 ec 0c             	sub    $0xc,%esp
    448f:	eb 39                	jmp    44ca <str_cmp+0x4a>
    4491:	8d b4 26 00 00 00 00 	lea    0x0(%esi,%eiz,1),%esi
    4498:	89 f1                	mov    %esi,%ecx
    449a:	8b 45 0c             	mov    0xc(%ebp),%eax
    449d:	8d 77 01             	lea    0x1(%edi),%esi
    44a0:	8a 1c 38             	mov    (%eax,%edi,1),%bl
    44a3:	84 db                	test   %bl,%bl
    44a5:	78 69                	js     4510 <str_cmp+0x90>
    44a7:	0f be c3             	movsbl %bl,%eax
    44aa:	89 f7                	mov    %esi,%edi
    44ac:	39 c2                	cmp    %eax,%edx
    44ae:	0f 8c 92 00 00 00    	jl     4546 <str_cmp+0xc6>
    44b4:	0f 8f a2 01 00 00    	jg     465c <str_cmp+0x1dc>
    44ba:	85 c0                	test   %eax,%eax
    44bc:	0f 84 a7 01 00 00    	je     4669 <str_cmp+0x1e9>
    44c2:	85 d2                	test   %edx,%edx
    44c4:	0f 84 9f 01 00 00    	je     4669 <str_cmp+0x1e9>
    44ca:	8b 45 08             	mov    0x8(%ebp),%eax
    44cd:	8d 71 01             	lea    0x1(%ecx),%esi
    44d0:	0f be 14 08          	movsbl (%eax,%ecx,1),%edx
    44d4:	84 d2                	test   %dl,%dl
    44d6:	79 c0                	jns    4498 <str_cmp+0x18>
    44d8:	88 d0                	mov    %dl,%al
    44da:	83 e0 e0             	and    $0xffffffe0,%eax
    44dd:	3c c0                	cmp    $0xc0,%al
    44df:	74 70                	je     4551 <str_cmp+0xd1>
    44e1:	88 d0                	mov    %dl,%al
    44e3:	83 e0 f0             	and    $0xfffffff0,%eax
    44e6:	3c e0                	cmp    $0xe0,%al
    44e8:	0f 84 52 01 00 00    	je     4640 <str_cmp+0x1c0>
    44ee:	88 d0                	mov    %dl,%al
    44f0:	83 e0 f8             	and    $0xfffffff8,%eax
    44f3:	3c f0                	cmp    $0xf0,%al
    44f5:	0f 84 86 01 00 00    	je     4681 <str_cmp+0x201>
    44fb:	8b 45 0c             	mov    0xc(%ebp),%eax
    44fe:	89 f1                	mov    %esi,%ecx
    4500:	ba 3f 00 00 00       	mov    $0x3f,%edx
    4505:	8d 77 01             	lea    0x1(%edi),%esi
    4508:	8a 1c 38             	mov    (%eax,%edi,1),%bl
    450b:	84 db                	test   %bl,%bl
    450d:	79 98                	jns    44a7 <str_cmp+0x27>
    450f:	90                   	nop
    4510:	88 d8                	mov    %bl,%al
    4512:	83 e0 e0             	and    $0xffffffe0,%eax
    4515:	3c c0                	cmp    $0xc0,%al
    4517:	0f 84 a0 00 00 00    	je     45bd <str_cmp+0x13d>
    451d:	88 d8                	mov    %bl,%al
    451f:	83 e0 f0             	and    $0xfffffff0,%eax
    4522:	3c e0                	cmp    $0xe0,%al
    4524:	0f 84 24 01 00 00    	je     464e <str_cmp+0x1ce>
    452a:	88 d8                	mov    %bl,%al
    452c:	83 e0 f8             	and    $0xfffffff8,%eax
    452f:	3c f0                	cmp    $0xf0,%al
    4531:	0f 84 3c 01 00 00    	je     4673 <str_cmp+0x1f3>
    4537:	b8 3f 00 00 00       	mov    $0x3f,%eax
    453c:	89 f7                	mov    %esi,%edi
    453e:	39 c2                	cmp    %eax,%edx
    4540:	0f 8d 6e ff ff ff    	jge    44b4 <str_cmp+0x34>
    4546:	83 c4 0c             	add    $0xc,%esp
    4549:	83 c8 ff             	or     $0xffffffff,%eax
    454c:	5b                   	pop    %ebx
    454d:	5e                   	pop    %esi
    454e:	5f                   	pop    %edi
    454f:	5d                   	pop    %ebp
    4550:	c3                   	ret    
    4551:	b0 1f                	mov    $0x1f,%al
    4553:	c7 45 ec 01 00 00 00 	movl   $0x1,-0x14(%ebp)
    455a:	8b 5d 08             	mov    0x8(%ebp),%ebx
    455d:	21 c2                	and    %eax,%edx
    455f:	81 e2 ff 00 00 00    	and    $0xff,%edx
    4565:	83 c1 02             	add    $0x2,%ecx
    4568:	8a 04 33             	mov    (%ebx,%esi,1),%al
    456b:	88 c3                	mov    %al,%bl
    456d:	83 e3 c0             	and    $0xffffffc0,%ebx
    4570:	80 fb 80             	cmp    $0x80,%bl
    4573:	0f 85 20 01 00 00    	jne    4699 <str_cmp+0x219>
    4579:	8b 5d ec             	mov    -0x14(%ebp),%ebx
    457c:	89 7d f0             	mov    %edi,-0x10(%ebp)
    457f:	01 de                	add    %ebx,%esi
    4581:	8b 7d 08             	mov    0x8(%ebp),%edi
    4584:	eb 10                	jmp    4596 <str_cmp+0x116>
    4586:	66 90                	xchg   %ax,%ax
    4588:	8a 04 0f             	mov    (%edi,%ecx,1),%al
    458b:	41                   	inc    %ecx
    458c:	88 c3                	mov    %al,%bl
    458e:	83 e3 c0             	and    $0xffffffc0,%ebx
    4591:	80 fb 80             	cmp    $0x80,%bl
    4594:	75 1a                	jne    45b0 <str_cmp+0x130>
    4596:	89 d3                	mov    %edx,%ebx
    4598:	89 c2                	mov    %eax,%edx
    459a:	c1 e3 06             	shl    $0x6,%ebx
    459d:	83 e2 3f             	and    $0x3f,%edx
    45a0:	09 da                	or     %ebx,%edx
    45a2:	39 f1                	cmp    %esi,%ecx
    45a4:	75 e2                	jne    4588 <str_cmp+0x108>
    45a6:	8b 7d f0             	mov    -0x10(%ebp),%edi
    45a9:	e9 ec fe ff ff       	jmp    449a <str_cmp+0x1a>
    45ae:	66 90                	xchg   %ax,%ax
    45b0:	8b 7d f0             	mov    -0x10(%ebp),%edi
    45b3:	ba 3f 00 00 00       	mov    $0x3f,%edx
    45b8:	e9 dd fe ff ff       	jmp    449a <str_cmp+0x1a>
    45bd:	b0 1f                	mov    $0x1f,%al
    45bf:	c7 45 ec 01 00 00 00 	movl   $0x1,-0x14(%ebp)
    45c6:	21 c3                	and    %eax,%ebx
    45c8:	31 c0                	xor    %eax,%eax
    45ca:	88 d8                	mov    %bl,%al
    45cc:	8b 5d 0c             	mov    0xc(%ebp),%ebx
    45cf:	83 c7 02             	add    $0x2,%edi
    45d2:	8a 1c 33             	mov    (%ebx,%esi,1),%bl
    45d5:	88 5d eb             	mov    %bl,-0x15(%ebp)
    45d8:	83 e3 c0             	and    $0xffffffc0,%ebx
    45db:	80 fb 80             	cmp    $0x80,%bl
    45de:	0f 85 ab 00 00 00    	jne    468f <str_cmp+0x20f>
    45e4:	8b 5d ec             	mov    -0x14(%ebp),%ebx
    45e7:	89 4d f0             	mov    %ecx,-0x10(%ebp)
    45ea:	01 de                	add    %ebx,%esi
    45ec:	89 55 ec             	mov    %edx,-0x14(%ebp)
    45ef:	89 f1                	mov    %esi,%ecx
    45f1:	8a 5d eb             	mov    -0x15(%ebp),%bl
    45f4:	8b 75 0c             	mov    0xc(%ebp),%esi
    45f7:	eb 15                	jmp    460e <str_cmp+0x18e>
    45f9:	8d b4 26 00 00 00 00 	lea    0x0(%esi,%eiz,1),%esi
    4600:	8a 1c 3e             	mov    (%esi,%edi,1),%bl
    4603:	47                   	inc    %edi
    4604:	88 da                	mov    %bl,%dl
    4606:	83 e2 c0             	and    $0xffffffc0,%edx
    4609:	80 fa 80             	cmp    $0x80,%dl
    460c:	75 22                	jne    4630 <str_cmp+0x1b0>
    460e:	89 c2                	mov    %eax,%edx
    4610:	89 d8                	mov    %ebx,%eax
    4612:	c1 e2 06             	shl    $0x6,%edx
    4615:	83 e0 3f             	and    $0x3f,%eax
    4618:	09 d0                	or     %edx,%eax
    461a:	39 cf                	cmp    %ecx,%edi
    461c:	75 e2                	jne    4600 <str_cmp+0x180>
    461e:	8b 4d f0             	mov    -0x10(%ebp),%ecx
    4621:	8b 55 ec             	mov    -0x14(%ebp),%edx
    4624:	e9 83 fe ff ff       	jmp    44ac <str_cmp+0x2c>
    4629:	8d b4 26 00 00 00 00 	lea    0x0(%esi,%eiz,1),%esi
    4630:	8b 4d f0             	mov    -0x10(%ebp),%ecx
    4633:	8b 55 ec             	mov    -0x14(%ebp),%edx
    4636:	b8 3f 00 00 00       	mov    $0x3f,%eax
    463b:	e9 6c fe ff ff       	jmp    44ac <str_cmp+0x2c>
    4640:	b0 0f                	mov    $0xf,%al
    4642:	c7 45 ec 02 00 00 00 	movl   $0x2,-0x14(%ebp)
    4649:	e9 0c ff ff ff       	jmp    455a <str_cmp+0xda>
    464e:	b0 0f                	mov    $0xf,%al
    4650:	c7 45 ec 02 00 00 00 	movl   $0x2,-0x14(%ebp)
    4657:	e9 6a ff ff ff       	jmp    45c6 <str_cmp+0x146>
    465c:	83 c4 0c             	add    $0xc,%esp
    465f:	b8 01 00 00 00       	mov    $0x1,%eax
    4664:	5b                   	pop    %ebx
    4665:	5e                   	pop    %esi
    4666:	5f                   	pop    %edi
    4667:	5d                   	pop    %ebp
    4668:	c3                   	ret    
    4669:	83 c4 0c             	add    $0xc,%esp
    466c:	31 c0                	xor    %eax,%eax
    466e:	5b                   	pop    %ebx
    466f:	5e                   	pop    %esi
    4670:	5f                   	pop    %edi
    4671:	5d                   	pop    %ebp
    4672:	c3                   	ret    
    4673:	b0 07                	mov    $0x7,%al
    4675:	c7 45 ec 03 00 00 00 	movl   $0x3,-0x14(%ebp)
    467c:	e9 45 ff ff ff       	jmp    45c6 <str_cmp+0x146>
    4681:	b0 07                	mov    $0x7,%al
    4683:	c7 45 ec 03 00 00 00 	movl   $0x3,-0x14(%ebp)
    468a:	e9 cb fe ff ff       	jmp    455a <str_cmp+0xda>
    468f:	b8 3f 00 00 00       	mov    $0x3f,%eax
    4694:	e9 13 fe ff ff       	jmp    44ac <str_cmp+0x2c>
    4699:	ba 3f 00 00 00       	mov    $0x3f,%edx
    469e:	e9 f7 fd ff ff       	jmp    449a <str_cmp+0x1a>
    46a3:	8d b6 00 00 00 00    	lea    0x0(%esi),%esi
    46a9:	8d bc 27 00 00 00 00 	lea    0x0(%edi,%eiz,1),%edi

000046b0 <str_lcmp>:
    46b0:	55                   	push   %ebp
    46b1:	89 e5                	mov    %esp,%ebp
    46b3:	57                   	push   %edi
    46b4:	56                   	push   %esi
    46b5:	53                   	push   %ebx
    46b6:	83 ec 10             	sub    $0x10,%esp
    46b9:	8b 75 10             	mov    0x10(%ebp),%esi
    46bc:	85 f6                	test   %esi,%esi
    46be:	0f 84 ed 01 00 00    	je     48b1 <str_lcmp+0x201>
    46c4:	31 ff                	xor    %edi,%edi
    46c6:	31 f6                	xor    %esi,%esi
    46c8:	c7 45 f0 00 00 00 00 	movl   $0x0,-0x10(%ebp)
    46cf:	eb 4e                	jmp    471f <str_lcmp+0x6f>
    46d1:	8d b4 26 00 00 00 00 	lea    0x0(%esi,%eiz,1),%esi
    46d8:	89 de                	mov    %ebx,%esi
    46da:	8b 4d 0c             	mov    0xc(%ebp),%ecx
    46dd:	8d 5f 01             	lea    0x1(%edi),%ebx
    46e0:	0f be 04 39          	movsbl (%ecx,%edi,1),%eax
    46e4:	84 c0                	test   %al,%al
    46e6:	0f 88 7c 00 00 00    	js     4768 <str_lcmp+0xb8>
    46ec:	89 df                	mov    %ebx,%edi
    46ee:	39 c2                	cmp    %eax,%edx
    46f0:	0f 8c ab 00 00 00    	jl     47a1 <str_lcmp+0xf1>
    46f6:	0f 8f db 01 00 00    	jg     48d7 <str_lcmp+0x227>
    46fc:	85 c0                	test   %eax,%eax
    46fe:	0f 84 ad 01 00 00    	je     48b1 <str_lcmp+0x201>
    4704:	85 d2                	test   %edx,%edx
    4706:	0f 84 a5 01 00 00    	je     48b1 <str_lcmp+0x201>
    470c:	8b 5d f0             	mov    -0x10(%ebp),%ebx
    470f:	8b 45 10             	mov    0x10(%ebp),%eax
    4712:	43                   	inc    %ebx
    4713:	89 5d f0             	mov    %ebx,-0x10(%ebp)
    4716:	39 45 f0             	cmp    %eax,-0x10(%ebp)
    4719:	0f 84 92 01 00 00    	je     48b1 <str_lcmp+0x201>
    471f:	8b 45 08             	mov    0x8(%ebp),%eax
    4722:	8d 5e 01             	lea    0x1(%esi),%ebx
    4725:	0f be 14 30          	movsbl (%eax,%esi,1),%edx
    4729:	84 d2                	test   %dl,%dl
    472b:	79 ab                	jns    46d8 <str_lcmp+0x28>
    472d:	88 d0                	mov    %dl,%al
    472f:	83 e0 e0             	and    $0xffffffe0,%eax
    4732:	3c c0                	cmp    $0xc0,%al
    4734:	74 76                	je     47ac <str_lcmp+0xfc>
    4736:	88 d0                	mov    %dl,%al
    4738:	83 e0 f0             	and    $0xfffffff0,%eax
    473b:	3c e0                	cmp    $0xe0,%al
    473d:	0f 84 60 01 00 00    	je     48a3 <str_lcmp+0x1f3>
    4743:	88 d0                	mov    %dl,%al
    4745:	83 e0 f8             	and    $0xfffffff8,%eax
    4748:	3c f0                	cmp    $0xf0,%al
    474a:	0f 84 6b 01 00 00    	je     48bb <str_lcmp+0x20b>
    4750:	8b 4d 0c             	mov    0xc(%ebp),%ecx
    4753:	89 de                	mov    %ebx,%esi
    4755:	ba 3f 00 00 00       	mov    $0x3f,%edx
    475a:	8d 5f 01             	lea    0x1(%edi),%ebx
    475d:	0f be 04 39          	movsbl (%ecx,%edi,1),%eax
    4761:	84 c0                	test   %al,%al
    4763:	79 87                	jns    46ec <str_lcmp+0x3c>
    4765:	8d 76 00             	lea    0x0(%esi),%esi
    4768:	88 c1                	mov    %al,%cl
    476a:	83 e1 e0             	and    $0xffffffe0,%ecx
    476d:	80 f9 c0             	cmp    $0xc0,%cl
    4770:	0f 84 a7 00 00 00    	je     481d <str_lcmp+0x16d>
    4776:	88 c1                	mov    %al,%cl
    4778:	83 e1 f0             	and    $0xfffffff0,%ecx
    477b:	80 f9 e0             	cmp    $0xe0,%cl
    477e:	0f 84 14 01 00 00    	je     4898 <str_lcmp+0x1e8>
    4784:	88 c1                	mov    %al,%cl
    4786:	83 e1 f8             	and    $0xfffffff8,%ecx
    4789:	80 f9 f0             	cmp    $0xf0,%cl
    478c:	0f 84 37 01 00 00    	je     48c9 <str_lcmp+0x219>
    4792:	b8 3f 00 00 00       	mov    $0x3f,%eax
    4797:	89 df                	mov    %ebx,%edi
    4799:	39 c2                	cmp    %eax,%edx
    479b:	0f 8d 55 ff ff ff    	jge    46f6 <str_lcmp+0x46>
    47a1:	83 c4 10             	add    $0x10,%esp
    47a4:	83 c8 ff             	or     $0xffffffff,%eax
    47a7:	5b                   	pop    %ebx
    47a8:	5e                   	pop    %esi
    47a9:	5f                   	pop    %edi
    47aa:	5d                   	pop    %ebp
    47ab:	c3                   	ret    
    47ac:	b0 1f                	mov    $0x1f,%al
    47ae:	c7 45 e8 01 00 00 00 	movl   $0x1,-0x18(%ebp)
    47b5:	8b 4d 08             	mov    0x8(%ebp),%ecx
    47b8:	21 c2                	and    %eax,%edx
    47ba:	81 e2 ff 00 00 00    	and    $0xff,%edx
    47c0:	83 c6 02             	add    $0x2,%esi
    47c3:	8a 04 19             	mov    (%ecx,%ebx,1),%al
    47c6:	88 c1                	mov    %al,%cl
    47c8:	83 e1 c0             	and    $0xffffffc0,%ecx
    47cb:	80 f9 80             	cmp    $0x80,%cl
    47ce:	0f 85 10 01 00 00    	jne    48e4 <str_lcmp+0x234>
    47d4:	8b 4d e8             	mov    -0x18(%ebp),%ecx
    47d7:	89 7d ec             	mov    %edi,-0x14(%ebp)
    47da:	01 cb                	add    %ecx,%ebx
    47dc:	8b 7d 08             	mov    0x8(%ebp),%edi
    47df:	eb 15                	jmp    47f6 <str_lcmp+0x146>
    47e1:	8d b4 26 00 00 00 00 	lea    0x0(%esi,%eiz,1),%esi
    47e8:	8a 04 37             	mov    (%edi,%esi,1),%al
    47eb:	46                   	inc    %esi
    47ec:	88 c1                	mov    %al,%cl
    47ee:	83 e1 c0             	and    $0xffffffc0,%ecx
    47f1:	80 f9 80             	cmp    $0x80,%cl
    47f4:	75 1a                	jne    4810 <str_lcmp+0x160>
    47f6:	89 d1                	mov    %edx,%ecx
    47f8:	89 c2                	mov    %eax,%edx
    47fa:	c1 e1 06             	shl    $0x6,%ecx
    47fd:	83 e2 3f             	and    $0x3f,%edx
    4800:	09 ca                	or     %ecx,%edx
    4802:	39 de                	cmp    %ebx,%esi
    4804:	75 e2                	jne    47e8 <str_lcmp+0x138>
    4806:	8b 7d ec             	mov    -0x14(%ebp),%edi
    4809:	e9 cc fe ff ff       	jmp    46da <str_lcmp+0x2a>
    480e:	66 90                	xchg   %ax,%ax
    4810:	8b 7d ec             	mov    -0x14(%ebp),%edi
    4813:	ba 3f 00 00 00       	mov    $0x3f,%edx
    4818:	e9 bd fe ff ff       	jmp    46da <str_lcmp+0x2a>
    481d:	b1 1f                	mov    $0x1f,%cl
    481f:	c7 45 e8 01 00 00 00 	movl   $0x1,-0x18(%ebp)
    4826:	21 c8                	and    %ecx,%eax
    4828:	8b 4d 0c             	mov    0xc(%ebp),%ecx
    482b:	25 ff 00 00 00       	and    $0xff,%eax
    4830:	83 c7 02             	add    $0x2,%edi
    4833:	8a 0c 19             	mov    (%ecx,%ebx,1),%cl
    4836:	88 4d e7             	mov    %cl,-0x19(%ebp)
    4839:	83 e1 c0             	and    $0xffffffc0,%ecx
    483c:	80 f9 80             	cmp    $0x80,%cl
    483f:	0f 85 a9 00 00 00    	jne    48ee <str_lcmp+0x23e>
    4845:	8b 4d e8             	mov    -0x18(%ebp),%ecx
    4848:	89 75 ec             	mov    %esi,-0x14(%ebp)
    484b:	01 cb                	add    %ecx,%ebx
    484d:	89 55 e8             	mov    %edx,-0x18(%ebp)
    4850:	8a 4d e7             	mov    -0x19(%ebp),%cl
    4853:	8b 75 0c             	mov    0xc(%ebp),%esi
    4856:	eb 0e                	jmp    4866 <str_lcmp+0x1b6>
    4858:	8a 0c 3e             	mov    (%esi,%edi,1),%cl
    485b:	47                   	inc    %edi
    485c:	88 ca                	mov    %cl,%dl
    485e:	83 e2 c0             	and    $0xffffffc0,%edx
    4861:	80 fa 80             	cmp    $0x80,%dl
    4864:	75 22                	jne    4888 <str_lcmp+0x1d8>
    4866:	89 c2                	mov    %eax,%edx
    4868:	89 c8                	mov    %ecx,%eax
    486a:	c1 e2 06             	shl    $0x6,%edx
    486d:	83 e0 3f             	and    $0x3f,%eax
    4870:	09 d0                	or     %edx,%eax
    4872:	39 df                	cmp    %ebx,%edi
    4874:	75 e2                	jne    4858 <str_lcmp+0x1a8>
    4876:	8b 75 ec             	mov    -0x14(%ebp),%esi
    4879:	8b 55 e8             	mov    -0x18(%ebp),%edx
    487c:	e9 6d fe ff ff       	jmp    46ee <str_lcmp+0x3e>
    4881:	8d b4 26 00 00 00 00 	lea    0x0(%esi,%eiz,1),%esi
    4888:	8b 75 ec             	mov    -0x14(%ebp),%esi
    488b:	8b 55 e8             	mov    -0x18(%ebp),%edx
    488e:	b8 3f 00 00 00       	mov    $0x3f,%eax
    4893:	e9 56 fe ff ff       	jmp    46ee <str_lcmp+0x3e>
    4898:	b1 0f                	mov    $0xf,%cl
    489a:	c7 45 e8 02 00 00 00 	movl   $0x2,-0x18(%ebp)
    48a1:	eb 83                	jmp    4826 <str_lcmp+0x176>
    48a3:	b0 0f                	mov    $0xf,%al
    48a5:	c7 45 e8 02 00 00 00 	movl   $0x2,-0x18(%ebp)
    48ac:	e9 04 ff ff ff       	jmp    47b5 <str_lcmp+0x105>
    48b1:	83 c4 10             	add    $0x10,%esp
    48b4:	31 c0                	xor    %eax,%eax
    48b6:	5b                   	pop    %ebx
    48b7:	5e                   	pop    %esi
    48b8:	5f                   	pop    %edi
    48b9:	5d                   	pop    %ebp
    48ba:	c3                   	ret    
    48bb:	b0 07                	mov    $0x7,%al
    48bd:	c7 45 e8 03 00 00 00 	movl   $0x3,-0x18(%ebp)
    48c4:	e9 ec fe ff ff       	jmp    47b5 <str_lcmp+0x105>
    48c9:	b1 07                	mov    $0x7,%cl
    48cb:	c7 45 e8 03 00 00 00 	movl   $0x3,-0x18(%ebp)
    48d2:	e9 4f ff ff ff       	jmp    4826 <str_lcmp+0x176>
    48d7:	83 c4 10             	add    $0x10,%esp
    48da:	b8 01 00 00 00       	mov    $0x1,%eax
    48df:	5b                   	pop    %ebx
    48e0:	5e                   	pop    %esi
    48e1:	5f                   	pop    %edi
    48e2:	5d                   	pop    %ebp
    48e3:	c3                   	ret    
    48e4:	ba 3f 00 00 00       	mov    $0x3f,%edx
    48e9:	e9 ec fd ff ff       	jmp    46da <str_lcmp+0x2a>
    48ee:	b8 3f 00 00 00       	mov    $0x3f,%eax
    48f3:	e9 f6 fd ff ff       	jmp    46ee <str_lcmp+0x3e>
    48f8:	90                   	nop
    48f9:	8d b4 26 00 00 00 00 	lea    0x0(%esi,%eiz,1),%esi

00004900 <str_test_prefix>:
    4900:	55                   	push   %ebp
    4901:	31 c9                	xor    %ecx,%ecx
    4903:	89 e5                	mov    %esp,%ebp
    4905:	57                   	push   %edi
    4906:	56                   	push   %esi
    4907:	31 f6                	xor    %esi,%esi
    4909:	53                   	push   %ebx
    490a:	89 f7                	mov    %esi,%edi
    490c:	83 ec 0c             	sub    $0xc,%esp
    490f:	eb 27                	jmp    4938 <str_test_prefix+0x38>
    4911:	8d b4 26 00 00 00 00 	lea    0x0(%esi,%eiz,1),%esi
    4918:	89 f1                	mov    %esi,%ecx
    491a:	8b 45 0c             	mov    0xc(%ebp),%eax
    491d:	8d 77 01             	lea    0x1(%edi),%esi
    4920:	8a 1c 38             	mov    (%eax,%edi,1),%bl
    4923:	84 db                	test   %bl,%bl
    4925:	78 59                	js     4980 <str_test_prefix+0x80>
    4927:	0f be c3             	movsbl %bl,%eax
    492a:	89 f7                	mov    %esi,%edi
    492c:	85 c0                	test   %eax,%eax
    492e:	0f 84 68 01 00 00    	je     4a9c <str_test_prefix+0x19c>
    4934:	39 c2                	cmp    %eax,%edx
    4936:	75 7a                	jne    49b2 <str_test_prefix+0xb2>
    4938:	8b 45 08             	mov    0x8(%ebp),%eax
    493b:	8d 71 01             	lea    0x1(%ecx),%esi
    493e:	0f be 14 08          	movsbl (%eax,%ecx,1),%edx
    4942:	84 d2                	test   %dl,%dl
    4944:	79 d2                	jns    4918 <str_test_prefix+0x18>
    4946:	88 d0                	mov    %dl,%al
    4948:	83 e0 e0             	and    $0xffffffe0,%eax
    494b:	3c c0                	cmp    $0xc0,%al
    494d:	74 6d                	je     49bc <str_test_prefix+0xbc>
    494f:	88 d0                	mov    %dl,%al
    4951:	83 e0 f0             	and    $0xfffffff0,%eax
    4954:	3c e0                	cmp    $0xe0,%al
    4956:	0f 84 57 01 00 00    	je     4ab3 <str_test_prefix+0x1b3>
    495c:	88 d0                	mov    %dl,%al
    495e:	83 e0 f8             	and    $0xfffffff8,%eax
    4961:	3c f0                	cmp    $0xf0,%al
    4963:	0f 84 66 01 00 00    	je     4acf <str_test_prefix+0x1cf>
    4969:	8b 45 0c             	mov    0xc(%ebp),%eax
    496c:	89 f1                	mov    %esi,%ecx
    496e:	ba 3f 00 00 00       	mov    $0x3f,%edx
    4973:	8d 77 01             	lea    0x1(%edi),%esi
    4976:	8a 1c 38             	mov    (%eax,%edi,1),%bl
    4979:	84 db                	test   %bl,%bl
    497b:	79 aa                	jns    4927 <str_test_prefix+0x27>
    497d:	8d 76 00             	lea    0x0(%esi),%esi
    4980:	88 d8                	mov    %bl,%al
    4982:	83 e0 e0             	and    $0xffffffe0,%eax
    4985:	3c c0                	cmp    $0xc0,%al
    4987:	0f 84 a0 00 00 00    	je     4a2d <str_test_prefix+0x12d>
    498d:	88 d8                	mov    %bl,%al
    498f:	83 e0 f0             	and    $0xfffffff0,%eax
    4992:	3c e0                	cmp    $0xe0,%al
    4994:	0f 84 27 01 00 00    	je     4ac1 <str_test_prefix+0x1c1>
    499a:	88 d8                	mov    %bl,%al
    499c:	83 e0 f8             	and    $0xfffffff8,%eax
    499f:	3c f0                	cmp    $0xf0,%al
    49a1:	0f 84 36 01 00 00    	je     4add <str_test_prefix+0x1dd>
    49a7:	89 f7                	mov    %esi,%edi
    49a9:	b8 3f 00 00 00       	mov    $0x3f,%eax
    49ae:	39 c2                	cmp    %eax,%edx
    49b0:	74 86                	je     4938 <str_test_prefix+0x38>
    49b2:	83 c4 0c             	add    $0xc,%esp
    49b5:	31 c0                	xor    %eax,%eax
    49b7:	5b                   	pop    %ebx
    49b8:	5e                   	pop    %esi
    49b9:	5f                   	pop    %edi
    49ba:	5d                   	pop    %ebp
    49bb:	c3                   	ret    
    49bc:	b0 1f                	mov    $0x1f,%al
    49be:	c7 45 ec 01 00 00 00 	movl   $0x1,-0x14(%ebp)
    49c5:	8b 5d 08             	mov    0x8(%ebp),%ebx
    49c8:	21 c2                	and    %eax,%edx
    49ca:	81 e2 ff 00 00 00    	and    $0xff,%edx
    49d0:	83 c1 02             	add    $0x2,%ecx
    49d3:	8a 04 33             	mov    (%ebx,%esi,1),%al
    49d6:	88 c3                	mov    %al,%bl
    49d8:	83 e3 c0             	and    $0xffffffc0,%ebx
    49db:	80 fb 80             	cmp    $0x80,%bl
    49de:	0f 85 07 01 00 00    	jne    4aeb <str_test_prefix+0x1eb>
    49e4:	8b 5d ec             	mov    -0x14(%ebp),%ebx
    49e7:	89 7d f0             	mov    %edi,-0x10(%ebp)
    49ea:	01 de                	add    %ebx,%esi
    49ec:	8b 7d 08             	mov    0x8(%ebp),%edi
    49ef:	eb 15                	jmp    4a06 <str_test_prefix+0x106>
    49f1:	8d b4 26 00 00 00 00 	lea    0x0(%esi,%eiz,1),%esi
    49f8:	8a 04 0f             	mov    (%edi,%ecx,1),%al
    49fb:	41                   	inc    %ecx
    49fc:	88 c3                	mov    %al,%bl
    49fe:	83 e3 c0             	and    $0xffffffc0,%ebx
    4a01:	80 fb 80             	cmp    $0x80,%bl
    4a04:	75 1a                	jne    4a20 <str_test_prefix+0x120>
    4a06:	89 d3                	mov    %edx,%ebx
    4a08:	89 c2                	mov    %eax,%edx
    4a0a:	c1 e3 06             	shl    $0x6,%ebx
    4a0d:	83 e2 3f             	and    $0x3f,%edx
    4a10:	09 da                	or     %ebx,%edx
    4a12:	39 f1                	cmp    %esi,%ecx
    4a14:	75 e2                	jne    49f8 <str_test_prefix+0xf8>
    4a16:	8b 7d f0             	mov    -0x10(%ebp),%edi
    4a19:	e9 fc fe ff ff       	jmp    491a <str_test_prefix+0x1a>
    4a1e:	66 90                	xchg   %ax,%ax
    4a20:	8b 7d f0             	mov    -0x10(%ebp),%edi
    4a23:	ba 3f 00 00 00       	mov    $0x3f,%edx
    4a28:	e9 ed fe ff ff       	jmp    491a <str_test_prefix+0x1a>
    4a2d:	b0 1f                	mov    $0x1f,%al
    4a2f:	c7 45 ec 01 00 00 00 	movl   $0x1,-0x14(%ebp)
    4a36:	21 c3                	and    %eax,%ebx
    4a38:	31 c0                	xor    %eax,%eax
    4a3a:	88 d8                	mov    %bl,%al
    4a3c:	8b 5d 0c             	mov    0xc(%ebp),%ebx
    4a3f:	83 c7 02             	add    $0x2,%edi
    4a42:	8a 1c 33             	mov    (%ebx,%esi,1),%bl
    4a45:	88 5d eb             	mov    %bl,-0x15(%ebp)
    4a48:	83 e3 c0             	and    $0xffffffc0,%ebx
    4a4b:	80 fb 80             	cmp    $0x80,%bl
    4a4e:	0f 85 55 ff ff ff    	jne    49a9 <str_test_prefix+0xa9>
    4a54:	8b 5d ec             	mov    -0x14(%ebp),%ebx
    4a57:	89 4d f0             	mov    %ecx,-0x10(%ebp)
    4a5a:	01 de                	add    %ebx,%esi
    4a5c:	89 55 ec             	mov    %edx,-0x14(%ebp)
    4a5f:	89 f1                	mov    %esi,%ecx
    4a61:	8a 5d eb             	mov    -0x15(%ebp),%bl
    4a64:	8b 75 0c             	mov    0xc(%ebp),%esi
    4a67:	eb 15                	jmp    4a7e <str_test_prefix+0x17e>
    4a69:	8d b4 26 00 00 00 00 	lea    0x0(%esi,%eiz,1),%esi
    4a70:	8a 1c 3e             	mov    (%esi,%edi,1),%bl
    4a73:	47                   	inc    %edi
    4a74:	88 da                	mov    %bl,%dl
    4a76:	83 e2 c0             	and    $0xffffffc0,%edx
    4a79:	80 fa 80             	cmp    $0x80,%dl
    4a7c:	75 2a                	jne    4aa8 <str_test_prefix+0x1a8>
    4a7e:	89 c2                	mov    %eax,%edx
    4a80:	89 d8                	mov    %ebx,%eax
    4a82:	c1 e2 06             	shl    $0x6,%edx
    4a85:	83 e0 3f             	and    $0x3f,%eax
    4a88:	09 d0                	or     %edx,%eax
    4a8a:	39 cf                	cmp    %ecx,%edi
    4a8c:	75 e2                	jne    4a70 <str_test_prefix+0x170>
    4a8e:	8b 4d f0             	mov    -0x10(%ebp),%ecx
    4a91:	8b 55 ec             	mov    -0x14(%ebp),%edx
    4a94:	85 c0                	test   %eax,%eax
    4a96:	0f 85 98 fe ff ff    	jne    4934 <str_test_prefix+0x34>
    4a9c:	83 c4 0c             	add    $0xc,%esp
    4a9f:	b0 01                	mov    $0x1,%al
    4aa1:	5b                   	pop    %ebx
    4aa2:	5e                   	pop    %esi
    4aa3:	5f                   	pop    %edi
    4aa4:	5d                   	pop    %ebp
    4aa5:	c3                   	ret    
    4aa6:	66 90                	xchg   %ax,%ax
    4aa8:	8b 4d f0             	mov    -0x10(%ebp),%ecx
    4aab:	8b 55 ec             	mov    -0x14(%ebp),%edx
    4aae:	e9 f6 fe ff ff       	jmp    49a9 <str_test_prefix+0xa9>
    4ab3:	b0 0f                	mov    $0xf,%al
    4ab5:	c7 45 ec 02 00 00 00 	movl   $0x2,-0x14(%ebp)
    4abc:	e9 04 ff ff ff       	jmp    49c5 <str_test_prefix+0xc5>
    4ac1:	b0 0f                	mov    $0xf,%al
    4ac3:	c7 45 ec 02 00 00 00 	movl   $0x2,-0x14(%ebp)
    4aca:	e9 67 ff ff ff       	jmp    4a36 <str_test_prefix+0x136>
    4acf:	b0 07                	mov    $0x7,%al
    4ad1:	c7 45 ec 03 00 00 00 	movl   $0x3,-0x14(%ebp)
    4ad8:	e9 e8 fe ff ff       	jmp    49c5 <str_test_prefix+0xc5>
    4add:	b0 07                	mov    $0x7,%al
    4adf:	c7 45 ec 03 00 00 00 	movl   $0x3,-0x14(%ebp)
    4ae6:	e9 4b ff ff ff       	jmp    4a36 <str_test_prefix+0x136>
    4aeb:	ba 3f 00 00 00       	mov    $0x3f,%edx
    4af0:	e9 25 fe ff ff       	jmp    491a <str_test_prefix+0x1a>
    4af5:	8d 74 26 00          	lea    0x0(%esi,%eiz,1),%esi
    4af9:	8d bc 27 00 00 00 00 	lea    0x0(%edi,%eiz,1),%edi

00004b00 <str_cpy>:
    4b00:	55                   	push   %ebp
    4b01:	89 e5                	mov    %esp,%ebp
    4b03:	57                   	push   %edi
    4b04:	56                   	push   %esi
    4b05:	53                   	push   %ebx
    4b06:	83 ec 4c             	sub    $0x4c,%esp
    4b09:	8b 45 0c             	mov    0xc(%ebp),%eax
    4b0c:	8b 7d 10             	mov    0x10(%ebp),%edi
    4b0f:	85 c0                	test   %eax,%eax
    4b11:	0f 84 ae 01 00 00    	je     4cc5 <str_cpy+0x1c5>
    4b17:	31 f6                	xor    %esi,%esi
    4b19:	48                   	dec    %eax
    4b1a:	c7 45 e4 00 00 00 00 	movl   $0x0,-0x1c(%ebp)
    4b21:	89 45 e0             	mov    %eax,-0x20(%ebp)
    4b24:	0f be 0c 37          	movsbl (%edi,%esi,1),%ecx
    4b28:	8d 56 01             	lea    0x1(%esi),%edx
    4b2b:	84 c9                	test   %cl,%cl
    4b2d:	78 5e                	js     4b8d <str_cpy+0x8d>
    4b2f:	90                   	nop
    4b30:	89 d6                	mov    %edx,%esi
    4b32:	85 c9                	test   %ecx,%ecx
    4b34:	0f 84 8e 00 00 00    	je     4bc8 <str_cpy+0xc8>
    4b3a:	8b 45 e4             	mov    -0x1c(%ebp),%eax
    4b3d:	39 45 e0             	cmp    %eax,-0x20(%ebp)
    4b40:	0f 86 82 00 00 00    	jbe    4bc8 <str_cpy+0xc8>
    4b46:	81 f9 ff ff 10 00    	cmp    $0x10ffff,%ecx
    4b4c:	77 7a                	ja     4bc8 <str_cpy+0xc8>
    4b4e:	f7 c1 80 ff ff ff    	test   $0xffffff80,%ecx
    4b54:	0f 85 86 00 00 00    	jne    4be0 <str_cpy+0xe0>
    4b5a:	8b 45 e4             	mov    -0x1c(%ebp),%eax
    4b5d:	c6 45 b8 00          	movb   $0x0,-0x48(%ebp)
    4b61:	89 45 dc             	mov    %eax,-0x24(%ebp)
    4b64:	c6 45 c8 7f          	movb   $0x7f,-0x38(%ebp)
    4b68:	8b 45 c8             	mov    -0x38(%ebp),%eax
    4b6b:	8b 55 08             	mov    0x8(%ebp),%edx
    4b6e:	21 c1                	and    %eax,%ecx
    4b70:	8b 45 b8             	mov    -0x48(%ebp),%eax
    4b73:	09 c1                	or     %eax,%ecx
    4b75:	8b 45 e4             	mov    -0x1c(%ebp),%eax
    4b78:	8b 5d dc             	mov    -0x24(%ebp),%ebx
    4b7b:	88 0c 02             	mov    %cl,(%edx,%eax,1)
    4b7e:	43                   	inc    %ebx
    4b7f:	0f be 0c 37          	movsbl (%edi,%esi,1),%ecx
    4b83:	89 5d e4             	mov    %ebx,-0x1c(%ebp)
    4b86:	8d 56 01             	lea    0x1(%esi),%edx
    4b89:	84 c9                	test   %cl,%cl
    4b8b:	79 a3                	jns    4b30 <str_cpy+0x30>
    4b8d:	88 c8                	mov    %cl,%al
    4b8f:	83 e0 e0             	and    $0xffffffe0,%eax
    4b92:	3c c0                	cmp    $0xc0,%al
    4b94:	0f 84 bd 00 00 00    	je     4c57 <str_cpy+0x157>
    4b9a:	88 c8                	mov    %cl,%al
    4b9c:	83 e0 f0             	and    $0xfffffff0,%eax
    4b9f:	3c e0                	cmp    $0xe0,%al
    4ba1:	0f 84 08 01 00 00    	je     4caf <str_cpy+0x1af>
    4ba7:	88 c8                	mov    %cl,%al
    4ba9:	83 e0 f8             	and    $0xfffffff8,%eax
    4bac:	3c f0                	cmp    $0xf0,%al
    4bae:	0f 84 06 01 00 00    	je     4cba <str_cpy+0x1ba>
    4bb4:	89 d6                	mov    %edx,%esi
    4bb6:	8b 45 e4             	mov    -0x1c(%ebp),%eax
    4bb9:	b9 3f 00 00 00       	mov    $0x3f,%ecx
    4bbe:	39 45 e0             	cmp    %eax,-0x20(%ebp)
    4bc1:	0f 87 7f ff ff ff    	ja     4b46 <str_cpy+0x46>
    4bc7:	90                   	nop
    4bc8:	8b 5d 08             	mov    0x8(%ebp),%ebx
    4bcb:	8b 55 e4             	mov    -0x1c(%ebp),%edx
    4bce:	c6 04 13 00          	movb   $0x0,(%ebx,%edx,1)
    4bd2:	83 c4 4c             	add    $0x4c,%esp
    4bd5:	5b                   	pop    %ebx
    4bd6:	5e                   	pop    %esi
    4bd7:	5f                   	pop    %edi
    4bd8:	5d                   	pop    %ebp
    4bd9:	c3                   	ret    
    4bda:	8d b6 00 00 00 00    	lea    0x0(%esi),%esi
    4be0:	f7 c1 00 f8 ff ff    	test   $0xfffff800,%ecx
    4be6:	74 60                	je     4c48 <str_cpy+0x148>
    4be8:	89 c8                	mov    %ecx,%eax
    4bea:	25 00 00 ff ff       	and    $0xffff0000,%eax
    4bef:	83 f8 01             	cmp    $0x1,%eax
    4bf2:	19 d2                	sbb    %edx,%edx
    4bf4:	83 e2 f0             	and    $0xfffffff0,%edx
    4bf7:	83 ea 10             	sub    $0x10,%edx
    4bfa:	83 f8 01             	cmp    $0x1,%eax
    4bfd:	19 db                	sbb    %ebx,%ebx
    4bff:	88 55 b8             	mov    %dl,-0x48(%ebp)
    4c02:	83 e3 08             	and    $0x8,%ebx
    4c05:	83 c3 07             	add    $0x7,%ebx
    4c08:	83 f8 01             	cmp    $0x1,%eax
    4c0b:	19 c0                	sbb    %eax,%eax
    4c0d:	88 5d c8             	mov    %bl,-0x38(%ebp)
    4c10:	83 c0 03             	add    $0x3,%eax
    4c13:	8b 55 e4             	mov    -0x1c(%ebp),%edx
    4c16:	01 c2                	add    %eax,%edx
    4c18:	89 55 dc             	mov    %edx,-0x24(%ebp)
    4c1b:	39 55 e0             	cmp    %edx,-0x20(%ebp)
    4c1e:	76 a8                	jbe    4bc8 <str_cpy+0xc8>
    4c20:	8b 55 08             	mov    0x8(%ebp),%edx
    4c23:	8b 5d e4             	mov    -0x1c(%ebp),%ebx
    4c26:	8d 1c 1a             	lea    (%edx,%ebx,1),%ebx
    4c29:	89 5d d8             	mov    %ebx,-0x28(%ebp)
    4c2c:	8d 74 26 00          	lea    0x0(%esi,%eiz,1),%esi
    4c30:	89 ca                	mov    %ecx,%edx
    4c32:	c1 e9 06             	shr    $0x6,%ecx
    4c35:	83 e2 3f             	and    $0x3f,%edx
    4c38:	80 ca 80             	or     $0x80,%dl
    4c3b:	88 14 03             	mov    %dl,(%ebx,%eax,1)
    4c3e:	48                   	dec    %eax
    4c3f:	75 ef                	jne    4c30 <str_cpy+0x130>
    4c41:	e9 22 ff ff ff       	jmp    4b68 <str_cpy+0x68>
    4c46:	66 90                	xchg   %ax,%ax
    4c48:	c6 45 b8 c0          	movb   $0xc0,-0x48(%ebp)
    4c4c:	c6 45 c8 1f          	movb   $0x1f,-0x38(%ebp)
    4c50:	b8 01 00 00 00       	mov    $0x1,%eax
    4c55:	eb bc                	jmp    4c13 <str_cpy+0x113>
    4c57:	b0 1f                	mov    $0x1f,%al
    4c59:	c7 45 dc 01 00 00 00 	movl   $0x1,-0x24(%ebp)
    4c60:	21 c1                	and    %eax,%ecx
    4c62:	8a 04 17             	mov    (%edi,%edx,1),%al
    4c65:	88 c3                	mov    %al,%bl
    4c67:	81 e1 ff 00 00 00    	and    $0xff,%ecx
    4c6d:	83 e3 c0             	and    $0xffffffc0,%ebx
    4c70:	83 c6 02             	add    $0x2,%esi
    4c73:	80 fb 80             	cmp    $0x80,%bl
    4c76:	0f 85 3a ff ff ff    	jne    4bb6 <str_cpy+0xb6>
    4c7c:	8b 5d dc             	mov    -0x24(%ebp),%ebx
    4c7f:	01 da                	add    %ebx,%edx
    4c81:	eb 17                	jmp    4c9a <str_cpy+0x19a>
    4c83:	90                   	nop
    4c84:	8d 74 26 00          	lea    0x0(%esi,%eiz,1),%esi
    4c88:	8a 04 37             	mov    (%edi,%esi,1),%al
    4c8b:	46                   	inc    %esi
    4c8c:	88 c3                	mov    %al,%bl
    4c8e:	83 e3 c0             	and    $0xffffffc0,%ebx
    4c91:	80 fb 80             	cmp    $0x80,%bl
    4c94:	0f 85 1c ff ff ff    	jne    4bb6 <str_cpy+0xb6>
    4c9a:	89 cb                	mov    %ecx,%ebx
    4c9c:	89 c1                	mov    %eax,%ecx
    4c9e:	c1 e3 06             	shl    $0x6,%ebx
    4ca1:	83 e1 3f             	and    $0x3f,%ecx
    4ca4:	09 d9                	or     %ebx,%ecx
    4ca6:	39 d6                	cmp    %edx,%esi
    4ca8:	75 de                	jne    4c88 <str_cpy+0x188>
    4caa:	e9 83 fe ff ff       	jmp    4b32 <str_cpy+0x32>
    4caf:	b0 0f                	mov    $0xf,%al
    4cb1:	c7 45 dc 02 00 00 00 	movl   $0x2,-0x24(%ebp)
    4cb8:	eb a6                	jmp    4c60 <str_cpy+0x160>
    4cba:	b0 07                	mov    $0x7,%al
    4cbc:	c7 45 dc 03 00 00 00 	movl   $0x3,-0x24(%ebp)
    4cc3:	eb 9b                	jmp    4c60 <str_cpy+0x160>
    4cc5:	c7 44 24 08 88 02 00 	movl   $0x288,0x8(%esp)
    4ccc:	00 
    4ccd:	c7 44 24 04 4d 0e 02 	movl   $0x20e4d,0x4(%esp)
    4cd4:	00 
    4cd5:	c7 04 24 6e 16 02 00 	movl   $0x2166e,(%esp)
    4cdc:	e8 cf 55 01 00       	call   1a2b0 <assert_abort>
    4ce1:	eb 0d                	jmp    4cf0 <str_ncpy>
    4ce3:	90                   	nop
    4ce4:	90                   	nop
    4ce5:	90                   	nop
    4ce6:	90                   	nop
    4ce7:	90                   	nop
    4ce8:	90                   	nop
    4ce9:	90                   	nop
    4cea:	90                   	nop
    4ceb:	90                   	nop
    4cec:	90                   	nop
    4ced:	90                   	nop
    4cee:	90                   	nop
    4cef:	90                   	nop

00004cf0 <str_ncpy>:
    4cf0:	55                   	push   %ebp
    4cf1:	89 e5                	mov    %esp,%ebp
    4cf3:	57                   	push   %edi
    4cf4:	56                   	push   %esi
    4cf5:	53                   	push   %ebx
    4cf6:	83 ec 4c             	sub    $0x4c,%esp
    4cf9:	8b 45 0c             	mov    0xc(%ebp),%eax
    4cfc:	8b 7d 10             	mov    0x10(%ebp),%edi
    4cff:	85 c0                	test   %eax,%eax
    4d01:	0f 84 f7 01 00 00    	je     4efe <str_ncpy+0x20e>
    4d07:	8b 55 14             	mov    0x14(%ebp),%edx
    4d0a:	c7 45 e4 00 00 00 00 	movl   $0x0,-0x1c(%ebp)
    4d11:	85 d2                	test   %edx,%edx
    4d13:	74 42                	je     4d57 <str_ncpy+0x67>
    4d15:	31 f6                	xor    %esi,%esi
    4d17:	48                   	dec    %eax
    4d18:	89 45 e0             	mov    %eax,-0x20(%ebp)
    4d1b:	ba 01 00 00 00       	mov    $0x1,%edx
    4d20:	8a 04 37             	mov    (%edi,%esi,1),%al
    4d23:	84 c0                	test   %al,%al
    4d25:	0f 88 92 00 00 00    	js     4dbd <str_ncpy+0xcd>
    4d2b:	90                   	nop
    4d2c:	8d 74 26 00          	lea    0x0(%esi,%eiz,1),%esi
    4d30:	b1 7f                	mov    $0x7f,%cl
    4d32:	31 f6                	xor    %esi,%esi
    4d34:	8d 1c 16             	lea    (%esi,%edx,1),%ebx
    4d37:	39 5d 14             	cmp    %ebx,0x14(%ebp)
    4d3a:	0f 83 c0 00 00 00    	jae    4e00 <str_ncpy+0x110>
    4d40:	89 d6                	mov    %edx,%esi
    4d42:	b9 3f 00 00 00       	mov    $0x3f,%ecx
    4d47:	8b 45 e0             	mov    -0x20(%ebp),%eax
    4d4a:	39 45 e4             	cmp    %eax,-0x1c(%ebp)
    4d4d:	73 08                	jae    4d57 <str_ncpy+0x67>
    4d4f:	81 f9 ff ff 10 00    	cmp    $0x10ffff,%ecx
    4d55:	76 19                	jbe    4d70 <str_ncpy+0x80>
    4d57:	8b 55 08             	mov    0x8(%ebp),%edx
    4d5a:	8b 45 e4             	mov    -0x1c(%ebp),%eax
    4d5d:	c6 04 02 00          	movb   $0x0,(%edx,%eax,1)
    4d61:	83 c4 4c             	add    $0x4c,%esp
    4d64:	5b                   	pop    %ebx
    4d65:	5e                   	pop    %esi
    4d66:	5f                   	pop    %edi
    4d67:	5d                   	pop    %ebp
    4d68:	c3                   	ret    
    4d69:	8d b4 26 00 00 00 00 	lea    0x0(%esi,%eiz,1),%esi
    4d70:	f7 c1 80 ff ff ff    	test   $0xffffff80,%ecx
    4d76:	0f 85 dc 00 00 00    	jne    4e58 <str_ncpy+0x168>
    4d7c:	8b 5d e4             	mov    -0x1c(%ebp),%ebx
    4d7f:	c6 45 c8 00          	movb   $0x0,-0x38(%ebp)
    4d83:	89 5d dc             	mov    %ebx,-0x24(%ebp)
    4d86:	c6 45 b8 7f          	movb   $0x7f,-0x48(%ebp)
    4d8a:	8d b6 00 00 00 00    	lea    0x0(%esi),%esi
    4d90:	8b 45 b8             	mov    -0x48(%ebp),%eax
    4d93:	8b 55 08             	mov    0x8(%ebp),%edx
    4d96:	21 c1                	and    %eax,%ecx
    4d98:	8b 45 c8             	mov    -0x38(%ebp),%eax
    4d9b:	09 c1                	or     %eax,%ecx
    4d9d:	8b 45 e4             	mov    -0x1c(%ebp),%eax
    4da0:	8b 5d dc             	mov    -0x24(%ebp),%ebx
    4da3:	43                   	inc    %ebx
    4da4:	88 0c 02             	mov    %cl,(%edx,%eax,1)
    4da7:	8d 56 01             	lea    0x1(%esi),%edx
    4daa:	89 5d e4             	mov    %ebx,-0x1c(%ebp)
    4dad:	39 55 14             	cmp    %edx,0x14(%ebp)
    4db0:	72 a5                	jb     4d57 <str_ncpy+0x67>
    4db2:	8a 04 37             	mov    (%edi,%esi,1),%al
    4db5:	84 c0                	test   %al,%al
    4db7:	0f 89 73 ff ff ff    	jns    4d30 <str_ncpy+0x40>
    4dbd:	88 c1                	mov    %al,%cl
    4dbf:	83 e1 e0             	and    $0xffffffe0,%ecx
    4dc2:	80 f9 c0             	cmp    $0xc0,%cl
    4dc5:	0f 84 0c 01 00 00    	je     4ed7 <str_ncpy+0x1e7>
    4dcb:	88 c1                	mov    %al,%cl
    4dcd:	83 e1 f0             	and    $0xfffffff0,%ecx
    4dd0:	80 f9 e0             	cmp    $0xe0,%cl
    4dd3:	0f 84 0a 01 00 00    	je     4ee3 <str_ncpy+0x1f3>
    4dd9:	88 c1                	mov    %al,%cl
    4ddb:	83 e1 f8             	and    $0xfffffff8,%ecx
    4dde:	80 f9 f0             	cmp    $0xf0,%cl
    4de1:	0f 85 59 ff ff ff    	jne    4d40 <str_ncpy+0x50>
    4de7:	be 03 00 00 00       	mov    $0x3,%esi
    4dec:	b1 07                	mov    $0x7,%cl
    4dee:	8d 1c 16             	lea    (%esi,%edx,1),%ebx
    4df1:	39 5d 14             	cmp    %ebx,0x14(%ebp)
    4df4:	0f 82 46 ff ff ff    	jb     4d40 <str_ncpy+0x50>
    4dfa:	8d b6 00 00 00 00    	lea    0x0(%esi),%esi
    4e00:	21 c1                	and    %eax,%ecx
    4e02:	81 e1 ff 00 00 00    	and    $0xff,%ecx
    4e08:	85 f6                	test   %esi,%esi
    4e0a:	0f 84 df 00 00 00    	je     4eef <str_ncpy+0x1ff>
    4e10:	8a 04 17             	mov    (%edi,%edx,1),%al
    4e13:	8d 72 01             	lea    0x1(%edx),%esi
    4e16:	88 c2                	mov    %al,%dl
    4e18:	83 e2 c0             	and    $0xffffffc0,%edx
    4e1b:	80 fa 80             	cmp    $0x80,%dl
    4e1e:	74 1a                	je     4e3a <str_ncpy+0x14a>
    4e20:	e9 ab 00 00 00       	jmp    4ed0 <str_ncpy+0x1e0>
    4e25:	8d 76 00             	lea    0x0(%esi),%esi
    4e28:	8a 04 37             	mov    (%edi,%esi,1),%al
    4e2b:	46                   	inc    %esi
    4e2c:	88 c2                	mov    %al,%dl
    4e2e:	83 e2 c0             	and    $0xffffffc0,%edx
    4e31:	80 fa 80             	cmp    $0x80,%dl
    4e34:	0f 85 96 00 00 00    	jne    4ed0 <str_ncpy+0x1e0>
    4e3a:	89 ca                	mov    %ecx,%edx
    4e3c:	89 c1                	mov    %eax,%ecx
    4e3e:	c1 e2 06             	shl    $0x6,%edx
    4e41:	83 e1 3f             	and    $0x3f,%ecx
    4e44:	09 d1                	or     %edx,%ecx
    4e46:	39 f3                	cmp    %esi,%ebx
    4e48:	75 de                	jne    4e28 <str_ncpy+0x138>
    4e4a:	85 c9                	test   %ecx,%ecx
    4e4c:	0f 85 f5 fe ff ff    	jne    4d47 <str_ncpy+0x57>
    4e52:	e9 00 ff ff ff       	jmp    4d57 <str_ncpy+0x67>
    4e57:	90                   	nop
    4e58:	f7 c1 00 f8 ff ff    	test   $0xfffff800,%ecx
    4e5e:	74 60                	je     4ec0 <str_ncpy+0x1d0>
    4e60:	89 c8                	mov    %ecx,%eax
    4e62:	25 00 00 ff ff       	and    $0xffff0000,%eax
    4e67:	83 f8 01             	cmp    $0x1,%eax
    4e6a:	19 d2                	sbb    %edx,%edx
    4e6c:	83 e2 f0             	and    $0xfffffff0,%edx
    4e6f:	83 ea 10             	sub    $0x10,%edx
    4e72:	83 f8 01             	cmp    $0x1,%eax
    4e75:	19 db                	sbb    %ebx,%ebx
    4e77:	88 55 c8             	mov    %dl,-0x38(%ebp)
    4e7a:	83 e3 08             	and    $0x8,%ebx
    4e7d:	83 c3 07             	add    $0x7,%ebx
    4e80:	83 f8 01             	cmp    $0x1,%eax
    4e83:	19 c0                	sbb    %eax,%eax
    4e85:	88 5d b8             	mov    %bl,-0x48(%ebp)
    4e88:	83 c0 03             	add    $0x3,%eax
    4e8b:	8b 5d e4             	mov    -0x1c(%ebp),%ebx
    4e8e:	01 c3                	add    %eax,%ebx
    4e90:	89 5d dc             	mov    %ebx,-0x24(%ebp)
    4e93:	39 5d e0             	cmp    %ebx,-0x20(%ebp)
    4e96:	0f 86 bb fe ff ff    	jbe    4d57 <str_ncpy+0x67>
    4e9c:	8b 5d 08             	mov    0x8(%ebp),%ebx
    4e9f:	8b 55 e4             	mov    -0x1c(%ebp),%edx
