
bdsh:     file format elf32-i386


Disassembly of section .init:

00001094 <__entry>:
    1094:	66 8c d0             	mov    %ss,%ax
    1097:	8e d8                	mov    %eax,%ds
    1099:	8e c0                	mov    %eax,%es
    109b:	8e e0                	mov    %eax,%fs
    109d:	b8 01 00 00 00       	mov    $0x1,%eax
    10a2:	0f a2                	cpuid  
    10a4:	0f ba e2 0b          	bt     $0xb,%edx
    10a8:	73 0c                	jae    10b6 <__entry+0x22>
    10aa:	8d 05 2c 07 03 00    	lea    0x3072c,%eax
    10b0:	c7 00 97 82 02 00    	movl   $0x28297,(%eax)
    10b6:	6a 00                	push   $0x0
    10b8:	89 e5                	mov    %esp,%ebp
    10ba:	57                   	push   %edi
    10bb:	e8 40 ad 00 00       	call   be00 <__main>

Disassembly of section .text:

000010c0 <cmd_help>:
    10c0:	55                   	push   %ebp
    10c1:	89 e5                	mov    %esp,%ebp
    10c3:	57                   	push   %edi
    10c4:	56                   	push   %esi
    10c5:	53                   	push   %ebx
    10c6:	83 ec 1c             	sub    $0x1c,%esp
    10c9:	8b 5d 08             	mov    0x8(%ebp),%ebx
    10cc:	89 1c 24             	mov    %ebx,(%esp)
    10cf:	e8 6c 66 00 00       	call   7740 <cli_count_args>
    10d4:	83 f8 03             	cmp    $0x3,%eax
    10d7:	0f 8f 6b 01 00 00    	jg     1248 <cmd_help+0x188>
    10dd:	0f 84 9d 01 00 00    	je     1280 <cmd_help+0x1c0>
    10e3:	83 f8 02             	cmp    $0x2,%eax
    10e6:	0f 85 3c 01 00 00    	jne    1228 <cmd_help+0x168>
    10ec:	31 ff                	xor    %edi,%edi
    10ee:	8b 73 04             	mov    0x4(%ebx),%esi
    10f1:	c7 44 24 04 39 a6 02 	movl   $0x2a639,0x4(%esp)
    10f8:	00 
    10f9:	89 34 24             	mov    %esi,(%esp)
    10fc:	e8 8f f4 00 00       	call   10590 <str_cmp>
    1101:	85 c0                	test   %eax,%eax
    1103:	0f 85 9f 01 00 00    	jne    12a8 <cmd_help+0x1e8>
    1109:	c7 04 24 f6 a5 02 00 	movl   $0x2a5f6,(%esp)
    1110:	bb c0 00 03 00       	mov    $0x300c0,%ebx
    1115:	e8 46 62 01 00       	call   17360 <printf>
    111a:	c7 04 24 88 ac 02 00 	movl   $0x2ac88,(%esp)
    1121:	e8 3a 62 01 00       	call   17360 <printf>
    1126:	a1 c0 00 03 00       	mov    0x300c0,%eax
    112b:	85 c0                	test   %eax,%eax
    112d:	75 32                	jne    1161 <cmd_help+0xa1>
    112f:	eb 5e                	jmp    118f <cmd_help+0xcf>
    1131:	8d b4 26 00 00 00 00 	lea    0x0(%esi,%eiz,1),%esi
    1138:	8b 03                	mov    (%ebx),%eax
    113a:	89 04 24             	mov    %eax,(%esp)
    113d:	e8 0e 57 00 00       	call   6850 <alias_for_builtin>
    1142:	89 44 24 08          	mov    %eax,0x8(%esp)
    1146:	8b 03                	mov    (%ebx),%eax
    1148:	83 c3 14             	add    $0x14,%ebx
    114b:	89 44 24 04          	mov    %eax,0x4(%esp)
    114f:	c7 04 24 d0 a5 02 00 	movl   $0x2a5d0,(%esp)
    1156:	e8 05 62 01 00       	call   17360 <printf>
    115b:	8b 03                	mov    (%ebx),%eax
    115d:	85 c0                	test   %eax,%eax
    115f:	74 2e                	je     118f <cmd_help+0xcf>
    1161:	89 04 24             	mov    %eax,(%esp)
    1164:	e8 87 56 00 00       	call   67f0 <is_builtin_alias>
    1169:	85 c0                	test   %eax,%eax
    116b:	75 cb                	jne    1138 <cmd_help+0x78>
    116d:	8b 43 04             	mov    0x4(%ebx),%eax
    1170:	89 44 24 08          	mov    %eax,0x8(%esp)
    1174:	8b 03                	mov    (%ebx),%eax
    1176:	83 c3 14             	add    $0x14,%ebx
    1179:	89 44 24 04          	mov    %eax,0x4(%esp)
    117d:	c7 04 24 e9 a5 02 00 	movl   $0x2a5e9,(%esp)
    1184:	e8 d7 61 01 00       	call   17360 <printf>
    1189:	8b 03                	mov    (%ebx),%eax
    118b:	85 c0                	test   %eax,%eax
    118d:	75 d2                	jne    1161 <cmd_help+0xa1>
    118f:	a1 20 01 03 00       	mov    0x30120,%eax
    1194:	bb 20 01 03 00       	mov    $0x30120,%ebx
    1199:	85 c0                	test   %eax,%eax
    119b:	75 2c                	jne    11c9 <cmd_help+0x109>
    119d:	eb 58                	jmp    11f7 <cmd_help+0x137>
    119f:	90                   	nop
    11a0:	8b 03                	mov    (%ebx),%eax
    11a2:	89 04 24             	mov    %eax,(%esp)
    11a5:	e8 f6 54 00 00       	call   66a0 <alias_for_module>
    11aa:	89 44 24 08          	mov    %eax,0x8(%esp)
    11ae:	8b 03                	mov    (%ebx),%eax
    11b0:	83 c3 10             	add    $0x10,%ebx
    11b3:	89 44 24 04          	mov    %eax,0x4(%esp)
    11b7:	c7 04 24 d0 a5 02 00 	movl   $0x2a5d0,(%esp)
    11be:	e8 9d 61 01 00       	call   17360 <printf>
    11c3:	8b 03                	mov    (%ebx),%eax
    11c5:	85 c0                	test   %eax,%eax
    11c7:	74 2e                	je     11f7 <cmd_help+0x137>
    11c9:	89 04 24             	mov    %eax,(%esp)
    11cc:	e8 6f 54 00 00       	call   6640 <is_module_alias>
    11d1:	85 c0                	test   %eax,%eax
    11d3:	75 cb                	jne    11a0 <cmd_help+0xe0>
    11d5:	8b 43 04             	mov    0x4(%ebx),%eax
    11d8:	89 44 24 08          	mov    %eax,0x8(%esp)
    11dc:	8b 03                	mov    (%ebx),%eax
    11de:	83 c3 10             	add    $0x10,%ebx
    11e1:	89 44 24 04          	mov    %eax,0x4(%esp)
    11e5:	c7 04 24 e9 a5 02 00 	movl   $0x2a5e9,(%esp)
    11ec:	e8 6f 61 01 00       	call   17360 <printf>
    11f1:	8b 03                	mov    (%ebx),%eax
    11f3:	85 c0                	test   %eax,%eax
    11f5:	75 d2                	jne    11c9 <cmd_help+0x109>
    11f7:	c7 44 24 0c c2 a5 02 	movl   $0x2a5c2,0xc(%esp)
    11fe:	00 
    11ff:	c7 44 24 08 c2 a5 02 	movl   $0x2a5c2,0x8(%esp)
    1206:	00 
    1207:	c7 44 24 04 c2 a5 02 	movl   $0x2a5c2,0x4(%esp)
    120e:	00 
    120f:	c7 04 24 80 a8 02 00 	movl   $0x2a880,(%esp)
    1216:	e8 45 61 01 00       	call   17360 <printf>
    121b:	83 c4 1c             	add    $0x1c,%esp
    121e:	31 c0                	xor    %eax,%eax
    1220:	5b                   	pop    %ebx
    1221:	5e                   	pop    %esi
    1222:	5f                   	pop    %edi
    1223:	5d                   	pop    %ebp
    1224:	c3                   	ret    
    1225:	8d 76 00             	lea    0x0(%esi),%esi
    1228:	c7 44 24 04 00 00 00 	movl   $0x0,0x4(%esp)
    122f:	00 
    1230:	c7 04 24 b8 a8 02 00 	movl   $0x2a8b8,(%esp)
    1237:	e8 d4 a7 00 00       	call   ba10 <print_wrapped_console>
    123c:	31 c0                	xor    %eax,%eax
    123e:	83 c4 1c             	add    $0x1c,%esp
    1241:	5b                   	pop    %ebx
    1242:	5e                   	pop    %esi
    1243:	5f                   	pop    %edi
    1244:	5d                   	pop    %ebp
    1245:	c3                   	ret    
    1246:	66 90                	xchg   %ax,%ax
    1248:	c7 44 24 04 c2 a5 02 	movl   $0x2a5c2,0x4(%esp)
    124f:	00 
    1250:	c7 04 24 f4 a7 02 00 	movl   $0x2a7f4,(%esp)
    1257:	e8 04 61 01 00       	call   17360 <printf>
    125c:	c7 44 24 04 c2 a5 02 	movl   $0x2a5c2,0x4(%esp)
    1263:	00 
    1264:	c7 04 24 18 a8 02 00 	movl   $0x2a818,(%esp)
    126b:	e8 f0 60 01 00       	call   17360 <printf>
    1270:	83 c4 1c             	add    $0x1c,%esp
    1273:	b8 01 00 00 00       	mov    $0x1,%eax
    1278:	5b                   	pop    %ebx
    1279:	5e                   	pop    %esi
    127a:	5f                   	pop    %edi
    127b:	5d                   	pop    %ebp
    127c:	c3                   	ret    
    127d:	8d 76 00             	lea    0x0(%esi),%esi
    1280:	8b 43 08             	mov    0x8(%ebx),%eax
    1283:	c7 04 24 c7 a5 02 00 	movl   $0x2a5c7,(%esp)
    128a:	89 44 24 04          	mov    %eax,0x4(%esp)
    128e:	e8 fd f2 00 00       	call   10590 <str_cmp>
    1293:	85 c0                	test   %eax,%eax
    1295:	0f 94 c0             	sete   %al
    1298:	25 ff 00 00 00       	and    $0xff,%eax
    129d:	89 c7                	mov    %eax,%edi
    129f:	e9 4a fe ff ff       	jmp    10ee <cmd_help+0x2e>
    12a4:	8d 74 26 00          	lea    0x0(%esi,%eiz,1),%esi
    12a8:	89 34 24             	mov    %esi,(%esp)
    12ab:	e8 d0 54 00 00       	call   6780 <is_builtin>
    12b0:	85 c0                	test   %eax,%eax
    12b2:	78 24                	js     12d8 <cmd_help+0x218>
    12b4:	a3 a0 00 03 00       	mov    %eax,0x300a0
    12b9:	89 7c 24 04          	mov    %edi,0x4(%esp)
    12bd:	a1 a0 00 03 00       	mov    0x300a0,%eax
    12c2:	89 04 24             	mov    %eax,(%esp)
    12c5:	e8 e6 55 00 00       	call   68b0 <help_builtin>
    12ca:	31 c0                	xor    %eax,%eax
    12cc:	e9 6d ff ff ff       	jmp    123e <cmd_help+0x17e>
    12d1:	8d b4 26 00 00 00 00 	lea    0x0(%esi,%eiz,1),%esi
    12d8:	89 34 24             	mov    %esi,(%esp)
    12db:	e8 f0 52 00 00       	call   65d0 <is_module>
    12e0:	85 c0                	test   %eax,%eax
    12e2:	78 1d                	js     1301 <cmd_help+0x241>
    12e4:	a3 a0 00 03 00       	mov    %eax,0x300a0
    12e9:	89 7c 24 04          	mov    %edi,0x4(%esp)
    12ed:	a1 a0 00 03 00       	mov    0x300a0,%eax
    12f2:	89 04 24             	mov    %eax,(%esp)
    12f5:	e8 06 54 00 00       	call   6700 <help_module>
    12fa:	31 c0                	xor    %eax,%eax
    12fc:	e9 3d ff ff ff       	jmp    123e <cmd_help+0x17e>
    1301:	8b 43 04             	mov    0x4(%ebx),%eax
    1304:	c7 04 24 12 a6 02 00 	movl   $0x2a612,(%esp)
    130b:	89 44 24 04          	mov    %eax,0x4(%esp)
    130f:	e8 4c 60 01 00       	call   17360 <printf>
    1314:	b8 01 00 00 00       	mov    $0x1,%eax
    1319:	e9 20 ff ff ff       	jmp    123e <cmd_help+0x17e>
    131e:	66 90                	xchg   %ax,%ax

00001320 <help_cmd_help>:
    1320:	55                   	push   %ebp
    1321:	89 e5                	mov    %esp,%ebp
    1323:	83 ec 28             	sub    $0x28,%esp
    1326:	8b 45 08             	mov    0x8(%ebp),%eax
    1329:	85 c0                	test   %eax,%eax
    132b:	74 33                	je     1360 <help_cmd_help+0x40>
    132d:	c7 44 24 10 c2 a5 02 	movl   $0x2a5c2,0x10(%esp)
    1334:	00 
    1335:	c7 44 24 0c c2 a5 02 	movl   $0x2a5c2,0xc(%esp)
    133c:	00 
    133d:	c7 44 24 08 c2 a5 02 	movl   $0x2a5c2,0x8(%esp)
    1344:	00 
    1345:	c7 44 24 04 c2 a5 02 	movl   $0x2a5c2,0x4(%esp)
    134c:	00 
    134d:	c7 04 24 c8 ac 02 00 	movl   $0x2acc8,(%esp)
    1354:	e8 07 60 01 00       	call   17360 <printf>
    1359:	c9                   	leave  
    135a:	c3                   	ret    
    135b:	90                   	nop
    135c:	8d 74 26 00          	lea    0x0(%esi,%eiz,1),%esi
    1360:	c7 44 24 04 c2 a5 02 	movl   $0x2a5c2,0x4(%esp)
    1367:	00 
    1368:	c7 04 24 18 a8 02 00 	movl   $0x2a818,(%esp)
    136f:	e8 ec 5f 01 00       	call   17360 <printf>
    1374:	c9                   	leave  
    1375:	c3                   	ret    
    1376:	66 90                	xchg   %ax,%ax
    1378:	66 90                	xchg   %ax,%ax
    137a:	66 90                	xchg   %ax,%ax
    137c:	66 90                	xchg   %ax,%ax
    137e:	66 90                	xchg   %ax,%ax

00001380 <help_cmd_mkdir.constprop.0>:
    1380:	55                   	push   %ebp
    1381:	89 e5                	mov    %esp,%ebp
    1383:	83 ec 18             	sub    $0x18,%esp
    1386:	c7 44 24 04 6b a6 02 	movl   $0x2a66b,0x4(%esp)
    138d:	00 
    138e:	c7 04 24 66 ae 02 00 	movl   $0x2ae66,(%esp)
    1395:	e8 c6 5f 01 00       	call   17360 <printf>
    139a:	c9                   	leave  
    139b:	c3                   	ret    
    139c:	8d 74 26 00          	lea    0x0(%esi,%eiz,1),%esi

000013a0 <help_cmd_mkdir>:
    13a0:	55                   	push   %ebp
    13a1:	89 e5                	mov    %esp,%ebp
    13a3:	83 ec 18             	sub    $0x18,%esp
    13a6:	8b 45 08             	mov    0x8(%ebp),%eax
    13a9:	c7 44 24 04 6b a6 02 	movl   $0x2a66b,0x4(%esp)
    13b0:	00 
    13b1:	85 c0                	test   %eax,%eax
    13b3:	c7 04 24 66 ae 02 00 	movl   $0x2ae66,(%esp)
    13ba:	74 24                	je     13e0 <help_cmd_mkdir+0x40>
    13bc:	e8 9f 5f 01 00       	call   17360 <printf>
    13c1:	c7 44 24 08 6b a6 02 	movl   $0x2a66b,0x8(%esp)
    13c8:	00 
    13c9:	c7 44 24 04 6b a6 02 	movl   $0x2a66b,0x4(%esp)
    13d0:	00 
    13d1:	c7 04 24 28 af 02 00 	movl   $0x2af28,(%esp)
    13d8:	e8 83 5f 01 00       	call   17360 <printf>
    13dd:	c9                   	leave  
    13de:	c3                   	ret    
    13df:	90                   	nop
    13e0:	e8 7b 5f 01 00       	call   17360 <printf>
    13e5:	c9                   	leave  
    13e6:	c3                   	ret    
    13e7:	89 f6                	mov    %esi,%esi
    13e9:	8d bc 27 00 00 00 00 	lea    0x0(%edi,%eiz,1),%edi

000013f0 <cmd_mkdir>:
    13f0:	55                   	push   %ebp
    13f1:	89 e5                	mov    %esp,%ebp
    13f3:	57                   	push   %edi
    13f4:	56                   	push   %esi
    13f5:	53                   	push   %ebx
    13f6:	83 ec 4c             	sub    $0x4c,%esp
    13f9:	8d 75 e0             	lea    -0x20(%ebp),%esi
    13fc:	8b 55 08             	mov    0x8(%ebp),%edx
    13ff:	89 14 24             	mov    %edx,(%esp)
    1402:	e8 39 63 00 00       	call   7740 <cli_count_args>
    1407:	c7 05 f4 06 03 00 00 	movl   $0x0,0x306f4
    140e:	00 00 00 
    1411:	89 c3                	mov    %eax,%ebx
    1413:	c7 45 e0 00 00 00 00 	movl   $0x0,-0x20(%ebp)
    141a:	c6 45 d2 00          	movb   $0x0,-0x2e(%ebp)
    141e:	c6 45 d0 00          	movb   $0x0,-0x30(%ebp)
    1422:	c6 45 d3 00          	movb   $0x0,-0x2d(%ebp)
    1426:	8b 4d 08             	mov    0x8(%ebp),%ecx
    1429:	89 74 24 10          	mov    %esi,0x10(%esp)
    142d:	c7 44 24 0c c0 b1 02 	movl   $0x2b1c0,0xc(%esp)
    1434:	00 
    1435:	c7 44 24 08 97 ae 02 	movl   $0x2ae97,0x8(%esp)
    143c:	00 
    143d:	89 4c 24 04          	mov    %ecx,0x4(%esp)
    1441:	89 1c 24             	mov    %ebx,(%esp)
    1444:	e8 77 18 02 00       	call   22cc0 <getopt_long>
    1449:	8d 50 aa             	lea    -0x56(%eax),%edx
    144c:	83 fa 20             	cmp    $0x20,%edx
    144f:	0f 86 03 01 00 00    	jbe    1558 <cmd_mkdir+0x168>
    1455:	40                   	inc    %eax
    1456:	75 ce                	jne    1426 <cmd_mkdir+0x36>
    1458:	8b 15 f4 06 03 00    	mov    0x306f4,%edx
    145e:	39 d3                	cmp    %edx,%ebx
    1460:	0f 84 bb 02 00 00    	je     1721 <cmd_mkdir+0x331>
    1466:	8b 4d 08             	mov    0x8(%ebp),%ecx
    1469:	8d 1c 91             	lea    (%ecx,%edx,4),%ebx
    146c:	8b 03                	mov    (%ebx),%eax
    146e:	85 c0                	test   %eax,%eax
    1470:	0f 84 d1 02 00 00    	je     1747 <cmd_mkdir+0x357>
    1476:	8d 54 91 04          	lea    0x4(%ecx,%edx,4),%edx
    147a:	c7 45 cc 00 00 00 00 	movl   $0x0,-0x34(%ebp)
    1481:	89 55 d4             	mov    %edx,-0x2c(%ebp)
    1484:	8d 7d e4             	lea    -0x1c(%ebp),%edi
    1487:	90                   	nop
    1488:	80 7d d2 00          	cmpb   $0x0,-0x2e(%ebp)
    148c:	74 2e                	je     14bc <cmd_mkdir+0xcc>
    148e:	ba b2 e5 02 00       	mov    $0x2e5b2,%edx
    1493:	80 7d d3 00          	cmpb   $0x0,-0x2d(%ebp)
    1497:	74 05                	je     149e <cmd_mkdir+0xae>
    1499:	ba 84 ae 02 00       	mov    $0x2ae84,%edx
    149e:	89 54 24 0c          	mov    %edx,0xc(%esp)
    14a2:	89 44 24 08          	mov    %eax,0x8(%esp)
    14a6:	c7 44 24 04 6b a6 02 	movl   $0x2a66b,0x4(%esp)
    14ad:	00 
    14ae:	c7 04 24 bf ae 02 00 	movl   $0x2aebf,(%esp)
    14b5:	e8 a6 5e 01 00       	call   17360 <printf>
    14ba:	8b 03                	mov    (%ebx),%eax
    14bc:	c7 44 24 04 00 00 00 	movl   $0x0,0x4(%esp)
    14c3:	00 
    14c4:	89 04 24             	mov    %eax,(%esp)
    14c7:	e8 64 42 02 00       	call   25730 <absolutize>
    14cc:	89 c3                	mov    %eax,%ebx
    14ce:	85 c0                	test   %eax,%eax
    14d0:	0f 84 25 02 00 00    	je     16fb <cmd_mkdir+0x30b>
    14d6:	80 7d d3 00          	cmpb   $0x0,-0x2d(%ebp)
    14da:	0f 84 38 01 00 00    	je     1618 <cmd_mkdir+0x228>
    14e0:	c7 45 e4 00 00 00 00 	movl   $0x0,-0x1c(%ebp)
    14e7:	31 f6                	xor    %esi,%esi
    14e9:	eb 08                	jmp    14f3 <cmd_mkdir+0x103>
    14eb:	90                   	nop
    14ec:	8d 74 26 00          	lea    0x0(%esi,%eiz,1),%esi
    14f0:	8b 75 e4             	mov    -0x1c(%ebp),%esi
    14f3:	c7 44 24 08 ff ff ff 	movl   $0xffffffff,0x8(%esp)
    14fa:	ff 
    14fb:	89 7c 24 04          	mov    %edi,0x4(%esp)
    14ff:	89 1c 24             	mov    %ebx,(%esp)
    1502:	e8 19 e7 00 00       	call   fc20 <str_decode>
    1507:	83 f8 3f             	cmp    $0x3f,%eax
    150a:	0f 84 08 01 00 00    	je     1618 <cmd_mkdir+0x228>
    1510:	85 c0                	test   %eax,%eax
    1512:	0f 84 00 01 00 00    	je     1618 <cmd_mkdir+0x228>
    1518:	83 f8 2f             	cmp    $0x2f,%eax
    151b:	75 d3                	jne    14f0 <cmd_mkdir+0x100>
    151d:	85 f6                	test   %esi,%esi
    151f:	74 cf                	je     14f0 <cmd_mkdir+0x100>
    1521:	01 de                	add    %ebx,%esi
    1523:	8a 16                	mov    (%esi),%dl
    1525:	c6 06 00             	movb   $0x0,(%esi)
    1528:	c7 44 24 04 00 00 00 	movl   $0x0,0x4(%esp)
    152f:	00 
    1530:	89 1c 24             	mov    %ebx,(%esp)
    1533:	88 55 d1             	mov    %dl,-0x2f(%ebp)
    1536:	e8 65 59 02 00       	call   26ea0 <mkdir>
    153b:	3d fc fe ff ff       	cmp    $0xfffffefc,%eax
    1540:	74 08                	je     154a <cmd_mkdir+0x15a>
    1542:	85 c0                	test   %eax,%eax
    1544:	0f 85 7b 01 00 00    	jne    16c5 <cmd_mkdir+0x2d5>
    154a:	8a 4d d1             	mov    -0x2f(%ebp),%cl
    154d:	88 0e                	mov    %cl,(%esi)
    154f:	eb 9f                	jmp    14f0 <cmd_mkdir+0x100>
    1551:	8d b4 26 00 00 00 00 	lea    0x0(%esi,%eiz,1),%esi
    1558:	ff 24 95 20 b1 02 00 	jmp    *0x2b120(,%edx,4)
    155f:	90                   	nop
    1560:	c6 45 d2 01          	movb   $0x1,-0x2e(%ebp)
    1564:	e9 bd fe ff ff       	jmp    1426 <cmd_mkdir+0x36>
    1569:	8d b4 26 00 00 00 00 	lea    0x0(%esi,%eiz,1),%esi
    1570:	c6 45 d3 01          	movb   $0x1,-0x2d(%ebp)
    1574:	e9 ad fe ff ff       	jmp    1426 <cmd_mkdir+0x36>
    1579:	8d b4 26 00 00 00 00 	lea    0x0(%esi,%eiz,1),%esi
    1580:	a1 68 07 03 00       	mov    0x30768,%eax
    1585:	c7 44 24 04 6b a6 02 	movl   $0x2a66b,0x4(%esp)
    158c:	00 
    158d:	89 44 24 08          	mov    %eax,0x8(%esp)
    1591:	c7 04 24 a5 ae 02 00 	movl   $0x2aea5,(%esp)
    1598:	e8 c3 5d 01 00       	call   17360 <printf>
    159d:	e9 84 fe ff ff       	jmp    1426 <cmd_mkdir+0x36>
    15a2:	8d b6 00 00 00 00    	lea    0x0(%esi),%esi
    15a8:	c7 44 24 04 6b a6 02 	movl   $0x2a66b,0x4(%esp)
    15af:	00 
    15b0:	c7 04 24 66 ae 02 00 	movl   $0x2ae66,(%esp)
    15b7:	e8 a4 5d 01 00       	call   17360 <printf>
    15bc:	c7 44 24 08 6b a6 02 	movl   $0x2a66b,0x8(%esp)
    15c3:	00 
    15c4:	c7 44 24 04 6b a6 02 	movl   $0x2a66b,0x4(%esp)
    15cb:	00 
    15cc:	c7 04 24 28 af 02 00 	movl   $0x2af28,(%esp)
    15d3:	e8 88 5d 01 00       	call   17360 <printf>
    15d8:	31 db                	xor    %ebx,%ebx
    15da:	83 c4 4c             	add    $0x4c,%esp
    15dd:	89 d8                	mov    %ebx,%eax
    15df:	5b                   	pop    %ebx
    15e0:	5e                   	pop    %esi
    15e1:	5f                   	pop    %edi
    15e2:	5d                   	pop    %ebp
    15e3:	c3                   	ret    
    15e4:	8d 74 26 00          	lea    0x0(%esi,%eiz,1),%esi
    15e8:	c6 45 d0 01          	movb   $0x1,-0x30(%ebp)
    15ec:	e9 35 fe ff ff       	jmp    1426 <cmd_mkdir+0x36>
    15f1:	8d b4 26 00 00 00 00 	lea    0x0(%esi,%eiz,1),%esi
    15f8:	c7 44 24 04 9f ae 02 	movl   $0x2ae9f,0x4(%esp)
    15ff:	00 
    1600:	c7 04 24 f2 a5 02 00 	movl   $0x2a5f2,(%esp)
    1607:	e8 54 5d 01 00       	call   17360 <printf>
    160c:	83 c4 4c             	add    $0x4c,%esp
    160f:	31 db                	xor    %ebx,%ebx
    1611:	89 d8                	mov    %ebx,%eax
    1613:	5b                   	pop    %ebx
    1614:	5e                   	pop    %esi
    1615:	5f                   	pop    %edi
    1616:	5d                   	pop    %ebp
    1617:	c3                   	ret    
    1618:	c7 44 24 04 00 00 00 	movl   $0x0,0x4(%esp)
    161f:	00 
    1620:	89 1c 24             	mov    %ebx,(%esp)
    1623:	e8 78 58 02 00       	call   26ea0 <mkdir>
    1628:	31 f6                	xor    %esi,%esi
    162a:	85 c0                	test   %eax,%eax
    162c:	75 62                	jne    1690 <cmd_mkdir+0x2a0>
    162e:	89 1c 24             	mov    %ebx,(%esp)
    1631:	e8 ea b4 01 00       	call   1cb20 <free>
    1636:	8b 4d cc             	mov    -0x34(%ebp),%ecx
    1639:	8b 5d d4             	mov    -0x2c(%ebp),%ebx
    163c:	01 f1                	add    %esi,%ecx
    163e:	8b 75 d4             	mov    -0x2c(%ebp),%esi
    1641:	83 c6 04             	add    $0x4,%esi
    1644:	89 4d cc             	mov    %ecx,-0x34(%ebp)
    1647:	89 75 d4             	mov    %esi,-0x2c(%ebp)
    164a:	8b 55 d4             	mov    -0x2c(%ebp),%edx
    164d:	8b 42 fc             	mov    -0x4(%edx),%eax
    1650:	85 c0                	test   %eax,%eax
    1652:	0f 85 30 fe ff ff    	jne    1488 <cmd_mkdir+0x98>
    1658:	8b 55 cc             	mov    -0x34(%ebp),%edx
    165b:	85 d2                	test   %edx,%edx
    165d:	0f 95 c3             	setne  %bl
    1660:	81 e3 ff 00 00 00    	and    $0xff,%ebx
    1666:	80 7d d0 00          	cmpb   $0x0,-0x30(%ebp)
    166a:	0f 84 6a ff ff ff    	je     15da <cmd_mkdir+0x1ea>
    1670:	a1 f4 06 03 00       	mov    0x306f4,%eax
    1675:	8b 4d 08             	mov    0x8(%ebp),%ecx
    1678:	8b 04 81             	mov    (%ecx,%eax,4),%eax
    167b:	85 c0                	test   %eax,%eax
    167d:	0f 84 57 ff ff ff    	je     15da <cmd_mkdir+0x1ea>
    1683:	89 04 24             	mov    %eax,(%esp)
    1686:	e8 25 5b 02 00       	call   271b0 <chdir>
    168b:	e9 4a ff ff ff       	jmp    15da <cmd_mkdir+0x1ea>
    1690:	89 04 24             	mov    %eax,(%esp)
    1693:	66 be 01 00          	mov    $0x1,%si
    1697:	e8 a4 12 01 00       	call   12940 <str_error>
    169c:	89 5c 24 0c          	mov    %ebx,0xc(%esp)
    16a0:	89 44 24 10          	mov    %eax,0x10(%esp)
    16a4:	c7 44 24 08 6b a6 02 	movl   $0x2a66b,0x8(%esp)
    16ab:	00 
    16ac:	c7 44 24 04 e4 ae 02 	movl   $0x2aee4,0x4(%esp)
    16b3:	00 
    16b4:	c7 04 24 01 00 00 00 	movl   $0x1,(%esp)
    16bb:	e8 80 59 00 00       	call   7040 <cli_error>
    16c0:	e9 69 ff ff ff       	jmp    162e <cmd_mkdir+0x23e>
    16c5:	89 04 24             	mov    %eax,(%esp)
    16c8:	be 01 00 00 00       	mov    $0x1,%esi
    16cd:	e8 6e 12 01 00       	call   12940 <str_error>
    16d2:	89 5c 24 0c          	mov    %ebx,0xc(%esp)
    16d6:	89 44 24 10          	mov    %eax,0x10(%esp)
    16da:	c7 44 24 08 6b a6 02 	movl   $0x2a66b,0x8(%esp)
    16e1:	00 
    16e2:	c7 44 24 04 e4 ae 02 	movl   $0x2aee4,0x4(%esp)
    16e9:	00 
    16ea:	c7 04 24 01 00 00 00 	movl   $0x1,(%esp)
    16f1:	e8 4a 59 00 00       	call   7040 <cli_error>
    16f6:	e9 33 ff ff ff       	jmp    162e <cmd_mkdir+0x23e>
    16fb:	c7 44 24 08 6b a6 02 	movl   $0x2a66b,0x8(%esp)
    1702:	00 
    1703:	c7 44 24 04 d2 ae 02 	movl   $0x2aed2,0x4(%esp)
    170a:	00 
    170b:	c7 04 24 04 00 00 00 	movl   $0x4,(%esp)
    1712:	be 01 00 00 00       	mov    $0x1,%esi
    1717:	e8 24 59 00 00       	call   7040 <cli_error>
    171c:	e9 15 ff ff ff       	jmp    1636 <cmd_mkdir+0x246>
    1721:	c7 44 24 08 6b a6 02 	movl   $0x2a66b,0x8(%esp)
    1728:	00 
    1729:	c7 44 24 04 6b a6 02 	movl   $0x2a66b,0x4(%esp)
    1730:	00 
    1731:	c7 04 24 cc b0 02 00 	movl   $0x2b0cc,(%esp)
    1738:	bb 01 00 00 00       	mov    $0x1,%ebx
    173d:	e8 1e 5c 01 00       	call   17360 <printf>
    1742:	e9 93 fe ff ff       	jmp    15da <cmd_mkdir+0x1ea>
    1747:	31 db                	xor    %ebx,%ebx
    1749:	e9 18 ff ff ff       	jmp    1666 <cmd_mkdir+0x276>
    174e:	66 90                	xchg   %ax,%ax

00001750 <help_cmd_mkfile.constprop.0>:
    1750:	55                   	push   %ebp
    1751:	89 e5                	mov    %esp,%ebp
    1753:	83 ec 18             	sub    $0x18,%esp
    1756:	c7 44 24 04 88 a6 02 	movl   $0x2a688,0x4(%esp)
    175d:	00 
    175e:	c7 04 24 58 b2 02 00 	movl   $0x2b258,(%esp)
    1765:	e8 f6 5b 01 00       	call   17360 <printf>
    176a:	c9                   	leave  
    176b:	c3                   	ret    
    176c:	8d 74 26 00          	lea    0x0(%esi,%eiz,1),%esi

00001770 <help_cmd_mkfile>:
    1770:	55                   	push   %ebp
    1771:	89 e5                	mov    %esp,%ebp
    1773:	83 ec 18             	sub    $0x18,%esp
    1776:	8b 45 08             	mov    0x8(%ebp),%eax
    1779:	c7 44 24 04 88 a6 02 	movl   $0x2a688,0x4(%esp)
    1780:	00 
    1781:	85 c0                	test   %eax,%eax
    1783:	c7 04 24 58 b2 02 00 	movl   $0x2b258,(%esp)
    178a:	74 14                	je     17a0 <help_cmd_mkfile+0x30>
    178c:	e8 cf 5b 01 00       	call   17360 <printf>
    1791:	c7 44 24 04 88 a6 02 	movl   $0x2a688,0x4(%esp)
    1798:	00 
    1799:	c7 04 24 80 b2 02 00 	movl   $0x2b280,(%esp)
    17a0:	e8 bb 5b 01 00       	call   17360 <printf>
    17a5:	c9                   	leave  
    17a6:	c3                   	ret    
    17a7:	89 f6                	mov    %esi,%esi
    17a9:	8d bc 27 00 00 00 00 	lea    0x0(%edi,%eiz,1),%edi

000017b0 <cmd_mkfile>:
    17b0:	55                   	push   %ebp
    17b1:	89 e5                	mov    %esp,%ebp
    17b3:	57                   	push   %edi
    17b4:	56                   	push   %esi
    17b5:	53                   	push   %ebx
    17b6:	83 ec 4c             	sub    $0x4c,%esp
    17b9:	31 ff                	xor    %edi,%edi
    17bb:	8b 55 08             	mov    0x8(%ebp),%edx
    17be:	8d 75 e0             	lea    -0x20(%ebp),%esi
    17c1:	89 14 24             	mov    %edx,(%esp)
    17c4:	e8 77 5f 00 00       	call   7740 <cli_count_args>
    17c9:	c7 05 f4 06 03 00 00 	movl   $0x0,0x306f4
    17d0:	00 00 00 
    17d3:	89 c3                	mov    %eax,%ebx
    17d5:	c7 45 e0 00 00 00 00 	movl   $0x0,-0x20(%ebp)
    17dc:	c6 45 d3 00          	movb   $0x0,-0x2d(%ebp)
    17e0:	8b 4d 08             	mov    0x8(%ebp),%ecx
    17e3:	89 74 24 10          	mov    %esi,0x10(%esp)
    17e7:	c7 44 24 0c 20 b4 02 	movl   $0x2b420,0xc(%esp)
    17ee:	00 
    17ef:	c7 44 24 08 30 b2 02 	movl   $0x2b230,0x8(%esp)
    17f6:	00 
    17f7:	89 4c 24 04          	mov    %ecx,0x4(%esp)
    17fb:	89 1c 24             	mov    %ebx,(%esp)
    17fe:	e8 bd 14 02 00       	call   22cc0 <getopt_long>
    1803:	83 f8 70             	cmp    $0x70,%eax
    1806:	74 40                	je     1848 <cmd_mkfile+0x98>
    1808:	83 f8 73             	cmp    $0x73,%eax
    180b:	74 7b                	je     1888 <cmd_mkfile+0xd8>
    180d:	83 f8 68             	cmp    $0x68,%eax
    1810:	74 3e                	je     1850 <cmd_mkfile+0xa0>
    1812:	40                   	inc    %eax
    1813:	75 cb                	jne    17e0 <cmd_mkfile+0x30>
    1815:	a1 f4 06 03 00       	mov    0x306f4,%eax
    181a:	29 c3                	sub    %eax,%ebx
    181c:	4b                   	dec    %ebx
    181d:	0f 84 f5 00 00 00    	je     1918 <cmd_mkfile+0x168>
    1823:	c7 44 24 08 88 a6 02 	movl   $0x2a688,0x8(%esp)
    182a:	00 
    182b:	c7 44 24 04 88 a6 02 	movl   $0x2a688,0x4(%esp)
    1832:	00 
    1833:	c7 04 24 98 b3 02 00 	movl   $0x2b398,(%esp)
    183a:	e8 21 5b 01 00       	call   17360 <printf>
    183f:	b8 01 00 00 00       	mov    $0x1,%eax
    1844:	eb 34                	jmp    187a <cmd_mkfile+0xca>
    1846:	66 90                	xchg   %ax,%ax
    1848:	c6 45 d3 01          	movb   $0x1,-0x2d(%ebp)
    184c:	eb 92                	jmp    17e0 <cmd_mkfile+0x30>
    184e:	66 90                	xchg   %ax,%ax
    1850:	c7 44 24 04 88 a6 02 	movl   $0x2a688,0x4(%esp)
    1857:	00 
    1858:	c7 04 24 58 b2 02 00 	movl   $0x2b258,(%esp)
    185f:	e8 fc 5a 01 00       	call   17360 <printf>
    1864:	c7 44 24 04 88 a6 02 	movl   $0x2a688,0x4(%esp)
    186b:	00 
    186c:	c7 04 24 80 b2 02 00 	movl   $0x2b280,(%esp)
    1873:	e8 e8 5a 01 00       	call   17360 <printf>
    1878:	31 c0                	xor    %eax,%eax
    187a:	83 c4 4c             	add    $0x4c,%esp
    187d:	5b                   	pop    %ebx
    187e:	5e                   	pop    %esi
    187f:	5f                   	pop    %edi
    1880:	5d                   	pop    %ebp
    1881:	c3                   	ret    
    1882:	8d b6 00 00 00 00    	lea    0x0(%esi),%esi
    1888:	8d 45 e4             	lea    -0x1c(%ebp),%eax
    188b:	c7 44 24 08 0a 00 00 	movl   $0xa,0x8(%esp)
    1892:	00 
    1893:	89 44 24 04          	mov    %eax,0x4(%esp)
    1897:	a1 68 07 03 00       	mov    0x30768,%eax
    189c:	89 04 24             	mov    %eax,(%esp)
    189f:	e8 1c 07 01 00       	call   11fc0 <strtol>
    18a4:	8b 55 e4             	mov    -0x1c(%ebp),%edx
    18a7:	89 c7                	mov    %eax,%edi
    18a9:	0f be 02             	movsbl (%edx),%eax
    18ac:	84 c0                	test   %al,%al
    18ae:	74 48                	je     18f8 <cmd_mkfile+0x148>
    18b0:	80 7a 01 00          	cmpb   $0x0,0x1(%edx)
    18b4:	75 1a                	jne    18d0 <cmd_mkfile+0x120>
    18b6:	8d 50 bf             	lea    -0x41(%eax),%edx
    18b9:	83 fa 19             	cmp    $0x19,%edx
    18bc:	77 03                	ja     18c1 <cmd_mkfile+0x111>
    18be:	83 c0 20             	add    $0x20,%eax
    18c1:	83 f8 6b             	cmp    $0x6b,%eax
    18c4:	74 2a                	je     18f0 <cmd_mkfile+0x140>
    18c6:	83 f8 6d             	cmp    $0x6d,%eax
    18c9:	74 45                	je     1910 <cmd_mkfile+0x160>
    18cb:	83 f8 67             	cmp    $0x67,%eax
    18ce:	74 38                	je     1908 <cmd_mkfile+0x158>
    18d0:	c7 44 24 04 88 a6 02 	movl   $0x2a688,0x4(%esp)
    18d7:	00 
    18d8:	c7 04 24 70 b3 02 00 	movl   $0x2b370,(%esp)
    18df:	e8 7c 5a 01 00       	call   17360 <printf>
    18e4:	b8 01 00 00 00       	mov    $0x1,%eax
    18e9:	eb 8f                	jmp    187a <cmd_mkfile+0xca>
    18eb:	90                   	nop
    18ec:	8d 74 26 00          	lea    0x0(%esi,%eiz,1),%esi
    18f0:	b8 00 04 00 00       	mov    $0x400,%eax
    18f5:	0f af f8             	imul   %eax,%edi
    18f8:	85 ff                	test   %edi,%edi
    18fa:	0f 89 e0 fe ff ff    	jns    17e0 <cmd_mkfile+0x30>
    1900:	eb ce                	jmp    18d0 <cmd_mkfile+0x120>
    1902:	8d b6 00 00 00 00    	lea    0x0(%esi),%esi
    1908:	b8 00 00 00 40       	mov    $0x40000000,%eax
    190d:	eb e6                	jmp    18f5 <cmd_mkfile+0x145>
    190f:	90                   	nop
    1910:	b8 00 00 10 00       	mov    $0x100000,%eax
    1915:	eb de                	jmp    18f5 <cmd_mkfile+0x145>
    1917:	90                   	nop
    1918:	8b 55 08             	mov    0x8(%ebp),%edx
    191b:	8b 34 82             	mov    (%edx,%eax,4),%esi
    191e:	c7 44 24 08 b6 01 00 	movl   $0x1b6,0x8(%esp)
    1925:	00 
    1926:	c7 44 24 04 43 00 00 	movl   $0x43,0x4(%esp)
    192d:	00 
    192e:	89 34 24             	mov    %esi,(%esp)
    1931:	e8 ea 44 02 00       	call   25e20 <open>
    1936:	89 c3                	mov    %eax,%ebx
    1938:	85 c0                	test   %eax,%eax
    193a:	0f 88 29 01 00 00    	js     1a69 <cmd_mkfile+0x2b9>
    1940:	85 ff                	test   %edi,%edi
    1942:	0f 9f 45 d2          	setg   -0x2e(%ebp)
    1946:	0f 8e 84 00 00 00    	jle    19d0 <cmd_mkfile+0x220>
    194c:	80 7d d3 00          	cmpb   $0x0,-0x2d(%ebp)
    1950:	74 7e                	je     19d0 <cmd_mkfile+0x220>
    1952:	4f                   	dec    %edi
    1953:	c7 44 24 0c 00 00 00 	movl   $0x0,0xc(%esp)
    195a:	00 
    195b:	89 f9                	mov    %edi,%ecx
    195d:	89 7c 24 04          	mov    %edi,0x4(%esp)
    1961:	c1 f9 1f             	sar    $0x1f,%ecx
    1964:	89 04 24             	mov    %eax,(%esp)
    1967:	89 4c 24 08          	mov    %ecx,0x8(%esp)
    196b:	c6 45 e4 00          	movb   $0x0,-0x1c(%ebp)
    196f:	e8 9c 4c 02 00       	call   26610 <lseek>
    1974:	85 c0                	test   %eax,%eax
    1976:	78 17                	js     198f <cmd_mkfile+0x1df>
    1978:	8d 45 e4             	lea    -0x1c(%ebp),%eax
    197b:	c7 44 24 08 01 00 00 	movl   $0x1,0x8(%esp)
    1982:	00 
    1983:	89 44 24 04          	mov    %eax,0x4(%esp)
    1987:	89 1c 24             	mov    %ebx,(%esp)
    198a:	e8 c1 47 02 00       	call   26150 <write>
    198f:	89 c6                	mov    %eax,%esi
    1991:	c1 ee 1f             	shr    $0x1f,%esi
    1994:	89 1c 24             	mov    %ebx,(%esp)
    1997:	e8 c4 45 02 00       	call   25f60 <close>
    199c:	89 c2                	mov    %eax,%edx
    199e:	85 c0                	test   %eax,%eax
    19a0:	75 0c                	jne    19ae <cmd_mkfile+0x1fe>
    19a2:	89 f1                	mov    %esi,%ecx
    19a4:	31 c0                	xor    %eax,%eax
    19a6:	84 c9                	test   %cl,%cl
    19a8:	0f 84 cc fe ff ff    	je     187a <cmd_mkfile+0xca>
    19ae:	89 54 24 08          	mov    %edx,0x8(%esp)
    19b2:	c7 44 24 04 88 a6 02 	movl   $0x2a688,0x4(%esp)
    19b9:	00 
    19ba:	c7 04 24 ec b3 02 00 	movl   $0x2b3ec,(%esp)
    19c1:	e8 9a 59 01 00       	call   17360 <printf>
    19c6:	b8 01 00 00 00       	mov    $0x1,%eax
    19cb:	e9 aa fe ff ff       	jmp    187a <cmd_mkfile+0xca>
    19d0:	c7 44 24 04 01 00 00 	movl   $0x1,0x4(%esp)
    19d7:	00 
    19d8:	c7 04 24 00 40 00 00 	movl   $0x4000,(%esp)
    19df:	e8 cc af 01 00       	call   1c9b0 <calloc>
    19e4:	89 45 d4             	mov    %eax,-0x2c(%ebp)
    19e7:	85 c0                	test   %eax,%eax
    19e9:	0f 84 9c 00 00 00    	je     1a8b <cmd_mkfile+0x2db>
    19ef:	31 f6                	xor    %esi,%esi
    19f1:	80 7d d2 00          	cmpb   $0x0,-0x2e(%ebp)
    19f5:	75 0f                	jne    1a06 <cmd_mkfile+0x256>
    19f7:	eb 5e                	jmp    1a57 <cmd_mkfile+0x2a7>
    19f9:	8d b4 26 00 00 00 00 	lea    0x0(%esi,%eiz,1),%esi
    1a00:	01 c6                	add    %eax,%esi
    1a02:	39 fe                	cmp    %edi,%esi
    1a04:	7d 51                	jge    1a57 <cmd_mkfile+0x2a7>
    1a06:	89 f8                	mov    %edi,%eax
    1a08:	29 f0                	sub    %esi,%eax
    1a0a:	3d 00 40 00 00       	cmp    $0x4000,%eax
    1a0f:	7e 05                	jle    1a16 <cmd_mkfile+0x266>
    1a11:	b8 00 40 00 00       	mov    $0x4000,%eax
    1a16:	89 44 24 08          	mov    %eax,0x8(%esp)
    1a1a:	8b 45 d4             	mov    -0x2c(%ebp),%eax
    1a1d:	89 44 24 04          	mov    %eax,0x4(%esp)
    1a21:	89 1c 24             	mov    %ebx,(%esp)
    1a24:	e8 27 47 02 00       	call   26150 <write>
    1a29:	85 c0                	test   %eax,%eax
    1a2b:	7f d3                	jg     1a00 <cmd_mkfile+0x250>
    1a2d:	89 44 24 08          	mov    %eax,0x8(%esp)
    1a31:	c7 44 24 04 88 a6 02 	movl   $0x2a688,0x4(%esp)
    1a38:	00 
    1a39:	c7 04 24 ec b3 02 00 	movl   $0x2b3ec,(%esp)
    1a40:	e8 1b 59 01 00       	call   17360 <printf>
    1a45:	89 1c 24             	mov    %ebx,(%esp)
    1a48:	e8 13 45 02 00       	call   25f60 <close>
    1a4d:	b8 01 00 00 00       	mov    $0x1,%eax
    1a52:	e9 23 fe ff ff       	jmp    187a <cmd_mkfile+0xca>
    1a57:	8b 45 d4             	mov    -0x2c(%ebp),%eax
    1a5a:	31 f6                	xor    %esi,%esi
    1a5c:	89 04 24             	mov    %eax,(%esp)
    1a5f:	e8 bc b0 01 00       	call   1cb20 <free>
    1a64:	e9 2b ff ff ff       	jmp    1994 <cmd_mkfile+0x1e4>
    1a69:	89 74 24 08          	mov    %esi,0x8(%esp)
    1a6d:	c7 44 24 04 88 a6 02 	movl   $0x2a688,0x4(%esp)
    1a74:	00 
    1a75:	c7 04 24 cc b3 02 00 	movl   $0x2b3cc,(%esp)
    1a7c:	e8 df 58 01 00       	call   17360 <printf>
    1a81:	b8 01 00 00 00       	mov    $0x1,%eax
    1a86:	e9 ef fd ff ff       	jmp    187a <cmd_mkfile+0xca>
    1a8b:	c7 44 24 04 88 a6 02 	movl   $0x2a688,0x4(%esp)
    1a92:	00 
    1a93:	c7 04 24 35 b2 02 00 	movl   $0x2b235,(%esp)
    1a9a:	e8 c1 58 01 00       	call   17360 <printf>
    1a9f:	b8 01 00 00 00       	mov    $0x1,%eax
    1aa4:	e9 d1 fd ff ff       	jmp    187a <cmd_mkfile+0xca>
    1aa9:	66 90                	xchg   %ax,%ax
    1aab:	66 90                	xchg   %ax,%ax
    1aad:	66 90                	xchg   %ax,%ax
    1aaf:	90                   	nop

00001ab0 <help_cmd_rm.constprop.3>:
    1ab0:	55                   	push   %ebp
    1ab1:	89 e5                	mov    %esp,%ebp
    1ab3:	83 ec 18             	sub    $0x18,%esp
    1ab6:	c7 44 24 04 9f a6 02 	movl   $0x2a69f,0x4(%esp)
    1abd:	00 
    1abe:	c7 04 24 f0 b4 02 00 	movl   $0x2b4f0,(%esp)
    1ac5:	e8 96 58 01 00       	call   17360 <printf>
    1aca:	c9                   	leave  
    1acb:	c3                   	ret    
    1acc:	8d 74 26 00          	lea    0x0(%esi,%eiz,1),%esi

00001ad0 <rm_recursive_not_empty_dirs>:
    1ad0:	55                   	push   %ebp
    1ad1:	89 e5                	mov    %esp,%ebp
    1ad3:	57                   	push   %edi
    1ad4:	56                   	push   %esi
    1ad5:	53                   	push   %ebx
    1ad6:	81 ec 3c 01 00 00    	sub    $0x13c,%esp
    1adc:	89 c7                	mov    %eax,%edi
    1ade:	89 04 24             	mov    %eax,(%esp)
    1ae1:	e8 5a 4f 02 00       	call   26a40 <opendir>
    1ae6:	89 c6                	mov    %eax,%esi
    1ae8:	85 c0                	test   %eax,%eax
    1aea:	0f 84 44 01 00 00    	je     1c34 <rm_recursive_not_empty_dirs+0x164>
    1af0:	8d 9d e9 fe ff ff    	lea    -0x117(%ebp),%ebx
    1af6:	c7 44 24 08 ff 00 00 	movl   $0xff,0x8(%esp)
    1afd:	00 
    1afe:	c7 44 24 04 00 00 00 	movl   $0x0,0x4(%esp)
    1b05:	00 
    1b06:	89 1c 24             	mov    %ebx,(%esp)
    1b09:	e8 c2 d5 00 00       	call   f0d0 <memset>
    1b0e:	c7 85 e4 fe ff ff 00 	movl   $0x0,-0x11c(%ebp)
    1b15:	00 00 00 
    1b18:	89 34 24             	mov    %esi,(%esp)
    1b1b:	e8 90 50 02 00       	call   26bb0 <readdir>
    1b20:	85 c0                	test   %eax,%eax
    1b22:	74 60                	je     1b84 <rm_recursive_not_empty_dirs+0xb4>
    1b24:	89 44 24 10          	mov    %eax,0x10(%esp)
    1b28:	89 7c 24 0c          	mov    %edi,0xc(%esp)
    1b2c:	c7 44 24 08 72 b4 02 	movl   $0x2b472,0x8(%esp)
    1b33:	00 
    1b34:	c7 44 24 04 fe 00 00 	movl   $0xfe,0x4(%esp)
    1b3b:	00 
    1b3c:	89 1c 24             	mov    %ebx,(%esp)
    1b3f:	e8 bc 5a 01 00       	call   17600 <snprintf>
    1b44:	89 1c 24             	mov    %ebx,(%esp)
    1b47:	e8 f4 4e 02 00       	call   26a40 <opendir>
    1b4c:	85 c0                	test   %eax,%eax
    1b4e:	0f 84 8c 00 00 00    	je     1be0 <rm_recursive_not_empty_dirs+0x110>
    1b54:	89 04 24             	mov    %eax,(%esp)
    1b57:	e8 64 52 02 00       	call   26dc0 <closedir>
    1b5c:	89 1c 24             	mov    %ebx,(%esp)
    1b5f:	e8 8c 54 02 00       	call   26ff0 <rmdir>
    1b64:	31 d2                	xor    %edx,%edx
    1b66:	85 c0                	test   %eax,%eax
    1b68:	75 36                	jne    1ba0 <rm_recursive_not_empty_dirs+0xd0>
    1b6a:	8b 85 e4 fe ff ff    	mov    -0x11c(%ebp),%eax
    1b70:	89 34 24             	mov    %esi,(%esp)
    1b73:	01 d0                	add    %edx,%eax
    1b75:	89 85 e4 fe ff ff    	mov    %eax,-0x11c(%ebp)
    1b7b:	e8 30 50 02 00       	call   26bb0 <readdir>
    1b80:	85 c0                	test   %eax,%eax
    1b82:	75 a0                	jne    1b24 <rm_recursive_not_empty_dirs+0x54>
    1b84:	89 34 24             	mov    %esi,(%esp)
    1b87:	e8 34 52 02 00       	call   26dc0 <closedir>
    1b8c:	8b 85 e4 fe ff ff    	mov    -0x11c(%ebp),%eax
    1b92:	81 c4 3c 01 00 00    	add    $0x13c,%esp
    1b98:	5b                   	pop    %ebx
    1b99:	5e                   	pop    %esi
    1b9a:	5f                   	pop    %edi
    1b9b:	5d                   	pop    %ebp
    1b9c:	c3                   	ret    
    1b9d:	8d 76 00             	lea    0x0(%esi),%esi
    1ba0:	89 d8                	mov    %ebx,%eax
    1ba2:	e8 29 ff ff ff       	call   1ad0 <rm_recursive_not_empty_dirs>
    1ba7:	89 1c 24             	mov    %ebx,(%esp)
    1baa:	89 85 e0 fe ff ff    	mov    %eax,-0x120(%ebp)
    1bb0:	e8 3b 54 02 00       	call   26ff0 <rmdir>
    1bb5:	8b 95 e0 fe ff ff    	mov    -0x120(%ebp),%edx
    1bbb:	85 c0                	test   %eax,%eax
    1bbd:	74 ab                	je     1b6a <rm_recursive_not_empty_dirs+0x9a>
    1bbf:	89 5c 24 08          	mov    %ebx,0x8(%esp)
    1bc3:	c7 44 24 04 95 b4 02 	movl   $0x2b495,0x4(%esp)
    1bca:	00 
    1bcb:	c7 04 24 06 00 00 00 	movl   $0x6,(%esp)
    1bd2:	e8 69 54 00 00       	call   7040 <cli_error>
    1bd7:	8b 95 e0 fe ff ff    	mov    -0x120(%ebp),%edx
    1bdd:	42                   	inc    %edx
    1bde:	eb 8a                	jmp    1b6a <rm_recursive_not_empty_dirs+0x9a>
    1be0:	c7 44 24 04 10 00 00 	movl   $0x10,0x4(%esp)
    1be7:	00 
    1be8:	89 1c 24             	mov    %ebx,(%esp)
    1beb:	e8 30 42 02 00       	call   25e20 <open>
    1bf0:	85 c0                	test   %eax,%eax
    1bf2:	0f 8e 20 ff ff ff    	jle    1b18 <rm_recursive_not_empty_dirs+0x48>
    1bf8:	89 04 24             	mov    %eax,(%esp)
    1bfb:	e8 60 43 02 00       	call   25f60 <close>
    1c00:	89 1c 24             	mov    %ebx,(%esp)
    1c03:	e8 d8 53 02 00       	call   26fe0 <unlink>
    1c08:	31 d2                	xor    %edx,%edx
    1c0a:	85 c0                	test   %eax,%eax
    1c0c:	0f 84 58 ff ff ff    	je     1b6a <rm_recursive_not_empty_dirs+0x9a>
    1c12:	89 5c 24 08          	mov    %ebx,0x8(%esp)
    1c16:	c7 44 24 04 78 b4 02 	movl   $0x2b478,0x4(%esp)
    1c1d:	00 
    1c1e:	c7 04 24 01 00 00 00 	movl   $0x1,(%esp)
    1c25:	e8 16 54 00 00       	call   7040 <cli_error>
    1c2a:	ba 01 00 00 00       	mov    $0x1,%edx
    1c2f:	e9 36 ff ff ff       	jmp    1b6a <rm_recursive_not_empty_dirs+0x9a>
    1c34:	89 7c 24 08          	mov    %edi,0x8(%esp)
    1c38:	c7 44 24 04 60 b4 02 	movl   $0x2b460,0x4(%esp)
    1c3f:	00 
    1c40:	c7 04 24 01 00 00 00 	movl   $0x1,(%esp)
    1c47:	e8 f4 53 00 00       	call   7040 <cli_error>
    1c4c:	c7 85 e4 fe ff ff 00 	movl   $0x0,-0x11c(%ebp)
    1c53:	00 00 00 
    1c56:	e9 31 ff ff ff       	jmp    1b8c <rm_recursive_not_empty_dirs+0xbc>
    1c5b:	90                   	nop
    1c5c:	8d 74 26 00          	lea    0x0(%esi,%eiz,1),%esi

00001c60 <help_cmd_rm>:
    1c60:	55                   	push   %ebp
    1c61:	89 e5                	mov    %esp,%ebp
    1c63:	83 ec 18             	sub    $0x18,%esp
    1c66:	8b 55 08             	mov    0x8(%ebp),%edx
    1c69:	c7 44 24 04 9f a6 02 	movl   $0x2a69f,0x4(%esp)
    1c70:	00 
    1c71:	85 d2                	test   %edx,%edx
    1c73:	c7 04 24 f0 b4 02 00 	movl   $0x2b4f0,(%esp)
    1c7a:	74 24                	je     1ca0 <help_cmd_rm+0x40>
    1c7c:	e8 df 56 01 00       	call   17360 <printf>
    1c81:	c7 44 24 08 9f a6 02 	movl   $0x2a69f,0x8(%esp)
    1c88:	00 
    1c89:	c7 44 24 04 9f a6 02 	movl   $0x2a69f,0x4(%esp)
    1c90:	00 
    1c91:	c7 04 24 18 b5 02 00 	movl   $0x2b518,(%esp)
    1c98:	e8 c3 56 01 00       	call   17360 <printf>
    1c9d:	c9                   	leave  
    1c9e:	c3                   	ret    
    1c9f:	90                   	nop
    1ca0:	e8 bb 56 01 00       	call   17360 <printf>
    1ca5:	c9                   	leave  
    1ca6:	c3                   	ret    
    1ca7:	89 f6                	mov    %esi,%esi
    1ca9:	8d bc 27 00 00 00 00 	lea    0x0(%edi,%eiz,1),%edi

00001cb0 <cmd_rm>:
    1cb0:	55                   	push   %ebp
    1cb1:	89 e5                	mov    %esp,%ebp
    1cb3:	57                   	push   %edi
    1cb4:	56                   	push   %esi
    1cb5:	53                   	push   %ebx
    1cb6:	83 ec 4c             	sub    $0x4c,%esp
    1cb9:	8b 5d 08             	mov    0x8(%ebp),%ebx
    1cbc:	89 1c 24             	mov    %ebx,(%esp)
    1cbf:	e8 7c 5a 00 00       	call   7740 <cli_count_args>
    1cc4:	89 c6                	mov    %eax,%esi
    1cc6:	83 f8 01             	cmp    $0x1,%eax
    1cc9:	0f 86 09 03 00 00    	jbe    1fd8 <cmd_rm+0x328>
    1ccf:	c7 04 24 ff 00 00 00 	movl   $0xff,(%esp)
    1cd6:	c7 05 84 07 03 00 00 	movl   $0x0,0x30784
    1cdd:	00 00 00 
    1ce0:	c7 05 80 07 03 00 00 	movl   $0x0,0x30780
    1ce7:	00 00 00 
    1cea:	c7 05 88 07 03 00 00 	movl   $0x0,0x30788
    1cf1:	00 00 00 
    1cf4:	e8 17 ad 01 00       	call   1ca10 <malloc>
    1cf9:	a3 9c 07 03 00       	mov    %eax,0x3079c
    1cfe:	85 c0                	test   %eax,%eax
    1d00:	0f 84 da 01 00 00    	je     1ee0 <cmd_rm+0x230>
    1d06:	c7 44 24 08 04 00 00 	movl   $0x4,0x8(%esp)
    1d0d:	00 
    1d0e:	c7 44 24 04 00 00 00 	movl   $0x0,0x4(%esp)
    1d15:	00 
    1d16:	89 04 24             	mov    %eax,(%esp)
    1d19:	e8 b2 d3 00 00       	call   f0d0 <memset>
    1d1e:	c7 04 24 ff 00 00 00 	movl   $0xff,(%esp)
    1d25:	e8 e6 ac 01 00       	call   1ca10 <malloc>
    1d2a:	a3 94 07 03 00       	mov    %eax,0x30794
    1d2f:	85 c0                	test   %eax,%eax
    1d31:	0f 84 a9 01 00 00    	je     1ee0 <cmd_rm+0x230>
    1d37:	c7 44 24 08 04 00 00 	movl   $0x4,0x8(%esp)
    1d3e:	00 
    1d3f:	c7 44 24 04 00 00 00 	movl   $0x0,0x4(%esp)
    1d46:	00 
    1d47:	89 04 24             	mov    %eax,(%esp)
    1d4a:	e8 81 d3 00 00       	call   f0d0 <memset>
    1d4f:	c7 04 24 ff 00 00 00 	movl   $0xff,(%esp)
    1d56:	e8 b5 ac 01 00       	call   1ca10 <malloc>
    1d5b:	a3 98 07 03 00       	mov    %eax,0x30798
    1d60:	85 c0                	test   %eax,%eax
    1d62:	0f 84 78 01 00 00    	je     1ee0 <cmd_rm+0x230>
    1d68:	c7 44 24 08 04 00 00 	movl   $0x4,0x8(%esp)
    1d6f:	00 
    1d70:	c7 44 24 04 00 00 00 	movl   $0x0,0x4(%esp)
    1d77:	00 
    1d78:	89 04 24             	mov    %eax,(%esp)
    1d7b:	e8 50 d3 00 00       	call   f0d0 <memset>
    1d80:	c7 04 24 b0 c2 02 00 	movl   $0x2c2b0,(%esp)
    1d87:	e8 24 54 02 00       	call   271b0 <chdir>
    1d8c:	a1 94 07 03 00       	mov    0x30794,%eax
    1d91:	c7 44 24 04 ff 00 00 	movl   $0xff,0x4(%esp)
    1d98:	00 
    1d99:	89 04 24             	mov    %eax,(%esp)
    1d9c:	e8 6f 56 02 00       	call   27410 <getcwd>
    1da1:	85 c0                	test   %eax,%eax
    1da3:	0f 84 37 01 00 00    	je     1ee0 <cmd_rm+0x230>
    1da9:	c7 05 f4 06 03 00 00 	movl   $0x0,0x306f4
    1db0:	00 00 00 
    1db3:	c7 45 e4 00 00 00 00 	movl   $0x0,-0x1c(%ebp)
    1dba:	8d 7d e4             	lea    -0x1c(%ebp),%edi
    1dbd:	89 7c 24 10          	mov    %edi,0x10(%esp)
    1dc1:	c7 44 24 0c 40 b7 02 	movl   $0x2b740,0xc(%esp)
    1dc8:	00 
    1dc9:	c7 44 24 08 a7 b4 02 	movl   $0x2b4a7,0x8(%esp)
    1dd0:	00 
    1dd1:	89 5c 24 04          	mov    %ebx,0x4(%esp)
    1dd5:	89 34 24             	mov    %esi,(%esp)
    1dd8:	e8 e3 0e 02 00       	call   22cc0 <getopt_long>
    1ddd:	8d 50 9a             	lea    -0x66(%eax),%edx
    1de0:	83 fa 10             	cmp    $0x10,%edx
    1de3:	0f 86 57 01 00 00    	jbe    1f40 <cmd_rm+0x290>
    1de9:	40                   	inc    %eax
    1dea:	75 d1                	jne    1dbd <cmd_rm+0x10d>
    1dec:	8b 15 f4 06 03 00    	mov    0x306f4,%edx
    1df2:	39 f2                	cmp    %esi,%edx
    1df4:	0f 84 0f 02 00 00    	je     2009 <cmd_rm+0x359>
    1dfa:	8d 3c 93             	lea    (%ebx,%edx,4),%edi
    1dfd:	8b 07                	mov    (%edi),%eax
    1dff:	85 c0                	test   %eax,%eax
    1e01:	0f 84 4a 02 00 00    	je     2051 <cmd_rm+0x3a1>
    1e07:	8d 74 93 04          	lea    0x4(%ebx,%edx,4),%esi
    1e0b:	c7 45 d0 00 00 00 00 	movl   $0x0,-0x30(%ebp)
    1e12:	31 db                	xor    %ebx,%ebx
    1e14:	eb 29                	jmp    1e3f <cmd_rm+0x18f>
    1e16:	66 90                	xchg   %ax,%ax
    1e18:	89 5c 24 04          	mov    %ebx,0x4(%esp)
    1e1c:	c7 04 24 b4 b6 02 00 	movl   $0x2b6b4,(%esp)
    1e23:	e8 38 55 01 00       	call   17360 <printf>
    1e28:	8b 45 d0             	mov    -0x30(%ebp),%eax
    1e2b:	40                   	inc    %eax
    1e2c:	89 45 d0             	mov    %eax,-0x30(%ebp)
    1e2f:	89 f7                	mov    %esi,%edi
    1e31:	83 c6 04             	add    $0x4,%esi
    1e34:	8b 46 fc             	mov    -0x4(%esi),%eax
    1e37:	85 c0                	test   %eax,%eax
    1e39:	0f 84 f9 02 00 00    	je     2138 <cmd_rm+0x488>
    1e3f:	89 04 24             	mov    %eax,(%esp)
    1e42:	e8 19 e2 00 00       	call   10060 <str_size>
    1e47:	89 1c 24             	mov    %ebx,(%esp)
    1e4a:	83 c0 02             	add    $0x2,%eax
    1e4d:	89 44 24 04          	mov    %eax,0x4(%esp)
    1e51:	89 45 d4             	mov    %eax,-0x2c(%ebp)
    1e54:	e8 17 af 01 00       	call   1cd70 <realloc>
    1e59:	89 c3                	mov    %eax,%ebx
    1e5b:	85 c0                	test   %eax,%eax
    1e5d:	0f 84 dd 01 00 00    	je     2040 <cmd_rm+0x390>
    1e63:	c7 44 24 08 04 00 00 	movl   $0x4,0x8(%esp)
    1e6a:	00 
    1e6b:	c7 44 24 04 00 00 00 	movl   $0x0,0x4(%esp)
    1e72:	00 
    1e73:	89 04 24             	mov    %eax,(%esp)
    1e76:	e8 55 d2 00 00       	call   f0d0 <memset>
    1e7b:	8b 07                	mov    (%edi),%eax
    1e7d:	89 44 24 0c          	mov    %eax,0xc(%esp)
    1e81:	8b 45 d4             	mov    -0x2c(%ebp),%eax
    1e84:	c7 44 24 08 92 b4 02 	movl   $0x2b492,0x8(%esp)
    1e8b:	00 
    1e8c:	89 44 24 04          	mov    %eax,0x4(%esp)
    1e90:	89 1c 24             	mov    %ebx,(%esp)
    1e93:	e8 68 57 01 00       	call   17600 <snprintf>
    1e98:	89 1c 24             	mov    %ebx,(%esp)
    1e9b:	e8 a0 4b 02 00       	call   26a40 <opendir>
    1ea0:	85 c0                	test   %eax,%eax
    1ea2:	0f 84 00 02 00 00    	je     20a8 <cmd_rm+0x3f8>
    1ea8:	89 04 24             	mov    %eax,(%esp)
    1eab:	e8 10 4f 02 00       	call   26dc0 <closedir>
    1eb0:	8b 0d 84 07 03 00    	mov    0x30784,%ecx
    1eb6:	85 c9                	test   %ecx,%ecx
    1eb8:	0f 84 5a ff ff ff    	je     1e18 <cmd_rm+0x168>
    1ebe:	89 1c 24             	mov    %ebx,(%esp)
    1ec1:	31 ff                	xor    %edi,%edi
    1ec3:	e8 28 51 02 00       	call   26ff0 <rmdir>
    1ec8:	85 c0                	test   %eax,%eax
    1eca:	0f 85 30 02 00 00    	jne    2100 <cmd_rm+0x450>
    1ed0:	8b 45 d0             	mov    -0x30(%ebp),%eax
    1ed3:	01 f8                	add    %edi,%eax
    1ed5:	89 45 d0             	mov    %eax,-0x30(%ebp)
    1ed8:	e9 52 ff ff ff       	jmp    1e2f <cmd_rm+0x17f>
    1edd:	8d 76 00             	lea    0x0(%esi),%esi
    1ee0:	c7 44 24 08 9f a6 02 	movl   $0x2a69f,0x8(%esp)
    1ee7:	00 
    1ee8:	c7 44 24 04 c0 b4 02 	movl   $0x2b4c0,0x4(%esp)
    1eef:	00 
    1ef0:	c7 04 24 04 00 00 00 	movl   $0x4,(%esp)
    1ef7:	e8 44 51 00 00       	call   7040 <cli_error>
    1efc:	a1 9c 07 03 00       	mov    0x3079c,%eax
    1f01:	85 c0                	test   %eax,%eax
    1f03:	74 08                	je     1f0d <cmd_rm+0x25d>
    1f05:	89 04 24             	mov    %eax,(%esp)
    1f08:	e8 13 ac 01 00       	call   1cb20 <free>
    1f0d:	a1 94 07 03 00       	mov    0x30794,%eax
    1f12:	85 c0                	test   %eax,%eax
    1f14:	74 08                	je     1f1e <cmd_rm+0x26e>
    1f16:	89 04 24             	mov    %eax,(%esp)
    1f19:	e8 02 ac 01 00       	call   1cb20 <free>
    1f1e:	a1 98 07 03 00       	mov    0x30798,%eax
    1f23:	85 c0                	test   %eax,%eax
    1f25:	74 08                	je     1f2f <cmd_rm+0x27f>
    1f27:	89 04 24             	mov    %eax,(%esp)
    1f2a:	e8 f1 ab 01 00       	call   1cb20 <free>
    1f2f:	83 c4 4c             	add    $0x4c,%esp
    1f32:	b8 01 00 00 00       	mov    $0x1,%eax
    1f37:	5b                   	pop    %ebx
    1f38:	5e                   	pop    %esi
    1f39:	5f                   	pop    %edi
    1f3a:	5d                   	pop    %ebp
    1f3b:	c3                   	ret    
    1f3c:	8d 74 26 00          	lea    0x0(%esi,%eiz,1),%esi
    1f40:	ff 24 95 e0 b6 02 00 	jmp    *0x2b6e0(,%edx,4)
    1f47:	90                   	nop
    1f48:	c7 44 24 04 9f ae 02 	movl   $0x2ae9f,0x4(%esp)
    1f4f:	00 
    1f50:	c7 04 24 f2 a5 02 00 	movl   $0x2a5f2,(%esp)
    1f57:	e8 04 54 01 00       	call   17360 <printf>
    1f5c:	31 c0                	xor    %eax,%eax
    1f5e:	83 c4 4c             	add    $0x4c,%esp
    1f61:	5b                   	pop    %ebx
    1f62:	5e                   	pop    %esi
    1f63:	5f                   	pop    %edi
    1f64:	5d                   	pop    %ebp
    1f65:	c3                   	ret    
    1f66:	66 90                	xchg   %ax,%ax
    1f68:	c7 05 88 07 03 00 01 	movl   $0x1,0x30788
    1f6f:	00 00 00 
    1f72:	e9 46 fe ff ff       	jmp    1dbd <cmd_rm+0x10d>
    1f77:	90                   	nop
    1f78:	c7 05 84 07 03 00 01 	movl   $0x1,0x30784
    1f7f:	00 00 00 
    1f82:	e9 36 fe ff ff       	jmp    1dbd <cmd_rm+0x10d>
    1f87:	90                   	nop
    1f88:	c7 44 24 04 9f a6 02 	movl   $0x2a69f,0x4(%esp)
    1f8f:	00 
    1f90:	c7 04 24 f0 b4 02 00 	movl   $0x2b4f0,(%esp)
    1f97:	e8 c4 53 01 00       	call   17360 <printf>
    1f9c:	c7 44 24 08 9f a6 02 	movl   $0x2a69f,0x8(%esp)
    1fa3:	00 
    1fa4:	c7 44 24 04 9f a6 02 	movl   $0x2a69f,0x4(%esp)
    1fab:	00 
    1fac:	c7 04 24 18 b5 02 00 	movl   $0x2b518,(%esp)
    1fb3:	e8 a8 53 01 00       	call   17360 <printf>
    1fb8:	83 c4 4c             	add    $0x4c,%esp
    1fbb:	31 c0                	xor    %eax,%eax
    1fbd:	5b                   	pop    %ebx
    1fbe:	5e                   	pop    %esi
    1fbf:	5f                   	pop    %edi
    1fc0:	5d                   	pop    %ebp
    1fc1:	c3                   	ret    
    1fc2:	8d b6 00 00 00 00    	lea    0x0(%esi),%esi
    1fc8:	c7 05 80 07 03 00 01 	movl   $0x1,0x30780
    1fcf:	00 00 00 
    1fd2:	e9 e6 fd ff ff       	jmp    1dbd <cmd_rm+0x10d>
    1fd7:	90                   	nop
    1fd8:	c7 44 24 0c 9f a6 02 	movl   $0x2a69f,0xc(%esp)
    1fdf:	00 
    1fe0:	c7 44 24 08 9f a6 02 	movl   $0x2a69f,0x8(%esp)
    1fe7:	00 
    1fe8:	c7 44 24 04 88 b6 02 	movl   $0x2b688,0x4(%esp)
    1fef:	00 
    1ff0:	c7 04 24 01 00 00 00 	movl   $0x1,(%esp)
    1ff7:	e8 44 50 00 00       	call   7040 <cli_error>
    1ffc:	83 c4 4c             	add    $0x4c,%esp
    1fff:	b8 01 00 00 00       	mov    $0x1,%eax
    2004:	5b                   	pop    %ebx
    2005:	5e                   	pop    %esi
    2006:	5f                   	pop    %edi
    2007:	5d                   	pop    %ebp
    2008:	c3                   	ret    
    2009:	c7 44 24 0c 9f a6 02 	movl   $0x2a69f,0xc(%esp)
    2010:	00 
    2011:	c7 44 24 08 9f a6 02 	movl   $0x2a69f,0x8(%esp)
    2018:	00 
    2019:	c7 44 24 04 88 b6 02 	movl   $0x2b688,0x4(%esp)
    2020:	00 
    2021:	c7 04 24 01 00 00 00 	movl   $0x1,(%esp)
    2028:	e8 13 50 00 00       	call   7040 <cli_error>
    202d:	a1 9c 07 03 00       	mov    0x3079c,%eax
    2032:	85 c0                	test   %eax,%eax
    2034:	0f 85 cb fe ff ff    	jne    1f05 <cmd_rm+0x255>
    203a:	e9 ce fe ff ff       	jmp    1f0d <cmd_rm+0x25d>
    203f:	90                   	nop
    2040:	c7 04 24 ad b4 02 00 	movl   $0x2b4ad,(%esp)
    2047:	e8 14 53 01 00       	call   17360 <printf>
    204c:	b8 01 00 00 00       	mov    $0x1,%eax
    2051:	8b 15 9c 07 03 00    	mov    0x3079c,%edx
    2057:	85 d2                	test   %edx,%edx
    2059:	74 0e                	je     2069 <cmd_rm+0x3b9>
    205b:	89 14 24             	mov    %edx,(%esp)
    205e:	89 45 cc             	mov    %eax,-0x34(%ebp)
    2061:	e8 ba aa 01 00       	call   1cb20 <free>
    2066:	8b 45 cc             	mov    -0x34(%ebp),%eax
    2069:	8b 15 94 07 03 00    	mov    0x30794,%edx
    206f:	85 d2                	test   %edx,%edx
    2071:	74 0e                	je     2081 <cmd_rm+0x3d1>
    2073:	89 14 24             	mov    %edx,(%esp)
    2076:	89 45 cc             	mov    %eax,-0x34(%ebp)
    2079:	e8 a2 aa 01 00       	call   1cb20 <free>
    207e:	8b 45 cc             	mov    -0x34(%ebp),%eax
    2081:	8b 15 98 07 03 00    	mov    0x30798,%edx
    2087:	85 d2                	test   %edx,%edx
    2089:	0f 84 cf fe ff ff    	je     1f5e <cmd_rm+0x2ae>
    208f:	89 14 24             	mov    %edx,(%esp)
    2092:	89 45 cc             	mov    %eax,-0x34(%ebp)
    2095:	e8 86 aa 01 00       	call   1cb20 <free>
    209a:	8b 45 cc             	mov    -0x34(%ebp),%eax
    209d:	e9 bc fe ff ff       	jmp    1f5e <cmd_rm+0x2ae>
    20a2:	8d b6 00 00 00 00    	lea    0x0(%esi),%esi
    20a8:	c7 44 24 04 10 00 00 	movl   $0x10,0x4(%esp)
    20af:	00 
    20b0:	89 1c 24             	mov    %ebx,(%esp)
    20b3:	e8 68 3d 02 00       	call   25e20 <open>
    20b8:	85 c0                	test   %eax,%eax
    20ba:	7e 08                	jle    20c4 <cmd_rm+0x414>
    20bc:	89 04 24             	mov    %eax,(%esp)
    20bf:	e8 9c 3e 02 00       	call   25f60 <close>
    20c4:	89 1c 24             	mov    %ebx,(%esp)
    20c7:	e8 14 4f 02 00       	call   26fe0 <unlink>
    20cc:	85 c0                	test   %eax,%eax
    20ce:	74 1d                	je     20ed <cmd_rm+0x43d>
    20d0:	89 5c 24 08          	mov    %ebx,0x8(%esp)
    20d4:	c7 44 24 04 78 b4 02 	movl   $0x2b478,0x4(%esp)
    20db:	00 
    20dc:	c7 04 24 01 00 00 00 	movl   $0x1,(%esp)
    20e3:	e8 58 4f 00 00       	call   7040 <cli_error>
    20e8:	b8 01 00 00 00       	mov    $0x1,%eax
    20ed:	8b 55 d0             	mov    -0x30(%ebp),%edx
    20f0:	01 c2                	add    %eax,%edx
    20f2:	89 55 d0             	mov    %edx,-0x30(%ebp)
    20f5:	e9 35 fd ff ff       	jmp    1e2f <cmd_rm+0x17f>
    20fa:	8d b6 00 00 00 00    	lea    0x0(%esi),%esi
    2100:	89 d8                	mov    %ebx,%eax
    2102:	e8 c9 f9 ff ff       	call   1ad0 <rm_recursive_not_empty_dirs>
    2107:	89 1c 24             	mov    %ebx,(%esp)
    210a:	89 c7                	mov    %eax,%edi
    210c:	e8 df 4e 02 00       	call   26ff0 <rmdir>
    2111:	85 c0                	test   %eax,%eax
    2113:	0f 84 b7 fd ff ff    	je     1ed0 <cmd_rm+0x220>
    2119:	89 5c 24 08          	mov    %ebx,0x8(%esp)
    211d:	c7 44 24 04 95 b4 02 	movl   $0x2b495,0x4(%esp)
    2124:	00 
    2125:	c7 04 24 06 00 00 00 	movl   $0x6,(%esp)
    212c:	47                   	inc    %edi
    212d:	e8 0e 4f 00 00       	call   7040 <cli_error>
    2132:	e9 99 fd ff ff       	jmp    1ed0 <cmd_rm+0x220>
    2137:	90                   	nop
    2138:	89 1c 24             	mov    %ebx,(%esp)
    213b:	e8 e0 a9 01 00       	call   1cb20 <free>
    2140:	8b 4d d0             	mov    -0x30(%ebp),%ecx
    2143:	85 c9                	test   %ecx,%ecx
    2145:	0f 95 c0             	setne  %al
    2148:	25 ff 00 00 00       	and    $0xff,%eax
    214d:	e9 ff fe ff ff       	jmp    2051 <cmd_rm+0x3a1>
    2152:	66 90                	xchg   %ax,%ax
    2154:	66 90                	xchg   %ax,%ax
    2156:	66 90                	xchg   %ax,%ax
    2158:	66 90                	xchg   %ax,%ax
    215a:	66 90                	xchg   %ax,%ax
    215c:	66 90                	xchg   %ax,%ax
    215e:	66 90                	xchg   %ax,%ax

00002160 <help_cmd_bdd.constprop.0>:
    2160:	55                   	push   %ebp
    2161:	89 e5                	mov    %esp,%ebp
    2163:	83 ec 18             	sub    $0x18,%esp
    2166:	c7 44 24 04 bf a6 02 	movl   $0x2a6bf,0x4(%esp)
    216d:	00 
    216e:	c7 04 24 f0 b7 02 00 	movl   $0x2b7f0,(%esp)
    2175:	e8 e6 51 01 00       	call   17360 <printf>
    217a:	c9                   	leave  
    217b:	c3                   	ret    
    217c:	8d 74 26 00          	lea    0x0(%esi,%eiz,1),%esi

00002180 <help_cmd_bdd>:
    2180:	55                   	push   %ebp
    2181:	89 e5                	mov    %esp,%ebp
    2183:	83 ec 18             	sub    $0x18,%esp
    2186:	8b 45 08             	mov    0x8(%ebp),%eax
    2189:	c7 44 24 04 bf a6 02 	movl   $0x2a6bf,0x4(%esp)
    2190:	00 
    2191:	85 c0                	test   %eax,%eax
    2193:	c7 04 24 f0 b7 02 00 	movl   $0x2b7f0,(%esp)
    219a:	74 14                	je     21b0 <help_cmd_bdd+0x30>
    219c:	e8 bf 51 01 00       	call   17360 <printf>
    21a1:	c7 44 24 04 bf a6 02 	movl   $0x2a6bf,0x4(%esp)
    21a8:	00 
    21a9:	c7 04 24 80 02 03 00 	movl   $0x30280,(%esp)
    21b0:	e8 ab 51 01 00       	call   17360 <printf>
    21b5:	c9                   	leave  
    21b6:	c3                   	ret    
    21b7:	89 f6                	mov    %esi,%esi
    21b9:	8d bc 27 00 00 00 00 	lea    0x0(%edi,%eiz,1),%edi

000021c0 <cmd_bdd>:
    21c0:	55                   	push   %ebp
    21c1:	89 e5                	mov    %esp,%ebp
    21c3:	57                   	push   %edi
    21c4:	56                   	push   %esi
    21c5:	53                   	push   %ebx
    21c6:	81 ec 9c 00 00 00    	sub    $0x9c,%esp
    21cc:	8b 75 08             	mov    0x8(%ebp),%esi
    21cf:	8b 06                	mov    (%esi),%eax
    21d1:	85 c0                	test   %eax,%eax
    21d3:	0f 84 1f 0a 00 00    	je     2bf8 <cmd_bdd+0xa38>
    21d9:	31 db                	xor    %ebx,%ebx
    21db:	90                   	nop
    21dc:	8d 74 26 00          	lea    0x0(%esi,%eiz,1),%esi
    21e0:	43                   	inc    %ebx
    21e1:	8b 3c 9e             	mov    (%esi,%ebx,4),%edi
    21e4:	85 ff                	test   %edi,%edi
    21e6:	75 f8                	jne    21e0 <cmd_bdd+0x20>
    21e8:	8d 43 fe             	lea    -0x2(%ebx),%eax
    21eb:	83 f8 02             	cmp    $0x2,%eax
    21ee:	0f 87 04 0a 00 00    	ja     2bf8 <cmd_bdd+0xa38>
    21f4:	83 fb 02             	cmp    $0x2,%ebx
    21f7:	0f 85 a3 09 00 00    	jne    2ba0 <cmd_bdd+0x9e0>
    21fd:	c7 85 78 ff ff ff 00 	movl   $0x0,-0x88(%ebp)
    2204:	00 00 00 
    2207:	c7 85 7c ff ff ff 00 	movl   $0x0,-0x84(%ebp)
    220e:	00 00 00 
    2211:	c7 45 90 00 01 00 00 	movl   $0x100,-0x70(%ebp)
    2218:	8d 45 e0             	lea    -0x20(%ebp),%eax
    221b:	c7 44 24 08 00 00 00 	movl   $0x0,0x8(%esp)
    2222:	00 
    2223:	89 44 24 04          	mov    %eax,0x4(%esp)
    2227:	8b 46 04             	mov    0x4(%esi),%eax
    222a:	89 04 24             	mov    %eax,(%esp)
    222d:	e8 5e b6 00 00       	call   d890 <loc_service_get_id>
    2232:	85 c0                	test   %eax,%eax
    2234:	0f 85 36 09 00 00    	jne    2b70 <cmd_bdd+0x9b0>
    223a:	8b 45 e0             	mov    -0x20(%ebp),%eax
    223d:	c7 44 24 08 00 08 00 	movl   $0x800,0x8(%esp)
    2244:	00 
    2245:	89 44 24 04          	mov    %eax,0x4(%esp)
    2249:	c7 04 24 02 00 00 00 	movl   $0x2,(%esp)
    2250:	e8 6b 60 00 00       	call   82c0 <block_init>
    2255:	85 c0                	test   %eax,%eax
    2257:	0f 85 7b 08 00 00    	jne    2ad8 <cmd_bdd+0x918>
    225d:	8d 45 e4             	lea    -0x1c(%ebp),%eax
    2260:	89 44 24 04          	mov    %eax,0x4(%esp)
    2264:	8b 45 e0             	mov    -0x20(%ebp),%eax
    2267:	89 04 24             	mov    %eax,(%esp)
    226a:	e8 e1 72 00 00       	call   9550 <block_get_bsize>
    226f:	85 c0                	test   %eax,%eax
    2271:	0f 85 9f 09 00 00    	jne    2c16 <cmd_bdd+0xa56>
    2277:	8b 45 e4             	mov    -0x1c(%ebp),%eax
    227a:	89 04 24             	mov    %eax,(%esp)
    227d:	e8 8e a7 01 00       	call   1ca10 <malloc>
    2282:	89 45 84             	mov    %eax,-0x7c(%ebp)
    2285:	85 c0                	test   %eax,%eax
    2287:	0f 84 fb 09 00 00    	je     2c88 <cmd_bdd+0xac8>
    228d:	8b 75 e4             	mov    -0x1c(%ebp),%esi
    2290:	8b 8d 7c ff ff ff    	mov    -0x84(%ebp),%ecx
    2296:	8b 85 78 ff ff ff    	mov    -0x88(%ebp),%eax
    229c:	8b 5d 90             	mov    -0x70(%ebp),%ebx
    229f:	f7 e6                	mul    %esi
    22a1:	0f af ce             	imul   %esi,%ecx
    22a4:	01 ca                	add    %ecx,%edx
    22a6:	89 45 d0             	mov    %eax,-0x30(%ebp)
    22a9:	89 55 d4             	mov    %edx,-0x2c(%ebp)
    22ac:	85 db                	test   %ebx,%ebx
    22ae:	0f 84 94 08 00 00    	je     2b48 <cmd_bdd+0x988>
    22b4:	8d 74 26 00          	lea    0x0(%esi,%eiz,1),%esi
    22b8:	8b 45 84             	mov    -0x7c(%ebp),%eax
    22bb:	8b 95 78 ff ff ff    	mov    -0x88(%ebp),%edx
    22c1:	89 44 24 10          	mov    %eax,0x10(%esp)
    22c5:	8b 8d 7c ff ff ff    	mov    -0x84(%ebp),%ecx
    22cb:	8b 45 e0             	mov    -0x20(%ebp),%eax
    22ce:	c7 44 24 0c 01 00 00 	movl   $0x1,0xc(%esp)
    22d5:	00 
    22d6:	89 54 24 04          	mov    %edx,0x4(%esp)
    22da:	89 4c 24 08          	mov    %ecx,0x8(%esp)
    22de:	89 04 24             	mov    %eax,(%esp)
    22e1:	e8 8a 70 00 00       	call   9370 <block_read_direct>
    22e6:	85 c0                	test   %eax,%eax
    22e8:	0f 85 46 09 00 00    	jne    2c34 <cmd_bdd+0xa74>
    22ee:	8b 45 e4             	mov    -0x1c(%ebp),%eax
    22f1:	8b 7d 90             	mov    -0x70(%ebp),%edi
    22f4:	39 c7                	cmp    %eax,%edi
    22f6:	76 02                	jbe    22fa <cmd_bdd+0x13a>
    22f8:	89 c7                	mov    %eax,%edi
    22fa:	8d 47 0f             	lea    0xf(%edi),%eax
    22fd:	c1 e8 04             	shr    $0x4,%eax
    2300:	89 45 80             	mov    %eax,-0x80(%ebp)
    2303:	0f 84 17 08 00 00    	je     2b20 <cmd_bdd+0x960>
    2309:	8b 55 d0             	mov    -0x30(%ebp),%edx
    230c:	48                   	dec    %eax
    230d:	8b 4d d4             	mov    -0x2c(%ebp),%ecx
    2310:	83 c2 10             	add    $0x10,%edx
    2313:	83 d1 00             	adc    $0x0,%ecx
    2316:	89 55 88             	mov    %edx,-0x78(%ebp)
    2319:	31 d2                	xor    %edx,%edx
    231b:	89 4d 8c             	mov    %ecx,-0x74(%ebp)
    231e:	0f a4 c2 04          	shld   $0x4,%eax,%edx
    2322:	c1 e0 04             	shl    $0x4,%eax
    2325:	8b 75 84             	mov    -0x7c(%ebp),%esi
    2328:	01 45 88             	add    %eax,-0x78(%ebp)
    232b:	11 55 8c             	adc    %edx,-0x74(%ebp)
    232e:	31 db                	xor    %ebx,%ebx
    2330:	e9 07 04 00 00       	jmp    273c <cmd_bdd+0x57c>
    2335:	8d 76 00             	lea    0x0(%esi),%esi
    2338:	c7 04 24 e6 b7 02 00 	movl   $0x2b7e6,(%esp)
    233f:	e8 1c 50 01 00       	call   17360 <printf>
    2344:	8d 53 02             	lea    0x2(%ebx),%edx
    2347:	89 55 94             	mov    %edx,-0x6c(%ebp)
    234a:	39 d7                	cmp    %edx,%edi
    234c:	0f 87 49 04 00 00    	ja     279b <cmd_bdd+0x5db>
    2352:	c7 04 24 e6 b7 02 00 	movl   $0x2b7e6,(%esp)
    2359:	e8 02 50 01 00       	call   17360 <printf>
    235e:	8d 4b 03             	lea    0x3(%ebx),%ecx
    2361:	89 4d a0             	mov    %ecx,-0x60(%ebp)
    2364:	39 cf                	cmp    %ecx,%edi
    2366:	0f 87 52 04 00 00    	ja     27be <cmd_bdd+0x5fe>
    236c:	c7 04 24 e6 b7 02 00 	movl   $0x2b7e6,(%esp)
    2373:	e8 e8 4f 01 00       	call   17360 <printf>
    2378:	8d 53 04             	lea    0x4(%ebx),%edx
    237b:	89 55 9c             	mov    %edx,-0x64(%ebp)
    237e:	39 d7                	cmp    %edx,%edi
    2380:	0f 87 5b 04 00 00    	ja     27e1 <cmd_bdd+0x621>
    2386:	c7 04 24 e6 b7 02 00 	movl   $0x2b7e6,(%esp)
    238d:	e8 ce 4f 01 00       	call   17360 <printf>
    2392:	8d 4b 05             	lea    0x5(%ebx),%ecx
    2395:	89 4d a8             	mov    %ecx,-0x58(%ebp)
    2398:	39 cf                	cmp    %ecx,%edi
    239a:	0f 87 64 04 00 00    	ja     2804 <cmd_bdd+0x644>
    23a0:	c7 04 24 e6 b7 02 00 	movl   $0x2b7e6,(%esp)
    23a7:	e8 b4 4f 01 00       	call   17360 <printf>
    23ac:	8d 53 06             	lea    0x6(%ebx),%edx
    23af:	89 55 a4             	mov    %edx,-0x5c(%ebp)
    23b2:	39 d7                	cmp    %edx,%edi
    23b4:	0f 87 6d 04 00 00    	ja     2827 <cmd_bdd+0x667>
    23ba:	c7 04 24 e6 b7 02 00 	movl   $0x2b7e6,(%esp)
    23c1:	e8 9a 4f 01 00       	call   17360 <printf>
    23c6:	8d 4b 07             	lea    0x7(%ebx),%ecx
    23c9:	89 4d b0             	mov    %ecx,-0x50(%ebp)
    23cc:	39 cf                	cmp    %ecx,%edi
    23ce:	0f 87 76 04 00 00    	ja     284a <cmd_bdd+0x68a>
    23d4:	c7 04 24 e6 b7 02 00 	movl   $0x2b7e6,(%esp)
    23db:	e8 80 4f 01 00       	call   17360 <printf>
    23e0:	8d 53 08             	lea    0x8(%ebx),%edx
    23e3:	89 55 ac             	mov    %edx,-0x54(%ebp)
    23e6:	39 d7                	cmp    %edx,%edi
    23e8:	0f 87 7f 04 00 00    	ja     286d <cmd_bdd+0x6ad>
    23ee:	c7 04 24 e6 b7 02 00 	movl   $0x2b7e6,(%esp)
    23f5:	e8 66 4f 01 00       	call   17360 <printf>
    23fa:	8d 4b 09             	lea    0x9(%ebx),%ecx
    23fd:	89 4d b8             	mov    %ecx,-0x48(%ebp)
    2400:	39 cf                	cmp    %ecx,%edi
    2402:	0f 87 88 04 00 00    	ja     2890 <cmd_bdd+0x6d0>
    2408:	c7 04 24 e6 b7 02 00 	movl   $0x2b7e6,(%esp)
    240f:	e8 4c 4f 01 00       	call   17360 <printf>
    2414:	8d 53 0a             	lea    0xa(%ebx),%edx
    2417:	89 55 b4             	mov    %edx,-0x4c(%ebp)
    241a:	39 d7                	cmp    %edx,%edi
    241c:	0f 87 91 04 00 00    	ja     28b3 <cmd_bdd+0x6f3>
    2422:	c7 04 24 e6 b7 02 00 	movl   $0x2b7e6,(%esp)
    2429:	e8 32 4f 01 00       	call   17360 <printf>
    242e:	8d 4b 0b             	lea    0xb(%ebx),%ecx
    2431:	89 4d cc             	mov    %ecx,-0x34(%ebp)
    2434:	39 cf                	cmp    %ecx,%edi
    2436:	0f 87 9a 04 00 00    	ja     28d6 <cmd_bdd+0x716>
    243c:	c7 04 24 e6 b7 02 00 	movl   $0x2b7e6,(%esp)
    2443:	e8 18 4f 01 00       	call   17360 <printf>
    2448:	8d 53 0c             	lea    0xc(%ebx),%edx
    244b:	89 55 bc             	mov    %edx,-0x44(%ebp)
    244e:	39 d7                	cmp    %edx,%edi
    2450:	0f 87 a3 04 00 00    	ja     28f9 <cmd_bdd+0x739>
    2456:	c7 04 24 e6 b7 02 00 	movl   $0x2b7e6,(%esp)
    245d:	e8 fe 4e 01 00       	call   17360 <printf>
    2462:	8d 4b 0d             	lea    0xd(%ebx),%ecx
    2465:	89 4d c4             	mov    %ecx,-0x3c(%ebp)
    2468:	39 cf                	cmp    %ecx,%edi
    246a:	0f 87 ac 04 00 00    	ja     291c <cmd_bdd+0x75c>
    2470:	c7 04 24 e6 b7 02 00 	movl   $0x2b7e6,(%esp)
    2477:	e8 e4 4e 01 00       	call   17360 <printf>
    247c:	8d 53 0e             	lea    0xe(%ebx),%edx
    247f:	89 55 c0             	mov    %edx,-0x40(%ebp)
    2482:	39 d7                	cmp    %edx,%edi
    2484:	0f 87 b5 04 00 00    	ja     293f <cmd_bdd+0x77f>
    248a:	c7 04 24 e6 b7 02 00 	movl   $0x2b7e6,(%esp)
    2491:	e8 ca 4e 01 00       	call   17360 <printf>
    2496:	8d 4b 0f             	lea    0xf(%ebx),%ecx
    2499:	89 4d c8             	mov    %ecx,-0x38(%ebp)
    249c:	39 cf                	cmp    %ecx,%edi
    249e:	0f 87 be 04 00 00    	ja     2962 <cmd_bdd+0x7a2>
    24a4:	c7 04 24 e6 b7 02 00 	movl   $0x2b7e6,(%esp)
    24ab:	e8 b0 4e 01 00       	call   17360 <printf>
    24b0:	c7 04 24 09 00 00 00 	movl   $0x9,(%esp)
    24b7:	e8 e4 4b 01 00       	call   170a0 <putchar>
    24bc:	39 df                	cmp    %ebx,%edi
    24be:	0f 86 c7 04 00 00    	jbe    298b <cmd_bdd+0x7cb>
    24c4:	8a 06                	mov    (%esi),%al
    24c6:	8d 50 e0             	lea    -0x20(%eax),%edx
    24c9:	80 fa 5e             	cmp    $0x5e,%dl
    24cc:	0f 87 b9 04 00 00    	ja     298b <cmd_bdd+0x7cb>
    24d2:	25 ff 00 00 00       	and    $0xff,%eax
    24d7:	89 04 24             	mov    %eax,(%esp)
    24da:	e8 c1 4b 01 00       	call   170a0 <putchar>
    24df:	3b 7d 98             	cmp    -0x68(%ebp),%edi
    24e2:	0f 86 b8 04 00 00    	jbe    29a0 <cmd_bdd+0x7e0>
    24e8:	8a 46 01             	mov    0x1(%esi),%al
    24eb:	8d 50 e0             	lea    -0x20(%eax),%edx
    24ee:	80 fa 5e             	cmp    $0x5e,%dl
    24f1:	0f 87 a9 04 00 00    	ja     29a0 <cmd_bdd+0x7e0>
    24f7:	25 ff 00 00 00       	and    $0xff,%eax
    24fc:	89 04 24             	mov    %eax,(%esp)
    24ff:	e8 9c 4b 01 00       	call   170a0 <putchar>
    2504:	3b 7d 94             	cmp    -0x6c(%ebp),%edi
    2507:	0f 86 a8 04 00 00    	jbe    29b5 <cmd_bdd+0x7f5>
    250d:	8a 46 02             	mov    0x2(%esi),%al
    2510:	8d 50 e0             	lea    -0x20(%eax),%edx
    2513:	80 fa 5e             	cmp    $0x5e,%dl
    2516:	0f 87 99 04 00 00    	ja     29b5 <cmd_bdd+0x7f5>
    251c:	25 ff 00 00 00       	and    $0xff,%eax
    2521:	89 04 24             	mov    %eax,(%esp)
    2524:	e8 77 4b 01 00       	call   170a0 <putchar>
    2529:	3b 7d a0             	cmp    -0x60(%ebp),%edi
    252c:	0f 86 98 04 00 00    	jbe    29ca <cmd_bdd+0x80a>
    2532:	8a 46 03             	mov    0x3(%esi),%al
    2535:	8d 50 e0             	lea    -0x20(%eax),%edx
    2538:	80 fa 5e             	cmp    $0x5e,%dl
    253b:	0f 87 89 04 00 00    	ja     29ca <cmd_bdd+0x80a>
    2541:	25 ff 00 00 00       	and    $0xff,%eax
    2546:	89 04 24             	mov    %eax,(%esp)
    2549:	e8 52 4b 01 00       	call   170a0 <putchar>
    254e:	3b 7d 9c             	cmp    -0x64(%ebp),%edi
    2551:	0f 86 88 04 00 00    	jbe    29df <cmd_bdd+0x81f>
    2557:	8a 46 04             	mov    0x4(%esi),%al
    255a:	8d 50 e0             	lea    -0x20(%eax),%edx
    255d:	80 fa 5e             	cmp    $0x5e,%dl
    2560:	0f 87 79 04 00 00    	ja     29df <cmd_bdd+0x81f>
    2566:	25 ff 00 00 00       	and    $0xff,%eax
    256b:	89 04 24             	mov    %eax,(%esp)
    256e:	e8 2d 4b 01 00       	call   170a0 <putchar>
    2573:	3b 7d a8             	cmp    -0x58(%ebp),%edi
    2576:	0f 86 78 04 00 00    	jbe    29f4 <cmd_bdd+0x834>
    257c:	8a 46 05             	mov    0x5(%esi),%al
    257f:	8d 50 e0             	lea    -0x20(%eax),%edx
    2582:	80 fa 5e             	cmp    $0x5e,%dl
    2585:	0f 87 69 04 00 00    	ja     29f4 <cmd_bdd+0x834>
    258b:	25 ff 00 00 00       	and    $0xff,%eax
    2590:	89 04 24             	mov    %eax,(%esp)
    2593:	e8 08 4b 01 00       	call   170a0 <putchar>
    2598:	3b 7d a4             	cmp    -0x5c(%ebp),%edi
    259b:	0f 86 68 04 00 00    	jbe    2a09 <cmd_bdd+0x849>
    25a1:	8a 46 06             	mov    0x6(%esi),%al
    25a4:	8d 50 e0             	lea    -0x20(%eax),%edx
    25a7:	80 fa 5e             	cmp    $0x5e,%dl
    25aa:	0f 87 59 04 00 00    	ja     2a09 <cmd_bdd+0x849>
    25b0:	25 ff 00 00 00       	and    $0xff,%eax
    25b5:	89 04 24             	mov    %eax,(%esp)
    25b8:	e8 e3 4a 01 00       	call   170a0 <putchar>
    25bd:	3b 7d b0             	cmp    -0x50(%ebp),%edi
    25c0:	0f 86 58 04 00 00    	jbe    2a1e <cmd_bdd+0x85e>
    25c6:	8a 46 07             	mov    0x7(%esi),%al
    25c9:	8d 50 e0             	lea    -0x20(%eax),%edx
    25cc:	80 fa 5e             	cmp    $0x5e,%dl
    25cf:	0f 87 49 04 00 00    	ja     2a1e <cmd_bdd+0x85e>
    25d5:	25 ff 00 00 00       	and    $0xff,%eax
    25da:	89 04 24             	mov    %eax,(%esp)
    25dd:	e8 be 4a 01 00       	call   170a0 <putchar>
    25e2:	3b 7d ac             	cmp    -0x54(%ebp),%edi
    25e5:	0f 86 48 04 00 00    	jbe    2a33 <cmd_bdd+0x873>
    25eb:	8a 46 08             	mov    0x8(%esi),%al
    25ee:	8d 50 e0             	lea    -0x20(%eax),%edx
    25f1:	80 fa 5e             	cmp    $0x5e,%dl
    25f4:	0f 87 39 04 00 00    	ja     2a33 <cmd_bdd+0x873>
    25fa:	25 ff 00 00 00       	and    $0xff,%eax
    25ff:	89 04 24             	mov    %eax,(%esp)
    2602:	e8 99 4a 01 00       	call   170a0 <putchar>
    2607:	3b 7d b8             	cmp    -0x48(%ebp),%edi
    260a:	0f 86 38 04 00 00    	jbe    2a48 <cmd_bdd+0x888>
    2610:	8a 46 09             	mov    0x9(%esi),%al
    2613:	8d 50 e0             	lea    -0x20(%eax),%edx
    2616:	80 fa 5e             	cmp    $0x5e,%dl
    2619:	0f 87 29 04 00 00    	ja     2a48 <cmd_bdd+0x888>
    261f:	25 ff 00 00 00       	and    $0xff,%eax
    2624:	89 04 24             	mov    %eax,(%esp)
    2627:	e8 74 4a 01 00       	call   170a0 <putchar>
    262c:	3b 7d b4             	cmp    -0x4c(%ebp),%edi
    262f:	0f 86 28 04 00 00    	jbe    2a5d <cmd_bdd+0x89d>
    2635:	8a 46 0a             	mov    0xa(%esi),%al
    2638:	8d 50 e0             	lea    -0x20(%eax),%edx
    263b:	80 fa 5e             	cmp    $0x5e,%dl
    263e:	0f 87 19 04 00 00    	ja     2a5d <cmd_bdd+0x89d>
    2644:	25 ff 00 00 00       	and    $0xff,%eax
    2649:	89 04 24             	mov    %eax,(%esp)
    264c:	e8 4f 4a 01 00       	call   170a0 <putchar>
    2651:	3b 7d cc             	cmp    -0x34(%ebp),%edi
    2654:	0f 86 18 04 00 00    	jbe    2a72 <cmd_bdd+0x8b2>
    265a:	8a 46 0b             	mov    0xb(%esi),%al
    265d:	8d 50 e0             	lea    -0x20(%eax),%edx
    2660:	80 fa 5e             	cmp    $0x5e,%dl
    2663:	0f 87 09 04 00 00    	ja     2a72 <cmd_bdd+0x8b2>
    2669:	25 ff 00 00 00       	and    $0xff,%eax
    266e:	89 04 24             	mov    %eax,(%esp)
    2671:	e8 2a 4a 01 00       	call   170a0 <putchar>
    2676:	3b 7d bc             	cmp    -0x44(%ebp),%edi
    2679:	0f 86 08 04 00 00    	jbe    2a87 <cmd_bdd+0x8c7>
    267f:	8a 46 0c             	mov    0xc(%esi),%al
    2682:	8d 50 e0             	lea    -0x20(%eax),%edx
    2685:	80 fa 5e             	cmp    $0x5e,%dl
    2688:	0f 87 f9 03 00 00    	ja     2a87 <cmd_bdd+0x8c7>
    268e:	25 ff 00 00 00       	and    $0xff,%eax
    2693:	89 04 24             	mov    %eax,(%esp)
    2696:	e8 05 4a 01 00       	call   170a0 <putchar>
    269b:	3b 7d c4             	cmp    -0x3c(%ebp),%edi
    269e:	0f 86 f8 03 00 00    	jbe    2a9c <cmd_bdd+0x8dc>
    26a4:	8a 46 0d             	mov    0xd(%esi),%al
    26a7:	8d 50 e0             	lea    -0x20(%eax),%edx
    26aa:	80 fa 5e             	cmp    $0x5e,%dl
    26ad:	0f 87 e9 03 00 00    	ja     2a9c <cmd_bdd+0x8dc>
    26b3:	25 ff 00 00 00       	and    $0xff,%eax
    26b8:	89 04 24             	mov    %eax,(%esp)
    26bb:	e8 e0 49 01 00       	call   170a0 <putchar>
    26c0:	3b 7d c0             	cmp    -0x40(%ebp),%edi
    26c3:	0f 86 e8 03 00 00    	jbe    2ab1 <cmd_bdd+0x8f1>
    26c9:	8a 46 0e             	mov    0xe(%esi),%al
    26cc:	8d 50 e0             	lea    -0x20(%eax),%edx
    26cf:	80 fa 5e             	cmp    $0x5e,%dl
    26d2:	0f 87 d9 03 00 00    	ja     2ab1 <cmd_bdd+0x8f1>
    26d8:	25 ff 00 00 00       	and    $0xff,%eax
    26dd:	89 04 24             	mov    %eax,(%esp)
    26e0:	e8 bb 49 01 00       	call   170a0 <putchar>
    26e5:	3b 7d c8             	cmp    -0x38(%ebp),%edi
    26e8:	0f 86 d8 03 00 00    	jbe    2ac6 <cmd_bdd+0x906>
    26ee:	8a 46 0f             	mov    0xf(%esi),%al
    26f1:	8d 50 e0             	lea    -0x20(%eax),%edx
    26f4:	80 fa 5e             	cmp    $0x5e,%dl
    26f7:	0f 87 c9 03 00 00    	ja     2ac6 <cmd_bdd+0x906>
    26fd:	25 ff 00 00 00       	and    $0xff,%eax
    2702:	89 04 24             	mov    %eax,(%esp)
    2705:	e8 96 49 01 00       	call   170a0 <putchar>
    270a:	83 45 d0 10          	addl   $0x10,-0x30(%ebp)
    270e:	83 55 d4 00          	adcl   $0x0,-0x2c(%ebp)
    2712:	c7 04 24 0a 00 00 00 	movl   $0xa,(%esp)
    2719:	e8 82 49 01 00       	call   170a0 <putchar>
    271e:	8b 4d 8c             	mov    -0x74(%ebp),%ecx
    2721:	8b 55 d4             	mov    -0x2c(%ebp),%edx
    2724:	8b 45 d0             	mov    -0x30(%ebp),%eax
    2727:	31 ca                	xor    %ecx,%edx
    2729:	8b 4d 88             	mov    -0x78(%ebp),%ecx
    272c:	31 c8                	xor    %ecx,%eax
    272e:	83 c3 10             	add    $0x10,%ebx
    2731:	83 c6 10             	add    $0x10,%esi
    2734:	09 c2                	or     %eax,%edx
    2736:	0f 84 e4 03 00 00    	je     2b20 <cmd_bdd+0x960>
    273c:	8b 55 d0             	mov    -0x30(%ebp),%edx
    273f:	8b 4d d4             	mov    -0x2c(%ebp),%ecx
    2742:	89 54 24 04          	mov    %edx,0x4(%esp)
    2746:	89 4c 24 08          	mov    %ecx,0x8(%esp)
    274a:	c7 04 24 dc b7 02 00 	movl   $0x2b7dc,(%esp)
    2751:	e8 0a 4c 01 00       	call   17360 <printf>
    2756:	39 df                	cmp    %ebx,%edi
    2758:	0f 87 a2 03 00 00    	ja     2b00 <cmd_bdd+0x940>
    275e:	c7 04 24 e6 b7 02 00 	movl   $0x2b7e6,(%esp)
    2765:	e8 f6 4b 01 00       	call   17360 <printf>
    276a:	8d 4b 01             	lea    0x1(%ebx),%ecx
    276d:	89 4d 98             	mov    %ecx,-0x68(%ebp)
    2770:	39 cf                	cmp    %ecx,%edi
    2772:	0f 86 c0 fb ff ff    	jbe    2338 <cmd_bdd+0x178>
    2778:	31 c0                	xor    %eax,%eax
    277a:	8a 46 01             	mov    0x1(%esi),%al
    277d:	c7 04 24 ea b7 02 00 	movl   $0x2b7ea,(%esp)
    2784:	89 44 24 04          	mov    %eax,0x4(%esp)
    2788:	e8 d3 4b 01 00       	call   17360 <printf>
    278d:	8d 53 02             	lea    0x2(%ebx),%edx
    2790:	89 55 94             	mov    %edx,-0x6c(%ebp)
    2793:	39 d7                	cmp    %edx,%edi
    2795:	0f 86 b7 fb ff ff    	jbe    2352 <cmd_bdd+0x192>
    279b:	31 c0                	xor    %eax,%eax
    279d:	8a 46 02             	mov    0x2(%esi),%al
    27a0:	c7 04 24 ea b7 02 00 	movl   $0x2b7ea,(%esp)
    27a7:	89 44 24 04          	mov    %eax,0x4(%esp)
    27ab:	e8 b0 4b 01 00       	call   17360 <printf>
    27b0:	8d 4b 03             	lea    0x3(%ebx),%ecx
    27b3:	89 4d a0             	mov    %ecx,-0x60(%ebp)
    27b6:	39 cf                	cmp    %ecx,%edi
    27b8:	0f 86 ae fb ff ff    	jbe    236c <cmd_bdd+0x1ac>
    27be:	31 c0                	xor    %eax,%eax
    27c0:	8a 46 03             	mov    0x3(%esi),%al
    27c3:	c7 04 24 ea b7 02 00 	movl   $0x2b7ea,(%esp)
    27ca:	89 44 24 04          	mov    %eax,0x4(%esp)
    27ce:	e8 8d 4b 01 00       	call   17360 <printf>
    27d3:	8d 53 04             	lea    0x4(%ebx),%edx
    27d6:	89 55 9c             	mov    %edx,-0x64(%ebp)
    27d9:	39 d7                	cmp    %edx,%edi
    27db:	0f 86 a5 fb ff ff    	jbe    2386 <cmd_bdd+0x1c6>
    27e1:	31 c0                	xor    %eax,%eax
    27e3:	8a 46 04             	mov    0x4(%esi),%al
    27e6:	c7 04 24 ea b7 02 00 	movl   $0x2b7ea,(%esp)
    27ed:	89 44 24 04          	mov    %eax,0x4(%esp)
    27f1:	e8 6a 4b 01 00       	call   17360 <printf>
    27f6:	8d 4b 05             	lea    0x5(%ebx),%ecx
    27f9:	89 4d a8             	mov    %ecx,-0x58(%ebp)
    27fc:	39 cf                	cmp    %ecx,%edi
    27fe:	0f 86 9c fb ff ff    	jbe    23a0 <cmd_bdd+0x1e0>
    2804:	31 c0                	xor    %eax,%eax
    2806:	8a 46 05             	mov    0x5(%esi),%al
    2809:	c7 04 24 ea b7 02 00 	movl   $0x2b7ea,(%esp)
    2810:	89 44 24 04          	mov    %eax,0x4(%esp)
    2814:	e8 47 4b 01 00       	call   17360 <printf>
    2819:	8d 53 06             	lea    0x6(%ebx),%edx
    281c:	89 55 a4             	mov    %edx,-0x5c(%ebp)
    281f:	39 d7                	cmp    %edx,%edi
    2821:	0f 86 93 fb ff ff    	jbe    23ba <cmd_bdd+0x1fa>
    2827:	31 c0                	xor    %eax,%eax
    2829:	8a 46 06             	mov    0x6(%esi),%al
    282c:	c7 04 24 ea b7 02 00 	movl   $0x2b7ea,(%esp)
    2833:	89 44 24 04          	mov    %eax,0x4(%esp)
    2837:	e8 24 4b 01 00       	call   17360 <printf>
    283c:	8d 4b 07             	lea    0x7(%ebx),%ecx
    283f:	89 4d b0             	mov    %ecx,-0x50(%ebp)
    2842:	39 cf                	cmp    %ecx,%edi
    2844:	0f 86 8a fb ff ff    	jbe    23d4 <cmd_bdd+0x214>
    284a:	31 c0                	xor    %eax,%eax
    284c:	8a 46 07             	mov    0x7(%esi),%al
    284f:	c7 04 24 ea b7 02 00 	movl   $0x2b7ea,(%esp)
    2856:	89 44 24 04          	mov    %eax,0x4(%esp)
    285a:	e8 01 4b 01 00       	call   17360 <printf>
    285f:	8d 53 08             	lea    0x8(%ebx),%edx
    2862:	89 55 ac             	mov    %edx,-0x54(%ebp)
    2865:	39 d7                	cmp    %edx,%edi
    2867:	0f 86 81 fb ff ff    	jbe    23ee <cmd_bdd+0x22e>
    286d:	31 c0                	xor    %eax,%eax
    286f:	8a 46 08             	mov    0x8(%esi),%al
    2872:	c7 04 24 ea b7 02 00 	movl   $0x2b7ea,(%esp)
    2879:	89 44 24 04          	mov    %eax,0x4(%esp)
    287d:	e8 de 4a 01 00       	call   17360 <printf>
    2882:	8d 4b 09             	lea    0x9(%ebx),%ecx
    2885:	89 4d b8             	mov    %ecx,-0x48(%ebp)
    2888:	39 cf                	cmp    %ecx,%edi
    288a:	0f 86 78 fb ff ff    	jbe    2408 <cmd_bdd+0x248>
    2890:	31 c0                	xor    %eax,%eax
    2892:	8a 46 09             	mov    0x9(%esi),%al
    2895:	c7 04 24 ea b7 02 00 	movl   $0x2b7ea,(%esp)
    289c:	89 44 24 04          	mov    %eax,0x4(%esp)
    28a0:	e8 bb 4a 01 00       	call   17360 <printf>
    28a5:	8d 53 0a             	lea    0xa(%ebx),%edx
    28a8:	89 55 b4             	mov    %edx,-0x4c(%ebp)
    28ab:	39 d7                	cmp    %edx,%edi
    28ad:	0f 86 6f fb ff ff    	jbe    2422 <cmd_bdd+0x262>
    28b3:	31 c0                	xor    %eax,%eax
    28b5:	8a 46 0a             	mov    0xa(%esi),%al
    28b8:	c7 04 24 ea b7 02 00 	movl   $0x2b7ea,(%esp)
    28bf:	89 44 24 04          	mov    %eax,0x4(%esp)
    28c3:	e8 98 4a 01 00       	call   17360 <printf>
    28c8:	8d 4b 0b             	lea    0xb(%ebx),%ecx
    28cb:	89 4d cc             	mov    %ecx,-0x34(%ebp)
    28ce:	39 cf                	cmp    %ecx,%edi
    28d0:	0f 86 66 fb ff ff    	jbe    243c <cmd_bdd+0x27c>
    28d6:	31 c0                	xor    %eax,%eax
    28d8:	8a 46 0b             	mov    0xb(%esi),%al
    28db:	c7 04 24 ea b7 02 00 	movl   $0x2b7ea,(%esp)
    28e2:	89 44 24 04          	mov    %eax,0x4(%esp)
    28e6:	e8 75 4a 01 00       	call   17360 <printf>
    28eb:	8d 53 0c             	lea    0xc(%ebx),%edx
    28ee:	89 55 bc             	mov    %edx,-0x44(%ebp)
    28f1:	39 d7                	cmp    %edx,%edi
    28f3:	0f 86 5d fb ff ff    	jbe    2456 <cmd_bdd+0x296>
    28f9:	31 c0                	xor    %eax,%eax
    28fb:	8a 46 0c             	mov    0xc(%esi),%al
    28fe:	c7 04 24 ea b7 02 00 	movl   $0x2b7ea,(%esp)
    2905:	89 44 24 04          	mov    %eax,0x4(%esp)
    2909:	e8 52 4a 01 00       	call   17360 <printf>
    290e:	8d 4b 0d             	lea    0xd(%ebx),%ecx
    2911:	89 4d c4             	mov    %ecx,-0x3c(%ebp)
    2914:	39 cf                	cmp    %ecx,%edi
    2916:	0f 86 54 fb ff ff    	jbe    2470 <cmd_bdd+0x2b0>
    291c:	31 c0                	xor    %eax,%eax
    291e:	8a 46 0d             	mov    0xd(%esi),%al
    2921:	c7 04 24 ea b7 02 00 	movl   $0x2b7ea,(%esp)
    2928:	89 44 24 04          	mov    %eax,0x4(%esp)
    292c:	e8 2f 4a 01 00       	call   17360 <printf>
    2931:	8d 53 0e             	lea    0xe(%ebx),%edx
    2934:	89 55 c0             	mov    %edx,-0x40(%ebp)
    2937:	39 d7                	cmp    %edx,%edi
    2939:	0f 86 4b fb ff ff    	jbe    248a <cmd_bdd+0x2ca>
    293f:	31 c0                	xor    %eax,%eax
    2941:	8a 46 0e             	mov    0xe(%esi),%al
    2944:	c7 04 24 ea b7 02 00 	movl   $0x2b7ea,(%esp)
    294b:	89 44 24 04          	mov    %eax,0x4(%esp)
    294f:	e8 0c 4a 01 00       	call   17360 <printf>
    2954:	8d 4b 0f             	lea    0xf(%ebx),%ecx
    2957:	89 4d c8             	mov    %ecx,-0x38(%ebp)
    295a:	39 cf                	cmp    %ecx,%edi
    295c:	0f 86 42 fb ff ff    	jbe    24a4 <cmd_bdd+0x2e4>
    2962:	31 c0                	xor    %eax,%eax
    2964:	8a 46 0f             	mov    0xf(%esi),%al
    2967:	c7 04 24 ea b7 02 00 	movl   $0x2b7ea,(%esp)
    296e:	89 44 24 04          	mov    %eax,0x4(%esp)
    2972:	e8 e9 49 01 00       	call   17360 <printf>
    2977:	c7 04 24 09 00 00 00 	movl   $0x9,(%esp)
    297e:	e8 1d 47 01 00       	call   170a0 <putchar>
    2983:	39 df                	cmp    %ebx,%edi
    2985:	0f 87 39 fb ff ff    	ja     24c4 <cmd_bdd+0x304>
    298b:	c7 04 24 20 00 00 00 	movl   $0x20,(%esp)
    2992:	e8 09 47 01 00       	call   170a0 <putchar>
    2997:	3b 7d 98             	cmp    -0x68(%ebp),%edi
    299a:	0f 87 48 fb ff ff    	ja     24e8 <cmd_bdd+0x328>
    29a0:	c7 04 24 20 00 00 00 	movl   $0x20,(%esp)
    29a7:	e8 f4 46 01 00       	call   170a0 <putchar>
    29ac:	3b 7d 94             	cmp    -0x6c(%ebp),%edi
    29af:	0f 87 58 fb ff ff    	ja     250d <cmd_bdd+0x34d>
    29b5:	c7 04 24 20 00 00 00 	movl   $0x20,(%esp)
    29bc:	e8 df 46 01 00       	call   170a0 <putchar>
    29c1:	3b 7d a0             	cmp    -0x60(%ebp),%edi
    29c4:	0f 87 68 fb ff ff    	ja     2532 <cmd_bdd+0x372>
    29ca:	c7 04 24 20 00 00 00 	movl   $0x20,(%esp)
    29d1:	e8 ca 46 01 00       	call   170a0 <putchar>
    29d6:	3b 7d 9c             	cmp    -0x64(%ebp),%edi
    29d9:	0f 87 78 fb ff ff    	ja     2557 <cmd_bdd+0x397>
    29df:	c7 04 24 20 00 00 00 	movl   $0x20,(%esp)
    29e6:	e8 b5 46 01 00       	call   170a0 <putchar>
    29eb:	3b 7d a8             	cmp    -0x58(%ebp),%edi
    29ee:	0f 87 88 fb ff ff    	ja     257c <cmd_bdd+0x3bc>
    29f4:	c7 04 24 20 00 00 00 	movl   $0x20,(%esp)
    29fb:	e8 a0 46 01 00       	call   170a0 <putchar>
    2a00:	3b 7d a4             	cmp    -0x5c(%ebp),%edi
    2a03:	0f 87 98 fb ff ff    	ja     25a1 <cmd_bdd+0x3e1>
    2a09:	c7 04 24 20 00 00 00 	movl   $0x20,(%esp)
    2a10:	e8 8b 46 01 00       	call   170a0 <putchar>
    2a15:	3b 7d b0             	cmp    -0x50(%ebp),%edi
    2a18:	0f 87 a8 fb ff ff    	ja     25c6 <cmd_bdd+0x406>
    2a1e:	c7 04 24 20 00 00 00 	movl   $0x20,(%esp)
    2a25:	e8 76 46 01 00       	call   170a0 <putchar>
    2a2a:	3b 7d ac             	cmp    -0x54(%ebp),%edi
    2a2d:	0f 87 b8 fb ff ff    	ja     25eb <cmd_bdd+0x42b>
    2a33:	c7 04 24 20 00 00 00 	movl   $0x20,(%esp)
    2a3a:	e8 61 46 01 00       	call   170a0 <putchar>
    2a3f:	3b 7d b8             	cmp    -0x48(%ebp),%edi
    2a42:	0f 87 c8 fb ff ff    	ja     2610 <cmd_bdd+0x450>
    2a48:	c7 04 24 20 00 00 00 	movl   $0x20,(%esp)
    2a4f:	e8 4c 46 01 00       	call   170a0 <putchar>
    2a54:	3b 7d b4             	cmp    -0x4c(%ebp),%edi
    2a57:	0f 87 d8 fb ff ff    	ja     2635 <cmd_bdd+0x475>
    2a5d:	c7 04 24 20 00 00 00 	movl   $0x20,(%esp)
    2a64:	e8 37 46 01 00       	call   170a0 <putchar>
    2a69:	3b 7d cc             	cmp    -0x34(%ebp),%edi
    2a6c:	0f 87 e8 fb ff ff    	ja     265a <cmd_bdd+0x49a>
    2a72:	c7 04 24 20 00 00 00 	movl   $0x20,(%esp)
    2a79:	e8 22 46 01 00       	call   170a0 <putchar>
    2a7e:	3b 7d bc             	cmp    -0x44(%ebp),%edi
    2a81:	0f 87 f8 fb ff ff    	ja     267f <cmd_bdd+0x4bf>
    2a87:	c7 04 24 20 00 00 00 	movl   $0x20,(%esp)
    2a8e:	e8 0d 46 01 00       	call   170a0 <putchar>
    2a93:	3b 7d c4             	cmp    -0x3c(%ebp),%edi
    2a96:	0f 87 08 fc ff ff    	ja     26a4 <cmd_bdd+0x4e4>
    2a9c:	c7 04 24 20 00 00 00 	movl   $0x20,(%esp)
    2aa3:	e8 f8 45 01 00       	call   170a0 <putchar>
    2aa8:	3b 7d c0             	cmp    -0x40(%ebp),%edi
    2aab:	0f 87 18 fc ff ff    	ja     26c9 <cmd_bdd+0x509>
    2ab1:	c7 04 24 20 00 00 00 	movl   $0x20,(%esp)
    2ab8:	e8 e3 45 01 00       	call   170a0 <putchar>
    2abd:	3b 7d c8             	cmp    -0x38(%ebp),%edi
    2ac0:	0f 87 28 fc ff ff    	ja     26ee <cmd_bdd+0x52e>
    2ac6:	c7 04 24 20 00 00 00 	movl   $0x20,(%esp)
    2acd:	e8 ce 45 01 00       	call   170a0 <putchar>
    2ad2:	e9 33 fc ff ff       	jmp    270a <cmd_bdd+0x54a>
    2ad7:	90                   	nop
    2ad8:	c7 44 24 04 bf a6 02 	movl   $0x2a6bf,0x4(%esp)
    2adf:	00 
    2ae0:	c7 04 24 60 b8 02 00 	movl   $0x2b860,(%esp)
    2ae7:	e8 74 48 01 00       	call   17360 <printf>
    2aec:	b8 01 00 00 00       	mov    $0x1,%eax
    2af1:	81 c4 9c 00 00 00    	add    $0x9c,%esp
    2af7:	5b                   	pop    %ebx
    2af8:	5e                   	pop    %esi
    2af9:	5f                   	pop    %edi
    2afa:	5d                   	pop    %ebp
    2afb:	c3                   	ret    
    2afc:	8d 74 26 00          	lea    0x0(%esi,%eiz,1),%esi
    2b00:	31 c0                	xor    %eax,%eax
    2b02:	8a 06                	mov    (%esi),%al
    2b04:	c7 04 24 ea b7 02 00 	movl   $0x2b7ea,(%esp)
    2b0b:	89 44 24 04          	mov    %eax,0x4(%esp)
    2b0f:	e8 4c 48 01 00       	call   17360 <printf>
    2b14:	e9 51 fc ff ff       	jmp    276a <cmd_bdd+0x5aa>
    2b19:	8d b4 26 00 00 00 00 	lea    0x0(%esi,%eiz,1),%esi
    2b20:	8b 45 80             	mov    -0x80(%ebp),%eax
    2b23:	c1 e0 04             	shl    $0x4,%eax
    2b26:	3b 45 90             	cmp    -0x70(%ebp),%eax
    2b29:	73 1d                	jae    2b48 <cmd_bdd+0x988>
    2b2b:	83 85 78 ff ff ff 01 	addl   $0x1,-0x88(%ebp)
    2b32:	83 95 7c ff ff ff 00 	adcl   $0x0,-0x84(%ebp)
    2b39:	29 45 90             	sub    %eax,-0x70(%ebp)
    2b3c:	0f 85 76 f7 ff ff    	jne    22b8 <cmd_bdd+0xf8>
    2b42:	8d b6 00 00 00 00    	lea    0x0(%esi),%esi
    2b48:	8b 45 84             	mov    -0x7c(%ebp),%eax
    2b4b:	89 04 24             	mov    %eax,(%esp)
    2b4e:	e8 cd 9f 01 00       	call   1cb20 <free>
    2b53:	8b 45 e0             	mov    -0x20(%ebp),%eax
    2b56:	89 04 24             	mov    %eax,(%esp)
    2b59:	e8 92 5d 00 00       	call   88f0 <block_fini>
    2b5e:	81 c4 9c 00 00 00    	add    $0x9c,%esp
    2b64:	31 c0                	xor    %eax,%eax
    2b66:	5b                   	pop    %ebx
    2b67:	5e                   	pop    %esi
    2b68:	5f                   	pop    %edi
    2b69:	5d                   	pop    %ebp
    2b6a:	c3                   	ret    
    2b6b:	90                   	nop
    2b6c:	8d 74 26 00          	lea    0x0(%esi,%eiz,1),%esi
    2b70:	8b 46 04             	mov    0x4(%esi),%eax
    2b73:	c7 44 24 04 bf a6 02 	movl   $0x2a6bf,0x4(%esp)
    2b7a:	00 
    2b7b:	89 44 24 08          	mov    %eax,0x8(%esp)
    2b7f:	c7 04 24 3c b8 02 00 	movl   $0x2b83c,(%esp)
    2b86:	e8 d5 47 01 00       	call   17360 <printf>
    2b8b:	81 c4 9c 00 00 00    	add    $0x9c,%esp
    2b91:	b8 01 00 00 00       	mov    $0x1,%eax
    2b96:	5b                   	pop    %ebx
    2b97:	5e                   	pop    %esi
    2b98:	5f                   	pop    %edi
    2b99:	5d                   	pop    %ebp
    2b9a:	c3                   	ret    
    2b9b:	90                   	nop
    2b9c:	8d 74 26 00          	lea    0x0(%esi,%eiz,1),%esi
    2ba0:	c7 44 24 08 00 00 00 	movl   $0x0,0x8(%esp)
    2ba7:	00 
    2ba8:	c7 44 24 04 00 00 00 	movl   $0x0,0x4(%esp)
    2baf:	00 
    2bb0:	8b 46 08             	mov    0x8(%esi),%eax
    2bb3:	89 04 24             	mov    %eax,(%esp)
    2bb6:	e8 05 f4 00 00       	call   11fc0 <strtol>
    2bbb:	89 c2                	mov    %eax,%edx
    2bbd:	89 85 78 ff ff ff    	mov    %eax,-0x88(%ebp)
    2bc3:	c1 fa 1f             	sar    $0x1f,%edx
    2bc6:	83 fb 04             	cmp    $0x4,%ebx
    2bc9:	89 95 7c ff ff ff    	mov    %edx,-0x84(%ebp)
    2bcf:	0f 85 a7 00 00 00    	jne    2c7c <cmd_bdd+0xabc>
    2bd5:	c7 44 24 08 00 00 00 	movl   $0x0,0x8(%esp)
    2bdc:	00 
    2bdd:	c7 44 24 04 00 00 00 	movl   $0x0,0x4(%esp)
    2be4:	00 
    2be5:	8b 46 0c             	mov    0xc(%esi),%eax
    2be8:	89 04 24             	mov    %eax,(%esp)
    2beb:	e8 d0 f3 00 00       	call   11fc0 <strtol>
    2bf0:	89 45 90             	mov    %eax,-0x70(%ebp)
    2bf3:	e9 20 f6 ff ff       	jmp    2218 <cmd_bdd+0x58>
    2bf8:	c7 44 24 04 bf a6 02 	movl   $0x2a6bf,0x4(%esp)
    2bff:	00 
    2c00:	c7 04 24 14 b8 02 00 	movl   $0x2b814,(%esp)
    2c07:	e8 54 47 01 00       	call   17360 <printf>
    2c0c:	b8 01 00 00 00       	mov    $0x1,%eax
    2c11:	e9 db fe ff ff       	jmp    2af1 <cmd_bdd+0x931>
    2c16:	c7 44 24 04 bf a6 02 	movl   $0x2a6bf,0x4(%esp)
    2c1d:	00 
    2c1e:	c7 04 24 84 b8 02 00 	movl   $0x2b884,(%esp)
    2c25:	e8 36 47 01 00       	call   17360 <printf>
    2c2a:	b8 01 00 00 00       	mov    $0x1,%eax
    2c2f:	e9 bd fe ff ff       	jmp    2af1 <cmd_bdd+0x931>
    2c34:	8b 95 7c ff ff ff    	mov    -0x84(%ebp),%edx
    2c3a:	8b 85 78 ff ff ff    	mov    -0x88(%ebp),%eax
    2c40:	89 54 24 0c          	mov    %edx,0xc(%esp)
    2c44:	89 44 24 08          	mov    %eax,0x8(%esp)
    2c48:	c7 44 24 04 bf a6 02 	movl   $0x2a6bf,0x4(%esp)
    2c4f:	00 
    2c50:	c7 04 24 be b7 02 00 	movl   $0x2b7be,(%esp)
    2c57:	e8 04 47 01 00       	call   17360 <printf>
    2c5c:	8b 45 84             	mov    -0x7c(%ebp),%eax
    2c5f:	89 04 24             	mov    %eax,(%esp)
    2c62:	e8 b9 9e 01 00       	call   1cb20 <free>
    2c67:	8b 45 e0             	mov    -0x20(%ebp),%eax
    2c6a:	89 04 24             	mov    %eax,(%esp)
    2c6d:	e8 7e 5c 00 00       	call   88f0 <block_fini>
    2c72:	b8 01 00 00 00       	mov    $0x1,%eax
    2c77:	e9 75 fe ff ff       	jmp    2af1 <cmd_bdd+0x931>
    2c7c:	c7 45 90 00 01 00 00 	movl   $0x100,-0x70(%ebp)
    2c83:	e9 90 f5 ff ff       	jmp    2218 <cmd_bdd+0x58>
    2c88:	c7 44 24 04 bf a6 02 	movl   $0x2a6bf,0x4(%esp)
    2c8f:	00 
    2c90:	c7 04 24 a0 b7 02 00 	movl   $0x2b7a0,(%esp)
    2c97:	e8 c4 46 01 00       	call   17360 <printf>
    2c9c:	8b 45 e0             	mov    -0x20(%ebp),%eax
    2c9f:	89 04 24             	mov    %eax,(%esp)
    2ca2:	e8 49 5c 00 00       	call   88f0 <block_fini>
    2ca7:	b8 01 00 00 00       	mov    $0x1,%eax
    2cac:	e9 40 fe ff ff       	jmp    2af1 <cmd_bdd+0x931>
    2cb1:	66 90                	xchg   %ax,%ax
    2cb3:	66 90                	xchg   %ax,%ax
    2cb5:	66 90                	xchg   %ax,%ax
    2cb7:	66 90                	xchg   %ax,%ax
    2cb9:	66 90                	xchg   %ax,%ax
    2cbb:	66 90                	xchg   %ax,%ax
    2cbd:	66 90                	xchg   %ax,%ax
    2cbf:	90                   	nop

00002cc0 <help_cmd_cat.constprop.1>:
    2cc0:	55                   	push   %ebp
    2cc1:	89 e5                	mov    %esp,%ebp
    2cc3:	83 ec 18             	sub    $0x18,%esp
    2cc6:	c7 44 24 04 de a6 02 	movl   $0x2a6de,0x4(%esp)
    2ccd:	00 
    2cce:	c7 04 24 6c b9 02 00 	movl   $0x2b96c,(%esp)
    2cd5:	e8 86 46 01 00       	call   17360 <printf>
    2cda:	c9                   	leave  
    2cdb:	c3                   	ret    
    2cdc:	8d 74 26 00          	lea    0x0(%esi,%eiz,1),%esi

00002ce0 <help_cmd_cat>:
    2ce0:	55                   	push   %ebp
    2ce1:	89 e5                	mov    %esp,%ebp
    2ce3:	83 ec 18             	sub    $0x18,%esp
    2ce6:	8b 45 08             	mov    0x8(%ebp),%eax
    2ce9:	c7 44 24 04 de a6 02 	movl   $0x2a6de,0x4(%esp)
    2cf0:	00 
    2cf1:	85 c0                	test   %eax,%eax
    2cf3:	c7 04 24 6c b9 02 00 	movl   $0x2b96c,(%esp)
    2cfa:	74 24                	je     2d20 <help_cmd_cat+0x40>
    2cfc:	e8 5f 46 01 00       	call   17360 <printf>
    2d01:	c7 44 24 08 de a6 02 	movl   $0x2a6de,0x8(%esp)
    2d08:	00 
    2d09:	c7 44 24 04 de a6 02 	movl   $0x2a6de,0x4(%esp)
    2d10:	00 
    2d11:	c7 04 24 90 b9 02 00 	movl   $0x2b990,(%esp)
    2d18:	e8 43 46 01 00       	call   17360 <printf>
    2d1d:	c9                   	leave  
    2d1e:	c3                   	ret    
    2d1f:	90                   	nop
    2d20:	e8 3b 46 01 00       	call   17360 <printf>
    2d25:	c9                   	leave  
    2d26:	c3                   	ret    
    2d27:	89 f6                	mov    %esi,%esi
    2d29:	8d bc 27 00 00 00 00 	lea    0x0(%edi,%eiz,1),%edi

00002d30 <cmd_cat>:
    2d30:	55                   	push   %ebp
    2d31:	89 e5                	mov    %esp,%ebp
    2d33:	57                   	push   %edi
    2d34:	56                   	push   %esi
    2d35:	53                   	push   %ebx
    2d36:	81 ec ac 00 00 00    	sub    $0xac,%esp
    2d3c:	c7 45 ac 00 00 00 00 	movl   $0x0,-0x54(%ebp)
    2d43:	a1 6c 0a 03 00       	mov    0x30a6c,%eax
    2d48:	8b 7d 08             	mov    0x8(%ebp),%edi
    2d4b:	89 44 24 04          	mov    %eax,0x4(%esp)
    2d4f:	a1 70 0a 03 00       	mov    0x30a70,%eax
    2d54:	89 04 24             	mov    %eax,(%esp)
    2d57:	c7 45 c0 00 00 00 00 	movl   $0x0,-0x40(%ebp)
    2d5e:	c7 45 c4 00 00 00 00 	movl   $0x0,-0x3c(%ebp)
    2d65:	c7 45 c8 00 00 00 00 	movl   $0x0,-0x38(%ebp)
    2d6c:	c7 45 cc 00 00 00 00 	movl   $0x0,-0x34(%ebp)
    2d73:	c6 05 a8 07 03 00 00 	movb   $0x0,0x307a8
    2d7a:	c7 05 ac 07 03 00 00 	movl   $0x0,0x307ac
    2d81:	00 00 00 
    2d84:	c7 05 b0 07 03 00 00 	movl   $0x0,0x307b0
    2d8b:	00 00 00 
    2d8e:	c7 05 b4 07 03 00 00 	movl   $0x0,0x307b4
    2d95:	00 00 00 
    2d98:	c7 05 b8 07 03 00 00 	movl   $0x0,0x307b8
    2d9f:	00 00 00 
    2da2:	c6 05 bc 07 03 00 00 	movb   $0x0,0x307bc
    2da9:	e8 c2 71 01 00       	call   19f70 <console_init>
    2dae:	89 3c 24             	mov    %edi,(%esp)
    2db1:	a3 c0 07 03 00       	mov    %eax,0x307c0
    2db6:	e8 85 49 00 00       	call   7740 <cli_count_args>
    2dbb:	8d 75 b0             	lea    -0x50(%ebp),%esi
    2dbe:	89 c3                	mov    %eax,%ebx
    2dc0:	c7 05 f4 06 03 00 00 	movl   $0x0,0x306f4
    2dc7:	00 00 00 
    2dca:	c7 45 b0 00 00 00 00 	movl   $0x0,-0x50(%ebp)
    2dd1:	c6 45 95 00          	movb   $0x0,-0x6b(%ebp)
    2dd5:	c6 45 a0 00          	movb   $0x0,-0x60(%ebp)
    2dd9:	c6 45 97 00          	movb   $0x0,-0x69(%ebp)
    2ddd:	89 74 24 10          	mov    %esi,0x10(%esp)
    2de1:	c7 44 24 0c 00 bd 02 	movl   $0x2bd00,0xc(%esp)
    2de8:	00 
    2de9:	c7 44 24 08 ae b8 02 	movl   $0x2b8ae,0x8(%esp)
    2df0:	00 
    2df1:	89 7c 24 04          	mov    %edi,0x4(%esp)
    2df5:	89 1c 24             	mov    %ebx,(%esp)
    2df8:	e8 c3 fe 01 00       	call   22cc0 <getopt_long>
    2dfd:	8d 50 b8             	lea    -0x48(%eax),%edx
    2e00:	83 fa 30             	cmp    $0x30,%edx
    2e03:	0f 86 cf 04 00 00    	jbe    32d8 <cmd_cat+0x5a8>
    2e09:	40                   	inc    %eax
    2e0a:	75 d1                	jne    2ddd <cmd_cat+0xad>
    2e0c:	a1 f4 06 03 00       	mov    0x306f4,%eax
    2e11:	39 c3                	cmp    %eax,%ebx
    2e13:	0f 84 55 0c 00 00    	je     3a6e <cmd_cat+0xd3e>
    2e19:	83 7d ac 03          	cmpl   $0x3,-0x54(%ebp)
    2e1d:	0f 86 91 0b 00 00    	jbe    39b4 <cmd_cat+0xc84>
    2e23:	80 7d a0 00          	cmpb   $0x0,-0x60(%ebp)
    2e27:	0f 85 93 0b 00 00    	jne    39c0 <cmd_cat+0xc90>
    2e2d:	8d 04 87             	lea    (%edi,%eax,4),%eax
    2e30:	8b 18                	mov    (%eax),%ebx
    2e32:	89 9d 78 ff ff ff    	mov    %ebx,-0x88(%ebp)
    2e38:	85 db                	test   %ebx,%ebx
    2e3a:	0f 84 27 0c 00 00    	je     3a67 <cmd_cat+0xd37>
    2e40:	80 3d bc 07 03 00 00 	cmpb   $0x0,0x307bc
    2e47:	0f 85 1a 0c 00 00    	jne    3a67 <cmd_cat+0xd37>
    2e4d:	89 85 70 ff ff ff    	mov    %eax,-0x90(%ebp)
    2e53:	c7 85 74 ff ff ff 00 	movl   $0x0,-0x8c(%ebp)
    2e5a:	00 00 00 
    2e5d:	8d 7d d0             	lea    -0x30(%ebp),%edi
    2e60:	8b 5d cc             	mov    -0x34(%ebp),%ebx
    2e63:	8b 4d c8             	mov    -0x38(%ebp),%ecx
    2e66:	89 5d a4             	mov    %ebx,-0x5c(%ebp)
    2e69:	8b 5d c4             	mov    -0x3c(%ebp),%ebx
    2e6c:	89 4d a0             	mov    %ecx,-0x60(%ebp)
    2e6f:	89 5d 8c             	mov    %ebx,-0x74(%ebp)
    2e72:	8b 4d c0             	mov    -0x40(%ebp),%ecx
    2e75:	8b 5d ac             	mov    -0x54(%ebp),%ebx
    2e78:	89 4d 88             	mov    %ecx,-0x78(%ebp)
    2e7b:	89 9d 7c ff ff ff    	mov    %ebx,-0x84(%ebp)
    2e81:	c7 45 bc 00 00 00 00 	movl   $0x0,-0x44(%ebp)
    2e88:	80 3d c4 07 03 00 00 	cmpb   $0x0,0x307c4
    2e8f:	0f 85 d1 09 00 00    	jne    3866 <cmd_cat+0xb36>
    2e95:	8b 8d 78 ff ff ff    	mov    -0x88(%ebp),%ecx
    2e9b:	c7 44 24 04 10 00 00 	movl   $0x10,0x4(%esp)
    2ea2:	00 
    2ea3:	89 0c 24             	mov    %ecx,(%esp)
    2ea6:	e8 75 2f 02 00       	call   25e20 <open>
    2eab:	c6 45 96 00          	movb   $0x0,-0x6a(%ebp)
    2eaf:	89 45 84             	mov    %eax,-0x7c(%ebp)
    2eb2:	8b 45 84             	mov    -0x7c(%ebp),%eax
    2eb5:	85 c0                	test   %eax,%eax
    2eb7:	0f 88 f0 09 00 00    	js     38ad <cmd_cat+0xb7d>
    2ebd:	8b 85 7c ff ff ff    	mov    -0x84(%ebp),%eax
    2ec3:	40                   	inc    %eax
    2ec4:	89 04 24             	mov    %eax,(%esp)
    2ec7:	e8 44 9b 01 00       	call   1ca10 <malloc>
    2ecc:	89 c6                	mov    %eax,%esi
    2ece:	85 c0                	test   %eax,%eax
    2ed0:	0f 84 66 0b 00 00    	je     3a3c <cmd_cat+0xd0c>
    2ed6:	8b 5d a4             	mov    -0x5c(%ebp),%ebx
    2ed9:	0b 5d a0             	or     -0x60(%ebp),%ebx
    2edc:	0f 85 eb 09 00 00    	jne    38cd <cmd_cat+0xb9d>
    2ee2:	8b 55 8c             	mov    -0x74(%ebp),%edx
    2ee5:	8b 45 88             	mov    -0x78(%ebp),%eax
    2ee8:	09 c2                	or     %eax,%edx
    2eea:	31 db                	xor    %ebx,%ebx
    2eec:	c7 45 90 00 00 00 00 	movl   $0x0,-0x70(%ebp)
    2ef3:	89 55 80             	mov    %edx,-0x80(%ebp)
    2ef6:	66 90                	xchg   %ax,%ax
    2ef8:	b9 01 00 00 00       	mov    $0x1,%ecx
    2efd:	80 7d 96 00          	cmpb   $0x0,-0x6a(%ebp)
    2f01:	75 45                	jne    2f48 <cmd_cat+0x218>
    2f03:	8b 8d 7c ff ff ff    	mov    -0x84(%ebp),%ecx
    2f09:	8b 45 80             	mov    -0x80(%ebp),%eax
    2f0c:	29 d9                	sub    %ebx,%ecx
    2f0e:	85 c0                	test   %eax,%eax
    2f10:	74 36                	je     2f48 <cmd_cat+0x218>
    2f12:	8b 45 90             	mov    -0x70(%ebp),%eax
    2f15:	89 c2                	mov    %eax,%edx
    2f17:	89 45 a0             	mov    %eax,-0x60(%ebp)
    2f1a:	c1 fa 1f             	sar    $0x1f,%edx
    2f1d:	8b 45 88             	mov    -0x78(%ebp),%eax
    2f20:	2b 45 a0             	sub    -0x60(%ebp),%eax
    2f23:	89 55 a4             	mov    %edx,-0x5c(%ebp)
    2f26:	8b 55 8c             	mov    -0x74(%ebp),%edx
    2f29:	1b 55 a4             	sbb    -0x5c(%ebp),%edx
    2f2c:	89 55 a4             	mov    %edx,-0x5c(%ebp)
    2f2f:	83 fa 00             	cmp    $0x0,%edx
    2f32:	7f 14                	jg     2f48 <cmd_cat+0x218>
    2f34:	7c 04                	jl     2f3a <cmd_cat+0x20a>
    2f36:	39 c8                	cmp    %ecx,%eax
    2f38:	77 0e                	ja     2f48 <cmd_cat+0x218>
    2f3a:	8b 4d 88             	mov    -0x78(%ebp),%ecx
    2f3d:	8b 45 90             	mov    -0x70(%ebp),%eax
    2f40:	29 c1                	sub    %eax,%ecx
    2f42:	8d b6 00 00 00 00    	lea    0x0(%esi),%esi
    2f48:	8d 04 1e             	lea    (%esi,%ebx,1),%eax
    2f4b:	89 4c 24 08          	mov    %ecx,0x8(%esp)
    2f4f:	89 44 24 04          	mov    %eax,0x4(%esp)
    2f53:	8b 45 84             	mov    -0x7c(%ebp),%eax
    2f56:	89 04 24             	mov    %eax,(%esp)
    2f59:	e8 e2 30 02 00       	call   26040 <read>
    2f5e:	01 c3                	add    %eax,%ebx
    2f60:	89 5d a0             	mov    %ebx,-0x60(%ebp)
    2f63:	85 db                	test   %ebx,%ebx
    2f65:	0f 8e 9d 08 00 00    	jle    3808 <cmd_cat+0xad8>
    2f6b:	c6 04 1e 00          	movb   $0x0,(%esi,%ebx,1)
    2f6f:	01 f3                	add    %esi,%ebx
    2f71:	89 5d 98             	mov    %ebx,-0x68(%ebp)
    2f74:	c7 45 bc 00 00 00 00 	movl   $0x0,-0x44(%ebp)
    2f7b:	89 f3                	mov    %esi,%ebx
    2f7d:	89 75 9c             	mov    %esi,-0x64(%ebp)
    2f80:	e9 fd 00 00 00       	jmp    3082 <cmd_cat+0x352>
    2f85:	8d 76 00             	lea    0x0(%esi),%esi
    2f88:	8a 03                	mov    (%ebx),%al
    2f8a:	c0 e8 04             	shr    $0x4,%al
    2f8d:	25 ff 00 00 00       	and    $0xff,%eax
    2f92:	0f be b0 26 b9 02 00 	movsbl 0x2b926(%eax),%esi
    2f99:	89 34 24             	mov    %esi,(%esp)
    2f9c:	e8 ff 40 01 00       	call   170a0 <putchar>
    2fa1:	80 3d a8 07 03 00 00 	cmpb   $0x0,0x307a8
    2fa8:	74 2e                	je     2fd8 <cmd_cat+0x2a8>
    2faa:	a1 ac 07 03 00       	mov    0x307ac,%eax
    2faf:	48                   	dec    %eax
    2fb0:	83 fe 0a             	cmp    $0xa,%esi
    2fb3:	a3 ac 07 03 00       	mov    %eax,0x307ac
    2fb8:	0f 84 92 04 00 00    	je     3450 <cmd_cat+0x720>
    2fbe:	85 c0                	test   %eax,%eax
    2fc0:	0f 84 8a 04 00 00    	je     3450 <cmd_cat+0x720>
    2fc6:	a1 b0 07 03 00       	mov    0x307b0,%eax
    2fcb:	85 c0                	test   %eax,%eax
    2fcd:	0f 84 9a 04 00 00    	je     346d <cmd_cat+0x73d>
    2fd3:	90                   	nop
    2fd4:	8d 74 26 00          	lea    0x0(%esi,%eiz,1),%esi
    2fd8:	8a 03                	mov    (%ebx),%al
    2fda:	83 e0 0f             	and    $0xf,%eax
    2fdd:	0f be b0 26 b9 02 00 	movsbl 0x2b926(%eax),%esi
    2fe4:	89 34 24             	mov    %esi,(%esp)
    2fe7:	e8 b4 40 01 00       	call   170a0 <putchar>
    2fec:	80 3d a8 07 03 00 00 	cmpb   $0x0,0x307a8
    2ff3:	74 2b                	je     3020 <cmd_cat+0x2f0>
    2ff5:	a1 ac 07 03 00       	mov    0x307ac,%eax
    2ffa:	48                   	dec    %eax
    2ffb:	83 fe 0a             	cmp    $0xa,%esi
    2ffe:	a3 ac 07 03 00       	mov    %eax,0x307ac
    3003:	0f 84 5f 05 00 00    	je     3568 <cmd_cat+0x838>
    3009:	85 c0                	test   %eax,%eax
    300b:	0f 84 57 05 00 00    	je     3568 <cmd_cat+0x838>
    3011:	a1 b0 07 03 00       	mov    0x307b0,%eax
    3016:	85 c0                	test   %eax,%eax
    3018:	0f 84 67 05 00 00    	je     3585 <cmd_cat+0x855>
    301e:	66 90                	xchg   %ax,%ax
    3020:	8b 45 90             	mov    -0x70(%ebp),%eax
    3023:	8b 55 9c             	mov    -0x64(%ebp),%edx
    3026:	29 d0                	sub    %edx,%eax
    3028:	8d 44 03 01          	lea    0x1(%ebx,%eax,1),%eax
    302c:	83 e0 0f             	and    $0xf,%eax
    302f:	83 f8 01             	cmp    $0x1,%eax
    3032:	19 f6                	sbb    %esi,%esi
    3034:	83 e6 ea             	and    $0xffffffea,%esi
    3037:	83 c6 20             	add    $0x20,%esi
    303a:	89 34 24             	mov    %esi,(%esp)
    303d:	e8 5e 40 01 00       	call   170a0 <putchar>
    3042:	80 3d a8 07 03 00 00 	cmpb   $0x0,0x307a8
    3049:	74 2d                	je     3078 <cmd_cat+0x348>
    304b:	a1 ac 07 03 00       	mov    0x307ac,%eax
    3050:	48                   	dec    %eax
    3051:	83 fe 0a             	cmp    $0xa,%esi
    3054:	a3 ac 07 03 00       	mov    %eax,0x307ac
    3059:	0f 84 21 06 00 00    	je     3680 <cmd_cat+0x950>
    305f:	85 c0                	test   %eax,%eax
    3061:	0f 84 19 06 00 00    	je     3680 <cmd_cat+0x950>
    3067:	a1 b0 07 03 00       	mov    0x307b0,%eax
    306c:	85 c0                	test   %eax,%eax
    306e:	0f 84 29 06 00 00    	je     369d <cmd_cat+0x96d>
    3074:	8d 74 26 00          	lea    0x0(%esi,%eiz,1),%esi
    3078:	43                   	inc    %ebx
    3079:	3b 5d 98             	cmp    -0x68(%ebp),%ebx
    307c:	0f 84 8e 01 00 00    	je     3210 <cmd_cat+0x4e0>
    3082:	80 3d bc 07 03 00 00 	cmpb   $0x0,0x307bc
    3089:	0f 85 81 01 00 00    	jne    3210 <cmd_cat+0x4e0>
    308f:	80 7d 97 00          	cmpb   $0x0,-0x69(%ebp)
    3093:	0f 85 ef fe ff ff    	jne    2f88 <cmd_cat+0x258>
    3099:	8b 55 a0             	mov    -0x60(%ebp),%edx
    309c:	8d 4d bc             	lea    -0x44(%ebp),%ecx
    309f:	8b 45 9c             	mov    -0x64(%ebp),%eax
    30a2:	89 54 24 08          	mov    %edx,0x8(%esp)
    30a6:	89 4c 24 04          	mov    %ecx,0x4(%esp)
    30aa:	89 04 24             	mov    %eax,(%esp)
    30ad:	e8 6e cb 00 00       	call   fc20 <str_decode>
    30b2:	89 c6                	mov    %eax,%esi
    30b4:	85 c0                	test   %eax,%eax
    30b6:	0f 84 54 01 00 00    	je     3210 <cmd_cat+0x4e0>
    30bc:	83 f8 3f             	cmp    $0x3f,%eax
    30bf:	75 0f                	jne    30d0 <cmd_cat+0x3a0>
    30c1:	8b 45 bc             	mov    -0x44(%ebp),%eax
    30c4:	8d 48 02             	lea    0x2(%eax),%ecx
    30c7:	39 4d a0             	cmp    %ecx,-0x60(%ebp)
    30ca:	0f 86 74 07 00 00    	jbe    3844 <cmd_cat+0xb14>
    30d0:	89 34 24             	mov    %esi,(%esp)
    30d3:	e8 c8 3f 01 00       	call   170a0 <putchar>
    30d8:	80 3d a8 07 03 00 00 	cmpb   $0x0,0x307a8
    30df:	74 97                	je     3078 <cmd_cat+0x348>
    30e1:	a1 ac 07 03 00       	mov    0x307ac,%eax
    30e6:	48                   	dec    %eax
    30e7:	83 fe 0a             	cmp    $0xa,%esi
    30ea:	a3 ac 07 03 00       	mov    %eax,0x307ac
    30ef:	0f 84 7b 06 00 00    	je     3770 <cmd_cat+0xa40>
    30f5:	85 c0                	test   %eax,%eax
    30f7:	0f 84 73 06 00 00    	je     3770 <cmd_cat+0xa40>
    30fd:	a1 b0 07 03 00       	mov    0x307b0,%eax
    3102:	85 c0                	test   %eax,%eax
    3104:	0f 85 6e ff ff ff    	jne    3078 <cmd_cat+0x348>
    310a:	a1 6c 0a 03 00       	mov    0x30a6c,%eax
    310f:	89 04 24             	mov    %eax,(%esp)
    3112:	e8 c9 35 01 00       	call   166e0 <fflush>
    3117:	a1 b8 07 03 00       	mov    0x307b8,%eax
    311c:	48                   	dec    %eax
    311d:	c7 44 24 04 00 00 00 	movl   $0x0,0x4(%esp)
    3124:	00 
    3125:	89 44 24 08          	mov    %eax,0x8(%esp)
    3129:	a1 c0 07 03 00       	mov    0x307c0,%eax
    312e:	89 04 24             	mov    %eax,(%esp)
    3131:	e8 aa 73 01 00       	call   1a4e0 <console_set_pos>
    3136:	a1 c0 07 03 00       	mov    0x307c0,%eax
    313b:	89 04 24             	mov    %eax,(%esp)
    313e:	c7 44 24 0c 00 00 00 	movl   $0x0,0xc(%esp)
    3145:	00 
    3146:	c7 44 24 08 01 00 00 	movl   $0x1,0x8(%esp)
    314d:	00 
    314e:	c7 44 24 04 07 00 00 	movl   $0x7,0x4(%esp)
    3155:	00 
    3156:	e8 b5 70 01 00       	call   1a210 <console_set_color>
    315b:	c7 04 24 c0 bb 02 00 	movl   $0x2bbc0,(%esp)
    3162:	e8 f9 41 01 00       	call   17360 <printf>
    3167:	a1 6c 0a 03 00       	mov    0x30a6c,%eax
    316c:	89 04 24             	mov    %eax,(%esp)
    316f:	e8 6c 35 01 00       	call   166e0 <fflush>
    3174:	a1 c0 07 03 00       	mov    0x307c0,%eax
    3179:	c7 44 24 04 00 00 00 	movl   $0x0,0x4(%esp)
    3180:	00 
    3181:	89 04 24             	mov    %eax,(%esp)
    3184:	e8 f7 6f 01 00       	call   1a180 <console_set_style>
    3189:	8d b4 26 00 00 00 00 	lea    0x0(%esi,%eiz,1),%esi
    3190:	a1 c0 07 03 00       	mov    0x307c0,%eax
    3195:	89 7c 24 04          	mov    %edi,0x4(%esp)
    3199:	89 04 24             	mov    %eax,(%esp)
    319c:	e8 bf 73 01 00       	call   1a560 <console_get_kbd_event>
    31a1:	84 c0                	test   %al,%al
    31a3:	74 3b                	je     31e0 <cmd_cat+0x4b0>
    31a5:	8b 45 d8             	mov    -0x28(%ebp),%eax
    31a8:	85 c0                	test   %eax,%eax
    31aa:	75 e4                	jne    3190 <cmd_cat+0x460>
    31ac:	8b 45 dc             	mov    -0x24(%ebp),%eax
    31af:	83 f8 10             	cmp    $0x10,%eax
    31b2:	0f 84 d8 05 00 00    	je     3790 <cmd_cat+0xa60>
    31b8:	83 f8 3b             	cmp    $0x3b,%eax
    31bb:	0f 84 cf 05 00 00    	je     3790 <cmd_cat+0xa60>
    31c1:	83 f8 2d             	cmp    $0x2d,%eax
    31c4:	0f 84 d6 05 00 00    	je     37a0 <cmd_cat+0xa70>
    31ca:	83 f8 38             	cmp    $0x38,%eax
    31cd:	74 11                	je     31e0 <cmd_cat+0x4b0>
    31cf:	83 f8 29             	cmp    $0x29,%eax
    31d2:	74 0c                	je     31e0 <cmd_cat+0x4b0>
    31d4:	83 f8 50             	cmp    $0x50,%eax
    31d7:	75 b7                	jne    3190 <cmd_cat+0x460>
    31d9:	8d b4 26 00 00 00 00 	lea    0x0(%esi,%eiz,1),%esi
    31e0:	a1 c0 07 03 00       	mov    0x307c0,%eax
    31e5:	43                   	inc    %ebx
    31e6:	89 04 24             	mov    %eax,(%esp)
    31e9:	e8 82 6e 01 00       	call   1a070 <console_clear>
    31ee:	a1 b4 07 03 00       	mov    0x307b4,%eax
    31f3:	a3 ac 07 03 00       	mov    %eax,0x307ac
    31f8:	a1 b8 07 03 00       	mov    0x307b8,%eax
    31fd:	48                   	dec    %eax
    31fe:	3b 5d 98             	cmp    -0x68(%ebp),%ebx
    3201:	a3 b0 07 03 00       	mov    %eax,0x307b0
    3206:	0f 85 76 fe ff ff    	jne    3082 <cmd_cat+0x352>
    320c:	8d 74 26 00          	lea    0x0(%esi,%eiz,1),%esi
    3210:	8b 75 9c             	mov    -0x64(%ebp),%esi
    3213:	31 db                	xor    %ebx,%ebx
    3215:	8b 45 90             	mov    -0x70(%ebp),%eax
    3218:	8b 55 a0             	mov    -0x60(%ebp),%edx
    321b:	01 d0                	add    %edx,%eax
    321d:	89 45 90             	mov    %eax,-0x70(%ebp)
    3220:	80 7d 96 00          	cmpb   $0x0,-0x6a(%ebp)
    3224:	0f 85 86 05 00 00    	jne    37b0 <cmd_cat+0xa80>
    322a:	8b 45 a0             	mov    -0x60(%ebp),%eax
    322d:	85 c0                	test   %eax,%eax
    322f:	0f 8e 93 05 00 00    	jle    37c8 <cmd_cat+0xa98>
    3235:	80 3d bc 07 03 00 00 	cmpb   $0x0,0x307bc
    323c:	75 31                	jne    326f <cmd_cat+0x53f>
    323e:	8b 45 90             	mov    -0x70(%ebp),%eax
    3241:	8b 4d 8c             	mov    -0x74(%ebp),%ecx
    3244:	89 c2                	mov    %eax,%edx
    3246:	89 45 a0             	mov    %eax,-0x60(%ebp)
    3249:	c1 fa 1f             	sar    $0x1f,%edx
    324c:	89 55 a4             	mov    %edx,-0x5c(%ebp)
    324f:	39 ca                	cmp    %ecx,%edx
    3251:	0f 8c a1 fc ff ff    	jl     2ef8 <cmd_cat+0x1c8>
    3257:	7f 0b                	jg     3264 <cmd_cat+0x534>
    3259:	8b 55 88             	mov    -0x78(%ebp),%edx
    325c:	39 d0                	cmp    %edx,%eax
    325e:	0f 82 94 fc ff ff    	jb     2ef8 <cmd_cat+0x1c8>
    3264:	8b 45 80             	mov    -0x80(%ebp),%eax
    3267:	85 c0                	test   %eax,%eax
    3269:	0f 84 89 fc ff ff    	je     2ef8 <cmd_cat+0x1c8>
    326f:	8b 45 84             	mov    -0x7c(%ebp),%eax
    3272:	89 04 24             	mov    %eax,(%esp)
    3275:	e8 e6 2c 02 00       	call   25f60 <close>
    327a:	89 34 24             	mov    %esi,(%esp)
    327d:	e8 9e 98 01 00       	call   1cb20 <free>
    3282:	31 c0                	xor    %eax,%eax
    3284:	8b 9d 74 ff ff ff    	mov    -0x8c(%ebp),%ebx
    328a:	01 c3                	add    %eax,%ebx
    328c:	89 9d 74 ff ff ff    	mov    %ebx,-0x8c(%ebp)
    3292:	8b 9d 70 ff ff ff    	mov    -0x90(%ebp),%ebx
    3298:	8b 5b 04             	mov    0x4(%ebx),%ebx
    329b:	89 9d 78 ff ff ff    	mov    %ebx,-0x88(%ebp)
    32a1:	85 db                	test   %ebx,%ebx
    32a3:	74 1c                	je     32c1 <cmd_cat+0x591>
    32a5:	8b 8d 70 ff ff ff    	mov    -0x90(%ebp),%ecx
    32ab:	83 c1 04             	add    $0x4,%ecx
    32ae:	89 8d 70 ff ff ff    	mov    %ecx,-0x90(%ebp)
    32b4:	80 3d bc 07 03 00 00 	cmpb   $0x0,0x307bc
    32bb:	0f 84 9f fb ff ff    	je     2e60 <cmd_cat+0x130>
    32c1:	8b 95 74 ff ff ff    	mov    -0x8c(%ebp),%edx
    32c7:	85 d2                	test   %edx,%edx
    32c9:	0f 95 c0             	setne  %al
    32cc:	25 ff 00 00 00       	and    $0xff,%eax
    32d1:	eb 2b                	jmp    32fe <cmd_cat+0x5ce>
    32d3:	90                   	nop
    32d4:	8d 74 26 00          	lea    0x0(%esi,%eiz,1),%esi
    32d8:	ff 24 95 20 bc 02 00 	jmp    *0x2bc20(,%edx,4)
    32df:	c6 45 97 01          	movb   $0x1,-0x69(%ebp)
    32e3:	e9 f5 fa ff ff       	jmp    2ddd <cmd_cat+0xad>
    32e8:	c7 44 24 04 9f ae 02 	movl   $0x2ae9f,0x4(%esp)
    32ef:	00 
    32f0:	c7 04 24 f2 a5 02 00 	movl   $0x2a5f2,(%esp)
    32f7:	e8 64 40 01 00       	call   17360 <printf>
    32fc:	31 c0                	xor    %eax,%eax
    32fe:	81 c4 ac 00 00 00    	add    $0xac,%esp
    3304:	5b                   	pop    %ebx
    3305:	5e                   	pop    %esi
    3306:	5f                   	pop    %edi
    3307:	5d                   	pop    %ebp
    3308:	c3                   	ret    
    3309:	a1 68 07 03 00       	mov    0x30768,%eax
    330e:	85 c0                	test   %eax,%eax
    3310:	0f 84 10 07 00 00    	je     3a26 <cmd_cat+0xcf6>
    3316:	8d 55 c8             	lea    -0x38(%ebp),%edx
    3319:	c7 44 24 0c 00 00 00 	movl   $0x0,0xc(%esp)
    3320:	00 
    3321:	89 54 24 10          	mov    %edx,0x10(%esp)
    3325:	c7 44 24 08 0a 00 00 	movl   $0xa,0x8(%esp)
    332c:	00 
    332d:	c7 44 24 04 00 00 00 	movl   $0x0,0x4(%esp)
    3334:	00 
    3335:	89 04 24             	mov    %eax,(%esp)
    3338:	e8 13 f2 00 00       	call   12550 <str_uint64_t>
    333d:	85 c0                	test   %eax,%eax
    333f:	0f 85 e1 06 00 00    	jne    3a26 <cmd_cat+0xcf6>
    3345:	8b 45 c4             	mov    -0x3c(%ebp),%eax
    3348:	0b 45 c0             	or     -0x40(%ebp),%eax
    334b:	0f 85 8c fa ff ff    	jne    2ddd <cmd_cat+0xad>
    3351:	c6 45 95 01          	movb   $0x1,-0x6b(%ebp)
    3355:	e9 83 fa ff ff       	jmp    2ddd <cmd_cat+0xad>
    335a:	c6 05 c4 07 03 00 01 	movb   $0x1,0x307c4
    3361:	e9 77 fa ff ff       	jmp    2ddd <cmd_cat+0xad>
    3366:	c6 45 a0 01          	movb   $0x1,-0x60(%ebp)
    336a:	e9 6e fa ff ff       	jmp    2ddd <cmd_cat+0xad>
    336f:	c7 44 24 04 de a6 02 	movl   $0x2a6de,0x4(%esp)
    3376:	00 
    3377:	c7 04 24 6c b9 02 00 	movl   $0x2b96c,(%esp)
    337e:	e8 dd 3f 01 00       	call   17360 <printf>
    3383:	c7 44 24 08 de a6 02 	movl   $0x2a6de,0x8(%esp)
    338a:	00 
    338b:	c7 44 24 04 de a6 02 	movl   $0x2a6de,0x4(%esp)
    3392:	00 
    3393:	c7 04 24 90 b9 02 00 	movl   $0x2b990,(%esp)
    339a:	e8 c1 3f 01 00       	call   17360 <printf>
    339f:	81 c4 ac 00 00 00    	add    $0xac,%esp
    33a5:	31 c0                	xor    %eax,%eax
    33a7:	5b                   	pop    %ebx
    33a8:	5e                   	pop    %esi
    33a9:	5f                   	pop    %edi
    33aa:	5d                   	pop    %ebp
    33ab:	c3                   	ret    
    33ac:	a1 68 07 03 00       	mov    0x30768,%eax
    33b1:	85 c0                	test   %eax,%eax
    33b3:	74 2f                	je     33e4 <cmd_cat+0x6b4>
    33b5:	8d 4d ac             	lea    -0x54(%ebp),%ecx
    33b8:	c7 44 24 0c 00 00 00 	movl   $0x0,0xc(%esp)
    33bf:	00 
    33c0:	89 4c 24 10          	mov    %ecx,0x10(%esp)
    33c4:	c7 44 24 08 0a 00 00 	movl   $0xa,0x8(%esp)
    33cb:	00 
    33cc:	c7 44 24 04 00 00 00 	movl   $0x0,0x4(%esp)
    33d3:	00 
    33d4:	89 04 24             	mov    %eax,(%esp)
    33d7:	e8 f4 f1 00 00       	call   125d0 <str_size_t>
    33dc:	85 c0                	test   %eax,%eax
    33de:	0f 84 f9 f9 ff ff    	je     2ddd <cmd_cat+0xad>
    33e4:	c7 04 24 e0 b8 02 00 	movl   $0x2b8e0,(%esp)
    33eb:	e8 40 39 01 00       	call   16d30 <puts>
    33f0:	b8 01 00 00 00       	mov    $0x1,%eax
    33f5:	e9 04 ff ff ff       	jmp    32fe <cmd_cat+0x5ce>
    33fa:	8d b6 00 00 00 00    	lea    0x0(%esi),%esi
    3400:	a1 68 07 03 00       	mov    0x30768,%eax
    3405:	85 c0                	test   %eax,%eax
    3407:	74 2f                	je     3438 <cmd_cat+0x708>
    3409:	8d 55 c0             	lea    -0x40(%ebp),%edx
    340c:	c7 44 24 0c 00 00 00 	movl   $0x0,0xc(%esp)
    3413:	00 
    3414:	89 54 24 10          	mov    %edx,0x10(%esp)
    3418:	c7 44 24 08 0a 00 00 	movl   $0xa,0x8(%esp)
    341f:	00 
    3420:	c7 44 24 04 00 00 00 	movl   $0x0,0x4(%esp)
    3427:	00 
    3428:	89 04 24             	mov    %eax,(%esp)
    342b:	e8 20 f1 00 00       	call   12550 <str_uint64_t>
    3430:	85 c0                	test   %eax,%eax
    3432:	0f 84 a5 f9 ff ff    	je     2ddd <cmd_cat+0xad>
    3438:	c7 04 24 ba b8 02 00 	movl   $0x2b8ba,(%esp)
    343f:	e8 ec 38 01 00       	call   16d30 <puts>
    3444:	b8 01 00 00 00       	mov    $0x1,%eax
    3449:	e9 b0 fe ff ff       	jmp    32fe <cmd_cat+0x5ce>
    344e:	66 90                	xchg   %ax,%ax
    3450:	a1 b4 07 03 00       	mov    0x307b4,%eax
    3455:	a3 ac 07 03 00       	mov    %eax,0x307ac
    345a:	a1 b0 07 03 00       	mov    0x307b0,%eax
    345f:	48                   	dec    %eax
    3460:	a3 b0 07 03 00       	mov    %eax,0x307b0
    3465:	85 c0                	test   %eax,%eax
    3467:	0f 85 6b fb ff ff    	jne    2fd8 <cmd_cat+0x2a8>
    346d:	a1 6c 0a 03 00       	mov    0x30a6c,%eax
    3472:	89 04 24             	mov    %eax,(%esp)
    3475:	e8 66 32 01 00       	call   166e0 <fflush>
    347a:	a1 b8 07 03 00       	mov    0x307b8,%eax
    347f:	48                   	dec    %eax
    3480:	c7 44 24 04 00 00 00 	movl   $0x0,0x4(%esp)
    3487:	00 
    3488:	89 44 24 08          	mov    %eax,0x8(%esp)
    348c:	a1 c0 07 03 00       	mov    0x307c0,%eax
    3491:	89 04 24             	mov    %eax,(%esp)
    3494:	e8 47 70 01 00       	call   1a4e0 <console_set_pos>
    3499:	a1 c0 07 03 00       	mov    0x307c0,%eax
    349e:	89 04 24             	mov    %eax,(%esp)
    34a1:	c7 44 24 0c 00 00 00 	movl   $0x0,0xc(%esp)
    34a8:	00 
    34a9:	c7 44 24 08 01 00 00 	movl   $0x1,0x8(%esp)
    34b0:	00 
    34b1:	c7 44 24 04 07 00 00 	movl   $0x7,0x4(%esp)
    34b8:	00 
    34b9:	e8 52 6d 01 00       	call   1a210 <console_set_color>
    34be:	c7 04 24 c0 bb 02 00 	movl   $0x2bbc0,(%esp)
    34c5:	e8 96 3e 01 00       	call   17360 <printf>
    34ca:	a1 6c 0a 03 00       	mov    0x30a6c,%eax
    34cf:	89 04 24             	mov    %eax,(%esp)
    34d2:	e8 09 32 01 00       	call   166e0 <fflush>
    34d7:	a1 c0 07 03 00       	mov    0x307c0,%eax
    34dc:	c7 44 24 04 00 00 00 	movl   $0x0,0x4(%esp)
    34e3:	00 
    34e4:	89 04 24             	mov    %eax,(%esp)
    34e7:	e8 94 6c 01 00       	call   1a180 <console_set_style>
    34ec:	8d 74 26 00          	lea    0x0(%esi,%eiz,1),%esi
    34f0:	a1 c0 07 03 00       	mov    0x307c0,%eax
    34f5:	89 7c 24 04          	mov    %edi,0x4(%esp)
    34f9:	89 04 24             	mov    %eax,(%esp)
    34fc:	e8 5f 70 01 00       	call   1a560 <console_get_kbd_event>
    3501:	84 c0                	test   %al,%al
    3503:	74 3b                	je     3540 <cmd_cat+0x810>
    3505:	8b 75 d8             	mov    -0x28(%ebp),%esi
    3508:	85 f6                	test   %esi,%esi
    350a:	75 e4                	jne    34f0 <cmd_cat+0x7c0>
    350c:	8b 45 dc             	mov    -0x24(%ebp),%eax
    350f:	83 f8 10             	cmp    $0x10,%eax
    3512:	0f 84 08 03 00 00    	je     3820 <cmd_cat+0xaf0>
    3518:	83 f8 3b             	cmp    $0x3b,%eax
    351b:	0f 84 ff 02 00 00    	je     3820 <cmd_cat+0xaf0>
    3521:	83 f8 2d             	cmp    $0x2d,%eax
    3524:	0f 84 0e 03 00 00    	je     3838 <cmd_cat+0xb08>
    352a:	83 f8 38             	cmp    $0x38,%eax
    352d:	74 11                	je     3540 <cmd_cat+0x810>
    352f:	83 f8 29             	cmp    $0x29,%eax
    3532:	74 0c                	je     3540 <cmd_cat+0x810>
    3534:	83 f8 50             	cmp    $0x50,%eax
    3537:	75 b7                	jne    34f0 <cmd_cat+0x7c0>
    3539:	8d b4 26 00 00 00 00 	lea    0x0(%esi,%eiz,1),%esi
    3540:	a1 c0 07 03 00       	mov    0x307c0,%eax
    3545:	89 04 24             	mov    %eax,(%esp)
    3548:	e8 23 6b 01 00       	call   1a070 <console_clear>
    354d:	a1 b4 07 03 00       	mov    0x307b4,%eax
    3552:	a3 ac 07 03 00       	mov    %eax,0x307ac
    3557:	a1 b8 07 03 00       	mov    0x307b8,%eax
    355c:	48                   	dec    %eax
    355d:	a3 b0 07 03 00       	mov    %eax,0x307b0
    3562:	e9 71 fa ff ff       	jmp    2fd8 <cmd_cat+0x2a8>
    3567:	90                   	nop
    3568:	a1 b4 07 03 00       	mov    0x307b4,%eax
    356d:	a3 ac 07 03 00       	mov    %eax,0x307ac
    3572:	a1 b0 07 03 00       	mov    0x307b0,%eax
    3577:	48                   	dec    %eax
    3578:	a3 b0 07 03 00       	mov    %eax,0x307b0
    357d:	85 c0                	test   %eax,%eax
    357f:	0f 85 9b fa ff ff    	jne    3020 <cmd_cat+0x2f0>
    3585:	a1 6c 0a 03 00       	mov    0x30a6c,%eax
    358a:	89 04 24             	mov    %eax,(%esp)
    358d:	e8 4e 31 01 00       	call   166e0 <fflush>
    3592:	a1 b8 07 03 00       	mov    0x307b8,%eax
    3597:	48                   	dec    %eax
    3598:	c7 44 24 04 00 00 00 	movl   $0x0,0x4(%esp)
    359f:	00 
    35a0:	89 44 24 08          	mov    %eax,0x8(%esp)
    35a4:	a1 c0 07 03 00       	mov    0x307c0,%eax
    35a9:	89 04 24             	mov    %eax,(%esp)
    35ac:	e8 2f 6f 01 00       	call   1a4e0 <console_set_pos>
    35b1:	a1 c0 07 03 00       	mov    0x307c0,%eax
    35b6:	89 04 24             	mov    %eax,(%esp)
    35b9:	c7 44 24 0c 00 00 00 	movl   $0x0,0xc(%esp)
    35c0:	00 
    35c1:	c7 44 24 08 01 00 00 	movl   $0x1,0x8(%esp)
    35c8:	00 
    35c9:	c7 44 24 04 07 00 00 	movl   $0x7,0x4(%esp)
    35d0:	00 
    35d1:	e8 3a 6c 01 00       	call   1a210 <console_set_color>
    35d6:	c7 04 24 c0 bb 02 00 	movl   $0x2bbc0,(%esp)
    35dd:	e8 7e 3d 01 00       	call   17360 <printf>
    35e2:	a1 6c 0a 03 00       	mov    0x30a6c,%eax
    35e7:	89 04 24             	mov    %eax,(%esp)
    35ea:	e8 f1 30 01 00       	call   166e0 <fflush>
    35ef:	a1 c0 07 03 00       	mov    0x307c0,%eax
    35f4:	c7 44 24 04 00 00 00 	movl   $0x0,0x4(%esp)
    35fb:	00 
    35fc:	89 04 24             	mov    %eax,(%esp)
    35ff:	e8 7c 6b 01 00       	call   1a180 <console_set_style>
    3604:	8d 74 26 00          	lea    0x0(%esi,%eiz,1),%esi
    3608:	a1 c0 07 03 00       	mov    0x307c0,%eax
    360d:	89 7c 24 04          	mov    %edi,0x4(%esp)
    3611:	89 04 24             	mov    %eax,(%esp)
    3614:	e8 47 6f 01 00       	call   1a560 <console_get_kbd_event>
    3619:	84 c0                	test   %al,%al
    361b:	74 3b                	je     3658 <cmd_cat+0x928>
    361d:	8b 4d d8             	mov    -0x28(%ebp),%ecx
    3620:	85 c9                	test   %ecx,%ecx
    3622:	75 e4                	jne    3608 <cmd_cat+0x8d8>
    3624:	8b 45 dc             	mov    -0x24(%ebp),%eax
    3627:	83 f8 10             	cmp    $0x10,%eax
    362a:	0f 84 e0 01 00 00    	je     3810 <cmd_cat+0xae0>
    3630:	83 f8 3b             	cmp    $0x3b,%eax
    3633:	0f 84 d7 01 00 00    	je     3810 <cmd_cat+0xae0>
    3639:	83 f8 2d             	cmp    $0x2d,%eax
    363c:	0f 84 ea 01 00 00    	je     382c <cmd_cat+0xafc>
    3642:	83 f8 38             	cmp    $0x38,%eax
    3645:	74 11                	je     3658 <cmd_cat+0x928>
    3647:	83 f8 29             	cmp    $0x29,%eax
    364a:	74 0c                	je     3658 <cmd_cat+0x928>
    364c:	83 f8 50             	cmp    $0x50,%eax
    364f:	75 b7                	jne    3608 <cmd_cat+0x8d8>
    3651:	8d b4 26 00 00 00 00 	lea    0x0(%esi,%eiz,1),%esi
    3658:	a1 c0 07 03 00       	mov    0x307c0,%eax
    365d:	89 04 24             	mov    %eax,(%esp)
    3660:	e8 0b 6a 01 00       	call   1a070 <console_clear>
    3665:	a1 b4 07 03 00       	mov    0x307b4,%eax
    366a:	a3 ac 07 03 00       	mov    %eax,0x307ac
    366f:	a1 b8 07 03 00       	mov    0x307b8,%eax
    3674:	48                   	dec    %eax
    3675:	a3 b0 07 03 00       	mov    %eax,0x307b0
    367a:	e9 a1 f9 ff ff       	jmp    3020 <cmd_cat+0x2f0>
    367f:	90                   	nop
    3680:	a1 b4 07 03 00       	mov    0x307b4,%eax
    3685:	a3 ac 07 03 00       	mov    %eax,0x307ac
    368a:	a1 b0 07 03 00       	mov    0x307b0,%eax
    368f:	48                   	dec    %eax
    3690:	a3 b0 07 03 00       	mov    %eax,0x307b0
    3695:	85 c0                	test   %eax,%eax
    3697:	0f 85 db f9 ff ff    	jne    3078 <cmd_cat+0x348>
    369d:	a1 6c 0a 03 00       	mov    0x30a6c,%eax
    36a2:	89 04 24             	mov    %eax,(%esp)
    36a5:	e8 36 30 01 00       	call   166e0 <fflush>
    36aa:	a1 b8 07 03 00       	mov    0x307b8,%eax
    36af:	48                   	dec    %eax
    36b0:	c7 44 24 04 00 00 00 	movl   $0x0,0x4(%esp)
    36b7:	00 
    36b8:	89 44 24 08          	mov    %eax,0x8(%esp)
    36bc:	a1 c0 07 03 00       	mov    0x307c0,%eax
    36c1:	89 04 24             	mov    %eax,(%esp)
    36c4:	e8 17 6e 01 00       	call   1a4e0 <console_set_pos>
    36c9:	a1 c0 07 03 00       	mov    0x307c0,%eax
    36ce:	89 04 24             	mov    %eax,(%esp)
    36d1:	c7 44 24 0c 00 00 00 	movl   $0x0,0xc(%esp)
    36d8:	00 
    36d9:	c7 44 24 08 01 00 00 	movl   $0x1,0x8(%esp)
    36e0:	00 
    36e1:	c7 44 24 04 07 00 00 	movl   $0x7,0x4(%esp)
    36e8:	00 
    36e9:	e8 22 6b 01 00       	call   1a210 <console_set_color>
    36ee:	c7 04 24 c0 bb 02 00 	movl   $0x2bbc0,(%esp)
    36f5:	e8 66 3c 01 00       	call   17360 <printf>
    36fa:	a1 6c 0a 03 00       	mov    0x30a6c,%eax
    36ff:	89 04 24             	mov    %eax,(%esp)
    3702:	e8 d9 2f 01 00       	call   166e0 <fflush>
    3707:	a1 c0 07 03 00       	mov    0x307c0,%eax
    370c:	c7 44 24 04 00 00 00 	movl   $0x0,0x4(%esp)
    3713:	00 
    3714:	89 04 24             	mov    %eax,(%esp)
    3717:	e8 64 6a 01 00       	call   1a180 <console_set_style>
    371c:	8d 74 26 00          	lea    0x0(%esi,%eiz,1),%esi
    3720:	a1 c0 07 03 00       	mov    0x307c0,%eax
    3725:	89 7c 24 04          	mov    %edi,0x4(%esp)
    3729:	89 04 24             	mov    %eax,(%esp)
    372c:	e8 2f 6e 01 00       	call   1a560 <console_get_kbd_event>
    3731:	84 c0                	test   %al,%al
    3733:	0f 84 a7 fa ff ff    	je     31e0 <cmd_cat+0x4b0>
    3739:	8b 45 d8             	mov    -0x28(%ebp),%eax
    373c:	85 c0                	test   %eax,%eax
    373e:	75 e0                	jne    3720 <cmd_cat+0x9f0>
    3740:	8b 45 dc             	mov    -0x24(%ebp),%eax
    3743:	83 f8 10             	cmp    $0x10,%eax
    3746:	74 48                	je     3790 <cmd_cat+0xa60>
    3748:	83 f8 3b             	cmp    $0x3b,%eax
    374b:	74 43                	je     3790 <cmd_cat+0xa60>
    374d:	83 f8 2d             	cmp    $0x2d,%eax
    3750:	74 4e                	je     37a0 <cmd_cat+0xa70>
    3752:	83 f8 38             	cmp    $0x38,%eax
    3755:	0f 84 85 fa ff ff    	je     31e0 <cmd_cat+0x4b0>
    375b:	83 f8 29             	cmp    $0x29,%eax
    375e:	0f 84 7c fa ff ff    	je     31e0 <cmd_cat+0x4b0>
    3764:	83 f8 50             	cmp    $0x50,%eax
    3767:	75 b7                	jne    3720 <cmd_cat+0x9f0>
    3769:	e9 72 fa ff ff       	jmp    31e0 <cmd_cat+0x4b0>
    376e:	66 90                	xchg   %ax,%ax
    3770:	a1 b4 07 03 00       	mov    0x307b4,%eax
    3775:	a3 ac 07 03 00       	mov    %eax,0x307ac
    377a:	a1 b0 07 03 00       	mov    0x307b0,%eax
    377f:	48                   	dec    %eax
    3780:	a3 b0 07 03 00       	mov    %eax,0x307b0
    3785:	e9 78 f9 ff ff       	jmp    3102 <cmd_cat+0x3d2>
    378a:	8d b6 00 00 00 00    	lea    0x0(%esi),%esi
    3790:	c6 05 bc 07 03 00 01 	movb   $0x1,0x307bc
    3797:	e9 44 fa ff ff       	jmp    31e0 <cmd_cat+0x4b0>
    379c:	8d 74 26 00          	lea    0x0(%esi,%eiz,1),%esi
    37a0:	c6 05 a8 07 03 00 00 	movb   $0x0,0x307a8
    37a7:	e9 34 fa ff ff       	jmp    31e0 <cmd_cat+0x4b0>
    37ac:	8d 74 26 00          	lea    0x0(%esi,%eiz,1),%esi
    37b0:	a1 6c 0a 03 00       	mov    0x30a6c,%eax
    37b5:	89 04 24             	mov    %eax,(%esp)
    37b8:	e8 23 2f 01 00       	call   166e0 <fflush>
    37bd:	8b 45 a0             	mov    -0x60(%ebp),%eax
    37c0:	85 c0                	test   %eax,%eax
    37c2:	0f 8f 6d fa ff ff    	jg     3235 <cmd_cat+0x505>
    37c8:	8b 45 84             	mov    -0x7c(%ebp),%eax
    37cb:	89 04 24             	mov    %eax,(%esp)
    37ce:	e8 8d 27 02 00       	call   25f60 <close>
    37d3:	83 7d a0 ff          	cmpl   $0xffffffff,-0x60(%ebp)
    37d7:	0f 85 9d fa ff ff    	jne    327a <cmd_cat+0x54a>
    37dd:	8b 8d 78 ff ff ff    	mov    -0x88(%ebp),%ecx
    37e3:	c7 04 24 37 b9 02 00 	movl   $0x2b937,(%esp)
    37ea:	89 4c 24 04          	mov    %ecx,0x4(%esp)
    37ee:	e8 6d 3b 01 00       	call   17360 <printf>
    37f3:	89 34 24             	mov    %esi,(%esp)
    37f6:	e8 25 93 01 00       	call   1cb20 <free>
    37fb:	b8 01 00 00 00       	mov    $0x1,%eax
    3800:	e9 7f fa ff ff       	jmp    3284 <cmd_cat+0x554>
    3805:	8d 76 00             	lea    0x0(%esi),%esi
    3808:	31 db                	xor    %ebx,%ebx
    380a:	e9 11 fa ff ff       	jmp    3220 <cmd_cat+0x4f0>
    380f:	90                   	nop
    3810:	c6 05 bc 07 03 00 01 	movb   $0x1,0x307bc
    3817:	e9 3c fe ff ff       	jmp    3658 <cmd_cat+0x928>
    381c:	8d 74 26 00          	lea    0x0(%esi,%eiz,1),%esi
    3820:	c6 05 bc 07 03 00 01 	movb   $0x1,0x307bc
    3827:	e9 14 fd ff ff       	jmp    3540 <cmd_cat+0x810>
    382c:	c6 05 a8 07 03 00 00 	movb   $0x0,0x307a8
    3833:	e9 20 fe ff ff       	jmp    3658 <cmd_cat+0x928>
    3838:	c6 05 a8 07 03 00 00 	movb   $0x0,0x307a8
    383f:	e9 fc fc ff ff       	jmp    3540 <cmd_cat+0x810>
    3844:	8b 75 9c             	mov    -0x64(%ebp),%esi
    3847:	8b 5d a0             	mov    -0x60(%ebp),%ebx
    384a:	43                   	inc    %ebx
    384b:	89 34 24             	mov    %esi,(%esp)
    384e:	29 c3                	sub    %eax,%ebx
    3850:	8d 44 06 ff          	lea    -0x1(%esi,%eax,1),%eax
    3854:	89 5c 24 08          	mov    %ebx,0x8(%esp)
    3858:	89 44 24 04          	mov    %eax,0x4(%esp)
    385c:	e8 ef b9 00 00       	call   f250 <memcpy>
    3861:	e9 af f9 ff ff       	jmp    3215 <cmd_cat+0x4e5>
    3866:	8b 8d 78 ff ff ff    	mov    -0x88(%ebp),%ecx
    386c:	c7 44 24 04 fb cc 02 	movl   $0x2ccfb,0x4(%esp)
    3873:	00 
    3874:	89 0c 24             	mov    %ecx,(%esp)
    3877:	e8 14 cd 00 00       	call   10590 <str_cmp>
    387c:	85 c0                	test   %eax,%eax
    387e:	0f 85 11 f6 ff ff    	jne    2e95 <cmd_cat+0x165>
    3884:	a1 70 0a 03 00       	mov    0x30a70,%eax
    3889:	89 04 24             	mov    %eax,(%esp)
    388c:	e8 0f 3a 01 00       	call   172a0 <fileno>
    3891:	c6 45 96 01          	movb   $0x1,-0x6a(%ebp)
    3895:	89 45 84             	mov    %eax,-0x7c(%ebp)
    3898:	c7 85 7c ff ff ff 04 	movl   $0x4,-0x84(%ebp)
    389f:	00 00 00 
    38a2:	8b 45 84             	mov    -0x7c(%ebp),%eax
    38a5:	85 c0                	test   %eax,%eax
    38a7:	0f 89 10 f6 ff ff    	jns    2ebd <cmd_cat+0x18d>
    38ad:	8b 9d 78 ff ff ff    	mov    -0x88(%ebp),%ebx
    38b3:	c7 04 24 13 b9 02 00 	movl   $0x2b913,(%esp)
    38ba:	89 5c 24 04          	mov    %ebx,0x4(%esp)
    38be:	e8 9d 3a 01 00       	call   17360 <printf>
    38c3:	b8 01 00 00 00       	mov    $0x1,%eax
    38c8:	e9 b7 f9 ff ff       	jmp    3284 <cmd_cat+0x554>
    38cd:	8b 45 84             	mov    -0x7c(%ebp),%eax
    38d0:	c7 44 24 0c 02 00 00 	movl   $0x2,0xc(%esp)
    38d7:	00 
    38d8:	c7 44 24 04 00 00 00 	movl   $0x0,0x4(%esp)
    38df:	00 
    38e0:	c7 44 24 08 00 00 00 	movl   $0x0,0x8(%esp)
    38e7:	00 
    38e8:	89 04 24             	mov    %eax,(%esp)
    38eb:	e8 20 2d 02 00       	call   26610 <lseek>
    38f0:	8b 4d 8c             	mov    -0x74(%ebp),%ecx
    38f3:	0b 4d 88             	or     -0x78(%ebp),%ecx
    38f6:	74 26                	je     391e <cmd_cat+0xbee>
    38f8:	80 7d 95 00          	cmpb   $0x0,-0x6b(%ebp)
    38fc:	75 32                	jne    3930 <cmd_cat+0xc00>
    38fe:	8b 5d 8c             	mov    -0x74(%ebp),%ebx
    3901:	39 5d a4             	cmp    %ebx,-0x5c(%ebp)
    3904:	7c 62                	jl     3968 <cmd_cat+0xc38>
    3906:	7f 08                	jg     3910 <cmd_cat+0xbe0>
    3908:	8b 4d 88             	mov    -0x78(%ebp),%ecx
    390b:	39 4d a0             	cmp    %ecx,-0x60(%ebp)
    390e:	76 58                	jbe    3968 <cmd_cat+0xc38>
    3910:	8b 4d 88             	mov    -0x78(%ebp),%ecx
    3913:	8b 5d 8c             	mov    -0x74(%ebp),%ebx
    3916:	89 4d a0             	mov    %ecx,-0x60(%ebp)
    3919:	89 5d a4             	mov    %ebx,-0x5c(%ebp)
    391c:	eb 4a                	jmp    3968 <cmd_cat+0xc38>
    391e:	80 7d 95 00          	cmpb   $0x0,-0x6b(%ebp)
    3922:	74 3e                	je     3962 <cmd_cat+0xc32>
    3924:	8b 4d a0             	mov    -0x60(%ebp),%ecx
    3927:	8b 5d a4             	mov    -0x5c(%ebp),%ebx
    392a:	89 4d 88             	mov    %ecx,-0x78(%ebp)
    392d:	89 5d 8c             	mov    %ebx,-0x74(%ebp)
    3930:	39 55 a4             	cmp    %edx,-0x5c(%ebp)
    3933:	7f 79                	jg     39ae <cmd_cat+0xc7e>
    3935:	7c 05                	jl     393c <cmd_cat+0xc0c>
    3937:	39 45 a0             	cmp    %eax,-0x60(%ebp)
    393a:	73 72                	jae    39ae <cmd_cat+0xc7e>
    393c:	2b 45 a0             	sub    -0x60(%ebp),%eax
    393f:	1b 55 a4             	sbb    -0x5c(%ebp),%edx
    3942:	89 44 24 04          	mov    %eax,0x4(%esp)
    3946:	8b 45 84             	mov    -0x7c(%ebp),%eax
    3949:	c7 44 24 0c 00 00 00 	movl   $0x0,0xc(%esp)
    3950:	00 
    3951:	89 54 24 08          	mov    %edx,0x8(%esp)
    3955:	89 04 24             	mov    %eax,(%esp)
    3958:	e8 b3 2c 02 00       	call   26610 <lseek>
    395d:	e9 80 f5 ff ff       	jmp    2ee2 <cmd_cat+0x1b2>
    3962:	89 45 88             	mov    %eax,-0x78(%ebp)
    3965:	89 55 8c             	mov    %edx,-0x74(%ebp)
    3968:	8b 4d 88             	mov    -0x78(%ebp),%ecx
    396b:	8b 5d 8c             	mov    -0x74(%ebp),%ebx
    396e:	2b 4d a0             	sub    -0x60(%ebp),%ecx
    3971:	1b 5d a4             	sbb    -0x5c(%ebp),%ebx
    3974:	39 da                	cmp    %ebx,%edx
    3976:	7f 0a                	jg     3982 <cmd_cat+0xc52>
    3978:	7c 04                	jl     397e <cmd_cat+0xc4e>
    397a:	39 c8                	cmp    %ecx,%eax
    397c:	77 04                	ja     3982 <cmd_cat+0xc52>
    397e:	31 c9                	xor    %ecx,%ecx
    3980:	31 db                	xor    %ebx,%ebx
    3982:	8b 45 84             	mov    -0x7c(%ebp),%eax
    3985:	89 4c 24 04          	mov    %ecx,0x4(%esp)
    3989:	89 5c 24 08          	mov    %ebx,0x8(%esp)
    398d:	c7 44 24 0c 00 00 00 	movl   $0x0,0xc(%esp)
    3994:	00 
    3995:	89 04 24             	mov    %eax,(%esp)
    3998:	e8 73 2c 02 00       	call   26610 <lseek>
    399d:	8b 4d a0             	mov    -0x60(%ebp),%ecx
    39a0:	8b 5d a4             	mov    -0x5c(%ebp),%ebx
    39a3:	89 4d 88             	mov    %ecx,-0x78(%ebp)
    39a6:	89 5d 8c             	mov    %ebx,-0x74(%ebp)
    39a9:	e9 34 f5 ff ff       	jmp    2ee2 <cmd_cat+0x1b2>
    39ae:	31 c0                	xor    %eax,%eax
    39b0:	31 d2                	xor    %edx,%edx
    39b2:	eb 8e                	jmp    3942 <cmd_cat+0xc12>
    39b4:	c7 45 ac 00 04 00 00 	movl   $0x400,-0x54(%ebp)
    39bb:	e9 63 f4 ff ff       	jmp    2e23 <cmd_cat+0xf3>
    39c0:	8d 45 b4             	lea    -0x4c(%ebp),%eax
    39c3:	89 44 24 08          	mov    %eax,0x8(%esp)
    39c7:	8d 45 b8             	lea    -0x48(%ebp),%eax
    39ca:	89 44 24 04          	mov    %eax,0x4(%esp)
    39ce:	a1 c0 07 03 00       	mov    0x307c0,%eax
    39d3:	89 04 24             	mov    %eax,(%esp)
    39d6:	e8 15 67 01 00       	call   1a0f0 <console_get_size>
    39db:	85 c0                	test   %eax,%eax
    39dd:	0f 85 b1 00 00 00    	jne    3a94 <cmd_cat+0xd64>
    39e3:	8b 45 b8             	mov    -0x48(%ebp),%eax
    39e6:	c6 05 a8 07 03 00 01 	movb   $0x1,0x307a8
    39ed:	a3 b4 07 03 00       	mov    %eax,0x307b4
    39f2:	8b 45 b4             	mov    -0x4c(%ebp),%eax
    39f5:	a3 b8 07 03 00       	mov    %eax,0x307b8
    39fa:	a1 c0 07 03 00       	mov    0x307c0,%eax
    39ff:	89 04 24             	mov    %eax,(%esp)
    3a02:	e8 69 66 01 00       	call   1a070 <console_clear>
    3a07:	a1 b4 07 03 00       	mov    0x307b4,%eax
    3a0c:	a3 ac 07 03 00       	mov    %eax,0x307ac
    3a11:	a1 b8 07 03 00       	mov    0x307b8,%eax
    3a16:	48                   	dec    %eax
    3a17:	a3 b0 07 03 00       	mov    %eax,0x307b0
    3a1c:	a1 f4 06 03 00       	mov    0x306f4,%eax
    3a21:	e9 07 f4 ff ff       	jmp    2e2d <cmd_cat+0xfd>
    3a26:	c7 04 24 cd b8 02 00 	movl   $0x2b8cd,(%esp)
    3a2d:	e8 fe 32 01 00       	call   16d30 <puts>
    3a32:	b8 01 00 00 00       	mov    $0x1,%eax
    3a37:	e9 c2 f8 ff ff       	jmp    32fe <cmd_cat+0x5ce>
    3a3c:	8b 45 84             	mov    -0x7c(%ebp),%eax
    3a3f:	89 04 24             	mov    %eax,(%esp)
    3a42:	e8 19 25 02 00       	call   25f60 <close>
    3a47:	8b 8d 78 ff ff ff    	mov    -0x88(%ebp),%ecx
    3a4d:	89 4c 24 04          	mov    %ecx,0x4(%esp)
    3a51:	c7 04 24 90 bb 02 00 	movl   $0x2bb90,(%esp)
    3a58:	e8 03 39 01 00       	call   17360 <printf>
    3a5d:	b8 01 00 00 00       	mov    $0x1,%eax
    3a62:	e9 1d f8 ff ff       	jmp    3284 <cmd_cat+0x554>
    3a67:	31 c0                	xor    %eax,%eax
    3a69:	e9 90 f8 ff ff       	jmp    32fe <cmd_cat+0x5ce>
    3a6e:	c7 44 24 08 de a6 02 	movl   $0x2a6de,0x8(%esp)
    3a75:	00 
    3a76:	c7 44 24 04 de a6 02 	movl   $0x2a6de,0x4(%esp)
    3a7d:	00 
    3a7e:	c7 04 24 cc b0 02 00 	movl   $0x2b0cc,(%esp)
    3a85:	e8 d6 38 01 00       	call   17360 <printf>
    3a8a:	b8 01 00 00 00       	mov    $0x1,%eax
    3a8f:	e9 6a f8 ff ff       	jmp    32fe <cmd_cat+0x5ce>
    3a94:	c7 44 24 04 de a6 02 	movl   $0x2a6de,0x4(%esp)
    3a9b:	00 
    3a9c:	c7 04 24 f5 b8 02 00 	movl   $0x2b8f5,(%esp)
    3aa3:	e8 b8 38 01 00       	call   17360 <printf>
    3aa8:	b8 01 00 00 00       	mov    $0x1,%eax
    3aad:	e9 4c f8 ff ff       	jmp    32fe <cmd_cat+0x5ce>
    3ab2:	66 90                	xchg   %ax,%ax
    3ab4:	66 90                	xchg   %ax,%ax
    3ab6:	66 90                	xchg   %ax,%ax
    3ab8:	66 90                	xchg   %ax,%ax
    3aba:	66 90                	xchg   %ax,%ax
    3abc:	66 90                	xchg   %ax,%ax
    3abe:	66 90                	xchg   %ax,%ax

00003ac0 <help_cmd_touch.constprop.0>:
    3ac0:	55                   	push   %ebp
    3ac1:	89 e5                	mov    %esp,%ebp
    3ac3:	83 ec 18             	sub    $0x18,%esp
    3ac6:	c7 44 24 04 fe a6 02 	movl   $0x2a6fe,0x4(%esp)
    3acd:	00 
    3ace:	c7 04 24 bc bd 02 00 	movl   $0x2bdbc,(%esp)
    3ad5:	e8 86 38 01 00       	call   17360 <printf>
    3ada:	c9                   	leave  
    3adb:	c3                   	ret    
    3adc:	8d 74 26 00          	lea    0x0(%esi,%eiz,1),%esi

00003ae0 <help_cmd_touch>:
    3ae0:	55                   	push   %ebp
    3ae1:	89 e5                	mov    %esp,%ebp
    3ae3:	83 ec 18             	sub    $0x18,%esp
    3ae6:	8b 45 08             	mov    0x8(%ebp),%eax
    3ae9:	c7 44 24 04 fe a6 02 	movl   $0x2a6fe,0x4(%esp)
    3af0:	00 
    3af1:	85 c0                	test   %eax,%eax
    3af3:	c7 04 24 bc bd 02 00 	movl   $0x2bdbc,(%esp)
    3afa:	74 14                	je     3b10 <help_cmd_touch+0x30>
    3afc:	e8 5f 38 01 00       	call   17360 <printf>
    3b01:	c7 44 24 04 fe a6 02 	movl   $0x2a6fe,0x4(%esp)
    3b08:	00 
    3b09:	c7 04 24 e0 bd 02 00 	movl   $0x2bde0,(%esp)
    3b10:	e8 4b 38 01 00       	call   17360 <printf>
    3b15:	c9                   	leave  
    3b16:	c3                   	ret    
    3b17:	89 f6                	mov    %esi,%esi
    3b19:	8d bc 27 00 00 00 00 	lea    0x0(%edi,%eiz,1),%edi

00003b20 <cmd_touch>:
    3b20:	55                   	push   %ebp
    3b21:	89 e5                	mov    %esp,%ebp
    3b23:	57                   	push   %edi
    3b24:	56                   	push   %esi
    3b25:	53                   	push   %ebx
    3b26:	83 ec 6c             	sub    $0x6c,%esp
    3b29:	8d 7d c4             	lea    -0x3c(%ebp),%edi
    3b2c:	8b 5d 08             	mov    0x8(%ebp),%ebx
    3b2f:	89 1c 24             	mov    %ebx,(%esp)
    3b32:	e8 09 3c 00 00       	call   7740 <cli_count_args>
    3b37:	c7 05 f4 06 03 00 00 	movl   $0x0,0x306f4
    3b3e:	00 00 00 
    3b41:	89 c6                	mov    %eax,%esi
    3b43:	c7 45 c4 00 00 00 00 	movl   $0x0,-0x3c(%ebp)
    3b4a:	c6 45 b7 00          	movb   $0x0,-0x49(%ebp)
    3b4e:	66 90                	xchg   %ax,%ax
    3b50:	89 7c 24 10          	mov    %edi,0x10(%esp)
    3b54:	c7 44 24 0c 00 bf 02 	movl   $0x2bf00,0xc(%esp)
    3b5b:	00 
    3b5c:	c7 44 24 08 5a ce 02 	movl   $0x2ce5a,0x8(%esp)
    3b63:	00 
    3b64:	89 5c 24 04          	mov    %ebx,0x4(%esp)
    3b68:	89 34 24             	mov    %esi,(%esp)
    3b6b:	e8 50 f1 01 00       	call   22cc0 <getopt_long>
    3b70:	83 f8 63             	cmp    $0x63,%eax
    3b73:	0f 84 d7 00 00 00    	je     3c50 <cmd_touch+0x130>
    3b79:	40                   	inc    %eax
    3b7a:	75 d4                	jne    3b50 <cmd_touch+0x30>
    3b7c:	a1 f4 06 03 00       	mov    0x306f4,%eax
    3b81:	39 f0                	cmp    %esi,%eax
    3b83:	0f 84 1d 01 00 00    	je     3ca6 <cmd_touch+0x186>
    3b89:	8d 1c 83             	lea    (%ebx,%eax,4),%ebx
    3b8c:	31 f6                	xor    %esi,%esi
    3b8e:	8b 03                	mov    (%ebx),%eax
    3b90:	85 c0                	test   %eax,%eax
    3b92:	75 44                	jne    3bd8 <cmd_touch+0xb8>
    3b94:	e9 a9 00 00 00       	jmp    3c42 <cmd_touch+0x122>
    3b99:	8d b4 26 00 00 00 00 	lea    0x0(%esi,%eiz,1),%esi
    3ba0:	89 7c 24 08          	mov    %edi,0x8(%esp)
    3ba4:	c7 44 24 04 9e bd 02 	movl   $0x2bd9e,0x4(%esp)
    3bab:	00 
    3bac:	c7 04 24 06 00 00 00 	movl   $0x6,(%esp)
    3bb3:	89 45 b0             	mov    %eax,-0x50(%ebp)
    3bb6:	e8 85 34 00 00       	call   7040 <cli_error>
    3bbb:	8b 45 b0             	mov    -0x50(%ebp),%eax
    3bbe:	89 04 24             	mov    %eax,(%esp)
    3bc1:	46                   	inc    %esi
    3bc2:	e8 f9 31 02 00       	call   26dc0 <closedir>
    3bc7:	89 3c 24             	mov    %edi,(%esp)
    3bca:	e8 51 8f 01 00       	call   1cb20 <free>
    3bcf:	83 c3 04             	add    $0x4,%ebx
    3bd2:	8b 03                	mov    (%ebx),%eax
    3bd4:	85 c0                	test   %eax,%eax
    3bd6:	74 60                	je     3c38 <cmd_touch+0x118>
    3bd8:	89 04 24             	mov    %eax,(%esp)
    3bdb:	e8 20 e4 00 00       	call   12000 <str_dup>
    3be0:	89 c7                	mov    %eax,%edi
    3be2:	85 c0                	test   %eax,%eax
    3be4:	74 7a                	je     3c60 <cmd_touch+0x140>
    3be6:	89 04 24             	mov    %eax,(%esp)
    3be9:	e8 52 2e 02 00       	call   26a40 <opendir>
    3bee:	85 c0                	test   %eax,%eax
    3bf0:	75 ae                	jne    3ba0 <cmd_touch+0x80>
    3bf2:	80 7d b7 00          	cmpb   $0x0,-0x49(%ebp)
    3bf6:	74 13                	je     3c0b <cmd_touch+0xeb>
    3bf8:	8d 45 c8             	lea    -0x38(%ebp),%eax
    3bfb:	89 3c 24             	mov    %edi,(%esp)
    3bfe:	89 44 24 04          	mov    %eax,0x4(%esp)
    3c02:	e8 d9 2c 02 00       	call   268e0 <stat>
    3c07:	85 c0                	test   %eax,%eax
    3c09:	75 75                	jne    3c80 <cmd_touch+0x160>
    3c0b:	c7 44 24 04 21 00 00 	movl   $0x21,0x4(%esp)
    3c12:	00 
    3c13:	89 3c 24             	mov    %edi,(%esp)
    3c16:	e8 05 22 02 00       	call   25e20 <open>
    3c1b:	85 c0                	test   %eax,%eax
    3c1d:	78 61                	js     3c80 <cmd_touch+0x160>
    3c1f:	83 c3 04             	add    $0x4,%ebx
    3c22:	89 04 24             	mov    %eax,(%esp)
    3c25:	e8 36 23 02 00       	call   25f60 <close>
    3c2a:	89 3c 24             	mov    %edi,(%esp)
    3c2d:	e8 ee 8e 01 00       	call   1cb20 <free>
    3c32:	8b 03                	mov    (%ebx),%eax
    3c34:	85 c0                	test   %eax,%eax
    3c36:	75 a0                	jne    3bd8 <cmd_touch+0xb8>
    3c38:	85 f6                	test   %esi,%esi
    3c3a:	0f 95 c0             	setne  %al
    3c3d:	25 ff 00 00 00       	and    $0xff,%eax
    3c42:	83 c4 6c             	add    $0x6c,%esp
    3c45:	5b                   	pop    %ebx
    3c46:	5e                   	pop    %esi
    3c47:	5f                   	pop    %edi
    3c48:	5d                   	pop    %ebp
    3c49:	c3                   	ret    
    3c4a:	8d b6 00 00 00 00    	lea    0x0(%esi),%esi
    3c50:	c6 45 b7 01          	movb   $0x1,-0x49(%ebp)
    3c54:	e9 f7 fe ff ff       	jmp    3b50 <cmd_touch+0x30>
    3c59:	8d b4 26 00 00 00 00 	lea    0x0(%esi,%eiz,1),%esi
    3c60:	c7 44 24 04 90 bd 02 	movl   $0x2bd90,0x4(%esp)
    3c67:	00 
    3c68:	c7 04 24 04 00 00 00 	movl   $0x4,(%esp)
    3c6f:	e8 cc 33 00 00       	call   7040 <cli_error>
    3c74:	46                   	inc    %esi
    3c75:	e9 55 ff ff ff       	jmp    3bcf <cmd_touch+0xaf>
    3c7a:	8d b6 00 00 00 00    	lea    0x0(%esi),%esi
    3c80:	89 7c 24 08          	mov    %edi,0x8(%esp)
    3c84:	c7 44 24 04 d8 be 02 	movl   $0x2bed8,0x4(%esp)
    3c8b:	00 
    3c8c:	c7 04 24 01 00 00 00 	movl   $0x1,(%esp)
    3c93:	46                   	inc    %esi
    3c94:	e8 a7 33 00 00       	call   7040 <cli_error>
    3c99:	89 3c 24             	mov    %edi,(%esp)
    3c9c:	e8 7f 8e 01 00       	call   1cb20 <free>
    3ca1:	e9 29 ff ff ff       	jmp    3bcf <cmd_touch+0xaf>
    3ca6:	c7 44 24 08 fe a6 02 	movl   $0x2a6fe,0x8(%esp)
    3cad:	00 
    3cae:	c7 44 24 04 fe a6 02 	movl   $0x2a6fe,0x4(%esp)
    3cb5:	00 
    3cb6:	c7 04 24 9c be 02 00 	movl   $0x2be9c,(%esp)
    3cbd:	e8 9e 36 01 00       	call   17360 <printf>
    3cc2:	b8 01 00 00 00       	mov    $0x1,%eax
    3cc7:	e9 76 ff ff ff       	jmp    3c42 <cmd_touch+0x122>
    3ccc:	66 90                	xchg   %ax,%ax
    3cce:	66 90                	xchg   %ax,%ax

00003cd0 <ls_cmp>:
    3cd0:	55                   	push   %ebp
    3cd1:	89 e5                	mov    %esp,%ebp
    3cd3:	53                   	push   %ebx
    3cd4:	83 ec 14             	sub    $0x14,%esp
    3cd7:	8b 5d 08             	mov    0x8(%ebp),%ebx
    3cda:	8b 4d 0c             	mov    0xc(%ebp),%ecx
    3cdd:	8a 53 15             	mov    0x15(%ebx),%dl
    3ce0:	84 d2                	test   %dl,%dl
    3ce2:	74 06                	je     3cea <ls_cmp+0x1a>
    3ce4:	80 79 14 00          	cmpb   $0x0,0x14(%ecx)
    3ce8:	75 36                	jne    3d20 <ls_cmp+0x50>
    3cea:	b8 01 00 00 00       	mov    $0x1,%eax
    3cef:	3a 51 15             	cmp    0x15(%ecx),%dl
    3cf2:	74 0c                	je     3d00 <ls_cmp+0x30>
    3cf4:	83 c4 14             	add    $0x14,%esp
    3cf7:	5b                   	pop    %ebx
    3cf8:	5d                   	pop    %ebp
    3cf9:	c3                   	ret    
    3cfa:	8d b6 00 00 00 00    	lea    0x0(%esi),%esi
    3d00:	8b 01                	mov    (%ecx),%eax
    3d02:	89 44 24 04          	mov    %eax,0x4(%esp)
    3d06:	8b 03                	mov    (%ebx),%eax
    3d08:	89 04 24             	mov    %eax,(%esp)
    3d0b:	e8 80 c8 00 00       	call   10590 <str_cmp>
    3d10:	83 c4 14             	add    $0x14,%esp
    3d13:	c1 f8 1f             	sar    $0x1f,%eax
    3d16:	5b                   	pop    %ebx
    3d17:	83 c8 01             	or     $0x1,%eax
    3d1a:	5d                   	pop    %ebp
    3d1b:	c3                   	ret    
    3d1c:	8d 74 26 00          	lea    0x0(%esi,%eiz,1),%esi
    3d20:	83 c8 ff             	or     $0xffffffff,%eax
    3d23:	eb cf                	jmp    3cf4 <ls_cmp+0x24>
    3d25:	8d 74 26 00          	lea    0x0(%esi,%eiz,1),%esi
    3d29:	8d bc 27 00 00 00 00 	lea    0x0(%edi,%eiz,1),%edi

00003d30 <help_cmd_ls.constprop.2>:
    3d30:	55                   	push   %ebp
    3d31:	89 e5                	mov    %esp,%ebp
    3d33:	83 ec 18             	sub    $0x18,%esp
    3d36:	c7 44 24 04 0d d2 02 	movl   $0x2d20d,0x4(%esp)
    3d3d:	00 
    3d3e:	c7 04 24 b4 bf 02 00 	movl   $0x2bfb4,(%esp)
    3d45:	e8 16 36 01 00       	call   17360 <printf>
    3d4a:	c9                   	leave  
    3d4b:	c3                   	ret    
    3d4c:	8d 74 26 00          	lea    0x0(%esi,%eiz,1),%esi

00003d50 <ls_scan_dir>:
    3d50:	55                   	push   %ebp
    3d51:	89 e5                	mov    %esp,%ebp
    3d53:	57                   	push   %edi
    3d54:	56                   	push   %esi
    3d55:	53                   	push   %ebx
    3d56:	83 ec 4c             	sub    $0x4c,%esp
    3d59:	89 45 d4             	mov    %eax,-0x2c(%ebp)
    3d5c:	89 55 d8             	mov    %edx,-0x28(%ebp)
    3d5f:	89 4d d0             	mov    %ecx,-0x30(%ebp)
    3d62:	85 d2                	test   %edx,%edx
    3d64:	0f 84 fb 02 00 00    	je     4065 <ls_scan_dir+0x315>
    3d6a:	c7 04 24 ff 00 00 00 	movl   $0xff,(%esp)
    3d71:	e8 9a 8c 01 00       	call   1ca10 <malloc>
    3d76:	89 45 e4             	mov    %eax,-0x1c(%ebp)
    3d79:	85 c0                	test   %eax,%eax
    3d7b:	0f 84 f3 02 00 00    	je     4074 <ls_scan_dir+0x324>
    3d81:	c7 04 24 d0 02 00 00 	movl   $0x2d0,(%esp)
    3d88:	e8 83 8c 01 00       	call   1ca10 <malloc>
    3d8d:	89 45 dc             	mov    %eax,-0x24(%ebp)
    3d90:	85 c0                	test   %eax,%eax
    3d92:	0f 84 ff 02 00 00    	je     4097 <ls_scan_dir+0x347>
    3d98:	31 db                	xor    %ebx,%ebx
    3d9a:	c7 45 e0 14 00 00 00 	movl   $0x14,-0x20(%ebp)
    3da1:	8d b4 26 00 00 00 00 	lea    0x0(%esi,%eiz,1),%esi
    3da8:	8b 55 d8             	mov    -0x28(%ebp),%edx
    3dab:	89 14 24             	mov    %edx,(%esp)
    3dae:	e8 fd 2d 02 00       	call   26bb0 <readdir>
    3db3:	89 c7                	mov    %eax,%edi
    3db5:	85 c0                	test   %eax,%eax
    3db7:	0f 84 1b 01 00 00    	je     3ed8 <ls_scan_dir+0x188>
    3dbd:	39 5d e0             	cmp    %ebx,-0x20(%ebp)
    3dc0:	7f 2b                	jg     3ded <ls_scan_dir+0x9d>
    3dc2:	8b 45 e0             	mov    -0x20(%ebp),%eax
    3dc5:	01 c0                	add    %eax,%eax
    3dc7:	89 45 e0             	mov    %eax,-0x20(%ebp)
    3dca:	8b 55 e0             	mov    -0x20(%ebp),%edx
    3dcd:	8d 04 d2             	lea    (%edx,%edx,8),%eax
    3dd0:	c1 e0 02             	shl    $0x2,%eax
    3dd3:	89 44 24 04          	mov    %eax,0x4(%esp)
    3dd7:	8b 45 dc             	mov    -0x24(%ebp),%eax
    3dda:	89 04 24             	mov    %eax,(%esp)
    3ddd:	e8 8e 8f 01 00       	call   1cd70 <realloc>
    3de2:	85 c0                	test   %eax,%eax
    3de4:	0f 84 1b 02 00 00    	je     4005 <ls_scan_dir+0x2b5>
    3dea:	89 45 dc             	mov    %eax,-0x24(%ebp)
    3ded:	8b 55 dc             	mov    -0x24(%ebp),%edx
    3df0:	8d 04 db             	lea    (%ebx,%ebx,8),%eax
    3df3:	89 3c 24             	mov    %edi,(%esp)
    3df6:	8d 34 82             	lea    (%edx,%eax,4),%esi
    3df9:	e8 62 c2 00 00       	call   10060 <str_size>
    3dfe:	40                   	inc    %eax
    3dff:	89 04 24             	mov    %eax,(%esp)
    3e02:	e8 09 8c 01 00       	call   1ca10 <malloc>
    3e07:	89 06                	mov    %eax,(%esi)
    3e09:	85 c0                	test   %eax,%eax
    3e0b:	0f 84 67 01 00 00    	je     3f78 <ls_scan_dir+0x228>
    3e11:	89 3c 24             	mov    %edi,(%esp)
    3e14:	43                   	inc    %ebx
    3e15:	e8 46 c2 00 00       	call   10060 <str_size>
    3e1a:	89 7c 24 08          	mov    %edi,0x8(%esp)
    3e1e:	40                   	inc    %eax
    3e1f:	89 44 24 04          	mov    %eax,0x4(%esp)
    3e23:	8b 06                	mov    (%esi),%eax
    3e25:	89 04 24             	mov    %eax,(%esp)
    3e28:	e8 e3 cd 00 00       	call   10c10 <str_cpy>
    3e2d:	8b 06                	mov    (%esi),%eax
    3e2f:	89 44 24 10          	mov    %eax,0x10(%esp)
    3e33:	8b 45 d4             	mov    -0x2c(%ebp),%eax
    3e36:	89 44 24 0c          	mov    %eax,0xc(%esp)
    3e3a:	8b 45 e4             	mov    -0x1c(%ebp),%eax
    3e3d:	c7 44 24 08 72 b4 02 	movl   $0x2b472,0x8(%esp)
    3e44:	00 
    3e45:	c7 44 24 04 fe 00 00 	movl   $0xfe,0x4(%esp)
    3e4c:	00 
    3e4d:	89 04 24             	mov    %eax,(%esp)
    3e50:	83 c6 04             	add    $0x4,%esi
    3e53:	e8 a8 37 01 00       	call   17600 <snprintf>
    3e58:	8b 55 e4             	mov    -0x1c(%ebp),%edx
    3e5b:	c6 04 02 00          	movb   $0x0,(%edx,%eax,1)
    3e5f:	89 74 24 04          	mov    %esi,0x4(%esp)
    3e63:	89 14 24             	mov    %edx,(%esp)
    3e66:	e8 75 2a 02 00       	call   268e0 <stat>
    3e6b:	85 c0                	test   %eax,%eax
    3e6d:	0f 84 35 ff ff ff    	je     3da8 <ls_scan_dir+0x58>
    3e73:	89 c6                	mov    %eax,%esi
    3e75:	8b 45 e4             	mov    -0x1c(%ebp),%eax
    3e78:	89 44 24 04          	mov    %eax,0x4(%esp)
    3e7c:	c7 04 24 36 bf 02 00 	movl   $0x2bf36,(%esp)
    3e83:	e8 d8 34 01 00       	call   17360 <printf>
    3e88:	89 74 24 04          	mov    %esi,0x4(%esp)
    3e8c:	c7 04 24 52 bf 02 00 	movl   $0x2bf52,(%esp)
    3e93:	e8 c8 34 01 00       	call   17360 <printf>
    3e98:	8b 75 dc             	mov    -0x24(%ebp),%esi
    3e9b:	31 ff                	xor    %edi,%edi
    3e9d:	8d 76 00             	lea    0x0(%esi),%esi
    3ea0:	8b 06                	mov    (%esi),%eax
    3ea2:	47                   	inc    %edi
    3ea3:	89 04 24             	mov    %eax,(%esp)
    3ea6:	83 c6 24             	add    $0x24,%esi
    3ea9:	e8 72 8c 01 00       	call   1cb20 <free>
    3eae:	39 df                	cmp    %ebx,%edi
    3eb0:	75 ee                	jne    3ea0 <ls_scan_dir+0x150>
    3eb2:	8b 45 dc             	mov    -0x24(%ebp),%eax
    3eb5:	89 04 24             	mov    %eax,(%esp)
    3eb8:	e8 63 8c 01 00       	call   1cb20 <free>
    3ebd:	8b 45 e4             	mov    -0x1c(%ebp),%eax
    3ec0:	89 04 24             	mov    %eax,(%esp)
    3ec3:	e8 58 8c 01 00       	call   1cb20 <free>
    3ec8:	83 c4 4c             	add    $0x4c,%esp
    3ecb:	89 d8                	mov    %ebx,%eax
    3ecd:	5b                   	pop    %ebx
    3ece:	5e                   	pop    %esi
    3ecf:	5f                   	pop    %edi
    3ed0:	5d                   	pop    %ebp
    3ed1:	c3                   	ret    
    3ed2:	8d b6 00 00 00 00    	lea    0x0(%esi),%esi
    3ed8:	8b 3d cc 07 03 00    	mov    0x307cc,%edi
    3ede:	85 ff                	test   %edi,%edi
    3ee0:	0f 85 3f 01 00 00    	jne    4025 <ls_scan_dir+0x2d5>
    3ee6:	31 ff                	xor    %edi,%edi
    3ee8:	8b 75 dc             	mov    -0x24(%ebp),%esi
    3eeb:	85 db                	test   %ebx,%ebx
    3eed:	75 1d                	jne    3f0c <ls_scan_dir+0x1bc>
    3eef:	eb 41                	jmp    3f32 <ls_scan_dir+0x1e2>
    3ef1:	8d b4 26 00 00 00 00 	lea    0x0(%esi,%eiz,1),%esi
    3ef8:	c7 04 24 82 bf 02 00 	movl   $0x2bf82,(%esp)
    3eff:	e8 5c 34 01 00       	call   17360 <printf>
    3f04:	47                   	inc    %edi
    3f05:	83 c6 24             	add    $0x24,%esi
    3f08:	39 df                	cmp    %ebx,%edi
    3f0a:	74 26                	je     3f32 <ls_scan_dir+0x1e2>
    3f0c:	80 7e 14 00          	cmpb   $0x0,0x14(%esi)
    3f10:	75 3e                	jne    3f50 <ls_scan_dir+0x200>
    3f12:	8b 06                	mov    (%esi),%eax
    3f14:	80 7e 15 00          	cmpb   $0x0,0x15(%esi)
    3f18:	89 44 24 04          	mov    %eax,0x4(%esp)
    3f1c:	74 da                	je     3ef8 <ls_scan_dir+0x1a8>
    3f1e:	c7 04 24 75 bf 02 00 	movl   $0x2bf75,(%esp)
    3f25:	47                   	inc    %edi
    3f26:	e8 35 34 01 00       	call   17360 <printf>
    3f2b:	83 c6 24             	add    $0x24,%esi
    3f2e:	39 df                	cmp    %ebx,%edi
    3f30:	75 da                	jne    3f0c <ls_scan_dir+0x1bc>
    3f32:	8b 35 c8 07 03 00    	mov    0x307c8,%esi
    3f38:	85 f6                	test   %esi,%esi
    3f3a:	75 59                	jne    3f95 <ls_scan_dir+0x245>
    3f3c:	85 db                	test   %ebx,%ebx
    3f3e:	0f 85 54 ff ff ff    	jne    3e98 <ls_scan_dir+0x148>
    3f44:	e9 69 ff ff ff       	jmp    3eb2 <ls_scan_dir+0x162>
    3f49:	8d b4 26 00 00 00 00 	lea    0x0(%esi,%eiz,1),%esi
    3f50:	8b 46 18             	mov    0x18(%esi),%eax
    3f53:	8b 56 1c             	mov    0x1c(%esi),%edx
    3f56:	89 54 24 0c          	mov    %edx,0xc(%esp)
    3f5a:	89 44 24 08          	mov    %eax,0x8(%esp)
    3f5e:	8b 06                	mov    (%esi),%eax
    3f60:	c7 04 24 69 bf 02 00 	movl   $0x2bf69,(%esp)
    3f67:	89 44 24 04          	mov    %eax,0x4(%esp)
    3f6b:	e8 f0 33 01 00       	call   17360 <printf>
    3f70:	eb 92                	jmp    3f04 <ls_scan_dir+0x1b4>
    3f72:	8d b6 00 00 00 00    	lea    0x0(%esi),%esi
    3f78:	8b 45 d4             	mov    -0x2c(%ebp),%eax
    3f7b:	c7 44 24 04 20 bf 02 	movl   $0x2bf20,0x4(%esp)
    3f82:	00 
    3f83:	89 44 24 08          	mov    %eax,0x8(%esp)
    3f87:	c7 04 24 04 00 00 00 	movl   $0x4,(%esp)
    3f8e:	e8 ad 30 00 00       	call   7040 <cli_error>
    3f93:	eb a7                	jmp    3f3c <ls_scan_dir+0x1ec>
    3f95:	8d 04 db             	lea    (%ebx,%ebx,8),%eax
    3f98:	8b 55 d0             	mov    -0x30(%ebp),%edx
    3f9b:	c1 e0 02             	shl    $0x2,%eax
    3f9e:	89 44 24 04          	mov    %eax,0x4(%esp)
    3fa2:	8b 02                	mov    (%edx),%eax
    3fa4:	89 04 24             	mov    %eax,(%esp)
    3fa7:	e8 c4 8d 01 00       	call   1cd70 <realloc>
    3fac:	85 c0                	test   %eax,%eax
    3fae:	74 c8                	je     3f78 <ls_scan_dir+0x228>
    3fb0:	8b 55 d0             	mov    -0x30(%ebp),%edx
    3fb3:	85 db                	test   %ebx,%ebx
    3fb5:	89 02                	mov    %eax,(%edx)
    3fb7:	0f 84 f5 fe ff ff    	je     3eb2 <ls_scan_dir+0x162>
    3fbd:	31 f6                	xor    %esi,%esi
    3fbf:	89 5d d8             	mov    %ebx,-0x28(%ebp)
    3fc2:	c7 45 e0 00 00 00 00 	movl   $0x0,-0x20(%ebp)
    3fc9:	89 f3                	mov    %esi,%ebx
    3fcb:	8b 75 dc             	mov    -0x24(%ebp),%esi
    3fce:	eb 16                	jmp    3fe6 <ls_scan_dir+0x296>
    3fd0:	8b 55 e0             	mov    -0x20(%ebp),%edx
    3fd3:	83 c3 24             	add    $0x24,%ebx
    3fd6:	42                   	inc    %edx
    3fd7:	89 55 e0             	mov    %edx,-0x20(%ebp)
    3fda:	8b 55 d8             	mov    -0x28(%ebp),%edx
    3fdd:	39 55 e0             	cmp    %edx,-0x20(%ebp)
    3fe0:	0f 84 87 00 00 00    	je     406d <ls_scan_dir+0x31d>
    3fe6:	8d 3c 18             	lea    (%eax,%ebx,1),%edi
    3fe9:	8b 04 1e             	mov    (%esi,%ebx,1),%eax
    3fec:	89 04 24             	mov    %eax,(%esp)
    3fef:	e8 0c e0 00 00       	call   12000 <str_dup>
    3ff4:	8b 55 d0             	mov    -0x30(%ebp),%edx
    3ff7:	89 07                	mov    %eax,(%edi)
    3ff9:	8b 02                	mov    (%edx),%eax
    3ffb:	8b 0c 18             	mov    (%eax,%ebx,1),%ecx
    3ffe:	85 c9                	test   %ecx,%ecx
    4000:	75 ce                	jne    3fd0 <ls_scan_dir+0x280>
    4002:	8b 5d d8             	mov    -0x28(%ebp),%ebx
    4005:	8b 45 d4             	mov    -0x2c(%ebp),%eax
    4008:	c7 44 24 04 20 bf 02 	movl   $0x2bf20,0x4(%esp)
    400f:	00 
    4010:	89 44 24 08          	mov    %eax,0x8(%esp)
    4014:	c7 04 24 04 00 00 00 	movl   $0x4,(%esp)
    401b:	e8 20 30 00 00       	call   7040 <cli_error>
    4020:	e9 73 fe ff ff       	jmp    3e98 <ls_scan_dir+0x148>
    4025:	8b 45 dc             	mov    -0x24(%ebp),%eax
    4028:	c7 44 24 10 00 00 00 	movl   $0x0,0x10(%esp)
    402f:	00 
    4030:	c7 44 24 0c d0 3c 00 	movl   $0x3cd0,0xc(%esp)
    4037:	00 
    4038:	c7 44 24 08 24 00 00 	movl   $0x24,0x8(%esp)
    403f:	00 
    4040:	89 5c 24 04          	mov    %ebx,0x4(%esp)
    4044:	89 04 24             	mov    %eax,(%esp)
    4047:	e8 f4 40 02 00       	call   28140 <qsort>
    404c:	84 c0                	test   %al,%al
    404e:	0f 85 92 fe ff ff    	jne    3ee6 <ls_scan_dir+0x196>
    4054:	c7 04 24 59 bf 02 00 	movl   $0x2bf59,(%esp)
    405b:	e8 00 33 01 00       	call   17360 <printf>
    4060:	e9 81 fe ff ff       	jmp    3ee6 <ls_scan_dir+0x196>
    4065:	83 cb ff             	or     $0xffffffff,%ebx
    4068:	e9 5b fe ff ff       	jmp    3ec8 <ls_scan_dir+0x178>
    406d:	89 d3                	mov    %edx,%ebx
    406f:	e9 24 fe ff ff       	jmp    3e98 <ls_scan_dir+0x148>
    4074:	8b 45 d4             	mov    -0x2c(%ebp),%eax
    4077:	c7 44 24 04 20 bf 02 	movl   $0x2bf20,0x4(%esp)
    407e:	00 
    407f:	89 44 24 08          	mov    %eax,0x8(%esp)
    4083:	c7 04 24 04 00 00 00 	movl   $0x4,(%esp)
    408a:	e8 b1 2f 00 00       	call   7040 <cli_error>
    408f:	83 cb ff             	or     $0xffffffff,%ebx
    4092:	e9 31 fe ff ff       	jmp    3ec8 <ls_scan_dir+0x178>
    4097:	8b 45 d4             	mov    -0x2c(%ebp),%eax
    409a:	c7 44 24 04 20 bf 02 	movl   $0x2bf20,0x4(%esp)
    40a1:	00 
    40a2:	89 44 24 08          	mov    %eax,0x8(%esp)
    40a6:	c7 04 24 04 00 00 00 	movl   $0x4,(%esp)
    40ad:	e8 8e 2f 00 00       	call   7040 <cli_error>
    40b2:	8b 45 e4             	mov    -0x1c(%ebp),%eax
    40b5:	89 04 24             	mov    %eax,(%esp)
    40b8:	83 cb ff             	or     $0xffffffff,%ebx
    40bb:	e8 60 8a 01 00       	call   1cb20 <free>
    40c0:	e9 03 fe ff ff       	jmp    3ec8 <ls_scan_dir+0x178>
    40c5:	8d 74 26 00          	lea    0x0(%esi,%eiz,1),%esi
    40c9:	8d bc 27 00 00 00 00 	lea    0x0(%edi,%eiz,1),%edi

000040d0 <ls_recursive>:
    40d0:	55                   	push   %ebp
    40d1:	89 e5                	mov    %esp,%ebp
    40d3:	57                   	push   %edi
    40d4:	56                   	push   %esi
    40d5:	53                   	push   %ebx
    40d6:	83 ec 3c             	sub    $0x3c,%esp
    40d9:	89 c7                	mov    %eax,%edi
    40db:	89 55 c8             	mov    %edx,-0x38(%ebp)
    40de:	c7 04 24 24 00 00 00 	movl   $0x24,(%esp)
    40e5:	e8 26 89 01 00       	call   1ca10 <malloc>
    40ea:	89 7c 24 04          	mov    %edi,0x4(%esp)
    40ee:	c7 04 24 89 bf 02 00 	movl   $0x2bf89,(%esp)
    40f5:	89 45 e4             	mov    %eax,-0x1c(%ebp)
    40f8:	e8 63 32 01 00       	call   17360 <printf>
    40fd:	c7 04 24 ff 00 00 00 	movl   $0xff,(%esp)
    4104:	e8 07 89 01 00       	call   1ca10 <malloc>
    4109:	8b 55 c8             	mov    -0x38(%ebp),%edx
    410c:	89 c6                	mov    %eax,%esi
    410e:	85 c0                	test   %eax,%eax
    4110:	0f 84 c2 01 00 00    	je     42d8 <ls_recursive+0x208>
    4116:	8d 4d e4             	lea    -0x1c(%ebp),%ecx
    4119:	89 f8                	mov    %edi,%eax
    411b:	e8 30 fc ff ff       	call   3d50 <ls_scan_dir>
    4120:	89 45 d0             	mov    %eax,-0x30(%ebp)
    4123:	83 f8 ff             	cmp    $0xffffffff,%eax
    4126:	0f 84 ac 01 00 00    	je     42d8 <ls_recursive+0x208>
    412c:	c7 45 d4 00 00 00 00 	movl   $0x0,-0x2c(%ebp)
    4133:	85 c0                	test   %eax,%eax
    4135:	0f 8e 5e 01 00 00    	jle    4299 <ls_recursive+0x1c9>
    413b:	c7 44 24 08 ff 00 00 	movl   $0xff,0x8(%esp)
    4142:	00 
    4143:	c7 44 24 04 00 00 00 	movl   $0x0,0x4(%esp)
    414a:	00 
    414b:	89 34 24             	mov    %esi,(%esp)
    414e:	e8 7d af 00 00       	call   f0d0 <memset>
    4153:	89 34 24             	mov    %esi,(%esp)
    4156:	e8 05 bf 00 00       	call   10060 <str_size>
    415b:	89 3c 24             	mov    %edi,(%esp)
    415e:	89 c3                	mov    %eax,%ebx
    4160:	e8 fb be 00 00       	call   10060 <str_size>
    4165:	8d 44 03 01          	lea    0x1(%ebx,%eax,1),%eax
    4169:	3d ff 00 00 00       	cmp    $0xff,%eax
    416e:	0f 86 74 01 00 00    	jbe    42e8 <ls_recursive+0x218>
    4174:	89 3c 24             	mov    %edi,(%esp)
    4177:	e8 e4 be 00 00       	call   10060 <str_size>
    417c:	80 7c 07 ff 2f       	cmpb   $0x2f,-0x1(%edi,%eax,1)
    4181:	74 25                	je     41a8 <ls_recursive+0xd8>
    4183:	89 34 24             	mov    %esi,(%esp)
    4186:	e8 d5 be 00 00       	call   10060 <str_size>
    418b:	c7 04 24 8f bf 02 00 	movl   $0x2bf8f,(%esp)
    4192:	89 c3                	mov    %eax,%ebx
    4194:	e8 c7 be 00 00       	call   10060 <str_size>
    4199:	8d 44 03 01          	lea    0x1(%ebx,%eax,1),%eax
    419d:	3d ff 00 00 00       	cmp    $0xff,%eax
    41a2:	0f 86 10 01 00 00    	jbe    42b8 <ls_recursive+0x1e8>
    41a8:	89 34 24             	mov    %esi,(%esp)
    41ab:	e8 b0 be 00 00       	call   10060 <str_size>
    41b0:	89 c2                	mov    %eax,%edx
    41b2:	8b 45 d4             	mov    -0x2c(%ebp),%eax
    41b5:	8d 1c c0             	lea    (%eax,%eax,8),%ebx
    41b8:	8b 45 e4             	mov    -0x1c(%ebp),%eax
    41bb:	c1 e3 02             	shl    $0x2,%ebx
    41be:	8b 04 18             	mov    (%eax,%ebx,1),%eax
    41c1:	89 55 c8             	mov    %edx,-0x38(%ebp)
    41c4:	89 04 24             	mov    %eax,(%esp)
    41c7:	e8 94 be 00 00       	call   10060 <str_size>
    41cc:	8b 55 c8             	mov    -0x38(%ebp),%edx
    41cf:	8d 44 02 01          	lea    0x1(%edx,%eax,1),%eax
    41d3:	3d ff 00 00 00       	cmp    $0xff,%eax
    41d8:	0f 86 2a 01 00 00    	jbe    4308 <ls_recursive+0x238>
    41de:	8b 55 e4             	mov    -0x1c(%ebp),%edx
    41e1:	89 34 24             	mov    %esi,(%esp)
    41e4:	01 da                	add    %ebx,%edx
    41e6:	89 55 c8             	mov    %edx,-0x38(%ebp)
    41e9:	8d 42 04             	lea    0x4(%edx),%eax
    41ec:	89 44 24 04          	mov    %eax,0x4(%esp)
    41f0:	e8 eb 26 02 00       	call   268e0 <stat>
    41f5:	8b 55 c8             	mov    -0x38(%ebp),%edx
    41f8:	85 c0                	test   %eax,%eax
    41fa:	75 5c                	jne    4258 <ls_recursive+0x188>
    41fc:	80 7a 14 00          	cmpb   $0x0,0x14(%edx)
    4200:	75 34                	jne    4236 <ls_recursive+0x166>
    4202:	80 7a 15 00          	cmpb   $0x0,0x15(%edx)
    4206:	74 60                	je     4268 <ls_recursive+0x198>
    4208:	89 34 24             	mov    %esi,(%esp)
    420b:	e8 30 28 02 00       	call   26a40 <opendir>
    4210:	89 c1                	mov    %eax,%ecx
    4212:	85 c0                	test   %eax,%eax
    4214:	0f 84 0d 01 00 00    	je     4327 <ls_recursive+0x257>
    421a:	89 ca                	mov    %ecx,%edx
    421c:	89 f0                	mov    %esi,%eax
    421e:	89 4d c8             	mov    %ecx,-0x38(%ebp)
    4221:	e8 aa fe ff ff       	call   40d0 <ls_recursive>
    4226:	8b 4d c8             	mov    -0x38(%ebp),%ecx
    4229:	89 c3                	mov    %eax,%ebx
    422b:	89 0c 24             	mov    %ecx,(%esp)
    422e:	e8 8d 2b 02 00       	call   26dc0 <closedir>
    4233:	4b                   	dec    %ebx
    4234:	74 32                	je     4268 <ls_recursive+0x198>
    4236:	8b 45 d4             	mov    -0x2c(%ebp),%eax
    4239:	40                   	inc    %eax
    423a:	89 45 d4             	mov    %eax,-0x2c(%ebp)
    423d:	8b 45 d0             	mov    -0x30(%ebp),%eax
    4240:	39 45 d4             	cmp    %eax,-0x2c(%ebp)
    4243:	0f 85 f2 fe ff ff    	jne    413b <ls_recursive+0x6b>
    4249:	c7 45 d4 00 00 00 00 	movl   $0x0,-0x2c(%ebp)
    4250:	eb 1d                	jmp    426f <ls_recursive+0x19f>
    4252:	8d b6 00 00 00 00    	lea    0x0(%esi),%esi
    4258:	89 74 24 04          	mov    %esi,0x4(%esp)
    425c:	c7 04 24 03 00 00 00 	movl   $0x3,(%esp)
    4263:	e8 d8 2d 00 00       	call   7040 <cli_error>
    4268:	c7 45 d4 01 00 00 00 	movl   $0x1,-0x2c(%ebp)
    426f:	31 ff                	xor    %edi,%edi
    4271:	89 75 cc             	mov    %esi,-0x34(%ebp)
    4274:	31 db                	xor    %ebx,%ebx
    4276:	89 fe                	mov    %edi,%esi
    4278:	8b 7d d0             	mov    -0x30(%ebp),%edi
    427b:	90                   	nop
    427c:	8d 74 26 00          	lea    0x0(%esi,%eiz,1),%esi
    4280:	8b 55 e4             	mov    -0x1c(%ebp),%edx
    4283:	43                   	inc    %ebx
    4284:	8b 14 32             	mov    (%edx,%esi,1),%edx
    4287:	83 c6 24             	add    $0x24,%esi
    428a:	89 14 24             	mov    %edx,(%esp)
    428d:	e8 8e 88 01 00       	call   1cb20 <free>
    4292:	39 fb                	cmp    %edi,%ebx
    4294:	75 ea                	jne    4280 <ls_recursive+0x1b0>
    4296:	8b 75 cc             	mov    -0x34(%ebp),%esi
    4299:	8b 45 e4             	mov    -0x1c(%ebp),%eax
    429c:	89 04 24             	mov    %eax,(%esp)
    429f:	e8 7c 88 01 00       	call   1cb20 <free>
    42a4:	89 34 24             	mov    %esi,(%esp)
    42a7:	e8 74 88 01 00       	call   1cb20 <free>
    42ac:	8b 45 d4             	mov    -0x2c(%ebp),%eax
    42af:	83 c4 3c             	add    $0x3c,%esp
    42b2:	5b                   	pop    %ebx
    42b3:	5e                   	pop    %esi
    42b4:	5f                   	pop    %edi
    42b5:	5d                   	pop    %ebp
    42b6:	c3                   	ret    
    42b7:	90                   	nop
    42b8:	c7 44 24 08 8f bf 02 	movl   $0x2bf8f,0x8(%esp)
    42bf:	00 
    42c0:	c7 44 24 04 ff 00 00 	movl   $0xff,0x4(%esp)
    42c7:	00 
    42c8:	89 34 24             	mov    %esi,(%esp)
    42cb:	e8 60 cd 00 00       	call   11030 <str_append>
    42d0:	e9 d3 fe ff ff       	jmp    41a8 <ls_recursive+0xd8>
    42d5:	8d 76 00             	lea    0x0(%esi),%esi
    42d8:	c7 45 d4 01 00 00 00 	movl   $0x1,-0x2c(%ebp)
    42df:	eb b8                	jmp    4299 <ls_recursive+0x1c9>
    42e1:	8d b4 26 00 00 00 00 	lea    0x0(%esi,%eiz,1),%esi
    42e8:	89 7c 24 08          	mov    %edi,0x8(%esp)
    42ec:	c7 44 24 04 ff 00 00 	movl   $0xff,0x4(%esp)
    42f3:	00 
    42f4:	89 34 24             	mov    %esi,(%esp)
    42f7:	e8 34 cd 00 00       	call   11030 <str_append>
    42fc:	e9 73 fe ff ff       	jmp    4174 <ls_recursive+0xa4>
    4301:	8d b4 26 00 00 00 00 	lea    0x0(%esi,%eiz,1),%esi
    4308:	8b 45 e4             	mov    -0x1c(%ebp),%eax
    430b:	8b 04 18             	mov    (%eax,%ebx,1),%eax
    430e:	c7 44 24 04 ff 00 00 	movl   $0xff,0x4(%esp)
    4315:	00 
    4316:	89 44 24 08          	mov    %eax,0x8(%esp)
    431a:	89 34 24             	mov    %esi,(%esp)
    431d:	e8 0e cd 00 00       	call   11030 <str_append>
    4322:	e9 b7 fe ff ff       	jmp    41de <ls_recursive+0x10e>
    4327:	8b 45 e4             	mov    -0x1c(%ebp),%eax
    432a:	8b 04 18             	mov    (%eax,%ebx,1),%eax
    432d:	c7 44 24 04 91 bf 02 	movl   $0x2bf91,0x4(%esp)
    4334:	00 
    4335:	89 44 24 08          	mov    %eax,0x8(%esp)
    4339:	c7 04 24 01 00 00 00 	movl   $0x1,(%esp)
    4340:	e8 fb 2c 00 00       	call   7040 <cli_error>
    4345:	c7 45 d4 01 00 00 00 	movl   $0x1,-0x2c(%ebp)
    434c:	e9 1e ff ff ff       	jmp    426f <ls_recursive+0x19f>
    4351:	eb 0d                	jmp    4360 <help_cmd_ls>
    4353:	90                   	nop
    4354:	90                   	nop
    4355:	90                   	nop
    4356:	90                   	nop
    4357:	90                   	nop
    4358:	90                   	nop
    4359:	90                   	nop
    435a:	90                   	nop
    435b:	90                   	nop
    435c:	90                   	nop
    435d:	90                   	nop
    435e:	90                   	nop
    435f:	90                   	nop

00004360 <help_cmd_ls>:
    4360:	55                   	push   %ebp
    4361:	89 e5                	mov    %esp,%ebp
    4363:	83 ec 18             	sub    $0x18,%esp
    4366:	8b 45 08             	mov    0x8(%ebp),%eax
    4369:	c7 44 24 04 0d d2 02 	movl   $0x2d20d,0x4(%esp)
    4370:	00 
    4371:	85 c0                	test   %eax,%eax
    4373:	c7 04 24 b4 bf 02 00 	movl   $0x2bfb4,(%esp)
    437a:	74 14                	je     4390 <help_cmd_ls+0x30>
    437c:	e8 df 2f 01 00       	call   17360 <printf>
    4381:	c7 44 24 04 0d d2 02 	movl   $0x2d20d,0x4(%esp)
    4388:	00 
    4389:	c7 04 24 d8 bf 02 00 	movl   $0x2bfd8,(%esp)
    4390:	e8 cb 2f 01 00       	call   17360 <printf>
    4395:	c9                   	leave  
    4396:	c3                   	ret    
    4397:	89 f6                	mov    %esi,%esi
    4399:	8d bc 27 00 00 00 00 	lea    0x0(%edi,%eiz,1),%edi

000043a0 <cmd_ls>:
    43a0:	55                   	push   %ebp
    43a1:	89 e5                	mov    %esp,%ebp
    43a3:	57                   	push   %edi
    43a4:	56                   	push   %esi
    43a5:	53                   	push   %ebx
    43a6:	83 ec 5c             	sub    $0x5c,%esp
    43a9:	c7 05 c8 07 03 00 00 	movl   $0x0,0x307c8
    43b0:	00 00 00 
    43b3:	8b 5d 08             	mov    0x8(%ebp),%ebx
    43b6:	c7 05 cc 07 03 00 01 	movl   $0x1,0x307cc
    43bd:	00 00 00 
    43c0:	89 1c 24             	mov    %ebx,(%esp)
    43c3:	8d 7d c0             	lea    -0x40(%ebp),%edi
    43c6:	e8 75 33 00 00       	call   7740 <cli_count_args>
    43cb:	c7 05 f4 06 03 00 00 	movl   $0x0,0x306f4
    43d2:	00 00 00 
    43d5:	89 c6                	mov    %eax,%esi
    43d7:	c7 45 c0 00 00 00 00 	movl   $0x0,-0x40(%ebp)
    43de:	89 7c 24 10          	mov    %edi,0x10(%esp)
    43e2:	c7 44 24 0c e0 c0 02 	movl   $0x2c0e0,0xc(%esp)
    43e9:	00 
    43ea:	c7 44 24 08 a3 bf 02 	movl   $0x2bfa3,0x8(%esp)
    43f1:	00 
    43f2:	89 5c 24 04          	mov    %ebx,0x4(%esp)
    43f6:	89 34 24             	mov    %esi,(%esp)
    43f9:	e8 c2 e8 01 00       	call   22cc0 <getopt_long>
    43fe:	83 f8 72             	cmp    $0x72,%eax
    4401:	0f 84 f1 00 00 00    	je     44f8 <cmd_ls+0x158>
    4407:	83 f8 75             	cmp    $0x75,%eax
    440a:	0f 84 30 01 00 00    	je     4540 <cmd_ls+0x1a0>
    4410:	83 f8 68             	cmp    $0x68,%eax
    4413:	0f 84 ef 00 00 00    	je     4508 <cmd_ls+0x168>
    4419:	40                   	inc    %eax
    441a:	75 c2                	jne    43de <cmd_ls+0x3e>
    441c:	c7 04 24 ff 00 00 00 	movl   $0xff,(%esp)
    4423:	8b 3d f4 06 03 00    	mov    0x306f4,%edi
    4429:	e8 e2 85 01 00       	call   1ca10 <malloc>
    442e:	89 45 c4             	mov    %eax,-0x3c(%ebp)
    4431:	85 c0                	test   %eax,%eax
    4433:	0f 84 87 01 00 00    	je     45c0 <cmd_ls+0x220>
    4439:	c7 44 24 08 ff 00 00 	movl   $0xff,0x8(%esp)
    4440:	00 
    4441:	c7 44 24 04 00 00 00 	movl   $0x0,0x4(%esp)
    4448:	00 
    4449:	89 04 24             	mov    %eax,(%esp)
    444c:	e8 7f ac 00 00       	call   f0d0 <memset>
    4451:	39 fe                	cmp    %edi,%esi
    4453:	0f 84 27 01 00 00    	je     4580 <cmd_ls+0x1e0>
    4459:	a1 f4 06 03 00       	mov    0x306f4,%eax
    445e:	8b 04 83             	mov    (%ebx,%eax,4),%eax
    4461:	c7 44 24 04 ff 00 00 	movl   $0xff,0x4(%esp)
    4468:	00 
    4469:	89 44 24 08          	mov    %eax,0x8(%esp)
    446d:	8b 45 c4             	mov    -0x3c(%ebp),%eax
    4470:	89 04 24             	mov    %eax,(%esp)
    4473:	e8 98 c7 00 00       	call   10c10 <str_cpy>
    4478:	8b 5d c4             	mov    -0x3c(%ebp),%ebx
    447b:	8d 45 c8             	lea    -0x38(%ebp),%eax
    447e:	89 44 24 04          	mov    %eax,0x4(%esp)
    4482:	89 1c 24             	mov    %ebx,(%esp)
    4485:	e8 56 24 02 00       	call   268e0 <stat>
    448a:	85 c0                	test   %eax,%eax
    448c:	0f 85 06 01 00 00    	jne    4598 <cmd_ls+0x1f8>
    4492:	80 7d d8 00          	cmpb   $0x0,-0x28(%ebp)
    4496:	0f 85 b4 00 00 00    	jne    4550 <cmd_ls+0x1b0>
    449c:	80 7d d9 00          	cmpb   $0x0,-0x27(%ebp)
    44a0:	74 4e                	je     44f0 <cmd_ls+0x150>
    44a2:	8b 45 c4             	mov    -0x3c(%ebp),%eax
    44a5:	89 04 24             	mov    %eax,(%esp)
    44a8:	e8 93 25 02 00       	call   26a40 <opendir>
    44ad:	89 c3                	mov    %eax,%ebx
    44af:	85 c0                	test   %eax,%eax
    44b1:	0f 84 2f 01 00 00    	je     45e6 <cmd_ls+0x246>
    44b7:	a1 c8 07 03 00       	mov    0x307c8,%eax
    44bc:	85 c0                	test   %eax,%eax
    44be:	0f 84 e9 00 00 00    	je     45ad <cmd_ls+0x20d>
    44c4:	89 da                	mov    %ebx,%edx
    44c6:	8b 45 c4             	mov    -0x3c(%ebp),%eax
    44c9:	e8 02 fc ff ff       	call   40d0 <ls_recursive>
    44ce:	89 c6                	mov    %eax,%esi
    44d0:	89 1c 24             	mov    %ebx,(%esp)
    44d3:	e8 e8 28 02 00       	call   26dc0 <closedir>
    44d8:	8b 45 c4             	mov    -0x3c(%ebp),%eax
    44db:	89 04 24             	mov    %eax,(%esp)
    44de:	e8 3d 86 01 00       	call   1cb20 <free>
    44e3:	83 fe 01             	cmp    $0x1,%esi
    44e6:	74 08                	je     44f0 <cmd_ls+0x150>
    44e8:	46                   	inc    %esi
    44e9:	0f 85 8d 00 00 00    	jne    457c <cmd_ls+0x1dc>
    44ef:	90                   	nop
    44f0:	b8 01 00 00 00       	mov    $0x1,%eax
    44f5:	eb 3b                	jmp    4532 <cmd_ls+0x192>
    44f7:	90                   	nop
    44f8:	c7 05 c8 07 03 00 01 	movl   $0x1,0x307c8
    44ff:	00 00 00 
    4502:	e9 d7 fe ff ff       	jmp    43de <cmd_ls+0x3e>
    4507:	90                   	nop
    4508:	c7 44 24 04 0d d2 02 	movl   $0x2d20d,0x4(%esp)
    450f:	00 
    4510:	c7 04 24 b4 bf 02 00 	movl   $0x2bfb4,(%esp)
    4517:	e8 44 2e 01 00       	call   17360 <printf>
    451c:	c7 44 24 04 0d d2 02 	movl   $0x2d20d,0x4(%esp)
    4523:	00 
    4524:	c7 04 24 d8 bf 02 00 	movl   $0x2bfd8,(%esp)
    452b:	e8 30 2e 01 00       	call   17360 <printf>
    4530:	31 c0                	xor    %eax,%eax
    4532:	83 c4 5c             	add    $0x5c,%esp
    4535:	5b                   	pop    %ebx
    4536:	5e                   	pop    %esi
    4537:	5f                   	pop    %edi
    4538:	5d                   	pop    %ebp
    4539:	c3                   	ret    
    453a:	8d b6 00 00 00 00    	lea    0x0(%esi),%esi
    4540:	c7 05 cc 07 03 00 00 	movl   $0x0,0x307cc
    4547:	00 00 00 
    454a:	e9 8f fe ff ff       	jmp    43de <cmd_ls+0x3e>
    454f:	90                   	nop
    4550:	8b 45 dc             	mov    -0x24(%ebp),%eax
    4553:	8b 55 e0             	mov    -0x20(%ebp),%edx
    4556:	89 44 24 08          	mov    %eax,0x8(%esp)
    455a:	8b 45 c4             	mov    -0x3c(%ebp),%eax
    455d:	89 54 24 0c          	mov    %edx,0xc(%esp)
    4561:	89 44 24 04          	mov    %eax,0x4(%esp)
    4565:	c7 04 24 69 bf 02 00 	movl   $0x2bf69,(%esp)
    456c:	e8 ef 2d 01 00       	call   17360 <printf>
    4571:	8b 45 c4             	mov    -0x3c(%ebp),%eax
    4574:	89 04 24             	mov    %eax,(%esp)
    4577:	e8 a4 85 01 00       	call   1cb20 <free>
    457c:	31 c0                	xor    %eax,%eax
    457e:	eb b2                	jmp    4532 <cmd_ls+0x192>
    4580:	8b 45 c4             	mov    -0x3c(%ebp),%eax
    4583:	c7 44 24 04 ff 00 00 	movl   $0xff,0x4(%esp)
    458a:	00 
    458b:	89 04 24             	mov    %eax,(%esp)
    458e:	e8 7d 2e 02 00       	call   27410 <getcwd>
    4593:	e9 e0 fe ff ff       	jmp    4478 <cmd_ls+0xd8>
    4598:	89 5c 24 04          	mov    %ebx,0x4(%esp)
    459c:	c7 04 24 03 00 00 00 	movl   $0x3,(%esp)
    45a3:	e8 98 2a 00 00       	call   7040 <cli_error>
    45a8:	e9 43 ff ff ff       	jmp    44f0 <cmd_ls+0x150>
    45ad:	31 c9                	xor    %ecx,%ecx
    45af:	89 da                	mov    %ebx,%edx
    45b1:	8b 45 c4             	mov    -0x3c(%ebp),%eax
    45b4:	e8 97 f7 ff ff       	call   3d50 <ls_scan_dir>
    45b9:	89 c6                	mov    %eax,%esi
    45bb:	e9 10 ff ff ff       	jmp    44d0 <cmd_ls+0x130>
    45c0:	c7 44 24 08 0d d2 02 	movl   $0x2d20d,0x8(%esp)
    45c7:	00 
    45c8:	c7 44 24 04 a7 bf 02 	movl   $0x2bfa7,0x4(%esp)
    45cf:	00 
    45d0:	c7 04 24 04 00 00 00 	movl   $0x4,(%esp)
    45d7:	e8 64 2a 00 00       	call   7040 <cli_error>
    45dc:	b8 01 00 00 00       	mov    $0x1,%eax
    45e1:	e9 4c ff ff ff       	jmp    4532 <cmd_ls+0x192>
    45e6:	8b 45 c4             	mov    -0x3c(%ebp),%eax
    45e9:	c7 44 24 04 91 bf 02 	movl   $0x2bf91,0x4(%esp)
    45f0:	00 
    45f1:	89 44 24 08          	mov    %eax,0x8(%esp)
    45f5:	c7 04 24 01 00 00 00 	movl   $0x1,(%esp)
    45fc:	e8 3f 2a 00 00       	call   7040 <cli_error>
    4601:	8b 45 c4             	mov    -0x3c(%ebp),%eax
    4604:	89 04 24             	mov    %eax,(%esp)
    4607:	e8 14 85 01 00       	call   1cb20 <free>
    460c:	b8 01 00 00 00       	mov    $0x1,%eax
    4611:	e9 1c ff ff ff       	jmp    4532 <cmd_ls+0x192>
    4616:	66 90                	xchg   %ax,%ax
    4618:	66 90                	xchg   %ax,%ax
    461a:	66 90                	xchg   %ax,%ax
    461c:	66 90                	xchg   %ax,%ax
    461e:	66 90                	xchg   %ax,%ax

00004620 <help_cmd_pwd>:
    4620:	55                   	push   %ebp
    4621:	89 e5                	mov    %esp,%ebp
    4623:	83 ec 18             	sub    $0x18,%esp
    4626:	c7 44 24 04 1f a7 02 	movl   $0x2a71f,0x4(%esp)
    462d:	00 
    462e:	c7 04 24 24 c1 02 00 	movl   $0x2c124,(%esp)
    4635:	e8 26 2d 01 00       	call   17360 <printf>
    463a:	c9                   	leave  
    463b:	c3                   	ret    
    463c:	8d 74 26 00          	lea    0x0(%esi,%eiz,1),%esi

00004640 <cmd_pwd>:
    4640:	55                   	push   %ebp
    4641:	89 e5                	mov    %esp,%ebp
    4643:	53                   	push   %ebx
    4644:	83 ec 14             	sub    $0x14,%esp
    4647:	c7 04 24 ff 00 00 00 	movl   $0xff,(%esp)
    464e:	e8 bd 83 01 00       	call   1ca10 <malloc>
    4653:	89 c3                	mov    %eax,%ebx
    4655:	85 c0                	test   %eax,%eax
    4657:	74 4f                	je     46a8 <cmd_pwd+0x68>
    4659:	c7 44 24 08 04 00 00 	movl   $0x4,0x8(%esp)
    4660:	00 
    4661:	c7 44 24 04 00 00 00 	movl   $0x0,0x4(%esp)
    4668:	00 
    4669:	89 04 24             	mov    %eax,(%esp)
    466c:	e8 5f aa 00 00       	call   f0d0 <memset>
    4671:	89 1c 24             	mov    %ebx,(%esp)
    4674:	c7 44 24 04 ff 00 00 	movl   $0xff,0x4(%esp)
    467b:	00 
    467c:	e8 8f 2d 02 00       	call   27410 <getcwd>
    4681:	89 5c 24 04          	mov    %ebx,0x4(%esp)
    4685:	c7 04 24 f2 a5 02 00 	movl   $0x2a5f2,(%esp)
    468c:	e8 cf 2c 01 00       	call   17360 <printf>
    4691:	89 1c 24             	mov    %ebx,(%esp)
    4694:	e8 87 84 01 00       	call   1cb20 <free>
    4699:	83 c4 14             	add    $0x14,%esp
    469c:	31 c0                	xor    %eax,%eax
    469e:	5b                   	pop    %ebx
    469f:	5d                   	pop    %ebp
    46a0:	c3                   	ret    
    46a1:	8d b4 26 00 00 00 00 	lea    0x0(%esi,%eiz,1),%esi
    46a8:	c7 44 24 08 1f a7 02 	movl   $0x2a71f,0x8(%esp)
    46af:	00 
    46b0:	c7 44 24 04 20 c1 02 	movl   $0x2c120,0x4(%esp)
    46b7:	00 
    46b8:	c7 04 24 04 00 00 00 	movl   $0x4,(%esp)
    46bf:	e8 7c 29 00 00       	call   7040 <cli_error>
    46c4:	83 c4 14             	add    $0x14,%esp
    46c7:	b8 01 00 00 00       	mov    $0x1,%eax
    46cc:	5b                   	pop    %ebx
    46cd:	5d                   	pop    %ebp
    46ce:	c3                   	ret    
    46cf:	90                   	nop

000046d0 <help_cmd_sleep.constprop.0>:
    46d0:	55                   	push   %ebp
    46d1:	89 e5                	mov    %esp,%ebp
    46d3:	83 ec 18             	sub    $0x18,%esp
    46d6:	c7 44 24 04 23 a7 02 	movl   $0x2a723,0x4(%esp)
    46dd:	00 
    46de:	c7 04 24 6c c1 02 00 	movl   $0x2c16c,(%esp)
    46e5:	e8 76 2c 01 00       	call   17360 <printf>
    46ea:	c9                   	leave  
    46eb:	c3                   	ret    
    46ec:	8d 74 26 00          	lea    0x0(%esi,%eiz,1),%esi

000046f0 <help_cmd_sleep>:
    46f0:	55                   	push   %ebp
    46f1:	89 e5                	mov    %esp,%ebp
    46f3:	83 ec 18             	sub    $0x18,%esp
    46f6:	8b 45 08             	mov    0x8(%ebp),%eax
    46f9:	c7 44 24 04 23 a7 02 	movl   $0x2a723,0x4(%esp)
    4700:	00 
    4701:	85 c0                	test   %eax,%eax
    4703:	c7 04 24 6c c1 02 00 	movl   $0x2c16c,(%esp)
    470a:	74 14                	je     4720 <help_cmd_sleep+0x30>
    470c:	e8 4f 2c 01 00       	call   17360 <printf>
    4711:	c7 44 24 04 23 a7 02 	movl   $0x2a723,0x4(%esp)
    4718:	00 
    4719:	c7 04 24 94 c1 02 00 	movl   $0x2c194,(%esp)
    4720:	e8 3b 2c 01 00       	call   17360 <printf>
    4725:	c9                   	leave  
    4726:	c3                   	ret    
    4727:	89 f6                	mov    %esi,%esi
    4729:	8d bc 27 00 00 00 00 	lea    0x0(%edi,%eiz,1),%edi

00004730 <cmd_sleep>:
    4730:	55                   	push   %ebp
    4731:	89 e5                	mov    %esp,%ebp
    4733:	57                   	push   %edi
    4734:	56                   	push   %esi
    4735:	53                   	push   %ebx
    4736:	83 ec 5c             	sub    $0x5c,%esp
    4739:	8b 5d 08             	mov    0x8(%ebp),%ebx
    473c:	89 1c 24             	mov    %ebx,(%esp)
    473f:	e8 fc 2f 00 00       	call   7740 <cli_count_args>
    4744:	83 f8 02             	cmp    $0x2,%eax
    4747:	74 2f                	je     4778 <cmd_sleep+0x48>
    4749:	c7 44 24 08 23 a7 02 	movl   $0x2a723,0x8(%esp)
    4750:	00 
    4751:	c7 44 24 04 23 a7 02 	movl   $0x2a723,0x4(%esp)
    4758:	00 
    4759:	c7 04 24 d8 c1 02 00 	movl   $0x2c1d8,(%esp)
    4760:	e8 fb 2b 01 00       	call   17360 <printf>
    4765:	83 c4 5c             	add    $0x5c,%esp
    4768:	b8 01 00 00 00       	mov    $0x1,%eax
    476d:	5b                   	pop    %ebx
    476e:	5e                   	pop    %esi
    476f:	5f                   	pop    %edi
    4770:	5d                   	pop    %ebp
    4771:	c3                   	ret    
    4772:	8d b6 00 00 00 00    	lea    0x0(%esi),%esi
    4778:	8b 43 04             	mov    0x4(%ebx),%eax
    477b:	80 38 2e             	cmpb   $0x2e,(%eax)
    477e:	74 60                	je     47e0 <cmd_sleep+0xb0>
    4780:	8d 55 d8             	lea    -0x28(%ebp),%edx
    4783:	c7 44 24 0c 00 00 00 	movl   $0x0,0xc(%esp)
    478a:	00 
    478b:	89 54 24 10          	mov    %edx,0x10(%esp)
    478f:	8d 55 d4             	lea    -0x2c(%ebp),%edx
    4792:	c7 44 24 08 0a 00 00 	movl   $0xa,0x8(%esp)
    4799:	00 
    479a:	89 54 24 04          	mov    %edx,0x4(%esp)
    479e:	89 04 24             	mov    %eax,(%esp)
    47a1:	e8 aa dd 00 00       	call   12550 <str_uint64_t>
    47a6:	85 c0                	test   %eax,%eax
    47a8:	75 12                	jne    47bc <cmd_sleep+0x8c>
    47aa:	8b 45 d4             	mov    -0x2c(%ebp),%eax
    47ad:	8a 10                	mov    (%eax),%dl
    47af:	84 d2                	test   %dl,%dl
    47b1:	74 44                	je     47f7 <cmd_sleep+0xc7>
    47b3:	80 fa 2e             	cmp    $0x2e,%dl
    47b6:	0f 84 8c 00 00 00    	je     4848 <cmd_sleep+0x118>
    47bc:	c7 44 24 04 23 a7 02 	movl   $0x2a723,0x4(%esp)
    47c3:	00 
    47c4:	c7 04 24 51 c1 02 00 	movl   $0x2c151,(%esp)
    47cb:	e8 90 2b 01 00       	call   17360 <printf>
    47d0:	83 c4 5c             	add    $0x5c,%esp
    47d3:	b8 01 00 00 00       	mov    $0x1,%eax
    47d8:	5b                   	pop    %ebx
    47d9:	5e                   	pop    %esi
    47da:	5f                   	pop    %edi
    47db:	5d                   	pop    %ebp
    47dc:	c3                   	ret    
    47dd:	8d 76 00             	lea    0x0(%esi),%esi
    47e0:	c7 45 d8 00 00 00 00 	movl   $0x0,-0x28(%ebp)
    47e7:	c7 45 dc 00 00 00 00 	movl   $0x0,-0x24(%ebp)
    47ee:	89 45 d4             	mov    %eax,-0x2c(%ebp)
    47f1:	8a 10                	mov    (%eax),%dl
    47f3:	84 d2                	test   %dl,%dl
    47f5:	75 bc                	jne    47b3 <cmd_sleep+0x83>
    47f7:	c7 45 e0 00 00 00 00 	movl   $0x0,-0x20(%ebp)
    47fe:	c7 45 e4 00 00 00 00 	movl   $0x0,-0x1c(%ebp)
    4805:	31 c9                	xor    %ecx,%ecx
    4807:	8b 5d d8             	mov    -0x28(%ebp),%ebx
    480a:	89 da                	mov    %ebx,%edx
    480c:	c1 e2 05             	shl    $0x5,%edx
    480f:	29 da                	sub    %ebx,%edx
    4811:	89 d6                	mov    %edx,%esi
    4813:	c1 e6 06             	shl    $0x6,%esi
    4816:	29 d6                	sub    %edx,%esi
    4818:	8d 14 f3             	lea    (%ebx,%esi,8),%edx
    481b:	c1 e2 06             	shl    $0x6,%edx
    481e:	01 d1                	add    %edx,%ecx
    4820:	ba 83 de 1b 43       	mov    $0x431bde83,%edx
    4825:	89 c8                	mov    %ecx,%eax
    4827:	f7 e2                	mul    %edx
    4829:	c1 ea 12             	shr    $0x12,%edx
    482c:	31 da                	xor    %ebx,%edx
    482e:	0b 55 dc             	or     -0x24(%ebp),%edx
    4831:	75 89                	jne    47bc <cmd_sleep+0x8c>
    4833:	89 0c 24             	mov    %ecx,(%esp)
    4836:	e8 65 01 02 00       	call   249a0 <usleep>
    483b:	83 c4 5c             	add    $0x5c,%esp
    483e:	31 c0                	xor    %eax,%eax
    4840:	5b                   	pop    %ebx
    4841:	5e                   	pop    %esi
    4842:	5f                   	pop    %edi
    4843:	5d                   	pop    %ebp
    4844:	c3                   	ret    
    4845:	8d 76 00             	lea    0x0(%esi),%esi
    4848:	80 78 01 00          	cmpb   $0x0,0x1(%eax)
    484c:	74 a9                	je     47f7 <cmd_sleep+0xc7>
    484e:	8d 70 01             	lea    0x1(%eax),%esi
    4851:	8d 45 e0             	lea    -0x20(%ebp),%eax
    4854:	89 44 24 10          	mov    %eax,0x10(%esp)
    4858:	8d 45 d4             	lea    -0x2c(%ebp),%eax
    485b:	c7 44 24 0c 01 00 00 	movl   $0x1,0xc(%esp)
    4862:	00 
    4863:	c7 44 24 08 0a 00 00 	movl   $0xa,0x8(%esp)
    486a:	00 
    486b:	89 44 24 04          	mov    %eax,0x4(%esp)
    486f:	89 34 24             	mov    %esi,(%esp)
    4872:	e8 d9 dc 00 00       	call   12550 <str_uint64_t>
    4877:	85 c0                	test   %eax,%eax
    4879:	0f 85 3d ff ff ff    	jne    47bc <cmd_sleep+0x8c>
    487f:	8b 5d d4             	mov    -0x2c(%ebp),%ebx
    4882:	8b 45 e0             	mov    -0x20(%ebp),%eax
    4885:	29 f3                	sub    %esi,%ebx
    4887:	8b 55 e4             	mov    -0x1c(%ebp),%edx
    488a:	83 fb 05             	cmp    $0x5,%ebx
    488d:	7f 3e                	jg     48cd <cmd_sleep+0x19d>
    488f:	89 5d c4             	mov    %ebx,-0x3c(%ebp)
    4892:	8d b6 00 00 00 00    	lea    0x0(%esi),%esi
    4898:	89 c6                	mov    %eax,%esi
    489a:	89 c1                	mov    %eax,%ecx
    489c:	89 d7                	mov    %edx,%edi
    489e:	89 d3                	mov    %edx,%ebx
    48a0:	0f a4 cb 01          	shld   $0x1,%ecx,%ebx
    48a4:	0f a4 f7 03          	shld   $0x3,%esi,%edi
    48a8:	c1 e6 03             	shl    $0x3,%esi
    48ab:	01 c9                	add    %ecx,%ecx
    48ad:	01 f1                	add    %esi,%ecx
    48af:	11 fb                	adc    %edi,%ebx
    48b1:	89 c8                	mov    %ecx,%eax
    48b3:	89 da                	mov    %ebx,%edx
    48b5:	8b 5d c4             	mov    -0x3c(%ebp),%ebx
    48b8:	43                   	inc    %ebx
    48b9:	89 5d c4             	mov    %ebx,-0x3c(%ebp)
    48bc:	83 7d c4 06          	cmpl   $0x6,-0x3c(%ebp)
    48c0:	75 d6                	jne    4898 <cmd_sleep+0x168>
    48c2:	bb 06 00 00 00       	mov    $0x6,%ebx
    48c7:	89 4d e0             	mov    %ecx,-0x20(%ebp)
    48ca:	89 55 e4             	mov    %edx,-0x1c(%ebp)
    48cd:	89 c1                	mov    %eax,%ecx
    48cf:	83 fb 06             	cmp    $0x6,%ebx
    48d2:	0f 84 2f ff ff ff    	je     4807 <cmd_sleep+0xd7>
    48d8:	c7 44 24 08 0a 00 00 	movl   $0xa,0x8(%esp)
    48df:	00 
    48e0:	c7 44 24 0c 00 00 00 	movl   $0x0,0xc(%esp)
    48e7:	00 
    48e8:	89 04 24             	mov    %eax,(%esp)
    48eb:	89 54 24 04          	mov    %edx,0x4(%esp)
    48ef:	e8 0c 56 02 00       	call   29f00 <__udivdi3>
    48f4:	4b                   	dec    %ebx
    48f5:	89 c1                	mov    %eax,%ecx
    48f7:	83 fb 06             	cmp    $0x6,%ebx
    48fa:	75 dc                	jne    48d8 <cmd_sleep+0x1a8>
    48fc:	89 4d e0             	mov    %ecx,-0x20(%ebp)
    48ff:	89 55 e4             	mov    %edx,-0x1c(%ebp)
    4902:	e9 00 ff ff ff       	jmp    4807 <cmd_sleep+0xd7>
    4907:	66 90                	xchg   %ax,%ax
    4909:	66 90                	xchg   %ax,%ax
    490b:	66 90                	xchg   %ax,%ax
    490d:	66 90                	xchg   %ax,%ax
    490f:	90                   	nop

00004910 <help_cmd_cp.constprop.0>:
    4910:	55                   	push   %ebp
    4911:	89 e5                	mov    %esp,%ebp
    4913:	83 ec 18             	sub    $0x18,%esp
    4916:	c7 44 24 04 29 a7 02 	movl   $0x2a729,0x4(%esp)
    491d:	00 
    491e:	c7 04 24 e0 c2 02 00 	movl   $0x2c2e0,(%esp)
    4925:	e8 36 2a 01 00       	call   17360 <printf>
    492a:	c9                   	leave  
    492b:	c3                   	ret    
    492c:	8d 74 26 00          	lea    0x0(%esi,%eiz,1),%esi

00004930 <get_user_decision.constprop.1>:
    4930:	55                   	push   %ebp
    4931:	89 e5                	mov    %esp,%ebp
    4933:	53                   	push   %ebx
    4934:	83 ec 34             	sub    $0x34,%esp
    4937:	8d 45 10             	lea    0x10(%ebp),%eax
    493a:	8d 5d e0             	lea    -0x20(%ebp),%ebx
    493d:	89 44 24 04          	mov    %eax,0x4(%esp)
    4941:	c7 04 24 04 c3 02 00 	movl   $0x2c304,(%esp)
    4948:	e8 d3 2d 01 00       	call   17720 <vprintf>
    494d:	8d 76 00             	lea    0x0(%esi),%esi
    4950:	a1 d0 07 03 00       	mov    0x307d0,%eax
    4955:	89 04 24             	mov    %eax,(%esp)
    4958:	e8 f3 56 01 00       	call   1a050 <console_flush>
    495d:	a1 d0 07 03 00       	mov    0x307d0,%eax
    4962:	89 5c 24 04          	mov    %ebx,0x4(%esp)
    4966:	89 04 24             	mov    %eax,(%esp)
    4969:	e8 f2 5b 01 00       	call   1a560 <console_get_kbd_event>
    496e:	8b 45 e8             	mov    -0x18(%ebp),%eax
    4971:	85 c0                	test   %eax,%eax
    4973:	75 db                	jne    4950 <get_user_decision.constprop.1+0x20>
    4975:	f6 45 f0 3c          	testb  $0x3c,-0x10(%ebp)
    4979:	75 d5                	jne    4950 <get_user_decision.constprop.1+0x20>
    497b:	8b 45 ec             	mov    -0x14(%ebp),%eax
    497e:	83 f8 29             	cmp    $0x29,%eax
    4981:	74 3d                	je     49c0 <get_user_decision.constprop.1+0x90>
    4983:	83 f8 30             	cmp    $0x30,%eax
    4986:	74 20                	je     49a8 <get_user_decision.constprop.1+0x78>
    4988:	83 f8 15             	cmp    $0x15,%eax
    498b:	75 c3                	jne    4950 <get_user_decision.constprop.1+0x20>
    498d:	c7 04 24 93 c2 02 00 	movl   $0x2c293,(%esp)
    4994:	e8 c7 29 01 00       	call   17360 <printf>
    4999:	83 c4 34             	add    $0x34,%esp
    499c:	b0 01                	mov    $0x1,%al
    499e:	5b                   	pop    %ebx
    499f:	5d                   	pop    %ebp
    49a0:	c3                   	ret    
    49a1:	8d b4 26 00 00 00 00 	lea    0x0(%esi,%eiz,1),%esi
    49a8:	c7 04 24 0b c2 02 00 	movl   $0x2c20b,(%esp)
    49af:	e8 ac 29 01 00       	call   17360 <printf>
    49b4:	83 c4 34             	add    $0x34,%esp
    49b7:	31 c0                	xor    %eax,%eax
    49b9:	5b                   	pop    %ebx
    49ba:	5d                   	pop    %ebp
    49bb:	c3                   	ret    
    49bc:	8d 74 26 00          	lea    0x0(%esi,%eiz,1),%esi
    49c0:	c7 44 24 04 4e 00 00 	movl   $0x4e,0x4(%esp)
    49c7:	00 
    49c8:	c7 04 24 0e c2 02 00 	movl   $0x2c20e,(%esp)
    49cf:	e8 8c 29 01 00       	call   17360 <printf>
    49d4:	83 c4 34             	add    $0x34,%esp
    49d7:	31 c0                	xor    %eax,%eax
    49d9:	5b                   	pop    %ebx
    49da:	5d                   	pop    %ebp
    49db:	c3                   	ret    
    49dc:	8d 74 26 00          	lea    0x0(%esi,%eiz,1),%esi

000049e0 <do_copy>:
    49e0:	55                   	push   %ebp
    49e1:	89 e5                	mov    %esp,%ebp
    49e3:	57                   	push   %edi
    49e4:	56                   	push   %esi
    49e5:	53                   	push   %ebx
    49e6:	81 ec 7c 04 00 00    	sub    $0x47c,%esp
    49ec:	8d 9d e8 fe ff ff    	lea    -0x118(%ebp),%ebx
    49f2:	89 85 a0 fb ff ff    	mov    %eax,-0x460(%ebp)
    49f8:	89 d6                	mov    %edx,%esi
    49fa:	89 5c 24 04          	mov    %ebx,0x4(%esp)
    49fe:	89 04 24             	mov    %eax,(%esp)
    4a01:	89 8d 98 fb ff ff    	mov    %ecx,-0x468(%ebp)
    4a07:	e8 d4 1e 02 00       	call   268e0 <stat>
    4a0c:	31 ff                	xor    %edi,%edi
    4a0e:	85 c0                	test   %eax,%eax
    4a10:	75 11                	jne    4a23 <do_copy+0x43>
    4a12:	66 bf 02 00          	mov    $0x2,%di
    4a16:	80 bd f9 fe ff ff 00 	cmpb   $0x0,-0x107(%ebp)
    4a1d:	0f 84 c5 02 00 00    	je     4ce8 <do_copy+0x308>
    4a23:	89 5c 24 04          	mov    %ebx,0x4(%esp)
    4a27:	89 34 24             	mov    %esi,(%esp)
    4a2a:	e8 b1 1e 02 00       	call   268e0 <stat>
    4a2f:	c7 85 a4 fb ff ff 00 	movl   $0x0,-0x45c(%ebp)
    4a36:	00 00 00 
    4a39:	85 c0                	test   %eax,%eax
    4a3b:	75 17                	jne    4a54 <do_copy+0x74>
    4a3d:	c7 85 a4 fb ff ff 02 	movl   $0x2,-0x45c(%ebp)
    4a44:	00 00 00 
    4a47:	80 bd f9 fe ff ff 00 	cmpb   $0x0,-0x107(%ebp)
    4a4e:	0f 84 7c 02 00 00    	je     4cd0 <do_copy+0x2f0>
    4a54:	8b 85 a0 fb ff ff    	mov    -0x460(%ebp),%eax
    4a5a:	89 04 24             	mov    %eax,(%esp)
    4a5d:	e8 fe b5 00 00       	call   10060 <str_size>
    4a62:	83 ff 01             	cmp    $0x1,%edi
    4a65:	0f 84 e5 02 00 00    	je     4d50 <do_copy+0x370>
    4a6b:	83 ff 02             	cmp    $0x2,%edi
    4a6e:	74 30                	je     4aa0 <do_copy+0xc0>
    4a70:	8b 85 a0 fb ff ff    	mov    -0x460(%ebp),%eax
    4a76:	c7 04 24 58 c3 02 00 	movl   $0x2c358,(%esp)
    4a7d:	89 44 24 04          	mov    %eax,0x4(%esp)
    4a81:	83 cb ff             	or     $0xffffffff,%ebx
    4a84:	e8 d7 28 01 00       	call   17360 <printf>
    4a89:	83 c9 ff             	or     $0xffffffff,%ecx
    4a8c:	81 c4 7c 04 00 00    	add    $0x47c,%esp
    4a92:	89 da                	mov    %ebx,%edx
    4a94:	89 c8                	mov    %ecx,%eax
    4a96:	5b                   	pop    %ebx
    4a97:	5e                   	pop    %esi
    4a98:	5f                   	pop    %edi
    4a99:	5d                   	pop    %ebp
    4a9a:	c3                   	ret    
    4a9b:	90                   	nop
    4a9c:	8d 74 26 00          	lea    0x0(%esi,%eiz,1),%esi
    4aa0:	8b 4d 0c             	mov    0xc(%ebp),%ecx
    4aa3:	85 c9                	test   %ecx,%ecx
    4aa5:	0f 84 cd 04 00 00    	je     4f78 <do_copy+0x598>
    4aab:	83 bd a4 fb ff ff 01 	cmpl   $0x1,-0x45c(%ebp)
    4ab2:	0f 84 a8 05 00 00    	je     5060 <do_copy+0x680>
    4ab8:	40                   	inc    %eax
    4ab9:	8b 95 a0 fb ff ff    	mov    -0x460(%ebp),%edx
    4abf:	8d bd ea fc ff ff    	lea    -0x316(%ebp),%edi
    4ac5:	89 54 24 08          	mov    %edx,0x8(%esp)
    4ac9:	89 44 24 04          	mov    %eax,0x4(%esp)
    4acd:	89 3c 24             	mov    %edi,(%esp)
    4ad0:	e8 3b c1 00 00       	call   10c10 <str_cpy>
    4ad5:	c7 44 24 04 2f 00 00 	movl   $0x2f,0x4(%esp)
    4adc:	00 
    4add:	89 3c 24             	mov    %edi,(%esp)
    4ae0:	e8 1b d0 00 00       	call   11b00 <str_rtrim>
    4ae5:	c7 44 24 04 2f 00 00 	movl   $0x2f,0x4(%esp)
    4aec:	00 
    4aed:	89 3c 24             	mov    %edi,(%esp)
    4af0:	e8 6b d2 00 00       	call   11d60 <str_rchr>
    4af5:	85 c0                	test   %eax,%eax
    4af7:	0f 84 7a 05 00 00    	je     5077 <do_copy+0x697>
    4afd:	40                   	inc    %eax
    4afe:	89 85 9c fb ff ff    	mov    %eax,-0x464(%ebp)
    4b04:	8d bd eb fb ff ff    	lea    -0x415(%ebp),%edi
    4b0a:	89 74 24 08          	mov    %esi,0x8(%esp)
    4b0e:	c7 44 24 04 ff 00 00 	movl   $0xff,0x4(%esp)
    4b15:	00 
    4b16:	89 3c 24             	mov    %edi,(%esp)
    4b19:	e8 f2 c0 00 00       	call   10c10 <str_cpy>
    4b1e:	83 bd a4 fb ff ff 02 	cmpl   $0x2,-0x45c(%ebp)
    4b25:	0f 84 7d 04 00 00    	je     4fa8 <do_copy+0x5c8>
    4b2b:	c7 44 24 04 00 00 00 	movl   $0x0,0x4(%esp)
    4b32:	00 
    4b33:	89 3c 24             	mov    %edi,(%esp)
    4b36:	e8 65 23 02 00       	call   26ea0 <mkdir>
    4b3b:	85 c0                	test   %eax,%eax
    4b3d:	0f 85 fd 04 00 00    	jne    5040 <do_copy+0x660>
    4b43:	8b 85 a0 fb ff ff    	mov    -0x460(%ebp),%eax
    4b49:	8d b5 e9 fd ff ff    	lea    -0x217(%ebp),%esi
    4b4f:	89 04 24             	mov    %eax,(%esp)
    4b52:	e8 e9 1e 02 00       	call   26a40 <opendir>
    4b57:	c7 85 a4 fb ff ff ff 	movl   $0xffffffff,-0x45c(%ebp)
    4b5e:	ff ff ff 
    4b61:	89 85 94 fb ff ff    	mov    %eax,-0x46c(%ebp)
    4b67:	85 c0                	test   %eax,%eax
    4b69:	0f 84 5d 06 00 00    	je     51cc <do_copy+0x7ec>
    4b6f:	89 bd 9c fb ff ff    	mov    %edi,-0x464(%ebp)
    4b75:	eb 39                	jmp    4bb0 <do_copy+0x1d0>
    4b77:	90                   	nop
    4b78:	8b 45 14             	mov    0x14(%ebp),%eax
    4b7b:	8b 55 10             	mov    0x10(%ebp),%edx
    4b7e:	89 44 24 0c          	mov    %eax,0xc(%esp)
    4b82:	89 54 24 08          	mov    %edx,0x8(%esp)
    4b86:	8b 45 0c             	mov    0xc(%ebp),%eax
    4b89:	8b 55 08             	mov    0x8(%ebp),%edx
    4b8c:	89 44 24 04          	mov    %eax,0x4(%esp)
    4b90:	89 14 24             	mov    %edx,(%esp)
    4b93:	8b 8d 98 fb ff ff    	mov    -0x468(%ebp),%ecx
    4b99:	89 da                	mov    %ebx,%edx
    4b9b:	89 f0                	mov    %esi,%eax
    4b9d:	e8 3e fe ff ff       	call   49e0 <do_copy>
    4ba2:	89 85 a4 fb ff ff    	mov    %eax,-0x45c(%ebp)
    4ba8:	85 c0                	test   %eax,%eax
    4baa:	0f 85 70 01 00 00    	jne    4d20 <do_copy+0x340>
    4bb0:	8b 85 94 fb ff ff    	mov    -0x46c(%ebp),%eax
    4bb6:	89 04 24             	mov    %eax,(%esp)
    4bb9:	e8 f2 1f 02 00       	call   26bb0 <readdir>
    4bbe:	89 c7                	mov    %eax,%edi
    4bc0:	85 c0                	test   %eax,%eax
    4bc2:	0f 84 58 01 00 00    	je     4d20 <do_copy+0x340>
    4bc8:	8b 85 a0 fb ff ff    	mov    -0x460(%ebp),%eax
    4bce:	c7 44 24 04 ff 00 00 	movl   $0xff,0x4(%esp)
    4bd5:	00 
    4bd6:	89 44 24 08          	mov    %eax,0x8(%esp)
    4bda:	89 34 24             	mov    %esi,(%esp)
    4bdd:	e8 2e c0 00 00       	call   10c10 <str_cpy>
    4be2:	c7 44 24 04 2f 00 00 	movl   $0x2f,0x4(%esp)
    4be9:	00 
    4bea:	89 34 24             	mov    %esi,(%esp)
    4bed:	e8 0e cf 00 00       	call   11b00 <str_rtrim>
    4bf2:	c7 44 24 08 8f bf 02 	movl   $0x2bf8f,0x8(%esp)
    4bf9:	00 
    4bfa:	c7 44 24 04 ff 00 00 	movl   $0xff,0x4(%esp)
    4c01:	00 
    4c02:	89 34 24             	mov    %esi,(%esp)
    4c05:	e8 26 c4 00 00       	call   11030 <str_append>
    4c0a:	89 7c 24 08          	mov    %edi,0x8(%esp)
    4c0e:	c7 44 24 04 ff 00 00 	movl   $0xff,0x4(%esp)
    4c15:	00 
    4c16:	89 34 24             	mov    %esi,(%esp)
    4c19:	e8 12 c4 00 00       	call   11030 <str_append>
    4c1e:	8b 95 9c fb ff ff    	mov    -0x464(%ebp),%edx
    4c24:	89 54 24 08          	mov    %edx,0x8(%esp)
    4c28:	c7 44 24 04 ff 00 00 	movl   $0xff,0x4(%esp)
    4c2f:	00 
    4c30:	89 1c 24             	mov    %ebx,(%esp)
    4c33:	e8 d8 bf 00 00       	call   10c10 <str_cpy>
    4c38:	c7 44 24 04 2f 00 00 	movl   $0x2f,0x4(%esp)
    4c3f:	00 
    4c40:	89 1c 24             	mov    %ebx,(%esp)
    4c43:	e8 b8 ce 00 00       	call   11b00 <str_rtrim>
    4c48:	c7 44 24 08 8f bf 02 	movl   $0x2bf8f,0x8(%esp)
    4c4f:	00 
    4c50:	c7 44 24 04 ff 00 00 	movl   $0xff,0x4(%esp)
    4c57:	00 
    4c58:	89 1c 24             	mov    %ebx,(%esp)
    4c5b:	e8 d0 c3 00 00       	call   11030 <str_append>
    4c60:	89 7c 24 08          	mov    %edi,0x8(%esp)
    4c64:	c7 44 24 04 ff 00 00 	movl   $0xff,0x4(%esp)
    4c6b:	00 
    4c6c:	89 1c 24             	mov    %ebx,(%esp)
    4c6f:	e8 bc c3 00 00       	call   11030 <str_append>
    4c74:	8d 85 a8 fb ff ff    	lea    -0x458(%ebp),%eax
    4c7a:	89 44 24 04          	mov    %eax,0x4(%esp)
    4c7e:	89 34 24             	mov    %esi,(%esp)
    4c81:	e8 5a 1c 02 00       	call   268e0 <stat>
    4c86:	8d 85 c8 fb ff ff    	lea    -0x438(%ebp),%eax
    4c8c:	8b 95 9c fb ff ff    	mov    -0x464(%ebp),%edx
    4c92:	89 44 24 04          	mov    %eax,0x4(%esp)
    4c96:	89 14 24             	mov    %edx,(%esp)
    4c99:	e8 42 1c 02 00       	call   268e0 <stat>
    4c9e:	8b 85 b0 fb ff ff    	mov    -0x450(%ebp),%eax
    4ca4:	39 85 d0 fb ff ff    	cmp    %eax,-0x430(%ebp)
    4caa:	74 54                	je     4d00 <do_copy+0x320>
    4cac:	8b 55 08             	mov    0x8(%ebp),%edx
    4caf:	85 d2                	test   %edx,%edx
    4cb1:	0f 84 c1 fe ff ff    	je     4b78 <do_copy+0x198>
    4cb7:	89 5c 24 08          	mov    %ebx,0x8(%esp)
    4cbb:	89 74 24 04          	mov    %esi,0x4(%esp)
    4cbf:	c7 04 24 b2 c2 02 00 	movl   $0x2c2b2,(%esp)
    4cc6:	e8 95 26 01 00       	call   17360 <printf>
    4ccb:	e9 a8 fe ff ff       	jmp    4b78 <do_copy+0x198>
    4cd0:	31 d2                	xor    %edx,%edx
    4cd2:	8a 95 f8 fe ff ff    	mov    -0x108(%ebp),%dl
    4cd8:	89 95 a4 fb ff ff    	mov    %edx,-0x45c(%ebp)
    4cde:	e9 71 fd ff ff       	jmp    4a54 <do_copy+0x74>
    4ce3:	90                   	nop
    4ce4:	8d 74 26 00          	lea    0x0(%esi,%eiz,1),%esi
    4ce8:	8a 85 f8 fe ff ff    	mov    -0x108(%ebp),%al
    4cee:	25 ff 00 00 00       	and    $0xff,%eax
    4cf3:	89 c7                	mov    %eax,%edi
    4cf5:	e9 29 fd ff ff       	jmp    4a23 <do_copy+0x43>
    4cfa:	8d b6 00 00 00 00    	lea    0x0(%esi),%esi
    4d00:	8b 95 a8 fb ff ff    	mov    -0x458(%ebp),%edx
    4d06:	66 39 95 c8 fb ff ff 	cmp    %dx,-0x438(%ebp)
    4d0d:	75 9d                	jne    4cac <do_copy+0x2cc>
    4d0f:	c7 04 24 44 c4 02 00 	movl   $0x2c444,(%esp)
    4d16:	e8 45 26 01 00       	call   17360 <printf>
    4d1b:	90                   	nop
    4d1c:	8d 74 26 00          	lea    0x0(%esi,%eiz,1),%esi
    4d20:	8b 85 94 fb ff ff    	mov    -0x46c(%ebp),%eax
    4d26:	89 04 24             	mov    %eax,(%esp)
    4d29:	e8 92 20 02 00       	call   26dc0 <closedir>
    4d2e:	8b 85 a4 fb ff ff    	mov    -0x45c(%ebp),%eax
    4d34:	89 c2                	mov    %eax,%edx
    4d36:	81 c4 7c 04 00 00    	add    $0x47c,%esp
    4d3c:	c1 fa 1f             	sar    $0x1f,%edx
    4d3f:	89 c1                	mov    %eax,%ecx
    4d41:	89 d3                	mov    %edx,%ebx
    4d43:	89 c8                	mov    %ecx,%eax
    4d45:	89 da                	mov    %ebx,%edx
    4d47:	5b                   	pop    %ebx
    4d48:	5e                   	pop    %esi
    4d49:	5f                   	pop    %edi
    4d4a:	5d                   	pop    %ebp
    4d4b:	c3                   	ret    
    4d4c:	8d 74 26 00          	lea    0x0(%esi,%eiz,1),%esi
    4d50:	40                   	inc    %eax
    4d51:	8b 95 a0 fb ff ff    	mov    -0x460(%ebp),%edx
    4d57:	8d bd ea fc ff ff    	lea    -0x316(%ebp),%edi
    4d5d:	89 54 24 08          	mov    %edx,0x8(%esp)
    4d61:	89 44 24 04          	mov    %eax,0x4(%esp)
    4d65:	89 3c 24             	mov    %edi,(%esp)
    4d68:	e8 a3 be 00 00       	call   10c10 <str_cpy>
    4d6d:	c7 44 24 04 2f 00 00 	movl   $0x2f,0x4(%esp)
    4d74:	00 
    4d75:	89 3c 24             	mov    %edi,(%esp)
    4d78:	e8 83 cd 00 00       	call   11b00 <str_rtrim>
    4d7d:	c7 44 24 04 2f 00 00 	movl   $0x2f,0x4(%esp)
    4d84:	00 
    4d85:	89 3c 24             	mov    %edi,(%esp)
    4d88:	e8 d3 cf 00 00       	call   11d60 <str_rchr>
    4d8d:	85 c0                	test   %eax,%eax
    4d8f:	0f 84 2c 04 00 00    	je     51c1 <do_copy+0x7e1>
    4d95:	40                   	inc    %eax
    4d96:	89 85 9c fb ff ff    	mov    %eax,-0x464(%ebp)
    4d9c:	8d bd eb fb ff ff    	lea    -0x415(%ebp),%edi
    4da2:	89 74 24 08          	mov    %esi,0x8(%esp)
    4da6:	c7 44 24 04 ff 00 00 	movl   $0xff,0x4(%esp)
    4dad:	00 
    4dae:	89 3c 24             	mov    %edi,(%esp)
    4db1:	e8 5a be 00 00       	call   10c10 <str_cpy>
    4db6:	83 bd a4 fb ff ff 02 	cmpl   $0x2,-0x45c(%ebp)
    4dbd:	0f 84 80 03 00 00    	je     5143 <do_copy+0x763>
    4dc3:	8b 85 a4 fb ff ff    	mov    -0x45c(%ebp),%eax
    4dc9:	85 c0                	test   %eax,%eax
    4dcb:	0f 84 e7 02 00 00    	je     50b8 <do_copy+0x6d8>
    4dd1:	8b 45 14             	mov    0x14(%ebp),%eax
    4dd4:	85 c0                	test   %eax,%eax
    4dd6:	0f 84 a6 02 00 00    	je     5082 <do_copy+0x6a2>
    4ddc:	8b 45 14             	mov    0x14(%ebp),%eax
    4ddf:	85 c0                	test   %eax,%eax
    4de1:	0f 84 41 03 00 00    	je     5128 <do_copy+0x748>
    4de7:	8b 45 10             	mov    0x10(%ebp),%eax
    4dea:	85 c0                	test   %eax,%eax
    4dec:	0f 85 36 03 00 00    	jne    5128 <do_copy+0x748>
    4df2:	89 7c 24 08          	mov    %edi,0x8(%esp)
    4df6:	c7 44 24 04 04 c3 02 	movl   $0x2c304,0x4(%esp)
    4dfd:	00 
    4dfe:	c7 04 24 00 00 00 00 	movl   $0x0,(%esp)
    4e05:	e8 26 fb ff ff       	call   4930 <get_user_decision.constprop.1>
    4e0a:	89 7c 24 04          	mov    %edi,0x4(%esp)
    4e0e:	84 c0                	test   %al,%al
    4e10:	0f 84 d7 03 00 00    	je     51ed <do_copy+0x80d>
    4e16:	c7 04 24 27 c2 02 00 	movl   $0x2c227,(%esp)
    4e1d:	e8 3e 25 01 00       	call   17360 <printf>
    4e22:	89 3c 24             	mov    %edi,(%esp)
    4e25:	e8 b6 21 02 00       	call   26fe0 <unlink>
    4e2a:	85 c0                	test   %eax,%eax
    4e2c:	0f 85 6b 02 00 00    	jne    509d <do_copy+0x6bd>
    4e32:	8d b6 00 00 00 00    	lea    0x0(%esi),%esi
    4e38:	8b 75 08             	mov    0x8(%ebp),%esi
    4e3b:	85 f6                	test   %esi,%esi
    4e3d:	0f 85 a6 02 00 00    	jne    50e9 <do_copy+0x709>
    4e43:	8b 85 a0 fb ff ff    	mov    -0x460(%ebp),%eax
    4e49:	c7 44 24 04 10 00 00 	movl   $0x10,0x4(%esp)
    4e50:	00 
    4e51:	89 04 24             	mov    %eax,(%esp)
    4e54:	e8 c7 0f 02 00       	call   25e20 <open>
    4e59:	89 85 a4 fb ff ff    	mov    %eax,-0x45c(%ebp)
    4e5f:	40                   	inc    %eax
    4e60:	0f 84 4c 04 00 00    	je     52b2 <do_copy+0x8d2>
    4e66:	c7 44 24 04 01 00 00 	movl   $0x1,0x4(%esp)
    4e6d:	00 
    4e6e:	89 3c 24             	mov    %edi,(%esp)
    4e71:	e8 aa 0f 02 00       	call   25e20 <open>
    4e76:	89 85 9c fb ff ff    	mov    %eax,-0x464(%ebp)
    4e7c:	40                   	inc    %eax
    4e7d:	0f 84 05 04 00 00    	je     5288 <do_copy+0x8a8>
    4e83:	8b 85 a4 fb ff ff    	mov    -0x45c(%ebp),%eax
    4e89:	c7 44 24 0c 02 00 00 	movl   $0x2,0xc(%esp)
    4e90:	00 
    4e91:	c7 44 24 04 00 00 00 	movl   $0x0,0x4(%esp)
    4e98:	00 
    4e99:	c7 44 24 08 00 00 00 	movl   $0x0,0x8(%esp)
    4ea0:	00 
    4ea1:	89 04 24             	mov    %eax,(%esp)
    4ea4:	e8 67 17 02 00       	call   26610 <lseek>
    4ea9:	8b 5d 08             	mov    0x8(%ebp),%ebx
    4eac:	85 db                	test   %ebx,%ebx
    4eae:	0f 85 54 02 00 00    	jne    5108 <do_copy+0x728>
    4eb4:	8b 85 a4 fb ff ff    	mov    -0x45c(%ebp),%eax
    4eba:	c7 44 24 0c 00 00 00 	movl   $0x0,0xc(%esp)
    4ec1:	00 
    4ec2:	c7 44 24 04 00 00 00 	movl   $0x0,0x4(%esp)
    4ec9:	00 
    4eca:	c7 44 24 08 00 00 00 	movl   $0x0,0x8(%esp)
    4ed1:	00 
    4ed2:	89 04 24             	mov    %eax,(%esp)
    4ed5:	31 f6                	xor    %esi,%esi
    4ed7:	e8 34 17 02 00       	call   26610 <lseek>
    4edc:	8b 95 98 fb ff ff    	mov    -0x468(%ebp),%edx
    4ee2:	89 14 24             	mov    %edx,(%esp)
    4ee5:	31 ff                	xor    %edi,%edi
    4ee7:	e8 24 7b 01 00       	call   1ca10 <malloc>
    4eec:	89 c3                	mov    %eax,%ebx
    4eee:	85 c0                	test   %eax,%eax
    4ef0:	75 2d                	jne    4f1f <do_copy+0x53f>
    4ef2:	e9 41 03 00 00       	jmp    5238 <do_copy+0x858>
    4ef7:	90                   	nop
    4ef8:	89 44 24 08          	mov    %eax,0x8(%esp)
    4efc:	8b 85 9c fb ff ff    	mov    -0x464(%ebp),%eax
    4f02:	89 5c 24 04          	mov    %ebx,0x4(%esp)
    4f06:	89 04 24             	mov    %eax,(%esp)
    4f09:	e8 b2 14 02 00       	call   263c0 <write_all>
    4f0e:	89 c2                	mov    %eax,%edx
    4f10:	85 c0                	test   %eax,%eax
    4f12:	0f 88 f0 02 00 00    	js     5208 <do_copy+0x828>
    4f18:	c1 fa 1f             	sar    $0x1f,%edx
    4f1b:	01 c6                	add    %eax,%esi
    4f1d:	11 d7                	adc    %edx,%edi
    4f1f:	8b 95 98 fb ff ff    	mov    -0x468(%ebp),%edx
    4f25:	8b 85 a4 fb ff ff    	mov    -0x45c(%ebp),%eax
    4f2b:	89 54 24 08          	mov    %edx,0x8(%esp)
    4f2f:	89 5c 24 04          	mov    %ebx,0x4(%esp)
    4f33:	89 04 24             	mov    %eax,(%esp)
    4f36:	e8 35 13 02 00       	call   26270 <read_all>
    4f3b:	83 f8 00             	cmp    $0x0,%eax
    4f3e:	7f b8                	jg     4ef8 <do_copy+0x518>
    4f40:	89 c2                	mov    %eax,%edx
    4f42:	0f 85 c0 02 00 00    	jne    5208 <do_copy+0x828>
    4f48:	8b 85 a4 fb ff ff    	mov    -0x45c(%ebp),%eax
    4f4e:	89 04 24             	mov    %eax,(%esp)
    4f51:	e8 0a 10 02 00       	call   25f60 <close>
    4f56:	8b 85 9c fb ff ff    	mov    -0x464(%ebp),%eax
    4f5c:	89 04 24             	mov    %eax,(%esp)
    4f5f:	e8 fc 0f 02 00       	call   25f60 <close>
    4f64:	89 1c 24             	mov    %ebx,(%esp)
    4f67:	e8 b4 7b 01 00       	call   1cb20 <free>
    4f6c:	89 f9                	mov    %edi,%ecx
    4f6e:	c1 e9 1f             	shr    $0x1f,%ecx
    4f71:	31 db                	xor    %ebx,%ebx
    4f73:	e9 14 fb ff ff       	jmp    4a8c <do_copy+0xac>
    4f78:	8b 85 a0 fb ff ff    	mov    -0x460(%ebp),%eax
    4f7e:	c7 04 24 9c c3 02 00 	movl   $0x2c39c,(%esp)
    4f85:	89 44 24 04          	mov    %eax,0x4(%esp)
    4f89:	83 cb ff             	or     $0xffffffff,%ebx
    4f8c:	e8 cf 23 01 00       	call   17360 <printf>
    4f91:	81 c4 7c 04 00 00    	add    $0x47c,%esp
    4f97:	83 c9 ff             	or     $0xffffffff,%ecx
    4f9a:	89 da                	mov    %ebx,%edx
    4f9c:	89 c8                	mov    %ecx,%eax
    4f9e:	5b                   	pop    %ebx
    4f9f:	5e                   	pop    %esi
    4fa0:	5f                   	pop    %edi
    4fa1:	5d                   	pop    %ebp
    4fa2:	c3                   	ret    
    4fa3:	90                   	nop
    4fa4:	8d 74 26 00          	lea    0x0(%esi,%eiz,1),%esi
    4fa8:	8b 95 9c fb ff ff    	mov    -0x464(%ebp),%edx
    4fae:	c7 44 24 04 af c2 02 	movl   $0x2c2af,0x4(%esp)
    4fb5:	00 
    4fb6:	89 14 24             	mov    %edx,(%esp)
    4fb9:	e8 d2 b5 00 00       	call   10590 <str_cmp>
    4fbe:	85 c0                	test   %eax,%eax
    4fc0:	0f 84 7d fb ff ff    	je     4b43 <do_copy+0x163>
    4fc6:	8b 95 9c fb ff ff    	mov    -0x464(%ebp),%edx
    4fcc:	c7 44 24 04 b0 c2 02 	movl   $0x2c2b0,0x4(%esp)
    4fd3:	00 
    4fd4:	89 14 24             	mov    %edx,(%esp)
    4fd7:	e8 b4 b5 00 00       	call   10590 <str_cmp>
    4fdc:	85 c0                	test   %eax,%eax
    4fde:	0f 84 5f fb ff ff    	je     4b43 <do_copy+0x163>
    4fe4:	c7 44 24 04 2f 00 00 	movl   $0x2f,0x4(%esp)
    4feb:	00 
    4fec:	89 3c 24             	mov    %edi,(%esp)
    4fef:	e8 0c cb 00 00       	call   11b00 <str_rtrim>
    4ff4:	c7 44 24 08 8f bf 02 	movl   $0x2bf8f,0x8(%esp)
    4ffb:	00 
    4ffc:	c7 44 24 04 ff 00 00 	movl   $0xff,0x4(%esp)
    5003:	00 
    5004:	89 3c 24             	mov    %edi,(%esp)
    5007:	e8 24 c0 00 00       	call   11030 <str_append>
    500c:	8b 95 9c fb ff ff    	mov    -0x464(%ebp),%edx
    5012:	89 54 24 08          	mov    %edx,0x8(%esp)
    5016:	c7 44 24 04 ff 00 00 	movl   $0xff,0x4(%esp)
    501d:	00 
    501e:	89 3c 24             	mov    %edi,(%esp)
    5021:	e8 0a c0 00 00       	call   11030 <str_append>
    5026:	c7 44 24 04 00 00 00 	movl   $0x0,0x4(%esp)
    502d:	00 
    502e:	89 3c 24             	mov    %edi,(%esp)
    5031:	e8 6a 1e 02 00       	call   26ea0 <mkdir>
    5036:	40                   	inc    %eax
    5037:	0f 85 06 fb ff ff    	jne    4b43 <do_copy+0x163>
    503d:	8d 76 00             	lea    0x0(%esi),%esi
    5040:	89 7c 24 04          	mov    %edi,0x4(%esp)
    5044:	c7 04 24 fc c3 02 00 	movl   $0x2c3fc,(%esp)
    504b:	e8 10 23 01 00       	call   17360 <printf>
    5050:	83 cb ff             	or     $0xffffffff,%ebx
    5053:	83 c9 ff             	or     $0xffffffff,%ecx
    5056:	e9 31 fa ff ff       	jmp    4a8c <do_copy+0xac>
    505b:	90                   	nop
    505c:	8d 74 26 00          	lea    0x0(%esi,%eiz,1),%esi
    5060:	c7 04 24 d0 c3 02 00 	movl   $0x2c3d0,(%esp)
    5067:	83 cb ff             	or     $0xffffffff,%ebx
    506a:	e8 f1 22 01 00       	call   17360 <printf>
    506f:	83 c9 ff             	or     $0xffffffff,%ecx
    5072:	e9 15 fa ff ff       	jmp    4a8c <do_copy+0xac>
    5077:	89 bd 9c fb ff ff    	mov    %edi,-0x464(%ebp)
    507d:	e9 82 fa ff ff       	jmp    4b04 <do_copy+0x124>
    5082:	8b 45 10             	mov    0x10(%ebp),%eax
    5085:	85 c0                	test   %eax,%eax
    5087:	0f 84 4f fd ff ff    	je     4ddc <do_copy+0x3fc>
    508d:	89 3c 24             	mov    %edi,(%esp)
    5090:	e8 4b 1f 02 00       	call   26fe0 <unlink>
    5095:	85 c0                	test   %eax,%eax
    5097:	0f 84 9b fd ff ff    	je     4e38 <do_copy+0x458>
    509d:	89 7c 24 04          	mov    %edi,0x4(%esp)
    50a1:	c7 04 24 12 c2 02 00 	movl   $0x2c212,(%esp)
    50a8:	e8 b3 22 01 00       	call   17360 <printf>
    50ad:	83 cb ff             	or     $0xffffffff,%ebx
    50b0:	83 c9 ff             	or     $0xffffffff,%ecx
    50b3:	e9 d4 f9 ff ff       	jmp    4a8c <do_copy+0xac>
    50b8:	89 3c 24             	mov    %edi,(%esp)
    50bb:	e8 a0 af 00 00       	call   10060 <str_size>
    50c0:	80 bc 05 ea fb ff ff 	cmpb   $0x2f,-0x416(%ebp,%eax,1)
    50c7:	2f 
    50c8:	0f 85 6a fd ff ff    	jne    4e38 <do_copy+0x458>
    50ce:	89 7c 24 04          	mov    %edi,0x4(%esp)
    50d2:	c7 04 24 30 c3 02 00 	movl   $0x2c330,(%esp)
    50d9:	e8 82 22 01 00       	call   17360 <printf>
    50de:	83 cb ff             	or     $0xffffffff,%ebx
    50e1:	83 c9 ff             	or     $0xffffffff,%ecx
    50e4:	e9 a3 f9 ff ff       	jmp    4a8c <do_copy+0xac>
    50e9:	8b 85 a0 fb ff ff    	mov    -0x460(%ebp),%eax
    50ef:	89 7c 24 08          	mov    %edi,0x8(%esp)
    50f3:	89 44 24 04          	mov    %eax,0x4(%esp)
    50f7:	c7 04 24 70 c2 02 00 	movl   $0x2c270,(%esp)
    50fe:	e8 5d 22 01 00       	call   17360 <printf>
    5103:	e9 3b fd ff ff       	jmp    4e43 <do_copy+0x463>
    5108:	89 44 24 04          	mov    %eax,0x4(%esp)
    510c:	89 54 24 08          	mov    %edx,0x8(%esp)
    5110:	c7 04 24 82 c2 02 00 	movl   $0x2c282,(%esp)
    5117:	e8 44 22 01 00       	call   17360 <printf>
    511c:	e9 93 fd ff ff       	jmp    4eb4 <do_copy+0x4d4>
    5121:	8d b4 26 00 00 00 00 	lea    0x0(%esi,%eiz,1),%esi
    5128:	89 7c 24 04          	mov    %edi,0x4(%esp)
    512c:	c7 04 24 57 c2 02 00 	movl   $0x2c257,(%esp)
    5133:	e8 28 22 01 00       	call   17360 <printf>
    5138:	83 cb ff             	or     $0xffffffff,%ebx
    513b:	83 c9 ff             	or     $0xffffffff,%ecx
    513e:	e9 49 f9 ff ff       	jmp    4a8c <do_copy+0xac>
    5143:	c7 44 24 04 2f 00 00 	movl   $0x2f,0x4(%esp)
    514a:	00 
    514b:	89 3c 24             	mov    %edi,(%esp)
    514e:	e8 ad c9 00 00       	call   11b00 <str_rtrim>
    5153:	c7 44 24 08 8f bf 02 	movl   $0x2bf8f,0x8(%esp)
    515a:	00 
    515b:	c7 44 24 04 ff 00 00 	movl   $0xff,0x4(%esp)
    5162:	00 
    5163:	89 3c 24             	mov    %edi,(%esp)
    5166:	e8 c5 be 00 00       	call   11030 <str_append>
    516b:	8b 85 9c fb ff ff    	mov    -0x464(%ebp),%eax
    5171:	89 44 24 08          	mov    %eax,0x8(%esp)
    5175:	c7 44 24 04 ff 00 00 	movl   $0xff,0x4(%esp)
    517c:	00 
    517d:	89 3c 24             	mov    %edi,(%esp)
    5180:	e8 ab be 00 00       	call   11030 <str_append>
    5185:	89 5c 24 04          	mov    %ebx,0x4(%esp)
    5189:	89 3c 24             	mov    %edi,(%esp)
    518c:	e8 4f 17 02 00       	call   268e0 <stat>
    5191:	85 c0                	test   %eax,%eax
    5193:	0f 85 9f fc ff ff    	jne    4e38 <do_copy+0x458>
    5199:	80 bd f9 fe ff ff 00 	cmpb   $0x0,-0x107(%ebp)
    51a0:	0f 84 d0 00 00 00    	je     5276 <do_copy+0x896>
    51a6:	89 7c 24 04          	mov    %edi,0x4(%esp)
    51aa:	c7 04 24 6c c4 02 00 	movl   $0x2c46c,(%esp)
    51b1:	e8 aa 21 01 00       	call   17360 <printf>
    51b6:	83 cb ff             	or     $0xffffffff,%ebx
    51b9:	83 c9 ff             	or     $0xffffffff,%ecx
    51bc:	e9 cb f8 ff ff       	jmp    4a8c <do_copy+0xac>
    51c1:	89 bd 9c fb ff ff    	mov    %edi,-0x464(%ebp)
    51c7:	e9 d0 fb ff ff       	jmp    4d9c <do_copy+0x3bc>
    51cc:	8b 85 a0 fb ff ff    	mov    -0x460(%ebp),%eax
    51d2:	c7 04 24 20 c4 02 00 	movl   $0x2c420,(%esp)
    51d9:	89 44 24 04          	mov    %eax,0x4(%esp)
    51dd:	83 cb ff             	or     $0xffffffff,%ebx
    51e0:	e8 7b 21 01 00       	call   17360 <printf>
    51e5:	83 c9 ff             	or     $0xffffffff,%ecx
    51e8:	e9 9f f8 ff ff       	jmp    4a8c <do_copy+0xac>
    51ed:	c7 04 24 3d c2 02 00 	movl   $0x2c23d,(%esp)
    51f4:	31 db                	xor    %ebx,%ebx
    51f6:	e8 65 21 01 00       	call   17360 <printf>
    51fb:	31 c9                	xor    %ecx,%ecx
    51fd:	e9 8a f8 ff ff       	jmp    4a8c <do_copy+0xac>
    5202:	8d b6 00 00 00 00    	lea    0x0(%esi),%esi
    5208:	8b 85 a0 fb ff ff    	mov    -0x460(%ebp),%eax
    520e:	89 54 24 08          	mov    %edx,0x8(%esp)
    5212:	89 44 24 04          	mov    %eax,0x4(%esp)
    5216:	c7 04 24 96 c2 02 00 	movl   $0x2c296,(%esp)
    521d:	89 95 90 fb ff ff    	mov    %edx,-0x470(%ebp)
    5223:	e8 38 21 01 00       	call   17360 <printf>
    5228:	8b 95 90 fb ff ff    	mov    -0x470(%ebp),%edx
    522e:	89 d7                	mov    %edx,%edi
    5230:	c1 ff 1f             	sar    $0x1f,%edi
    5233:	e9 10 fd ff ff       	jmp    4f48 <do_copy+0x568>
    5238:	8b 85 a0 fb ff ff    	mov    -0x460(%ebp),%eax
    523e:	c7 04 24 90 bb 02 00 	movl   $0x2bb90,(%esp)
    5245:	89 44 24 04          	mov    %eax,0x4(%esp)
    5249:	31 db                	xor    %ebx,%ebx
    524b:	e8 10 21 01 00       	call   17360 <printf>
    5250:	8b 85 a4 fb ff ff    	mov    -0x45c(%ebp),%eax
    5256:	89 04 24             	mov    %eax,(%esp)
    5259:	e8 02 0d 02 00       	call   25f60 <close>
    525e:	8b 85 9c fb ff ff    	mov    -0x464(%ebp),%eax
    5264:	89 04 24             	mov    %eax,(%esp)
    5267:	e8 f4 0c 02 00       	call   25f60 <close>
    526c:	b9 01 00 00 00       	mov    $0x1,%ecx
    5271:	e9 16 f8 ff ff       	jmp    4a8c <do_copy+0xac>
    5276:	80 bd f8 fe ff ff 01 	cmpb   $0x1,-0x108(%ebp)
    527d:	0f 84 4e fb ff ff    	je     4dd1 <do_copy+0x3f1>
    5283:	e9 b0 fb ff ff       	jmp    4e38 <do_copy+0x458>
    5288:	89 7c 24 04          	mov    %edi,0x4(%esp)
    528c:	c7 04 24 78 c3 02 00 	movl   $0x2c378,(%esp)
    5293:	e8 c8 20 01 00       	call   17360 <printf>
    5298:	8b 85 a4 fb ff ff    	mov    -0x45c(%ebp),%eax
    529e:	89 04 24             	mov    %eax,(%esp)
    52a1:	31 db                	xor    %ebx,%ebx
    52a3:	e8 b8 0c 02 00       	call   25f60 <close>
    52a8:	b9 01 00 00 00       	mov    $0x1,%ecx
    52ad:	e9 da f7 ff ff       	jmp    4a8c <do_copy+0xac>
    52b2:	8b 85 a0 fb ff ff    	mov    -0x460(%ebp),%eax
    52b8:	c7 04 24 58 c3 02 00 	movl   $0x2c358,(%esp)
    52bf:	89 44 24 04          	mov    %eax,0x4(%esp)
    52c3:	31 db                	xor    %ebx,%ebx
    52c5:	e8 96 20 01 00       	call   17360 <printf>
    52ca:	b9 01 00 00 00       	mov    $0x1,%ecx
    52cf:	e9 b8 f7 ff ff       	jmp    4a8c <do_copy+0xac>
    52d4:	8d b6 00 00 00 00    	lea    0x0(%esi),%esi
    52da:	8d bf 00 00 00 00    	lea    0x0(%edi),%edi

000052e0 <help_cmd_cp>:
    52e0:	55                   	push   %ebp
    52e1:	89 e5                	mov    %esp,%ebp
    52e3:	83 ec 18             	sub    $0x18,%esp
    52e6:	8b 45 08             	mov    0x8(%ebp),%eax
    52e9:	c7 44 24 04 29 a7 02 	movl   $0x2a729,0x4(%esp)
    52f0:	00 
    52f1:	85 c0                	test   %eax,%eax
    52f3:	c7 04 24 e0 c2 02 00 	movl   $0x2c2e0,(%esp)
    52fa:	74 14                	je     5310 <help_cmd_cp+0x30>
    52fc:	e8 5f 20 01 00       	call   17360 <printf>
    5301:	c7 44 24 04 29 a7 02 	movl   $0x2a729,0x4(%esp)
    5308:	00 
    5309:	c7 04 24 c0 02 03 00 	movl   $0x302c0,(%esp)
    5310:	e8 4b 20 01 00       	call   17360 <printf>
    5315:	c9                   	leave  
    5316:	c3                   	ret    
    5317:	89 f6                	mov    %esi,%esi
    5319:	8d bc 27 00 00 00 00 	lea    0x0(%edi,%eiz,1),%edi

00005320 <cmd_cp>:
    5320:	55                   	push   %ebp
    5321:	89 e5                	mov    %esp,%ebp
    5323:	57                   	push   %edi
    5324:	56                   	push   %esi
    5325:	53                   	push   %ebx
    5326:	83 ec 5c             	sub    $0x5c,%esp
    5329:	8d 7d e4             	lea    -0x1c(%ebp),%edi
    532c:	a1 6c 0a 03 00       	mov    0x30a6c,%eax
    5331:	8b 5d 08             	mov    0x8(%ebp),%ebx
    5334:	89 44 24 04          	mov    %eax,0x4(%esp)
    5338:	a1 70 0a 03 00       	mov    0x30a70,%eax
    533d:	89 04 24             	mov    %eax,(%esp)
    5340:	e8 2b 4c 01 00       	call   19f70 <console_init>
    5345:	89 1c 24             	mov    %ebx,(%esp)
    5348:	a3 d0 07 03 00       	mov    %eax,0x307d0
    534d:	e8 ee 23 00 00       	call   7740 <cli_count_args>
    5352:	c7 05 f4 06 03 00 00 	movl   $0x0,0x306f4
    5359:	00 00 00 
    535c:	89 c6                	mov    %eax,%esi
    535e:	c7 45 e4 00 00 00 00 	movl   $0x0,-0x1c(%ebp)
    5365:	c7 45 cc 00 00 00 00 	movl   $0x0,-0x34(%ebp)
    536c:	c7 45 c8 00 00 00 00 	movl   $0x0,-0x38(%ebp)
    5373:	c7 45 c4 00 00 00 00 	movl   $0x0,-0x3c(%ebp)
    537a:	c7 45 d4 00 00 00 00 	movl   $0x0,-0x2c(%ebp)
    5381:	c7 45 d0 00 00 00 00 	movl   $0x0,-0x30(%ebp)
    5388:	89 7c 24 10          	mov    %edi,0x10(%esp)
    538c:	c7 44 24 0c c0 c5 02 	movl   $0x2c5c0,0xc(%esp)
    5393:	00 
    5394:	c7 44 24 08 be c2 02 	movl   $0x2c2be,0x8(%esp)
    539b:	00 
    539c:	89 5c 24 04          	mov    %ebx,0x4(%esp)
    53a0:	89 34 24             	mov    %esi,(%esp)
    53a3:	e8 18 d9 01 00       	call   22cc0 <getopt_long>
    53a8:	8d 50 aa             	lea    -0x56(%eax),%edx
    53ab:	83 fa 20             	cmp    $0x20,%edx
    53ae:	76 50                	jbe    5400 <cmd_cp+0xe0>
    53b0:	40                   	inc    %eax
    53b1:	75 d5                	jne    5388 <cmd_cp+0x68>
    53b3:	8b 4d d4             	mov    -0x2c(%ebp),%ecx
    53b6:	85 c9                	test   %ecx,%ecx
    53b8:	0f 84 3a 01 00 00    	je     54f8 <cmd_cp+0x1d8>
    53be:	a1 f4 06 03 00       	mov    0x306f4,%eax
    53c3:	29 c6                	sub    %eax,%esi
    53c5:	83 fe 02             	cmp    $0x2,%esi
    53c8:	0f 84 36 01 00 00    	je     5504 <cmd_cp+0x1e4>
    53ce:	c7 44 24 08 29 a7 02 	movl   $0x2a729,0x8(%esp)
    53d5:	00 
    53d6:	c7 44 24 04 29 a7 02 	movl   $0x2a729,0x4(%esp)
    53dd:	00 
    53de:	c7 04 24 94 c4 02 00 	movl   $0x2c494,(%esp)
    53e5:	e8 76 1f 01 00       	call   17360 <printf>
    53ea:	a1 d0 07 03 00       	mov    0x307d0,%eax
    53ef:	89 04 24             	mov    %eax,(%esp)
    53f2:	e8 f9 4b 01 00       	call   19ff0 <console_done>
    53f7:	b8 01 00 00 00       	mov    $0x1,%eax
    53fc:	eb 78                	jmp    5476 <cmd_cp+0x156>
    53fe:	66 90                	xchg   %ax,%ax
    5400:	ff 24 95 20 c5 02 00 	jmp    *0x2c520(,%edx,4)
    5407:	90                   	nop
    5408:	a1 68 07 03 00       	mov    0x30768,%eax
    540d:	c7 44 24 08 0a 00 00 	movl   $0xa,0x8(%esp)
    5414:	00 
    5415:	c7 44 24 04 00 00 00 	movl   $0x0,0x4(%esp)
    541c:	00 
    541d:	89 04 24             	mov    %eax,(%esp)
    5420:	e8 9b cb 00 00       	call   11fc0 <strtol>
    5425:	89 45 d4             	mov    %eax,-0x2c(%ebp)
    5428:	85 c0                	test   %eax,%eax
    542a:	0f 8e 1e 01 00 00    	jle    554e <cmd_cp+0x22e>
    5430:	8b 55 d0             	mov    -0x30(%ebp),%edx
    5433:	85 d2                	test   %edx,%edx
    5435:	0f 84 4d ff ff ff    	je     5388 <cmd_cp+0x68>
    543b:	8b 45 d4             	mov    -0x2c(%ebp),%eax
    543e:	c7 04 24 c7 c2 02 00 	movl   $0x2c2c7,(%esp)
    5445:	89 44 24 04          	mov    %eax,0x4(%esp)
    5449:	e8 12 1f 01 00       	call   17360 <printf>
    544e:	c7 45 d0 01 00 00 00 	movl   $0x1,-0x30(%ebp)
    5455:	e9 2e ff ff ff       	jmp    5388 <cmd_cp+0x68>
    545a:	8d b6 00 00 00 00    	lea    0x0(%esi),%esi
    5460:	c7 44 24 04 9f ae 02 	movl   $0x2ae9f,0x4(%esp)
    5467:	00 
    5468:	c7 04 24 f2 a5 02 00 	movl   $0x2a5f2,(%esp)
    546f:	e8 ec 1e 01 00       	call   17360 <printf>
    5474:	31 c0                	xor    %eax,%eax
    5476:	83 c4 5c             	add    $0x5c,%esp
    5479:	5b                   	pop    %ebx
    547a:	5e                   	pop    %esi
    547b:	5f                   	pop    %edi
    547c:	5d                   	pop    %ebp
    547d:	c3                   	ret    
    547e:	66 90                	xchg   %ax,%ax
    5480:	c7 45 c4 01 00 00 00 	movl   $0x1,-0x3c(%ebp)
    5487:	e9 fc fe ff ff       	jmp    5388 <cmd_cp+0x68>
    548c:	8d 74 26 00          	lea    0x0(%esi,%eiz,1),%esi
    5490:	c7 45 cc 01 00 00 00 	movl   $0x1,-0x34(%ebp)
    5497:	c7 45 c8 00 00 00 00 	movl   $0x0,-0x38(%ebp)
    549e:	e9 e5 fe ff ff       	jmp    5388 <cmd_cp+0x68>
    54a3:	90                   	nop
    54a4:	8d 74 26 00          	lea    0x0(%esi,%eiz,1),%esi
    54a8:	c7 44 24 04 29 a7 02 	movl   $0x2a729,0x4(%esp)
    54af:	00 
    54b0:	c7 04 24 e0 c2 02 00 	movl   $0x2c2e0,(%esp)
    54b7:	e8 a4 1e 01 00       	call   17360 <printf>
    54bc:	c7 44 24 04 29 a7 02 	movl   $0x2a729,0x4(%esp)
    54c3:	00 
    54c4:	c7 04 24 c0 02 03 00 	movl   $0x302c0,(%esp)
    54cb:	e8 90 1e 01 00       	call   17360 <printf>
    54d0:	83 c4 5c             	add    $0x5c,%esp
    54d3:	31 c0                	xor    %eax,%eax
    54d5:	5b                   	pop    %ebx
    54d6:	5e                   	pop    %esi
    54d7:	5f                   	pop    %edi
    54d8:	5d                   	pop    %ebp
    54d9:	c3                   	ret    
    54da:	8d b6 00 00 00 00    	lea    0x0(%esi),%esi
    54e0:	c7 45 cc 00 00 00 00 	movl   $0x0,-0x34(%ebp)
    54e7:	c7 45 c8 01 00 00 00 	movl   $0x1,-0x38(%ebp)
    54ee:	e9 95 fe ff ff       	jmp    5388 <cmd_cp+0x68>
    54f3:	90                   	nop
    54f4:	8d 74 26 00          	lea    0x0(%esi,%eiz,1),%esi
    54f8:	c7 45 d4 00 04 00 00 	movl   $0x400,-0x2c(%ebp)
    54ff:	e9 ba fe ff ff       	jmp    53be <cmd_cp+0x9e>
    5504:	8b 4d cc             	mov    -0x34(%ebp),%ecx
    5507:	8b 54 83 04          	mov    0x4(%ebx,%eax,4),%edx
    550b:	8b 04 83             	mov    (%ebx,%eax,4),%eax
    550e:	89 4c 24 0c          	mov    %ecx,0xc(%esp)
    5512:	8b 4d c8             	mov    -0x38(%ebp),%ecx
    5515:	89 4c 24 08          	mov    %ecx,0x8(%esp)
    5519:	8b 4d c4             	mov    -0x3c(%ebp),%ecx
    551c:	89 4c 24 04          	mov    %ecx,0x4(%esp)
    5520:	8b 4d d0             	mov    -0x30(%ebp),%ecx
    5523:	89 0c 24             	mov    %ecx,(%esp)
    5526:	8b 4d d4             	mov    -0x2c(%ebp),%ecx
    5529:	e8 b2 f4 ff ff       	call   49e0 <do_copy>
    552e:	89 c6                	mov    %eax,%esi
    5530:	a1 d0 07 03 00       	mov    0x307d0,%eax
    5535:	89 d3                	mov    %edx,%ebx
    5537:	89 04 24             	mov    %eax,(%esp)
    553a:	e8 b1 4a 01 00       	call   19ff0 <console_done>
    553f:	09 de                	or     %ebx,%esi
    5541:	0f 95 c0             	setne  %al
    5544:	25 ff 00 00 00       	and    $0xff,%eax
    5549:	e9 28 ff ff ff       	jmp    5476 <cmd_cp+0x156>
    554e:	c7 44 24 04 29 a7 02 	movl   $0x2a729,0x4(%esp)
    5555:	00 
    5556:	c7 04 24 c4 c4 02 00 	movl   $0x2c4c4,(%esp)
    555d:	e8 fe 1d 01 00       	call   17360 <printf>
    5562:	a1 d0 07 03 00       	mov    0x307d0,%eax
    5567:	89 04 24             	mov    %eax,(%esp)
    556a:	e8 81 4a 01 00       	call   19ff0 <console_done>
    556f:	b8 01 00 00 00       	mov    $0x1,%eax
    5574:	e9 fd fe ff ff       	jmp    5476 <cmd_cp+0x156>
    5579:	66 90                	xchg   %ax,%ax
    557b:	66 90                	xchg   %ax,%ax
    557d:	66 90                	xchg   %ax,%ax
    557f:	90                   	nop

00005580 <help_cmd_mv>:
    5580:	55                   	push   %ebp
    5581:	89 e5                	mov    %esp,%ebp
    5583:	83 ec 18             	sub    $0x18,%esp
    5586:	c7 44 24 04 47 a7 02 	movl   $0x2a747,0x4(%esp)
    558d:	00 
    558e:	c7 04 24 40 c6 02 00 	movl   $0x2c640,(%esp)
    5595:	e8 c6 1d 01 00       	call   17360 <printf>
    559a:	c9                   	leave  
    559b:	c3                   	ret    
    559c:	8d 74 26 00          	lea    0x0(%esi,%eiz,1),%esi

000055a0 <cmd_mv>:
    55a0:	55                   	push   %ebp
    55a1:	89 e5                	mov    %esp,%ebp
    55a3:	53                   	push   %ebx
    55a4:	83 ec 14             	sub    $0x14,%esp
    55a7:	8b 5d 08             	mov    0x8(%ebp),%ebx
    55aa:	89 1c 24             	mov    %ebx,(%esp)
    55ad:	e8 8e 21 00 00       	call   7740 <cli_count_args>
    55b2:	83 f8 03             	cmp    $0x3,%eax
    55b5:	74 21                	je     55d8 <cmd_mv+0x38>
    55b7:	c7 44 24 04 47 a7 02 	movl   $0x2a747,0x4(%esp)
    55be:	00 
    55bf:	c7 04 24 54 c6 02 00 	movl   $0x2c654,(%esp)
    55c6:	e8 95 1d 01 00       	call   17360 <printf>
    55cb:	b8 01 00 00 00       	mov    $0x1,%eax
    55d0:	83 c4 14             	add    $0x14,%esp
    55d3:	5b                   	pop    %ebx
    55d4:	5d                   	pop    %ebp
    55d5:	c3                   	ret    
    55d6:	66 90                	xchg   %ax,%ax
    55d8:	8b 43 08             	mov    0x8(%ebx),%eax
    55db:	89 44 24 04          	mov    %eax,0x4(%esp)
    55df:	8b 43 04             	mov    0x4(%ebx),%eax
    55e2:	89 04 24             	mov    %eax,(%esp)
    55e5:	e8 26 1a 02 00       	call   27010 <rename>
    55ea:	89 c2                	mov    %eax,%edx
    55ec:	31 c0                	xor    %eax,%eax
    55ee:	85 d2                	test   %edx,%edx
    55f0:	74 de                	je     55d0 <cmd_mv+0x30>
    55f2:	89 54 24 0c          	mov    %edx,0xc(%esp)
    55f6:	8b 43 08             	mov    0x8(%ebx),%eax
    55f9:	89 44 24 08          	mov    %eax,0x8(%esp)
    55fd:	8b 43 04             	mov    0x4(%ebx),%eax
    5600:	c7 04 24 78 c6 02 00 	movl   $0x2c678,(%esp)
    5607:	89 44 24 04          	mov    %eax,0x4(%esp)
    560b:	e8 50 1d 01 00       	call   17360 <printf>
    5610:	83 c4 14             	add    $0x14,%esp
    5613:	b8 01 00 00 00       	mov    $0x1,%eax
    5618:	5b                   	pop    %ebx
    5619:	5d                   	pop    %ebp
    561a:	c3                   	ret    
    561b:	66 90                	xchg   %ax,%ax
    561d:	66 90                	xchg   %ax,%ax
    561f:	90                   	nop

00005620 <help_cmd_printf.constprop.0>:
    5620:	55                   	push   %ebp
    5621:	89 e5                	mov    %esp,%ebp
    5623:	83 ec 18             	sub    $0x18,%esp
    5626:	c7 44 24 04 b0 a7 02 	movl   $0x2a7b0,0x4(%esp)
    562d:	00 
    562e:	c7 04 24 9b c6 02 00 	movl   $0x2c69b,(%esp)
    5635:	e8 26 1d 01 00       	call   17360 <printf>
    563a:	c9                   	leave  
    563b:	c3                   	ret    
    563c:	8d 74 26 00          	lea    0x0(%esi,%eiz,1),%esi

00005640 <help_cmd_printf>:
    5640:	55                   	push   %ebp
    5641:	89 e5                	mov    %esp,%ebp
    5643:	83 ec 18             	sub    $0x18,%esp
    5646:	8b 45 08             	mov    0x8(%ebp),%eax
    5649:	c7 44 24 04 b0 a7 02 	movl   $0x2a7b0,0x4(%esp)
    5650:	00 
    5651:	85 c0                	test   %eax,%eax
    5653:	c7 04 24 9b c6 02 00 	movl   $0x2c69b,(%esp)
    565a:	74 14                	je     5670 <help_cmd_printf+0x30>
    565c:	e8 ff 1c 01 00       	call   17360 <printf>
    5661:	c7 44 24 04 b0 a7 02 	movl   $0x2a7b0,0x4(%esp)
    5668:	00 
    5669:	c7 04 24 bc c6 02 00 	movl   $0x2c6bc,(%esp)
    5670:	e8 eb 1c 01 00       	call   17360 <printf>
    5675:	c9                   	leave  
    5676:	c3                   	ret    
    5677:	89 f6                	mov    %esi,%esi
    5679:	8d bc 27 00 00 00 00 	lea    0x0(%edi,%eiz,1),%edi

00005680 <cmd_printf>:
    5680:	55                   	push   %ebp
    5681:	89 e5                	mov    %esp,%ebp
    5683:	57                   	push   %edi
    5684:	56                   	push   %esi
    5685:	53                   	push   %ebx
    5686:	83 ec 3c             	sub    $0x3c,%esp
    5689:	8b 55 08             	mov    0x8(%ebp),%edx
    568c:	8b 1a                	mov    (%edx),%ebx
    568e:	85 db                	test   %ebx,%ebx
    5690:	0f 84 32 01 00 00    	je     57c8 <cmd_printf+0x148>
    5696:	31 f6                	xor    %esi,%esi
    5698:	89 d0                	mov    %edx,%eax
    569a:	8d b6 00 00 00 00    	lea    0x0(%esi),%esi
    56a0:	46                   	inc    %esi
    56a1:	8b 0c b0             	mov    (%eax,%esi,4),%ecx
    56a4:	85 c9                	test   %ecx,%ecx
    56a6:	75 f8                	jne    56a0 <cmd_printf+0x20>
    56a8:	83 fe 01             	cmp    $0x1,%esi
    56ab:	0f 86 17 01 00 00    	jbe    57c8 <cmd_printf+0x148>
    56b1:	8b 4d 08             	mov    0x8(%ebp),%ecx
    56b4:	31 db                	xor    %ebx,%ebx
    56b6:	8b 79 04             	mov    0x4(%ecx),%edi
    56b9:	89 3c 24             	mov    %edi,(%esp)
    56bc:	e8 9f a9 00 00       	call   10060 <str_size>
    56c1:	c7 45 e4 00 00 00 00 	movl   $0x0,-0x1c(%ebp)
    56c8:	89 45 d4             	mov    %eax,-0x2c(%ebp)
    56cb:	c7 45 d0 02 00 00 00 	movl   $0x2,-0x30(%ebp)
    56d2:	89 75 cc             	mov    %esi,-0x34(%ebp)
    56d5:	8d 76 00             	lea    0x0(%esi),%esi
    56d8:	8d 55 e4             	lea    -0x1c(%ebp),%edx
    56db:	89 44 24 08          	mov    %eax,0x8(%esp)
    56df:	89 54 24 04          	mov    %edx,0x4(%esp)
    56e3:	89 3c 24             	mov    %edi,(%esp)
    56e6:	e8 35 a5 00 00       	call   fc20 <str_decode>
    56eb:	85 c0                	test   %eax,%eax
    56ed:	0f 84 ed 00 00 00    	je     57e0 <cmd_printf+0x160>
    56f3:	83 f8 25             	cmp    $0x25,%eax
    56f6:	74 20                	je     5718 <cmd_printf+0x98>
    56f8:	83 f8 5c             	cmp    $0x5c,%eax
    56fb:	74 33                	je     5730 <cmd_printf+0xb0>
    56fd:	84 db                	test   %bl,%bl
    56ff:	74 3f                	je     5740 <cmd_printf+0xc0>
    5701:	83 f8 6e             	cmp    $0x6e,%eax
    5704:	0f 84 a6 00 00 00    	je     57b0 <cmd_printf+0x130>
    570a:	31 db                	xor    %ebx,%ebx
    570c:	8b 45 d4             	mov    -0x2c(%ebp),%eax
    570f:	eb c7                	jmp    56d8 <cmd_printf+0x58>
    5711:	8d b4 26 00 00 00 00 	lea    0x0(%esi,%eiz,1),%esi
    5718:	84 db                	test   %bl,%bl
    571a:	74 34                	je     5750 <cmd_printf+0xd0>
    571c:	89 04 24             	mov    %eax,(%esp)
    571f:	31 db                	xor    %ebx,%ebx
    5721:	e8 7a 19 01 00       	call   170a0 <putchar>
    5726:	8b 45 d4             	mov    -0x2c(%ebp),%eax
    5729:	eb ad                	jmp    56d8 <cmd_printf+0x58>
    572b:	90                   	nop
    572c:	8d 74 26 00          	lea    0x0(%esi,%eiz,1),%esi
    5730:	84 db                	test   %bl,%bl
    5732:	75 e8                	jne    571c <cmd_printf+0x9c>
    5734:	b3 01                	mov    $0x1,%bl
    5736:	8b 45 d4             	mov    -0x2c(%ebp),%eax
    5739:	eb 9d                	jmp    56d8 <cmd_printf+0x58>
    573b:	90                   	nop
    573c:	8d 74 26 00          	lea    0x0(%esi,%eiz,1),%esi
    5740:	89 04 24             	mov    %eax,(%esp)
    5743:	e8 58 19 01 00       	call   170a0 <putchar>
    5748:	8b 45 d4             	mov    -0x2c(%ebp),%eax
    574b:	eb 8b                	jmp    56d8 <cmd_printf+0x58>
    574d:	8d 76 00             	lea    0x0(%esi),%esi
    5750:	8b 45 d4             	mov    -0x2c(%ebp),%eax
    5753:	8d 55 e4             	lea    -0x1c(%ebp),%edx
    5756:	89 44 24 08          	mov    %eax,0x8(%esp)
    575a:	89 54 24 04          	mov    %edx,0x4(%esp)
    575e:	89 3c 24             	mov    %edi,(%esp)
    5761:	e8 ba a4 00 00       	call   fc20 <str_decode>
    5766:	85 c0                	test   %eax,%eax
    5768:	0f 84 b2 00 00 00    	je     5820 <cmd_printf+0x1a0>
    576e:	8b 4d cc             	mov    -0x34(%ebp),%ecx
    5771:	39 4d d0             	cmp    %ecx,-0x30(%ebp)
    5774:	0f 84 15 01 00 00    	je     588f <cmd_printf+0x20f>
    577a:	8b 75 d0             	mov    -0x30(%ebp),%esi
    577d:	8b 4d 08             	mov    0x8(%ebp),%ecx
    5780:	83 f8 73             	cmp    $0x73,%eax
    5783:	8b 14 b1             	mov    (%ecx,%esi,4),%edx
    5786:	0f 84 e4 00 00 00    	je     5870 <cmd_printf+0x1f0>
    578c:	83 f8 75             	cmp    $0x75,%eax
    578f:	0f 84 a3 00 00 00    	je     5838 <cmd_printf+0x1b8>
    5795:	83 f8 64             	cmp    $0x64,%eax
    5798:	74 4e                	je     57e8 <cmd_printf+0x168>
    579a:	8b 55 d0             	mov    -0x30(%ebp),%edx
    579d:	8b 45 d4             	mov    -0x2c(%ebp),%eax
    57a0:	42                   	inc    %edx
    57a1:	89 55 d0             	mov    %edx,-0x30(%ebp)
    57a4:	e9 2f ff ff ff       	jmp    56d8 <cmd_printf+0x58>
    57a9:	8d b4 26 00 00 00 00 	lea    0x0(%esi,%eiz,1),%esi
    57b0:	c7 04 24 5b cf 02 00 	movl   $0x2cf5b,(%esp)
    57b7:	31 db                	xor    %ebx,%ebx
    57b9:	e8 a2 1b 01 00       	call   17360 <printf>
    57be:	8b 45 d4             	mov    -0x2c(%ebp),%eax
    57c1:	e9 12 ff ff ff       	jmp    56d8 <cmd_printf+0x58>
    57c6:	66 90                	xchg   %ax,%ax
    57c8:	c7 44 24 04 b0 a7 02 	movl   $0x2a7b0,0x4(%esp)
    57cf:	00 
    57d0:	c7 04 24 70 c7 02 00 	movl   $0x2c770,(%esp)
    57d7:	e8 84 1b 01 00       	call   17360 <printf>
    57dc:	31 c0                	xor    %eax,%eax
    57de:	66 90                	xchg   %ax,%ax
    57e0:	83 c4 3c             	add    $0x3c,%esp
    57e3:	5b                   	pop    %ebx
    57e4:	5e                   	pop    %esi
    57e5:	5f                   	pop    %edi
    57e6:	5d                   	pop    %ebp
    57e7:	c3                   	ret    
    57e8:	89 14 24             	mov    %edx,(%esp)
