
udp:     file format elf32-i386


Disassembly of section .init:

00001094 <__entry>:
    1094:	66 8c d0             	mov    %ss,%ax
    1097:	8e d8                	mov    %eax,%ds
    1099:	8e c0                	mov    %eax,%es
    109b:	8e e0                	mov    %eax,%fs
    109d:	b8 01 00 00 00       	mov    $0x1,%eax
    10a2:	0f a2                	cpuid  
    10a4:	0f ba e2 0b          	bt     $0xb,%edx
    10a8:	73 0c                	jae    10b6 <__entry+0x22>
    10aa:	8d 05 98 73 02 00    	lea    0x27398,%eax
    10b0:	c7 00 d7 c1 01 00    	movl   $0x1c1d7,(%eax)
    10b6:	6a 00                	push   $0x0
    10b8:	89 e5                	mov    %esp,%ebp
    10ba:	57                   	push   %edi
    10bb:	e8 80 55 00 00       	call   6640 <__main>

Disassembly of section .text:

000010c0 <udp_assoc_new>:
    10c0:	55                   	push   %ebp
    10c1:	89 e5                	mov    %esp,%ebp
    10c3:	57                   	push   %edi
    10c4:	56                   	push   %esi
    10c5:	53                   	push   %ebx
    10c6:	83 ec 1c             	sub    $0x1c,%esp
    10c9:	8b 7d 08             	mov    0x8(%ebp),%edi
    10cc:	8b 5d 0c             	mov    0xc(%ebp),%ebx
    10cf:	c7 44 24 04 44 00 00 	movl   $0x44,0x4(%esp)
    10d6:	00 
    10d7:	c7 04 24 01 00 00 00 	movl   $0x1,(%esp)
    10de:	e8 dd fc 00 00       	call   10dc0 <calloc>
    10e3:	89 c6                	mov    %eax,%esi
    10e5:	85 c0                	test   %eax,%eax
    10e7:	74 44                	je     112d <udp_assoc_new+0x6d>
    10e9:	8d 40 20             	lea    0x20(%eax),%eax
    10ec:	89 04 24             	mov    %eax,(%esp)
    10ef:	e8 0c 66 00 00       	call   7700 <fibril_mutex_initialize>
    10f4:	8d 46 34             	lea    0x34(%esi),%eax
    10f7:	89 46 34             	mov    %eax,0x34(%esi)
    10fa:	89 46 38             	mov    %eax,0x38(%esi)
    10fd:	8d 46 3c             	lea    0x3c(%esi),%eax
    1100:	c7 46 30 01 00 00 00 	movl   $0x1,0x30(%esi)
    1107:	89 04 24             	mov    %eax,(%esp)
    110a:	e8 81 6c 00 00       	call   7d90 <fibril_condvar_initialize>
    110f:	85 ff                	test   %edi,%edi
    1111:	74 0b                	je     111e <udp_assoc_new+0x5e>
    1113:	8b 07                	mov    (%edi),%eax
    1115:	8b 57 04             	mov    0x4(%edi),%edx
    1118:	89 56 10             	mov    %edx,0x10(%esi)
    111b:	89 46 0c             	mov    %eax,0xc(%esi)
    111e:	85 db                	test   %ebx,%ebx
    1120:	74 0b                	je     112d <udp_assoc_new+0x6d>
    1122:	8b 03                	mov    (%ebx),%eax
    1124:	8b 53 04             	mov    0x4(%ebx),%edx
    1127:	89 56 18             	mov    %edx,0x18(%esi)
    112a:	89 46 14             	mov    %eax,0x14(%esi)
    112d:	83 c4 1c             	add    $0x1c,%esp
    1130:	89 f0                	mov    %esi,%eax
    1132:	5b                   	pop    %ebx
    1133:	5e                   	pop    %esi
    1134:	5f                   	pop    %edi
    1135:	5d                   	pop    %ebp
    1136:	c3                   	ret    
    1137:	89 f6                	mov    %esi,%esi
    1139:	8d bc 27 00 00 00 00 	lea    0x0(%edi,%eiz,1),%edi

00001140 <udp_assoc_addref>:
    1140:	55                   	push   %ebp
    1141:	89 e5                	mov    %esp,%ebp
    1143:	53                   	push   %ebx
    1144:	83 ec 24             	sub    $0x24,%esp
    1147:	8b 5d 08             	mov    0x8(%ebp),%ebx
    114a:	89 5c 24 10          	mov    %ebx,0x10(%esp)
    114e:	8b 03                	mov    (%ebx),%eax
    1150:	c7 44 24 08 42 40 02 	movl   $0x24042,0x8(%esp)
    1157:	00 
    1158:	89 44 24 0c          	mov    %eax,0xc(%esp)
    115c:	c7 44 24 04 04 00 00 	movl   $0x4,0x4(%esp)
    1163:	00 
    1164:	c7 04 24 ff ff ff ff 	movl   $0xffffffff,(%esp)
    116b:	e8 40 ac 00 00       	call   bdb0 <log_msg>
    1170:	f0 ff 43 30          	lock incl 0x30(%ebx)
    1174:	83 c4 24             	add    $0x24,%esp
    1177:	5b                   	pop    %ebx
    1178:	5d                   	pop    %ebp
    1179:	c3                   	ret    
    117a:	8d b6 00 00 00 00    	lea    0x0(%esi),%esi

00001180 <udp_assoc_delref>:
    1180:	55                   	push   %ebp
    1181:	89 e5                	mov    %esp,%ebp
    1183:	57                   	push   %edi
    1184:	56                   	push   %esi
    1185:	53                   	push   %ebx
    1186:	83 ec 2c             	sub    $0x2c,%esp
    1189:	8b 75 08             	mov    0x8(%ebp),%esi
    118c:	89 74 24 10          	mov    %esi,0x10(%esp)
    1190:	8b 06                	mov    (%esi),%eax
    1192:	c7 44 24 08 5b 40 02 	movl   $0x2405b,0x8(%esp)
    1199:	00 
    119a:	89 44 24 0c          	mov    %eax,0xc(%esp)
    119e:	c7 44 24 04 04 00 00 	movl   $0x4,0x4(%esp)
    11a5:	00 
    11a6:	c7 04 24 ff ff ff ff 	movl   $0xffffffff,(%esp)
    11ad:	e8 fe ab 00 00       	call   bdb0 <log_msg>
    11b2:	83 c8 ff             	or     $0xffffffff,%eax
    11b5:	f0 0f c1 46 30       	lock xadd %eax,0x30(%esi)
    11ba:	48                   	dec    %eax
    11bb:	74 0b                	je     11c8 <udp_assoc_delref+0x48>
    11bd:	83 c4 2c             	add    $0x2c,%esp
    11c0:	5b                   	pop    %ebx
    11c1:	5e                   	pop    %esi
    11c2:	5f                   	pop    %edi
    11c3:	5d                   	pop    %ebp
    11c4:	c3                   	ret    
    11c5:	8d 76 00             	lea    0x0(%esi),%esi
    11c8:	89 74 24 10          	mov    %esi,0x10(%esp)
    11cc:	8d 7e 34             	lea    0x34(%esi),%edi
    11cf:	8b 06                	mov    (%esi),%eax
    11d1:	c7 44 24 08 74 40 02 	movl   $0x24074,0x8(%esp)
    11d8:	00 
    11d9:	89 44 24 0c          	mov    %eax,0xc(%esp)
    11dd:	c7 44 24 04 04 00 00 	movl   $0x4,0x4(%esp)
    11e4:	00 
    11e5:	c7 04 24 ff ff ff ff 	movl   $0xffffffff,(%esp)
    11ec:	e8 bf ab 00 00       	call   bdb0 <log_msg>
    11f1:	8b 5e 38             	mov    0x38(%esi),%ebx
    11f4:	39 fb                	cmp    %edi,%ebx
    11f6:	74 3b                	je     1233 <udp_assoc_delref+0xb3>
    11f8:	8b 13                	mov    (%ebx),%edx
    11fa:	85 d2                	test   %edx,%edx
    11fc:	74 0e                	je     120c <udp_assoc_delref+0x8c>
    11fe:	8b 43 04             	mov    0x4(%ebx),%eax
    1201:	85 c0                	test   %eax,%eax
    1203:	74 07                	je     120c <udp_assoc_delref+0x8c>
    1205:	89 10                	mov    %edx,(%eax)
    1207:	8b 13                	mov    (%ebx),%edx
    1209:	89 42 04             	mov    %eax,0x4(%edx)
    120c:	8b 43 18             	mov    0x18(%ebx),%eax
    120f:	c7 03 00 00 00 00    	movl   $0x0,(%ebx)
    1215:	c7 43 04 00 00 00 00 	movl   $0x0,0x4(%ebx)
    121c:	89 04 24             	mov    %eax,(%esp)
    121f:	e8 ec 08 00 00       	call   1b10 <udp_msg_delete>
    1224:	89 1c 24             	mov    %ebx,(%esp)
    1227:	e8 04 fd 00 00       	call   10f30 <free>
    122c:	8b 5e 38             	mov    0x38(%esi),%ebx
    122f:	39 fb                	cmp    %edi,%ebx
    1231:	75 c5                	jne    11f8 <udp_assoc_delref+0x78>
    1233:	89 75 08             	mov    %esi,0x8(%ebp)
    1236:	83 c4 2c             	add    $0x2c,%esp
    1239:	5b                   	pop    %ebx
    123a:	5e                   	pop    %esi
    123b:	5f                   	pop    %edi
    123c:	5d                   	pop    %ebp
    123d:	e9 ee fc 00 00       	jmp    10f30 <free>
    1242:	8d b4 26 00 00 00 00 	lea    0x0(%esi,%eiz,1),%esi
    1249:	8d bc 27 00 00 00 00 	lea    0x0(%edi,%eiz,1),%edi

00001250 <udp_assoc_delete>:
    1250:	55                   	push   %ebp
    1251:	89 e5                	mov    %esp,%ebp
    1253:	57                   	push   %edi
    1254:	56                   	push   %esi
    1255:	53                   	push   %ebx
    1256:	83 ec 2c             	sub    $0x2c,%esp
    1259:	8b 75 08             	mov    0x8(%ebp),%esi
    125c:	89 74 24 10          	mov    %esi,0x10(%esp)
    1260:	8b 06                	mov    (%esi),%eax
    1262:	c7 44 24 08 8b 40 02 	movl   $0x2408b,0x8(%esp)
    1269:	00 
    126a:	89 44 24 0c          	mov    %eax,0xc(%esp)
    126e:	c7 44 24 04 04 00 00 	movl   $0x4,0x4(%esp)
    1275:	00 
    1276:	c7 04 24 ff ff ff ff 	movl   $0xffffffff,(%esp)
    127d:	e8 2e ab 00 00       	call   bdb0 <log_msg>
    1282:	80 7e 1c 00          	cmpb   $0x0,0x1c(%esi)
    1286:	0f 85 c3 00 00 00    	jne    134f <udp_assoc_delete+0xff>
    128c:	89 74 24 10          	mov    %esi,0x10(%esp)
    1290:	8b 06                	mov    (%esi),%eax
    1292:	c7 44 24 08 5b 40 02 	movl   $0x2405b,0x8(%esp)
    1299:	00 
    129a:	89 44 24 0c          	mov    %eax,0xc(%esp)
    129e:	c7 44 24 04 04 00 00 	movl   $0x4,0x4(%esp)
    12a5:	00 
    12a6:	c7 04 24 ff ff ff ff 	movl   $0xffffffff,(%esp)
    12ad:	e8 fe aa 00 00       	call   bdb0 <log_msg>
    12b2:	83 c8 ff             	or     $0xffffffff,%eax
    12b5:	f0 0f c1 46 30       	lock xadd %eax,0x30(%esi)
    12ba:	48                   	dec    %eax
    12bb:	74 13                	je     12d0 <udp_assoc_delete+0x80>
    12bd:	c6 46 1c 01          	movb   $0x1,0x1c(%esi)
    12c1:	83 c4 2c             	add    $0x2c,%esp
    12c4:	5b                   	pop    %ebx
    12c5:	5e                   	pop    %esi
    12c6:	5f                   	pop    %edi
    12c7:	5d                   	pop    %ebp
    12c8:	c3                   	ret    
    12c9:	8d b4 26 00 00 00 00 	lea    0x0(%esi,%eiz,1),%esi
    12d0:	89 74 24 10          	mov    %esi,0x10(%esp)
    12d4:	8d 7e 34             	lea    0x34(%esi),%edi
    12d7:	8b 06                	mov    (%esi),%eax
    12d9:	c7 44 24 08 74 40 02 	movl   $0x24074,0x8(%esp)
    12e0:	00 
    12e1:	89 44 24 0c          	mov    %eax,0xc(%esp)
    12e5:	c7 44 24 04 04 00 00 	movl   $0x4,0x4(%esp)
    12ec:	00 
    12ed:	c7 04 24 ff ff ff ff 	movl   $0xffffffff,(%esp)
    12f4:	e8 b7 aa 00 00       	call   bdb0 <log_msg>
    12f9:	8b 5e 38             	mov    0x38(%esi),%ebx
    12fc:	39 fb                	cmp    %edi,%ebx
    12fe:	74 3b                	je     133b <udp_assoc_delete+0xeb>
    1300:	8b 13                	mov    (%ebx),%edx
    1302:	85 d2                	test   %edx,%edx
    1304:	74 0e                	je     1314 <udp_assoc_delete+0xc4>
    1306:	8b 43 04             	mov    0x4(%ebx),%eax
    1309:	85 c0                	test   %eax,%eax
    130b:	74 07                	je     1314 <udp_assoc_delete+0xc4>
    130d:	89 10                	mov    %edx,(%eax)
    130f:	8b 13                	mov    (%ebx),%edx
    1311:	89 42 04             	mov    %eax,0x4(%edx)
    1314:	8b 43 18             	mov    0x18(%ebx),%eax
    1317:	c7 03 00 00 00 00    	movl   $0x0,(%ebx)
    131d:	c7 43 04 00 00 00 00 	movl   $0x0,0x4(%ebx)
    1324:	89 04 24             	mov    %eax,(%esp)
    1327:	e8 e4 07 00 00       	call   1b10 <udp_msg_delete>
    132c:	89 1c 24             	mov    %ebx,(%esp)
    132f:	e8 fc fb 00 00       	call   10f30 <free>
    1334:	8b 5e 38             	mov    0x38(%esi),%ebx
    1337:	39 fb                	cmp    %edi,%ebx
    1339:	75 c5                	jne    1300 <udp_assoc_delete+0xb0>
    133b:	89 34 24             	mov    %esi,(%esp)
    133e:	e8 ed fb 00 00       	call   10f30 <free>
    1343:	c6 46 1c 01          	movb   $0x1,0x1c(%esi)
    1347:	83 c4 2c             	add    $0x2c,%esp
    134a:	5b                   	pop    %ebx
    134b:	5e                   	pop    %esi
    134c:	5f                   	pop    %edi
    134d:	5d                   	pop    %ebp
    134e:	c3                   	ret    
    134f:	c7 44 24 08 9e 00 00 	movl   $0x9e,0x8(%esp)
    1356:	00 
    1357:	c7 44 24 04 a4 40 02 	movl   $0x240a4,0x4(%esp)
    135e:	00 
    135f:	c7 04 24 ac 40 02 00 	movl   $0x240ac,(%esp)
    1366:	e8 e5 ad 01 00       	call   1c150 <assert_abort>
    136b:	90                   	nop
    136c:	8d 74 26 00          	lea    0x0(%esi,%eiz,1),%esi

00001370 <udp_assoc_add>:
    1370:	55                   	push   %ebp
    1371:	89 e5                	mov    %esp,%ebp
    1373:	53                   	push   %ebx
    1374:	83 ec 24             	sub    $0x24,%esp
    1377:	8b 5d 08             	mov    0x8(%ebp),%ebx
    137a:	89 5c 24 10          	mov    %ebx,0x10(%esp)
    137e:	8b 03                	mov    (%ebx),%eax
    1380:	c7 44 24 08 42 40 02 	movl   $0x24042,0x8(%esp)
    1387:	00 
    1388:	89 44 24 0c          	mov    %eax,0xc(%esp)
    138c:	c7 44 24 04 04 00 00 	movl   $0x4,0x4(%esp)
    1393:	00 
    1394:	c7 04 24 ff ff ff ff 	movl   $0xffffffff,(%esp)
    139b:	e8 10 aa 00 00       	call   bdb0 <log_msg>
    13a0:	f0 ff 43 30          	lock incl 0x30(%ebx)
    13a4:	c7 04 24 00 72 02 00 	movl   $0x27200,(%esp)
    13ab:	e8 70 63 00 00       	call   7720 <fibril_mutex_lock>
    13b0:	8b 15 10 72 02 00    	mov    0x27210,%edx
    13b6:	8d 43 04             	lea    0x4(%ebx),%eax
    13b9:	c7 43 08 10 72 02 00 	movl   $0x27210,0x8(%ebx)
    13c0:	89 53 04             	mov    %edx,0x4(%ebx)
    13c3:	89 42 04             	mov    %eax,0x4(%edx)
    13c6:	a3 10 72 02 00       	mov    %eax,0x27210
    13cb:	c7 45 08 00 72 02 00 	movl   $0x27200,0x8(%ebp)
    13d2:	83 c4 24             	add    $0x24,%esp
    13d5:	5b                   	pop    %ebx
    13d6:	5d                   	pop    %ebp
    13d7:	e9 64 64 00 00       	jmp    7840 <fibril_mutex_unlock>
    13dc:	8d 74 26 00          	lea    0x0(%esi,%eiz,1),%esi

000013e0 <udp_assoc_remove>:
    13e0:	55                   	push   %ebp
    13e1:	89 e5                	mov    %esp,%ebp
    13e3:	57                   	push   %edi
    13e4:	56                   	push   %esi
    13e5:	53                   	push   %ebx
    13e6:	83 ec 2c             	sub    $0x2c,%esp
    13e9:	8b 75 08             	mov    0x8(%ebp),%esi
    13ec:	c7 04 24 00 72 02 00 	movl   $0x27200,(%esp)
    13f3:	e8 28 63 00 00       	call   7720 <fibril_mutex_lock>
    13f8:	8b 56 04             	mov    0x4(%esi),%edx
    13fb:	85 d2                	test   %edx,%edx
    13fd:	74 0f                	je     140e <udp_assoc_remove+0x2e>
    13ff:	8b 46 08             	mov    0x8(%esi),%eax
    1402:	85 c0                	test   %eax,%eax
    1404:	74 08                	je     140e <udp_assoc_remove+0x2e>
    1406:	89 10                	mov    %edx,(%eax)
    1408:	8b 56 04             	mov    0x4(%esi),%edx
    140b:	89 42 04             	mov    %eax,0x4(%edx)
    140e:	c7 46 04 00 00 00 00 	movl   $0x0,0x4(%esi)
    1415:	c7 46 08 00 00 00 00 	movl   $0x0,0x8(%esi)
    141c:	c7 04 24 00 72 02 00 	movl   $0x27200,(%esp)
    1423:	e8 18 64 00 00       	call   7840 <fibril_mutex_unlock>
    1428:	89 74 24 10          	mov    %esi,0x10(%esp)
    142c:	8b 06                	mov    (%esi),%eax
    142e:	c7 44 24 08 5b 40 02 	movl   $0x2405b,0x8(%esp)
    1435:	00 
    1436:	89 44 24 0c          	mov    %eax,0xc(%esp)
    143a:	c7 44 24 04 04 00 00 	movl   $0x4,0x4(%esp)
    1441:	00 
    1442:	c7 04 24 ff ff ff ff 	movl   $0xffffffff,(%esp)
    1449:	e8 62 a9 00 00       	call   bdb0 <log_msg>
    144e:	83 c8 ff             	or     $0xffffffff,%eax
    1451:	f0 0f c1 46 30       	lock xadd %eax,0x30(%esi)
    1456:	48                   	dec    %eax
    1457:	74 0f                	je     1468 <udp_assoc_remove+0x88>
    1459:	83 c4 2c             	add    $0x2c,%esp
    145c:	5b                   	pop    %ebx
    145d:	5e                   	pop    %esi
    145e:	5f                   	pop    %edi
    145f:	5d                   	pop    %ebp
    1460:	c3                   	ret    
    1461:	8d b4 26 00 00 00 00 	lea    0x0(%esi,%eiz,1),%esi
    1468:	89 74 24 10          	mov    %esi,0x10(%esp)
    146c:	8d 7e 34             	lea    0x34(%esi),%edi
    146f:	8b 06                	mov    (%esi),%eax
    1471:	c7 44 24 08 74 40 02 	movl   $0x24074,0x8(%esp)
    1478:	00 
    1479:	89 44 24 0c          	mov    %eax,0xc(%esp)
    147d:	c7 44 24 04 04 00 00 	movl   $0x4,0x4(%esp)
    1484:	00 
    1485:	c7 04 24 ff ff ff ff 	movl   $0xffffffff,(%esp)
    148c:	e8 1f a9 00 00       	call   bdb0 <log_msg>
    1491:	8b 5e 38             	mov    0x38(%esi),%ebx
    1494:	39 fb                	cmp    %edi,%ebx
    1496:	74 3b                	je     14d3 <udp_assoc_remove+0xf3>
    1498:	8b 13                	mov    (%ebx),%edx
    149a:	85 d2                	test   %edx,%edx
    149c:	74 0e                	je     14ac <udp_assoc_remove+0xcc>
    149e:	8b 43 04             	mov    0x4(%ebx),%eax
    14a1:	85 c0                	test   %eax,%eax
    14a3:	74 07                	je     14ac <udp_assoc_remove+0xcc>
    14a5:	89 10                	mov    %edx,(%eax)
    14a7:	8b 13                	mov    (%ebx),%edx
    14a9:	89 42 04             	mov    %eax,0x4(%edx)
    14ac:	8b 43 18             	mov    0x18(%ebx),%eax
    14af:	c7 03 00 00 00 00    	movl   $0x0,(%ebx)
    14b5:	c7 43 04 00 00 00 00 	movl   $0x0,0x4(%ebx)
    14bc:	89 04 24             	mov    %eax,(%esp)
    14bf:	e8 4c 06 00 00       	call   1b10 <udp_msg_delete>
    14c4:	89 1c 24             	mov    %ebx,(%esp)
    14c7:	e8 64 fa 00 00       	call   10f30 <free>
    14cc:	8b 5e 38             	mov    0x38(%esi),%ebx
    14cf:	39 fb                	cmp    %edi,%ebx
    14d1:	75 c5                	jne    1498 <udp_assoc_remove+0xb8>
    14d3:	89 75 08             	mov    %esi,0x8(%ebp)
    14d6:	83 c4 2c             	add    $0x2c,%esp
    14d9:	5b                   	pop    %ebx
    14da:	5e                   	pop    %esi
    14db:	5f                   	pop    %edi
    14dc:	5d                   	pop    %ebp
    14dd:	e9 4e fa 00 00       	jmp    10f30 <free>
    14e2:	8d b4 26 00 00 00 00 	lea    0x0(%esi,%eiz,1),%esi
    14e9:	8d bc 27 00 00 00 00 	lea    0x0(%edi,%eiz,1),%edi

000014f0 <udp_assoc_set_foreign>:
    14f0:	55                   	push   %ebp
    14f1:	89 e5                	mov    %esp,%ebp
    14f3:	57                   	push   %edi
    14f4:	56                   	push   %esi
    14f5:	53                   	push   %ebx
    14f6:	83 ec 2c             	sub    $0x2c,%esp
    14f9:	8b 5d 08             	mov    0x8(%ebp),%ebx
    14fc:	8b 7d 0c             	mov    0xc(%ebp),%edi
    14ff:	89 7c 24 10          	mov    %edi,0x10(%esp)
    1503:	89 5c 24 0c          	mov    %ebx,0xc(%esp)
    1507:	8d 73 20             	lea    0x20(%ebx),%esi
    150a:	c7 44 24 08 c4 40 02 	movl   $0x240c4,0x8(%esp)
    1511:	00 
    1512:	c7 44 24 04 04 00 00 	movl   $0x4,0x4(%esp)
    1519:	00 
    151a:	c7 04 24 ff ff ff ff 	movl   $0xffffffff,(%esp)
    1521:	e8 8a a8 00 00       	call   bdb0 <log_msg>
    1526:	89 34 24             	mov    %esi,(%esp)
    1529:	e8 f2 61 00 00       	call   7720 <fibril_mutex_lock>
    152e:	8b 07                	mov    (%edi),%eax
    1530:	8b 57 04             	mov    0x4(%edi),%edx
    1533:	89 43 14             	mov    %eax,0x14(%ebx)
    1536:	89 53 18             	mov    %edx,0x18(%ebx)
    1539:	89 75 08             	mov    %esi,0x8(%ebp)
    153c:	83 c4 2c             	add    $0x2c,%esp
    153f:	5b                   	pop    %ebx
    1540:	5e                   	pop    %esi
    1541:	5f                   	pop    %edi
    1542:	5d                   	pop    %ebp
    1543:	e9 f8 62 00 00       	jmp    7840 <fibril_mutex_unlock>
    1548:	90                   	nop
    1549:	8d b4 26 00 00 00 00 	lea    0x0(%esi,%eiz,1),%esi

00001550 <udp_assoc_set_local>:
    1550:	55                   	push   %ebp
    1551:	89 e5                	mov    %esp,%ebp
    1553:	57                   	push   %edi
    1554:	56                   	push   %esi
    1555:	53                   	push   %ebx
    1556:	83 ec 2c             	sub    $0x2c,%esp
    1559:	8b 5d 08             	mov    0x8(%ebp),%ebx
    155c:	8b 7d 0c             	mov    0xc(%ebp),%edi
    155f:	89 7c 24 10          	mov    %edi,0x10(%esp)
    1563:	89 5c 24 0c          	mov    %ebx,0xc(%esp)
    1567:	8d 73 20             	lea    0x20(%ebx),%esi
    156a:	c7 44 24 08 e2 40 02 	movl   $0x240e2,0x8(%esp)
    1571:	00 
    1572:	c7 44 24 04 04 00 00 	movl   $0x4,0x4(%esp)
    1579:	00 
    157a:	c7 04 24 ff ff ff ff 	movl   $0xffffffff,(%esp)
    1581:	e8 2a a8 00 00       	call   bdb0 <log_msg>
    1586:	89 34 24             	mov    %esi,(%esp)
    1589:	e8 92 61 00 00       	call   7720 <fibril_mutex_lock>
    158e:	8b 07                	mov    (%edi),%eax
    1590:	8b 57 04             	mov    0x4(%edi),%edx
    1593:	89 43 0c             	mov    %eax,0xc(%ebx)
    1596:	89 53 10             	mov    %edx,0x10(%ebx)
    1599:	89 75 08             	mov    %esi,0x8(%ebp)
    159c:	83 c4 2c             	add    $0x2c,%esp
    159f:	5b                   	pop    %ebx
    15a0:	5e                   	pop    %esi
    15a1:	5f                   	pop    %edi
    15a2:	5d                   	pop    %ebp
    15a3:	e9 98 62 00 00       	jmp    7840 <fibril_mutex_unlock>
    15a8:	90                   	nop
    15a9:	8d b4 26 00 00 00 00 	lea    0x0(%esi,%eiz,1),%esi

000015b0 <udp_assoc_send>:
    15b0:	55                   	push   %ebp
    15b1:	89 e5                	mov    %esp,%ebp
    15b3:	57                   	push   %edi
    15b4:	56                   	push   %esi
    15b5:	53                   	push   %ebx
    15b6:	83 ec 4c             	sub    $0x4c,%esp
    15b9:	8b 75 08             	mov    0x8(%ebp),%esi
    15bc:	8b 7d 0c             	mov    0xc(%ebp),%edi
    15bf:	8b 5d 10             	mov    0x10(%ebp),%ebx
    15c2:	89 7c 24 10          	mov    %edi,0x10(%esp)
    15c6:	89 5c 24 14          	mov    %ebx,0x14(%esp)
    15ca:	89 74 24 0c          	mov    %esi,0xc(%esp)
    15ce:	c7 44 24 08 fe 40 02 	movl   $0x240fe,0x8(%esp)
    15d5:	00 
    15d6:	c7 44 24 04 04 00 00 	movl   $0x4,0x4(%esp)
    15dd:	00 
    15de:	c7 04 24 ff ff ff ff 	movl   $0xffffffff,(%esp)
    15e5:	e8 c6 a7 00 00       	call   bdb0 <log_msg>
    15ea:	8b 46 0c             	mov    0xc(%esi),%eax
    15ed:	89 45 d8             	mov    %eax,-0x28(%ebp)
    15f0:	8b 46 10             	mov    0x10(%esi),%eax
    15f3:	89 45 dc             	mov    %eax,-0x24(%ebp)
    15f6:	8b 46 14             	mov    0x14(%esi),%eax
    15f9:	89 45 e0             	mov    %eax,-0x20(%ebp)
    15fc:	8b 46 18             	mov    0x18(%esi),%eax
    15ff:	89 45 e4             	mov    %eax,-0x1c(%ebp)
    1602:	85 ff                	test   %edi,%edi
    1604:	74 0b                	je     1611 <udp_assoc_send+0x61>
    1606:	8b 07                	mov    (%edi),%eax
    1608:	8b 57 04             	mov    0x4(%edi),%edx
    160b:	89 45 e0             	mov    %eax,-0x20(%ebp)
    160e:	89 55 e4             	mov    %edx,-0x1c(%ebp)
    1611:	8b 45 e0             	mov    -0x20(%ebp),%eax
    1614:	85 c0                	test   %eax,%eax
    1616:	74 48                	je     1660 <udp_assoc_send+0xb0>
    1618:	66 83 7d e4 00       	cmpw   $0x0,-0x1c(%ebp)
    161d:	74 41                	je     1660 <udp_assoc_send+0xb0>
    161f:	8d 45 d4             	lea    -0x2c(%ebp),%eax
    1622:	89 5c 24 04          	mov    %ebx,0x4(%esp)
    1626:	89 44 24 08          	mov    %eax,0x8(%esp)
    162a:	8d 45 d8             	lea    -0x28(%ebp),%eax
    162d:	89 04 24             	mov    %eax,(%esp)
    1630:	e8 6b 15 00 00       	call   2ba0 <udp_pdu_encode>
    1635:	85 c0                	test   %eax,%eax
    1637:	75 37                	jne    1670 <udp_assoc_send+0xc0>
    1639:	8b 45 d4             	mov    -0x2c(%ebp),%eax
    163c:	89 04 24             	mov    %eax,(%esp)
    163f:	e8 ac 1b 00 00       	call   31f0 <udp_transmit_pdu>
    1644:	85 c0                	test   %eax,%eax
    1646:	75 30                	jne    1678 <udp_assoc_send+0xc8>
    1648:	8b 45 d4             	mov    -0x2c(%ebp),%eax
    164b:	89 04 24             	mov    %eax,(%esp)
    164e:	e8 8d 14 00 00       	call   2ae0 <udp_pdu_delete>
    1653:	31 c0                	xor    %eax,%eax
    1655:	83 c4 4c             	add    $0x4c,%esp
    1658:	5b                   	pop    %ebx
    1659:	5e                   	pop    %esi
    165a:	5f                   	pop    %edi
    165b:	5d                   	pop    %ebp
    165c:	c3                   	ret    
    165d:	8d 76 00             	lea    0x0(%esi),%esi
    1660:	83 c4 4c             	add    $0x4c,%esp
    1663:	b8 f2 ff ff ff       	mov    $0xfffffff2,%eax
    1668:	5b                   	pop    %ebx
    1669:	5e                   	pop    %esi
    166a:	5f                   	pop    %edi
    166b:	5d                   	pop    %ebp
    166c:	c3                   	ret    
    166d:	8d 76 00             	lea    0x0(%esi),%esi
    1670:	b8 fe ff ff ff       	mov    $0xfffffffe,%eax
    1675:	eb de                	jmp    1655 <udp_assoc_send+0xa5>
    1677:	90                   	nop
    1678:	b8 f7 fe ff ff       	mov    $0xfffffef7,%eax
    167d:	eb d6                	jmp    1655 <udp_assoc_send+0xa5>
    167f:	90                   	nop

00001680 <udp_assoc_recv>:
    1680:	55                   	push   %ebp
    1681:	89 e5                	mov    %esp,%ebp
    1683:	57                   	push   %edi
    1684:	56                   	push   %esi
    1685:	53                   	push   %ebx
    1686:	83 ec 2c             	sub    $0x2c,%esp
    1689:	8b 5d 08             	mov    0x8(%ebp),%ebx
    168c:	c7 44 24 08 19 41 02 	movl   $0x24119,0x8(%esp)
    1693:	00 
    1694:	c7 44 24 04 04 00 00 	movl   $0x4,0x4(%esp)
    169b:	00 
    169c:	c7 04 24 ff ff ff ff 	movl   $0xffffffff,(%esp)
    16a3:	8d 7b 20             	lea    0x20(%ebx),%edi
    16a6:	e8 05 a7 00 00       	call   bdb0 <log_msg>
    16ab:	89 3c 24             	mov    %edi,(%esp)
    16ae:	e8 6d 60 00 00       	call   7720 <fibril_mutex_lock>
    16b3:	8b 73 38             	mov    0x38(%ebx),%esi
    16b6:	8d 43 34             	lea    0x34(%ebx),%eax
    16b9:	39 c6                	cmp    %eax,%esi
    16bb:	0f 85 b5 00 00 00    	jne    1776 <udp_assoc_recv+0xf6>
    16c1:	8d 43 3c             	lea    0x3c(%ebx),%eax
    16c4:	89 45 e4             	mov    %eax,-0x1c(%ebp)
    16c7:	90                   	nop
    16c8:	c7 44 24 08 2a 41 02 	movl   $0x2412a,0x8(%esp)
    16cf:	00 
    16d0:	c7 44 24 04 04 00 00 	movl   $0x4,0x4(%esp)
    16d7:	00 
    16d8:	c7 04 24 ff ff ff ff 	movl   $0xffffffff,(%esp)
    16df:	e8 cc a6 00 00       	call   bdb0 <log_msg>
    16e4:	8b 45 e4             	mov    -0x1c(%ebp),%eax
    16e7:	89 7c 24 04          	mov    %edi,0x4(%esp)
    16eb:	89 04 24             	mov    %eax,(%esp)
    16ee:	e8 7d 6c 00 00       	call   8370 <fibril_condvar_wait>
    16f3:	39 73 38             	cmp    %esi,0x38(%ebx)
    16f6:	74 d0                	je     16c8 <udp_assoc_recv+0x48>
    16f8:	c7 44 24 08 c4 41 02 	movl   $0x241c4,0x8(%esp)
    16ff:	00 
    1700:	c7 44 24 04 04 00 00 	movl   $0x4,0x4(%esp)
    1707:	00 
    1708:	c7 04 24 ff ff ff ff 	movl   $0xffffffff,(%esp)
    170f:	e8 9c a6 00 00       	call   bdb0 <log_msg>
    1714:	8b 5b 38             	mov    0x38(%ebx),%ebx
    1717:	39 de                	cmp    %ebx,%esi
    1719:	0f 95 c0             	setne  %al
    171c:	25 ff 00 00 00       	and    $0xff,%eax
    1721:	f7 d8                	neg    %eax
    1723:	21 c3                	and    %eax,%ebx
    1725:	8b 13                	mov    (%ebx),%edx
    1727:	85 d2                	test   %edx,%edx
    1729:	74 0e                	je     1739 <udp_assoc_recv+0xb9>
    172b:	8b 43 04             	mov    0x4(%ebx),%eax
    172e:	85 c0                	test   %eax,%eax
    1730:	74 07                	je     1739 <udp_assoc_recv+0xb9>
    1732:	89 10                	mov    %edx,(%eax)
    1734:	8b 13                	mov    (%ebx),%edx
    1736:	89 42 04             	mov    %eax,0x4(%edx)
    1739:	c7 03 00 00 00 00    	movl   $0x0,(%ebx)
    173f:	c7 43 04 00 00 00 00 	movl   $0x0,0x4(%ebx)
    1746:	89 3c 24             	mov    %edi,(%esp)
    1749:	e8 f2 60 00 00       	call   7840 <fibril_mutex_unlock>
    174e:	8b 45 0c             	mov    0xc(%ebp),%eax
    1751:	8b 53 18             	mov    0x18(%ebx),%edx
    1754:	8b 4d 10             	mov    0x10(%ebp),%ecx
    1757:	89 10                	mov    %edx,(%eax)
    1759:	8b 43 10             	mov    0x10(%ebx),%eax
    175c:	8b 53 14             	mov    0x14(%ebx),%edx
    175f:	89 01                	mov    %eax,(%ecx)
    1761:	89 51 04             	mov    %edx,0x4(%ecx)
    1764:	89 1c 24             	mov    %ebx,(%esp)
    1767:	e8 c4 f7 00 00       	call   10f30 <free>
    176c:	83 c4 2c             	add    $0x2c,%esp
    176f:	31 c0                	xor    %eax,%eax
    1771:	5b                   	pop    %ebx
    1772:	5e                   	pop    %esi
    1773:	5f                   	pop    %edi
    1774:	5d                   	pop    %ebp
    1775:	c3                   	ret    
    1776:	89 c6                	mov    %eax,%esi
    1778:	e9 7b ff ff ff       	jmp    16f8 <udp_assoc_recv+0x78>
    177d:	8d 76 00             	lea    0x0(%esi),%esi

00001780 <udp_assoc_received>:
    1780:	55                   	push   %ebp
    1781:	89 e5                	mov    %esp,%ebp
    1783:	57                   	push   %edi
    1784:	56                   	push   %esi
    1785:	53                   	push   %ebx
    1786:	83 ec 3c             	sub    $0x3c,%esp
    1789:	8b 55 0c             	mov    0xc(%ebp),%edx
    178c:	8b 75 08             	mov    0x8(%ebp),%esi
    178f:	89 54 24 10          	mov    %edx,0x10(%esp)
    1793:	89 74 24 0c          	mov    %esi,0xc(%esp)
    1797:	c7 44 24 08 45 41 02 	movl   $0x24145,0x8(%esp)
    179e:	00 
    179f:	c7 44 24 04 04 00 00 	movl   $0x4,0x4(%esp)
    17a6:	00 
    17a7:	c7 04 24 ff ff ff ff 	movl   $0xffffffff,(%esp)
    17ae:	89 55 e4             	mov    %edx,-0x1c(%ebp)
    17b1:	e8 fa a5 00 00       	call   bdb0 <log_msg>
    17b6:	89 74 24 0c          	mov    %esi,0xc(%esp)
    17ba:	c7 44 24 08 60 41 02 	movl   $0x24160,0x8(%esp)
    17c1:	00 
    17c2:	c7 44 24 04 04 00 00 	movl   $0x4,0x4(%esp)
    17c9:	00 
    17ca:	c7 04 24 ff ff ff ff 	movl   $0xffffffff,(%esp)
    17d1:	e8 da a5 00 00       	call   bdb0 <log_msg>
    17d6:	c7 04 24 00 72 02 00 	movl   $0x27200,(%esp)
    17dd:	e8 3e 5f 00 00       	call   7720 <fibril_mutex_lock>
    17e2:	8b 3d 14 72 02 00    	mov    0x27214,%edi
    17e8:	81 ff 10 72 02 00    	cmp    $0x27210,%edi
    17ee:	75 17                	jne    1807 <udp_assoc_received+0x87>
    17f0:	e9 ab 02 00 00       	jmp    1aa0 <udp_assoc_received+0x320>
    17f5:	8d 76 00             	lea    0x0(%esi),%esi
    17f8:	8b 7f 04             	mov    0x4(%edi),%edi
    17fb:	81 ff 10 72 02 00    	cmp    $0x27210,%edi
    1801:	0f 84 99 02 00 00    	je     1aa0 <udp_assoc_received+0x320>
    1807:	8d 5f fc             	lea    -0x4(%edi),%ebx
    180a:	8b 53 10             	mov    0x10(%ebx),%edx
    180d:	81 e2 ff ff 00 00    	and    $0xffff,%edx
    1813:	89 54 24 18          	mov    %edx,0x18(%esp)
    1817:	8b 53 0c             	mov    0xc(%ebx),%edx
    181a:	89 54 24 14          	mov    %edx,0x14(%esp)
    181e:	8b 53 18             	mov    0x18(%ebx),%edx
    1821:	81 e2 ff ff 00 00    	and    $0xffff,%edx
    1827:	89 54 24 10          	mov    %edx,0x10(%esp)
    182b:	8b 53 14             	mov    0x14(%ebx),%edx
    182e:	c7 44 24 08 10 42 02 	movl   $0x24210,0x8(%esp)
    1835:	00 
    1836:	89 54 24 0c          	mov    %edx,0xc(%esp)
    183a:	c7 44 24 04 04 00 00 	movl   $0x4,0x4(%esp)
    1841:	00 
    1842:	c7 04 24 ff ff ff ff 	movl   $0xffffffff,(%esp)
    1849:	e8 62 a5 00 00       	call   bdb0 <log_msg>
    184e:	66 83 7b 10 00       	cmpw   $0x0,0x10(%ebx)
    1853:	74 a3                	je     17f8 <udp_assoc_received+0x78>
    1855:	8d 57 08             	lea    0x8(%edi),%edx
    1858:	89 74 24 0c          	mov    %esi,0xc(%esp)
    185c:	89 54 24 10          	mov    %edx,0x10(%esp)
    1860:	c7 44 24 08 77 41 02 	movl   $0x24177,0x8(%esp)
    1867:	00 
    1868:	c7 44 24 04 04 00 00 	movl   $0x4,0x4(%esp)
    186f:	00 
    1870:	c7 04 24 ff ff ff ff 	movl   $0xffffffff,(%esp)
    1877:	e8 34 a5 00 00       	call   bdb0 <log_msg>
    187c:	8b 53 10             	mov    0x10(%ebx),%edx
    187f:	81 e2 ff ff 00 00    	and    $0xffff,%edx
    1885:	89 54 24 18          	mov    %edx,0x18(%esp)
    1889:	8b 53 0c             	mov    0xc(%ebx),%edx
    188c:	89 54 24 14          	mov    %edx,0x14(%esp)
    1890:	8b 56 04             	mov    0x4(%esi),%edx
    1893:	81 e2 ff ff 00 00    	and    $0xffff,%edx
    1899:	89 54 24 10          	mov    %edx,0x10(%esp)
    189d:	8b 16                	mov    (%esi),%edx
    189f:	c7 44 24 08 3c 42 02 	movl   $0x2423c,0x8(%esp)
    18a6:	00 
    18a7:	89 54 24 0c          	mov    %edx,0xc(%esp)
    18ab:	c7 44 24 04 04 00 00 	movl   $0x4,0x4(%esp)
    18b2:	00 
    18b3:	c7 04 24 ff ff ff ff 	movl   $0xffffffff,(%esp)
    18ba:	e8 f1 a4 00 00       	call   bdb0 <log_msg>
    18bf:	8b 53 0c             	mov    0xc(%ebx),%edx
    18c2:	85 d2                	test   %edx,%edx
    18c4:	74 08                	je     18ce <udp_assoc_received+0x14e>
    18c6:	3b 16                	cmp    (%esi),%edx
    18c8:	0f 85 2a ff ff ff    	jne    17f8 <udp_assoc_received+0x78>
    18ce:	8b 53 10             	mov    0x10(%ebx),%edx
    18d1:	66 85 d2             	test   %dx,%dx
    18d4:	74 0a                	je     18e0 <udp_assoc_received+0x160>
    18d6:	66 3b 56 04          	cmp    0x4(%esi),%dx
    18da:	0f 85 18 ff ff ff    	jne    17f8 <udp_assoc_received+0x78>
    18e0:	c7 44 24 08 92 41 02 	movl   $0x24192,0x8(%esp)
    18e7:	00 
    18e8:	c7 44 24 04 04 00 00 	movl   $0x4,0x4(%esp)
    18ef:	00 
    18f0:	c7 04 24 ff ff ff ff 	movl   $0xffffffff,(%esp)
    18f7:	e8 b4 a4 00 00       	call   bdb0 <log_msg>
    18fc:	8b 53 18             	mov    0x18(%ebx),%edx
    18ff:	81 e2 ff ff 00 00    	and    $0xffff,%edx
    1905:	89 54 24 18          	mov    %edx,0x18(%esp)
    1909:	8b 53 14             	mov    0x14(%ebx),%edx
    190c:	89 54 24 14          	mov    %edx,0x14(%esp)
    1910:	8b 56 0c             	mov    0xc(%esi),%edx
    1913:	81 e2 ff ff 00 00    	and    $0xffff,%edx
    1919:	89 54 24 10          	mov    %edx,0x10(%esp)
    191d:	8b 56 08             	mov    0x8(%esi),%edx
    1920:	c7 44 24 08 3c 42 02 	movl   $0x2423c,0x8(%esp)
    1927:	00 
    1928:	89 54 24 0c          	mov    %edx,0xc(%esp)
    192c:	c7 44 24 04 04 00 00 	movl   $0x4,0x4(%esp)
    1933:	00 
    1934:	c7 04 24 ff ff ff ff 	movl   $0xffffffff,(%esp)
    193b:	e8 70 a4 00 00       	call   bdb0 <log_msg>
    1940:	8b 53 14             	mov    0x14(%ebx),%edx
    1943:	85 d2                	test   %edx,%edx
    1945:	74 09                	je     1950 <udp_assoc_received+0x1d0>
    1947:	3b 56 08             	cmp    0x8(%esi),%edx
    194a:	0f 85 a8 fe ff ff    	jne    17f8 <udp_assoc_received+0x78>
    1950:	8b 53 18             	mov    0x18(%ebx),%edx
    1953:	66 85 d2             	test   %dx,%dx
    1956:	74 0a                	je     1962 <udp_assoc_received+0x1e2>
    1958:	66 3b 56 0c          	cmp    0xc(%esi),%dx
    195c:	0f 85 96 fe ff ff    	jne    17f8 <udp_assoc_received+0x78>
    1962:	c7 44 24 08 92 41 02 	movl   $0x24192,0x8(%esp)
    1969:	00 
    196a:	c7 44 24 04 04 00 00 	movl   $0x4,0x4(%esp)
    1971:	00 
    1972:	c7 04 24 ff ff ff ff 	movl   $0xffffffff,(%esp)
    1979:	e8 32 a4 00 00       	call   bdb0 <log_msg>
    197e:	c7 44 24 08 9c 41 02 	movl   $0x2419c,0x8(%esp)
    1985:	00 
    1986:	c7 44 24 04 04 00 00 	movl   $0x4,0x4(%esp)
    198d:	00 
    198e:	c7 04 24 ff ff ff ff 	movl   $0xffffffff,(%esp)
    1995:	e8 16 a4 00 00       	call   bdb0 <log_msg>
    199a:	89 5c 24 0c          	mov    %ebx,0xc(%esp)
    199e:	c7 44 24 08 b1 41 02 	movl   $0x241b1,0x8(%esp)
    19a5:	00 
    19a6:	c7 44 24 04 04 00 00 	movl   $0x4,0x4(%esp)
    19ad:	00 
    19ae:	c7 04 24 ff ff ff ff 	movl   $0xffffffff,(%esp)
    19b5:	e8 f6 a3 00 00       	call   bdb0 <log_msg>
    19ba:	89 5c 24 10          	mov    %ebx,0x10(%esp)
    19be:	8b 03                	mov    (%ebx),%eax
    19c0:	c7 44 24 08 42 40 02 	movl   $0x24042,0x8(%esp)
    19c7:	00 
    19c8:	89 44 24 0c          	mov    %eax,0xc(%esp)
    19cc:	c7 44 24 04 04 00 00 	movl   $0x4,0x4(%esp)
    19d3:	00 
    19d4:	c7 04 24 ff ff ff ff 	movl   $0xffffffff,(%esp)
    19db:	e8 d0 a3 00 00       	call   bdb0 <log_msg>
    19e0:	f0 ff 43 30          	lock incl 0x30(%ebx)
    19e4:	c7 04 24 00 72 02 00 	movl   $0x27200,(%esp)
    19eb:	e8 50 5e 00 00       	call   7840 <fibril_mutex_unlock>
    19f0:	8b 55 e4             	mov    -0x1c(%ebp),%edx
    19f3:	89 54 24 14          	mov    %edx,0x14(%esp)
    19f7:	89 74 24 10          	mov    %esi,0x10(%esp)
    19fb:	89 5c 24 0c          	mov    %ebx,0xc(%esp)
    19ff:	c7 44 24 08 68 42 02 	movl   $0x24268,0x8(%esp)
    1a06:	00 
    1a07:	c7 44 24 04 04 00 00 	movl   $0x4,0x4(%esp)
    1a0e:	00 
    1a0f:	c7 04 24 ff ff ff ff 	movl   $0xffffffff,(%esp)
    1a16:	e8 95 a3 00 00       	call   bdb0 <log_msg>
    1a1b:	c7 44 24 04 1c 00 00 	movl   $0x1c,0x4(%esp)
    1a22:	00 
    1a23:	c7 04 24 01 00 00 00 	movl   $0x1,(%esp)
    1a2a:	e8 91 f3 00 00       	call   10dc0 <calloc>
    1a2f:	85 c0                	test   %eax,%eax
    1a31:	0f 84 99 00 00 00    	je     1ad0 <udp_assoc_received+0x350>
    1a37:	8b 16                	mov    (%esi),%edx
    1a39:	c7 00 00 00 00 00    	movl   $0x0,(%eax)
    1a3f:	89 50 08             	mov    %edx,0x8(%eax)
    1a42:	c7 40 04 00 00 00 00 	movl   $0x0,0x4(%eax)
    1a49:	8b 56 04             	mov    0x4(%esi),%edx
    1a4c:	89 50 0c             	mov    %edx,0xc(%eax)
    1a4f:	8b 56 08             	mov    0x8(%esi),%edx
    1a52:	89 50 10             	mov    %edx,0x10(%eax)
    1a55:	8b 56 0c             	mov    0xc(%esi),%edx
    1a58:	8d 73 20             	lea    0x20(%ebx),%esi
    1a5b:	89 50 14             	mov    %edx,0x14(%eax)
    1a5e:	8b 55 e4             	mov    -0x1c(%ebp),%edx
    1a61:	89 50 18             	mov    %edx,0x18(%eax)
    1a64:	89 34 24             	mov    %esi,(%esp)
    1a67:	89 45 e0             	mov    %eax,-0x20(%ebp)
    1a6a:	e8 b1 5c 00 00       	call   7720 <fibril_mutex_lock>
    1a6f:	8b 45 e0             	mov    -0x20(%ebp),%eax
    1a72:	8d 53 34             	lea    0x34(%ebx),%edx
    1a75:	89 50 04             	mov    %edx,0x4(%eax)
    1a78:	8b 53 34             	mov    0x34(%ebx),%edx
    1a7b:	89 10                	mov    %edx,(%eax)
    1a7d:	8b 53 34             	mov    0x34(%ebx),%edx
    1a80:	89 43 34             	mov    %eax,0x34(%ebx)
    1a83:	83 c3 3c             	add    $0x3c,%ebx
    1a86:	89 42 04             	mov    %eax,0x4(%edx)
    1a89:	89 34 24             	mov    %esi,(%esp)
    1a8c:	e8 af 5d 00 00       	call   7840 <fibril_mutex_unlock>
    1a91:	89 5d 08             	mov    %ebx,0x8(%ebp)
    1a94:	83 c4 3c             	add    $0x3c,%esp
    1a97:	5b                   	pop    %ebx
    1a98:	5e                   	pop    %esi
    1a99:	5f                   	pop    %edi
    1a9a:	5d                   	pop    %ebp
    1a9b:	e9 a0 69 00 00       	jmp    8440 <fibril_condvar_broadcast>
    1aa0:	c7 04 24 00 72 02 00 	movl   $0x27200,(%esp)
    1aa7:	e8 94 5d 00 00       	call   7840 <fibril_mutex_unlock>
    1aac:	c7 44 24 08 e8 41 02 	movl   $0x241e8,0x8(%esp)
    1ab3:	00 
    1ab4:	c7 44 24 04 04 00 00 	movl   $0x4,0x4(%esp)
    1abb:	00 
    1abc:	c7 04 24 ff ff ff ff 	movl   $0xffffffff,(%esp)
    1ac3:	e8 e8 a2 00 00       	call   bdb0 <log_msg>
    1ac8:	83 c4 3c             	add    $0x3c,%esp
    1acb:	5b                   	pop    %ebx
    1acc:	5e                   	pop    %esi
    1acd:	5f                   	pop    %edi
    1ace:	5d                   	pop    %ebp
    1acf:	c3                   	ret    
    1ad0:	c7 44 24 08 88 42 02 	movl   $0x24288,0x8(%esp)
    1ad7:	00 
    1ad8:	c7 44 24 04 04 00 00 	movl   $0x4,0x4(%esp)
    1adf:	00 
    1ae0:	c7 04 24 ff ff ff ff 	movl   $0xffffffff,(%esp)
    1ae7:	e8 c4 a2 00 00       	call   bdb0 <log_msg>
    1aec:	eb da                	jmp    1ac8 <udp_assoc_received+0x348>
    1aee:	66 90                	xchg   %ax,%ax

00001af0 <udp_msg_new>:
    1af0:	55                   	push   %ebp
    1af1:	89 e5                	mov    %esp,%ebp
    1af3:	83 ec 18             	sub    $0x18,%esp
    1af6:	c7 44 24 04 08 00 00 	movl   $0x8,0x4(%esp)
    1afd:	00 
    1afe:	c7 04 24 01 00 00 00 	movl   $0x1,(%esp)
    1b05:	e8 b6 f2 00 00       	call   10dc0 <calloc>
    1b0a:	c9                   	leave  
    1b0b:	c3                   	ret    
    1b0c:	8d 74 26 00          	lea    0x0(%esi,%eiz,1),%esi

00001b10 <udp_msg_delete>:
    1b10:	55                   	push   %ebp
    1b11:	89 e5                	mov    %esp,%ebp
    1b13:	5d                   	pop    %ebp
    1b14:	e9 17 f4 00 00       	jmp    10f30 <free>
    1b19:	66 90                	xchg   %ax,%ax
    1b1b:	66 90                	xchg   %ax,%ax
    1b1d:	66 90                	xchg   %ax,%ax
    1b1f:	90                   	nop

00001b20 <udp_free_sock_data>:
    1b20:	55                   	push   %ebp
    1b21:	89 e5                	mov    %esp,%ebp
    1b23:	5d                   	pop    %ebp
    1b24:	c3                   	ret    
    1b25:	8d 74 26 00          	lea    0x0(%esi,%eiz,1),%esi
    1b29:	8d bc 27 00 00 00 00 	lea    0x0(%edi,%eiz,1),%edi

00001b30 <udp_sock_recv_fibril>:
    1b30:	55                   	push   %ebp
    1b31:	89 e5                	mov    %esp,%ebp
    1b33:	57                   	push   %edi
    1b34:	56                   	push   %esi
    1b35:	53                   	push   %ebx
    1b36:	83 ec 4c             	sub    $0x4c,%esp
    1b39:	8b 5d 08             	mov    0x8(%ebp),%ebx
    1b3c:	c7 44 24 08 a8 42 02 	movl   $0x242a8,0x8(%esp)
    1b43:	00 
    1b44:	c7 44 24 04 04 00 00 	movl   $0x4,0x4(%esp)
    1b4b:	00 
    1b4c:	c7 04 24 ff ff ff ff 	movl   $0xffffffff,(%esp)
    1b53:	8d b3 2c 10 00 00    	lea    0x102c(%ebx),%esi
    1b59:	e8 52 a2 00 00       	call   bdb0 <log_msg>
    1b5e:	8d 83 24 10 00 00    	lea    0x1024(%ebx),%eax
    1b64:	89 45 d4             	mov    %eax,-0x2c(%ebp)
    1b67:	8d 43 20             	lea    0x20(%ebx),%eax
    1b6a:	89 45 d0             	mov    %eax,-0x30(%ebp)
    1b6d:	8d bb 3c 10 00 00    	lea    0x103c(%ebx),%edi
    1b73:	90                   	nop
    1b74:	8d 74 26 00          	lea    0x0(%esi,%eiz,1),%esi
    1b78:	c7 44 24 08 34 45 02 	movl   $0x24534,0x8(%esp)
    1b7f:	00 
    1b80:	c7 44 24 04 04 00 00 	movl   $0x4,0x4(%esp)
    1b87:	00 
    1b88:	c7 04 24 ff ff ff ff 	movl   $0xffffffff,(%esp)
    1b8f:	e8 1c a2 00 00       	call   bdb0 <log_msg>
    1b94:	89 34 24             	mov    %esi,(%esp)
    1b97:	e8 84 5b 00 00       	call   7720 <fibril_mutex_lock>
    1b9c:	8b 93 20 10 00 00    	mov    0x1020(%ebx),%edx
    1ba2:	85 d2                	test   %edx,%edx
    1ba4:	74 18                	je     1bbe <udp_sock_recv_fibril+0x8e>
    1ba6:	66 90                	xchg   %ax,%ax
    1ba8:	89 74 24 04          	mov    %esi,0x4(%esp)
    1bac:	89 3c 24             	mov    %edi,(%esp)
    1baf:	e8 bc 67 00 00       	call   8370 <fibril_condvar_wait>
    1bb4:	8b 83 20 10 00 00    	mov    0x1020(%ebx),%eax
    1bba:	85 c0                	test   %eax,%eax
    1bbc:	75 ea                	jne    1ba8 <udp_sock_recv_fibril+0x78>
    1bbe:	c7 44 24 08 bf 42 02 	movl   $0x242bf,0x8(%esp)
    1bc5:	00 
    1bc6:	c7 44 24 04 04 00 00 	movl   $0x4,0x4(%esp)
    1bcd:	00 
    1bce:	c7 04 24 ff ff ff ff 	movl   $0xffffffff,(%esp)
    1bd5:	e8 d6 a1 00 00       	call   bdb0 <log_msg>
    1bda:	8b 45 d4             	mov    -0x2c(%ebp),%eax
    1bdd:	89 44 24 14          	mov    %eax,0x14(%esp)
    1be1:	8d 45 e0             	lea    -0x20(%ebp),%eax
    1be4:	89 44 24 10          	mov    %eax,0x10(%esp)
    1be8:	8d 45 e4             	lea    -0x1c(%ebp),%eax
    1beb:	89 44 24 0c          	mov    %eax,0xc(%esp)
    1bef:	8b 45 d0             	mov    -0x30(%ebp),%eax
    1bf2:	c7 44 24 08 00 10 00 	movl   $0x1000,0x8(%esp)
    1bf9:	00 
    1bfa:	89 44 24 04          	mov    %eax,0x4(%esp)
    1bfe:	8b 43 18             	mov    0x18(%ebx),%eax
    1c01:	89 04 24             	mov    %eax,(%esp)
    1c04:	e8 47 13 00 00       	call   2f50 <udp_uc_receive>
    1c09:	8b 53 10             	mov    0x10(%ebx),%edx
    1c0c:	89 83 44 10 00 00    	mov    %eax,0x1044(%ebx)
    1c12:	89 c1                	mov    %eax,%ecx
    1c14:	8b 02                	mov    (%edx),%eax
    1c16:	c7 44 24 08 d8 42 02 	movl   $0x242d8,0x8(%esp)
    1c1d:	00 
    1c1e:	89 44 24 0c          	mov    %eax,0xc(%esp)
    1c22:	c7 44 24 04 04 00 00 	movl   $0x4,0x4(%esp)
    1c29:	00 
    1c2a:	c7 04 24 ff ff ff ff 	movl   $0xffffffff,(%esp)
    1c31:	89 4d cc             	mov    %ecx,-0x34(%ebp)
    1c34:	89 55 c8             	mov    %edx,-0x38(%ebp)
    1c37:	e8 74 a1 00 00       	call   bdb0 <log_msg>
    1c3c:	8b 55 c8             	mov    -0x38(%ebp),%edx
    1c3f:	8b 42 04             	mov    0x4(%edx),%eax
    1c42:	89 04 24             	mov    %eax,(%esp)
    1c45:	e8 16 27 01 00       	call   14360 <async_exchange_begin>
    1c4a:	8b 55 c8             	mov    -0x38(%ebp),%edx
    1c4d:	c7 44 24 18 01 00 00 	movl   $0x1,0x18(%esp)
    1c54:	00 
    1c55:	c7 44 24 14 00 00 00 	movl   $0x0,0x14(%esp)
    1c5c:	00 
    1c5d:	c7 44 24 10 00 00 00 	movl   $0x0,0x10(%esp)
    1c64:	00 
    1c65:	c7 44 24 0c 00 10 00 	movl   $0x1000,0xc(%esp)
    1c6c:	00 
    1c6d:	8b 12                	mov    (%edx),%edx
    1c6f:	89 04 24             	mov    %eax,(%esp)
    1c72:	89 54 24 08          	mov    %edx,0x8(%esp)
    1c76:	c7 44 24 04 0d 04 00 	movl   $0x40d,0x4(%esp)
    1c7d:	00 
    1c7e:	89 45 c8             	mov    %eax,-0x38(%ebp)
    1c81:	e8 7a 1c 01 00       	call   13900 <async_msg_5>
    1c86:	8b 45 c8             	mov    -0x38(%ebp),%eax
    1c89:	89 04 24             	mov    %eax,(%esp)
    1c8c:	e8 3f 2a 01 00       	call   146d0 <async_exchange_end>
    1c91:	8b 4d cc             	mov    -0x34(%ebp),%ecx
    1c94:	85 c9                	test   %ecx,%ecx
    1c96:	75 3a                	jne    1cd2 <udp_sock_recv_fibril+0x1a2>
    1c98:	c7 44 24 08 54 45 02 	movl   $0x24554,0x8(%esp)
    1c9f:	00 
    1ca0:	c7 44 24 04 04 00 00 	movl   $0x4,0x4(%esp)
    1ca7:	00 
    1ca8:	c7 04 24 ff ff ff ff 	movl   $0xffffffff,(%esp)
    1caf:	e8 fc a0 00 00       	call   bdb0 <log_msg>
    1cb4:	8b 45 e4             	mov    -0x1c(%ebp),%eax
    1cb7:	89 83 20 10 00 00    	mov    %eax,0x1020(%ebx)
    1cbd:	89 34 24             	mov    %esi,(%esp)
    1cc0:	e8 7b 5b 00 00       	call   7840 <fibril_mutex_unlock>
    1cc5:	89 3c 24             	mov    %edi,(%esp)
    1cc8:	e8 73 67 00 00       	call   8440 <fibril_condvar_broadcast>
    1ccd:	e9 a6 fe ff ff       	jmp    1b78 <udp_sock_recv_fibril+0x48>
    1cd2:	89 3c 24             	mov    %edi,(%esp)
    1cd5:	e8 66 67 00 00       	call   8440 <fibril_condvar_broadcast>
    1cda:	89 34 24             	mov    %esi,(%esp)
    1cdd:	e8 5e 5b 00 00       	call   7840 <fibril_mutex_unlock>
    1ce2:	8b 43 18             	mov    0x18(%ebx),%eax
    1ce5:	89 04 24             	mov    %eax,(%esp)
    1ce8:	e8 13 13 00 00       	call   3000 <udp_uc_destroy>
    1ced:	83 c4 4c             	add    $0x4c,%esp
    1cf0:	31 c0                	xor    %eax,%eax
    1cf2:	5b                   	pop    %ebx
    1cf3:	5e                   	pop    %esi
    1cf4:	5f                   	pop    %edi
    1cf5:	5d                   	pop    %ebp
    1cf6:	c3                   	ret    
    1cf7:	89 f6                	mov    %esi,%esi
    1cf9:	8d bc 27 00 00 00 00 	lea    0x0(%edi,%eiz,1),%edi

00001d00 <udp_sock_sendto.isra.8>:
    1d00:	55                   	push   %ebp
    1d01:	89 e5                	mov    %esp,%ebp
    1d03:	57                   	push   %edi
    1d04:	56                   	push   %esi
    1d05:	53                   	push   %ebx
    1d06:	81 ec 5c 10 00 00    	sub    $0x105c,%esp
    1d0c:	89 cf                	mov    %ecx,%edi
    1d0e:	89 c3                	mov    %eax,%ebx
    1d10:	89 95 c0 ef ff ff    	mov    %edx,-0x1040(%ebp)
    1d16:	c7 44 24 08 f1 42 02 	movl   $0x242f1,0x8(%esp)
    1d1d:	00 
    1d1e:	c7 44 24 04 04 00 00 	movl   $0x4,0x4(%esp)
    1d25:	00 
    1d26:	c7 04 24 ff ff ff ff 	movl   $0xffffffff,(%esp)
    1d2d:	8b 75 08             	mov    0x8(%ebp),%esi
    1d30:	e8 7b a0 00 00       	call   bdb0 <log_msg>
    1d35:	c7 85 cc ef ff ff 00 	movl   $0x0,-0x1034(%ebp)
    1d3c:	00 00 00 
    1d3f:	c7 85 c4 ef ff ff 00 	movl   $0x0,-0x103c(%ebp)
    1d46:	00 00 00 
    1d49:	81 ff 07 04 00 00    	cmp    $0x407,%edi
    1d4f:	0f 84 63 02 00 00    	je     1fb8 <udp_sock_sendto.isra.8+0x2b8>
    1d55:	83 c3 04             	add    $0x4,%ebx
    1d58:	89 74 24 04          	mov    %esi,0x4(%esp)
    1d5c:	89 1c 24             	mov    %ebx,(%esp)
    1d5f:	e8 1c 1c 00 00       	call   3980 <socket_cores_find>
    1d64:	89 c7                	mov    %eax,%edi
    1d66:	85 c0                	test   %eax,%eax
    1d68:	0f 84 3d 03 00 00    	je     20ab <udp_sock_sendto.isra.8+0x3ab>
    1d6e:	8b 48 08             	mov    0x8(%eax),%ecx
    1d71:	85 c9                	test   %ecx,%ecx
    1d73:	75 48                	jne    1dbd <udp_sock_sendto.isra.8+0xbd>
    1d75:	8b 85 d0 ef ff ff    	mov    -0x1030(%ebp),%eax
    1d7b:	c7 44 24 1c 00 04 00 	movl   $0x400,0x1c(%esp)
    1d82:	00 
    1d83:	89 44 24 10          	mov    %eax,0x10(%esp)
    1d87:	8b 85 cc ef ff ff    	mov    -0x1034(%ebp),%eax
    1d8d:	c7 44 24 18 ff ff 00 	movl   $0xffff,0x18(%esp)
    1d94:	00 
    1d95:	c7 44 24 14 01 04 00 	movl   $0x401,0x14(%esp)
    1d9c:	00 
    1d9d:	89 44 24 0c          	mov    %eax,0xc(%esp)
    1da1:	89 74 24 08          	mov    %esi,0x8(%esp)
    1da5:	c7 44 24 04 24 74 02 	movl   $0x27424,0x4(%esp)
    1dac:	00 
    1dad:	89 1c 24             	mov    %ebx,(%esp)
    1db0:	e8 fb 2f 00 00       	call   4db0 <socket_bind>
    1db5:	85 c0                	test   %eax,%eax
    1db7:	0f 85 c7 01 00 00    	jne    1f84 <udp_sock_sendto.isra.8+0x284>
    1dbd:	8b 7f 20             	mov    0x20(%edi),%edi
    1dc0:	89 3c 24             	mov    %edi,(%esp)
    1dc3:	e8 58 59 00 00       	call   7720 <fibril_mutex_lock>
    1dc8:	8b 47 18             	mov    0x18(%edi),%eax
    1dcb:	8b 50 0c             	mov    0xc(%eax),%edx
    1dce:	85 d2                	test   %edx,%edx
    1dd0:	0f 84 02 01 00 00    	je     1ed8 <udp_sock_sendto.isra.8+0x1d8>
    1dd6:	8b 4d 0c             	mov    0xc(%ebp),%ecx
    1dd9:	31 db                	xor    %ebx,%ebx
    1ddb:	8d b5 e8 ef ff ff    	lea    -0x1018(%ebp),%esi
    1de1:	85 c9                	test   %ecx,%ecx
    1de3:	0f 8e b9 00 00 00    	jle    1ea2 <udp_sock_sendto.isra.8+0x1a2>
    1de9:	8d b4 26 00 00 00 00 	lea    0x0(%esi,%eiz,1),%esi
    1df0:	8d 85 d8 ef ff ff    	lea    -0x1028(%ebp),%eax
    1df6:	89 44 24 04          	mov    %eax,0x4(%esp)
    1dfa:	8d 85 d4 ef ff ff    	lea    -0x102c(%ebp),%eax
    1e00:	89 04 24             	mov    %eax,(%esp)
    1e03:	e8 e8 35 01 00       	call   153f0 <async_data_write_receive>
    1e08:	84 c0                	test   %al,%al
    1e0a:	0f 84 78 02 00 00    	je     2088 <udp_sock_sendto.isra.8+0x388>
    1e10:	8b 85 d8 ef ff ff    	mov    -0x1028(%ebp),%eax
    1e16:	3d 00 10 00 00       	cmp    $0x1000,%eax
    1e1b:	76 0f                	jbe    1e2c <udp_sock_sendto.isra.8+0x12c>
    1e1d:	c7 85 d8 ef ff ff 00 	movl   $0x1000,-0x1028(%ebp)
    1e24:	10 00 00 
    1e27:	b8 00 10 00 00       	mov    $0x1000,%eax
    1e2c:	89 44 24 08          	mov    %eax,0x8(%esp)
    1e30:	8b 85 d4 ef ff ff    	mov    -0x102c(%ebp),%eax
    1e36:	89 74 24 04          	mov    %esi,0x4(%esp)
    1e3a:	89 04 24             	mov    %eax,(%esp)
    1e3d:	e8 fe 35 01 00       	call   15440 <async_data_write_finalize>
    1e42:	85 c0                	test   %eax,%eax
    1e44:	0f 85 26 01 00 00    	jne    1f70 <udp_sock_sendto.isra.8+0x270>
    1e4a:	8b 85 d8 ef ff ff    	mov    -0x1028(%ebp),%eax
    1e50:	c7 44 24 10 00 00 00 	movl   $0x0,0x10(%esp)
    1e57:	00 
    1e58:	89 44 24 0c          	mov    %eax,0xc(%esp)
    1e5c:	8b 85 c4 ef ff ff    	mov    -0x103c(%ebp),%eax
    1e62:	89 74 24 08          	mov    %esi,0x8(%esp)
    1e66:	89 44 24 04          	mov    %eax,0x4(%esp)
    1e6a:	8b 47 18             	mov    0x18(%edi),%eax
    1e6d:	89 04 24             	mov    %eax,(%esp)
    1e70:	e8 4b 10 00 00       	call   2ec0 <udp_uc_send>
    1e75:	85 c0                	test   %eax,%eax
    1e77:	74 1f                	je     1e98 <udp_sock_sendto.isra.8+0x198>
    1e79:	c7 44 24 08 73 01 00 	movl   $0x173,0x8(%esp)
    1e80:	00 
    1e81:	c7 44 24 04 18 43 02 	movl   $0x24318,0x4(%esp)
    1e88:	00 
    1e89:	c7 04 24 be 40 02 00 	movl   $0x240be,(%esp)
    1e90:	e8 bb a2 01 00       	call   1c150 <assert_abort>
    1e95:	8d 76 00             	lea    0x0(%esi),%esi
    1e98:	43                   	inc    %ebx
    1e99:	39 5d 0c             	cmp    %ebx,0xc(%ebp)
    1e9c:	0f 85 4e ff ff ff    	jne    1df0 <udp_sock_sendto.isra.8+0xf0>
    1ea2:	8b 85 c0 ef ff ff    	mov    -0x1040(%ebp),%eax
    1ea8:	c7 44 24 0c 00 10 00 	movl   $0x1000,0xc(%esp)
    1eaf:	00 
    1eb0:	c7 44 24 08 00 00 00 	movl   $0x0,0x8(%esp)
    1eb7:	00 
    1eb8:	c7 44 24 04 00 00 00 	movl   $0x0,0x4(%esp)
    1ebf:	00 
    1ec0:	89 04 24             	mov    %eax,(%esp)
    1ec3:	e8 18 1b 01 00       	call   139e0 <async_answer_2>
    1ec8:	89 3c 24             	mov    %edi,(%esp)
    1ecb:	e8 70 59 00 00       	call   7840 <fibril_mutex_unlock>
    1ed0:	e9 c1 00 00 00       	jmp    1f96 <udp_sock_sendto.isra.8+0x296>
    1ed5:	8d 76 00             	lea    0x0(%esi),%esi
    1ed8:	8b b5 c4 ef ff ff    	mov    -0x103c(%ebp),%esi
    1ede:	85 f6                	test   %esi,%esi
    1ee0:	0f 84 e0 01 00 00    	je     20c6 <udp_sock_sendto.isra.8+0x3c6>
    1ee6:	8b 85 e0 ef ff ff    	mov    -0x1020(%ebp),%eax
    1eec:	89 85 e8 ef ff ff    	mov    %eax,-0x1018(%ebp)
    1ef2:	8d 85 dc ef ff ff    	lea    -0x1024(%ebp),%eax
    1ef8:	89 44 24 08          	mov    %eax,0x8(%esp)
    1efc:	8d 85 e8 ef ff ff    	lea    -0x1018(%ebp),%eax
    1f02:	c7 44 24 04 00 00 00 	movl   $0x0,0x4(%esp)
    1f09:	00 
    1f0a:	89 04 24             	mov    %eax,(%esp)
    1f0d:	e8 8e 76 00 00       	call   95a0 <inet_get_srcaddr>
    1f12:	85 c0                	test   %eax,%eax
    1f14:	0f 85 1e 01 00 00    	jne    2038 <udp_sock_sendto.isra.8+0x338>
    1f1a:	8b 57 18             	mov    0x18(%edi),%edx
    1f1d:	8b 85 dc ef ff ff    	mov    -0x1024(%ebp),%eax
    1f23:	89 42 0c             	mov    %eax,0xc(%edx)
    1f26:	89 44 24 0c          	mov    %eax,0xc(%esp)
    1f2a:	c7 44 24 08 01 43 02 	movl   $0x24301,0x8(%esp)
    1f31:	00 
    1f32:	c7 44 24 04 04 00 00 	movl   $0x4,0x4(%esp)
    1f39:	00 
    1f3a:	c7 04 24 ff ff ff ff 	movl   $0xffffffff,(%esp)
    1f41:	e8 6a 9e 00 00       	call   bdb0 <log_msg>
    1f46:	8b 5f 18             	mov    0x18(%edi),%ebx
    1f49:	85 db                	test   %ebx,%ebx
    1f4b:	0f 85 85 fe ff ff    	jne    1dd6 <udp_sock_sendto.isra.8+0xd6>
    1f51:	c7 44 24 08 50 01 00 	movl   $0x150,0x8(%esp)
    1f58:	00 
    1f59:	c7 44 24 04 18 43 02 	movl   $0x24318,0x4(%esp)
    1f60:	00 
    1f61:	c7 04 24 1f 43 02 00 	movl   $0x2431f,(%esp)
    1f68:	e8 e3 a1 01 00       	call   1c150 <assert_abort>
    1f6d:	8d 76 00             	lea    0x0(%esi),%esi
    1f70:	89 3c 24             	mov    %edi,(%esp)
    1f73:	89 85 bc ef ff ff    	mov    %eax,-0x1044(%ebp)
    1f79:	e8 c2 58 00 00       	call   7840 <fibril_mutex_unlock>
    1f7e:	8b 85 bc ef ff ff    	mov    -0x1044(%ebp),%eax
    1f84:	89 44 24 04          	mov    %eax,0x4(%esp)
    1f88:	8b 85 c0 ef ff ff    	mov    -0x1040(%ebp),%eax
    1f8e:	89 04 24             	mov    %eax,(%esp)
    1f91:	e8 ca 19 01 00       	call   13960 <async_answer_0>
    1f96:	8b 85 cc ef ff ff    	mov    -0x1034(%ebp),%eax
    1f9c:	85 c0                	test   %eax,%eax
    1f9e:	74 08                	je     1fa8 <udp_sock_sendto.isra.8+0x2a8>
    1fa0:	89 04 24             	mov    %eax,(%esp)
    1fa3:	e8 88 ef 00 00       	call   10f30 <free>
    1fa8:	81 c4 5c 10 00 00    	add    $0x105c,%esp
    1fae:	5b                   	pop    %ebx
    1faf:	5e                   	pop    %esi
    1fb0:	5f                   	pop    %edi
    1fb1:	5d                   	pop    %ebp
    1fb2:	c3                   	ret    
    1fb3:	90                   	nop
    1fb4:	8d 74 26 00          	lea    0x0(%esi,%eiz,1),%esi
    1fb8:	8d 85 d0 ef ff ff    	lea    -0x1030(%ebp),%eax
    1fbe:	c7 44 24 10 00 00 00 	movl   $0x0,0x10(%esp)
    1fc5:	00 
    1fc6:	89 44 24 14          	mov    %eax,0x14(%esp)
    1fca:	8d 85 cc ef ff ff    	lea    -0x1034(%ebp),%eax
    1fd0:	c7 44 24 0c 00 00 00 	movl   $0x0,0xc(%esp)
    1fd7:	00 
    1fd8:	c7 44 24 08 00 00 00 	movl   $0x0,0x8(%esp)
    1fdf:	00 
    1fe0:	c7 44 24 04 00 00 00 	movl   $0x0,0x4(%esp)
    1fe7:	00 
    1fe8:	89 04 24             	mov    %eax,(%esp)
    1feb:	e8 90 34 01 00       	call   15480 <async_data_write_accept>
    1ff0:	85 c0                	test   %eax,%eax
    1ff2:	75 90                	jne    1f84 <udp_sock_sendto.isra.8+0x284>
    1ff4:	83 bd d0 ef ff ff 10 	cmpl   $0x10,-0x1030(%ebp)
    1ffb:	0f 85 8f 00 00 00    	jne    2090 <udp_sock_sendto.isra.8+0x390>
    2001:	8b 95 cc ef ff ff    	mov    -0x1034(%ebp),%edx
    2007:	8b 42 04             	mov    0x4(%edx),%eax
    200a:	0f c8                	bswap  %eax
    200c:	89 85 e0 ef ff ff    	mov    %eax,-0x1020(%ebp)
    2012:	66 8b 42 02          	mov    0x2(%edx),%ax
    2016:	66 c1 c0 08          	rol    $0x8,%ax
    201a:	66 89 85 e4 ef ff ff 	mov    %ax,-0x101c(%ebp)
    2021:	8d 85 e0 ef ff ff    	lea    -0x1020(%ebp),%eax
    2027:	89 85 c4 ef ff ff    	mov    %eax,-0x103c(%ebp)
    202d:	e9 23 fd ff ff       	jmp    1d55 <udp_sock_sendto.isra.8+0x55>
    2032:	8d b6 00 00 00 00    	lea    0x0(%esi),%esi
    2038:	89 3c 24             	mov    %edi,(%esp)
    203b:	89 85 bc ef ff ff    	mov    %eax,-0x1044(%ebp)
    2041:	e8 fa 57 00 00       	call   7840 <fibril_mutex_unlock>
    2046:	8b 85 bc ef ff ff    	mov    -0x1044(%ebp),%eax
    204c:	89 44 24 04          	mov    %eax,0x4(%esp)
    2050:	8b 85 c0 ef ff ff    	mov    -0x1040(%ebp),%eax
    2056:	89 04 24             	mov    %eax,(%esp)
    2059:	e8 02 19 01 00       	call   13960 <async_answer_0>
    205e:	c7 44 24 08 7c 45 02 	movl   $0x2457c,0x8(%esp)
    2065:	00 
    2066:	c7 44 24 04 04 00 00 	movl   $0x4,0x4(%esp)
    206d:	00 
    206e:	c7 04 24 ff ff ff ff 	movl   $0xffffffff,(%esp)
    2075:	e8 36 9d 00 00       	call   bdb0 <log_msg>
    207a:	81 c4 5c 10 00 00    	add    $0x105c,%esp
    2080:	5b                   	pop    %ebx
    2081:	5e                   	pop    %esi
    2082:	5f                   	pop    %edi
    2083:	5d                   	pop    %ebp
    2084:	c3                   	ret    
    2085:	8d 76 00             	lea    0x0(%esi),%esi
    2088:	89 3c 24             	mov    %edi,(%esp)
    208b:	e8 b0 57 00 00       	call   7840 <fibril_mutex_unlock>
    2090:	8b 85 c0 ef ff ff    	mov    -0x1040(%ebp),%eax
    2096:	c7 44 24 04 f2 ff ff 	movl   $0xfffffff2,0x4(%esp)
    209d:	ff 
    209e:	89 04 24             	mov    %eax,(%esp)
    20a1:	e8 ba 18 01 00       	call   13960 <async_answer_0>
    20a6:	e9 eb fe ff ff       	jmp    1f96 <udp_sock_sendto.isra.8+0x296>
    20ab:	8b 85 c0 ef ff ff    	mov    -0x1040(%ebp),%eax
    20b1:	c7 44 24 04 ca d8 ff 	movl   $0xffffd8ca,0x4(%esp)
    20b8:	ff 
    20b9:	89 04 24             	mov    %eax,(%esp)
    20bc:	e8 9f 18 01 00       	call   13960 <async_answer_0>
    20c1:	e9 d0 fe ff ff       	jmp    1f96 <udp_sock_sendto.isra.8+0x296>
    20c6:	8b 40 14             	mov    0x14(%eax),%eax
    20c9:	e9 1e fe ff ff       	jmp    1eec <udp_sock_sendto.isra.8+0x1ec>
    20ce:	66 90                	xchg   %ax,%ax

000020d0 <udp_sock_connection>:
    20d0:	55                   	push   %ebp
    20d1:	89 e5                	mov    %esp,%ebp
    20d3:	57                   	push   %edi
    20d4:	56                   	push   %esi
    20d5:	53                   	push   %ebx
    20d6:	81 ec ac 00 00 00    	sub    $0xac,%esp
    20dc:	8b 45 08             	mov    0x8(%ebp),%eax
    20df:	c7 44 24 04 00 00 00 	movl   $0x0,0x4(%esp)
    20e6:	00 
    20e7:	89 04 24             	mov    %eax,(%esp)
    20ea:	e8 71 18 01 00       	call   13960 <async_answer_0>
    20ef:	c7 04 24 02 00 00 00 	movl   $0x2,(%esp)
    20f6:	e8 05 3b 01 00       	call   15c00 <async_callback_receive>
    20fb:	89 45 b0             	mov    %eax,-0x50(%ebp)
    20fe:	8d 45 b4             	lea    -0x4c(%ebp),%eax
    2101:	89 04 24             	mov    %eax,(%esp)
    2104:	e8 a7 19 00 00       	call   3ab0 <socket_cores_initialize>
    2109:	8d b4 26 00 00 00 00 	lea    0x0(%esi,%eiz,1),%esi
    2110:	c7 44 24 08 35 43 02 	movl   $0x24335,0x8(%esp)
    2117:	00 
    2118:	c7 44 24 04 04 00 00 	movl   $0x4,0x4(%esp)
    211f:	00 
    2120:	c7 04 24 ff ff ff ff 	movl   $0xffffffff,(%esp)
    2127:	e8 84 9c 00 00       	call   bdb0 <log_msg>
    212c:	8d 55 c4             	lea    -0x3c(%ebp),%edx
    212f:	c7 44 24 04 00 00 00 	movl   $0x0,0x4(%esp)
    2136:	00 
    2137:	89 14 24             	mov    %edx,(%esp)
    213a:	e8 f1 01 01 00       	call   12330 <async_get_call_timeout>
    213f:	89 c6                	mov    %eax,%esi
    2141:	8b 45 c4             	mov    -0x3c(%ebp),%eax
    2144:	85 c0                	test   %eax,%eax
    2146:	0f 84 4c 05 00 00    	je     2698 <udp_sock_connection+0x5c8>
    214c:	89 44 24 0c          	mov    %eax,0xc(%esp)
    2150:	c7 44 24 08 b0 45 02 	movl   $0x245b0,0x8(%esp)
    2157:	00 
    2158:	c7 44 24 04 04 00 00 	movl   $0x4,0x4(%esp)
    215f:	00 
    2160:	c7 04 24 ff ff ff ff 	movl   $0xffffffff,(%esp)
    2167:	e8 44 9c 00 00       	call   bdb0 <log_msg>
    216c:	8b 7d c4             	mov    -0x3c(%ebp),%edi
    216f:	8d 87 00 fc ff ff    	lea    -0x400(%edi),%eax
    2175:	83 f8 0b             	cmp    $0xb,%eax
    2178:	77 2a                	ja     21a4 <udp_sock_connection+0xd4>
    217a:	ff 24 85 20 46 02 00 	jmp    *0x24620(,%eax,4)
    2181:	8d b4 26 00 00 00 00 	lea    0x0(%esi,%eiz,1),%esi
    2188:	c7 44 24 08 e9 44 02 	movl   $0x244e9,0x8(%esp)
    218f:	00 
    2190:	c7 44 24 04 04 00 00 	movl   $0x4,0x4(%esp)
    2197:	00 
    2198:	c7 04 24 ff ff ff ff 	movl   $0xffffffff,(%esp)
    219f:	e8 0c 9c 00 00       	call   bdb0 <log_msg>
    21a4:	c7 44 24 04 f5 ff ff 	movl   $0xfffffff5,0x4(%esp)
    21ab:	ff 
    21ac:	89 34 24             	mov    %esi,(%esp)
    21af:	e8 ac 17 01 00       	call   13960 <async_answer_0>
    21b4:	e9 57 ff ff ff       	jmp    2110 <udp_sock_connection+0x40>
    21b9:	8d b4 26 00 00 00 00 	lea    0x0(%esi,%eiz,1),%esi
    21c0:	8b 45 d8             	mov    -0x28(%ebp),%eax
    21c3:	89 f9                	mov    %edi,%ecx
    21c5:	89 44 24 04          	mov    %eax,0x4(%esp)
    21c9:	8b 45 c8             	mov    -0x38(%ebp),%eax
    21cc:	89 04 24             	mov    %eax,(%esp)
    21cf:	89 f2                	mov    %esi,%edx
    21d1:	8d 45 b0             	lea    -0x50(%ebp),%eax
    21d4:	e8 27 fb ff ff       	call   1d00 <udp_sock_sendto.isra.8>
    21d9:	e9 32 ff ff ff       	jmp    2110 <udp_sock_connection+0x40>
    21de:	66 90                	xchg   %ax,%ax
    21e0:	c7 44 24 08 d8 44 02 	movl   $0x244d8,0x8(%esp)
    21e7:	00 
    21e8:	c7 44 24 04 04 00 00 	movl   $0x4,0x4(%esp)
    21ef:	00 
    21f0:	c7 04 24 ff ff ff ff 	movl   $0xffffffff,(%esp)
    21f7:	8b 5d c8             	mov    -0x38(%ebp),%ebx
    21fa:	e8 b1 9b 00 00       	call   bdb0 <log_msg>
    21ff:	8d 45 b4             	lea    -0x4c(%ebp),%eax
    2202:	89 5c 24 04          	mov    %ebx,0x4(%esp)
    2206:	89 04 24             	mov    %eax,(%esp)
    2209:	e8 72 17 00 00       	call   3980 <socket_cores_find>
    220e:	85 c0                	test   %eax,%eax
    2210:	0f 84 da 06 00 00    	je     28f0 <udp_sock_connection+0x820>
    2216:	8b 78 20             	mov    0x20(%eax),%edi
    2219:	89 3c 24             	mov    %edi,(%esp)
    221c:	e8 ff 54 00 00       	call   7720 <fibril_mutex_lock>
    2221:	8d 55 b4             	lea    -0x4c(%ebp),%edx
    2224:	c7 44 24 10 20 1b 00 	movl   $0x1b20,0x10(%esp)
    222b:	00 
    222c:	c7 44 24 0c 24 74 02 	movl   $0x27424,0xc(%esp)
    2233:	00 
    2234:	89 54 24 08          	mov    %edx,0x8(%esp)
    2238:	89 5c 24 04          	mov    %ebx,0x4(%esp)
    223c:	c7 04 24 00 00 00 00 	movl   $0x0,(%esp)
    2243:	e8 a8 2e 00 00       	call   50f0 <socket_destroy>
    2248:	89 3c 24             	mov    %edi,(%esp)
    224b:	85 c0                	test   %eax,%eax
    224d:	0f 85 ad 05 00 00    	jne    2800 <udp_sock_connection+0x730>
    2253:	e8 e8 55 00 00       	call   7840 <fibril_mutex_unlock>
    2258:	c7 44 24 04 00 00 00 	movl   $0x0,0x4(%esp)
    225f:	00 
    2260:	89 34 24             	mov    %esi,(%esp)
    2263:	e8 f8 16 01 00       	call   13960 <async_answer_0>
    2268:	e9 a3 fe ff ff       	jmp    2110 <udp_sock_connection+0x40>
    226d:	8d 76 00             	lea    0x0(%esi),%esi
    2270:	8d 55 b0             	lea    -0x50(%ebp),%edx
    2273:	c7 44 24 08 0e 44 02 	movl   $0x2440e,0x8(%esp)
    227a:	00 
    227b:	89 54 24 0c          	mov    %edx,0xc(%esp)
    227f:	c7 44 24 04 04 00 00 	movl   $0x4,0x4(%esp)
    2286:	00 
    2287:	c7 04 24 ff ff ff ff 	movl   $0xffffffff,(%esp)
    228e:	8b 5d c8             	mov    -0x38(%ebp),%ebx
    2291:	e8 1a 9b 00 00       	call   bdb0 <log_msg>
    2296:	8d 45 b4             	lea    -0x4c(%ebp),%eax
    2299:	89 5c 24 04          	mov    %ebx,0x4(%esp)
    229d:	89 04 24             	mov    %eax,(%esp)
    22a0:	e8 db 16 00 00       	call   3980 <socket_cores_find>
    22a5:	85 c0                	test   %eax,%eax
    22a7:	0f 84 43 06 00 00    	je     28f0 <udp_sock_connection+0x820>
    22ad:	8b 58 20             	mov    0x20(%eax),%ebx
    22b0:	89 1c 24             	mov    %ebx,(%esp)
    22b3:	e8 68 54 00 00       	call   7720 <fibril_mutex_lock>
    22b8:	8b 43 18             	mov    0x18(%ebx),%eax
    22bb:	85 c0                	test   %eax,%eax
    22bd:	0f 84 45 06 00 00    	je     2908 <udp_sock_connection+0x838>
    22c3:	c7 44 24 08 d0 45 02 	movl   $0x245d0,0x8(%esp)
    22ca:	00 
    22cb:	c7 44 24 04 04 00 00 	movl   $0x4,0x4(%esp)
    22d2:	00 
    22d3:	c7 04 24 ff ff ff ff 	movl   $0xffffffff,(%esp)
    22da:	e8 d1 9a 00 00       	call   bdb0 <log_msg>
    22df:	8d 93 2c 10 00 00    	lea    0x102c(%ebx),%edx
    22e5:	89 14 24             	mov    %edx,(%esp)
    22e8:	89 55 80             	mov    %edx,-0x80(%ebp)
    22eb:	e8 30 54 00 00       	call   7720 <fibril_mutex_lock>
    22f0:	8b 83 20 10 00 00    	mov    0x1020(%ebx),%eax
    22f6:	85 c0                	test   %eax,%eax
    22f8:	75 6d                	jne    2367 <udp_sock_connection+0x297>
    22fa:	8b 83 44 10 00 00    	mov    0x1044(%ebx),%eax
    2300:	85 c0                	test   %eax,%eax
    2302:	75 63                	jne    2367 <udp_sock_connection+0x297>
    2304:	8d 83 3c 10 00 00    	lea    0x103c(%ebx),%eax
    230a:	89 75 84             	mov    %esi,-0x7c(%ebp)
    230d:	89 bd 7c ff ff ff    	mov    %edi,-0x84(%ebp)
    2313:	8b 75 80             	mov    -0x80(%ebp),%esi
    2316:	89 df                	mov    %ebx,%edi
    2318:	89 c3                	mov    %eax,%ebx
    231a:	eb 0e                	jmp    232a <udp_sock_connection+0x25a>
    231c:	8d 74 26 00          	lea    0x0(%esi,%eiz,1),%esi
    2320:	8b 87 44 10 00 00    	mov    0x1044(%edi),%eax
    2326:	85 c0                	test   %eax,%eax
    2328:	75 32                	jne    235c <udp_sock_connection+0x28c>
    232a:	c7 44 24 08 fc 45 02 	movl   $0x245fc,0x8(%esp)
    2331:	00 
    2332:	c7 44 24 04 04 00 00 	movl   $0x4,0x4(%esp)
    2339:	00 
    233a:	c7 04 24 ff ff ff ff 	movl   $0xffffffff,(%esp)
    2341:	e8 6a 9a 00 00       	call   bdb0 <log_msg>
    2346:	89 74 24 04          	mov    %esi,0x4(%esp)
    234a:	89 1c 24             	mov    %ebx,(%esp)
    234d:	e8 1e 60 00 00       	call   8370 <fibril_condvar_wait>
    2352:	8b 87 20 10 00 00    	mov    0x1020(%edi),%eax
    2358:	85 c0                	test   %eax,%eax
    235a:	74 c4                	je     2320 <udp_sock_connection+0x250>
    235c:	89 fb                	mov    %edi,%ebx
    235e:	8b 75 84             	mov    -0x7c(%ebp),%esi
    2361:	8b bd 7c ff ff ff    	mov    -0x84(%ebp),%edi
    2367:	c7 44 24 08 28 44 02 	movl   $0x24428,0x8(%esp)
    236e:	00 
    236f:	c7 44 24 04 04 00 00 	movl   $0x4,0x4(%esp)
    2376:	00 
    2377:	c7 04 24 ff ff ff ff 	movl   $0xffffffff,(%esp)
    237e:	e8 2d 9a 00 00       	call   bdb0 <log_msg>
    2383:	66 8b 93 28 10 00 00 	mov    0x1028(%ebx),%dx
    238a:	8b 83 24 10 00 00    	mov    0x1024(%ebx),%eax
    2390:	66 89 95 7a ff ff ff 	mov    %dx,-0x86(%ebp)
    2397:	8b 93 20 10 00 00    	mov    0x1020(%ebx),%edx
    239d:	89 85 7c ff ff ff    	mov    %eax,-0x84(%ebp)
    23a3:	8b 83 44 10 00 00    	mov    0x1044(%ebx),%eax
    23a9:	89 54 24 0c          	mov    %edx,0xc(%esp)
    23ad:	c7 44 24 08 45 44 02 	movl   $0x24445,0x8(%esp)
    23b4:	00 
    23b5:	c7 44 24 04 04 00 00 	movl   $0x4,0x4(%esp)
    23bc:	00 
    23bd:	c7 04 24 ff ff ff ff 	movl   $0xffffffff,(%esp)
    23c4:	89 85 74 ff ff ff    	mov    %eax,-0x8c(%ebp)
    23ca:	89 55 84             	mov    %edx,-0x7c(%ebp)
    23cd:	e8 de 99 00 00       	call   bdb0 <log_msg>
    23d2:	8b 85 74 ff ff ff    	mov    -0x8c(%ebp),%eax
    23d8:	85 c0                	test   %eax,%eax
    23da:	0f 85 28 06 00 00    	jne    2a08 <udp_sock_connection+0x938>
    23e0:	c7 44 24 0c 00 00 00 	movl   $0x0,0xc(%esp)
    23e7:	00 
    23e8:	c7 44 24 08 5c 44 02 	movl   $0x2445c,0x8(%esp)
    23ef:	00 
    23f0:	c7 44 24 04 04 00 00 	movl   $0x4,0x4(%esp)
    23f7:	00 
    23f8:	c7 04 24 ff ff ff ff 	movl   $0xffffffff,(%esp)
    23ff:	e8 ac 99 00 00       	call   bdb0 <log_msg>
    2404:	81 ff 09 04 00 00    	cmp    $0x409,%edi
    240a:	0f 84 18 04 00 00    	je     2828 <udp_sock_connection+0x758>
    2410:	8d 7d 94             	lea    -0x6c(%ebp),%edi
    2413:	c7 44 24 08 9b 44 02 	movl   $0x2449b,0x8(%esp)
    241a:	00 
    241b:	c7 44 24 04 04 00 00 	movl   $0x4,0x4(%esp)
    2422:	00 
    2423:	c7 04 24 ff ff ff ff 	movl   $0xffffffff,(%esp)
    242a:	e8 81 99 00 00       	call   bdb0 <log_msg>
    242f:	8d 45 90             	lea    -0x70(%ebp),%eax
    2432:	89 44 24 04          	mov    %eax,0x4(%esp)
    2436:	89 3c 24             	mov    %edi,(%esp)
    2439:	e8 92 2a 01 00       	call   14ed0 <async_data_read_receive>
    243e:	84 c0                	test   %al,%al
    2440:	0f 84 82 04 00 00    	je     28c8 <udp_sock_connection+0x7f8>
    2446:	8b 55 84             	mov    -0x7c(%ebp),%edx
    2449:	3b 55 90             	cmp    -0x70(%ebp),%edx
    244c:	73 03                	jae    2451 <udp_sock_connection+0x381>
    244e:	89 55 90             	mov    %edx,-0x70(%ebp)
    2451:	c7 44 24 08 ad 44 02 	movl   $0x244ad,0x8(%esp)
    2458:	00 
    2459:	c7 44 24 04 04 00 00 	movl   $0x4,0x4(%esp)
    2460:	00 
    2461:	c7 04 24 ff ff ff ff 	movl   $0xffffffff,(%esp)
    2468:	e8 43 99 00 00       	call   bdb0 <log_msg>
    246d:	8b 45 90             	mov    -0x70(%ebp),%eax
    2470:	89 44 24 08          	mov    %eax,0x8(%esp)
    2474:	8d 43 20             	lea    0x20(%ebx),%eax
    2477:	89 44 24 04          	mov    %eax,0x4(%esp)
    247b:	8b 45 94             	mov    -0x6c(%ebp),%eax
    247e:	89 04 24             	mov    %eax,(%esp)
    2481:	e8 aa 2a 01 00       	call   14f30 <async_data_read_finalize>
    2486:	8b 45 90             	mov    -0x70(%ebp),%eax
    2489:	89 44 24 0c          	mov    %eax,0xc(%esp)
    248d:	c7 44 24 08 c0 44 02 	movl   $0x244c0,0x8(%esp)
    2494:	00 
    2495:	c7 44 24 04 04 00 00 	movl   $0x4,0x4(%esp)
    249c:	00 
    249d:	c7 04 24 ff ff ff ff 	movl   $0xffffffff,(%esp)
    24a4:	e8 07 99 00 00       	call   bdb0 <log_msg>
    24a9:	8b 45 90             	mov    -0x70(%ebp),%eax
    24ac:	c7 44 24 10 10 00 00 	movl   $0x10,0x10(%esp)
    24b3:	00 
    24b4:	c7 44 24 0c 00 00 00 	movl   $0x0,0xc(%esp)
    24bb:	00 
    24bc:	89 44 24 08          	mov    %eax,0x8(%esp)
    24c0:	c7 44 24 04 00 00 00 	movl   $0x0,0x4(%esp)
    24c7:	00 
    24c8:	89 34 24             	mov    %esi,(%esp)
    24cb:	e8 50 15 01 00       	call   13a20 <async_answer_3>
    24d0:	8d 83 3c 10 00 00    	lea    0x103c(%ebx),%eax
    24d6:	c7 83 20 10 00 00 00 	movl   $0x0,0x1020(%ebx)
    24dd:	00 00 00 
    24e0:	89 04 24             	mov    %eax,(%esp)
    24e3:	e8 58 5f 00 00       	call   8440 <fibril_condvar_broadcast>
    24e8:	8b 55 80             	mov    -0x80(%ebp),%edx
    24eb:	89 14 24             	mov    %edx,(%esp)
    24ee:	e8 4d 53 00 00       	call   7840 <fibril_mutex_unlock>
    24f3:	89 1c 24             	mov    %ebx,(%esp)
    24f6:	e8 45 53 00 00       	call   7840 <fibril_mutex_unlock>
    24fb:	e9 10 fc ff ff       	jmp    2110 <udp_sock_connection+0x40>
    2500:	c7 44 24 08 e9 43 02 	movl   $0x243e9,0x8(%esp)
    2507:	00 
    2508:	e9 83 fc ff ff       	jmp    2190 <udp_sock_connection+0xc0>
    250d:	8d 76 00             	lea    0x0(%esi),%esi
    2510:	c7 44 24 08 fc 43 02 	movl   $0x243fc,0x8(%esp)
    2517:	00 
    2518:	e9 73 fc ff ff       	jmp    2190 <udp_sock_connection+0xc0>
    251d:	8d 76 00             	lea    0x0(%esi),%esi
    2520:	c7 44 24 08 4f 43 02 	movl   $0x2434f,0x8(%esp)
    2527:	00 
    2528:	c7 44 24 04 04 00 00 	movl   $0x4,0x4(%esp)
    252f:	00 
    2530:	c7 04 24 ff ff ff ff 	movl   $0xffffffff,(%esp)
    2537:	8b 7d c8             	mov    -0x38(%ebp),%edi
    253a:	e8 71 98 00 00       	call   bdb0 <log_msg>
    253f:	c7 44 24 04 48 10 00 	movl   $0x1048,0x4(%esp)
    2546:	00 
    2547:	c7 04 24 01 00 00 00 	movl   $0x1,(%esp)
    254e:	e8 6d e8 00 00       	call   10dc0 <calloc>
    2553:	89 c3                	mov    %eax,%ebx
    2555:	85 c0                	test   %eax,%eax
    2557:	0f 84 8e 02 00 00    	je     27eb <udp_sock_connection+0x71b>
    255d:	89 04 24             	mov    %eax,(%esp)
    2560:	e8 9b 51 00 00       	call   7700 <fibril_mutex_initialize>
    2565:	8d 45 b0             	lea    -0x50(%ebp),%eax
    2568:	89 43 14             	mov    %eax,0x14(%ebx)
    256b:	8d 83 2c 10 00 00    	lea    0x102c(%ebx),%eax
    2571:	c7 83 20 10 00 00 00 	movl   $0x0,0x1020(%ebx)
    2578:	00 00 00 
    257b:	c7 83 44 10 00 00 00 	movl   $0x0,0x1044(%ebx)
    2582:	00 00 00 
    2585:	89 04 24             	mov    %eax,(%esp)
    2588:	e8 73 51 00 00       	call   7700 <fibril_mutex_initialize>
    258d:	8d 83 3c 10 00 00    	lea    0x103c(%ebx),%eax
    2593:	89 04 24             	mov    %eax,(%esp)
    2596:	e8 f5 57 00 00       	call   7d90 <fibril_condvar_initialize>
    259b:	8d 43 18             	lea    0x18(%ebx),%eax
    259e:	89 04 24             	mov    %eax,(%esp)
    25a1:	e8 0a 08 00 00       	call   2db0 <udp_uc_create>
    25a6:	85 c0                	test   %eax,%eax
    25a8:	0f 84 c2 01 00 00    	je     2770 <udp_sock_connection+0x6a0>
    25ae:	89 1c 24             	mov    %ebx,(%esp)
    25b1:	89 85 74 ff ff ff    	mov    %eax,-0x8c(%ebp)
    25b7:	e8 74 e9 00 00       	call   10f30 <free>
    25bc:	8b 85 74 ff ff ff    	mov    -0x8c(%ebp),%eax
    25c2:	89 44 24 04          	mov    %eax,0x4(%esp)
    25c6:	89 34 24             	mov    %esi,(%esp)
    25c9:	e8 92 13 01 00       	call   13960 <async_answer_0>
    25ce:	e9 3d fb ff ff       	jmp    2110 <udp_sock_connection+0x40>
    25d3:	90                   	nop
    25d4:	8d 74 26 00          	lea    0x0(%esi,%eiz,1),%esi
    25d8:	c7 44 24 08 ff 44 02 	movl   $0x244ff,0x8(%esp)
    25df:	00 
    25e0:	e9 ab fb ff ff       	jmp    2190 <udp_sock_connection+0xc0>
    25e5:	8d 76 00             	lea    0x0(%esi),%esi
    25e8:	c7 44 24 08 d7 43 02 	movl   $0x243d7,0x8(%esp)
    25ef:	00 
    25f0:	e9 9b fb ff ff       	jmp    2190 <udp_sock_connection+0xc0>
    25f5:	8d 76 00             	lea    0x0(%esi),%esi
    25f8:	c7 44 24 08 73 43 02 	movl   $0x24373,0x8(%esp)
    25ff:	00 
    2600:	c7 44 24 04 04 00 00 	movl   $0x4,0x4(%esp)
    2607:	00 
    2608:	c7 04 24 ff ff ff ff 	movl   $0xffffffff,(%esp)
    260f:	8b 5d c8             	mov    -0x38(%ebp),%ebx
    2612:	e8 99 97 00 00       	call   bdb0 <log_msg>
    2617:	c7 44 24 08 83 43 02 	movl   $0x24383,0x8(%esp)
    261e:	00 
    261f:	c7 44 24 04 04 00 00 	movl   $0x4,0x4(%esp)
    2626:	00 
    2627:	c7 04 24 ff ff ff ff 	movl   $0xffffffff,(%esp)
    262e:	e8 7d 97 00 00       	call   bdb0 <log_msg>
    2633:	8d 7d 94             	lea    -0x6c(%ebp),%edi
    2636:	8d 45 88             	lea    -0x78(%ebp),%eax
    2639:	89 7c 24 14          	mov    %edi,0x14(%esp)
    263d:	c7 44 24 10 00 00 00 	movl   $0x0,0x10(%esp)
    2644:	00 
    2645:	c7 44 24 0c 00 00 00 	movl   $0x0,0xc(%esp)
    264c:	00 
    264d:	c7 44 24 08 00 00 00 	movl   $0x0,0x8(%esp)
    2654:	00 
    2655:	c7 44 24 04 00 00 00 	movl   $0x0,0x4(%esp)
    265c:	00 
    265d:	89 04 24             	mov    %eax,(%esp)
    2660:	c7 45 88 00 00 00 00 	movl   $0x0,-0x78(%ebp)
    2667:	e8 14 2e 01 00       	call   15480 <async_data_write_accept>
    266c:	85 c0                	test   %eax,%eax
    266e:	0f 84 7c 00 00 00    	je     26f0 <udp_sock_connection+0x620>
    2674:	89 44 24 04          	mov    %eax,0x4(%esp)
    2678:	89 34 24             	mov    %esi,(%esp)
    267b:	e8 e0 12 01 00       	call   13960 <async_answer_0>
    2680:	8b 45 88             	mov    -0x78(%ebp),%eax
    2683:	85 c0                	test   %eax,%eax
    2685:	0f 84 85 fa ff ff    	je     2110 <udp_sock_connection+0x40>
    268b:	89 04 24             	mov    %eax,(%esp)
    268e:	e8 9d e8 00 00       	call   10f30 <free>
    2693:	e9 78 fa ff ff       	jmp    2110 <udp_sock_connection+0x40>
    2698:	c7 44 24 08 15 45 02 	movl   $0x24515,0x8(%esp)
    269f:	00 
    26a0:	c7 44 24 04 04 00 00 	movl   $0x4,0x4(%esp)
    26a7:	00 
    26a8:	c7 04 24 ff ff ff ff 	movl   $0xffffffff,(%esp)
    26af:	e8 fc 96 00 00       	call   bdb0 <log_msg>
    26b4:	8b 45 b0             	mov    -0x50(%ebp),%eax
    26b7:	89 04 24             	mov    %eax,(%esp)
    26ba:	e8 a1 1b 01 00       	call   14260 <async_hangup>
    26bf:	8d 45 b4             	lea    -0x4c(%ebp),%eax
    26c2:	c7 44 24 0c 20 1b 00 	movl   $0x1b20,0xc(%esp)
    26c9:	00 
    26ca:	c7 44 24 08 24 74 02 	movl   $0x27424,0x8(%esp)
    26d1:	00 
    26d2:	89 44 24 04          	mov    %eax,0x4(%esp)
    26d6:	c7 04 24 00 00 00 00 	movl   $0x0,(%esp)
    26dd:	e8 7e 28 00 00       	call   4f60 <socket_cores_release>
    26e2:	81 c4 ac 00 00 00    	add    $0xac,%esp
    26e8:	5b                   	pop    %ebx
    26e9:	5e                   	pop    %esi
    26ea:	5f                   	pop    %edi
    26eb:	5d                   	pop    %ebp
    26ec:	c3                   	ret    
    26ed:	8d 76 00             	lea    0x0(%esi),%esi
    26f0:	c7 44 24 08 9e 43 02 	movl   $0x2439e,0x8(%esp)
    26f7:	00 
    26f8:	c7 44 24 04 04 00 00 	movl   $0x4,0x4(%esp)
    26ff:	00 
    2700:	c7 04 24 ff ff ff ff 	movl   $0xffffffff,(%esp)
    2707:	e8 a4 96 00 00       	call   bdb0 <log_msg>
    270c:	8b 45 94             	mov    -0x6c(%ebp),%eax
    270f:	89 44 24 10          	mov    %eax,0x10(%esp)
    2713:	8d 55 b4             	lea    -0x4c(%ebp),%edx
    2716:	8b 45 88             	mov    -0x78(%ebp),%eax
    2719:	c7 44 24 1c 00 04 00 	movl   $0x400,0x1c(%esp)
    2720:	00 
    2721:	c7 44 24 18 ff ff 00 	movl   $0xffff,0x18(%esp)
    2728:	00 
    2729:	c7 44 24 14 01 04 00 	movl   $0x401,0x14(%esp)
    2730:	00 
    2731:	89 44 24 0c          	mov    %eax,0xc(%esp)
    2735:	89 5c 24 08          	mov    %ebx,0x8(%esp)
    2739:	c7 44 24 04 24 74 02 	movl   $0x27424,0x4(%esp)
    2740:	00 
    2741:	89 14 24             	mov    %edx,(%esp)
    2744:	e8 67 26 00 00       	call   4db0 <socket_bind>
    2749:	85 c0                	test   %eax,%eax
    274b:	0f 85 23 ff ff ff    	jne    2674 <udp_sock_connection+0x5a4>
    2751:	83 7d 94 10          	cmpl   $0x10,-0x6c(%ebp)
    2755:	0f 84 1e 02 00 00    	je     2979 <udp_sock_connection+0x8a9>
    275b:	c7 44 24 04 f2 ff ff 	movl   $0xfffffff2,0x4(%esp)
    2762:	ff 
    2763:	89 34 24             	mov    %esi,(%esp)
    2766:	e8 f5 11 01 00       	call   13960 <async_answer_0>
    276b:	e9 10 ff ff ff       	jmp    2680 <udp_sock_connection+0x5b0>
    2770:	89 5c 24 04          	mov    %ebx,0x4(%esp)
    2774:	c7 04 24 30 1b 00 00 	movl   $0x1b30,(%esp)
    277b:	e8 c0 4a 00 00       	call   7240 <fibril_create>
    2780:	89 43 1c             	mov    %eax,0x1c(%ebx)
    2783:	85 c0                	test   %eax,%eax
    2785:	74 51                	je     27d8 <udp_sock_connection+0x708>
    2787:	89 7d 94             	mov    %edi,-0x6c(%ebp)
    278a:	8b 45 b0             	mov    -0x50(%ebp),%eax
    278d:	8d 55 b4             	lea    -0x4c(%ebp),%edx
    2790:	8d 7d 94             	lea    -0x6c(%ebp),%edi
    2793:	89 7c 24 0c          	mov    %edi,0xc(%esp)
    2797:	89 5c 24 08          	mov    %ebx,0x8(%esp)
    279b:	89 44 24 04          	mov    %eax,0x4(%esp)
    279f:	89 14 24             	mov    %edx,(%esp)
    27a2:	e8 79 20 00 00       	call   4820 <socket_create>
    27a7:	85 c0                	test   %eax,%eax
    27a9:	0f 84 76 01 00 00    	je     2925 <udp_sock_connection+0x855>
    27af:	8b 53 1c             	mov    0x1c(%ebx),%edx
    27b2:	89 85 74 ff ff ff    	mov    %eax,-0x8c(%ebp)
    27b8:	89 14 24             	mov    %edx,(%esp)
    27bb:	e8 90 4b 00 00       	call   7350 <fibril_destroy>
    27c0:	8b 53 18             	mov    0x18(%ebx),%edx
    27c3:	89 14 24             	mov    %edx,(%esp)
    27c6:	e8 35 08 00 00       	call   3000 <udp_uc_destroy>
    27cb:	89 1c 24             	mov    %ebx,(%esp)
    27ce:	e9 e4 fd ff ff       	jmp    25b7 <udp_sock_connection+0x4e7>
    27d3:	90                   	nop
    27d4:	8d 74 26 00          	lea    0x0(%esi,%eiz,1),%esi
    27d8:	8b 43 18             	mov    0x18(%ebx),%eax
    27db:	89 04 24             	mov    %eax,(%esp)
    27de:	e8 1d 08 00 00       	call   3000 <udp_uc_destroy>
    27e3:	89 1c 24             	mov    %ebx,(%esp)
    27e6:	e8 45 e7 00 00       	call   10f30 <free>
    27eb:	c7 44 24 04 fe ff ff 	movl   $0xfffffffe,0x4(%esp)
    27f2:	ff 
    27f3:	89 34 24             	mov    %esi,(%esp)
    27f6:	e8 65 11 01 00       	call   13960 <async_answer_0>
    27fb:	e9 10 f9 ff ff       	jmp    2110 <udp_sock_connection+0x40>
    2800:	89 85 74 ff ff ff    	mov    %eax,-0x8c(%ebp)
    2806:	e8 35 50 00 00       	call   7840 <fibril_mutex_unlock>
    280b:	8b 85 74 ff ff ff    	mov    -0x8c(%ebp),%eax
    2811:	89 34 24             	mov    %esi,(%esp)
    2814:	89 44 24 04          	mov    %eax,0x4(%esp)
    2818:	e8 43 11 01 00       	call   13960 <async_answer_0>
    281d:	e9 ee f8 ff ff       	jmp    2110 <udp_sock_connection+0x40>
    2822:	8d b6 00 00 00 00    	lea    0x0(%esi),%esi
    2828:	8b 85 7c ff ff ff    	mov    -0x84(%ebp),%eax
    282e:	c7 44 24 08 76 44 02 	movl   $0x24476,0x8(%esp)
    2835:	00 
    2836:	0f c8                	bswap  %eax
    2838:	89 45 a4             	mov    %eax,-0x5c(%ebp)
    283b:	66 8b 85 7a ff ff ff 	mov    -0x86(%ebp),%ax
    2842:	66 c1 c0 08          	rol    $0x8,%ax
    2846:	c7 44 24 04 04 00 00 	movl   $0x4,0x4(%esp)
    284d:	00 
    284e:	c7 04 24 ff ff ff ff 	movl   $0xffffffff,(%esp)
    2855:	66 89 45 a2          	mov    %ax,-0x5e(%ebp)
    2859:	66 c7 45 a0 01 00    	movw   $0x1,-0x60(%ebp)
    285f:	8d 7d 94             	lea    -0x6c(%ebp),%edi
    2862:	e8 49 95 00 00       	call   bdb0 <log_msg>
    2867:	8d 45 8c             	lea    -0x74(%ebp),%eax
    286a:	89 3c 24             	mov    %edi,(%esp)
    286d:	89 44 24 04          	mov    %eax,0x4(%esp)
    2871:	e8 5a 26 01 00       	call   14ed0 <async_data_read_receive>
    2876:	84 c0                	test   %al,%al
    2878:	74 4e                	je     28c8 <udp_sock_connection+0x7f8>
    287a:	83 7d 8c 10          	cmpl   $0x10,-0x74(%ebp)
    287e:	76 07                	jbe    2887 <udp_sock_connection+0x7b7>
    2880:	c7 45 8c 10 00 00 00 	movl   $0x10,-0x74(%ebp)
    2887:	c7 44 24 08 88 44 02 	movl   $0x24488,0x8(%esp)
    288e:	00 
    288f:	c7 44 24 04 04 00 00 	movl   $0x4,0x4(%esp)
    2896:	00 
    2897:	c7 04 24 ff ff ff ff 	movl   $0xffffffff,(%esp)
    289e:	e8 0d 95 00 00       	call   bdb0 <log_msg>
    28a3:	8b 45 8c             	mov    -0x74(%ebp),%eax
    28a6:	89 44 24 08          	mov    %eax,0x8(%esp)
    28aa:	8d 45 a0             	lea    -0x60(%ebp),%eax
    28ad:	89 44 24 04          	mov    %eax,0x4(%esp)
    28b1:	8b 45 94             	mov    -0x6c(%ebp),%eax
    28b4:	89 04 24             	mov    %eax,(%esp)
    28b7:	e8 74 26 01 00       	call   14f30 <async_data_read_finalize>
    28bc:	85 c0                	test   %eax,%eax
    28be:	0f 84 4f fb ff ff    	je     2413 <udp_sock_connection+0x343>
    28c4:	8d 74 26 00          	lea    0x0(%esi,%eiz,1),%esi
    28c8:	8b 55 80             	mov    -0x80(%ebp),%edx
    28cb:	89 14 24             	mov    %edx,(%esp)
    28ce:	e8 6d 4f 00 00       	call   7840 <fibril_mutex_unlock>
    28d3:	89 1c 24             	mov    %ebx,(%esp)
    28d6:	e8 65 4f 00 00       	call   7840 <fibril_mutex_unlock>
    28db:	c7 44 24 04 f2 ff ff 	movl   $0xfffffff2,0x4(%esp)
    28e2:	ff 
    28e3:	89 34 24             	mov    %esi,(%esp)
    28e6:	e8 75 10 01 00       	call   13960 <async_answer_0>
    28eb:	e9 20 f8 ff ff       	jmp    2110 <udp_sock_connection+0x40>
    28f0:	c7 44 24 04 ca d8 ff 	movl   $0xffffd8ca,0x4(%esp)
    28f7:	ff 
    28f8:	89 34 24             	mov    %esi,(%esp)
    28fb:	e8 60 10 01 00       	call   13960 <async_answer_0>
    2900:	e9 0b f8 ff ff       	jmp    2110 <udp_sock_connection+0x40>
    2905:	8d 76 00             	lea    0x0(%esi),%esi
    2908:	89 1c 24             	mov    %ebx,(%esp)
    290b:	e8 30 4f 00 00       	call   7840 <fibril_mutex_unlock>
    2910:	c7 44 24 04 b7 d8 ff 	movl   $0xffffd8b7,0x4(%esp)
    2917:	ff 
    2918:	89 34 24             	mov    %esi,(%esp)
    291b:	e8 40 10 01 00       	call   13960 <async_answer_0>
    2920:	e9 eb f7 ff ff       	jmp    2110 <udp_sock_connection+0x40>
    2925:	8b 43 1c             	mov    0x1c(%ebx),%eax
    2928:	89 04 24             	mov    %eax,(%esp)
    292b:	e8 50 4a 00 00       	call   7380 <fibril_add_ready>
    2930:	8b 45 94             	mov    -0x6c(%ebp),%eax
    2933:	89 44 24 04          	mov    %eax,0x4(%esp)
    2937:	8d 45 b4             	lea    -0x4c(%ebp),%eax
    293a:	89 04 24             	mov    %eax,(%esp)
    293d:	e8 3e 10 00 00       	call   3980 <socket_cores_find>
    2942:	85 c0                	test   %eax,%eax
    2944:	0f 84 0b 01 00 00    	je     2a55 <udp_sock_connection+0x985>
    294a:	89 43 10             	mov    %eax,0x10(%ebx)
    294d:	8b 45 94             	mov    -0x6c(%ebp),%eax
    2950:	c7 44 24 10 08 00 00 	movl   $0x8,0x10(%esp)
    2957:	00 
    2958:	c7 44 24 0c 00 10 00 	movl   $0x1000,0xc(%esp)
    295f:	00 
    2960:	89 44 24 08          	mov    %eax,0x8(%esp)
    2964:	c7 44 24 04 00 00 00 	movl   $0x0,0x4(%esp)
    296b:	00 
    296c:	89 34 24             	mov    %esi,(%esp)
    296f:	e8 ac 10 01 00       	call   13a20 <async_answer_3>
    2974:	e9 97 f7 ff ff       	jmp    2110 <udp_sock_connection+0x40>
    2979:	c7 44 24 08 b2 43 02 	movl   $0x243b2,0x8(%esp)
    2980:	00 
    2981:	c7 44 24 04 04 00 00 	movl   $0x4,0x4(%esp)
    2988:	00 
    2989:	c7 04 24 ff ff ff ff 	movl   $0xffffffff,(%esp)
    2990:	e8 1b 94 00 00       	call   bdb0 <log_msg>
    2995:	8d 45 b4             	lea    -0x4c(%ebp),%eax
    2998:	89 5c 24 04          	mov    %ebx,0x4(%esp)
    299c:	89 04 24             	mov    %eax,(%esp)
    299f:	e8 dc 0f 00 00       	call   3980 <socket_cores_find>
    29a4:	85 c0                	test   %eax,%eax
    29a6:	0f 84 94 00 00 00    	je     2a40 <udp_sock_connection+0x970>
    29ac:	8b 55 88             	mov    -0x78(%ebp),%edx
    29af:	8b 48 20             	mov    0x20(%eax),%ecx
    29b2:	8b 40 08             	mov    0x8(%eax),%eax
    29b5:	8b 52 04             	mov    0x4(%edx),%edx
    29b8:	66 89 45 9c          	mov    %ax,-0x64(%ebp)
    29bc:	8d 45 98             	lea    -0x68(%ebp),%eax
    29bf:	89 44 24 04          	mov    %eax,0x4(%esp)
    29c3:	8b 41 18             	mov    0x18(%ecx),%eax
    29c6:	0f ca                	bswap  %edx
    29c8:	89 04 24             	mov    %eax,(%esp)
    29cb:	89 55 98             	mov    %edx,-0x68(%ebp)
    29ce:	e8 9d 04 00 00       	call   2e70 <udp_uc_set_local>
    29d3:	85 c0                	test   %eax,%eax
    29d5:	75 4d                	jne    2a24 <udp_sock_connection+0x954>
    29d7:	c7 44 24 08 cc 43 02 	movl   $0x243cc,0x8(%esp)
    29de:	00 
    29df:	c7 44 24 04 04 00 00 	movl   $0x4,0x4(%esp)
    29e6:	00 
    29e7:	c7 04 24 ff ff ff ff 	movl   $0xffffffff,(%esp)
    29ee:	e8 bd 93 00 00       	call   bdb0 <log_msg>
    29f3:	c7 44 24 04 00 00 00 	movl   $0x0,0x4(%esp)
    29fa:	00 
    29fb:	89 34 24             	mov    %esi,(%esp)
    29fe:	e8 5d 0f 01 00       	call   13960 <async_answer_0>
    2a03:	e9 78 fc ff ff       	jmp    2680 <udp_sock_connection+0x5b0>
    2a08:	c7 44 24 08 c9 01 00 	movl   $0x1c9,0x8(%esp)
    2a0f:	00 
    2a10:	c7 44 24 04 18 43 02 	movl   $0x24318,0x4(%esp)
    2a17:	00 
    2a18:	c7 04 24 be 40 02 00 	movl   $0x240be,(%esp)
    2a1f:	e8 2c 97 01 00       	call   1c150 <assert_abort>
    2a24:	c7 44 24 08 dd 00 00 	movl   $0xdd,0x8(%esp)
    2a2b:	00 
    2a2c:	c7 44 24 04 18 43 02 	movl   $0x24318,0x4(%esp)
    2a33:	00 
    2a34:	c7 04 24 be 40 02 00 	movl   $0x240be,(%esp)
    2a3b:	e8 10 97 01 00       	call   1c150 <assert_abort>
    2a40:	c7 44 24 04 ff ff ff 	movl   $0xffffffff,0x4(%esp)
    2a47:	ff 
    2a48:	89 34 24             	mov    %esi,(%esp)
    2a4b:	e8 10 0f 01 00       	call   13960 <async_answer_0>
    2a50:	e9 2b fc ff ff       	jmp    2680 <udp_sock_connection+0x5b0>
    2a55:	c7 44 24 08 94 00 00 	movl   $0x94,0x8(%esp)
    2a5c:	00 
    2a5d:	c7 44 24 04 18 43 02 	movl   $0x24318,0x4(%esp)
    2a64:	00 
    2a65:	c7 04 24 61 43 02 00 	movl   $0x24361,(%esp)
    2a6c:	e8 df 96 01 00       	call   1c150 <assert_abort>
    2a71:	eb 0d                	jmp    2a80 <udp_sock_init>
    2a73:	90                   	nop
    2a74:	90                   	nop
    2a75:	90                   	nop
    2a76:	90                   	nop
    2a77:	90                   	nop
    2a78:	90                   	nop
    2a79:	90                   	nop
    2a7a:	90                   	nop
    2a7b:	90                   	nop
    2a7c:	90                   	nop
    2a7d:	90                   	nop
    2a7e:	90                   	nop
    2a7f:	90                   	nop

00002a80 <udp_sock_init>:
    2a80:	55                   	push   %ebp
    2a81:	89 e5                	mov    %esp,%ebp
    2a83:	83 ec 18             	sub    $0x18,%esp
    2a86:	c7 04 24 24 74 02 00 	movl   $0x27424,(%esp)
    2a8d:	e8 9e 1b 00 00       	call   4630 <socket_ports_initialize>
    2a92:	c7 04 24 d0 20 00 00 	movl   $0x20d0,(%esp)
    2a99:	e8 72 f6 00 00       	call   12110 <async_set_client_connection>
    2a9e:	c7 04 24 75 64 70 20 	movl   $0x20706475,(%esp)
    2aa5:	e8 26 eb 00 00       	call   115d0 <service_register>
    2aaa:	c9                   	leave  
    2aab:	83 f8 01             	cmp    $0x1,%eax
    2aae:	19 c0                	sbb    %eax,%eax
    2ab0:	83 f0 ff             	xor    $0xffffffff,%eax
    2ab3:	25 fc fe ff ff       	and    $0xfffffefc,%eax
    2ab8:	c3                   	ret    
    2ab9:	66 90                	xchg   %ax,%ax
    2abb:	66 90                	xchg   %ax,%ax
    2abd:	66 90                	xchg   %ax,%ax
    2abf:	90                   	nop

00002ac0 <udp_pdu_new>:
    2ac0:	55                   	push   %ebp
    2ac1:	89 e5                	mov    %esp,%ebp
    2ac3:	83 ec 18             	sub    $0x18,%esp
    2ac6:	c7 44 24 04 10 00 00 	movl   $0x10,0x4(%esp)
    2acd:	00 
    2ace:	c7 04 24 01 00 00 00 	movl   $0x1,(%esp)
    2ad5:	e8 e6 e2 00 00       	call   10dc0 <calloc>
    2ada:	c9                   	leave  
    2adb:	c3                   	ret    
    2adc:	8d 74 26 00          	lea    0x0(%esi,%eiz,1),%esi

00002ae0 <udp_pdu_delete>:
    2ae0:	55                   	push   %ebp
    2ae1:	89 e5                	mov    %esp,%ebp
    2ae3:	53                   	push   %ebx
    2ae4:	83 ec 14             	sub    $0x14,%esp
    2ae7:	8b 5d 08             	mov    0x8(%ebp),%ebx
    2aea:	8b 43 08             	mov    0x8(%ebx),%eax
    2aed:	89 04 24             	mov    %eax,(%esp)
    2af0:	e8 3b e4 00 00       	call   10f30 <free>
    2af5:	89 5d 08             	mov    %ebx,0x8(%ebp)
    2af8:	83 c4 14             	add    $0x14,%esp
    2afb:	5b                   	pop    %ebx
    2afc:	5d                   	pop    %ebp
    2afd:	e9 2e e4 00 00       	jmp    10f30 <free>
    2b02:	8d b4 26 00 00 00 00 	lea    0x0(%esi,%eiz,1),%esi
    2b09:	8d bc 27 00 00 00 00 	lea    0x0(%edi,%eiz,1),%edi

00002b10 <udp_pdu_decode>:
    2b10:	55                   	push   %ebp
    2b11:	89 e5                	mov    %esp,%ebp
    2b13:	57                   	push   %edi
    2b14:	56                   	push   %esi
    2b15:	53                   	push   %ebx
    2b16:	83 ec 0c             	sub    $0xc,%esp
    2b19:	8b 45 08             	mov    0x8(%ebp),%eax
    2b1c:	8b 55 0c             	mov    0xc(%ebp),%edx
    2b1f:	8b 70 0c             	mov    0xc(%eax),%esi
    2b22:	83 fe 07             	cmp    $0x7,%esi
    2b25:	76 61                	jbe    2b88 <udp_pdu_decode+0x78>
    2b27:	8b 48 08             	mov    0x8(%eax),%ecx
    2b2a:	66 8b 39             	mov    (%ecx),%di
    2b2d:	8d 59 08             	lea    0x8(%ecx),%ebx
    2b30:	66 c1 c7 08          	rol    $0x8,%di
    2b34:	66 89 7a 0c          	mov    %di,0xc(%edx)
    2b38:	8b 38                	mov    (%eax),%edi
    2b3a:	8b 40 04             	mov    0x4(%eax),%eax
    2b3d:	89 7a 08             	mov    %edi,0x8(%edx)
    2b40:	66 8b 79 02          	mov    0x2(%ecx),%di
    2b44:	89 02                	mov    %eax,(%edx)
    2b46:	66 8b 41 04          	mov    0x4(%ecx),%ax
    2b4a:	66 c1 c7 08          	rol    $0x8,%di
    2b4e:	66 c1 c0 08          	rol    $0x8,%ax
    2b52:	66 83 f8 07          	cmp    $0x7,%ax
    2b56:	66 89 7a 04          	mov    %di,0x4(%edx)
    2b5a:	76 2c                	jbe    2b88 <udp_pdu_decode+0x78>
    2b5c:	89 c7                	mov    %eax,%edi
    2b5e:	81 e7 ff ff 00 00    	and    $0xffff,%edi
    2b64:	39 fe                	cmp    %edi,%esi
    2b66:	72 20                	jb     2b88 <udp_pdu_decode+0x78>
    2b68:	e8 83 ef ff ff       	call   1af0 <udp_msg_new>
    2b6d:	85 c0                	test   %eax,%eax
    2b6f:	74 24                	je     2b95 <udp_pdu_decode+0x85>
    2b71:	8b 55 10             	mov    0x10(%ebp),%edx
    2b74:	83 ef 08             	sub    $0x8,%edi
    2b77:	89 18                	mov    %ebx,(%eax)
    2b79:	89 78 04             	mov    %edi,0x4(%eax)
    2b7c:	89 02                	mov    %eax,(%edx)
    2b7e:	31 c0                	xor    %eax,%eax
    2b80:	83 c4 0c             	add    $0xc,%esp
    2b83:	5b                   	pop    %ebx
    2b84:	5e                   	pop    %esi
    2b85:	5f                   	pop    %edi
    2b86:	5d                   	pop    %ebp
    2b87:	c3                   	ret    
    2b88:	83 c4 0c             	add    $0xc,%esp
    2b8b:	b8 f2 ff ff ff       	mov    $0xfffffff2,%eax
    2b90:	5b                   	pop    %ebx
    2b91:	5e                   	pop    %esi
    2b92:	5f                   	pop    %edi
    2b93:	5d                   	pop    %ebp
    2b94:	c3                   	ret    
    2b95:	b8 fe ff ff ff       	mov    $0xfffffffe,%eax
    2b9a:	eb e4                	jmp    2b80 <udp_pdu_decode+0x70>
    2b9c:	8d 74 26 00          	lea    0x0(%esi,%eiz,1),%esi

00002ba0 <udp_pdu_encode>:
    2ba0:	55                   	push   %ebp
    2ba1:	89 e5                	mov    %esp,%ebp
    2ba3:	57                   	push   %edi
    2ba4:	56                   	push   %esi
    2ba5:	53                   	push   %ebx
    2ba6:	83 ec 3c             	sub    $0x3c,%esp
    2ba9:	8b 5d 08             	mov    0x8(%ebp),%ebx
    2bac:	8b 75 0c             	mov    0xc(%ebp),%esi
    2baf:	c7 44 24 04 10 00 00 	movl   $0x10,0x4(%esp)
    2bb6:	00 
    2bb7:	c7 04 24 01 00 00 00 	movl   $0x1,(%esp)
    2bbe:	e8 fd e1 00 00       	call   10dc0 <calloc>
    2bc3:	89 c7                	mov    %eax,%edi
    2bc5:	85 c0                	test   %eax,%eax
    2bc7:	0f 84 ba 01 00 00    	je     2d87 <udp_pdu_encode+0x1e7>
    2bcd:	8b 03                	mov    (%ebx),%eax
    2bcf:	89 07                	mov    %eax,(%edi)
    2bd1:	8b 43 08             	mov    0x8(%ebx),%eax
    2bd4:	89 47 04             	mov    %eax,0x4(%edi)
    2bd7:	8b 46 04             	mov    0x4(%esi),%eax
    2bda:	83 c0 08             	add    $0x8,%eax
    2bdd:	c7 04 24 01 00 00 00 	movl   $0x1,(%esp)
    2be4:	89 44 24 04          	mov    %eax,0x4(%esp)
    2be8:	89 47 0c             	mov    %eax,0xc(%edi)
    2beb:	e8 d0 e1 00 00       	call   10dc0 <calloc>
    2bf0:	89 47 08             	mov    %eax,0x8(%edi)
    2bf3:	85 c0                	test   %eax,%eax
    2bf5:	0f 84 93 01 00 00    	je     2d8e <udp_pdu_encode+0x1ee>
    2bfb:	8b 53 04             	mov    0x4(%ebx),%edx
    2bfe:	66 c1 c2 08          	rol    $0x8,%dx
    2c02:	66 89 10             	mov    %dx,(%eax)
    2c05:	8b 53 0c             	mov    0xc(%ebx),%edx
    2c08:	0f b7 4f 0c          	movzwl 0xc(%edi),%ecx
    2c0c:	66 c1 c2 08          	rol    $0x8,%dx
    2c10:	66 89 50 02          	mov    %dx,0x2(%eax)
    2c14:	89 ca                	mov    %ecx,%edx
    2c16:	66 c1 ea 08          	shr    $0x8,%dx
    2c1a:	66 c7 40 06 00 00    	movw   $0x0,0x6(%eax)
    2c20:	c1 e1 08             	shl    $0x8,%ecx
    2c23:	09 ca                	or     %ecx,%edx
    2c25:	66 89 50 04          	mov    %dx,0x4(%eax)
    2c29:	8b 56 04             	mov    0x4(%esi),%edx
    2c2c:	89 54 24 08          	mov    %edx,0x8(%esp)
    2c30:	83 c0 08             	add    $0x8,%eax
    2c33:	8b 16                	mov    (%esi),%edx
    2c35:	89 04 24             	mov    %eax,(%esp)
    2c38:	89 54 24 04          	mov    %edx,0x4(%esp)
    2c3c:	e8 3f 3c 00 00       	call   6880 <memcpy>
    2c41:	8b 17                	mov    (%edi),%edx
    2c43:	0f ca                	bswap  %edx
    2c45:	8b 4f 0c             	mov    0xc(%edi),%ecx
    2c48:	89 d6                	mov    %edx,%esi
    2c4a:	0f b7 d9             	movzwl %cx,%ebx
    2c4d:	89 4d d4             	mov    %ecx,-0x2c(%ebp)
    2c50:	89 d1                	mov    %edx,%ecx
    2c52:	c1 e9 08             	shr    $0x8,%ecx
    2c55:	89 55 dc             	mov    %edx,-0x24(%ebp)
    2c58:	81 e1 00 ff 00 00    	and    $0xff00,%ecx
    2c5e:	8b 47 04             	mov    0x4(%edi),%eax
    2c61:	66 c1 c6 08          	rol    $0x8,%si
    2c65:	c1 ea 18             	shr    $0x18,%edx
    2c68:	81 e6 ff ff 00 00    	and    $0xffff,%esi
    2c6e:	09 ca                	or     %ecx,%edx
    2c70:	89 5d d0             	mov    %ebx,-0x30(%ebp)
    2c73:	01 f2                	add    %esi,%edx
    2c75:	8b 5d d0             	mov    -0x30(%ebp),%ebx
    2c78:	0f c8                	bswap  %eax
    2c7a:	89 d6                	mov    %edx,%esi
    2c7c:	89 c1                	mov    %eax,%ecx
    2c7e:	c1 ee 10             	shr    $0x10,%esi
    2c81:	89 45 e0             	mov    %eax,-0x20(%ebp)
    2c84:	01 f2                	add    %esi,%edx
    2c86:	c6 45 e4 00          	movb   $0x0,-0x1c(%ebp)
    2c8a:	66 c1 c1 08          	rol    $0x8,%cx
    2c8e:	81 e1 ff ff 00 00    	and    $0xffff,%ecx
    2c94:	81 e2 ff ff 00 00    	and    $0xffff,%edx
    2c9a:	01 ca                	add    %ecx,%edx
    2c9c:	c6 45 e5 11          	movb   $0x11,-0x1b(%ebp)
    2ca0:	89 d1                	mov    %edx,%ecx
    2ca2:	c1 e9 10             	shr    $0x10,%ecx
    2ca5:	01 d1                	add    %edx,%ecx
    2ca7:	89 c2                	mov    %eax,%edx
    2ca9:	c1 ea 08             	shr    $0x8,%edx
    2cac:	81 e1 ff ff 00 00    	and    $0xffff,%ecx
    2cb2:	c1 e8 18             	shr    $0x18,%eax
    2cb5:	81 e2 00 ff 00 00    	and    $0xff00,%edx
    2cbb:	09 d0                	or     %edx,%eax
    2cbd:	01 c8                	add    %ecx,%eax
    2cbf:	89 c1                	mov    %eax,%ecx
    2cc1:	c1 e9 10             	shr    $0x10,%ecx
    2cc4:	01 c8                	add    %ecx,%eax
    2cc6:	66 c1 c3 08          	rol    $0x8,%bx
    2cca:	25 ff ff 00 00       	and    $0xffff,%eax
    2ccf:	66 89 5d e6          	mov    %bx,-0x1a(%ebp)
    2cd3:	66 c1 eb 08          	shr    $0x8,%bx
    2cd7:	83 c0 11             	add    $0x11,%eax
    2cda:	89 c2                	mov    %eax,%edx
    2cdc:	c1 ea 10             	shr    $0x10,%edx
    2cdf:	01 d0                	add    %edx,%eax
    2ce1:	8b 55 d0             	mov    -0x30(%ebp),%edx
    2ce4:	81 e2 00 ff 00 00    	and    $0xff00,%edx
    2cea:	25 ff ff 00 00       	and    $0xffff,%eax
    2cef:	09 d3                	or     %edx,%ebx
    2cf1:	8b 55 d4             	mov    -0x2c(%ebp),%edx
    2cf4:	81 e3 ff ff 00 00    	and    $0xffff,%ebx
    2cfa:	01 c3                	add    %eax,%ebx
    2cfc:	8b 47 08             	mov    0x8(%edi),%eax
    2cff:	89 de                	mov    %ebx,%esi
    2d01:	89 45 d0             	mov    %eax,-0x30(%ebp)
    2d04:	c1 ee 10             	shr    $0x10,%esi
    2d07:	01 de                	add    %ebx,%esi
    2d09:	d1 ea                	shr    %edx
    2d0b:	89 55 cc             	mov    %edx,-0x34(%ebp)
    2d0e:	74 32                	je     2d42 <udp_pdu_encode+0x1a2>
    2d10:	89 d1                	mov    %edx,%ecx
    2d12:	89 c2                	mov    %eax,%edx
    2d14:	8d 04 48             	lea    (%eax,%ecx,2),%eax
    2d17:	90                   	nop
    2d18:	31 db                	xor    %ebx,%ebx
    2d1a:	31 c9                	xor    %ecx,%ecx
    2d1c:	8a 1a                	mov    (%edx),%bl
    2d1e:	8a 4a 01             	mov    0x1(%edx),%cl
    2d21:	c1 e3 08             	shl    $0x8,%ebx
    2d24:	81 e6 ff ff 00 00    	and    $0xffff,%esi
    2d2a:	09 d9                	or     %ebx,%ecx
    2d2c:	83 c2 02             	add    $0x2,%edx
    2d2f:	81 e1 ff ff 00 00    	and    $0xffff,%ecx
    2d35:	01 f1                	add    %esi,%ecx
    2d37:	89 ce                	mov    %ecx,%esi
    2d39:	c1 ee 10             	shr    $0x10,%esi
    2d3c:	01 ce                	add    %ecx,%esi
    2d3e:	39 c2                	cmp    %eax,%edx
    2d40:	75 d6                	jne    2d18 <udp_pdu_encode+0x178>
    2d42:	f6 45 d4 01          	testb  $0x1,-0x2c(%ebp)
    2d46:	74 22                	je     2d6a <udp_pdu_encode+0x1ca>
    2d48:	8b 5d cc             	mov    -0x34(%ebp),%ebx
    2d4b:	8b 55 d0             	mov    -0x30(%ebp),%edx
    2d4e:	31 c0                	xor    %eax,%eax
    2d50:	81 e6 ff ff 00 00    	and    $0xffff,%esi
    2d56:	8a 04 5a             	mov    (%edx,%ebx,2),%al
    2d59:	c1 e0 08             	shl    $0x8,%eax
    2d5c:	25 ff ff 00 00       	and    $0xffff,%eax
    2d61:	01 f0                	add    %esi,%eax
    2d63:	89 c6                	mov    %eax,%esi
    2d65:	c1 ee 10             	shr    $0x10,%esi
    2d68:	01 c6                	add    %eax,%esi
    2d6a:	8b 45 10             	mov    0x10(%ebp),%eax
    2d6d:	83 f6 ff             	xor    $0xffffffff,%esi
    2d70:	8b 4d d0             	mov    -0x30(%ebp),%ecx
    2d73:	66 c1 c6 08          	rol    $0x8,%si
    2d77:	66 89 71 06          	mov    %si,0x6(%ecx)
    2d7b:	89 38                	mov    %edi,(%eax)
    2d7d:	31 c0                	xor    %eax,%eax
    2d7f:	83 c4 3c             	add    $0x3c,%esp
    2d82:	5b                   	pop    %ebx
    2d83:	5e                   	pop    %esi
    2d84:	5f                   	pop    %edi
    2d85:	5d                   	pop    %ebp
    2d86:	c3                   	ret    
    2d87:	b8 fe ff ff ff       	mov    $0xfffffffe,%eax
    2d8c:	eb f1                	jmp    2d7f <udp_pdu_encode+0x1df>
    2d8e:	c7 04 24 00 00 00 00 	movl   $0x0,(%esp)
    2d95:	e8 96 e1 00 00       	call   10f30 <free>
    2d9a:	89 3c 24             	mov    %edi,(%esp)
    2d9d:	e8 8e e1 00 00       	call   10f30 <free>
    2da2:	b8 fe ff ff ff       	mov    $0xfffffffe,%eax
    2da7:	eb d6                	jmp    2d7f <udp_pdu_encode+0x1df>
    2da9:	66 90                	xchg   %ax,%ax
    2dab:	66 90                	xchg   %ax,%ax
    2dad:	66 90                	xchg   %ax,%ax
    2daf:	90                   	nop

00002db0 <udp_uc_create>:
    2db0:	55                   	push   %ebp
    2db1:	89 e5                	mov    %esp,%ebp
    2db3:	53                   	push   %ebx
    2db4:	83 ec 14             	sub    $0x14,%esp
    2db7:	c7 44 24 08 50 46 02 	movl   $0x24650,0x8(%esp)
    2dbe:	00 
    2dbf:	c7 44 24 04 04 00 00 	movl   $0x4,0x4(%esp)
    2dc6:	00 
    2dc7:	c7 04 24 ff ff ff ff 	movl   $0xffffffff,(%esp)
    2dce:	e8 dd 8f 00 00       	call   bdb0 <log_msg>
    2dd3:	c7 44 24 04 00 00 00 	movl   $0x0,0x4(%esp)
    2dda:	00 
    2ddb:	c7 04 24 00 00 00 00 	movl   $0x0,(%esp)
    2de2:	e8 d9 e2 ff ff       	call   10c0 <udp_assoc_new>
    2de7:	89 c3                	mov    %eax,%ebx
    2de9:	85 c0                	test   %eax,%eax
    2deb:	74 1b                	je     2e08 <udp_uc_create+0x58>
    2ded:	89 04 24             	mov    %eax,(%esp)
    2df0:	e8 7b e5 ff ff       	call   1370 <udp_assoc_add>
    2df5:	8b 45 08             	mov    0x8(%ebp),%eax
    2df8:	89 18                	mov    %ebx,(%eax)
    2dfa:	83 c4 14             	add    $0x14,%esp
    2dfd:	31 c0                	xor    %eax,%eax
    2dff:	5b                   	pop    %ebx
    2e00:	5d                   	pop    %ebp
    2e01:	c3                   	ret    
    2e02:	8d b6 00 00 00 00    	lea    0x0(%esi),%esi
    2e08:	83 c4 14             	add    $0x14,%esp
    2e0b:	b8 01 00 00 00       	mov    $0x1,%eax
    2e10:	5b                   	pop    %ebx
    2e11:	5d                   	pop    %ebp
    2e12:	c3                   	ret    
    2e13:	8d b6 00 00 00 00    	lea    0x0(%esi),%esi
    2e19:	8d bc 27 00 00 00 00 	lea    0x0(%edi,%eiz,1),%edi

00002e20 <udp_uc_set_foreign>:
    2e20:	55                   	push   %ebp
    2e21:	89 e5                	mov    %esp,%ebp
    2e23:	56                   	push   %esi
    2e24:	53                   	push   %ebx
    2e25:	83 ec 20             	sub    $0x20,%esp
    2e28:	8b 5d 08             	mov    0x8(%ebp),%ebx
    2e2b:	8b 75 0c             	mov    0xc(%ebp),%esi
    2e2e:	89 74 24 10          	mov    %esi,0x10(%esp)
    2e32:	89 5c 24 0c          	mov    %ebx,0xc(%esp)
    2e36:	c7 44 24 08 60 46 02 	movl   $0x24660,0x8(%esp)
    2e3d:	00 
    2e3e:	c7 44 24 04 04 00 00 	movl   $0x4,0x4(%esp)
    2e45:	00 
    2e46:	c7 04 24 ff ff ff ff 	movl   $0xffffffff,(%esp)
    2e4d:	e8 5e 8f 00 00       	call   bdb0 <log_msg>
    2e52:	89 74 24 04          	mov    %esi,0x4(%esp)
    2e56:	89 1c 24             	mov    %ebx,(%esp)
    2e59:	e8 92 e6 ff ff       	call   14f0 <udp_assoc_set_foreign>
    2e5e:	83 c4 20             	add    $0x20,%esp
    2e61:	31 c0                	xor    %eax,%eax
    2e63:	5b                   	pop    %ebx
    2e64:	5e                   	pop    %esi
    2e65:	5d                   	pop    %ebp
    2e66:	c3                   	ret    
    2e67:	89 f6                	mov    %esi,%esi
    2e69:	8d bc 27 00 00 00 00 	lea    0x0(%edi,%eiz,1),%edi

00002e70 <udp_uc_set_local>:
    2e70:	55                   	push   %ebp
    2e71:	89 e5                	mov    %esp,%ebp
    2e73:	56                   	push   %esi
    2e74:	53                   	push   %ebx
    2e75:	83 ec 20             	sub    $0x20,%esp
    2e78:	8b 5d 08             	mov    0x8(%ebp),%ebx
    2e7b:	8b 75 0c             	mov    0xc(%ebp),%esi
    2e7e:	89 74 24 10          	mov    %esi,0x10(%esp)
    2e82:	89 5c 24 0c          	mov    %ebx,0xc(%esp)
    2e86:	c7 44 24 08 7b 46 02 	movl   $0x2467b,0x8(%esp)
    2e8d:	00 
    2e8e:	c7 44 24 04 04 00 00 	movl   $0x4,0x4(%esp)
    2e95:	00 
    2e96:	c7 04 24 ff ff ff ff 	movl   $0xffffffff,(%esp)
    2e9d:	e8 0e 8f 00 00       	call   bdb0 <log_msg>
    2ea2:	89 74 24 04          	mov    %esi,0x4(%esp)
    2ea6:	89 1c 24             	mov    %ebx,(%esp)
    2ea9:	e8 a2 e6 ff ff       	call   1550 <udp_assoc_set_local>
    2eae:	83 c4 20             	add    $0x20,%esp
    2eb1:	31 c0                	xor    %eax,%eax
    2eb3:	5b                   	pop    %ebx
    2eb4:	5e                   	pop    %esi
    2eb5:	5d                   	pop    %ebp
    2eb6:	c3                   	ret    
    2eb7:	89 f6                	mov    %esi,%esi
    2eb9:	8d bc 27 00 00 00 00 	lea    0x0(%edi,%eiz,1),%edi

00002ec0 <udp_uc_send>:
    2ec0:	55                   	push   %ebp
    2ec1:	89 e5                	mov    %esp,%ebp
    2ec3:	53                   	push   %ebx
    2ec4:	83 ec 24             	sub    $0x24,%esp
    2ec7:	8b 5d 08             	mov    0x8(%ebp),%ebx
    2eca:	8b 03                	mov    (%ebx),%eax
    2ecc:	c7 44 24 08 94 46 02 	movl   $0x24694,0x8(%esp)
    2ed3:	00 
    2ed4:	89 44 24 0c          	mov    %eax,0xc(%esp)
    2ed8:	c7 44 24 04 04 00 00 	movl   $0x4,0x4(%esp)
    2edf:	00 
    2ee0:	c7 04 24 ff ff ff ff 	movl   $0xffffffff,(%esp)
    2ee7:	e8 c4 8e 00 00       	call   bdb0 <log_msg>
    2eec:	8b 45 10             	mov    0x10(%ebp),%eax
    2eef:	89 45 f0             	mov    %eax,-0x10(%ebp)
    2ef2:	8b 45 14             	mov    0x14(%ebp),%eax
    2ef5:	89 45 f4             	mov    %eax,-0xc(%ebp)
    2ef8:	8d 45 f0             	lea    -0x10(%ebp),%eax
    2efb:	89 44 24 08          	mov    %eax,0x8(%esp)
    2eff:	8b 45 0c             	mov    0xc(%ebp),%eax
    2f02:	89 44 24 04          	mov    %eax,0x4(%esp)
    2f06:	89 1c 24             	mov    %ebx,(%esp)
    2f09:	e8 a2 e6 ff ff       	call   15b0 <udp_assoc_send>
    2f0e:	83 f8 f2             	cmp    $0xfffffff2,%eax
    2f11:	74 1d                	je     2f30 <udp_uc_send+0x70>
    2f13:	83 f8 fe             	cmp    $0xfffffffe,%eax
    2f16:	74 28                	je     2f40 <udp_uc_send+0x80>
    2f18:	3d f7 fe ff ff       	cmp    $0xfffffef7,%eax
    2f1d:	0f 94 c0             	sete   %al
    2f20:	25 ff 00 00 00       	and    $0xff,%eax
    2f25:	83 c4 24             	add    $0x24,%esp
    2f28:	8d 04 40             	lea    (%eax,%eax,2),%eax
    2f2b:	5b                   	pop    %ebx
    2f2c:	5d                   	pop    %ebp
    2f2d:	c3                   	ret    
    2f2e:	66 90                	xchg   %ax,%ax
    2f30:	83 c4 24             	add    $0x24,%esp
    2f33:	b8 02 00 00 00       	mov    $0x2,%eax
    2f38:	5b                   	pop    %ebx
    2f39:	5d                   	pop    %ebp
    2f3a:	c3                   	ret    
    2f3b:	90                   	nop
    2f3c:	8d 74 26 00          	lea    0x0(%esi,%eiz,1),%esi
    2f40:	83 c4 24             	add    $0x24,%esp
    2f43:	b8 01 00 00 00       	mov    $0x1,%eax
    2f48:	5b                   	pop    %ebx
    2f49:	5d                   	pop    %ebp
    2f4a:	c3                   	ret    
    2f4b:	90                   	nop
    2f4c:	8d 74 26 00          	lea    0x0(%esi,%eiz,1),%esi

00002f50 <udp_uc_receive>:
    2f50:	55                   	push   %ebp
    2f51:	89 e5                	mov    %esp,%ebp
    2f53:	53                   	push   %ebx
    2f54:	83 ec 24             	sub    $0x24,%esp
    2f57:	8b 5d 08             	mov    0x8(%ebp),%ebx
    2f5a:	8b 03                	mov    (%ebx),%eax
    2f5c:	c7 44 24 08 a6 46 02 	movl   $0x246a6,0x8(%esp)
    2f63:	00 
    2f64:	89 44 24 0c          	mov    %eax,0xc(%esp)
    2f68:	c7 44 24 04 04 00 00 	movl   $0x4,0x4(%esp)
    2f6f:	00 
    2f70:	c7 04 24 ff ff ff ff 	movl   $0xffffffff,(%esp)
    2f77:	e8 34 8e 00 00       	call   bdb0 <log_msg>
    2f7c:	8b 45 1c             	mov    0x1c(%ebp),%eax
    2f7f:	89 44 24 08          	mov    %eax,0x8(%esp)
    2f83:	8d 45 f4             	lea    -0xc(%ebp),%eax
    2f86:	89 1c 24             	mov    %ebx,(%esp)
    2f89:	89 44 24 04          	mov    %eax,0x4(%esp)
    2f8d:	e8 ee e6 ff ff       	call   1680 <udp_assoc_recv>
    2f92:	8b 45 f4             	mov    -0xc(%ebp),%eax
    2f95:	8b 5d 10             	mov    0x10(%ebp),%ebx
    2f98:	8b 50 04             	mov    0x4(%eax),%edx
    2f9b:	39 d3                	cmp    %edx,%ebx
    2f9d:	76 02                	jbe    2fa1 <udp_uc_receive+0x51>
    2f9f:	89 d3                	mov    %edx,%ebx
    2fa1:	89 5c 24 08          	mov    %ebx,0x8(%esp)
    2fa5:	8b 00                	mov    (%eax),%eax
    2fa7:	89 44 24 04          	mov    %eax,0x4(%esp)
    2fab:	8b 45 0c             	mov    0xc(%ebp),%eax
    2fae:	89 04 24             	mov    %eax,(%esp)
    2fb1:	e8 ca 38 00 00       	call   6880 <memcpy>
    2fb6:	8b 45 14             	mov    0x14(%ebp),%eax
    2fb9:	89 18                	mov    %ebx,(%eax)
    2fbb:	8b 45 f4             	mov    -0xc(%ebp),%eax
    2fbe:	89 04 24             	mov    %eax,(%esp)
    2fc1:	e8 4a eb ff ff       	call   1b10 <udp_msg_delete>
    2fc6:	83 c4 24             	add    $0x24,%esp
    2fc9:	31 c0                	xor    %eax,%eax
    2fcb:	5b                   	pop    %ebx
    2fcc:	5d                   	pop    %ebp
    2fcd:	c3                   	ret    
    2fce:	66 90                	xchg   %ax,%ax

00002fd0 <udp_uc_status>:
    2fd0:	55                   	push   %ebp
    2fd1:	89 e5                	mov    %esp,%ebp
    2fd3:	83 ec 18             	sub    $0x18,%esp
    2fd6:	c7 44 24 08 bb 46 02 	movl   $0x246bb,0x8(%esp)
    2fdd:	00 
    2fde:	c7 44 24 04 04 00 00 	movl   $0x4,0x4(%esp)
    2fe5:	00 
    2fe6:	c7 04 24 ff ff ff ff 	movl   $0xffffffff,(%esp)
    2fed:	e8 be 8d 00 00       	call   bdb0 <log_msg>
    2ff2:	c9                   	leave  
    2ff3:	c3                   	ret    
    2ff4:	8d b6 00 00 00 00    	lea    0x0(%esi),%esi
    2ffa:	8d bf 00 00 00 00    	lea    0x0(%edi),%edi

00003000 <udp_uc_destroy>:
    3000:	55                   	push   %ebp
    3001:	89 e5                	mov    %esp,%ebp
    3003:	53                   	push   %ebx
    3004:	83 ec 14             	sub    $0x14,%esp
    3007:	8b 5d 08             	mov    0x8(%ebp),%ebx
    300a:	c7 44 24 08 cb 46 02 	movl   $0x246cb,0x8(%esp)
    3011:	00 
    3012:	c7 44 24 04 04 00 00 	movl   $0x4,0x4(%esp)
    3019:	00 
    301a:	c7 04 24 ff ff ff ff 	movl   $0xffffffff,(%esp)
    3021:	e8 8a 8d 00 00       	call   bdb0 <log_msg>
    3026:	89 1c 24             	mov    %ebx,(%esp)
    3029:	e8 b2 e3 ff ff       	call   13e0 <udp_assoc_remove>
    302e:	89 5d 08             	mov    %ebx,0x8(%ebp)
    3031:	83 c4 14             	add    $0x14,%esp
    3034:	5b                   	pop    %ebx
    3035:	5d                   	pop    %ebp
    3036:	e9 15 e2 ff ff       	jmp    1250 <udp_assoc_delete>
    303b:	90                   	nop
    303c:	66 90                	xchg   %ax,%ax
    303e:	66 90                	xchg   %ax,%ax

00003040 <main>:
    3040:	55                   	push   %ebp
    3041:	89 e5                	mov    %esp,%ebp
    3043:	83 e4 f0             	and    $0xfffffff0,%esp
    3046:	83 ec 10             	sub    $0x10,%esp
    3049:	c7 04 24 dc 46 02 00 	movl   $0x246dc,(%esp)
    3050:	e8 ab 8a 00 00       	call   bb00 <printf>
    3055:	c7 04 24 74 47 02 00 	movl   $0x24774,(%esp)
    305c:	e8 7f 8b 00 00       	call   bbe0 <log_init>
    3061:	85 c0                	test   %eax,%eax
    3063:	75 56                	jne    30bb <main+0x7b>
    3065:	c7 44 24 08 78 47 02 	movl   $0x24778,0x8(%esp)
    306c:	00 
    306d:	c7 44 24 04 04 00 00 	movl   $0x4,0x4(%esp)
    3074:	00 
    3075:	c7 04 24 ff ff ff ff 	movl   $0xffffffff,(%esp)
    307c:	e8 2f 8d 00 00       	call   bdb0 <log_msg>
    3081:	e8 fa 01 00 00       	call   3280 <udp_inet_init>
    3086:	85 c0                	test   %eax,%eax
    3088:	75 44                	jne    30ce <main+0x8e>
    308a:	e8 f1 f9 ff ff       	call   2a80 <udp_sock_init>
    308f:	85 c0                	test   %eax,%eax
    3091:	75 5e                	jne    30f1 <main+0xb1>
    3093:	c7 04 24 83 47 02 00 	movl   $0x24783,(%esp)
    309a:	e8 61 8a 00 00       	call   bb00 <printf>
    309f:	c7 04 24 00 00 00 00 	movl   $0x0,(%esp)
    30a6:	e8 c5 5f 00 00       	call   9070 <task_retval>
    30ab:	c7 04 24 01 00 00 00 	movl   $0x1,(%esp)
    30b2:	e8 99 3e 00 00       	call   6f50 <fibril_switch>
    30b7:	31 c0                	xor    %eax,%eax
    30b9:	c9                   	leave  
    30ba:	c3                   	ret    
    30bb:	c7 04 24 08 47 02 00 	movl   $0x24708,(%esp)
    30c2:	e8 39 8a 00 00       	call   bb00 <printf>
    30c7:	b8 01 00 00 00       	mov    $0x1,%eax
    30cc:	c9                   	leave  
    30cd:	c3                   	ret    
    30ce:	c7 44 24 08 28 47 02 	movl   $0x24728,0x8(%esp)
    30d5:	00 
    30d6:	c7 44 24 04 01 00 00 	movl   $0x1,0x4(%esp)
    30dd:	00 
    30de:	c7 04 24 ff ff ff ff 	movl   $0xffffffff,(%esp)
    30e5:	e8 c6 8c 00 00       	call   bdb0 <log_msg>
    30ea:	b8 01 00 00 00       	mov    $0x1,%eax
    30ef:	c9                   	leave  
    30f0:	c3                   	ret    
    30f1:	c7 44 24 08 50 47 02 	movl   $0x24750,0x8(%esp)
    30f8:	00 
    30f9:	c7 44 24 04 01 00 00 	movl   $0x1,0x4(%esp)
    3100:	00 
    3101:	c7 04 24 ff ff ff ff 	movl   $0xffffffff,(%esp)
    3108:	e8 a3 8c 00 00       	call   bdb0 <log_msg>
    310d:	eb db                	jmp    30ea <main+0xaa>
    310f:	90                   	nop

00003110 <udp_inet_ev_recv>:
    3110:	55                   	push   %ebp
    3111:	89 e5                	mov    %esp,%ebp
    3113:	56                   	push   %esi
    3114:	53                   	push   %ebx
    3115:	83 ec 40             	sub    $0x40,%esp
    3118:	8b 75 08             	mov    0x8(%ebp),%esi
    311b:	c7 44 24 08 a0 47 02 	movl   $0x247a0,0x8(%esp)
    3122:	00 
    3123:	c7 44 24 04 04 00 00 	movl   $0x4,0x4(%esp)
    312a:	00 
    312b:	c7 04 24 ff ff ff ff 	movl   $0xffffffff,(%esp)
    3132:	e8 79 8c 00 00       	call   bdb0 <log_msg>
    3137:	e8 84 f9 ff ff       	call   2ac0 <udp_pdu_new>
    313c:	8b 56 04             	mov    0x4(%esi),%edx
    313f:	89 c3                	mov    %eax,%ebx
    3141:	8b 46 0c             	mov    0xc(%esi),%eax
    3144:	89 43 08             	mov    %eax,0x8(%ebx)
    3147:	8b 46 10             	mov    0x10(%esi),%eax
    314a:	89 43 0c             	mov    %eax,0xc(%ebx)
    314d:	8b 06                	mov    (%esi),%eax
    314f:	89 03                	mov    %eax,(%ebx)
    3151:	89 53 04             	mov    %edx,0x4(%ebx)
    3154:	89 54 24 10          	mov    %edx,0x10(%esp)
    3158:	89 44 24 0c          	mov    %eax,0xc(%esp)
    315c:	c7 44 24 08 b3 47 02 	movl   $0x247b3,0x8(%esp)
    3163:	00 
    3164:	c7 44 24 04 04 00 00 	movl   $0x4,0x4(%esp)
    316b:	00 
    316c:	c7 04 24 ff ff ff ff 	movl   $0xffffffff,(%esp)
    3173:	8d 75 e8             	lea    -0x18(%ebp),%esi
    3176:	e8 35 8c 00 00       	call   bdb0 <log_msg>
    317b:	c7 44 24 08 cd 47 02 	movl   $0x247cd,0x8(%esp)
    3182:	00 
    3183:	c7 44 24 04 04 00 00 	movl   $0x4,0x4(%esp)
    318a:	00 
    318b:	c7 04 24 ff ff ff ff 	movl   $0xffffffff,(%esp)
    3192:	e8 19 8c 00 00       	call   bdb0 <log_msg>
    3197:	8d 45 e4             	lea    -0x1c(%ebp),%eax
    319a:	89 44 24 08          	mov    %eax,0x8(%esp)
    319e:	89 74 24 04          	mov    %esi,0x4(%esp)
    31a2:	89 1c 24             	mov    %ebx,(%esp)
    31a5:	e8 66 f9 ff ff       	call   2b10 <udp_pdu_decode>
    31aa:	85 c0                	test   %eax,%eax
    31ac:	75 22                	jne    31d0 <udp_inet_ev_recv+0xc0>
    31ae:	8b 45 e4             	mov    -0x1c(%ebp),%eax
    31b1:	89 34 24             	mov    %esi,(%esp)
    31b4:	89 44 24 04          	mov    %eax,0x4(%esp)
    31b8:	e8 c3 e5 ff ff       	call   1780 <udp_assoc_received>
    31bd:	89 1c 24             	mov    %ebx,(%esp)
    31c0:	e8 1b f9 ff ff       	call   2ae0 <udp_pdu_delete>
    31c5:	83 c4 40             	add    $0x40,%esp
    31c8:	31 c0                	xor    %eax,%eax
    31ca:	5b                   	pop    %ebx
    31cb:	5e                   	pop    %esi
    31cc:	5d                   	pop    %ebp
    31cd:	c3                   	ret    
    31ce:	66 90                	xchg   %ax,%ax
    31d0:	c7 44 24 08 1c 48 02 	movl   $0x2481c,0x8(%esp)
    31d7:	00 
    31d8:	c7 44 24 04 02 00 00 	movl   $0x2,0x4(%esp)
    31df:	00 
    31e0:	c7 04 24 ff ff ff ff 	movl   $0xffffffff,(%esp)
    31e7:	e8 c4 8b 00 00       	call   bdb0 <log_msg>
    31ec:	eb cf                	jmp    31bd <udp_inet_ev_recv+0xad>
    31ee:	66 90                	xchg   %ax,%ax

000031f0 <udp_transmit_pdu>:
    31f0:	55                   	push   %ebp
    31f1:	89 e5                	mov    %esp,%ebp
    31f3:	53                   	push   %ebx
    31f4:	83 ec 44             	sub    $0x44,%esp
    31f7:	8b 5d 08             	mov    0x8(%ebp),%ebx
    31fa:	c7 44 24 08 e0 47 02 	movl   $0x247e0,0x8(%esp)
    3201:	00 
    3202:	c7 44 24 04 04 00 00 	movl   $0x4,0x4(%esp)
    3209:	00 
    320a:	c7 04 24 ff ff ff ff 	movl   $0xffffffff,(%esp)
    3211:	e8 9a 8b 00 00       	call   bdb0 <log_msg>
    3216:	8b 03                	mov    (%ebx),%eax
    3218:	89 45 e4             	mov    %eax,-0x1c(%ebp)
    321b:	8b 43 04             	mov    0x4(%ebx),%eax
    321e:	89 45 e8             	mov    %eax,-0x18(%ebp)
    3221:	8b 43 08             	mov    0x8(%ebx),%eax
    3224:	89 45 f0             	mov    %eax,-0x10(%ebp)
    3227:	8b 43 0c             	mov    0xc(%ebx),%eax
    322a:	89 45 f4             	mov    %eax,-0xc(%ebp)
    322d:	8d 45 e4             	lea    -0x1c(%ebp),%eax
    3230:	c7 44 24 08 00 00 00 	movl   $0x0,0x8(%esp)
    3237:	00 
    3238:	c7 44 24 04 ff 00 00 	movl   $0xff,0x4(%esp)
    323f:	00 
    3240:	89 04 24             	mov    %eax,(%esp)
    3243:	c6 45 ec 00          	movb   $0x0,-0x14(%ebp)
    3247:	e8 94 62 00 00       	call   94e0 <inet_send>
    324c:	85 c0                	test   %eax,%eax
    324e:	74 22                	je     3272 <udp_transmit_pdu+0x82>
    3250:	c7 44 24 08 f3 47 02 	movl   $0x247f3,0x8(%esp)
    3257:	00 
    3258:	c7 44 24 04 01 00 00 	movl   $0x1,0x4(%esp)
    325f:	00 
    3260:	c7 04 24 ff ff ff ff 	movl   $0xffffffff,(%esp)
    3267:	89 45 d4             	mov    %eax,-0x2c(%ebp)
    326a:	e8 41 8b 00 00       	call   bdb0 <log_msg>
    326f:	8b 45 d4             	mov    -0x2c(%ebp),%eax
    3272:	83 c4 44             	add    $0x44,%esp
    3275:	5b                   	pop    %ebx
    3276:	5d                   	pop    %ebp
    3277:	c3                   	ret    
    3278:	90                   	nop
    3279:	8d b4 26 00 00 00 00 	lea    0x0(%esi,%eiz,1),%esi

00003280 <udp_inet_init>:
    3280:	55                   	push   %ebp
    3281:	89 e5                	mov    %esp,%ebp
    3283:	83 ec 18             	sub    $0x18,%esp
    3286:	c7 44 24 08 0b 48 02 	movl   $0x2480b,0x8(%esp)
    328d:	00 
    328e:	c7 44 24 04 04 00 00 	movl   $0x4,0x4(%esp)
    3295:	00 
    3296:	c7 04 24 ff ff ff ff 	movl   $0xffffffff,(%esp)
    329d:	e8 0e 8b 00 00       	call   bdb0 <log_msg>
    32a2:	c7 44 24 04 18 72 02 	movl   $0x27218,0x4(%esp)
    32a9:	00 
    32aa:	c7 04 24 11 00 00 00 	movl   $0x11,(%esp)
    32b1:	e8 fa 5f 00 00       	call   92b0 <inet_init>
    32b6:	85 c0                	test   %eax,%eax
    32b8:	75 06                	jne    32c0 <udp_inet_init+0x40>
    32ba:	31 c0                	xor    %eax,%eax
    32bc:	c9                   	leave  
    32bd:	c3                   	ret    
    32be:	66 90                	xchg   %ax,%ax
    32c0:	c7 44 24 08 28 47 02 	movl   $0x24728,0x8(%esp)
    32c7:	00 
    32c8:	c7 44 24 04 01 00 00 	movl   $0x1,0x4(%esp)
    32cf:	00 
    32d0:	c7 04 24 ff ff ff ff 	movl   $0xffffffff,(%esp)
    32d7:	e8 d4 8a 00 00       	call   bdb0 <log_msg>
    32dc:	83 c8 ff             	or     $0xffffffff,%eax
    32df:	c9                   	leave  
    32e0:	c3                   	ret    
    32e1:	66 90                	xchg   %ax,%ax
    32e3:	66 90                	xchg   %ax,%ax
    32e5:	66 90                	xchg   %ax,%ax
    32e7:	66 90                	xchg   %ax,%ax
    32e9:	66 90                	xchg   %ax,%ax
    32eb:	66 90                	xchg   %ax,%ax
    32ed:	66 90                	xchg   %ax,%ax
    32ef:	90                   	nop

000032f0 <socket_port_add_core>:
    32f0:	55                   	push   %ebp
    32f1:	89 e5                	mov    %esp,%ebp
    32f3:	57                   	push   %edi
    32f4:	56                   	push   %esi
    32f5:	53                   	push   %ebx
    32f6:	83 ec 2c             	sub    $0x2c,%esp
    32f9:	89 c3                	mov    %eax,%ebx
    32fb:	89 d7                	mov    %edx,%edi
    32fd:	89 4d e4             	mov    %ecx,-0x1c(%ebp)
    3300:	c7 04 24 04 00 00 00 	movl   $0x4,(%esp)
    3307:	e8 14 db 00 00       	call   10e20 <malloc>
    330c:	89 c6                	mov    %eax,%esi
    330e:	85 c0                	test   %eax,%eax
    3310:	0f 84 c2 00 00 00    	je     33d8 <socket_port_add_core+0xe8>
    3316:	89 38                	mov    %edi,(%eax)
    3318:	85 db                	test   %ebx,%ebx
    331a:	b8 f2 ff ff ff       	mov    $0xfffffff2,%eax
    331f:	74 09                	je     332a <socket_port_add_core+0x3a>
    3321:	81 7b 28 22 56 34 12 	cmpl   $0x12345622,0x28(%ebx)
    3328:	74 16                	je     3340 <socket_port_add_core+0x50>
    332a:	89 34 24             	mov    %esi,(%esp)
    332d:	89 45 e0             	mov    %eax,-0x20(%ebp)
    3330:	e8 fb db 00 00       	call   10f30 <free>
    3335:	8b 45 e0             	mov    -0x20(%ebp),%eax
    3338:	83 c4 2c             	add    $0x2c,%esp
    333b:	5b                   	pop    %ebx
    333c:	5e                   	pop    %esi
    333d:	5f                   	pop    %edi
    333e:	5d                   	pop    %ebp
    333f:	c3                   	ret    
    3340:	81 7b 24 88 77 66 55 	cmpl   $0x55667788,0x24(%ebx)
    3347:	75 e1                	jne    332a <socket_port_add_core+0x3a>
    3349:	8b 4b 18             	mov    0x18(%ebx),%ecx
    334c:	8b 43 1c             	mov    0x1c(%ebx),%eax
    334f:	8d 51 ff             	lea    -0x1(%ecx),%edx
    3352:	39 d0                	cmp    %edx,%eax
    3354:	74 5a                	je     33b0 <socket_port_add_core+0xc0>
    3356:	8b 53 20             	mov    0x20(%ebx),%edx
    3359:	89 34 82             	mov    %esi,(%edx,%eax,4)
    335c:	8d 50 01             	lea    0x1(%eax),%edx
    335f:	8b 4b 20             	mov    0x20(%ebx),%ecx
    3362:	89 53 1c             	mov    %edx,0x1c(%ebx)
    3365:	85 c0                	test   %eax,%eax
    3367:	c7 04 91 00 00 00 00 	movl   $0x0,(%ecx,%edx,4)
    336e:	78 ba                	js     332a <socket_port_add_core+0x3a>
    3370:	89 44 24 0c          	mov    %eax,0xc(%esp)
    3374:	8b 55 08             	mov    0x8(%ebp),%edx
    3377:	8b 45 e4             	mov    -0x1c(%ebp),%eax
    337a:	89 54 24 08          	mov    %edx,0x8(%esp)
    337e:	89 44 24 04          	mov    %eax,0x4(%esp)
    3382:	89 1c 24             	mov    %ebx,(%esp)
    3385:	e8 a6 44 01 00       	call   17830 <char_map_add>
    338a:	85 c0                	test   %eax,%eax
    338c:	75 9c                	jne    332a <socket_port_add_core+0x3a>
    338e:	8b 53 2c             	mov    0x2c(%ebx),%edx
    3391:	42                   	inc    %edx
    3392:	89 53 2c             	mov    %edx,0x2c(%ebx)
    3395:	8b 55 e4             	mov    -0x1c(%ebp),%edx
    3398:	89 57 24             	mov    %edx,0x24(%edi)
    339b:	8b 55 08             	mov    0x8(%ebp),%edx
    339e:	89 57 28             	mov    %edx,0x28(%edi)
    33a1:	83 c4 2c             	add    $0x2c,%esp
    33a4:	5b                   	pop    %ebx
    33a5:	5e                   	pop    %esi
    33a6:	5f                   	pop    %edi
    33a7:	5d                   	pop    %ebp
    33a8:	c3                   	ret    
    33a9:	8d b4 26 00 00 00 00 	lea    0x0(%esi,%eiz,1),%esi
    33b0:	c1 e1 03             	shl    $0x3,%ecx
    33b3:	8b 43 20             	mov    0x20(%ebx),%eax
    33b6:	89 4c 24 04          	mov    %ecx,0x4(%esp)
    33ba:	89 04 24             	mov    %eax,(%esp)
    33bd:	e8 be dd 00 00       	call   11180 <realloc>
    33c2:	89 c2                	mov    %eax,%edx
    33c4:	85 c0                	test   %eax,%eax
    33c6:	74 1a                	je     33e2 <socket_port_add_core+0xf2>
    33c8:	8b 4b 18             	mov    0x18(%ebx),%ecx
    33cb:	89 43 20             	mov    %eax,0x20(%ebx)
    33ce:	01 c9                	add    %ecx,%ecx
    33d0:	8b 43 1c             	mov    0x1c(%ebx),%eax
    33d3:	89 4b 18             	mov    %ecx,0x18(%ebx)
    33d6:	eb 81                	jmp    3359 <socket_port_add_core+0x69>
    33d8:	b8 fe ff ff ff       	mov    $0xfffffffe,%eax
    33dd:	e9 56 ff ff ff       	jmp    3338 <socket_port_add_core+0x48>
    33e2:	b8 fe ff ff ff       	mov    $0xfffffffe,%eax
    33e7:	e9 3e ff ff ff       	jmp    332a <socket_port_add_core+0x3a>
    33ec:	8d 74 26 00          	lea    0x0(%esi,%eiz,1),%esi

000033f0 <socket_bind_insert>:
    33f0:	55                   	push   %ebp
    33f1:	89 e5                	mov    %esp,%ebp
    33f3:	57                   	push   %edi
    33f4:	56                   	push   %esi
    33f5:	53                   	push   %ebx
    33f6:	83 ec 2c             	sub    $0x2c,%esp
    33f9:	89 c7                	mov    %eax,%edi
    33fb:	89 55 e4             	mov    %edx,-0x1c(%ebp)
    33fe:	89 4d e0             	mov    %ecx,-0x20(%ebp)
    3401:	c7 04 24 30 00 00 00 	movl   $0x30,(%esp)
    3408:	e8 13 da 00 00       	call   10e20 <malloc>
    340d:	89 c3                	mov    %eax,%ebx
    340f:	85 c0                	test   %eax,%eax
    3411:	0f 84 7b 01 00 00    	je     3592 <socket_bind_insert+0x1a2>
    3417:	c7 40 2c 00 00 00 00 	movl   $0x0,0x2c(%eax)
    341e:	89 04 24             	mov    %eax,(%esp)
    3421:	e8 1a 4b 01 00       	call   17f40 <char_map_initialize>
    3426:	89 c6                	mov    %eax,%esi
    3428:	85 c0                	test   %eax,%eax
    342a:	74 24                	je     3450 <socket_bind_insert+0x60>
    342c:	81 7b 28 22 56 34 12 	cmpl   $0x12345622,0x28(%ebx)
    3433:	0f 84 8f 00 00 00    	je     34c8 <socket_bind_insert+0xd8>
    3439:	89 1c 24             	mov    %ebx,(%esp)
    343c:	e8 ef da 00 00       	call   10f30 <free>
    3441:	83 c4 2c             	add    $0x2c,%esp
    3444:	89 f0                	mov    %esi,%eax
    3446:	5b                   	pop    %ebx
    3447:	5e                   	pop    %esi
    3448:	5f                   	pop    %edi
    3449:	5d                   	pop    %ebp
    344a:	c3                   	ret    
    344b:	90                   	nop
    344c:	8d 74 26 00          	lea    0x0(%esi,%eiz,1),%esi
    3450:	c7 04 24 08 00 00 00 	movl   $0x8,(%esp)
    3457:	c7 43 18 02 00 00 00 	movl   $0x2,0x18(%ebx)
    345e:	c7 43 1c 00 00 00 00 	movl   $0x0,0x1c(%ebx)
    3465:	e8 b6 d9 00 00       	call   10e20 <malloc>
    346a:	89 43 20             	mov    %eax,0x20(%ebx)
    346d:	85 c0                	test   %eax,%eax
    346f:	0f 84 27 01 00 00    	je     359c <socket_bind_insert+0x1ac>
    3475:	8b 53 1c             	mov    0x1c(%ebx),%edx
    3478:	b9 98 50 02 00       	mov    $0x25098,%ecx
    347d:	c7 43 24 88 77 66 55 	movl   $0x55667788,0x24(%ebx)
    3484:	c7 43 28 22 56 34 12 	movl   $0x12345622,0x28(%ebx)
    348b:	c7 04 90 00 00 00 00 	movl   $0x0,(%eax,%edx,4)
    3492:	c7 04 24 00 00 00 00 	movl   $0x0,(%esp)
    3499:	8b 55 e4             	mov    -0x1c(%ebp),%edx
    349c:	89 d8                	mov    %ebx,%eax
    349e:	e8 4d fe ff ff       	call   32f0 <socket_port_add_core>
    34a3:	89 c6                	mov    %eax,%esi
    34a5:	85 c0                	test   %eax,%eax
    34a7:	75 83                	jne    342c <socket_bind_insert+0x3c>
    34a9:	85 ff                	test   %edi,%edi
    34ab:	74 09                	je     34b6 <socket_bind_insert+0xc6>
    34ad:	81 7f 0c 44 33 22 11 	cmpl   $0x11223344,0xc(%edi)
    34b4:	74 62                	je     3518 <socket_bind_insert+0x128>
    34b6:	be f2 ff ff ff       	mov    $0xfffffff2,%esi
    34bb:	81 7b 28 22 56 34 12 	cmpl   $0x12345622,0x28(%ebx)
    34c2:	0f 85 71 ff ff ff    	jne    3439 <socket_bind_insert+0x49>
    34c8:	89 1c 24             	mov    %ebx,(%esp)
    34cb:	e8 a0 45 01 00       	call   17a70 <char_map_destroy>
    34d0:	81 7b 24 88 77 66 55 	cmpl   $0x55667788,0x24(%ebx)
    34d7:	0f 85 5c ff ff ff    	jne    3439 <socket_bind_insert+0x49>
    34dd:	8b 4b 1c             	mov    0x1c(%ebx),%ecx
    34e0:	31 ff                	xor    %edi,%edi
    34e2:	c7 43 24 00 00 00 00 	movl   $0x0,0x24(%ebx)
    34e9:	8b 53 20             	mov    0x20(%ebx),%edx
    34ec:	85 c9                	test   %ecx,%ecx
    34ee:	7e 1a                	jle    350a <socket_bind_insert+0x11a>
    34f0:	8b 04 ba             	mov    (%edx,%edi,4),%eax
    34f3:	85 c0                	test   %eax,%eax
    34f5:	74 0e                	je     3505 <socket_bind_insert+0x115>
    34f7:	89 04 24             	mov    %eax,(%esp)
    34fa:	e8 31 da 00 00       	call   10f30 <free>
    34ff:	8b 53 20             	mov    0x20(%ebx),%edx
    3502:	8b 4b 1c             	mov    0x1c(%ebx),%ecx
    3505:	47                   	inc    %edi
    3506:	39 cf                	cmp    %ecx,%edi
    3508:	7c e6                	jl     34f0 <socket_bind_insert+0x100>
    350a:	89 14 24             	mov    %edx,(%esp)
    350d:	e8 1e da 00 00       	call   10f30 <free>
    3512:	e9 22 ff ff ff       	jmp    3439 <socket_bind_insert+0x49>
    3517:	90                   	nop
    3518:	8b 07                	mov    (%edi),%eax
    351a:	8b 57 04             	mov    0x4(%edi),%edx
    351d:	8d 48 ff             	lea    -0x1(%eax),%ecx
    3520:	39 ca                	cmp    %ecx,%edx
    3522:	74 41                	je     3565 <socket_bind_insert+0x175>
    3524:	8b 47 08             	mov    0x8(%edi),%eax
    3527:	89 45 dc             	mov    %eax,-0x24(%ebp)
    352a:	8d 0c 52             	lea    (%edx,%edx,2),%ecx
    352d:	85 d2                	test   %edx,%edx
    352f:	8d 0c 88             	lea    (%eax,%ecx,4),%ecx
    3532:	8b 45 e0             	mov    -0x20(%ebp),%eax
    3535:	89 01                	mov    %eax,(%ecx)
    3537:	c7 41 08 88 77 66 55 	movl   $0x55667788,0x8(%ecx)
    353e:	89 59 04             	mov    %ebx,0x4(%ecx)
    3541:	8d 4a 01             	lea    0x1(%edx),%ecx
    3544:	89 4f 04             	mov    %ecx,0x4(%edi)
    3547:	8b 45 dc             	mov    -0x24(%ebp),%eax
    354a:	8d 0c 49             	lea    (%ecx,%ecx,2),%ecx
    354d:	c7 44 88 08 00 00 00 	movl   $0x0,0x8(%eax,%ecx,4)
    3554:	00 
    3555:	78 61                	js     35b8 <socket_bind_insert+0x1c8>
    3557:	8b 55 e4             	mov    -0x1c(%ebp),%edx
    355a:	8b 45 e0             	mov    -0x20(%ebp),%eax
    355d:	89 42 08             	mov    %eax,0x8(%edx)
    3560:	e9 dc fe ff ff       	jmp    3441 <socket_bind_insert+0x51>
    3565:	8d 04 40             	lea    (%eax,%eax,2),%eax
    3568:	c1 e0 03             	shl    $0x3,%eax
    356b:	89 44 24 04          	mov    %eax,0x4(%esp)
    356f:	8b 47 08             	mov    0x8(%edi),%eax
    3572:	89 04 24             	mov    %eax,(%esp)
    3575:	e8 06 dc 00 00       	call   11180 <realloc>
    357a:	89 45 dc             	mov    %eax,-0x24(%ebp)
    357d:	85 c0                	test   %eax,%eax
    357f:	74 2d                	je     35ae <socket_bind_insert+0x1be>
    3581:	8b 17                	mov    (%edi),%edx
    3583:	89 47 08             	mov    %eax,0x8(%edi)
    3586:	01 d2                	add    %edx,%edx
    3588:	8b 45 dc             	mov    -0x24(%ebp),%eax
    358b:	89 17                	mov    %edx,(%edi)
    358d:	8b 57 04             	mov    0x4(%edi),%edx
    3590:	eb 98                	jmp    352a <socket_bind_insert+0x13a>
    3592:	be fe ff ff ff       	mov    $0xfffffffe,%esi
    3597:	e9 a5 fe ff ff       	jmp    3441 <socket_bind_insert+0x51>
    359c:	89 1c 24             	mov    %ebx,(%esp)
    359f:	be fe ff ff ff       	mov    $0xfffffffe,%esi
    35a4:	e8 c7 44 01 00       	call   17a70 <char_map_destroy>
    35a9:	e9 7e fe ff ff       	jmp    342c <socket_bind_insert+0x3c>
    35ae:	be fe ff ff ff       	mov    $0xfffffffe,%esi
    35b3:	e9 74 fe ff ff       	jmp    342c <socket_bind_insert+0x3c>
    35b8:	89 d6                	mov    %edx,%esi
    35ba:	e9 6d fe ff ff       	jmp    342c <socket_bind_insert+0x3c>
    35bf:	90                   	nop

000035c0 <socket_cores_add>:
    35c0:	55                   	push   %ebp
    35c1:	89 e5                	mov    %esp,%ebp
    35c3:	56                   	push   %esi
    35c4:	53                   	push   %ebx
    35c5:	83 ec 10             	sub    $0x10,%esp
    35c8:	8b 5d 08             	mov    0x8(%ebp),%ebx
    35cb:	85 db                	test   %ebx,%ebx
    35cd:	74 09                	je     35d8 <socket_cores_add+0x18>
    35cf:	81 7b 0c 44 33 22 11 	cmpl   $0x11223344,0xc(%ebx)
    35d6:	74 10                	je     35e8 <socket_cores_add+0x28>
    35d8:	b8 f2 ff ff ff       	mov    $0xfffffff2,%eax
    35dd:	83 c4 10             	add    $0x10,%esp
    35e0:	5b                   	pop    %ebx
    35e1:	5e                   	pop    %esi
    35e2:	5d                   	pop    %ebp
    35e3:	c3                   	ret    
    35e4:	8d 74 26 00          	lea    0x0(%esi,%eiz,1),%esi
    35e8:	8b 13                	mov    (%ebx),%edx
    35ea:	8b 43 04             	mov    0x4(%ebx),%eax
    35ed:	8d 4a ff             	lea    -0x1(%edx),%ecx
    35f0:	39 c8                	cmp    %ecx,%eax
    35f2:	74 34                	je     3628 <socket_cores_add+0x68>
    35f4:	8b 4b 08             	mov    0x8(%ebx),%ecx
    35f7:	8d 14 40             	lea    (%eax,%eax,2),%edx
    35fa:	8b 75 0c             	mov    0xc(%ebp),%esi
    35fd:	8d 14 91             	lea    (%ecx,%edx,4),%edx
    3600:	89 32                	mov    %esi,(%edx)
    3602:	8b 75 10             	mov    0x10(%ebp),%esi
    3605:	c7 42 08 88 77 66 55 	movl   $0x55667788,0x8(%edx)
    360c:	89 72 04             	mov    %esi,0x4(%edx)
    360f:	8d 50 01             	lea    0x1(%eax),%edx
    3612:	89 53 04             	mov    %edx,0x4(%ebx)
    3615:	8d 14 52             	lea    (%edx,%edx,2),%edx
    3618:	c7 44 91 08 00 00 00 	movl   $0x0,0x8(%ecx,%edx,4)
    361f:	00 
    3620:	83 c4 10             	add    $0x10,%esp
    3623:	5b                   	pop    %ebx
    3624:	5e                   	pop    %esi
    3625:	5d                   	pop    %ebp
    3626:	c3                   	ret    
    3627:	90                   	nop
    3628:	8d 04 52             	lea    (%edx,%edx,2),%eax
    362b:	c1 e0 03             	shl    $0x3,%eax
    362e:	89 44 24 04          	mov    %eax,0x4(%esp)
    3632:	8b 43 08             	mov    0x8(%ebx),%eax
    3635:	89 04 24             	mov    %eax,(%esp)
    3638:	e8 43 db 00 00       	call   11180 <realloc>
    363d:	89 c1                	mov    %eax,%ecx
    363f:	85 c0                	test   %eax,%eax
    3641:	74 0e                	je     3651 <socket_cores_add+0x91>
    3643:	8b 33                	mov    (%ebx),%esi
    3645:	89 43 08             	mov    %eax,0x8(%ebx)
    3648:	01 f6                	add    %esi,%esi
    364a:	8b 43 04             	mov    0x4(%ebx),%eax
    364d:	89 33                	mov    %esi,(%ebx)
    364f:	eb a6                	jmp    35f7 <socket_cores_add+0x37>
    3651:	b8 fe ff ff ff       	mov    $0xfffffffe,%eax
    3656:	eb 85                	jmp    35dd <socket_cores_add+0x1d>
    3658:	90                   	nop
    3659:	8d b4 26 00 00 00 00 	lea    0x0(%esi,%eiz,1),%esi

00003660 <socket_cores_clear>:
    3660:	55                   	push   %ebp
    3661:	89 e5                	mov    %esp,%ebp
    3663:	57                   	push   %edi
    3664:	56                   	push   %esi
    3665:	53                   	push   %ebx
    3666:	83 ec 1c             	sub    $0x1c,%esp
    3669:	8b 7d 08             	mov    0x8(%ebp),%edi
    366c:	85 ff                	test   %edi,%edi
    366e:	74 09                	je     3679 <socket_cores_clear+0x19>
    3670:	81 7f 0c 44 33 22 11 	cmpl   $0x11223344,0xc(%edi)
    3677:	74 0f                	je     3688 <socket_cores_clear+0x28>
    3679:	83 c4 1c             	add    $0x1c,%esp
    367c:	5b                   	pop    %ebx
    367d:	5e                   	pop    %esi
    367e:	5f                   	pop    %edi
    367f:	5d                   	pop    %ebp
    3680:	c3                   	ret    
    3681:	8d b4 26 00 00 00 00 	lea    0x0(%esi,%eiz,1),%esi
    3688:	8b 47 04             	mov    0x4(%edi),%eax
    368b:	8b 57 08             	mov    0x8(%edi),%edx
    368e:	85 c0                	test   %eax,%eax
    3690:	7e 4e                	jle    36e0 <socket_cores_clear+0x80>
    3692:	8b 4d 0c             	mov    0xc(%ebp),%ecx
    3695:	31 db                	xor    %ebx,%ebx
    3697:	85 c9                	test   %ecx,%ecx
    3699:	0f 85 86 00 00 00    	jne    3725 <socket_cores_clear+0xc5>
    369f:	89 d1                	mov    %edx,%ecx
    36a1:	eb 0d                	jmp    36b0 <socket_cores_clear+0x50>
    36a3:	90                   	nop
    36a4:	8d 74 26 00          	lea    0x0(%esi,%eiz,1),%esi
    36a8:	43                   	inc    %ebx
    36a9:	83 c1 0c             	add    $0xc,%ecx
    36ac:	39 d8                	cmp    %ebx,%eax
    36ae:	7e 30                	jle    36e0 <socket_cores_clear+0x80>
    36b0:	85 c9                	test   %ecx,%ecx
    36b2:	74 f4                	je     36a8 <socket_cores_clear+0x48>
    36b4:	81 79 08 88 77 66 55 	cmpl   $0x55667788,0x8(%ecx)
    36bb:	75 eb                	jne    36a8 <socket_cores_clear+0x48>
    36bd:	8b 71 04             	mov    0x4(%ecx),%esi
    36c0:	c7 41 08 00 00 00 00 	movl   $0x0,0x8(%ecx)
    36c7:	85 f6                	test   %esi,%esi
    36c9:	74 dd                	je     36a8 <socket_cores_clear+0x48>
    36cb:	43                   	inc    %ebx
    36cc:	c7 41 04 00 00 00 00 	movl   $0x0,0x4(%ecx)
    36d3:	83 c1 0c             	add    $0xc,%ecx
    36d6:	39 d8                	cmp    %ebx,%eax
    36d8:	7f d6                	jg     36b0 <socket_cores_clear+0x50>
    36da:	8d b6 00 00 00 00    	lea    0x0(%esi),%esi
    36e0:	c7 47 04 00 00 00 00 	movl   $0x0,0x4(%edi)
    36e7:	c7 42 08 00 00 00 00 	movl   $0x0,0x8(%edx)
    36ee:	83 c4 1c             	add    $0x1c,%esp
    36f1:	5b                   	pop    %ebx
    36f2:	5e                   	pop    %esi
    36f3:	5f                   	pop    %edi
    36f4:	5d                   	pop    %ebp
    36f5:	c3                   	ret    
    36f6:	8b 4e 04             	mov    0x4(%esi),%ecx
    36f9:	c7 46 08 00 00 00 00 	movl   $0x0,0x8(%esi)
    3700:	85 c9                	test   %ecx,%ecx
    3702:	74 1c                	je     3720 <socket_cores_clear+0xc0>
    3704:	8b 45 0c             	mov    0xc(%ebp),%eax
    3707:	89 0c 24             	mov    %ecx,(%esp)
    370a:	ff d0                	call   *%eax
    370c:	8b 57 08             	mov    0x8(%edi),%edx
    370f:	8b 47 04             	mov    0x4(%edi),%eax
    3712:	c7 46 04 00 00 00 00 	movl   $0x0,0x4(%esi)
    3719:	8d b4 26 00 00 00 00 	lea    0x0(%esi,%eiz,1),%esi
    3720:	43                   	inc    %ebx
    3721:	39 c3                	cmp    %eax,%ebx
    3723:	7d bb                	jge    36e0 <socket_cores_clear+0x80>
    3725:	8d 0c 5b             	lea    (%ebx,%ebx,2),%ecx
    3728:	8d 34 8a             	lea    (%edx,%ecx,4),%esi
    372b:	85 f6                	test   %esi,%esi
    372d:	74 f1                	je     3720 <socket_cores_clear+0xc0>
    372f:	81 7e 08 88 77 66 55 	cmpl   $0x55667788,0x8(%esi)
    3736:	75 e8                	jne    3720 <socket_cores_clear+0xc0>
    3738:	eb bc                	jmp    36f6 <socket_cores_clear+0x96>
    373a:	8d b6 00 00 00 00    	lea    0x0(%esi),%esi

00003740 <socket_cores_count>:
    3740:	55                   	push   %ebp
    3741:	89 e5                	mov    %esp,%ebp
    3743:	8b 45 08             	mov    0x8(%ebp),%eax
    3746:	85 c0                	test   %eax,%eax
    3748:	74 09                	je     3753 <socket_cores_count+0x13>
    374a:	81 78 0c 44 33 22 11 	cmpl   $0x11223344,0xc(%eax)
    3751:	74 05                	je     3758 <socket_cores_count+0x18>
    3753:	83 c8 ff             	or     $0xffffffff,%eax
    3756:	5d                   	pop    %ebp
    3757:	c3                   	ret    
    3758:	8b 40 04             	mov    0x4(%eax),%eax
    375b:	5d                   	pop    %ebp
    375c:	c3                   	ret    
    375d:	8d 76 00             	lea    0x0(%esi),%esi

00003760 <socket_cores_destroy>:
    3760:	55                   	push   %ebp
    3761:	89 e5                	mov    %esp,%ebp
    3763:	57                   	push   %edi
    3764:	56                   	push   %esi
    3765:	53                   	push   %ebx
    3766:	83 ec 2c             	sub    $0x2c,%esp
    3769:	8b 7d 08             	mov    0x8(%ebp),%edi
    376c:	8b 45 0c             	mov    0xc(%ebp),%eax
    376f:	89 45 e4             	mov    %eax,-0x1c(%ebp)
    3772:	85 ff                	test   %edi,%edi
    3774:	74 09                	je     377f <socket_cores_destroy+0x1f>
    3776:	81 7f 0c 44 33 22 11 	cmpl   $0x11223344,0xc(%edi)
    377d:	74 09                	je     3788 <socket_cores_destroy+0x28>
    377f:	83 c4 2c             	add    $0x2c,%esp
    3782:	5b                   	pop    %ebx
    3783:	5e                   	pop    %esi
    3784:	5f                   	pop    %edi
    3785:	5d                   	pop    %ebp
    3786:	c3                   	ret    
    3787:	90                   	nop
    3788:	8b 47 04             	mov    0x4(%edi),%eax
    378b:	c7 47 0c 00 00 00 00 	movl   $0x0,0xc(%edi)
    3792:	8b 57 08             	mov    0x8(%edi),%edx
    3795:	85 c0                	test   %eax,%eax
    3797:	7e 47                	jle    37e0 <socket_cores_destroy+0x80>
    3799:	8b 4d e4             	mov    -0x1c(%ebp),%ecx
    379c:	31 db                	xor    %ebx,%ebx
    379e:	85 c9                	test   %ecx,%ecx
    37a0:	75 7b                	jne    381d <socket_cores_destroy+0xbd>
    37a2:	89 d1                	mov    %edx,%ecx
    37a4:	eb 0a                	jmp    37b0 <socket_cores_destroy+0x50>
    37a6:	66 90                	xchg   %ax,%ax
    37a8:	43                   	inc    %ebx
    37a9:	83 c1 0c             	add    $0xc,%ecx
    37ac:	39 d8                	cmp    %ebx,%eax
    37ae:	7e 30                	jle    37e0 <socket_cores_destroy+0x80>
    37b0:	85 c9                	test   %ecx,%ecx
    37b2:	74 f4                	je     37a8 <socket_cores_destroy+0x48>
    37b4:	81 79 08 88 77 66 55 	cmpl   $0x55667788,0x8(%ecx)
    37bb:	75 eb                	jne    37a8 <socket_cores_destroy+0x48>
    37bd:	8b 71 04             	mov    0x4(%ecx),%esi
    37c0:	c7 41 08 00 00 00 00 	movl   $0x0,0x8(%ecx)
    37c7:	85 f6                	test   %esi,%esi
    37c9:	74 dd                	je     37a8 <socket_cores_destroy+0x48>
    37cb:	43                   	inc    %ebx
    37cc:	c7 41 04 00 00 00 00 	movl   $0x0,0x4(%ecx)
    37d3:	83 c1 0c             	add    $0xc,%ecx
    37d6:	39 d8                	cmp    %ebx,%eax
    37d8:	7f d6                	jg     37b0 <socket_cores_destroy+0x50>
    37da:	8d b6 00 00 00 00    	lea    0x0(%esi),%esi
    37e0:	89 55 08             	mov    %edx,0x8(%ebp)
    37e3:	83 c4 2c             	add    $0x2c,%esp
    37e6:	5b                   	pop    %ebx
    37e7:	5e                   	pop    %esi
    37e8:	5f                   	pop    %edi
    37e9:	5d                   	pop    %ebp
    37ea:	e9 41 d7 00 00       	jmp    10f30 <free>
    37ef:	8b 4e 04             	mov    0x4(%esi),%ecx
    37f2:	c7 46 08 00 00 00 00 	movl   $0x0,0x8(%esi)
    37f9:	85 c9                	test   %ecx,%ecx
    37fb:	74 1b                	je     3818 <socket_cores_destroy+0xb8>
    37fd:	8b 45 e4             	mov    -0x1c(%ebp),%eax
    3800:	89 0c 24             	mov    %ecx,(%esp)
    3803:	ff d0                	call   *%eax
    3805:	8b 57 08             	mov    0x8(%edi),%edx
    3808:	8b 47 04             	mov    0x4(%edi),%eax
    380b:	c7 46 04 00 00 00 00 	movl   $0x0,0x4(%esi)
    3812:	8d b6 00 00 00 00    	lea    0x0(%esi),%esi
    3818:	43                   	inc    %ebx
    3819:	39 c3                	cmp    %eax,%ebx
    381b:	7d c3                	jge    37e0 <socket_cores_destroy+0x80>
    381d:	8d 0c 5b             	lea    (%ebx,%ebx,2),%ecx
    3820:	8d 34 8a             	lea    (%edx,%ecx,4),%esi
    3823:	85 f6                	test   %esi,%esi
    3825:	74 f1                	je     3818 <socket_cores_destroy+0xb8>
    3827:	81 7e 08 88 77 66 55 	cmpl   $0x55667788,0x8(%esi)
    382e:	75 e8                	jne    3818 <socket_cores_destroy+0xb8>
    3830:	eb bd                	jmp    37ef <socket_cores_destroy+0x8f>
    3832:	8d b4 26 00 00 00 00 	lea    0x0(%esi,%eiz,1),%esi
    3839:	8d bc 27 00 00 00 00 	lea    0x0(%edi,%eiz,1),%edi

00003840 <socket_cores_exclude>:
    3840:	55                   	push   %ebp
    3841:	89 e5                	mov    %esp,%ebp
    3843:	57                   	push   %edi
    3844:	56                   	push   %esi
    3845:	53                   	push   %ebx
    3846:	83 ec 2c             	sub    $0x2c,%esp
    3849:	8b 7d 08             	mov    0x8(%ebp),%edi
    384c:	8b 4d 0c             	mov    0xc(%ebp),%ecx
    384f:	85 ff                	test   %edi,%edi
    3851:	74 09                	je     385c <socket_cores_exclude+0x1c>
    3853:	81 7f 0c 44 33 22 11 	cmpl   $0x11223344,0xc(%edi)
    385a:	74 0c                	je     3868 <socket_cores_exclude+0x28>
    385c:	83 c4 2c             	add    $0x2c,%esp
    385f:	5b                   	pop    %ebx
    3860:	5e                   	pop    %esi
    3861:	5f                   	pop    %edi
    3862:	5d                   	pop    %ebp
    3863:	c3                   	ret    
    3864:	8d 74 26 00          	lea    0x0(%esi,%eiz,1),%esi
    3868:	8b 57 04             	mov    0x4(%edi),%edx
    386b:	85 d2                	test   %edx,%edx
    386d:	7e ed                	jle    385c <socket_cores_exclude+0x1c>
    386f:	8b 45 10             	mov    0x10(%ebp),%eax
    3872:	31 db                	xor    %ebx,%ebx
    3874:	85 c0                	test   %eax,%eax
    3876:	75 71                	jne    38e9 <socket_cores_exclude+0xa9>
    3878:	8b 7f 08             	mov    0x8(%edi),%edi
    387b:	31 c0                	xor    %eax,%eax
    387d:	eb 09                	jmp    3888 <socket_cores_exclude+0x48>
    387f:	90                   	nop
    3880:	43                   	inc    %ebx
    3881:	83 c0 0c             	add    $0xc,%eax
    3884:	39 da                	cmp    %ebx,%edx
    3886:	7e d4                	jle    385c <socket_cores_exclude+0x1c>
    3888:	89 fe                	mov    %edi,%esi
    388a:	01 c6                	add    %eax,%esi
    388c:	74 f2                	je     3880 <socket_cores_exclude+0x40>
    388e:	81 7e 08 88 77 66 55 	cmpl   $0x55667788,0x8(%esi)
    3895:	75 e9                	jne    3880 <socket_cores_exclude+0x40>
    3897:	39 0e                	cmp    %ecx,(%esi)
    3899:	75 e5                	jne    3880 <socket_cores_exclude+0x40>
    389b:	c7 46 08 00 00 00 00 	movl   $0x0,0x8(%esi)
    38a2:	83 7e 04 00          	cmpl   $0x0,0x4(%esi)
    38a6:	74 d8                	je     3880 <socket_cores_exclude+0x40>
    38a8:	c7 46 04 00 00 00 00 	movl   $0x0,0x4(%esi)
    38af:	eb cf                	jmp    3880 <socket_cores_exclude+0x40>
    38b1:	39 0e                	cmp    %ecx,(%esi)
    38b3:	75 2b                	jne    38e0 <socket_cores_exclude+0xa0>
    38b5:	8b 46 04             	mov    0x4(%esi),%eax
    38b8:	c7 46 08 00 00 00 00 	movl   $0x0,0x8(%esi)
    38bf:	85 c0                	test   %eax,%eax
    38c1:	74 1d                	je     38e0 <socket_cores_exclude+0xa0>
    38c3:	89 04 24             	mov    %eax,(%esp)
    38c6:	89 4d e4             	mov    %ecx,-0x1c(%ebp)
    38c9:	8b 45 10             	mov    0x10(%ebp),%eax
    38cc:	ff d0                	call   *%eax
    38ce:	c7 46 04 00 00 00 00 	movl   $0x0,0x4(%esi)
    38d5:	8b 57 04             	mov    0x4(%edi),%edx
    38d8:	8b 4d e4             	mov    -0x1c(%ebp),%ecx
    38db:	90                   	nop
    38dc:	8d 74 26 00          	lea    0x0(%esi,%eiz,1),%esi
    38e0:	43                   	inc    %ebx
    38e1:	39 d3                	cmp    %edx,%ebx
    38e3:	0f 8d 73 ff ff ff    	jge    385c <socket_cores_exclude+0x1c>
    38e9:	8d 34 5b             	lea    (%ebx,%ebx,2),%esi
    38ec:	8b 47 08             	mov    0x8(%edi),%eax
    38ef:	8d 34 b0             	lea    (%eax,%esi,4),%esi
    38f2:	85 f6                	test   %esi,%esi
    38f4:	74 ea                	je     38e0 <socket_cores_exclude+0xa0>
    38f6:	81 7e 08 88 77 66 55 	cmpl   $0x55667788,0x8(%esi)
    38fd:	75 e1                	jne    38e0 <socket_cores_exclude+0xa0>
    38ff:	eb b0                	jmp    38b1 <socket_cores_exclude+0x71>
    3901:	eb 0d                	jmp    3910 <socket_cores_exclude_index>
    3903:	90                   	nop
    3904:	90                   	nop
    3905:	90                   	nop
    3906:	90                   	nop
    3907:	90                   	nop
    3908:	90                   	nop
    3909:	90                   	nop
    390a:	90                   	nop
    390b:	90                   	nop
    390c:	90                   	nop
    390d:	90                   	nop
    390e:	90                   	nop
    390f:	90                   	nop

00003910 <socket_cores_exclude_index>:
    3910:	55                   	push   %ebp
    3911:	89 e5                	mov    %esp,%ebp
    3913:	53                   	push   %ebx
    3914:	83 ec 14             	sub    $0x14,%esp
    3917:	8b 45 08             	mov    0x8(%ebp),%eax
    391a:	8b 55 0c             	mov    0xc(%ebp),%edx
    391d:	85 c0                	test   %eax,%eax
    391f:	74 09                	je     392a <socket_cores_exclude_index+0x1a>
    3921:	81 78 0c 44 33 22 11 	cmpl   $0x11223344,0xc(%eax)
    3928:	74 06                	je     3930 <socket_cores_exclude_index+0x20>
    392a:	83 c4 14             	add    $0x14,%esp
    392d:	5b                   	pop    %ebx
    392e:	5d                   	pop    %ebp
    392f:	c3                   	ret    
    3930:	85 d2                	test   %edx,%edx
    3932:	78 f6                	js     392a <socket_cores_exclude_index+0x1a>
    3934:	3b 50 04             	cmp    0x4(%eax),%edx
    3937:	7d f1                	jge    392a <socket_cores_exclude_index+0x1a>
    3939:	8d 14 52             	lea    (%edx,%edx,2),%edx
    393c:	8b 40 08             	mov    0x8(%eax),%eax
    393f:	8d 1c 90             	lea    (%eax,%edx,4),%ebx
    3942:	85 db                	test   %ebx,%ebx
    3944:	74 e4                	je     392a <socket_cores_exclude_index+0x1a>
    3946:	81 7b 08 88 77 66 55 	cmpl   $0x55667788,0x8(%ebx)
    394d:	75 db                	jne    392a <socket_cores_exclude_index+0x1a>
    394f:	8b 43 04             	mov    0x4(%ebx),%eax
    3952:	c7 43 08 00 00 00 00 	movl   $0x0,0x8(%ebx)
    3959:	85 c0                	test   %eax,%eax
    395b:	74 cd                	je     392a <socket_cores_exclude_index+0x1a>
    395d:	8b 55 10             	mov    0x10(%ebp),%edx
    3960:	85 d2                	test   %edx,%edx
    3962:	74 08                	je     396c <socket_cores_exclude_index+0x5c>
    3964:	89 04 24             	mov    %eax,(%esp)
    3967:	8b 45 10             	mov    0x10(%ebp),%eax
    396a:	ff d0                	call   *%eax
    396c:	c7 43 04 00 00 00 00 	movl   $0x0,0x4(%ebx)
    3973:	eb b5                	jmp    392a <socket_cores_exclude_index+0x1a>
    3975:	8d 74 26 00          	lea    0x0(%esi,%eiz,1),%esi
    3979:	8d bc 27 00 00 00 00 	lea    0x0(%edi,%eiz,1),%edi

00003980 <socket_cores_find>:
    3980:	55                   	push   %ebp
    3981:	31 c0                	xor    %eax,%eax
    3983:	89 e5                	mov    %esp,%ebp
    3985:	53                   	push   %ebx
    3986:	8b 55 08             	mov    0x8(%ebp),%edx
    3989:	8b 5d 0c             	mov    0xc(%ebp),%ebx
    398c:	85 d2                	test   %edx,%edx
    398e:	74 09                	je     3999 <socket_cores_find+0x19>
    3990:	81 7a 0c 44 33 22 11 	cmpl   $0x11223344,0xc(%edx)
    3997:	74 07                	je     39a0 <socket_cores_find+0x20>
    3999:	5b                   	pop    %ebx
    399a:	5d                   	pop    %ebp
    399b:	c3                   	ret    
    399c:	8d 74 26 00          	lea    0x0(%esi,%eiz,1),%esi
    39a0:	8b 4a 04             	mov    0x4(%edx),%ecx
    39a3:	85 c9                	test   %ecx,%ecx
    39a5:	7e f2                	jle    3999 <socket_cores_find+0x19>
    39a7:	8b 42 08             	mov    0x8(%edx),%eax
    39aa:	31 d2                	xor    %edx,%edx
    39ac:	eb 0a                	jmp    39b8 <socket_cores_find+0x38>
    39ae:	66 90                	xchg   %ax,%ax
    39b0:	42                   	inc    %edx
    39b1:	83 c0 0c             	add    $0xc,%eax
    39b4:	39 ca                	cmp    %ecx,%edx
    39b6:	74 18                	je     39d0 <socket_cores_find+0x50>
    39b8:	85 c0                	test   %eax,%eax
    39ba:	74 f4                	je     39b0 <socket_cores_find+0x30>
    39bc:	81 78 08 88 77 66 55 	cmpl   $0x55667788,0x8(%eax)
    39c3:	75 eb                	jne    39b0 <socket_cores_find+0x30>
    39c5:	39 18                	cmp    %ebx,(%eax)
    39c7:	75 e7                	jne    39b0 <socket_cores_find+0x30>
    39c9:	8b 40 04             	mov    0x4(%eax),%eax
    39cc:	5b                   	pop    %ebx
    39cd:	5d                   	pop    %ebp
    39ce:	c3                   	ret    
    39cf:	90                   	nop
    39d0:	31 c0                	xor    %eax,%eax
    39d2:	5b                   	pop    %ebx
    39d3:	5d                   	pop    %ebp
    39d4:	c3                   	ret    
    39d5:	8d 74 26 00          	lea    0x0(%esi,%eiz,1),%esi
    39d9:	8d bc 27 00 00 00 00 	lea    0x0(%edi,%eiz,1),%edi

000039e0 <socket_cores_update>:
    39e0:	55                   	push   %ebp
    39e1:	83 c8 ff             	or     $0xffffffff,%eax
    39e4:	89 e5                	mov    %esp,%ebp
    39e6:	57                   	push   %edi
    39e7:	56                   	push   %esi
    39e8:	53                   	push   %ebx
    39e9:	8b 55 08             	mov    0x8(%ebp),%edx
    39ec:	8b 75 0c             	mov    0xc(%ebp),%esi
    39ef:	8b 7d 10             	mov    0x10(%ebp),%edi
    39f2:	85 d2                	test   %edx,%edx
    39f4:	74 09                	je     39ff <socket_cores_update+0x1f>
    39f6:	81 7a 0c 44 33 22 11 	cmpl   $0x11223344,0xc(%edx)
    39fd:	74 09                	je     3a08 <socket_cores_update+0x28>
    39ff:	5b                   	pop    %ebx
    3a00:	5e                   	pop    %esi
    3a01:	5f                   	pop    %edi
    3a02:	5d                   	pop    %ebp
    3a03:	c3                   	ret    
    3a04:	8d 74 26 00          	lea    0x0(%esi,%eiz,1),%esi
    3a08:	8b 4a 04             	mov    0x4(%edx),%ecx
    3a0b:	85 c9                	test   %ecx,%ecx
    3a0d:	7e f0                	jle    39ff <socket_cores_update+0x1f>
    3a0f:	8b 42 08             	mov    0x8(%edx),%eax
    3a12:	31 d2                	xor    %edx,%edx
    3a14:	eb 0a                	jmp    3a20 <socket_cores_update+0x40>
    3a16:	66 90                	xchg   %ax,%ax
    3a18:	42                   	inc    %edx
    3a19:	83 c0 0c             	add    $0xc,%eax
    3a1c:	39 ca                	cmp    %ecx,%edx
    3a1e:	74 20                	je     3a40 <socket_cores_update+0x60>
    3a20:	85 c0                	test   %eax,%eax
    3a22:	74 f4                	je     3a18 <socket_cores_update+0x38>
    3a24:	81 78 08 88 77 66 55 	cmpl   $0x55667788,0x8(%eax)
    3a2b:	75 eb                	jne    3a18 <socket_cores_update+0x38>
    3a2d:	8b 18                	mov    (%eax),%ebx
    3a2f:	39 fb                	cmp    %edi,%ebx
    3a31:	74 15                	je     3a48 <socket_cores_update+0x68>
    3a33:	39 f3                	cmp    %esi,%ebx
    3a35:	75 e1                	jne    3a18 <socket_cores_update+0x38>
    3a37:	89 38                	mov    %edi,(%eax)
    3a39:	31 c0                	xor    %eax,%eax
    3a3b:	5b                   	pop    %ebx
    3a3c:	5e                   	pop    %esi
    3a3d:	5f                   	pop    %edi
    3a3e:	5d                   	pop    %ebp
    3a3f:	c3                   	ret    
    3a40:	5b                   	pop    %ebx
    3a41:	83 c8 ff             	or     $0xffffffff,%eax
    3a44:	5e                   	pop    %esi
    3a45:	5f                   	pop    %edi
    3a46:	5d                   	pop    %ebp
    3a47:	c3                   	ret    
    3a48:	5b                   	pop    %ebx
    3a49:	b8 fc fe ff ff       	mov    $0xfffffefc,%eax
    3a4e:	5e                   	pop    %esi
    3a4f:	5f                   	pop    %edi
    3a50:	5d                   	pop    %ebp
    3a51:	c3                   	ret    
    3a52:	8d b4 26 00 00 00 00 	lea    0x0(%esi,%eiz,1),%esi
    3a59:	8d bc 27 00 00 00 00 	lea    0x0(%edi,%eiz,1),%edi

00003a60 <socket_cores_get_index>:
    3a60:	55                   	push   %ebp
    3a61:	89 e5                	mov    %esp,%ebp
    3a63:	8b 45 08             	mov    0x8(%ebp),%eax
    3a66:	8b 55 0c             	mov    0xc(%ebp),%edx
    3a69:	85 c0                	test   %eax,%eax
    3a6b:	74 09                	je     3a76 <socket_cores_get_index+0x16>
    3a6d:	81 78 0c 44 33 22 11 	cmpl   $0x11223344,0xc(%eax)
    3a74:	74 0a                	je     3a80 <socket_cores_get_index+0x20>
    3a76:	31 c0                	xor    %eax,%eax
    3a78:	5d                   	pop    %ebp
    3a79:	c3                   	ret    
    3a7a:	8d b6 00 00 00 00    	lea    0x0(%esi),%esi
    3a80:	85 d2                	test   %edx,%edx
    3a82:	78 f2                	js     3a76 <socket_cores_get_index+0x16>
    3a84:	3b 50 04             	cmp    0x4(%eax),%edx
    3a87:	7d ed                	jge    3a76 <socket_cores_get_index+0x16>
    3a89:	8d 14 52             	lea    (%edx,%edx,2),%edx
    3a8c:	8b 40 08             	mov    0x8(%eax),%eax
    3a8f:	8d 04 90             	lea    (%eax,%edx,4),%eax
    3a92:	85 c0                	test   %eax,%eax
    3a94:	74 e0                	je     3a76 <socket_cores_get_index+0x16>
    3a96:	81 78 08 88 77 66 55 	cmpl   $0x55667788,0x8(%eax)
    3a9d:	75 d7                	jne    3a76 <socket_cores_get_index+0x16>
    3a9f:	8b 40 04             	mov    0x4(%eax),%eax
    3aa2:	5d                   	pop    %ebp
    3aa3:	c3                   	ret    
    3aa4:	8d b6 00 00 00 00    	lea    0x0(%esi),%esi
    3aaa:	8d bf 00 00 00 00    	lea    0x0(%edi),%edi

00003ab0 <socket_cores_initialize>:
    3ab0:	55                   	push   %ebp
    3ab1:	89 e5                	mov    %esp,%ebp
    3ab3:	53                   	push   %ebx
    3ab4:	83 ec 14             	sub    $0x14,%esp
    3ab7:	8b 5d 08             	mov    0x8(%ebp),%ebx
    3aba:	85 db                	test   %ebx,%ebx
    3abc:	74 42                	je     3b00 <socket_cores_initialize+0x50>
    3abe:	c7 03 02 00 00 00    	movl   $0x2,(%ebx)
    3ac4:	c7 43 04 00 00 00 00 	movl   $0x0,0x4(%ebx)
    3acb:	c7 04 24 18 00 00 00 	movl   $0x18,(%esp)
    3ad2:	e8 49 d3 00 00       	call   10e20 <malloc>
    3ad7:	89 43 08             	mov    %eax,0x8(%ebx)
    3ada:	85 c0                	test   %eax,%eax
    3adc:	74 29                	je     3b07 <socket_cores_initialize+0x57>
    3ade:	8b 53 04             	mov    0x4(%ebx),%edx
    3ae1:	8d 14 52             	lea    (%edx,%edx,2),%edx
    3ae4:	c7 44 90 08 00 00 00 	movl   $0x0,0x8(%eax,%edx,4)
    3aeb:	00 
    3aec:	c7 43 0c 44 33 22 11 	movl   $0x11223344,0xc(%ebx)
    3af3:	31 c0                	xor    %eax,%eax
    3af5:	83 c4 14             	add    $0x14,%esp
    3af8:	5b                   	pop    %ebx
    3af9:	5d                   	pop    %ebp
    3afa:	c3                   	ret    
    3afb:	90                   	nop
    3afc:	8d 74 26 00          	lea    0x0(%esi,%eiz,1),%esi
    3b00:	b8 f2 ff ff ff       	mov    $0xfffffff2,%eax
    3b05:	eb ee                	jmp    3af5 <socket_cores_initialize+0x45>
    3b07:	b8 fe ff ff ff       	mov    $0xfffffffe,%eax
    3b0c:	eb e7                	jmp    3af5 <socket_cores_initialize+0x45>
    3b0e:	66 90                	xchg   %ax,%ax

00003b10 <socket_cores_is_valid>:
    3b10:	55                   	push   %ebp
    3b11:	89 e5                	mov    %esp,%ebp
    3b13:	8b 45 08             	mov    0x8(%ebp),%eax
    3b16:	85 c0                	test   %eax,%eax
    3b18:	74 16                	je     3b30 <socket_cores_is_valid+0x20>
    3b1a:	81 78 0c 44 33 22 11 	cmpl   $0x11223344,0xc(%eax)
    3b21:	0f 94 c0             	sete   %al
    3b24:	25 ff 00 00 00       	and    $0xff,%eax
    3b29:	5d                   	pop    %ebp
    3b2a:	c3                   	ret    
    3b2b:	90                   	nop
    3b2c:	8d 74 26 00          	lea    0x0(%esi,%eiz,1),%esi
    3b30:	31 c0                	xor    %eax,%eax
    3b32:	5d                   	pop    %ebp
    3b33:	c3                   	ret    
    3b34:	8d b6 00 00 00 00    	lea    0x0(%esi),%esi
    3b3a:	8d bf 00 00 00 00    	lea    0x0(%edi),%edi

00003b40 <socket_cores_item_destroy>:
    3b40:	55                   	push   %ebp
    3b41:	89 e5                	mov    %esp,%ebp
    3b43:	53                   	push   %ebx
    3b44:	83 ec 14             	sub    $0x14,%esp
    3b47:	8b 5d 08             	mov    0x8(%ebp),%ebx
    3b4a:	85 db                	test   %ebx,%ebx
    3b4c:	74 09                	je     3b57 <socket_cores_item_destroy+0x17>
    3b4e:	81 7b 08 88 77 66 55 	cmpl   $0x55667788,0x8(%ebx)
    3b55:	74 09                	je     3b60 <socket_cores_item_destroy+0x20>
    3b57:	83 c4 14             	add    $0x14,%esp
    3b5a:	5b                   	pop    %ebx
    3b5b:	5d                   	pop    %ebp
    3b5c:	c3                   	ret    
    3b5d:	8d 76 00             	lea    0x0(%esi),%esi
    3b60:	8b 43 04             	mov    0x4(%ebx),%eax
    3b63:	c7 43 08 00 00 00 00 	movl   $0x0,0x8(%ebx)
    3b6a:	85 c0                	test   %eax,%eax
    3b6c:	74 e9                	je     3b57 <socket_cores_item_destroy+0x17>
    3b6e:	8b 4d 0c             	mov    0xc(%ebp),%ecx
    3b71:	85 c9                	test   %ecx,%ecx
    3b73:	74 08                	je     3b7d <socket_cores_item_destroy+0x3d>
    3b75:	89 04 24             	mov    %eax,(%esp)
    3b78:	8b 45 0c             	mov    0xc(%ebp),%eax
    3b7b:	ff d0                	call   *%eax
    3b7d:	c7 43 04 00 00 00 00 	movl   $0x0,0x4(%ebx)
    3b84:	83 c4 14             	add    $0x14,%esp
    3b87:	5b                   	pop    %ebx
    3b88:	5d                   	pop    %ebp
    3b89:	c3                   	ret    
    3b8a:	8d b6 00 00 00 00    	lea    0x0(%esi),%esi

00003b90 <socket_cores_item_is_valid>:
    3b90:	55                   	push   %ebp
    3b91:	89 e5                	mov    %esp,%ebp
    3b93:	8b 45 08             	mov    0x8(%ebp),%eax
    3b96:	85 c0                	test   %eax,%eax
    3b98:	74 16                	je     3bb0 <socket_cores_item_is_valid+0x20>
    3b9a:	81 78 08 88 77 66 55 	cmpl   $0x55667788,0x8(%eax)
    3ba1:	0f 94 c0             	sete   %al
    3ba4:	25 ff 00 00 00       	and    $0xff,%eax
    3ba9:	5d                   	pop    %ebp
    3baa:	c3                   	ret    
    3bab:	90                   	nop
    3bac:	8d 74 26 00          	lea    0x0(%esi,%eiz,1),%esi
    3bb0:	31 c0                	xor    %eax,%eax
    3bb2:	5d                   	pop    %ebp
    3bb3:	c3                   	ret    
    3bb4:	8d b6 00 00 00 00    	lea    0x0(%esi),%esi
    3bba:	8d bf 00 00 00 00    	lea    0x0(%edi),%edi

00003bc0 <socket_port_map_items_add>:
    3bc0:	55                   	push   %ebp
    3bc1:	89 e5                	mov    %esp,%ebp
    3bc3:	53                   	push   %ebx
    3bc4:	83 ec 14             	sub    $0x14,%esp
    3bc7:	8b 5d 08             	mov    0x8(%ebp),%ebx
    3bca:	85 db                	test   %ebx,%ebx
    3bcc:	74 09                	je     3bd7 <socket_port_map_items_add+0x17>
    3bce:	81 7b 0c 88 77 66 55 	cmpl   $0x55667788,0xc(%ebx)
    3bd5:	74 11                	je     3be8 <socket_port_map_items_add+0x28>
    3bd7:	b8 f2 ff ff ff       	mov    $0xfffffff2,%eax
    3bdc:	83 c4 14             	add    $0x14,%esp
    3bdf:	5b                   	pop    %ebx
    3be0:	5d                   	pop    %ebp
    3be1:	c3                   	ret    
    3be2:	8d b6 00 00 00 00    	lea    0x0(%esi),%esi
    3be8:	8b 13                	mov    (%ebx),%edx
    3bea:	8b 43 04             	mov    0x4(%ebx),%eax
    3bed:	8d 4a ff             	lea    -0x1(%edx),%ecx
    3bf0:	39 c8                	cmp    %ecx,%eax
    3bf2:	74 24                	je     3c18 <socket_port_map_items_add+0x58>
    3bf4:	8b 4b 08             	mov    0x8(%ebx),%ecx
    3bf7:	8b 55 0c             	mov    0xc(%ebp),%edx
    3bfa:	89 14 81             	mov    %edx,(%ecx,%eax,4)
    3bfd:	8d 50 01             	lea    0x1(%eax),%edx
    3c00:	8b 4b 08             	mov    0x8(%ebx),%ecx
    3c03:	89 53 04             	mov    %edx,0x4(%ebx)
    3c06:	c7 04 91 00 00 00 00 	movl   $0x0,(%ecx,%edx,4)
    3c0d:	83 c4 14             	add    $0x14,%esp
    3c10:	5b                   	pop    %ebx
    3c11:	5d                   	pop    %ebp
    3c12:	c3                   	ret    
    3c13:	90                   	nop
    3c14:	8d 74 26 00          	lea    0x0(%esi,%eiz,1),%esi
    3c18:	c1 e2 03             	shl    $0x3,%edx
    3c1b:	89 54 24 04          	mov    %edx,0x4(%esp)
    3c1f:	8b 43 08             	mov    0x8(%ebx),%eax
    3c22:	89 04 24             	mov    %eax,(%esp)
    3c25:	e8 56 d5 00 00       	call   11180 <realloc>
    3c2a:	89 c1                	mov    %eax,%ecx
    3c2c:	85 c0                	test   %eax,%eax
    3c2e:	74 0e                	je     3c3e <socket_port_map_items_add+0x7e>
    3c30:	8b 03                	mov    (%ebx),%eax
    3c32:	89 4b 08             	mov    %ecx,0x8(%ebx)
    3c35:	01 c0                	add    %eax,%eax
    3c37:	89 03                	mov    %eax,(%ebx)
    3c39:	8b 43 04             	mov    0x4(%ebx),%eax
    3c3c:	eb b9                	jmp    3bf7 <socket_port_map_items_add+0x37>
    3c3e:	b8 fe ff ff ff       	mov    $0xfffffffe,%eax
    3c43:	eb 97                	jmp    3bdc <socket_port_map_items_add+0x1c>
    3c45:	8d 74 26 00          	lea    0x0(%esi,%eiz,1),%esi
    3c49:	8d bc 27 00 00 00 00 	lea    0x0(%edi,%eiz,1),%edi

00003c50 <socket_port_map_items_count>:
    3c50:	55                   	push   %ebp
    3c51:	89 e5                	mov    %esp,%ebp
    3c53:	8b 45 08             	mov    0x8(%ebp),%eax
    3c56:	85 c0                	test   %eax,%eax
    3c58:	74 09                	je     3c63 <socket_port_map_items_count+0x13>
    3c5a:	81 78 0c 88 77 66 55 	cmpl   $0x55667788,0xc(%eax)
    3c61:	74 05                	je     3c68 <socket_port_map_items_count+0x18>
    3c63:	83 c8 ff             	or     $0xffffffff,%eax
    3c66:	5d                   	pop    %ebp
    3c67:	c3                   	ret    
    3c68:	8b 40 04             	mov    0x4(%eax),%eax
    3c6b:	5d                   	pop    %ebp
    3c6c:	c3                   	ret    
    3c6d:	8d 76 00             	lea    0x0(%esi),%esi

00003c70 <socket_port_map_items_destroy>:
    3c70:	55                   	push   %ebp
    3c71:	89 e5                	mov    %esp,%ebp
    3c73:	57                   	push   %edi
    3c74:	56                   	push   %esi
    3c75:	53                   	push   %ebx
    3c76:	83 ec 1c             	sub    $0x1c,%esp
    3c79:	8b 7d 08             	mov    0x8(%ebp),%edi
    3c7c:	8b 75 0c             	mov    0xc(%ebp),%esi
    3c7f:	85 ff                	test   %edi,%edi
    3c81:	74 09                	je     3c8c <socket_port_map_items_destroy+0x1c>
    3c83:	81 7f 0c 88 77 66 55 	cmpl   $0x55667788,0xc(%edi)
    3c8a:	74 0c                	je     3c98 <socket_port_map_items_destroy+0x28>
    3c8c:	83 c4 1c             	add    $0x1c,%esp
    3c8f:	5b                   	pop    %ebx
    3c90:	5e                   	pop    %esi
    3c91:	5f                   	pop    %edi
    3c92:	5d                   	pop    %ebp
    3c93:	c3                   	ret    
    3c94:	8d 74 26 00          	lea    0x0(%esi,%eiz,1),%esi
    3c98:	c7 47 0c 00 00 00 00 	movl   $0x0,0xc(%edi)
    3c9f:	85 f6                	test   %esi,%esi
    3ca1:	74 35                	je     3cd8 <socket_port_map_items_destroy+0x68>
    3ca3:	8b 4f 04             	mov    0x4(%edi),%ecx
    3ca6:	85 c9                	test   %ecx,%ecx
    3ca8:	7e 2e                	jle    3cd8 <socket_port_map_items_destroy+0x68>
    3caa:	8b 57 08             	mov    0x8(%edi),%edx
    3cad:	31 db                	xor    %ebx,%ebx
    3caf:	90                   	nop
    3cb0:	8b 04 9a             	mov    (%edx,%ebx,4),%eax
    3cb3:	85 c0                	test   %eax,%eax
    3cb5:	74 0b                	je     3cc2 <socket_port_map_items_destroy+0x52>
    3cb7:	89 04 24             	mov    %eax,(%esp)
    3cba:	ff d6                	call   *%esi
    3cbc:	8b 57 08             	mov    0x8(%edi),%edx
    3cbf:	8b 4f 04             	mov    0x4(%edi),%ecx
    3cc2:	43                   	inc    %ebx
    3cc3:	39 cb                	cmp    %ecx,%ebx
    3cc5:	7c e9                	jl     3cb0 <socket_port_map_items_destroy+0x40>
    3cc7:	89 55 08             	mov    %edx,0x8(%ebp)
    3cca:	83 c4 1c             	add    $0x1c,%esp
    3ccd:	5b                   	pop    %ebx
    3cce:	5e                   	pop    %esi
    3ccf:	5f                   	pop    %edi
    3cd0:	5d                   	pop    %ebp
    3cd1:	e9 5a d2 00 00       	jmp    10f30 <free>
    3cd6:	66 90                	xchg   %ax,%ax
    3cd8:	8b 57 08             	mov    0x8(%edi),%edx
    3cdb:	eb ea                	jmp    3cc7 <socket_port_map_items_destroy+0x57>
    3cdd:	8d 76 00             	lea    0x0(%esi),%esi

00003ce0 <socket_port_map_items_exclude_index>:
    3ce0:	55                   	push   %ebp
    3ce1:	89 e5                	mov    %esp,%ebp
    3ce3:	56                   	push   %esi
    3ce4:	53                   	push   %ebx
    3ce5:	83 ec 10             	sub    $0x10,%esp
    3ce8:	8b 5d 08             	mov    0x8(%ebp),%ebx
    3ceb:	85 db                	test   %ebx,%ebx
    3ced:	74 09                	je     3cf8 <socket_port_map_items_exclude_index+0x18>
    3cef:	81 7b 0c 88 77 66 55 	cmpl   $0x55667788,0xc(%ebx)
    3cf6:	74 08                	je     3d00 <socket_port_map_items_exclude_index+0x20>
    3cf8:	83 c4 10             	add    $0x10,%esp
    3cfb:	5b                   	pop    %ebx
    3cfc:	5e                   	pop    %esi
    3cfd:	5d                   	pop    %ebp
    3cfe:	c3                   	ret    
    3cff:	90                   	nop
    3d00:	8b 45 0c             	mov    0xc(%ebp),%eax
    3d03:	85 c0                	test   %eax,%eax
    3d05:	78 f1                	js     3cf8 <socket_port_map_items_exclude_index+0x18>
    3d07:	8b 45 0c             	mov    0xc(%ebp),%eax
    3d0a:	3b 43 04             	cmp    0x4(%ebx),%eax
    3d0d:	7d e9                	jge    3cf8 <socket_port_map_items_exclude_index+0x18>
    3d0f:	89 c6                	mov    %eax,%esi
    3d11:	8b 43 08             	mov    0x8(%ebx),%eax
    3d14:	c1 e6 02             	shl    $0x2,%esi
    3d17:	01 f0                	add    %esi,%eax
    3d19:	8b 10                	mov    (%eax),%edx
    3d1b:	85 d2                	test   %edx,%edx
    3d1d:	74 d9                	je     3cf8 <socket_port_map_items_exclude_index+0x18>
    3d1f:	8b 4d 10             	mov    0x10(%ebp),%ecx
    3d22:	85 c9                	test   %ecx,%ecx
    3d24:	74 0d                	je     3d33 <socket_port_map_items_exclude_index+0x53>
    3d26:	8b 45 10             	mov    0x10(%ebp),%eax
    3d29:	89 14 24             	mov    %edx,(%esp)
    3d2c:	ff d0                	call   *%eax
    3d2e:	8b 43 08             	mov    0x8(%ebx),%eax
    3d31:	01 f0                	add    %esi,%eax
    3d33:	c7 00 00 00 00 00    	movl   $0x0,(%eax)
    3d39:	83 c4 10             	add    $0x10,%esp
    3d3c:	5b                   	pop    %ebx
    3d3d:	5e                   	pop    %esi
    3d3e:	5d                   	pop    %ebp
    3d3f:	c3                   	ret    

00003d40 <socket_port_map_items_get_index>:
    3d40:	55                   	push   %ebp
    3d41:	89 e5                	mov    %esp,%ebp
    3d43:	8b 45 08             	mov    0x8(%ebp),%eax
    3d46:	8b 55 0c             	mov    0xc(%ebp),%edx
    3d49:	85 c0                	test   %eax,%eax
    3d4b:	74 09                	je     3d56 <socket_port_map_items_get_index+0x16>
    3d4d:	81 78 0c 88 77 66 55 	cmpl   $0x55667788,0xc(%eax)
    3d54:	74 0a                	je     3d60 <socket_port_map_items_get_index+0x20>
    3d56:	31 c0                	xor    %eax,%eax
    3d58:	5d                   	pop    %ebp
    3d59:	c3                   	ret    
    3d5a:	8d b6 00 00 00 00    	lea    0x0(%esi),%esi
    3d60:	85 d2                	test   %edx,%edx
    3d62:	78 f2                	js     3d56 <socket_port_map_items_get_index+0x16>
    3d64:	3b 50 04             	cmp    0x4(%eax),%edx
    3d67:	7d ed                	jge    3d56 <socket_port_map_items_get_index+0x16>
    3d69:	8b 40 08             	mov    0x8(%eax),%eax
    3d6c:	5d                   	pop    %ebp
    3d6d:	8b 04 90             	mov    (%eax,%edx,4),%eax
    3d70:	c3                   	ret    
    3d71:	eb 0d                	jmp    3d80 <socket_port_map_items_get_field>
    3d73:	90                   	nop
    3d74:	90                   	nop
    3d75:	90                   	nop
    3d76:	90                   	nop
    3d77:	90                   	nop
    3d78:	90                   	nop
    3d79:	90                   	nop
    3d7a:	90                   	nop
    3d7b:	90                   	nop
    3d7c:	90                   	nop
    3d7d:	90                   	nop
    3d7e:	90                   	nop
    3d7f:	90                   	nop

00003d80 <socket_port_map_items_get_field>:
    3d80:	55                   	push   %ebp
    3d81:	89 e5                	mov    %esp,%ebp
    3d83:	8b 45 08             	mov    0x8(%ebp),%eax
    3d86:	85 c0                	test   %eax,%eax
    3d88:	74 09                	je     3d93 <socket_port_map_items_get_field+0x13>
    3d8a:	81 78 0c 88 77 66 55 	cmpl   $0x55667788,0xc(%eax)
    3d91:	74 05                	je     3d98 <socket_port_map_items_get_field+0x18>
    3d93:	31 c0                	xor    %eax,%eax
    3d95:	5d                   	pop    %ebp
    3d96:	c3                   	ret    
    3d97:	90                   	nop
    3d98:	8b 40 08             	mov    0x8(%eax),%eax
    3d9b:	5d                   	pop    %ebp
    3d9c:	c3                   	ret    
    3d9d:	8d 76 00             	lea    0x0(%esi),%esi

00003da0 <socket_port_map_items_initialize>:
    3da0:	55                   	push   %ebp
    3da1:	89 e5                	mov    %esp,%ebp
    3da3:	53                   	push   %ebx
    3da4:	83 ec 14             	sub    $0x14,%esp
    3da7:	8b 5d 08             	mov    0x8(%ebp),%ebx
    3daa:	85 db                	test   %ebx,%ebx
    3dac:	74 3a                	je     3de8 <socket_port_map_items_initialize+0x48>
    3dae:	c7 03 02 00 00 00    	movl   $0x2,(%ebx)
    3db4:	c7 43 04 00 00 00 00 	movl   $0x0,0x4(%ebx)
    3dbb:	c7 04 24 08 00 00 00 	movl   $0x8,(%esp)
    3dc2:	e8 59 d0 00 00       	call   10e20 <malloc>
    3dc7:	89 43 08             	mov    %eax,0x8(%ebx)
    3dca:	85 c0                	test   %eax,%eax
    3dcc:	74 21                	je     3def <socket_port_map_items_initialize+0x4f>
    3dce:	8b 53 04             	mov    0x4(%ebx),%edx
    3dd1:	c7 04 90 00 00 00 00 	movl   $0x0,(%eax,%edx,4)
    3dd8:	c7 43 0c 88 77 66 55 	movl   $0x55667788,0xc(%ebx)
    3ddf:	31 c0                	xor    %eax,%eax
    3de1:	83 c4 14             	add    $0x14,%esp
    3de4:	5b                   	pop    %ebx
    3de5:	5d                   	pop    %ebp
    3de6:	c3                   	ret    
    3de7:	90                   	nop
    3de8:	b8 f2 ff ff ff       	mov    $0xfffffff2,%eax
    3ded:	eb f2                	jmp    3de1 <socket_port_map_items_initialize+0x41>
    3def:	b8 fe ff ff ff       	mov    $0xfffffffe,%eax
    3df4:	eb eb                	jmp    3de1 <socket_port_map_items_initialize+0x41>
    3df6:	8d 76 00             	lea    0x0(%esi),%esi
    3df9:	8d bc 27 00 00 00 00 	lea    0x0(%edi,%eiz,1),%edi

00003e00 <socket_port_map_items_is_valid>:
    3e00:	55                   	push   %ebp
    3e01:	89 e5                	mov    %esp,%ebp
    3e03:	8b 45 08             	mov    0x8(%ebp),%eax
    3e06:	85 c0                	test   %eax,%eax
    3e08:	74 16                	je     3e20 <socket_port_map_items_is_valid+0x20>
    3e0a:	81 78 0c 88 77 66 55 	cmpl   $0x55667788,0xc(%eax)
    3e11:	0f 94 c0             	sete   %al
    3e14:	25 ff 00 00 00       	and    $0xff,%eax
    3e19:	5d                   	pop    %ebp
    3e1a:	c3                   	ret    
    3e1b:	90                   	nop
    3e1c:	8d 74 26 00          	lea    0x0(%esi,%eiz,1),%esi
    3e20:	31 c0                	xor    %eax,%eax
    3e22:	5d                   	pop    %ebp
    3e23:	c3                   	ret    
    3e24:	8d b6 00 00 00 00    	lea    0x0(%esi),%esi
    3e2a:	8d bf 00 00 00 00    	lea    0x0(%edi),%edi

00003e30 <socket_port_map_add>:
    3e30:	55                   	push   %ebp
    3e31:	b8 f2 ff ff ff       	mov    $0xfffffff2,%eax
    3e36:	89 e5                	mov    %esp,%ebp
    3e38:	57                   	push   %edi
    3e39:	56                   	push   %esi
    3e3a:	53                   	push   %ebx
    3e3b:	83 ec 2c             	sub    $0x2c,%esp
    3e3e:	8b 5d 08             	mov    0x8(%ebp),%ebx
    3e41:	8b 7d 0c             	mov    0xc(%ebp),%edi
    3e44:	8b 55 10             	mov    0x10(%ebp),%edx
    3e47:	8b 75 14             	mov    0x14(%ebp),%esi
    3e4a:	85 db                	test   %ebx,%ebx
    3e4c:	74 09                	je     3e57 <socket_port_map_add+0x27>
    3e4e:	81 7b 28 22 56 34 12 	cmpl   $0x12345622,0x28(%ebx)
    3e55:	74 09                	je     3e60 <socket_port_map_add+0x30>
    3e57:	83 c4 2c             	add    $0x2c,%esp
    3e5a:	5b                   	pop    %ebx
    3e5b:	5e                   	pop    %esi
    3e5c:	5f                   	pop    %edi
    3e5d:	5d                   	pop    %ebp
    3e5e:	c3                   	ret    
    3e5f:	90                   	nop
    3e60:	81 7b 24 88 77 66 55 	cmpl   $0x55667788,0x24(%ebx)
    3e67:	75 ee                	jne    3e57 <socket_port_map_add+0x27>
    3e69:	8b 4b 18             	mov    0x18(%ebx),%ecx
    3e6c:	8b 43 1c             	mov    0x1c(%ebx),%eax
    3e6f:	89 4d dc             	mov    %ecx,-0x24(%ebp)
    3e72:	49                   	dec    %ecx
    3e73:	39 c8                	cmp    %ecx,%eax
    3e75:	74 39                	je     3eb0 <socket_port_map_add+0x80>
    3e77:	8b 4b 20             	mov    0x20(%ebx),%ecx
    3e7a:	89 34 81             	mov    %esi,(%ecx,%eax,4)
    3e7d:	8d 48 01             	lea    0x1(%eax),%ecx
    3e80:	8b 73 20             	mov    0x20(%ebx),%esi
    3e83:	89 4b 1c             	mov    %ecx,0x1c(%ebx)
    3e86:	85 c0                	test   %eax,%eax
    3e88:	c7 04 8e 00 00 00 00 	movl   $0x0,(%esi,%ecx,4)
    3e8f:	78 c6                	js     3e57 <socket_port_map_add+0x27>
    3e91:	89 7d 0c             	mov    %edi,0xc(%ebp)
    3e94:	89 5d 08             	mov    %ebx,0x8(%ebp)
    3e97:	89 45 14             	mov    %eax,0x14(%ebp)
    3e9a:	89 55 10             	mov    %edx,0x10(%ebp)
    3e9d:	83 c4 2c             	add    $0x2c,%esp
    3ea0:	5b                   	pop    %ebx
    3ea1:	5e                   	pop    %esi
    3ea2:	5f                   	pop    %edi
    3ea3:	5d                   	pop    %ebp
    3ea4:	e9 87 39 01 00       	jmp    17830 <char_map_add>
    3ea9:	8d b4 26 00 00 00 00 	lea    0x0(%esi,%eiz,1),%esi
    3eb0:	8b 4d dc             	mov    -0x24(%ebp),%ecx
    3eb3:	c1 e1 03             	shl    $0x3,%ecx
    3eb6:	89 4c 24 04          	mov    %ecx,0x4(%esp)
    3eba:	8b 43 20             	mov    0x20(%ebx),%eax
    3ebd:	89 55 e0             	mov    %edx,-0x20(%ebp)
    3ec0:	89 04 24             	mov    %eax,(%esp)
    3ec3:	e8 b8 d2 00 00       	call   11180 <realloc>
    3ec8:	8b 55 e0             	mov    -0x20(%ebp),%edx
    3ecb:	89 c1                	mov    %eax,%ecx
    3ecd:	85 c0                	test   %eax,%eax
    3ecf:	74 10                	je     3ee1 <socket_port_map_add+0xb1>
    3ed1:	8b 43 18             	mov    0x18(%ebx),%eax
    3ed4:	89 4b 20             	mov    %ecx,0x20(%ebx)
    3ed7:	01 c0                	add    %eax,%eax
    3ed9:	89 43 18             	mov    %eax,0x18(%ebx)
    3edc:	8b 43 1c             	mov    0x1c(%ebx),%eax
    3edf:	eb 99                	jmp    3e7a <socket_port_map_add+0x4a>
    3ee1:	b8 fe ff ff ff       	mov    $0xfffffffe,%eax
    3ee6:	e9 6c ff ff ff       	jmp    3e57 <socket_port_map_add+0x27>
    3eeb:	90                   	nop
    3eec:	8d 74 26 00          	lea    0x0(%esi,%eiz,1),%esi

00003ef0 <socket_port_map_count>:
    3ef0:	55                   	push   %ebp
    3ef1:	83 c8 ff             	or     $0xffffffff,%eax
    3ef4:	89 e5                	mov    %esp,%ebp
    3ef6:	8b 55 08             	mov    0x8(%ebp),%edx
    3ef9:	85 d2                	test   %edx,%edx
    3efb:	74 09                	je     3f06 <socket_port_map_count+0x16>
    3efd:	81 7a 28 22 56 34 12 	cmpl   $0x12345622,0x28(%edx)
    3f04:	74 02                	je     3f08 <socket_port_map_count+0x18>
    3f06:	5d                   	pop    %ebp
    3f07:	c3                   	ret    
    3f08:	81 7a 24 88 77 66 55 	cmpl   $0x55667788,0x24(%edx)
    3f0f:	75 f5                	jne    3f06 <socket_port_map_count+0x16>
    3f11:	8b 42 1c             	mov    0x1c(%edx),%eax
    3f14:	5d                   	pop    %ebp
    3f15:	c3                   	ret    
    3f16:	8d 76 00             	lea    0x0(%esi),%esi
    3f19:	8d bc 27 00 00 00 00 	lea    0x0(%edi,%eiz,1),%edi

00003f20 <socket_port_map_destroy>:
    3f20:	55                   	push   %ebp
    3f21:	89 e5                	mov    %esp,%ebp
    3f23:	57                   	push   %edi
    3f24:	56                   	push   %esi
    3f25:	53                   	push   %ebx
    3f26:	83 ec 1c             	sub    $0x1c,%esp
    3f29:	8b 75 08             	mov    0x8(%ebp),%esi
    3f2c:	8b 7d 0c             	mov    0xc(%ebp),%edi
    3f2f:	85 f6                	test   %esi,%esi
    3f31:	74 09                	je     3f3c <socket_port_map_destroy+0x1c>
    3f33:	81 7e 28 22 56 34 12 	cmpl   $0x12345622,0x28(%esi)
    3f3a:	74 0c                	je     3f48 <socket_port_map_destroy+0x28>
    3f3c:	83 c4 1c             	add    $0x1c,%esp
    3f3f:	5b                   	pop    %ebx
    3f40:	5e                   	pop    %esi
    3f41:	5f                   	pop    %edi
    3f42:	5d                   	pop    %ebp
    3f43:	c3                   	ret    
    3f44:	8d 74 26 00          	lea    0x0(%esi,%eiz,1),%esi
    3f48:	89 34 24             	mov    %esi,(%esp)
    3f4b:	e8 20 3b 01 00       	call   17a70 <char_map_destroy>
    3f50:	81 7e 24 88 77 66 55 	cmpl   $0x55667788,0x24(%esi)
    3f57:	75 e3                	jne    3f3c <socket_port_map_destroy+0x1c>
    3f59:	c7 46 24 00 00 00 00 	movl   $0x0,0x24(%esi)
    3f60:	85 ff                	test   %edi,%edi
    3f62:	74 34                	je     3f98 <socket_port_map_destroy+0x78>
    3f64:	8b 4e 1c             	mov    0x1c(%esi),%ecx
    3f67:	85 c9                	test   %ecx,%ecx
    3f69:	7e 2d                	jle    3f98 <socket_port_map_destroy+0x78>
    3f6b:	8b 56 20             	mov    0x20(%esi),%edx
    3f6e:	31 db                	xor    %ebx,%ebx
    3f70:	8b 04 9a             	mov    (%edx,%ebx,4),%eax
    3f73:	85 c0                	test   %eax,%eax
    3f75:	74 0b                	je     3f82 <socket_port_map_destroy+0x62>
    3f77:	89 04 24             	mov    %eax,(%esp)
    3f7a:	ff d7                	call   *%edi
    3f7c:	8b 56 20             	mov    0x20(%esi),%edx
    3f7f:	8b 4e 1c             	mov    0x1c(%esi),%ecx
    3f82:	43                   	inc    %ebx
    3f83:	39 cb                	cmp    %ecx,%ebx
    3f85:	7c e9                	jl     3f70 <socket_port_map_destroy+0x50>
    3f87:	89 55 08             	mov    %edx,0x8(%ebp)
    3f8a:	83 c4 1c             	add    $0x1c,%esp
    3f8d:	5b                   	pop    %ebx
    3f8e:	5e                   	pop    %esi
    3f8f:	5f                   	pop    %edi
    3f90:	5d                   	pop    %ebp
    3f91:	e9 9a cf 00 00       	jmp    10f30 <free>
    3f96:	66 90                	xchg   %ax,%ax
    3f98:	8b 56 20             	mov    0x20(%esi),%edx
    3f9b:	eb ea                	jmp    3f87 <socket_port_map_destroy+0x67>
    3f9d:	8d 76 00             	lea    0x0(%esi),%esi

00003fa0 <socket_port_map_exclude>:
    3fa0:	55                   	push   %ebp
    3fa1:	89 e5                	mov    %esp,%ebp
    3fa3:	56                   	push   %esi
    3fa4:	53                   	push   %ebx
    3fa5:	83 ec 10             	sub    $0x10,%esp
    3fa8:	8b 5d 08             	mov    0x8(%ebp),%ebx
    3fab:	85 db                	test   %ebx,%ebx
    3fad:	74 09                	je     3fb8 <socket_port_map_exclude+0x18>
    3faf:	81 7b 28 22 56 34 12 	cmpl   $0x12345622,0x28(%ebx)
    3fb6:	74 08                	je     3fc0 <socket_port_map_exclude+0x20>
    3fb8:	83 c4 10             	add    $0x10,%esp
    3fbb:	5b                   	pop    %ebx
    3fbc:	5e                   	pop    %esi
    3fbd:	5d                   	pop    %ebp
    3fbe:	c3                   	ret    
    3fbf:	90                   	nop
    3fc0:	8b 45 10             	mov    0x10(%ebp),%eax
    3fc3:	89 1c 24             	mov    %ebx,(%esp)
    3fc6:	89 44 24 08          	mov    %eax,0x8(%esp)
    3fca:	8b 45 0c             	mov    0xc(%ebp),%eax
    3fcd:	89 44 24 04          	mov    %eax,0x4(%esp)
    3fd1:	e8 5a 3e 01 00       	call   17e30 <char_map_exclude>
    3fd6:	83 f8 ff             	cmp    $0xffffffff,%eax
    3fd9:	74 dd                	je     3fb8 <socket_port_map_exclude+0x18>
    3fdb:	81 7b 24 88 77 66 55 	cmpl   $0x55667788,0x24(%ebx)
    3fe2:	75 d4                	jne    3fb8 <socket_port_map_exclude+0x18>
    3fe4:	85 c0                	test   %eax,%eax
    3fe6:	78 d0                	js     3fb8 <socket_port_map_exclude+0x18>
    3fe8:	3b 43 1c             	cmp    0x1c(%ebx),%eax
    3feb:	7d cb                	jge    3fb8 <socket_port_map_exclude+0x18>
    3fed:	8d 34 85 00 00 00 00 	lea    0x0(,%eax,4),%esi
    3ff4:	8b 53 20             	mov    0x20(%ebx),%edx
    3ff7:	01 f2                	add    %esi,%edx
    3ff9:	8b 02                	mov    (%edx),%eax
    3ffb:	85 c0                	test   %eax,%eax
    3ffd:	74 b9                	je     3fb8 <socket_port_map_exclude+0x18>
    3fff:	8b 4d 14             	mov    0x14(%ebp),%ecx
    4002:	85 c9                	test   %ecx,%ecx
    4004:	74 0d                	je     4013 <socket_port_map_exclude+0x73>
    4006:	89 04 24             	mov    %eax,(%esp)
    4009:	8b 45 14             	mov    0x14(%ebp),%eax
    400c:	ff d0                	call   *%eax
    400e:	8b 53 20             	mov    0x20(%ebx),%edx
    4011:	01 f2                	add    %esi,%edx
    4013:	c7 02 00 00 00 00    	movl   $0x0,(%edx)
    4019:	eb 9d                	jmp    3fb8 <socket_port_map_exclude+0x18>
    401b:	90                   	nop
    401c:	8d 74 26 00          	lea    0x0(%esi,%eiz,1),%esi

00004020 <socket_port_map_find>:
    4020:	55                   	push   %ebp
    4021:	89 e5                	mov    %esp,%ebp
    4023:	53                   	push   %ebx
    4024:	83 ec 14             	sub    $0x14,%esp
    4027:	8b 5d 08             	mov    0x8(%ebp),%ebx
    402a:	85 db                	test   %ebx,%ebx
    402c:	74 09                	je     4037 <socket_port_map_find+0x17>
    402e:	81 7b 28 22 56 34 12 	cmpl   $0x12345622,0x28(%ebx)
    4035:	74 09                	je     4040 <socket_port_map_find+0x20>
    4037:	83 c4 14             	add    $0x14,%esp
    403a:	31 c0                	xor    %eax,%eax
    403c:	5b                   	pop    %ebx
    403d:	5d                   	pop    %ebp
    403e:	c3                   	ret    
    403f:	90                   	nop
    4040:	8b 45 10             	mov    0x10(%ebp),%eax
    4043:	89 1c 24             	mov    %ebx,(%esp)
    4046:	89 44 24 08          	mov    %eax,0x8(%esp)
    404a:	8b 45 0c             	mov    0xc(%ebp),%eax
    404d:	89 44 24 04          	mov    %eax,0x4(%esp)
    4051:	e8 6a 3e 01 00       	call   17ec0 <char_map_find>
    4056:	83 f8 ff             	cmp    $0xffffffff,%eax
    4059:	74 dc                	je     4037 <socket_port_map_find+0x17>
    405b:	81 7b 24 88 77 66 55 	cmpl   $0x55667788,0x24(%ebx)
    4062:	75 d3                	jne    4037 <socket_port_map_find+0x17>
    4064:	85 c0                	test   %eax,%eax
    4066:	78 cf                	js     4037 <socket_port_map_find+0x17>
    4068:	3b 43 1c             	cmp    0x1c(%ebx),%eax
    406b:	7d ca                	jge    4037 <socket_port_map_find+0x17>
    406d:	8b 53 20             	mov    0x20(%ebx),%edx
    4070:	8b 04 82             	mov    (%edx,%eax,4),%eax
    4073:	83 c4 14             	add    $0x14,%esp
    4076:	5b                   	pop    %ebx
    4077:	5d                   	pop    %ebp
    4078:	c3                   	ret    
    4079:	8d b4 26 00 00 00 00 	lea    0x0(%esi,%eiz,1),%esi

00004080 <socket_port_map_initialize>:
    4080:	55                   	push   %ebp
    4081:	89 e5                	mov    %esp,%ebp
    4083:	56                   	push   %esi
    4084:	53                   	push   %ebx
    4085:	83 ec 10             	sub    $0x10,%esp
    4088:	8b 5d 08             	mov    0x8(%ebp),%ebx
    408b:	85 db                	test   %ebx,%ebx
    408d:	74 61                	je     40f0 <socket_port_map_initialize+0x70>
    408f:	89 1c 24             	mov    %ebx,(%esp)
    4092:	e8 a9 3e 01 00       	call   17f40 <char_map_initialize>
    4097:	89 c6                	mov    %eax,%esi
    4099:	85 c0                	test   %eax,%eax
    409b:	74 0b                	je     40a8 <socket_port_map_initialize+0x28>
    409d:	83 c4 10             	add    $0x10,%esp
    40a0:	89 f0                	mov    %esi,%eax
    40a2:	5b                   	pop    %ebx
    40a3:	5e                   	pop    %esi
    40a4:	5d                   	pop    %ebp
    40a5:	c3                   	ret    
    40a6:	66 90                	xchg   %ax,%ax
    40a8:	c7 43 18 02 00 00 00 	movl   $0x2,0x18(%ebx)
    40af:	c7 43 1c 00 00 00 00 	movl   $0x0,0x1c(%ebx)
    40b6:	c7 04 24 08 00 00 00 	movl   $0x8,(%esp)
    40bd:	e8 5e cd 00 00       	call   10e20 <malloc>
    40c2:	89 43 20             	mov    %eax,0x20(%ebx)
    40c5:	85 c0                	test   %eax,%eax
    40c7:	74 2e                	je     40f7 <socket_port_map_initialize+0x77>
    40c9:	8b 53 1c             	mov    0x1c(%ebx),%edx
    40cc:	c7 04 90 00 00 00 00 	movl   $0x0,(%eax,%edx,4)
    40d3:	c7 43 24 88 77 66 55 	movl   $0x55667788,0x24(%ebx)
    40da:	c7 43 28 22 56 34 12 	movl   $0x12345622,0x28(%ebx)
    40e1:	83 c4 10             	add    $0x10,%esp
    40e4:	89 f0                	mov    %esi,%eax
    40e6:	5b                   	pop    %ebx
    40e7:	5e                   	pop    %esi
    40e8:	5d                   	pop    %ebp
    40e9:	c3                   	ret    
    40ea:	8d b6 00 00 00 00    	lea    0x0(%esi),%esi
    40f0:	be f2 ff ff ff       	mov    $0xfffffff2,%esi
    40f5:	eb a6                	jmp    409d <socket_port_map_initialize+0x1d>
    40f7:	89 1c 24             	mov    %ebx,(%esp)
    40fa:	be fe ff ff ff       	mov    $0xfffffffe,%esi
    40ff:	e8 6c 39 01 00       	call   17a70 <char_map_destroy>
    4104:	eb 97                	jmp    409d <socket_port_map_initialize+0x1d>
    4106:	8d 76 00             	lea    0x0(%esi),%esi
    4109:	8d bc 27 00 00 00 00 	lea    0x0(%edi,%eiz,1),%edi

00004110 <socket_port_map_is_valid>:
    4110:	55                   	push   %ebp
    4111:	89 e5                	mov    %esp,%ebp
    4113:	8b 45 08             	mov    0x8(%ebp),%eax
    4116:	85 c0                	test   %eax,%eax
    4118:	74 16                	je     4130 <socket_port_map_is_valid+0x20>
    411a:	81 78 28 22 56 34 12 	cmpl   $0x12345622,0x28(%eax)
    4121:	0f 94 c0             	sete   %al
    4124:	25 ff 00 00 00       	and    $0xff,%eax
    4129:	5d                   	pop    %ebp
    412a:	c3                   	ret    
    412b:	90                   	nop
    412c:	8d 74 26 00          	lea    0x0(%esi,%eiz,1),%esi
    4130:	31 c0                	xor    %eax,%eax
    4132:	5d                   	pop    %ebp
    4133:	c3                   	ret    
    4134:	8d b6 00 00 00 00    	lea    0x0(%esi),%esi
    413a:	8d bf 00 00 00 00    	lea    0x0(%edi),%edi

00004140 <socket_ports_add>:
    4140:	55                   	push   %ebp
    4141:	89 e5                	mov    %esp,%ebp
    4143:	56                   	push   %esi
    4144:	53                   	push   %ebx
    4145:	83 ec 10             	sub    $0x10,%esp
    4148:	8b 5d 08             	mov    0x8(%ebp),%ebx
    414b:	85 db                	test   %ebx,%ebx
    414d:	74 09                	je     4158 <socket_ports_add+0x18>
    414f:	81 7b 0c 44 33 22 11 	cmpl   $0x11223344,0xc(%ebx)
    4156:	74 10                	je     4168 <socket_ports_add+0x28>
    4158:	b8 f2 ff ff ff       	mov    $0xfffffff2,%eax
    415d:	83 c4 10             	add    $0x10,%esp
    4160:	5b                   	pop    %ebx
    4161:	5e                   	pop    %esi
    4162:	5d                   	pop    %ebp
    4163:	c3                   	ret    
    4164:	8d 74 26 00          	lea    0x0(%esi,%eiz,1),%esi
    4168:	8b 13                	mov    (%ebx),%edx
    416a:	8b 43 04             	mov    0x4(%ebx),%eax
    416d:	8d 4a ff             	lea    -0x1(%edx),%ecx
    4170:	39 c8                	cmp    %ecx,%eax
    4172:	74 34                	je     41a8 <socket_ports_add+0x68>
    4174:	8b 4b 08             	mov    0x8(%ebx),%ecx
    4177:	8d 14 40             	lea    (%eax,%eax,2),%edx
    417a:	8b 75 0c             	mov    0xc(%ebp),%esi
    417d:	8d 14 91             	lea    (%ecx,%edx,4),%edx
    4180:	89 32                	mov    %esi,(%edx)
    4182:	8b 75 10             	mov    0x10(%ebp),%esi
    4185:	c7 42 08 88 77 66 55 	movl   $0x55667788,0x8(%edx)
    418c:	89 72 04             	mov    %esi,0x4(%edx)
    418f:	8d 50 01             	lea    0x1(%eax),%edx
    4192:	89 53 04             	mov    %edx,0x4(%ebx)
    4195:	8d 14 52             	lea    (%edx,%edx,2),%edx
    4198:	c7 44 91 08 00 00 00 	movl   $0x0,0x8(%ecx,%edx,4)
    419f:	00 
    41a0:	83 c4 10             	add    $0x10,%esp
    41a3:	5b                   	pop    %ebx
    41a4:	5e                   	pop    %esi
    41a5:	5d                   	pop    %ebp
    41a6:	c3                   	ret    
    41a7:	90                   	nop
    41a8:	8d 04 52             	lea    (%edx,%edx,2),%eax
    41ab:	c1 e0 03             	shl    $0x3,%eax
    41ae:	89 44 24 04          	mov    %eax,0x4(%esp)
    41b2:	8b 43 08             	mov    0x8(%ebx),%eax
    41b5:	89 04 24             	mov    %eax,(%esp)
    41b8:	e8 c3 cf 00 00       	call   11180 <realloc>
    41bd:	89 c1                	mov    %eax,%ecx
    41bf:	85 c0                	test   %eax,%eax
    41c1:	74 0e                	je     41d1 <socket_ports_add+0x91>
    41c3:	8b 33                	mov    (%ebx),%esi
    41c5:	89 43 08             	mov    %eax,0x8(%ebx)
    41c8:	01 f6                	add    %esi,%esi
    41ca:	8b 43 04             	mov    0x4(%ebx),%eax
    41cd:	89 33                	mov    %esi,(%ebx)
    41cf:	eb a6                	jmp    4177 <socket_ports_add+0x37>
    41d1:	b8 fe ff ff ff       	mov    $0xfffffffe,%eax
    41d6:	eb 85                	jmp    415d <socket_ports_add+0x1d>
    41d8:	90                   	nop
    41d9:	8d b4 26 00 00 00 00 	lea    0x0(%esi,%eiz,1),%esi

000041e0 <socket_ports_clear>:
    41e0:	55                   	push   %ebp
    41e1:	89 e5                	mov    %esp,%ebp
    41e3:	57                   	push   %edi
    41e4:	56                   	push   %esi
    41e5:	53                   	push   %ebx
    41e6:	83 ec 1c             	sub    $0x1c,%esp
    41e9:	8b 7d 08             	mov    0x8(%ebp),%edi
    41ec:	85 ff                	test   %edi,%edi
    41ee:	74 09                	je     41f9 <socket_ports_clear+0x19>
    41f0:	81 7f 0c 44 33 22 11 	cmpl   $0x11223344,0xc(%edi)
    41f7:	74 0f                	je     4208 <socket_ports_clear+0x28>
    41f9:	83 c4 1c             	add    $0x1c,%esp
    41fc:	5b                   	pop    %ebx
    41fd:	5e                   	pop    %esi
    41fe:	5f                   	pop    %edi
    41ff:	5d                   	pop    %ebp
    4200:	c3                   	ret    
    4201:	8d b4 26 00 00 00 00 	lea    0x0(%esi,%eiz,1),%esi
    4208:	8b 47 04             	mov    0x4(%edi),%eax
    420b:	8b 57 08             	mov    0x8(%edi),%edx
    420e:	85 c0                	test   %eax,%eax
    4210:	7e 4e                	jle    4260 <socket_ports_clear+0x80>
    4212:	8b 4d 0c             	mov    0xc(%ebp),%ecx
    4215:	31 db                	xor    %ebx,%ebx
    4217:	85 c9                	test   %ecx,%ecx
    4219:	0f 85 86 00 00 00    	jne    42a5 <socket_ports_clear+0xc5>
    421f:	89 d1                	mov    %edx,%ecx
    4221:	eb 0d                	jmp    4230 <socket_ports_clear+0x50>
    4223:	90                   	nop
    4224:	8d 74 26 00          	lea    0x0(%esi,%eiz,1),%esi
    4228:	43                   	inc    %ebx
    4229:	83 c1 0c             	add    $0xc,%ecx
    422c:	39 d8                	cmp    %ebx,%eax
    422e:	7e 30                	jle    4260 <socket_ports_clear+0x80>
    4230:	85 c9                	test   %ecx,%ecx
    4232:	74 f4                	je     4228 <socket_ports_clear+0x48>
    4234:	81 79 08 88 77 66 55 	cmpl   $0x55667788,0x8(%ecx)
    423b:	75 eb                	jne    4228 <socket_ports_clear+0x48>
    423d:	8b 71 04             	mov    0x4(%ecx),%esi
    4240:	c7 41 08 00 00 00 00 	movl   $0x0,0x8(%ecx)
    4247:	85 f6                	test   %esi,%esi
    4249:	74 dd                	je     4228 <socket_ports_clear+0x48>
    424b:	43                   	inc    %ebx
    424c:	c7 41 04 00 00 00 00 	movl   $0x0,0x4(%ecx)
    4253:	83 c1 0c             	add    $0xc,%ecx
    4256:	39 d8                	cmp    %ebx,%eax
    4258:	7f d6                	jg     4230 <socket_ports_clear+0x50>
    425a:	8d b6 00 00 00 00    	lea    0x0(%esi),%esi
    4260:	c7 47 04 00 00 00 00 	movl   $0x0,0x4(%edi)
    4267:	c7 42 08 00 00 00 00 	movl   $0x0,0x8(%edx)
    426e:	83 c4 1c             	add    $0x1c,%esp
    4271:	5b                   	pop    %ebx
    4272:	5e                   	pop    %esi
    4273:	5f                   	pop    %edi
    4274:	5d                   	pop    %ebp
    4275:	c3                   	ret    
    4276:	8b 4e 04             	mov    0x4(%esi),%ecx
    4279:	c7 46 08 00 00 00 00 	movl   $0x0,0x8(%esi)
    4280:	85 c9                	test   %ecx,%ecx
    4282:	74 1c                	je     42a0 <socket_ports_clear+0xc0>
    4284:	8b 45 0c             	mov    0xc(%ebp),%eax
    4287:	89 0c 24             	mov    %ecx,(%esp)
    428a:	ff d0                	call   *%eax
    428c:	8b 57 08             	mov    0x8(%edi),%edx
    428f:	8b 47 04             	mov    0x4(%edi),%eax
    4292:	c7 46 04 00 00 00 00 	movl   $0x0,0x4(%esi)
    4299:	8d b4 26 00 00 00 00 	lea    0x0(%esi,%eiz,1),%esi
    42a0:	43                   	inc    %ebx
    42a1:	39 c3                	cmp    %eax,%ebx
    42a3:	7d bb                	jge    4260 <socket_ports_clear+0x80>
    42a5:	8d 0c 5b             	lea    (%ebx,%ebx,2),%ecx
    42a8:	8d 34 8a             	lea    (%edx,%ecx,4),%esi
    42ab:	85 f6                	test   %esi,%esi
    42ad:	74 f1                	je     42a0 <socket_ports_clear+0xc0>
    42af:	81 7e 08 88 77 66 55 	cmpl   $0x55667788,0x8(%esi)
    42b6:	75 e8                	jne    42a0 <socket_ports_clear+0xc0>
    42b8:	eb bc                	jmp    4276 <socket_ports_clear+0x96>
    42ba:	8d b6 00 00 00 00    	lea    0x0(%esi),%esi

000042c0 <socket_ports_count>:
    42c0:	55                   	push   %ebp
    42c1:	89 e5                	mov    %esp,%ebp
    42c3:	8b 45 08             	mov    0x8(%ebp),%eax
    42c6:	85 c0                	test   %eax,%eax
    42c8:	74 09                	je     42d3 <socket_ports_count+0x13>
    42ca:	81 78 0c 44 33 22 11 	cmpl   $0x11223344,0xc(%eax)
    42d1:	74 05                	je     42d8 <socket_ports_count+0x18>
    42d3:	83 c8 ff             	or     $0xffffffff,%eax
    42d6:	5d                   	pop    %ebp
    42d7:	c3                   	ret    
    42d8:	8b 40 04             	mov    0x4(%eax),%eax
    42db:	5d                   	pop    %ebp
    42dc:	c3                   	ret    
    42dd:	8d 76 00             	lea    0x0(%esi),%esi

000042e0 <socket_ports_destroy>:
    42e0:	55                   	push   %ebp
    42e1:	89 e5                	mov    %esp,%ebp
    42e3:	57                   	push   %edi
    42e4:	56                   	push   %esi
    42e5:	53                   	push   %ebx
    42e6:	83 ec 2c             	sub    $0x2c,%esp
    42e9:	8b 7d 08             	mov    0x8(%ebp),%edi
    42ec:	8b 45 0c             	mov    0xc(%ebp),%eax
    42ef:	89 45 e4             	mov    %eax,-0x1c(%ebp)
    42f2:	85 ff                	test   %edi,%edi
    42f4:	74 09                	je     42ff <socket_ports_destroy+0x1f>
    42f6:	81 7f 0c 44 33 22 11 	cmpl   $0x11223344,0xc(%edi)
    42fd:	74 09                	je     4308 <socket_ports_destroy+0x28>
    42ff:	83 c4 2c             	add    $0x2c,%esp
    4302:	5b                   	pop    %ebx
    4303:	5e                   	pop    %esi
    4304:	5f                   	pop    %edi
    4305:	5d                   	pop    %ebp
    4306:	c3                   	ret    
    4307:	90                   	nop
    4308:	8b 47 04             	mov    0x4(%edi),%eax
    430b:	c7 47 0c 00 00 00 00 	movl   $0x0,0xc(%edi)
    4312:	8b 57 08             	mov    0x8(%edi),%edx
    4315:	85 c0                	test   %eax,%eax
    4317:	7e 47                	jle    4360 <socket_ports_destroy+0x80>
    4319:	8b 4d e4             	mov    -0x1c(%ebp),%ecx
    431c:	31 db                	xor    %ebx,%ebx
    431e:	85 c9                	test   %ecx,%ecx
    4320:	75 7b                	jne    439d <socket_ports_destroy+0xbd>
    4322:	89 d1                	mov    %edx,%ecx
    4324:	eb 0a                	jmp    4330 <socket_ports_destroy+0x50>
    4326:	66 90                	xchg   %ax,%ax
    4328:	43                   	inc    %ebx
    4329:	83 c1 0c             	add    $0xc,%ecx
    432c:	39 d8                	cmp    %ebx,%eax
    432e:	7e 30                	jle    4360 <socket_ports_destroy+0x80>
    4330:	85 c9                	test   %ecx,%ecx
    4332:	74 f4                	je     4328 <socket_ports_destroy+0x48>
    4334:	81 79 08 88 77 66 55 	cmpl   $0x55667788,0x8(%ecx)
    433b:	75 eb                	jne    4328 <socket_ports_destroy+0x48>
    433d:	8b 71 04             	mov    0x4(%ecx),%esi
    4340:	c7 41 08 00 00 00 00 	movl   $0x0,0x8(%ecx)
    4347:	85 f6                	test   %esi,%esi
    4349:	74 dd                	je     4328 <socket_ports_destroy+0x48>
    434b:	43                   	inc    %ebx
    434c:	c7 41 04 00 00 00 00 	movl   $0x0,0x4(%ecx)
    4353:	83 c1 0c             	add    $0xc,%ecx
    4356:	39 d8                	cmp    %ebx,%eax
    4358:	7f d6                	jg     4330 <socket_ports_destroy+0x50>
    435a:	8d b6 00 00 00 00    	lea    0x0(%esi),%esi
    4360:	89 55 08             	mov    %edx,0x8(%ebp)
    4363:	83 c4 2c             	add    $0x2c,%esp
    4366:	5b                   	pop    %ebx
    4367:	5e                   	pop    %esi
    4368:	5f                   	pop    %edi
    4369:	5d                   	pop    %ebp
    436a:	e9 c1 cb 00 00       	jmp    10f30 <free>
    436f:	8b 4e 04             	mov    0x4(%esi),%ecx
    4372:	c7 46 08 00 00 00 00 	movl   $0x0,0x8(%esi)
    4379:	85 c9                	test   %ecx,%ecx
    437b:	74 1b                	je     4398 <socket_ports_destroy+0xb8>
    437d:	8b 45 e4             	mov    -0x1c(%ebp),%eax
    4380:	89 0c 24             	mov    %ecx,(%esp)
    4383:	ff d0                	call   *%eax
    4385:	8b 57 08             	mov    0x8(%edi),%edx
    4388:	8b 47 04             	mov    0x4(%edi),%eax
    438b:	c7 46 04 00 00 00 00 	movl   $0x0,0x4(%esi)
    4392:	8d b6 00 00 00 00    	lea    0x0(%esi),%esi
    4398:	43                   	inc    %ebx
    4399:	39 c3                	cmp    %eax,%ebx
    439b:	7d c3                	jge    4360 <socket_ports_destroy+0x80>
    439d:	8d 0c 5b             	lea    (%ebx,%ebx,2),%ecx
    43a0:	8d 34 8a             	lea    (%edx,%ecx,4),%esi
    43a3:	85 f6                	test   %esi,%esi
    43a5:	74 f1                	je     4398 <socket_ports_destroy+0xb8>
    43a7:	81 7e 08 88 77 66 55 	cmpl   $0x55667788,0x8(%esi)
    43ae:	75 e8                	jne    4398 <socket_ports_destroy+0xb8>
    43b0:	eb bd                	jmp    436f <socket_ports_destroy+0x8f>
    43b2:	8d b4 26 00 00 00 00 	lea    0x0(%esi,%eiz,1),%esi
    43b9:	8d bc 27 00 00 00 00 	lea    0x0(%edi,%eiz,1),%edi

000043c0 <socket_ports_exclude>:
    43c0:	55                   	push   %ebp
    43c1:	89 e5                	mov    %esp,%ebp
    43c3:	57                   	push   %edi
    43c4:	56                   	push   %esi
    43c5:	53                   	push   %ebx
    43c6:	83 ec 2c             	sub    $0x2c,%esp
    43c9:	8b 7d 08             	mov    0x8(%ebp),%edi
    43cc:	8b 4d 0c             	mov    0xc(%ebp),%ecx
    43cf:	85 ff                	test   %edi,%edi
    43d1:	74 09                	je     43dc <socket_ports_exclude+0x1c>
    43d3:	81 7f 0c 44 33 22 11 	cmpl   $0x11223344,0xc(%edi)
    43da:	74 0c                	je     43e8 <socket_ports_exclude+0x28>
    43dc:	83 c4 2c             	add    $0x2c,%esp
    43df:	5b                   	pop    %ebx
    43e0:	5e                   	pop    %esi
    43e1:	5f                   	pop    %edi
    43e2:	5d                   	pop    %ebp
    43e3:	c3                   	ret    
    43e4:	8d 74 26 00          	lea    0x0(%esi,%eiz,1),%esi
    43e8:	8b 57 04             	mov    0x4(%edi),%edx
    43eb:	85 d2                	test   %edx,%edx
    43ed:	7e ed                	jle    43dc <socket_ports_exclude+0x1c>
    43ef:	8b 45 10             	mov    0x10(%ebp),%eax
    43f2:	31 db                	xor    %ebx,%ebx
    43f4:	85 c0                	test   %eax,%eax
    43f6:	75 71                	jne    4469 <socket_ports_exclude+0xa9>
    43f8:	8b 7f 08             	mov    0x8(%edi),%edi
    43fb:	31 c0                	xor    %eax,%eax
    43fd:	eb 09                	jmp    4408 <socket_ports_exclude+0x48>
    43ff:	90                   	nop
    4400:	43                   	inc    %ebx
    4401:	83 c0 0c             	add    $0xc,%eax
    4404:	39 da                	cmp    %ebx,%edx
    4406:	7e d4                	jle    43dc <socket_ports_exclude+0x1c>
    4408:	89 fe                	mov    %edi,%esi
    440a:	01 c6                	add    %eax,%esi
    440c:	74 f2                	je     4400 <socket_ports_exclude+0x40>
    440e:	81 7e 08 88 77 66 55 	cmpl   $0x55667788,0x8(%esi)
    4415:	75 e9                	jne    4400 <socket_ports_exclude+0x40>
    4417:	39 0e                	cmp    %ecx,(%esi)
    4419:	75 e5                	jne    4400 <socket_ports_exclude+0x40>
    441b:	c7 46 08 00 00 00 00 	movl   $0x0,0x8(%esi)
    4422:	83 7e 04 00          	cmpl   $0x0,0x4(%esi)
    4426:	74 d8                	je     4400 <socket_ports_exclude+0x40>
    4428:	c7 46 04 00 00 00 00 	movl   $0x0,0x4(%esi)
    442f:	eb cf                	jmp    4400 <socket_ports_exclude+0x40>
    4431:	39 0e                	cmp    %ecx,(%esi)
    4433:	75 2b                	jne    4460 <socket_ports_exclude+0xa0>
    4435:	8b 46 04             	mov    0x4(%esi),%eax
    4438:	c7 46 08 00 00 00 00 	movl   $0x0,0x8(%esi)
    443f:	85 c0                	test   %eax,%eax
    4441:	74 1d                	je     4460 <socket_ports_exclude+0xa0>
    4443:	89 04 24             	mov    %eax,(%esp)
    4446:	89 4d e4             	mov    %ecx,-0x1c(%ebp)
    4449:	8b 45 10             	mov    0x10(%ebp),%eax
    444c:	ff d0                	call   *%eax
    444e:	c7 46 04 00 00 00 00 	movl   $0x0,0x4(%esi)
    4455:	8b 57 04             	mov    0x4(%edi),%edx
    4458:	8b 4d e4             	mov    -0x1c(%ebp),%ecx
    445b:	90                   	nop
    445c:	8d 74 26 00          	lea    0x0(%esi,%eiz,1),%esi
    4460:	43                   	inc    %ebx
    4461:	39 d3                	cmp    %edx,%ebx
    4463:	0f 8d 73 ff ff ff    	jge    43dc <socket_ports_exclude+0x1c>
    4469:	8d 34 5b             	lea    (%ebx,%ebx,2),%esi
    446c:	8b 47 08             	mov    0x8(%edi),%eax
    446f:	8d 34 b0             	lea    (%eax,%esi,4),%esi
    4472:	85 f6                	test   %esi,%esi
    4474:	74 ea                	je     4460 <socket_ports_exclude+0xa0>
    4476:	81 7e 08 88 77 66 55 	cmpl   $0x55667788,0x8(%esi)
    447d:	75 e1                	jne    4460 <socket_ports_exclude+0xa0>
    447f:	eb b0                	jmp    4431 <socket_ports_exclude+0x71>
    4481:	eb 0d                	jmp    4490 <socket_ports_exclude_index>
    4483:	90                   	nop
    4484:	90                   	nop
    4485:	90                   	nop
    4486:	90                   	nop
    4487:	90                   	nop
    4488:	90                   	nop
    4489:	90                   	nop
    448a:	90                   	nop
    448b:	90                   	nop
    448c:	90                   	nop
    448d:	90                   	nop
    448e:	90                   	nop
    448f:	90                   	nop

00004490 <socket_ports_exclude_index>:
    4490:	55                   	push   %ebp
    4491:	89 e5                	mov    %esp,%ebp
    4493:	53                   	push   %ebx
    4494:	83 ec 14             	sub    $0x14,%esp
    4497:	8b 45 08             	mov    0x8(%ebp),%eax
    449a:	8b 55 0c             	mov    0xc(%ebp),%edx
    449d:	85 c0                	test   %eax,%eax
    449f:	74 09                	je     44aa <socket_ports_exclude_index+0x1a>
    44a1:	81 78 0c 44 33 22 11 	cmpl   $0x11223344,0xc(%eax)
    44a8:	74 06                	je     44b0 <socket_ports_exclude_index+0x20>
    44aa:	83 c4 14             	add    $0x14,%esp
    44ad:	5b                   	pop    %ebx
    44ae:	5d                   	pop    %ebp
    44af:	c3                   	ret    
    44b0:	85 d2                	test   %edx,%edx
    44b2:	78 f6                	js     44aa <socket_ports_exclude_index+0x1a>
    44b4:	3b 50 04             	cmp    0x4(%eax),%edx
    44b7:	7d f1                	jge    44aa <socket_ports_exclude_index+0x1a>
    44b9:	8d 14 52             	lea    (%edx,%edx,2),%edx
    44bc:	8b 40 08             	mov    0x8(%eax),%eax
    44bf:	8d 1c 90             	lea    (%eax,%edx,4),%ebx
    44c2:	85 db                	test   %ebx,%ebx
    44c4:	74 e4                	je     44aa <socket_ports_exclude_index+0x1a>
    44c6:	81 7b 08 88 77 66 55 	cmpl   $0x55667788,0x8(%ebx)
    44cd:	75 db                	jne    44aa <socket_ports_exclude_index+0x1a>
    44cf:	8b 43 04             	mov    0x4(%ebx),%eax
    44d2:	c7 43 08 00 00 00 00 	movl   $0x0,0x8(%ebx)
    44d9:	85 c0                	test   %eax,%eax
    44db:	74 cd                	je     44aa <socket_ports_exclude_index+0x1a>
    44dd:	8b 55 10             	mov    0x10(%ebp),%edx
    44e0:	85 d2                	test   %edx,%edx
    44e2:	74 08                	je     44ec <socket_ports_exclude_index+0x5c>
    44e4:	89 04 24             	mov    %eax,(%esp)
    44e7:	8b 45 10             	mov    0x10(%ebp),%eax
    44ea:	ff d0                	call   *%eax
    44ec:	c7 43 04 00 00 00 00 	movl   $0x0,0x4(%ebx)
    44f3:	eb b5                	jmp    44aa <socket_ports_exclude_index+0x1a>
    44f5:	8d 74 26 00          	lea    0x0(%esi,%eiz,1),%esi
    44f9:	8d bc 27 00 00 00 00 	lea    0x0(%edi,%eiz,1),%edi

00004500 <socket_ports_find>:
    4500:	55                   	push   %ebp
    4501:	31 c0                	xor    %eax,%eax
    4503:	89 e5                	mov    %esp,%ebp
    4505:	53                   	push   %ebx
    4506:	8b 55 08             	mov    0x8(%ebp),%edx
    4509:	8b 5d 0c             	mov    0xc(%ebp),%ebx
    450c:	85 d2                	test   %edx,%edx
    450e:	74 09                	je     4519 <socket_ports_find+0x19>
    4510:	81 7a 0c 44 33 22 11 	cmpl   $0x11223344,0xc(%edx)
    4517:	74 07                	je     4520 <socket_ports_find+0x20>
    4519:	5b                   	pop    %ebx
    451a:	5d                   	pop    %ebp
    451b:	c3                   	ret    
    451c:	8d 74 26 00          	lea    0x0(%esi,%eiz,1),%esi
    4520:	8b 4a 04             	mov    0x4(%edx),%ecx
    4523:	85 c9                	test   %ecx,%ecx
    4525:	7e f2                	jle    4519 <socket_ports_find+0x19>
    4527:	8b 42 08             	mov    0x8(%edx),%eax
    452a:	31 d2                	xor    %edx,%edx
    452c:	eb 0a                	jmp    4538 <socket_ports_find+0x38>
    452e:	66 90                	xchg   %ax,%ax
    4530:	42                   	inc    %edx
    4531:	83 c0 0c             	add    $0xc,%eax
    4534:	39 ca                	cmp    %ecx,%edx
    4536:	74 18                	je     4550 <socket_ports_find+0x50>
    4538:	85 c0                	test   %eax,%eax
    453a:	74 f4                	je     4530 <socket_ports_find+0x30>
    453c:	81 78 08 88 77 66 55 	cmpl   $0x55667788,0x8(%eax)
    4543:	75 eb                	jne    4530 <socket_ports_find+0x30>
    4545:	39 18                	cmp    %ebx,(%eax)
    4547:	75 e7                	jne    4530 <socket_ports_find+0x30>
    4549:	8b 40 04             	mov    0x4(%eax),%eax
    454c:	5b                   	pop    %ebx
    454d:	5d                   	pop    %ebp
    454e:	c3                   	ret    
    454f:	90                   	nop
    4550:	31 c0                	xor    %eax,%eax
    4552:	5b                   	pop    %ebx
    4553:	5d                   	pop    %ebp
    4554:	c3                   	ret    
    4555:	8d 74 26 00          	lea    0x0(%esi,%eiz,1),%esi
    4559:	8d bc 27 00 00 00 00 	lea    0x0(%edi,%eiz,1),%edi

00004560 <socket_ports_update>:
    4560:	55                   	push   %ebp
    4561:	83 c8 ff             	or     $0xffffffff,%eax
    4564:	89 e5                	mov    %esp,%ebp
    4566:	57                   	push   %edi
    4567:	56                   	push   %esi
    4568:	53                   	push   %ebx
    4569:	8b 55 08             	mov    0x8(%ebp),%edx
    456c:	8b 75 0c             	mov    0xc(%ebp),%esi
    456f:	8b 7d 10             	mov    0x10(%ebp),%edi
    4572:	85 d2                	test   %edx,%edx
    4574:	74 09                	je     457f <socket_ports_update+0x1f>
    4576:	81 7a 0c 44 33 22 11 	cmpl   $0x11223344,0xc(%edx)
    457d:	74 09                	je     4588 <socket_ports_update+0x28>
    457f:	5b                   	pop    %ebx
    4580:	5e                   	pop    %esi
    4581:	5f                   	pop    %edi
    4582:	5d                   	pop    %ebp
    4583:	c3                   	ret    
    4584:	8d 74 26 00          	lea    0x0(%esi,%eiz,1),%esi
    4588:	8b 4a 04             	mov    0x4(%edx),%ecx
    458b:	85 c9                	test   %ecx,%ecx
    458d:	7e f0                	jle    457f <socket_ports_update+0x1f>
    458f:	8b 42 08             	mov    0x8(%edx),%eax
    4592:	31 d2                	xor    %edx,%edx
    4594:	eb 0a                	jmp    45a0 <socket_ports_update+0x40>
    4596:	66 90                	xchg   %ax,%ax
    4598:	42                   	inc    %edx
    4599:	83 c0 0c             	add    $0xc,%eax
    459c:	39 ca                	cmp    %ecx,%edx
    459e:	74 20                	je     45c0 <socket_ports_update+0x60>
    45a0:	85 c0                	test   %eax,%eax
    45a2:	74 f4                	je     4598 <socket_ports_update+0x38>
    45a4:	81 78 08 88 77 66 55 	cmpl   $0x55667788,0x8(%eax)
    45ab:	75 eb                	jne    4598 <socket_ports_update+0x38>
    45ad:	8b 18                	mov    (%eax),%ebx
    45af:	39 fb                	cmp    %edi,%ebx
    45b1:	74 15                	je     45c8 <socket_ports_update+0x68>
    45b3:	39 f3                	cmp    %esi,%ebx
    45b5:	75 e1                	jne    4598 <socket_ports_update+0x38>
    45b7:	89 38                	mov    %edi,(%eax)
    45b9:	31 c0                	xor    %eax,%eax
    45bb:	5b                   	pop    %ebx
    45bc:	5e                   	pop    %esi
    45bd:	5f                   	pop    %edi
    45be:	5d                   	pop    %ebp
    45bf:	c3                   	ret    
    45c0:	5b                   	pop    %ebx
    45c1:	83 c8 ff             	or     $0xffffffff,%eax
    45c4:	5e                   	pop    %esi
    45c5:	5f                   	pop    %edi
    45c6:	5d                   	pop    %ebp
    45c7:	c3                   	ret    
    45c8:	5b                   	pop    %ebx
    45c9:	b8 fc fe ff ff       	mov    $0xfffffefc,%eax
    45ce:	5e                   	pop    %esi
    45cf:	5f                   	pop    %edi
    45d0:	5d                   	pop    %ebp
    45d1:	c3                   	ret    
    45d2:	8d b4 26 00 00 00 00 	lea    0x0(%esi,%eiz,1),%esi
    45d9:	8d bc 27 00 00 00 00 	lea    0x0(%edi,%eiz,1),%edi

000045e0 <socket_ports_get_index>:
    45e0:	55                   	push   %ebp
    45e1:	89 e5                	mov    %esp,%ebp
    45e3:	8b 45 08             	mov    0x8(%ebp),%eax
    45e6:	8b 55 0c             	mov    0xc(%ebp),%edx
    45e9:	85 c0                	test   %eax,%eax
    45eb:	74 09                	je     45f6 <socket_ports_get_index+0x16>
    45ed:	81 78 0c 44 33 22 11 	cmpl   $0x11223344,0xc(%eax)
    45f4:	74 0a                	je     4600 <socket_ports_get_index+0x20>
    45f6:	31 c0                	xor    %eax,%eax
    45f8:	5d                   	pop    %ebp
    45f9:	c3                   	ret    
    45fa:	8d b6 00 00 00 00    	lea    0x0(%esi),%esi
    4600:	85 d2                	test   %edx,%edx
    4602:	78 f2                	js     45f6 <socket_ports_get_index+0x16>
    4604:	3b 50 04             	cmp    0x4(%eax),%edx
    4607:	7d ed                	jge    45f6 <socket_ports_get_index+0x16>
    4609:	8d 14 52             	lea    (%edx,%edx,2),%edx
    460c:	8b 40 08             	mov    0x8(%eax),%eax
    460f:	8d 04 90             	lea    (%eax,%edx,4),%eax
    4612:	85 c0                	test   %eax,%eax
    4614:	74 e0                	je     45f6 <socket_ports_get_index+0x16>
    4616:	81 78 08 88 77 66 55 	cmpl   $0x55667788,0x8(%eax)
    461d:	75 d7                	jne    45f6 <socket_ports_get_index+0x16>
    461f:	8b 40 04             	mov    0x4(%eax),%eax
    4622:	5d                   	pop    %ebp
    4623:	c3                   	ret    
    4624:	8d b6 00 00 00 00    	lea    0x0(%esi),%esi
    462a:	8d bf 00 00 00 00    	lea    0x0(%edi),%edi

00004630 <socket_ports_initialize>:
    4630:	55                   	push   %ebp
    4631:	89 e5                	mov    %esp,%ebp
    4633:	53                   	push   %ebx
    4634:	83 ec 14             	sub    $0x14,%esp
    4637:	8b 5d 08             	mov    0x8(%ebp),%ebx
    463a:	85 db                	test   %ebx,%ebx
    463c:	74 42                	je     4680 <socket_ports_initialize+0x50>
    463e:	c7 03 02 00 00 00    	movl   $0x2,(%ebx)
    4644:	c7 43 04 00 00 00 00 	movl   $0x0,0x4(%ebx)
    464b:	c7 04 24 18 00 00 00 	movl   $0x18,(%esp)
    4652:	e8 c9 c7 00 00       	call   10e20 <malloc>
    4657:	89 43 08             	mov    %eax,0x8(%ebx)
    465a:	85 c0                	test   %eax,%eax
    465c:	74 29                	je     4687 <socket_ports_initialize+0x57>
    465e:	8b 53 04             	mov    0x4(%ebx),%edx
    4661:	8d 14 52             	lea    (%edx,%edx,2),%edx
    4664:	c7 44 90 08 00 00 00 	movl   $0x0,0x8(%eax,%edx,4)
    466b:	00 
    466c:	c7 43 0c 44 33 22 11 	movl   $0x11223344,0xc(%ebx)
    4673:	31 c0                	xor    %eax,%eax
    4675:	83 c4 14             	add    $0x14,%esp
    4678:	5b                   	pop    %ebx
    4679:	5d                   	pop    %ebp
    467a:	c3                   	ret    
    467b:	90                   	nop
    467c:	8d 74 26 00          	lea    0x0(%esi,%eiz,1),%esi
    4680:	b8 f2 ff ff ff       	mov    $0xfffffff2,%eax
    4685:	eb ee                	jmp    4675 <socket_ports_initialize+0x45>
    4687:	b8 fe ff ff ff       	mov    $0xfffffffe,%eax
    468c:	eb e7                	jmp    4675 <socket_ports_initialize+0x45>
    468e:	66 90                	xchg   %ax,%ax

00004690 <socket_ports_is_valid>:
    4690:	55                   	push   %ebp
    4691:	89 e5                	mov    %esp,%ebp
    4693:	8b 45 08             	mov    0x8(%ebp),%eax
    4696:	85 c0                	test   %eax,%eax
    4698:	74 16                	je     46b0 <socket_ports_is_valid+0x20>
    469a:	81 78 0c 44 33 22 11 	cmpl   $0x11223344,0xc(%eax)
    46a1:	0f 94 c0             	sete   %al
    46a4:	25 ff 00 00 00       	and    $0xff,%eax
    46a9:	5d                   	pop    %ebp
    46aa:	c3                   	ret    
    46ab:	90                   	nop
    46ac:	8d 74 26 00          	lea    0x0(%esi,%eiz,1),%esi
    46b0:	31 c0                	xor    %eax,%eax
    46b2:	5d                   	pop    %ebp
    46b3:	c3                   	ret    
    46b4:	8d b6 00 00 00 00    	lea    0x0(%esi),%esi
    46ba:	8d bf 00 00 00 00    	lea    0x0(%edi),%edi

000046c0 <socket_ports_item_destroy>:
    46c0:	55                   	push   %ebp
    46c1:	89 e5                	mov    %esp,%ebp
    46c3:	53                   	push   %ebx
    46c4:	83 ec 14             	sub    $0x14,%esp
    46c7:	8b 5d 08             	mov    0x8(%ebp),%ebx
    46ca:	85 db                	test   %ebx,%ebx
    46cc:	74 09                	je     46d7 <socket_ports_item_destroy+0x17>
    46ce:	81 7b 08 88 77 66 55 	cmpl   $0x55667788,0x8(%ebx)
    46d5:	74 09                	je     46e0 <socket_ports_item_destroy+0x20>
    46d7:	83 c4 14             	add    $0x14,%esp
    46da:	5b                   	pop    %ebx
    46db:	5d                   	pop    %ebp
    46dc:	c3                   	ret    
    46dd:	8d 76 00             	lea    0x0(%esi),%esi
    46e0:	8b 43 04             	mov    0x4(%ebx),%eax
    46e3:	c7 43 08 00 00 00 00 	movl   $0x0,0x8(%ebx)
    46ea:	85 c0                	test   %eax,%eax
    46ec:	74 e9                	je     46d7 <socket_ports_item_destroy+0x17>
    46ee:	8b 4d 0c             	mov    0xc(%ebp),%ecx
    46f1:	85 c9                	test   %ecx,%ecx
    46f3:	74 08                	je     46fd <socket_ports_item_destroy+0x3d>
    46f5:	89 04 24             	mov    %eax,(%esp)
    46f8:	8b 45 0c             	mov    0xc(%ebp),%eax
    46fb:	ff d0                	call   *%eax
    46fd:	c7 43 04 00 00 00 00 	movl   $0x0,0x4(%ebx)
    4704:	83 c4 14             	add    $0x14,%esp
    4707:	5b                   	pop    %ebx
    4708:	5d                   	pop    %ebp
    4709:	c3                   	ret    
    470a:	8d b6 00 00 00 00    	lea    0x0(%esi),%esi

00004710 <socket_ports_item_is_valid>:
    4710:	55                   	push   %ebp
    4711:	89 e5                	mov    %esp,%ebp
    4713:	8b 45 08             	mov    0x8(%ebp),%eax
    4716:	85 c0                	test   %eax,%eax
    4718:	74 16                	je     4730 <socket_ports_item_is_valid+0x20>
    471a:	81 78 08 88 77 66 55 	cmpl   $0x55667788,0x8(%eax)
    4721:	0f 94 c0             	sete   %al
    4724:	25 ff 00 00 00       	and    $0xff,%eax
    4729:	5d                   	pop    %ebp
    472a:	c3                   	ret    
    472b:	90                   	nop
    472c:	8d 74 26 00          	lea    0x0(%esi,%eiz,1),%esi
    4730:	31 c0                	xor    %eax,%eax
    4732:	5d                   	pop    %ebp
    4733:	c3                   	ret    
    4734:	8d b6 00 00 00 00    	lea    0x0(%esi),%esi
    473a:	8d bf 00 00 00 00    	lea    0x0(%edi),%edi

00004740 <socket_bind_free_port>:
    4740:	55                   	push   %ebp
    4741:	89 e5                	mov    %esp,%ebp
    4743:	57                   	push   %edi
    4744:	56                   	push   %esi
    4745:	53                   	push   %ebx
    4746:	83 ec 1c             	sub    $0x1c,%esp
    4749:	8b 55 0c             	mov    0xc(%ebp),%edx
    474c:	8b 7d 14             	mov    0x14(%ebp),%edi
    474f:	89 55 e0             	mov    %edx,-0x20(%ebp)
    4752:	8b 55 10             	mov    0x10(%ebp),%edx
    4755:	89 55 dc             	mov    %edx,-0x24(%ebp)
    4758:	8b 55 18             	mov    0x18(%ebp),%edx
    475b:	89 d1                	mov    %edx,%ecx
    475d:	8b 45 08             	mov    0x8(%ebp),%eax
    4760:	41                   	inc    %ecx
    4761:	89 55 e4             	mov    %edx,-0x1c(%ebp)
    4764:	39 f9                	cmp    %edi,%ecx
    4766:	7d 55                	jge    47bd <socket_bind_free_port+0x7d>
    4768:	85 c0                	test   %eax,%eax
    476a:	74 09                	je     4775 <socket_bind_free_port+0x35>
    476c:	81 78 0c 44 33 22 11 	cmpl   $0x11223344,0xc(%eax)
    4773:	74 13                	je     4788 <socket_bind_free_port+0x48>
    4775:	8b 55 e0             	mov    -0x20(%ebp),%edx
    4778:	83 c4 1c             	add    $0x1c,%esp
    477b:	5b                   	pop    %ebx
    477c:	5e                   	pop    %esi
    477d:	5f                   	pop    %edi
    477e:	5d                   	pop    %ebp
    477f:	e9 6c ec ff ff       	jmp    33f0 <socket_bind_insert>
    4784:	8d 74 26 00          	lea    0x0(%esi,%eiz,1),%esi
    4788:	8b 70 04             	mov    0x4(%eax),%esi
    478b:	85 f6                	test   %esi,%esi
    478d:	7e e6                	jle    4775 <socket_bind_free_port+0x35>
    478f:	8b 50 08             	mov    0x8(%eax),%edx
    4792:	31 db                	xor    %ebx,%ebx
    4794:	eb 0a                	jmp    47a0 <socket_bind_free_port+0x60>
    4796:	66 90                	xchg   %ax,%ax
    4798:	43                   	inc    %ebx
    4799:	83 c2 0c             	add    $0xc,%edx
    479c:	39 f3                	cmp    %esi,%ebx
    479e:	74 d5                	je     4775 <socket_bind_free_port+0x35>
    47a0:	85 d2                	test   %edx,%edx
    47a2:	74 f4                	je     4798 <socket_bind_free_port+0x58>
    47a4:	81 7a 08 88 77 66 55 	cmpl   $0x55667788,0x8(%edx)
    47ab:	75 eb                	jne    4798 <socket_bind_free_port+0x58>
    47ad:	3b 0a                	cmp    (%edx),%ecx
    47af:	75 e7                	jne    4798 <socket_bind_free_port+0x58>
    47b1:	8b 5a 04             	mov    0x4(%edx),%ebx
    47b4:	85 db                	test   %ebx,%ebx
    47b6:	74 bd                	je     4775 <socket_bind_free_port+0x35>
    47b8:	41                   	inc    %ecx
    47b9:	39 f9                	cmp    %edi,%ecx
    47bb:	7c ab                	jl     4768 <socket_bind_free_port+0x28>
    47bd:	8b 4d dc             	mov    -0x24(%ebp),%ecx
    47c0:	8b 7d e4             	mov    -0x1c(%ebp),%edi
    47c3:	49                   	dec    %ecx
    47c4:	41                   	inc    %ecx
    47c5:	39 cf                	cmp    %ecx,%edi
    47c7:	7e 47                	jle    4810 <socket_bind_free_port+0xd0>
    47c9:	85 c0                	test   %eax,%eax
    47cb:	74 a8                	je     4775 <socket_bind_free_port+0x35>
    47cd:	81 78 0c 44 33 22 11 	cmpl   $0x11223344,0xc(%eax)
    47d4:	75 9f                	jne    4775 <socket_bind_free_port+0x35>
    47d6:	8b 70 04             	mov    0x4(%eax),%esi
    47d9:	85 f6                	test   %esi,%esi
    47db:	7e 98                	jle    4775 <socket_bind_free_port+0x35>
    47dd:	8b 50 08             	mov    0x8(%eax),%edx
    47e0:	31 db                	xor    %ebx,%ebx
    47e2:	eb 0c                	jmp    47f0 <socket_bind_free_port+0xb0>
    47e4:	8d 74 26 00          	lea    0x0(%esi,%eiz,1),%esi
    47e8:	43                   	inc    %ebx
    47e9:	83 c2 0c             	add    $0xc,%edx
    47ec:	39 f3                	cmp    %esi,%ebx
    47ee:	74 85                	je     4775 <socket_bind_free_port+0x35>
    47f0:	85 d2                	test   %edx,%edx
    47f2:	74 f4                	je     47e8 <socket_bind_free_port+0xa8>
    47f4:	81 7a 08 88 77 66 55 	cmpl   $0x55667788,0x8(%edx)
    47fb:	75 eb                	jne    47e8 <socket_bind_free_port+0xa8>
    47fd:	3b 0a                	cmp    (%edx),%ecx
    47ff:	75 e7                	jne    47e8 <socket_bind_free_port+0xa8>
    4801:	8b 72 04             	mov    0x4(%edx),%esi
    4804:	85 f6                	test   %esi,%esi
    4806:	75 bc                	jne    47c4 <socket_bind_free_port+0x84>
    4808:	e9 68 ff ff ff       	jmp    4775 <socket_bind_free_port+0x35>
    480d:	8d 76 00             	lea    0x0(%esi),%esi
    4810:	83 c4 1c             	add    $0x1c,%esp
    4813:	b8 b7 d8 ff ff       	mov    $0xffffd8b7,%eax
    4818:	5b                   	pop    %ebx
    4819:	5e                   	pop    %esi
    481a:	5f                   	pop    %edi
    481b:	5d                   	pop    %ebp
    481c:	c3                   	ret    
    481d:	8d 76 00             	lea    0x0(%esi),%esi

00004820 <socket_create>:
    4820:	55                   	push   %ebp
    4821:	89 e5                	mov    %esp,%ebp
    4823:	57                   	push   %edi
    4824:	56                   	push   %esi
    4825:	53                   	push   %ebx
    4826:	83 ec 3c             	sub    $0x3c,%esp
    4829:	8b 45 14             	mov    0x14(%ebp),%eax
    482c:	8b 5d 08             	mov    0x8(%ebp),%ebx
    482f:	85 c0                	test   %eax,%eax
    4831:	0f 84 73 02 00 00    	je     4aaa <socket_create+0x28a>
    4837:	8b 45 14             	mov    0x14(%ebp),%eax
    483a:	8b 08                	mov    (%eax),%ecx
    483c:	83 f9 00             	cmp    $0x0,%ecx
    483f:	0f 8e eb 00 00 00    	jle    4930 <socket_create+0x110>
    4845:	85 db                	test   %ebx,%ebx
    4847:	74 0d                	je     4856 <socket_create+0x36>
    4849:	81 7b 0c 44 33 22 11 	cmpl   $0x11223344,0xc(%ebx)
    4850:	0f 84 90 00 00 00    	je     48e6 <socket_create+0xc6>
    4856:	c7 04 24 2c 00 00 00 	movl   $0x2c,(%esp)
    485d:	e8 be c5 00 00       	call   10e20 <malloc>
    4862:	89 c7                	mov    %eax,%edi
    4864:	85 c0                	test   %eax,%eax
    4866:	0f 84 34 02 00 00    	je     4aa0 <socket_create+0x280>
    486c:	8b 45 0c             	mov    0xc(%ebp),%eax
    486f:	8d 57 0c             	lea    0xc(%edi),%edx
    4872:	89 47 04             	mov    %eax,0x4(%edi)
    4875:	8b 45 10             	mov    0x10(%ebp),%eax
    4878:	c7 47 08 ff ff ff ff 	movl   $0xffffffff,0x8(%edi)
    487f:	c7 47 24 00 00 00 00 	movl   $0x0,0x24(%edi)
    4886:	c7 47 28 00 00 00 00 	movl   $0x0,0x28(%edi)
    488d:	89 47 20             	mov    %eax,0x20(%edi)
    4890:	c7 44 24 04 01 00 00 	movl   $0x1,0x4(%esp)
    4897:	00 
    4898:	89 14 24             	mov    %edx,(%esp)
    489b:	89 55 e4             	mov    %edx,-0x1c(%ebp)
    489e:	e8 dd 2c 01 00       	call   17580 <dyn_fifo_initialize>
    48a3:	89 c6                	mov    %eax,%esi
    48a5:	85 c0                	test   %eax,%eax
    48a7:	75 2b                	jne    48d4 <socket_create+0xb4>
    48a9:	8b 4d 14             	mov    0x14(%ebp),%ecx
    48ac:	85 db                	test   %ebx,%ebx
    48ae:	8b 09                	mov    (%ecx),%ecx
    48b0:	89 4d d4             	mov    %ecx,-0x2c(%ebp)
    48b3:	89 0f                	mov    %ecx,(%edi)
    48b5:	74 0d                	je     48c4 <socket_create+0xa4>
    48b7:	81 7b 0c 44 33 22 11 	cmpl   $0x11223344,0xc(%ebx)
    48be:	0f 84 4d 01 00 00    	je     4a11 <socket_create+0x1f1>
    48c4:	be f2 ff ff ff       	mov    $0xfffffff2,%esi
    48c9:	8b 4d e4             	mov    -0x1c(%ebp),%ecx
    48cc:	89 0c 24             	mov    %ecx,(%esp)
    48cf:	e8 0c 2f 01 00       	call   177e0 <dyn_fifo_destroy>
    48d4:	89 3c 24             	mov    %edi,(%esp)
    48d7:	e8 54 c6 00 00       	call   10f30 <free>
    48dc:	83 c4 3c             	add    $0x3c,%esp
    48df:	89 f0                	mov    %esi,%eax
    48e1:	5b                   	pop    %ebx
    48e2:	5e                   	pop    %esi
    48e3:	5f                   	pop    %edi
    48e4:	5d                   	pop    %ebp
    48e5:	c3                   	ret    
    48e6:	8b 73 04             	mov    0x4(%ebx),%esi
    48e9:	85 f6                	test   %esi,%esi
    48eb:	0f 8e 65 ff ff ff    	jle    4856 <socket_create+0x36>
    48f1:	8b 43 08             	mov    0x8(%ebx),%eax
    48f4:	31 d2                	xor    %edx,%edx
    48f6:	eb 0c                	jmp    4904 <socket_create+0xe4>
    48f8:	42                   	inc    %edx
    48f9:	83 c0 0c             	add    $0xc,%eax
    48fc:	39 f2                	cmp    %esi,%edx
    48fe:	0f 84 52 ff ff ff    	je     4856 <socket_create+0x36>
    4904:	85 c0                	test   %eax,%eax
    4906:	74 f0                	je     48f8 <socket_create+0xd8>
    4908:	81 78 08 88 77 66 55 	cmpl   $0x55667788,0x8(%eax)
    490f:	75 e7                	jne    48f8 <socket_create+0xd8>
    4911:	3b 08                	cmp    (%eax),%ecx
    4913:	75 e3                	jne    48f8 <socket_create+0xd8>
    4915:	8b 48 04             	mov    0x4(%eax),%ecx
    4918:	85 c9                	test   %ecx,%ecx
    491a:	0f 84 36 ff ff ff    	je     4856 <socket_create+0x36>
    4920:	83 c4 3c             	add    $0x3c,%esp
    4923:	be fc fe ff ff       	mov    $0xfffffefc,%esi
    4928:	89 f0                	mov    %esi,%eax
    492a:	5b                   	pop    %ebx
    492b:	5e                   	pop    %esi
    492c:	5f                   	pop    %edi
    492d:	5d                   	pop    %ebp
    492e:	c3                   	ret    
    492f:	90                   	nop
    4930:	0f 94 c1             	sete   %cl
    4933:	81 e1 ff 00 00 00    	and    $0xff,%ecx
    4939:	c7 45 e4 00 00 00 00 	movl   $0x0,-0x1c(%ebp)
    4940:	89 4d dc             	mov    %ecx,-0x24(%ebp)
    4943:	83 7d e4 63          	cmpl   $0x63,-0x1c(%ebp)
    4947:	0f 8e 8d 00 00 00    	jle    49da <socket_create+0x1ba>
    494d:	83 7d e4 64          	cmpl   $0x64,-0x1c(%ebp)
    4951:	0f 84 a9 00 00 00    	je     4a00 <socket_create+0x1e0>
    4957:	81 fe ff ff ff 7f    	cmp    $0x7fffffff,%esi
    495d:	0f 84 2a 01 00 00    	je     4a8d <socket_create+0x26d>
    4963:	46                   	inc    %esi
    4964:	83 7d dc 01          	cmpl   $0x1,-0x24(%ebp)
    4968:	19 c0                	sbb    %eax,%eax
    496a:	83 c8 01             	or     $0x1,%eax
    496d:	0f af c6             	imul   %esi,%eax
    4970:	85 db                	test   %ebx,%ebx
    4972:	74 09                	je     497d <socket_create+0x15d>
    4974:	81 7b 0c 44 33 22 11 	cmpl   $0x11223344,0xc(%ebx)
    497b:	74 23                	je     49a0 <socket_create+0x180>
    497d:	8b 4d 14             	mov    0x14(%ebp),%ecx
    4980:	85 f6                	test   %esi,%esi
    4982:	89 31                	mov    %esi,(%ecx)
    4984:	0f 8e 52 ff ff ff    	jle    48dc <socket_create+0xbc>
    498a:	8b 7d dc             	mov    -0x24(%ebp),%edi
    498d:	85 ff                	test   %edi,%edi
    498f:	0f 85 c1 fe ff ff    	jne    4856 <socket_create+0x36>
    4995:	f7 de                	neg    %esi
    4997:	89 31                	mov    %esi,(%ecx)
    4999:	e9 b8 fe ff ff       	jmp    4856 <socket_create+0x36>
    499e:	66 90                	xchg   %ax,%ax
    49a0:	8b 53 04             	mov    0x4(%ebx),%edx
    49a3:	85 d2                	test   %edx,%edx
    49a5:	7e d6                	jle    497d <socket_create+0x15d>
    49a7:	8b 4b 08             	mov    0x8(%ebx),%ecx
    49aa:	31 ff                	xor    %edi,%edi
    49ac:	eb 0a                	jmp    49b8 <socket_create+0x198>
    49ae:	66 90                	xchg   %ax,%ax
    49b0:	47                   	inc    %edi
    49b1:	83 c1 0c             	add    $0xc,%ecx
    49b4:	39 d7                	cmp    %edx,%edi
    49b6:	74 c5                	je     497d <socket_create+0x15d>
    49b8:	85 c9                	test   %ecx,%ecx
    49ba:	74 f4                	je     49b0 <socket_create+0x190>
    49bc:	81 79 08 88 77 66 55 	cmpl   $0x55667788,0x8(%ecx)
    49c3:	75 eb                	jne    49b0 <socket_create+0x190>
    49c5:	3b 01                	cmp    (%ecx),%eax
    49c7:	75 e7                	jne    49b0 <socket_create+0x190>
    49c9:	8b 41 04             	mov    0x4(%ecx),%eax
    49cc:	85 c0                	test   %eax,%eax
    49ce:	74 ad                	je     497d <socket_create+0x15d>
    49d0:	83 7d e4 63          	cmpl   $0x63,-0x1c(%ebp)
    49d4:	0f 8f 73 ff ff ff    	jg     494d <socket_create+0x12d>
    49da:	e8 a1 4f 01 00       	call   19980 <random>
    49df:	b9 ff ff ff 7f       	mov    $0x7fffffff,%ecx
    49e4:	89 c2                	mov    %eax,%edx
    49e6:	c1 fa 1f             	sar    $0x1f,%edx
    49e9:	f7 f9                	idiv   %ecx
    49eb:	8b 45 e4             	mov    -0x1c(%ebp),%eax
    49ee:	89 d6                	mov    %edx,%esi
    49f0:	40                   	inc    %eax
    49f1:	89 45 e4             	mov    %eax,-0x1c(%ebp)
    49f4:	e9 6b ff ff ff       	jmp    4964 <socket_create+0x144>
    49f9:	8d b4 26 00 00 00 00 	lea    0x0(%esi,%eiz,1),%esi
    4a00:	c7 45 e4 65 00 00 00 	movl   $0x65,-0x1c(%ebp)
    4a07:	be 01 00 00 00       	mov    $0x1,%esi
    4a0c:	e9 53 ff ff ff       	jmp    4964 <socket_create+0x144>
    4a11:	8b 13                	mov    (%ebx),%edx
    4a13:	8b 43 04             	mov    0x4(%ebx),%eax
    4a16:	89 d1                	mov    %edx,%ecx
    4a18:	89 55 dc             	mov    %edx,-0x24(%ebp)
    4a1b:	49                   	dec    %ecx
    4a1c:	39 c8                	cmp    %ecx,%eax
    4a1e:	74 40                	je     4a60 <socket_create+0x240>
    4a20:	8b 4b 08             	mov    0x8(%ebx),%ecx
    4a23:	89 4d e0             	mov    %ecx,-0x20(%ebp)
    4a26:	89 ca                	mov    %ecx,%edx
    4a28:	8d 0c 40             	lea    (%eax,%eax,2),%ecx
    4a2b:	85 c0                	test   %eax,%eax
    4a2d:	8d 14 8a             	lea    (%edx,%ecx,4),%edx
    4a30:	8b 4d d4             	mov    -0x2c(%ebp),%ecx
    4a33:	89 0a                	mov    %ecx,(%edx)
    4a35:	8d 48 01             	lea    0x1(%eax),%ecx
    4a38:	c7 42 08 88 77 66 55 	movl   $0x55667788,0x8(%edx)
    4a3f:	89 7a 04             	mov    %edi,0x4(%edx)
    4a42:	89 4b 04             	mov    %ecx,0x4(%ebx)
    4a45:	8b 55 e0             	mov    -0x20(%ebp),%edx
    4a48:	8d 0c 49             	lea    (%ecx,%ecx,2),%ecx
    4a4b:	c7 44 8a 08 00 00 00 	movl   $0x0,0x8(%edx,%ecx,4)
    4a52:	00 
    4a53:	0f 89 83 fe ff ff    	jns    48dc <socket_create+0xbc>
    4a59:	89 c6                	mov    %eax,%esi
    4a5b:	e9 69 fe ff ff       	jmp    48c9 <socket_create+0xa9>
    4a60:	8d 04 52             	lea    (%edx,%edx,2),%eax
    4a63:	c1 e0 03             	shl    $0x3,%eax
    4a66:	89 44 24 04          	mov    %eax,0x4(%esp)
    4a6a:	8b 43 08             	mov    0x8(%ebx),%eax
    4a6d:	89 04 24             	mov    %eax,(%esp)
    4a70:	e8 0b c7 00 00       	call   11180 <realloc>
    4a75:	89 45 e0             	mov    %eax,-0x20(%ebp)
    4a78:	85 c0                	test   %eax,%eax
    4a7a:	74 38                	je     4ab4 <socket_create+0x294>
    4a7c:	8b 13                	mov    (%ebx),%edx
    4a7e:	89 43 08             	mov    %eax,0x8(%ebx)
    4a81:	01 d2                	add    %edx,%edx
    4a83:	8b 43 04             	mov    0x4(%ebx),%eax
    4a86:	89 13                	mov    %edx,(%ebx)
    4a88:	8b 55 e0             	mov    -0x20(%ebp),%edx
    4a8b:	eb 9b                	jmp    4a28 <socket_create+0x208>
    4a8d:	8b 4d 14             	mov    0x14(%ebp),%ecx
    4a90:	be fd ff ff ff       	mov    $0xfffffffd,%esi
    4a95:	c7 01 fd ff ff ff    	movl   $0xfffffffd,(%ecx)
    4a9b:	e9 3c fe ff ff       	jmp    48dc <socket_create+0xbc>
    4aa0:	be fe ff ff ff       	mov    $0xfffffffe,%esi
    4aa5:	e9 32 fe ff ff       	jmp    48dc <socket_create+0xbc>
    4aaa:	be f2 ff ff ff       	mov    $0xfffffff2,%esi
    4aaf:	e9 28 fe ff ff       	jmp    48dc <socket_create+0xbc>
    4ab4:	be fe ff ff ff       	mov    $0xfffffffe,%esi
    4ab9:	e9 0b fe ff ff       	jmp    48c9 <socket_create+0xa9>
    4abe:	66 90                	xchg   %ax,%ax

00004ac0 <socket_port_find>:
    4ac0:	55                   	push   %ebp
    4ac1:	31 c0                	xor    %eax,%eax
    4ac3:	89 e5                	mov    %esp,%ebp
    4ac5:	53                   	push   %ebx
    4ac6:	83 ec 14             	sub    $0x14,%esp
    4ac9:	8b 55 08             	mov    0x8(%ebp),%edx
    4acc:	8b 5d 0c             	mov    0xc(%ebp),%ebx
    4acf:	85 d2                	test   %edx,%edx
    4ad1:	74 09                	je     4adc <socket_port_find+0x1c>
    4ad3:	81 7a 0c 44 33 22 11 	cmpl   $0x11223344,0xc(%edx)
    4ada:	74 0c                	je     4ae8 <socket_port_find+0x28>
    4adc:	83 c4 14             	add    $0x14,%esp
    4adf:	5b                   	pop    %ebx
    4ae0:	5d                   	pop    %ebp
    4ae1:	c3                   	ret    
    4ae2:	8d b6 00 00 00 00    	lea    0x0(%esi),%esi
    4ae8:	8b 4a 04             	mov    0x4(%edx),%ecx
    4aeb:	85 c9                	test   %ecx,%ecx
    4aed:	7e ed                	jle    4adc <socket_port_find+0x1c>
    4aef:	8b 42 08             	mov    0x8(%edx),%eax
    4af2:	31 d2                	xor    %edx,%edx
    4af4:	eb 0a                	jmp    4b00 <socket_port_find+0x40>
    4af6:	66 90                	xchg   %ax,%ax
    4af8:	42                   	inc    %edx
    4af9:	83 c0 0c             	add    $0xc,%eax
    4afc:	39 ca                	cmp    %ecx,%edx
    4afe:	74 4c                	je     4b4c <socket_port_find+0x8c>
    4b00:	85 c0                	test   %eax,%eax
    4b02:	74 f4                	je     4af8 <socket_port_find+0x38>
    4b04:	81 78 08 88 77 66 55 	cmpl   $0x55667788,0x8(%eax)
    4b0b:	75 eb                	jne    4af8 <socket_port_find+0x38>
    4b0d:	3b 18                	cmp    (%eax),%ebx
    4b0f:	75 e7                	jne    4af8 <socket_port_find+0x38>
    4b11:	8b 58 04             	mov    0x4(%eax),%ebx
    4b14:	85 db                	test   %ebx,%ebx
    4b16:	74 34                	je     4b4c <socket_port_find+0x8c>
    4b18:	8b 43 2c             	mov    0x2c(%ebx),%eax
    4b1b:	85 c0                	test   %eax,%eax
    4b1d:	7e 2d                	jle    4b4c <socket_port_find+0x8c>
    4b1f:	81 7b 28 22 56 34 12 	cmpl   $0x12345622,0x28(%ebx)
    4b26:	75 24                	jne    4b4c <socket_port_find+0x8c>
    4b28:	8b 45 14             	mov    0x14(%ebp),%eax
    4b2b:	89 1c 24             	mov    %ebx,(%esp)
    4b2e:	89 44 24 08          	mov    %eax,0x8(%esp)
    4b32:	8b 45 10             	mov    0x10(%ebp),%eax
    4b35:	89 44 24 04          	mov    %eax,0x4(%esp)
    4b39:	e8 82 33 01 00       	call   17ec0 <char_map_find>
    4b3e:	83 f8 ff             	cmp    $0xffffffff,%eax
    4b41:	74 09                	je     4b4c <socket_port_find+0x8c>
    4b43:	81 7b 24 88 77 66 55 	cmpl   $0x55667788,0x24(%ebx)
    4b4a:	74 0c                	je     4b58 <socket_port_find+0x98>
    4b4c:	83 c4 14             	add    $0x14,%esp
    4b4f:	31 c0                	xor    %eax,%eax
    4b51:	5b                   	pop    %ebx
    4b52:	5d                   	pop    %ebp
    4b53:	c3                   	ret    
    4b54:	8d 74 26 00          	lea    0x0(%esi,%eiz,1),%esi
    4b58:	85 c0                	test   %eax,%eax
    4b5a:	78 f0                	js     4b4c <socket_port_find+0x8c>
    4b5c:	3b 43 1c             	cmp    0x1c(%ebx),%eax
    4b5f:	7d eb                	jge    4b4c <socket_port_find+0x8c>
    4b61:	8b 53 20             	mov    0x20(%ebx),%edx
    4b64:	8b 04 82             	mov    (%edx,%eax,4),%eax
    4b67:	85 c0                	test   %eax,%eax
    4b69:	74 e1                	je     4b4c <socket_port_find+0x8c>
    4b6b:	8b 00                	mov    (%eax),%eax
    4b6d:	83 c4 14             	add    $0x14,%esp
    4b70:	5b                   	pop    %ebx
    4b71:	5d                   	pop    %ebp
    4b72:	c3                   	ret    
    4b73:	8d b6 00 00 00 00    	lea    0x0(%esi),%esi
    4b79:	8d bc 27 00 00 00 00 	lea    0x0(%edi,%eiz,1),%edi

00004b80 <socket_port_release>:
    4b80:	55                   	push   %ebp
    4b81:	89 e5                	mov    %esp,%ebp
