
uhci:     file format elf32-i386


Disassembly of section .init:

00001094 <__entry>:
    1094:	66 8c d0             	mov    %ss,%ax
    1097:	8e d8                	mov    %eax,%ds
    1099:	8e c0                	mov    %eax,%es
    109b:	8e e0                	mov    %eax,%fs
    109d:	b8 01 00 00 00       	mov    $0x1,%eax
    10a2:	0f a2                	cpuid  
    10a4:	0f ba e2 0b          	bt     $0xb,%edx
    10a8:	73 0c                	jae    10b6 <__entry+0x22>
    10aa:	8d 05 90 fc 02 00    	lea    0x2fc90,%eax
    10b0:	c7 00 57 70 02 00    	movl   $0x27057,(%eax)
    10b6:	6a 00                	push   $0x0
    10b8:	89 e5                	mov    %esp,%ebp
    10ba:	57                   	push   %edi
    10bb:	e8 60 b2 00 00       	call   c320 <__main>

Disassembly of section .text:

000010c0 <hc_schedule>:
    10c0:	55                   	push   %ebp
    10c1:	89 e5                	mov    %esp,%ebp
    10c3:	56                   	push   %esi
    10c4:	53                   	push   %ebx
    10c5:	83 ec 10             	sub    $0x10,%esp
    10c8:	8b 45 08             	mov    0x8(%ebp),%eax
    10cb:	8b 5d 0c             	mov    0xc(%ebp),%ebx
    10ce:	85 c0                	test   %eax,%eax
    10d0:	0f 84 a5 00 00 00    	je     117b <hc_schedule+0xbb>
    10d6:	8b b0 7c 06 00 00    	mov    0x67c(%eax),%esi
    10dc:	85 f6                	test   %esi,%esi
    10de:	74 7f                	je     115f <hc_schedule+0x9f>
    10e0:	85 db                	test   %ebx,%ebx
    10e2:	74 5f                	je     1143 <hc_schedule+0x83>
    10e4:	89 1c 24             	mov    %ebx,(%esp)
    10e7:	e8 04 26 00 00       	call   36f0 <uhci_transfer_batch_get>
    10ec:	85 c0                	test   %eax,%eax
    10ee:	74 30                	je     1120 <hc_schedule+0x60>
    10f0:	8b 13                	mov    (%ebx),%edx
    10f2:	8b 4a 14             	mov    0x14(%edx),%ecx
    10f5:	8b 52 10             	mov    0x10(%edx),%edx
    10f8:	8d 94 8a c4 01 00 00 	lea    0x1c4(%edx,%ecx,4),%edx
    10ff:	8b 54 96 04          	mov    0x4(%esi,%edx,4),%edx
    1103:	85 d2                	test   %edx,%edx
    1105:	0f 84 8c 00 00 00    	je     1197 <hc_schedule+0xd7>
    110b:	89 44 24 04          	mov    %eax,0x4(%esp)
    110f:	89 14 24             	mov    %edx,(%esp)
    1112:	e8 a9 12 00 00       	call   23c0 <transfer_list_add_batch>
    1117:	31 c0                	xor    %eax,%eax
    1119:	83 c4 10             	add    $0x10,%esp
    111c:	5b                   	pop    %ebx
    111d:	5e                   	pop    %esi
    111e:	5d                   	pop    %ebp
    111f:	c3                   	ret    
    1120:	c7 44 24 08 68 b5 02 	movl   $0x2b568,0x8(%esp)
    1127:	00 
    1128:	c7 44 24 04 01 00 00 	movl   $0x1,0x4(%esp)
    112f:	00 
    1130:	c7 04 24 ff ff ff ff 	movl   $0xffffffff,(%esp)
    1137:	e8 c4 63 01 00       	call   17500 <log_msg>
    113c:	b8 fe ff ff ff       	mov    $0xfffffffe,%eax
    1141:	eb d6                	jmp    1119 <hc_schedule+0x59>
    1143:	c7 44 24 08 9f 01 00 	movl   $0x19f,0x8(%esp)
    114a:	00 
    114b:	c7 44 24 04 cf cb 02 	movl   $0x2cbcf,0x4(%esp)
    1152:	00 
    1153:	c7 04 24 ea b8 02 00 	movl   $0x2b8ea,(%esp)
    115a:	e8 a1 5c 02 00       	call   26e00 <assert_abort>
    115f:	c7 44 24 08 9e 01 00 	movl   $0x19e,0x8(%esp)
    1166:	00 
    1167:	c7 44 24 04 cf cb 02 	movl   $0x2cbcf,0x4(%esp)
    116e:	00 
    116f:	c7 04 24 96 b4 02 00 	movl   $0x2b496,(%esp)
    1176:	e8 85 5c 02 00       	call   26e00 <assert_abort>
    117b:	c7 44 24 08 9c 01 00 	movl   $0x19c,0x8(%esp)
    1182:	00 
    1183:	c7 44 24 04 cf cb 02 	movl   $0x2cbcf,0x4(%esp)
    118a:	00 
    118b:	c7 04 24 92 b4 02 00 	movl   $0x2b492,(%esp)
    1192:	e8 69 5c 02 00       	call   26e00 <assert_abort>
    1197:	c7 44 24 08 a8 01 00 	movl   $0x1a8,0x8(%esp)
    119e:	00 
    119f:	c7 44 24 04 cf cb 02 	movl   $0x2cbcf,0x4(%esp)
    11a6:	00 
    11a7:	c7 04 24 9f b4 02 00 	movl   $0x2b49f,(%esp)
    11ae:	e8 4d 5c 02 00       	call   26e00 <assert_abort>
    11b3:	8d b6 00 00 00 00    	lea    0x0(%esi),%esi
    11b9:	8d bc 27 00 00 00 00 	lea    0x0(%edi,%eiz,1),%edi

000011c0 <hc_init_hw>:
    11c0:	55                   	push   %ebp
    11c1:	89 e5                	mov    %esp,%ebp
    11c3:	56                   	push   %esi
    11c4:	53                   	push   %ebx
    11c5:	89 c6                	mov    %eax,%esi
    11c7:	83 ec 20             	sub    $0x20,%esp
    11ca:	85 c0                	test   %eax,%eax
    11cc:	0f 84 19 01 00 00    	je     12eb <hc_init_hw+0x12b>
    11d2:	8b 98 8c 06 00 00    	mov    0x68c(%eax),%ebx
    11d8:	c7 44 24 04 04 00 00 	movl   $0x4,0x4(%esp)
    11df:	00 
    11e0:	89 1c 24             	mov    %ebx,(%esp)
    11e3:	e8 08 b5 00 00       	call   c6f0 <pio_write_16>
    11e8:	c7 04 24 50 c3 00 00 	movl   $0xc350,(%esp)
    11ef:	e8 6c d7 01 00       	call   1e960 <async_usleep>
    11f4:	c7 44 24 04 00 00 00 	movl   $0x0,0x4(%esp)
    11fb:	00 
    11fc:	89 1c 24             	mov    %ebx,(%esp)
    11ff:	e8 ec b4 00 00       	call   c6f0 <pio_write_16>
    1204:	c7 44 24 04 02 00 00 	movl   $0x2,0x4(%esp)
    120b:	00 
    120c:	89 1c 24             	mov    %ebx,(%esp)
    120f:	e8 dc b4 00 00       	call   c6f0 <pio_write_16>
    1214:	8d 74 26 00          	lea    0x0(%esi,%eiz,1),%esi
    1218:	c7 04 24 0a 00 00 00 	movl   $0xa,(%esp)
    121f:	e8 3c d7 01 00       	call   1e960 <async_usleep>
    1224:	89 1c 24             	mov    %ebx,(%esp)
    1227:	e8 a4 b5 00 00       	call   c7d0 <pio_read_16>
    122c:	a8 02                	test   $0x2,%al
    122e:	75 e8                	jne    1218 <hc_init_hw+0x58>
    1230:	8d 43 0c             	lea    0xc(%ebx),%eax
    1233:	c7 44 24 04 40 00 00 	movl   $0x40,0x4(%esp)
    123a:	00 
    123b:	89 04 24             	mov    %eax,(%esp)
    123e:	e8 5d b4 00 00       	call   c6a0 <pio_write_8>
    1243:	8b 86 90 06 00 00    	mov    0x690(%esi),%eax
    1249:	85 c0                	test   %eax,%eax
    124b:	74 1b                	je     1268 <hc_init_hw+0xa8>
    124d:	8d 55 f4             	lea    -0xc(%ebp),%edx
    1250:	89 04 24             	mov    %eax,(%esp)
    1253:	89 54 24 04          	mov    %edx,0x4(%esp)
    1257:	e8 d4 b7 00 00       	call   ca30 <as_get_physical_mapping>
    125c:	85 c0                	test   %eax,%eax
    125e:	75 08                	jne    1268 <hc_init_hw+0xa8>
    1260:	8b 45 f4             	mov    -0xc(%ebp),%eax
    1263:	eb 05                	jmp    126a <hc_init_hw+0xaa>
    1265:	8d 76 00             	lea    0x0(%esi),%esi
    1268:	31 c0                	xor    %eax,%eax
    126a:	89 44 24 04          	mov    %eax,0x4(%esp)
    126e:	8d 43 08             	lea    0x8(%ebx),%eax
    1271:	89 04 24             	mov    %eax,(%esp)
    1274:	e8 c7 b4 00 00       	call   c740 <pio_write_32>
    1279:	80 be 38 07 00 00 00 	cmpb   $0x0,0x738(%esi)
    1280:	75 4e                	jne    12d0 <hc_init_hw+0x110>
    1282:	89 1c 24             	mov    %ebx,(%esp)
    1285:	e8 46 b5 00 00       	call   c7d0 <pio_read_16>
    128a:	66 85 c0             	test   %ax,%ax
    128d:	74 25                	je     12b4 <hc_init_hw+0xf4>
    128f:	25 ff ff 00 00       	and    $0xffff,%eax
    1294:	c7 44 24 08 a4 b4 02 	movl   $0x2b4a4,0x8(%esp)
    129b:	00 
    129c:	89 44 24 0c          	mov    %eax,0xc(%esp)
    12a0:	c7 44 24 04 02 00 00 	movl   $0x2,0x4(%esp)
    12a7:	00 
    12a8:	c7 04 24 ff ff ff ff 	movl   $0xffffffff,(%esp)
    12af:	e8 4c 62 01 00       	call   17500 <log_msg>
    12b4:	89 1c 24             	mov    %ebx,(%esp)
    12b7:	c7 44 24 04 c1 00 00 	movl   $0xc1,0x4(%esp)
    12be:	00 
    12bf:	e8 2c b4 00 00       	call   c6f0 <pio_write_16>
    12c4:	83 c4 20             	add    $0x20,%esp
    12c7:	5b                   	pop    %ebx
    12c8:	5e                   	pop    %esi
    12c9:	5d                   	pop    %ebp
    12ca:	c3                   	ret    
    12cb:	90                   	nop
    12cc:	8d 74 26 00          	lea    0x0(%esi,%eiz,1),%esi
    12d0:	8b 86 8c 06 00 00    	mov    0x68c(%esi),%eax
    12d6:	c7 44 24 04 0d 00 00 	movl   $0xd,0x4(%esp)
    12dd:	00 
    12de:	83 c0 04             	add    $0x4,%eax
    12e1:	89 04 24             	mov    %eax,(%esp)
    12e4:	e8 07 b4 00 00       	call   c6f0 <pio_write_16>
    12e9:	eb 97                	jmp    1282 <hc_init_hw+0xc2>
    12eb:	c7 44 24 08 07 01 00 	movl   $0x107,0x8(%esp)
    12f2:	00 
    12f3:	c7 44 24 04 cf cb 02 	movl   $0x2cbcf,0x4(%esp)
    12fa:	00 
    12fb:	c7 04 24 96 b4 02 00 	movl   $0x2b496,(%esp)
    1302:	e8 f9 5a 02 00       	call   26e00 <assert_abort>
    1307:	89 f6                	mov    %esi,%esi
    1309:	8d bc 27 00 00 00 00 	lea    0x0(%edi,%eiz,1),%edi

00001310 <hc_irq_pio_range_count>:
    1310:	55                   	push   %ebp
    1311:	b8 01 00 00 00       	mov    $0x1,%eax
    1316:	89 e5                	mov    %esp,%ebp
    1318:	5d                   	pop    %ebp
    1319:	c3                   	ret    
    131a:	8d b6 00 00 00 00    	lea    0x0(%esi),%esi

00001320 <hc_irq_cmd_count>:
    1320:	55                   	push   %ebp
    1321:	b8 05 00 00 00       	mov    $0x5,%eax
    1326:	89 e5                	mov    %esp,%ebp
    1328:	5d                   	pop    %ebp
    1329:	c3                   	ret    
    132a:	8d b6 00 00 00 00    	lea    0x0(%esi),%esi

00001330 <hc_get_irq_code>:
    1330:	55                   	push   %ebp
    1331:	89 e5                	mov    %esp,%ebp
    1333:	57                   	push   %edi
    1334:	56                   	push   %esi
    1335:	53                   	push   %ebx
    1336:	83 ec 1c             	sub    $0x1c,%esp
    1339:	8b 7d 08             	mov    0x8(%ebp),%edi
    133c:	8b 5d 10             	mov    0x10(%ebp),%ebx
    133f:	8b 75 18             	mov    0x18(%ebp),%esi
    1342:	83 7d 14 63          	cmpl   $0x63,0x14(%ebp)
    1346:	76 58                	jbe    13a0 <hc_get_irq_code+0x70>
    1348:	83 7d 0c 07          	cmpl   $0x7,0xc(%ebp)
    134c:	76 52                	jbe    13a0 <hc_get_irq_code+0x70>
    134e:	83 7d 1c 0f          	cmpl   $0xf,0x1c(%ebp)
    1352:	76 4c                	jbe    13a0 <hc_get_irq_code+0x70>
    1354:	89 3c 24             	mov    %edi,(%esp)
    1357:	c7 44 24 08 08 00 00 	movl   $0x8,0x8(%esp)
    135e:	00 
    135f:	c7 44 24 04 e0 b6 02 	movl   $0x2b6e0,0x4(%esp)
    1366:	00 
    1367:	e8 74 de 00 00       	call   f1e0 <memcpy>
    136c:	89 37                	mov    %esi,(%edi)
    136e:	89 1c 24             	mov    %ebx,(%esp)
    1371:	83 c6 02             	add    $0x2,%esi
    1374:	c7 44 24 08 64 00 00 	movl   $0x64,0x8(%esp)
    137b:	00 
    137c:	c7 44 24 04 00 b7 02 	movl   $0x2b700,0x4(%esp)
    1383:	00 
    1384:	e8 57 de 00 00       	call   f1e0 <memcpy>
    1389:	89 73 04             	mov    %esi,0x4(%ebx)
    138c:	89 73 40             	mov    %esi,0x40(%ebx)
    138f:	83 c4 1c             	add    $0x1c,%esp
    1392:	31 c0                	xor    %eax,%eax
    1394:	5b                   	pop    %ebx
    1395:	5e                   	pop    %esi
    1396:	5f                   	pop    %edi
    1397:	5d                   	pop    %ebp
    1398:	c3                   	ret    
    1399:	8d b4 26 00 00 00 00 	lea    0x0(%esi,%eiz,1),%esi
    13a0:	83 c4 1c             	add    $0x1c,%esp
    13a3:	b8 f0 ff ff ff       	mov    $0xfffffff0,%eax
    13a8:	5b                   	pop    %ebx
    13a9:	5e                   	pop    %esi
    13aa:	5f                   	pop    %edi
    13ab:	5d                   	pop    %ebp
    13ac:	c3                   	ret    
    13ad:	8d 76 00             	lea    0x0(%esi),%esi

000013b0 <hc_interrupt>:
    13b0:	55                   	push   %ebp
    13b1:	89 e5                	mov    %esp,%ebp
    13b3:	57                   	push   %edi
    13b4:	56                   	push   %esi
    13b5:	53                   	push   %ebx
    13b6:	83 ec 2c             	sub    $0x2c,%esp
    13b9:	8b 5d 08             	mov    0x8(%ebp),%ebx
    13bc:	8b 7d 0c             	mov    0xc(%ebp),%edi
    13bf:	85 db                	test   %ebx,%ebx
    13c1:	0f 84 90 01 00 00    	je     1557 <hc_interrupt+0x1a7>
    13c7:	f7 c7 03 00 00 00    	test   $0x3,%edi
    13cd:	0f 85 b5 00 00 00    	jne    1488 <hc_interrupt+0xd8>
    13d3:	f7 c7 04 00 00 00    	test   $0x4,%edi
    13d9:	0f 85 48 01 00 00    	jne    1527 <hc_interrupt+0x177>
    13df:	83 e7 18             	and    $0x18,%edi
    13e2:	75 0c                	jne    13f0 <hc_interrupt+0x40>
    13e4:	83 c4 2c             	add    $0x2c,%esp
    13e7:	5b                   	pop    %ebx
    13e8:	5e                   	pop    %esi
    13e9:	5f                   	pop    %edi
    13ea:	5d                   	pop    %ebp
    13eb:	c3                   	ret    
    13ec:	8d 74 26 00          	lea    0x0(%esi,%eiz,1),%esi
    13f0:	c7 44 24 08 d4 b4 02 	movl   $0x2b4d4,0x8(%esp)
    13f7:	00 
    13f8:	c7 44 24 04 01 00 00 	movl   $0x1,0x4(%esp)
    13ff:	00 
    1400:	c7 04 24 ff ff ff ff 	movl   $0xffffffff,(%esp)
    1407:	e8 f4 60 01 00       	call   17500 <log_msg>
    140c:	8b 83 3c 07 00 00    	mov    0x73c(%ebx),%eax
    1412:	40                   	inc    %eax
    1413:	89 83 3c 07 00 00    	mov    %eax,0x73c(%ebx)
    1419:	8d 83 94 06 00 00    	lea    0x694(%ebx),%eax
    141f:	89 04 24             	mov    %eax,(%esp)
    1422:	e8 79 12 00 00       	call   26a0 <transfer_list_abort_all>
    1427:	8d 83 b4 06 00 00    	lea    0x6b4(%ebx),%eax
    142d:	89 04 24             	mov    %eax,(%esp)
    1430:	e8 6b 12 00 00       	call   26a0 <transfer_list_abort_all>
    1435:	8d 83 f4 06 00 00    	lea    0x6f4(%ebx),%eax
    143b:	89 04 24             	mov    %eax,(%esp)
    143e:	e8 5d 12 00 00       	call   26a0 <transfer_list_abort_all>
    1443:	8d 83 d4 06 00 00    	lea    0x6d4(%ebx),%eax
    1449:	89 04 24             	mov    %eax,(%esp)
    144c:	e8 4f 12 00 00       	call   26a0 <transfer_list_abort_all>
    1451:	83 bb 3c 07 00 00 04 	cmpl   $0x4,0x73c(%ebx)
    1458:	0f 86 ea 00 00 00    	jbe    1548 <hc_interrupt+0x198>
    145e:	c7 44 24 08 94 b5 02 	movl   $0x2b594,0x8(%esp)
    1465:	00 
    1466:	c7 44 24 04 00 00 00 	movl   $0x0,0x4(%esp)
    146d:	00 
    146e:	c7 04 24 ff ff ff ff 	movl   $0xffffffff,(%esp)
    1475:	e8 86 60 01 00       	call   17500 <log_msg>
    147a:	83 c4 2c             	add    $0x2c,%esp
    147d:	5b                   	pop    %ebx
    147e:	5e                   	pop    %esi
    147f:	5f                   	pop    %edi
    1480:	5d                   	pop    %ebp
    1481:	c3                   	ret    
    1482:	8d b6 00 00 00 00    	lea    0x0(%esi),%esi
    1488:	8d 75 e0             	lea    -0x20(%ebp),%esi
    148b:	8d 83 94 06 00 00    	lea    0x694(%ebx),%eax
    1491:	89 04 24             	mov    %eax,(%esp)
    1494:	89 74 24 04          	mov    %esi,0x4(%esp)
    1498:	89 75 e0             	mov    %esi,-0x20(%ebp)
    149b:	89 75 e4             	mov    %esi,-0x1c(%ebp)
    149e:	e8 1d 11 00 00       	call   25c0 <transfer_list_remove_finished>
    14a3:	8d 83 b4 06 00 00    	lea    0x6b4(%ebx),%eax
    14a9:	89 04 24             	mov    %eax,(%esp)
    14ac:	89 74 24 04          	mov    %esi,0x4(%esp)
    14b0:	e8 0b 11 00 00       	call   25c0 <transfer_list_remove_finished>
    14b5:	8d 83 f4 06 00 00    	lea    0x6f4(%ebx),%eax
    14bb:	89 04 24             	mov    %eax,(%esp)
    14be:	89 74 24 04          	mov    %esi,0x4(%esp)
    14c2:	e8 f9 10 00 00       	call   25c0 <transfer_list_remove_finished>
    14c7:	8d 83 d4 06 00 00    	lea    0x6d4(%ebx),%eax
    14cd:	89 04 24             	mov    %eax,(%esp)
    14d0:	89 74 24 04          	mov    %esi,0x4(%esp)
    14d4:	e8 e7 10 00 00       	call   25c0 <transfer_list_remove_finished>
    14d9:	8b 45 e4             	mov    -0x1c(%ebp),%eax
    14dc:	39 f0                	cmp    %esi,%eax
    14de:	0f 84 ef fe ff ff    	je     13d3 <hc_interrupt+0x23>
    14e4:	8d 74 26 00          	lea    0x0(%esi,%eiz,1),%esi
    14e8:	8b 08                	mov    (%eax),%ecx
    14ea:	85 c9                	test   %ecx,%ecx
    14ec:	74 0e                	je     14fc <hc_interrupt+0x14c>
    14ee:	8b 50 04             	mov    0x4(%eax),%edx
    14f1:	85 d2                	test   %edx,%edx
    14f3:	74 07                	je     14fc <hc_interrupt+0x14c>
    14f5:	89 0a                	mov    %ecx,(%edx)
    14f7:	8b 08                	mov    (%eax),%ecx
    14f9:	89 51 04             	mov    %edx,0x4(%ecx)
    14fc:	c7 00 00 00 00 00    	movl   $0x0,(%eax)
    1502:	c7 40 04 00 00 00 00 	movl   $0x0,0x4(%eax)
    1509:	83 e8 14             	sub    $0x14,%eax
    150c:	89 04 24             	mov    %eax,(%esp)
    150f:	e8 1c 21 00 00       	call   3630 <uhci_transfer_batch_finish_dispose>
    1514:	8b 45 e4             	mov    -0x1c(%ebp),%eax
    1517:	39 f0                	cmp    %esi,%eax
    1519:	75 cd                	jne    14e8 <hc_interrupt+0x138>
    151b:	f7 c7 04 00 00 00    	test   $0x4,%edi
    1521:	0f 84 b8 fe ff ff    	je     13df <hc_interrupt+0x2f>
    1527:	c7 44 24 08 c1 b4 02 	movl   $0x2b4c1,0x8(%esp)
    152e:	00 
    152f:	c7 44 24 04 01 00 00 	movl   $0x1,0x4(%esp)
    1536:	00 
    1537:	c7 04 24 ff ff ff ff 	movl   $0xffffffff,(%esp)
    153e:	e8 bd 5f 01 00       	call   17500 <log_msg>
    1543:	e9 97 fe ff ff       	jmp    13df <hc_interrupt+0x2f>
    1548:	89 d8                	mov    %ebx,%eax
    154a:	e8 71 fc ff ff       	call   11c0 <hc_init_hw>
    154f:	83 c4 2c             	add    $0x2c,%esp
    1552:	5b                   	pop    %ebx
    1553:	5e                   	pop    %esi
    1554:	5f                   	pop    %edi
    1555:	5d                   	pop    %ebp
    1556:	c3                   	ret    
    1557:	c7 44 24 08 97 00 00 	movl   $0x97,0x8(%esp)
    155e:	00 
    155f:	c7 44 24 04 cf cb 02 	movl   $0x2cbcf,0x4(%esp)
    1566:	00 
    1567:	c7 04 24 96 b4 02 00 	movl   $0x2b496,(%esp)
    156e:	e8 8d 58 02 00       	call   26e00 <assert_abort>
    1573:	8d b6 00 00 00 00    	lea    0x0(%esi),%esi
    1579:	8d bc 27 00 00 00 00 	lea    0x0(%edi,%eiz,1),%edi

00001580 <hc_interrupt_emulator>:
    1580:	55                   	push   %ebp
    1581:	89 e5                	mov    %esp,%ebp
    1583:	57                   	push   %edi
    1584:	56                   	push   %esi
    1585:	53                   	push   %ebx
    1586:	83 ec 1c             	sub    $0x1c,%esp
    1589:	8b 75 08             	mov    0x8(%ebp),%esi
    158c:	c7 44 24 08 ed b4 02 	movl   $0x2b4ed,0x8(%esp)
    1593:	00 
    1594:	c7 44 24 04 04 00 00 	movl   $0x4,0x4(%esp)
    159b:	00 
    159c:	c7 04 24 ff ff ff ff 	movl   $0xffffffff,(%esp)
    15a3:	e8 58 5f 01 00       	call   17500 <log_msg>
    15a8:	85 f6                	test   %esi,%esi
    15aa:	75 1c                	jne    15c8 <hc_interrupt_emulator+0x48>
    15ac:	eb 71                	jmp    161f <hc_interrupt_emulator+0x9f>
    15ae:	66 90                	xchg   %ax,%ax
    15b0:	89 5c 24 04          	mov    %ebx,0x4(%esp)
    15b4:	89 34 24             	mov    %esi,(%esp)
    15b7:	e8 f4 fd ff ff       	call   13b0 <hc_interrupt>
    15bc:	c7 04 24 10 27 00 00 	movl   $0x2710,(%esp)
    15c3:	e8 98 d3 01 00       	call   1e960 <async_usleep>
    15c8:	8b 86 8c 06 00 00    	mov    0x68c(%esi),%eax
    15ce:	83 c0 02             	add    $0x2,%eax
    15d1:	89 04 24             	mov    %eax,(%esp)
    15d4:	e8 f7 b1 00 00       	call   c7d0 <pio_read_16>
    15d9:	89 c3                	mov    %eax,%ebx
    15db:	89 c7                	mov    %eax,%edi
    15dd:	81 e3 ff ff 00 00    	and    $0xffff,%ebx
    15e3:	89 5c 24 04          	mov    %ebx,0x4(%esp)
    15e7:	8b 86 8c 06 00 00    	mov    0x68c(%esi),%eax
    15ed:	83 c0 02             	add    $0x2,%eax
    15f0:	89 04 24             	mov    %eax,(%esp)
    15f3:	e8 f8 b0 00 00       	call   c6f0 <pio_write_16>
    15f8:	66 85 ff             	test   %di,%di
    15fb:	74 b3                	je     15b0 <hc_interrupt_emulator+0x30>
    15fd:	89 5c 24 0c          	mov    %ebx,0xc(%esp)
    1601:	c7 44 24 08 0a b5 02 	movl   $0x2b50a,0x8(%esp)
    1608:	00 
    1609:	c7 44 24 04 05 00 00 	movl   $0x5,0x4(%esp)
    1610:	00 
    1611:	c7 04 24 ff ff ff ff 	movl   $0xffffffff,(%esp)
    1618:	e8 e3 5e 01 00       	call   17500 <log_msg>
    161d:	eb 91                	jmp    15b0 <hc_interrupt_emulator+0x30>
    161f:	c7 44 24 08 b7 01 00 	movl   $0x1b7,0x8(%esp)
    1626:	00 
    1627:	c7 44 24 04 cf cb 02 	movl   $0x2cbcf,0x4(%esp)
    162e:	00 
    162f:	c7 04 24 96 b4 02 00 	movl   $0x2b496,(%esp)
    1636:	e8 c5 57 02 00       	call   26e00 <assert_abort>
    163b:	90                   	nop
    163c:	8d 74 26 00          	lea    0x0(%esi,%eiz,1),%esi

00001640 <hc_init>:
    1640:	55                   	push   %ebp
    1641:	89 e5                	mov    %esp,%ebp
    1643:	57                   	push   %edi
    1644:	56                   	push   %esi
    1645:	53                   	push   %ebx
    1646:	83 ec 4c             	sub    $0x4c,%esp
    1649:	8b 7d 10             	mov    0x10(%ebp),%edi
    164c:	8b 45 14             	mov    0x14(%ebp),%eax
    164f:	8b 5d 08             	mov    0x8(%ebp),%ebx
    1652:	88 45 d7             	mov    %al,-0x29(%ebp)
    1655:	83 ff 0f             	cmp    $0xf,%edi
    1658:	0f 86 8f 04 00 00    	jbe    1aed <hc_init+0x4ad>
    165e:	88 83 38 07 00 00    	mov    %al,0x738(%ebx)
    1664:	8d 45 d8             	lea    -0x28(%ebp),%eax
    1667:	c7 83 3c 07 00 00 00 	movl   $0x0,0x73c(%ebx)
    166e:	00 00 00 
    1671:	89 44 24 08          	mov    %eax,0x8(%esp)
    1675:	8b 45 0c             	mov    0xc(%ebp),%eax
    1678:	89 7c 24 04          	mov    %edi,0x4(%esp)
    167c:	89 04 24             	mov    %eax,(%esp)
    167f:	e8 2c af 00 00       	call   c5b0 <pio_enable>
    1684:	89 c6                	mov    %eax,%esi
    1686:	85 c0                	test   %eax,%eax
    1688:	0f 85 16 03 00 00    	jne    19a4 <hc_init+0x364>
    168e:	8b 45 d8             	mov    -0x28(%ebp),%eax
    1691:	89 83 8c 06 00 00    	mov    %eax,0x68c(%ebx)
    1697:	89 44 24 0c          	mov    %eax,0xc(%esp)
    169b:	89 7c 24 10          	mov    %edi,0x10(%esp)
    169f:	c7 44 24 08 08 b6 02 	movl   $0x2b608,0x8(%esp)
    16a6:	00 
    16a7:	c7 44 24 04 04 00 00 	movl   $0x4,0x4(%esp)
    16ae:	00 
    16af:	c7 04 24 ff ff ff ff 	movl   $0xffffffff,(%esp)
    16b6:	e8 45 5e 01 00       	call   17500 <log_msg>
    16bb:	8d 45 dc             	lea    -0x24(%ebp),%eax
    16be:	89 44 24 10          	mov    %eax,0x10(%esp)
    16c2:	8d 45 e0             	lea    -0x20(%ebp),%eax
    16c5:	89 44 24 0c          	mov    %eax,0xc(%esp)
    16c9:	c7 44 24 08 00 00 00 	movl   $0x0,0x8(%esp)
    16d0:	00 
    16d1:	c7 44 24 04 03 00 00 	movl   $0x3,0x4(%esp)
    16d8:	00 
    16d9:	c7 04 24 00 10 00 00 	movl   $0x1000,(%esp)
    16e0:	e8 db ad 00 00       	call   c4c0 <dmamem_map_anonymous>
    16e5:	85 c0                	test   %eax,%eax
    16e7:	0f 85 89 03 00 00    	jne    1a76 <hc_init+0x436>
    16ed:	8b 45 dc             	mov    -0x24(%ebp),%eax
    16f0:	89 83 90 06 00 00    	mov    %eax,0x690(%ebx)
    16f6:	85 c0                	test   %eax,%eax
    16f8:	0f 84 70 02 00 00    	je     196e <hc_init+0x32e>
    16fe:	89 44 24 0c          	mov    %eax,0xc(%esp)
    1702:	c7 44 24 08 34 b6 02 	movl   $0x2b634,0x8(%esp)
    1709:	00 
    170a:	c7 44 24 04 04 00 00 	movl   $0x4,0x4(%esp)
    1711:	00 
    1712:	c7 04 24 ff ff ff ff 	movl   $0xffffffff,(%esp)
    1719:	8d bb d4 06 00 00    	lea    0x6d4(%ebx),%edi
    171f:	e8 dc 5d 01 00       	call   17500 <log_msg>
    1724:	c7 44 24 04 1c b5 02 	movl   $0x2b51c,0x4(%esp)
    172b:	00 
    172c:	89 3c 24             	mov    %edi,(%esp)
    172f:	e8 9c 0a 00 00       	call   21d0 <transfer_list_init>
    1734:	85 c0                	test   %eax,%eax
    1736:	0f 85 a6 01 00 00    	jne    18e2 <hc_init+0x2a2>
    173c:	8d 83 f4 06 00 00    	lea    0x6f4(%ebx),%eax
    1742:	c7 44 24 04 26 b5 02 	movl   $0x2b526,0x4(%esp)
    1749:	00 
    174a:	89 04 24             	mov    %eax,(%esp)
    174d:	89 45 d0             	mov    %eax,-0x30(%ebp)
    1750:	e8 7b 0a 00 00       	call   21d0 <transfer_list_init>
    1755:	85 c0                	test   %eax,%eax
    1757:	0f 85 cb 02 00 00    	jne    1a28 <hc_init+0x3e8>
    175d:	8d 83 b4 06 00 00    	lea    0x6b4(%ebx),%eax
    1763:	c7 44 24 04 33 b5 02 	movl   $0x2b533,0x4(%esp)
    176a:	00 
    176b:	89 04 24             	mov    %eax,(%esp)
    176e:	89 45 cc             	mov    %eax,-0x34(%ebp)
    1771:	e8 5a 0a 00 00       	call   21d0 <transfer_list_init>
    1776:	85 c0                	test   %eax,%eax
    1778:	0f 85 5f 02 00 00    	jne    19dd <hc_init+0x39d>
    177e:	8d 83 94 06 00 00    	lea    0x694(%ebx),%eax
    1784:	c7 44 24 04 3f b5 02 	movl   $0x2b53f,0x4(%esp)
    178b:	00 
    178c:	89 04 24             	mov    %eax,(%esp)
    178f:	89 45 c8             	mov    %eax,-0x38(%ebp)
    1792:	e8 39 0a 00 00       	call   21d0 <transfer_list_init>
    1797:	85 c0                	test   %eax,%eax
    1799:	0f 85 e6 02 00 00    	jne    1a85 <hc_init+0x445>
    179f:	8b 45 d0             	mov    -0x30(%ebp),%eax
    17a2:	89 7c 24 04          	mov    %edi,0x4(%esp)
    17a6:	89 04 24             	mov    %eax,(%esp)
    17a9:	e8 62 0b 00 00       	call   2310 <transfer_list_set_next>
    17ae:	8b 45 d0             	mov    -0x30(%ebp),%eax
    17b1:	89 44 24 04          	mov    %eax,0x4(%esp)
    17b5:	8b 45 cc             	mov    -0x34(%ebp),%eax
    17b8:	89 04 24             	mov    %eax,(%esp)
    17bb:	e8 50 0b 00 00       	call   2310 <transfer_list_set_next>
    17c0:	8b 45 cc             	mov    -0x34(%ebp),%eax
    17c3:	89 44 24 04          	mov    %eax,0x4(%esp)
    17c7:	8b 45 c8             	mov    -0x38(%ebp),%eax
    17ca:	89 04 24             	mov    %eax,(%esp)
    17cd:	e8 3e 0b 00 00       	call   2310 <transfer_list_set_next>
    17d2:	8b 45 c8             	mov    -0x38(%ebp),%eax
    17d5:	89 83 30 07 00 00    	mov    %eax,0x730(%ebx)
    17db:	89 83 20 07 00 00    	mov    %eax,0x720(%ebx)
    17e1:	8b 45 d0             	mov    -0x30(%ebp),%eax
    17e4:	89 bb 2c 07 00 00    	mov    %edi,0x72c(%ebx)
    17ea:	89 83 24 07 00 00    	mov    %eax,0x724(%ebx)
    17f0:	8b 45 cc             	mov    -0x34(%ebp),%eax
    17f3:	89 83 14 07 00 00    	mov    %eax,0x714(%ebx)
    17f9:	c7 44 24 08 49 b5 02 	movl   $0x2b549,0x8(%esp)
    1800:	00 
    1801:	c7 44 24 04 04 00 00 	movl   $0x4,0x4(%esp)
    1808:	00 
    1809:	c7 04 24 ff ff ff ff 	movl   $0xffffffff,(%esp)
    1810:	e8 eb 5c 01 00       	call   17500 <log_msg>
    1815:	8b 93 a4 06 00 00    	mov    0x6a4(%ebx),%edx
    181b:	85 d2                	test   %edx,%edx
    181d:	0f 84 c0 02 00 00    	je     1ae3 <hc_init+0x4a3>
    1823:	8d 45 e4             	lea    -0x1c(%ebp),%eax
    1826:	89 14 24             	mov    %edx,(%esp)
    1829:	89 44 24 04          	mov    %eax,0x4(%esp)
    182d:	e8 fe b1 00 00       	call   ca30 <as_get_physical_mapping>
    1832:	ba 02 00 00 00       	mov    $0x2,%edx
    1837:	85 c0                	test   %eax,%eax
    1839:	75 09                	jne    1844 <hc_init+0x204>
    183b:	8b 55 e4             	mov    -0x1c(%ebp),%edx
    183e:	83 e2 f0             	and    $0xfffffff0,%edx
    1841:	83 ca 02             	or     $0x2,%edx
    1844:	8b 8b 90 06 00 00    	mov    0x690(%ebx),%ecx
    184a:	31 c0                	xor    %eax,%eax
    184c:	8d 74 26 00          	lea    0x0(%esi,%eiz,1),%esi
    1850:	89 14 81             	mov    %edx,(%ecx,%eax,4)
    1853:	40                   	inc    %eax
    1854:	3d 00 04 00 00       	cmp    $0x400,%eax
    1859:	75 f5                	jne    1850 <hc_init+0x210>
    185b:	c7 44 24 04 01 00 00 	movl   $0x1,0x4(%esp)
    1862:	00 
    1863:	89 1c 24             	mov    %ebx,(%esp)
    1866:	e8 45 39 00 00       	call   51b0 <usb_device_manager_init>
    186b:	8d 83 24 06 00 00    	lea    0x624(%ebx),%eax
    1871:	c7 44 24 08 10 58 00 	movl   $0x5810,0x8(%esp)
    1878:	00 
    1879:	c7 44 24 04 70 99 14 	movl   $0x149970,0x4(%esp)
    1880:	00 
    1881:	89 04 24             	mov    %eax,(%esp)
    1884:	e8 37 40 00 00       	call   58c0 <usb_endpoint_manager_init>
    1889:	c7 83 84 06 00 00 00 	movl   $0x0,0x684(%ebx)
    1890:	00 00 00 
    1893:	c7 83 88 06 00 00 00 	movl   $0x0,0x688(%ebx)
    189a:	00 00 00 
    189d:	89 9b 7c 06 00 00    	mov    %ebx,0x67c(%ebx)
    18a3:	c7 83 80 06 00 00 c0 	movl   $0x10c0,0x680(%ebx)
    18aa:	10 00 00 
    18ad:	89 d8                	mov    %ebx,%eax
    18af:	e8 0c f9 ff ff       	call   11c0 <hc_init_hw>
    18b4:	80 7d d7 00          	cmpb   $0x0,-0x29(%ebp)
    18b8:	75 1e                	jne    18d8 <hc_init+0x298>
    18ba:	89 5c 24 04          	mov    %ebx,0x4(%esp)
    18be:	c7 04 24 80 15 00 00 	movl   $0x1580,(%esp)
    18c5:	e8 16 15 01 00       	call   12de0 <fibril_create>
    18ca:	89 83 34 07 00 00    	mov    %eax,0x734(%ebx)
    18d0:	89 04 24             	mov    %eax,(%esp)
    18d3:	e8 48 16 01 00       	call   12f20 <fibril_add_ready>
    18d8:	83 c4 4c             	add    $0x4c,%esp
    18db:	89 f0                	mov    %esi,%eax
    18dd:	5b                   	pop    %ebx
    18de:	5e                   	pop    %esi
    18df:	5f                   	pop    %edi
    18e0:	5d                   	pop    %ebp
    18e1:	c3                   	ret    
    18e2:	89 04 24             	mov    %eax,(%esp)
    18e5:	e8 e6 0f 01 00       	call   128d0 <str_error>
    18ea:	c7 44 24 0c 1c b5 02 	movl   $0x2b51c,0xc(%esp)
    18f1:	00 
    18f2:	89 44 24 10          	mov    %eax,0x10(%esp)
    18f6:	c7 44 24 08 54 b6 02 	movl   $0x2b654,0x8(%esp)
    18fd:	00 
    18fe:	c7 44 24 04 01 00 00 	movl   $0x1,0x4(%esp)
    1905:	00 
    1906:	c7 04 24 ff ff ff ff 	movl   $0xffffffff,(%esp)
    190d:	e8 ee 5b 01 00       	call   17500 <log_msg>
    1912:	89 3c 24             	mov    %edi,(%esp)
    1915:	e8 b6 09 00 00       	call   22d0 <transfer_list_fini>
    191a:	8d 83 f4 06 00 00    	lea    0x6f4(%ebx),%eax
    1920:	89 04 24             	mov    %eax,(%esp)
    1923:	e8 a8 09 00 00       	call   22d0 <transfer_list_fini>
    1928:	8d 83 b4 06 00 00    	lea    0x6b4(%ebx),%eax
    192e:	89 04 24             	mov    %eax,(%esp)
    1931:	e8 9a 09 00 00       	call   22d0 <transfer_list_fini>
    1936:	8d 83 94 06 00 00    	lea    0x694(%ebx),%eax
    193c:	89 04 24             	mov    %eax,(%esp)
    193f:	e8 8c 09 00 00       	call   22d0 <transfer_list_fini>
    1944:	c7 44 24 08 7c b6 02 	movl   $0x2b67c,0x8(%esp)
    194b:	00 
    194c:	c7 44 24 04 01 00 00 	movl   $0x1,0x4(%esp)
    1953:	00 
    1954:	c7 04 24 ff ff ff ff 	movl   $0xffffffff,(%esp)
    195b:	e8 a0 5b 01 00       	call   17500 <log_msg>
    1960:	8b 83 90 06 00 00    	mov    0x690(%ebx),%eax
    1966:	89 04 24             	mov    %eax,(%esp)
    1969:	e8 f2 ab 00 00       	call   c560 <dmamem_unmap_anonymous>
    196e:	c7 04 24 fe ff ff ff 	movl   $0xfffffffe,(%esp)
    1975:	be fe ff ff ff       	mov    $0xfffffffe,%esi
    197a:	e8 51 0f 01 00       	call   128d0 <str_error>
    197f:	c7 44 24 08 a4 b6 02 	movl   $0x2b6a4,0x8(%esp)
    1986:	00 
    1987:	89 44 24 0c          	mov    %eax,0xc(%esp)
    198b:	c7 44 24 04 01 00 00 	movl   $0x1,0x4(%esp)
    1992:	00 
    1993:	c7 04 24 ff ff ff ff 	movl   $0xffffffff,(%esp)
    199a:	e8 61 5b 01 00       	call   17500 <log_msg>
    199f:	e9 34 ff ff ff       	jmp    18d8 <hc_init+0x298>
    19a4:	89 04 24             	mov    %eax,(%esp)
    19a7:	e8 24 0f 01 00       	call   128d0 <str_error>
    19ac:	c7 44 24 08 d8 b5 02 	movl   $0x2b5d8,0x8(%esp)
    19b3:	00 
    19b4:	89 44 24 10          	mov    %eax,0x10(%esp)
    19b8:	8b 45 d8             	mov    -0x28(%ebp),%eax
    19bb:	89 44 24 0c          	mov    %eax,0xc(%esp)
    19bf:	c7 44 24 04 01 00 00 	movl   $0x1,0x4(%esp)
    19c6:	00 
    19c7:	c7 04 24 ff ff ff ff 	movl   $0xffffffff,(%esp)
    19ce:	e8 2d 5b 01 00       	call   17500 <log_msg>
    19d3:	83 c4 4c             	add    $0x4c,%esp
    19d6:	89 f0                	mov    %esi,%eax
    19d8:	5b                   	pop    %ebx
    19d9:	5e                   	pop    %esi
    19da:	5f                   	pop    %edi
    19db:	5d                   	pop    %ebp
    19dc:	c3                   	ret    
    19dd:	89 04 24             	mov    %eax,(%esp)
    19e0:	e8 eb 0e 01 00       	call   128d0 <str_error>
    19e5:	c7 44 24 0c 33 b5 02 	movl   $0x2b533,0xc(%esp)
    19ec:	00 
    19ed:	89 44 24 10          	mov    %eax,0x10(%esp)
    19f1:	c7 44 24 08 54 b6 02 	movl   $0x2b654,0x8(%esp)
    19f8:	00 
    19f9:	c7 44 24 04 01 00 00 	movl   $0x1,0x4(%esp)
    1a00:	00 
    1a01:	c7 04 24 ff ff ff ff 	movl   $0xffffffff,(%esp)
    1a08:	e8 f3 5a 01 00       	call   17500 <log_msg>
    1a0d:	89 3c 24             	mov    %edi,(%esp)
    1a10:	e8 bb 08 00 00       	call   22d0 <transfer_list_fini>
    1a15:	8b 45 d0             	mov    -0x30(%ebp),%eax
    1a18:	89 04 24             	mov    %eax,(%esp)
    1a1b:	e8 b0 08 00 00       	call   22d0 <transfer_list_fini>
    1a20:	8b 45 cc             	mov    -0x34(%ebp),%eax
    1a23:	e9 06 ff ff ff       	jmp    192e <hc_init+0x2ee>
    1a28:	89 04 24             	mov    %eax,(%esp)
    1a2b:	e8 a0 0e 01 00       	call   128d0 <str_error>
    1a30:	c7 44 24 0c 26 b5 02 	movl   $0x2b526,0xc(%esp)
    1a37:	00 
    1a38:	89 44 24 10          	mov    %eax,0x10(%esp)
    1a3c:	c7 44 24 08 54 b6 02 	movl   $0x2b654,0x8(%esp)
    1a43:	00 
    1a44:	c7 44 24 04 01 00 00 	movl   $0x1,0x4(%esp)
    1a4b:	00 
    1a4c:	c7 04 24 ff ff ff ff 	movl   $0xffffffff,(%esp)
    1a53:	e8 a8 5a 01 00       	call   17500 <log_msg>
    1a58:	89 3c 24             	mov    %edi,(%esp)
    1a5b:	e8 70 08 00 00       	call   22d0 <transfer_list_fini>
    1a60:	8b 45 d0             	mov    -0x30(%ebp),%eax
    1a63:	89 04 24             	mov    %eax,(%esp)
    1a66:	e8 65 08 00 00       	call   22d0 <transfer_list_fini>
    1a6b:	8d 83 b4 06 00 00    	lea    0x6b4(%ebx),%eax
    1a71:	e9 b8 fe ff ff       	jmp    192e <hc_init+0x2ee>
    1a76:	c7 83 90 06 00 00 00 	movl   $0x0,0x690(%ebx)
    1a7d:	00 00 00 
    1a80:	e9 e9 fe ff ff       	jmp    196e <hc_init+0x32e>
    1a85:	89 04 24             	mov    %eax,(%esp)
    1a88:	e8 43 0e 01 00       	call   128d0 <str_error>
    1a8d:	c7 44 24 0c 3f b5 02 	movl   $0x2b53f,0xc(%esp)
    1a94:	00 
    1a95:	89 44 24 10          	mov    %eax,0x10(%esp)
    1a99:	c7 44 24 08 54 b6 02 	movl   $0x2b654,0x8(%esp)
    1aa0:	00 
    1aa1:	c7 44 24 04 01 00 00 	movl   $0x1,0x4(%esp)
    1aa8:	00 
    1aa9:	c7 04 24 ff ff ff ff 	movl   $0xffffffff,(%esp)
    1ab0:	e8 4b 5a 01 00       	call   17500 <log_msg>
    1ab5:	89 3c 24             	mov    %edi,(%esp)
    1ab8:	e8 13 08 00 00       	call   22d0 <transfer_list_fini>
    1abd:	8b 45 d0             	mov    -0x30(%ebp),%eax
    1ac0:	89 04 24             	mov    %eax,(%esp)
    1ac3:	e8 08 08 00 00       	call   22d0 <transfer_list_fini>
    1ac8:	8b 45 cc             	mov    -0x34(%ebp),%eax
    1acb:	89 04 24             	mov    %eax,(%esp)
    1ace:	e8 fd 07 00 00       	call   22d0 <transfer_list_fini>
    1ad3:	8b 45 c8             	mov    -0x38(%ebp),%eax
    1ad6:	89 04 24             	mov    %eax,(%esp)
    1ad9:	e8 f2 07 00 00       	call   22d0 <transfer_list_fini>
    1ade:	e9 61 fe ff ff       	jmp    1944 <hc_init+0x304>
    1ae3:	ba 02 00 00 00       	mov    $0x2,%edx
    1ae8:	e9 57 fd ff ff       	jmp    1844 <hc_init+0x204>
    1aed:	c7 44 24 08 d2 00 00 	movl   $0xd2,0x8(%esp)
    1af4:	00 
    1af5:	c7 44 24 04 cf cb 02 	movl   $0x2cbcf,0x4(%esp)
    1afc:	00 
    1afd:	c7 04 24 b8 b5 02 00 	movl   $0x2b5b8,(%esp)
    1b04:	e8 f7 52 02 00       	call   26e00 <assert_abort>
    1b09:	66 90                	xchg   %ax,%ax
    1b0b:	66 90                	xchg   %ax,%ax
    1b0d:	66 90                	xchg   %ax,%ax
    1b0f:	90                   	nop

00001b10 <uhci_dev_add>:
    1b10:	55                   	push   %ebp
    1b11:	89 e5                	mov    %esp,%ebp
    1b13:	56                   	push   %esi
    1b14:	53                   	push   %ebx
    1b15:	83 ec 10             	sub    $0x10,%esp
    1b18:	8b 5d 08             	mov    0x8(%ebp),%ebx
    1b1b:	c7 44 24 08 64 b7 02 	movl   $0x2b764,0x8(%esp)
    1b22:	00 
    1b23:	c7 44 24 04 05 00 00 	movl   $0x5,0x4(%esp)
    1b2a:	00 
    1b2b:	c7 04 24 ff ff ff ff 	movl   $0xffffffff,(%esp)
    1b32:	e8 c9 59 01 00       	call   17500 <log_msg>
    1b37:	85 db                	test   %ebx,%ebx
    1b39:	74 76                	je     1bb1 <uhci_dev_add+0xa1>
    1b3b:	89 1c 24             	mov    %ebx,(%esp)
    1b3e:	e8 4d 0d 00 00       	call   2890 <device_setup_uhci>
    1b43:	89 c6                	mov    %eax,%esi
    1b45:	85 c0                	test   %eax,%eax
    1b47:	75 37                	jne    1b80 <uhci_dev_add+0x70>
    1b49:	89 1c 24             	mov    %ebx,(%esp)
    1b4c:	e8 7f 54 00 00       	call   6fd0 <ddf_dev_get_name>
    1b51:	c7 44 24 08 d4 b7 02 	movl   $0x2b7d4,0x8(%esp)
    1b58:	00 
    1b59:	89 44 24 0c          	mov    %eax,0xc(%esp)
    1b5d:	c7 44 24 04 03 00 00 	movl   $0x3,0x4(%esp)
    1b64:	00 
    1b65:	c7 04 24 ff ff ff ff 	movl   $0xffffffff,(%esp)
    1b6c:	e8 8f 59 01 00       	call   17500 <log_msg>
    1b71:	83 c4 10             	add    $0x10,%esp
    1b74:	89 f0                	mov    %esi,%eax
    1b76:	5b                   	pop    %ebx
    1b77:	5e                   	pop    %esi
    1b78:	5d                   	pop    %ebp
    1b79:	c3                   	ret    
    1b7a:	8d b6 00 00 00 00    	lea    0x0(%esi),%esi
    1b80:	89 04 24             	mov    %eax,(%esp)
    1b83:	e8 48 0d 01 00       	call   128d0 <str_error>
    1b88:	c7 44 24 08 ac b7 02 	movl   $0x2b7ac,0x8(%esp)
    1b8f:	00 
    1b90:	89 44 24 0c          	mov    %eax,0xc(%esp)
    1b94:	c7 44 24 04 01 00 00 	movl   $0x1,0x4(%esp)
    1b9b:	00 
    1b9c:	c7 04 24 ff ff ff ff 	movl   $0xffffffff,(%esp)
    1ba3:	e8 58 59 01 00       	call   17500 <log_msg>
    1ba8:	83 c4 10             	add    $0x10,%esp
    1bab:	89 f0                	mov    %esi,%eax
    1bad:	5b                   	pop    %ebx
    1bae:	5e                   	pop    %esi
    1baf:	5d                   	pop    %ebp
    1bb0:	c3                   	ret    
    1bb1:	c7 44 24 08 40 00 00 	movl   $0x40,0x8(%esp)
    1bb8:	00 
    1bb9:	c7 44 24 04 7b b7 02 	movl   $0x2b77b,0x4(%esp)
    1bc0:	00 
    1bc1:	c7 04 24 82 b7 02 00 	movl   $0x2b782,(%esp)
    1bc8:	e8 33 52 02 00       	call   26e00 <assert_abort>
    1bcd:	66 90                	xchg   %ax,%ax
    1bcf:	90                   	nop

00001bd0 <main>:
    1bd0:	55                   	push   %ebp
    1bd1:	89 e5                	mov    %esp,%ebp
    1bd3:	83 e4 f0             	and    $0xfffffff0,%esp
    1bd6:	83 ec 10             	sub    $0x10,%esp
    1bd9:	c7 04 24 89 b7 02 00 	movl   $0x2b789,(%esp)
    1be0:	e8 6b 56 01 00       	call   17250 <printf>
    1be5:	c7 04 24 a5 b7 02 00 	movl   $0x2b7a5,(%esp)
    1bec:	e8 3f 57 01 00       	call   17330 <log_init>
    1bf1:	c7 04 24 c0 f7 02 00 	movl   $0x2f7c0,(%esp)
    1bf8:	e8 23 5b 00 00       	call   7720 <ddf_driver_main>
    1bfd:	c9                   	leave  
    1bfe:	c3                   	ret    
    1bff:	90                   	nop

00001c00 <get_my_registers>:
    1c00:	55                   	push   %ebp
    1c01:	89 e5                	mov    %esp,%ebp
    1c03:	57                   	push   %edi
    1c04:	56                   	push   %esi
    1c05:	53                   	push   %ebx
    1c06:	83 ec 3c             	sub    $0x3c,%esp
    1c09:	8b 45 08             	mov    0x8(%ebp),%eax
    1c0c:	85 c0                	test   %eax,%eax
    1c0e:	0f 84 53 01 00 00    	je     1d67 <get_my_registers+0x167>
    1c14:	89 04 24             	mov    %eax,(%esp)
    1c17:	e8 a4 53 00 00       	call   6fc0 <ddf_dev_get_handle>
    1c1c:	c7 44 24 08 01 00 00 	movl   $0x1,0x8(%esp)
    1c23:	00 
    1c24:	89 44 24 04          	mov    %eax,0x4(%esp)
    1c28:	c7 04 24 02 00 00 00 	movl   $0x2,(%esp)
    1c2f:	e8 fc bb 00 00       	call   d830 <devman_parent_device_connect>
    1c34:	89 c3                	mov    %eax,%ebx
    1c36:	85 c0                	test   %eax,%eax
    1c38:	0f 84 22 01 00 00    	je     1d60 <get_my_registers+0x160>
    1c3e:	8d 75 c8             	lea    -0x38(%ebp),%esi
    1c41:	c7 44 24 08 20 00 00 	movl   $0x20,0x8(%esp)
    1c48:	00 
    1c49:	c7 44 24 04 00 00 00 	movl   $0x0,0x4(%esp)
    1c50:	00 
    1c51:	89 34 24             	mov    %esi,(%esp)
    1c54:	e8 07 d4 00 00       	call   f060 <memset>
    1c59:	c7 44 24 08 00 00 00 	movl   $0x0,0x8(%esp)
    1c60:	00 
    1c61:	89 74 24 04          	mov    %esi,0x4(%esp)
    1c65:	89 1c 24             	mov    %ebx,(%esp)
    1c68:	e8 d3 cf 00 00       	call   ec40 <hw_res_get_list_parsed>
    1c6d:	89 1c 24             	mov    %ebx,(%esp)
    1c70:	89 c7                	mov    %eax,%edi
    1c72:	e8 69 dd 01 00       	call   1f9e0 <async_hangup>
    1c77:	89 f8                	mov    %edi,%eax
    1c79:	85 ff                	test   %edi,%edi
    1c7b:	0f 85 87 00 00 00    	jne    1d08 <get_my_registers+0x108>
    1c81:	83 7d c8 01          	cmpl   $0x1,-0x38(%ebp)
    1c85:	0f 85 85 00 00 00    	jne    1d10 <get_my_registers+0x110>
    1c8b:	83 7d e0 01          	cmpl   $0x1,-0x20(%ebp)
    1c8f:	75 7f                	jne    1d10 <get_my_registers+0x110>
    1c91:	8b 5d 0c             	mov    0xc(%ebp),%ebx
    1c94:	85 db                	test   %ebx,%ebx
    1c96:	74 0a                	je     1ca2 <get_my_registers+0xa2>
    1c98:	8b 45 e4             	mov    -0x1c(%ebp),%eax
    1c9b:	8b 55 0c             	mov    0xc(%ebp),%edx
    1c9e:	8b 00                	mov    (%eax),%eax
    1ca0:	89 02                	mov    %eax,(%edx)
    1ca2:	8b 4d 10             	mov    0x10(%ebp),%ecx
    1ca5:	85 c9                	test   %ecx,%ecx
    1ca7:	74 0b                	je     1cb4 <get_my_registers+0xb4>
    1ca9:	8b 45 e4             	mov    -0x1c(%ebp),%eax
    1cac:	8b 4d 10             	mov    0x10(%ebp),%ecx
    1caf:	8b 40 0c             	mov    0xc(%eax),%eax
    1cb2:	89 01                	mov    %eax,(%ecx)
    1cb4:	8b 55 14             	mov    0x14(%ebp),%edx
    1cb7:	8b 45 cc             	mov    -0x34(%ebp),%eax
    1cba:	85 d2                	test   %edx,%edx
    1cbc:	74 07                	je     1cc5 <get_my_registers+0xc5>
    1cbe:	8b 4d 14             	mov    0x14(%ebp),%ecx
    1cc1:	8b 10                	mov    (%eax),%edx
    1cc3:	89 11                	mov    %edx,(%ecx)
    1cc5:	89 04 24             	mov    %eax,(%esp)
    1cc8:	e8 e3 a9 01 00       	call   1c6b0 <free>
    1ccd:	8b 45 e4             	mov    -0x1c(%ebp),%eax
    1cd0:	89 04 24             	mov    %eax,(%esp)
    1cd3:	e8 d8 a9 01 00       	call   1c6b0 <free>
    1cd8:	8b 45 dc             	mov    -0x24(%ebp),%eax
    1cdb:	89 04 24             	mov    %eax,(%esp)
    1cde:	e8 cd a9 01 00       	call   1c6b0 <free>
    1ce3:	8b 45 d4             	mov    -0x2c(%ebp),%eax
    1ce6:	89 04 24             	mov    %eax,(%esp)
    1ce9:	e8 c2 a9 01 00       	call   1c6b0 <free>
    1cee:	c7 44 24 08 20 00 00 	movl   $0x20,0x8(%esp)
    1cf5:	00 
    1cf6:	c7 44 24 04 00 00 00 	movl   $0x0,0x4(%esp)
    1cfd:	00 
    1cfe:	89 34 24             	mov    %esi,(%esp)
    1d01:	e8 5a d3 00 00       	call   f060 <memset>
    1d06:	31 c0                	xor    %eax,%eax
    1d08:	83 c4 3c             	add    $0x3c,%esp
    1d0b:	5b                   	pop    %ebx
    1d0c:	5e                   	pop    %esi
    1d0d:	5f                   	pop    %edi
    1d0e:	5d                   	pop    %ebp
    1d0f:	c3                   	ret    
    1d10:	8b 45 cc             	mov    -0x34(%ebp),%eax
    1d13:	89 04 24             	mov    %eax,(%esp)
    1d16:	e8 95 a9 01 00       	call   1c6b0 <free>
    1d1b:	8b 45 e4             	mov    -0x1c(%ebp),%eax
    1d1e:	89 04 24             	mov    %eax,(%esp)
    1d21:	e8 8a a9 01 00       	call   1c6b0 <free>
    1d26:	8b 45 dc             	mov    -0x24(%ebp),%eax
    1d29:	89 04 24             	mov    %eax,(%esp)
    1d2c:	e8 7f a9 01 00       	call   1c6b0 <free>
    1d31:	8b 45 d4             	mov    -0x2c(%ebp),%eax
    1d34:	89 04 24             	mov    %eax,(%esp)
    1d37:	e8 74 a9 01 00       	call   1c6b0 <free>
    1d3c:	c7 44 24 08 20 00 00 	movl   $0x20,0x8(%esp)
    1d43:	00 
    1d44:	c7 44 24 04 00 00 00 	movl   $0x0,0x4(%esp)
    1d4b:	00 
    1d4c:	89 34 24             	mov    %esi,(%esp)
    1d4f:	e8 0c d3 00 00       	call   f060 <memset>
    1d54:	b8 f2 ff ff ff       	mov    $0xfffffff2,%eax
    1d59:	eb ad                	jmp    1d08 <get_my_registers+0x108>
    1d5b:	90                   	nop
    1d5c:	8d 74 26 00          	lea    0x0(%esi,%eiz,1),%esi
    1d60:	b8 fe ff ff ff       	mov    $0xfffffffe,%eax
    1d65:	eb a1                	jmp    1d08 <get_my_registers+0x108>
    1d67:	c7 44 24 08 38 00 00 	movl   $0x38,0x8(%esp)
    1d6e:	00 
    1d6f:	c7 44 24 04 f7 b7 02 	movl   $0x2b7f7,0x4(%esp)
    1d76:	00 
    1d77:	c7 04 24 fd b7 02 00 	movl   $0x2b7fd,(%esp)
    1d7e:	e8 7d 50 02 00       	call   26e00 <assert_abort>
    1d83:	8d b6 00 00 00 00    	lea    0x0(%esi),%esi
    1d89:	8d bc 27 00 00 00 00 	lea    0x0(%edi,%eiz,1),%edi

00001d90 <enable_interrupts>:
    1d90:	55                   	push   %ebp
    1d91:	89 e5                	mov    %esp,%ebp
    1d93:	56                   	push   %esi
    1d94:	53                   	push   %ebx
    1d95:	83 ec 10             	sub    $0x10,%esp
    1d98:	8b 45 08             	mov    0x8(%ebp),%eax
    1d9b:	89 04 24             	mov    %eax,(%esp)
    1d9e:	e8 1d 52 00 00       	call   6fc0 <ddf_dev_get_handle>
    1da3:	c7 44 24 08 01 00 00 	movl   $0x1,0x8(%esp)
    1daa:	00 
    1dab:	89 44 24 04          	mov    %eax,0x4(%esp)
    1daf:	c7 04 24 02 00 00 00 	movl   $0x2,(%esp)
    1db6:	e8 75 ba 00 00       	call   d830 <devman_parent_device_connect>
    1dbb:	89 c3                	mov    %eax,%ebx
    1dbd:	85 c0                	test   %eax,%eax
    1dbf:	74 27                	je     1de8 <enable_interrupts+0x58>
    1dc1:	89 04 24             	mov    %eax,(%esp)
    1dc4:	e8 e7 ca 00 00       	call   e8b0 <hw_res_enable_interrupt>
    1dc9:	89 1c 24             	mov    %ebx,(%esp)
    1dcc:	89 c6                	mov    %eax,%esi
    1dce:	e8 0d dc 01 00       	call   1f9e0 <async_hangup>
    1dd3:	89 f0                	mov    %esi,%eax
    1dd5:	3c 01                	cmp    $0x1,%al
    1dd7:	19 c0                	sbb    %eax,%eax
    1dd9:	25 f7 fe ff ff       	and    $0xfffffef7,%eax
    1dde:	83 c4 10             	add    $0x10,%esp
    1de1:	5b                   	pop    %ebx
    1de2:	5e                   	pop    %esi
    1de3:	5d                   	pop    %ebp
    1de4:	c3                   	ret    
    1de5:	8d 76 00             	lea    0x0(%esi),%esi
    1de8:	b8 fe ff ff ff       	mov    $0xfffffffe,%eax
    1ded:	eb ef                	jmp    1dde <enable_interrupts+0x4e>
    1def:	90                   	nop

00001df0 <disable_legacy>:
    1df0:	55                   	push   %ebp
    1df1:	89 e5                	mov    %esp,%ebp
    1df3:	56                   	push   %esi
    1df4:	53                   	push   %ebx
    1df5:	83 ec 10             	sub    $0x10,%esp
    1df8:	8b 45 08             	mov    0x8(%ebp),%eax
    1dfb:	85 c0                	test   %eax,%eax
    1dfd:	74 58                	je     1e57 <disable_legacy+0x67>
    1dff:	89 04 24             	mov    %eax,(%esp)
    1e02:	e8 b9 51 00 00       	call   6fc0 <ddf_dev_get_handle>
    1e07:	c7 44 24 08 01 00 00 	movl   $0x1,0x8(%esp)
    1e0e:	00 
    1e0f:	89 44 24 04          	mov    %eax,0x4(%esp)
    1e13:	c7 04 24 02 00 00 00 	movl   $0x2,(%esp)
    1e1a:	e8 11 ba 00 00       	call   d830 <devman_parent_device_connect>
    1e1f:	89 c3                	mov    %eax,%ebx
    1e21:	85 c0                	test   %eax,%eax
    1e23:	74 2b                	je     1e50 <disable_legacy+0x60>
    1e25:	c7 44 24 08 00 af 00 	movl   $0xaf00,0x8(%esp)
    1e2c:	00 
    1e2d:	c7 44 24 04 c0 00 00 	movl   $0xc0,0x4(%esp)
    1e34:	00 
    1e35:	89 04 24             	mov    %eax,(%esp)
    1e38:	e8 13 d1 00 00       	call   ef50 <pci_config_space_write_16>
    1e3d:	89 1c 24             	mov    %ebx,(%esp)
    1e40:	89 c6                	mov    %eax,%esi
    1e42:	e8 99 db 01 00       	call   1f9e0 <async_hangup>
    1e47:	89 f0                	mov    %esi,%eax
    1e49:	83 c4 10             	add    $0x10,%esp
    1e4c:	5b                   	pop    %ebx
    1e4d:	5e                   	pop    %esi
    1e4e:	5d                   	pop    %ebp
    1e4f:	c3                   	ret    
    1e50:	b8 fe ff ff ff       	mov    $0xfffffffe,%eax
    1e55:	eb f2                	jmp    1e49 <disable_legacy+0x59>
    1e57:	c7 44 24 08 73 00 00 	movl   $0x73,0x8(%esp)
    1e5e:	00 
    1e5f:	c7 44 24 04 f7 b7 02 	movl   $0x2b7f7,0x4(%esp)
    1e66:	00 
    1e67:	c7 04 24 82 b7 02 00 	movl   $0x2b782,(%esp)
    1e6e:	e8 8d 4f 02 00       	call   26e00 <assert_abort>
    1e73:	66 90                	xchg   %ax,%ax
    1e75:	66 90                	xchg   %ax,%ax
    1e77:	66 90                	xchg   %ax,%ax
    1e79:	66 90                	xchg   %ax,%ax
    1e7b:	66 90                	xchg   %ax,%ax
    1e7d:	66 90                	xchg   %ax,%ax
    1e7f:	90                   	nop

00001e80 <rh_init>:
    1e80:	55                   	push   %ebp
    1e81:	89 e5                	mov    %esp,%ebp
    1e83:	53                   	push   %ebx
    1e84:	83 ec 14             	sub    $0x14,%esp
    1e87:	8b 45 08             	mov    0x8(%ebp),%eax
    1e8a:	8b 55 0c             	mov    0xc(%ebp),%edx
    1e8d:	85 c0                	test   %eax,%eax
    1e8f:	0f 84 9b 00 00 00    	je     1f30 <rh_init+0xb0>
    1e95:	85 d2                	test   %edx,%edx
    1e97:	74 7b                	je     1f14 <rh_init+0x94>
    1e99:	8d 48 08             	lea    0x8(%eax),%ecx
    1e9c:	c7 00 01 00 00 00    	movl   $0x1,(%eax)
    1ea2:	89 48 04             	mov    %ecx,0x4(%eax)
    1ea5:	8b 4d 10             	mov    0x10(%ebp),%ecx
    1ea8:	89 48 0c             	mov    %ecx,0xc(%eax)
    1eab:	8b 4d 14             	mov    0x14(%ebp),%ecx
    1eae:	c7 40 08 01 00 00 00 	movl   $0x1,0x8(%eax)
    1eb5:	c7 40 10 00 00 00 00 	movl   $0x0,0x10(%eax)
    1ebc:	89 48 18             	mov    %ecx,0x18(%eax)
    1ebf:	c7 40 14 00 00 00 00 	movl   $0x0,0x14(%eax)
    1ec6:	c7 44 24 08 64 00 00 	movl   $0x64,0x8(%esp)
    1ecd:	00 
    1ece:	c7 44 24 04 0c b8 02 	movl   $0x2b80c,0x4(%esp)
    1ed5:	00 
    1ed6:	89 14 24             	mov    %edx,(%esp)
    1ed9:	e8 92 56 00 00       	call   7570 <ddf_fun_add_match_id>
    1ede:	89 c3                	mov    %eax,%ebx
    1ee0:	85 c0                	test   %eax,%eax
    1ee2:	74 28                	je     1f0c <rh_init+0x8c>
    1ee4:	89 04 24             	mov    %eax,(%esp)
    1ee7:	e8 e4 09 01 00       	call   128d0 <str_error>
    1eec:	c7 44 24 08 20 b8 02 	movl   $0x2b820,0x8(%esp)
    1ef3:	00 
    1ef4:	89 44 24 0c          	mov    %eax,0xc(%esp)
    1ef8:	c7 44 24 04 01 00 00 	movl   $0x1,0x4(%esp)
    1eff:	00 
    1f00:	c7 04 24 ff ff ff ff 	movl   $0xffffffff,(%esp)
    1f07:	e8 f4 55 01 00       	call   17500 <log_msg>
    1f0c:	83 c4 14             	add    $0x14,%esp
    1f0f:	89 d8                	mov    %ebx,%eax
    1f11:	5b                   	pop    %ebx
    1f12:	5d                   	pop    %ebp
    1f13:	c3                   	ret    
    1f14:	c7 44 24 08 35 00 00 	movl   $0x35,0x8(%esp)
    1f1b:	00 
    1f1c:	c7 44 24 04 01 b8 02 	movl   $0x2b801,0x4(%esp)
    1f23:	00 
    1f24:	c7 04 24 89 ba 02 00 	movl   $0x2ba89,(%esp)
    1f2b:	e8 d0 4e 02 00       	call   26e00 <assert_abort>
    1f30:	c7 44 24 08 34 00 00 	movl   $0x34,0x8(%esp)
    1f37:	00 
    1f38:	c7 44 24 04 01 b8 02 	movl   $0x2b801,0x4(%esp)
    1f3f:	00 
    1f40:	c7 04 24 96 b4 02 00 	movl   $0x2b496,(%esp)
    1f47:	e8 b4 4e 02 00       	call   26e00 <assert_abort>
    1f4c:	66 90                	xchg   %ax,%ax
    1f4e:	66 90                	xchg   %ax,%ax

00001f50 <transfer_list_remove_batch>:
    1f50:	55                   	push   %ebp
    1f51:	89 e5                	mov    %esp,%ebp
    1f53:	57                   	push   %edi
    1f54:	56                   	push   %esi
    1f55:	53                   	push   %ebx
    1f56:	83 ec 7c             	sub    $0x7c,%esp
    1f59:	89 c6                	mov    %eax,%esi
    1f5b:	85 c0                	test   %eax,%eax
    1f5d:	0f 84 21 02 00 00    	je     2184 <transfer_list_remove_batch+0x234>
    1f63:	8b 48 10             	mov    0x10(%eax),%ecx
    1f66:	85 c9                	test   %ecx,%ecx
    1f68:	0f 84 fa 01 00 00    	je     2168 <transfer_list_remove_batch+0x218>
    1f6e:	89 d3                	mov    %edx,%ebx
    1f70:	85 d2                	test   %edx,%edx
    1f72:	0f 84 d4 01 00 00    	je     214c <transfer_list_remove_batch+0x1fc>
    1f78:	8b 02                	mov    (%edx),%eax
    1f7a:	85 c0                	test   %eax,%eax
    1f7c:	0f 84 ae 01 00 00    	je     2130 <transfer_list_remove_batch+0x1e0>
    1f82:	89 34 24             	mov    %esi,(%esp)
    1f85:	e8 66 15 01 00       	call   134f0 <fibril_mutex_is_locked>
    1f8a:	84 c0                	test   %al,%al
    1f8c:	0f 84 82 01 00 00    	je     2114 <transfer_list_remove_batch+0x1c4>
    1f92:	8b 46 14             	mov    0x14(%esi),%eax
    1f95:	89 44 24 10          	mov    %eax,0x10(%esp)
    1f99:	8b 43 10             	mov    0x10(%ebx),%eax
    1f9c:	c7 44 24 08 1c b9 02 	movl   $0x2b91c,0x8(%esp)
    1fa3:	00 
    1fa4:	89 44 24 0c          	mov    %eax,0xc(%esp)
    1fa8:	c7 44 24 04 05 00 00 	movl   $0x5,0x4(%esp)
    1faf:	00 
    1fb0:	c7 04 24 ff ff ff ff 	movl   $0xffffffff,(%esp)
    1fb7:	e8 44 55 01 00       	call   17500 <log_msg>
    1fbc:	8b 46 1c             	mov    0x1c(%esi),%eax
    1fbf:	8d 4e 18             	lea    0x18(%esi),%ecx
    1fc2:	8b 56 10             	mov    0x10(%esi),%edx
    1fc5:	39 c8                	cmp    %ecx,%eax
    1fc7:	74 0b                	je     1fd4 <transfer_list_remove_batch+0x84>
    1fc9:	8d 4b 14             	lea    0x14(%ebx),%ecx
    1fcc:	39 c8                	cmp    %ecx,%eax
    1fce:	0f 84 34 01 00 00    	je     2108 <transfer_list_remove_batch+0x1b8>
    1fd4:	8b 43 14             	mov    0x14(%ebx),%eax
    1fd7:	85 c0                	test   %eax,%eax
    1fd9:	0f 84 dd 01 00 00    	je     21bc <transfer_list_remove_batch+0x26c>
    1fdf:	8b 50 ec             	mov    -0x14(%eax),%edx
    1fe2:	c7 45 d4 52 b8 02 00 	movl   $0x2b852,-0x2c(%ebp)
    1fe9:	8b 3a                	mov    (%edx),%edi
    1feb:	8b 03                	mov    (%ebx),%eax
    1fed:	83 e7 f0             	and    $0xfffffff0,%edi
    1ff0:	85 c0                	test   %eax,%eax
    1ff2:	74 24                	je     2018 <transfer_list_remove_batch+0xc8>
    1ff4:	8d 4d e4             	lea    -0x1c(%ebp),%ecx
    1ff7:	89 04 24             	mov    %eax,(%esp)
    1ffa:	89 4c 24 04          	mov    %ecx,0x4(%esp)
    1ffe:	89 55 c4             	mov    %edx,-0x3c(%ebp)
    2001:	e8 2a aa 00 00       	call   ca30 <as_get_physical_mapping>
    2006:	8b 55 c4             	mov    -0x3c(%ebp),%edx
    2009:	85 c0                	test   %eax,%eax
    200b:	75 0b                	jne    2018 <transfer_list_remove_batch+0xc8>
    200d:	8b 45 e4             	mov    -0x1c(%ebp),%eax
    2010:	eb 08                	jmp    201a <transfer_list_remove_batch+0xca>
    2012:	8d b6 00 00 00 00    	lea    0x0(%esi),%esi
    2018:	31 c0                	xor    %eax,%eax
    201a:	39 c7                	cmp    %eax,%edi
    201c:	0f 85 7e 01 00 00    	jne    21a0 <transfer_list_remove_batch+0x250>
    2022:	8b 03                	mov    (%ebx),%eax
    2024:	8b 00                	mov    (%eax),%eax
    2026:	89 02                	mov    %eax,(%edx)
    2028:	8b 53 14             	mov    0x14(%ebx),%edx
    202b:	85 d2                	test   %edx,%edx
    202d:	74 0f                	je     203e <transfer_list_remove_batch+0xee>
    202f:	8b 43 18             	mov    0x18(%ebx),%eax
    2032:	85 c0                	test   %eax,%eax
    2034:	74 08                	je     203e <transfer_list_remove_batch+0xee>
    2036:	89 10                	mov    %edx,(%eax)
    2038:	8b 53 14             	mov    0x14(%ebx),%edx
    203b:	89 42 04             	mov    %eax,0x4(%edx)
    203e:	8b 03                	mov    (%ebx),%eax
    2040:	8b 53 10             	mov    0x10(%ebx),%edx
    2043:	8b 76 14             	mov    0x14(%esi),%esi
    2046:	c7 43 14 00 00 00 00 	movl   $0x0,0x14(%ebx)
    204d:	8b 08                	mov    (%eax),%ecx
    204f:	8b 02                	mov    (%edx),%eax
    2051:	89 75 d0             	mov    %esi,-0x30(%ebp)
    2054:	8b 52 14             	mov    0x14(%edx),%edx
    2057:	8b 70 18             	mov    0x18(%eax),%esi
    205a:	8b 40 0c             	mov    0xc(%eax),%eax
    205d:	c7 43 18 00 00 00 00 	movl   $0x0,0x18(%ebx)
    2064:	89 04 24             	mov    %eax,(%esp)
    2067:	89 55 c8             	mov    %edx,-0x38(%ebp)
    206a:	89 4d c4             	mov    %ecx,-0x3c(%ebp)
    206d:	89 75 cc             	mov    %esi,-0x34(%ebp)
    2070:	e8 9b 45 00 00       	call   6610 <usb_str_direction>
    2075:	89 c7                	mov    %eax,%edi
    2077:	8b 43 10             	mov    0x10(%ebx),%eax
    207a:	8b 00                	mov    (%eax),%eax
    207c:	8b 40 10             	mov    0x10(%eax),%eax
    207f:	89 04 24             	mov    %eax,(%esp)
    2082:	e8 69 45 00 00       	call   65f0 <usb_str_transfer_type_short>
    2087:	89 c6                	mov    %eax,%esi
    2089:	8b 43 10             	mov    0x10(%ebx),%eax
    208c:	8b 00                	mov    (%eax),%eax
    208e:	8b 40 14             	mov    0x14(%eax),%eax
    2091:	89 04 24             	mov    %eax,(%esp)
    2094:	e8 97 45 00 00       	call   6630 <usb_str_speed>
    2099:	8b 53 10             	mov    0x10(%ebx),%edx
    209c:	8b 4d c4             	mov    -0x3c(%ebp),%ecx
    209f:	8b 1a                	mov    (%edx),%ebx
    20a1:	89 4c 24 34          	mov    %ecx,0x34(%esp)
    20a5:	8b 4d d0             	mov    -0x30(%ebp),%ecx
    20a8:	89 4c 24 30          	mov    %ecx,0x30(%esp)
    20ac:	8b 4d d4             	mov    -0x2c(%ebp),%ecx
    20af:	89 4c 24 2c          	mov    %ecx,0x2c(%esp)
    20b3:	8b 4d cc             	mov    -0x34(%ebp),%ecx
    20b6:	89 4c 24 28          	mov    %ecx,0x28(%esp)
    20ba:	8b 4d c8             	mov    -0x38(%ebp),%ecx
    20bd:	89 7c 24 20          	mov    %edi,0x20(%esp)
    20c1:	89 74 24 1c          	mov    %esi,0x1c(%esp)
    20c5:	89 4c 24 24          	mov    %ecx,0x24(%esp)
    20c9:	89 44 24 18          	mov    %eax,0x18(%esp)
    20cd:	0f bf 43 0a          	movswl 0xa(%ebx),%eax
    20d1:	89 44 24 14          	mov    %eax,0x14(%esp)
    20d5:	0f bf 43 08          	movswl 0x8(%ebx),%eax
    20d9:	89 54 24 0c          	mov    %edx,0xc(%esp)
    20dd:	89 44 24 10          	mov    %eax,0x10(%esp)
    20e1:	c7 44 24 08 8c b9 02 	movl   $0x2b98c,0x8(%esp)
    20e8:	00 
    20e9:	c7 44 24 04 05 00 00 	movl   $0x5,0x4(%esp)
    20f0:	00 
    20f1:	c7 04 24 ff ff ff ff 	movl   $0xffffffff,(%esp)
    20f8:	e8 03 54 01 00       	call   17500 <log_msg>
    20fd:	83 c4 7c             	add    $0x7c,%esp
    2100:	5b                   	pop    %ebx
    2101:	5e                   	pop    %esi
    2102:	5f                   	pop    %edi
    2103:	5d                   	pop    %ebp
    2104:	c3                   	ret    
    2105:	8d 76 00             	lea    0x0(%esi),%esi
    2108:	c7 45 d4 56 b8 02 00 	movl   $0x2b856,-0x2c(%ebp)
    210f:	e9 d5 fe ff ff       	jmp    1fe9 <transfer_list_remove_batch+0x99>
    2114:	c7 44 24 08 cd 00 00 	movl   $0xcd,0x8(%esp)
    211b:	00 
    211c:	c7 44 24 04 5c b8 02 	movl   $0x2b85c,0x4(%esp)
    2123:	00 
    2124:	c7 04 24 f0 b8 02 00 	movl   $0x2b8f0,(%esp)
    212b:	e8 d0 4c 02 00       	call   26e00 <assert_abort>
    2130:	c7 44 24 08 cc 00 00 	movl   $0xcc,0x8(%esp)
    2137:	00 
    2138:	c7 44 24 04 5c b8 02 	movl   $0x2b85c,0x4(%esp)
    213f:	00 
    2140:	c7 04 24 8c b8 02 00 	movl   $0x2b88c,(%esp)
    2147:	e8 b4 4c 02 00       	call   26e00 <assert_abort>
    214c:	c7 44 24 08 cb 00 00 	movl   $0xcb,0x8(%esp)
    2153:	00 
    2154:	c7 44 24 04 5c b8 02 	movl   $0x2b85c,0x4(%esp)
    215b:	00 
    215c:	c7 04 24 81 b8 02 00 	movl   $0x2b881,(%esp)
    2163:	e8 98 4c 02 00       	call   26e00 <assert_abort>
    2168:	c7 44 24 08 ca 00 00 	movl   $0xca,0x8(%esp)
    216f:	00 
    2170:	c7 44 24 04 5c b8 02 	movl   $0x2b85c,0x4(%esp)
    2177:	00 
    2178:	c7 04 24 6c b8 02 00 	movl   $0x2b86c,(%esp)
    217f:	e8 7c 4c 02 00       	call   26e00 <assert_abort>
    2184:	c7 44 24 08 c9 00 00 	movl   $0xc9,0x8(%esp)
    218b:	00 
    218c:	c7 44 24 04 5c b8 02 	movl   $0x2b85c,0x4(%esp)
    2193:	00 
    2194:	c7 04 24 96 b4 02 00 	movl   $0x2b496,(%esp)
    219b:	e8 60 4c 02 00       	call   26e00 <assert_abort>
    21a0:	c7 44 24 08 dd 00 00 	movl   $0xdd,0x8(%esp)
    21a7:	00 
    21a8:	c7 44 24 04 5c b8 02 	movl   $0x2b85c,0x4(%esp)
    21af:	00 
    21b0:	c7 04 24 40 b9 02 00 	movl   $0x2b940,(%esp)
    21b7:	e8 44 4c 02 00       	call   26e00 <assert_abort>
    21bc:	e8 83 05 00 00       	call   2744 <uhci_transfer_batch_from_link.part.0>
    21c1:	eb 0d                	jmp    21d0 <transfer_list_init>
    21c3:	90                   	nop
    21c4:	90                   	nop
    21c5:	90                   	nop
    21c6:	90                   	nop
    21c7:	90                   	nop
    21c8:	90                   	nop
    21c9:	90                   	nop
    21ca:	90                   	nop
    21cb:	90                   	nop
    21cc:	90                   	nop
    21cd:	90                   	nop
    21ce:	90                   	nop
    21cf:	90                   	nop

000021d0 <transfer_list_init>:
    21d0:	55                   	push   %ebp
    21d1:	89 e5                	mov    %esp,%ebp
    21d3:	56                   	push   %esi
    21d4:	53                   	push   %ebx
    21d5:	83 ec 30             	sub    $0x30,%esp
    21d8:	8b 5d 08             	mov    0x8(%ebp),%ebx
    21db:	8b 75 0c             	mov    0xc(%ebp),%esi
    21de:	85 db                	test   %ebx,%ebx
    21e0:	0f 84 b2 00 00 00    	je     2298 <transfer_list_init+0xc8>
    21e6:	89 73 14             	mov    %esi,0x14(%ebx)
    21e9:	c7 44 24 04 08 00 00 	movl   $0x8,0x4(%esp)
    21f0:	00 
    21f1:	c7 04 24 10 00 00 00 	movl   $0x10,(%esp)
    21f8:	e8 e3 a3 01 00       	call   1c5e0 <memalign>
    21fd:	89 43 10             	mov    %eax,0x10(%ebx)
    2200:	85 c0                	test   %eax,%eax
    2202:	74 71                	je     2275 <transfer_list_init+0xa5>
    2204:	8d 55 f4             	lea    -0xc(%ebp),%edx
    2207:	89 04 24             	mov    %eax,(%esp)
    220a:	89 54 24 04          	mov    %edx,0x4(%esp)
    220e:	e8 1d a8 00 00       	call   ca30 <as_get_physical_mapping>
    2213:	31 d2                	xor    %edx,%edx
    2215:	85 c0                	test   %eax,%eax
    2217:	75 03                	jne    221c <transfer_list_init+0x4c>
    2219:	8b 55 f4             	mov    -0xc(%ebp),%edx
    221c:	89 54 24 14          	mov    %edx,0x14(%esp)
    2220:	8b 43 10             	mov    0x10(%ebx),%eax
    2223:	89 74 24 0c          	mov    %esi,0xc(%esp)
    2227:	89 44 24 10          	mov    %eax,0x10(%esp)
    222b:	c7 44 24 08 f0 b9 02 	movl   $0x2b9f0,0x8(%esp)
    2232:	00 
    2233:	c7 44 24 04 05 00 00 	movl   $0x5,0x4(%esp)
    223a:	00 
    223b:	c7 04 24 ff ff ff ff 	movl   $0xffffffff,(%esp)
    2242:	e8 b9 52 01 00       	call   17500 <log_msg>
    2247:	8b 43 10             	mov    0x10(%ebx),%eax
    224a:	85 c0                	test   %eax,%eax
    224c:	74 66                	je     22b4 <transfer_list_init+0xe4>
    224e:	c7 40 04 01 00 00 00 	movl   $0x1,0x4(%eax)
    2255:	c7 00 01 00 00 00    	movl   $0x1,(%eax)
    225b:	8d 43 18             	lea    0x18(%ebx),%eax
    225e:	89 43 18             	mov    %eax,0x18(%ebx)
    2261:	89 43 1c             	mov    %eax,0x1c(%ebx)
    2264:	89 1c 24             	mov    %ebx,(%esp)
    2267:	e8 34 10 01 00       	call   132a0 <fibril_mutex_initialize>
    226c:	31 c0                	xor    %eax,%eax
    226e:	83 c4 30             	add    $0x30,%esp
    2271:	5b                   	pop    %ebx
    2272:	5e                   	pop    %esi
    2273:	5d                   	pop    %ebp
    2274:	c3                   	ret    
    2275:	c7 44 24 08 d0 b9 02 	movl   $0x2b9d0,0x8(%esp)
    227c:	00 
    227d:	c7 44 24 04 01 00 00 	movl   $0x1,0x4(%esp)
    2284:	00 
    2285:	c7 04 24 ff ff ff ff 	movl   $0xffffffff,(%esp)
    228c:	e8 6f 52 01 00       	call   17500 <log_msg>
    2291:	b8 fe ff ff ff       	mov    $0xfffffffe,%eax
    2296:	eb d6                	jmp    226e <transfer_list_init+0x9e>
    2298:	c7 44 24 08 37 00 00 	movl   $0x37,0x8(%esp)
    229f:	00 
    22a0:	c7 44 24 04 5c b8 02 	movl   $0x2b85c,0x4(%esp)
    22a7:	00 
    22a8:	c7 04 24 96 b4 02 00 	movl   $0x2b496,(%esp)
    22af:	e8 4c 4b 02 00       	call   26e00 <assert_abort>
    22b4:	c7 44 24 08 3a 00 00 	movl   $0x3a,0x8(%esp)
    22bb:	00 
    22bc:	c7 44 24 04 9b b8 02 	movl   $0x2b89b,0x4(%esp)
    22c3:	00 
    22c4:	c7 04 24 96 b4 02 00 	movl   $0x2b496,(%esp)
    22cb:	e8 30 4b 02 00       	call   26e00 <assert_abort>

000022d0 <transfer_list_fini>:
    22d0:	55                   	push   %ebp
    22d1:	89 e5                	mov    %esp,%ebp
    22d3:	83 ec 18             	sub    $0x18,%esp
    22d6:	8b 45 08             	mov    0x8(%ebp),%eax
    22d9:	85 c0                	test   %eax,%eax
    22db:	74 0c                	je     22e9 <transfer_list_fini+0x19>
    22dd:	8b 40 10             	mov    0x10(%eax),%eax
    22e0:	89 45 08             	mov    %eax,0x8(%ebp)
    22e3:	c9                   	leave  
    22e4:	e9 c7 a3 01 00       	jmp    1c6b0 <free>
    22e9:	c7 44 24 08 50 00 00 	movl   $0x50,0x8(%esp)
    22f0:	00 
    22f1:	c7 44 24 04 5c b8 02 	movl   $0x2b85c,0x4(%esp)
    22f8:	00 
    22f9:	c7 04 24 96 b4 02 00 	movl   $0x2b496,(%esp)
    2300:	e8 fb 4a 02 00       	call   26e00 <assert_abort>
    2305:	8d 74 26 00          	lea    0x0(%esi,%eiz,1),%esi
    2309:	8d bc 27 00 00 00 00 	lea    0x0(%edi,%eiz,1),%edi

00002310 <transfer_list_set_next>:
    2310:	55                   	push   %ebp
    2311:	89 e5                	mov    %esp,%ebp
    2313:	53                   	push   %ebx
    2314:	83 ec 24             	sub    $0x24,%esp
    2317:	8b 45 08             	mov    0x8(%ebp),%eax
    231a:	8b 55 0c             	mov    0xc(%ebp),%edx
    231d:	85 c0                	test   %eax,%eax
    231f:	0f 84 7f 00 00 00    	je     23a4 <transfer_list_set_next+0x94>
    2325:	8b 58 10             	mov    0x10(%eax),%ebx
    2328:	85 db                	test   %ebx,%ebx
    232a:	74 5c                	je     2388 <transfer_list_set_next+0x78>
    232c:	85 d2                	test   %edx,%edx
    232e:	74 3c                	je     236c <transfer_list_set_next+0x5c>
    2330:	8b 42 10             	mov    0x10(%edx),%eax
    2333:	85 c0                	test   %eax,%eax
    2335:	74 29                	je     2360 <transfer_list_set_next+0x50>
    2337:	8d 55 f4             	lea    -0xc(%ebp),%edx
    233a:	89 04 24             	mov    %eax,(%esp)
    233d:	89 54 24 04          	mov    %edx,0x4(%esp)
    2341:	e8 ea a6 00 00       	call   ca30 <as_get_physical_mapping>
    2346:	85 c0                	test   %eax,%eax
    2348:	75 16                	jne    2360 <transfer_list_set_next+0x50>
    234a:	8b 45 f4             	mov    -0xc(%ebp),%eax
    234d:	85 c0                	test   %eax,%eax
    234f:	74 0f                	je     2360 <transfer_list_set_next+0x50>
    2351:	83 e0 f0             	and    $0xfffffff0,%eax
    2354:	83 c8 02             	or     $0x2,%eax
    2357:	89 03                	mov    %eax,(%ebx)
    2359:	83 c4 24             	add    $0x24,%esp
    235c:	5b                   	pop    %ebx
    235d:	5d                   	pop    %ebp
    235e:	c3                   	ret    
    235f:	90                   	nop
    2360:	c7 03 01 00 00 00    	movl   $0x1,(%ebx)
    2366:	83 c4 24             	add    $0x24,%esp
    2369:	5b                   	pop    %ebx
    236a:	5d                   	pop    %ebp
    236b:	c3                   	ret    
    236c:	c7 44 24 08 5f 00 00 	movl   $0x5f,0x8(%esp)
    2373:	00 
    2374:	c7 44 24 04 5c b8 02 	movl   $0x2b85c,0x4(%esp)
    237b:	00 
    237c:	c7 04 24 b2 b8 02 00 	movl   $0x2b8b2,(%esp)
    2383:	e8 78 4a 02 00       	call   26e00 <assert_abort>
    2388:	c7 44 24 08 5e 00 00 	movl   $0x5e,0x8(%esp)
    238f:	00 
    2390:	c7 44 24 04 5c b8 02 	movl   $0x2b85c,0x4(%esp)
    2397:	00 
    2398:	c7 04 24 6c b8 02 00 	movl   $0x2b86c,(%esp)
    239f:	e8 5c 4a 02 00       	call   26e00 <assert_abort>
    23a4:	c7 44 24 08 5d 00 00 	movl   $0x5d,0x8(%esp)
    23ab:	00 
    23ac:	c7 44 24 04 5c b8 02 	movl   $0x2b85c,0x4(%esp)
    23b3:	00 
    23b4:	c7 04 24 96 b4 02 00 	movl   $0x2b496,(%esp)
    23bb:	e8 40 4a 02 00       	call   26e00 <assert_abort>

000023c0 <transfer_list_add_batch>:
    23c0:	55                   	push   %ebp
    23c1:	89 e5                	mov    %esp,%ebp
    23c3:	57                   	push   %edi
    23c4:	56                   	push   %esi
    23c5:	53                   	push   %ebx
    23c6:	83 ec 6c             	sub    $0x6c,%esp
    23c9:	8b 75 08             	mov    0x8(%ebp),%esi
    23cc:	8b 5d 0c             	mov    0xc(%ebp),%ebx
    23cf:	85 f6                	test   %esi,%esi
    23d1:	0f 84 a1 01 00 00    	je     2578 <transfer_list_add_batch+0x1b8>
    23d7:	85 db                	test   %ebx,%ebx
    23d9:	0f 84 b5 01 00 00    	je     2594 <transfer_list_add_batch+0x1d4>
    23df:	8b 46 14             	mov    0x14(%esi),%eax
    23e2:	89 44 24 10          	mov    %eax,0x10(%esp)
    23e6:	8b 43 10             	mov    0x10(%ebx),%eax
    23e9:	c7 44 24 08 b7 b8 02 	movl   $0x2b8b7,0x8(%esp)
    23f0:	00 
    23f1:	89 44 24 0c          	mov    %eax,0xc(%esp)
    23f5:	c7 44 24 04 05 00 00 	movl   $0x5,0x4(%esp)
    23fc:	00 
    23fd:	c7 04 24 ff ff ff ff 	movl   $0xffffffff,(%esp)
    2404:	e8 f7 50 01 00       	call   17500 <log_msg>
    2409:	89 34 24             	mov    %esi,(%esp)
    240c:	e8 af 0e 01 00       	call   132c0 <fibril_mutex_lock>
    2411:	8d 56 18             	lea    0x18(%esi),%edx
    2414:	8b 7e 10             	mov    0x10(%esi),%edi
    2417:	89 55 d4             	mov    %edx,-0x2c(%ebp)
    241a:	39 56 1c             	cmp    %edx,0x1c(%esi)
    241d:	74 16                	je     2435 <transfer_list_add_batch+0x75>
    241f:	8b 46 18             	mov    0x18(%esi),%eax
    2422:	39 d0                	cmp    %edx,%eax
    2424:	0f 84 86 01 00 00    	je     25b0 <transfer_list_add_batch+0x1f0>
    242a:	85 c0                	test   %eax,%eax
    242c:	0f 84 7e 01 00 00    	je     25b0 <transfer_list_add_batch+0x1f0>
    2432:	8b 78 ec             	mov    -0x14(%eax),%edi
    2435:	8b 03                	mov    (%ebx),%eax
    2437:	8d 55 e4             	lea    -0x1c(%ebp),%edx
    243a:	85 c0                	test   %eax,%eax
    243c:	74 26                	je     2464 <transfer_list_add_batch+0xa4>
    243e:	89 54 24 04          	mov    %edx,0x4(%esp)
    2442:	89 04 24             	mov    %eax,(%esp)
    2445:	89 55 c4             	mov    %edx,-0x3c(%ebp)
    2448:	e8 e3 a5 00 00       	call   ca30 <as_get_physical_mapping>
    244d:	8b 55 c4             	mov    -0x3c(%ebp),%edx
    2450:	85 c0                	test   %eax,%eax
    2452:	75 10                	jne    2464 <transfer_list_add_batch+0xa4>
    2454:	8b 4d e4             	mov    -0x1c(%ebp),%ecx
    2457:	89 c8                	mov    %ecx,%eax
    2459:	83 e0 f0             	and    $0xfffffff0,%eax
    245c:	39 c8                	cmp    %ecx,%eax
    245e:	0f 85 f8 00 00 00    	jne    255c <transfer_list_add_batch+0x19c>
    2464:	8b 03                	mov    (%ebx),%eax
    2466:	8b 0f                	mov    (%edi),%ecx
    2468:	89 08                	mov    %ecx,(%eax)
    246a:	89 54 24 04          	mov    %edx,0x4(%esp)
    246e:	89 04 24             	mov    %eax,(%esp)
    2471:	e8 ba a5 00 00       	call   ca30 <as_get_physical_mapping>
    2476:	85 c0                	test   %eax,%eax
    2478:	75 16                	jne    2490 <transfer_list_add_batch+0xd0>
    247a:	8b 45 e4             	mov    -0x1c(%ebp),%eax
    247d:	85 c0                	test   %eax,%eax
    247f:	74 0f                	je     2490 <transfer_list_add_batch+0xd0>
    2481:	83 e0 f0             	and    $0xfffffff0,%eax
    2484:	83 c8 02             	or     $0x2,%eax
    2487:	89 07                	mov    %eax,(%edi)
    2489:	eb 0b                	jmp    2496 <transfer_list_add_batch+0xd6>
    248b:	90                   	nop
    248c:	8d 74 26 00          	lea    0x0(%esi,%eiz,1),%esi
    2490:	c7 07 01 00 00 00    	movl   $0x1,(%edi)
    2496:	8b 56 18             	mov    0x18(%esi),%edx
    2499:	8b 4d d4             	mov    -0x2c(%ebp),%ecx
    249c:	89 53 14             	mov    %edx,0x14(%ebx)
    249f:	8d 43 14             	lea    0x14(%ebx),%eax
    24a2:	8b 56 18             	mov    0x18(%esi),%edx
    24a5:	89 4b 18             	mov    %ecx,0x18(%ebx)
    24a8:	89 46 18             	mov    %eax,0x18(%esi)
    24ab:	8b 7e 14             	mov    0x14(%esi),%edi
    24ae:	89 42 04             	mov    %eax,0x4(%edx)
    24b1:	8b 53 10             	mov    0x10(%ebx),%edx
    24b4:	8b 02                	mov    (%edx),%eax
    24b6:	8b 52 14             	mov    0x14(%edx),%edx
    24b9:	89 55 d0             	mov    %edx,-0x30(%ebp)
    24bc:	8b 48 18             	mov    0x18(%eax),%ecx
    24bf:	8b 40 0c             	mov    0xc(%eax),%eax
    24c2:	89 04 24             	mov    %eax,(%esp)
    24c5:	89 4d d4             	mov    %ecx,-0x2c(%ebp)
    24c8:	e8 43 41 00 00       	call   6610 <usb_str_direction>
    24cd:	89 45 cc             	mov    %eax,-0x34(%ebp)
    24d0:	8b 43 10             	mov    0x10(%ebx),%eax
    24d3:	8b 00                	mov    (%eax),%eax
    24d5:	8b 40 10             	mov    0x10(%eax),%eax
    24d8:	89 04 24             	mov    %eax,(%esp)
    24db:	e8 10 41 00 00       	call   65f0 <usb_str_transfer_type_short>
    24e0:	89 45 c8             	mov    %eax,-0x38(%ebp)
    24e3:	8b 43 10             	mov    0x10(%ebx),%eax
    24e6:	8b 00                	mov    (%eax),%eax
    24e8:	8b 40 14             	mov    0x14(%eax),%eax
    24eb:	89 04 24             	mov    %eax,(%esp)
    24ee:	e8 3d 41 00 00       	call   6630 <usb_str_speed>
    24f3:	8b 53 10             	mov    0x10(%ebx),%edx
    24f6:	8b 5d d4             	mov    -0x2c(%ebp),%ebx
    24f9:	8b 0a                	mov    (%edx),%ecx
    24fb:	89 5c 24 28          	mov    %ebx,0x28(%esp)
    24ff:	8b 5d d0             	mov    -0x30(%ebp),%ebx
    2502:	89 5c 24 24          	mov    %ebx,0x24(%esp)
    2506:	8b 5d cc             	mov    -0x34(%ebp),%ebx
    2509:	89 5c 24 20          	mov    %ebx,0x20(%esp)
    250d:	8b 5d c8             	mov    -0x38(%ebp),%ebx
    2510:	89 7c 24 2c          	mov    %edi,0x2c(%esp)
    2514:	89 5c 24 1c          	mov    %ebx,0x1c(%esp)
    2518:	89 44 24 18          	mov    %eax,0x18(%esp)
    251c:	0f bf 41 0a          	movswl 0xa(%ecx),%eax
    2520:	89 44 24 14          	mov    %eax,0x14(%esp)
    2524:	0f bf 41 08          	movswl 0x8(%ecx),%eax
    2528:	89 54 24 0c          	mov    %edx,0xc(%esp)
    252c:	89 44 24 10          	mov    %eax,0x10(%esp)
    2530:	c7 44 24 08 44 ba 02 	movl   $0x2ba44,0x8(%esp)
    2537:	00 
    2538:	c7 44 24 04 05 00 00 	movl   $0x5,0x4(%esp)
    253f:	00 
    2540:	c7 04 24 ff ff ff ff 	movl   $0xffffffff,(%esp)
    2547:	e8 b4 4f 01 00       	call   17500 <log_msg>
    254c:	89 34 24             	mov    %esi,(%esp)
    254f:	e8 8c 0e 01 00       	call   133e0 <fibril_mutex_unlock>
    2554:	83 c4 6c             	add    $0x6c,%esp
    2557:	5b                   	pop    %ebx
    2558:	5e                   	pop    %esi
    2559:	5f                   	pop    %edi
    255a:	5d                   	pop    %ebp
    255b:	c3                   	ret    
    255c:	c7 44 24 08 7e 00 00 	movl   $0x7e,0x8(%esp)
    2563:	00 
    2564:	c7 44 24 04 5c b8 02 	movl   $0x2b85c,0x4(%esp)
    256b:	00 
    256c:	c7 04 24 1c ba 02 00 	movl   $0x2ba1c,(%esp)
    2573:	e8 88 48 02 00       	call   26e00 <assert_abort>
    2578:	c7 44 24 08 6e 00 00 	movl   $0x6e,0x8(%esp)
    257f:	00 
    2580:	c7 44 24 04 5c b8 02 	movl   $0x2b85c,0x4(%esp)
    2587:	00 
    2588:	c7 04 24 96 b4 02 00 	movl   $0x2b496,(%esp)
    258f:	e8 6c 48 02 00       	call   26e00 <assert_abort>
    2594:	c7 44 24 08 6f 00 00 	movl   $0x6f,0x8(%esp)
    259b:	00 
    259c:	c7 44 24 04 5c b8 02 	movl   $0x2b85c,0x4(%esp)
    25a3:	00 
    25a4:	c7 04 24 81 b8 02 00 	movl   $0x2b881,(%esp)
    25ab:	e8 50 48 02 00       	call   26e00 <assert_abort>
    25b0:	e8 8f 01 00 00       	call   2744 <uhci_transfer_batch_from_link.part.0>
    25b5:	8d 74 26 00          	lea    0x0(%esi,%eiz,1),%esi
    25b9:	8d bc 27 00 00 00 00 	lea    0x0(%edi,%eiz,1),%edi

000025c0 <transfer_list_remove_finished>:
    25c0:	55                   	push   %ebp
    25c1:	89 e5                	mov    %esp,%ebp
    25c3:	57                   	push   %edi
    25c4:	56                   	push   %esi
    25c5:	53                   	push   %ebx
    25c6:	83 ec 2c             	sub    $0x2c,%esp
    25c9:	8b 45 08             	mov    0x8(%ebp),%eax
    25cc:	8b 75 0c             	mov    0xc(%ebp),%esi
    25cf:	89 45 e0             	mov    %eax,-0x20(%ebp)
    25d2:	85 c0                	test   %eax,%eax
    25d4:	0f 84 80 00 00 00    	je     265a <transfer_list_remove_finished+0x9a>
    25da:	85 f6                	test   %esi,%esi
    25dc:	0f 84 94 00 00 00    	je     2676 <transfer_list_remove_finished+0xb6>
    25e2:	8b 45 e0             	mov    -0x20(%ebp),%eax
    25e5:	89 04 24             	mov    %eax,(%esp)
    25e8:	e8 d3 0c 01 00       	call   132c0 <fibril_mutex_lock>
    25ed:	8b 45 e0             	mov    -0x20(%ebp),%eax
    25f0:	8b 78 1c             	mov    0x1c(%eax),%edi
    25f3:	83 c0 18             	add    $0x18,%eax
    25f6:	89 45 e4             	mov    %eax,-0x1c(%ebp)
    25f9:	39 c7                	cmp    %eax,%edi
    25fb:	74 4b                	je     2648 <transfer_list_remove_finished+0x88>
    25fd:	85 ff                	test   %edi,%edi
    25ff:	74 47                	je     2648 <transfer_list_remove_finished+0x88>
    2601:	3b 7d e4             	cmp    -0x1c(%ebp),%edi
    2604:	75 0d                	jne    2613 <transfer_list_remove_finished+0x53>
    2606:	eb 40                	jmp    2648 <transfer_list_remove_finished+0x88>
    2608:	85 db                	test   %ebx,%ebx
    260a:	74 3c                	je     2648 <transfer_list_remove_finished+0x88>
    260c:	89 df                	mov    %ebx,%edi
    260e:	3b 5d e4             	cmp    -0x1c(%ebp),%ebx
    2611:	74 35                	je     2648 <transfer_list_remove_finished+0x88>
    2613:	8d 57 ec             	lea    -0x14(%edi),%edx
    2616:	8b 5f 04             	mov    0x4(%edi),%ebx
    2619:	89 14 24             	mov    %edx,(%esp)
    261c:	89 55 dc             	mov    %edx,-0x24(%ebp)
    261f:	e8 ac 14 00 00       	call   3ad0 <uhci_transfer_batch_is_complete>
    2624:	8b 55 dc             	mov    -0x24(%ebp),%edx
    2627:	84 c0                	test   %al,%al
    2629:	74 dd                	je     2608 <transfer_list_remove_finished+0x48>
    262b:	8b 45 e0             	mov    -0x20(%ebp),%eax
    262e:	e8 1d f9 ff ff       	call   1f50 <transfer_list_remove_batch>
    2633:	8b 06                	mov    (%esi),%eax
    2635:	89 07                	mov    %eax,(%edi)
    2637:	89 77 04             	mov    %esi,0x4(%edi)
    263a:	8b 06                	mov    (%esi),%eax
    263c:	85 db                	test   %ebx,%ebx
    263e:	89 3e                	mov    %edi,(%esi)
    2640:	89 78 04             	mov    %edi,0x4(%eax)
    2643:	75 c7                	jne    260c <transfer_list_remove_finished+0x4c>
    2645:	8d 76 00             	lea    0x0(%esi),%esi
    2648:	8b 45 e0             	mov    -0x20(%ebp),%eax
    264b:	89 45 08             	mov    %eax,0x8(%ebp)
    264e:	83 c4 2c             	add    $0x2c,%esp
    2651:	5b                   	pop    %ebx
    2652:	5e                   	pop    %esi
    2653:	5f                   	pop    %edi
    2654:	5d                   	pop    %ebp
    2655:	e9 86 0d 01 00       	jmp    133e0 <fibril_mutex_unlock>
    265a:	c7 44 24 08 9a 00 00 	movl   $0x9a,0x8(%esp)
    2661:	00 
    2662:	c7 44 24 04 5c b8 02 	movl   $0x2b85c,0x4(%esp)
    2669:	00 
    266a:	c7 04 24 96 b4 02 00 	movl   $0x2b496,(%esp)
    2671:	e8 8a 47 02 00       	call   26e00 <assert_abort>
    2676:	c7 44 24 08 9b 00 00 	movl   $0x9b,0x8(%esp)
    267d:	00 
    267e:	c7 44 24 04 5c b8 02 	movl   $0x2b85c,0x4(%esp)
    2685:	00 
    2686:	c7 04 24 d5 b8 02 00 	movl   $0x2b8d5,(%esp)
    268d:	e8 6e 47 02 00       	call   26e00 <assert_abort>
    2692:	8d b4 26 00 00 00 00 	lea    0x0(%esi,%eiz,1),%esi
    2699:	8d bc 27 00 00 00 00 	lea    0x0(%edi,%eiz,1),%edi

000026a0 <transfer_list_abort_all>:
    26a0:	55                   	push   %ebp
    26a1:	89 e5                	mov    %esp,%ebp
    26a3:	57                   	push   %edi
    26a4:	56                   	push   %esi
    26a5:	53                   	push   %ebx
    26a6:	83 ec 1c             	sub    $0x1c,%esp
    26a9:	8b 75 08             	mov    0x8(%ebp),%esi
    26ac:	89 34 24             	mov    %esi,(%esp)
    26af:	e8 0c 0c 01 00       	call   132c0 <fibril_mutex_lock>
    26b4:	8d 7e 18             	lea    0x18(%esi),%edi
    26b7:	8b 5e 1c             	mov    0x1c(%esi),%ebx
    26ba:	39 fb                	cmp    %edi,%ebx
    26bc:	74 3a                	je     26f8 <transfer_list_abort_all+0x58>
    26be:	66 90                	xchg   %ax,%ax
    26c0:	85 db                	test   %ebx,%ebx
    26c2:	74 7b                	je     273f <transfer_list_abort_all+0x9f>
    26c4:	83 eb 14             	sub    $0x14,%ebx
    26c7:	89 f0                	mov    %esi,%eax
    26c9:	89 da                	mov    %ebx,%edx
    26cb:	e8 80 f8 ff ff       	call   1f50 <transfer_list_remove_batch>
    26d0:	85 db                	test   %ebx,%ebx
    26d2:	74 33                	je     2707 <transfer_list_abort_all+0x67>
    26d4:	8b 43 10             	mov    0x10(%ebx),%eax
    26d7:	85 c0                	test   %eax,%eax
    26d9:	74 48                	je     2723 <transfer_list_abort_all+0x83>
    26db:	c7 40 2c ef ff ff ff 	movl   $0xffffffef,0x2c(%eax)
    26e2:	c7 40 28 00 00 00 00 	movl   $0x0,0x28(%eax)
    26e9:	89 1c 24             	mov    %ebx,(%esp)
    26ec:	e8 3f 0f 00 00       	call   3630 <uhci_transfer_batch_finish_dispose>
    26f1:	8b 5e 1c             	mov    0x1c(%esi),%ebx
    26f4:	39 fb                	cmp    %edi,%ebx
    26f6:	75 c8                	jne    26c0 <transfer_list_abort_all+0x20>
    26f8:	89 75 08             	mov    %esi,0x8(%ebp)
    26fb:	83 c4 1c             	add    $0x1c,%esp
    26fe:	5b                   	pop    %ebx
    26ff:	5e                   	pop    %esi
    2700:	5f                   	pop    %edi
    2701:	5d                   	pop    %ebp
    2702:	e9 d9 0c 01 00       	jmp    133e0 <fibril_mutex_unlock>
    2707:	c7 44 24 08 63 00 00 	movl   $0x63,0x8(%esp)
    270e:	00 
    270f:	c7 44 24 04 45 b8 02 	movl   $0x2b845,0x4(%esp)
    2716:	00 
    2717:	c7 04 24 81 b8 02 00 	movl   $0x2b881,(%esp)
    271e:	e8 dd 46 02 00       	call   26e00 <assert_abort>
    2723:	c7 44 24 08 64 00 00 	movl   $0x64,0x8(%esp)
    272a:	00 
    272b:	c7 44 24 04 45 b8 02 	movl   $0x2b845,0x4(%esp)
    2732:	00 
    2733:	c7 04 24 da b8 02 00 	movl   $0x2b8da,(%esp)
    273a:	e8 c1 46 02 00       	call   26e00 <assert_abort>
    273f:	e8 00 00 00 00       	call   2744 <uhci_transfer_batch_from_link.part.0>

00002744 <uhci_transfer_batch_from_link.part.0>:
    2744:	55                   	push   %ebp
    2745:	89 e5                	mov    %esp,%ebp
    2747:	83 ec 18             	sub    $0x18,%esp
    274a:	c7 44 24 08 70 00 00 	movl   $0x70,0x8(%esp)
    2751:	00 
    2752:	c7 44 24 04 45 b8 02 	movl   $0x2b845,0x4(%esp)
    2759:	00 
    275a:	c7 04 24 f9 d1 02 00 	movl   $0x2d1f9,(%esp)
    2761:	e8 9a 46 02 00       	call   26e00 <assert_abort>
    2766:	66 90                	xchg   %ax,%ax
    2768:	66 90                	xchg   %ax,%ax
    276a:	66 90                	xchg   %ax,%ax
    276c:	66 90                	xchg   %ax,%ax
    276e:	66 90                	xchg   %ax,%ax

00002770 <usb_iface_get_hc_handle>:
    2770:	55                   	push   %ebp
    2771:	89 e5                	mov    %esp,%ebp
    2773:	53                   	push   %ebx
    2774:	83 ec 14             	sub    $0x14,%esp
    2777:	8b 45 08             	mov    0x8(%ebp),%eax
    277a:	8b 5d 0c             	mov    0xc(%ebp),%ebx
    277d:	89 04 24             	mov    %eax,(%esp)
    2780:	e8 0b 49 00 00       	call   7090 <ddf_fun_get_dev>
    2785:	89 04 24             	mov    %eax,(%esp)
    2788:	e8 23 48 00 00       	call   6fb0 <ddf_dev_data_get>
    278d:	8b 00                	mov    (%eax),%eax
    278f:	85 c0                	test   %eax,%eax
    2791:	74 16                	je     27a9 <usb_iface_get_hc_handle+0x39>
    2793:	85 db                	test   %ebx,%ebx
    2795:	74 0a                	je     27a1 <usb_iface_get_hc_handle+0x31>
    2797:	89 04 24             	mov    %eax,(%esp)
    279a:	e8 01 49 00 00       	call   70a0 <ddf_fun_get_handle>
    279f:	89 03                	mov    %eax,(%ebx)
    27a1:	83 c4 14             	add    $0x14,%esp
    27a4:	31 c0                	xor    %eax,%eax
    27a6:	5b                   	pop    %ebx
    27a7:	5d                   	pop    %ebp
    27a8:	c3                   	ret    
    27a9:	c7 44 24 08 67 00 00 	movl   $0x67,0x8(%esp)
    27b0:	00 
    27b1:	c7 44 24 04 7f ba 02 	movl   $0x2ba7f,0x4(%esp)
    27b8:	00 
    27b9:	c7 04 24 86 ba 02 00 	movl   $0x2ba86,(%esp)
    27c0:	e8 3b 46 02 00       	call   26e00 <assert_abort>
    27c5:	8d 74 26 00          	lea    0x0(%esi,%eiz,1),%esi
    27c9:	8d bc 27 00 00 00 00 	lea    0x0(%edi,%eiz,1),%edi

000027d0 <get_resource_list>:
    27d0:	55                   	push   %ebp
    27d1:	89 e5                	mov    %esp,%ebp
    27d3:	83 ec 18             	sub    $0x18,%esp
    27d6:	8b 45 08             	mov    0x8(%ebp),%eax
    27d9:	89 04 24             	mov    %eax,(%esp)
    27dc:	e8 2f 4a 00 00       	call   7210 <ddf_fun_data_get>
    27e1:	85 c0                	test   %eax,%eax
    27e3:	74 02                	je     27e7 <get_resource_list+0x17>
    27e5:	c9                   	leave  
    27e6:	c3                   	ret    
    27e7:	c7 44 24 08 7b 00 00 	movl   $0x7b,0x8(%esp)
    27ee:	00 
    27ef:	c7 44 24 04 7f ba 02 	movl   $0x2ba7f,0x4(%esp)
    27f6:	00 
    27f7:	c7 04 24 d6 ba 02 00 	movl   $0x2bad6,(%esp)
    27fe:	e8 fd 45 02 00       	call   26e00 <assert_abort>
    2803:	8d b6 00 00 00 00    	lea    0x0(%esi),%esi
    2809:	8d bc 27 00 00 00 00 	lea    0x0(%edi,%eiz,1),%edi

00002810 <irq_handler>:
    2810:	55                   	push   %ebp
    2811:	89 e5                	mov    %esp,%ebp
    2813:	53                   	push   %ebx
    2814:	83 ec 14             	sub    $0x14,%esp
    2817:	8b 45 08             	mov    0x8(%ebp),%eax
    281a:	8b 5d 10             	mov    0x10(%ebp),%ebx
    281d:	85 c0                	test   %eax,%eax
    281f:	74 4e                	je     286f <irq_handler+0x5f>
    2821:	89 04 24             	mov    %eax,(%esp)
    2824:	e8 87 47 00 00       	call   6fb0 <ddf_dev_data_get>
    2829:	85 c0                	test   %eax,%eax
    282b:	74 23                	je     2850 <irq_handler+0x40>
    282d:	8b 53 04             	mov    0x4(%ebx),%edx
    2830:	83 c0 08             	add    $0x8,%eax
    2833:	81 e2 ff ff 00 00    	and    $0xffff,%edx
    2839:	89 45 08             	mov    %eax,0x8(%ebp)
    283c:	89 55 0c             	mov    %edx,0xc(%ebp)
    283f:	83 c4 14             	add    $0x14,%esp
    2842:	5b                   	pop    %ebx
    2843:	5d                   	pop    %ebp
    2844:	e9 67 eb ff ff       	jmp    13b0 <hc_interrupt>
    2849:	8d b4 26 00 00 00 00 	lea    0x0(%esi,%eiz,1),%esi
    2850:	c7 45 10 dc ba 02 00 	movl   $0x2badc,0x10(%ebp)
    2857:	c7 45 0c 01 00 00 00 	movl   $0x1,0xc(%ebp)
    285e:	c7 45 08 ff ff ff ff 	movl   $0xffffffff,0x8(%ebp)
    2865:	83 c4 14             	add    $0x14,%esp
    2868:	5b                   	pop    %ebx
    2869:	5d                   	pop    %ebp
    286a:	e9 91 4c 01 00       	jmp    17500 <log_msg>
    286f:	c7 44 24 08 4f 00 00 	movl   $0x4f,0x8(%esp)
    2876:	00 
    2877:	c7 44 24 04 7f ba 02 	movl   $0x2ba7f,0x4(%esp)
    287e:	00 
    287f:	c7 04 24 fd b7 02 00 	movl   $0x2b7fd,(%esp)
    2886:	e8 75 45 02 00       	call   26e00 <assert_abort>
    288b:	90                   	nop
    288c:	8d 74 26 00          	lea    0x0(%esi,%eiz,1),%esi

00002890 <device_setup_uhci>:
    2890:	55                   	push   %ebp
    2891:	89 e5                	mov    %esp,%ebp
    2893:	57                   	push   %edi
    2894:	56                   	push   %esi
    2895:	53                   	push   %ebx
    2896:	83 ec 6c             	sub    $0x6c,%esp
    2899:	8b 5d 08             	mov    0x8(%ebp),%ebx
    289c:	85 db                	test   %ebx,%ebx
    289e:	0f 84 7c 02 00 00    	je     2b20 <device_setup_uhci+0x290>
    28a4:	c7 44 24 04 64 07 00 	movl   $0x764,0x4(%esp)
    28ab:	00 
    28ac:	89 1c 24             	mov    %ebx,(%esp)
    28af:	e8 6c 46 00 00       	call   6f20 <ddf_dev_data_alloc>
    28b4:	89 c7                	mov    %eax,%edi
    28b6:	85 c0                	test   %eax,%eax
    28b8:	0f 84 6c 02 00 00    	je     2b2a <device_setup_uhci+0x29a>
    28be:	c7 40 04 00 00 00 00 	movl   $0x0,0x4(%eax)
    28c5:	c7 44 24 08 8d ba 02 	movl   $0x2ba8d,0x8(%esp)
    28cc:	00 
    28cd:	c7 44 24 04 02 00 00 	movl   $0x2,0x4(%esp)
    28d4:	00 
    28d5:	89 1c 24             	mov    %ebx,(%esp)
    28d8:	e8 d3 47 00 00       	call   70b0 <ddf_fun_create>
    28dd:	89 07                	mov    %eax,(%edi)
    28df:	85 c0                	test   %eax,%eax
    28e1:	0f 84 11 01 00 00    	je     29f8 <device_setup_uhci+0x168>
    28e7:	89 04 24             	mov    %eax,(%esp)
    28ea:	c7 44 24 04 e0 f7 02 	movl   $0x2f7e0,0x4(%esp)
    28f1:	00 
    28f2:	8d 77 08             	lea    0x8(%edi),%esi
    28f5:	e8 46 4d 00 00       	call   7640 <ddf_fun_set_ops>
    28fa:	89 74 24 04          	mov    %esi,0x4(%esp)
    28fe:	8b 07                	mov    (%edi),%eax
    2900:	89 04 24             	mov    %eax,(%esp)
    2903:	e8 68 46 00 00       	call   6f70 <ddf_fun_data_implant>
    2908:	c7 44 24 08 d1 ba 02 	movl   $0x2bad1,0x8(%esp)
    290f:	00 
    2910:	c7 44 24 04 01 00 00 	movl   $0x1,0x4(%esp)
    2917:	00 
    2918:	89 1c 24             	mov    %ebx,(%esp)
    291b:	e8 90 47 00 00       	call   70b0 <ddf_fun_create>
    2920:	89 47 04             	mov    %eax,0x4(%edi)
    2923:	85 c0                	test   %eax,%eax
    2925:	0f 84 ad 01 00 00    	je     2ad8 <device_setup_uhci+0x248>
    292b:	89 04 24             	mov    %eax,(%esp)
    292e:	c7 44 24 04 20 f8 02 	movl   $0x2f820,0x4(%esp)
    2935:	00 
    2936:	e8 05 4d 00 00       	call   7640 <ddf_fun_set_ops>
    293b:	8d 97 48 07 00 00    	lea    0x748(%edi),%edx
    2941:	89 54 24 04          	mov    %edx,0x4(%esp)
    2945:	89 55 c4             	mov    %edx,-0x3c(%ebp)
    2948:	8b 47 04             	mov    0x4(%edi),%eax
    294b:	89 04 24             	mov    %eax,(%esp)
    294e:	e8 1d 46 00 00       	call   6f70 <ddf_fun_data_implant>
    2953:	8d 45 d4             	lea    -0x2c(%ebp),%eax
    2956:	89 44 24 0c          	mov    %eax,0xc(%esp)
    295a:	8d 45 d0             	lea    -0x30(%ebp),%eax
    295d:	89 44 24 08          	mov    %eax,0x8(%esp)
    2961:	8d 45 cc             	lea    -0x34(%ebp),%eax
    2964:	89 44 24 04          	mov    %eax,0x4(%esp)
    2968:	89 1c 24             	mov    %ebx,(%esp)
    296b:	c7 45 cc 00 00 00 00 	movl   $0x0,-0x34(%ebp)
    2972:	c7 45 d0 00 00 00 00 	movl   $0x0,-0x30(%ebp)
    2979:	c7 45 d4 00 00 00 00 	movl   $0x0,-0x2c(%ebp)
    2980:	e8 7b f2 ff ff       	call   1c00 <get_my_registers>
    2985:	89 c1                	mov    %eax,%ecx
    2987:	85 c0                	test   %eax,%eax
    2989:	0f 84 a9 00 00 00    	je     2a38 <device_setup_uhci+0x1a8>
    298f:	8b 07                	mov    (%edi),%eax
    2991:	85 c0                	test   %eax,%eax
    2993:	74 0e                	je     29a3 <device_setup_uhci+0x113>
    2995:	89 04 24             	mov    %eax,(%esp)
    2998:	89 4d b0             	mov    %ecx,-0x50(%ebp)
    299b:	e8 90 48 00 00       	call   7230 <ddf_fun_destroy>
    29a0:	8b 4d b0             	mov    -0x50(%ebp),%ecx
    29a3:	8b 47 04             	mov    0x4(%edi),%eax
    29a6:	85 c0                	test   %eax,%eax
    29a8:	74 0e                	je     29b8 <device_setup_uhci+0x128>
    29aa:	89 04 24             	mov    %eax,(%esp)
    29ad:	89 4d b0             	mov    %ecx,-0x50(%ebp)
    29b0:	e8 7b 48 00 00       	call   7230 <ddf_fun_destroy>
    29b5:	8b 4d b0             	mov    -0x50(%ebp),%ecx
    29b8:	89 0c 24             	mov    %ecx,(%esp)
    29bb:	89 4d b0             	mov    %ecx,-0x50(%ebp)
    29be:	e8 0d ff 00 00       	call   128d0 <str_error>
    29c3:	89 1c 24             	mov    %ebx,(%esp)
    29c6:	89 c6                	mov    %eax,%esi
    29c8:	e8 f3 45 00 00       	call   6fc0 <ddf_dev_get_handle>
    29cd:	89 74 24 10          	mov    %esi,0x10(%esp)
    29d1:	89 44 24 0c          	mov    %eax,0xc(%esp)
    29d5:	c7 44 24 08 74 bb 02 	movl   $0x2bb74,0x8(%esp)
    29dc:	00 
    29dd:	c7 44 24 04 01 00 00 	movl   $0x1,0x4(%esp)
    29e4:	00 
    29e5:	c7 04 24 ff ff ff ff 	movl   $0xffffffff,(%esp)
    29ec:	e8 0f 4b 01 00       	call   17500 <log_msg>
    29f1:	8b 4d b0             	mov    -0x50(%ebp),%ecx
    29f4:	eb 32                	jmp    2a28 <device_setup_uhci+0x198>
    29f6:	66 90                	xchg   %ax,%ax
    29f8:	8b 47 04             	mov    0x4(%edi),%eax
    29fb:	85 c0                	test   %eax,%eax
    29fd:	74 08                	je     2a07 <device_setup_uhci+0x177>
    29ff:	89 04 24             	mov    %eax,(%esp)
    2a02:	e8 29 48 00 00       	call   7230 <ddf_fun_destroy>
    2a07:	c7 44 24 08 2c bb 02 	movl   $0x2bb2c,0x8(%esp)
    2a0e:	00 
    2a0f:	c7 44 24 04 01 00 00 	movl   $0x1,0x4(%esp)
    2a16:	00 
    2a17:	c7 04 24 ff ff ff ff 	movl   $0xffffffff,(%esp)
    2a1e:	e8 dd 4a 01 00       	call   17500 <log_msg>
    2a23:	b9 fe ff ff ff       	mov    $0xfffffffe,%ecx
    2a28:	8d 65 f4             	lea    -0xc(%ebp),%esp
    2a2b:	89 c8                	mov    %ecx,%eax
    2a2d:	5b                   	pop    %ebx
    2a2e:	5e                   	pop    %esi
    2a2f:	5f                   	pop    %edi
    2a30:	5d                   	pop    %ebp
    2a31:	c3                   	ret    
    2a32:	8d b6 00 00 00 00    	lea    0x0(%esi),%esi
    2a38:	8b 45 d4             	mov    -0x2c(%ebp),%eax
    2a3b:	c7 44 24 08 a0 bb 02 	movl   $0x2bba0,0x8(%esp)
    2a42:	00 
    2a43:	89 44 24 14          	mov    %eax,0x14(%esp)
    2a47:	8b 45 d0             	mov    -0x30(%ebp),%eax
    2a4a:	89 44 24 10          	mov    %eax,0x10(%esp)
    2a4e:	8b 45 cc             	mov    -0x34(%ebp),%eax
    2a51:	89 44 24 0c          	mov    %eax,0xc(%esp)
    2a55:	c7 44 24 04 04 00 00 	movl   $0x4,0x4(%esp)
    2a5c:	00 
    2a5d:	c7 04 24 ff ff ff ff 	movl   $0xffffffff,(%esp)
    2a64:	e8 97 4a 01 00       	call   17500 <log_msg>
    2a69:	89 1c 24             	mov    %ebx,(%esp)
    2a6c:	e8 7f f3 ff ff       	call   1df0 <disable_legacy>
    2a71:	89 c1                	mov    %eax,%ecx
    2a73:	85 c0                	test   %eax,%eax
    2a75:	0f 84 d5 00 00 00    	je     2b50 <device_setup_uhci+0x2c0>
    2a7b:	8b 07                	mov    (%edi),%eax
    2a7d:	85 c0                	test   %eax,%eax
    2a7f:	74 0e                	je     2a8f <device_setup_uhci+0x1ff>
    2a81:	89 04 24             	mov    %eax,(%esp)
    2a84:	89 4d b0             	mov    %ecx,-0x50(%ebp)
    2a87:	e8 a4 47 00 00       	call   7230 <ddf_fun_destroy>
    2a8c:	8b 4d b0             	mov    -0x50(%ebp),%ecx
    2a8f:	8b 47 04             	mov    0x4(%edi),%eax
    2a92:	85 c0                	test   %eax,%eax
    2a94:	74 0e                	je     2aa4 <device_setup_uhci+0x214>
    2a96:	89 04 24             	mov    %eax,(%esp)
    2a99:	89 4d b0             	mov    %ecx,-0x50(%ebp)
    2a9c:	e8 8f 47 00 00       	call   7230 <ddf_fun_destroy>
    2aa1:	8b 4d b0             	mov    -0x50(%ebp),%ecx
    2aa4:	89 0c 24             	mov    %ecx,(%esp)
    2aa7:	89 4d b0             	mov    %ecx,-0x50(%ebp)
    2aaa:	e8 21 fe 00 00       	call   128d0 <str_error>
    2aaf:	c7 44 24 08 c8 bb 02 	movl   $0x2bbc8,0x8(%esp)
    2ab6:	00 
    2ab7:	89 44 24 0c          	mov    %eax,0xc(%esp)
    2abb:	c7 44 24 04 01 00 00 	movl   $0x1,0x4(%esp)
    2ac2:	00 
    2ac3:	c7 04 24 ff ff ff ff 	movl   $0xffffffff,(%esp)
    2aca:	e8 31 4a 01 00       	call   17500 <log_msg>
    2acf:	8b 4d b0             	mov    -0x50(%ebp),%ecx
    2ad2:	e9 51 ff ff ff       	jmp    2a28 <device_setup_uhci+0x198>
    2ad7:	90                   	nop
    2ad8:	8b 07                	mov    (%edi),%eax
    2ada:	85 c0                	test   %eax,%eax
    2adc:	74 17                	je     2af5 <device_setup_uhci+0x265>
    2ade:	89 04 24             	mov    %eax,(%esp)
    2ae1:	e8 4a 47 00 00       	call   7230 <ddf_fun_destroy>
    2ae6:	8b 47 04             	mov    0x4(%edi),%eax
    2ae9:	85 c0                	test   %eax,%eax
    2aeb:	74 08                	je     2af5 <device_setup_uhci+0x265>
    2aed:	89 04 24             	mov    %eax,(%esp)
    2af0:	e8 3b 47 00 00       	call   7230 <ddf_fun_destroy>
    2af5:	c7 44 24 08 50 bb 02 	movl   $0x2bb50,0x8(%esp)
    2afc:	00 
    2afd:	c7 44 24 04 01 00 00 	movl   $0x1,0x4(%esp)
    2b04:	00 
    2b05:	c7 04 24 ff ff ff ff 	movl   $0xffffffff,(%esp)
    2b0c:	e8 ef 49 01 00       	call   17500 <log_msg>
    2b11:	8d 65 f4             	lea    -0xc(%ebp),%esp
    2b14:	b9 fe ff ff ff       	mov    $0xfffffffe,%ecx
    2b19:	5b                   	pop    %ebx
    2b1a:	89 c8                	mov    %ecx,%eax
    2b1c:	5e                   	pop    %esi
    2b1d:	5f                   	pop    %edi
    2b1e:	5d                   	pop    %ebp
    2b1f:	c3                   	ret    
    2b20:	b9 f6 ff ff ff       	mov    $0xfffffff6,%ecx
    2b25:	e9 fe fe ff ff       	jmp    2a28 <device_setup_uhci+0x198>
    2b2a:	c7 44 24 08 08 bb 02 	movl   $0x2bb08,0x8(%esp)
    2b31:	00 
    2b32:	c7 44 24 04 01 00 00 	movl   $0x1,0x4(%esp)
    2b39:	00 
    2b3a:	c7 04 24 ff ff ff ff 	movl   $0xffffffff,(%esp)
    2b41:	e8 ba 49 01 00       	call   17500 <log_msg>
    2b46:	b9 fe ff ff ff       	mov    $0xfffffffe,%ecx
    2b4b:	e9 d8 fe ff ff       	jmp    2a28 <device_setup_uhci+0x198>
    2b50:	e8 bb e7 ff ff       	call   1310 <hc_irq_pio_range_count>
    2b55:	89 45 bc             	mov    %eax,-0x44(%ebp)
    2b58:	e8 c3 e7 ff ff       	call   1320 <hc_irq_cmd_count>
    2b5d:	8b 4d bc             	mov    -0x44(%ebp),%ecx
    2b60:	89 45 c0             	mov    %eax,-0x40(%ebp)
    2b63:	c1 e1 03             	shl    $0x3,%ecx
    2b66:	8d 41 12             	lea    0x12(%ecx),%eax
    2b69:	83 e0 f0             	and    $0xfffffff0,%eax
    2b6c:	29 c4                	sub    %eax,%esp
    2b6e:	8d 54 24 18          	lea    0x18(%esp),%edx
    2b72:	89 55 b8             	mov    %edx,-0x48(%ebp)
    2b75:	8b 55 c0             	mov    -0x40(%ebp),%edx
    2b78:	8d 04 92             	lea    (%edx,%edx,4),%eax
    2b7b:	8d 14 85 00 00 00 00 	lea    0x0(,%eax,4),%edx
    2b82:	8d 42 12             	lea    0x12(%edx),%eax
    2b85:	83 e0 f0             	and    $0xfffffff0,%eax
    2b88:	29 c4                	sub    %eax,%esp
    2b8a:	8d 44 24 18          	lea    0x18(%esp),%eax
    2b8e:	89 54 24 0c          	mov    %edx,0xc(%esp)
    2b92:	89 45 b4             	mov    %eax,-0x4c(%ebp)
    2b95:	8b 45 d0             	mov    -0x30(%ebp),%eax
    2b98:	8b 55 b4             	mov    -0x4c(%ebp),%edx
    2b9b:	89 44 24 14          	mov    %eax,0x14(%esp)
    2b9f:	89 54 24 08          	mov    %edx,0x8(%esp)
    2ba3:	8b 45 cc             	mov    -0x34(%ebp),%eax
    2ba6:	8b 55 b8             	mov    -0x48(%ebp),%edx
    2ba9:	89 4c 24 04          	mov    %ecx,0x4(%esp)
    2bad:	89 44 24 10          	mov    %eax,0x10(%esp)
    2bb1:	89 14 24             	mov    %edx,(%esp)
    2bb4:	e8 77 e7 ff ff       	call   1330 <hc_get_irq_code>
    2bb9:	89 c1                	mov    %eax,%ecx
    2bbb:	85 c0                	test   %eax,%eax
    2bbd:	74 5c                	je     2c1b <device_setup_uhci+0x38b>
    2bbf:	8b 07                	mov    (%edi),%eax
    2bc1:	85 c0                	test   %eax,%eax
    2bc3:	74 0e                	je     2bd3 <device_setup_uhci+0x343>
    2bc5:	89 04 24             	mov    %eax,(%esp)
    2bc8:	89 4d b0             	mov    %ecx,-0x50(%ebp)
    2bcb:	e8 60 46 00 00       	call   7230 <ddf_fun_destroy>
    2bd0:	8b 4d b0             	mov    -0x50(%ebp),%ecx
    2bd3:	8b 47 04             	mov    0x4(%edi),%eax
    2bd6:	85 c0                	test   %eax,%eax
    2bd8:	74 0e                	je     2be8 <device_setup_uhci+0x358>
    2bda:	89 04 24             	mov    %eax,(%esp)
    2bdd:	89 4d b0             	mov    %ecx,-0x50(%ebp)
    2be0:	e8 4b 46 00 00       	call   7230 <ddf_fun_destroy>
    2be5:	8b 4d b0             	mov    -0x50(%ebp),%ecx
    2be8:	89 0c 24             	mov    %ecx,(%esp)
    2beb:	89 4d b0             	mov    %ecx,-0x50(%ebp)
    2bee:	e8 dd fc 00 00       	call   128d0 <str_error>
    2bf3:	c7 44 24 08 ec bb 02 	movl   $0x2bbec,0x8(%esp)
    2bfa:	00 
    2bfb:	89 44 24 0c          	mov    %eax,0xc(%esp)
    2bff:	c7 44 24 04 01 00 00 	movl   $0x1,0x4(%esp)
    2c06:	00 
    2c07:	c7 04 24 ff ff ff ff 	movl   $0xffffffff,(%esp)
    2c0e:	e8 ed 48 01 00       	call   17500 <log_msg>
    2c13:	8b 4d b0             	mov    -0x50(%ebp),%ecx
    2c16:	e9 0d fe ff ff       	jmp    2a28 <device_setup_uhci+0x198>
    2c1b:	8b 45 bc             	mov    -0x44(%ebp),%eax
    2c1e:	8b 55 b8             	mov    -0x48(%ebp),%edx
    2c21:	89 45 d8             	mov    %eax,-0x28(%ebp)
    2c24:	8b 45 c0             	mov    -0x40(%ebp),%eax
    2c27:	89 45 e0             	mov    %eax,-0x20(%ebp)
    2c2a:	8d 45 d8             	lea    -0x28(%ebp),%eax
    2c2d:	89 44 24 0c          	mov    %eax,0xc(%esp)
    2c31:	8b 45 d4             	mov    -0x2c(%ebp),%eax
    2c34:	89 55 dc             	mov    %edx,-0x24(%ebp)
    2c37:	c7 44 24 08 10 28 00 	movl   $0x2810,0x8(%esp)
    2c3e:	00 
    2c3f:	8b 55 b4             	mov    -0x4c(%ebp),%edx
    2c42:	89 44 24 04          	mov    %eax,0x4(%esp)
    2c46:	89 1c 24             	mov    %ebx,(%esp)
    2c49:	89 55 e4             	mov    %edx,-0x1c(%ebp)
    2c4c:	e8 af 4c 00 00       	call   7900 <register_interrupt_handler>
    2c51:	89 c1                	mov    %eax,%ecx
    2c53:	85 c0                	test   %eax,%eax
    2c55:	74 5c                	je     2cb3 <device_setup_uhci+0x423>
    2c57:	8b 07                	mov    (%edi),%eax
    2c59:	85 c0                	test   %eax,%eax
    2c5b:	74 0e                	je     2c6b <device_setup_uhci+0x3db>
    2c5d:	89 04 24             	mov    %eax,(%esp)
    2c60:	89 4d b0             	mov    %ecx,-0x50(%ebp)
    2c63:	e8 c8 45 00 00       	call   7230 <ddf_fun_destroy>
    2c68:	8b 4d b0             	mov    -0x50(%ebp),%ecx
    2c6b:	8b 47 04             	mov    0x4(%edi),%eax
    2c6e:	85 c0                	test   %eax,%eax
    2c70:	74 0e                	je     2c80 <device_setup_uhci+0x3f0>
    2c72:	89 04 24             	mov    %eax,(%esp)
    2c75:	89 4d b0             	mov    %ecx,-0x50(%ebp)
    2c78:	e8 b3 45 00 00       	call   7230 <ddf_fun_destroy>
    2c7d:	8b 4d b0             	mov    -0x50(%ebp),%ecx
    2c80:	89 0c 24             	mov    %ecx,(%esp)
    2c83:	89 4d b0             	mov    %ecx,-0x50(%ebp)
    2c86:	e8 45 fc 00 00       	call   128d0 <str_error>
    2c8b:	c7 44 24 08 14 bc 02 	movl   $0x2bc14,0x8(%esp)
    2c92:	00 
    2c93:	89 44 24 0c          	mov    %eax,0xc(%esp)
    2c97:	c7 44 24 04 01 00 00 	movl   $0x1,0x4(%esp)
    2c9e:	00 
    2c9f:	c7 04 24 ff ff ff ff 	movl   $0xffffffff,(%esp)
    2ca6:	e8 55 48 01 00       	call   17500 <log_msg>
    2cab:	8b 4d b0             	mov    -0x50(%ebp),%ecx
    2cae:	e9 75 fd ff ff       	jmp    2a28 <device_setup_uhci+0x198>
    2cb3:	89 1c 24             	mov    %ebx,(%esp)
    2cb6:	e8 d5 f0 ff ff       	call   1d90 <enable_interrupts>
    2cbb:	85 c0                	test   %eax,%eax
    2cbd:	0f 84 ab 00 00 00    	je     2d6e <device_setup_uhci+0x4de>
    2cc3:	89 04 24             	mov    %eax,(%esp)
    2cc6:	e8 05 fc 00 00       	call   128d0 <str_error>
    2ccb:	c7 44 24 08 40 bc 02 	movl   $0x2bc40,0x8(%esp)
    2cd2:	00 
    2cd3:	89 44 24 0c          	mov    %eax,0xc(%esp)
    2cd7:	c7 44 24 04 02 00 00 	movl   $0x2,0x4(%esp)
    2cde:	00 
    2cdf:	c7 04 24 ff ff ff ff 	movl   $0xffffffff,(%esp)
    2ce6:	e8 15 48 01 00       	call   17500 <log_msg>
    2ceb:	31 c0                	xor    %eax,%eax
    2ced:	25 ff 00 00 00       	and    $0xff,%eax
    2cf2:	89 34 24             	mov    %esi,(%esp)
    2cf5:	89 44 24 0c          	mov    %eax,0xc(%esp)
    2cf9:	8b 45 d0             	mov    -0x30(%ebp),%eax
    2cfc:	89 44 24 08          	mov    %eax,0x8(%esp)
    2d00:	8b 45 cc             	mov    -0x34(%ebp),%eax
    2d03:	89 44 24 04          	mov    %eax,0x4(%esp)
    2d07:	e8 34 e9 ff ff       	call   1640 <hc_init>
    2d0c:	89 c1                	mov    %eax,%ecx
    2d0e:	8b 07                	mov    (%edi),%eax
    2d10:	85 c9                	test   %ecx,%ecx
    2d12:	74 7d                	je     2d91 <device_setup_uhci+0x501>
    2d14:	85 c0                	test   %eax,%eax
    2d16:	74 0e                	je     2d26 <device_setup_uhci+0x496>
    2d18:	89 04 24             	mov    %eax,(%esp)
    2d1b:	89 4d b0             	mov    %ecx,-0x50(%ebp)
    2d1e:	e8 0d 45 00 00       	call   7230 <ddf_fun_destroy>
    2d23:	8b 4d b0             	mov    -0x50(%ebp),%ecx
    2d26:	8b 47 04             	mov    0x4(%edi),%eax
    2d29:	85 c0                	test   %eax,%eax
    2d2b:	74 0e                	je     2d3b <device_setup_uhci+0x4ab>
    2d2d:	89 04 24             	mov    %eax,(%esp)
    2d30:	89 4d b0             	mov    %ecx,-0x50(%ebp)
    2d33:	e8 f8 44 00 00       	call   7230 <ddf_fun_destroy>
    2d38:	8b 4d b0             	mov    -0x50(%ebp),%ecx
    2d3b:	89 0c 24             	mov    %ecx,(%esp)
    2d3e:	89 4d b0             	mov    %ecx,-0x50(%ebp)
    2d41:	e8 8a fb 00 00       	call   128d0 <str_error>
    2d46:	c7 44 24 08 ad ba 02 	movl   $0x2baad,0x8(%esp)
    2d4d:	00 
    2d4e:	89 44 24 0c          	mov    %eax,0xc(%esp)
    2d52:	c7 44 24 04 01 00 00 	movl   $0x1,0x4(%esp)
    2d59:	00 
    2d5a:	c7 04 24 ff ff ff ff 	movl   $0xffffffff,(%esp)
    2d61:	e8 9a 47 01 00       	call   17500 <log_msg>
    2d66:	8b 4d b0             	mov    -0x50(%ebp),%ecx
    2d69:	e9 ba fc ff ff       	jmp    2a28 <device_setup_uhci+0x198>
    2d6e:	c7 44 24 08 95 ba 02 	movl   $0x2ba95,0x8(%esp)
    2d75:	00 
    2d76:	c7 44 24 04 04 00 00 	movl   $0x4,0x4(%esp)
    2d7d:	00 
    2d7e:	c7 04 24 ff ff ff ff 	movl   $0xffffffff,(%esp)
    2d85:	e8 76 47 01 00       	call   17500 <log_msg>
    2d8a:	b0 01                	mov    $0x1,%al
    2d8c:	e9 5c ff ff ff       	jmp    2ced <device_setup_uhci+0x45d>
    2d91:	89 04 24             	mov    %eax,(%esp)
    2d94:	e8 a7 45 00 00       	call   7340 <ddf_fun_bind>
    2d99:	89 c1                	mov    %eax,%ecx
    2d9b:	85 c0                	test   %eax,%eax
    2d9d:	74 5c                	je     2dfb <device_setup_uhci+0x56b>
    2d9f:	8b 07                	mov    (%edi),%eax
    2da1:	85 c0                	test   %eax,%eax
    2da3:	74 0e                	je     2db3 <device_setup_uhci+0x523>
    2da5:	89 04 24             	mov    %eax,(%esp)
    2da8:	89 4d b0             	mov    %ecx,-0x50(%ebp)
    2dab:	e8 80 44 00 00       	call   7230 <ddf_fun_destroy>
    2db0:	8b 4d b0             	mov    -0x50(%ebp),%ecx
    2db3:	8b 47 04             	mov    0x4(%edi),%eax
    2db6:	85 c0                	test   %eax,%eax
    2db8:	74 0e                	je     2dc8 <device_setup_uhci+0x538>
    2dba:	89 04 24             	mov    %eax,(%esp)
    2dbd:	89 4d b0             	mov    %ecx,-0x50(%ebp)
    2dc0:	e8 6b 44 00 00       	call   7230 <ddf_fun_destroy>
    2dc5:	8b 4d b0             	mov    -0x50(%ebp),%ecx
    2dc8:	89 0c 24             	mov    %ecx,(%esp)
    2dcb:	89 4d b0             	mov    %ecx,-0x50(%ebp)
    2dce:	e8 fd fa 00 00       	call   128d0 <str_error>
    2dd3:	c7 44 24 08 7c bc 02 	movl   $0x2bc7c,0x8(%esp)
    2dda:	00 
    2ddb:	89 44 24 0c          	mov    %eax,0xc(%esp)
    2ddf:	c7 44 24 04 01 00 00 	movl   $0x1,0x4(%esp)
    2de6:	00 
    2de7:	c7 04 24 ff ff ff ff 	movl   $0xffffffff,(%esp)
    2dee:	e8 0d 47 01 00       	call   17500 <log_msg>
    2df3:	8b 4d b0             	mov    -0x50(%ebp),%ecx
    2df6:	e9 2d fc ff ff       	jmp    2a28 <device_setup_uhci+0x198>
    2dfb:	c7 44 24 04 cb ba 02 	movl   $0x2bacb,0x4(%esp)
    2e02:	00 
    2e03:	8b 07                	mov    (%edi),%eax
    2e05:	89 04 24             	mov    %eax,(%esp)
    2e08:	e8 b3 48 00 00       	call   76c0 <ddf_fun_add_to_category>
    2e0d:	89 c1                	mov    %eax,%ecx
    2e0f:	85 c0                	test   %eax,%eax
    2e11:	74 5c                	je     2e6f <device_setup_uhci+0x5df>
    2e13:	8b 07                	mov    (%edi),%eax
    2e15:	85 c0                	test   %eax,%eax
    2e17:	74 0e                	je     2e27 <device_setup_uhci+0x597>
    2e19:	89 04 24             	mov    %eax,(%esp)
    2e1c:	89 4d b0             	mov    %ecx,-0x50(%ebp)
    2e1f:	e8 0c 44 00 00       	call   7230 <ddf_fun_destroy>
    2e24:	8b 4d b0             	mov    -0x50(%ebp),%ecx
    2e27:	8b 47 04             	mov    0x4(%edi),%eax
    2e2a:	85 c0                	test   %eax,%eax
    2e2c:	74 0e                	je     2e3c <device_setup_uhci+0x5ac>
    2e2e:	89 04 24             	mov    %eax,(%esp)
    2e31:	89 4d b0             	mov    %ecx,-0x50(%ebp)
    2e34:	e8 f7 43 00 00       	call   7230 <ddf_fun_destroy>
    2e39:	8b 4d b0             	mov    -0x50(%ebp),%ecx
    2e3c:	89 0c 24             	mov    %ecx,(%esp)
    2e3f:	89 4d b0             	mov    %ecx,-0x50(%ebp)
    2e42:	e8 89 fa 00 00       	call   128d0 <str_error>
    2e47:	c7 44 24 08 a8 bc 02 	movl   $0x2bca8,0x8(%esp)
    2e4e:	00 
    2e4f:	89 44 24 0c          	mov    %eax,0xc(%esp)
    2e53:	c7 44 24 04 01 00 00 	movl   $0x1,0x4(%esp)
    2e5a:	00 
    2e5b:	c7 04 24 ff ff ff ff 	movl   $0xffffffff,(%esp)
    2e62:	e8 99 46 01 00       	call   17500 <log_msg>
    2e67:	8b 4d b0             	mov    -0x50(%ebp),%ecx
    2e6a:	e9 b9 fb ff ff       	jmp    2a28 <device_setup_uhci+0x198>
    2e6f:	c7 44 24 0c 04 00 00 	movl   $0x4,0xc(%esp)
    2e76:	00 
    2e77:	8b 55 c4             	mov    -0x3c(%ebp),%edx
    2e7a:	8b 87 94 06 00 00    	mov    0x694(%edi),%eax
    2e80:	83 c0 10             	add    $0x10,%eax
    2e83:	89 44 24 08          	mov    %eax,0x8(%esp)
    2e87:	8b 47 04             	mov    0x4(%edi),%eax
    2e8a:	89 14 24             	mov    %edx,(%esp)
    2e8d:	89 44 24 04          	mov    %eax,0x4(%esp)
    2e91:	e8 ea ef ff ff       	call   1e80 <rh_init>
    2e96:	89 c1                	mov    %eax,%ecx
    2e98:	85 c0                	test   %eax,%eax
    2e9a:	74 5c                	je     2ef8 <device_setup_uhci+0x668>
    2e9c:	8b 07                	mov    (%edi),%eax
    2e9e:	85 c0                	test   %eax,%eax
    2ea0:	74 0e                	je     2eb0 <device_setup_uhci+0x620>
    2ea2:	89 04 24             	mov    %eax,(%esp)
    2ea5:	89 4d b0             	mov    %ecx,-0x50(%ebp)
    2ea8:	e8 83 43 00 00       	call   7230 <ddf_fun_destroy>
    2ead:	8b 4d b0             	mov    -0x50(%ebp),%ecx
    2eb0:	8b 47 04             	mov    0x4(%edi),%eax
    2eb3:	85 c0                	test   %eax,%eax
    2eb5:	74 0e                	je     2ec5 <device_setup_uhci+0x635>
    2eb7:	89 04 24             	mov    %eax,(%esp)
    2eba:	89 4d b0             	mov    %ecx,-0x50(%ebp)
    2ebd:	e8 6e 43 00 00       	call   7230 <ddf_fun_destroy>
    2ec2:	8b 4d b0             	mov    -0x50(%ebp),%ecx
    2ec5:	89 0c 24             	mov    %ecx,(%esp)
    2ec8:	89 4d b0             	mov    %ecx,-0x50(%ebp)
    2ecb:	e8 00 fa 00 00       	call   128d0 <str_error>
    2ed0:	c7 44 24 08 d0 bc 02 	movl   $0x2bcd0,0x8(%esp)
    2ed7:	00 
    2ed8:	89 44 24 0c          	mov    %eax,0xc(%esp)
    2edc:	c7 44 24 04 01 00 00 	movl   $0x1,0x4(%esp)
    2ee3:	00 
    2ee4:	c7 04 24 ff ff ff ff 	movl   $0xffffffff,(%esp)
    2eeb:	e8 10 46 01 00       	call   17500 <log_msg>
    2ef0:	8b 4d b0             	mov    -0x50(%ebp),%ecx
    2ef3:	e9 30 fb ff ff       	jmp    2a28 <device_setup_uhci+0x198>
    2ef8:	8b 47 04             	mov    0x4(%edi),%eax
    2efb:	89 04 24             	mov    %eax,(%esp)
    2efe:	e8 3d 44 00 00       	call   7340 <ddf_fun_bind>
    2f03:	89 c1                	mov    %eax,%ecx
    2f05:	85 c0                	test   %eax,%eax
    2f07:	0f 84 1b fb ff ff    	je     2a28 <device_setup_uhci+0x198>
    2f0d:	8b 07                	mov    (%edi),%eax
    2f0f:	85 c0                	test   %eax,%eax
    2f11:	74 0e                	je     2f21 <device_setup_uhci+0x691>
    2f13:	89 04 24             	mov    %eax,(%esp)
    2f16:	89 4d b0             	mov    %ecx,-0x50(%ebp)
    2f19:	e8 12 43 00 00       	call   7230 <ddf_fun_destroy>
    2f1e:	8b 4d b0             	mov    -0x50(%ebp),%ecx
    2f21:	8b 47 04             	mov    0x4(%edi),%eax
    2f24:	85 c0                	test   %eax,%eax
    2f26:	74 0e                	je     2f36 <device_setup_uhci+0x6a6>
    2f28:	89 04 24             	mov    %eax,(%esp)
    2f2b:	89 4d b0             	mov    %ecx,-0x50(%ebp)
    2f2e:	e8 fd 42 00 00       	call   7230 <ddf_fun_destroy>
    2f33:	8b 4d b0             	mov    -0x50(%ebp),%ecx
    2f36:	89 0c 24             	mov    %ecx,(%esp)
    2f39:	89 4d b0             	mov    %ecx,-0x50(%ebp)
    2f3c:	e8 8f f9 00 00       	call   128d0 <str_error>
    2f41:	c7 44 24 08 f4 bc 02 	movl   $0x2bcf4,0x8(%esp)
    2f48:	00 
    2f49:	89 44 24 0c          	mov    %eax,0xc(%esp)
    2f4d:	c7 44 24 04 01 00 00 	movl   $0x1,0x4(%esp)
    2f54:	00 
    2f55:	c7 04 24 ff ff ff ff 	movl   $0xffffffff,(%esp)
    2f5c:	e8 9f 45 01 00       	call   17500 <log_msg>
    2f61:	8b 4d b0             	mov    -0x50(%ebp),%ecx
    2f64:	e9 bf fa ff ff       	jmp    2a28 <device_setup_uhci+0x198>
    2f69:	66 90                	xchg   %ax,%ax
    2f6b:	66 90                	xchg   %ax,%ax
    2f6d:	66 90                	xchg   %ax,%ax
    2f6f:	90                   	nop

00002f70 <batch_data>:
    2f70:	55                   	push   %ebp
    2f71:	89 e5                	mov    %esp,%ebp
    2f73:	57                   	push   %edi
    2f74:	56                   	push   %esi
    2f75:	53                   	push   %ebx
    2f76:	83 ec 7c             	sub    $0x7c,%esp
    2f79:	8b 75 08             	mov    0x8(%ebp),%esi
    2f7c:	8b 55 0c             	mov    0xc(%ebp),%edx
    2f7f:	85 f6                	test   %esi,%esi
    2f81:	0f 84 9f 02 00 00    	je     3226 <batch_data+0x2b6>
    2f87:	8b 46 10             	mov    0x10(%esi),%eax
    2f8a:	85 c0                	test   %eax,%eax
    2f8c:	0f 84 78 02 00 00    	je     320a <batch_data+0x29a>
    2f92:	8b 00                	mov    (%eax),%eax
    2f94:	85 c0                	test   %eax,%eax
    2f96:	0f 84 fa 02 00 00    	je     3296 <batch_data+0x326>
    2f9c:	83 fa 01             	cmp    $0x1,%edx
    2f9f:	0f 87 d5 02 00 00    	ja     327a <batch_data+0x30a>
    2fa5:	8b 14 95 28 c1 02 00 	mov    0x2c128(,%edx,4),%edx
    2fac:	8b 48 14             	mov    0x14(%eax),%ecx
    2faf:	89 55 d0             	mov    %edx,-0x30(%ebp)
    2fb2:	8b 50 18             	mov    0x18(%eax),%edx
    2fb5:	85 c9                	test   %ecx,%ecx
    2fb7:	89 55 d8             	mov    %edx,-0x28(%ebp)
    2fba:	0f 94 45 e0          	sete   -0x20(%ebp)
    2fbe:	66 8b 48 0a          	mov    0xa(%eax),%cx
    2fc2:	c1 e1 10             	shl    $0x10,%ecx
    2fc5:	31 d2                	xor    %edx,%edx
    2fc7:	66 8b 50 08          	mov    0x8(%eax),%dx
    2fcb:	89 04 24             	mov    %eax,(%esp)
    2fce:	09 d1                	or     %edx,%ecx
    2fd0:	89 4d d4             	mov    %ecx,-0x2c(%ebp)
    2fd3:	e8 88 15 00 00       	call   4560 <endpoint_toggle_get>
    2fd8:	89 c7                	mov    %eax,%edi
    2fda:	83 f8 01             	cmp    $0x1,%eax
    2fdd:	0f 87 7b 02 00 00    	ja     325e <batch_data+0x2ee>
    2fe3:	8b 5e 10             	mov    0x10(%esi),%ebx
    2fe6:	8b 56 0c             	mov    0xc(%esi),%edx
    2fe9:	85 d2                	test   %edx,%edx
    2feb:	8b 43 14             	mov    0x14(%ebx),%eax
    2fee:	89 45 e4             	mov    %eax,-0x1c(%ebp)
    2ff1:	0f 84 4b 02 00 00    	je     3242 <batch_data+0x2d2>
    2ff7:	8b 46 08             	mov    0x8(%esi),%eax
    2ffa:	89 c1                	mov    %eax,%ecx
    2ffc:	c1 e1 04             	shl    $0x4,%ecx
    2fff:	8d 4c 0a 08          	lea    0x8(%edx,%ecx,1),%ecx
    3003:	8b 53 20             	mov    0x20(%ebx),%edx
    3006:	01 d1                	add    %edx,%ecx
    3008:	8b 55 e4             	mov    -0x1c(%ebp),%edx
    300b:	89 4d dc             	mov    %ecx,-0x24(%ebp)
    300e:	85 d2                	test   %edx,%edx
    3010:	0f 84 b2 01 00 00    	je     31c8 <batch_data+0x258>
    3016:	8a 4d e0             	mov    -0x20(%ebp),%cl
    3019:	31 d2                	xor    %edx,%edx
    301b:	81 e1 ff 00 00 00    	and    $0xff,%ecx
    3021:	89 7d e0             	mov    %edi,-0x20(%ebp)
    3024:	89 4d cc             	mov    %ecx,-0x34(%ebp)
    3027:	eb 0c                	jmp    3035 <batch_data+0xc5>
    3029:	8d b4 26 00 00 00 00 	lea    0x0(%esi,%eiz,1),%esi
    3030:	8b 46 08             	mov    0x8(%esi),%eax
    3033:	89 fa                	mov    %edi,%edx
    3035:	8b 5d e4             	mov    -0x1c(%ebp),%ebx
    3038:	8b 4d d8             	mov    -0x28(%ebp),%ecx
    303b:	39 cb                	cmp    %ecx,%ebx
    303d:	76 02                	jbe    3041 <batch_data+0xd1>
    303f:	89 cb                	mov    %ecx,%ebx
    3041:	8d 7a 01             	lea    0x1(%edx),%edi
    3044:	31 c9                	xor    %ecx,%ecx
    3046:	39 c7                	cmp    %eax,%edi
    3048:	73 08                	jae    3052 <batch_data+0xe2>
    304a:	89 f9                	mov    %edi,%ecx
    304c:	c1 e1 04             	shl    $0x4,%ecx
    304f:	03 4e 04             	add    0x4(%esi),%ecx
    3052:	39 d0                	cmp    %edx,%eax
    3054:	0f 86 78 01 00 00    	jbe    31d2 <batch_data+0x262>
    305a:	8b 45 dc             	mov    -0x24(%ebp),%eax
    305d:	89 4c 24 24          	mov    %ecx,0x24(%esp)
    3061:	89 44 24 20          	mov    %eax,0x20(%esp)
    3065:	8b 4d d0             	mov    -0x30(%ebp),%ecx
    3068:	8b 45 cc             	mov    -0x34(%ebp),%eax
    306b:	89 4c 24 1c          	mov    %ecx,0x1c(%esp)
    306f:	89 44 24 14          	mov    %eax,0x14(%esp)
    3073:	8b 4d d4             	mov    -0x2c(%ebp),%ecx
    3076:	8b 45 e0             	mov    -0x20(%ebp),%eax
    3079:	89 4c 24 18          	mov    %ecx,0x18(%esp)
    307d:	c7 44 24 10 00 00 00 	movl   $0x0,0x10(%esp)
    3084:	00 
    3085:	89 44 24 0c          	mov    %eax,0xc(%esp)
    3089:	89 5c 24 08          	mov    %ebx,0x8(%esp)
    308d:	c7 44 24 04 03 00 00 	movl   $0x3,0x4(%esp)
    3094:	00 
    3095:	c1 e2 04             	shl    $0x4,%edx
    3098:	8b 46 04             	mov    0x4(%esi),%eax
    309b:	01 c2                	add    %eax,%edx
    309d:	89 14 24             	mov    %edx,(%esp)
    30a0:	e8 ab 0f 00 00       	call   4050 <td_init>
    30a5:	8b 55 e0             	mov    -0x20(%ebp),%edx
    30a8:	8b 4d dc             	mov    -0x24(%ebp),%ecx
    30ab:	b8 01 00 00 00       	mov    $0x1,%eax
    30b0:	29 d0                	sub    %edx,%eax
    30b2:	01 d9                	add    %ebx,%ecx
    30b4:	29 5d e4             	sub    %ebx,-0x1c(%ebp)
    30b7:	89 45 e0             	mov    %eax,-0x20(%ebp)
    30ba:	89 4d dc             	mov    %ecx,-0x24(%ebp)
    30bd:	0f 85 6d ff ff ff    	jne    3030 <batch_data+0xc0>
    30c3:	89 f8                	mov    %edi,%eax
    30c5:	8b 7d e0             	mov    -0x20(%ebp),%edi
    30c8:	48                   	dec    %eax
    30c9:	c1 e0 04             	shl    $0x4,%eax
    30cc:	8b 56 04             	mov    0x4(%esi),%edx
    30cf:	01 c2                	add    %eax,%edx
    30d1:	0f 84 17 01 00 00    	je     31ee <batch_data+0x27e>
    30d7:	8b 42 04             	mov    0x4(%edx),%eax
    30da:	0d 00 00 00 01       	or     $0x1000000,%eax
    30df:	89 42 04             	mov    %eax,0x4(%edx)
    30e2:	89 7c 24 04          	mov    %edi,0x4(%esp)
    30e6:	8b 46 10             	mov    0x10(%esi),%eax
    30e9:	8b 00                	mov    (%eax),%eax
    30eb:	89 04 24             	mov    %eax,(%esp)
    30ee:	e8 ed 14 00 00       	call   45e0 <endpoint_toggle_set>
    30f3:	8b 4e 10             	mov    0x10(%esi),%ecx
    30f6:	8b 01                	mov    (%ecx),%eax
    30f8:	8b 79 14             	mov    0x14(%ecx),%edi
    30fb:	8b 50 18             	mov    0x18(%eax),%edx
    30fe:	8b 40 0c             	mov    0xc(%eax),%eax
    3101:	89 04 24             	mov    %eax,(%esp)
    3104:	89 55 c8             	mov    %edx,-0x38(%ebp)
    3107:	e8 04 35 00 00       	call   6610 <usb_str_direction>
    310c:	89 c1                	mov    %eax,%ecx
    310e:	8b 46 10             	mov    0x10(%esi),%eax
    3111:	8b 00                	mov    (%eax),%eax
    3113:	8b 40 10             	mov    0x10(%eax),%eax
    3116:	89 4d c4             	mov    %ecx,-0x3c(%ebp)
    3119:	89 04 24             	mov    %eax,(%esp)
    311c:	e8 cf 34 00 00       	call   65f0 <usb_str_transfer_type_short>
    3121:	89 45 e4             	mov    %eax,-0x1c(%ebp)
    3124:	8b 46 10             	mov    0x10(%esi),%eax
    3127:	8b 00                	mov    (%eax),%eax
    3129:	8b 40 14             	mov    0x14(%eax),%eax
    312c:	89 04 24             	mov    %eax,(%esp)
    312f:	e8 fc 34 00 00       	call   6630 <usb_str_speed>
    3134:	89 45 dc             	mov    %eax,-0x24(%ebp)
    3137:	8b 46 10             	mov    0x10(%esi),%eax
    313a:	8b 00                	mov    (%eax),%eax
    313c:	0f bf 58 0a          	movswl 0xa(%eax),%ebx
    3140:	89 5d e0             	mov    %ebx,-0x20(%ebp)
    3143:	0f bf 58 08          	movswl 0x8(%eax),%ebx
    3147:	8b 40 0c             	mov    0xc(%eax),%eax
    314a:	89 5d d8             	mov    %ebx,-0x28(%ebp)
    314d:	89 04 24             	mov    %eax,(%esp)
    3150:	e8 bb 34 00 00       	call   6610 <usb_str_direction>
    3155:	89 c3                	mov    %eax,%ebx
    3157:	8b 46 10             	mov    0x10(%esi),%eax
    315a:	8b 00                	mov    (%eax),%eax
    315c:	8b 40 10             	mov    0x10(%eax),%eax
    315f:	89 04 24             	mov    %eax,(%esp)
    3162:	e8 69 34 00 00       	call   65d0 <usb_str_transfer_type>
    3167:	8b 55 c8             	mov    -0x38(%ebp),%edx
    316a:	8b 4d c4             	mov    -0x3c(%ebp),%ecx
    316d:	89 54 24 30          	mov    %edx,0x30(%esp)
    3171:	89 4c 24 28          	mov    %ecx,0x28(%esp)
    3175:	8b 55 e4             	mov    -0x1c(%ebp),%edx
    3178:	8b 4d dc             	mov    -0x24(%ebp),%ecx
    317b:	89 54 24 24          	mov    %edx,0x24(%esp)
    317f:	89 4c 24 20          	mov    %ecx,0x20(%esp)
    3183:	8b 55 e0             	mov    -0x20(%ebp),%edx
    3186:	8b 4d d8             	mov    -0x28(%ebp),%ecx
    3189:	89 7c 24 2c          	mov    %edi,0x2c(%esp)
    318d:	89 5c 24 14          	mov    %ebx,0x14(%esp)
    3191:	89 54 24 1c          	mov    %edx,0x1c(%esp)
    3195:	89 4c 24 18          	mov    %ecx,0x18(%esp)
    3199:	89 44 24 10          	mov    %eax,0x10(%esp)
    319d:	8b 46 10             	mov    0x10(%esi),%eax
    31a0:	c7 44 24 08 1c be 02 	movl   $0x2be1c,0x8(%esp)
    31a7:	00 
    31a8:	89 44 24 0c          	mov    %eax,0xc(%esp)
    31ac:	c7 44 24 04 05 00 00 	movl   $0x5,0x4(%esp)
    31b3:	00 
    31b4:	c7 04 24 ff ff ff ff 	movl   $0xffffffff,(%esp)
    31bb:	e8 40 43 01 00       	call   17500 <log_msg>
    31c0:	83 c4 7c             	add    $0x7c,%esp
    31c3:	5b                   	pop    %ebx
    31c4:	5e                   	pop    %esi
    31c5:	5f                   	pop    %edi
    31c6:	5d                   	pop    %ebp
    31c7:	c3                   	ret    
    31c8:	b8 f0 ff ff ff       	mov    $0xfffffff0,%eax
    31cd:	e9 fa fe ff ff       	jmp    30cc <batch_data+0x15c>
    31d2:	c7 44 24 08 f2 00 00 	movl   $0xf2,0x8(%esp)
    31d9:	00 
    31da:	c7 44 24 04 1b bd 02 	movl   $0x2bd1b,0x4(%esp)
    31e1:	00 
    31e2:	c7 04 24 77 bd 02 00 	movl   $0x2bd77,(%esp)
    31e9:	e8 12 3c 02 00       	call   26e00 <assert_abort>
    31ee:	c7 44 24 08 a0 00 00 	movl   $0xa0,0x8(%esp)
    31f5:	00 
    31f6:	c7 44 24 04 fc bd 02 	movl   $0x2bdfc,0x4(%esp)
    31fd:	00 
    31fe:	c7 04 24 96 b4 02 00 	movl   $0x2b496,(%esp)
    3205:	e8 f6 3b 02 00       	call   26e00 <assert_abort>
    320a:	c7 44 24 08 d8 00 00 	movl   $0xd8,0x8(%esp)
    3211:	00 
    3212:	c7 44 24 04 1b bd 02 	movl   $0x2bd1b,0x4(%esp)
    3219:	00 
    321a:	c7 04 24 da b8 02 00 	movl   $0x2b8da,(%esp)
    3221:	e8 da 3b 02 00       	call   26e00 <assert_abort>
    3226:	c7 44 24 08 d7 00 00 	movl   $0xd7,0x8(%esp)
    322d:	00 
    322e:	c7 44 24 04 1b bd 02 	movl   $0x2bd1b,0x4(%esp)
    3235:	00 
    3236:	c7 04 24 81 b8 02 00 	movl   $0x2b881,(%esp)
    323d:	e8 be 3b 02 00       	call   26e00 <assert_abort>
    3242:	c7 44 24 08 4a 00 00 	movl   $0x4a,0x8(%esp)
    3249:	00 
    324a:	c7 44 24 04 45 b8 02 	movl   $0x2b845,0x4(%esp)
    3251:	00 
    3252:	c7 04 24 5d bd 02 00 	movl   $0x2bd5d,(%esp)
    3259:	e8 a2 3b 02 00       	call   26e00 <assert_abort>
    325e:	c7 44 24 08 e6 00 00 	movl   $0xe6,0x8(%esp)
    3265:	00 
    3266:	c7 44 24 04 1b bd 02 	movl   $0x2bd1b,0x4(%esp)
    326d:	00 
    326e:	c7 04 24 42 bd 02 00 	movl   $0x2bd42,(%esp)
    3275:	e8 86 3b 02 00       	call   26e00 <assert_abort>
    327a:	c7 44 24 08 da 00 00 	movl   $0xda,0x8(%esp)
    3281:	00 
    3282:	c7 44 24 04 1b bd 02 	movl   $0x2bd1b,0x4(%esp)
    3289:	00 
    328a:	c7 04 24 c8 bd 02 00 	movl   $0x2bdc8,(%esp)
    3291:	e8 6a 3b 02 00       	call   26e00 <assert_abort>
    3296:	c7 44 24 08 d9 00 00 	movl   $0xd9,0x8(%esp)
    329d:	00 
    329e:	c7 44 24 04 1b bd 02 	movl   $0x2bd1b,0x4(%esp)
    32a5:	00 
    32a6:	c7 04 24 28 bd 02 00 	movl   $0x2bd28,(%esp)
    32ad:	e8 4e 3b 02 00       	call   26e00 <assert_abort>
    32b2:	8d b4 26 00 00 00 00 	lea    0x0(%esi,%eiz,1),%esi
    32b9:	8d bc 27 00 00 00 00 	lea    0x0(%edi,%eiz,1),%edi

000032c0 <batch_control>:
    32c0:	55                   	push   %ebp
    32c1:	89 e5                	mov    %esp,%ebp
    32c3:	57                   	push   %edi
    32c4:	56                   	push   %esi
    32c5:	53                   	push   %ebx
    32c6:	83 ec 5c             	sub    $0x5c,%esp
    32c9:	8b 7d 08             	mov    0x8(%ebp),%edi
    32cc:	8b 45 0c             	mov    0xc(%ebp),%eax
    32cf:	85 ff                	test   %edi,%edi
    32d1:	0f 84 a2 02 00 00    	je     3579 <batch_control+0x2b9>
    32d7:	8b 4f 10             	mov    0x10(%edi),%ecx
    32da:	85 c9                	test   %ecx,%ecx
    32dc:	0f 84 7b 02 00 00    	je     355d <batch_control+0x29d>
    32e2:	8b 11                	mov    (%ecx),%edx
    32e4:	85 d2                	test   %edx,%edx
    32e6:	0f 84 fd 02 00 00    	je     35e9 <batch_control+0x329>
    32ec:	83 f8 01             	cmp    $0x1,%eax
    32ef:	0f 87 d8 02 00 00    	ja     35cd <batch_control+0x30d>
    32f5:	8b 77 08             	mov    0x8(%edi),%esi
    32f8:	83 fe 01             	cmp    $0x1,%esi
    32fb:	0f 86 b0 02 00 00    	jbe    35b1 <batch_control+0x2f1>
    3301:	8b 1c 85 28 c1 02 00 	mov    0x2c128(,%eax,4),%ebx
    3308:	8b 04 85 30 c1 02 00 	mov    0x2c130(,%eax,4),%eax
    330f:	89 5d d0             	mov    %ebx,-0x30(%ebp)
    3312:	89 45 cc             	mov    %eax,-0x34(%ebp)
    3315:	8b 5a 14             	mov    0x14(%edx),%ebx
    3318:	8b 42 18             	mov    0x18(%edx),%eax
    331b:	85 db                	test   %ebx,%ebx
    331d:	89 45 dc             	mov    %eax,-0x24(%ebp)
    3320:	0f 94 45 e4          	sete   -0x1c(%ebp)
    3324:	31 c0                	xor    %eax,%eax
    3326:	66 8b 42 08          	mov    0x8(%edx),%ax
    332a:	66 8b 52 0a          	mov    0xa(%edx),%dx
    332e:	89 d3                	mov    %edx,%ebx
    3330:	c1 e3 10             	shl    $0x10,%ebx
    3333:	09 c3                	or     %eax,%ebx
    3335:	89 5d d8             	mov    %ebx,-0x28(%ebp)
    3338:	8b 5f 04             	mov    0x4(%edi),%ebx
    333b:	8d 43 10             	lea    0x10(%ebx),%eax
    333e:	89 45 e0             	mov    %eax,-0x20(%ebp)
    3341:	8b 47 0c             	mov    0xc(%edi),%eax
    3344:	85 c0                	test   %eax,%eax
    3346:	0f 84 49 02 00 00    	je     3595 <batch_control+0x2d5>
    334c:	8a 55 e4             	mov    -0x1c(%ebp),%dl
    334f:	c7 44 24 1c 2d ff ff 	movl   $0xffffff2d,0x1c(%esp)
    3356:	ff 
    3357:	81 e2 ff 00 00 00    	and    $0xff,%edx
    335d:	c7 44 24 10 00 00 00 	movl   $0x0,0x10(%esp)
    3364:	00 
    3365:	89 55 d4             	mov    %edx,-0x2c(%ebp)
    3368:	8b 55 e0             	mov    -0x20(%ebp),%edx
    336b:	89 54 24 24          	mov    %edx,0x24(%esp)
    336f:	89 f2                	mov    %esi,%edx
    3371:	c1 e2 04             	shl    $0x4,%edx
    3374:	c7 44 24 0c 00 00 00 	movl   $0x0,0xc(%esp)
    337b:	00 
    337c:	8d 44 10 08          	lea    0x8(%eax,%edx,1),%eax
    3380:	8b 55 d4             	mov    -0x2c(%ebp),%edx
    3383:	89 44 24 20          	mov    %eax,0x20(%esp)
    3387:	8b 45 d8             	mov    -0x28(%ebp),%eax
    338a:	89 44 24 18          	mov    %eax,0x18(%esp)
    338e:	89 54 24 14          	mov    %edx,0x14(%esp)
    3392:	8b 41 20             	mov    0x20(%ecx),%eax
    3395:	89 1c 24             	mov    %ebx,(%esp)
    3398:	89 44 24 08          	mov    %eax,0x8(%esp)
    339c:	c7 44 24 04 03 00 00 	movl   $0x3,0x4(%esp)
    33a3:	00 
    33a4:	e8 a7 0c 00 00       	call   4050 <td_init>
    33a9:	8b 77 10             	mov    0x10(%edi),%esi
    33ac:	8b 47 0c             	mov    0xc(%edi),%eax
    33af:	8b 5e 14             	mov    0x14(%esi),%ebx
    33b2:	85 c0                	test   %eax,%eax
    33b4:	0f 84 db 01 00 00    	je     3595 <batch_control+0x2d5>
    33ba:	8b 4f 08             	mov    0x8(%edi),%ecx
    33bd:	89 ca                	mov    %ecx,%edx
    33bf:	c1 e2 04             	shl    $0x4,%edx
    33c2:	8d 54 10 08          	lea    0x8(%eax,%edx,1),%edx
    33c6:	8b 46 20             	mov    0x20(%esi),%eax
    33c9:	01 c2                	add    %eax,%edx
    33cb:	85 db                	test   %ebx,%ebx
    33cd:	89 55 e4             	mov    %edx,-0x1c(%ebp)
    33d0:	0f 84 45 01 00 00    	je     351b <batch_control+0x25b>
    33d6:	c7 45 e0 01 00 00 00 	movl   $0x1,-0x20(%ebp)
    33dd:	b8 01 00 00 00       	mov    $0x1,%eax
    33e2:	89 fa                	mov    %edi,%edx
    33e4:	8d 74 26 00          	lea    0x0(%esi,%eiz,1),%esi
    33e8:	89 de                	mov    %ebx,%esi
    33ea:	3b 5d dc             	cmp    -0x24(%ebp),%ebx
    33ed:	76 03                	jbe    33f2 <batch_control+0x132>
    33ef:	8b 75 dc             	mov    -0x24(%ebp),%esi
    33f2:	8d 78 01             	lea    0x1(%eax),%edi
    33f5:	29 f3                	sub    %esi,%ebx
    33f7:	c1 e0 04             	shl    $0x4,%eax
    33fa:	89 f9                	mov    %edi,%ecx
    33fc:	c1 e1 04             	shl    $0x4,%ecx
    33ff:	03 4a 04             	add    0x4(%edx),%ecx
    3402:	c7 44 24 10 00 00 00 	movl   $0x0,0x10(%esp)
    3409:	00 
    340a:	89 4c 24 24          	mov    %ecx,0x24(%esp)
    340e:	8b 4d e4             	mov    -0x1c(%ebp),%ecx
    3411:	89 4c 24 20          	mov    %ecx,0x20(%esp)
    3415:	8b 4d d0             	mov    -0x30(%ebp),%ecx
    3418:	89 4c 24 1c          	mov    %ecx,0x1c(%esp)
    341c:	8b 4d d8             	mov    -0x28(%ebp),%ecx
    341f:	89 4c 24 18          	mov    %ecx,0x18(%esp)
    3423:	8b 4d d4             	mov    -0x2c(%ebp),%ecx
    3426:	89 4c 24 14          	mov    %ecx,0x14(%esp)
    342a:	8b 4d e0             	mov    -0x20(%ebp),%ecx
    342d:	89 4c 24 0c          	mov    %ecx,0xc(%esp)
    3431:	89 74 24 08          	mov    %esi,0x8(%esp)
    3435:	c7 44 24 04 03 00 00 	movl   $0x3,0x4(%esp)
    343c:	00 
    343d:	8b 4a 04             	mov    0x4(%edx),%ecx
    3440:	89 55 c8             	mov    %edx,-0x38(%ebp)
    3443:	01 c8                	add    %ecx,%eax
    3445:	89 04 24             	mov    %eax,(%esp)
    3448:	e8 03 0c 00 00       	call   4050 <td_init>
    344d:	8b 55 e0             	mov    -0x20(%ebp),%edx
    3450:	b8 01 00 00 00       	mov    $0x1,%eax
    3455:	8b 4d e4             	mov    -0x1c(%ebp),%ecx
    3458:	29 d0                	sub    %edx,%eax
    345a:	8b 55 c8             	mov    -0x38(%ebp),%edx
    345d:	01 f1                	add    %esi,%ecx
    345f:	89 45 e0             	mov    %eax,-0x20(%ebp)
    3462:	89 4d e4             	mov    %ecx,-0x1c(%ebp)
    3465:	8b 4a 08             	mov    0x8(%edx),%ecx
    3468:	39 cf                	cmp    %ecx,%edi
    346a:	0f 83 b5 00 00 00    	jae    3525 <batch_control+0x265>
    3470:	89 f8                	mov    %edi,%eax
    3472:	85 db                	test   %ebx,%ebx
    3474:	0f 85 6e ff ff ff    	jne    33e8 <batch_control+0x128>
    347a:	89 d0                	mov    %edx,%eax
    347c:	89 fa                	mov    %edi,%edx
    347e:	89 c7                	mov    %eax,%edi
    3480:	49                   	dec    %ecx
    3481:	39 d1                	cmp    %edx,%ecx
    3483:	0f 85 7c 01 00 00    	jne    3605 <batch_control+0x345>
    3489:	8b 45 d4             	mov    -0x2c(%ebp),%eax
    348c:	89 d3                	mov    %edx,%ebx
    348e:	8b 4d d8             	mov    -0x28(%ebp),%ecx
    3491:	8b 55 cc             	mov    -0x34(%ebp),%edx
    3494:	c7 44 24 24 00 00 00 	movl   $0x0,0x24(%esp)
    349b:	00 
    349c:	c7 44 24 20 00 00 00 	movl   $0x0,0x20(%esp)
    34a3:	00 
    34a4:	89 54 24 1c          	mov    %edx,0x1c(%esp)
    34a8:	89 4c 24 18          	mov    %ecx,0x18(%esp)
    34ac:	89 44 24 14          	mov    %eax,0x14(%esp)
    34b0:	c7 44 24 10 00 00 00 	movl   $0x0,0x10(%esp)
    34b7:	00 
    34b8:	c7 44 24 0c 01 00 00 	movl   $0x1,0xc(%esp)
    34bf:	00 
    34c0:	c7 44 24 08 00 00 00 	movl   $0x0,0x8(%esp)
    34c7:	00 
    34c8:	c1 e3 04             	shl    $0x4,%ebx
    34cb:	c7 44 24 04 03 00 00 	movl   $0x3,0x4(%esp)
    34d2:	00 
    34d3:	8b 47 04             	mov    0x4(%edi),%eax
    34d6:	01 d8                	add    %ebx,%eax
    34d8:	89 04 24             	mov    %eax,(%esp)
    34db:	e8 70 0b 00 00       	call   4050 <td_init>
    34e0:	03 5f 04             	add    0x4(%edi),%ebx
    34e3:	74 5c                	je     3541 <batch_control+0x281>
    34e5:	8b 43 04             	mov    0x4(%ebx),%eax
    34e8:	0d 00 00 00 01       	or     $0x1000000,%eax
    34ed:	89 43 04             	mov    %eax,0x4(%ebx)
    34f0:	8b 43 04             	mov    0x4(%ebx),%eax
    34f3:	c7 44 24 08 ab bd 02 	movl   $0x2bdab,0x8(%esp)
    34fa:	00 
    34fb:	89 44 24 0c          	mov    %eax,0xc(%esp)
    34ff:	c7 44 24 04 05 00 00 	movl   $0x5,0x4(%esp)
    3506:	00 
    3507:	c7 04 24 ff ff ff ff 	movl   $0xffffffff,(%esp)
    350e:	e8 ed 3f 01 00       	call   17500 <log_msg>
    3513:	83 c4 5c             	add    $0x5c,%esp
    3516:	5b                   	pop    %ebx
    3517:	5e                   	pop    %esi
    3518:	5f                   	pop    %edi
    3519:	5d                   	pop    %ebp
    351a:	c3                   	ret    
    351b:	ba 01 00 00 00       	mov    $0x1,%edx
    3520:	e9 5b ff ff ff       	jmp    3480 <batch_control+0x1c0>
    3525:	c7 44 24 08 3f 01 00 	movl   $0x13f,0x8(%esp)
    352c:	00 
    352d:	c7 44 24 04 1b bd 02 	movl   $0x2bd1b,0x4(%esp)
    3534:	00 
    3535:	c7 04 24 77 bd 02 00 	movl   $0x2bd77,(%esp)
    353c:	e8 bf 38 02 00       	call   26e00 <assert_abort>
    3541:	c7 44 24 08 a0 00 00 	movl   $0xa0,0x8(%esp)
    3548:	00 
    3549:	c7 44 24 04 fc bd 02 	movl   $0x2bdfc,0x4(%esp)
    3550:	00 
    3551:	c7 04 24 96 b4 02 00 	movl   $0x2b496,(%esp)
    3558:	e8 a3 38 02 00       	call   26e00 <assert_abort>
    355d:	c7 44 24 08 14 01 00 	movl   $0x114,0x8(%esp)
    3564:	00 
    3565:	c7 44 24 04 1b bd 02 	movl   $0x2bd1b,0x4(%esp)
    356c:	00 
    356d:	c7 04 24 da b8 02 00 	movl   $0x2b8da,(%esp)
    3574:	e8 87 38 02 00       	call   26e00 <assert_abort>
    3579:	c7 44 24 08 13 01 00 	movl   $0x113,0x8(%esp)
    3580:	00 
    3581:	c7 44 24 04 1b bd 02 	movl   $0x2bd1b,0x4(%esp)
    3588:	00 
    3589:	c7 04 24 81 b8 02 00 	movl   $0x2b881,(%esp)
    3590:	e8 6b 38 02 00       	call   26e00 <assert_abort>
    3595:	c7 44 24 08 4a 00 00 	movl   $0x4a,0x8(%esp)
    359c:	00 
    359d:	c7 44 24 04 45 b8 02 	movl   $0x2b845,0x4(%esp)
    35a4:	00 
    35a5:	c7 04 24 5d bd 02 00 	movl   $0x2bd5d,(%esp)
    35ac:	e8 4f 38 02 00       	call   26e00 <assert_abort>
    35b1:	c7 44 24 08 17 01 00 	movl   $0x117,0x8(%esp)
    35b8:	00 
    35b9:	c7 44 24 04 1b bd 02 	movl   $0x2bd1b,0x4(%esp)
    35c0:	00 
    35c1:	c7 04 24 91 bd 02 00 	movl   $0x2bd91,(%esp)
    35c8:	e8 33 38 02 00       	call   26e00 <assert_abort>
    35cd:	c7 44 24 08 16 01 00 	movl   $0x116,0x8(%esp)
    35d4:	00 
    35d5:	c7 44 24 04 1b bd 02 	movl   $0x2bd1b,0x4(%esp)
    35dc:	00 
    35dd:	c7 04 24 c8 bd 02 00 	movl   $0x2bdc8,(%esp)
    35e4:	e8 17 38 02 00       	call   26e00 <assert_abort>
    35e9:	c7 44 24 08 15 01 00 	movl   $0x115,0x8(%esp)
    35f0:	00 
    35f1:	c7 44 24 04 1b bd 02 	movl   $0x2bd1b,0x4(%esp)
    35f8:	00 
    35f9:	c7 04 24 28 bd 02 00 	movl   $0x2bd28,(%esp)
    3600:	e8 fb 37 02 00       	call   26e00 <assert_abort>
    3605:	c7 44 24 08 43 01 00 	movl   $0x143,0x8(%esp)
    360c:	00 
    360d:	c7 44 24 04 1b bd 02 	movl   $0x2bd1b,0x4(%esp)
    3614:	00 
    3615:	c7 04 24 54 be 02 00 	movl   $0x2be54,(%esp)
    361c:	e8 df 37 02 00       	call   26e00 <assert_abort>
    3621:	eb 0d                	jmp    3630 <uhci_transfer_batch_finish_dispose>
    3623:	90                   	nop
    3624:	90                   	nop
    3625:	90                   	nop
    3626:	90                   	nop
    3627:	90                   	nop
    3628:	90                   	nop
    3629:	90                   	nop
    362a:	90                   	nop
    362b:	90                   	nop
    362c:	90                   	nop
    362d:	90                   	nop
    362e:	90                   	nop
    362f:	90                   	nop

00003630 <uhci_transfer_batch_finish_dispose>:
    3630:	55                   	push   %ebp
    3631:	89 e5                	mov    %esp,%ebp
    3633:	53                   	push   %ebx
    3634:	83 ec 14             	sub    $0x14,%esp
    3637:	8b 5d 08             	mov    0x8(%ebp),%ebx
    363a:	85 db                	test   %ebx,%ebx
    363c:	74 5e                	je     369c <uhci_transfer_batch_finish_dispose+0x6c>
    363e:	8b 43 10             	mov    0x10(%ebx),%eax
    3641:	85 c0                	test   %eax,%eax
    3643:	0f 84 8b 00 00 00    	je     36d4 <uhci_transfer_batch_finish_dispose+0xa4>
    3649:	8b 4b 0c             	mov    0xc(%ebx),%ecx
    364c:	85 c9                	test   %ecx,%ecx
    364e:	74 68                	je     36b8 <uhci_transfer_batch_finish_dispose+0x88>
    3650:	8b 50 2c             	mov    0x2c(%eax),%edx
    3653:	89 54 24 0c          	mov    %edx,0xc(%esp)
    3657:	8b 50 28             	mov    0x28(%eax),%edx
    365a:	89 54 24 08          	mov    %edx,0x8(%esp)
    365e:	8b 53 08             	mov    0x8(%ebx),%edx
    3661:	c1 e2 04             	shl    $0x4,%edx
    3664:	8d 54 11 08          	lea    0x8(%ecx,%edx,1),%edx
    3668:	8b 48 20             	mov    0x20(%eax),%ecx
    366b:	01 ca                	add    %ecx,%edx
    366d:	89 04 24             	mov    %eax,(%esp)
    3670:	89 54 24 04          	mov    %edx,0x4(%esp)
    3674:	e8 e7 2c 00 00       	call   6360 <usb_transfer_batch_finish_error>
    3679:	8b 43 10             	mov    0x10(%ebx),%eax
    367c:	89 04 24             	mov    %eax,(%esp)
    367f:	e8 ec 2b 00 00       	call   6270 <usb_transfer_batch_destroy>
    3684:	8b 43 0c             	mov    0xc(%ebx),%eax
    3687:	89 04 24             	mov    %eax,(%esp)
    368a:	e8 21 90 01 00       	call   1c6b0 <free>
    368f:	89 5d 08             	mov    %ebx,0x8(%ebp)
    3692:	83 c4 14             	add    $0x14,%esp
    3695:	5b                   	pop    %ebx
    3696:	5d                   	pop    %ebp
    3697:	e9 14 90 01 00       	jmp    1c6b0 <free>
    369c:	c7 44 24 08 43 00 00 	movl   $0x43,0x8(%esp)
    36a3:	00 
    36a4:	c7 44 24 04 1b bd 02 	movl   $0x2bd1b,0x4(%esp)
    36ab:	00 
    36ac:	c7 04 24 81 b8 02 00 	movl   $0x2b881,(%esp)
    36b3:	e8 48 37 02 00       	call   26e00 <assert_abort>
    36b8:	c7 44 24 08 4a 00 00 	movl   $0x4a,0x8(%esp)
    36bf:	00 
    36c0:	c7 44 24 04 45 b8 02 	movl   $0x2b845,0x4(%esp)
    36c7:	00 
    36c8:	c7 04 24 5d bd 02 00 	movl   $0x2bd5d,(%esp)
    36cf:	e8 2c 37 02 00       	call   26e00 <assert_abort>
    36d4:	c7 44 24 08 44 00 00 	movl   $0x44,0x8(%esp)
    36db:	00 
    36dc:	c7 44 24 04 1b bd 02 	movl   $0x2bd1b,0x4(%esp)
    36e3:	00 
    36e4:	c7 04 24 da b8 02 00 	movl   $0x2b8da,(%esp)
    36eb:	e8 10 37 02 00       	call   26e00 <assert_abort>

000036f0 <uhci_transfer_batch_get>:
    36f0:	55                   	push   %ebp
    36f1:	89 e5                	mov    %esp,%ebp
    36f3:	57                   	push   %edi
    36f4:	56                   	push   %esi
    36f5:	53                   	push   %ebx
    36f6:	83 ec 5c             	sub    $0x5c,%esp
    36f9:	8b 5d 08             	mov    0x8(%ebp),%ebx
    36fc:	c7 44 24 04 1c 00 00 	movl   $0x1c,0x4(%esp)
    3703:	00 
    3704:	c7 04 24 01 00 00 00 	movl   $0x1,(%esp)
    370b:	e8 30 8e 01 00       	call   1c540 <calloc>
    3710:	89 c7                	mov    %eax,%edi
    3712:	85 c0                	test   %eax,%eax
    3714:	0f 84 ea 02 00 00    	je     3a04 <uhci_transfer_batch_get+0x314>
    371a:	8b 0b                	mov    (%ebx),%ecx
    371c:	8b 73 14             	mov    0x14(%ebx),%esi
    371f:	c7 40 14 00 00 00 00 	movl   $0x0,0x14(%eax)
    3726:	c7 40 18 00 00 00 00 	movl   $0x0,0x18(%eax)
    372d:	8b 51 18             	mov    0x18(%ecx),%edx
    3730:	8d 44 16 ff          	lea    -0x1(%esi,%edx,1),%eax
    3734:	31 d2                	xor    %edx,%edx
    3736:	f7 71 18             	divl   0x18(%ecx)
    3739:	8b 49 10             	mov    0x10(%ecx),%ecx
    373c:	89 47 08             	mov    %eax,0x8(%edi)
    373f:	85 c9                	test   %ecx,%ecx
    3741:	0f 84 c9 01 00 00    	je     3910 <uhci_transfer_batch_get+0x220>
    3747:	c1 e0 04             	shl    $0x4,%eax
    374a:	8b 53 20             	mov    0x20(%ebx),%edx
    374d:	01 d6                	add    %edx,%esi
    374f:	8d 74 06 08          	lea    0x8(%esi,%eax,1),%esi
    3753:	81 fe 00 10 00 00    	cmp    $0x1000,%esi
    3759:	0f 87 39 02 00 00    	ja     3998 <uhci_transfer_batch_get+0x2a8>
    375f:	b8 10 00 00 00       	mov    $0x10,%eax
    3764:	83 fe 10             	cmp    $0x10,%esi
    3767:	76 0d                	jbe    3776 <uhci_transfer_batch_get+0x86>
    3769:	8d b4 26 00 00 00 00 	lea    0x0(%esi,%eiz,1),%esi
    3770:	01 c0                	add    %eax,%eax
    3772:	39 c6                	cmp    %eax,%esi
    3774:	77 fa                	ja     3770 <uhci_transfer_batch_get+0x80>
    3776:	89 74 24 04          	mov    %esi,0x4(%esp)
    377a:	89 04 24             	mov    %eax,(%esp)
    377d:	e8 5e 8e 01 00       	call   1c5e0 <memalign>
    3782:	89 47 0c             	mov    %eax,0xc(%edi)
    3785:	85 c0                	test   %eax,%eax
    3787:	0f 84 12 02 00 00    	je     399f <uhci_transfer_batch_get+0x2af>
    378d:	89 74 24 08          	mov    %esi,0x8(%esp)
    3791:	c7 44 24 04 00 00 00 	movl   $0x0,0x4(%esp)
    3798:	00 
    3799:	89 04 24             	mov    %eax,(%esp)
    379c:	e8 bf b8 00 00       	call   f060 <memset>
    37a1:	8b 47 08             	mov    0x8(%edi),%eax
    37a4:	c1 e0 04             	shl    $0x4,%eax
    37a7:	8b 57 0c             	mov    0xc(%edi),%edx
    37aa:	89 57 04             	mov    %edx,0x4(%edi)
    37ad:	8d 34 02             	lea    (%edx,%eax,1),%esi
    37b0:	89 37                	mov    %esi,(%edi)
    37b2:	85 f6                	test   %esi,%esi
    37b4:	0f 84 db 02 00 00    	je     3a95 <uhci_transfer_batch_get+0x3a5>
    37ba:	c7 46 04 01 00 00 00 	movl   $0x1,0x4(%esi)
    37c1:	85 d2                	test   %edx,%edx
    37c3:	c7 06 01 00 00 00    	movl   $0x1,(%esi)
    37c9:	0f 84 91 01 00 00    	je     3960 <uhci_transfer_batch_get+0x270>
    37cf:	8d 45 e4             	lea    -0x1c(%ebp),%eax
    37d2:	89 14 24             	mov    %edx,(%esp)
    37d5:	89 44 24 04          	mov    %eax,0x4(%esp)
    37d9:	e8 52 92 00 00       	call   ca30 <as_get_physical_mapping>
    37de:	85 c0                	test   %eax,%eax
    37e0:	0f 85 3a 01 00 00    	jne    3920 <uhci_transfer_batch_get+0x230>
    37e6:	8b 45 e4             	mov    -0x1c(%ebp),%eax
    37e9:	85 c0                	test   %eax,%eax
    37eb:	0f 84 2f 01 00 00    	je     3920 <uhci_transfer_batch_get+0x230>
    37f1:	83 e0 f0             	and    $0xfffffff0,%eax
    37f4:	8b 57 0c             	mov    0xc(%edi),%edx
    37f7:	89 46 04             	mov    %eax,0x4(%esi)
    37fa:	8b 47 08             	mov    0x8(%edi),%eax
    37fd:	c1 e0 04             	shl    $0x4,%eax
    3800:	8d 74 02 08          	lea    0x8(%edx,%eax,1),%esi
    3804:	8b 43 20             	mov    0x20(%ebx),%eax
    3807:	89 44 24 08          	mov    %eax,0x8(%esp)
    380b:	8d 43 18             	lea    0x18(%ebx),%eax
    380e:	89 44 24 04          	mov    %eax,0x4(%esp)
    3812:	89 34 24             	mov    %esi,(%esp)
    3815:	e8 c6 b9 00 00       	call   f1e0 <memcpy>
    381a:	8b 03                	mov    (%ebx),%eax
    381c:	8b 48 0c             	mov    0xc(%eax),%ecx
    381f:	8b 53 20             	mov    0x20(%ebx),%edx
    3822:	85 c9                	test   %ecx,%ecx
    3824:	0f 85 16 01 00 00    	jne    3940 <uhci_transfer_batch_get+0x250>
    382a:	8b 50 18             	mov    0x18(%eax),%edx
    382d:	8b 40 0c             	mov    0xc(%eax),%eax
    3830:	8b 73 14             	mov    0x14(%ebx),%esi
    3833:	89 5f 10             	mov    %ebx,0x10(%edi)
    3836:	89 04 24             	mov    %eax,(%esp)
    3839:	89 55 d4             	mov    %edx,-0x2c(%ebp)
    383c:	e8 cf 2d 00 00       	call   6610 <usb_str_direction>
    3841:	89 c1                	mov    %eax,%ecx
    3843:	8b 03                	mov    (%ebx),%eax
    3845:	8b 40 10             	mov    0x10(%eax),%eax
    3848:	89 4d cc             	mov    %ecx,-0x34(%ebp)
    384b:	89 04 24             	mov    %eax,(%esp)
    384e:	e8 9d 2d 00 00       	call   65f0 <usb_str_transfer_type_short>
    3853:	89 45 d0             	mov    %eax,-0x30(%ebp)
    3856:	8b 03                	mov    (%ebx),%eax
    3858:	8b 40 14             	mov    0x14(%eax),%eax
    385b:	89 04 24             	mov    %eax,(%esp)
    385e:	e8 cd 2d 00 00       	call   6630 <usb_str_speed>
    3863:	8b 55 d4             	mov    -0x2c(%ebp),%edx
    3866:	89 54 24 28          	mov    %edx,0x28(%esp)
    386a:	8b 4d cc             	mov    -0x34(%ebp),%ecx
    386d:	8b 55 d0             	mov    -0x30(%ebp),%edx
    3870:	89 74 24 24          	mov    %esi,0x24(%esp)
    3874:	89 4c 24 20          	mov    %ecx,0x20(%esp)
    3878:	89 54 24 1c          	mov    %edx,0x1c(%esp)
    387c:	89 44 24 18          	mov    %eax,0x18(%esp)
    3880:	8b 13                	mov    (%ebx),%edx
    3882:	0f bf 42 0a          	movswl 0xa(%edx),%eax
    3886:	89 44 24 14          	mov    %eax,0x14(%esp)
    388a:	0f bf 42 08          	movswl 0x8(%edx),%eax
    388e:	89 5c 24 0c          	mov    %ebx,0xc(%esp)
    3892:	89 44 24 10          	mov    %eax,0x10(%esp)
    3896:	c7 44 24 08 b8 be 02 	movl   $0x2beb8,0x8(%esp)
    389d:	00 
    389e:	c7 44 24 04 05 00 00 	movl   $0x5,0x4(%esp)
    38a5:	00 
    38a6:	c7 04 24 ff ff ff ff 	movl   $0xffffffff,(%esp)
    38ad:	e8 4e 3c 01 00       	call   17500 <log_msg>
    38b2:	8b 43 04             	mov    0x4(%ebx),%eax
    38b5:	85 c0                	test   %eax,%eax
    38b7:	0f 84 ab 00 00 00    	je     3968 <uhci_transfer_batch_get+0x278>
    38bd:	8b 43 08             	mov    0x8(%ebx),%eax
    38c0:	85 c0                	test   %eax,%eax
    38c2:	0f 85 e9 01 00 00    	jne    3ab1 <uhci_transfer_batch_get+0x3c1>
    38c8:	8b 03                	mov    (%ebx),%eax
    38ca:	85 c0                	test   %eax,%eax
    38cc:	0f 84 0e 01 00 00    	je     39e0 <uhci_transfer_batch_get+0x2f0>
    38d2:	8b 50 10             	mov    0x10(%eax),%edx
    38d5:	85 d2                	test   %edx,%edx
    38d7:	74 5f                	je     3938 <uhci_transfer_batch_get+0x248>
    38d9:	8b 40 0c             	mov    0xc(%eax),%eax
    38dc:	85 c0                	test   %eax,%eax
    38de:	0f 85 41 01 00 00    	jne    3a25 <uhci_transfer_batch_get+0x335>
    38e4:	89 d0                	mov    %edx,%eax
    38e6:	31 d2                	xor    %edx,%edx
    38e8:	8b 04 85 18 c1 02 00 	mov    0x2c118(,%eax,4),%eax
    38ef:	85 c0                	test   %eax,%eax
    38f1:	0f 84 4a 01 00 00    	je     3a41 <uhci_transfer_batch_get+0x351>
    38f7:	89 54 24 04          	mov    %edx,0x4(%esp)
    38fb:	89 3c 24             	mov    %edi,(%esp)
    38fe:	ff d0                	call   *%eax
    3900:	83 c4 5c             	add    $0x5c,%esp
    3903:	89 f8                	mov    %edi,%eax
    3905:	5b                   	pop    %ebx
    3906:	5e                   	pop    %esi
    3907:	5f                   	pop    %edi
    3908:	5d                   	pop    %ebp
    3909:	c3                   	ret    
    390a:	8d b6 00 00 00 00    	lea    0x0(%esi),%esi
    3910:	83 c0 02             	add    $0x2,%eax
    3913:	89 47 08             	mov    %eax,0x8(%edi)
    3916:	e9 2c fe ff ff       	jmp    3747 <uhci_transfer_batch_get+0x57>
    391b:	90                   	nop
    391c:	8d 74 26 00          	lea    0x0(%esi,%eiz,1),%esi
    3920:	8b 47 08             	mov    0x8(%edi),%eax
    3923:	8b 57 0c             	mov    0xc(%edi),%edx
    3926:	c1 e0 04             	shl    $0x4,%eax
    3929:	c7 46 04 01 00 00 00 	movl   $0x1,0x4(%esi)
    3930:	e9 cb fe ff ff       	jmp    3800 <uhci_transfer_batch_get+0x110>
    3935:	8d 76 00             	lea    0x0(%esi),%esi
    3938:	31 c0                	xor    %eax,%eax
    393a:	31 d2                	xor    %edx,%edx
    393c:	eb aa                	jmp    38e8 <uhci_transfer_batch_get+0x1f8>
    393e:	66 90                	xchg   %ax,%ax
    3940:	8b 43 14             	mov    0x14(%ebx),%eax
    3943:	01 f2                	add    %esi,%edx
    3945:	89 44 24 08          	mov    %eax,0x8(%esp)
    3949:	8b 43 10             	mov    0x10(%ebx),%eax
    394c:	89 14 24             	mov    %edx,(%esp)
    394f:	89 44 24 04          	mov    %eax,0x4(%esp)
    3953:	e8 88 b8 00 00       	call   f1e0 <memcpy>
    3958:	8b 03                	mov    (%ebx),%eax
    395a:	e9 cb fe ff ff       	jmp    382a <uhci_transfer_batch_get+0x13a>
    395f:	90                   	nop
    3960:	31 d2                	xor    %edx,%edx
    3962:	eb c5                	jmp    3929 <uhci_transfer_batch_get+0x239>
    3964:	8d 74 26 00          	lea    0x0(%esi,%eiz,1),%esi
    3968:	8b 73 08             	mov    0x8(%ebx),%esi
    396b:	85 f6                	test   %esi,%esi
    396d:	0f 84 ea 00 00 00    	je     3a5d <uhci_transfer_batch_get+0x36d>
    3973:	8b 13                	mov    (%ebx),%edx
    3975:	85 d2                	test   %edx,%edx
    3977:	74 7f                	je     39f8 <uhci_transfer_batch_get+0x308>
    3979:	8b 42 10             	mov    0x10(%edx),%eax
    397c:	85 c0                	test   %eax,%eax
    397e:	74 6c                	je     39ec <uhci_transfer_batch_get+0x2fc>
    3980:	83 7a 0c 01          	cmpl   $0x1,0xc(%edx)
    3984:	0f 85 ef 00 00 00    	jne    3a79 <uhci_transfer_batch_get+0x389>
    398a:	ba 01 00 00 00       	mov    $0x1,%edx
    398f:	e9 54 ff ff ff       	jmp    38e8 <uhci_transfer_batch_get+0x1f8>
    3994:	8d 74 26 00          	lea    0x0(%esi,%eiz,1),%esi
    3998:	c7 47 0c 00 00 00 00 	movl   $0x0,0xc(%edi)
    399f:	c7 44 24 08 94 be 02 	movl   $0x2be94,0x8(%esp)
    39a6:	00 
    39a7:	c7 44 24 04 01 00 00 	movl   $0x1,0x4(%esp)
    39ae:	00 
    39af:	c7 04 24 ff ff ff ff 	movl   $0xffffffff,(%esp)
    39b6:	e8 45 3b 01 00       	call   17500 <log_msg>
    39bb:	8b 47 10             	mov    0x10(%edi),%eax
    39be:	89 04 24             	mov    %eax,(%esp)
    39c1:	e8 aa 28 00 00       	call   6270 <usb_transfer_batch_destroy>
    39c6:	8b 47 0c             	mov    0xc(%edi),%eax
    39c9:	89 04 24             	mov    %eax,(%esp)
    39cc:	e8 df 8c 01 00       	call   1c6b0 <free>
    39d1:	89 3c 24             	mov    %edi,(%esp)
    39d4:	e8 d7 8c 01 00       	call   1c6b0 <free>
    39d9:	31 ff                	xor    %edi,%edi
    39db:	e9 20 ff ff ff       	jmp    3900 <uhci_transfer_batch_get+0x210>
    39e0:	a1 10 00 00 00       	mov    0x10,%eax
    39e5:	31 d2                	xor    %edx,%edx
    39e7:	e9 fc fe ff ff       	jmp    38e8 <uhci_transfer_batch_get+0x1f8>
    39ec:	31 c0                	xor    %eax,%eax
    39ee:	ba 01 00 00 00       	mov    $0x1,%edx
    39f3:	e9 f0 fe ff ff       	jmp    38e8 <uhci_transfer_batch_get+0x1f8>
    39f8:	a1 10 00 00 00       	mov    0x10,%eax
    39fd:	b2 01                	mov    $0x1,%dl
    39ff:	e9 e4 fe ff ff       	jmp    38e8 <uhci_transfer_batch_get+0x1f8>
    3a04:	c7 44 24 08 74 be 02 	movl   $0x2be74,0x8(%esp)
    3a0b:	00 
    3a0c:	c7 44 24 04 01 00 00 	movl   $0x1,0x4(%esp)
    3a13:	00 
    3a14:	c7 04 24 ff ff ff ff 	movl   $0xffffffff,(%esp)
    3a1b:	e8 e0 3a 01 00       	call   17500 <log_msg>
    3a20:	e9 db fe ff ff       	jmp    3900 <uhci_transfer_batch_get+0x210>
    3a25:	c7 44 24 08 91 00 00 	movl   $0x91,0x8(%esp)
    3a2c:	00 
    3a2d:	c7 44 24 04 f8 be 02 	movl   $0x2bef8,0x4(%esp)
    3a34:	00 
    3a35:	c7 04 24 58 bf 02 00 	movl   $0x2bf58,(%esp)
    3a3c:	e8 bf 33 02 00       	call   26e00 <assert_abort>
    3a41:	c7 44 24 08 8c 00 00 	movl   $0x8c,0x8(%esp)
    3a48:	00 
    3a49:	c7 44 24 04 1b bd 02 	movl   $0x2bd1b,0x4(%esp)
    3a50:	00 
    3a51:	c7 04 24 50 c0 02 00 	movl   $0x2c050,(%esp)
    3a58:	e8 a3 33 02 00       	call   26e00 <assert_abort>
    3a5d:	c7 44 24 08 9b 00 00 	movl   $0x9b,0x8(%esp)
    3a64:	00 
    3a65:	c7 44 24 04 f8 be 02 	movl   $0x2bef8,0x4(%esp)
    3a6c:	00 
    3a6d:	c7 04 24 0e c8 02 00 	movl   $0x2c80e,(%esp)
    3a74:	e8 87 33 02 00       	call   26e00 <assert_abort>
    3a79:	c7 44 24 08 98 00 00 	movl   $0x98,0x8(%esp)
    3a80:	00 
    3a81:	c7 44 24 04 f8 be 02 	movl   $0x2bef8,0x4(%esp)
    3a88:	00 
    3a89:	c7 04 24 d4 bf 02 00 	movl   $0x2bfd4,(%esp)
    3a90:	e8 6b 33 02 00       	call   26e00 <assert_abort>
    3a95:	c7 44 24 08 3a 00 00 	movl   $0x3a,0x8(%esp)
    3a9c:	00 
    3a9d:	c7 44 24 04 9b b8 02 	movl   $0x2b89b,0x4(%esp)
    3aa4:	00 
    3aa5:	c7 04 24 96 b4 02 00 	movl   $0x2b496,(%esp)
    3aac:	e8 4f 33 02 00       	call   26e00 <assert_abort>
    3ab1:	c7 44 24 08 8e 00 00 	movl   $0x8e,0x8(%esp)
    3ab8:	00 
    3ab9:	c7 44 24 04 f8 be 02 	movl   $0x2bef8,0x4(%esp)
    3ac0:	00 
    3ac1:	c7 04 24 38 bf 02 00 	movl   $0x2bf38,(%esp)
    3ac8:	e8 33 33 02 00       	call   26e00 <assert_abort>
    3acd:	8d 76 00             	lea    0x0(%esi),%esi

00003ad0 <uhci_transfer_batch_is_complete>:
    3ad0:	55                   	push   %ebp
    3ad1:	89 e5                	mov    %esp,%ebp
    3ad3:	57                   	push   %edi
    3ad4:	56                   	push   %esi
    3ad5:	53                   	push   %ebx
    3ad6:	83 ec 4c             	sub    $0x4c,%esp
    3ad9:	8b 7d 08             	mov    0x8(%ebp),%edi
    3adc:	85 ff                	test   %edi,%edi
    3ade:	0f 84 75 02 00 00    	je     3d59 <uhci_transfer_batch_is_complete+0x289>
    3ae4:	8b 47 10             	mov    0x10(%edi),%eax
    3ae7:	85 c0                	test   %eax,%eax
    3ae9:	0f 84 32 02 00 00    	je     3d21 <uhci_transfer_batch_is_complete+0x251>
    3aef:	8b 10                	mov    (%eax),%edx
    3af1:	8b 40 14             	mov    0x14(%eax),%eax
    3af4:	89 45 e4             	mov    %eax,-0x1c(%ebp)
    3af7:	8b 77 08             	mov    0x8(%edi),%esi
    3afa:	8b 42 0c             	mov    0xc(%edx),%eax
    3afd:	8b 5a 18             	mov    0x18(%edx),%ebx
    3b00:	89 04 24             	mov    %eax,(%esp)
    3b03:	e8 08 2b 00 00       	call   6610 <usb_str_direction>
    3b08:	89 45 e0             	mov    %eax,-0x20(%ebp)
    3b0b:	8b 47 10             	mov    0x10(%edi),%eax
    3b0e:	8b 00                	mov    (%eax),%eax
    3b10:	8b 40 10             	mov    0x10(%eax),%eax
    3b13:	89 04 24             	mov    %eax,(%esp)
    3b16:	e8 d5 2a 00 00       	call   65f0 <usb_str_transfer_type_short>
    3b1b:	89 45 dc             	mov    %eax,-0x24(%ebp)
    3b1e:	8b 47 10             	mov    0x10(%edi),%eax
    3b21:	8b 00                	mov    (%eax),%eax
    3b23:	8b 40 14             	mov    0x14(%eax),%eax
    3b26:	89 04 24             	mov    %eax,(%esp)
    3b29:	e8 02 2b 00 00       	call   6630 <usb_str_speed>
    3b2e:	8b 57 10             	mov    0x10(%edi),%edx
    3b31:	8b 0a                	mov    (%edx),%ecx
    3b33:	89 5c 24 28          	mov    %ebx,0x28(%esp)
    3b37:	8b 5d e4             	mov    -0x1c(%ebp),%ebx
    3b3a:	89 74 24 2c          	mov    %esi,0x2c(%esp)
    3b3e:	89 5c 24 24          	mov    %ebx,0x24(%esp)
    3b42:	8b 5d e0             	mov    -0x20(%ebp),%ebx
    3b45:	89 5c 24 20          	mov    %ebx,0x20(%esp)
    3b49:	8b 5d dc             	mov    -0x24(%ebp),%ebx
    3b4c:	89 5c 24 1c          	mov    %ebx,0x1c(%esp)
    3b50:	89 44 24 18          	mov    %eax,0x18(%esp)
    3b54:	0f bf 41 0a          	movswl 0xa(%ecx),%eax
    3b58:	89 44 24 14          	mov    %eax,0x14(%esp)
    3b5c:	0f bf 41 08          	movswl 0x8(%ecx),%eax
    3b60:	89 54 24 0c          	mov    %edx,0xc(%esp)
    3b64:	89 44 24 10          	mov    %eax,0x10(%esp)
    3b68:	c7 44 24 08 7c c0 02 	movl   $0x2c07c,0x8(%esp)
    3b6f:	00 
    3b70:	c7 44 24 04 05 00 00 	movl   $0x5,0x4(%esp)
    3b77:	00 
    3b78:	c7 04 24 ff ff ff ff 	movl   $0xffffffff,(%esp)
    3b7f:	e8 7c 39 01 00       	call   17500 <log_msg>
    3b84:	8b 5f 10             	mov    0x10(%edi),%ebx
    3b87:	8b 47 08             	mov    0x8(%edi),%eax
    3b8a:	31 c9                	xor    %ecx,%ecx
    3b8c:	c7 43 28 00 00 00 00 	movl   $0x0,0x28(%ebx)
    3b93:	85 c0                	test   %eax,%eax
    3b95:	0f 84 a1 00 00 00    	je     3c3c <uhci_transfer_batch_is_complete+0x16c>
    3b9b:	8b 47 04             	mov    0x4(%edi),%eax
    3b9e:	85 c0                	test   %eax,%eax
    3ba0:	0f 84 5f 01 00 00    	je     3d05 <uhci_transfer_batch_is_complete+0x235>
    3ba6:	8b 50 04             	mov    0x4(%eax),%edx
    3ba9:	81 e2 00 00 80 00    	and    $0x800000,%edx
    3baf:	0f 85 9b 00 00 00    	jne    3c50 <uhci_transfer_batch_is_complete+0x180>
    3bb5:	31 f6                	xor    %esi,%esi
    3bb7:	c7 45 e0 00 00 00 00 	movl   $0x0,-0x20(%ebp)
    3bbe:	eb 2a                	jmp    3bea <uhci_transfer_batch_is_complete+0x11a>
    3bc0:	8b 75 e0             	mov    -0x20(%ebp),%esi
    3bc3:	46                   	inc    %esi
    3bc4:	89 75 e0             	mov    %esi,-0x20(%ebp)
    3bc7:	8b 55 e0             	mov    -0x20(%ebp),%edx
    3bca:	39 57 08             	cmp    %edx,0x8(%edi)
    3bcd:	76 6d                	jbe    3c3c <uhci_transfer_batch_is_complete+0x16c>
    3bcf:	89 d6                	mov    %edx,%esi
    3bd1:	8b 45 e4             	mov    -0x1c(%ebp),%eax
    3bd4:	c1 e6 04             	shl    $0x4,%esi
    3bd7:	01 f0                	add    %esi,%eax
    3bd9:	0f 84 26 01 00 00    	je     3d05 <uhci_transfer_batch_is_complete+0x235>
    3bdf:	8b 50 04             	mov    0x4(%eax),%edx
    3be2:	81 e2 00 00 80 00    	and    $0x800000,%edx
    3be8:	75 66                	jne    3c50 <uhci_transfer_batch_is_complete+0x180>
    3bea:	89 04 24             	mov    %eax,(%esp)
    3bed:	e8 ee 01 00 00       	call   3de0 <td_status>
    3bf2:	89 43 2c             	mov    %eax,0x2c(%ebx)
    3bf5:	8b 5f 10             	mov    0x10(%edi),%ebx
    3bf8:	8b 43 2c             	mov    0x2c(%ebx),%eax
    3bfb:	85 c0                	test   %eax,%eax
    3bfd:	75 61                	jne    3c60 <uhci_transfer_batch_is_complete+0x190>
    3bff:	8b 57 04             	mov    0x4(%edi),%edx
    3c02:	8b 43 28             	mov    0x28(%ebx),%eax
    3c05:	01 d6                	add    %edx,%esi
    3c07:	89 55 e4             	mov    %edx,-0x1c(%ebp)
    3c0a:	0f 84 d9 00 00 00    	je     3ce9 <uhci_transfer_batch_is_complete+0x219>
    3c10:	8b 4e 04             	mov    0x4(%esi),%ecx
    3c13:	8b 56 04             	mov    0x4(%esi),%edx
    3c16:	41                   	inc    %ecx
    3c17:	42                   	inc    %edx
    3c18:	81 e1 ff 07 00 00    	and    $0x7ff,%ecx
    3c1e:	81 e2 ff 07 00 00    	and    $0x7ff,%edx
    3c24:	01 c1                	add    %eax,%ecx
    3c26:	8b 46 08             	mov    0x8(%esi),%eax
    3c29:	c1 e8 15             	shr    $0x15,%eax
    3c2c:	89 4b 28             	mov    %ecx,0x28(%ebx)
    3c2f:	40                   	inc    %eax
    3c30:	8b 76 04             	mov    0x4(%esi),%esi
    3c33:	25 ff 07 00 00       	and    $0x7ff,%eax
    3c38:	39 d0                	cmp    %edx,%eax
    3c3a:	76 84                	jbe    3bc0 <uhci_transfer_batch_is_complete+0xf0>
    3c3c:	8b 7b 20             	mov    0x20(%ebx),%edi
    3c3f:	b0 01                	mov    $0x1,%al
    3c41:	29 f9                	sub    %edi,%ecx
    3c43:	89 4b 28             	mov    %ecx,0x28(%ebx)
    3c46:	83 c4 4c             	add    $0x4c,%esp
    3c49:	5b                   	pop    %ebx
    3c4a:	5e                   	pop    %esi
    3c4b:	5f                   	pop    %edi
    3c4c:	5d                   	pop    %ebp
    3c4d:	c3                   	ret    
    3c4e:	66 90                	xchg   %ax,%ax
    3c50:	83 c4 4c             	add    $0x4c,%esp
    3c53:	31 c0                	xor    %eax,%eax
    3c55:	5b                   	pop    %ebx
    3c56:	5e                   	pop    %esi
    3c57:	5f                   	pop    %edi
    3c58:	5d                   	pop    %ebp
    3c59:	c3                   	ret    
    3c5a:	8d b6 00 00 00 00    	lea    0x0(%esi),%esi
    3c60:	8b 0b                	mov    (%ebx),%ecx
    3c62:	85 c9                	test   %ecx,%ecx
    3c64:	0f 84 0b 01 00 00    	je     3d75 <uhci_transfer_batch_is_complete+0x2a5>
    3c6a:	8b 47 04             	mov    0x4(%edi),%eax
    3c6d:	01 f0                	add    %esi,%eax
    3c6f:	8b 50 04             	mov    0x4(%eax),%edx
    3c72:	89 44 24 14          	mov    %eax,0x14(%esp)
    3c76:	89 54 24 18          	mov    %edx,0x18(%esp)
    3c7a:	8b 55 e0             	mov    -0x20(%ebp),%edx
    3c7d:	89 54 24 10          	mov    %edx,0x10(%esp)
    3c81:	89 5c 24 0c          	mov    %ebx,0xc(%esp)
    3c85:	c7 44 24 08 f0 c0 02 	movl   $0x2c0f0,0x8(%esp)
    3c8c:	00 
    3c8d:	c7 44 24 04 04 00 00 	movl   $0x4,0x4(%esp)
    3c94:	00 
    3c95:	c7 04 24 ff ff ff ff 	movl   $0xffffffff,(%esp)
    3c9c:	e8 5f 38 01 00       	call   17500 <log_msg>
    3ca1:	8b 47 04             	mov    0x4(%edi),%eax
    3ca4:	01 f0                	add    %esi,%eax
    3ca6:	89 04 24             	mov    %eax,(%esp)
    3ca9:	e8 d2 01 00 00       	call   3e80 <td_print_status>
    3cae:	03 77 04             	add    0x4(%edi),%esi
    3cb1:	0f 84 86 00 00 00    	je     3d3d <uhci_transfer_batch_is_complete+0x26d>
    3cb7:	8b 46 08             	mov    0x8(%esi),%eax
    3cba:	c1 e8 13             	shr    $0x13,%eax
    3cbd:	83 e0 01             	and    $0x1,%eax
    3cc0:	89 44 24 04          	mov    %eax,0x4(%esp)
    3cc4:	8b 47 10             	mov    0x10(%edi),%eax
    3cc7:	8b 00                	mov    (%eax),%eax
    3cc9:	89 04 24             	mov    %eax,(%esp)
    3ccc:	e8 0f 09 00 00       	call   45e0 <endpoint_toggle_set>
    3cd1:	8b 55 e0             	mov    -0x20(%ebp),%edx
    3cd4:	b0 01                	mov    $0x1,%al
    3cd6:	85 d2                	test   %edx,%edx
    3cd8:	0f 84 68 ff ff ff    	je     3c46 <uhci_transfer_batch_is_complete+0x176>
    3cde:	8b 5f 10             	mov    0x10(%edi),%ebx
    3ce1:	8b 4b 28             	mov    0x28(%ebx),%ecx
    3ce4:	e9 53 ff ff ff       	jmp    3c3c <uhci_transfer_batch_is_complete+0x16c>
    3ce9:	c7 44 24 08 6e 00 00 	movl   $0x6e,0x8(%esp)
    3cf0:	00 
    3cf1:	c7 44 24 04 fc bd 02 	movl   $0x2bdfc,0x4(%esp)
    3cf8:	00 
    3cf9:	c7 04 24 96 b4 02 00 	movl   $0x2b496,(%esp)
    3d00:	e8 fb 30 02 00       	call   26e00 <assert_abort>
    3d05:	c7 44 24 08 96 00 00 	movl   $0x96,0x8(%esp)
    3d0c:	00 
    3d0d:	c7 44 24 04 fc bd 02 	movl   $0x2bdfc,0x4(%esp)
    3d14:	00 
    3d15:	c7 04 24 96 b4 02 00 	movl   $0x2b496,(%esp)
    3d1c:	e8 df 30 02 00       	call   26e00 <assert_abort>
    3d21:	c7 44 24 08 9e 00 00 	movl   $0x9e,0x8(%esp)
    3d28:	00 
    3d29:	c7 44 24 04 1b bd 02 	movl   $0x2bd1b,0x4(%esp)
    3d30:	00 
    3d31:	c7 04 24 da b8 02 00 	movl   $0x2b8da,(%esp)
    3d38:	e8 c3 30 02 00       	call   26e00 <assert_abort>
    3d3d:	c7 44 24 08 8b 00 00 	movl   $0x8b,0x8(%esp)
    3d44:	00 
    3d45:	c7 44 24 04 fc bd 02 	movl   $0x2bdfc,0x4(%esp)
    3d4c:	00 
    3d4d:	c7 04 24 96 b4 02 00 	movl   $0x2b496,(%esp)
    3d54:	e8 a7 30 02 00       	call   26e00 <assert_abort>
    3d59:	c7 44 24 08 9d 00 00 	movl   $0x9d,0x8(%esp)
    3d60:	00 
    3d61:	c7 44 24 04 1b bd 02 	movl   $0x2bd1b,0x4(%esp)
    3d68:	00 
    3d69:	c7 04 24 81 b8 02 00 	movl   $0x2b881,(%esp)
    3d70:	e8 8b 30 02 00       	call   26e00 <assert_abort>
    3d75:	c7 44 24 08 ae 00 00 	movl   $0xae,0x8(%esp)
    3d7c:	00 
    3d7d:	c7 44 24 04 1b bd 02 	movl   $0x2bd1b,0x4(%esp)
    3d84:	00 
    3d85:	c7 04 24 cc c0 02 00 	movl   $0x2c0cc,(%esp)
    3d8c:	e8 6f 30 02 00       	call   26e00 <assert_abort>

00003d91 <uhci_transfer_batch_setup_buffer.part.1>:
    3d91:	55                   	push   %ebp
    3d92:	89 e5                	mov    %esp,%ebp
    3d94:	83 ec 18             	sub    $0x18,%esp
    3d97:	c7 44 24 08 49 00 00 	movl   $0x49,0x8(%esp)
    3d9e:	00 
    3d9f:	c7 44 24 04 45 b8 02 	movl   $0x2b845,0x4(%esp)
    3da6:	00 
    3da7:	c7 04 24 81 b8 02 00 	movl   $0x2b881,(%esp)
    3dae:	e8 4d 30 02 00       	call   26e00 <assert_abort>

00003db3 <uhci_transfer_batch_data_buffer.part.2>:
    3db3:	55                   	push   %ebp
    3db4:	89 e5                	mov    %esp,%ebp
    3db6:	83 ec 18             	sub    $0x18,%esp
    3db9:	c7 44 24 08 56 00 00 	movl   $0x56,0x8(%esp)
    3dc0:	00 
    3dc1:	c7 44 24 04 45 b8 02 	movl   $0x2b845,0x4(%esp)
    3dc8:	00 
    3dc9:	c7 04 24 81 b8 02 00 	movl   $0x2b881,(%esp)
    3dd0:	e8 2b 30 02 00       	call   26e00 <assert_abort>
    3dd5:	66 90                	xchg   %ax,%ax
    3dd7:	66 90                	xchg   %ax,%ax
    3dd9:	66 90                	xchg   %ax,%ax
    3ddb:	66 90                	xchg   %ax,%ax
    3ddd:	66 90                	xchg   %ax,%ax
    3ddf:	90                   	nop

00003de0 <td_status>:
    3de0:	55                   	push   %ebp
    3de1:	89 e5                	mov    %esp,%ebp
    3de3:	83 ec 18             	sub    $0x18,%esp
    3de6:	8b 45 08             	mov    0x8(%ebp),%eax
    3de9:	85 c0                	test   %eax,%eax
    3deb:	74 6a                	je     3e57 <td_status+0x77>
    3ded:	8b 50 04             	mov    0x4(%eax),%edx
    3df0:	81 e2 00 00 02 00    	and    $0x20000,%edx
    3df6:	75 40                	jne    3e38 <td_status+0x58>
    3df8:	8b 50 04             	mov    0x4(%eax),%edx
    3dfb:	81 e2 00 00 04 00    	and    $0x40000,%edx
    3e01:	75 3d                	jne    3e40 <td_status+0x60>
    3e03:	8b 50 04             	mov    0x4(%eax),%edx
    3e06:	81 e2 00 00 08 00    	and    $0x80000,%edx
    3e0c:	75 3a                	jne    3e48 <td_status+0x68>
    3e0e:	8b 50 04             	mov    0x4(%eax),%edx
    3e11:	81 e2 00 00 20 00    	and    $0x200000,%edx
    3e17:	75 37                	jne    3e50 <td_status+0x70>
    3e19:	8b 50 04             	mov    0x4(%eax),%edx
    3e1c:	81 e2 00 00 10 00    	and    $0x100000,%edx
    3e22:	75 14                	jne    3e38 <td_status+0x58>
    3e24:	8b 40 04             	mov    0x4(%eax),%eax
    3e27:	c9                   	leave  
    3e28:	c1 e0 09             	shl    $0x9,%eax
    3e2b:	c1 f8 1f             	sar    $0x1f,%eax
    3e2e:	25 d3 fe ff ff       	and    $0xfffffed3,%eax
    3e33:	c3                   	ret    
    3e34:	8d 74 26 00          	lea    0x0(%esi,%eiz,1),%esi
    3e38:	b8 f7 fe ff ff       	mov    $0xfffffef7,%eax
    3e3d:	c9                   	leave  
    3e3e:	c3                   	ret    
    3e3f:	90                   	nop
    3e40:	b8 d4 fe ff ff       	mov    $0xfffffed4,%eax
    3e45:	c9                   	leave  
    3e46:	c3                   	ret    
    3e47:	90                   	nop
    3e48:	b8 06 d5 ff ff       	mov    $0xffffd506,%eax
    3e4d:	c9                   	leave  
    3e4e:	c3                   	ret    
    3e4f:	90                   	nop
    3e50:	b8 f9 fe ff ff       	mov    $0xfffffef9,%eax
    3e55:	c9                   	leave  
    3e56:	c3                   	ret    
    3e57:	c7 44 24 08 75 00 00 	movl   $0x75,0x8(%esp)
    3e5e:	00 
    3e5f:	c7 44 24 04 38 c1 02 	movl   $0x2c138,0x4(%esp)
    3e66:	00 
    3e67:	c7 04 24 96 b4 02 00 	movl   $0x2b496,(%esp)
    3e6e:	e8 8d 2f 02 00       	call   26e00 <assert_abort>
    3e73:	8d b6 00 00 00 00    	lea    0x0(%esi),%esi
    3e79:	8d bc 27 00 00 00 00 	lea    0x0(%edi,%eiz,1),%edi

00003e80 <td_print_status>:
    3e80:	55                   	push   %ebp
    3e81:	89 e5                	mov    %esp,%ebp
    3e83:	57                   	push   %edi
    3e84:	56                   	push   %esi
    3e85:	53                   	push   %ebx
    3e86:	81 ec 8c 00 00 00    	sub    $0x8c,%esp
    3e8c:	8b 55 08             	mov    0x8(%ebp),%edx
    3e8f:	85 d2                	test   %edx,%edx
    3e91:	0f 84 9d 01 00 00    	je     4034 <td_print_status+0x1b4>
    3e97:	8b 42 04             	mov    0x4(%edx),%eax
    3e9a:	8b 4a 04             	mov    0x4(%edx),%ecx
    3e9d:	c7 45 e4 be dc 02 00 	movl   $0x2dcbe,-0x1c(%ebp)
    3ea4:	8d 59 01             	lea    0x1(%ecx),%ebx
    3ea7:	81 e3 ff 07 00 00    	and    $0x7ff,%ebx
    3ead:	a9 00 00 01 00       	test   $0x10000,%eax
    3eb2:	74 07                	je     3ebb <td_print_status+0x3b>
    3eb4:	c7 45 e4 2e c2 02 00 	movl   $0x2c22e,-0x1c(%ebp)
    3ebb:	c7 45 e0 be dc 02 00 	movl   $0x2dcbe,-0x20(%ebp)
    3ec2:	a9 00 00 02 00       	test   $0x20000,%eax
    3ec7:	74 07                	je     3ed0 <td_print_status+0x50>
    3ec9:	c7 45 e0 39 c2 02 00 	movl   $0x2c239,-0x20(%ebp)
    3ed0:	c7 45 dc be dc 02 00 	movl   $0x2dcbe,-0x24(%ebp)
    3ed7:	a9 00 00 04 00       	test   $0x40000,%eax
    3edc:	74 07                	je     3ee5 <td_print_status+0x65>
    3ede:	c7 45 dc 45 c2 02 00 	movl   $0x2c245,-0x24(%ebp)
    3ee5:	c7 45 d8 be dc 02 00 	movl   $0x2dcbe,-0x28(%ebp)
    3eec:	a9 00 00 08 00       	test   $0x80000,%eax
    3ef1:	74 07                	je     3efa <td_print_status+0x7a>
    3ef3:	c7 45 d8 53 c2 02 00 	movl   $0x2c253,-0x28(%ebp)
    3efa:	c7 45 d4 be dc 02 00 	movl   $0x2dcbe,-0x2c(%ebp)
    3f01:	a9 00 00 10 00       	test   $0x100000,%eax
    3f06:	74 07                	je     3f0f <td_print_status+0x8f>
    3f08:	c7 45 d4 59 c2 02 00 	movl   $0x2c259,-0x2c(%ebp)
    3f0f:	c7 45 d0 be dc 02 00 	movl   $0x2dcbe,-0x30(%ebp)
    3f16:	a9 00 00 20 00       	test   $0x200000,%eax
    3f1b:	74 07                	je     3f24 <td_print_status+0xa4>
    3f1d:	c7 45 d0 62 c2 02 00 	movl   $0x2c262,-0x30(%ebp)
    3f24:	c7 45 cc be dc 02 00 	movl   $0x2dcbe,-0x34(%ebp)
    3f2b:	a9 00 00 40 00       	test   $0x400000,%eax
    3f30:	74 07                	je     3f39 <td_print_status+0xb9>
    3f32:	c7 45 cc 6b c2 02 00 	movl   $0x2c26b,-0x34(%ebp)
    3f39:	c7 45 c8 be dc 02 00 	movl   $0x2dcbe,-0x38(%ebp)
    3f40:	a9 00 00 80 00       	test   $0x800000,%eax
    3f45:	74 07                	je     3f4e <td_print_status+0xce>
    3f47:	c7 45 c8 75 c2 02 00 	movl   $0x2c275,-0x38(%ebp)
    3f4e:	bf be dc 02 00       	mov    $0x2dcbe,%edi
    3f53:	a9 00 00 00 01       	test   $0x1000000,%eax
    3f58:	74 05                	je     3f5f <td_print_status+0xdf>
    3f5a:	bf 7e c2 02 00       	mov    $0x2c27e,%edi
    3f5f:	be be dc 02 00       	mov    $0x2dcbe,%esi
    3f64:	a9 00 00 00 02       	test   $0x2000000,%eax
    3f69:	74 05                	je     3f70 <td_print_status+0xf0>
    3f6b:	be 84 c2 02 00       	mov    $0x2c284,%esi
    3f70:	c7 45 c4 be dc 02 00 	movl   $0x2dcbe,-0x3c(%ebp)
    3f77:	a9 00 00 00 04       	test   $0x4000000,%eax
    3f7c:	0f 85 a6 00 00 00    	jne    4028 <td_print_status+0x1a8>
    3f82:	89 c1                	mov    %eax,%ecx
    3f84:	c7 45 c0 be dc 02 00 	movl   $0x2dcbe,-0x40(%ebp)
    3f8b:	c1 e9 1b             	shr    $0x1b,%ecx
    3f8e:	83 e1 03             	and    $0x3,%ecx
    3f91:	a9 00 00 00 20       	test   $0x20000000,%eax
    3f96:	74 07                	je     3f9f <td_print_status+0x11f>
    3f98:	c7 45 c0 9e c2 02 00 	movl   $0x2c29e,-0x40(%ebp)
    3f9f:	8b 42 04             	mov    0x4(%edx),%eax
    3fa2:	89 5c 24 48          	mov    %ebx,0x48(%esp)
    3fa6:	8b 5d e4             	mov    -0x1c(%ebp),%ebx
    3fa9:	89 4c 24 18          	mov    %ecx,0x18(%esp)
    3fad:	89 5c 24 44          	mov    %ebx,0x44(%esp)
    3fb1:	8b 5d e0             	mov    -0x20(%ebp),%ebx
    3fb4:	89 5c 24 40          	mov    %ebx,0x40(%esp)
    3fb8:	8b 5d dc             	mov    -0x24(%ebp),%ebx
    3fbb:	89 5c 24 3c          	mov    %ebx,0x3c(%esp)
    3fbf:	8b 5d d8             	mov    -0x28(%ebp),%ebx
    3fc2:	89 5c 24 38          	mov    %ebx,0x38(%esp)
    3fc6:	8b 5d d4             	mov    -0x2c(%ebp),%ebx
    3fc9:	89 5c 24 34          	mov    %ebx,0x34(%esp)
    3fcd:	8b 5d d0             	mov    -0x30(%ebp),%ebx
    3fd0:	89 5c 24 30          	mov    %ebx,0x30(%esp)
    3fd4:	8b 5d cc             	mov    -0x34(%ebp),%ebx
    3fd7:	89 5c 24 2c          	mov    %ebx,0x2c(%esp)
    3fdb:	8b 5d c8             	mov    -0x38(%ebp),%ebx
    3fde:	89 5c 24 28          	mov    %ebx,0x28(%esp)
    3fe2:	8b 4d c0             	mov    -0x40(%ebp),%ecx
    3fe5:	8b 5d c4             	mov    -0x3c(%ebp),%ebx
    3fe8:	89 7c 24 24          	mov    %edi,0x24(%esp)
    3fec:	89 74 24 20          	mov    %esi,0x20(%esp)
    3ff0:	89 5c 24 1c          	mov    %ebx,0x1c(%esp)
    3ff4:	89 4c 24 14          	mov    %ecx,0x14(%esp)
    3ff8:	89 44 24 10          	mov    %eax,0x10(%esp)
    3ffc:	89 54 24 0c          	mov    %edx,0xc(%esp)
    4000:	c7 44 24 08 58 c1 02 	movl   $0x2c158,0x8(%esp)
    4007:	00 
    4008:	c7 44 24 04 05 00 00 	movl   $0x5,0x4(%esp)
    400f:	00 
    4010:	c7 04 24 ff ff ff ff 	movl   $0xffffffff,(%esp)
    4017:	e8 e4 34 01 00       	call   17500 <log_msg>
    401c:	81 c4 8c 00 00 00    	add    $0x8c,%esp
    4022:	5b                   	pop    %ebx
    4023:	5e                   	pop    %esi
    4024:	5f                   	pop    %edi
    4025:	5d                   	pop    %ebp
    4026:	c3                   	ret    
    4027:	90                   	nop
    4028:	c7 45 c4 92 c2 02 00 	movl   $0x2c292,-0x3c(%ebp)
    402f:	e9 4e ff ff ff       	jmp    3f82 <td_print_status+0x102>
    4034:	c7 44 24 08 9a 00 00 	movl   $0x9a,0x8(%esp)
    403b:	00 
    403c:	c7 44 24 04 38 c1 02 	movl   $0x2c138,0x4(%esp)
    4043:	00 
    4044:	c7 04 24 96 b4 02 00 	movl   $0x2b496,(%esp)
    404b:	e8 b0 2d 02 00       	call   26e00 <assert_abort>

00004050 <td_init>:
    4050:	55                   	push   %ebp
    4051:	89 e5                	mov    %esp,%ebp
    4053:	57                   	push   %edi
    4054:	56                   	push   %esi
    4055:	53                   	push   %ebx
    4056:	83 ec 5c             	sub    $0x5c,%esp
    4059:	8a 55 14             	mov    0x14(%ebp),%dl
    405c:	8b 75 08             	mov    0x8(%ebp),%esi
    405f:	88 55 d7             	mov    %dl,-0x29(%ebp)
    4062:	8a 55 1c             	mov    0x1c(%ebp),%dl
    4065:	8b 7d 28             	mov    0x28(%ebp),%edi
    4068:	8b 45 2c             	mov    0x2c(%ebp),%eax
    406b:	8a 5d 18             	mov    0x18(%ebp),%bl
    406e:	88 55 d6             	mov    %dl,-0x2a(%ebp)
    4071:	85 f6                	test   %esi,%esi
    4073:	0f 84 ef 01 00 00    	je     4268 <td_init+0x218>
    4079:	81 7d 10 ff 03 00 00 	cmpl   $0x3ff,0x10(%ebp)
    4080:	0f 87 aa 01 00 00    	ja     4230 <td_init+0x1e0>
    4086:	81 7d 24 69 ff ff ff 	cmpl   $0xffffff69,0x24(%ebp)
    408d:	74 13                	je     40a2 <td_init+0x52>
    408f:	81 7d 24 2d ff ff ff 	cmpl   $0xffffff2d,0x24(%ebp)
    4096:	74 0a                	je     40a2 <td_init+0x52>
    4098:	83 7d 24 e1          	cmpl   $0xffffffe1,0x24(%ebp)
    409c:	0f 85 e2 01 00 00    	jne    4284 <td_init+0x234>
    40a2:	85 c0                	test   %eax,%eax
    40a4:	74 32                	je     40d8 <td_init+0x88>
    40a6:	8d 4d e4             	lea    -0x1c(%ebp),%ecx
    40a9:	89 04 24             	mov    %eax,(%esp)
    40ac:	89 4c 24 04          	mov    %ecx,0x4(%esp)
    40b0:	e8 7b 89 00 00       	call   ca30 <as_get_physical_mapping>
    40b5:	85 c0                	test   %eax,%eax
    40b7:	75 1f                	jne    40d8 <td_init+0x88>
    40b9:	8b 4d e4             	mov    -0x1c(%ebp),%ecx
    40bc:	89 c8                	mov    %ecx,%eax
    40be:	83 e0 f0             	and    $0xfffffff0,%eax
    40c1:	39 c8                	cmp    %ecx,%eax
    40c3:	0f 85 83 01 00 00    	jne    424c <td_init+0x1fc>
    40c9:	85 c0                	test   %eax,%eax
    40cb:	74 0b                	je     40d8 <td_init+0x88>
    40cd:	83 c8 04             	or     $0x4,%eax
    40d0:	eb 0b                	jmp    40dd <td_init+0x8d>
    40d2:	8d b6 00 00 00 00    	lea    0x0(%esi),%esi
    40d8:	b8 05 00 00 00       	mov    $0x5,%eax
    40dd:	8b 4d 0c             	mov    0xc(%ebp),%ecx
    40e0:	89 06                	mov    %eax,(%esi)
    40e2:	83 e1 03             	and    $0x3,%ecx
    40e5:	c1 e1 1b             	shl    $0x1b,%ecx
    40e8:	80 7d d6 01          	cmpb   $0x1,-0x2a(%ebp)
    40ec:	19 c0                	sbb    %eax,%eax
    40ee:	83 f0 ff             	xor    $0xffffffff,%eax
    40f1:	25 00 00 00 04       	and    $0x4000000,%eax
    40f6:	09 c8                	or     %ecx,%eax
    40f8:	84 db                	test   %bl,%bl
    40fa:	0f 84 c0 00 00 00    	je     41c0 <td_init+0x170>
    4100:	0d 00 00 80 02       	or     $0x2800000,%eax
    4105:	89 46 04             	mov    %eax,0x4(%esi)
    4108:	8b 45 10             	mov    0x10(%ebp),%eax
    410b:	8b 4d 20             	mov    0x20(%ebp),%ecx
    410e:	48                   	dec    %eax
    410f:	8b 5d 20             	mov    0x20(%ebp),%ebx
    4112:	c1 e0 15             	shl    $0x15,%eax
    4115:	80 7d d7 01          	cmpb   $0x1,-0x29(%ebp)
    4119:	19 d2                	sbb    %edx,%edx
    411b:	83 e3 7f             	and    $0x7f,%ebx
    411e:	d1 e9                	shr    %ecx
    4120:	83 f2 ff             	xor    $0xffffffff,%edx
    4123:	81 e1 00 80 07 00    	and    $0x78000,%ecx
    4129:	81 e2 00 00 08 00    	and    $0x80000,%edx
    412f:	c1 e3 08             	shl    $0x8,%ebx
    4132:	09 d9                	or     %ebx,%ecx
    4134:	09 c8                	or     %ecx,%eax
    4136:	0f b6 4d 24          	movzbl 0x24(%ebp),%ecx
    413a:	09 c8                	or     %ecx,%eax
    413c:	09 d0                	or     %edx,%eax
    413e:	85 ff                	test   %edi,%edi
    4140:	89 46 08             	mov    %eax,0x8(%esi)
    4143:	0f 84 9f 00 00 00    	je     41e8 <td_init+0x198>
    4149:	8d 45 e4             	lea    -0x1c(%ebp),%eax
    414c:	89 3c 24             	mov    %edi,(%esp)
    414f:	89 44 24 04          	mov    %eax,0x4(%esp)
    4153:	e8 d8 88 00 00       	call   ca30 <as_get_physical_mapping>
    4158:	85 c0                	test   %eax,%eax
    415a:	0f 85 88 00 00 00    	jne    41e8 <td_init+0x198>
    4160:	8b 45 e4             	mov    -0x1c(%ebp),%eax
    4163:	89 46 0c             	mov    %eax,0xc(%esi)
    4166:	8b 4e 0c             	mov    0xc(%esi),%ecx
    4169:	8b 56 08             	mov    0x8(%esi),%edx
    416c:	8b 46 04             	mov    0x4(%esi),%eax
    416f:	89 4c 24 1c          	mov    %ecx,0x1c(%esp)
    4173:	89 54 24 18          	mov    %edx,0x18(%esp)
    4177:	89 7c 24 20          	mov    %edi,0x20(%esp)
    417b:	89 44 24 14          	mov    %eax,0x14(%esp)
    417f:	8b 06                	mov    (%esi),%eax
    4181:	89 74 24 0c          	mov    %esi,0xc(%esp)
    4185:	89 44 24 10          	mov    %eax,0x10(%esp)
    4189:	c7 44 24 08 0c c2 02 	movl   $0x2c20c,0x8(%esp)
    4190:	00 
    4191:	c7 44 24 04 05 00 00 	movl   $0x5,0x4(%esp)
    4198:	00 
    4199:	c7 04 24 ff ff ff ff 	movl   $0xffffffff,(%esp)
    41a0:	e8 5b 33 01 00       	call   17500 <log_msg>
    41a5:	89 34 24             	mov    %esi,(%esp)
    41a8:	e8 d3 fc ff ff       	call   3e80 <td_print_status>
    41ad:	81 7d 24 2d ff ff ff 	cmpl   $0xffffff2d,0x24(%ebp)
    41b4:	74 3a                	je     41f0 <td_init+0x1a0>
    41b6:	83 c4 5c             	add    $0x5c,%esp
    41b9:	5b                   	pop    %ebx
    41ba:	5e                   	pop    %esi
    41bb:	5f                   	pop    %edi
    41bc:	5d                   	pop    %ebp
    41bd:	c3                   	ret    
    41be:	66 90                	xchg   %ax,%ax
    41c0:	0d 00 00 80 00       	or     $0x800000,%eax
    41c5:	89 46 04             	mov    %eax,0x4(%esi)
    41c8:	81 7d 24 69 ff ff ff 	cmpl   $0xffffff69,0x24(%ebp)
    41cf:	0f 85 33 ff ff ff    	jne    4108 <td_init+0xb8>
    41d5:	8b 46 04             	mov    0x4(%esi),%eax
    41d8:	0d 00 00 00 20       	or     $0x20000000,%eax
    41dd:	89 46 04             	mov    %eax,0x4(%esi)
    41e0:	e9 23 ff ff ff       	jmp    4108 <td_init+0xb8>
    41e5:	8d 76 00             	lea    0x0(%esi),%esi
    41e8:	31 c0                	xor    %eax,%eax
    41ea:	e9 74 ff ff ff       	jmp    4163 <td_init+0x113>
    41ef:	90                   	nop
    41f0:	89 3c 24             	mov    %edi,(%esp)
    41f3:	c7 44 24 08 08 00 00 	movl   $0x8,0x8(%esp)
    41fa:	00 
    41fb:	c7 44 24 04 08 00 00 	movl   $0x8,0x4(%esp)
    4202:	00 
    4203:	e8 18 23 00 00       	call   6520 <usb_debug_str_buffer>
    4208:	c7 44 24 08 b0 c2 02 	movl   $0x2c2b0,0x8(%esp)
    420f:	00 
    4210:	89 44 24 0c          	mov    %eax,0xc(%esp)
    4214:	c7 44 24 04 05 00 00 	movl   $0x5,0x4(%esp)
    421b:	00 
    421c:	c7 04 24 ff ff ff ff 	movl   $0xffffffff,(%esp)
    4223:	e8 d8 32 01 00       	call   17500 <log_msg>
    4228:	83 c4 5c             	add    $0x5c,%esp
    422b:	5b                   	pop    %ebx
    422c:	5e                   	pop    %esi
    422d:	5f                   	pop    %edi
    422e:	5d                   	pop    %ebp
    422f:	c3                   	ret    
    4230:	c7 44 24 08 43 00 00 	movl   $0x43,0x8(%esp)
    4237:	00 
    4238:	c7 44 24 04 38 c1 02 	movl   $0x2c138,0x4(%esp)
    423f:	00 
    4240:	c7 04 24 a4 c2 02 00 	movl   $0x2c2a4,(%esp)
    4247:	e8 b4 2b 02 00       	call   26e00 <assert_abort>
    424c:	c7 44 24 08 48 00 00 	movl   $0x48,0x8(%esp)
    4253:	00 
    4254:	c7 44 24 04 38 c1 02 	movl   $0x2c138,0x4(%esp)
    425b:	00 
    425c:	c7 04 24 d8 c1 02 00 	movl   $0x2c1d8,(%esp)
    4263:	e8 98 2b 02 00       	call   26e00 <assert_abort>
    4268:	c7 44 24 08 42 00 00 	movl   $0x42,0x8(%esp)
    426f:	00 
    4270:	c7 44 24 04 38 c1 02 	movl   $0x2c138,0x4(%esp)
    4277:	00 
    4278:	c7 04 24 96 b4 02 00 	movl   $0x2b496,(%esp)
    427f:	e8 7c 2b 02 00       	call   26e00 <assert_abort>
    4284:	c7 44 24 08 45 00 00 	movl   $0x45,0x8(%esp)
    428b:	00 
    428c:	c7 44 24 04 38 c1 02 	movl   $0x2c138,0x4(%esp)
    4293:	00 
    4294:	c7 04 24 90 c1 02 00 	movl   $0x2c190,(%esp)
    429b:	e8 60 2b 02 00       	call   26e00 <assert_abort>

000042a0 <endpoint_create>:
    42a0:	55                   	push   %ebp
    42a1:	89 e5                	mov    %esp,%ebp
    42a3:	57                   	push   %edi
    42a4:	56                   	push   %esi
    42a5:	53                   	push   %ebx
    42a6:	83 ec 1c             	sub    $0x1c,%esp
    42a9:	8b 7d 08             	mov    0x8(%ebp),%edi
    42ac:	8b 75 0c             	mov    0xc(%ebp),%esi
    42af:	c7 04 24 48 00 00 00 	movl   $0x48,(%esp)
    42b6:	e8 e5 82 01 00       	call   1c5a0 <malloc>
    42bb:	89 c3                	mov    %eax,%ebx
    42bd:	85 c0                	test   %eax,%eax
    42bf:	74 66                	je     4327 <endpoint_create+0x87>
    42c1:	66 89 78 08          	mov    %di,0x8(%eax)
    42c5:	66 89 70 0a          	mov    %si,0xa(%eax)
    42c9:	8b 45 10             	mov    0x10(%ebp),%eax
    42cc:	c6 43 21 00          	movb   $0x0,0x21(%ebx)
    42d0:	89 43 0c             	mov    %eax,0xc(%ebx)
    42d3:	8b 45 14             	mov    0x14(%ebp),%eax
    42d6:	89 43 10             	mov    %eax,0x10(%ebx)
    42d9:	8b 45 18             	mov    0x18(%ebp),%eax
    42dc:	89 43 14             	mov    %eax,0x14(%ebx)
    42df:	8b 45 1c             	mov    0x1c(%ebp),%eax
    42e2:	89 43 18             	mov    %eax,0x18(%ebx)
    42e5:	8b 45 20             	mov    0x20(%ebp),%eax
    42e8:	89 43 1c             	mov    %eax,0x1c(%ebx)
    42eb:	8d 43 24             	lea    0x24(%ebx),%eax
    42ee:	89 04 24             	mov    %eax,(%esp)
    42f1:	c7 43 3c 00 00 00 00 	movl   $0x0,0x3c(%ebx)
    42f8:	80 63 20 fe          	andb   $0xfe,0x20(%ebx)
    42fc:	c7 43 40 00 00 00 00 	movl   $0x0,0x40(%ebx)
    4303:	c7 43 44 00 00 00 00 	movl   $0x0,0x44(%ebx)
    430a:	c7 03 00 00 00 00    	movl   $0x0,(%ebx)
    4310:	c7 43 04 00 00 00 00 	movl   $0x0,0x4(%ebx)
    4317:	e8 84 ef 00 00       	call   132a0 <fibril_mutex_initialize>
    431c:	8d 43 34             	lea    0x34(%ebx),%eax
    431f:	89 04 24             	mov    %eax,(%esp)
    4322:	e8 09 f6 00 00       	call   13930 <fibril_condvar_initialize>
    4327:	83 c4 1c             	add    $0x1c,%esp
    432a:	89 d8                	mov    %ebx,%eax
    432c:	5b                   	pop    %ebx
    432d:	5e                   	pop    %esi
    432e:	5f                   	pop    %edi
    432f:	5d                   	pop    %ebp
    4330:	c3                   	ret    
    4331:	eb 0d                	jmp    4340 <endpoint_destroy>
    4333:	90                   	nop
    4334:	90                   	nop
    4335:	90                   	nop
    4336:	90                   	nop
    4337:	90                   	nop
    4338:	90                   	nop
    4339:	90                   	nop
    433a:	90                   	nop
    433b:	90                   	nop
    433c:	90                   	nop
    433d:	90                   	nop
    433e:	90                   	nop
    433f:	90                   	nop

00004340 <endpoint_destroy>:
    4340:	55                   	push   %ebp
    4341:	89 e5                	mov    %esp,%ebp
    4343:	83 ec 18             	sub    $0x18,%esp
    4346:	8b 45 08             	mov    0x8(%ebp),%eax
    4349:	85 c0                	test   %eax,%eax
    434b:	74 17                	je     4364 <endpoint_destroy+0x24>
    434d:	8a 50 21             	mov    0x21(%eax),%dl
    4350:	84 d2                	test   %dl,%dl
    4352:	75 48                	jne    439c <endpoint_destroy+0x5c>
    4354:	8b 50 3c             	mov    0x3c(%eax),%edx
    4357:	85 d2                	test   %edx,%edx
    4359:	75 25                	jne    4380 <endpoint_destroy+0x40>
    435b:	89 45 08             	mov    %eax,0x8(%ebp)
    435e:	c9                   	leave  
    435f:	e9 4c 83 01 00       	jmp    1c6b0 <free>
    4364:	c7 44 24 08 50 00 00 	movl   $0x50,0x8(%esp)
    436b:	00 
    436c:	c7 44 24 04 c2 c2 02 	movl   $0x2c2c2,0x4(%esp)
    4373:	00 
    4374:	c7 04 24 96 b4 02 00 	movl   $0x2b496,(%esp)
    437b:	e8 80 2a 02 00       	call   26e00 <assert_abort>
    4380:	c7 44 24 08 53 00 00 	movl   $0x53,0x8(%esp)
    4387:	00 
    4388:	c7 44 24 04 c2 c2 02 	movl   $0x2c2c2,0x4(%esp)
    438f:	00 
    4390:	c7 04 24 e4 c2 02 00 	movl   $0x2c2e4,(%esp)
    4397:	e8 64 2a 02 00       	call   26e00 <assert_abort>
    439c:	c7 44 24 08 52 00 00 	movl   $0x52,0x8(%esp)
    43a3:	00 
    43a4:	c7 44 24 04 c2 c2 02 	movl   $0x2c2c2,0x4(%esp)
    43ab:	00 
    43ac:	c7 04 24 d1 c2 02 00 	movl   $0x2c2d1,(%esp)
    43b3:	e8 48 2a 02 00       	call   26e00 <assert_abort>
    43b8:	90                   	nop
    43b9:	8d b4 26 00 00 00 00 	lea    0x0(%esi,%eiz,1),%esi

000043c0 <endpoint_set_hc_data>:
    43c0:	55                   	push   %ebp
    43c1:	89 e5                	mov    %esp,%ebp
    43c3:	57                   	push   %edi
    43c4:	56                   	push   %esi
    43c5:	53                   	push   %ebx
    43c6:	83 ec 2c             	sub    $0x2c,%esp
    43c9:	8b 5d 08             	mov    0x8(%ebp),%ebx
    43cc:	8b 55 0c             	mov    0xc(%ebp),%edx
    43cf:	8b 45 10             	mov    0x10(%ebp),%eax
    43d2:	8b 7d 14             	mov    0x14(%ebp),%edi
    43d5:	85 db                	test   %ebx,%ebx
    43d7:	74 2f                	je     4408 <endpoint_set_hc_data+0x48>
    43d9:	8d 73 24             	lea    0x24(%ebx),%esi
    43dc:	89 45 e0             	mov    %eax,-0x20(%ebp)
    43df:	89 34 24             	mov    %esi,(%esp)
    43e2:	89 55 e4             	mov    %edx,-0x1c(%ebp)
    43e5:	e8 d6 ee 00 00       	call   132c0 <fibril_mutex_lock>
    43ea:	8b 55 e4             	mov    -0x1c(%ebp),%edx
    43ed:	8b 45 e0             	mov    -0x20(%ebp),%eax
    43f0:	89 53 3c             	mov    %edx,0x3c(%ebx)
    43f3:	89 43 40             	mov    %eax,0x40(%ebx)
    43f6:	89 7b 44             	mov    %edi,0x44(%ebx)
    43f9:	89 75 08             	mov    %esi,0x8(%ebp)
    43fc:	83 c4 2c             	add    $0x2c,%esp
    43ff:	5b                   	pop    %ebx
    4400:	5e                   	pop    %esi
    4401:	5f                   	pop    %edi
    4402:	5d                   	pop    %ebp
    4403:	e9 d8 ef 00 00       	jmp    133e0 <fibril_mutex_unlock>
    4408:	c7 44 24 08 60 00 00 	movl   $0x60,0x8(%esp)
    440f:	00 
    4410:	c7 44 24 04 c2 c2 02 	movl   $0x2c2c2,0x4(%esp)
    4417:	00 
    4418:	c7 04 24 96 b4 02 00 	movl   $0x2b496,(%esp)
    441f:	e8 dc 29 02 00       	call   26e00 <assert_abort>
    4424:	8d b6 00 00 00 00    	lea    0x0(%esi),%esi
    442a:	8d bf 00 00 00 00    	lea    0x0(%edi),%edi

00004430 <endpoint_clear_hc_data>:
    4430:	55                   	push   %ebp
    4431:	89 e5                	mov    %esp,%ebp
    4433:	56                   	push   %esi
    4434:	53                   	push   %ebx
    4435:	83 ec 10             	sub    $0x10,%esp
    4438:	8b 5d 08             	mov    0x8(%ebp),%ebx
    443b:	85 db                	test   %ebx,%ebx
    443d:	74 2e                	je     446d <endpoint_clear_hc_data+0x3d>
    443f:	8d 73 24             	lea    0x24(%ebx),%esi
    4442:	89 34 24             	mov    %esi,(%esp)
    4445:	e8 76 ee 00 00       	call   132c0 <fibril_mutex_lock>
    444a:	c7 43 3c 00 00 00 00 	movl   $0x0,0x3c(%ebx)
    4451:	c7 43 40 00 00 00 00 	movl   $0x0,0x40(%ebx)
    4458:	c7 43 44 00 00 00 00 	movl   $0x0,0x44(%ebx)
    445f:	89 75 08             	mov    %esi,0x8(%ebp)
    4462:	83 c4 10             	add    $0x10,%esp
    4465:	5b                   	pop    %ebx
    4466:	5e                   	pop    %esi
    4467:	5d                   	pop    %ebp
    4468:	e9 73 ef 00 00       	jmp    133e0 <fibril_mutex_unlock>
    446d:	c7 44 24 08 6e 00 00 	movl   $0x6e,0x8(%esp)
    4474:	00 
    4475:	c7 44 24 04 c2 c2 02 	movl   $0x2c2c2,0x4(%esp)
    447c:	00 
    447d:	c7 04 24 96 b4 02 00 	movl   $0x2b496,(%esp)
    4484:	e8 77 29 02 00       	call   26e00 <assert_abort>
    4489:	8d b4 26 00 00 00 00 	lea    0x0(%esi,%eiz,1),%esi

00004490 <endpoint_use>:
    4490:	55                   	push   %ebp
    4491:	89 e5                	mov    %esp,%ebp
    4493:	57                   	push   %edi
    4494:	56                   	push   %esi
    4495:	53                   	push   %ebx
    4496:	83 ec 1c             	sub    $0x1c,%esp
    4499:	8b 5d 08             	mov    0x8(%ebp),%ebx
    449c:	85 db                	test   %ebx,%ebx
    449e:	74 3e                	je     44de <endpoint_use+0x4e>
    44a0:	8d 73 24             	lea    0x24(%ebx),%esi
    44a3:	8d 7b 34             	lea    0x34(%ebx),%edi
    44a6:	89 34 24             	mov    %esi,(%esp)
    44a9:	e8 12 ee 00 00       	call   132c0 <fibril_mutex_lock>
    44ae:	8a 43 21             	mov    0x21(%ebx),%al
    44b1:	84 c0                	test   %al,%al
    44b3:	74 16                	je     44cb <endpoint_use+0x3b>
    44b5:	8d 76 00             	lea    0x0(%esi),%esi
    44b8:	89 74 24 04          	mov    %esi,0x4(%esp)
    44bc:	89 3c 24             	mov    %edi,(%esp)
    44bf:	e8 4c fa 00 00       	call   13f10 <fibril_condvar_wait>
    44c4:	8a 43 21             	mov    0x21(%ebx),%al
    44c7:	84 c0                	test   %al,%al
    44c9:	75 ed                	jne    44b8 <endpoint_use+0x28>
    44cb:	c6 43 21 01          	movb   $0x1,0x21(%ebx)
    44cf:	89 75 08             	mov    %esi,0x8(%ebp)
    44d2:	83 c4 1c             	add    $0x1c,%esp
    44d5:	5b                   	pop    %ebx
    44d6:	5e                   	pop    %esi
    44d7:	5f                   	pop    %edi
    44d8:	5d                   	pop    %ebp
    44d9:	e9 02 ef 00 00       	jmp    133e0 <fibril_mutex_unlock>
    44de:	c7 44 24 08 7b 00 00 	movl   $0x7b,0x8(%esp)
    44e5:	00 
    44e6:	c7 44 24 04 c2 c2 02 	movl   $0x2c2c2,0x4(%esp)
    44ed:	00 
    44ee:	c7 04 24 96 b4 02 00 	movl   $0x2b496,(%esp)
    44f5:	e8 06 29 02 00       	call   26e00 <assert_abort>
    44fa:	8d b6 00 00 00 00    	lea    0x0(%esi),%esi

00004500 <endpoint_release>:
    4500:	55                   	push   %ebp
    4501:	89 e5                	mov    %esp,%ebp
    4503:	56                   	push   %esi
    4504:	53                   	push   %ebx
    4505:	83 ec 10             	sub    $0x10,%esp
    4508:	8b 5d 08             	mov    0x8(%ebp),%ebx
    450b:	85 db                	test   %ebx,%ebx
    450d:	74 28                	je     4537 <endpoint_release+0x37>
    450f:	8d 73 24             	lea    0x24(%ebx),%esi
    4512:	89 34 24             	mov    %esi,(%esp)
    4515:	e8 a6 ed 00 00       	call   132c0 <fibril_mutex_lock>
    451a:	c6 43 21 00          	movb   $0x0,0x21(%ebx)
    451e:	89 34 24             	mov    %esi,(%esp)
    4521:	83 c3 34             	add    $0x34,%ebx
    4524:	e8 b7 ee 00 00       	call   133e0 <fibril_mutex_unlock>
    4529:	89 5d 08             	mov    %ebx,0x8(%ebp)
    452c:	83 c4 10             	add    $0x10,%esp
    452f:	5b                   	pop    %ebx
    4530:	5e                   	pop    %esi
    4531:	5d                   	pop    %ebp
    4532:	e9 29 fa 00 00       	jmp    13f60 <fibril_condvar_signal>
    4537:	c7 44 24 08 88 00 00 	movl   $0x88,0x8(%esp)
    453e:	00 
    453f:	c7 44 24 04 c2 c2 02 	movl   $0x2c2c2,0x4(%esp)
    4546:	00 
    4547:	c7 04 24 96 b4 02 00 	movl   $0x2b496,(%esp)
    454e:	e8 ad 28 02 00       	call   26e00 <assert_abort>
    4553:	8d b6 00 00 00 00    	lea    0x0(%esi),%esi
    4559:	8d bc 27 00 00 00 00 	lea    0x0(%edi,%eiz,1),%edi

00004560 <endpoint_toggle_get>:
    4560:	55                   	push   %ebp
    4561:	89 e5                	mov    %esp,%ebp
    4563:	57                   	push   %edi
    4564:	56                   	push   %esi
    4565:	53                   	push   %ebx
    4566:	83 ec 1c             	sub    $0x1c,%esp
    4569:	8b 5d 08             	mov    0x8(%ebp),%ebx
    456c:	85 db                	test   %ebx,%ebx
    456e:	74 51                	je     45c1 <endpoint_toggle_get+0x61>
    4570:	8d 73 24             	lea    0x24(%ebx),%esi
    4573:	89 34 24             	mov    %esi,(%esp)
    4576:	e8 45 ed 00 00       	call   132c0 <fibril_mutex_lock>
    457b:	8b 43 40             	mov    0x40(%ebx),%eax
    457e:	85 c0                	test   %eax,%eax
    4580:	74 36                	je     45b8 <endpoint_toggle_get+0x58>
    4582:	8b 53 3c             	mov    0x3c(%ebx),%edx
    4585:	89 14 24             	mov    %edx,(%esp)
    4588:	ff d0                	call   *%eax
    458a:	8a 53 20             	mov    0x20(%ebx),%dl
    458d:	83 e0 01             	and    $0x1,%eax
    4590:	83 e2 fe             	and    $0xfffffffe,%edx
    4593:	89 c7                	mov    %eax,%edi
    4595:	09 fa                	or     %edi,%edx
    4597:	88 53 20             	mov    %dl,0x20(%ebx)
    459a:	89 34 24             	mov    %esi,(%esp)
    459d:	e8 3e ee 00 00       	call   133e0 <fibril_mutex_unlock>
    45a2:	83 c4 1c             	add    $0x1c,%esp
    45a5:	89 f8                	mov    %edi,%eax
    45a7:	5b                   	pop    %ebx
    45a8:	25 ff 00 00 00       	and    $0xff,%eax
    45ad:	5e                   	pop    %esi
    45ae:	5f                   	pop    %edi
    45af:	5d                   	pop    %ebp
    45b0:	c3                   	ret    
    45b1:	8d b4 26 00 00 00 00 	lea    0x0(%esi,%eiz,1),%esi
    45b8:	0f b6 7b 20          	movzbl 0x20(%ebx),%edi
    45bc:	83 e7 01             	and    $0x1,%edi
    45bf:	eb d9                	jmp    459a <endpoint_toggle_get+0x3a>
    45c1:	c7 44 24 08 95 00 00 	movl   $0x95,0x8(%esp)
    45c8:	00 
    45c9:	c7 44 24 04 c2 c2 02 	movl   $0x2c2c2,0x4(%esp)
    45d0:	00 
    45d1:	c7 04 24 96 b4 02 00 	movl   $0x2b496,(%esp)
    45d8:	e8 23 28 02 00       	call   26e00 <assert_abort>
    45dd:	8d 76 00             	lea    0x0(%esi),%esi

000045e0 <endpoint_toggle_set>:
    45e0:	55                   	push   %ebp
    45e1:	89 e5                	mov    %esp,%ebp
    45e3:	57                   	push   %edi
    45e4:	56                   	push   %esi
    45e5:	53                   	push   %ebx
    45e6:	83 ec 1c             	sub    $0x1c,%esp
    45e9:	8b 5d 08             	mov    0x8(%ebp),%ebx
    45ec:	8b 7d 0c             	mov    0xc(%ebp),%edi
    45ef:	85 db                	test   %ebx,%ebx
    45f1:	74 42                	je     4635 <endpoint_toggle_set+0x55>
    45f3:	83 ff 01             	cmp    $0x1,%edi
    45f6:	77 59                	ja     4651 <endpoint_toggle_set+0x71>
    45f8:	8d 73 24             	lea    0x24(%ebx),%esi
    45fb:	89 34 24             	mov    %esi,(%esp)
    45fe:	e8 bd ec 00 00       	call   132c0 <fibril_mutex_lock>
    4603:	8a 43 20             	mov    0x20(%ebx),%al
    4606:	89 fa                	mov    %edi,%edx
    4608:	83 e0 fe             	and    $0xfffffffe,%eax
    460b:	83 e2 01             	and    $0x1,%edx
    460e:	09 d0                	or     %edx,%eax
    4610:	88 43 20             	mov    %al,0x20(%ebx)
    4613:	8b 43 44             	mov    0x44(%ebx),%eax
    4616:	85 c0                	test   %eax,%eax
    4618:	74 0c                	je     4626 <endpoint_toggle_set+0x46>
    461a:	89 7c 24 04          	mov    %edi,0x4(%esp)
    461e:	8b 53 3c             	mov    0x3c(%ebx),%edx
    4621:	89 14 24             	mov    %edx,(%esp)
    4624:	ff d0                	call   *%eax
    4626:	89 75 08             	mov    %esi,0x8(%ebp)
    4629:	83 c4 1c             	add    $0x1c,%esp
    462c:	5b                   	pop    %ebx
    462d:	5e                   	pop    %esi
    462e:	5f                   	pop    %edi
    462f:	5d                   	pop    %ebp
    4630:	e9 ab ed 00 00       	jmp    133e0 <fibril_mutex_unlock>
    4635:	c7 44 24 08 a5 00 00 	movl   $0xa5,0x8(%esp)
    463c:	00 
    463d:	c7 44 24 04 c2 c2 02 	movl   $0x2c2c2,0x4(%esp)
    4644:	00 
    4645:	c7 04 24 96 b4 02 00 	movl   $0x2b496,(%esp)
    464c:	e8 af 27 02 00       	call   26e00 <assert_abort>
    4651:	c7 44 24 08 a6 00 00 	movl   $0xa6,0x8(%esp)
    4658:	00 
    4659:	c7 44 24 04 c2 c2 02 	movl   $0x2c2c2,0x4(%esp)
    4660:	00 
    4661:	c7 04 24 42 bd 02 00 	movl   $0x2bd42,(%esp)
    4668:	e8 93 27 02 00       	call   26e00 <assert_abort>
    466d:	66 90                	xchg   %ax,%ax
    466f:	90                   	nop

00004670 <register_endpoint>:
    4670:	55                   	push   %ebp
    4671:	89 e5                	mov    %esp,%ebp
    4673:	57                   	push   %edi
    4674:	56                   	push   %esi
    4675:	53                   	push   %ebx
    4676:	83 ec 5c             	sub    $0x5c,%esp
    4679:	8b 45 08             	mov    0x8(%ebp),%eax
    467c:	0f bf 75 0c          	movswl 0xc(%ebp),%esi
    4680:	0f bf 7d 10          	movswl 0x10(%ebp),%edi
    4684:	85 c0                	test   %eax,%eax
    4686:	0f 84 0f 01 00 00    	je     479b <register_endpoint+0x12b>
    468c:	89 04 24             	mov    %eax,(%esp)
    468f:	e8 7c 2b 00 00       	call   7210 <ddf_fun_data_get>
    4694:	89 c3                	mov    %eax,%ebx
    4696:	85 c0                	test   %eax,%eax
    4698:	0f 84 e1 00 00 00    	je     477f <register_endpoint+0x10f>
    469e:	8d 45 e4             	lea    -0x1c(%ebp),%eax
    46a1:	c7 44 24 08 00 00 00 	movl   $0x0,0x8(%esp)
    46a8:	00 
    46a9:	89 44 24 0c          	mov    %eax,0xc(%esp)
    46ad:	89 74 24 04          	mov    %esi,0x4(%esp)
    46b1:	89 1c 24             	mov    %ebx,(%esp)
    46b4:	c7 45 e4 03 00 00 00 	movl   $0x3,-0x1c(%ebp)
    46bb:	e8 a0 0f 00 00       	call   5660 <usb_device_manager_get_info_by_address>
    46c0:	85 c0                	test   %eax,%eax
    46c2:	0f 85 af 00 00 00    	jne    4777 <register_endpoint+0x107>
    46c8:	8b 45 e4             	mov    -0x1c(%ebp),%eax
    46cb:	89 04 24             	mov    %eax,(%esp)
    46ce:	e8 5d 1f 00 00       	call   6630 <usb_str_speed>
    46d3:	89 c1                	mov    %eax,%ecx
    46d5:	8b 45 18             	mov    0x18(%ebp),%eax
    46d8:	89 04 24             	mov    %eax,(%esp)
    46db:	89 4d d4             	mov    %ecx,-0x2c(%ebp)
    46de:	e8 2d 1f 00 00       	call   6610 <usb_str_direction>
    46e3:	8b 55 14             	mov    0x14(%ebp),%edx
    46e6:	89 14 24             	mov    %edx,(%esp)
    46e9:	89 45 cc             	mov    %eax,-0x34(%ebp)
    46ec:	e8 df 1e 00 00       	call   65d0 <usb_str_transfer_type>
    46f1:	8b 55 20             	mov    0x20(%ebp),%edx
    46f4:	89 54 24 24          	mov    %edx,0x24(%esp)
    46f8:	8b 55 1c             	mov    0x1c(%ebp),%edx
    46fb:	89 54 24 20          	mov    %edx,0x20(%esp)
    46ff:	8b 4d d4             	mov    -0x2c(%ebp),%ecx
    4702:	8b 55 cc             	mov    -0x34(%ebp),%edx
    4705:	89 44 24 14          	mov    %eax,0x14(%esp)
    4709:	89 54 24 18          	mov    %edx,0x18(%esp)
    470d:	89 4c 24 1c          	mov    %ecx,0x1c(%esp)
    4711:	89 7c 24 10          	mov    %edi,0x10(%esp)
    4715:	89 74 24 0c          	mov    %esi,0xc(%esp)
    4719:	c7 44 24 08 60 c3 02 	movl   $0x2c360,0x8(%esp)
    4720:	00 
    4721:	c7 44 24 04 04 00 00 	movl   $0x4,0x4(%esp)
    4728:	00 
    4729:	c7 04 24 ff ff ff ff 	movl   $0xffffffff,(%esp)
    4730:	e8 cb 2d 01 00       	call   17500 <log_msg>
    4735:	8b 55 1c             	mov    0x1c(%ebp),%edx
    4738:	8b 45 e4             	mov    -0x1c(%ebp),%eax
    473b:	89 5c 24 24          	mov    %ebx,0x24(%esp)
    473f:	89 54 24 1c          	mov    %edx,0x1c(%esp)
    4743:	89 54 24 18          	mov    %edx,0x18(%esp)
    4747:	89 44 24 14          	mov    %eax,0x14(%esp)
    474b:	8b 55 18             	mov    0x18(%ebp),%edx
    474e:	8b 45 14             	mov    0x14(%ebp),%eax
    4751:	81 c3 24 06 00 00    	add    $0x624,%ebx
    4757:	c7 44 24 20 30 49 00 	movl   $0x4930,0x20(%esp)
    475e:	00 
    475f:	89 44 24 10          	mov    %eax,0x10(%esp)
    4763:	89 54 24 0c          	mov    %edx,0xc(%esp)
    4767:	89 7c 24 08          	mov    %edi,0x8(%esp)
    476b:	89 74 24 04          	mov    %esi,0x4(%esp)
    476f:	89 1c 24             	mov    %ebx,(%esp)
    4772:	e8 d9 15 00 00       	call   5d50 <usb_endpoint_manager_add_ep>
    4777:	83 c4 5c             	add    $0x5c,%esp
    477a:	5b                   	pop    %ebx
    477b:	5e                   	pop    %esi
    477c:	5f                   	pop    %edi
    477d:	5d                   	pop    %ebp
    477e:	c3                   	ret    
    477f:	c7 44 24 08 f0 00 00 	movl   $0xf0,0x8(%esp)
    4786:	00 
    4787:	c7 44 24 04 03 c3 02 	movl   $0x2c303,0x4(%esp)
    478e:	00 
    478f:	c7 04 24 92 b4 02 00 	movl   $0x2b492,(%esp)
    4796:	e8 65 26 02 00       	call   26e00 <assert_abort>
    479b:	c7 44 24 08 ee 00 00 	movl   $0xee,0x8(%esp)
    47a2:	00 
    47a3:	c7 44 24 04 03 c3 02 	movl   $0x2c303,0x4(%esp)
    47aa:	00 
    47ab:	c7 04 24 89 ba 02 00 	movl   $0x2ba89,(%esp)
    47b2:	e8 49 26 02 00       	call   26e00 <assert_abort>
    47b7:	89 f6                	mov    %esi,%esi
    47b9:	8d bc 27 00 00 00 00 	lea    0x0(%edi,%eiz,1),%edi

000047c0 <request_address>:
    47c0:	55                   	push   %ebp
    47c1:	89 e5                	mov    %esp,%ebp
    47c3:	57                   	push   %edi
    47c4:	56                   	push   %esi
    47c5:	53                   	push   %ebx
    47c6:	83 ec 3c             	sub    $0x3c,%esp
    47c9:	8b 45 08             	mov    0x8(%ebp),%eax
    47cc:	8a 55 10             	mov    0x10(%ebp),%dl
    47cf:	8b 5d 0c             	mov    0xc(%ebp),%ebx
    47d2:	8b 7d 14             	mov    0x14(%ebp),%edi
    47d5:	88 55 e7             	mov    %dl,-0x19(%ebp)
    47d8:	85 c0                	test   %eax,%eax
    47da:	0f 84 bd 00 00 00    	je     489d <request_address+0xdd>
    47e0:	89 04 24             	mov    %eax,(%esp)
    47e3:	e8 28 2a 00 00       	call   7210 <ddf_fun_data_get>
    47e8:	89 c2                	mov    %eax,%edx
    47ea:	85 c0                	test   %eax,%eax
    47ec:	0f 84 8f 00 00 00    	je     4881 <request_address+0xc1>
    47f2:	85 db                	test   %ebx,%ebx
    47f4:	74 6f                	je     4865 <request_address+0xa5>
    47f6:	b9 13 c3 02 00       	mov    $0x2c313,%ecx
    47fb:	80 7d e7 00          	cmpb   $0x0,-0x19(%ebp)
    47ff:	74 05                	je     4806 <request_address+0x46>
    4801:	b9 0f c3 02 00       	mov    $0x2c30f,%ecx
    4806:	0f bf 33             	movswl (%ebx),%esi
    4809:	89 3c 24             	mov    %edi,(%esp)
    480c:	89 55 e0             	mov    %edx,-0x20(%ebp)
    480f:	89 4d dc             	mov    %ecx,-0x24(%ebp)
    4812:	e8 19 1e 00 00       	call   6630 <usb_str_speed>
    4817:	8b 4d dc             	mov    -0x24(%ebp),%ecx
    481a:	89 74 24 10          	mov    %esi,0x10(%esp)
    481e:	89 44 24 0c          	mov    %eax,0xc(%esp)
    4822:	89 4c 24 14          	mov    %ecx,0x14(%esp)
    4826:	c7 44 24 08 90 c3 02 	movl   $0x2c390,0x8(%esp)
    482d:	00 
    482e:	c7 44 24 04 04 00 00 	movl   $0x4,0x4(%esp)
    4835:	00 
    4836:	c7 04 24 ff ff ff ff 	movl   $0xffffffff,(%esp)
    483d:	e8 be 2c 01 00       	call   17500 <log_msg>
    4842:	8a 45 e7             	mov    -0x19(%ebp),%al
    4845:	8b 55 e0             	mov    -0x20(%ebp),%edx
    4848:	25 ff 00 00 00       	and    $0xff,%eax
    484d:	89 7d 14             	mov    %edi,0x14(%ebp)
    4850:	89 5d 0c             	mov    %ebx,0xc(%ebp)
    4853:	89 45 10             	mov    %eax,0x10(%ebp)
    4856:	89 55 08             	mov    %edx,0x8(%ebp)
    4859:	83 c4 3c             	add    $0x3c,%esp
    485c:	5b                   	pop    %ebx
    485d:	5e                   	pop    %esi
    485e:	5f                   	pop    %edi
    485f:	5d                   	pop    %ebp
    4860:	e9 cb 09 00 00       	jmp    5230 <usb_device_manager_request_address>
    4865:	c7 44 24 08 a1 00 00 	movl   $0xa1,0x8(%esp)
    486c:	00 
    486d:	c7 44 24 04 03 c3 02 	movl   $0x2c303,0x4(%esp)
    4874:	00 
    4875:	c7 04 24 3f cb 02 00 	movl   $0x2cb3f,(%esp)
    487c:	e8 7f 25 02 00       	call   26e00 <assert_abort>
    4881:	c7 44 24 08 a0 00 00 	movl   $0xa0,0x8(%esp)
    4888:	00 
    4889:	c7 44 24 04 03 c3 02 	movl   $0x2c303,0x4(%esp)
    4890:	00 
    4891:	c7 04 24 92 b4 02 00 	movl   $0x2b492,(%esp)
    4898:	e8 63 25 02 00       	call   26e00 <assert_abort>
    489d:	c7 44 24 08 9e 00 00 	movl   $0x9e,0x8(%esp)
    48a4:	00 
    48a5:	c7 44 24 04 03 c3 02 	movl   $0x2c303,0x4(%esp)
    48ac:	00 
    48ad:	c7 04 24 89 ba 02 00 	movl   $0x2ba89,(%esp)
    48b4:	e8 47 25 02 00       	call   26e00 <assert_abort>
    48b9:	8d b4 26 00 00 00 00 	lea    0x0(%esi,%eiz,1),%esi

000048c0 <unregister_helper>:
    48c0:	55                   	push   %ebp
    48c1:	89 e5                	mov    %esp,%ebp
    48c3:	83 ec 18             	sub    $0x18,%esp
    48c6:	8b 55 08             	mov    0x8(%ebp),%edx
    48c9:	8b 45 0c             	mov    0xc(%ebp),%eax
    48cc:	85 d2                	test   %edx,%edx
    48ce:	74 36                	je     4906 <unregister_helper+0x46>
    48d0:	85 c0                	test   %eax,%eax
    48d2:	74 16                	je     48ea <unregister_helper+0x2a>
    48d4:	8b 88 88 06 00 00    	mov    0x688(%eax),%ecx
    48da:	85 c9                	test   %ecx,%ecx
    48dc:	74 0a                	je     48e8 <unregister_helper+0x28>
    48de:	89 55 0c             	mov    %edx,0xc(%ebp)
    48e1:	89 45 08             	mov    %eax,0x8(%ebp)
    48e4:	c9                   	leave  
    48e5:	ff e1                	jmp    *%ecx
    48e7:	90                   	nop
    48e8:	c9                   	leave  
    48e9:	c3                   	ret    
    48ea:	c7 44 24 08 7e 00 00 	movl   $0x7e,0x8(%esp)
    48f1:	00 
    48f2:	c7 44 24 04 03 c3 02 	movl   $0x2c303,0x4(%esp)
    48f9:	00 
    48fa:	c7 04 24 92 b4 02 00 	movl   $0x2b492,(%esp)
    4901:	e8 fa 24 02 00       	call   26e00 <assert_abort>
    4906:	c7 44 24 08 7d 00 00 	movl   $0x7d,0x8(%esp)
    490d:	00 
    490e:	c7 44 24 04 03 c3 02 	movl   $0x2c303,0x4(%esp)
    4915:	00 
    4916:	c7 04 24 3f bd 02 00 	movl   $0x2bd3f,(%esp)
    491d:	e8 de 24 02 00       	call   26e00 <assert_abort>
    4922:	8d b4 26 00 00 00 00 	lea    0x0(%esi,%eiz,1),%esi
    4929:	8d bc 27 00 00 00 00 	lea    0x0(%edi,%eiz,1),%edi

00004930 <register_helper>:
    4930:	55                   	push   %ebp
    4931:	89 e5                	mov    %esp,%ebp
    4933:	83 ec 18             	sub    $0x18,%esp
    4936:	8b 55 08             	mov    0x8(%ebp),%edx
    4939:	8b 45 0c             	mov    0xc(%ebp),%eax
    493c:	85 d2                	test   %edx,%edx
    493e:	74 38                	je     4978 <register_helper+0x48>
    4940:	85 c0                	test   %eax,%eax
    4942:	74 18                	je     495c <register_helper+0x2c>
    4944:	8b 88 84 06 00 00    	mov    0x684(%eax),%ecx
    494a:	85 c9                	test   %ecx,%ecx
    494c:	74 0a                	je     4958 <register_helper+0x28>
    494e:	89 55 0c             	mov    %edx,0xc(%ebp)
    4951:	89 45 08             	mov    %eax,0x8(%ebp)
    4954:	c9                   	leave  
    4955:	ff e1                	jmp    *%ecx
    4957:	90                   	nop
    4958:	31 c0                	xor    %eax,%eax
    495a:	c9                   	leave  
    495b:	c3                   	ret    
    495c:	c7 44 24 08 70 00 00 	movl   $0x70,0x8(%esp)
    4963:	00 
    4964:	c7 44 24 04 03 c3 02 	movl   $0x2c303,0x4(%esp)
    496b:	00 
    496c:	c7 04 24 92 b4 02 00 	movl   $0x2b492,(%esp)
    4973:	e8 88 24 02 00       	call   26e00 <assert_abort>
    4978:	c7 44 24 08 6f 00 00 	movl   $0x6f,0x8(%esp)
    497f:	00 
    4980:	c7 44 24 04 03 c3 02 	movl   $0x2c303,0x4(%esp)
    4987:	00 
    4988:	c7 04 24 3f bd 02 00 	movl   $0x2bd3f,(%esp)
    498f:	e8 6c 24 02 00       	call   26e00 <assert_abort>
    4994:	8d b6 00 00 00 00    	lea    0x0(%esi),%esi
    499a:	8d bf 00 00 00 00    	lea    0x0(%edi),%edi

000049a0 <usb_read>:
    49a0:	55                   	push   %ebp
    49a1:	89 e5                	mov    %esp,%ebp
    49a3:	57                   	push   %edi
    49a4:	56                   	push   %esi
    49a5:	53                   	push   %ebx
    49a6:	83 ec 4c             	sub    $0x4c,%esp
    49a9:	8b 55 14             	mov    0x14(%ebp),%edx
    49ac:	8b 7d 0c             	mov    0xc(%ebp),%edi
    49af:	8b 45 10             	mov    0x10(%ebp),%eax
    49b2:	89 55 e4             	mov    %edx,-0x1c(%ebp)
    49b5:	8b 55 08             	mov    0x8(%ebp),%edx
    49b8:	89 fe                	mov    %edi,%esi
    49ba:	c1 ef 10             	shr    $0x10,%edi
    49bd:	89 45 e0             	mov    %eax,-0x20(%ebp)
    49c0:	85 d2                	test   %edx,%edx
    49c2:	0f 84 11 02 00 00    	je     4bd9 <usb_read+0x239>
    49c8:	8b 55 08             	mov    0x8(%ebp),%edx
    49cb:	89 14 24             	mov    %edx,(%esp)
    49ce:	e8 3d 28 00 00       	call   7210 <ddf_fun_data_get>
    49d3:	89 c3                	mov    %eax,%ebx
    49d5:	85 c0                	test   %eax,%eax
    49d7:	0f 84 e0 01 00 00    	je     4bbd <usb_read+0x21d>
    49dd:	0f bf d6             	movswl %si,%edx
    49e0:	8d 80 24 06 00 00    	lea    0x624(%eax),%eax
    49e6:	89 54 24 04          	mov    %edx,0x4(%esp)
    49ea:	0f bf ff             	movswl %di,%edi
    49ed:	c7 44 24 0c 00 00 00 	movl   $0x0,0xc(%esp)
    49f4:	00 
    49f5:	89 7c 24 08          	mov    %edi,0x8(%esp)
    49f9:	89 04 24             	mov    %eax,(%esp)
    49fc:	89 55 dc             	mov    %edx,-0x24(%ebp)
    49ff:	e8 dc 12 00 00       	call   5ce0 <usb_endpoint_manager_find_ep>
    4a04:	8b 55 dc             	mov    -0x24(%ebp),%edx
    4a07:	89 c6                	mov    %eax,%esi
    4a09:	85 c0                	test   %eax,%eax
    4a0b:	0f 84 52 01 00 00    	je     4b63 <usb_read+0x1c3>
    4a11:	8b 40 18             	mov    0x18(%eax),%eax
    4a14:	89 54 24 10          	mov    %edx,0x10(%esp)
    4a18:	89 44 24 1c          	mov    %eax,0x1c(%esp)
    4a1c:	8b 45 1c             	mov    0x1c(%ebp),%eax
    4a1f:	89 44 24 18          	mov    %eax,0x18(%esp)
    4a23:	89 7c 24 14          	mov    %edi,0x14(%esp)
    4a27:	c7 44 24 0c 16 c3 02 	movl   $0x2c316,0xc(%esp)
    4a2e:	00 
    4a2f:	c7 44 24 08 1b c3 02 	movl   $0x2c31b,0x8(%esp)
    4a36:	00 
    4a37:	c7 44 24 04 05 00 00 	movl   $0x5,0x4(%esp)
    4a3e:	00 
    4a3f:	c7 04 24 ff ff ff ff 	movl   $0xffffffff,(%esp)
    4a46:	e8 b5 2a 01 00       	call   17500 <log_msg>
    4a4b:	8b 46 18             	mov    0x18(%esi),%eax
    4a4e:	8b 55 1c             	mov    0x1c(%ebp),%edx
    4a51:	89 44 24 0c          	mov    %eax,0xc(%esp)
    4a55:	89 54 24 08          	mov    %edx,0x8(%esp)
    4a59:	8b 46 10             	mov    0x10(%esi),%eax
    4a5c:	89 44 24 04          	mov    %eax,0x4(%esp)
    4a60:	8b 46 14             	mov    0x14(%esi),%eax
    4a63:	89 04 24             	mov    %eax,(%esp)
    4a66:	e8 a5 0d 00 00       	call   5810 <bandwidth_count_usb11>
    4a6b:	8b 56 1c             	mov    0x1c(%esi),%edx
    4a6e:	39 d0                	cmp    %edx,%eax
    4a70:	0f 87 aa 00 00 00    	ja     4b20 <usb_read+0x180>
    4a76:	8b 83 80 06 00 00    	mov    0x680(%ebx),%eax
    4a7c:	85 c0                	test   %eax,%eax
    4a7e:	0f 84 13 01 00 00    	je     4b97 <usb_read+0x1f7>
    4a84:	8b 45 24             	mov    0x24(%ebp),%eax
    4a87:	8b 55 08             	mov    0x8(%ebp),%edx
    4a8a:	89 44 24 1c          	mov    %eax,0x1c(%esp)
    4a8e:	8b 45 20             	mov    0x20(%ebp),%eax
    4a91:	89 54 24 20          	mov    %edx,0x20(%esp)
    4a95:	89 44 24 14          	mov    %eax,0x14(%esp)
    4a99:	8b 55 e4             	mov    -0x1c(%ebp),%edx
    4a9c:	8b 45 e0             	mov    -0x20(%ebp),%eax
    4a9f:	89 44 24 0c          	mov    %eax,0xc(%esp)
    4aa3:	89 54 24 10          	mov    %edx,0x10(%esp)
    4aa7:	8b 45 18             	mov    0x18(%ebp),%eax
    4aaa:	8b 55 1c             	mov    0x1c(%ebp),%edx
    4aad:	89 34 24             	mov    %esi,(%esp)
    4ab0:	c7 44 24 28 00 00 00 	movl   $0x0,0x28(%esp)
    4ab7:	00 
    4ab8:	c7 44 24 24 00 00 00 	movl   $0x0,0x24(%esp)
    4abf:	00 
    4ac0:	c7 44 24 18 00 00 00 	movl   $0x0,0x18(%esp)
    4ac7:	00 
    4ac8:	89 54 24 08          	mov    %edx,0x8(%esp)
    4acc:	89 44 24 04          	mov    %eax,0x4(%esp)
    4ad0:	e8 9b 16 00 00       	call   6170 <usb_transfer_batch_create>
    4ad5:	89 c6                	mov    %eax,%esi
    4ad7:	85 c0                	test   %eax,%eax
    4ad9:	74 3d                	je     4b18 <usb_read+0x178>
    4adb:	89 44 24 04          	mov    %eax,0x4(%esp)
    4adf:	89 1c 24             	mov    %ebx,(%esp)
    4ae2:	ff 93 80 06 00 00    	call   *0x680(%ebx)
    4ae8:	31 d2                	xor    %edx,%edx
    4aea:	85 c0                	test   %eax,%eax
    4aec:	75 0a                	jne    4af8 <usb_read+0x158>
    4aee:	83 c4 4c             	add    $0x4c,%esp
    4af1:	89 d0                	mov    %edx,%eax
    4af3:	5b                   	pop    %ebx
    4af4:	5e                   	pop    %esi
    4af5:	5f                   	pop    %edi
    4af6:	5d                   	pop    %ebp
    4af7:	c3                   	ret    
    4af8:	89 34 24             	mov    %esi,(%esp)
    4afb:	89 45 dc             	mov    %eax,-0x24(%ebp)
    4afe:	e8 6d 17 00 00       	call   6270 <usb_transfer_batch_destroy>
    4b03:	8b 45 dc             	mov    -0x24(%ebp),%eax
    4b06:	83 c4 4c             	add    $0x4c,%esp
    4b09:	89 c2                	mov    %eax,%edx
    4b0b:	89 d0                	mov    %edx,%eax
    4b0d:	5b                   	pop    %ebx
    4b0e:	5e                   	pop    %esi
    4b0f:	5f                   	pop    %edi
    4b10:	5d                   	pop    %ebp
    4b11:	c3                   	ret    
    4b12:	8d b6 00 00 00 00    	lea    0x0(%esi),%esi
    4b18:	ba fe ff ff ff       	mov    $0xfffffffe,%edx
    4b1d:	eb cf                	jmp    4aee <usb_read+0x14e>
    4b1f:	90                   	nop
    4b20:	89 54 24 1c          	mov    %edx,0x1c(%esp)
    4b24:	89 44 24 18          	mov    %eax,0x18(%esp)
    4b28:	c7 44 24 14 16 c3 02 	movl   $0x2c316,0x14(%esp)
    4b2f:	00 
    4b30:	0f bf 46 0a          	movswl 0xa(%esi),%eax
    4b34:	89 44 24 10          	mov    %eax,0x10(%esp)
    4b38:	0f bf 46 08          	movswl 0x8(%esi),%eax
    4b3c:	c7 44 24 08 f0 c3 02 	movl   $0x2c3f0,0x8(%esp)
    4b43:	00 
    4b44:	89 44 24 0c          	mov    %eax,0xc(%esp)
    4b48:	c7 44 24 04 01 00 00 	movl   $0x1,0x4(%esp)
    4b4f:	00 
    4b50:	c7 04 24 ff ff ff ff 	movl   $0xffffffff,(%esp)
    4b57:	e8 a4 29 01 00       	call   17500 <log_msg>
    4b5c:	ba fd fe ff ff       	mov    $0xfffffefd,%edx
    4b61:	eb 8b                	jmp    4aee <usb_read+0x14e>
    4b63:	89 54 24 0c          	mov    %edx,0xc(%esp)
    4b67:	c7 44 24 14 16 c3 02 	movl   $0x2c316,0x14(%esp)
    4b6e:	00 
    4b6f:	89 7c 24 10          	mov    %edi,0x10(%esp)
    4b73:	c7 44 24 08 c8 c3 02 	movl   $0x2c3c8,0x8(%esp)
    4b7a:	00 
    4b7b:	c7 44 24 04 01 00 00 	movl   $0x1,0x4(%esp)
    4b82:	00 
    4b83:	c7 04 24 ff ff ff ff 	movl   $0xffffffff,(%esp)
    4b8a:	e8 71 29 01 00       	call   17500 <log_msg>
    4b8f:	83 ca ff             	or     $0xffffffff,%edx
    4b92:	e9 57 ff ff ff       	jmp    4aee <usb_read+0x14e>
    4b97:	c7 44 24 08 2c c4 02 	movl   $0x2c42c,0x8(%esp)
    4b9e:	00 
    4b9f:	c7 44 24 04 01 00 00 	movl   $0x1,0x4(%esp)
    4ba6:	00 
    4ba7:	c7 04 24 ff ff ff ff 	movl   $0xffffffff,(%esp)
    4bae:	e8 4d 29 01 00       	call   17500 <log_msg>
    4bb3:	ba f5 ff ff ff       	mov    $0xfffffff5,%edx
    4bb8:	e9 31 ff ff ff       	jmp    4aee <usb_read+0x14e>
    4bbd:	c7 44 24 08 3d 00 00 	movl   $0x3d,0x8(%esp)
    4bc4:	00 
    4bc5:	c7 44 24 04 03 c3 02 	movl   $0x2c303,0x4(%esp)
    4bcc:	00 
    4bcd:	c7 04 24 92 b4 02 00 	movl   $0x2b492,(%esp)
    4bd4:	e8 27 22 02 00       	call   26e00 <assert_abort>
    4bd9:	c7 44 24 08 3b 00 00 	movl   $0x3b,0x8(%esp)
    4be0:	00 
    4be1:	c7 44 24 04 03 c3 02 	movl   $0x2c303,0x4(%esp)
    4be8:	00 
    4be9:	c7 04 24 89 ba 02 00 	movl   $0x2ba89,(%esp)
    4bf0:	e8 0b 22 02 00       	call   26e00 <assert_abort>
    4bf5:	8d 74 26 00          	lea    0x0(%esi,%eiz,1),%esi
    4bf9:	8d bc 27 00 00 00 00 	lea    0x0(%edi,%eiz,1),%edi

00004c00 <unregister_helper_warn>:
    4c00:	55                   	push   %ebp
    4c01:	89 e5                	mov    %esp,%ebp
    4c03:	56                   	push   %esi
    4c04:	53                   	push   %ebx
    4c05:	83 ec 20             	sub    $0x20,%esp
    4c08:	8b 5d 08             	mov    0x8(%ebp),%ebx
    4c0b:	8b 75 0c             	mov    0xc(%ebp),%esi
    4c0e:	85 db                	test   %ebx,%ebx
    4c10:	0f 84 7d 00 00 00    	je     4c93 <unregister_helper_warn+0x93>
    4c16:	85 f6                	test   %esi,%esi
    4c18:	74 5d                	je     4c77 <unregister_helper_warn+0x77>
    4c1a:	8b 43 0c             	mov    0xc(%ebx),%eax
    4c1d:	89 04 24             	mov    %eax,(%esp)
    4c20:	e8 eb 19 00 00       	call   6610 <usb_str_direction>
    4c25:	89 44 24 14          	mov    %eax,0x14(%esp)
    4c29:	0f bf 43 0a          	movswl 0xa(%ebx),%eax
    4c2d:	89 44 24 10          	mov    %eax,0x10(%esp)
    4c31:	0f bf 43 08          	movswl 0x8(%ebx),%eax
    4c35:	c7 44 24 08 50 c4 02 	movl   $0x2c450,0x8(%esp)
    4c3c:	00 
    4c3d:	89 44 24 0c          	mov    %eax,0xc(%esp)
    4c41:	c7 44 24 04 02 00 00 	movl   $0x2,0x4(%esp)
    4c48:	00 
    4c49:	c7 04 24 ff ff ff ff 	movl   $0xffffffff,(%esp)
    4c50:	e8 ab 28 01 00       	call   17500 <log_msg>
    4c55:	8b 86 88 06 00 00    	mov    0x688(%esi),%eax
    4c5b:	85 c0                	test   %eax,%eax
    4c5d:	74 11                	je     4c70 <unregister_helper_warn+0x70>
    4c5f:	89 5d 0c             	mov    %ebx,0xc(%ebp)
    4c62:	89 75 08             	mov    %esi,0x8(%ebp)
    4c65:	83 c4 20             	add    $0x20,%esp
    4c68:	5b                   	pop    %ebx
    4c69:	5e                   	pop    %esi
    4c6a:	5d                   	pop    %ebp
    4c6b:	ff e0                	jmp    *%eax
    4c6d:	8d 76 00             	lea    0x0(%esi),%esi
    4c70:	83 c4 20             	add    $0x20,%esp
    4c73:	5b                   	pop    %ebx
    4c74:	5e                   	pop    %esi
    4c75:	5d                   	pop    %ebp
    4c76:	c3                   	ret    
    4c77:	c7 44 24 08 8b 00 00 	movl   $0x8b,0x8(%esp)
    4c7e:	00 
    4c7f:	c7 44 24 04 03 c3 02 	movl   $0x2c303,0x4(%esp)
    4c86:	00 
    4c87:	c7 04 24 92 b4 02 00 	movl   $0x2b492,(%esp)
    4c8e:	e8 6d 21 02 00       	call   26e00 <assert_abort>
    4c93:	c7 44 24 08 8a 00 00 	movl   $0x8a,0x8(%esp)
    4c9a:	00 
    4c9b:	c7 44 24 04 03 c3 02 	movl   $0x2c303,0x4(%esp)
    4ca2:	00 
    4ca3:	c7 04 24 3f bd 02 00 	movl   $0x2bd3f,(%esp)
    4caa:	e8 51 21 02 00       	call   26e00 <assert_abort>
    4caf:	90                   	nop

00004cb0 <unregister_endpoint>:
    4cb0:	55                   	push   %ebp
    4cb1:	89 e5                	mov    %esp,%ebp
    4cb3:	57                   	push   %edi
    4cb4:	56                   	push   %esi
    4cb5:	53                   	push   %ebx
    4cb6:	83 ec 2c             	sub    $0x2c,%esp
    4cb9:	8b 45 08             	mov    0x8(%ebp),%eax
    4cbc:	0f bf 75 0c          	movswl 0xc(%ebp),%esi
    4cc0:	0f bf 7d 10          	movswl 0x10(%ebp),%edi
    4cc4:	85 c0                	test   %eax,%eax
    4cc6:	74 76                	je     4d3e <unregister_endpoint+0x8e>
    4cc8:	89 04 24             	mov    %eax,(%esp)
    4ccb:	e8 40 25 00 00       	call   7210 <ddf_fun_data_get>
    4cd0:	89 c3                	mov    %eax,%ebx
    4cd2:	85 c0                	test   %eax,%eax
    4cd4:	0f 84 80 00 00 00    	je     4d5a <unregister_endpoint+0xaa>
    4cda:	8b 55 14             	mov    0x14(%ebp),%edx
    4cdd:	89 14 24             	mov    %edx,(%esp)
    4ce0:	e8 2b 19 00 00       	call   6610 <usb_str_direction>
    4ce5:	89 7c 24 10          	mov    %edi,0x10(%esp)
    4ce9:	89 44 24 14          	mov    %eax,0x14(%esp)
    4ced:	89 74 24 0c          	mov    %esi,0xc(%esp)
    4cf1:	c7 44 24 08 80 c4 02 	movl   $0x2c480,0x8(%esp)
    4cf8:	00 
    4cf9:	c7 44 24 04 04 00 00 	movl   $0x4,0x4(%esp)
    4d00:	00 
    4d01:	c7 04 24 ff ff ff ff 	movl   $0xffffffff,(%esp)
    4d08:	e8 f3 27 01 00       	call   17500 <log_msg>
    4d0d:	8b 55 14             	mov    0x14(%ebp),%edx
    4d10:	89 54 24 0c          	mov    %edx,0xc(%esp)
    4d14:	8d 93 24 06 00 00    	lea    0x624(%ebx),%edx
    4d1a:	89 5c 24 14          	mov    %ebx,0x14(%esp)
    4d1e:	89 7c 24 08          	mov    %edi,0x8(%esp)
    4d22:	89 74 24 04          	mov    %esi,0x4(%esp)
    4d26:	c7 44 24 10 c0 48 00 	movl   $0x48c0,0x10(%esp)
    4d2d:	00 
    4d2e:	89 14 24             	mov    %edx,(%esp)
    4d31:	e8 fa 11 00 00       	call   5f30 <usb_endpoint_manager_remove_ep>
    4d36:	83 c4 2c             	add    $0x2c,%esp
    4d39:	5b                   	pop    %ebx
    4d3a:	5e                   	pop    %esi
    4d3b:	5f                   	pop    %edi
    4d3c:	5d                   	pop    %ebp
    4d3d:	c3                   	ret    
    4d3e:	c7 44 24 08 0e 01 00 	movl   $0x10e,0x8(%esp)
    4d45:	00 
    4d46:	c7 44 24 04 03 c3 02 	movl   $0x2c303,0x4(%esp)
    4d4d:	00 
    4d4e:	c7 04 24 89 ba 02 00 	movl   $0x2ba89,(%esp)
    4d55:	e8 a6 20 02 00       	call   26e00 <assert_abort>
    4d5a:	c7 44 24 08 10 01 00 	movl   $0x110,0x8(%esp)
    4d61:	00 
    4d62:	c7 44 24 04 03 c3 02 	movl   $0x2c303,0x4(%esp)
    4d69:	00 
    4d6a:	c7 04 24 92 b4 02 00 	movl   $0x2b492,(%esp)
    4d71:	e8 8a 20 02 00       	call   26e00 <assert_abort>
    4d76:	8d 76 00             	lea    0x0(%esi),%esi
    4d79:	8d bc 27 00 00 00 00 	lea    0x0(%edi,%eiz,1),%edi

00004d80 <find_by_address>:
    4d80:	55                   	push   %ebp
    4d81:	89 e5                	mov    %esp,%ebp
    4d83:	53                   	push   %ebx
    4d84:	83 ec 14             	sub    $0x14,%esp
    4d87:	8b 45 08             	mov    0x8(%ebp),%eax
    4d8a:	0f bf 5d 0c          	movswl 0xc(%ebp),%ebx
    4d8e:	85 c0                	test   %eax,%eax
    4d90:	74 2d                	je     4dbf <find_by_address+0x3f>
    4d92:	89 04 24             	mov    %eax,(%esp)
    4d95:	e8 76 24 00 00       	call   7210 <ddf_fun_data_get>
    4d9a:	85 c0                	test   %eax,%eax
    4d9c:	74 3d                	je     4ddb <find_by_address+0x5b>
    4d9e:	8b 55 10             	mov    0x10(%ebp),%edx
    4da1:	89 5c 24 04          	mov    %ebx,0x4(%esp)
    4da5:	c7 44 24 0c 00 00 00 	movl   $0x0,0xc(%esp)
    4dac:	00 
    4dad:	89 54 24 08          	mov    %edx,0x8(%esp)
    4db1:	89 04 24             	mov    %eax,(%esp)
    4db4:	e8 a7 08 00 00       	call   5660 <usb_device_manager_get_info_by_address>
    4db9:	83 c4 14             	add    $0x14,%esp
    4dbc:	5b                   	pop    %ebx
    4dbd:	5d                   	pop    %ebp
    4dbe:	c3                   	ret    
    4dbf:	c7 44 24 08 c6 00 00 	movl   $0xc6,0x8(%esp)
    4dc6:	00 
    4dc7:	c7 44 24 04 03 c3 02 	movl   $0x2c303,0x4(%esp)
    4dce:	00 
    4dcf:	c7 04 24 89 ba 02 00 	movl   $0x2ba89,(%esp)
    4dd6:	e8 25 20 02 00       	call   26e00 <assert_abort>
    4ddb:	c7 44 24 08 c8 00 00 	movl   $0xc8,0x8(%esp)
    4de2:	00 
    4de3:	c7 44 24 04 03 c3 02 	movl   $0x2c303,0x4(%esp)
    4dea:	00 
    4deb:	c7 04 24 92 b4 02 00 	movl   $0x2b492,(%esp)
    4df2:	e8 09 20 02 00       	call   26e00 <assert_abort>
    4df7:	89 f6                	mov    %esi,%esi
    4df9:	8d bc 27 00 00 00 00 	lea    0x0(%edi,%eiz,1),%edi

00004e00 <release_address>:
    4e00:	55                   	push   %ebp
    4e01:	89 e5                	mov    %esp,%ebp
    4e03:	56                   	push   %esi
    4e04:	53                   	push   %ebx
    4e05:	83 ec 10             	sub    $0x10,%esp
    4e08:	8b 45 08             	mov    0x8(%ebp),%eax
    4e0b:	0f bf 75 0c          	movswl 0xc(%ebp),%esi
    4e0f:	85 c0                	test   %eax,%eax
    4e11:	74 61                	je     4e74 <release_address+0x74>
    4e13:	89 04 24             	mov    %eax,(%esp)
    4e16:	e8 f5 23 00 00       	call   7210 <ddf_fun_data_get>
    4e1b:	89 c3                	mov    %eax,%ebx
    4e1d:	85 c0                	test   %eax,%eax
    4e1f:	74 6f                	je     4e90 <release_address+0x90>
    4e21:	89 74 24 0c          	mov    %esi,0xc(%esp)
    4e25:	c7 44 24 08 2f c3 02 	movl   $0x2c32f,0x8(%esp)
    4e2c:	00 
    4e2d:	c7 44 24 04 04 00 00 	movl   $0x4,0x4(%esp)
    4e34:	00 
    4e35:	c7 04 24 ff ff ff ff 	movl   $0xffffffff,(%esp)
    4e3c:	e8 bf 26 01 00       	call   17500 <log_msg>
    4e41:	89 74 24 04          	mov    %esi,0x4(%esp)
    4e45:	89 1c 24             	mov    %ebx,(%esp)
    4e48:	e8 c3 06 00 00       	call   5510 <usb_device_manager_release_address>
    4e4d:	89 5c 24 0c          	mov    %ebx,0xc(%esp)
    4e51:	81 c3 24 06 00 00    	add    $0x624,%ebx
    4e57:	89 74 24 04          	mov    %esi,0x4(%esp)
    4e5b:	89 1c 24             	mov    %ebx,(%esp)
    4e5e:	c7 44 24 08 00 4c 00 	movl   $0x4c00,0x8(%esp)
    4e65:	00 
    4e66:	e8 a5 11 00 00       	call   6010 <usb_endpoint_manager_remove_address>
    4e6b:	83 c4 10             	add    $0x10,%esp
    4e6e:	31 c0                	xor    %eax,%eax
    4e70:	5b                   	pop    %ebx
    4e71:	5e                   	pop    %esi
    4e72:	5d                   	pop    %ebp
    4e73:	c3                   	ret    
    4e74:	c7 44 24 08 d5 00 00 	movl   $0xd5,0x8(%esp)
    4e7b:	00 
    4e7c:	c7 44 24 04 03 c3 02 	movl   $0x2c303,0x4(%esp)
    4e83:	00 
    4e84:	c7 04 24 89 ba 02 00 	movl   $0x2ba89,(%esp)
    4e8b:	e8 70 1f 02 00       	call   26e00 <assert_abort>
    4e90:	c7 44 24 08 d7 00 00 	movl   $0xd7,0x8(%esp)
    4e97:	00 
    4e98:	c7 44 24 04 03 c3 02 	movl   $0x2c303,0x4(%esp)
    4e9f:	00 
    4ea0:	c7 04 24 92 b4 02 00 	movl   $0x2b492,(%esp)
    4ea7:	e8 54 1f 02 00       	call   26e00 <assert_abort>
    4eac:	8d 74 26 00          	lea    0x0(%esi,%eiz,1),%esi

00004eb0 <bind_address>:
    4eb0:	55                   	push   %ebp
    4eb1:	89 e5                	mov    %esp,%ebp
    4eb3:	57                   	push   %edi
    4eb4:	56                   	push   %esi
    4eb5:	53                   	push   %ebx
    4eb6:	83 ec 2c             	sub    $0x2c,%esp
    4eb9:	8b 45 08             	mov    0x8(%ebp),%eax
    4ebc:	8b 5d 10             	mov    0x10(%ebp),%ebx
    4ebf:	0f bf 75 0c          	movswl 0xc(%ebp),%esi
    4ec3:	85 c0                	test   %eax,%eax
    4ec5:	74 47                	je     4f0e <bind_address+0x5e>
    4ec7:	89 04 24             	mov    %eax,(%esp)
    4eca:	e8 41 23 00 00       	call   7210 <ddf_fun_data_get>
    4ecf:	89 c7                	mov    %eax,%edi
    4ed1:	85 c0                	test   %eax,%eax
    4ed3:	74 55                	je     4f2a <bind_address+0x7a>
    4ed5:	89 5c 24 10          	mov    %ebx,0x10(%esp)
    4ed9:	89 74 24 0c          	mov    %esi,0xc(%esp)
    4edd:	c7 44 24 08 44 c3 02 	movl   $0x2c344,0x8(%esp)
    4ee4:	00 
    4ee5:	c7 44 24 04 04 00 00 	movl   $0x4,0x4(%esp)
    4eec:	00 
    4eed:	c7 04 24 ff ff ff ff 	movl   $0xffffffff,(%esp)
    4ef4:	e8 07 26 01 00       	call   17500 <log_msg>
    4ef9:	89 5d 10             	mov    %ebx,0x10(%ebp)
    4efc:	89 75 0c             	mov    %esi,0xc(%ebp)
    4eff:	89 7d 08             	mov    %edi,0x8(%ebp)
    4f02:	83 c4 2c             	add    $0x2c,%esp
    4f05:	5b                   	pop    %ebx
    4f06:	5e                   	pop    %esi
    4f07:	5f                   	pop    %edi
    4f08:	5d                   	pop    %ebp
    4f09:	e9 62 05 00 00       	jmp    5470 <usb_device_manager_bind_address>
    4f0e:	c7 44 24 08 b3 00 00 	movl   $0xb3,0x8(%esp)
    4f15:	00 
    4f16:	c7 44 24 04 03 c3 02 	movl   $0x2c303,0x4(%esp)
    4f1d:	00 
    4f1e:	c7 04 24 89 ba 02 00 	movl   $0x2ba89,(%esp)
    4f25:	e8 d6 1e 02 00       	call   26e00 <assert_abort>
    4f2a:	c7 44 24 08 b5 00 00 	movl   $0xb5,0x8(%esp)
    4f31:	00 
    4f32:	c7 44 24 04 03 c3 02 	movl   $0x2c303,0x4(%esp)
    4f39:	00 
    4f3a:	c7 04 24 92 b4 02 00 	movl   $0x2b492,(%esp)
    4f41:	e8 ba 1e 02 00       	call   26e00 <assert_abort>
    4f46:	8d 76 00             	lea    0x0(%esi),%esi
    4f49:	8d bc 27 00 00 00 00 	lea    0x0(%edi,%eiz,1),%edi

00004f50 <usb_write>:
    4f50:	55                   	push   %ebp
    4f51:	89 e5                	mov    %esp,%ebp
    4f53:	57                   	push   %edi
    4f54:	56                   	push   %esi
    4f55:	53                   	push   %ebx
    4f56:	83 ec 4c             	sub    $0x4c,%esp
    4f59:	8b 7d 0c             	mov    0xc(%ebp),%edi
    4f5c:	8b 45 10             	mov    0x10(%ebp),%eax
    4f5f:	8b 55 14             	mov    0x14(%ebp),%edx
    4f62:	8b 5d 08             	mov    0x8(%ebp),%ebx
    4f65:	89 fe                	mov    %edi,%esi
    4f67:	89 45 e0             	mov    %eax,-0x20(%ebp)
    4f6a:	c1 ef 10             	shr    $0x10,%edi
    4f6d:	89 55 e4             	mov    %edx,-0x1c(%ebp)
    4f70:	85 db                	test   %ebx,%ebx
    4f72:	0f 84 11 02 00 00    	je     5189 <usb_write+0x239>
    4f78:	8b 55 08             	mov    0x8(%ebp),%edx
    4f7b:	89 14 24             	mov    %edx,(%esp)
    4f7e:	e8 8d 22 00 00       	call   7210 <ddf_fun_data_get>
    4f83:	89 c3                	mov    %eax,%ebx
    4f85:	85 c0                	test   %eax,%eax
    4f87:	0f 84 e0 01 00 00    	je     516d <usb_write+0x21d>
    4f8d:	0f bf d6             	movswl %si,%edx
    4f90:	8d 80 24 06 00 00    	lea    0x624(%eax),%eax
    4f96:	89 54 24 04          	mov    %edx,0x4(%esp)
    4f9a:	0f bf ff             	movswl %di,%edi
    4f9d:	c7 44 24 0c 01 00 00 	movl   $0x1,0xc(%esp)
    4fa4:	00 
    4fa5:	89 7c 24 08          	mov    %edi,0x8(%esp)
    4fa9:	89 04 24             	mov    %eax,(%esp)
    4fac:	89 55 dc             	mov    %edx,-0x24(%ebp)
    4faf:	e8 2c 0d 00 00       	call   5ce0 <usb_endpoint_manager_find_ep>
    4fb4:	8b 55 dc             	mov    -0x24(%ebp),%edx
    4fb7:	89 c6                	mov    %eax,%esi
    4fb9:	85 c0                	test   %eax,%eax
    4fbb:	0f 84 52 01 00 00    	je     5113 <usb_write+0x1c3>
    4fc1:	8b 40 18             	mov    0x18(%eax),%eax
    4fc4:	89 54 24 10          	mov    %edx,0x10(%esp)
    4fc8:	89 44 24 1c          	mov    %eax,0x1c(%esp)
    4fcc:	8b 45 1c             	mov    0x1c(%ebp),%eax
    4fcf:	89 44 24 18          	mov    %eax,0x18(%esp)
    4fd3:	89 7c 24 14          	mov    %edi,0x14(%esp)
    4fd7:	c7 44 24 0c 59 c3 02 	movl   $0x2c359,0xc(%esp)
    4fde:	00 
    4fdf:	c7 44 24 08 1b c3 02 	movl   $0x2c31b,0x8(%esp)
    4fe6:	00 
    4fe7:	c7 44 24 04 05 00 00 	movl   $0x5,0x4(%esp)
    4fee:	00 
    4fef:	c7 04 24 ff ff ff ff 	movl   $0xffffffff,(%esp)
    4ff6:	e8 05 25 01 00       	call   17500 <log_msg>
    4ffb:	8b 46 18             	mov    0x18(%esi),%eax
    4ffe:	8b 55 1c             	mov    0x1c(%ebp),%edx
    5001:	89 44 24 0c          	mov    %eax,0xc(%esp)
    5005:	89 54 24 08          	mov    %edx,0x8(%esp)
    5009:	8b 46 10             	mov    0x10(%esi),%eax
    500c:	89 44 24 04          	mov    %eax,0x4(%esp)
    5010:	8b 46 14             	mov    0x14(%esi),%eax
    5013:	89 04 24             	mov    %eax,(%esp)
    5016:	e8 f5 07 00 00       	call   5810 <bandwidth_count_usb11>
    501b:	8b 56 1c             	mov    0x1c(%esi),%edx
    501e:	39 d0                	cmp    %edx,%eax
    5020:	0f 87 aa 00 00 00    	ja     50d0 <usb_write+0x180>
    5026:	8b 8b 80 06 00 00    	mov    0x680(%ebx),%ecx
    502c:	85 c9                	test   %ecx,%ecx
    502e:	0f 84 13 01 00 00    	je     5147 <usb_write+0x1f7>
    5034:	8b 45 24             	mov    0x24(%ebp),%eax
    5037:	8b 55 08             	mov    0x8(%ebp),%edx
    503a:	89 44 24 1c          	mov    %eax,0x1c(%esp)
    503e:	8b 45 20             	mov    0x20(%ebp),%eax
    5041:	89 54 24 20          	mov    %edx,0x20(%esp)
    5045:	89 44 24 18          	mov    %eax,0x18(%esp)
    5049:	8b 55 e4             	mov    -0x1c(%ebp),%edx
    504c:	8b 45 e0             	mov    -0x20(%ebp),%eax
    504f:	89 44 24 0c          	mov    %eax,0xc(%esp)
    5053:	89 54 24 10          	mov    %edx,0x10(%esp)
    5057:	8b 45 18             	mov    0x18(%ebp),%eax
    505a:	8b 55 1c             	mov    0x1c(%ebp),%edx
    505d:	89 34 24             	mov    %esi,(%esp)
    5060:	c7 44 24 28 00 00 00 	movl   $0x0,0x28(%esp)
    5067:	00 
    5068:	c7 44 24 24 00 00 00 	movl   $0x0,0x24(%esp)
    506f:	00 
    5070:	c7 44 24 14 00 00 00 	movl   $0x0,0x14(%esp)
    5077:	00 
    5078:	89 54 24 08          	mov    %edx,0x8(%esp)
    507c:	89 44 24 04          	mov    %eax,0x4(%esp)
    5080:	e8 eb 10 00 00       	call   6170 <usb_transfer_batch_create>
    5085:	89 c6                	mov    %eax,%esi
    5087:	85 c0                	test   %eax,%eax
    5089:	74 3d                	je     50c8 <usb_write+0x178>
    508b:	89 44 24 04          	mov    %eax,0x4(%esp)
    508f:	89 1c 24             	mov    %ebx,(%esp)
    5092:	ff 93 80 06 00 00    	call   *0x680(%ebx)
    5098:	31 d2                	xor    %edx,%edx
    509a:	85 c0                	test   %eax,%eax
    509c:	75 0a                	jne    50a8 <usb_write+0x158>
    509e:	83 c4 4c             	add    $0x4c,%esp
    50a1:	89 d0                	mov    %edx,%eax
    50a3:	5b                   	pop    %ebx
    50a4:	5e                   	pop    %esi
    50a5:	5f                   	pop    %edi
    50a6:	5d                   	pop    %ebp
    50a7:	c3                   	ret    
    50a8:	89 34 24             	mov    %esi,(%esp)
    50ab:	89 45 dc             	mov    %eax,-0x24(%ebp)
    50ae:	e8 bd 11 00 00       	call   6270 <usb_transfer_batch_destroy>
    50b3:	8b 45 dc             	mov    -0x24(%ebp),%eax
    50b6:	83 c4 4c             	add    $0x4c,%esp
    50b9:	89 c2                	mov    %eax,%edx
    50bb:	89 d0                	mov    %edx,%eax
    50bd:	5b                   	pop    %ebx
    50be:	5e                   	pop    %esi
    50bf:	5f                   	pop    %edi
    50c0:	5d                   	pop    %ebp
    50c1:	c3                   	ret    
    50c2:	8d b6 00 00 00 00    	lea    0x0(%esi),%esi
    50c8:	ba fe ff ff ff       	mov    $0xfffffffe,%edx
    50cd:	eb cf                	jmp    509e <usb_write+0x14e>
    50cf:	90                   	nop
    50d0:	89 54 24 1c          	mov    %edx,0x1c(%esp)
    50d4:	89 44 24 18          	mov    %eax,0x18(%esp)
    50d8:	c7 44 24 14 59 c3 02 	movl   $0x2c359,0x14(%esp)
    50df:	00 
    50e0:	0f bf 46 0a          	movswl 0xa(%esi),%eax
    50e4:	89 44 24 10          	mov    %eax,0x10(%esp)
    50e8:	0f bf 46 08          	movswl 0x8(%esi),%eax
    50ec:	c7 44 24 08 f0 c3 02 	movl   $0x2c3f0,0x8(%esp)
    50f3:	00 
    50f4:	89 44 24 0c          	mov    %eax,0xc(%esp)
    50f8:	c7 44 24 04 01 00 00 	movl   $0x1,0x4(%esp)
    50ff:	00 
    5100:	c7 04 24 ff ff ff ff 	movl   $0xffffffff,(%esp)
    5107:	e8 f4 23 01 00       	call   17500 <log_msg>
    510c:	ba fd fe ff ff       	mov    $0xfffffefd,%edx
    5111:	eb 8b                	jmp    509e <usb_write+0x14e>
    5113:	89 54 24 0c          	mov    %edx,0xc(%esp)
    5117:	c7 44 24 14 59 c3 02 	movl   $0x2c359,0x14(%esp)
    511e:	00 
    511f:	89 7c 24 10          	mov    %edi,0x10(%esp)
    5123:	c7 44 24 08 c8 c3 02 	movl   $0x2c3c8,0x8(%esp)
    512a:	00 
    512b:	c7 44 24 04 01 00 00 	movl   $0x1,0x4(%esp)
    5132:	00 
    5133:	c7 04 24 ff ff ff ff 	movl   $0xffffffff,(%esp)
    513a:	e8 c1 23 01 00       	call   17500 <log_msg>
    513f:	83 ca ff             	or     $0xffffffff,%edx
    5142:	e9 57 ff ff ff       	jmp    509e <usb_write+0x14e>
    5147:	c7 44 24 08 2c c4 02 	movl   $0x2c42c,0x8(%esp)
    514e:	00 
    514f:	c7 44 24 04 01 00 00 	movl   $0x1,0x4(%esp)
    5156:	00 
    5157:	c7 04 24 ff ff ff ff 	movl   $0xffffffff,(%esp)
    515e:	e8 9d 23 01 00       	call   17500 <log_msg>
    5163:	ba f5 ff ff ff       	mov    $0xfffffff5,%edx
    5168:	e9 31 ff ff ff       	jmp    509e <usb_write+0x14e>
    516d:	c7 44 24 08 3d 00 00 	movl   $0x3d,0x8(%esp)
    5174:	00 
    5175:	c7 44 24 04 03 c3 02 	movl   $0x2c303,0x4(%esp)
    517c:	00 
    517d:	c7 04 24 92 b4 02 00 	movl   $0x2b492,(%esp)
    5184:	e8 77 1c 02 00       	call   26e00 <assert_abort>
    5189:	c7 44 24 08 3b 00 00 	movl   $0x3b,0x8(%esp)
    5190:	00 
    5191:	c7 44 24 04 03 c3 02 	movl   $0x2c303,0x4(%esp)
    5198:	00 
    5199:	c7 04 24 89 ba 02 00 	movl   $0x2ba89,(%esp)
    51a0:	e8 5b 1c 02 00       	call   26e00 <assert_abort>
    51a5:	66 90                	xchg   %ax,%ax
    51a7:	66 90                	xchg   %ax,%ax
    51a9:	66 90                	xchg   %ax,%ax
    51ab:	66 90                	xchg   %ax,%ax
    51ad:	66 90                	xchg   %ax,%ax
    51af:	90                   	nop

000051b0 <usb_device_manager_init>:
    51b0:	55                   	push   %ebp
    51b1:	89 e5                	mov    %esp,%ebp
    51b3:	53                   	push   %ebx
    51b4:	83 ec 14             	sub    $0x14,%esp
    51b7:	8b 4d 08             	mov    0x8(%ebp),%ecx
    51ba:	8b 5d 0c             	mov    0xc(%ebp),%ebx
    51bd:	85 c9                	test   %ecx,%ecx
    51bf:	74 46                	je     5207 <usb_device_manager_init+0x57>
    51c1:	8d 41 04             	lea    0x4(%ecx),%eax
    51c4:	31 d2                	xor    %edx,%edx
    51c6:	66 90                	xchg   %ax,%ax
    51c8:	42                   	inc    %edx
    51c9:	c6 00 00             	movb   $0x0,(%eax)
    51cc:	c7 40 04 00 00 00 00 	movl   $0x0,0x4(%eax)
    51d3:	c7 40 fc 03 00 00 00 	movl   $0x3,-0x4(%eax)
    51da:	83 c0 0c             	add    $0xc,%eax
    51dd:	81 fa 81 00 00 00    	cmp    $0x81,%edx
    51e3:	75 e3                	jne    51c8 <usb_device_manager_init+0x18>
    51e5:	66 c7 81 20 06 00 00 	movw   $0x1,0x620(%ecx)
    51ec:	01 00 
    51ee:	89 99 0c 06 00 00    	mov    %ebx,0x60c(%ecx)
    51f4:	81 c1 10 06 00 00    	add    $0x610,%ecx
    51fa:	89 4d 08             	mov    %ecx,0x8(%ebp)
    51fd:	83 c4 14             	add    $0x14,%esp
    5200:	5b                   	pop    %ebx
    5201:	5d                   	pop    %ebp
    5202:	e9 99 e0 00 00       	jmp    132a0 <fibril_mutex_initialize>
    5207:	c7 44 24 08 4a 00 00 	movl   $0x4a,0x8(%esp)
    520e:	00 
    520f:	c7 44 24 04 9f c4 02 	movl   $0x2c49f,0x4(%esp)
    5216:	00 
    5217:	c7 04 24 96 b4 02 00 	movl   $0x2b496,(%esp)
    521e:	e8 dd 1b 02 00       	call   26e00 <assert_abort>
    5223:	8d b6 00 00 00 00    	lea    0x0(%esi),%esi
    5229:	8d bc 27 00 00 00 00 	lea    0x0(%edi,%eiz,1),%edi

00005230 <usb_device_manager_request_address>:
    5230:	55                   	push   %ebp
    5231:	89 e5                	mov    %esp,%ebp
    5233:	57                   	push   %edi
    5234:	56                   	push   %esi
    5235:	53                   	push   %ebx
    5236:	83 ec 2c             	sub    $0x2c,%esp
    5239:	8b 5d 08             	mov    0x8(%ebp),%ebx
    523c:	8a 4d 10             	mov    0x10(%ebp),%cl
    523f:	88 4d e3             	mov    %cl,-0x1d(%ebp)
    5242:	85 db                	test   %ebx,%ebx
    5244:	0f 84 8d 01 00 00    	je     53d7 <usb_device_manager_request_address+0x1a7>
    524a:	8b 55 0c             	mov    0xc(%ebp),%edx
    524d:	85 d2                	test   %edx,%edx
    524f:	0f 84 9e 01 00 00    	je     53f3 <usb_device_manager_request_address+0x1c3>
    5255:	8b 75 14             	mov    0x14(%ebp),%esi
    5258:	39 b3 0c 06 00 00    	cmp    %esi,0x60c(%ebx)
    525e:	0f 82 6c 01 00 00    	jb     53d0 <usb_device_manager_request_address+0x1a0>
    5264:	8b 4d 0c             	mov    0xc(%ebp),%ecx
    5267:	66 81 39 80 00       	cmpw   $0x80,(%ecx)
    526c:	0f 87 2e 01 00 00    	ja     53a0 <usb_device_manager_request_address+0x170>
    5272:	8d b3 10 06 00 00    	lea    0x610(%ebx),%esi
    5278:	89 34 24             	mov    %esi,(%esp)
    527b:	89 75 e4             	mov    %esi,-0x1c(%ebp)
    527e:	e8 3d e0 00 00       	call   132c0 <fibril_mutex_lock>
    5283:	8b 75 0c             	mov    0xc(%ebp),%esi
    5286:	0f bf 0e             	movswl (%esi),%ecx
    5289:	66 85 c9             	test   %cx,%cx
    528c:	75 2a                	jne    52b8 <usb_device_manager_request_address+0x88>
    528e:	80 7d e3 00          	cmpb   $0x0,-0x1d(%ebp)
    5292:	0f 84 d0 00 00 00    	je     5368 <usb_device_manager_request_address+0x138>
    5298:	80 7b 04 00          	cmpb   $0x0,0x4(%ebx)
    529c:	0f 84 c1 01 00 00    	je     5463 <usb_device_manager_request_address+0x233>
    52a2:	8b 4d e4             	mov    -0x1c(%ebp),%ecx
    52a5:	89 0c 24             	mov    %ecx,(%esp)
    52a8:	e8 33 e1 00 00       	call   133e0 <fibril_mutex_unlock>
    52ad:	83 c8 ff             	or     $0xffffffff,%eax
    52b0:	e9 a4 00 00 00       	jmp    5359 <usb_device_manager_request_address+0x129>
    52b5:	8d 76 00             	lea    0x0(%esi),%esi
    52b8:	8d 04 49             	lea    (%ecx,%ecx,2),%eax
    52bb:	8d 04 83             	lea    (%ebx,%eax,4),%eax
    52be:	80 78 04 00          	cmpb   $0x0,0x4(%eax)
    52c2:	0f 84 df 00 00 00    	je     53a7 <usb_device_manager_request_address+0x177>
    52c8:	80 7d e3 00          	cmpb   $0x0,-0x1d(%ebp)
    52cc:	75 d4                	jne    52a2 <usb_device_manager_request_address+0x72>
    52ce:	8b b3 20 06 00 00    	mov    0x620(%ebx),%esi
    52d4:	0f bf c6             	movswl %si,%eax
    52d7:	40                   	inc    %eax
    52d8:	b9 81 00 00 00       	mov    $0x81,%ecx
    52dd:	89 c2                	mov    %eax,%edx
    52df:	c1 fa 1f             	sar    $0x1f,%edx
    52e2:	f7 f9                	idiv   %ecx
    52e4:	66 85 d2             	test   %dx,%dx
    52e7:	75 02                	jne    52eb <usb_device_manager_request_address+0xbb>
    52e9:	b2 01                	mov    $0x1,%dl
    52eb:	66 39 d6             	cmp    %dx,%si
    52ee:	0f 84 94 00 00 00    	je     5388 <usb_device_manager_request_address+0x158>
    52f4:	0f bf ca             	movswl %dx,%ecx
    52f7:	89 c8                	mov    %ecx,%eax
    52f9:	8d 3c 49             	lea    (%ecx,%ecx,2),%edi
    52fc:	80 7c bb 04 00       	cmpb   $0x0,0x4(%ebx,%edi,4)
    5301:	75 d4                	jne    52d7 <usb_device_manager_request_address+0xa7>
    5303:	66 85 d2             	test   %dx,%dx
    5306:	0f 84 1f 01 00 00    	je     542b <usb_device_manager_request_address+0x1fb>
    530c:	66 89 93 20 06 00 00 	mov    %dx,0x620(%ebx)
    5313:	31 c0                	xor    %eax,%eax
    5315:	8b 75 0c             	mov    0xc(%ebp),%esi
    5318:	84 c0                	test   %al,%al
    531a:	66 89 16             	mov    %dx,(%esi)
    531d:	0f 85 24 01 00 00    	jne    5447 <usb_device_manager_request_address+0x217>
    5323:	8d 04 49             	lea    (%ecx,%ecx,2),%eax
    5326:	8b 44 83 08          	mov    0x8(%ebx,%eax,4),%eax
    532a:	85 c0                	test   %eax,%eax
    532c:	75 7f                	jne    53ad <usb_device_manager_request_address+0x17d>
    532e:	66 85 d2             	test   %dx,%dx
    5331:	75 0a                	jne    533d <usb_device_manager_request_address+0x10d>
    5333:	80 7d e3 00          	cmpb   $0x0,-0x1d(%ebp)
    5337:	0f 84 d2 00 00 00    	je     540f <usb_device_manager_request_address+0x1df>
    533d:	8d 04 49             	lea    (%ecx,%ecx,2),%eax
    5340:	8b 75 e4             	mov    -0x1c(%ebp),%esi
    5343:	8b 4d 14             	mov    0x14(%ebp),%ecx
    5346:	8d 04 83             	lea    (%ebx,%eax,4),%eax
    5349:	c6 40 04 01          	movb   $0x1,0x4(%eax)
    534d:	89 08                	mov    %ecx,(%eax)
    534f:	89 34 24             	mov    %esi,(%esp)
    5352:	e8 89 e0 00 00       	call   133e0 <fibril_mutex_unlock>
    5357:	31 c0                	xor    %eax,%eax
    5359:	83 c4 2c             	add    $0x2c,%esp
    535c:	5b                   	pop    %ebx
    535d:	5e                   	pop    %esi
