
vuh:     file format elf32-i386


Disassembly of section .init:

00001094 <__entry>:
    1094:	66 8c d0             	mov    %ss,%ax
    1097:	8e d8                	mov    %eax,%ds
    1099:	8e c0                	mov    %eax,%es
    109b:	8e e0                	mov    %eax,%fs
    109d:	b8 01 00 00 00       	mov    $0x1,%eax
    10a2:	0f a2                	cpuid  
    10a4:	0f ba e2 0b          	bt     $0xb,%edx
    10a8:	73 0c                	jae    10b6 <__entry+0x22>
    10aa:	8d 05 b4 4c 02 00    	lea    0x24cb4,%eax
    10b0:	c7 00 d7 ca 01 00    	movl   $0x1cad7,(%eax)
    10b6:	6a 00                	push   $0x0
    10b8:	89 e5                	mov    %esp,%ebp
    10ba:	57                   	push   %edi
    10bb:	e8 10 1e 00 00       	call   2ed0 <__main>

Disassembly of section .text:

000010c0 <main>:
    10c0:	55                   	push   %ebp
    10c1:	89 e5                	mov    %esp,%ebp
    10c3:	57                   	push   %edi
    10c4:	56                   	push   %esi
    10c5:	53                   	push   %ebx
    10c6:	83 e4 f0             	and    $0xfffffff0,%esp
    10c9:	bb 01 00 00 00       	mov    $0x1,%ebx
    10ce:	83 ec 10             	sub    $0x10,%esp
    10d1:	8b 7d 08             	mov    0x8(%ebp),%edi
    10d4:	8b 75 0c             	mov    0xc(%ebp),%esi
    10d7:	c7 04 24 82 17 02 00 	movl   $0x21782,(%esp)
    10de:	e8 9d be 00 00       	call   cf80 <log_init>
    10e3:	c7 04 24 48 47 02 00 	movl   $0x24748,(%esp)
    10ea:	e8 01 7e 00 00       	call   8ef0 <fibril_mutex_initialize>
    10ef:	c7 04 24 58 47 02 00 	movl   $0x24758,(%esp)
    10f6:	e8 85 84 00 00       	call   9580 <fibril_condvar_initialize>
    10fb:	83 ff 01             	cmp    $0x1,%edi
    10fe:	7f 35                	jg     1135 <main+0x75>
    1100:	eb 6a                	jmp    116c <main+0xac>
    1102:	8d b6 00 00 00 00    	lea    0x0(%esi),%esi
    1108:	89 04 24             	mov    %eax,(%esp)
    110b:	e8 10 74 00 00       	call   8520 <str_error>
    1110:	89 44 24 0c          	mov    %eax,0xc(%esp)
    1114:	8b 04 9e             	mov    (%esi,%ebx,4),%eax
    1117:	c7 44 24 04 1c 18 02 	movl   $0x2181c,0x4(%esp)
    111e:	00 
    111f:	89 44 24 08          	mov    %eax,0x8(%esp)
    1123:	a1 70 4d 02 00       	mov    0x24d70,%eax
    1128:	89 04 24             	mov    %eax,(%esp)
    112b:	43                   	inc    %ebx
    112c:	e8 3f bd 00 00       	call   ce70 <fprintf>
    1131:	39 fb                	cmp    %edi,%ebx
    1133:	74 37                	je     116c <main+0xac>
    1135:	c7 44 24 08 68 47 02 	movl   $0x24768,0x8(%esp)
    113c:	00 
    113d:	8b 04 9e             	mov    (%esi,%ebx,4),%eax
    1140:	c7 04 24 a0 48 02 00 	movl   $0x248a0,(%esp)
    1147:	89 44 24 04          	mov    %eax,0x4(%esp)
    114b:	e8 e0 01 00 00       	call   1330 <add_interface_by_id>
    1150:	85 c0                	test   %eax,%eax
    1152:	75 b4                	jne    1108 <main+0x48>
    1154:	8b 04 9e             	mov    (%esi,%ebx,4),%eax
    1157:	c7 04 24 88 17 02 00 	movl   $0x21788,(%esp)
    115e:	89 44 24 04          	mov    %eax,0x4(%esp)
    1162:	43                   	inc    %ebx
    1163:	e8 38 bd 00 00       	call   cea0 <printf>
    1168:	39 fb                	cmp    %edi,%ebx
    116a:	75 c9                	jne    1135 <main+0x75>
    116c:	a1 74 47 02 00       	mov    0x24774,%eax
    1171:	31 db                	xor    %ebx,%ebx
    1173:	8b 40 04             	mov    0x4(%eax),%eax
    1176:	8b 50 08             	mov    0x8(%eax),%edx
    1179:	85 d2                	test   %edx,%edx
    117b:	7e 50                	jle    11cd <main+0x10d>
    117d:	8d 76 00             	lea    0x0(%esi),%esi
    1180:	8b 40 04             	mov    0x4(%eax),%eax
    1183:	c7 44 24 08 00 00 00 	movl   $0x0,0x8(%esp)
    118a:	00 
    118b:	8d 04 d8             	lea    (%eax,%ebx,8),%eax
    118e:	43                   	inc    %ebx
    118f:	8b 50 04             	mov    0x4(%eax),%edx
    1192:	89 54 24 04          	mov    %edx,0x4(%esp)
    1196:	8b 00                	mov    (%eax),%eax
    1198:	89 04 24             	mov    %eax,(%esp)
    119b:	e8 d0 18 00 00       	call   2a70 <usb_debug_str_buffer>
    11a0:	c7 44 24 08 ab 17 02 	movl   $0x217ab,0x8(%esp)
    11a7:	00 
    11a8:	89 44 24 0c          	mov    %eax,0xc(%esp)
    11ac:	c7 44 24 04 04 00 00 	movl   $0x4,0x4(%esp)
    11b3:	00 
    11b4:	c7 04 24 ff ff ff ff 	movl   $0xffffffff,(%esp)
    11bb:	e8 90 bf 00 00       	call   d150 <log_msg>
    11c0:	a1 74 47 02 00       	mov    0x24774,%eax
    11c5:	8b 40 04             	mov    0x4(%eax),%eax
    11c8:	39 58 08             	cmp    %ebx,0x8(%eax)
    11cb:	7f b3                	jg     1180 <main+0xc0>
    11cd:	c7 44 24 04 9c 17 02 	movl   $0x2179c,0x4(%esp)
    11d4:	00 
    11d5:	c7 04 24 68 47 02 00 	movl   $0x24768,(%esp)
    11dc:	e8 1f 0a 00 00       	call   1c00 <usbvirt_device_plug>
    11e1:	89 c3                	mov    %eax,%ebx
    11e3:	85 c0                	test   %eax,%eax
    11e5:	75 3a                	jne    1221 <main+0x161>
    11e7:	c7 04 24 c8 17 02 00 	movl   $0x217c8,(%esp)
    11ee:	e8 ad bc 00 00       	call   cea0 <printf>
    11f3:	c7 04 24 68 47 02 00 	movl   $0x24768,(%esp)
    11fa:	e8 f1 05 00 00       	call   17f0 <wait_for_interfaces_death>
    11ff:	c7 04 24 de 17 02 00 	movl   $0x217de,(%esp)
    1206:	e8 95 bc 00 00       	call   cea0 <printf>
    120b:	c7 04 24 68 47 02 00 	movl   $0x24768,(%esp)
    1212:	e8 c9 0a 00 00       	call   1ce0 <usbvirt_device_unplug>
    1217:	8d 65 f4             	lea    -0xc(%ebp),%esp
    121a:	89 d8                	mov    %ebx,%eax
    121c:	5b                   	pop    %ebx
    121d:	5e                   	pop    %esi
    121e:	5f                   	pop    %edi
    121f:	5d                   	pop    %ebp
    1220:	c3                   	ret    
    1221:	89 04 24             	mov    %eax,(%esp)
    1224:	e8 f7 72 00 00       	call   8520 <str_error>
    1229:	c7 04 24 3c 18 02 00 	movl   $0x2183c,(%esp)
    1230:	89 44 24 04          	mov    %eax,0x4(%esp)
    1234:	e8 67 bc 00 00       	call   cea0 <printf>
    1239:	eb dc                	jmp    1217 <main+0x157>
    123b:	66 90                	xchg   %ax,%ax
    123d:	66 90                	xchg   %ax,%ax
    123f:	90                   	nop

00001240 <on_data_from_device>:
    1240:	55                   	push   %ebp
    1241:	89 e5                	mov    %esp,%ebp
    1243:	56                   	push   %esi
    1244:	53                   	push   %ebx
    1245:	8b 45 08             	mov    0x8(%ebp),%eax
    1248:	8b 4d 14             	mov    0x14(%ebp),%ecx
    124b:	0f bf 55 0c          	movswl 0xc(%ebp),%edx
    124f:	8b 40 04             	mov    0x4(%eax),%eax
    1252:	8b 5d 18             	mov    0x18(%ebp),%ebx
    1255:	8b 75 1c             	mov    0x1c(%ebp),%esi
    1258:	8b 04 90             	mov    (%eax,%edx,4),%eax
    125b:	85 c0                	test   %eax,%eax
    125d:	74 22                	je     1281 <on_data_from_device+0x41>
    125f:	8b 50 20             	mov    0x20(%eax),%edx
    1262:	85 d2                	test   %edx,%edx
    1264:	74 12                	je     1278 <on_data_from_device+0x38>
    1266:	89 75 14             	mov    %esi,0x14(%ebp)
    1269:	89 5d 10             	mov    %ebx,0x10(%ebp)
    126c:	89 4d 0c             	mov    %ecx,0xc(%ebp)
    126f:	89 45 08             	mov    %eax,0x8(%ebp)
    1272:	5b                   	pop    %ebx
    1273:	5e                   	pop    %esi
    1274:	5d                   	pop    %ebp
    1275:	ff e2                	jmp    *%edx
    1277:	90                   	nop
    1278:	b8 d4 fe ff ff       	mov    $0xfffffed4,%eax
    127d:	5b                   	pop    %ebx
    127e:	5e                   	pop    %esi
    127f:	5d                   	pop    %ebp
    1280:	c3                   	ret    
    1281:	b8 d3 fe ff ff       	mov    $0xfffffed3,%eax
    1286:	eb f5                	jmp    127d <on_data_from_device+0x3d>
    1288:	90                   	nop
    1289:	8d b4 26 00 00 00 00 	lea    0x0(%esi,%eiz,1),%esi

00001290 <on_data_to_device>:
    1290:	55                   	push   %ebp
    1291:	89 e5                	mov    %esp,%ebp
    1293:	53                   	push   %ebx
    1294:	8b 45 08             	mov    0x8(%ebp),%eax
    1297:	8b 4d 14             	mov    0x14(%ebp),%ecx
    129a:	0f bf 55 0c          	movswl 0xc(%ebp),%edx
    129e:	8b 40 04             	mov    0x4(%eax),%eax
    12a1:	8b 5d 18             	mov    0x18(%ebp),%ebx
    12a4:	8b 44 90 44          	mov    0x44(%eax,%edx,4),%eax
    12a8:	85 c0                	test   %eax,%eax
    12aa:	74 1c                	je     12c8 <on_data_to_device+0x38>
    12ac:	8b 50 24             	mov    0x24(%eax),%edx
    12af:	85 d2                	test   %edx,%edx
    12b1:	74 0d                	je     12c0 <on_data_to_device+0x30>
    12b3:	89 5d 10             	mov    %ebx,0x10(%ebp)
    12b6:	89 4d 0c             	mov    %ecx,0xc(%ebp)
    12b9:	89 45 08             	mov    %eax,0x8(%ebp)
    12bc:	5b                   	pop    %ebx
    12bd:	5d                   	pop    %ebp
    12be:	ff e2                	jmp    *%edx
    12c0:	b8 d4 fe ff ff       	mov    $0xfffffed4,%eax
    12c5:	5b                   	pop    %ebx
    12c6:	5d                   	pop    %ebp
    12c7:	c3                   	ret    
    12c8:	b8 d3 fe ff ff       	mov    $0xfffffed3,%eax
    12cd:	eb f6                	jmp    12c5 <on_data_to_device+0x35>
    12cf:	90                   	nop

000012d0 <interface_life_fibril>:
    12d0:	55                   	push   %ebp
    12d1:	89 e5                	mov    %esp,%ebp
    12d3:	56                   	push   %esi
    12d4:	53                   	push   %ebx
    12d5:	83 ec 10             	sub    $0x10,%esp
    12d8:	8b 45 08             	mov    0x8(%ebp),%eax
    12db:	8b 50 28             	mov    0x28(%eax),%edx
    12de:	8b 58 34             	mov    0x34(%eax),%ebx
    12e1:	85 d2                	test   %edx,%edx
    12e3:	74 05                	je     12ea <interface_life_fibril+0x1a>
    12e5:	89 04 24             	mov    %eax,(%esp)
    12e8:	ff d2                	call   *%edx
    12ea:	8d b3 a8 00 00 00    	lea    0xa8(%ebx),%esi
    12f0:	89 34 24             	mov    %esi,(%esp)
    12f3:	e8 18 7c 00 00       	call   8f10 <fibril_mutex_lock>
    12f8:	8b 83 c4 00 00 00    	mov    0xc4(%ebx),%eax
    12fe:	40                   	inc    %eax
    12ff:	89 83 c4 00 00 00    	mov    %eax,0xc4(%ebx)
    1305:	81 c3 b8 00 00 00    	add    $0xb8,%ebx
    130b:	89 1c 24             	mov    %ebx,(%esp)
    130e:	e8 1d 89 00 00       	call   9c30 <fibril_condvar_broadcast>
    1313:	89 34 24             	mov    %esi,(%esp)
    1316:	e8 15 7d 00 00       	call   9030 <fibril_mutex_unlock>
    131b:	83 c4 10             	add    $0x10,%esp
    131e:	31 c0                	xor    %eax,%eax
    1320:	5b                   	pop    %ebx
    1321:	5e                   	pop    %esi
    1322:	5d                   	pop    %ebp
    1323:	c3                   	ret    
    1324:	8d b6 00 00 00 00    	lea    0x0(%esi),%esi
    132a:	8d bf 00 00 00 00    	lea    0x0(%edi),%edi

00001330 <add_interface_by_id>:
    1330:	55                   	push   %ebp
    1331:	89 e5                	mov    %esp,%ebp
    1333:	57                   	push   %edi
    1334:	56                   	push   %esi
    1335:	53                   	push   %ebx
    1336:	83 ec 4c             	sub    $0x4c,%esp
    1339:	8b 75 0c             	mov    0xc(%ebp),%esi
    133c:	8b 5d 08             	mov    0x8(%ebp),%ebx
    133f:	85 f6                	test   %esi,%esi
    1341:	0f 84 49 03 00 00    	je     1690 <add_interface_by_id+0x360>
    1347:	85 db                	test   %ebx,%ebx
    1349:	0f 84 41 03 00 00    	je     1690 <add_interface_by_id+0x360>
    134f:	8b 03                	mov    (%ebx),%eax
    1351:	85 c0                	test   %eax,%eax
    1353:	75 18                	jne    136d <add_interface_by_id+0x3d>
    1355:	e9 36 03 00 00       	jmp    1690 <add_interface_by_id+0x360>
    135a:	8d b6 00 00 00 00    	lea    0x0(%esi),%esi
    1360:	83 c3 04             	add    $0x4,%ebx
    1363:	8b 03                	mov    (%ebx),%eax
    1365:	85 c0                	test   %eax,%eax
    1367:	0f 84 23 03 00 00    	je     1690 <add_interface_by_id+0x360>
    136d:	89 74 24 04          	mov    %esi,0x4(%esp)
    1371:	8b 40 04             	mov    0x4(%eax),%eax
    1374:	89 04 24             	mov    %eax,(%esp)
    1377:	e8 f4 4d 00 00       	call   6170 <str_cmp>
    137c:	85 c0                	test   %eax,%eax
    137e:	75 e0                	jne    1360 <add_interface_by_id+0x30>
    1380:	8b 1b                	mov    (%ebx),%ebx
    1382:	85 db                	test   %ebx,%ebx
    1384:	0f 84 06 03 00 00    	je     1690 <add_interface_by_id+0x360>
    138a:	8b 43 18             	mov    0x18(%ebx),%eax
    138d:	85 c0                	test   %eax,%eax
    138f:	75 0b                	jne    139c <add_interface_by_id+0x6c>
    1391:	8b 4b 1c             	mov    0x1c(%ebx),%ecx
    1394:	85 c9                	test   %ecx,%ecx
    1396:	0f 84 28 04 00 00    	je     17c4 <add_interface_by_id+0x494>
    139c:	8b 53 34             	mov    0x34(%ebx),%edx
    139f:	85 d2                	test   %edx,%edx
    13a1:	0f 85 e9 03 00 00    	jne    1790 <add_interface_by_id+0x460>
    13a7:	8b 55 10             	mov    0x10(%ebp),%edx
    13aa:	85 c0                	test   %eax,%eax
    13ac:	8b 52 04             	mov    0x4(%edx),%edx
    13af:	89 55 e0             	mov    %edx,-0x20(%ebp)
    13b2:	74 0a                	je     13be <add_interface_by_id+0x8e>
    13b4:	83 7a 40 0f          	cmpl   $0xf,0x40(%edx)
    13b8:	0f 87 f4 03 00 00    	ja     17b2 <add_interface_by_id+0x482>
    13be:	8b 53 1c             	mov    0x1c(%ebx),%edx
    13c1:	85 d2                	test   %edx,%edx
    13c3:	74 10                	je     13d5 <add_interface_by_id+0xa5>
    13c5:	8b 4d e0             	mov    -0x20(%ebp),%ecx
    13c8:	83 b9 84 00 00 00 0f 	cmpl   $0xf,0x84(%ecx)
    13cf:	0f 87 dd 03 00 00    	ja     17b2 <add_interface_by_id+0x482>
    13d5:	8b 75 10             	mov    0x10(%ebp),%esi
    13d8:	8b 4e 0c             	mov    0xc(%esi),%ecx
    13db:	8b 49 04             	mov    0x4(%ecx),%ecx
    13de:	8b 09                	mov    (%ecx),%ecx
    13e0:	80 79 04 07          	cmpb   $0x7,0x4(%ecx)
    13e4:	0f 87 c8 03 00 00    	ja     17b2 <add_interface_by_id+0x482>
    13ea:	85 c0                	test   %eax,%eax
    13ec:	0f 95 c0             	setne  %al
    13ef:	25 ff 00 00 00       	and    $0xff,%eax
    13f4:	85 d2                	test   %edx,%edx
    13f6:	8d 78 01             	lea    0x1(%eax),%edi
    13f9:	75 0d                	jne    1408 <add_interface_by_id+0xd8>
    13fb:	85 c0                	test   %eax,%eax
    13fd:	0f 84 cb 03 00 00    	je     17ce <add_interface_by_id+0x49e>
    1403:	bf 01 00 00 00       	mov    $0x1,%edi
    1408:	c7 04 24 09 00 00 00 	movl   $0x9,(%esp)
    140f:	e8 dc 0d 01 00       	call   121f0 <malloc>
    1414:	89 c6                	mov    %eax,%esi
    1416:	85 c0                	test   %eax,%eax
    1418:	0f 84 87 03 00 00    	je     17a5 <add_interface_by_id+0x475>
    141e:	8b 55 10             	mov    0x10(%ebp),%edx
    1421:	c6 00 09             	movb   $0x9,(%eax)
    1424:	c6 40 01 04          	movb   $0x4,0x1(%eax)
    1428:	89 f9                	mov    %edi,%ecx
    142a:	8b 42 0c             	mov    0xc(%edx),%eax
    142d:	8b 40 04             	mov    0x4(%eax),%eax
    1430:	8b 00                	mov    (%eax),%eax
    1432:	8a 40 04             	mov    0x4(%eax),%al
    1435:	c6 46 03 00          	movb   $0x0,0x3(%esi)
    1439:	88 46 02             	mov    %al,0x2(%esi)
    143c:	88 4e 04             	mov    %cl,0x4(%esi)
    143f:	c6 46 05 03          	movb   $0x3,0x5(%esi)
    1443:	8b 43 08             	mov    0x8(%ebx),%eax
    1446:	88 46 06             	mov    %al,0x6(%esi)
    1449:	8b 43 0c             	mov    0xc(%ebx),%eax
    144c:	c6 46 08 00          	movb   $0x0,0x8(%esi)
    1450:	88 46 07             	mov    %al,0x7(%esi)
    1453:	8b 7b 10             	mov    0x10(%ebx),%edi
    1456:	85 ff                	test   %edi,%edi
    1458:	0f 84 9a 02 00 00    	je     16f8 <add_interface_by_id+0x3c8>
    145e:	c7 04 24 09 00 00 00 	movl   $0x9,(%esp)
    1465:	e8 86 0d 01 00       	call   121f0 <malloc>
    146a:	89 c2                	mov    %eax,%edx
    146c:	85 c0                	test   %eax,%eax
    146e:	0f 84 29 03 00 00    	je     179d <add_interface_by_id+0x46d>
    1474:	c6 00 09             	movb   $0x9,(%eax)
    1477:	c6 40 01 21          	movb   $0x21,0x1(%eax)
    147b:	c6 40 04 00          	movb   $0x0,0x4(%eax)
    147f:	c6 40 05 01          	movb   $0x1,0x5(%eax)
    1483:	c6 40 06 22          	movb   $0x22,0x6(%eax)
    1487:	66 c7 40 02 01 01    	movw   $0x101,0x2(%eax)
    148d:	8b 4b 18             	mov    0x18(%ebx),%ecx
    1490:	8b 43 14             	mov    0x14(%ebx),%eax
    1493:	66 89 42 07          	mov    %ax,0x7(%edx)
    1497:	66 c7 45 d2 12 00    	movw   $0x12,-0x2e(%ebp)
    149d:	66 c7 45 dc 19 00    	movw   $0x19,-0x24(%ebp)
    14a3:	bf 20 00 00 00       	mov    $0x20,%edi
    14a8:	c7 45 cc 04 00 00 00 	movl   $0x4,-0x34(%ebp)
    14af:	c7 45 d8 03 00 00 00 	movl   $0x3,-0x28(%ebp)
    14b6:	c7 45 d4 02 00 00 00 	movl   $0x2,-0x2c(%ebp)
    14bd:	c7 45 e4 00 00 00 00 	movl   $0x0,-0x1c(%ebp)
    14c4:	85 c9                	test   %ecx,%ecx
    14c6:	0f 85 66 02 00 00    	jne    1732 <add_interface_by_id+0x402>
    14cc:	8b 43 1c             	mov    0x1c(%ebx),%eax
    14cf:	85 c0                	test   %eax,%eax
    14d1:	0f 84 19 02 00 00    	je     16f0 <add_interface_by_id+0x3c0>
    14d7:	c7 04 24 07 00 00 00 	movl   $0x7,(%esp)
    14de:	89 55 c8             	mov    %edx,-0x38(%ebp)
    14e1:	e8 0a 0d 01 00       	call   121f0 <malloc>
    14e6:	8b 55 c8             	mov    -0x38(%ebp),%edx
    14e9:	89 c7                	mov    %eax,%edi
    14eb:	85 c0                	test   %eax,%eax
    14ed:	0f 84 ad 01 00 00    	je     16a0 <add_interface_by_id+0x370>
    14f3:	8b 4d e0             	mov    -0x20(%ebp),%ecx
    14f6:	c6 00 07             	movb   $0x7,(%eax)
    14f9:	c6 40 01 05          	movb   $0x5,0x1(%eax)
    14fd:	8b 81 84 00 00 00    	mov    0x84(%ecx),%eax
    1503:	8b 4d dc             	mov    -0x24(%ebp),%ecx
    1506:	88 47 02             	mov    %al,0x2(%edi)
    1509:	c6 47 03 03          	movb   $0x3,0x3(%edi)
    150d:	8b 43 1c             	mov    0x1c(%ebx),%eax
    1510:	66 89 4d d2          	mov    %cx,-0x2e(%ebp)
    1514:	8b 4d d8             	mov    -0x28(%ebp),%ecx
    1517:	66 89 47 04          	mov    %ax,0x4(%edi)
    151b:	c6 47 06 0a          	movb   $0xa,0x6(%edi)
    151f:	89 4d d4             	mov    %ecx,-0x2c(%ebp)
    1522:	8b 4d 10             	mov    0x10(%ebp),%ecx
    1525:	8b 41 0c             	mov    0xc(%ecx),%eax
    1528:	8b 40 04             	mov    0x4(%eax),%eax
    152b:	8b 48 04             	mov    0x4(%eax),%ecx
    152e:	8b 40 08             	mov    0x8(%eax),%eax
    1531:	03 45 d4             	add    -0x2c(%ebp),%eax
    1534:	89 0c 24             	mov    %ecx,(%esp)
    1537:	c1 e0 03             	shl    $0x3,%eax
    153a:	89 55 c8             	mov    %edx,-0x38(%ebp)
    153d:	89 44 24 04          	mov    %eax,0x4(%esp)
    1541:	e8 0a 10 01 00       	call   12550 <realloc>
    1546:	8b 55 c8             	mov    -0x38(%ebp),%edx
    1549:	89 c1                	mov    %eax,%ecx
    154b:	85 c0                	test   %eax,%eax
    154d:	0f 84 4d 01 00 00    	je     16a0 <add_interface_by_id+0x370>
    1553:	8b 45 e0             	mov    -0x20(%ebp),%eax
    1556:	89 43 34             	mov    %eax,0x34(%ebx)
    1559:	89 5c 24 04          	mov    %ebx,0x4(%esp)
    155d:	c7 04 24 d0 12 00 00 	movl   $0x12d0,(%esp)
    1564:	89 4d c4             	mov    %ecx,-0x3c(%ebp)
    1567:	e8 c4 74 00 00       	call   8a30 <fibril_create>
    156c:	8b 55 c8             	mov    -0x38(%ebp),%edx
    156f:	89 45 dc             	mov    %eax,-0x24(%ebp)
    1572:	85 c0                	test   %eax,%eax
    1574:	8b 4d c4             	mov    -0x3c(%ebp),%ecx
    1577:	0f 84 23 01 00 00    	je     16a0 <add_interface_by_id+0x370>
    157d:	8b 45 10             	mov    0x10(%ebp),%eax
    1580:	8b 40 0c             	mov    0xc(%eax),%eax
    1583:	8b 40 04             	mov    0x4(%eax),%eax
    1586:	89 45 d8             	mov    %eax,-0x28(%ebp)
    1589:	89 48 04             	mov    %ecx,0x4(%eax)
    158c:	8b 40 08             	mov    0x8(%eax),%eax
    158f:	89 45 cc             	mov    %eax,-0x34(%ebp)
    1592:	8d 0c c1             	lea    (%ecx,%eax,8),%ecx
    1595:	89 4d c0             	mov    %ecx,-0x40(%ebp)
    1598:	89 31                	mov    %esi,(%ecx)
    159a:	31 c9                	xor    %ecx,%ecx
    159c:	8a 0e                	mov    (%esi),%cl
    159e:	8b 75 c0             	mov    -0x40(%ebp),%esi
    15a1:	89 f0                	mov    %esi,%eax
    15a3:	85 d2                	test   %edx,%edx
    15a5:	89 4e 04             	mov    %ecx,0x4(%esi)
    15a8:	0f 84 0e 02 00 00    	je     17bc <add_interface_by_id+0x48c>
    15ae:	89 56 08             	mov    %edx,0x8(%esi)
    15b1:	83 c0 10             	add    $0x10,%eax
    15b4:	8a 12                	mov    (%edx),%dl
    15b6:	81 e2 ff 00 00 00    	and    $0xff,%edx
    15bc:	89 56 0c             	mov    %edx,0xc(%esi)
    15bf:	8b 55 e4             	mov    -0x1c(%ebp),%edx
    15c2:	85 d2                	test   %edx,%edx
    15c4:	74 11                	je     15d7 <add_interface_by_id+0x2a7>
    15c6:	8b 55 e4             	mov    -0x1c(%ebp),%edx
    15c9:	89 d1                	mov    %edx,%ecx
    15cb:	89 10                	mov    %edx,(%eax)
    15cd:	31 d2                	xor    %edx,%edx
    15cf:	8a 11                	mov    (%ecx),%dl
    15d1:	89 50 04             	mov    %edx,0x4(%eax)
    15d4:	83 c0 08             	add    $0x8,%eax
    15d7:	85 ff                	test   %edi,%edi
    15d9:	74 09                	je     15e4 <add_interface_by_id+0x2b4>
    15db:	89 38                	mov    %edi,(%eax)
    15dd:	31 d2                	xor    %edx,%edx
    15df:	8a 17                	mov    (%edi),%dl
    15e1:	89 50 04             	mov    %edx,0x4(%eax)
    15e4:	8b 45 d4             	mov    -0x2c(%ebp),%eax
    15e7:	8b 7d cc             	mov    -0x34(%ebp),%edi
    15ea:	8b 75 d8             	mov    -0x28(%ebp),%esi
    15ed:	01 f8                	add    %edi,%eax
    15ef:	89 46 08             	mov    %eax,0x8(%esi)
    15f2:	8b 43 18             	mov    0x18(%ebx),%eax
    15f5:	85 c0                	test   %eax,%eax
    15f7:	74 1e                	je     1617 <add_interface_by_id+0x2e7>
    15f9:	8b 55 e0             	mov    -0x20(%ebp),%edx
    15fc:	8b 4d 10             	mov    0x10(%ebp),%ecx
    15ff:	8b 75 e0             	mov    -0x20(%ebp),%esi
    1602:	8b 42 40             	mov    0x40(%edx),%eax
    1605:	89 1c 82             	mov    %ebx,(%edx,%eax,4)
    1608:	8b 51 08             	mov    0x8(%ecx),%edx
    160b:	c7 44 82 40 40 12 00 	movl   $0x1240,0x40(%edx,%eax,4)
    1612:	00 
    1613:	40                   	inc    %eax
    1614:	89 46 40             	mov    %eax,0x40(%esi)
    1617:	8b 73 1c             	mov    0x1c(%ebx),%esi
    161a:	85 f6                	test   %esi,%esi
    161c:	74 24                	je     1642 <add_interface_by_id+0x312>
    161e:	8b 55 e0             	mov    -0x20(%ebp),%edx
    1621:	8b 4d 10             	mov    0x10(%ebp),%ecx
    1624:	8b 75 e0             	mov    -0x20(%ebp),%esi
    1627:	8b 82 84 00 00 00    	mov    0x84(%edx),%eax
    162d:	89 5c 82 44          	mov    %ebx,0x44(%edx,%eax,4)
    1631:	8b 51 08             	mov    0x8(%ecx),%edx
    1634:	c7 04 82 90 12 00 00 	movl   $0x1290,(%edx,%eax,4)
    163b:	40                   	inc    %eax
    163c:	89 86 84 00 00 00    	mov    %eax,0x84(%esi)
    1642:	8b 55 d8             	mov    -0x28(%ebp),%edx
    1645:	8b 4d e0             	mov    -0x20(%ebp),%ecx
    1648:	8b 75 10             	mov    0x10(%ebp),%esi
    164b:	8b 02                	mov    (%edx),%eax
    164d:	31 d2                	xor    %edx,%edx
    164f:	8a 50 04             	mov    0x4(%eax),%dl
    1652:	89 9c 91 88 00 00 00 	mov    %ebx,0x88(%ecx,%edx,4)
    1659:	66 8b 55 d2          	mov    -0x2e(%ebp),%dx
    165d:	fe 40 04             	incb   0x4(%eax)
    1660:	8b 46 0c             	mov    0xc(%esi),%eax
    1663:	8b 99 c0 00 00 00    	mov    0xc0(%ecx),%ebx
    1669:	43                   	inc    %ebx
    166a:	8b 40 04             	mov    0x4(%eax),%eax
    166d:	8b 00                	mov    (%eax),%eax
    166f:	66 01 50 02          	add    %dx,0x2(%eax)
    1673:	8b 45 dc             	mov    -0x24(%ebp),%eax
    1676:	89 99 c0 00 00 00    	mov    %ebx,0xc0(%ecx)
    167c:	89 04 24             	mov    %eax,(%esp)
    167f:	e8 ec 74 00 00       	call   8b70 <fibril_add_ready>
    1684:	83 c4 4c             	add    $0x4c,%esp
    1687:	31 c0                	xor    %eax,%eax
    1689:	5b                   	pop    %ebx
    168a:	5e                   	pop    %esi
    168b:	5f                   	pop    %edi
    168c:	5d                   	pop    %ebp
    168d:	c3                   	ret    
    168e:	66 90                	xchg   %ax,%ax
    1690:	83 c8 ff             	or     $0xffffffff,%eax
    1693:	83 c4 4c             	add    $0x4c,%esp
    1696:	5b                   	pop    %ebx
    1697:	5e                   	pop    %esi
    1698:	5f                   	pop    %edi
    1699:	5d                   	pop    %ebp
    169a:	c3                   	ret    
    169b:	31 ff                	xor    %edi,%edi
    169d:	8d 76 00             	lea    0x0(%esi),%esi
    16a0:	89 34 24             	mov    %esi,(%esp)
    16a3:	89 55 c8             	mov    %edx,-0x38(%ebp)
    16a6:	e8 55 0c 01 00       	call   12300 <free>
    16ab:	8b 55 c8             	mov    -0x38(%ebp),%edx
    16ae:	85 d2                	test   %edx,%edx
    16b0:	74 08                	je     16ba <add_interface_by_id+0x38a>
    16b2:	89 14 24             	mov    %edx,(%esp)
    16b5:	e8 46 0c 01 00       	call   12300 <free>
    16ba:	8b 55 e4             	mov    -0x1c(%ebp),%edx
    16bd:	85 d2                	test   %edx,%edx
    16bf:	74 0b                	je     16cc <add_interface_by_id+0x39c>
    16c1:	8b 45 e4             	mov    -0x1c(%ebp),%eax
    16c4:	89 04 24             	mov    %eax,(%esp)
    16c7:	e8 34 0c 01 00       	call   12300 <free>
    16cc:	85 ff                	test   %edi,%edi
    16ce:	0f 84 d1 00 00 00    	je     17a5 <add_interface_by_id+0x475>
    16d4:	89 3c 24             	mov    %edi,(%esp)
    16d7:	e8 24 0c 01 00       	call   12300 <free>
    16dc:	83 c4 4c             	add    $0x4c,%esp
    16df:	b8 fe ff ff ff       	mov    $0xfffffffe,%eax
    16e4:	5b                   	pop    %ebx
    16e5:	5e                   	pop    %esi
    16e6:	5f                   	pop    %edi
    16e7:	5d                   	pop    %ebp
    16e8:	c3                   	ret    
    16e9:	8d b4 26 00 00 00 00 	lea    0x0(%esi,%eiz,1),%esi
    16f0:	31 ff                	xor    %edi,%edi
    16f2:	e9 2b fe ff ff       	jmp    1522 <add_interface_by_id+0x1f2>
    16f7:	90                   	nop
    16f8:	8b 4b 18             	mov    0x18(%ebx),%ecx
    16fb:	31 d2                	xor    %edx,%edx
    16fd:	66 c7 45 d2 09 00    	movw   $0x9,-0x2e(%ebp)
    1703:	66 c7 45 dc 10 00    	movw   $0x10,-0x24(%ebp)
    1709:	bf 17 00 00 00       	mov    $0x17,%edi
    170e:	c7 45 cc 03 00 00 00 	movl   $0x3,-0x34(%ebp)
    1715:	c7 45 d8 02 00 00 00 	movl   $0x2,-0x28(%ebp)
    171c:	c7 45 d4 01 00 00 00 	movl   $0x1,-0x2c(%ebp)
    1723:	c7 45 e4 00 00 00 00 	movl   $0x0,-0x1c(%ebp)
    172a:	85 c9                	test   %ecx,%ecx
    172c:	0f 84 9a fd ff ff    	je     14cc <add_interface_by_id+0x19c>
    1732:	c7 04 24 07 00 00 00 	movl   $0x7,(%esp)
    1739:	89 55 c8             	mov    %edx,-0x38(%ebp)
    173c:	e8 af 0a 01 00       	call   121f0 <malloc>
    1741:	8b 55 c8             	mov    -0x38(%ebp),%edx
    1744:	89 45 e4             	mov    %eax,-0x1c(%ebp)
    1747:	85 c0                	test   %eax,%eax
    1749:	0f 84 4c ff ff ff    	je     169b <add_interface_by_id+0x36b>
    174f:	89 c1                	mov    %eax,%ecx
    1751:	c6 00 07             	movb   $0x7,(%eax)
    1754:	c6 40 01 05          	movb   $0x5,0x1(%eax)
    1758:	8b 45 e0             	mov    -0x20(%ebp),%eax
    175b:	8b 40 40             	mov    0x40(%eax),%eax
    175e:	c6 41 03 03          	movb   $0x3,0x3(%ecx)
    1762:	0c 80                	or     $0x80,%al
    1764:	88 41 02             	mov    %al,0x2(%ecx)
    1767:	8b 43 18             	mov    0x18(%ebx),%eax
    176a:	c6 41 06 0a          	movb   $0xa,0x6(%ecx)
    176e:	66 89 41 04          	mov    %ax,0x4(%ecx)
    1772:	8b 4d dc             	mov    -0x24(%ebp),%ecx
    1775:	66 89 4d d2          	mov    %cx,-0x2e(%ebp)
    1779:	8b 4d d8             	mov    -0x28(%ebp),%ecx
    177c:	89 4d d4             	mov    %ecx,-0x2c(%ebp)
    177f:	8b 4d cc             	mov    -0x34(%ebp),%ecx
    1782:	66 89 7d dc          	mov    %di,-0x24(%ebp)
    1786:	89 4d d8             	mov    %ecx,-0x28(%ebp)
    1789:	e9 3e fd ff ff       	jmp    14cc <add_interface_by_id+0x19c>
    178e:	66 90                	xchg   %ax,%ax
    1790:	83 c4 4c             	add    $0x4c,%esp
    1793:	b8 f7 ff ff ff       	mov    $0xfffffff7,%eax
    1798:	5b                   	pop    %ebx
    1799:	5e                   	pop    %esi
    179a:	5f                   	pop    %edi
    179b:	5d                   	pop    %ebp
    179c:	c3                   	ret    
    179d:	89 34 24             	mov    %esi,(%esp)
    17a0:	e8 5b 0b 01 00       	call   12300 <free>
    17a5:	83 c4 4c             	add    $0x4c,%esp
    17a8:	b8 fe ff ff ff       	mov    $0xfffffffe,%eax
    17ad:	5b                   	pop    %ebx
    17ae:	5e                   	pop    %esi
    17af:	5f                   	pop    %edi
    17b0:	5d                   	pop    %ebp
    17b1:	c3                   	ret    
    17b2:	b8 fd ff ff ff       	mov    $0xfffffffd,%eax
    17b7:	e9 d7 fe ff ff       	jmp    1693 <add_interface_by_id+0x363>
    17bc:	83 c0 08             	add    $0x8,%eax
    17bf:	e9 fb fd ff ff       	jmp    15bf <add_interface_by_id+0x28f>
    17c4:	b8 d2 fe ff ff       	mov    $0xfffffed2,%eax
    17c9:	e9 c5 fe ff ff       	jmp    1693 <add_interface_by_id+0x363>
    17ce:	c7 44 24 08 b6 00 00 	movl   $0xb6,0x8(%esp)
    17d5:	00 
    17d6:	c7 44 24 04 7e 19 02 	movl   $0x2197e,0x4(%esp)
    17dd:	00 
    17de:	c7 04 24 6a 18 02 00 	movl   $0x2186a,(%esp)
    17e5:	e8 66 b2 01 00       	call   1ca50 <assert_abort>
    17ea:	8d b6 00 00 00 00    	lea    0x0(%esi),%esi

000017f0 <wait_for_interfaces_death>:
    17f0:	55                   	push   %ebp
    17f1:	89 e5                	mov    %esp,%ebp
    17f3:	57                   	push   %edi
    17f4:	56                   	push   %esi
    17f5:	53                   	push   %ebx
    17f6:	83 ec 1c             	sub    $0x1c,%esp
    17f9:	8b 45 08             	mov    0x8(%ebp),%eax
    17fc:	8b 58 04             	mov    0x4(%eax),%ebx
    17ff:	8d b3 a8 00 00 00    	lea    0xa8(%ebx),%esi
    1805:	8d bb b8 00 00 00    	lea    0xb8(%ebx),%edi
    180b:	89 34 24             	mov    %esi,(%esp)
    180e:	e8 fd 76 00 00       	call   8f10 <fibril_mutex_lock>
    1813:	8b 83 c0 00 00 00    	mov    0xc0(%ebx),%eax
    1819:	39 83 c4 00 00 00    	cmp    %eax,0xc4(%ebx)
    181f:	73 21                	jae    1842 <wait_for_interfaces_death+0x52>
    1821:	8d b4 26 00 00 00 00 	lea    0x0(%esi,%eiz,1),%esi
    1828:	89 74 24 04          	mov    %esi,0x4(%esp)
    182c:	89 3c 24             	mov    %edi,(%esp)
    182f:	e8 2c 83 00 00       	call   9b60 <fibril_condvar_wait>
    1834:	8b 83 c0 00 00 00    	mov    0xc0(%ebx),%eax
    183a:	39 83 c4 00 00 00    	cmp    %eax,0xc4(%ebx)
    1840:	72 e6                	jb     1828 <wait_for_interfaces_death+0x38>
    1842:	89 75 08             	mov    %esi,0x8(%ebp)
    1845:	83 c4 1c             	add    $0x1c,%esp
    1848:	5b                   	pop    %ebx
    1849:	5e                   	pop    %esi
    184a:	5f                   	pop    %edi
    184b:	5d                   	pop    %ebp
    184c:	e9 df 77 00 00       	jmp    9030 <fibril_mutex_unlock>
    1851:	66 90                	xchg   %ax,%ax
    1853:	90                   	nop
    1854:	66 90                	xchg   %ax,%ax
    1856:	66 90                	xchg   %ax,%ax
    1858:	66 90                	xchg   %ax,%ax
    185a:	66 90                	xchg   %ax,%ax
    185c:	66 90                	xchg   %ax,%ax
    185e:	66 90                	xchg   %ax,%ax

00001860 <interface_life_live>:
    1860:	55                   	push   %ebp
    1861:	89 e5                	mov    %esp,%ebp
    1863:	53                   	push   %ebx
    1864:	83 ec 14             	sub    $0x14,%esp
    1867:	8b 45 08             	mov    0x8(%ebp),%eax
    186a:	8b 58 30             	mov    0x30(%eax),%ebx
    186d:	c7 43 08 00 00 00 00 	movl   $0x0,0x8(%ebx)
    1874:	c7 43 0c ff ff ff ff 	movl   $0xffffffff,0xc(%ebx)
    187b:	c7 04 24 40 4b 4c 00 	movl   $0x4c4b40,(%esp)
    1882:	e8 29 2d 01 00       	call   145b0 <async_usleep>
    1887:	8b 43 14             	mov    0x14(%ebx),%eax
    188a:	89 44 24 0c          	mov    %eax,0xc(%esp)
    188e:	c7 44 24 08 77 18 02 	movl   $0x21877,0x8(%esp)
    1895:	00 
    1896:	c7 44 24 04 04 00 00 	movl   $0x4,0x4(%esp)
    189d:	00 
    189e:	c7 04 24 ff ff ff ff 	movl   $0xffffffff,(%esp)
    18a5:	e8 a6 b8 00 00       	call   d150 <log_msg>
    18aa:	8b 43 04             	mov    0x4(%ebx),%eax
    18ad:	39 43 08             	cmp    %eax,0x8(%ebx)
    18b0:	73 29                	jae    18db <interface_life_live+0x7b>
    18b2:	8d b6 00 00 00 00    	lea    0x0(%esi),%esi
    18b8:	8b 43 10             	mov    0x10(%ebx),%eax
    18bb:	8d 04 80             	lea    (%eax,%eax,4),%eax
    18be:	8d 04 80             	lea    (%eax,%eax,4),%eax
    18c1:	8d 04 80             	lea    (%eax,%eax,4),%eax
    18c4:	c1 e0 03             	shl    $0x3,%eax
    18c7:	89 04 24             	mov    %eax,(%esp)
    18ca:	e8 e1 2c 01 00       	call   145b0 <async_usleep>
    18cf:	8b 43 08             	mov    0x8(%ebx),%eax
    18d2:	40                   	inc    %eax
    18d3:	89 43 08             	mov    %eax,0x8(%ebx)
    18d6:	39 43 04             	cmp    %eax,0x4(%ebx)
    18d9:	77 dd                	ja     18b8 <interface_life_live+0x58>
    18db:	8b 43 18             	mov    0x18(%ebx),%eax
    18de:	c7 44 24 08 77 18 02 	movl   $0x21877,0x8(%esp)
    18e5:	00 
    18e6:	89 44 24 0c          	mov    %eax,0xc(%esp)
    18ea:	c7 44 24 04 04 00 00 	movl   $0x4,0x4(%esp)
    18f1:	00 
    18f2:	c7 04 24 ff ff ff ff 	movl   $0xffffffff,(%esp)
    18f9:	e8 52 b8 00 00       	call   d150 <log_msg>
    18fe:	83 c4 14             	add    $0x14,%esp
    1901:	5b                   	pop    %ebx
    1902:	5d                   	pop    %ebp
    1903:	c3                   	ret    
    1904:	8d b6 00 00 00 00    	lea    0x0(%esi),%esi
    190a:	8d bf 00 00 00 00    	lea    0x0(%edi),%edi

00001910 <interface_live_on_data_in>:
    1910:	55                   	push   %ebp
    1911:	89 e5                	mov    %esp,%ebp
    1913:	57                   	push   %edi
    1914:	56                   	push   %esi
    1915:	53                   	push   %ebx
    1916:	83 ec 1c             	sub    $0x1c,%esp
    1919:	8b 4d 08             	mov    0x8(%ebp),%ecx
    191c:	8b 7d 14             	mov    0x14(%ebp),%edi
    191f:	8b 59 30             	mov    0x30(%ecx),%ebx
    1922:	8b 73 08             	mov    0x8(%ebx),%esi
    1925:	3b 73 04             	cmp    0x4(%ebx),%esi
    1928:	73 4e                	jae    1978 <interface_live_on_data_in+0x68>
    192a:	39 73 0c             	cmp    %esi,0xc(%ebx)
    192d:	74 51                	je     1980 <interface_live_on_data_in+0x70>
    192f:	8b 41 18             	mov    0x18(%ecx),%eax
    1932:	8b 55 10             	mov    0x10(%ebp),%edx
    1935:	39 c2                	cmp    %eax,%edx
    1937:	77 37                	ja     1970 <interface_live_on_data_in+0x60>
    1939:	85 ff                	test   %edi,%edi
    193b:	74 05                	je     1942 <interface_live_on_data_in+0x32>
    193d:	89 17                	mov    %edx,(%edi)
    193f:	8b 41 18             	mov    0x18(%ecx),%eax
    1942:	0f af c6             	imul   %esi,%eax
    1945:	89 54 24 08          	mov    %edx,0x8(%esp)
    1949:	8b 13                	mov    (%ebx),%edx
    194b:	01 d0                	add    %edx,%eax
    194d:	89 44 24 04          	mov    %eax,0x4(%esp)
    1951:	8b 45 0c             	mov    0xc(%ebp),%eax
    1954:	89 04 24             	mov    %eax,(%esp)
    1957:	e8 d4 34 00 00       	call   4e30 <memcpy>
    195c:	89 73 0c             	mov    %esi,0xc(%ebx)
    195f:	31 c0                	xor    %eax,%eax
    1961:	83 c4 1c             	add    $0x1c,%esp
    1964:	5b                   	pop    %ebx
    1965:	5e                   	pop    %esi
    1966:	5f                   	pop    %edi
    1967:	5d                   	pop    %ebp
    1968:	c3                   	ret    
    1969:	8d b4 26 00 00 00 00 	lea    0x0(%esi,%eiz,1),%esi
    1970:	89 c2                	mov    %eax,%edx
    1972:	eb c5                	jmp    1939 <interface_live_on_data_in+0x29>
    1974:	8d 74 26 00          	lea    0x0(%esi,%eiz,1),%esi
    1978:	b8 d4 fe ff ff       	mov    $0xfffffed4,%eax
    197d:	eb e2                	jmp    1961 <interface_live_on_data_in+0x51>
    197f:	90                   	nop
    1980:	b8 d1 fe ff ff       	mov    $0xfffffed1,%eax
    1985:	eb da                	jmp    1961 <interface_live_on_data_in+0x51>
    1987:	66 90                	xchg   %ax,%ax
    1989:	66 90                	xchg   %ax,%ax
    198b:	66 90                	xchg   %ax,%ax
    198d:	66 90                	xchg   %ax,%ax
    198f:	90                   	nop

00001990 <req_get_descriptor>:
    1990:	55                   	push   %ebp
    1991:	89 e5                	mov    %esp,%ebp
    1993:	83 ec 28             	sub    $0x28,%esp
    1996:	8b 45 0c             	mov    0xc(%ebp),%eax
    1999:	8b 55 08             	mov    0x8(%ebp),%edx
    199c:	80 78 03 22          	cmpb   $0x22,0x3(%eax)
    19a0:	8b 52 04             	mov    0x4(%edx),%edx
    19a3:	75 43                	jne    19e8 <req_get_descriptor+0x58>
    19a5:	66 8b 48 04          	mov    0x4(%eax),%cx
    19a9:	81 e1 ff ff 00 00    	and    $0xffff,%ecx
    19af:	8b 94 8a 88 00 00 00 	mov    0x88(%edx,%ecx,4),%edx
    19b6:	85 d2                	test   %edx,%edx
    19b8:	74 2e                	je     19e8 <req_get_descriptor+0x58>
    19ba:	8b 4a 10             	mov    0x10(%edx),%ecx
    19bd:	85 c9                	test   %ecx,%ecx
    19bf:	74 2f                	je     19f0 <req_get_descriptor+0x60>
    19c1:	8b 52 14             	mov    0x14(%edx),%edx
    19c4:	89 04 24             	mov    %eax,(%esp)
    19c7:	89 54 24 10          	mov    %edx,0x10(%esp)
    19cb:	8b 55 14             	mov    0x14(%ebp),%edx
    19ce:	89 54 24 08          	mov    %edx,0x8(%esp)
    19d2:	8b 55 10             	mov    0x10(%ebp),%edx
    19d5:	89 4c 24 0c          	mov    %ecx,0xc(%esp)
    19d9:	89 54 24 04          	mov    %edx,0x4(%esp)
    19dd:	e8 9e 0b 00 00       	call   2580 <usbvirt_control_reply_helper>
    19e2:	31 c0                	xor    %eax,%eax
    19e4:	c9                   	leave  
    19e5:	c3                   	ret    
    19e6:	66 90                	xchg   %ax,%ax
    19e8:	b8 fb ff ff ff       	mov    $0xfffffffb,%eax
    19ed:	c9                   	leave  
    19ee:	c3                   	ret    
    19ef:	90                   	nop
    19f0:	83 c8 ff             	or     $0xffffffff,%eax
    19f3:	c9                   	leave  
    19f4:	c3                   	ret    
    19f5:	8d 74 26 00          	lea    0x0(%esi,%eiz,1),%esi
    19f9:	8d bc 27 00 00 00 00 	lea    0x0(%edi,%eiz,1),%edi

00001a00 <req_set_protocol>:
    1a00:	55                   	push   %ebp
    1a01:	89 e5                	mov    %esp,%ebp
    1a03:	8b 45 0c             	mov    0xc(%ebp),%eax
    1a06:	8b 55 08             	mov    0x8(%ebp),%edx
    1a09:	66 8b 48 02          	mov    0x2(%eax),%cx
    1a0d:	66 8b 40 04          	mov    0x4(%eax),%ax
    1a11:	25 ff ff 00 00       	and    $0xffff,%eax
    1a16:	8b 52 04             	mov    0x4(%edx),%edx
    1a19:	81 e1 ff ff 00 00    	and    $0xffff,%ecx
    1a1f:	8b 84 82 88 00 00 00 	mov    0x88(%edx,%eax,4),%eax
    1a26:	85 c0                	test   %eax,%eax
    1a28:	74 07                	je     1a31 <req_set_protocol+0x31>
    1a2a:	89 48 2c             	mov    %ecx,0x2c(%eax)
    1a2d:	31 c0                	xor    %eax,%eax
    1a2f:	5d                   	pop    %ebp
    1a30:	c3                   	ret    
    1a31:	83 c8 ff             	or     $0xffffffff,%eax
    1a34:	5d                   	pop    %ebp
    1a35:	c3                   	ret    
    1a36:	8d 76 00             	lea    0x0(%esi),%esi
    1a39:	8d bc 27 00 00 00 00 	lea    0x0(%edi,%eiz,1),%edi

00001a40 <req_set_report>:
    1a40:	55                   	push   %ebp
    1a41:	89 e5                	mov    %esp,%ebp
    1a43:	53                   	push   %ebx
    1a44:	8b 55 0c             	mov    0xc(%ebp),%edx
    1a47:	8b 45 08             	mov    0x8(%ebp),%eax
    1a4a:	8b 5d 10             	mov    0x10(%ebp),%ebx
    1a4d:	66 8b 4a 04          	mov    0x4(%edx),%cx
    1a51:	8b 40 04             	mov    0x4(%eax),%eax
    1a54:	81 e1 ff ff 00 00    	and    $0xffff,%ecx
    1a5a:	8b 84 88 88 00 00 00 	mov    0x88(%eax,%ecx,4),%eax
    1a61:	85 c0                	test   %eax,%eax
    1a63:	74 2b                	je     1a90 <req_set_report+0x50>
    1a65:	66 8b 52 06          	mov    0x6(%edx),%dx
    1a69:	89 d1                	mov    %edx,%ecx
    1a6b:	8b 50 24             	mov    0x24(%eax),%edx
    1a6e:	81 e1 ff ff 00 00    	and    $0xffff,%ecx
    1a74:	85 d2                	test   %edx,%edx
    1a76:	74 10                	je     1a88 <req_set_report+0x48>
    1a78:	89 5d 0c             	mov    %ebx,0xc(%ebp)
    1a7b:	89 4d 10             	mov    %ecx,0x10(%ebp)
    1a7e:	89 45 08             	mov    %eax,0x8(%ebp)
    1a81:	5b                   	pop    %ebx
    1a82:	5d                   	pop    %ebp
    1a83:	ff e2                	jmp    *%edx
    1a85:	8d 76 00             	lea    0x0(%esi),%esi
    1a88:	b8 f5 ff ff ff       	mov    $0xfffffff5,%eax
    1a8d:	5b                   	pop    %ebx
    1a8e:	5d                   	pop    %ebp
    1a8f:	c3                   	ret    
    1a90:	83 c8 ff             	or     $0xffffffff,%eax
    1a93:	eb f8                	jmp    1a8d <req_set_report+0x4d>
    1a95:	66 90                	xchg   %ax,%ax
    1a97:	66 90                	xchg   %ax,%ax
    1a99:	66 90                	xchg   %ax,%ax
    1a9b:	66 90                	xchg   %ax,%ax
    1a9d:	66 90                	xchg   %ax,%ax
    1a9f:	90                   	nop

00001aa0 <on_data_out>:
    1aa0:	55                   	push   %ebp
    1aa1:	89 e5                	mov    %esp,%ebp
    1aa3:	56                   	push   %esi
    1aa4:	53                   	push   %ebx
    1aa5:	83 ec 30             	sub    $0x30,%esp
    1aa8:	8b 45 10             	mov    0x10(%ebp),%eax
    1aab:	85 c0                	test   %eax,%eax
    1aad:	0f 84 95 00 00 00    	je     1b48 <on_data_out+0xa8>
    1ab3:	8b 45 0c             	mov    0xc(%ebp),%eax
    1ab6:	8a 00                	mov    (%eax),%al
    1ab8:	88 c2                	mov    %al,%dl
    1aba:	83 e2 10             	and    $0x10,%edx
    1abd:	80 fa 01             	cmp    $0x1,%dl
    1ac0:	88 c2                	mov    %al,%dl
    1ac2:	19 f6                	sbb    %esi,%esi
    1ac4:	83 e2 08             	and    $0x8,%edx
    1ac7:	83 e6 c2             	and    $0xffffffc2,%esi
    1aca:	83 c6 6b             	add    $0x6b,%esi
    1acd:	80 fa 01             	cmp    $0x1,%dl
    1ad0:	19 db                	sbb    %ebx,%ebx
    1ad2:	88 c2                	mov    %al,%dl
    1ad4:	83 e3 ca             	and    $0xffffffca,%ebx
    1ad7:	83 e2 04             	and    $0x4,%edx
    1ada:	83 c3 63             	add    $0x63,%ebx
    1add:	80 fa 01             	cmp    $0x1,%dl
    1ae0:	19 c9                	sbb    %ecx,%ecx
    1ae2:	88 c2                	mov    %al,%dl
    1ae4:	83 e1 ba             	and    $0xffffffba,%ecx
    1ae7:	83 e2 02             	and    $0x2,%edx
    1aea:	83 c1 73             	add    $0x73,%ecx
    1aed:	80 fa 01             	cmp    $0x1,%dl
    1af0:	19 d2                	sbb    %edx,%edx
    1af2:	83 e0 01             	and    $0x1,%eax
    1af5:	83 e2 ec             	and    $0xffffffec,%edx
    1af8:	89 74 24 20          	mov    %esi,0x20(%esp)
    1afc:	83 c2 41             	add    $0x41,%edx
    1aff:	3c 01                	cmp    $0x1,%al
    1b01:	19 c0                	sbb    %eax,%eax
    1b03:	89 5c 24 1c          	mov    %ebx,0x1c(%esp)
    1b07:	83 e0 fd             	and    $0xfffffffd,%eax
    1b0a:	89 4c 24 18          	mov    %ecx,0x18(%esp)
    1b0e:	83 c0 30             	add    $0x30,%eax
    1b11:	89 54 24 14          	mov    %edx,0x14(%esp)
    1b15:	89 44 24 10          	mov    %eax,0x10(%esp)
    1b19:	8b 45 08             	mov    0x8(%ebp),%eax
    1b1c:	8b 00                	mov    (%eax),%eax
    1b1e:	c7 44 24 08 7b 18 02 	movl   $0x2187b,0x8(%esp)
    1b25:	00 
    1b26:	89 44 24 0c          	mov    %eax,0xc(%esp)
    1b2a:	c7 44 24 04 03 00 00 	movl   $0x3,0x4(%esp)
    1b31:	00 
    1b32:	c7 04 24 ff ff ff ff 	movl   $0xffffffff,(%esp)
    1b39:	e8 12 b6 00 00       	call   d150 <log_msg>
    1b3e:	31 c0                	xor    %eax,%eax
    1b40:	83 c4 30             	add    $0x30,%esp
    1b43:	5b                   	pop    %ebx
    1b44:	5e                   	pop    %esi
    1b45:	5d                   	pop    %ebp
    1b46:	c3                   	ret    
    1b47:	90                   	nop
    1b48:	b8 d2 fe ff ff       	mov    $0xfffffed2,%eax
    1b4d:	eb f1                	jmp    1b40 <on_data_out+0xa0>
    1b4f:	90                   	nop

00001b50 <callback_connection>:
    1b50:	55                   	push   %ebp
    1b51:	89 e5                	mov    %esp,%ebp
    1b53:	56                   	push   %esi
    1b54:	53                   	push   %ebx
    1b55:	83 ec 40             	sub    $0x40,%esp
    1b58:	8b 15 4c 4d 02 00    	mov    0x24d4c,%edx
    1b5e:	85 d2                	test   %edx,%edx
    1b60:	74 75                	je     1bd7 <callback_connection+0x87>
    1b62:	8b 45 08             	mov    0x8(%ebp),%eax
    1b65:	c7 44 24 04 00 00 00 	movl   $0x0,0x4(%esp)
    1b6c:	00 
    1b6d:	89 04 24             	mov    %eax,(%esp)
    1b70:	8d 75 d4             	lea    -0x2c(%ebp),%esi
    1b73:	e8 b8 31 01 00       	call   14d30 <async_answer_0>
    1b78:	c7 44 24 04 00 00 00 	movl   $0x0,0x4(%esp)
    1b7f:	00 
    1b80:	89 34 24             	mov    %esi,(%esp)
    1b83:	e8 78 1b 01 00       	call   13700 <async_get_call_timeout>
    1b88:	89 74 24 08          	mov    %esi,0x8(%esp)
    1b8c:	89 44 24 04          	mov    %eax,0x4(%esp)
    1b90:	89 c3                	mov    %eax,%ebx
    1b92:	a1 4c 4d 02 00       	mov    0x24d4c,%eax
    1b97:	89 04 24             	mov    %eax,(%esp)
    1b9a:	e8 71 02 00 00       	call   1e10 <usbvirt_ipc_handle_call>
    1b9f:	84 c0                	test   %al,%al
    1ba1:	75 d5                	jne    1b78 <callback_connection+0x28>
    1ba3:	8b 45 d4             	mov    -0x2c(%ebp),%eax
    1ba6:	85 c0                	test   %eax,%eax
    1ba8:	74 16                	je     1bc0 <callback_connection+0x70>
    1baa:	c7 44 24 04 f2 ff ff 	movl   $0xfffffff2,0x4(%esp)
    1bb1:	ff 
    1bb2:	89 1c 24             	mov    %ebx,(%esp)
    1bb5:	e8 76 31 01 00       	call   14d30 <async_answer_0>
    1bba:	eb bc                	jmp    1b78 <callback_connection+0x28>
    1bbc:	8d 74 26 00          	lea    0x0(%esi,%eiz,1),%esi
    1bc0:	89 1c 24             	mov    %ebx,(%esp)
    1bc3:	c7 44 24 04 00 00 00 	movl   $0x0,0x4(%esp)
    1bca:	00 
    1bcb:	e8 60 31 01 00       	call   14d30 <async_answer_0>
    1bd0:	83 c4 40             	add    $0x40,%esp
    1bd3:	5b                   	pop    %ebx
    1bd4:	5e                   	pop    %esi
    1bd5:	5d                   	pop    %ebp
    1bd6:	c3                   	ret    
    1bd7:	c7 44 24 08 3a 00 00 	movl   $0x3a,0x8(%esp)
    1bde:	00 
    1bdf:	c7 44 24 04 7a 19 02 	movl   $0x2197a,0x4(%esp)
    1be6:	00 
    1be7:	c7 04 24 87 19 02 00 	movl   $0x21987,(%esp)
    1bee:	e8 5d ae 01 00       	call   1ca50 <assert_abort>
    1bf3:	8d b6 00 00 00 00    	lea    0x0(%esi),%esi
    1bf9:	8d bc 27 00 00 00 00 	lea    0x0(%edi,%eiz,1),%edi

00001c00 <usbvirt_device_plug>:
    1c00:	8b 0d 4c 4d 02 00    	mov    0x24d4c,%ecx
    1c06:	85 c9                	test   %ecx,%ecx
    1c08:	0f 85 c2 00 00 00    	jne    1cd0 <usbvirt_device_plug+0xd0>
    1c0e:	55                   	push   %ebp
    1c0f:	89 e5                	mov    %esp,%ebp
    1c11:	53                   	push   %ebx
    1c12:	83 ec 44             	sub    $0x44,%esp
    1c15:	8d 45 f4             	lea    -0xc(%ebp),%eax
    1c18:	89 44 24 04          	mov    %eax,0x4(%esp)
    1c1c:	8b 45 0c             	mov    0xc(%ebp),%eax
    1c1f:	c7 44 24 08 00 00 00 	movl   $0x0,0x8(%esp)
    1c26:	00 
    1c27:	89 04 24             	mov    %eax,(%esp)
    1c2a:	e8 51 21 00 00       	call   3d80 <devman_fun_get_handle>
    1c2f:	85 c0                	test   %eax,%eax
    1c31:	74 0d                	je     1c40 <usbvirt_device_plug+0x40>
    1c33:	83 c4 44             	add    $0x44,%esp
    1c36:	5b                   	pop    %ebx
    1c37:	5d                   	pop    %ebp
    1c38:	c3                   	ret    
    1c39:	8d b4 26 00 00 00 00 	lea    0x0(%esi,%eiz,1),%esi
    1c40:	8b 45 f4             	mov    -0xc(%ebp),%eax
    1c43:	c7 44 24 08 00 00 00 	movl   $0x0,0x8(%esp)
    1c4a:	00 
    1c4b:	89 44 24 04          	mov    %eax,0x4(%esp)
    1c4f:	c7 04 24 02 00 00 00 	movl   $0x2,(%esp)
    1c56:	e8 55 1d 00 00       	call   39b0 <devman_device_connect>
    1c5b:	85 c0                	test   %eax,%eax
    1c5d:	74 77                	je     1cd6 <usbvirt_device_plug+0xd6>
    1c5f:	8b 55 08             	mov    0x8(%ebp),%edx
    1c62:	89 15 4c 4d 02 00    	mov    %edx,0x24d4c
    1c68:	89 42 18             	mov    %eax,0x18(%edx)
    1c6b:	89 04 24             	mov    %eax,(%esp)
    1c6e:	e8 bd 3a 01 00       	call   15730 <async_exchange_begin>
    1c73:	c7 44 24 14 00 00 00 	movl   $0x0,0x14(%esp)
    1c7a:	00 
    1c7b:	c7 44 24 10 50 1b 00 	movl   $0x1b50,0x10(%esp)
    1c82:	00 
    1c83:	c7 44 24 0c 00 00 00 	movl   $0x0,0xc(%esp)
    1c8a:	00 
    1c8b:	c7 44 24 08 00 00 00 	movl   $0x0,0x8(%esp)
    1c92:	00 
    1c93:	c7 44 24 04 00 00 00 	movl   $0x0,0x4(%esp)
    1c9a:	00 
    1c9b:	89 04 24             	mov    %eax,(%esp)
    1c9e:	89 c3                	mov    %eax,%ebx
    1ca0:	e8 2b 32 01 00       	call   14ed0 <async_connect_to_me>
    1ca5:	89 1c 24             	mov    %ebx,(%esp)
    1ca8:	89 45 e4             	mov    %eax,-0x1c(%ebp)
    1cab:	e8 f0 3d 01 00       	call   15aa0 <async_exchange_end>
    1cb0:	8b 45 e4             	mov    -0x1c(%ebp),%eax
    1cb3:	85 c0                	test   %eax,%eax
    1cb5:	0f 84 78 ff ff ff    	je     1c33 <usbvirt_device_plug+0x33>
    1cbb:	c7 05 4c 4d 02 00 00 	movl   $0x0,0x24d4c
    1cc2:	00 00 00 
    1cc5:	83 c4 44             	add    $0x44,%esp
    1cc8:	5b                   	pop    %ebx
    1cc9:	5d                   	pop    %ebp
    1cca:	c3                   	ret    
    1ccb:	90                   	nop
    1ccc:	8d 74 26 00          	lea    0x0(%esi,%eiz,1),%esi
    1cd0:	b8 fd ff ff ff       	mov    $0xfffffffd,%eax
    1cd5:	c3                   	ret    
    1cd6:	b8 fe ff ff ff       	mov    $0xfffffffe,%eax
    1cdb:	e9 53 ff ff ff       	jmp    1c33 <usbvirt_device_plug+0x33>

00001ce0 <usbvirt_device_unplug>:
    1ce0:	55                   	push   %ebp
    1ce1:	89 e5                	mov    %esp,%ebp
    1ce3:	8b 45 08             	mov    0x8(%ebp),%eax
    1ce6:	8b 40 18             	mov    0x18(%eax),%eax
    1ce9:	89 45 08             	mov    %eax,0x8(%ebp)
    1cec:	5d                   	pop    %ebp
    1ced:	e9 3e 39 01 00       	jmp    15630 <async_hangup>
    1cf2:	66 90                	xchg   %ax,%ax
    1cf4:	66 90                	xchg   %ax,%ax
    1cf6:	66 90                	xchg   %ax,%ax
    1cf8:	66 90                	xchg   %ax,%ax
    1cfa:	66 90                	xchg   %ax,%ax
    1cfc:	66 90                	xchg   %ax,%ax
    1cfe:	66 90                	xchg   %ax,%ax

00001d00 <ipc_data_in.isra.3>:
    1d00:	55                   	push   %ebp
    1d01:	89 e5                	mov    %esp,%ebp
    1d03:	57                   	push   %edi
    1d04:	56                   	push   %esi
    1d05:	53                   	push   %ebx
    1d06:	83 ec 4c             	sub    $0x4c,%esp
    1d09:	89 c6                	mov    %eax,%esi
    1d0b:	8d 45 dc             	lea    -0x24(%ebp),%eax
    1d0e:	89 55 d4             	mov    %edx,-0x2c(%ebp)
    1d11:	89 44 24 04          	mov    %eax,0x4(%esp)
    1d15:	8d 45 e0             	lea    -0x20(%ebp),%eax
    1d18:	89 04 24             	mov    %eax,(%esp)
    1d1b:	89 cb                	mov    %ecx,%ebx
    1d1d:	c7 45 dc 00 00 00 00 	movl   $0x0,-0x24(%ebp)
    1d24:	e8 77 45 01 00       	call   162a0 <async_data_read_receive>
    1d29:	84 c0                	test   %al,%al
    1d2b:	75 1b                	jne    1d48 <ipc_data_in.isra.3+0x48>
    1d2d:	c7 44 24 04 f8 ff ff 	movl   $0xfffffff8,0x4(%esp)
    1d34:	ff 
    1d35:	89 1c 24             	mov    %ebx,(%esp)
    1d38:	e8 f3 2f 01 00       	call   14d30 <async_answer_0>
    1d3d:	83 c4 4c             	add    $0x4c,%esp
    1d40:	5b                   	pop    %ebx
    1d41:	5e                   	pop    %esi
    1d42:	5f                   	pop    %edi
    1d43:	5d                   	pop    %ebp
    1d44:	c3                   	ret    
    1d45:	8d 76 00             	lea    0x0(%esi),%esi
    1d48:	8b 45 dc             	mov    -0x24(%ebp),%eax
    1d4b:	89 04 24             	mov    %eax,(%esp)
    1d4e:	e8 9d 04 01 00       	call   121f0 <malloc>
    1d53:	89 c7                	mov    %eax,%edi
    1d55:	85 c0                	test   %eax,%eax
    1d57:	74 5f                	je     1db8 <ipc_data_in.isra.3+0xb8>
    1d59:	8d 45 e4             	lea    -0x1c(%ebp),%eax
    1d5c:	89 34 24             	mov    %esi,(%esp)
    1d5f:	89 44 24 14          	mov    %eax,0x14(%esp)
    1d63:	8b 45 dc             	mov    -0x24(%ebp),%eax
    1d66:	89 44 24 10          	mov    %eax,0x10(%esp)
    1d6a:	89 7c 24 0c          	mov    %edi,0xc(%esp)
    1d6e:	0f bf 45 08          	movswl 0x8(%ebp),%eax
    1d72:	89 44 24 08          	mov    %eax,0x8(%esp)
    1d76:	8b 45 d4             	mov    -0x2c(%ebp),%eax
    1d79:	89 44 24 04          	mov    %eax,0x4(%esp)
    1d7d:	e8 3e 0b 00 00       	call   28c0 <usbvirt_data_in>
    1d82:	89 c6                	mov    %eax,%esi
    1d84:	85 c0                	test   %eax,%eax
    1d86:	74 48                	je     1dd0 <ipc_data_in.isra.3+0xd0>
    1d88:	89 44 24 04          	mov    %eax,0x4(%esp)
    1d8c:	8b 45 e0             	mov    -0x20(%ebp),%eax
    1d8f:	89 04 24             	mov    %eax,(%esp)
    1d92:	e8 99 2f 01 00       	call   14d30 <async_answer_0>
    1d97:	89 74 24 04          	mov    %esi,0x4(%esp)
    1d9b:	89 1c 24             	mov    %ebx,(%esp)
    1d9e:	e8 8d 2f 01 00       	call   14d30 <async_answer_0>
    1da3:	89 3c 24             	mov    %edi,(%esp)
    1da6:	e8 55 05 01 00       	call   12300 <free>
    1dab:	83 c4 4c             	add    $0x4c,%esp
    1dae:	5b                   	pop    %ebx
    1daf:	5e                   	pop    %esi
    1db0:	5f                   	pop    %edi
    1db1:	5d                   	pop    %ebp
    1db2:	c3                   	ret    
    1db3:	90                   	nop
    1db4:	8d 74 26 00          	lea    0x0(%esi,%eiz,1),%esi
    1db8:	c7 44 24 04 fe ff ff 	movl   $0xfffffffe,0x4(%esp)
    1dbf:	ff 
    1dc0:	89 1c 24             	mov    %ebx,(%esp)
    1dc3:	e8 68 2f 01 00       	call   14d30 <async_answer_0>
    1dc8:	e9 70 ff ff ff       	jmp    1d3d <ipc_data_in.isra.3+0x3d>
    1dcd:	8d 76 00             	lea    0x0(%esi),%esi
    1dd0:	8b 45 e4             	mov    -0x1c(%ebp),%eax
    1dd3:	89 7c 24 04          	mov    %edi,0x4(%esp)
    1dd7:	89 44 24 08          	mov    %eax,0x8(%esp)
    1ddb:	8b 45 e0             	mov    -0x20(%ebp),%eax
    1dde:	89 04 24             	mov    %eax,(%esp)
    1de1:	e8 1a 45 01 00       	call   16300 <async_data_read_finalize>
    1de6:	89 1c 24             	mov    %ebx,(%esp)
    1de9:	c7 44 24 04 00 00 00 	movl   $0x0,0x4(%esp)
    1df0:	00 
    1df1:	e8 3a 2f 01 00       	call   14d30 <async_answer_0>
    1df6:	89 3c 24             	mov    %edi,(%esp)
    1df9:	e8 02 05 01 00       	call   12300 <free>
    1dfe:	83 c4 4c             	add    $0x4c,%esp
    1e01:	5b                   	pop    %ebx
    1e02:	5e                   	pop    %esi
    1e03:	5f                   	pop    %edi
    1e04:	5d                   	pop    %ebp
    1e05:	c3                   	ret    
    1e06:	8d 76 00             	lea    0x0(%esi),%esi
    1e09:	8d bc 27 00 00 00 00 	lea    0x0(%edi,%eiz,1),%edi

00001e10 <usbvirt_ipc_handle_call>:
    1e10:	55                   	push   %ebp
    1e11:	31 c0                	xor    %eax,%eax
    1e13:	89 e5                	mov    %esp,%ebp
    1e15:	56                   	push   %esi
    1e16:	53                   	push   %ebx
    1e17:	83 ec 40             	sub    $0x40,%esp
    1e1a:	8b 55 10             	mov    0x10(%ebp),%edx
    1e1d:	8b 0a                	mov    (%edx),%ecx
    1e1f:	81 e9 50 04 00 00    	sub    $0x450,%ecx
    1e25:	83 f9 06             	cmp    $0x6,%ecx
    1e28:	77 4e                	ja     1e78 <usbvirt_ipc_handle_call+0x68>
    1e2a:	ff 24 8d 94 19 02 00 	jmp    *0x21994(,%ecx,4)
    1e31:	8d b4 26 00 00 00 00 	lea    0x0(%esi,%eiz,1),%esi
    1e38:	8b 45 f4             	mov    -0xc(%ebp),%eax
    1e3b:	89 5c 24 04          	mov    %ebx,0x4(%esp)
    1e3f:	89 44 24 08          	mov    %eax,0x8(%esp)
    1e43:	8b 45 e8             	mov    -0x18(%ebp),%eax
    1e46:	89 04 24             	mov    %eax,(%esp)
    1e49:	e8 b2 44 01 00       	call   16300 <async_data_read_finalize>
    1e4e:	8b 45 0c             	mov    0xc(%ebp),%eax
    1e51:	c7 44 24 04 00 00 00 	movl   $0x0,0x4(%esp)
    1e58:	00 
    1e59:	89 04 24             	mov    %eax,(%esp)
    1e5c:	e8 cf 2e 01 00       	call   14d30 <async_answer_0>
    1e61:	8b 45 f0             	mov    -0x10(%ebp),%eax
    1e64:	89 04 24             	mov    %eax,(%esp)
    1e67:	e8 94 04 01 00       	call   12300 <free>
    1e6c:	89 1c 24             	mov    %ebx,(%esp)
    1e6f:	e8 8c 04 01 00       	call   12300 <free>
    1e74:	b0 01                	mov    $0x1,%al
    1e76:	66 90                	xchg   %ax,%ax
    1e78:	83 c4 40             	add    $0x40,%esp
    1e7b:	5b                   	pop    %ebx
    1e7c:	5e                   	pop    %esi
    1e7d:	5d                   	pop    %ebp
    1e7e:	c3                   	ret    
    1e7f:	90                   	nop
    1e80:	8b 42 04             	mov    0x4(%edx),%eax
    1e83:	8b 4d 0c             	mov    0xc(%ebp),%ecx
    1e86:	89 04 24             	mov    %eax,(%esp)
    1e89:	ba 02 00 00 00       	mov    $0x2,%edx
    1e8e:	8b 45 08             	mov    0x8(%ebp),%eax
    1e91:	e8 6a fe ff ff       	call   1d00 <ipc_data_in.isra.3>
    1e96:	83 c4 40             	add    $0x40,%esp
    1e99:	b0 01                	mov    $0x1,%al
    1e9b:	5b                   	pop    %ebx
    1e9c:	5e                   	pop    %esi
    1e9d:	5d                   	pop    %ebp
    1e9e:	c3                   	ret    
    1e9f:	90                   	nop
    1ea0:	8d 45 f4             	lea    -0xc(%ebp),%eax
    1ea3:	8b 5a 04             	mov    0x4(%edx),%ebx
    1ea6:	89 44 24 14          	mov    %eax,0x14(%esp)
    1eaa:	8d 45 f0             	lea    -0x10(%ebp),%eax
    1ead:	c7 44 24 10 00 00 00 	movl   $0x0,0x10(%esp)
    1eb4:	00 
    1eb5:	c7 44 24 0c 00 00 00 	movl   $0x0,0xc(%esp)
    1ebc:	00 
    1ebd:	c7 44 24 08 01 00 00 	movl   $0x1,0x8(%esp)
    1ec4:	00 
    1ec5:	c7 44 24 04 00 00 00 	movl   $0x0,0x4(%esp)
    1ecc:	00 
    1ecd:	89 04 24             	mov    %eax,(%esp)
    1ed0:	c7 45 f0 00 00 00 00 	movl   $0x0,-0x10(%ebp)
    1ed7:	c7 45 f4 00 00 00 00 	movl   $0x0,-0xc(%ebp)
    1ede:	e8 6d 49 01 00       	call   16850 <async_data_write_accept>
    1ee3:	85 c0                	test   %eax,%eax
    1ee5:	0f 85 85 03 00 00    	jne    2270 <usbvirt_ipc_handle_call+0x460>
    1eeb:	8b 45 f4             	mov    -0xc(%ebp),%eax
    1eee:	8b 55 08             	mov    0x8(%ebp),%edx
    1ef1:	89 44 24 10          	mov    %eax,0x10(%esp)
    1ef5:	8b 45 f0             	mov    -0x10(%ebp),%eax
    1ef8:	0f bf db             	movswl %bx,%ebx
    1efb:	89 44 24 0c          	mov    %eax,0xc(%esp)
    1eff:	89 5c 24 08          	mov    %ebx,0x8(%esp)
    1f03:	c7 44 24 04 02 00 00 	movl   $0x2,0x4(%esp)
    1f0a:	00 
    1f0b:	89 14 24             	mov    %edx,(%esp)
    1f0e:	e8 5d 09 00 00       	call   2870 <usbvirt_data_out>
    1f13:	89 44 24 04          	mov    %eax,0x4(%esp)
    1f17:	8b 45 0c             	mov    0xc(%ebp),%eax
    1f1a:	89 04 24             	mov    %eax,(%esp)
    1f1d:	e8 0e 2e 01 00       	call   14d30 <async_answer_0>
    1f22:	8b 45 f0             	mov    -0x10(%ebp),%eax
    1f25:	89 04 24             	mov    %eax,(%esp)
    1f28:	e8 d3 03 01 00       	call   12300 <free>
    1f2d:	b0 01                	mov    $0x1,%al
    1f2f:	83 c4 40             	add    $0x40,%esp
    1f32:	5b                   	pop    %ebx
    1f33:	5e                   	pop    %esi
    1f34:	5d                   	pop    %ebp
    1f35:	c3                   	ret    
    1f36:	66 90                	xchg   %ax,%ax
    1f38:	8b 55 08             	mov    0x8(%ebp),%edx
    1f3b:	8b 02                	mov    (%edx),%eax
    1f3d:	85 c0                	test   %eax,%eax
    1f3f:	0f 84 9c 03 00 00    	je     22e1 <usbvirt_ipc_handle_call+0x4d1>
    1f45:	89 04 24             	mov    %eax,(%esp)
    1f48:	e8 f3 3c 00 00       	call   5c40 <str_size>
    1f4d:	89 c3                	mov    %eax,%ebx
    1f4f:	8d 45 f4             	lea    -0xc(%ebp),%eax
    1f52:	89 44 24 04          	mov    %eax,0x4(%esp)
    1f56:	8d 45 e8             	lea    -0x18(%ebp),%eax
    1f59:	89 04 24             	mov    %eax,(%esp)
    1f5c:	e8 3f 43 01 00       	call   162a0 <async_data_read_receive>
    1f61:	84 c0                	test   %al,%al
    1f63:	0f 84 37 03 00 00    	je     22a0 <usbvirt_ipc_handle_call+0x490>
    1f69:	8b 55 f4             	mov    -0xc(%ebp),%edx
    1f6c:	39 d3                	cmp    %edx,%ebx
    1f6e:	73 05                	jae    1f75 <usbvirt_ipc_handle_call+0x165>
    1f70:	89 5d f4             	mov    %ebx,-0xc(%ebp)
    1f73:	89 da                	mov    %ebx,%edx
    1f75:	89 54 24 08          	mov    %edx,0x8(%esp)
    1f79:	8b 55 08             	mov    0x8(%ebp),%edx
    1f7c:	8b 02                	mov    (%edx),%eax
    1f7e:	89 44 24 04          	mov    %eax,0x4(%esp)
    1f82:	8b 45 e8             	mov    -0x18(%ebp),%eax
    1f85:	89 04 24             	mov    %eax,(%esp)
    1f88:	e8 73 43 01 00       	call   16300 <async_data_read_finalize>
    1f8d:	8b 45 f4             	mov    -0xc(%ebp),%eax
    1f90:	89 44 24 08          	mov    %eax,0x8(%esp)
    1f94:	8b 45 0c             	mov    0xc(%ebp),%eax
    1f97:	c7 44 24 04 00 00 00 	movl   $0x0,0x4(%esp)
    1f9e:	00 
    1f9f:	89 04 24             	mov    %eax,(%esp)
    1fa2:	e8 c9 2d 01 00       	call   14d70 <async_answer_1>
    1fa7:	b0 01                	mov    $0x1,%al
    1fa9:	e9 ca fe ff ff       	jmp    1e78 <usbvirt_ipc_handle_call+0x68>
    1fae:	66 90                	xchg   %ax,%ax
    1fb0:	8d 45 e0             	lea    -0x20(%ebp),%eax
    1fb3:	c7 44 24 10 00 00 00 	movl   $0x0,0x10(%esp)
    1fba:	00 
    1fbb:	89 44 24 14          	mov    %eax,0x14(%esp)
    1fbf:	8d 45 f0             	lea    -0x10(%ebp),%eax
    1fc2:	c7 44 24 0c 00 04 00 	movl   $0x400,0xc(%esp)
    1fc9:	00 
    1fca:	c7 44 24 08 01 00 00 	movl   $0x1,0x8(%esp)
    1fd1:	00 
    1fd2:	c7 44 24 04 00 00 00 	movl   $0x0,0x4(%esp)
    1fd9:	00 
    1fda:	89 04 24             	mov    %eax,(%esp)
    1fdd:	c7 45 f0 00 00 00 00 	movl   $0x0,-0x10(%ebp)
    1fe4:	c7 45 e0 00 00 00 00 	movl   $0x0,-0x20(%ebp)
    1feb:	c7 45 e4 00 00 00 00 	movl   $0x0,-0x1c(%ebp)
    1ff2:	e8 59 48 01 00       	call   16850 <async_data_write_accept>
    1ff7:	85 c0                	test   %eax,%eax
    1ff9:	0f 85 f1 01 00 00    	jne    21f0 <usbvirt_ipc_handle_call+0x3e0>
    1fff:	8d 45 e4             	lea    -0x1c(%ebp),%eax
    2002:	89 44 24 04          	mov    %eax,0x4(%esp)
    2006:	8d 45 e8             	lea    -0x18(%ebp),%eax
    2009:	89 04 24             	mov    %eax,(%esp)
    200c:	e8 8f 42 01 00       	call   162a0 <async_data_read_receive>
    2011:	84 c0                	test   %al,%al
    2013:	0f 84 47 02 00 00    	je     2260 <usbvirt_ipc_handle_call+0x450>
    2019:	8b 45 e4             	mov    -0x1c(%ebp),%eax
    201c:	89 04 24             	mov    %eax,(%esp)
    201f:	e8 cc 01 01 00       	call   121f0 <malloc>
    2024:	89 c3                	mov    %eax,%ebx
    2026:	85 c0                	test   %eax,%eax
    2028:	0f 84 d0 02 00 00    	je     22fe <usbvirt_ipc_handle_call+0x4ee>
    202e:	8d 45 f4             	lea    -0xc(%ebp),%eax
    2031:	89 5c 24 0c          	mov    %ebx,0xc(%esp)
    2035:	89 44 24 14          	mov    %eax,0x14(%esp)
    2039:	8b 45 e4             	mov    -0x1c(%ebp),%eax
    203c:	89 44 24 10          	mov    %eax,0x10(%esp)
    2040:	8b 45 e0             	mov    -0x20(%ebp),%eax
    2043:	89 44 24 08          	mov    %eax,0x8(%esp)
    2047:	8b 45 f0             	mov    -0x10(%ebp),%eax
    204a:	89 44 24 04          	mov    %eax,0x4(%esp)
    204e:	8b 45 08             	mov    0x8(%ebp),%eax
    2051:	89 04 24             	mov    %eax,(%esp)
    2054:	e8 c7 06 00 00       	call   2720 <usbvirt_control_read>
    2059:	89 c6                	mov    %eax,%esi
    205b:	85 c0                	test   %eax,%eax
    205d:	0f 84 d5 fd ff ff    	je     1e38 <usbvirt_ipc_handle_call+0x28>
    2063:	89 44 24 04          	mov    %eax,0x4(%esp)
    2067:	8b 45 e8             	mov    -0x18(%ebp),%eax
    206a:	89 04 24             	mov    %eax,(%esp)
    206d:	e8 be 2c 01 00       	call   14d30 <async_answer_0>
    2072:	8b 55 0c             	mov    0xc(%ebp),%edx
    2075:	89 14 24             	mov    %edx,(%esp)
    2078:	89 74 24 04          	mov    %esi,0x4(%esp)
    207c:	e8 af 2c 01 00       	call   14d30 <async_answer_0>
    2081:	8b 45 f0             	mov    -0x10(%ebp),%eax
    2084:	89 04 24             	mov    %eax,(%esp)
    2087:	e8 74 02 01 00       	call   12300 <free>
    208c:	89 1c 24             	mov    %ebx,(%esp)
    208f:	e8 6c 02 01 00       	call   12300 <free>
    2094:	b0 01                	mov    $0x1,%al
    2096:	e9 94 fe ff ff       	jmp    1f2f <usbvirt_ipc_handle_call+0x11f>
    209b:	90                   	nop
    209c:	8d 74 26 00          	lea    0x0(%esi,%eiz,1),%esi
    20a0:	8b 42 04             	mov    0x4(%edx),%eax
    20a3:	8b 4d 0c             	mov    0xc(%ebp),%ecx
    20a6:	89 04 24             	mov    %eax,(%esp)
    20a9:	ba 03 00 00 00       	mov    $0x3,%edx
    20ae:	8b 45 08             	mov    0x8(%ebp),%eax
    20b1:	e8 4a fc ff ff       	call   1d00 <ipc_data_in.isra.3>
    20b6:	83 c4 40             	add    $0x40,%esp
    20b9:	b0 01                	mov    $0x1,%al
    20bb:	5b                   	pop    %ebx
    20bc:	5e                   	pop    %esi
    20bd:	5d                   	pop    %ebp
    20be:	c3                   	ret    
    20bf:	90                   	nop
    20c0:	8b 42 04             	mov    0x4(%edx),%eax
    20c3:	c7 44 24 10 00 00 00 	movl   $0x0,0x10(%esp)
    20ca:	00 
    20cb:	89 45 e8             	mov    %eax,-0x18(%ebp)
    20ce:	8d 45 f4             	lea    -0xc(%ebp),%eax
    20d1:	89 44 24 14          	mov    %eax,0x14(%esp)
    20d5:	8d 45 ec             	lea    -0x14(%ebp),%eax
    20d8:	c7 44 24 0c 00 00 00 	movl   $0x0,0xc(%esp)
    20df:	00 
    20e0:	c7 44 24 08 01 00 00 	movl   $0x1,0x8(%esp)
    20e7:	00 
    20e8:	c7 44 24 04 00 00 00 	movl   $0x0,0x4(%esp)
    20ef:	00 
    20f0:	89 04 24             	mov    %eax,(%esp)
    20f3:	c7 45 ec 00 00 00 00 	movl   $0x0,-0x14(%ebp)
    20fa:	c7 45 f0 00 00 00 00 	movl   $0x0,-0x10(%ebp)
    2101:	c7 45 f4 00 00 00 00 	movl   $0x0,-0xc(%ebp)
    2108:	e8 43 47 01 00       	call   16850 <async_data_write_accept>
    210d:	85 c0                	test   %eax,%eax
    210f:	0f 85 db 00 00 00    	jne    21f0 <usbvirt_ipc_handle_call+0x3e0>
    2115:	8b 45 e8             	mov    -0x18(%ebp),%eax
    2118:	85 c0                	test   %eax,%eax
    211a:	0f 84 e8 00 00 00    	je     2208 <usbvirt_ipc_handle_call+0x3f8>
    2120:	8d 45 e8             	lea    -0x18(%ebp),%eax
    2123:	c7 44 24 10 00 00 00 	movl   $0x0,0x10(%esp)
    212a:	00 
    212b:	89 44 24 14          	mov    %eax,0x14(%esp)
    212f:	8d 45 f0             	lea    -0x10(%ebp),%eax
    2132:	c7 44 24 0c 00 00 00 	movl   $0x0,0xc(%esp)
    2139:	00 
    213a:	c7 44 24 08 01 00 00 	movl   $0x1,0x8(%esp)
    2141:	00 
    2142:	c7 44 24 04 00 00 00 	movl   $0x0,0x4(%esp)
    2149:	00 
    214a:	89 04 24             	mov    %eax,(%esp)
    214d:	e8 fe 46 01 00       	call   16850 <async_data_write_accept>
    2152:	85 c0                	test   %eax,%eax
    2154:	0f 85 66 01 00 00    	jne    22c0 <usbvirt_ipc_handle_call+0x4b0>
    215a:	8b 45 e8             	mov    -0x18(%ebp),%eax
    215d:	e9 a8 00 00 00       	jmp    220a <usbvirt_ipc_handle_call+0x3fa>
    2162:	8d b6 00 00 00 00    	lea    0x0(%esi),%esi
    2168:	8d 45 f4             	lea    -0xc(%ebp),%eax
    216b:	8b 5a 04             	mov    0x4(%edx),%ebx
    216e:	89 44 24 14          	mov    %eax,0x14(%esp)
    2172:	8d 45 f0             	lea    -0x10(%ebp),%eax
    2175:	c7 44 24 10 00 00 00 	movl   $0x0,0x10(%esp)
    217c:	00 
    217d:	c7 44 24 0c 00 00 00 	movl   $0x0,0xc(%esp)
    2184:	00 
    2185:	c7 44 24 08 01 00 00 	movl   $0x1,0x8(%esp)
    218c:	00 
    218d:	c7 44 24 04 00 00 00 	movl   $0x0,0x4(%esp)
    2194:	00 
    2195:	89 04 24             	mov    %eax,(%esp)
    2198:	c7 45 f0 00 00 00 00 	movl   $0x0,-0x10(%ebp)
    219f:	c7 45 f4 00 00 00 00 	movl   $0x0,-0xc(%ebp)
    21a6:	e8 a5 46 01 00       	call   16850 <async_data_write_accept>
    21ab:	85 c0                	test   %eax,%eax
    21ad:	0f 85 d5 00 00 00    	jne    2288 <usbvirt_ipc_handle_call+0x478>
    21b3:	8b 45 f4             	mov    -0xc(%ebp),%eax
    21b6:	c7 44 24 04 03 00 00 	movl   $0x3,0x4(%esp)
    21bd:	00 
    21be:	89 44 24 10          	mov    %eax,0x10(%esp)
    21c2:	8b 45 f0             	mov    -0x10(%ebp),%eax
    21c5:	89 44 24 0c          	mov    %eax,0xc(%esp)
    21c9:	8b 45 08             	mov    0x8(%ebp),%eax
    21cc:	0f bf db             	movswl %bx,%ebx
    21cf:	89 5c 24 08          	mov    %ebx,0x8(%esp)
    21d3:	89 04 24             	mov    %eax,(%esp)
    21d6:	e8 95 06 00 00       	call   2870 <usbvirt_data_out>
    21db:	8b 55 0c             	mov    0xc(%ebp),%edx
    21de:	89 44 24 04          	mov    %eax,0x4(%esp)
    21e2:	89 14 24             	mov    %edx,(%esp)
    21e5:	e9 33 fd ff ff       	jmp    1f1d <usbvirt_ipc_handle_call+0x10d>
    21ea:	8d b6 00 00 00 00    	lea    0x0(%esi),%esi
    21f0:	8b 55 0c             	mov    0xc(%ebp),%edx
    21f3:	89 44 24 04          	mov    %eax,0x4(%esp)
    21f7:	89 14 24             	mov    %edx,(%esp)
    21fa:	e8 31 2b 01 00       	call   14d30 <async_answer_0>
    21ff:	b0 01                	mov    $0x1,%al
    2201:	e9 29 fd ff ff       	jmp    1f2f <usbvirt_ipc_handle_call+0x11f>
    2206:	66 90                	xchg   %ax,%ax
    2208:	31 c0                	xor    %eax,%eax
    220a:	89 44 24 10          	mov    %eax,0x10(%esp)
    220e:	8b 45 f0             	mov    -0x10(%ebp),%eax
    2211:	89 44 24 0c          	mov    %eax,0xc(%esp)
    2215:	8b 45 f4             	mov    -0xc(%ebp),%eax
    2218:	8b 55 08             	mov    0x8(%ebp),%edx
    221b:	89 44 24 08          	mov    %eax,0x8(%esp)
    221f:	8b 45 ec             	mov    -0x14(%ebp),%eax
    2222:	89 14 24             	mov    %edx,(%esp)
    2225:	89 44 24 04          	mov    %eax,0x4(%esp)
    2229:	e8 a2 03 00 00       	call   25d0 <usbvirt_control_write>
    222e:	89 44 24 04          	mov    %eax,0x4(%esp)
    2232:	8b 45 0c             	mov    0xc(%ebp),%eax
    2235:	89 04 24             	mov    %eax,(%esp)
    2238:	e8 f3 2a 01 00       	call   14d30 <async_answer_0>
    223d:	8b 45 ec             	mov    -0x14(%ebp),%eax
    2240:	89 04 24             	mov    %eax,(%esp)
    2243:	e8 b8 00 01 00       	call   12300 <free>
    2248:	8b 45 f0             	mov    -0x10(%ebp),%eax
    224b:	85 c0                	test   %eax,%eax
    224d:	0f 85 d2 fc ff ff    	jne    1f25 <usbvirt_ipc_handle_call+0x115>
    2253:	b0 01                	mov    $0x1,%al
    2255:	e9 d5 fc ff ff       	jmp    1f2f <usbvirt_ipc_handle_call+0x11f>
    225a:	8d b6 00 00 00 00    	lea    0x0(%esi),%esi
    2260:	c7 44 24 04 f8 ff ff 	movl   $0xfffffff8,0x4(%esp)
    2267:	ff 
    2268:	e9 aa fc ff ff       	jmp    1f17 <usbvirt_ipc_handle_call+0x107>
    226d:	8d 76 00             	lea    0x0(%esi),%esi
    2270:	89 44 24 04          	mov    %eax,0x4(%esp)
    2274:	8b 45 0c             	mov    0xc(%ebp),%eax
    2277:	89 04 24             	mov    %eax,(%esp)
    227a:	e8 b1 2a 01 00       	call   14d30 <async_answer_0>
    227f:	b0 01                	mov    $0x1,%al
    2281:	e9 f2 fb ff ff       	jmp    1e78 <usbvirt_ipc_handle_call+0x68>
    2286:	66 90                	xchg   %ax,%ax
    2288:	8b 55 0c             	mov    0xc(%ebp),%edx
    228b:	89 44 24 04          	mov    %eax,0x4(%esp)
    228f:	89 14 24             	mov    %edx,(%esp)
    2292:	e8 99 2a 01 00       	call   14d30 <async_answer_0>
    2297:	b0 01                	mov    $0x1,%al
    2299:	e9 da fb ff ff       	jmp    1e78 <usbvirt_ipc_handle_call+0x68>
    229e:	66 90                	xchg   %ax,%ax
    22a0:	8b 45 0c             	mov    0xc(%ebp),%eax
    22a3:	c7 44 24 04 f2 ff ff 	movl   $0xfffffff2,0x4(%esp)
    22aa:	ff 
    22ab:	89 04 24             	mov    %eax,(%esp)
    22ae:	e8 7d 2a 01 00       	call   14d30 <async_answer_0>
    22b3:	b0 01                	mov    $0x1,%al
    22b5:	e9 be fb ff ff       	jmp    1e78 <usbvirt_ipc_handle_call+0x68>
    22ba:	8d b6 00 00 00 00    	lea    0x0(%esi),%esi
    22c0:	89 44 24 04          	mov    %eax,0x4(%esp)
    22c4:	8b 45 0c             	mov    0xc(%ebp),%eax
    22c7:	89 04 24             	mov    %eax,(%esp)
    22ca:	e8 61 2a 01 00       	call   14d30 <async_answer_0>
    22cf:	8b 45 ec             	mov    -0x14(%ebp),%eax
    22d2:	89 04 24             	mov    %eax,(%esp)
    22d5:	e8 26 00 01 00       	call   12300 <free>
    22da:	b0 01                	mov    $0x1,%al
    22dc:	e9 4e fc ff ff       	jmp    1f2f <usbvirt_ipc_handle_call+0x11f>
    22e1:	8b 45 0c             	mov    0xc(%ebp),%eax
    22e4:	c7 44 24 04 ff ff ff 	movl   $0xffffffff,0x4(%esp)
    22eb:	ff 
    22ec:	89 04 24             	mov    %eax,(%esp)
    22ef:	e8 3c 2a 01 00       	call   14d30 <async_answer_0>
    22f4:	8b 55 08             	mov    0x8(%ebp),%edx
    22f7:	8b 02                	mov    (%edx),%eax
    22f9:	e9 47 fc ff ff       	jmp    1f45 <usbvirt_ipc_handle_call+0x135>
    22fe:	8b 55 0c             	mov    0xc(%ebp),%edx
    2301:	c7 44 24 04 fe ff ff 	movl   $0xfffffffe,0x4(%esp)
    2308:	ff 
    2309:	89 14 24             	mov    %edx,(%esp)
    230c:	e8 1f 2a 01 00       	call   14d30 <async_answer_0>
    2311:	8b 45 f0             	mov    -0x10(%ebp),%eax
    2314:	89 04 24             	mov    %eax,(%esp)
    2317:	e8 e4 ff 00 00       	call   12300 <free>
    231c:	b0 01                	mov    $0x1,%al
    231e:	e9 0c fc ff ff       	jmp    1f2f <usbvirt_ipc_handle_call+0x11f>
    2323:	66 90                	xchg   %ax,%ax
    2325:	66 90                	xchg   %ax,%ax
    2327:	66 90                	xchg   %ax,%ax
    2329:	66 90                	xchg   %ax,%ax
    232b:	66 90                	xchg   %ax,%ax
    232d:	66 90                	xchg   %ax,%ax
    232f:	90                   	nop

00002330 <req_set_address>:
    2330:	55                   	push   %ebp
    2331:	89 e5                	mov    %esp,%ebp
    2333:	8b 45 0c             	mov    0xc(%ebp),%eax
    2336:	66 8b 48 06          	mov    0x6(%eax),%cx
    233a:	66 8b 50 02          	mov    0x2(%eax),%dx
    233e:	66 0b 48 04          	or     0x4(%eax),%cx
    2342:	75 14                	jne    2358 <req_set_address+0x28>
    2344:	66 83 fa 7f          	cmp    $0x7f,%dx
    2348:	77 0e                	ja     2358 <req_set_address+0x28>
    234a:	8b 45 08             	mov    0x8(%ebp),%eax
    234d:	66 89 50 10          	mov    %dx,0x10(%eax)
    2351:	31 c0                	xor    %eax,%eax
    2353:	5d                   	pop    %ebp
    2354:	c3                   	ret    
    2355:	8d 76 00             	lea    0x0(%esi),%esi
    2358:	b8 f2 ff ff ff       	mov    $0xfffffff2,%eax
    235d:	5d                   	pop    %ebp
    235e:	c3                   	ret    
    235f:	90                   	nop

00002360 <req_set_configuration>:
    2360:	55                   	push   %ebp
    2361:	89 e5                	mov    %esp,%ebp
    2363:	56                   	push   %esi
    2364:	53                   	push   %ebx
    2365:	83 ec 10             	sub    $0x10,%esp
    2368:	8b 45 0c             	mov    0xc(%ebp),%eax
    236b:	8b 5d 08             	mov    0x8(%ebp),%ebx
    236e:	66 8b 48 06          	mov    0x6(%eax),%cx
    2372:	66 8b 50 02          	mov    0x2(%eax),%dx
    2376:	66 0b 48 04          	or     0x4(%eax),%cx
    237a:	75 44                	jne    23c0 <req_set_configuration+0x60>
    237c:	66 81 fa ff 00       	cmp    $0xff,%dx
    2381:	77 3d                	ja     23c0 <req_set_configuration+0x60>
    2383:	8b 4b 14             	mov    0x14(%ebx),%ecx
    2386:	31 c0                	xor    %eax,%eax
    2388:	85 c9                	test   %ecx,%ecx
    238a:	74 2c                	je     23b8 <req_set_configuration+0x58>
    238c:	66 83 fa 01          	cmp    $0x1,%dx
    2390:	8b 43 08             	mov    0x8(%ebx),%eax
    2393:	19 f6                	sbb    %esi,%esi
    2395:	83 c6 02             	add    $0x2,%esi
    2398:	85 c0                	test   %eax,%eax
    239a:	74 17                	je     23b3 <req_set_configuration+0x53>
    239c:	8b 80 84 00 00 00    	mov    0x84(%eax),%eax
    23a2:	85 c0                	test   %eax,%eax
    23a4:	74 0d                	je     23b3 <req_set_configuration+0x53>
    23a6:	89 74 24 08          	mov    %esi,0x8(%esp)
    23aa:	89 4c 24 04          	mov    %ecx,0x4(%esp)
    23ae:	89 1c 24             	mov    %ebx,(%esp)
    23b1:	ff d0                	call   *%eax
    23b3:	89 73 14             	mov    %esi,0x14(%ebx)
    23b6:	31 c0                	xor    %eax,%eax
    23b8:	83 c4 10             	add    $0x10,%esp
    23bb:	5b                   	pop    %ebx
    23bc:	5e                   	pop    %esi
    23bd:	5d                   	pop    %ebp
    23be:	c3                   	ret    
    23bf:	90                   	nop
    23c0:	b8 f2 ff ff ff       	mov    $0xfffffff2,%eax
    23c5:	eb f1                	jmp    23b8 <req_set_configuration+0x58>
    23c7:	89 f6                	mov    %esi,%esi
    23c9:	8d bc 27 00 00 00 00 	lea    0x0(%edi,%eiz,1),%edi

000023d0 <req_get_descriptor>:
    23d0:	55                   	push   %ebp
    23d1:	89 e5                	mov    %esp,%ebp
    23d3:	57                   	push   %edi
    23d4:	56                   	push   %esi
    23d5:	53                   	push   %ebx
    23d6:	83 ec 2c             	sub    $0x2c,%esp
    23d9:	8b 4d 0c             	mov    0xc(%ebp),%ecx
    23dc:	8a 41 02             	mov    0x2(%ecx),%al
    23df:	8a 51 03             	mov    0x3(%ecx),%dl
    23e2:	84 c0                	test   %al,%al
    23e4:	75 62                	jne    2448 <req_get_descriptor+0x78>
    23e6:	80 fa 01             	cmp    $0x1,%dl
    23e9:	75 5d                	jne    2448 <req_get_descriptor+0x78>
    23eb:	8b 55 08             	mov    0x8(%ebp),%edx
    23ee:	8b 42 0c             	mov    0xc(%edx),%eax
    23f1:	85 c0                	test   %eax,%eax
    23f3:	0f 84 57 01 00 00    	je     2550 <req_get_descriptor+0x180>
    23f9:	8b 00                	mov    (%eax),%eax
    23fb:	85 c0                	test   %eax,%eax
    23fd:	0f 84 4d 01 00 00    	je     2550 <req_get_descriptor+0x180>
    2403:	31 d2                	xor    %edx,%edx
    2405:	66 8b 59 06          	mov    0x6(%ecx),%bx
    2409:	8a 10                	mov    (%eax),%dl
    240b:	81 e3 ff ff 00 00    	and    $0xffff,%ebx
    2411:	39 d3                	cmp    %edx,%ebx
    2413:	76 02                	jbe    2417 <req_get_descriptor+0x47>
    2415:	89 d3                	mov    %edx,%ebx
    2417:	8b 4d 10             	mov    0x10(%ebp),%ecx
    241a:	89 5c 24 08          	mov    %ebx,0x8(%esp)
    241e:	89 44 24 04          	mov    %eax,0x4(%esp)
    2422:	89 0c 24             	mov    %ecx,(%esp)
    2425:	e8 06 2a 00 00       	call   4e30 <memcpy>
    242a:	8b 75 14             	mov    0x14(%ebp),%esi
    242d:	85 f6                	test   %esi,%esi
    242f:	0f 84 2b 01 00 00    	je     2560 <req_get_descriptor+0x190>
    2435:	8b 55 14             	mov    0x14(%ebp),%edx
    2438:	31 c0                	xor    %eax,%eax
    243a:	89 1a                	mov    %ebx,(%edx)
    243c:	83 c4 2c             	add    $0x2c,%esp
    243f:	5b                   	pop    %ebx
    2440:	5e                   	pop    %esi
    2441:	5f                   	pop    %edi
    2442:	5d                   	pop    %ebp
    2443:	c3                   	ret    
    2444:	8d 74 26 00          	lea    0x0(%esi,%eiz,1),%esi
    2448:	80 fa 02             	cmp    $0x2,%dl
    244b:	0f 85 ff 00 00 00    	jne    2550 <req_get_descriptor+0x180>
    2451:	8b 4d 08             	mov    0x8(%ebp),%ecx
    2454:	8b 51 0c             	mov    0xc(%ecx),%edx
    2457:	85 d2                	test   %edx,%edx
    2459:	0f 84 f1 00 00 00    	je     2550 <req_get_descriptor+0x180>
    245f:	25 ff 00 00 00       	and    $0xff,%eax
    2464:	3b 42 08             	cmp    0x8(%edx),%eax
    2467:	0f 83 e3 00 00 00    	jae    2550 <req_get_descriptor+0x180>
    246d:	8d 0c 40             	lea    (%eax,%eax,2),%ecx
    2470:	8b 42 04             	mov    0x4(%edx),%eax
    2473:	8d 3c 88             	lea    (%eax,%ecx,4),%edi
    2476:	8b 07                	mov    (%edi),%eax
    2478:	66 8b 40 02          	mov    0x2(%eax),%ax
    247c:	25 ff ff 00 00       	and    $0xffff,%eax
    2481:	89 04 24             	mov    %eax,(%esp)
    2484:	e8 67 fd 00 00       	call   121f0 <malloc>
    2489:	89 45 e4             	mov    %eax,-0x1c(%ebp)
    248c:	85 c0                	test   %eax,%eax
    248e:	0f 84 d3 00 00 00    	je     2567 <req_get_descriptor+0x197>
    2494:	8b 07                	mov    (%edi),%eax
    2496:	31 d2                	xor    %edx,%edx
    2498:	8a 10                	mov    (%eax),%dl
    249a:	89 44 24 04          	mov    %eax,0x4(%esp)
    249e:	8b 45 e4             	mov    -0x1c(%ebp),%eax
    24a1:	89 54 24 08          	mov    %edx,0x8(%esp)
    24a5:	89 04 24             	mov    %eax,(%esp)
    24a8:	e8 83 29 00 00       	call   4e30 <memcpy>
    24ad:	8b 07                	mov    (%edi),%eax
    24af:	31 d2                	xor    %edx,%edx
    24b1:	8b 4d e4             	mov    -0x1c(%ebp),%ecx
    24b4:	8a 10                	mov    (%eax),%dl
    24b6:	8b 5f 08             	mov    0x8(%edi),%ebx
    24b9:	01 ca                	add    %ecx,%edx
    24bb:	85 db                	test   %ebx,%ebx
    24bd:	74 37                	je     24f6 <req_get_descriptor+0x126>
    24bf:	89 d0                	mov    %edx,%eax
    24c1:	31 db                	xor    %ebx,%ebx
    24c3:	89 fa                	mov    %edi,%edx
    24c5:	89 c7                	mov    %eax,%edi
    24c7:	90                   	nop
    24c8:	8b 42 04             	mov    0x4(%edx),%eax
    24cb:	8d 34 d8             	lea    (%eax,%ebx,8),%esi
    24ce:	43                   	inc    %ebx
    24cf:	8b 46 04             	mov    0x4(%esi),%eax
    24d2:	89 44 24 08          	mov    %eax,0x8(%esp)
    24d6:	8b 06                	mov    (%esi),%eax
    24d8:	89 3c 24             	mov    %edi,(%esp)
    24db:	89 44 24 04          	mov    %eax,0x4(%esp)
    24df:	89 55 e0             	mov    %edx,-0x20(%ebp)
    24e2:	e8 49 29 00 00       	call   4e30 <memcpy>
    24e7:	8b 56 04             	mov    0x4(%esi),%edx
    24ea:	01 d7                	add    %edx,%edi
    24ec:	8b 55 e0             	mov    -0x20(%ebp),%edx
    24ef:	39 5a 08             	cmp    %ebx,0x8(%edx)
    24f2:	77 d4                	ja     24c8 <req_get_descriptor+0xf8>
    24f4:	8b 02                	mov    (%edx),%eax
    24f6:	8b 55 0c             	mov    0xc(%ebp),%edx
    24f9:	66 8b 40 02          	mov    0x2(%eax),%ax
    24fd:	25 ff ff 00 00       	and    $0xffff,%eax
    2502:	66 8b 5a 06          	mov    0x6(%edx),%bx
    2506:	81 e3 ff ff 00 00    	and    $0xffff,%ebx
    250c:	39 c3                	cmp    %eax,%ebx
    250e:	76 02                	jbe    2512 <req_get_descriptor+0x142>
    2510:	89 c3                	mov    %eax,%ebx
    2512:	8b 45 e4             	mov    -0x1c(%ebp),%eax
    2515:	8b 55 10             	mov    0x10(%ebp),%edx
    2518:	89 5c 24 08          	mov    %ebx,0x8(%esp)
    251c:	89 44 24 04          	mov    %eax,0x4(%esp)
    2520:	89 14 24             	mov    %edx,(%esp)
    2523:	e8 08 29 00 00       	call   4e30 <memcpy>
    2528:	8b 45 14             	mov    0x14(%ebp),%eax
    252b:	85 c0                	test   %eax,%eax
    252d:	74 05                	je     2534 <req_get_descriptor+0x164>
    252f:	8b 4d 14             	mov    0x14(%ebp),%ecx
    2532:	89 19                	mov    %ebx,(%ecx)
    2534:	8b 45 e4             	mov    -0x1c(%ebp),%eax
    2537:	89 04 24             	mov    %eax,(%esp)
    253a:	e8 c1 fd 00 00       	call   12300 <free>
    253f:	83 c4 2c             	add    $0x2c,%esp
    2542:	31 c0                	xor    %eax,%eax
    2544:	5b                   	pop    %ebx
    2545:	5e                   	pop    %esi
    2546:	5f                   	pop    %edi
    2547:	5d                   	pop    %ebp
    2548:	c3                   	ret    
    2549:	8d b4 26 00 00 00 00 	lea    0x0(%esi,%eiz,1),%esi
    2550:	83 c4 2c             	add    $0x2c,%esp
    2553:	b8 fb ff ff ff       	mov    $0xfffffffb,%eax
    2558:	5b                   	pop    %ebx
    2559:	5e                   	pop    %esi
    255a:	5f                   	pop    %edi
    255b:	5d                   	pop    %ebp
    255c:	c3                   	ret    
    255d:	8d 76 00             	lea    0x0(%esi),%esi
    2560:	31 c0                	xor    %eax,%eax
    2562:	e9 d5 fe ff ff       	jmp    243c <req_get_descriptor+0x6c>
    2567:	b8 fe ff ff ff       	mov    $0xfffffffe,%eax
    256c:	e9 cb fe ff ff       	jmp    243c <req_get_descriptor+0x6c>
    2571:	eb 0d                	jmp    2580 <usbvirt_control_reply_helper>
    2573:	90                   	nop
    2574:	90                   	nop
    2575:	90                   	nop
    2576:	90                   	nop
    2577:	90                   	nop
    2578:	90                   	nop
    2579:	90                   	nop
    257a:	90                   	nop
    257b:	90                   	nop
    257c:	90                   	nop
    257d:	90                   	nop
    257e:	90                   	nop
    257f:	90                   	nop

00002580 <usbvirt_control_reply_helper>:
    2580:	55                   	push   %ebp
    2581:	89 e5                	mov    %esp,%ebp
    2583:	56                   	push   %esi
    2584:	53                   	push   %ebx
    2585:	83 ec 10             	sub    $0x10,%esp
    2588:	8b 45 08             	mov    0x8(%ebp),%eax
    258b:	8b 5d 18             	mov    0x18(%ebp),%ebx
    258e:	8b 75 10             	mov    0x10(%ebp),%esi
    2591:	66 8b 40 06          	mov    0x6(%eax),%ax
    2595:	25 ff ff 00 00       	and    $0xffff,%eax
    259a:	39 c3                	cmp    %eax,%ebx
    259c:	76 02                	jbe    25a0 <usbvirt_control_reply_helper+0x20>
    259e:	89 c3                	mov    %eax,%ebx
    25a0:	8b 45 14             	mov    0x14(%ebp),%eax
    25a3:	89 5c 24 08          	mov    %ebx,0x8(%esp)
    25a7:	89 44 24 04          	mov    %eax,0x4(%esp)
    25ab:	8b 45 0c             	mov    0xc(%ebp),%eax
    25ae:	89 04 24             	mov    %eax,(%esp)
    25b1:	e8 7a 28 00 00       	call   4e30 <memcpy>
    25b6:	85 f6                	test   %esi,%esi
    25b8:	74 02                	je     25bc <usbvirt_control_reply_helper+0x3c>
    25ba:	89 1e                	mov    %ebx,(%esi)
    25bc:	83 c4 10             	add    $0x10,%esp
    25bf:	5b                   	pop    %ebx
    25c0:	5e                   	pop    %esi
    25c1:	5d                   	pop    %ebp
    25c2:	c3                   	ret    
    25c3:	66 90                	xchg   %ax,%ax
    25c5:	66 90                	xchg   %ax,%ax
    25c7:	66 90                	xchg   %ax,%ax
    25c9:	66 90                	xchg   %ax,%ax
    25cb:	66 90                	xchg   %ax,%ax
    25cd:	66 90                	xchg   %ax,%ax
    25cf:	90                   	nop

000025d0 <usbvirt_control_write>:
    25d0:	55                   	push   %ebp
    25d1:	89 e5                	mov    %esp,%ebp
    25d3:	56                   	push   %esi
    25d4:	53                   	push   %ebx
    25d5:	83 ec 20             	sub    $0x20,%esp
    25d8:	8b 5d 08             	mov    0x8(%ebp),%ebx
    25db:	8b 75 0c             	mov    0xc(%ebp),%esi
    25de:	85 db                	test   %ebx,%ebx
    25e0:	0f 84 12 01 00 00    	je     26f8 <usbvirt_control_write+0x128>
    25e6:	8b 43 08             	mov    0x8(%ebx),%eax
    25e9:	85 c0                	test   %eax,%eax
    25eb:	0f 84 eb 00 00 00    	je     26dc <usbvirt_control_write+0x10c>
    25f1:	83 7d 10 08          	cmpl   $0x8,0x10(%ebp)
    25f5:	75 41                	jne    2638 <usbvirt_control_write+0x68>
    25f7:	66 8b 56 06          	mov    0x6(%esi),%dx
    25fb:	81 e2 ff ff 00 00    	and    $0xffff,%edx
    2601:	39 55 18             	cmp    %edx,0x18(%ebp)
    2604:	75 32                	jne    2638 <usbvirt_control_write+0x68>
    2606:	8b 55 14             	mov    0x14(%ebp),%edx
    2609:	c7 44 24 10 00 00 00 	movl   $0x0,0x10(%esp)
    2610:	00 
    2611:	89 54 24 0c          	mov    %edx,0xc(%esp)
    2615:	89 74 24 08          	mov    %esi,0x8(%esp)
    2619:	8b 80 80 00 00 00    	mov    0x80(%eax),%eax
    261f:	89 1c 24             	mov    %ebx,(%esp)
    2622:	89 44 24 04          	mov    %eax,0x4(%esp)
    2626:	e8 15 03 00 00       	call   2940 <process_control_transfer>
    262b:	83 f8 fb             	cmp    $0xfffffffb,%eax
    262e:	74 18                	je     2648 <usbvirt_control_write+0x78>
    2630:	83 c4 20             	add    $0x20,%esp
    2633:	5b                   	pop    %ebx
    2634:	5e                   	pop    %esi
    2635:	5d                   	pop    %ebp
    2636:	c3                   	ret    
    2637:	90                   	nop
    2638:	83 c4 20             	add    $0x20,%esp
    263b:	b8 d3 fe ff ff       	mov    $0xfffffed3,%eax
    2640:	5b                   	pop    %ebx
    2641:	5e                   	pop    %esi
    2642:	5d                   	pop    %ebp
    2643:	c3                   	ret    
    2644:	8d 74 26 00          	lea    0x0(%esi,%eiz,1),%esi
    2648:	8b 45 14             	mov    0x14(%ebp),%eax
    264b:	c7 44 24 10 00 00 00 	movl   $0x0,0x10(%esp)
    2652:	00 
    2653:	89 44 24 0c          	mov    %eax,0xc(%esp)
    2657:	89 74 24 08          	mov    %esi,0x8(%esp)
    265b:	c7 44 24 04 a0 4a 02 	movl   $0x24aa0,0x4(%esp)
    2662:	00 
    2663:	89 1c 24             	mov    %ebx,(%esp)
    2666:	e8 d5 02 00 00       	call   2940 <process_control_transfer>
    266b:	83 f8 fb             	cmp    $0xfffffffb,%eax
    266e:	75 c0                	jne    2630 <usbvirt_control_write+0x60>
    2670:	bb da 19 02 00       	mov    $0x219da,%ebx
    2675:	80 3e 00             	cmpb   $0x0,(%esi)
    2678:	78 1c                	js     2696 <usbvirt_control_write+0xc6>
    267a:	8b 55 18             	mov    0x18(%ebp),%edx
    267d:	8b 45 14             	mov    0x14(%ebp),%eax
    2680:	c7 44 24 08 0a 00 00 	movl   $0xa,0x8(%esp)
    2687:	00 
    2688:	89 54 24 04          	mov    %edx,0x4(%esp)
    268c:	89 04 24             	mov    %eax,(%esp)
    268f:	e8 dc 03 00 00       	call   2a70 <usb_debug_str_buffer>
    2694:	89 c3                	mov    %eax,%ebx
    2696:	c7 44 24 08 0a 00 00 	movl   $0xa,0x8(%esp)
    269d:	00 
    269e:	c7 44 24 04 08 00 00 	movl   $0x8,0x4(%esp)
    26a5:	00 
    26a6:	89 34 24             	mov    %esi,(%esp)
    26a9:	e8 c2 03 00 00       	call   2a70 <usb_debug_str_buffer>
    26ae:	89 5c 24 10          	mov    %ebx,0x10(%esp)
    26b2:	89 44 24 0c          	mov    %eax,0xc(%esp)
    26b6:	c7 44 24 08 fc 19 02 	movl   $0x219fc,0x8(%esp)
    26bd:	00 
    26be:	c7 44 24 04 02 00 00 	movl   $0x2,0x4(%esp)
    26c5:	00 
    26c6:	c7 04 24 ff ff ff ff 	movl   $0xffffffff,(%esp)
    26cd:	e8 7e aa 00 00       	call   d150 <log_msg>
    26d2:	b8 d4 fe ff ff       	mov    $0xfffffed4,%eax
    26d7:	e9 54 ff ff ff       	jmp    2630 <usbvirt_control_write+0x60>
    26dc:	c7 44 24 08 39 00 00 	movl   $0x39,0x8(%esp)
    26e3:	00 
    26e4:	c7 44 24 04 dd 19 02 	movl   $0x219dd,0x4(%esp)
    26eb:	00 
    26ec:	c7 04 24 f0 19 02 00 	movl   $0x219f0,(%esp)
    26f3:	e8 58 a3 01 00       	call   1ca50 <assert_abort>
    26f8:	c7 44 24 08 38 00 00 	movl   $0x38,0x8(%esp)
    26ff:	00 
    2700:	c7 44 24 04 dd 19 02 	movl   $0x219dd,0x4(%esp)
    2707:	00 
    2708:	c7 04 24 ec 19 02 00 	movl   $0x219ec,(%esp)
    270f:	e8 3c a3 01 00       	call   1ca50 <assert_abort>
    2714:	8d b6 00 00 00 00    	lea    0x0(%esi),%esi
    271a:	8d bf 00 00 00 00    	lea    0x0(%edi),%edi

00002720 <usbvirt_control_read>:
    2720:	55                   	push   %ebp
    2721:	89 e5                	mov    %esp,%ebp
    2723:	56                   	push   %esi
    2724:	53                   	push   %ebx
    2725:	83 ec 20             	sub    $0x20,%esp
    2728:	8b 5d 08             	mov    0x8(%ebp),%ebx
    272b:	8b 75 0c             	mov    0xc(%ebp),%esi
    272e:	85 db                	test   %ebx,%ebx
    2730:	0f 84 11 01 00 00    	je     2847 <usbvirt_control_read+0x127>
    2736:	8b 43 08             	mov    0x8(%ebx),%eax
    2739:	85 c0                	test   %eax,%eax
    273b:	0f 84 ea 00 00 00    	je     282b <usbvirt_control_read+0x10b>
    2741:	83 7d 10 08          	cmpl   $0x8,0x10(%ebp)
    2745:	75 41                	jne    2788 <usbvirt_control_read+0x68>
    2747:	66 8b 56 06          	mov    0x6(%esi),%dx
    274b:	81 e2 ff ff 00 00    	and    $0xffff,%edx
    2751:	39 55 18             	cmp    %edx,0x18(%ebp)
    2754:	75 32                	jne    2788 <usbvirt_control_read+0x68>
    2756:	8b 55 1c             	mov    0x1c(%ebp),%edx
    2759:	89 74 24 08          	mov    %esi,0x8(%esp)
    275d:	89 54 24 10          	mov    %edx,0x10(%esp)
    2761:	8b 55 14             	mov    0x14(%ebp),%edx
    2764:	89 54 24 0c          	mov    %edx,0xc(%esp)
    2768:	8b 80 80 00 00 00    	mov    0x80(%eax),%eax
    276e:	89 1c 24             	mov    %ebx,(%esp)
    2771:	89 44 24 04          	mov    %eax,0x4(%esp)
    2775:	e8 c6 01 00 00       	call   2940 <process_control_transfer>
    277a:	83 f8 fb             	cmp    $0xfffffffb,%eax
    277d:	74 19                	je     2798 <usbvirt_control_read+0x78>
    277f:	83 c4 20             	add    $0x20,%esp
    2782:	5b                   	pop    %ebx
    2783:	5e                   	pop    %esi
    2784:	5d                   	pop    %ebp
    2785:	c3                   	ret    
    2786:	66 90                	xchg   %ax,%ax
    2788:	83 c4 20             	add    $0x20,%esp
    278b:	b8 d3 fe ff ff       	mov    $0xfffffed3,%eax
    2790:	5b                   	pop    %ebx
    2791:	5e                   	pop    %esi
    2792:	5d                   	pop    %ebp
    2793:	c3                   	ret    
    2794:	8d 74 26 00          	lea    0x0(%esi,%eiz,1),%esi
    2798:	8b 45 1c             	mov    0x1c(%ebp),%eax
    279b:	8b 55 14             	mov    0x14(%ebp),%edx
    279e:	89 44 24 10          	mov    %eax,0x10(%esp)
    27a2:	89 54 24 0c          	mov    %edx,0xc(%esp)
    27a6:	89 74 24 08          	mov    %esi,0x8(%esp)
    27aa:	c7 44 24 04 a0 4a 02 	movl   $0x24aa0,0x4(%esp)
    27b1:	00 
    27b2:	89 1c 24             	mov    %ebx,(%esp)
    27b5:	e8 86 01 00 00       	call   2940 <process_control_transfer>
    27ba:	83 f8 fb             	cmp    $0xfffffffb,%eax
    27bd:	75 c0                	jne    277f <usbvirt_control_read+0x5f>
    27bf:	bb da 19 02 00       	mov    $0x219da,%ebx
    27c4:	80 3e 00             	cmpb   $0x0,(%esi)
    27c7:	78 1c                	js     27e5 <usbvirt_control_read+0xc5>
    27c9:	8b 45 18             	mov    0x18(%ebp),%eax
    27cc:	8b 55 14             	mov    0x14(%ebp),%edx
    27cf:	c7 44 24 08 0a 00 00 	movl   $0xa,0x8(%esp)
    27d6:	00 
    27d7:	89 44 24 04          	mov    %eax,0x4(%esp)
    27db:	89 14 24             	mov    %edx,(%esp)
    27de:	e8 8d 02 00 00       	call   2a70 <usb_debug_str_buffer>
    27e3:	89 c3                	mov    %eax,%ebx
    27e5:	c7 44 24 08 0a 00 00 	movl   $0xa,0x8(%esp)
    27ec:	00 
    27ed:	c7 44 24 04 08 00 00 	movl   $0x8,0x4(%esp)
    27f4:	00 
    27f5:	89 34 24             	mov    %esi,(%esp)
    27f8:	e8 73 02 00 00       	call   2a70 <usb_debug_str_buffer>
    27fd:	89 5c 24 10          	mov    %ebx,0x10(%esp)
    2801:	89 44 24 0c          	mov    %eax,0xc(%esp)
    2805:	c7 44 24 08 fc 19 02 	movl   $0x219fc,0x8(%esp)
    280c:	00 
    280d:	c7 44 24 04 02 00 00 	movl   $0x2,0x4(%esp)
    2814:	00 
    2815:	c7 04 24 ff ff ff ff 	movl   $0xffffffff,(%esp)
    281c:	e8 2f a9 00 00       	call   d150 <log_msg>
    2821:	b8 d4 fe ff ff       	mov    $0xfffffed4,%eax
    2826:	e9 54 ff ff ff       	jmp    277f <usbvirt_control_read+0x5f>
    282b:	c7 44 24 08 39 00 00 	movl   $0x39,0x8(%esp)
    2832:	00 
    2833:	c7 44 24 04 dd 19 02 	movl   $0x219dd,0x4(%esp)
    283a:	00 
    283b:	c7 04 24 f0 19 02 00 	movl   $0x219f0,(%esp)
    2842:	e8 09 a2 01 00       	call   1ca50 <assert_abort>
    2847:	c7 44 24 08 38 00 00 	movl   $0x38,0x8(%esp)
    284e:	00 
    284f:	c7 44 24 04 dd 19 02 	movl   $0x219dd,0x4(%esp)
    2856:	00 
    2857:	c7 04 24 ec 19 02 00 	movl   $0x219ec,(%esp)
    285e:	e8 ed a1 01 00       	call   1ca50 <assert_abort>
    2863:	8d b6 00 00 00 00    	lea    0x0(%esi),%esi
    2869:	8d bc 27 00 00 00 00 	lea    0x0(%edi,%eiz,1),%edi

00002870 <usbvirt_data_out>:
    2870:	55                   	push   %ebp
    2871:	89 e5                	mov    %esp,%ebp
    2873:	57                   	push   %edi
    2874:	56                   	push   %esi
    2875:	53                   	push   %ebx
    2876:	0f bf 45 10          	movswl 0x10(%ebp),%eax
    287a:	8b 55 08             	mov    0x8(%ebp),%edx
    287d:	8b 5d 0c             	mov    0xc(%ebp),%ebx
    2880:	8d 48 ff             	lea    -0x1(%eax),%ecx
    2883:	66 83 f9 0e          	cmp    $0xe,%cx
    2887:	77 1f                	ja     28a8 <usbvirt_data_out+0x38>
    2889:	8b 4a 08             	mov    0x8(%edx),%ecx
    288c:	85 c9                	test   %ecx,%ecx
    288e:	74 28                	je     28b8 <usbvirt_data_out+0x48>
    2890:	8b 0c 81             	mov    (%ecx,%eax,4),%ecx
    2893:	85 c9                	test   %ecx,%ecx
    2895:	74 21                	je     28b8 <usbvirt_data_out+0x48>
    2897:	89 5d 10             	mov    %ebx,0x10(%ebp)
    289a:	89 45 0c             	mov    %eax,0xc(%ebp)
    289d:	5b                   	pop    %ebx
    289e:	5e                   	pop    %esi
    289f:	5f                   	pop    %edi
    28a0:	5d                   	pop    %ebp
    28a1:	ff e1                	jmp    *%ecx
    28a3:	90                   	nop
    28a4:	8d 74 26 00          	lea    0x0(%esi,%eiz,1),%esi
    28a8:	b8 f9 fe ff ff       	mov    $0xfffffef9,%eax
    28ad:	5b                   	pop    %ebx
    28ae:	5e                   	pop    %esi
    28af:	5f                   	pop    %edi
    28b0:	5d                   	pop    %ebp
    28b1:	c3                   	ret    
    28b2:	8d b6 00 00 00 00    	lea    0x0(%esi),%esi
    28b8:	b8 f5 ff ff ff       	mov    $0xfffffff5,%eax
    28bd:	eb ee                	jmp    28ad <usbvirt_data_out+0x3d>
    28bf:	90                   	nop

000028c0 <usbvirt_data_in>:
    28c0:	55                   	push   %ebp
    28c1:	89 e5                	mov    %esp,%ebp
    28c3:	56                   	push   %esi
    28c4:	53                   	push   %ebx
    28c5:	83 ec 30             	sub    $0x30,%esp
    28c8:	0f bf 45 10          	movswl 0x10(%ebp),%eax
    28cc:	8b 55 08             	mov    0x8(%ebp),%edx
    28cf:	8b 5d 1c             	mov    0x1c(%ebp),%ebx
    28d2:	8d 48 ff             	lea    -0x1(%eax),%ecx
    28d5:	66 83 f9 0e          	cmp    $0xe,%cx
    28d9:	77 4d                	ja     2928 <usbvirt_data_in+0x68>
    28db:	8b 4a 08             	mov    0x8(%edx),%ecx
    28de:	85 c9                	test   %ecx,%ecx
    28e0:	74 4e                	je     2930 <usbvirt_data_in+0x70>
    28e2:	8b 4c 81 40          	mov    0x40(%ecx,%eax,4),%ecx
    28e6:	85 c9                	test   %ecx,%ecx
    28e8:	74 46                	je     2930 <usbvirt_data_in+0x70>
    28ea:	8d 75 f4             	lea    -0xc(%ebp),%esi
    28ed:	89 44 24 04          	mov    %eax,0x4(%esp)
    28f1:	89 74 24 14          	mov    %esi,0x14(%esp)
    28f5:	8b 75 18             	mov    0x18(%ebp),%esi
    28f8:	89 74 24 10          	mov    %esi,0x10(%esp)
    28fc:	8b 75 14             	mov    0x14(%ebp),%esi
    28ff:	89 74 24 0c          	mov    %esi,0xc(%esp)
    2903:	8b 75 0c             	mov    0xc(%ebp),%esi
    2906:	89 74 24 08          	mov    %esi,0x8(%esp)
    290a:	89 14 24             	mov    %edx,(%esp)
    290d:	ff d1                	call   *%ecx
    290f:	85 c0                	test   %eax,%eax
    2911:	75 09                	jne    291c <usbvirt_data_in+0x5c>
    2913:	85 db                	test   %ebx,%ebx
    2915:	74 05                	je     291c <usbvirt_data_in+0x5c>
    2917:	8b 55 f4             	mov    -0xc(%ebp),%edx
    291a:	89 13                	mov    %edx,(%ebx)
    291c:	83 c4 30             	add    $0x30,%esp
    291f:	5b                   	pop    %ebx
    2920:	5e                   	pop    %esi
    2921:	5d                   	pop    %ebp
    2922:	c3                   	ret    
    2923:	90                   	nop
    2924:	8d 74 26 00          	lea    0x0(%esi,%eiz,1),%esi
    2928:	b8 f9 fe ff ff       	mov    $0xfffffef9,%eax
    292d:	eb ed                	jmp    291c <usbvirt_data_in+0x5c>
    292f:	90                   	nop
    2930:	b8 f5 ff ff ff       	mov    $0xfffffff5,%eax
    2935:	eb e5                	jmp    291c <usbvirt_data_in+0x5c>
    2937:	66 90                	xchg   %ax,%ax
    2939:	66 90                	xchg   %ax,%ax
    293b:	66 90                	xchg   %ax,%ax
    293d:	66 90                	xchg   %ax,%ax
    293f:	90                   	nop

00002940 <process_control_transfer>:
    2940:	55                   	push   %ebp
    2941:	89 e5                	mov    %esp,%ebp
    2943:	57                   	push   %edi
    2944:	56                   	push   %esi
    2945:	53                   	push   %ebx
    2946:	83 ec 3c             	sub    $0x3c,%esp
    2949:	8b 45 08             	mov    0x8(%ebp),%eax
    294c:	8b 5d 0c             	mov    0xc(%ebp),%ebx
    294f:	8b 55 10             	mov    0x10(%ebp),%edx
    2952:	85 c0                	test   %eax,%eax
    2954:	0f 84 db 00 00 00    	je     2a35 <process_control_transfer+0xf5>
    295a:	85 d2                	test   %edx,%edx
    295c:	0f 84 ef 00 00 00    	je     2a51 <process_control_transfer+0x111>
    2962:	85 db                	test   %ebx,%ebx
    2964:	0f 84 be 00 00 00    	je     2a28 <process_control_transfer+0xe8>
    296a:	0f be 32             	movsbl (%edx),%esi
    296d:	8a 02                	mov    (%edx),%al
    296f:	8a 0a                	mov    (%edx),%cl
    2971:	83 e0 1f             	and    $0x1f,%eax
    2974:	83 f6 ff             	xor    $0xffffffff,%esi
    2977:	c0 e9 05             	shr    $0x5,%cl
    297a:	89 c7                	mov    %eax,%edi
    297c:	8b 43 14             	mov    0x14(%ebx),%eax
    297f:	83 e1 03             	and    $0x3,%ecx
    2982:	c1 ee 1f             	shr    $0x1f,%esi
    2985:	85 c0                	test   %eax,%eax
    2987:	75 15                	jne    299e <process_control_transfer+0x5e>
    2989:	e9 9a 00 00 00       	jmp    2a28 <process_control_transfer+0xe8>
    298e:	66 90                	xchg   %ax,%ax
    2990:	83 c3 18             	add    $0x18,%ebx
    2993:	8b 43 14             	mov    0x14(%ebx),%eax
    2996:	85 c0                	test   %eax,%eax
    2998:	0f 84 8a 00 00 00    	je     2a28 <process_control_transfer+0xe8>
    299e:	39 33                	cmp    %esi,(%ebx)
    29a0:	75 ee                	jne    2990 <process_control_transfer+0x50>
    29a2:	39 7b 04             	cmp    %edi,0x4(%ebx)
    29a5:	75 e9                	jne    2990 <process_control_transfer+0x50>
    29a7:	39 4b 08             	cmp    %ecx,0x8(%ebx)
    29aa:	75 e4                	jne    2990 <process_control_transfer+0x50>
    29ac:	8a 42 01             	mov    0x1(%edx),%al
    29af:	38 43 0c             	cmp    %al,0xc(%ebx)
    29b2:	75 dc                	jne    2990 <process_control_transfer+0x50>
    29b4:	89 14 24             	mov    %edx,(%esp)
    29b7:	c7 44 24 08 00 00 00 	movl   $0x0,0x8(%esp)
    29be:	00 
    29bf:	c7 44 24 04 08 00 00 	movl   $0x8,0x4(%esp)
    29c6:	00 
    29c7:	89 4d e4             	mov    %ecx,-0x1c(%ebp)
    29ca:	89 55 e0             	mov    %edx,-0x20(%ebp)
    29cd:	e8 9e 00 00 00       	call   2a70 <usb_debug_str_buffer>
    29d2:	89 44 24 10          	mov    %eax,0x10(%esp)
    29d6:	8b 43 10             	mov    0x10(%ebx),%eax
    29d9:	c7 44 24 08 3e 1a 02 	movl   $0x21a3e,0x8(%esp)
    29e0:	00 
    29e1:	89 44 24 0c          	mov    %eax,0xc(%esp)
    29e5:	c7 44 24 04 04 00 00 	movl   $0x4,0x4(%esp)
    29ec:	00 
    29ed:	c7 04 24 ff ff ff ff 	movl   $0xffffffff,(%esp)
    29f4:	e8 57 a7 00 00       	call   d150 <log_msg>
    29f9:	8b 45 18             	mov    0x18(%ebp),%eax
    29fc:	89 44 24 0c          	mov    %eax,0xc(%esp)
    2a00:	8b 45 14             	mov    0x14(%ebp),%eax
    2a03:	8b 55 e0             	mov    -0x20(%ebp),%edx
    2a06:	89 44 24 08          	mov    %eax,0x8(%esp)
    2a0a:	8b 45 08             	mov    0x8(%ebp),%eax
    2a0d:	89 54 24 04          	mov    %edx,0x4(%esp)
    2a11:	89 04 24             	mov    %eax,(%esp)
    2a14:	ff 53 14             	call   *0x14(%ebx)
    2a17:	8b 55 e0             	mov    -0x20(%ebp),%edx
    2a1a:	83 f8 fb             	cmp    $0xfffffffb,%eax
    2a1d:	8b 4d e4             	mov    -0x1c(%ebp),%ecx
    2a20:	0f 84 6a ff ff ff    	je     2990 <process_control_transfer+0x50>
    2a26:	eb 05                	jmp    2a2d <process_control_transfer+0xed>
    2a28:	b8 fb ff ff ff       	mov    $0xfffffffb,%eax
    2a2d:	83 c4 3c             	add    $0x3c,%esp
    2a30:	5b                   	pop    %ebx
    2a31:	5e                   	pop    %esi
    2a32:	5f                   	pop    %edi
    2a33:	5d                   	pop    %ebp
    2a34:	c3                   	ret    
    2a35:	c7 44 24 08 38 00 00 	movl   $0x38,0x8(%esp)
    2a3c:	00 
    2a3d:	c7 44 24 04 25 1a 02 	movl   $0x21a25,0x4(%esp)
    2a44:	00 
    2a45:	c7 04 24 ec 19 02 00 	movl   $0x219ec,(%esp)
    2a4c:	e8 ff 9f 01 00       	call   1ca50 <assert_abort>
    2a51:	c7 44 24 08 39 00 00 	movl   $0x39,0x8(%esp)
    2a58:	00 
    2a59:	c7 44 24 04 25 1a 02 	movl   $0x21a25,0x4(%esp)
    2a60:	00 
    2a61:	c7 04 24 38 1a 02 00 	movl   $0x21a38,(%esp)
    2a68:	e8 e3 9f 01 00       	call   1ca50 <assert_abort>
    2a6d:	66 90                	xchg   %ax,%ax
    2a6f:	90                   	nop

00002a70 <usb_debug_str_buffer>:
    2a70:	55                   	push   %ebp
    2a71:	89 e5                	mov    %esp,%ebp
    2a73:	53                   	push   %ebx
    2a74:	83 ec 24             	sub    $0x24,%esp
    2a77:	65 8b 1d 00 00 00 00 	mov    %gs:0x0,%ebx
    2a7e:	65 a1 d0 fd ff ff    	mov    %gs:0xfffffdd0,%eax
    2a84:	81 c3 d4 fd ff ff    	add    $0xfffffdd4,%ebx
    2a8a:	89 c2                	mov    %eax,%edx
    2a8c:	c7 44 24 08 f0 00 00 	movl   $0xf0,0x8(%esp)
    2a93:	00 
    2a94:	c1 e2 04             	shl    $0x4,%edx
    2a97:	c7 44 24 04 00 00 00 	movl   $0x0,0x4(%esp)
    2a9e:	00 
    2a9f:	c1 e0 08             	shl    $0x8,%eax
    2aa2:	29 d0                	sub    %edx,%eax
    2aa4:	01 d8                	add    %ebx,%eax
    2aa6:	89 04 24             	mov    %eax,(%esp)
    2aa9:	e8 02 22 00 00       	call   4cb0 <memset>
    2aae:	8b 45 10             	mov    0x10(%ebp),%eax
    2ab1:	89 44 24 14          	mov    %eax,0x14(%esp)
    2ab5:	8b 45 0c             	mov    0xc(%ebp),%eax
    2ab8:	89 44 24 10          	mov    %eax,0x10(%esp)
    2abc:	8b 45 08             	mov    0x8(%ebp),%eax
    2abf:	89 44 24 08          	mov    %eax,0x8(%esp)
    2ac3:	65 a1 d0 fd ff ff    	mov    %gs:0xfffffdd0,%eax
    2ac9:	89 c2                	mov    %eax,%edx
    2acb:	c7 44 24 0c 01 00 00 	movl   $0x1,0xc(%esp)
    2ad2:	00 
    2ad3:	c1 e2 04             	shl    $0x4,%edx
    2ad6:	c7 44 24 04 f0 00 00 	movl   $0xf0,0x4(%esp)
    2add:	00 
    2ade:	c1 e0 08             	shl    $0x8,%eax
    2ae1:	29 d0                	sub    %edx,%eax
    2ae3:	01 d8                	add    %ebx,%eax
    2ae5:	89 04 24             	mov    %eax,(%esp)
    2ae8:	e8 33 00 00 00       	call   2b20 <ddf_dump_buffer>
    2aed:	65 a1 d0 fd ff ff    	mov    %gs:0xfffffdd0,%eax
    2af3:	ba 01 00 00 00       	mov    $0x1,%edx
    2af8:	29 c2                	sub    %eax,%edx
    2afa:	65 89 15 d0 fd ff ff 	mov    %edx,%gs:0xfffffdd0
    2b01:	89 c2                	mov    %eax,%edx
    2b03:	c1 e2 04             	shl    $0x4,%edx
    2b06:	83 c4 24             	add    $0x24,%esp
    2b09:	c1 e0 08             	shl    $0x8,%eax
    2b0c:	29 d0                	sub    %edx,%eax
    2b0e:	01 d8                	add    %ebx,%eax
    2b10:	5b                   	pop    %ebx
    2b11:	5d                   	pop    %ebp
    2b12:	c3                   	ret    
    2b13:	66 90                	xchg   %ax,%ax
    2b15:	66 90                	xchg   %ax,%ax
    2b17:	66 90                	xchg   %ax,%ax
    2b19:	66 90                	xchg   %ax,%ax
    2b1b:	66 90                	xchg   %ax,%ax
    2b1d:	66 90                	xchg   %ax,%ax
    2b1f:	90                   	nop

00002b20 <ddf_dump_buffer>:
    2b20:	55                   	push   %ebp
    2b21:	89 e5                	mov    %esp,%ebp
    2b23:	57                   	push   %edi
    2b24:	56                   	push   %esi
    2b25:	53                   	push   %ebx
    2b26:	83 ec 5c             	sub    $0x5c,%esp
    2b29:	8b 45 0c             	mov    0xc(%ebp),%eax
    2b2c:	85 c0                	test   %eax,%eax
    2b2e:	0f 84 8c 01 00 00    	je     2cc0 <ddf_dump_buffer+0x1a0>
    2b34:	8b 7d 08             	mov    0x8(%ebp),%edi
    2b37:	85 ff                	test   %edi,%edi
    2b39:	0f 84 81 01 00 00    	je     2cc0 <ddf_dump_buffer+0x1a0>
    2b3f:	83 7d 0c 02          	cmpl   $0x2,0xc(%ebp)
    2b43:	0f 86 07 02 00 00    	jbe    2d50 <ddf_dump_buffer+0x230>
    2b49:	8b 75 10             	mov    0x10(%ebp),%esi
    2b4c:	85 f6                	test   %esi,%esi
    2b4e:	0f 84 7c 02 00 00    	je     2dd0 <ddf_dump_buffer+0x2b0>
    2b54:	8b 5d 18             	mov    0x18(%ebp),%ebx
    2b57:	85 db                	test   %ebx,%ebx
    2b59:	0f 84 91 01 00 00    	je     2cf0 <ddf_dump_buffer+0x1d0>
    2b5f:	8b 55 1c             	mov    0x1c(%ebp),%edx
    2b62:	8b 45 18             	mov    0x18(%ebp),%eax
    2b65:	89 55 c0             	mov    %edx,-0x40(%ebp)
    2b68:	39 c2                	cmp    %eax,%edx
    2b6a:	0f 87 d8 01 00 00    	ja     2d48 <ddf_dump_buffer+0x228>
    2b70:	8b 55 0c             	mov    0xc(%ebp),%edx
    2b73:	8b 4d c0             	mov    -0x40(%ebp),%ecx
    2b76:	4a                   	dec    %edx
    2b77:	85 c9                	test   %ecx,%ecx
    2b79:	89 55 c4             	mov    %edx,-0x3c(%ebp)
    2b7c:	0f 84 8f 01 00 00    	je     2d11 <ddf_dump_buffer+0x1f1>
    2b82:	8b 55 0c             	mov    0xc(%ebp),%edx
    2b85:	c7 44 24 08 66 2b 02 	movl   $0x22b66,0x8(%esp)
    2b8c:	00 
    2b8d:	89 54 24 04          	mov    %edx,0x4(%esp)
    2b91:	8b 55 08             	mov    0x8(%ebp),%edx
    2b94:	89 14 24             	mov    %edx,(%esp)
    2b97:	e8 54 3c 00 00       	call   67f0 <str_cpy>
    2b9c:	c6 45 bf 00          	movb   $0x0,-0x41(%ebp)
    2ba0:	8b 75 10             	mov    0x10(%ebp),%esi
    2ba3:	31 db                	xor    %ebx,%ebx
    2ba5:	b8 66 2b 02 00       	mov    $0x22b66,%eax
    2baa:	8d 7d c8             	lea    -0x38(%ebp),%edi
    2bad:	e9 95 00 00 00       	jmp    2c47 <ddf_dump_buffer+0x127>
    2bb2:	8d b6 00 00 00 00    	lea    0x0(%esi),%esi
    2bb8:	83 7d 14 04          	cmpl   $0x4,0x14(%ebp)
    2bbc:	0f 84 06 01 00 00    	je     2cc8 <ddf_dump_buffer+0x1a8>
    2bc2:	31 d2                	xor    %edx,%edx
    2bc4:	8a 16                	mov    (%esi),%dl
    2bc6:	89 44 24 0c          	mov    %eax,0xc(%esp)
    2bca:	89 54 24 10          	mov    %edx,0x10(%esp)
    2bce:	c7 44 24 08 76 1a 02 	movl   $0x21a76,0x8(%esp)
    2bd5:	00 
    2bd6:	c7 44 24 04 20 00 00 	movl   $0x20,0x4(%esp)
    2bdd:	00 
    2bde:	89 3c 24             	mov    %edi,(%esp)
    2be1:	e8 2a aa 00 00       	call   d610 <snprintf>
    2be6:	85 c0                	test   %eax,%eax
    2be8:	0f 88 ef 01 00 00    	js     2ddd <ddf_dump_buffer+0x2bd>
    2bee:	3b 45 c4             	cmp    -0x3c(%ebp),%eax
    2bf1:	0f 87 89 00 00 00    	ja     2c80 <ddf_dump_buffer+0x160>
    2bf7:	8b 55 0c             	mov    0xc(%ebp),%edx
    2bfa:	89 7c 24 08          	mov    %edi,0x8(%esp)
    2bfe:	89 54 24 04          	mov    %edx,0x4(%esp)
    2c02:	8b 55 08             	mov    0x8(%ebp),%edx
    2c05:	89 14 24             	mov    %edx,(%esp)
    2c08:	89 45 b8             	mov    %eax,-0x48(%ebp)
    2c0b:	e8 00 40 00 00       	call   6c10 <str_append>
    2c10:	8b 4d c4             	mov    -0x3c(%ebp),%ecx
    2c13:	8b 45 b8             	mov    -0x48(%ebp),%eax
    2c16:	43                   	inc    %ebx
    2c17:	29 c1                	sub    %eax,%ecx
    2c19:	3b 5d c0             	cmp    -0x40(%ebp),%ebx
    2c1c:	89 4d c4             	mov    %ecx,-0x3c(%ebp)
    2c1f:	73 5f                	jae    2c80 <ddf_dump_buffer+0x160>
    2c21:	3b 5d 18             	cmp    0x18(%ebp),%ebx
    2c24:	0f 84 96 00 00 00    	je     2cc0 <ddf_dump_buffer+0x1a0>
    2c2a:	b8 66 2b 02 00       	mov    $0x22b66,%eax
    2c2f:	85 db                	test   %ebx,%ebx
    2c31:	74 0f                	je     2c42 <ddf_dump_buffer+0x122>
    2c33:	b8 27 1b 02 00       	mov    $0x21b27,%eax
    2c38:	f6 c3 03             	test   $0x3,%bl
    2c3b:	74 05                	je     2c42 <ddf_dump_buffer+0x122>
    2c3d:	b8 28 1b 02 00       	mov    $0x21b28,%eax
    2c42:	8b 55 14             	mov    0x14(%ebp),%edx
    2c45:	01 d6                	add    %edx,%esi
    2c47:	83 7d 14 02          	cmpl   $0x2,0x14(%ebp)
    2c4b:	0f 85 67 ff ff ff    	jne    2bb8 <ddf_dump_buffer+0x98>
    2c51:	66 8b 16             	mov    (%esi),%dx
    2c54:	89 44 24 0c          	mov    %eax,0xc(%esp)
    2c58:	81 e2 ff ff 00 00    	and    $0xffff,%edx
    2c5e:	c7 44 24 08 6e 1a 02 	movl   $0x21a6e,0x8(%esp)
    2c65:	00 
    2c66:	89 54 24 10          	mov    %edx,0x10(%esp)
    2c6a:	c7 44 24 04 20 00 00 	movl   $0x20,0x4(%esp)
    2c71:	00 
    2c72:	89 3c 24             	mov    %edi,(%esp)
    2c75:	e8 96 a9 00 00       	call   d610 <snprintf>
    2c7a:	e9 67 ff ff ff       	jmp    2be6 <ddf_dump_buffer+0xc6>
    2c7f:	90                   	nop
    2c80:	3b 5d 18             	cmp    0x18(%ebp),%ebx
    2c83:	73 3b                	jae    2cc0 <ddf_dump_buffer+0x1a0>
    2c85:	80 7d bf 00          	cmpb   $0x0,-0x41(%ebp)
    2c89:	74 35                	je     2cc0 <ddf_dump_buffer+0x1a0>
    2c8b:	8b 55 08             	mov    0x8(%ebp),%edx
    2c8e:	89 14 24             	mov    %edx,(%esp)
    2c91:	e8 aa 2f 00 00       	call   5c40 <str_size>
    2c96:	8b 55 18             	mov    0x18(%ebp),%edx
    2c99:	29 da                	sub    %ebx,%edx
    2c9b:	c7 44 24 08 9d 1a 02 	movl   $0x21a9d,0x8(%esp)
    2ca2:	00 
    2ca3:	89 54 24 0c          	mov    %edx,0xc(%esp)
    2ca7:	8b 55 0c             	mov    0xc(%ebp),%edx
    2caa:	29 c2                	sub    %eax,%edx
    2cac:	89 54 24 04          	mov    %edx,0x4(%esp)
    2cb0:	8b 55 08             	mov    0x8(%ebp),%edx
    2cb3:	01 d0                	add    %edx,%eax
    2cb5:	89 04 24             	mov    %eax,(%esp)
    2cb8:	e8 53 a9 00 00       	call   d610 <snprintf>
    2cbd:	8d 76 00             	lea    0x0(%esi),%esi
    2cc0:	83 c4 5c             	add    $0x5c,%esp
    2cc3:	5b                   	pop    %ebx
    2cc4:	5e                   	pop    %esi
    2cc5:	5f                   	pop    %edi
    2cc6:	5d                   	pop    %ebp
    2cc7:	c3                   	ret    
    2cc8:	8b 16                	mov    (%esi),%edx
    2cca:	89 44 24 0c          	mov    %eax,0xc(%esp)
    2cce:	89 54 24 10          	mov    %edx,0x10(%esp)
    2cd2:	c7 44 24 08 67 1a 02 	movl   $0x21a67,0x8(%esp)
    2cd9:	00 
    2cda:	c7 44 24 04 20 00 00 	movl   $0x20,0x4(%esp)
    2ce1:	00 
    2ce2:	89 3c 24             	mov    %edi,(%esp)
    2ce5:	e8 26 a9 00 00       	call   d610 <snprintf>
    2cea:	e9 f7 fe ff ff       	jmp    2be6 <ddf_dump_buffer+0xc6>
    2cef:	90                   	nop
    2cf0:	8b 55 0c             	mov    0xc(%ebp),%edx
    2cf3:	c7 44 24 08 5f 1a 02 	movl   $0x21a5f,0x8(%esp)
    2cfa:	00 
    2cfb:	89 54 24 04          	mov    %edx,0x4(%esp)
    2cff:	8b 55 08             	mov    0x8(%ebp),%edx
    2d02:	89 14 24             	mov    %edx,(%esp)
    2d05:	e8 e6 3a 00 00       	call   67f0 <str_cpy>
    2d0a:	8b 55 0c             	mov    0xc(%ebp),%edx
    2d0d:	4a                   	dec    %edx
    2d0e:	89 55 c4             	mov    %edx,-0x3c(%ebp)
    2d11:	c6 45 bf 00          	movb   $0x0,-0x41(%ebp)
    2d15:	83 7d c4 0f          	cmpl   $0xf,-0x3c(%ebp)
    2d19:	77 57                	ja     2d72 <ddf_dump_buffer+0x252>
    2d1b:	8b 55 0c             	mov    0xc(%ebp),%edx
    2d1e:	c7 44 24 08 66 2b 02 	movl   $0x22b66,0x8(%esp)
    2d25:	00 
    2d26:	89 54 24 04          	mov    %edx,0x4(%esp)
    2d2a:	8b 55 08             	mov    0x8(%ebp),%edx
    2d2d:	89 14 24             	mov    %edx,(%esp)
    2d30:	e8 bb 3a 00 00       	call   67f0 <str_cpy>
    2d35:	8b 4d 18             	mov    0x18(%ebp),%ecx
    2d38:	85 c9                	test   %ecx,%ecx
    2d3a:	74 84                	je     2cc0 <ddf_dump_buffer+0x1a0>
    2d3c:	8b 55 18             	mov    0x18(%ebp),%edx
    2d3f:	89 55 c0             	mov    %edx,-0x40(%ebp)
    2d42:	e9 59 fe ff ff       	jmp    2ba0 <ddf_dump_buffer+0x80>
    2d47:	90                   	nop
    2d48:	89 45 c0             	mov    %eax,-0x40(%ebp)
    2d4b:	e9 20 fe ff ff       	jmp    2b70 <ddf_dump_buffer+0x50>
    2d50:	c7 44 24 08 a3 1a 02 	movl   $0x21aa3,0x8(%esp)
    2d57:	00 
    2d58:	8b 55 0c             	mov    0xc(%ebp),%edx
    2d5b:	89 54 24 04          	mov    %edx,0x4(%esp)
    2d5f:	8b 55 08             	mov    0x8(%ebp),%edx
    2d62:	89 14 24             	mov    %edx,(%esp)
    2d65:	e8 86 3a 00 00       	call   67f0 <str_cpy>
    2d6a:	83 c4 5c             	add    $0x5c,%esp
    2d6d:	5b                   	pop    %ebx
    2d6e:	5e                   	pop    %esi
    2d6f:	5f                   	pop    %edi
    2d70:	5d                   	pop    %ebp
    2d71:	c3                   	ret    
    2d72:	8b 45 18             	mov    0x18(%ebp),%eax
    2d75:	8b 55 18             	mov    0x18(%ebp),%edx
    2d78:	c1 e8 02             	shr    $0x2,%eax
    2d7b:	c7 04 24 27 1b 02 00 	movl   $0x21b27,(%esp)
    2d82:	29 c2                	sub    %eax,%edx
    2d84:	8b 75 18             	mov    0x18(%ebp),%esi
    2d87:	89 55 c0             	mov    %edx,-0x40(%ebp)
    2d8a:	8d 58 ff             	lea    -0x1(%eax),%ebx
    2d8d:	8b 7d 14             	mov    0x14(%ebp),%edi
    2d90:	e8 ab 2e 00 00       	call   5c40 <str_size>
    2d95:	01 ff                	add    %edi,%edi
    2d97:	c7 04 24 28 1b 02 00 	movl   $0x21b28,(%esp)
    2d9e:	0f af fe             	imul   %esi,%edi
    2da1:	89 c6                	mov    %eax,%esi
    2da3:	e8 98 2e 00 00       	call   5c40 <str_size>
    2da8:	8b 55 c0             	mov    -0x40(%ebp),%edx
    2dab:	0f af f3             	imul   %ebx,%esi
    2dae:	0f af c2             	imul   %edx,%eax
    2db1:	01 f0                	add    %esi,%eax
    2db3:	01 c7                	add    %eax,%edi
    2db5:	39 7d c4             	cmp    %edi,-0x3c(%ebp)
    2db8:	0f 83 5d ff ff ff    	jae    2d1b <ddf_dump_buffer+0x1fb>
    2dbe:	8b 55 0c             	mov    0xc(%ebp),%edx
    2dc1:	c6 45 bf 01          	movb   $0x1,-0x41(%ebp)
    2dc5:	83 ea 11             	sub    $0x11,%edx
    2dc8:	89 55 c4             	mov    %edx,-0x3c(%ebp)
    2dcb:	e9 4b ff ff ff       	jmp    2d1b <ddf_dump_buffer+0x1fb>
    2dd0:	c7 44 24 08 58 1a 02 	movl   $0x21a58,0x8(%esp)
    2dd7:	00 
    2dd8:	e9 7b ff ff ff       	jmp    2d58 <ddf_dump_buffer+0x238>
    2ddd:	c7 44 24 08 b3 00 00 	movl   $0xb3,0x8(%esp)
    2de4:	00 
    2de5:	c7 44 24 04 7f 1a 02 	movl   $0x21a7f,0x4(%esp)
    2dec:	00 
    2ded:	c7 04 24 90 1a 02 00 	movl   $0x21a90,(%esp)
    2df4:	e8 57 9c 01 00       	call   1ca50 <assert_abort>
    2df9:	66 90                	xchg   %ax,%ax
    2dfb:	66 90                	xchg   %ax,%ax
    2dfd:	66 90                	xchg   %ax,%ax
    2dff:	90                   	nop

00002e00 <exit>:
    2e00:	55                   	push   %ebp
    2e01:	89 e5                	mov    %esp,%ebp
    2e03:	83 ec 28             	sub    $0x28,%esp
    2e06:	80 3d 50 4d 02 00 00 	cmpb   $0x0,0x24d50
    2e0d:	75 3f                	jne    2e4e <exit+0x4e>
    2e0f:	c7 44 24 18 0a 00 00 	movl   $0xa,0x18(%esp)
    2e16:	00 
    2e17:	c7 44 24 14 00 00 00 	movl   $0x0,0x14(%esp)
    2e1e:	00 
    2e1f:	c7 44 24 10 00 00 00 	movl   $0x0,0x10(%esp)
    2e26:	00 
    2e27:	c7 44 24 0c 00 00 00 	movl   $0x0,0xc(%esp)
    2e2e:	00 
    2e2f:	c7 44 24 08 00 00 00 	movl   $0x0,0x8(%esp)
    2e36:	00 
    2e37:	c7 44 24 04 00 00 00 	movl   $0x0,0x4(%esp)
    2e3e:	00 
    2e3f:	c7 04 24 00 00 00 00 	movl   $0x0,(%esp)
    2e46:	ff 15 b4 4c 02 00    	call   *0x24cb4
    2e4c:	eb fe                	jmp    2e4c <exit+0x4c>
    2e4e:	e8 ed 7e 00 00       	call   ad40 <__stdio_done>
    2e53:	8b 45 08             	mov    0x8(%ebp),%eax
    2e56:	89 04 24             	mov    %eax,(%esp)
    2e59:	e8 02 7a 00 00       	call   a860 <task_retval>
    2e5e:	65 a1 00 00 00 00    	mov    %gs:0x0,%eax
    2e64:	8b 40 04             	mov    0x4(%eax),%eax
    2e67:	89 04 24             	mov    %eax,(%esp)
    2e6a:	e8 e1 57 00 00       	call   8650 <fibril_teardown>
    2e6f:	eb 9e                	jmp    2e0f <exit+0xf>
    2e71:	eb 0d                	jmp    2e80 <abort>
    2e73:	90                   	nop
    2e74:	90                   	nop
    2e75:	90                   	nop
    2e76:	90                   	nop
    2e77:	90                   	nop
    2e78:	90                   	nop
    2e79:	90                   	nop
    2e7a:	90                   	nop
    2e7b:	90                   	nop
    2e7c:	90                   	nop
    2e7d:	90                   	nop
    2e7e:	90                   	nop
    2e7f:	90                   	nop

00002e80 <abort>:
    2e80:	55                   	push   %ebp
    2e81:	89 e5                	mov    %esp,%ebp
    2e83:	83 ec 28             	sub    $0x28,%esp
    2e86:	c7 44 24 18 0a 00 00 	movl   $0xa,0x18(%esp)
    2e8d:	00 
    2e8e:	c7 44 24 14 00 00 00 	movl   $0x0,0x14(%esp)
    2e95:	00 
    2e96:	c7 44 24 10 00 00 00 	movl   $0x0,0x10(%esp)
    2e9d:	00 
    2e9e:	c7 44 24 0c 00 00 00 	movl   $0x0,0xc(%esp)
    2ea5:	00 
    2ea6:	c7 44 24 08 00 00 00 	movl   $0x0,0x8(%esp)
    2ead:	00 
    2eae:	c7 44 24 04 00 00 00 	movl   $0x0,0x4(%esp)
    2eb5:	00 
    2eb6:	c7 04 24 01 00 00 00 	movl   $0x1,(%esp)
    2ebd:	ff 15 b4 4c 02 00    	call   *0x24cb4
    2ec3:	eb fe                	jmp    2ec3 <abort+0x43>
    2ec5:	8d 74 26 00          	lea    0x0(%esi,%eiz,1),%esi
    2ec9:	8d bc 27 00 00 00 00 	lea    0x0(%edi,%eiz,1),%edi

00002ed0 <__main>:
    2ed0:	55                   	push   %ebp
    2ed1:	89 e5                	mov    %esp,%ebp
    2ed3:	57                   	push   %edi
    2ed4:	56                   	push   %esi
    2ed5:	53                   	push   %ebx
    2ed6:	83 ec 2c             	sub    $0x2c,%esp
    2ed9:	8b 5d 08             	mov    0x8(%ebp),%ebx
    2edc:	e8 0f f2 00 00       	call   120f0 <__malloc_init>
    2ee1:	e8 1a 11 01 00       	call   14000 <__async_init>
    2ee6:	e8 e5 56 00 00       	call   85d0 <fibril_setup>
    2eeb:	85 c0                	test   %eax,%eax
    2eed:	0f 84 82 00 00 00    	je     2f75 <__main+0xa5>
    2ef3:	c7 44 24 18 01 00 00 	movl   $0x1,0x18(%esp)
    2efa:	00 
    2efb:	c7 44 24 14 00 00 00 	movl   $0x0,0x14(%esp)
    2f02:	00 
    2f03:	c7 44 24 10 00 00 00 	movl   $0x0,0x10(%esp)
    2f0a:	00 
    2f0b:	c7 44 24 0c 00 00 00 	movl   $0x0,0xc(%esp)
    2f12:	00 
    2f13:	c7 44 24 08 00 00 00 	movl   $0x0,0x8(%esp)
    2f1a:	00 
    2f1b:	c7 44 24 04 00 00 00 	movl   $0x0,0x4(%esp)
    2f22:	00 
    2f23:	8b 40 30             	mov    0x30(%eax),%eax
    2f26:	89 04 24             	mov    %eax,(%esp)
    2f29:	ff 15 b4 4c 02 00    	call   *0x24cb4
    2f2f:	89 1d 3c 4d 02 00    	mov    %ebx,0x24d3c
    2f35:	c6 05 50 4d 02 00 01 	movb   $0x1,0x24d50
    2f3c:	85 db                	test   %ebx,%ebx
    2f3e:	74 3a                	je     2f7a <__main+0xaa>
    2f40:	8b 43 10             	mov    0x10(%ebx),%eax
    2f43:	8b 73 08             	mov    0x8(%ebx),%esi
    2f46:	8b 7b 0c             	mov    0xc(%ebx),%edi
    2f49:	89 04 24             	mov    %eax,(%esp)
    2f4c:	e8 5f 7b 00 00       	call   aab0 <__stdio_init>
    2f51:	a1 3c 4d 02 00       	mov    0x24d3c,%eax
    2f56:	8b 40 04             	mov    0x4(%eax),%eax
    2f59:	89 04 24             	mov    %eax,(%esp)
    2f5c:	e8 7f 8e 01 00       	call   1bde0 <chdir>
    2f61:	89 7c 24 04          	mov    %edi,0x4(%esp)
    2f65:	89 34 24             	mov    %esi,(%esp)
    2f68:	e8 53 e1 ff ff       	call   10c0 <main>
    2f6d:	89 04 24             	mov    %eax,(%esp)
    2f70:	e8 8b fe ff ff       	call   2e00 <exit>
    2f75:	e8 06 ff ff ff       	call   2e80 <abort>
    2f7a:	c7 04 24 00 00 00 00 	movl   $0x0,(%esp)
    2f81:	31 ff                	xor    %edi,%edi
    2f83:	e8 28 7b 00 00       	call   aab0 <__stdio_init>
    2f88:	31 f6                	xor    %esi,%esi
    2f8a:	eb d5                	jmp    2f61 <__main+0x91>
    2f8c:	66 90                	xchg   %ax,%ax
    2f8e:	66 90                	xchg   %ax,%ax

00002f90 <devman_exchange_begin.part.0>:
    2f90:	55                   	push   %ebp
    2f91:	89 e5                	mov    %esp,%ebp
    2f93:	83 ec 18             	sub    $0x18,%esp
    2f96:	c7 04 24 10 4b 02 00 	movl   $0x24b10,(%esp)
    2f9d:	e8 6e 5f 00 00       	call   8f10 <fibril_mutex_lock>
    2fa2:	a1 54 4d 02 00       	mov    0x24d54,%eax
    2fa7:	85 c0                	test   %eax,%eax
    2fa9:	74 25                	je     2fd0 <devman_exchange_begin.part.0+0x40>
    2fab:	c7 04 24 10 4b 02 00 	movl   $0x24b10,(%esp)
    2fb2:	e8 79 60 00 00       	call   9030 <fibril_mutex_unlock>
    2fb7:	a1 54 4d 02 00       	mov    0x24d54,%eax
    2fbc:	85 c0                	test   %eax,%eax
    2fbe:	74 40                	je     3000 <devman_exchange_begin.part.0+0x70>
    2fc0:	89 04 24             	mov    %eax,(%esp)
    2fc3:	e8 68 27 01 00       	call   15730 <async_exchange_begin>
    2fc8:	c9                   	leave  
    2fc9:	c3                   	ret    
    2fca:	8d b6 00 00 00 00    	lea    0x0(%esi),%esi
    2fd0:	c7 44 24 0c 00 00 00 	movl   $0x0,0xc(%esp)
    2fd7:	00 
    2fd8:	c7 44 24 08 01 00 00 	movl   $0x1,0x8(%esp)
    2fdf:	00 
    2fe0:	c7 44 24 04 64 65 76 	movl   $0x6e766564,0x4(%esp)
    2fe7:	6e 
    2fe8:	c7 04 24 01 00 00 00 	movl   $0x1,(%esp)
    2fef:	e8 0c fa 00 00       	call   12a00 <service_connect>
    2ff4:	a3 54 4d 02 00       	mov    %eax,0x24d54
    2ff9:	eb b0                	jmp    2fab <devman_exchange_begin.part.0+0x1b>
    2ffb:	90                   	nop
    2ffc:	8d 74 26 00          	lea    0x0(%esi,%eiz,1),%esi
    3000:	31 c0                	xor    %eax,%eax
    3002:	c9                   	leave  
    3003:	c3                   	ret    
    3004:	8d b6 00 00 00 00    	lea    0x0(%esi),%esi
    300a:	8d bf 00 00 00 00    	lea    0x0(%edi),%edi

00003010 <devman_exchange_begin_blocking>:
    3010:	55                   	push   %ebp
    3011:	89 e5                	mov    %esp,%ebp
    3013:	53                   	push   %ebx
    3014:	83 ec 14             	sub    $0x14,%esp
    3017:	8b 45 08             	mov    0x8(%ebp),%eax
    301a:	83 f8 01             	cmp    $0x1,%eax
    301d:	74 11                	je     3030 <devman_exchange_begin_blocking+0x20>
    301f:	83 f8 02             	cmp    $0x2,%eax
    3022:	0f 84 b0 00 00 00    	je     30d8 <devman_exchange_begin_blocking+0xc8>
    3028:	83 c4 14             	add    $0x14,%esp
    302b:	31 c0                	xor    %eax,%eax
    302d:	5b                   	pop    %ebx
    302e:	5d                   	pop    %ebp
    302f:	c3                   	ret    
    3030:	c7 04 24 00 4b 02 00 	movl   $0x24b00,(%esp)
    3037:	e8 d4 5e 00 00       	call   8f10 <fibril_mutex_lock>
    303c:	a1 58 4d 02 00       	mov    0x24d58,%eax
    3041:	85 c0                	test   %eax,%eax
    3043:	75 34                	jne    3079 <devman_exchange_begin_blocking+0x69>
    3045:	c7 04 24 10 4b 02 00 	movl   $0x24b10,(%esp)
    304c:	8b 1d 54 4d 02 00    	mov    0x24d54,%ebx
    3052:	e8 b9 5e 00 00       	call   8f10 <fibril_mutex_lock>
    3057:	a1 58 4d 02 00       	mov    0x24d58,%eax
    305c:	85 c0                	test   %eax,%eax
    305e:	74 68                	je     30c8 <devman_exchange_begin_blocking+0xb8>
    3060:	c7 04 24 10 4b 02 00 	movl   $0x24b10,(%esp)
    3067:	e8 c4 5f 00 00       	call   9030 <fibril_mutex_unlock>
    306c:	a1 58 4d 02 00       	mov    0x24d58,%eax
    3071:	85 c0                	test   %eax,%eax
    3073:	0f 84 07 01 00 00    	je     3180 <devman_exchange_begin_blocking+0x170>
    3079:	c7 04 24 00 4b 02 00 	movl   $0x24b00,(%esp)
    3080:	e8 ab 5f 00 00       	call   9030 <fibril_mutex_unlock>
    3085:	c7 04 24 10 4b 02 00 	movl   $0x24b10,(%esp)
    308c:	8b 1d 58 4d 02 00    	mov    0x24d58,%ebx
    3092:	e8 79 5e 00 00       	call   8f10 <fibril_mutex_lock>
    3097:	a1 54 4d 02 00       	mov    0x24d54,%eax
    309c:	85 c0                	test   %eax,%eax
    309e:	0f 84 3c 01 00 00    	je     31e0 <devman_exchange_begin_blocking+0x1d0>
    30a4:	c7 04 24 10 4b 02 00 	movl   $0x24b10,(%esp)
    30ab:	e8 80 5f 00 00       	call   9030 <fibril_mutex_unlock>
    30b0:	a1 58 4d 02 00       	mov    0x24d58,%eax
    30b5:	89 45 08             	mov    %eax,0x8(%ebp)
    30b8:	83 c4 14             	add    $0x14,%esp
    30bb:	5b                   	pop    %ebx
    30bc:	5d                   	pop    %ebp
    30bd:	e9 6e 26 01 00       	jmp    15730 <async_exchange_begin>
    30c2:	8d b6 00 00 00 00    	lea    0x0(%esi),%esi
    30c8:	85 db                	test   %ebx,%ebx
    30ca:	74 94                	je     3060 <devman_exchange_begin_blocking+0x50>
    30cc:	89 1d 58 4d 02 00    	mov    %ebx,0x24d58
    30d2:	eb 8c                	jmp    3060 <devman_exchange_begin_blocking+0x50>
    30d4:	8d 74 26 00          	lea    0x0(%esi,%eiz,1),%esi
    30d8:	c7 04 24 20 4b 02 00 	movl   $0x24b20,(%esp)
    30df:	e8 2c 5e 00 00       	call   8f10 <fibril_mutex_lock>
    30e4:	a1 60 4d 02 00       	mov    0x24d60,%eax
    30e9:	85 c0                	test   %eax,%eax
    30eb:	75 35                	jne    3122 <devman_exchange_begin_blocking+0x112>
    30ed:	c7 04 24 30 4b 02 00 	movl   $0x24b30,(%esp)
    30f4:	8b 1d 5c 4d 02 00    	mov    0x24d5c,%ebx
    30fa:	e8 11 5e 00 00       	call   8f10 <fibril_mutex_lock>
    30ff:	a1 60 4d 02 00       	mov    0x24d60,%eax
    3104:	85 c0                	test   %eax,%eax
    3106:	74 68                	je     3170 <devman_exchange_begin_blocking+0x160>
    3108:	c7 04 24 30 4b 02 00 	movl   $0x24b30,(%esp)
    310f:	e8 1c 5f 00 00       	call   9030 <fibril_mutex_unlock>
    3114:	8b 0d 60 4d 02 00    	mov    0x24d60,%ecx
    311a:	85 c9                	test   %ecx,%ecx
    311c:	0f 84 8e 00 00 00    	je     31b0 <devman_exchange_begin_blocking+0x1a0>
    3122:	c7 04 24 20 4b 02 00 	movl   $0x24b20,(%esp)
    3129:	e8 02 5f 00 00       	call   9030 <fibril_mutex_unlock>
    312e:	c7 04 24 30 4b 02 00 	movl   $0x24b30,(%esp)
    3135:	8b 1d 60 4d 02 00    	mov    0x24d60,%ebx
    313b:	e8 d0 5d 00 00       	call   8f10 <fibril_mutex_lock>
    3140:	8b 15 5c 4d 02 00    	mov    0x24d5c,%edx
    3146:	85 d2                	test   %edx,%edx
    3148:	0f 84 aa 00 00 00    	je     31f8 <devman_exchange_begin_blocking+0x1e8>
    314e:	c7 04 24 30 4b 02 00 	movl   $0x24b30,(%esp)
    3155:	e8 d6 5e 00 00       	call   9030 <fibril_mutex_unlock>
    315a:	a1 60 4d 02 00       	mov    0x24d60,%eax
    315f:	89 45 08             	mov    %eax,0x8(%ebp)
    3162:	83 c4 14             	add    $0x14,%esp
    3165:	5b                   	pop    %ebx
    3166:	5d                   	pop    %ebp
    3167:	e9 c4 25 01 00       	jmp    15730 <async_exchange_begin>
    316c:	8d 74 26 00          	lea    0x0(%esi,%eiz,1),%esi
    3170:	85 db                	test   %ebx,%ebx
    3172:	74 94                	je     3108 <devman_exchange_begin_blocking+0xf8>
    3174:	89 1d 60 4d 02 00    	mov    %ebx,0x24d60
    317a:	eb 8c                	jmp    3108 <devman_exchange_begin_blocking+0xf8>
    317c:	8d 74 26 00          	lea    0x0(%esi,%eiz,1),%esi
    3180:	c7 44 24 0c 00 00 00 	movl   $0x0,0xc(%esp)
    3187:	00 
    3188:	c7 44 24 08 01 00 00 	movl   $0x1,0x8(%esp)
    318f:	00 
    3190:	c7 44 24 04 64 65 76 	movl   $0x6e766564,0x4(%esp)
    3197:	6e 
    3198:	c7 04 24 01 00 00 00 	movl   $0x1,(%esp)
    319f:	e8 dc f8 00 00       	call   12a80 <service_connect_blocking>
    31a4:	a3 58 4d 02 00       	mov    %eax,0x24d58
    31a9:	e9 93 fe ff ff       	jmp    3041 <devman_exchange_begin_blocking+0x31>
    31ae:	66 90                	xchg   %ax,%ax
    31b0:	c7 44 24 0c 00 00 00 	movl   $0x0,0xc(%esp)
    31b7:	00 
    31b8:	c7 44 24 08 02 00 00 	movl   $0x2,0x8(%esp)
    31bf:	00 
    31c0:	c7 44 24 04 64 65 76 	movl   $0x6e766564,0x4(%esp)
    31c7:	6e 
    31c8:	c7 04 24 02 00 00 00 	movl   $0x2,(%esp)
    31cf:	e8 ac f8 00 00       	call   12a80 <service_connect_blocking>
    31d4:	a3 60 4d 02 00       	mov    %eax,0x24d60
    31d9:	e9 0b ff ff ff       	jmp    30e9 <devman_exchange_begin_blocking+0xd9>
    31de:	66 90                	xchg   %ax,%ax
    31e0:	85 db                	test   %ebx,%ebx
    31e2:	0f 84 bc fe ff ff    	je     30a4 <devman_exchange_begin_blocking+0x94>
    31e8:	89 1d 54 4d 02 00    	mov    %ebx,0x24d54
    31ee:	e9 b1 fe ff ff       	jmp    30a4 <devman_exchange_begin_blocking+0x94>
    31f3:	90                   	nop
    31f4:	8d 74 26 00          	lea    0x0(%esi,%eiz,1),%esi
    31f8:	85 db                	test   %ebx,%ebx
    31fa:	0f 84 4e ff ff ff    	je     314e <devman_exchange_begin_blocking+0x13e>
    3200:	89 1d 5c 4d 02 00    	mov    %ebx,0x24d5c
    3206:	e9 43 ff ff ff       	jmp    314e <devman_exchange_begin_blocking+0x13e>
    320b:	90                   	nop
    320c:	8d 74 26 00          	lea    0x0(%esi,%eiz,1),%esi

00003210 <devman_exchange_begin>:
    3210:	55                   	push   %ebp
    3211:	89 e5                	mov    %esp,%ebp
    3213:	83 ec 18             	sub    $0x18,%esp
    3216:	8b 45 08             	mov    0x8(%ebp),%eax
    3219:	83 f8 01             	cmp    $0x1,%eax
    321c:	74 0a                	je     3228 <devman_exchange_begin+0x18>
    321e:	83 f8 02             	cmp    $0x2,%eax
    3221:	74 3d                	je     3260 <devman_exchange_begin+0x50>
    3223:	31 c0                	xor    %eax,%eax
    3225:	c9                   	leave  
    3226:	c3                   	ret    
    3227:	90                   	nop
    3228:	c7 04 24 10 4b 02 00 	movl   $0x24b10,(%esp)
    322f:	e8 dc 5c 00 00       	call   8f10 <fibril_mutex_lock>
    3234:	a1 54 4d 02 00       	mov    0x24d54,%eax
    3239:	85 c0                	test   %eax,%eax
    323b:	74 5b                	je     3298 <devman_exchange_begin+0x88>
    323d:	c7 04 24 10 4b 02 00 	movl   $0x24b10,(%esp)
    3244:	e8 e7 5d 00 00       	call   9030 <fibril_mutex_unlock>
    3249:	a1 54 4d 02 00       	mov    0x24d54,%eax
    324e:	85 c0                	test   %eax,%eax
    3250:	74 d1                	je     3223 <devman_exchange_begin+0x13>
    3252:	89 45 08             	mov    %eax,0x8(%ebp)
    3255:	c9                   	leave  
    3256:	e9 d5 24 01 00       	jmp    15730 <async_exchange_begin>
    325b:	90                   	nop
    325c:	8d 74 26 00          	lea    0x0(%esi,%eiz,1),%esi
    3260:	c7 04 24 30 4b 02 00 	movl   $0x24b30,(%esp)
    3267:	e8 a4 5c 00 00       	call   8f10 <fibril_mutex_lock>
    326c:	a1 5c 4d 02 00       	mov    0x24d5c,%eax
    3271:	85 c0                	test   %eax,%eax
    3273:	74 53                	je     32c8 <devman_exchange_begin+0xb8>
    3275:	c7 04 24 30 4b 02 00 	movl   $0x24b30,(%esp)
    327c:	e8 af 5d 00 00       	call   9030 <fibril_mutex_unlock>
    3281:	a1 5c 4d 02 00       	mov    0x24d5c,%eax
    3286:	85 c0                	test   %eax,%eax
    3288:	74 99                	je     3223 <devman_exchange_begin+0x13>
    328a:	89 45 08             	mov    %eax,0x8(%ebp)
    328d:	c9                   	leave  
    328e:	e9 9d 24 01 00       	jmp    15730 <async_exchange_begin>
    3293:	90                   	nop
    3294:	8d 74 26 00          	lea    0x0(%esi,%eiz,1),%esi
    3298:	c7 44 24 0c 00 00 00 	movl   $0x0,0xc(%esp)
    329f:	00 
    32a0:	c7 44 24 08 01 00 00 	movl   $0x1,0x8(%esp)
    32a7:	00 
    32a8:	c7 44 24 04 64 65 76 	movl   $0x6e766564,0x4(%esp)
    32af:	6e 
    32b0:	c7 04 24 01 00 00 00 	movl   $0x1,(%esp)
    32b7:	e8 44 f7 00 00       	call   12a00 <service_connect>
    32bc:	a3 54 4d 02 00       	mov    %eax,0x24d54
    32c1:	e9 77 ff ff ff       	jmp    323d <devman_exchange_begin+0x2d>
    32c6:	66 90                	xchg   %ax,%ax
    32c8:	c7 44 24 0c 00 00 00 	movl   $0x0,0xc(%esp)
    32cf:	00 
    32d0:	c7 44 24 08 02 00 00 	movl   $0x2,0x8(%esp)
    32d7:	00 
    32d8:	c7 44 24 04 64 65 76 	movl   $0x6e766564,0x4(%esp)
    32df:	6e 
    32e0:	c7 04 24 02 00 00 00 	movl   $0x2,(%esp)
    32e7:	e8 14 f7 00 00       	call   12a00 <service_connect>
    32ec:	a3 5c 4d 02 00       	mov    %eax,0x24d5c
    32f1:	eb 82                	jmp    3275 <devman_exchange_begin+0x65>
    32f3:	8d b6 00 00 00 00    	lea    0x0(%esi),%esi
    32f9:	8d bc 27 00 00 00 00 	lea    0x0(%edi,%eiz,1),%edi

00003300 <devman_exchange_end>:
    3300:	55                   	push   %ebp
    3301:	89 e5                	mov    %esp,%ebp
    3303:	5d                   	pop    %ebp
    3304:	e9 97 27 01 00       	jmp    15aa0 <async_exchange_end>
    3309:	8d b4 26 00 00 00 00 	lea    0x0(%esi,%eiz,1),%esi

00003310 <devman_driver_register>:
    3310:	55                   	push   %ebp
    3311:	89 e5                	mov    %esp,%ebp
    3313:	57                   	push   %edi
    3314:	56                   	push   %esi
    3315:	53                   	push   %ebx
    3316:	83 ec 5c             	sub    $0x5c,%esp
    3319:	8b 75 08             	mov    0x8(%ebp),%esi
    331c:	c7 04 24 00 4b 02 00 	movl   $0x24b00,(%esp)
    3323:	e8 e8 5b 00 00       	call   8f10 <fibril_mutex_lock>
    3328:	a1 58 4d 02 00       	mov    0x24d58,%eax
    332d:	85 c0                	test   %eax,%eax
    332f:	75 38                	jne    3369 <devman_driver_register+0x59>
    3331:	c7 04 24 10 4b 02 00 	movl   $0x24b10,(%esp)
    3338:	8b 1d 54 4d 02 00    	mov    0x24d54,%ebx
    333e:	e8 cd 5b 00 00       	call   8f10 <fibril_mutex_lock>
    3343:	a1 58 4d 02 00       	mov    0x24d58,%eax
    3348:	85 c0                	test   %eax,%eax
    334a:	0f 84 58 01 00 00    	je     34a8 <devman_driver_register+0x198>
    3350:	c7 04 24 10 4b 02 00 	movl   $0x24b10,(%esp)
    3357:	e8 d4 5c 00 00       	call   9030 <fibril_mutex_unlock>
    335c:	a1 58 4d 02 00       	mov    0x24d58,%eax
    3361:	85 c0                	test   %eax,%eax
    3363:	0f 84 57 01 00 00    	je     34c0 <devman_driver_register+0x1b0>
    3369:	c7 04 24 00 4b 02 00 	movl   $0x24b00,(%esp)
    3370:	e8 bb 5c 00 00       	call   9030 <fibril_mutex_unlock>
    3375:	c7 04 24 10 4b 02 00 	movl   $0x24b10,(%esp)
    337c:	8b 1d 58 4d 02 00    	mov    0x24d58,%ebx
    3382:	e8 89 5b 00 00       	call   8f10 <fibril_mutex_lock>
    3387:	8b 3d 54 4d 02 00    	mov    0x24d54,%edi
    338d:	85 ff                	test   %edi,%edi
    338f:	0f 84 73 01 00 00    	je     3508 <devman_driver_register+0x1f8>
    3395:	c7 04 24 10 4b 02 00 	movl   $0x24b10,(%esp)
    339c:	e8 8f 5c 00 00       	call   9030 <fibril_mutex_unlock>
    33a1:	a1 58 4d 02 00       	mov    0x24d58,%eax
    33a6:	89 04 24             	mov    %eax,(%esp)
    33a9:	e8 82 23 01 00       	call   15730 <async_exchange_begin>
    33ae:	c7 44 24 14 00 00 00 	movl   $0x0,0x14(%esp)
    33b5:	00 
    33b6:	89 c3                	mov    %eax,%ebx
    33b8:	8d 45 c4             	lea    -0x3c(%ebp),%eax
    33bb:	89 44 24 18          	mov    %eax,0x18(%esp)
    33bf:	c7 44 24 10 00 00 00 	movl   $0x0,0x10(%esp)
    33c6:	00 
    33c7:	c7 44 24 0c 00 00 00 	movl   $0x0,0xc(%esp)
    33ce:	00 
    33cf:	c7 44 24 08 00 00 00 	movl   $0x0,0x8(%esp)
    33d6:	00 
    33d7:	c7 44 24 04 00 04 00 	movl   $0x400,0x4(%esp)
    33de:	00 
    33df:	89 1c 24             	mov    %ebx,(%esp)
    33e2:	e8 e9 0c 01 00       	call   140d0 <async_send_fast>
    33e7:	89 34 24             	mov    %esi,(%esp)
    33ea:	89 c7                	mov    %eax,%edi
    33ec:	e8 4f 28 00 00       	call   5c40 <str_size>
    33f1:	89 74 24 04          	mov    %esi,0x4(%esp)
    33f5:	89 44 24 08          	mov    %eax,0x8(%esp)
    33f9:	89 1c 24             	mov    %ebx,(%esp)
    33fc:	e8 1f 32 01 00       	call   16620 <async_data_write_start>
    3401:	89 1c 24             	mov    %ebx,(%esp)
    3404:	89 45 c0             	mov    %eax,-0x40(%ebp)
    3407:	e8 94 26 01 00       	call   15aa0 <async_exchange_end>
    340c:	8b 4d c0             	mov    -0x40(%ebp),%ecx
    340f:	85 c9                	test   %ecx,%ecx
    3411:	0f 85 d9 00 00 00    	jne    34f0 <devman_driver_register+0x1e0>
    3417:	c7 04 24 10 4b 02 00 	movl   $0x24b10,(%esp)
    341e:	e8 ed 5a 00 00       	call   8f10 <fibril_mutex_lock>
    3423:	8b 15 54 4d 02 00    	mov    0x24d54,%edx
    3429:	85 d2                	test   %edx,%edx
    342b:	0f 84 ea 00 00 00    	je     351b <devman_driver_register+0x20b>
    3431:	c7 04 24 10 4b 02 00 	movl   $0x24b10,(%esp)
    3438:	e8 f3 5b 00 00       	call   9030 <fibril_mutex_unlock>
    343d:	a1 54 4d 02 00       	mov    0x24d54,%eax
    3442:	85 c0                	test   %eax,%eax
    3444:	0f 84 ff 00 00 00    	je     3549 <devman_driver_register+0x239>
    344a:	89 04 24             	mov    %eax,(%esp)
    344d:	e8 de 22 01 00       	call   15730 <async_exchange_begin>
    3452:	89 c3                	mov    %eax,%ebx
    3454:	89 1c 24             	mov    %ebx,(%esp)
    3457:	c7 44 24 14 00 00 00 	movl   $0x0,0x14(%esp)
    345e:	00 
    345f:	c7 44 24 10 00 00 00 	movl   $0x0,0x10(%esp)
    3466:	00 
    3467:	c7 44 24 0c 00 00 00 	movl   $0x0,0xc(%esp)
    346e:	00 
    346f:	c7 44 24 08 00 00 00 	movl   $0x0,0x8(%esp)
    3476:	00 
    3477:	c7 44 24 04 00 00 00 	movl   $0x0,0x4(%esp)
    347e:	00 
    347f:	e8 4c 1a 01 00       	call   14ed0 <async_connect_to_me>
    3484:	89 1c 24             	mov    %ebx,(%esp)
    3487:	e8 14 26 01 00       	call   15aa0 <async_exchange_end>
    348c:	8d 45 c0             	lea    -0x40(%ebp),%eax
    348f:	89 44 24 04          	mov    %eax,0x4(%esp)
    3493:	89 3c 24             	mov    %edi,(%esp)
    3496:	e8 05 0e 01 00       	call   142a0 <async_wait_for>
    349b:	8b 45 c0             	mov    -0x40(%ebp),%eax
    349e:	83 c4 5c             	add    $0x5c,%esp
    34a1:	5b                   	pop    %ebx
    34a2:	5e                   	pop    %esi
    34a3:	5f                   	pop    %edi
    34a4:	5d                   	pop    %ebp
    34a5:	c3                   	ret    
    34a6:	66 90                	xchg   %ax,%ax
    34a8:	85 db                	test   %ebx,%ebx
    34aa:	0f 84 a0 fe ff ff    	je     3350 <devman_driver_register+0x40>
    34b0:	89 1d 58 4d 02 00    	mov    %ebx,0x24d58
    34b6:	e9 95 fe ff ff       	jmp    3350 <devman_driver_register+0x40>
    34bb:	90                   	nop
    34bc:	8d 74 26 00          	lea    0x0(%esi,%eiz,1),%esi
    34c0:	c7 44 24 0c 00 00 00 	movl   $0x0,0xc(%esp)
    34c7:	00 
    34c8:	c7 44 24 08 01 00 00 	movl   $0x1,0x8(%esp)
    34cf:	00 
    34d0:	c7 44 24 04 64 65 76 	movl   $0x6e766564,0x4(%esp)
    34d7:	6e 
    34d8:	c7 04 24 01 00 00 00 	movl   $0x1,(%esp)
    34df:	e8 9c f5 00 00       	call   12a80 <service_connect_blocking>
    34e4:	a3 58 4d 02 00       	mov    %eax,0x24d58
    34e9:	e9 3f fe ff ff       	jmp    332d <devman_driver_register+0x1d>
    34ee:	66 90                	xchg   %ax,%ax
    34f0:	89 3c 24             	mov    %edi,(%esp)
    34f3:	e8 f8 0f 01 00       	call   144f0 <async_forget>
    34f8:	8b 45 c0             	mov    -0x40(%ebp),%eax
    34fb:	83 c4 5c             	add    $0x5c,%esp
    34fe:	5b                   	pop    %ebx
    34ff:	5e                   	pop    %esi
    3500:	5f                   	pop    %edi
    3501:	5d                   	pop    %ebp
    3502:	c3                   	ret    
    3503:	90                   	nop
    3504:	8d 74 26 00          	lea    0x0(%esi,%eiz,1),%esi
    3508:	85 db                	test   %ebx,%ebx
    350a:	0f 84 85 fe ff ff    	je     3395 <devman_driver_register+0x85>
    3510:	89 1d 54 4d 02 00    	mov    %ebx,0x24d54
    3516:	e9 7a fe ff ff       	jmp    3395 <devman_driver_register+0x85>
    351b:	c7 44 24 0c 00 00 00 	movl   $0x0,0xc(%esp)
    3522:	00 
    3523:	c7 44 24 08 01 00 00 	movl   $0x1,0x8(%esp)
    352a:	00 
    352b:	c7 44 24 04 64 65 76 	movl   $0x6e766564,0x4(%esp)
    3532:	6e 
    3533:	c7 04 24 01 00 00 00 	movl   $0x1,(%esp)
    353a:	e8 c1 f4 00 00       	call   12a00 <service_connect>
    353f:	a3 54 4d 02 00       	mov    %eax,0x24d54
    3544:	e9 e8 fe ff ff       	jmp    3431 <devman_driver_register+0x121>
    3549:	31 db                	xor    %ebx,%ebx
    354b:	e9 04 ff ff ff       	jmp    3454 <devman_driver_register+0x144>

00003550 <devman_add_function>:
    3550:	55                   	push   %ebp
    3551:	89 e5                	mov    %esp,%ebp
    3553:	57                   	push   %edi
    3554:	56                   	push   %esi
    3555:	53                   	push   %ebx
    3556:	81 ec 8c 00 00 00    	sub    $0x8c,%esp
    355c:	8b 55 10             	mov    0x10(%ebp),%edx
    355f:	8b 75 08             	mov    0x8(%ebp),%esi
    3562:	89 14 24             	mov    %edx,(%esp)
    3565:	e8 06 48 01 00       	call   17d70 <list_count>
    356a:	c7 04 24 00 4b 02 00 	movl   $0x24b00,(%esp)
    3571:	89 c7                	mov    %eax,%edi
    3573:	e8 98 59 00 00       	call   8f10 <fibril_mutex_lock>
    3578:	a1 58 4d 02 00       	mov    0x24d58,%eax
    357d:	85 c0                	test   %eax,%eax
    357f:	75 38                	jne    35b9 <devman_add_function+0x69>
    3581:	c7 04 24 10 4b 02 00 	movl   $0x24b10,(%esp)
    3588:	8b 1d 54 4d 02 00    	mov    0x24d54,%ebx
    358e:	e8 7d 59 00 00       	call   8f10 <fibril_mutex_lock>
    3593:	a1 58 4d 02 00       	mov    0x24d58,%eax
    3598:	85 c0                	test   %eax,%eax
    359a:	0f 84 80 01 00 00    	je     3720 <devman_add_function+0x1d0>
    35a0:	c7 04 24 10 4b 02 00 	movl   $0x24b10,(%esp)
    35a7:	e8 84 5a 00 00       	call   9030 <fibril_mutex_unlock>
    35ac:	a1 58 4d 02 00       	mov    0x24d58,%eax
    35b1:	85 c0                	test   %eax,%eax
    35b3:	0f 84 7f 01 00 00    	je     3738 <devman_add_function+0x1e8>
    35b9:	c7 04 24 00 4b 02 00 	movl   $0x24b00,(%esp)
    35c0:	e8 6b 5a 00 00       	call   9030 <fibril_mutex_unlock>
    35c5:	c7 04 24 10 4b 02 00 	movl   $0x24b10,(%esp)
    35cc:	8b 1d 58 4d 02 00    	mov    0x24d58,%ebx
    35d2:	e8 39 59 00 00       	call   8f10 <fibril_mutex_lock>
    35d7:	a1 54 4d 02 00       	mov    0x24d54,%eax
    35dc:	85 c0                	test   %eax,%eax
    35de:	0f 84 ec 01 00 00    	je     37d0 <devman_add_function+0x280>
    35e4:	c7 04 24 10 4b 02 00 	movl   $0x24b10,(%esp)
    35eb:	e8 40 5a 00 00       	call   9030 <fibril_mutex_unlock>
    35f0:	a1 58 4d 02 00       	mov    0x24d58,%eax
    35f5:	89 04 24             	mov    %eax,(%esp)
    35f8:	e8 33 21 01 00       	call   15730 <async_exchange_begin>
    35fd:	c7 44 24 14 00 00 00 	movl   $0x0,0x14(%esp)
    3604:	00 
    3605:	89 c3                	mov    %eax,%ebx
    3607:	8d 45 a0             	lea    -0x60(%ebp),%eax
    360a:	89 44 24 18          	mov    %eax,0x18(%esp)
    360e:	8b 45 14             	mov    0x14(%ebp),%eax
    3611:	89 44 24 0c          	mov    %eax,0xc(%esp)
    3615:	8b 45 0c             	mov    0xc(%ebp),%eax
    3618:	89 7c 24 10          	mov    %edi,0x10(%esp)
    361c:	89 44 24 08          	mov    %eax,0x8(%esp)
    3620:	c7 44 24 04 01 04 00 	movl   $0x401,0x4(%esp)
    3627:	00 
    3628:	89 1c 24             	mov    %ebx,(%esp)
    362b:	e8 a0 0a 01 00       	call   140d0 <async_send_fast>
    3630:	89 34 24             	mov    %esi,(%esp)
    3633:	89 45 90             	mov    %eax,-0x70(%ebp)
    3636:	e8 05 26 00 00       	call   5c40 <str_size>
    363b:	89 74 24 04          	mov    %esi,0x4(%esp)
    363f:	89 44 24 08          	mov    %eax,0x8(%esp)
    3643:	89 1c 24             	mov    %ebx,(%esp)
    3646:	e8 d5 2f 01 00       	call   16620 <async_data_write_start>
    364b:	89 45 9c             	mov    %eax,-0x64(%ebp)
    364e:	85 c0                	test   %eax,%eax
    3650:	0f 85 12 01 00 00    	jne    3768 <devman_add_function+0x218>
    3656:	8b 55 10             	mov    0x10(%ebp),%edx
    3659:	8b 7a 04             	mov    0x4(%edx),%edi
    365c:	39 d7                	cmp    %edx,%edi
    365e:	75 31                	jne    3691 <devman_add_function+0x141>
    3660:	e9 24 01 00 00       	jmp    3789 <devman_add_function+0x239>
    3665:	8d 76 00             	lea    0x0(%esi),%esi
    3668:	8d 55 9c             	lea    -0x64(%ebp),%edx
    366b:	89 34 24             	mov    %esi,(%esp)
    366e:	89 54 24 04          	mov    %edx,0x4(%esp)
    3672:	89 55 94             	mov    %edx,-0x6c(%ebp)
    3675:	e8 26 0c 01 00       	call   142a0 <async_wait_for>
    367a:	8b 75 9c             	mov    -0x64(%ebp),%esi
    367d:	85 f6                	test   %esi,%esi
    367f:	0f 85 e3 00 00 00    	jne    3768 <devman_add_function+0x218>
    3685:	8b 7f 04             	mov    0x4(%edi),%edi
    3688:	3b 7d 10             	cmp    0x10(%ebp),%edi
    368b:	0f 84 ff 00 00 00    	je     3790 <devman_add_function+0x240>
    3691:	8d 45 c4             	lea    -0x3c(%ebp),%eax
    3694:	c7 44 24 14 00 00 00 	movl   $0x0,0x14(%esp)
    369b:	00 
    369c:	89 44 24 18          	mov    %eax,0x18(%esp)
    36a0:	c7 44 24 10 00 00 00 	movl   $0x0,0x10(%esp)
    36a7:	00 
    36a8:	c7 44 24 0c 00 00 00 	movl   $0x0,0xc(%esp)
    36af:	00 
    36b0:	8b 47 0c             	mov    0xc(%edi),%eax
    36b3:	c7 44 24 04 02 04 00 	movl   $0x402,0x4(%esp)
    36ba:	00 
    36bb:	89 44 24 08          	mov    %eax,0x8(%esp)
    36bf:	89 1c 24             	mov    %ebx,(%esp)
    36c2:	e8 09 0a 01 00       	call   140d0 <async_send_fast>
    36c7:	89 c6                	mov    %eax,%esi
    36c9:	8b 47 08             	mov    0x8(%edi),%eax
    36cc:	89 04 24             	mov    %eax,(%esp)
    36cf:	e8 6c 25 00 00       	call   5c40 <str_size>
    36d4:	89 44 24 08          	mov    %eax,0x8(%esp)
    36d8:	8b 47 08             	mov    0x8(%edi),%eax
    36db:	89 1c 24             	mov    %ebx,(%esp)
    36de:	89 44 24 04          	mov    %eax,0x4(%esp)
    36e2:	e8 39 2f 01 00       	call   16620 <async_data_write_start>
    36e7:	89 45 9c             	mov    %eax,-0x64(%ebp)
    36ea:	85 c0                	test   %eax,%eax
    36ec:	0f 84 76 ff ff ff    	je     3668 <devman_add_function+0x118>
    36f2:	89 1c 24             	mov    %ebx,(%esp)
    36f5:	e8 a6 23 01 00       	call   15aa0 <async_exchange_end>
    36fa:	89 34 24             	mov    %esi,(%esp)
    36fd:	e8 ee 0d 01 00       	call   144f0 <async_forget>
    3702:	8b 45 90             	mov    -0x70(%ebp),%eax
    3705:	89 04 24             	mov    %eax,(%esp)
    3708:	e8 e3 0d 01 00       	call   144f0 <async_forget>
    370d:	8b 45 9c             	mov    -0x64(%ebp),%eax
    3710:	81 c4 8c 00 00 00    	add    $0x8c,%esp
    3716:	5b                   	pop    %ebx
    3717:	5e                   	pop    %esi
    3718:	5f                   	pop    %edi
    3719:	5d                   	pop    %ebp
    371a:	c3                   	ret    
    371b:	90                   	nop
    371c:	8d 74 26 00          	lea    0x0(%esi,%eiz,1),%esi
    3720:	85 db                	test   %ebx,%ebx
    3722:	0f 84 78 fe ff ff    	je     35a0 <devman_add_function+0x50>
    3728:	89 1d 58 4d 02 00    	mov    %ebx,0x24d58
    372e:	e9 6d fe ff ff       	jmp    35a0 <devman_add_function+0x50>
    3733:	90                   	nop
    3734:	8d 74 26 00          	lea    0x0(%esi,%eiz,1),%esi
    3738:	c7 44 24 0c 00 00 00 	movl   $0x0,0xc(%esp)
    373f:	00 
    3740:	c7 44 24 08 01 00 00 	movl   $0x1,0x8(%esp)
    3747:	00 
    3748:	c7 44 24 04 64 65 76 	movl   $0x6e766564,0x4(%esp)
    374f:	6e 
    3750:	c7 04 24 01 00 00 00 	movl   $0x1,(%esp)
    3757:	e8 24 f3 00 00       	call   12a80 <service_connect_blocking>
    375c:	a3 58 4d 02 00       	mov    %eax,0x24d58
    3761:	e9 17 fe ff ff       	jmp    357d <devman_add_function+0x2d>
    3766:	66 90                	xchg   %ax,%ax
    3768:	89 1c 24             	mov    %ebx,(%esp)
    376b:	e8 30 23 01 00       	call   15aa0 <async_exchange_end>
    3770:	8b 45 90             	mov    -0x70(%ebp),%eax
    3773:	89 04 24             	mov    %eax,(%esp)
    3776:	e8 75 0d 01 00       	call   144f0 <async_forget>
    377b:	8b 45 9c             	mov    -0x64(%ebp),%eax
    377e:	81 c4 8c 00 00 00    	add    $0x8c,%esp
    3784:	5b                   	pop    %ebx
    3785:	5e                   	pop    %esi
    3786:	5f                   	pop    %edi
    3787:	5d                   	pop    %ebp
    3788:	c3                   	ret    
    3789:	8d 4d 9c             	lea    -0x64(%ebp),%ecx
    378c:	89 4d 94             	mov    %ecx,-0x6c(%ebp)
    378f:	90                   	nop
    3790:	89 1c 24             	mov    %ebx,(%esp)
    3793:	e8 08 23 01 00       	call   15aa0 <async_exchange_end>
    3798:	8b 45 90             	mov    -0x70(%ebp),%eax
    379b:	8b 55 94             	mov    -0x6c(%ebp),%edx
    379e:	89 04 24             	mov    %eax,(%esp)
    37a1:	89 54 24 04          	mov    %edx,0x4(%esp)
    37a5:	e8 f6 0a 01 00       	call   142a0 <async_wait_for>
    37aa:	8b 45 9c             	mov    -0x64(%ebp),%eax
    37ad:	85 c0                	test   %eax,%eax
    37af:	75 32                	jne    37e3 <devman_add_function+0x293>
    37b1:	8b 4d 18             	mov    0x18(%ebp),%ecx
    37b4:	85 c9                	test   %ecx,%ecx
    37b6:	0f 84 54 ff ff ff    	je     3710 <devman_add_function+0x1c0>
    37bc:	8b 4d 18             	mov    0x18(%ebp),%ecx
    37bf:	8b 55 a4             	mov    -0x5c(%ebp),%edx
    37c2:	89 11                	mov    %edx,(%ecx)
    37c4:	81 c4 8c 00 00 00    	add    $0x8c,%esp
    37ca:	5b                   	pop    %ebx
    37cb:	5e                   	pop    %esi
    37cc:	5f                   	pop    %edi
    37cd:	5d                   	pop    %ebp
    37ce:	c3                   	ret    
    37cf:	90                   	nop
    37d0:	85 db                	test   %ebx,%ebx
    37d2:	0f 84 0c fe ff ff    	je     35e4 <devman_add_function+0x94>
    37d8:	89 1d 54 4d 02 00    	mov    %ebx,0x24d54
    37de:	e9 01 fe ff ff       	jmp    35e4 <devman_add_function+0x94>
    37e3:	8b 55 18             	mov    0x18(%ebp),%edx
    37e6:	85 d2                	test   %edx,%edx
    37e8:	0f 84 22 ff ff ff    	je     3710 <devman_add_function+0x1c0>
    37ee:	8b 55 18             	mov    0x18(%ebp),%edx
    37f1:	c7 02 ff ff ff ff    	movl   $0xffffffff,(%edx)
    37f7:	81 c4 8c 00 00 00    	add    $0x8c,%esp
    37fd:	5b                   	pop    %ebx
    37fe:	5e                   	pop    %esi
    37ff:	5f                   	pop    %edi
    3800:	5d                   	pop    %ebp
    3801:	c3                   	ret    
    3802:	8d b4 26 00 00 00 00 	lea    0x0(%esi,%eiz,1),%esi
    3809:	8d bc 27 00 00 00 00 	lea    0x0(%edi,%eiz,1),%edi

00003810 <devman_add_device_to_category>:
    3810:	55                   	push   %ebp
    3811:	89 e5                	mov    %esp,%ebp
    3813:	57                   	push   %edi
    3814:	56                   	push   %esi
    3815:	53                   	push   %ebx
    3816:	83 ec 5c             	sub    $0x5c,%esp
    3819:	8b 75 0c             	mov    0xc(%ebp),%esi
    381c:	c7 04 24 00 4b 02 00 	movl   $0x24b00,(%esp)
    3823:	e8 e8 56 00 00       	call   8f10 <fibril_mutex_lock>
    3828:	a1 58 4d 02 00       	mov    0x24d58,%eax
    382d:	85 c0                	test   %eax,%eax
    382f:	75 39                	jne    386a <devman_add_device_to_category+0x5a>
    3831:	c7 04 24 10 4b 02 00 	movl   $0x24b10,(%esp)
    3838:	8b 1d 54 4d 02 00    	mov    0x24d54,%ebx
    383e:	e8 cd 56 00 00       	call   8f10 <fibril_mutex_lock>
    3843:	8b 15 58 4d 02 00    	mov    0x24d58,%edx
    3849:	85 d2                	test   %edx,%edx
    384b:	0f 84 df 00 00 00    	je     3930 <devman_add_device_to_category+0x120>
    3851:	c7 04 24 10 4b 02 00 	movl   $0x24b10,(%esp)
    3858:	e8 d3 57 00 00       	call   9030 <fibril_mutex_unlock>
    385d:	a1 58 4d 02 00       	mov    0x24d58,%eax
    3862:	85 c0                	test   %eax,%eax
    3864:	0f 84 de 00 00 00    	je     3948 <devman_add_device_to_category+0x138>
    386a:	c7 04 24 00 4b 02 00 	movl   $0x24b00,(%esp)
    3871:	e8 ba 57 00 00       	call   9030 <fibril_mutex_unlock>
    3876:	c7 04 24 10 4b 02 00 	movl   $0x24b10,(%esp)
    387d:	8b 1d 58 4d 02 00    	mov    0x24d58,%ebx
    3883:	e8 88 56 00 00       	call   8f10 <fibril_mutex_lock>
    3888:	a1 54 4d 02 00       	mov    0x24d54,%eax
    388d:	85 c0                	test   %eax,%eax
    388f:	0f 84 fb 00 00 00    	je     3990 <devman_add_device_to_category+0x180>
    3895:	c7 04 24 10 4b 02 00 	movl   $0x24b10,(%esp)
    389c:	e8 8f 57 00 00       	call   9030 <fibril_mutex_unlock>
    38a1:	a1 58 4d 02 00       	mov    0x24d58,%eax
    38a6:	89 04 24             	mov    %eax,(%esp)
    38a9:	e8 82 1e 01 00       	call   15730 <async_exchange_begin>
    38ae:	c7 44 24 14 00 00 00 	movl   $0x0,0x14(%esp)
    38b5:	00 
    38b6:	89 c3                	mov    %eax,%ebx
    38b8:	8d 45 c4             	lea    -0x3c(%ebp),%eax
    38bb:	89 44 24 18          	mov    %eax,0x18(%esp)
    38bf:	8b 45 08             	mov    0x8(%ebp),%eax
    38c2:	c7 44 24 10 00 00 00 	movl   $0x0,0x10(%esp)
    38c9:	00 
    38ca:	c7 44 24 0c 00 00 00 	movl   $0x0,0xc(%esp)
    38d1:	00 
    38d2:	89 44 24 08          	mov    %eax,0x8(%esp)
    38d6:	c7 44 24 04 03 04 00 	movl   $0x403,0x4(%esp)
    38dd:	00 
    38de:	89 1c 24             	mov    %ebx,(%esp)
    38e1:	e8 ea 07 01 00       	call   140d0 <async_send_fast>
    38e6:	89 34 24             	mov    %esi,(%esp)
    38e9:	89 c7                	mov    %eax,%edi
    38eb:	e8 50 23 00 00       	call   5c40 <str_size>
    38f0:	89 74 24 04          	mov    %esi,0x4(%esp)
    38f4:	89 44 24 08          	mov    %eax,0x8(%esp)
    38f8:	89 1c 24             	mov    %ebx,(%esp)
    38fb:	e8 20 2d 01 00       	call   16620 <async_data_write_start>
    3900:	89 1c 24             	mov    %ebx,(%esp)
    3903:	89 45 c0             	mov    %eax,-0x40(%ebp)
    3906:	e8 95 21 01 00       	call   15aa0 <async_exchange_end>
    390b:	8b 45 c0             	mov    -0x40(%ebp),%eax
    390e:	85 c0                	test   %eax,%eax
    3910:	75 66                	jne    3978 <devman_add_device_to_category+0x168>
    3912:	8d 45 c0             	lea    -0x40(%ebp),%eax
    3915:	89 3c 24             	mov    %edi,(%esp)
    3918:	89 44 24 04          	mov    %eax,0x4(%esp)
    391c:	e8 7f 09 01 00       	call   142a0 <async_wait_for>
    3921:	8b 45 c0             	mov    -0x40(%ebp),%eax
    3924:	83 c4 5c             	add    $0x5c,%esp
    3927:	5b                   	pop    %ebx
    3928:	5e                   	pop    %esi
    3929:	5f                   	pop    %edi
    392a:	5d                   	pop    %ebp
    392b:	c3                   	ret    
    392c:	8d 74 26 00          	lea    0x0(%esi,%eiz,1),%esi
    3930:	85 db                	test   %ebx,%ebx
    3932:	0f 84 19 ff ff ff    	je     3851 <devman_add_device_to_category+0x41>
    3938:	89 1d 58 4d 02 00    	mov    %ebx,0x24d58
    393e:	e9 0e ff ff ff       	jmp    3851 <devman_add_device_to_category+0x41>
    3943:	90                   	nop
    3944:	8d 74 26 00          	lea    0x0(%esi,%eiz,1),%esi
    3948:	c7 44 24 0c 00 00 00 	movl   $0x0,0xc(%esp)
    394f:	00 
    3950:	c7 44 24 08 01 00 00 	movl   $0x1,0x8(%esp)
    3957:	00 
    3958:	c7 44 24 04 64 65 76 	movl   $0x6e766564,0x4(%esp)
    395f:	6e 
    3960:	c7 04 24 01 00 00 00 	movl   $0x1,(%esp)
    3967:	e8 14 f1 00 00       	call   12a80 <service_connect_blocking>
    396c:	a3 58 4d 02 00       	mov    %eax,0x24d58
    3971:	e9 b7 fe ff ff       	jmp    382d <devman_add_device_to_category+0x1d>
    3976:	66 90                	xchg   %ax,%ax
    3978:	89 3c 24             	mov    %edi,(%esp)
    397b:	e8 70 0b 01 00       	call   144f0 <async_forget>
    3980:	8b 45 c0             	mov    -0x40(%ebp),%eax
    3983:	83 c4 5c             	add    $0x5c,%esp
    3986:	5b                   	pop    %ebx
    3987:	5e                   	pop    %esi
    3988:	5f                   	pop    %edi
    3989:	5d                   	pop    %ebp
    398a:	c3                   	ret    
    398b:	90                   	nop
    398c:	8d 74 26 00          	lea    0x0(%esi,%eiz,1),%esi
    3990:	85 db                	test   %ebx,%ebx
    3992:	0f 84 fd fe ff ff    	je     3895 <devman_add_device_to_category+0x85>
    3998:	89 1d 54 4d 02 00    	mov    %ebx,0x24d54
    399e:	e9 f2 fe ff ff       	jmp    3895 <devman_add_device_to_category+0x85>
    39a3:	8d b6 00 00 00 00    	lea    0x0(%esi),%esi
    39a9:	8d bc 27 00 00 00 00 	lea    0x0(%edi,%eiz,1),%edi

000039b0 <devman_device_connect>:
    39b0:	55                   	push   %ebp
    39b1:	89 e5                	mov    %esp,%ebp
    39b3:	83 ec 18             	sub    $0x18,%esp
    39b6:	8b 45 08             	mov    0x8(%ebp),%eax
    39b9:	8b 55 0c             	mov    0xc(%ebp),%edx
    39bc:	f6 45 10 01          	testb  $0x1,0x10(%ebp)
    39c0:	89 54 24 0c          	mov    %edx,0xc(%esp)
    39c4:	c7 44 24 08 03 00 00 	movl   $0x3,0x8(%esp)
    39cb:	00 
    39cc:	c7 44 24 04 64 65 76 	movl   $0x6e766564,0x4(%esp)
    39d3:	6e 
    39d4:	89 04 24             	mov    %eax,(%esp)
    39d7:	75 07                	jne    39e0 <devman_device_connect+0x30>
    39d9:	e8 22 f0 00 00       	call   12a00 <service_connect>
    39de:	c9                   	leave  
    39df:	c3                   	ret    
    39e0:	e8 9b f0 00 00       	call   12a80 <service_connect_blocking>
    39e5:	c9                   	leave  
    39e6:	c3                   	ret    
    39e7:	89 f6                	mov    %esi,%esi
    39e9:	8d bc 27 00 00 00 00 	lea    0x0(%edi,%eiz,1),%edi

000039f0 <devman_remove_function>:
    39f0:	55                   	push   %ebp
    39f1:	89 e5                	mov    %esp,%ebp
    39f3:	53                   	push   %ebx
    39f4:	83 ec 44             	sub    $0x44,%esp
    39f7:	c7 04 24 00 4b 02 00 	movl   $0x24b00,(%esp)
    39fe:	e8 0d 55 00 00       	call   8f10 <fibril_mutex_lock>
    3a03:	a1 58 4d 02 00       	mov    0x24d58,%eax
    3a08:	85 c0                	test   %eax,%eax
    3a0a:	75 39                	jne    3a45 <devman_remove_function+0x55>
    3a0c:	c7 04 24 10 4b 02 00 	movl   $0x24b10,(%esp)
    3a13:	8b 1d 54 4d 02 00    	mov    0x24d54,%ebx
    3a19:	e8 f2 54 00 00       	call   8f10 <fibril_mutex_lock>
    3a1e:	a1 58 4d 02 00       	mov    0x24d58,%eax
    3a23:	85 c0                	test   %eax,%eax
    3a25:	0f 84 cd 00 00 00    	je     3af8 <devman_remove_function+0x108>
    3a2b:	c7 04 24 10 4b 02 00 	movl   $0x24b10,(%esp)
    3a32:	e8 f9 55 00 00       	call   9030 <fibril_mutex_unlock>
    3a37:	8b 1d 58 4d 02 00    	mov    0x24d58,%ebx
    3a3d:	85 db                	test   %ebx,%ebx
    3a3f:	0f 84 cb 00 00 00    	je     3b10 <devman_remove_function+0x120>
    3a45:	c7 04 24 00 4b 02 00 	movl   $0x24b00,(%esp)
    3a4c:	e8 df 55 00 00       	call   9030 <fibril_mutex_unlock>
    3a51:	c7 04 24 10 4b 02 00 	movl   $0x24b10,(%esp)
    3a58:	8b 1d 58 4d 02 00    	mov    0x24d58,%ebx
    3a5e:	e8 ad 54 00 00       	call   8f10 <fibril_mutex_lock>
    3a63:	8b 0d 54 4d 02 00    	mov    0x24d54,%ecx
    3a69:	85 c9                	test   %ecx,%ecx
    3a6b:	0f 84 cf 00 00 00    	je     3b40 <devman_remove_function+0x150>
    3a71:	c7 04 24 10 4b 02 00 	movl   $0x24b10,(%esp)
    3a78:	e8 b3 55 00 00       	call   9030 <fibril_mutex_unlock>
    3a7d:	a1 58 4d 02 00       	mov    0x24d58,%eax
    3a82:	89 04 24             	mov    %eax,(%esp)
    3a85:	e8 a6 1c 01 00       	call   15730 <async_exchange_begin>
    3a8a:	c7 44 24 28 00 00 00 	movl   $0x0,0x28(%esp)
    3a91:	00 
    3a92:	89 c3                	mov    %eax,%ebx
    3a94:	8b 45 08             	mov    0x8(%ebp),%eax
    3a97:	89 1c 24             	mov    %ebx,(%esp)
    3a9a:	c7 44 24 24 00 00 00 	movl   $0x0,0x24(%esp)
    3aa1:	00 
    3aa2:	c7 44 24 20 00 00 00 	movl   $0x0,0x20(%esp)
    3aa9:	00 
    3aaa:	c7 44 24 1c 00 00 00 	movl   $0x0,0x1c(%esp)
    3ab1:	00 
    3ab2:	c7 44 24 18 00 00 00 	movl   $0x0,0x18(%esp)
    3ab9:	00 
    3aba:	c7 44 24 14 00 00 00 	movl   $0x0,0x14(%esp)
    3ac1:	00 
    3ac2:	c7 44 24 10 00 00 00 	movl   $0x0,0x10(%esp)
    3ac9:	00 
    3aca:	c7 44 24 0c 00 00 00 	movl   $0x0,0xc(%esp)
    3ad1:	00 
    3ad2:	89 44 24 08          	mov    %eax,0x8(%esp)
    3ad6:	c7 44 24 04 06 04 00 	movl   $0x406,0x4(%esp)
    3add:	00 
    3ade:	e8 fd 0b 01 00       	call   146e0 <async_req_fast>
    3ae3:	89 1c 24             	mov    %ebx,(%esp)
    3ae6:	89 45 f4             	mov    %eax,-0xc(%ebp)
    3ae9:	e8 b2 1f 01 00       	call   15aa0 <async_exchange_end>
    3aee:	8b 45 f4             	mov    -0xc(%ebp),%eax
    3af1:	83 c4 44             	add    $0x44,%esp
    3af4:	5b                   	pop    %ebx
    3af5:	5d                   	pop    %ebp
    3af6:	c3                   	ret    
    3af7:	90                   	nop
    3af8:	85 db                	test   %ebx,%ebx
    3afa:	0f 84 2b ff ff ff    	je     3a2b <devman_remove_function+0x3b>
    3b00:	89 1d 58 4d 02 00    	mov    %ebx,0x24d58
    3b06:	e9 20 ff ff ff       	jmp    3a2b <devman_remove_function+0x3b>
    3b0b:	90                   	nop
    3b0c:	8d 74 26 00          	lea    0x0(%esi,%eiz,1),%esi
    3b10:	c7 44 24 0c 00 00 00 	movl   $0x0,0xc(%esp)
    3b17:	00 
    3b18:	c7 44 24 08 01 00 00 	movl   $0x1,0x8(%esp)
    3b1f:	00 
    3b20:	c7 44 24 04 64 65 76 	movl   $0x6e766564,0x4(%esp)
    3b27:	6e 
    3b28:	c7 04 24 01 00 00 00 	movl   $0x1,(%esp)
    3b2f:	e8 4c ef 00 00       	call   12a80 <service_connect_blocking>
    3b34:	a3 58 4d 02 00       	mov    %eax,0x24d58
    3b39:	e9 ca fe ff ff       	jmp    3a08 <devman_remove_function+0x18>
    3b3e:	66 90                	xchg   %ax,%ax
    3b40:	85 db                	test   %ebx,%ebx
    3b42:	0f 84 29 ff ff ff    	je     3a71 <devman_remove_function+0x81>
    3b48:	89 1d 54 4d 02 00    	mov    %ebx,0x24d54
    3b4e:	e9 1e ff ff ff       	jmp    3a71 <devman_remove_function+0x81>
    3b53:	8d b6 00 00 00 00    	lea    0x0(%esi),%esi
    3b59:	8d bc 27 00 00 00 00 	lea    0x0(%edi,%eiz,1),%edi

00003b60 <devman_drv_fun_online>:
    3b60:	55                   	push   %ebp
    3b61:	89 e5                	mov    %esp,%ebp
    3b63:	56                   	push   %esi
    3b64:	53                   	push   %ebx
    3b65:	83 ec 30             	sub    $0x30,%esp
    3b68:	c7 04 24 10 4b 02 00 	movl   $0x24b10,(%esp)
    3b6f:	e8 9c 53 00 00       	call   8f10 <fibril_mutex_lock>
    3b74:	a1 54 4d 02 00       	mov    0x24d54,%eax
    3b79:	85 c0                	test   %eax,%eax
    3b7b:	0f 84 97 00 00 00    	je     3c18 <devman_drv_fun_online+0xb8>
    3b81:	c7 04 24 10 4b 02 00 	movl   $0x24b10,(%esp)
    3b88:	e8 a3 54 00 00       	call   9030 <fibril_mutex_unlock>
    3b8d:	a1 54 4d 02 00       	mov    0x24d54,%eax
    3b92:	85 c0                	test   %eax,%eax
    3b94:	0f 84 ae 00 00 00    	je     3c48 <devman_drv_fun_online+0xe8>
    3b9a:	89 04 24             	mov    %eax,(%esp)
    3b9d:	e8 8e 1b 01 00       	call   15730 <async_exchange_begin>
    3ba2:	89 c3                	mov    %eax,%ebx
    3ba4:	85 c0                	test   %eax,%eax
    3ba6:	0f 84 9c 00 00 00    	je     3c48 <devman_drv_fun_online+0xe8>
    3bac:	8b 45 08             	mov    0x8(%ebp),%eax
    3baf:	c7 44 24 28 00 00 00 	movl   $0x0,0x28(%esp)
    3bb6:	00 
    3bb7:	c7 44 24 24 00 00 00 	movl   $0x0,0x24(%esp)
    3bbe:	00 
    3bbf:	c7 44 24 20 00 00 00 	movl   $0x0,0x20(%esp)
    3bc6:	00 
    3bc7:	c7 44 24 1c 00 00 00 	movl   $0x0,0x1c(%esp)
    3bce:	00 
    3bcf:	c7 44 24 18 00 00 00 	movl   $0x0,0x18(%esp)
    3bd6:	00 
    3bd7:	c7 44 24 14 00 00 00 	movl   $0x0,0x14(%esp)
    3bde:	00 
    3bdf:	c7 44 24 10 00 00 00 	movl   $0x0,0x10(%esp)
    3be6:	00 
    3be7:	c7 44 24 0c 00 00 00 	movl   $0x0,0xc(%esp)
    3bee:	00 
    3bef:	89 44 24 08          	mov    %eax,0x8(%esp)
    3bf3:	c7 44 24 04 04 04 00 	movl   $0x404,0x4(%esp)
    3bfa:	00 
    3bfb:	89 1c 24             	mov    %ebx,(%esp)
    3bfe:	e8 dd 0a 01 00       	call   146e0 <async_req_fast>
    3c03:	89 1c 24             	mov    %ebx,(%esp)
    3c06:	89 c6                	mov    %eax,%esi
    3c08:	e8 93 1e 01 00       	call   15aa0 <async_exchange_end>
    3c0d:	89 f0                	mov    %esi,%eax
    3c0f:	83 c4 30             	add    $0x30,%esp
    3c12:	5b                   	pop    %ebx
    3c13:	5e                   	pop    %esi
    3c14:	5d                   	pop    %ebp
    3c15:	c3                   	ret    
    3c16:	66 90                	xchg   %ax,%ax
    3c18:	c7 44 24 0c 00 00 00 	movl   $0x0,0xc(%esp)
    3c1f:	00 
    3c20:	c7 44 24 08 01 00 00 	movl   $0x1,0x8(%esp)
    3c27:	00 
    3c28:	c7 44 24 04 64 65 76 	movl   $0x6e766564,0x4(%esp)
    3c2f:	6e 
    3c30:	c7 04 24 01 00 00 00 	movl   $0x1,(%esp)
    3c37:	e8 c4 ed 00 00       	call   12a00 <service_connect>
    3c3c:	a3 54 4d 02 00       	mov    %eax,0x24d54
    3c41:	e9 3b ff ff ff       	jmp    3b81 <devman_drv_fun_online+0x21>
    3c46:	66 90                	xchg   %ax,%ax
    3c48:	b8 fe ff ff ff       	mov    $0xfffffffe,%eax
    3c4d:	eb c0                	jmp    3c0f <devman_drv_fun_online+0xaf>
    3c4f:	90                   	nop

00003c50 <devman_drv_fun_offline>:
    3c50:	55                   	push   %ebp
    3c51:	89 e5                	mov    %esp,%ebp
    3c53:	56                   	push   %esi
    3c54:	53                   	push   %ebx
    3c55:	83 ec 30             	sub    $0x30,%esp
    3c58:	c7 04 24 10 4b 02 00 	movl   $0x24b10,(%esp)
    3c5f:	e8 ac 52 00 00       	call   8f10 <fibril_mutex_lock>
    3c64:	a1 54 4d 02 00       	mov    0x24d54,%eax
    3c69:	85 c0                	test   %eax,%eax
    3c6b:	0f 84 97 00 00 00    	je     3d08 <devman_drv_fun_offline+0xb8>
    3c71:	c7 04 24 10 4b 02 00 	movl   $0x24b10,(%esp)
    3c78:	e8 b3 53 00 00       	call   9030 <fibril_mutex_unlock>
    3c7d:	a1 54 4d 02 00       	mov    0x24d54,%eax
    3c82:	85 c0                	test   %eax,%eax
    3c84:	0f 84 ae 00 00 00    	je     3d38 <devman_drv_fun_offline+0xe8>
    3c8a:	89 04 24             	mov    %eax,(%esp)
    3c8d:	e8 9e 1a 01 00       	call   15730 <async_exchange_begin>
    3c92:	89 c3                	mov    %eax,%ebx
    3c94:	85 c0                	test   %eax,%eax
    3c96:	0f 84 9c 00 00 00    	je     3d38 <devman_drv_fun_offline+0xe8>
    3c9c:	8b 45 08             	mov    0x8(%ebp),%eax
    3c9f:	c7 44 24 28 00 00 00 	movl   $0x0,0x28(%esp)
    3ca6:	00 
    3ca7:	c7 44 24 24 00 00 00 	movl   $0x0,0x24(%esp)
    3cae:	00 
    3caf:	c7 44 24 20 00 00 00 	movl   $0x0,0x20(%esp)
    3cb6:	00 
    3cb7:	c7 44 24 1c 00 00 00 	movl   $0x0,0x1c(%esp)
    3cbe:	00 
    3cbf:	c7 44 24 18 00 00 00 	movl   $0x0,0x18(%esp)
    3cc6:	00 
    3cc7:	c7 44 24 14 00 00 00 	movl   $0x0,0x14(%esp)
    3cce:	00 
    3ccf:	c7 44 24 10 00 00 00 	movl   $0x0,0x10(%esp)
    3cd6:	00 
    3cd7:	c7 44 24 0c 00 00 00 	movl   $0x0,0xc(%esp)
    3cde:	00 
    3cdf:	89 44 24 08          	mov    %eax,0x8(%esp)
    3ce3:	c7 44 24 04 05 04 00 	movl   $0x405,0x4(%esp)
    3cea:	00 
    3ceb:	89 1c 24             	mov    %ebx,(%esp)
    3cee:	e8 ed 09 01 00       	call   146e0 <async_req_fast>
    3cf3:	89 1c 24             	mov    %ebx,(%esp)
    3cf6:	89 c6                	mov    %eax,%esi
    3cf8:	e8 a3 1d 01 00       	call   15aa0 <async_exchange_end>
    3cfd:	89 f0                	mov    %esi,%eax
    3cff:	83 c4 30             	add    $0x30,%esp
    3d02:	5b                   	pop    %ebx
    3d03:	5e                   	pop    %esi
    3d04:	5d                   	pop    %ebp
    3d05:	c3                   	ret    
    3d06:	66 90                	xchg   %ax,%ax
    3d08:	c7 44 24 0c 00 00 00 	movl   $0x0,0xc(%esp)
    3d0f:	00 
    3d10:	c7 44 24 08 01 00 00 	movl   $0x1,0x8(%esp)
    3d17:	00 
    3d18:	c7 44 24 04 64 65 76 	movl   $0x6e766564,0x4(%esp)
    3d1f:	6e 
    3d20:	c7 04 24 01 00 00 00 	movl   $0x1,(%esp)
    3d27:	e8 d4 ec 00 00       	call   12a00 <service_connect>
    3d2c:	a3 54 4d 02 00       	mov    %eax,0x24d54
    3d31:	e9 3b ff ff ff       	jmp    3c71 <devman_drv_fun_offline+0x21>
    3d36:	66 90                	xchg   %ax,%ax
    3d38:	b8 fe ff ff ff       	mov    $0xfffffffe,%eax
    3d3d:	eb c0                	jmp    3cff <devman_drv_fun_offline+0xaf>
    3d3f:	90                   	nop

00003d40 <devman_parent_device_connect>:
    3d40:	55                   	push   %ebp
    3d41:	89 e5                	mov    %esp,%ebp
    3d43:	83 ec 18             	sub    $0x18,%esp
    3d46:	8b 45 08             	mov    0x8(%ebp),%eax
    3d49:	8b 55 0c             	mov    0xc(%ebp),%edx
    3d4c:	f6 45 10 01          	testb  $0x1,0x10(%ebp)
    3d50:	89 54 24 0c          	mov    %edx,0xc(%esp)
    3d54:	c7 44 24 08 05 00 00 	movl   $0x5,0x8(%esp)
    3d5b:	00 
    3d5c:	c7 44 24 04 64 65 76 	movl   $0x6e766564,0x4(%esp)
    3d63:	6e 
    3d64:	89 04 24             	mov    %eax,(%esp)
    3d67:	75 07                	jne    3d70 <devman_parent_device_connect+0x30>
    3d69:	e8 92 ec 00 00       	call   12a00 <service_connect>
    3d6e:	c9                   	leave  
    3d6f:	c3                   	ret    
    3d70:	e8 0b ed 00 00       	call   12a80 <service_connect_blocking>
    3d75:	c9                   	leave  
    3d76:	c3                   	ret    
    3d77:	89 f6                	mov    %esi,%esi
    3d79:	8d bc 27 00 00 00 00 	lea    0x0(%edi,%eiz,1),%edi

00003d80 <devman_fun_get_handle>:
    3d80:	55                   	push   %ebp
    3d81:	89 e5                	mov    %esp,%ebp
    3d83:	57                   	push   %edi
    3d84:	56                   	push   %esi
    3d85:	53                   	push   %ebx
    3d86:	83 ec 5c             	sub    $0x5c,%esp
    3d89:	8b 75 10             	mov    0x10(%ebp),%esi
    3d8c:	8b 7d 08             	mov    0x8(%ebp),%edi
    3d8f:	f7 c6 01 00 00 00    	test   $0x1,%esi
    3d95:	0f 84 3d 01 00 00    	je     3ed8 <devman_fun_get_handle+0x158>
    3d9b:	c7 04 24 20 4b 02 00 	movl   $0x24b20,(%esp)
    3da2:	e8 69 51 00 00       	call   8f10 <fibril_mutex_lock>
    3da7:	a1 60 4d 02 00       	mov    0x24d60,%eax
    3dac:	85 c0                	test   %eax,%eax
    3dae:	75 38                	jne    3de8 <devman_fun_get_handle+0x68>
    3db0:	c7 04 24 30 4b 02 00 	movl   $0x24b30,(%esp)
    3db7:	8b 1d 5c 4d 02 00    	mov    0x24d5c,%ebx
    3dbd:	e8 4e 51 00 00       	call   8f10 <fibril_mutex_lock>
    3dc2:	a1 60 4d 02 00       	mov    0x24d60,%eax
    3dc7:	85 c0                	test   %eax,%eax
    3dc9:	0f 84 f1 00 00 00    	je     3ec0 <devman_fun_get_handle+0x140>
    3dcf:	c7 04 24 30 4b 02 00 	movl   $0x24b30,(%esp)
    3dd6:	e8 55 52 00 00       	call   9030 <fibril_mutex_unlock>
    3ddb:	a1 60 4d 02 00       	mov    0x24d60,%eax
    3de0:	85 c0                	test   %eax,%eax
    3de2:	0f 84 58 01 00 00    	je     3f40 <devman_fun_get_handle+0x1c0>
    3de8:	c7 04 24 20 4b 02 00 	movl   $0x24b20,(%esp)
    3def:	e8 3c 52 00 00       	call   9030 <fibril_mutex_unlock>
    3df4:	c7 04 24 30 4b 02 00 	movl   $0x24b30,(%esp)
    3dfb:	8b 1d 60 4d 02 00    	mov    0x24d60,%ebx
    3e01:	e8 0a 51 00 00       	call   8f10 <fibril_mutex_lock>
    3e06:	a1 5c 4d 02 00       	mov    0x24d5c,%eax
    3e0b:	85 c0                	test   %eax,%eax
    3e0d:	0f 84 75 01 00 00    	je     3f88 <devman_fun_get_handle+0x208>
    3e13:	c7 04 24 30 4b 02 00 	movl   $0x24b30,(%esp)
    3e1a:	e8 11 52 00 00       	call   9030 <fibril_mutex_unlock>
    3e1f:	a1 60 4d 02 00       	mov    0x24d60,%eax
    3e24:	89 04 24             	mov    %eax,(%esp)
    3e27:	e8 04 19 01 00       	call   15730 <async_exchange_begin>
    3e2c:	89 c3                	mov    %eax,%ebx
    3e2e:	8d 45 c4             	lea    -0x3c(%ebp),%eax
    3e31:	89 74 24 08          	mov    %esi,0x8(%esp)
    3e35:	89 44 24 18          	mov    %eax,0x18(%esp)
    3e39:	c7 44 24 14 00 00 00 	movl   $0x0,0x14(%esp)
    3e40:	00 
    3e41:	c7 44 24 10 00 00 00 	movl   $0x0,0x10(%esp)
    3e48:	00 
    3e49:	c7 44 24 0c 00 00 00 	movl   $0x0,0xc(%esp)
    3e50:	00 
    3e51:	c7 44 24 04 00 04 00 	movl   $0x400,0x4(%esp)
    3e58:	00 
    3e59:	89 1c 24             	mov    %ebx,(%esp)
    3e5c:	e8 6f 02 01 00       	call   140d0 <async_send_fast>
    3e61:	89 3c 24             	mov    %edi,(%esp)
    3e64:	89 c6                	mov    %eax,%esi
    3e66:	e8 d5 1d 00 00       	call   5c40 <str_size>
    3e6b:	89 7c 24 04          	mov    %edi,0x4(%esp)
    3e6f:	89 44 24 08          	mov    %eax,0x8(%esp)
    3e73:	89 1c 24             	mov    %ebx,(%esp)
    3e76:	e8 a5 27 01 00       	call   16620 <async_data_write_start>
    3e7b:	89 1c 24             	mov    %ebx,(%esp)
    3e7e:	89 45 c0             	mov    %eax,-0x40(%ebp)
    3e81:	e8 1a 1c 01 00       	call   15aa0 <async_exchange_end>
    3e86:	8b 4d c0             	mov    -0x40(%ebp),%ecx
    3e89:	85 c9                	test   %ecx,%ecx
    3e8b:	0f 85 df 00 00 00    	jne    3f70 <devman_fun_get_handle+0x1f0>
    3e91:	8d 45 c0             	lea    -0x40(%ebp),%eax
    3e94:	89 34 24             	mov    %esi,(%esp)
    3e97:	89 44 24 04          	mov    %eax,0x4(%esp)
    3e9b:	e8 00 04 01 00       	call   142a0 <async_wait_for>
    3ea0:	8b 45 c0             	mov    -0x40(%ebp),%eax
    3ea3:	85 c0                	test   %eax,%eax
    3ea5:	74 79                	je     3f20 <devman_fun_get_handle+0x1a0>
    3ea7:	8b 55 0c             	mov    0xc(%ebp),%edx
    3eaa:	85 d2                	test   %edx,%edx
    3eac:	74 09                	je     3eb7 <devman_fun_get_handle+0x137>
    3eae:	8b 55 0c             	mov    0xc(%ebp),%edx
    3eb1:	c7 02 ff ff ff ff    	movl   $0xffffffff,(%edx)
    3eb7:	83 c4 5c             	add    $0x5c,%esp
    3eba:	5b                   	pop    %ebx
    3ebb:	5e                   	pop    %esi
    3ebc:	5f                   	pop    %edi
    3ebd:	5d                   	pop    %ebp
    3ebe:	c3                   	ret    
    3ebf:	90                   	nop
    3ec0:	85 db                	test   %ebx,%ebx
    3ec2:	0f 84 07 ff ff ff    	je     3dcf <devman_fun_get_handle+0x4f>
    3ec8:	89 1d 60 4d 02 00    	mov    %ebx,0x24d60
    3ece:	e9 fc fe ff ff       	jmp    3dcf <devman_fun_get_handle+0x4f>
    3ed3:	90                   	nop
    3ed4:	8d 74 26 00          	lea    0x0(%esi,%eiz,1),%esi
    3ed8:	c7 04 24 30 4b 02 00 	movl   $0x24b30,(%esp)
    3edf:	e8 2c 50 00 00       	call   8f10 <fibril_mutex_lock>
    3ee4:	8b 1d 5c 4d 02 00    	mov    0x24d5c,%ebx
    3eea:	85 db                	test   %ebx,%ebx
    3eec:	0f 84 a9 00 00 00    	je     3f9b <devman_fun_get_handle+0x21b>
    3ef2:	c7 04 24 30 4b 02 00 	movl   $0x24b30,(%esp)
    3ef9:	e8 32 51 00 00       	call   9030 <fibril_mutex_unlock>
    3efe:	a1 5c 4d 02 00       	mov    0x24d5c,%eax
    3f03:	85 c0                	test   %eax,%eax
    3f05:	74 12                	je     3f19 <devman_fun_get_handle+0x199>
    3f07:	89 04 24             	mov    %eax,(%esp)
    3f0a:	e8 21 18 01 00       	call   15730 <async_exchange_begin>
    3f0f:	89 c3                	mov    %eax,%ebx
    3f11:	85 c0                	test   %eax,%eax
    3f13:	0f 85 15 ff ff ff    	jne    3e2e <devman_fun_get_handle+0xae>
    3f19:	b8 fe ff ff ff       	mov    $0xfffffffe,%eax
    3f1e:	eb 97                	jmp    3eb7 <devman_fun_get_handle+0x137>
    3f20:	8b 45 0c             	mov    0xc(%ebp),%eax
    3f23:	85 c0                	test   %eax,%eax
    3f25:	74 08                	je     3f2f <devman_fun_get_handle+0x1af>
    3f27:	8b 55 0c             	mov    0xc(%ebp),%edx
    3f2a:	8b 45 c8             	mov    -0x38(%ebp),%eax
    3f2d:	89 02                	mov    %eax,(%edx)
    3f2f:	83 c4 5c             	add    $0x5c,%esp
    3f32:	31 c0                	xor    %eax,%eax
    3f34:	5b                   	pop    %ebx
    3f35:	5e                   	pop    %esi
    3f36:	5f                   	pop    %edi
    3f37:	5d                   	pop    %ebp
    3f38:	c3                   	ret    
    3f39:	8d b4 26 00 00 00 00 	lea    0x0(%esi,%eiz,1),%esi
    3f40:	c7 44 24 0c 00 00 00 	movl   $0x0,0xc(%esp)
    3f47:	00 
    3f48:	c7 44 24 08 02 00 00 	movl   $0x2,0x8(%esp)
    3f4f:	00 
    3f50:	c7 44 24 04 64 65 76 	movl   $0x6e766564,0x4(%esp)
    3f57:	6e 
    3f58:	c7 04 24 02 00 00 00 	movl   $0x2,(%esp)
    3f5f:	e8 1c eb 00 00       	call   12a80 <service_connect_blocking>
    3f64:	a3 60 4d 02 00       	mov    %eax,0x24d60
    3f69:	e9 3e fe ff ff       	jmp    3dac <devman_fun_get_handle+0x2c>
    3f6e:	66 90                	xchg   %ax,%ax
    3f70:	89 34 24             	mov    %esi,(%esp)
    3f73:	e8 78 05 01 00       	call   144f0 <async_forget>
    3f78:	8b 45 c0             	mov    -0x40(%ebp),%eax
    3f7b:	83 c4 5c             	add    $0x5c,%esp
    3f7e:	5b                   	pop    %ebx
    3f7f:	5e                   	pop    %esi
    3f80:	5f                   	pop    %edi
    3f81:	5d                   	pop    %ebp
    3f82:	c3                   	ret    
    3f83:	90                   	nop
    3f84:	8d 74 26 00          	lea    0x0(%esi,%eiz,1),%esi
    3f88:	85 db                	test   %ebx,%ebx
    3f8a:	0f 84 83 fe ff ff    	je     3e13 <devman_fun_get_handle+0x93>
    3f90:	89 1d 5c 4d 02 00    	mov    %ebx,0x24d5c
    3f96:	e9 78 fe ff ff       	jmp    3e13 <devman_fun_get_handle+0x93>
    3f9b:	c7 44 24 0c 00 00 00 	movl   $0x0,0xc(%esp)
    3fa2:	00 
    3fa3:	c7 44 24 08 02 00 00 	movl   $0x2,0x8(%esp)
    3faa:	00 
    3fab:	c7 44 24 04 64 65 76 	movl   $0x6e766564,0x4(%esp)
    3fb2:	6e 
    3fb3:	c7 04 24 02 00 00 00 	movl   $0x2,(%esp)
    3fba:	e8 41 ea 00 00       	call   12a00 <service_connect>
    3fbf:	a3 5c 4d 02 00       	mov    %eax,0x24d5c
    3fc4:	e9 29 ff ff ff       	jmp    3ef2 <devman_fun_get_handle+0x172>
    3fc9:	8d b4 26 00 00 00 00 	lea    0x0(%esi,%eiz,1),%esi

00003fd0 <devman_fun_get_path>:
    3fd0:	55                   	push   %ebp
    3fd1:	89 e5                	mov    %esp,%ebp
    3fd3:	57                   	push   %edi
    3fd4:	56                   	push   %esi
    3fd5:	53                   	push   %ebx
    3fd6:	83 ec 7c             	sub    $0x7c,%esp
    3fd9:	c7 04 24 20 4b 02 00 	movl   $0x24b20,(%esp)
    3fe0:	e8 2b 4f 00 00       	call   8f10 <fibril_mutex_lock>
    3fe5:	a1 60 4d 02 00       	mov    0x24d60,%eax
    3fea:	85 c0                	test   %eax,%eax
    3fec:	75 39                	jne    4027 <devman_fun_get_path+0x57>
    3fee:	c7 04 24 30 4b 02 00 	movl   $0x24b30,(%esp)
    3ff5:	8b 1d 5c 4d 02 00    	mov    0x24d5c,%ebx
    3ffb:	e8 10 4f 00 00       	call   8f10 <fibril_mutex_lock>
    4000:	8b 15 60 4d 02 00    	mov    0x24d60,%edx
    4006:	85 d2                	test   %edx,%edx
    4008:	0f 84 0a 01 00 00    	je     4118 <devman_fun_get_path+0x148>
    400e:	c7 04 24 30 4b 02 00 	movl   $0x24b30,(%esp)
    4015:	e8 16 50 00 00       	call   9030 <fibril_mutex_unlock>
    401a:	a1 60 4d 02 00       	mov    0x24d60,%eax
    401f:	85 c0                	test   %eax,%eax
    4021:	0f 84 09 01 00 00    	je     4130 <devman_fun_get_path+0x160>
    4027:	c7 04 24 20 4b 02 00 	movl   $0x24b20,(%esp)
    402e:	e8 fd 4f 00 00       	call   9030 <fibril_mutex_unlock>
    4033:	c7 04 24 30 4b 02 00 	movl   $0x24b30,(%esp)
    403a:	8b 1d 60 4d 02 00    	mov    0x24d60,%ebx
    4040:	e8 cb 4e 00 00       	call   8f10 <fibril_mutex_lock>
    4045:	a1 5c 4d 02 00       	mov    0x24d5c,%eax
    404a:	85 c0                	test   %eax,%eax
    404c:	0f 84 26 01 00 00    	je     4178 <devman_fun_get_path+0x1a8>
    4052:	c7 04 24 30 4b 02 00 	movl   $0x24b30,(%esp)
    4059:	e8 d2 4f 00 00       	call   9030 <fibril_mutex_unlock>
    405e:	a1 60 4d 02 00       	mov    0x24d60,%eax
    4063:	89 04 24             	mov    %eax,(%esp)
    4066:	e8 c5 16 01 00       	call   15730 <async_exchange_begin>
    406b:	c7 44 24 14 00 00 00 	movl   $0x0,0x14(%esp)
    4072:	00 
    4073:	89 c6                	mov    %eax,%esi
    4075:	8d 45 c4             	lea    -0x3c(%ebp),%eax
    4078:	89 44 24 18          	mov    %eax,0x18(%esp)
    407c:	8b 45 08             	mov    0x8(%ebp),%eax
    407f:	c7 44 24 10 00 00 00 	movl   $0x0,0x10(%esp)
    4086:	00 
    4087:	c7 44 24 0c 00 00 00 	movl   $0x0,0xc(%esp)
    408e:	00 
    408f:	89 44 24 08          	mov    %eax,0x8(%esp)
    4093:	c7 44 24 04 07 04 00 	movl   $0x407,0x4(%esp)
    409a:	00 
    409b:	89 34 24             	mov    %esi,(%esp)
    409e:	e8 2d 00 01 00       	call   140d0 <async_send_fast>
    40a3:	8b 5d 10             	mov    0x10(%ebp),%ebx
    40a6:	8b 55 0c             	mov    0xc(%ebp),%edx
    40a9:	4b                   	dec    %ebx
    40aa:	89 c7                	mov    %eax,%edi
    40ac:	8d 45 a0             	lea    -0x60(%ebp),%eax
    40af:	89 54 24 04          	mov    %edx,0x4(%esp)
    40b3:	89 44 24 0c          	mov    %eax,0xc(%esp)
    40b7:	89 5c 24 08          	mov    %ebx,0x8(%esp)
    40bb:	89 34 24             	mov    %esi,(%esp)
    40be:	e8 5d 1f 01 00       	call   16020 <async_data_read>
    40c3:	8d 4d 98             	lea    -0x68(%ebp),%ecx
    40c6:	89 04 24             	mov    %eax,(%esp)
    40c9:	89 4c 24 04          	mov    %ecx,0x4(%esp)
    40cd:	e8 ce 01 01 00       	call   142a0 <async_wait_for>
    40d2:	89 34 24             	mov    %esi,(%esp)
    40d5:	e8 c6 19 01 00       	call   15aa0 <async_exchange_end>
    40da:	8b 45 98             	mov    -0x68(%ebp),%eax
    40dd:	85 c0                	test   %eax,%eax
    40df:	75 7f                	jne    4160 <devman_fun_get_path+0x190>
    40e1:	8d 45 9c             	lea    -0x64(%ebp),%eax
    40e4:	89 3c 24             	mov    %edi,(%esp)
    40e7:	89 44 24 04          	mov    %eax,0x4(%esp)
    40eb:	e8 b0 01 01 00       	call   142a0 <async_wait_for>
    40f0:	8b 45 9c             	mov    -0x64(%ebp),%eax
    40f3:	85 c0                	test   %eax,%eax
    40f5:	75 14                	jne    410b <devman_fun_get_path+0x13b>
    40f7:	8b 45 a8             	mov    -0x58(%ebp),%eax
    40fa:	39 c3                	cmp    %eax,%ebx
    40fc:	0f 82 89 00 00 00    	jb     418b <devman_fun_get_path+0x1bb>
    4102:	8b 55 0c             	mov    0xc(%ebp),%edx
    4105:	c6 04 02 00          	movb   $0x0,(%edx,%eax,1)
    4109:	31 c0                	xor    %eax,%eax
    410b:	83 c4 7c             	add    $0x7c,%esp
    410e:	5b                   	pop    %ebx
    410f:	5e                   	pop    %esi
    4110:	5f                   	pop    %edi
    4111:	5d                   	pop    %ebp
    4112:	c3                   	ret    
    4113:	90                   	nop
    4114:	8d 74 26 00          	lea    0x0(%esi,%eiz,1),%esi
    4118:	85 db                	test   %ebx,%ebx
    411a:	0f 84 ee fe ff ff    	je     400e <devman_fun_get_path+0x3e>
    4120:	89 1d 60 4d 02 00    	mov    %ebx,0x24d60
    4126:	e9 e3 fe ff ff       	jmp    400e <devman_fun_get_path+0x3e>
    412b:	90                   	nop
    412c:	8d 74 26 00          	lea    0x0(%esi,%eiz,1),%esi
    4130:	c7 44 24 0c 00 00 00 	movl   $0x0,0xc(%esp)
    4137:	00 
    4138:	c7 44 24 08 02 00 00 	movl   $0x2,0x8(%esp)
    413f:	00 
    4140:	c7 44 24 04 64 65 76 	movl   $0x6e766564,0x4(%esp)
    4147:	6e 
    4148:	c7 04 24 02 00 00 00 	movl   $0x2,(%esp)
    414f:	e8 2c e9 00 00       	call   12a80 <service_connect_blocking>
    4154:	a3 60 4d 02 00       	mov    %eax,0x24d60
    4159:	e9 8c fe ff ff       	jmp    3fea <devman_fun_get_path+0x1a>
    415e:	66 90                	xchg   %ax,%ax
    4160:	89 3c 24             	mov    %edi,(%esp)
    4163:	e8 88 03 01 00       	call   144f0 <async_forget>
    4168:	8b 45 98             	mov    -0x68(%ebp),%eax
    416b:	83 c4 7c             	add    $0x7c,%esp
    416e:	5b                   	pop    %ebx
    416f:	5e                   	pop    %esi
    4170:	5f                   	pop    %edi
    4171:	5d                   	pop    %ebp
    4172:	c3                   	ret    
    4173:	90                   	nop
    4174:	8d 74 26 00          	lea    0x0(%esi,%eiz,1),%esi
    4178:	85 db                	test   %ebx,%ebx
    417a:	0f 84 d2 fe ff ff    	je     4052 <devman_fun_get_path+0x82>
    4180:	89 1d 5c 4d 02 00    	mov    %ebx,0x24d5c
    4186:	e9 c7 fe ff ff       	jmp    4052 <devman_fun_get_path+0x82>
    418b:	c7 44 24 08 b5 01 00 	movl   $0x1b5,0x8(%esp)
    4192:	00 
    4193:	c7 44 24 04 a7 1a 02 	movl   $0x21aa7,0x4(%esp)
    419a:	00 
    419b:	c7 04 24 b8 1a 02 00 	movl   $0x21ab8,(%esp)
    41a2:	e8 a9 88 01 00       	call   1ca50 <assert_abort>
    41a7:	89 f6                	mov    %esi,%esi
    41a9:	8d bc 27 00 00 00 00 	lea    0x0(%edi,%eiz,1),%edi

000041b0 <devman_fun_get_name>:
    41b0:	55                   	push   %ebp
    41b1:	89 e5                	mov    %esp,%ebp
    41b3:	57                   	push   %edi
    41b4:	56                   	push   %esi
    41b5:	53                   	push   %ebx
    41b6:	83 ec 7c             	sub    $0x7c,%esp
    41b9:	c7 04 24 20 4b 02 00 	movl   $0x24b20,(%esp)
    41c0:	e8 4b 4d 00 00       	call   8f10 <fibril_mutex_lock>
    41c5:	a1 60 4d 02 00       	mov    0x24d60,%eax
    41ca:	85 c0                	test   %eax,%eax
    41cc:	75 39                	jne    4207 <devman_fun_get_name+0x57>
    41ce:	c7 04 24 30 4b 02 00 	movl   $0x24b30,(%esp)
    41d5:	8b 1d 5c 4d 02 00    	mov    0x24d5c,%ebx
    41db:	e8 30 4d 00 00       	call   8f10 <fibril_mutex_lock>
    41e0:	a1 60 4d 02 00       	mov    0x24d60,%eax
    41e5:	85 c0                	test   %eax,%eax
    41e7:	0f 84 0b 01 00 00    	je     42f8 <devman_fun_get_name+0x148>
    41ed:	c7 04 24 30 4b 02 00 	movl   $0x24b30,(%esp)
    41f4:	e8 37 4e 00 00       	call   9030 <fibril_mutex_unlock>
    41f9:	8b 3d 60 4d 02 00    	mov    0x24d60,%edi
    41ff:	85 ff                	test   %edi,%edi
    4201:	0f 84 09 01 00 00    	je     4310 <devman_fun_get_name+0x160>
    4207:	c7 04 24 20 4b 02 00 	movl   $0x24b20,(%esp)
    420e:	e8 1d 4e 00 00       	call   9030 <fibril_mutex_unlock>
    4213:	c7 04 24 30 4b 02 00 	movl   $0x24b30,(%esp)
    421a:	8b 1d 60 4d 02 00    	mov    0x24d60,%ebx
    4220:	e8 eb 4c 00 00       	call   8f10 <fibril_mutex_lock>
    4225:	8b 35 5c 4d 02 00    	mov    0x24d5c,%esi
    422b:	85 f6                	test   %esi,%esi
    422d:	0f 84 25 01 00 00    	je     4358 <devman_fun_get_name+0x1a8>
    4233:	c7 04 24 30 4b 02 00 	movl   $0x24b30,(%esp)
    423a:	e8 f1 4d 00 00       	call   9030 <fibril_mutex_unlock>
    423f:	a1 60 4d 02 00       	mov    0x24d60,%eax
    4244:	89 04 24             	mov    %eax,(%esp)
    4247:	e8 e4 14 01 00       	call   15730 <async_exchange_begin>
    424c:	c7 44 24 14 00 00 00 	movl   $0x0,0x14(%esp)
    4253:	00 
    4254:	89 c6                	mov    %eax,%esi
    4256:	8d 45 c4             	lea    -0x3c(%ebp),%eax
    4259:	89 44 24 18          	mov    %eax,0x18(%esp)
    425d:	8b 45 08             	mov    0x8(%ebp),%eax
    4260:	c7 44 24 10 00 00 00 	movl   $0x0,0x10(%esp)
    4267:	00 
    4268:	c7 44 24 0c 00 00 00 	movl   $0x0,0xc(%esp)
    426f:	00 
    4270:	89 44 24 08          	mov    %eax,0x8(%esp)
    4274:	c7 44 24 04 03 04 00 	movl   $0x403,0x4(%esp)
    427b:	00 
    427c:	89 34 24             	mov    %esi,(%esp)
    427f:	e8 4c fe 00 00       	call   140d0 <async_send_fast>
    4284:	8b 5d 10             	mov    0x10(%ebp),%ebx
    4287:	8b 55 0c             	mov    0xc(%ebp),%edx
    428a:	4b                   	dec    %ebx
    428b:	89 c7                	mov    %eax,%edi
    428d:	8d 45 a0             	lea    -0x60(%ebp),%eax
    4290:	89 54 24 04          	mov    %edx,0x4(%esp)
    4294:	89 44 24 0c          	mov    %eax,0xc(%esp)
    4298:	89 5c 24 08          	mov    %ebx,0x8(%esp)
    429c:	89 34 24             	mov    %esi,(%esp)
    429f:	e8 7c 1d 01 00       	call   16020 <async_data_read>
    42a4:	8d 4d 98             	lea    -0x68(%ebp),%ecx
    42a7:	89 4c 24 04          	mov    %ecx,0x4(%esp)
    42ab:	89 04 24             	mov    %eax,(%esp)
    42ae:	e8 ed ff 00 00       	call   142a0 <async_wait_for>
    42b3:	89 34 24             	mov    %esi,(%esp)
    42b6:	e8 e5 17 01 00       	call   15aa0 <async_exchange_end>
    42bb:	8b 4d 98             	mov    -0x68(%ebp),%ecx
    42be:	85 c9                	test   %ecx,%ecx
    42c0:	75 7e                	jne    4340 <devman_fun_get_name+0x190>
    42c2:	8d 45 9c             	lea    -0x64(%ebp),%eax
    42c5:	89 3c 24             	mov    %edi,(%esp)
    42c8:	89 44 24 04          	mov    %eax,0x4(%esp)
    42cc:	e8 cf ff 00 00       	call   142a0 <async_wait_for>
    42d1:	8b 45 9c             	mov    -0x64(%ebp),%eax
    42d4:	85 c0                	test   %eax,%eax
    42d6:	75 14                	jne    42ec <devman_fun_get_name+0x13c>
    42d8:	8b 45 a8             	mov    -0x58(%ebp),%eax
    42db:	39 c3                	cmp    %eax,%ebx
    42dd:	0f 82 88 00 00 00    	jb     436b <devman_fun_get_name+0x1bb>
    42e3:	8b 55 0c             	mov    0xc(%ebp),%edx
    42e6:	c6 04 02 00          	movb   $0x0,(%edx,%eax,1)
    42ea:	31 c0                	xor    %eax,%eax
    42ec:	83 c4 7c             	add    $0x7c,%esp
    42ef:	5b                   	pop    %ebx
    42f0:	5e                   	pop    %esi
    42f1:	5f                   	pop    %edi
    42f2:	5d                   	pop    %ebp
    42f3:	c3                   	ret    
    42f4:	8d 74 26 00          	lea    0x0(%esi,%eiz,1),%esi
    42f8:	85 db                	test   %ebx,%ebx
    42fa:	0f 84 ed fe ff ff    	je     41ed <devman_fun_get_name+0x3d>
    4300:	89 1d 60 4d 02 00    	mov    %ebx,0x24d60
    4306:	e9 e2 fe ff ff       	jmp    41ed <devman_fun_get_name+0x3d>
    430b:	90                   	nop
    430c:	8d 74 26 00          	lea    0x0(%esi,%eiz,1),%esi
    4310:	c7 44 24 0c 00 00 00 	movl   $0x0,0xc(%esp)
    4317:	00 
    4318:	c7 44 24 08 02 00 00 	movl   $0x2,0x8(%esp)
    431f:	00 
    4320:	c7 44 24 04 64 65 76 	movl   $0x6e766564,0x4(%esp)
    4327:	6e 
    4328:	c7 04 24 02 00 00 00 	movl   $0x2,(%esp)
    432f:	e8 4c e7 00 00       	call   12a80 <service_connect_blocking>
    4334:	a3 60 4d 02 00       	mov    %eax,0x24d60
    4339:	e9 8c fe ff ff       	jmp    41ca <devman_fun_get_name+0x1a>
    433e:	66 90                	xchg   %ax,%ax
    4340:	89 3c 24             	mov    %edi,(%esp)
    4343:	e8 a8 01 01 00       	call   144f0 <async_forget>
    4348:	8b 45 98             	mov    -0x68(%ebp),%eax
    434b:	83 c4 7c             	add    $0x7c,%esp
    434e:	5b                   	pop    %ebx
    434f:	5e                   	pop    %esi
    4350:	5f                   	pop    %edi
    4351:	5d                   	pop    %ebp
    4352:	c3                   	ret    
    4353:	90                   	nop
    4354:	8d 74 26 00          	lea    0x0(%esi,%eiz,1),%esi
    4358:	85 db                	test   %ebx,%ebx
    435a:	0f 84 d3 fe ff ff    	je     4233 <devman_fun_get_name+0x83>
    4360:	89 1d 5c 4d 02 00    	mov    %ebx,0x24d5c
    4366:	e9 c8 fe ff ff       	jmp    4233 <devman_fun_get_name+0x83>
    436b:	c7 44 24 08 b5 01 00 	movl   $0x1b5,0x8(%esp)
    4372:	00 
    4373:	c7 44 24 04 a7 1a 02 	movl   $0x21aa7,0x4(%esp)
    437a:	00 
    437b:	c7 04 24 b8 1a 02 00 	movl   $0x21ab8,(%esp)
    4382:	e8 c9 86 01 00       	call   1ca50 <assert_abort>
    4387:	89 f6                	mov    %esi,%esi
    4389:	8d bc 27 00 00 00 00 	lea    0x0(%edi,%eiz,1),%edi

00004390 <devman_fun_get_driver_name>:
    4390:	55                   	push   %ebp
    4391:	89 e5                	mov    %esp,%ebp
    4393:	57                   	push   %edi
    4394:	56                   	push   %esi
    4395:	53                   	push   %ebx
    4396:	83 ec 7c             	sub    $0x7c,%esp
    4399:	c7 04 24 20 4b 02 00 	movl   $0x24b20,(%esp)
    43a0:	e8 6b 4b 00 00       	call   8f10 <fibril_mutex_lock>
    43a5:	a1 60 4d 02 00       	mov    0x24d60,%eax
    43aa:	85 c0                	test   %eax,%eax
    43ac:	75 38                	jne    43e6 <devman_fun_get_driver_name+0x56>
    43ae:	c7 04 24 30 4b 02 00 	movl   $0x24b30,(%esp)
    43b5:	8b 1d 5c 4d 02 00    	mov    0x24d5c,%ebx
    43bb:	e8 50 4b 00 00       	call   8f10 <fibril_mutex_lock>
    43c0:	a1 60 4d 02 00       	mov    0x24d60,%eax
    43c5:	85 c0                	test   %eax,%eax
    43c7:	0f 84 0b 01 00 00    	je     44d8 <devman_fun_get_driver_name+0x148>
    43cd:	c7 04 24 30 4b 02 00 	movl   $0x24b30,(%esp)
    43d4:	e8 57 4c 00 00       	call   9030 <fibril_mutex_unlock>
    43d9:	a1 60 4d 02 00       	mov    0x24d60,%eax
    43de:	85 c0                	test   %eax,%eax
    43e0:	0f 84 0a 01 00 00    	je     44f0 <devman_fun_get_driver_name+0x160>
    43e6:	c7 04 24 20 4b 02 00 	movl   $0x24b20,(%esp)
    43ed:	e8 3e 4c 00 00       	call   9030 <fibril_mutex_unlock>
    43f2:	c7 04 24 30 4b 02 00 	movl   $0x24b30,(%esp)
    43f9:	8b 1d 60 4d 02 00    	mov    0x24d60,%ebx
    43ff:	e8 0c 4b 00 00       	call   8f10 <fibril_mutex_lock>
    4404:	a1 5c 4d 02 00       	mov    0x24d5c,%eax
    4409:	85 c0                	test   %eax,%eax
    440b:	0f 84 27 01 00 00    	je     4538 <devman_fun_get_driver_name+0x1a8>
    4411:	c7 04 24 30 4b 02 00 	movl   $0x24b30,(%esp)
    4418:	e8 13 4c 00 00       	call   9030 <fibril_mutex_unlock>
    441d:	a1 60 4d 02 00       	mov    0x24d60,%eax
    4422:	89 04 24             	mov    %eax,(%esp)
    4425:	e8 06 13 01 00       	call   15730 <async_exchange_begin>
    442a:	c7 44 24 14 00 00 00 	movl   $0x0,0x14(%esp)
    4431:	00 
    4432:	89 c6                	mov    %eax,%esi
    4434:	8d 45 c4             	lea    -0x3c(%ebp),%eax
    4437:	89 44 24 18          	mov    %eax,0x18(%esp)
    443b:	8b 45 08             	mov    0x8(%ebp),%eax
    443e:	c7 44 24 10 00 00 00 	movl   $0x0,0x10(%esp)
    4445:	00 
    4446:	c7 44 24 0c 00 00 00 	movl   $0x0,0xc(%esp)
    444d:	00 
    444e:	89 44 24 08          	mov    %eax,0x8(%esp)
    4452:	c7 44 24 04 04 04 00 	movl   $0x404,0x4(%esp)
    4459:	00 
    445a:	89 34 24             	mov    %esi,(%esp)
    445d:	e8 6e fc 00 00       	call   140d0 <async_send_fast>
    4462:	8b 5d 10             	mov    0x10(%ebp),%ebx
    4465:	8b 55 0c             	mov    0xc(%ebp),%edx
    4468:	4b                   	dec    %ebx
    4469:	89 c7                	mov    %eax,%edi
    446b:	8d 45 a0             	lea    -0x60(%ebp),%eax
    446e:	89 54 24 04          	mov    %edx,0x4(%esp)
    4472:	89 44 24 0c          	mov    %eax,0xc(%esp)
    4476:	89 5c 24 08          	mov    %ebx,0x8(%esp)
    447a:	89 34 24             	mov    %esi,(%esp)
    447d:	e8 9e 1b 01 00       	call   16020 <async_data_read>
    4482:	8d 4d 98             	lea    -0x68(%ebp),%ecx
    4485:	89 04 24             	mov    %eax,(%esp)
    4488:	89 4c 24 04          	mov    %ecx,0x4(%esp)
    448c:	e8 0f fe 00 00       	call   142a0 <async_wait_for>
    4491:	89 34 24             	mov    %esi,(%esp)
    4494:	e8 07 16 01 00       	call   15aa0 <async_exchange_end>
    4499:	8b 45 98             	mov    -0x68(%ebp),%eax
    449c:	85 c0                	test   %eax,%eax
    449e:	0f 85 7c 00 00 00    	jne    4520 <devman_fun_get_driver_name+0x190>
    44a4:	8d 45 9c             	lea    -0x64(%ebp),%eax
    44a7:	89 3c 24             	mov    %edi,(%esp)
    44aa:	89 44 24 04          	mov    %eax,0x4(%esp)
    44ae:	e8 ed fd 00 00       	call   142a0 <async_wait_for>
    44b3:	8b 45 9c             	mov    -0x64(%ebp),%eax
    44b6:	85 c0                	test   %eax,%eax
    44b8:	75 14                	jne    44ce <devman_fun_get_driver_name+0x13e>
    44ba:	8b 45 a8             	mov    -0x58(%ebp),%eax
    44bd:	39 c3                	cmp    %eax,%ebx
    44bf:	0f 82 86 00 00 00    	jb     454b <devman_fun_get_driver_name+0x1bb>
    44c5:	8b 55 0c             	mov    0xc(%ebp),%edx
    44c8:	c6 04 02 00          	movb   $0x0,(%edx,%eax,1)
    44cc:	31 c0                	xor    %eax,%eax
    44ce:	83 c4 7c             	add    $0x7c,%esp
    44d1:	5b                   	pop    %ebx
    44d2:	5e                   	pop    %esi
    44d3:	5f                   	pop    %edi
    44d4:	5d                   	pop    %ebp
    44d5:	c3                   	ret    
    44d6:	66 90                	xchg   %ax,%ax
    44d8:	85 db                	test   %ebx,%ebx
    44da:	0f 84 ed fe ff ff    	je     43cd <devman_fun_get_driver_name+0x3d>
    44e0:	89 1d 60 4d 02 00    	mov    %ebx,0x24d60
    44e6:	e9 e2 fe ff ff       	jmp    43cd <devman_fun_get_driver_name+0x3d>
    44eb:	90                   	nop
    44ec:	8d 74 26 00          	lea    0x0(%esi,%eiz,1),%esi
    44f0:	c7 44 24 0c 00 00 00 	movl   $0x0,0xc(%esp)
    44f7:	00 
    44f8:	c7 44 24 08 02 00 00 	movl   $0x2,0x8(%esp)
    44ff:	00 
    4500:	c7 44 24 04 64 65 76 	movl   $0x6e766564,0x4(%esp)
    4507:	6e 
    4508:	c7 04 24 02 00 00 00 	movl   $0x2,(%esp)
    450f:	e8 6c e5 00 00       	call   12a80 <service_connect_blocking>
    4514:	a3 60 4d 02 00       	mov    %eax,0x24d60
    4519:	e9 8c fe ff ff       	jmp    43aa <devman_fun_get_driver_name+0x1a>
    451e:	66 90                	xchg   %ax,%ax
    4520:	89 3c 24             	mov    %edi,(%esp)
    4523:	e8 c8 ff 00 00       	call   144f0 <async_forget>
    4528:	8b 45 98             	mov    -0x68(%ebp),%eax
    452b:	83 c4 7c             	add    $0x7c,%esp
    452e:	5b                   	pop    %ebx
    452f:	5e                   	pop    %esi
    4530:	5f                   	pop    %edi
    4531:	5d                   	pop    %ebp
    4532:	c3                   	ret    
    4533:	90                   	nop
    4534:	8d 74 26 00          	lea    0x0(%esi,%eiz,1),%esi
    4538:	85 db                	test   %ebx,%ebx
    453a:	0f 84 d1 fe ff ff    	je     4411 <devman_fun_get_driver_name+0x81>
    4540:	89 1d 5c 4d 02 00    	mov    %ebx,0x24d5c
    4546:	e9 c6 fe ff ff       	jmp    4411 <devman_fun_get_driver_name+0x81>
    454b:	c7 44 24 08 b5 01 00 	movl   $0x1b5,0x8(%esp)
    4552:	00 
    4553:	c7 44 24 04 a7 1a 02 	movl   $0x21aa7,0x4(%esp)
    455a:	00 
    455b:	c7 04 24 b8 1a 02 00 	movl   $0x21ab8,(%esp)
    4562:	e8 e9 84 01 00       	call   1ca50 <assert_abort>
    4567:	89 f6                	mov    %esi,%esi
    4569:	8d bc 27 00 00 00 00 	lea    0x0(%edi,%eiz,1),%edi

00004570 <devman_fun_online>:
    4570:	55                   	push   %ebp
    4571:	89 e5                	mov    %esp,%ebp
    4573:	56                   	push   %esi
    4574:	53                   	push   %ebx
    4575:	83 ec 30             	sub    $0x30,%esp
    4578:	c7 04 24 30 4b 02 00 	movl   $0x24b30,(%esp)
    457f:	e8 8c 49 00 00       	call   8f10 <fibril_mutex_lock>
    4584:	a1 5c 4d 02 00       	mov    0x24d5c,%eax
    4589:	85 c0                	test   %eax,%eax
    458b:	0f 84 97 00 00 00    	je     4628 <devman_fun_online+0xb8>
    4591:	c7 04 24 30 4b 02 00 	movl   $0x24b30,(%esp)
    4598:	e8 93 4a 00 00       	call   9030 <fibril_mutex_unlock>
    459d:	a1 5c 4d 02 00       	mov    0x24d5c,%eax
    45a2:	85 c0                	test   %eax,%eax
    45a4:	0f 84 ae 00 00 00    	je     4658 <devman_fun_online+0xe8>
    45aa:	89 04 24             	mov    %eax,(%esp)
    45ad:	e8 7e 11 01 00       	call   15730 <async_exchange_begin>
    45b2:	89 c3                	mov    %eax,%ebx
    45b4:	85 c0                	test   %eax,%eax
    45b6:	0f 84 9c 00 00 00    	je     4658 <devman_fun_online+0xe8>
    45bc:	8b 45 08             	mov    0x8(%ebp),%eax
    45bf:	c7 44 24 28 00 00 00 	movl   $0x0,0x28(%esp)
    45c6:	00 
    45c7:	c7 44 24 24 00 00 00 	movl   $0x0,0x24(%esp)
    45ce:	00 
    45cf:	c7 44 24 20 00 00 00 	movl   $0x0,0x20(%esp)
    45d6:	00 
    45d7:	c7 44 24 1c 00 00 00 	movl   $0x0,0x1c(%esp)
    45de:	00 
    45df:	c7 44 24 18 00 00 00 	movl   $0x0,0x18(%esp)
    45e6:	00 
    45e7:	c7 44 24 14 00 00 00 	movl   $0x0,0x14(%esp)
    45ee:	00 
    45ef:	c7 44 24 10 00 00 00 	movl   $0x0,0x10(%esp)
    45f6:	00 
    45f7:	c7 44 24 0c 00 00 00 	movl   $0x0,0xc(%esp)
    45fe:	00 
    45ff:	89 44 24 08          	mov    %eax,0x8(%esp)
    4603:	c7 44 24 04 05 04 00 	movl   $0x405,0x4(%esp)
    460a:	00 
    460b:	89 1c 24             	mov    %ebx,(%esp)
    460e:	e8 cd 00 01 00       	call   146e0 <async_req_fast>
    4613:	89 1c 24             	mov    %ebx,(%esp)
    4616:	89 c6                	mov    %eax,%esi
    4618:	e8 83 14 01 00       	call   15aa0 <async_exchange_end>
    461d:	89 f0                	mov    %esi,%eax
    461f:	83 c4 30             	add    $0x30,%esp
    4622:	5b                   	pop    %ebx
    4623:	5e                   	pop    %esi
    4624:	5d                   	pop    %ebp
    4625:	c3                   	ret    
    4626:	66 90                	xchg   %ax,%ax
    4628:	c7 44 24 0c 00 00 00 	movl   $0x0,0xc(%esp)
    462f:	00 
    4630:	c7 44 24 08 02 00 00 	movl   $0x2,0x8(%esp)
    4637:	00 
    4638:	c7 44 24 04 64 65 76 	movl   $0x6e766564,0x4(%esp)
    463f:	6e 
    4640:	c7 04 24 02 00 00 00 	movl   $0x2,(%esp)
    4647:	e8 b4 e3 00 00       	call   12a00 <service_connect>
    464c:	a3 5c 4d 02 00       	mov    %eax,0x24d5c
    4651:	e9 3b ff ff ff       	jmp    4591 <devman_fun_online+0x21>
    4656:	66 90                	xchg   %ax,%ax
    4658:	b8 fe ff ff ff       	mov    $0xfffffffe,%eax
    465d:	eb c0                	jmp    461f <devman_fun_online+0xaf>
    465f:	90                   	nop

00004660 <devman_fun_offline>:
    4660:	55                   	push   %ebp
    4661:	89 e5                	mov    %esp,%ebp
    4663:	56                   	push   %esi
    4664:	53                   	push   %ebx
    4665:	83 ec 30             	sub    $0x30,%esp
    4668:	c7 04 24 30 4b 02 00 	movl   $0x24b30,(%esp)
    466f:	e8 9c 48 00 00       	call   8f10 <fibril_mutex_lock>
    4674:	8b 15 5c 4d 02 00    	mov    0x24d5c,%edx
    467a:	85 d2                	test   %edx,%edx
    467c:	0f 84 96 00 00 00    	je     4718 <devman_fun_offline+0xb8>
    4682:	c7 04 24 30 4b 02 00 	movl   $0x24b30,(%esp)
    4689:	e8 a2 49 00 00       	call   9030 <fibril_mutex_unlock>
    468e:	a1 5c 4d 02 00       	mov    0x24d5c,%eax
    4693:	85 c0                	test   %eax,%eax
    4695:	0f 84 ad 00 00 00    	je     4748 <devman_fun_offline+0xe8>
    469b:	89 04 24             	mov    %eax,(%esp)
    469e:	e8 8d 10 01 00       	call   15730 <async_exchange_begin>
    46a3:	89 c3                	mov    %eax,%ebx
    46a5:	85 c0                	test   %eax,%eax
    46a7:	0f 84 9b 00 00 00    	je     4748 <devman_fun_offline+0xe8>
    46ad:	8b 45 08             	mov    0x8(%ebp),%eax
    46b0:	c7 44 24 28 00 00 00 	movl   $0x0,0x28(%esp)
    46b7:	00 
    46b8:	c7 44 24 24 00 00 00 	movl   $0x0,0x24(%esp)
    46bf:	00 
    46c0:	c7 44 24 20 00 00 00 	movl   $0x0,0x20(%esp)
    46c7:	00 
    46c8:	c7 44 24 1c 00 00 00 	movl   $0x0,0x1c(%esp)
    46cf:	00 
    46d0:	c7 44 24 18 00 00 00 	movl   $0x0,0x18(%esp)
    46d7:	00 
    46d8:	c7 44 24 14 00 00 00 	movl   $0x0,0x14(%esp)
    46df:	00 
    46e0:	c7 44 24 10 00 00 00 	movl   $0x0,0x10(%esp)
    46e7:	00 
    46e8:	c7 44 24 0c 00 00 00 	movl   $0x0,0xc(%esp)
    46ef:	00 
    46f0:	89 44 24 08          	mov    %eax,0x8(%esp)
    46f4:	c7 44 24 04 06 04 00 	movl   $0x406,0x4(%esp)
    46fb:	00 
    46fc:	89 1c 24             	mov    %ebx,(%esp)
    46ff:	e8 dc ff 00 00       	call   146e0 <async_req_fast>
    4704:	89 1c 24             	mov    %ebx,(%esp)
    4707:	89 c6                	mov    %eax,%esi
    4709:	e8 92 13 01 00       	call   15aa0 <async_exchange_end>
    470e:	89 f0                	mov    %esi,%eax
    4710:	83 c4 30             	add    $0x30,%esp
    4713:	5b                   	pop    %ebx
    4714:	5e                   	pop    %esi
    4715:	5d                   	pop    %ebp
    4716:	c3                   	ret    
    4717:	90                   	nop
    4718:	c7 44 24 0c 00 00 00 	movl   $0x0,0xc(%esp)
    471f:	00 
    4720:	c7 44 24 08 02 00 00 	movl   $0x2,0x8(%esp)
    4727:	00 
    4728:	c7 44 24 04 64 65 76 	movl   $0x6e766564,0x4(%esp)
    472f:	6e 
    4730:	c7 04 24 02 00 00 00 	movl   $0x2,(%esp)
    4737:	e8 c4 e2 00 00       	call   12a00 <service_connect>
    473c:	a3 5c 4d 02 00       	mov    %eax,0x24d5c
    4741:	e9 3c ff ff ff       	jmp    4682 <devman_fun_offline+0x22>
    4746:	66 90                	xchg   %ax,%ax
    4748:	b8 fe ff ff ff       	mov    $0xfffffffe,%eax
    474d:	eb c1                	jmp    4710 <devman_fun_offline+0xb0>
    474f:	90                   	nop

00004750 <devman_fun_get_child>:
    4750:	55                   	push   %ebp
    4751:	89 e5                	mov    %esp,%ebp
    4753:	56                   	push   %esi
    4754:	53                   	push   %ebx
    4755:	83 ec 30             	sub    $0x30,%esp
    4758:	c7 04 24 30 4b 02 00 	movl   $0x24b30,(%esp)
    475f:	e8 ac 47 00 00       	call   8f10 <fibril_mutex_lock>
    4764:	8b 0d 5c 4d 02 00    	mov    0x24d5c,%ecx
    476a:	85 c9                	test   %ecx,%ecx
    476c:	0f 84 96 00 00 00    	je     4808 <devman_fun_get_child+0xb8>
    4772:	c7 04 24 30 4b 02 00 	movl   $0x24b30,(%esp)
    4779:	e8 b2 48 00 00       	call   9030 <fibril_mutex_unlock>
    477e:	a1 5c 4d 02 00       	mov    0x24d5c,%eax
    4783:	85 c0                	test   %eax,%eax
    4785:	0f 84 ad 00 00 00    	je     4838 <devman_fun_get_child+0xe8>
    478b:	89 04 24             	mov    %eax,(%esp)
    478e:	e8 9d 0f 01 00       	call   15730 <async_exchange_begin>
    4793:	89 c3                	mov    %eax,%ebx
    4795:	85 c0                	test   %eax,%eax
    4797:	0f 84 9b 00 00 00    	je     4838 <devman_fun_get_child+0xe8>
    479d:	8b 45 0c             	mov    0xc(%ebp),%eax
    47a0:	c7 44 24 28 00 00 00 	movl   $0x0,0x28(%esp)
    47a7:	00 
    47a8:	89 44 24 18          	mov    %eax,0x18(%esp)
    47ac:	8b 45 08             	mov    0x8(%ebp),%eax
    47af:	c7 44 24 24 00 00 00 	movl   $0x0,0x24(%esp)
    47b6:	00 
    47b7:	c7 44 24 20 00 00 00 	movl   $0x0,0x20(%esp)
    47be:	00 
    47bf:	c7 44 24 1c 00 00 00 	movl   $0x0,0x1c(%esp)
    47c6:	00 
    47c7:	c7 44 24 14 00 00 00 	movl   $0x0,0x14(%esp)
    47ce:	00 
    47cf:	c7 44 24 10 00 00 00 	movl   $0x0,0x10(%esp)
    47d6:	00 
    47d7:	c7 44 24 0c 00 00 00 	movl   $0x0,0xc(%esp)
    47de:	00 
    47df:	89 44 24 08          	mov    %eax,0x8(%esp)
    47e3:	c7 44 24 04 02 04 00 	movl   $0x402,0x4(%esp)
    47ea:	00 
    47eb:	89 1c 24             	mov    %ebx,(%esp)
    47ee:	e8 ed fe 00 00       	call   146e0 <async_req_fast>
    47f3:	89 1c 24             	mov    %ebx,(%esp)
    47f6:	89 c6                	mov    %eax,%esi
    47f8:	e8 a3 12 01 00       	call   15aa0 <async_exchange_end>
    47fd:	89 f0                	mov    %esi,%eax
    47ff:	83 c4 30             	add    $0x30,%esp
    4802:	5b                   	pop    %ebx
    4803:	5e                   	pop    %esi
    4804:	5d                   	pop    %ebp
    4805:	c3                   	ret    
    4806:	66 90                	xchg   %ax,%ax
    4808:	c7 44 24 0c 00 00 00 	movl   $0x0,0xc(%esp)
    480f:	00 
    4810:	c7 44 24 08 02 00 00 	movl   $0x2,0x8(%esp)
    4817:	00 
    4818:	c7 44 24 04 64 65 76 	movl   $0x6e766564,0x4(%esp)
    481f:	6e 
    4820:	c7 04 24 02 00 00 00 	movl   $0x2,(%esp)
    4827:	e8 d4 e1 00 00       	call   12a00 <service_connect>
    482c:	a3 5c 4d 02 00       	mov    %eax,0x24d5c
    4831:	e9 3c ff ff ff       	jmp    4772 <devman_fun_get_child+0x22>
    4836:	66 90                	xchg   %ax,%ax
    4838:	b8 fe ff ff ff       	mov    $0xfffffffe,%eax
    483d:	eb c0                	jmp    47ff <devman_fun_get_child+0xaf>
    483f:	90                   	nop

00004840 <devman_dev_get_functions>:
    4840:	55                   	push   %ebp
    4841:	89 e5                	mov    %esp,%ebp
    4843:	57                   	push   %edi
    4844:	56                   	push   %esi
    4845:	53                   	push   %ebx
    4846:	83 ec 6c             	sub    $0x6c,%esp
    4849:	8b 55 0c             	mov    0xc(%ebp),%edx
    484c:	c7 02 00 00 00 00    	movl   $0x0,(%edx)
    4852:	c7 04 24 20 4b 02 00 	movl   $0x24b20,(%esp)
    4859:	e8 b2 46 00 00       	call   8f10 <fibril_mutex_lock>
    485e:	a1 60 4d 02 00       	mov    0x24d60,%eax
    4863:	85 c0                	test   %eax,%eax
    4865:	75 38                	jne    489f <devman_dev_get_functions+0x5f>
    4867:	c7 04 24 30 4b 02 00 	movl   $0x24b30,(%esp)
    486e:	8b 1d 5c 4d 02 00    	mov    0x24d5c,%ebx
    4874:	e8 97 46 00 00       	call   8f10 <fibril_mutex_lock>
    4879:	a1 60 4d 02 00       	mov    0x24d60,%eax
    487e:	85 c0                	test   %eax,%eax
    4880:	0f 84 4a 02 00 00    	je     4ad0 <devman_dev_get_functions+0x290>
    4886:	c7 04 24 30 4b 02 00 	movl   $0x24b30,(%esp)
    488d:	e8 9e 47 00 00       	call   9030 <fibril_mutex_unlock>
    4892:	a1 60 4d 02 00       	mov    0x24d60,%eax
    4897:	85 c0                	test   %eax,%eax
    4899:	0f 84 49 02 00 00    	je     4ae8 <devman_dev_get_functions+0x2a8>
    489f:	c7 04 24 20 4b 02 00 	movl   $0x24b20,(%esp)
    48a6:	e8 85 47 00 00       	call   9030 <fibril_mutex_unlock>
    48ab:	c7 04 24 30 4b 02 00 	movl   $0x24b30,(%esp)
    48b2:	8b 1d 60 4d 02 00    	mov    0x24d60,%ebx
    48b8:	e8 53 46 00 00       	call   8f10 <fibril_mutex_lock>
    48bd:	a1 5c 4d 02 00       	mov    0x24d5c,%eax
    48c2:	85 c0                	test   %eax,%eax
    48c4:	0f 84 c5 02 00 00    	je     4b8f <devman_dev_get_functions+0x34f>
    48ca:	c7 04 24 30 4b 02 00 	movl   $0x24b30,(%esp)
    48d1:	e8 5a 47 00 00       	call   9030 <fibril_mutex_unlock>
    48d6:	a1 60 4d 02 00       	mov    0x24d60,%eax
    48db:	89 04 24             	mov    %eax,(%esp)
    48de:	e8 4d 0e 01 00       	call   15730 <async_exchange_begin>
    48e3:	8b 55 08             	mov    0x8(%ebp),%edx
    48e6:	89 c6                	mov    %eax,%esi
    48e8:	8d 45 c4             	lea    -0x3c(%ebp),%eax
    48eb:	89 54 24 08          	mov    %edx,0x8(%esp)
    48ef:	89 44 24 18          	mov    %eax,0x18(%esp)
    48f3:	c7 44 24 14 00 00 00 	movl   $0x0,0x14(%esp)
    48fa:	00 
    48fb:	c7 44 24 10 00 00 00 	movl   $0x0,0x10(%esp)
    4902:	00 
    4903:	c7 44 24 0c 00 00 00 	movl   $0x0,0xc(%esp)
    490a:	00 
    490b:	c7 44 24 04 01 04 00 	movl   $0x401,0x4(%esp)
    4912:	00 
    4913:	89 34 24             	mov    %esi,(%esp)
    4916:	e8 b5 f7 00 00       	call   140d0 <async_send_fast>
    491b:	c7 44 24 08 00 00 00 	movl   $0x0,0x8(%esp)
    4922:	00 
    4923:	c7 44 24 04 00 00 00 	movl   $0x0,0x4(%esp)
    492a:	00 
    492b:	89 34 24             	mov    %esi,(%esp)
    492e:	89 c7                	mov    %eax,%edi
    4930:	e8 cb 17 01 00       	call   16100 <async_data_read_start>
    4935:	89 34 24             	mov    %esi,(%esp)
    4938:	89 c3                	mov    %eax,%ebx
    493a:	e8 61 11 01 00       	call   15aa0 <async_exchange_end>
    493f:	85 db                	test   %ebx,%ebx
    4941:	0f 85 2c 02 00 00    	jne    4b73 <devman_dev_get_functions+0x333>
    4947:	8d 45 c0             	lea    -0x40(%ebp),%eax
    494a:	89 3c 24             	mov    %edi,(%esp)
    494d:	89 44 24 04          	mov    %eax,0x4(%esp)
    4951:	e8 4a f9 00 00       	call   142a0 <async_wait_for>
    4956:	8b 45 c0             	mov    -0x40(%ebp),%eax
    4959:	85 c0                	test   %eax,%eax
    495b:	0f 85 61 01 00 00    	jne    4ac2 <devman_dev_get_functions+0x282>
    4961:	8b 75 c8             	mov    -0x38(%ebp),%esi
    4964:	e9 f9 00 00 00       	jmp    4a62 <devman_dev_get_functions+0x222>
    4969:	8d b4 26 00 00 00 00 	lea    0x0(%esi,%eiz,1),%esi
    4970:	c7 04 24 30 4b 02 00 	movl   $0x24b30,(%esp)
    4977:	e8 b4 46 00 00       	call   9030 <fibril_mutex_unlock>
    497c:	a1 60 4d 02 00       	mov    0x24d60,%eax
    4981:	85 c0                	test   %eax,%eax
    4983:	0f 84 8f 01 00 00    	je     4b18 <devman_dev_get_functions+0x2d8>
    4989:	c7 04 24 20 4b 02 00 	movl   $0x24b20,(%esp)
    4990:	e8 9b 46 00 00       	call   9030 <fibril_mutex_unlock>
    4995:	c7 04 24 30 4b 02 00 	movl   $0x24b30,(%esp)
    499c:	8b 1d 60 4d 02 00    	mov    0x24d60,%ebx
    49a2:	e8 69 45 00 00       	call   8f10 <fibril_mutex_lock>
    49a7:	a1 5c 4d 02 00       	mov    0x24d5c,%eax
    49ac:	85 c0                	test   %eax,%eax
    49ae:	0f 84 ac 01 00 00    	je     4b60 <devman_dev_get_functions+0x320>
    49b4:	c7 04 24 30 4b 02 00 	movl   $0x24b30,(%esp)
    49bb:	e8 70 46 00 00       	call   9030 <fibril_mutex_unlock>
    49c0:	a1 60 4d 02 00       	mov    0x24d60,%eax
    49c5:	89 04 24             	mov    %eax,(%esp)
    49c8:	e8 63 0d 01 00       	call   15730 <async_exchange_begin>
    49cd:	8d 55 c4             	lea    -0x3c(%ebp),%edx
    49d0:	89 54 24 18          	mov    %edx,0x18(%esp)
    49d4:	8b 55 08             	mov    0x8(%ebp),%edx
    49d7:	89 54 24 08          	mov    %edx,0x8(%esp)
    49db:	c7 44 24 14 00 00 00 	movl   $0x0,0x14(%esp)
    49e2:	00 
    49e3:	c7 44 24 10 00 00 00 	movl   $0x0,0x10(%esp)
    49ea:	00 
    49eb:	c7 44 24 0c 00 00 00 	movl   $0x0,0xc(%esp)
    49f2:	00 
    49f3:	c7 44 24 04 01 04 00 	movl   $0x401,0x4(%esp)
    49fa:	00 
    49fb:	89 04 24             	mov    %eax,(%esp)
    49fe:	89 c3                	mov    %eax,%ebx
    4a00:	e8 cb f6 00 00       	call   140d0 <async_send_fast>
    4a05:	89 74 24 08          	mov    %esi,0x8(%esp)
    4a09:	89 7c 24 04          	mov    %edi,0x4(%esp)
    4a0d:	89 1c 24             	mov    %ebx,(%esp)
    4a10:	89 45 b4             	mov    %eax,-0x4c(%ebp)
    4a13:	e8 e8 16 01 00       	call   16100 <async_data_read_start>
    4a18:	89 1c 24             	mov    %ebx,(%esp)
    4a1b:	89 45 b0             	mov    %eax,-0x50(%ebp)
    4a1e:	e8 7d 10 01 00       	call   15aa0 <async_exchange_end>
    4a23:	8b 45 b0             	mov    -0x50(%ebp),%eax
    4a26:	85 c0                	test   %eax,%eax
    4a28:	0f 85 1a 01 00 00    	jne    4b48 <devman_dev_get_functions+0x308>
    4a2e:	8d 55 c0             	lea    -0x40(%ebp),%edx
    4a31:	89 45 b0             	mov    %eax,-0x50(%ebp)
    4a34:	89 54 24 04          	mov    %edx,0x4(%esp)
    4a38:	8b 55 b4             	mov    -0x4c(%ebp),%edx
    4a3b:	89 14 24             	mov    %edx,(%esp)
    4a3e:	e8 5d f8 00 00       	call   142a0 <async_wait_for>
    4a43:	8b 55 c0             	mov    -0x40(%ebp),%edx
    4a46:	85 d2                	test   %edx,%edx
    4a48:	8b 45 b0             	mov    -0x50(%ebp),%eax
    4a4b:	75 73                	jne    4ac0 <devman_dev_get_functions+0x280>
    4a4d:	8b 55 c8             	mov    -0x38(%ebp),%edx
    4a50:	39 d6                	cmp    %edx,%esi
    4a52:	0f 83 4a 01 00 00    	jae    4ba2 <devman_dev_get_functions+0x362>
    4a58:	89 3c 24             	mov    %edi,(%esp)
    4a5b:	01 f6                	add    %esi,%esi
    4a5d:	e8 9e d8 00 00       	call   12300 <free>
    4a62:	89 34 24             	mov    %esi,(%esp)
    4a65:	e8 86 d7 00 00       	call   121f0 <malloc>
    4a6a:	89 c7                	mov    %eax,%edi
    4a6c:	85 c0                	test   %eax,%eax
    4a6e:	0f 84 11 01 00 00    	je     4b85 <devman_dev_get_functions+0x345>
    4a74:	c7 04 24 20 4b 02 00 	movl   $0x24b20,(%esp)
    4a7b:	e8 90 44 00 00       	call   8f10 <fibril_mutex_lock>
    4a80:	a1 60 4d 02 00       	mov    0x24d60,%eax
    4a85:	85 c0                	test   %eax,%eax
    4a87:	0f 85 fc fe ff ff    	jne    4989 <devman_dev_get_functions+0x149>
    4a8d:	c7 04 24 30 4b 02 00 	movl   $0x24b30,(%esp)
    4a94:	8b 1d 5c 4d 02 00    	mov    0x24d5c,%ebx
    4a9a:	e8 71 44 00 00       	call   8f10 <fibril_mutex_lock>
    4a9f:	a1 60 4d 02 00       	mov    0x24d60,%eax
    4aa4:	85 c0                	test   %eax,%eax
    4aa6:	0f 85 c4 fe ff ff    	jne    4970 <devman_dev_get_functions+0x130>
    4aac:	85 db                	test   %ebx,%ebx
    4aae:	0f 84 bc fe ff ff    	je     4970 <devman_dev_get_functions+0x130>
    4ab4:	89 1d 60 4d 02 00    	mov    %ebx,0x24d60
    4aba:	e9 b1 fe ff ff       	jmp    4970 <devman_dev_get_functions+0x130>
    4abf:	90                   	nop
    4ac0:	89 d0                	mov    %edx,%eax
    4ac2:	89 c3                	mov    %eax,%ebx
    4ac4:	83 c4 6c             	add    $0x6c,%esp
    4ac7:	89 d8                	mov    %ebx,%eax
    4ac9:	5b                   	pop    %ebx
    4aca:	5e                   	pop    %esi
    4acb:	5f                   	pop    %edi
    4acc:	5d                   	pop    %ebp
    4acd:	c3                   	ret    
    4ace:	66 90                	xchg   %ax,%ax
    4ad0:	85 db                	test   %ebx,%ebx
    4ad2:	0f 84 ae fd ff ff    	je     4886 <devman_dev_get_functions+0x46>
    4ad8:	89 1d 60 4d 02 00    	mov    %ebx,0x24d60
    4ade:	e9 a3 fd ff ff       	jmp    4886 <devman_dev_get_functions+0x46>
    4ae3:	90                   	nop
    4ae4:	8d 74 26 00          	lea    0x0(%esi,%eiz,1),%esi
    4ae8:	c7 44 24 0c 00 00 00 	movl   $0x0,0xc(%esp)
    4aef:	00 
    4af0:	c7 44 24 08 02 00 00 	movl   $0x2,0x8(%esp)
    4af7:	00 
    4af8:	c7 44 24 04 64 65 76 	movl   $0x6e766564,0x4(%esp)
    4aff:	6e 
    4b00:	c7 04 24 02 00 00 00 	movl   $0x2,(%esp)
    4b07:	e8 74 df 00 00       	call   12a80 <service_connect_blocking>
    4b0c:	a3 60 4d 02 00       	mov    %eax,0x24d60
    4b11:	e9 4d fd ff ff       	jmp    4863 <devman_dev_get_functions+0x23>
    4b16:	66 90                	xchg   %ax,%ax
    4b18:	c7 44 24 0c 00 00 00 	movl   $0x0,0xc(%esp)
    4b1f:	00 
    4b20:	c7 44 24 08 02 00 00 	movl   $0x2,0x8(%esp)
    4b27:	00 
    4b28:	c7 44 24 04 64 65 76 	movl   $0x6e766564,0x4(%esp)
    4b2f:	6e 
    4b30:	c7 04 24 02 00 00 00 	movl   $0x2,(%esp)
    4b37:	e8 44 df 00 00       	call   12a80 <service_connect_blocking>
    4b3c:	a3 60 4d 02 00       	mov    %eax,0x24d60
    4b41:	e9 3f ff ff ff       	jmp    4a85 <devman_dev_get_functions+0x245>
    4b46:	66 90                	xchg   %ax,%ax
    4b48:	89 c3                	mov    %eax,%ebx
    4b4a:	8b 45 b4             	mov    -0x4c(%ebp),%eax
    4b4d:	89 04 24             	mov    %eax,(%esp)
    4b50:	e8 9b f9 00 00       	call   144f0 <async_forget>
    4b55:	83 c4 6c             	add    $0x6c,%esp
    4b58:	89 d8                	mov    %ebx,%eax
    4b5a:	5b                   	pop    %ebx
    4b5b:	5e                   	pop    %esi
    4b5c:	5f                   	pop    %edi
    4b5d:	5d                   	pop    %ebp
    4b5e:	c3                   	ret    
    4b5f:	90                   	nop
    4b60:	85 db                	test   %ebx,%ebx
    4b62:	0f 84 4c fe ff ff    	je     49b4 <devman_dev_get_functions+0x174>
    4b68:	89 1d 5c 4d 02 00    	mov    %ebx,0x24d5c
    4b6e:	e9 41 fe ff ff       	jmp    49b4 <devman_dev_get_functions+0x174>
    4b73:	89 3c 24             	mov    %edi,(%esp)
    4b76:	e8 75 f9 00 00       	call   144f0 <async_forget>
    4b7b:	83 c4 6c             	add    $0x6c,%esp
    4b7e:	89 d8                	mov    %ebx,%eax
    4b80:	5b                   	pop    %ebx
    4b81:	5e                   	pop    %esi
    4b82:	5f                   	pop    %edi
    4b83:	5d                   	pop    %ebp
    4b84:	c3                   	ret    
    4b85:	bb fe ff ff ff       	mov    $0xfffffffe,%ebx
    4b8a:	e9 35 ff ff ff       	jmp    4ac4 <devman_dev_get_functions+0x284>
    4b8f:	85 db                	test   %ebx,%ebx
    4b91:	0f 84 33 fd ff ff    	je     48ca <devman_dev_get_functions+0x8a>
    4b97:	89 1d 5c 4d 02 00    	mov    %ebx,0x24d5c
    4b9d:	e9 28 fd ff ff       	jmp    48ca <devman_dev_get_functions+0x8a>
    4ba2:	89 c3                	mov    %eax,%ebx
    4ba4:	89 d0                	mov    %edx,%eax
    4ba6:	c1 e8 02             	shr    $0x2,%eax
    4ba9:	8b 55 10             	mov    0x10(%ebp),%edx
    4bac:	89 02                	mov    %eax,(%edx)
    4bae:	8b 55 0c             	mov    0xc(%ebp),%edx
    4bb1:	89 3a                	mov    %edi,(%edx)
    4bb3:	e9 0c ff ff ff       	jmp    4ac4 <devman_dev_get_functions+0x284>
    4bb8:	90                   	nop
    4bb9:	8d b4 26 00 00 00 00 	lea    0x0(%esi,%eiz,1),%esi

00004bc0 <devman_fun_sid_to_handle>:
    4bc0:	55                   	push   %ebp
    4bc1:	89 e5                	mov    %esp,%ebp
    4bc3:	56                   	push   %esi
    4bc4:	53                   	push   %ebx
    4bc5:	83 ec 30             	sub    $0x30,%esp
    4bc8:	c7 04 24 30 4b 02 00 	movl   $0x24b30,(%esp)
    4bcf:	e8 3c 43 00 00       	call   8f10 <fibril_mutex_lock>
    4bd4:	8b 15 5c 4d 02 00    	mov    0x24d5c,%edx
    4bda:	85 d2                	test   %edx,%edx
    4bdc:	0f 84 96 00 00 00    	je     4c78 <devman_fun_sid_to_handle+0xb8>
    4be2:	c7 04 24 30 4b 02 00 	movl   $0x24b30,(%esp)
    4be9:	e8 42 44 00 00       	call   9030 <fibril_mutex_unlock>
    4bee:	a1 5c 4d 02 00       	mov    0x24d5c,%eax
    4bf3:	85 c0                	test   %eax,%eax
    4bf5:	0f 84 ad 00 00 00    	je     4ca8 <devman_fun_sid_to_handle+0xe8>
    4bfb:	89 04 24             	mov    %eax,(%esp)
    4bfe:	e8 2d 0b 01 00       	call   15730 <async_exchange_begin>
    4c03:	89 c3                	mov    %eax,%ebx
    4c05:	85 c0                	test   %eax,%eax
    4c07:	0f 84 9b 00 00 00    	je     4ca8 <devman_fun_sid_to_handle+0xe8>
    4c0d:	8b 45 0c             	mov    0xc(%ebp),%eax
    4c10:	c7 44 24 28 00 00 00 	movl   $0x0,0x28(%esp)
    4c17:	00 
    4c18:	89 44 24 18          	mov    %eax,0x18(%esp)
    4c1c:	8b 45 08             	mov    0x8(%ebp),%eax
    4c1f:	c7 44 24 24 00 00 00 	movl   $0x0,0x24(%esp)
    4c26:	00 
    4c27:	c7 44 24 20 00 00 00 	movl   $0x0,0x20(%esp)
    4c2e:	00 
    4c2f:	c7 44 24 1c 00 00 00 	movl   $0x0,0x1c(%esp)
    4c36:	00 
    4c37:	c7 44 24 14 00 00 00 	movl   $0x0,0x14(%esp)
    4c3e:	00 
    4c3f:	c7 44 24 10 00 00 00 	movl   $0x0,0x10(%esp)
    4c46:	00 
    4c47:	c7 44 24 0c 00 00 00 	movl   $0x0,0xc(%esp)
    4c4e:	00 
    4c4f:	89 44 24 08          	mov    %eax,0x8(%esp)
    4c53:	c7 44 24 04 08 04 00 	movl   $0x408,0x4(%esp)
    4c5a:	00 
    4c5b:	89 1c 24             	mov    %ebx,(%esp)
    4c5e:	e8 7d fa 00 00       	call   146e0 <async_req_fast>
    4c63:	89 1c 24             	mov    %ebx,(%esp)
    4c66:	89 c6                	mov    %eax,%esi
    4c68:	e8 33 0e 01 00       	call   15aa0 <async_exchange_end>
    4c6d:	89 f0                	mov    %esi,%eax
    4c6f:	83 c4 30             	add    $0x30,%esp
    4c72:	5b                   	pop    %ebx
    4c73:	5e                   	pop    %esi
    4c74:	5d                   	pop    %ebp
    4c75:	c3                   	ret    
    4c76:	66 90                	xchg   %ax,%ax
    4c78:	c7 44 24 0c 00 00 00 	movl   $0x0,0xc(%esp)
    4c7f:	00 
    4c80:	c7 44 24 08 02 00 00 	movl   $0x2,0x8(%esp)
    4c87:	00 
    4c88:	c7 44 24 04 64 65 76 	movl   $0x6e766564,0x4(%esp)
    4c8f:	6e 
    4c90:	c7 04 24 02 00 00 00 	movl   $0x2,(%esp)
    4c97:	e8 64 dd 00 00       	call   12a00 <service_connect>
    4c9c:	a3 5c 4d 02 00       	mov    %eax,0x24d5c
    4ca1:	e9 3c ff ff ff       	jmp    4be2 <devman_fun_sid_to_handle+0x22>
    4ca6:	66 90                	xchg   %ax,%ax
    4ca8:	b8 fe ff ff ff       	mov    $0xfffffffe,%eax
    4cad:	eb c0                	jmp    4c6f <devman_fun_sid_to_handle+0xaf>
    4caf:	90                   	nop

00004cb0 <memset>:
    4cb0:	55                   	push   %ebp
    4cb1:	89 e5                	mov    %esp,%ebp
    4cb3:	57                   	push   %edi
    4cb4:	56                   	push   %esi
    4cb5:	53                   	push   %ebx
    4cb6:	83 ec 20             	sub    $0x20,%esp
    4cb9:	c7 45 f0 04 00 00 00 	movl   $0x4,-0x10(%ebp)
    4cc0:	8b 45 08             	mov    0x8(%ebp),%eax
    4cc3:	8b 75 f0             	mov    -0x10(%ebp),%esi
    4cc6:	89 c2                	mov    %eax,%edx
    4cc8:	83 e2 03             	and    $0x3,%edx
    4ccb:	29 d6                	sub    %edx,%esi
    4ccd:	8b 55 10             	mov    0x10(%ebp),%edx
    4cd0:	89 75 f0             	mov    %esi,-0x10(%ebp)
    4cd3:	39 55 f0             	cmp    %edx,-0x10(%ebp)
    4cd6:	76 03                	jbe    4cdb <memset+0x2b>
    4cd8:	89 55 f0             	mov    %edx,-0x10(%ebp)
    4cdb:	8b 7d f0             	mov    -0x10(%ebp),%edi
    4cde:	8b 5d f0             	mov    -0x10(%ebp),%ebx
    4ce1:	4f                   	dec    %edi
    4ce2:	85 db                	test   %ebx,%ebx
    4ce4:	0f 84 2e 01 00 00    	je     4e18 <memset+0x168>
    4cea:	89 c1                	mov    %eax,%ecx
    4cec:	8b 55 f0             	mov    -0x10(%ebp),%edx
    4cef:	f7 d9                	neg    %ecx
    4cf1:	83 e1 03             	and    $0x3,%ecx
    4cf4:	8a 5d 0c             	mov    0xc(%ebp),%bl
    4cf7:	89 4d ec             	mov    %ecx,-0x14(%ebp)
    4cfa:	39 d1                	cmp    %edx,%ecx
    4cfc:	0f 87 0e 01 00 00    	ja     4e10 <memset+0x160>
    4d02:	83 7d f0 06          	cmpl   $0x6,-0x10(%ebp)
    4d06:	0f 87 10 01 00 00    	ja     4e1c <memset+0x16c>
    4d0c:	8b 4d f0             	mov    -0x10(%ebp),%ecx
    4d0f:	89 4d ec             	mov    %ecx,-0x14(%ebp)
    4d12:	8b 75 ec             	mov    -0x14(%ebp),%esi
    4d15:	89 c2                	mov    %eax,%edx
    4d17:	90                   	nop
    4d18:	88 1a                	mov    %bl,(%edx)
    4d1a:	42                   	inc    %edx
    4d1b:	89 d1                	mov    %edx,%ecx
    4d1d:	4f                   	dec    %edi
    4d1e:	29 c1                	sub    %eax,%ecx
    4d20:	39 f1                	cmp    %esi,%ecx
    4d22:	72 f4                	jb     4d18 <memset+0x68>
    4d24:	89 55 d4             	mov    %edx,-0x2c(%ebp)
    4d27:	8b 55 ec             	mov    -0x14(%ebp),%edx
    4d2a:	39 55 f0             	cmp    %edx,-0x10(%ebp)
    4d2d:	0f 84 84 00 00 00    	je     4db7 <memset+0x107>
    4d33:	8b 4d f0             	mov    -0x10(%ebp),%ecx
    4d36:	8b 55 ec             	mov    -0x14(%ebp),%edx
    4d39:	29 d1                	sub    %edx,%ecx
    4d3b:	89 4d dc             	mov    %ecx,-0x24(%ebp)
    4d3e:	c1 e9 02             	shr    $0x2,%ecx
    4d41:	89 4d e4             	mov    %ecx,-0x1c(%ebp)
    4d44:	c1 e1 02             	shl    $0x2,%ecx
    4d47:	89 4d e0             	mov    %ecx,-0x20(%ebp)
    4d4a:	74 59                	je     4da5 <memset+0xf5>
    4d4c:	31 c9                	xor    %ecx,%ecx
    4d4e:	31 d2                	xor    %edx,%edx
    4d50:	88 d9                	mov    %bl,%cl
    4d52:	88 da                	mov    %bl,%dl
    4d54:	8a 6d 0c             	mov    0xc(%ebp),%ch
    4d57:	89 55 e8             	mov    %edx,-0x18(%ebp)
    4d5a:	c1 e2 10             	shl    $0x10,%edx
    4d5d:	89 ce                	mov    %ecx,%esi
    4d5f:	81 e6 ff ff 00 00    	and    $0xffff,%esi
    4d65:	8b 4d e8             	mov    -0x18(%ebp),%ecx
    4d68:	c1 e1 18             	shl    $0x18,%ecx
    4d6b:	09 d6                	or     %edx,%esi
    4d6d:	09 ce                	or     %ecx,%esi
    4d6f:	8b 4d ec             	mov    -0x14(%ebp),%ecx
    4d72:	01 c1                	add    %eax,%ecx
    4d74:	89 7d e8             	mov    %edi,-0x18(%ebp)
    4d77:	89 4d ec             	mov    %ecx,-0x14(%ebp)
    4d7a:	8b 55 d4             	mov    -0x2c(%ebp),%edx
    4d7d:	8b 7d ec             	mov    -0x14(%ebp),%edi
    4d80:	31 c9                	xor    %ecx,%ecx
    4d82:	89 45 ec             	mov    %eax,-0x14(%ebp)
    4d85:	8b 45 e4             	mov    -0x1c(%ebp),%eax
    4d88:	89 34 8f             	mov    %esi,(%edi,%ecx,4)
    4d8b:	41                   	inc    %ecx
    4d8c:	39 c8                	cmp    %ecx,%eax
    4d8e:	77 f8                	ja     4d88 <memset+0xd8>
    4d90:	8b 4d e0             	mov    -0x20(%ebp),%ecx
    4d93:	8b 7d e8             	mov    -0x18(%ebp),%edi
    4d96:	01 ca                	add    %ecx,%edx
    4d98:	29 cf                	sub    %ecx,%edi
    4d9a:	8b 45 ec             	mov    -0x14(%ebp),%eax
    4d9d:	89 55 d4             	mov    %edx,-0x2c(%ebp)
    4da0:	39 4d dc             	cmp    %ecx,-0x24(%ebp)
    4da3:	74 12                	je     4db7 <memset+0x107>
    4da5:	8b 55 d4             	mov    -0x2c(%ebp),%edx
    4da8:	8d 4c 3a 01          	lea    0x1(%edx,%edi,1),%ecx
    4dac:	8d 74 26 00          	lea    0x0(%esi,%eiz,1),%esi
    4db0:	88 1a                	mov    %bl,(%edx)
    4db2:	42                   	inc    %edx
    4db3:	39 ca                	cmp    %ecx,%edx
    4db5:	75 f9                	jne    4db0 <memset+0x100>
    4db7:	8b 5d f0             	mov    -0x10(%ebp),%ebx
    4dba:	01 c3                	add    %eax,%ebx
    4dbc:	8b 75 10             	mov    0x10(%ebp),%esi
    4dbf:	2b 75 f0             	sub    -0x10(%ebp),%esi
    4dc2:	74 43                	je     4e07 <memset+0x157>
    4dc4:	0f b6 55 0c          	movzbl 0xc(%ebp),%edx
    4dc8:	89 d1                	mov    %edx,%ecx
    4dca:	89 f7                	mov    %esi,%edi
    4dcc:	c1 e1 08             	shl    $0x8,%ecx
    4dcf:	83 e7 03             	and    $0x3,%edi
    4dd2:	09 d1                	or     %edx,%ecx
    4dd4:	c1 e1 08             	shl    $0x8,%ecx
    4dd7:	09 d1                	or     %edx,%ecx
    4dd9:	c1 e1 08             	shl    $0x8,%ecx
    4ddc:	09 d1                	or     %edx,%ecx
    4dde:	c1 ee 02             	shr    $0x2,%esi
    4de1:	74 10                	je     4df3 <memset+0x143>
    4de3:	31 d2                	xor    %edx,%edx
    4de5:	8d 76 00             	lea    0x0(%esi),%esi
    4de8:	89 0c 93             	mov    %ecx,(%ebx,%edx,4)
    4deb:	42                   	inc    %edx
    4dec:	39 f2                	cmp    %esi,%edx
    4dee:	75 f8                	jne    4de8 <memset+0x138>
    4df0:	8d 1c 93             	lea    (%ebx,%edx,4),%ebx
    4df3:	85 ff                	test   %edi,%edi
    4df5:	74 10                	je     4e07 <memset+0x157>
    4df7:	8a 55 0c             	mov    0xc(%ebp),%dl
    4dfa:	01 df                	add    %ebx,%edi
    4dfc:	8d 74 26 00          	lea    0x0(%esi,%eiz,1),%esi
    4e00:	88 13                	mov    %dl,(%ebx)
    4e02:	43                   	inc    %ebx
    4e03:	39 fb                	cmp    %edi,%ebx
    4e05:	75 f9                	jne    4e00 <memset+0x150>
    4e07:	83 c4 20             	add    $0x20,%esp
    4e0a:	5b                   	pop    %ebx
    4e0b:	5e                   	pop    %esi
    4e0c:	5f                   	pop    %edi
    4e0d:	5d                   	pop    %ebp
    4e0e:	c3                   	ret    
    4e0f:	90                   	nop
    4e10:	89 55 ec             	mov    %edx,-0x14(%ebp)
    4e13:	e9 ea fe ff ff       	jmp    4d02 <memset+0x52>
    4e18:	89 c3                	mov    %eax,%ebx
    4e1a:	eb a0                	jmp    4dbc <memset+0x10c>
    4e1c:	8b 4d ec             	mov    -0x14(%ebp),%ecx
    4e1f:	85 c9                	test   %ecx,%ecx
    4e21:	0f 85 eb fe ff ff    	jne    4d12 <memset+0x62>
    4e27:	89 45 d4             	mov    %eax,-0x2c(%ebp)
    4e2a:	e9 04 ff ff ff       	jmp    4d33 <memset+0x83>
    4e2f:	90                   	nop

00004e30 <memcpy>:
    4e30:	55                   	push   %ebp
    4e31:	89 e5                	mov    %esp,%ebp
    4e33:	57                   	push   %edi
    4e34:	56                   	push   %esi
    4e35:	53                   	push   %ebx
    4e36:	83 ec 0c             	sub    $0xc,%esp
    4e39:	8b 4d 0c             	mov    0xc(%ebp),%ecx
    4e3c:	8b 45 08             	mov    0x8(%ebp),%eax
    4e3f:	89 ca                	mov    %ecx,%edx
    4e41:	31 c2                	xor    %eax,%edx
    4e43:	83 e2 03             	and    $0x3,%edx
    4e46:	0f 85 84 01 00 00    	jne    4fd0 <memcpy+0x1a0>
    4e4c:	c7 45 ec 04 00 00 00 	movl   $0x4,-0x14(%ebp)
    4e53:	89 c2                	mov    %eax,%edx
    4e55:	83 e2 03             	and    $0x3,%edx
    4e58:	8b 75 ec             	mov    -0x14(%ebp),%esi
    4e5b:	29 d6                	sub    %edx,%esi
    4e5d:	8b 55 10             	mov    0x10(%ebp),%edx
    4e60:	89 75 ec             	mov    %esi,-0x14(%ebp)
    4e63:	39 55 ec             	cmp    %edx,-0x14(%ebp)
    4e66:	0f 87 5c 01 00 00    	ja     4fc8 <memcpy+0x198>
    4e6c:	8b 5d ec             	mov    -0x14(%ebp),%ebx
    4e6f:	4b                   	dec    %ebx
    4e70:	89 5d f0             	mov    %ebx,-0x10(%ebp)
    4e73:	8b 5d ec             	mov    -0x14(%ebp),%ebx
    4e76:	85 db                	test   %ebx,%ebx
    4e78:	0f 84 91 01 00 00    	je     500f <memcpy+0x1df>
    4e7e:	8d 51 04             	lea    0x4(%ecx),%edx
    4e81:	8b 5d ec             	mov    -0x14(%ebp),%ebx
    4e84:	c1 eb 02             	shr    $0x2,%ebx
    4e87:	39 d0                	cmp    %edx,%eax
    4e89:	0f 93 c2             	setae  %dl
    4e8c:	89 d6                	mov    %edx,%esi
    4e8e:	8d 50 04             	lea    0x4(%eax),%edx
    4e91:	39 d1                	cmp    %edx,%ecx
    4e93:	8d 3c 9d 00 00 00 00 	lea    0x0(,%ebx,4),%edi
    4e9a:	0f 93 c2             	setae  %dl
    4e9d:	09 d6                	or     %edx,%esi
    4e9f:	83 7d ec 09          	cmpl   $0x9,-0x14(%ebp)
    4ea3:	0f 97 c2             	seta   %dl
    4ea6:	21 d6                	and    %edx,%esi
    4ea8:	89 ca                	mov    %ecx,%edx
    4eaa:	09 c2                	or     %eax,%edx
    4eac:	83 e2 03             	and    $0x3,%edx
    4eaf:	89 f2                	mov    %esi,%edx
    4eb1:	0f 94 45 e8          	sete   -0x18(%ebp)
    4eb5:	84 55 e8             	test   %dl,-0x18(%ebp)
    4eb8:	0f 84 58 01 00 00    	je     5016 <memcpy+0x1e6>
    4ebe:	85 ff                	test   %edi,%edi
    4ec0:	0f 84 50 01 00 00    	je     5016 <memcpy+0x1e6>
    4ec6:	31 d2                	xor    %edx,%edx
    4ec8:	8b 34 91             	mov    (%ecx,%edx,4),%esi
    4ecb:	89 34 90             	mov    %esi,(%eax,%edx,4)
    4ece:	42                   	inc    %edx
    4ecf:	39 d3                	cmp    %edx,%ebx
    4ed1:	77 f5                	ja     4ec8 <memcpy+0x98>
    4ed3:	8b 55 f0             	mov    -0x10(%ebp),%edx
    4ed6:	8d 1c 39             	lea    (%ecx,%edi,1),%ebx
    4ed9:	29 fa                	sub    %edi,%edx
    4edb:	8d 34 38             	lea    (%eax,%edi,1),%esi
    4ede:	89 55 f0             	mov    %edx,-0x10(%ebp)
    4ee1:	39 7d ec             	cmp    %edi,-0x14(%ebp)
    4ee4:	74 18                	je     4efe <memcpy+0xce>
    4ee6:	8b 7d f0             	mov    -0x10(%ebp),%edi
    4ee9:	31 d2                	xor    %edx,%edx
    4eeb:	47                   	inc    %edi
    4eec:	89 45 f0             	mov    %eax,-0x10(%ebp)
    4eef:	90                   	nop
    4ef0:	8a 04 13             	mov    (%ebx,%edx,1),%al
    4ef3:	88 04 16             	mov    %al,(%esi,%edx,1)
    4ef6:	42                   	inc    %edx
    4ef7:	39 fa                	cmp    %edi,%edx
    4ef9:	75 f5                	jne    4ef0 <memcpy+0xc0>
    4efb:	8b 45 f0             	mov    -0x10(%ebp),%eax
    4efe:	8b 55 ec             	mov    -0x14(%ebp),%edx
    4f01:	8b 7d ec             	mov    -0x14(%ebp),%edi
    4f04:	01 c2                	add    %eax,%edx
    4f06:	01 f9                	add    %edi,%ecx
    4f08:	8b 5d 10             	mov    0x10(%ebp),%ebx
    4f0b:	2b 5d ec             	sub    -0x14(%ebp),%ebx
    4f0e:	0f 84 a9 00 00 00    	je     4fbd <memcpy+0x18d>
    4f14:	89 df                	mov    %ebx,%edi
    4f16:	c1 ef 02             	shr    $0x2,%edi
    4f19:	8d 34 bd 00 00 00 00 	lea    0x0(,%edi,4),%esi
    4f20:	29 f3                	sub    %esi,%ebx
    4f22:	85 ff                	test   %edi,%edi
    4f24:	89 5d ec             	mov    %ebx,-0x14(%ebp)
    4f27:	74 1c                	je     4f45 <memcpy+0x115>
    4f29:	31 db                	xor    %ebx,%ebx
    4f2b:	89 45 f0             	mov    %eax,-0x10(%ebp)
    4f2e:	66 90                	xchg   %ax,%ax
    4f30:	8b 04 99             	mov    (%ecx,%ebx,4),%eax
    4f33:	89 04 9a             	mov    %eax,(%edx,%ebx,4)
    4f36:	43                   	inc    %ebx
    4f37:	39 fb                	cmp    %edi,%ebx
    4f39:	75 f5                	jne    4f30 <memcpy+0x100>
    4f3b:	8b 45 f0             	mov    -0x10(%ebp),%eax
    4f3e:	01 f2                	add    %esi,%edx
    4f40:	01 f1                	add    %esi,%ecx
    4f42:	8b 5d ec             	mov    -0x14(%ebp),%ebx
    4f45:	4b                   	dec    %ebx
    4f46:	8b 75 ec             	mov    -0x14(%ebp),%esi
    4f49:	89 5d e8             	mov    %ebx,-0x18(%ebp)
    4f4c:	85 f6                	test   %esi,%esi
    4f4e:	74 6d                	je     4fbd <memcpy+0x18d>
    4f50:	8d 5a 04             	lea    0x4(%edx),%ebx
    4f53:	8b 75 ec             	mov    -0x14(%ebp),%esi
    4f56:	c1 ee 02             	shr    $0x2,%esi
    4f59:	39 d9                	cmp    %ebx,%ecx
    4f5b:	8d 59 04             	lea    0x4(%ecx),%ebx
    4f5e:	0f 93 45 f0          	setae  -0x10(%ebp)
    4f62:	39 da                	cmp    %ebx,%edx
    4f64:	8d 3c b5 00 00 00 00 	lea    0x0(,%esi,4),%edi
    4f6b:	0f 93 c3             	setae  %bl
    4f6e:	08 5d f0             	or     %bl,-0x10(%ebp)
    4f71:	83 7d ec 08          	cmpl   $0x8,-0x14(%ebp)
    4f75:	0f 97 c3             	seta   %bl
    4f78:	84 5d f0             	test   %bl,-0x10(%ebp)
    4f7b:	74 2a                	je     4fa7 <memcpy+0x177>
    4f7d:	85 ff                	test   %edi,%edi
    4f7f:	74 26                	je     4fa7 <memcpy+0x177>
    4f81:	31 db                	xor    %ebx,%ebx
    4f83:	89 45 f0             	mov    %eax,-0x10(%ebp)
    4f86:	66 90                	xchg   %ax,%ax
    4f88:	8b 04 99             	mov    (%ecx,%ebx,4),%eax
    4f8b:	89 04 9a             	mov    %eax,(%edx,%ebx,4)
    4f8e:	43                   	inc    %ebx
    4f8f:	39 de                	cmp    %ebx,%esi
    4f91:	77 f5                	ja     4f88 <memcpy+0x158>
    4f93:	8b 5d e8             	mov    -0x18(%ebp),%ebx
    4f96:	01 f9                	add    %edi,%ecx
    4f98:	29 fb                	sub    %edi,%ebx
    4f9a:	01 fa                	add    %edi,%edx
    4f9c:	8b 45 f0             	mov    -0x10(%ebp),%eax
    4f9f:	89 5d e8             	mov    %ebx,-0x18(%ebp)
    4fa2:	39 7d ec             	cmp    %edi,-0x14(%ebp)
    4fa5:	74 16                	je     4fbd <memcpy+0x18d>
    4fa7:	8b 75 e8             	mov    -0x18(%ebp),%esi
    4faa:	31 db                	xor    %ebx,%ebx
    4fac:	46                   	inc    %esi
    4fad:	89 c7                	mov    %eax,%edi
    4faf:	90                   	nop
    4fb0:	8a 04 19             	mov    (%ecx,%ebx,1),%al
    4fb3:	88 04 1a             	mov    %al,(%edx,%ebx,1)
    4fb6:	43                   	inc    %ebx
    4fb7:	39 f3                	cmp    %esi,%ebx
    4fb9:	75 f5                	jne    4fb0 <memcpy+0x180>
    4fbb:	89 f8                	mov    %edi,%eax
    4fbd:	83 c4 0c             	add    $0xc,%esp
    4fc0:	5b                   	pop    %ebx
    4fc1:	5e                   	pop    %esi
    4fc2:	5f                   	pop    %edi
    4fc3:	5d                   	pop    %ebp
    4fc4:	c3                   	ret    
    4fc5:	8d 76 00             	lea    0x0(%esi),%esi
    4fc8:	89 55 ec             	mov    %edx,-0x14(%ebp)
    4fcb:	e9 9c fe ff ff       	jmp    4e6c <memcpy+0x3c>
    4fd0:	8b 75 10             	mov    0x10(%ebp),%esi
    4fd3:	31 d2                	xor    %edx,%edx
    4fd5:	c1 ee 02             	shr    $0x2,%esi
    4fd8:	74 11                	je     4feb <memcpy+0x1bb>
    4fda:	8d b6 00 00 00 00    	lea    0x0(%esi),%esi
    4fe0:	8b 1c 91             	mov    (%ecx,%edx,4),%ebx
    4fe3:	89 1c 90             	mov    %ebx,(%eax,%edx,4)
    4fe6:	42                   	inc    %edx
    4fe7:	39 f2                	cmp    %esi,%edx
    4fe9:	75 f5                	jne    4fe0 <memcpy+0x1b0>
    4feb:	8b 75 10             	mov    0x10(%ebp),%esi
    4fee:	83 e6 03             	and    $0x3,%esi
    4ff1:	74 ca                	je     4fbd <memcpy+0x18d>
    4ff3:	c1 e2 02             	shl    $0x2,%edx
    4ff6:	31 db                	xor    %ebx,%ebx
    4ff8:	01 d1                	add    %edx,%ecx
    4ffa:	89 c7                	mov    %eax,%edi
    4ffc:	01 c2                	add    %eax,%edx
    4ffe:	66 90                	xchg   %ax,%ax
    5000:	8a 04 19             	mov    (%ecx,%ebx,1),%al
    5003:	88 04 1a             	mov    %al,(%edx,%ebx,1)
    5006:	43                   	inc    %ebx
    5007:	39 de                	cmp    %ebx,%esi
    5009:	77 f5                	ja     5000 <memcpy+0x1d0>
    500b:	89 f8                	mov    %edi,%eax
    500d:	eb ae                	jmp    4fbd <memcpy+0x18d>
    500f:	89 c2                	mov    %eax,%edx
    5011:	e9 f2 fe ff ff       	jmp    4f08 <memcpy+0xd8>
    5016:	89 c6                	mov    %eax,%esi
    5018:	89 cb                	mov    %ecx,%ebx
    501a:	e9 c7 fe ff ff       	jmp    4ee6 <memcpy+0xb6>
    501f:	90                   	nop

00005020 <memmove>:
    5020:	55                   	push   %ebp
    5021:	89 e5                	mov    %esp,%ebp
    5023:	57                   	push   %edi
    5024:	56                   	push   %esi
    5025:	53                   	push   %ebx
    5026:	83 ec 0c             	sub    $0xc,%esp
    5029:	8b 45 08             	mov    0x8(%ebp),%eax
    502c:	8b 55 0c             	mov    0xc(%ebp),%edx
    502f:	39 c2                	cmp    %eax,%edx
    5031:	0f 84 b6 00 00 00    	je     50ed <memmove+0xcd>
    5037:	8b 4d 10             	mov    0x10(%ebp),%ecx
    503a:	01 d1                	add    %edx,%ecx
    503c:	39 c8                	cmp    %ecx,%eax
    503e:	0f 83 b4 00 00 00    	jae    50f8 <memmove+0xd8>
    5044:	8b 4d 10             	mov    0x10(%ebp),%ecx
    5047:	01 c1                	add    %eax,%ecx
    5049:	39 ca                	cmp    %ecx,%edx
    504b:	0f 83 a7 00 00 00    	jae    50f8 <memmove+0xd8>
    5051:	39 c2                	cmp    %eax,%edx
    5053:	0f 86 47 02 00 00    	jbe    52a0 <memmove+0x280>
