
trace:     file format elf32-i386


Disassembly of section .init:

00001094 <__entry>:
    1094:	66 8c d0             	mov    %ss,%ax
    1097:	8e d8                	mov    %eax,%ds
    1099:	8e c0                	mov    %eax,%es
    109b:	8e e0                	mov    %eax,%fs
    109d:	b8 01 00 00 00       	mov    $0x1,%eax
    10a2:	0f a2                	cpuid  
    10a4:	0f ba e2 0b          	bt     $0xb,%edx
    10a8:	73 0c                	jae    10b6 <__entry+0x22>
    10aa:	8d 05 54 3c 02 00    	lea    0x23c54,%eax
    10b0:	c7 00 47 b0 01 00    	movl   $0x1b047,(%eax)
    10b6:	6a 00                	push   $0x0
    10b8:	89 e5                	mov    %esp,%ebp
    10ba:	57                   	push   %edi
    10bb:	e8 d0 1e 00 00       	call   2f90 <__main>

Disassembly of section .text:

000010c0 <print_syntax>:
    10c0:	55                   	push   %ebp
    10c1:	89 e5                	mov    %esp,%ebp
    10c3:	83 ec 18             	sub    $0x18,%esp
    10c6:	c7 04 24 52 02 02 00 	movl   $0x20252,(%esp)
    10cd:	e8 ce a0 00 00       	call   b1a0 <printf>
    10d2:	c7 04 24 fc 05 02 00 	movl   $0x205fc,(%esp)
    10d9:	e8 c2 a0 00 00       	call   b1a0 <printf>
    10de:	c7 04 24 2c 06 02 00 	movl   $0x2062c,(%esp)
    10e5:	e8 b6 a0 00 00       	call   b1a0 <printf>
    10ea:	c7 04 24 5b 02 02 00 	movl   $0x2025b,(%esp)
    10f1:	e8 aa a0 00 00       	call   b1a0 <printf>
    10f6:	c7 04 24 41 04 02 00 	movl   $0x20441,(%esp)
    10fd:	e8 9e a0 00 00       	call   b1a0 <printf>
    1102:	c7 04 24 50 06 02 00 	movl   $0x20650,(%esp)
    1109:	e8 92 a0 00 00       	call   b1a0 <printf>
    110e:	c7 04 24 75 02 02 00 	movl   $0x20275,(%esp)
    1115:	e8 86 a0 00 00       	call   b1a0 <printf>
    111a:	c7 04 24 8a 02 02 00 	movl   $0x2028a,(%esp)
    1121:	e8 7a a0 00 00       	call   b1a0 <printf>
    1126:	c7 04 24 a0 02 02 00 	movl   $0x202a0,(%esp)
    112d:	e8 6e a0 00 00       	call   b1a0 <printf>
    1132:	c7 04 24 41 04 02 00 	movl   $0x20441,(%esp)
    1139:	e8 62 a0 00 00       	call   b1a0 <printf>
    113e:	c7 04 24 b7 02 02 00 	movl   $0x202b7,(%esp)
    1145:	e8 56 a0 00 00       	call   b1a0 <printf>
    114a:	c7 04 24 c2 02 02 00 	movl   $0x202c2,(%esp)
    1151:	e8 4a a0 00 00       	call   b1a0 <printf>
    1156:	c7 04 24 d9 02 02 00 	movl   $0x202d9,(%esp)
    115d:	e8 3e a0 00 00       	call   b1a0 <printf>
    1162:	c9                   	leave  
    1163:	c3                   	ret    
    1164:	8d b6 00 00 00 00    	lea    0x0(%esi),%esi
    116a:	8d bf 00 00 00 00    	lea    0x0(%edi),%edi

00001170 <cev_fibril>:
    1170:	55                   	push   %ebp
    1171:	89 e5                	mov    %esp,%ebp
    1173:	53                   	push   %ebx
    1174:	83 ec 14             	sub    $0x14,%esp
    1177:	a1 fc 4a 02 00       	mov    0x24afc,%eax
    117c:	89 44 24 04          	mov    %eax,0x4(%esp)
    1180:	a1 00 4b 02 00       	mov    0x24b00,%eax
    1185:	89 04 24             	mov    %eax,(%esp)
    1188:	e8 23 ca 00 00       	call   dbb0 <console_init>
    118d:	89 c3                	mov    %eax,%ebx
    118f:	90                   	nop
    1190:	c7 04 24 68 4a 02 00 	movl   $0x24a68,(%esp)
    1197:	e8 74 60 00 00       	call   7210 <fibril_mutex_lock>
    119c:	80 3d 95 4a 02 00 00 	cmpb   $0x0,0x24a95
    11a3:	74 20                	je     11c5 <cev_fibril+0x55>
    11a5:	8d 76 00             	lea    0x0(%esi),%esi
    11a8:	c7 44 24 04 68 4a 02 	movl   $0x24a68,0x4(%esp)
    11af:	00 
    11b0:	c7 04 24 7c 4a 02 00 	movl   $0x24a7c,(%esp)
    11b7:	e8 a4 6c 00 00       	call   7e60 <fibril_condvar_wait>
    11bc:	80 3d 95 4a 02 00 00 	cmpb   $0x0,0x24a95
    11c3:	75 e3                	jne    11a8 <cev_fibril+0x38>
    11c5:	c7 04 24 68 4a 02 00 	movl   $0x24a68,(%esp)
    11cc:	e8 5f 61 00 00       	call   7330 <fibril_mutex_unlock>
    11d1:	c7 44 24 04 98 4a 02 	movl   $0x24a98,0x4(%esp)
    11d8:	00 
    11d9:	89 1c 24             	mov    %ebx,(%esp)
    11dc:	e8 bf cf 00 00       	call   e1a0 <console_get_kbd_event>
    11e1:	84 c0                	test   %al,%al
    11e3:	74 30                	je     1215 <cev_fibril+0xa5>
    11e5:	c7 04 24 68 4a 02 00 	movl   $0x24a68,(%esp)
    11ec:	e8 1f 60 00 00       	call   7210 <fibril_mutex_lock>
    11f1:	c7 04 24 7c 4a 02 00 	movl   $0x24a7c,(%esp)
    11f8:	c6 05 95 4a 02 00 01 	movb   $0x1,0x24a95
    11ff:	e8 2c 6d 00 00       	call   7f30 <fibril_condvar_broadcast>
    1204:	c7 04 24 68 4a 02 00 	movl   $0x24a68,(%esp)
    120b:	e8 20 61 00 00       	call   7330 <fibril_mutex_unlock>
    1210:	e9 7b ff ff ff       	jmp    1190 <cev_fibril+0x20>
    1215:	83 c4 14             	add    $0x14,%esp
    1218:	83 c8 ff             	or     $0xffffffff,%eax
    121b:	5b                   	pop    %ebx
    121c:	5d                   	pop    %ebp
    121d:	c3                   	ret    
    121e:	66 90                	xchg   %ax,%ax

00001220 <program_run_fibril>:
    1220:	55                   	push   %ebp
    1221:	89 e5                	mov    %esp,%ebp
    1223:	83 ec 18             	sub    $0x18,%esp
    1226:	a1 90 4a 02 00       	mov    0x24a90,%eax
    122b:	89 04 24             	mov    %eax,(%esp)
    122e:	e8 fd 4a 01 00       	call   15d30 <loader_run>
    1233:	85 c0                	test   %eax,%eax
    1235:	75 27                	jne    125e <program_run_fibril+0x3e>
    1237:	a1 90 4a 02 00       	mov    0x24a90,%eax
    123c:	89 04 24             	mov    %eax,(%esp)
    123f:	e8 1c f5 00 00       	call   10760 <free>
    1244:	c7 04 24 04 03 02 00 	movl   $0x20304,(%esp)
    124b:	c7 05 90 4a 02 00 00 	movl   $0x0,0x24a90
    1252:	00 00 00 
    1255:	e8 46 9f 00 00       	call   b1a0 <printf>
    125a:	31 c0                	xor    %eax,%eax
    125c:	c9                   	leave  
    125d:	c3                   	ret    
    125e:	c7 04 24 ed 02 02 00 	movl   $0x202ed,(%esp)
    1265:	e8 36 9f 00 00       	call   b1a0 <printf>
    126a:	c7 04 24 01 00 00 00 	movl   $0x1,(%esp)
    1271:	e8 4a 1c 00 00       	call   2ec0 <exit>
    1276:	8d 76 00             	lea    0x0(%esi),%esi
    1279:	8d bc 27 00 00 00 00 	lea    0x0(%edi,%eiz,1),%edi

00001280 <val_print>:
    1280:	55                   	push   %ebp
    1281:	89 e5                	mov    %esp,%ebp
    1283:	83 ec 18             	sub    $0x18,%esp
    1286:	8b 45 0c             	mov    0xc(%ebp),%eax
    1289:	8b 55 08             	mov    0x8(%ebp),%edx
    128c:	83 f8 06             	cmp    $0x6,%eax
    128f:	76 07                	jbe    1298 <val_print+0x18>
    1291:	c9                   	leave  
    1292:	c3                   	ret    
    1293:	90                   	nop
    1294:	8d 74 26 00          	lea    0x0(%esi,%eiz,1),%esi
    1298:	ff 24 85 a8 08 02 00 	jmp    *0x208a8(,%eax,4)
    129f:	90                   	nop
    12a0:	8d 42 0f             	lea    0xf(%edx),%eax
    12a3:	83 f8 0e             	cmp    $0xe,%eax
    12a6:	76 78                	jbe    1320 <val_print+0xa0>
    12a8:	89 55 0c             	mov    %edx,0xc(%ebp)
    12ab:	c7 45 08 27 03 02 00 	movl   $0x20327,0x8(%ebp)
    12b2:	c9                   	leave  
    12b3:	e9 e8 9e 00 00       	jmp    b1a0 <printf>
    12b8:	89 55 0c             	mov    %edx,0xc(%ebp)
    12bb:	c7 45 08 21 1f 02 00 	movl   $0x21f21,0x8(%ebp)
    12c2:	c9                   	leave  
    12c3:	e9 d8 9e 00 00       	jmp    b1a0 <printf>
    12c8:	8d 42 e0             	lea    -0x20(%edx),%eax
    12cb:	83 f8 5e             	cmp    $0x5e,%eax
    12ce:	0f 86 9c 00 00 00    	jbe    1370 <val_print+0xf0>
    12d4:	83 fa 09             	cmp    $0x9,%edx
    12d7:	0f 84 a3 00 00 00    	je     1380 <val_print+0x100>
    12dd:	7e 71                	jle    1350 <val_print+0xd0>
    12df:	83 fa 0d             	cmp    $0xd,%edx
    12e2:	0f 84 d8 00 00 00    	je     13c0 <val_print+0x140>
    12e8:	83 fa 5c             	cmp    $0x5c,%edx
    12eb:	0f 84 bc 00 00 00    	je     13ad <val_print+0x12d>
    12f1:	83 fa 0a             	cmp    $0xa,%edx
    12f4:	75 64                	jne    135a <val_print+0xda>
    12f6:	c7 45 08 46 03 02 00 	movl   $0x20346,0x8(%ebp)
    12fd:	c9                   	leave  
    12fe:	e9 9d 9e 00 00       	jmp    b1a0 <printf>
    1303:	90                   	nop
    1304:	8d 74 26 00          	lea    0x0(%esi,%eiz,1),%esi
    1308:	c7 45 08 20 03 02 00 	movl   $0x20320,0x8(%ebp)
    130f:	c9                   	leave  
    1310:	e9 8b 9e 00 00       	jmp    b1a0 <printf>
    1315:	8d 76 00             	lea    0x0(%esi),%esi
    1318:	8d 42 0f             	lea    0xf(%edx),%eax
    131b:	83 f8 0f             	cmp    $0xf,%eax
    131e:	77 88                	ja     12a8 <val_print+0x28>
    1320:	89 d0                	mov    %edx,%eax
    1322:	89 54 24 04          	mov    %edx,0x4(%esp)
    1326:	f7 d8                	neg    %eax
    1328:	c7 04 24 2b 03 02 00 	movl   $0x2032b,(%esp)
    132f:	8b 0c c5 84 10 02 00 	mov    0x21084(,%eax,8),%ecx
    1336:	8b 04 c5 80 10 02 00 	mov    0x21080(,%eax,8),%eax
    133d:	89 4c 24 0c          	mov    %ecx,0xc(%esp)
    1341:	89 44 24 08          	mov    %eax,0x8(%esp)
    1345:	e8 56 9e 00 00       	call   b1a0 <printf>
    134a:	c9                   	leave  
    134b:	c3                   	ret    
    134c:	8d 74 26 00          	lea    0x0(%esi,%eiz,1),%esi
    1350:	83 fa 07             	cmp    $0x7,%edx
    1353:	74 4b                	je     13a0 <val_print+0x120>
    1355:	83 fa 08             	cmp    $0x8,%edx
    1358:	74 33                	je     138d <val_print+0x10d>
    135a:	89 55 0c             	mov    %edx,0xc(%ebp)
    135d:	c7 45 08 5a 03 02 00 	movl   $0x2035a,0x8(%ebp)
    1364:	c9                   	leave  
    1365:	e9 36 9e 00 00       	jmp    b1a0 <printf>
    136a:	8d b6 00 00 00 00    	lea    0x0(%esi),%esi
    1370:	89 55 0c             	mov    %edx,0xc(%ebp)
    1373:	c7 45 08 37 03 02 00 	movl   $0x20337,0x8(%ebp)
    137a:	c9                   	leave  
    137b:	e9 20 9e 00 00       	jmp    b1a0 <printf>
    1380:	c7 45 08 50 03 02 00 	movl   $0x20350,0x8(%ebp)
    1387:	c9                   	leave  
    1388:	e9 13 9e 00 00       	jmp    b1a0 <printf>
    138d:	c7 45 08 41 03 02 00 	movl   $0x20341,0x8(%ebp)
    1394:	c9                   	leave  
    1395:	e9 06 9e 00 00       	jmp    b1a0 <printf>
    139a:	8d b6 00 00 00 00    	lea    0x0(%esi),%esi
    13a0:	c7 45 08 3c 03 02 00 	movl   $0x2033c,0x8(%ebp)
    13a7:	c9                   	leave  
    13a8:	e9 f3 9d 00 00       	jmp    b1a0 <printf>
    13ad:	c7 45 08 55 03 02 00 	movl   $0x20355,0x8(%ebp)
    13b4:	c9                   	leave  
    13b5:	e9 e6 9d 00 00       	jmp    b1a0 <printf>
    13ba:	8d b6 00 00 00 00    	lea    0x0(%esi),%esi
    13c0:	c7 45 08 4b 03 02 00 	movl   $0x2034b,0x8(%ebp)
    13c7:	c9                   	leave  
    13c8:	e9 d3 9d 00 00       	jmp    b1a0 <printf>
    13cd:	8d 76 00             	lea    0x0(%esi),%esi

000013d0 <trace_loop>:
    13d0:	55                   	push   %ebp
    13d1:	89 e5                	mov    %esp,%ebp
    13d3:	57                   	push   %edi
    13d4:	56                   	push   %esi
    13d5:	53                   	push   %ebx
    13d6:	81 ec 9c 00 00 00    	sub    $0x9c,%esp
    13dc:	a1 20 47 02 00       	mov    0x24720,%eax
    13e1:	8b 7d 08             	mov    0x8(%ebp),%edi
    13e4:	89 45 94             	mov    %eax,-0x6c(%ebp)
    13e7:	40                   	inc    %eax
    13e8:	a3 20 47 02 00       	mov    %eax,0x24720
    13ed:	83 7d 94 3f          	cmpl   $0x3f,-0x6c(%ebp)
    13f1:	0f 87 b9 03 00 00    	ja     17b0 <trace_loop+0x3e0>
    13f7:	8b 45 94             	mov    -0x6c(%ebp),%eax
    13fa:	89 7c 24 08          	mov    %edi,0x8(%esp)
    13fe:	89 44 24 04          	mov    %eax,0x4(%esp)
    1402:	c7 04 24 78 06 02 00 	movl   $0x20678,(%esp)
    1409:	e8 92 9d 00 00       	call   b1a0 <printf>
    140e:	8d 75 a8             	lea    -0x58(%ebp),%esi
    1411:	8d 5d a4             	lea    -0x5c(%ebp),%ebx
    1414:	eb 3e                	jmp    1454 <trace_loop+0x84>
    1416:	66 90                	xchg   %ax,%ax
    1418:	c7 04 24 68 4a 02 00 	movl   $0x24a68,(%esp)
    141f:	e8 0c 5f 00 00       	call   7330 <fibril_mutex_unlock>
    1424:	8d 45 a0             	lea    -0x60(%ebp),%eax
    1427:	89 44 24 08          	mov    %eax,0x8(%esp)
    142b:	a1 08 46 02 00       	mov    0x24608,%eax
    1430:	89 74 24 10          	mov    %esi,0x10(%esp)
    1434:	89 5c 24 0c          	mov    %ebx,0xc(%esp)
    1438:	89 7c 24 04          	mov    %edi,0x4(%esp)
    143c:	89 04 24             	mov    %eax,(%esp)
    143f:	e8 2c 73 01 00       	call   18770 <udebug_go>
    1444:	8b 55 a0             	mov    -0x60(%ebp),%edx
    1447:	83 fa 01             	cmp    $0x1,%edx
    144a:	74 7c                	je     14c8 <trace_loop+0xf8>
    144c:	85 c0                	test   %eax,%eax
    144e:	0f 89 94 00 00 00    	jns    14e8 <trace_loop+0x118>
    1454:	80 3d 04 46 02 00 00 	cmpb   $0x0,0x24604
    145b:	75 6b                	jne    14c8 <trace_loop+0xf8>
    145d:	c7 04 24 68 4a 02 00 	movl   $0x24a68,(%esp)
    1464:	e8 a7 5d 00 00       	call   7210 <fibril_mutex_lock>
    1469:	80 3d 78 4a 02 00 00 	cmpb   $0x0,0x24a78
    1470:	74 a6                	je     1418 <trace_loop+0x48>
    1472:	8b 45 94             	mov    -0x6c(%ebp),%eax
    1475:	c7 04 24 a0 06 02 00 	movl   $0x206a0,(%esp)
    147c:	89 44 24 04          	mov    %eax,0x4(%esp)
    1480:	e8 1b 9d 00 00       	call   b1a0 <printf>
    1485:	80 3d 78 4a 02 00 00 	cmpb   $0x0,0x24a78
    148c:	74 1f                	je     14ad <trace_loop+0xdd>
    148e:	66 90                	xchg   %ax,%ax
    1490:	c7 44 24 04 68 4a 02 	movl   $0x24a68,0x4(%esp)
    1497:	00 
    1498:	c7 04 24 7c 4a 02 00 	movl   $0x24a7c,(%esp)
    149f:	e8 bc 69 00 00       	call   7e60 <fibril_condvar_wait>
    14a4:	80 3d 78 4a 02 00 00 	cmpb   $0x0,0x24a78
    14ab:	75 e3                	jne    1490 <trace_loop+0xc0>
    14ad:	8b 45 94             	mov    -0x6c(%ebp),%eax
    14b0:	c7 04 24 76 03 02 00 	movl   $0x20376,(%esp)
    14b7:	89 44 24 04          	mov    %eax,0x4(%esp)
    14bb:	e8 e0 9c 00 00       	call   b1a0 <printf>
    14c0:	e9 53 ff ff ff       	jmp    1418 <trace_loop+0x48>
    14c5:	8d 76 00             	lea    0x0(%esi),%esi
    14c8:	8b 45 94             	mov    -0x6c(%ebp),%eax
    14cb:	c7 04 24 c8 06 02 00 	movl   $0x206c8,(%esp)
    14d2:	89 44 24 04          	mov    %eax,0x4(%esp)
    14d6:	e8 c5 9c 00 00       	call   b1a0 <printf>
    14db:	31 c0                	xor    %eax,%eax
    14dd:	81 c4 9c 00 00 00    	add    $0x9c,%esp
    14e3:	5b                   	pop    %ebx
    14e4:	5e                   	pop    %esi
    14e5:	5f                   	pop    %edi
    14e6:	5d                   	pop    %ebp
    14e7:	c3                   	ret    
    14e8:	83 fa 06             	cmp    $0x6,%edx
    14eb:	76 15                	jbe    1502 <trace_loop+0x132>
    14ed:	89 54 24 04          	mov    %edx,0x4(%esp)
    14f1:	c7 04 24 ca 03 02 00 	movl   $0x203ca,(%esp)
    14f8:	e8 a3 9c 00 00       	call   b1a0 <printf>
    14fd:	e9 52 ff ff ff       	jmp    1454 <trace_loop+0x84>
    1502:	ff 24 95 c4 08 02 00 	jmp    *0x208c4(,%edx,4)
    1509:	8b 45 a4             	mov    -0x5c(%ebp),%eax
    150c:	c7 04 24 b7 03 02 00 	movl   $0x203b7,(%esp)
    1513:	89 44 24 04          	mov    %eax,0x4(%esp)
    1517:	e8 84 9c 00 00       	call   b1a0 <printf>
    151c:	c7 04 24 68 4a 02 00 	movl   $0x24a68,(%esp)
    1523:	e8 e8 5c 00 00       	call   7210 <fibril_mutex_lock>
    1528:	c7 04 24 7c 4a 02 00 	movl   $0x24a7c,(%esp)
    152f:	c6 05 04 46 02 00 01 	movb   $0x1,0x24604
    1536:	e8 f5 69 00 00       	call   7f30 <fibril_condvar_broadcast>
    153b:	c7 04 24 68 4a 02 00 	movl   $0x24a68,(%esp)
    1542:	e8 e9 5d 00 00       	call   7330 <fibril_mutex_unlock>
    1547:	e9 08 ff ff ff       	jmp    1454 <trace_loop+0x84>
    154c:	8b 55 a4             	mov    -0x5c(%ebp),%edx
    154f:	c7 04 24 a2 03 02 00 	movl   $0x203a2,(%esp)
    1556:	89 54 24 04          	mov    %edx,0x4(%esp)
    155a:	89 55 88             	mov    %edx,-0x78(%ebp)
    155d:	e8 3e 9c 00 00       	call   b1a0 <printf>
    1562:	8b 55 88             	mov    -0x78(%ebp),%edx
    1565:	89 54 24 04          	mov    %edx,0x4(%esp)
    1569:	c7 04 24 d0 13 00 00 	movl   $0x13d0,(%esp)
    1570:	89 15 e0 3c 02 00    	mov    %edx,0x23ce0
    1576:	e8 b5 57 00 00       	call   6d30 <fibril_create>
    157b:	89 c2                	mov    %eax,%edx
    157d:	85 c0                	test   %eax,%eax
    157f:	75 12                	jne    1593 <trace_loop+0x1c3>
    1581:	c7 04 24 e8 06 02 00 	movl   $0x206e8,(%esp)
    1588:	89 45 88             	mov    %eax,-0x78(%ebp)
    158b:	e8 10 9c 00 00       	call   b1a0 <printf>
    1590:	8b 55 88             	mov    -0x78(%ebp),%edx
    1593:	89 14 24             	mov    %edx,(%esp)
    1596:	e8 d5 58 00 00       	call   6e70 <fibril_add_ready>
    159b:	e9 b4 fe ff ff       	jmp    1454 <trace_loop+0x84>
    15a0:	8b 45 a8             	mov    -0x58(%ebp),%eax
    15a3:	8b 55 a4             	mov    -0x5c(%ebp),%edx
    15a6:	89 45 90             	mov    %eax,-0x70(%ebp)
    15a9:	8d 45 ac             	lea    -0x54(%ebp),%eax
    15ac:	89 44 24 08          	mov    %eax,0x8(%esp)
    15b0:	a1 08 46 02 00       	mov    0x24608,%eax
    15b5:	89 7c 24 04          	mov    %edi,0x4(%esp)
    15b9:	89 04 24             	mov    %eax,(%esp)
    15bc:	89 55 88             	mov    %edx,-0x78(%ebp)
    15bf:	e8 cc 70 01 00       	call   18690 <udebug_args_read>
    15c4:	8b 55 88             	mov    -0x78(%ebp),%edx
    15c7:	85 c0                	test   %eax,%eax
    15c9:	0f 88 af 02 00 00    	js     187e <trace_loop+0x4ae>
    15cf:	f6 05 0c 46 02 00 02 	testb  $0x2,0x2460c
    15d6:	0f 85 ea 01 00 00    	jne    17c6 <trace_loop+0x3f6>
    15dc:	83 fa 15             	cmp    $0x15,%edx
    15df:	0f 84 23 02 00 00    	je     1808 <trace_loop+0x438>
    15e5:	83 fa 1a             	cmp    $0x1a,%edx
    15e8:	0f 84 57 01 00 00    	je     1745 <trace_loop+0x375>
    15ee:	83 fa 14             	cmp    $0x14,%edx
    15f1:	0f 85 5d fe ff ff    	jne    1454 <trace_loop+0x84>
    15f7:	8b 45 90             	mov    -0x70(%ebp),%eax
    15fa:	83 c0 02             	add    $0x2,%eax
    15fd:	83 f8 01             	cmp    $0x1,%eax
    1600:	0f 86 4e fe ff ff    	jbe    1454 <trace_loop+0x84>
    1606:	8b 45 b0             	mov    -0x50(%ebp),%eax
    1609:	c7 45 d8 00 00 00 00 	movl   $0x0,-0x28(%ebp)
    1610:	89 45 c4             	mov    %eax,-0x3c(%ebp)
    1613:	8b 45 b4             	mov    -0x4c(%ebp),%eax
    1616:	89 45 c8             	mov    %eax,-0x38(%ebp)
    1619:	8b 45 b8             	mov    -0x48(%ebp),%eax
    161c:	89 45 cc             	mov    %eax,-0x34(%ebp)
    161f:	8b 45 bc             	mov    -0x44(%ebp),%eax
    1622:	89 45 d0             	mov    %eax,-0x30(%ebp)
    1625:	8b 45 c0             	mov    -0x40(%ebp),%eax
    1628:	89 45 d4             	mov    %eax,-0x2c(%ebp)
    162b:	8b 45 90             	mov    -0x70(%ebp),%eax
    162e:	89 44 24 08          	mov    %eax,0x8(%esp)
    1632:	8d 45 c4             	lea    -0x3c(%ebp),%eax
    1635:	89 44 24 04          	mov    %eax,0x4(%esp)
    1639:	8b 45 ac             	mov    -0x54(%ebp),%eax
    163c:	89 04 24             	mov    %eax,(%esp)
    163f:	e8 fc 11 00 00       	call   2840 <ipcp_call_out>
    1644:	e9 0b fe ff ff       	jmp    1454 <trace_loop+0x84>
    1649:	8d b4 26 00 00 00 00 	lea    0x0(%esi,%eiz,1),%esi
    1650:	c7 04 24 96 03 02 00 	movl   $0x20396,(%esp)
    1657:	e8 44 9b 00 00       	call   b1a0 <printf>
    165c:	c7 04 24 68 4a 02 00 	movl   $0x24a68,(%esp)
    1663:	e8 a8 5b 00 00       	call   7210 <fibril_mutex_lock>
    1668:	c7 04 24 68 4a 02 00 	movl   $0x24a68,(%esp)
    166f:	c6 05 78 4a 02 00 01 	movb   $0x1,0x24a78
    1676:	e8 b5 5c 00 00       	call   7330 <fibril_mutex_unlock>
    167b:	e9 d4 fd ff ff       	jmp    1454 <trace_loop+0x84>
    1680:	8d 45 ac             	lea    -0x54(%ebp),%eax
    1683:	8b 55 a4             	mov    -0x5c(%ebp),%edx
    1686:	89 44 24 08          	mov    %eax,0x8(%esp)
    168a:	a1 08 46 02 00       	mov    0x24608,%eax
    168f:	89 7c 24 04          	mov    %edi,0x4(%esp)
    1693:	89 04 24             	mov    %eax,(%esp)
    1696:	89 55 88             	mov    %edx,-0x78(%ebp)
    1699:	e8 f2 6f 01 00       	call   18690 <udebug_args_read>
    169e:	8b 55 88             	mov    -0x78(%ebp),%edx
    16a1:	85 c0                	test   %eax,%eax
    16a3:	0f 88 d5 01 00 00    	js     187e <trace_loop+0x4ae>
    16a9:	f6 05 0c 46 02 00 02 	testb  $0x2,0x2460c
    16b0:	0f 84 9e fd ff ff    	je     1454 <trace_loop+0x84>
    16b6:	8d 14 52             	lea    (%edx,%edx,2),%edx
    16b9:	c7 04 24 1b 0e 02 00 	movl   $0x20e1b,(%esp)
    16c0:	c1 e2 02             	shl    $0x2,%edx
    16c3:	89 55 88             	mov    %edx,-0x78(%ebp)
    16c6:	8b 82 e0 0a 02 00    	mov    0x20ae0(%edx),%eax
    16cc:	89 44 24 04          	mov    %eax,0x4(%esp)
    16d0:	e8 cb 9a 00 00       	call   b1a0 <printf>
    16d5:	8b 55 88             	mov    -0x78(%ebp),%edx
    16d8:	c7 04 24 28 00 00 00 	movl   $0x28,(%esp)
    16df:	8b 92 e4 0a 02 00    	mov    0x20ae4(%edx),%edx
    16e5:	89 55 90             	mov    %edx,-0x70(%ebp)
    16e8:	e8 f3 97 00 00       	call   aee0 <putchar>
    16ed:	8b 55 90             	mov    -0x70(%ebp),%edx
    16f0:	85 d2                	test   %edx,%edx
    16f2:	7e 40                	jle    1734 <trace_loop+0x364>
    16f4:	8b 45 ac             	mov    -0x54(%ebp),%eax
    16f7:	c7 04 24 8e 03 02 00 	movl   $0x2038e,(%esp)
    16fe:	89 44 24 04          	mov    %eax,0x4(%esp)
    1702:	e8 99 9a 00 00       	call   b1a0 <printf>
    1707:	83 7d 90 01          	cmpl   $0x1,-0x70(%ebp)
    170b:	7e 27                	jle    1734 <trace_loop+0x364>
    170d:	ba 01 00 00 00       	mov    $0x1,%edx
    1712:	89 7d 8c             	mov    %edi,-0x74(%ebp)
    1715:	89 d7                	mov    %edx,%edi
    1717:	8b 44 bd ac          	mov    -0x54(%ebp,%edi,4),%eax
    171b:	c7 04 24 8c 03 02 00 	movl   $0x2038c,(%esp)
    1722:	89 44 24 04          	mov    %eax,0x4(%esp)
    1726:	47                   	inc    %edi
    1727:	e8 74 9a 00 00       	call   b1a0 <printf>
    172c:	3b 7d 90             	cmp    -0x70(%ebp),%edi
    172f:	75 e6                	jne    1717 <trace_loop+0x347>
    1731:	8b 7d 8c             	mov    -0x74(%ebp),%edi
    1734:	c7 04 24 29 00 00 00 	movl   $0x29,(%esp)
    173b:	e8 a0 97 00 00       	call   aee0 <putchar>
    1740:	e9 0f fd ff ff       	jmp    1454 <trace_loop+0x84>
    1745:	8b 45 90             	mov    -0x70(%ebp),%eax
    1748:	85 c0                	test   %eax,%eax
    174a:	0f 84 04 fd ff ff    	je     1454 <trace_loop+0x84>
    1750:	8d 55 c4             	lea    -0x3c(%ebp),%edx
    1753:	c7 44 24 08 24 00 00 	movl   $0x24,0x8(%esp)
    175a:	00 
    175b:	89 14 24             	mov    %edx,(%esp)
    175e:	c7 44 24 04 00 00 00 	movl   $0x0,0x4(%esp)
    1765:	00 
    1766:	89 55 88             	mov    %edx,-0x78(%ebp)
    1769:	e8 f2 18 00 00       	call   3060 <memset>
    176e:	8b 45 ac             	mov    -0x54(%ebp),%eax
    1771:	8b 55 88             	mov    -0x78(%ebp),%edx
    1774:	89 44 24 08          	mov    %eax,0x8(%esp)
    1778:	a1 08 46 02 00       	mov    0x24608,%eax
    177d:	89 54 24 04          	mov    %edx,0x4(%esp)
    1781:	c7 44 24 0c 24 00 00 	movl   $0x24,0xc(%esp)
    1788:	00 
    1789:	89 04 24             	mov    %eax,(%esp)
    178c:	e8 8f 6e 01 00       	call   18620 <udebug_mem_read>
    1791:	8b 55 88             	mov    -0x78(%ebp),%edx
    1794:	85 c0                	test   %eax,%eax
    1796:	0f 88 b8 fc ff ff    	js     1454 <trace_loop+0x84>
    179c:	8b 45 90             	mov    -0x70(%ebp),%eax
    179f:	89 14 24             	mov    %edx,(%esp)
    17a2:	89 44 24 04          	mov    %eax,0x4(%esp)
    17a6:	e8 05 13 00 00       	call   2ab0 <ipcp_call_in>
    17ab:	e9 a4 fc ff ff       	jmp    1454 <trace_loop+0x84>
    17b0:	c7 04 24 63 03 02 00 	movl   $0x20363,(%esp)
    17b7:	e8 e4 99 00 00       	call   b1a0 <printf>
    17bc:	b8 fd ff ff ff       	mov    $0xfffffffd,%eax
    17c1:	e9 17 fd ff ff       	jmp    14dd <trace_loop+0x10d>
    17c6:	8d 04 52             	lea    (%edx,%edx,2),%eax
    17c9:	c7 04 24 91 03 02 00 	movl   $0x20391,(%esp)
    17d0:	89 55 88             	mov    %edx,-0x78(%ebp)
    17d3:	8b 0c 85 e8 0a 02 00 	mov    0x20ae8(,%eax,4),%ecx
    17da:	89 4d 84             	mov    %ecx,-0x7c(%ebp)
    17dd:	e8 be 99 00 00       	call   b1a0 <printf>
    17e2:	8b 4d 84             	mov    -0x7c(%ebp),%ecx
    17e5:	8b 45 90             	mov    -0x70(%ebp),%eax
    17e8:	89 4c 24 04          	mov    %ecx,0x4(%esp)
    17ec:	89 04 24             	mov    %eax,(%esp)
    17ef:	e8 8c fa ff ff       	call   1280 <val_print>
    17f4:	c7 04 24 0a 00 00 00 	movl   $0xa,(%esp)
    17fb:	e8 e0 96 00 00       	call   aee0 <putchar>
    1800:	8b 55 88             	mov    -0x78(%ebp),%edx
    1803:	e9 d4 fd ff ff       	jmp    15dc <trace_loop+0x20c>
    1808:	8b 45 90             	mov    -0x70(%ebp),%eax
    180b:	83 c0 02             	add    $0x2,%eax
    180e:	83 f8 01             	cmp    $0x1,%eax
    1811:	0f 86 3d fc ff ff    	jbe    1454 <trace_loop+0x84>
    1817:	8d 55 c4             	lea    -0x3c(%ebp),%edx
    181a:	c7 44 24 08 24 00 00 	movl   $0x24,0x8(%esp)
    1821:	00 
    1822:	89 14 24             	mov    %edx,(%esp)
    1825:	c7 44 24 04 00 00 00 	movl   $0x0,0x4(%esp)
    182c:	00 
    182d:	89 55 88             	mov    %edx,-0x78(%ebp)
    1830:	e8 2b 18 00 00       	call   3060 <memset>
    1835:	8b 45 b0             	mov    -0x50(%ebp),%eax
    1838:	8b 55 88             	mov    -0x78(%ebp),%edx
    183b:	89 44 24 08          	mov    %eax,0x8(%esp)
    183f:	a1 08 46 02 00       	mov    0x24608,%eax
    1844:	89 54 24 04          	mov    %edx,0x4(%esp)
    1848:	c7 44 24 0c 18 00 00 	movl   $0x18,0xc(%esp)
    184f:	00 
    1850:	89 04 24             	mov    %eax,(%esp)
    1853:	e8 c8 6d 01 00       	call   18620 <udebug_mem_read>
    1858:	8b 55 88             	mov    -0x78(%ebp),%edx
    185b:	85 c0                	test   %eax,%eax
    185d:	0f 88 f1 fb ff ff    	js     1454 <trace_loop+0x84>
    1863:	8b 45 90             	mov    -0x70(%ebp),%eax
    1866:	89 54 24 04          	mov    %edx,0x4(%esp)
    186a:	89 44 24 08          	mov    %eax,0x8(%esp)
    186e:	8b 45 ac             	mov    -0x54(%ebp),%eax
    1871:	89 04 24             	mov    %eax,(%esp)
    1874:	e8 c7 0f 00 00       	call   2840 <ipcp_call_out>
    1879:	e9 d6 fb ff ff       	jmp    1454 <trace_loop+0x84>
    187e:	c7 04 24 28 04 02 00 	movl   $0x20428,(%esp)
    1885:	e8 16 99 00 00       	call   b1a0 <printf>
    188a:	e9 c5 fb ff ff       	jmp    1454 <trace_loop+0x84>
    188f:	90                   	nop

00001890 <thread_trace_start>:
    1890:	55                   	push   %ebp
    1891:	89 e5                	mov    %esp,%ebp
    1893:	53                   	push   %ebx
    1894:	83 ec 14             	sub    $0x14,%esp
    1897:	8b 45 08             	mov    0x8(%ebp),%eax
    189a:	89 44 24 04          	mov    %eax,0x4(%esp)
    189e:	c7 04 24 d0 13 00 00 	movl   $0x13d0,(%esp)
    18a5:	a3 e0 3c 02 00       	mov    %eax,0x23ce0
    18aa:	e8 81 54 00 00       	call   6d30 <fibril_create>
    18af:	89 c3                	mov    %eax,%ebx
    18b1:	85 c0                	test   %eax,%eax
    18b3:	75 0c                	jne    18c1 <thread_trace_start+0x31>
    18b5:	c7 04 24 e8 06 02 00 	movl   $0x206e8,(%esp)
    18bc:	e8 df 98 00 00       	call   b1a0 <printf>
    18c1:	89 5d 08             	mov    %ebx,0x8(%ebp)
    18c4:	83 c4 14             	add    $0x14,%esp
    18c7:	5b                   	pop    %ebx
    18c8:	5d                   	pop    %ebp
    18c9:	e9 a2 55 00 00       	jmp    6e70 <fibril_add_ready>
    18ce:	66 90                	xchg   %ax,%ax

000018d0 <main>:
    18d0:	55                   	push   %ebp
    18d1:	89 e5                	mov    %esp,%ebp
    18d3:	57                   	push   %edi
    18d4:	56                   	push   %esi
    18d5:	53                   	push   %ebx
    18d6:	83 e4 f0             	and    $0xfffffff0,%esp
    18d9:	83 c4 80             	add    $0xffffff80,%esp
    18dc:	c7 04 24 e2 03 02 00 	movl   $0x203e2,(%esp)
    18e3:	e8 b8 98 00 00       	call   b1a0 <printf>
    18e8:	c7 04 24 0c 07 02 00 	movl   $0x2070c,(%esp)
    18ef:	e8 ac 98 00 00       	call   b1a0 <printf>
    18f4:	8b 5d 08             	mov    0x8(%ebp),%ebx
    18f7:	4b                   	dec    %ebx
    18f8:	8b 55 0c             	mov    0xc(%ebp),%edx
    18fb:	83 c2 04             	add    $0x4,%edx
    18fe:	c7 05 0c 46 02 00 19 	movl   $0x19,0x2460c
    1905:	00 00 00 
    1908:	c7 05 88 4a 02 00 00 	movl   $0x0,0x24a88
    190f:	00 00 00 
    1912:	c7 05 8c 4a 02 00 00 	movl   $0x0,0x24a8c
    1919:	00 00 00 
    191c:	85 db                	test   %ebx,%ebx
    191e:	0f 8e 1b 01 00 00    	jle    1a3f <main+0x16f>
    1924:	8d 7c 24 38          	lea    0x38(%esp),%edi
    1928:	eb 6d                	jmp    1997 <main+0xc7>
    192a:	8d b6 00 00 00 00    	lea    0x0(%esi),%esi
    1930:	3c 2d                	cmp    $0x2d,%al
    1932:	0f 85 b8 09 00 00    	jne    22f0 <main+0xa20>
    1938:	80 79 01 74          	cmpb   $0x74,0x1(%ecx)
    193c:	0f 85 c2 00 00 00    	jne    1a04 <main+0x134>
    1942:	c7 44 24 08 0a 00 00 	movl   $0xa,0x8(%esp)
    1949:	00 
    194a:	89 7c 24 04          	mov    %edi,0x4(%esp)
    194e:	8b 42 04             	mov    0x4(%edx),%eax
    1951:	8d 72 04             	lea    0x4(%edx),%esi
    1954:	89 04 24             	mov    %eax,(%esp)
    1957:	4b                   	dec    %ebx
    1958:	e8 f3 45 00 00       	call   5f50 <strtol>
    195d:	c7 05 90 4a 02 00 00 	movl   $0x0,0x24a90
    1964:	00 00 00 
    1967:	89 c2                	mov    %eax,%edx
    1969:	a3 88 4a 02 00       	mov    %eax,0x24a88
    196e:	c1 fa 1f             	sar    $0x1f,%edx
    1971:	8b 44 24 38          	mov    0x38(%esp),%eax
    1975:	89 15 8c 4a 02 00    	mov    %edx,0x24a8c
    197b:	c6 05 94 4a 02 00 00 	movb   $0x0,0x24a94
    1982:	80 38 00             	cmpb   $0x0,(%eax)
    1985:	0f 85 a1 00 00 00    	jne    1a2c <main+0x15c>
    198b:	4b                   	dec    %ebx
    198c:	8d 56 04             	lea    0x4(%esi),%edx
    198f:	85 db                	test   %ebx,%ebx
    1991:	0f 8e bb 00 00 00    	jle    1a52 <main+0x182>
    1997:	8b 0a                	mov    (%edx),%ecx
    1999:	8a 01                	mov    (%ecx),%al
    199b:	3c 2b                	cmp    $0x2b,%al
    199d:	75 91                	jne    1930 <main+0x60>
    199f:	0f be 41 01          	movsbl 0x1(%ecx),%eax
    19a3:	8d 71 01             	lea    0x1(%ecx),%esi
    19a6:	31 c9                	xor    %ecx,%ecx
    19a8:	84 c0                	test   %al,%al
    19aa:	74 3f                	je     19eb <main+0x11b>
    19ac:	3c 70                	cmp    $0x70,%al
    19ae:	74 4a                	je     19fa <main+0x12a>
    19b0:	7f 26                	jg     19d8 <main+0x108>
    19b2:	3c 69                	cmp    $0x69,%al
    19b4:	74 49                	je     19ff <main+0x12f>
    19b6:	89 44 24 04          	mov    %eax,0x4(%esp)
    19ba:	c7 04 24 fc 03 02 00 	movl   $0x203fc,(%esp)
    19c1:	e8 da 97 00 00       	call   b1a0 <printf>
    19c6:	c7 04 24 01 00 00 00 	movl   $0x1,(%esp)
    19cd:	e8 ee 14 00 00       	call   2ec0 <exit>
    19d2:	8d b6 00 00 00 00    	lea    0x0(%esi),%esi
    19d8:	3c 73                	cmp    $0x73,%al
    19da:	74 19                	je     19f5 <main+0x125>
    19dc:	3c 74                	cmp    $0x74,%al
    19de:	75 d6                	jne    19b6 <main+0xe6>
    19e0:	83 c9 01             	or     $0x1,%ecx
    19e3:	46                   	inc    %esi
    19e4:	0f be 06             	movsbl (%esi),%eax
    19e7:	84 c0                	test   %al,%al
    19e9:	75 c1                	jne    19ac <main+0xdc>
    19eb:	89 0d 0c 46 02 00    	mov    %ecx,0x2460c
    19f1:	89 d6                	mov    %edx,%esi
    19f3:	eb 96                	jmp    198b <main+0xbb>
    19f5:	83 c9 02             	or     $0x2,%ecx
    19f8:	eb e9                	jmp    19e3 <main+0x113>
    19fa:	83 c9 18             	or     $0x18,%ecx
    19fd:	eb e4                	jmp    19e3 <main+0x113>
    19ff:	83 c9 04             	or     $0x4,%ecx
    1a02:	eb df                	jmp    19e3 <main+0x113>
    1a04:	c7 44 24 04 2d 00 00 	movl   $0x2d,0x4(%esp)
    1a0b:	00 
    1a0c:	c7 04 24 2f 04 02 00 	movl   $0x2042f,(%esp)
    1a13:	e8 88 97 00 00       	call   b1a0 <printf>
    1a18:	e8 a3 f6 ff ff       	call   10c0 <print_syntax>
    1a1d:	bb 01 00 00 00       	mov    $0x1,%ebx
    1a22:	8d 65 f4             	lea    -0xc(%ebp),%esp
    1a25:	89 d8                	mov    %ebx,%eax
    1a27:	5b                   	pop    %ebx
    1a28:	5e                   	pop    %esi
    1a29:	5f                   	pop    %edi
    1a2a:	5d                   	pop    %ebp
    1a2b:	c3                   	ret    
    1a2c:	c7 04 24 19 04 02 00 	movl   $0x20419,(%esp)
    1a33:	e8 68 97 00 00       	call   b1a0 <printf>
    1a38:	e8 83 f6 ff ff       	call   10c0 <print_syntax>
    1a3d:	eb de                	jmp    1a1d <main+0x14d>
    1a3f:	c7 04 24 54 04 02 00 	movl   $0x20454,(%esp)
    1a46:	e8 55 97 00 00       	call   b1a0 <printf>
    1a4b:	e8 70 f6 ff ff       	call   10c0 <print_syntax>
    1a50:	eb cb                	jmp    1a1d <main+0x14d>
    1a52:	a1 8c 4a 02 00       	mov    0x24a8c,%eax
    1a57:	0b 05 88 4a 02 00    	or     0x24a88,%eax
    1a5d:	74 e0                	je     1a3f <main+0x16f>
    1a5f:	85 db                	test   %ebx,%ebx
    1a61:	0f 85 5f 08 00 00    	jne    22c6 <main+0x9f6>
    1a67:	c7 04 24 68 4a 02 00 	movl   $0x24a68,(%esp)
    1a6e:	c7 44 24 58 01 00 00 	movl   $0x1,0x58(%esp)
    1a75:	00 
    1a76:	c7 44 24 5c 01 00 00 	movl   $0x1,0x5c(%esp)
    1a7d:	00 
    1a7e:	c7 44 24 60 01 00 00 	movl   $0x1,0x60(%esp)
    1a85:	00 
    1a86:	c7 44 24 64 01 00 00 	movl   $0x1,0x64(%esp)
    1a8d:	00 
    1a8e:	c7 44 24 68 01 00 00 	movl   $0x1,0x68(%esp)
    1a95:	00 
    1a96:	c7 44 24 6c 01 00 00 	movl   $0x1,0x6c(%esp)
    1a9d:	00 
    1a9e:	c7 44 24 70 01 00 00 	movl   $0x1,0x70(%esp)
    1aa5:	00 
    1aa6:	c7 44 24 74 01 00 00 	movl   $0x1,0x74(%esp)
    1aad:	00 
    1aae:	c7 44 24 78 01 00 00 	movl   $0x1,0x78(%esp)
    1ab5:	00 
    1ab6:	c7 44 24 7c 01 00 00 	movl   $0x1,0x7c(%esp)
    1abd:	00 
    1abe:	c7 05 20 47 02 00 01 	movl   $0x1,0x24720
    1ac5:	00 00 00 
    1ac8:	c6 05 78 4a 02 00 00 	movb   $0x0,0x24a78
    1acf:	c6 05 95 4a 02 00 00 	movb   $0x0,0x24a95
    1ad6:	e8 15 57 00 00       	call   71f0 <fibril_mutex_initialize>
    1adb:	c7 04 24 7c 4a 02 00 	movl   $0x24a7c,(%esp)
    1ae2:	e8 99 5d 00 00       	call   7880 <fibril_condvar_initialize>
    1ae7:	8d 7c 24 6c          	lea    0x6c(%esp),%edi
    1aeb:	e8 90 11 00 00       	call   2c80 <proto_init>
    1af0:	c7 04 24 ac 05 02 00 	movl   $0x205ac,(%esp)
    1af7:	e8 64 12 00 00       	call   2d60 <proto_new>
    1afc:	8d 74 24 58          	lea    0x58(%esp),%esi
    1b00:	89 7c 24 14          	mov    %edi,0x14(%esp)
    1b04:	89 74 24 08          	mov    %esi,0x8(%esp)
    1b08:	c7 44 24 10 00 00 00 	movl   $0x0,0x10(%esp)
    1b0f:	00 
    1b10:	c7 44 24 0c 05 00 00 	movl   $0x5,0xc(%esp)
    1b17:	00 
    1b18:	c7 44 24 04 02 00 00 	movl   $0x2,0x4(%esp)
    1b1f:	00 
    1b20:	c7 04 24 b0 05 02 00 	movl   $0x205b0,(%esp)
    1b27:	89 c3                	mov    %eax,%ebx
    1b29:	e8 22 13 00 00       	call   2e50 <oper_new>
    1b2e:	89 1c 24             	mov    %ebx,(%esp)
    1b31:	89 44 24 08          	mov    %eax,0x8(%esp)
    1b35:	c7 44 24 04 00 04 00 	movl   $0x400,0x4(%esp)
    1b3c:	00 
    1b3d:	e8 9e 12 00 00       	call   2de0 <proto_add_oper>
    1b42:	89 7c 24 14          	mov    %edi,0x14(%esp)
    1b46:	89 74 24 08          	mov    %esi,0x8(%esp)
    1b4a:	c7 44 24 10 01 00 00 	movl   $0x1,0x10(%esp)
    1b51:	00 
    1b52:	c7 44 24 0c 04 00 00 	movl   $0x4,0xc(%esp)
    1b59:	00 
    1b5a:	c7 44 24 04 01 00 00 	movl   $0x1,0x4(%esp)
    1b61:	00 
    1b62:	c7 04 24 b5 05 02 00 	movl   $0x205b5,(%esp)
    1b69:	e8 e2 12 00 00       	call   2e50 <oper_new>
    1b6e:	89 1c 24             	mov    %ebx,(%esp)
    1b71:	89 44 24 08          	mov    %eax,0x8(%esp)
    1b75:	c7 44 24 04 01 04 00 	movl   $0x401,0x4(%esp)
    1b7c:	00 
    1b7d:	e8 5e 12 00 00       	call   2de0 <proto_add_oper>
    1b82:	89 7c 24 14          	mov    %edi,0x14(%esp)
    1b86:	89 74 24 08          	mov    %esi,0x8(%esp)
    1b8a:	c7 44 24 10 01 00 00 	movl   $0x1,0x10(%esp)
    1b91:	00 
    1b92:	c7 44 24 0c 04 00 00 	movl   $0x4,0xc(%esp)
    1b99:	00 
    1b9a:	c7 44 24 04 01 00 00 	movl   $0x1,0x4(%esp)
    1ba1:	00 
    1ba2:	c7 04 24 ba 05 02 00 	movl   $0x205ba,(%esp)
    1ba9:	e8 a2 12 00 00       	call   2e50 <oper_new>
    1bae:	89 1c 24             	mov    %ebx,(%esp)
    1bb1:	89 44 24 08          	mov    %eax,0x8(%esp)
    1bb5:	c7 44 24 04 02 04 00 	movl   $0x402,0x4(%esp)
    1bbc:	00 
    1bbd:	e8 1e 12 00 00       	call   2de0 <proto_add_oper>
    1bc2:	89 7c 24 14          	mov    %edi,0x14(%esp)
    1bc6:	89 74 24 08          	mov    %esi,0x8(%esp)
    1bca:	c7 44 24 10 00 00 00 	movl   $0x0,0x10(%esp)
    1bd1:	00 
    1bd2:	c7 44 24 0c 04 00 00 	movl   $0x4,0xc(%esp)
    1bd9:	00 
    1bda:	c7 44 24 04 03 00 00 	movl   $0x3,0x4(%esp)
    1be1:	00 
    1be2:	c7 04 24 c0 05 02 00 	movl   $0x205c0,(%esp)
    1be9:	e8 62 12 00 00       	call   2e50 <oper_new>
    1bee:	89 1c 24             	mov    %ebx,(%esp)
    1bf1:	89 44 24 08          	mov    %eax,0x8(%esp)
    1bf5:	c7 44 24 04 03 04 00 	movl   $0x403,0x4(%esp)
    1bfc:	00 
    1bfd:	e8 de 11 00 00       	call   2de0 <proto_add_oper>
    1c02:	89 7c 24 14          	mov    %edi,0x14(%esp)
    1c06:	89 74 24 08          	mov    %esi,0x8(%esp)
    1c0a:	c7 44 24 10 00 00 00 	movl   $0x0,0x10(%esp)
    1c11:	00 
    1c12:	c7 44 24 0c 04 00 00 	movl   $0x4,0xc(%esp)
    1c19:	00 
    1c1a:	c7 44 24 04 05 00 00 	movl   $0x5,0x4(%esp)
    1c21:	00 
    1c22:	c7 04 24 c5 05 02 00 	movl   $0x205c5,(%esp)
    1c29:	e8 22 12 00 00       	call   2e50 <oper_new>
    1c2e:	89 1c 24             	mov    %ebx,(%esp)
    1c31:	89 44 24 08          	mov    %eax,0x8(%esp)
    1c35:	c7 44 24 04 04 04 00 	movl   $0x404,0x4(%esp)
    1c3c:	00 
    1c3d:	e8 9e 11 00 00       	call   2de0 <proto_add_oper>
    1c42:	89 7c 24 14          	mov    %edi,0x14(%esp)
    1c46:	89 74 24 08          	mov    %esi,0x8(%esp)
    1c4a:	c7 44 24 10 00 00 00 	movl   $0x0,0x10(%esp)
    1c51:	00 
    1c52:	c7 44 24 0c 04 00 00 	movl   $0x4,0xc(%esp)
    1c59:	00 
    1c5a:	c7 44 24 04 01 00 00 	movl   $0x1,0x4(%esp)
    1c61:	00 
    1c62:	c7 04 24 ce 05 02 00 	movl   $0x205ce,(%esp)
    1c69:	e8 e2 11 00 00       	call   2e50 <oper_new>
    1c6e:	89 1c 24             	mov    %ebx,(%esp)
    1c71:	89 44 24 08          	mov    %eax,0x8(%esp)
    1c75:	c7 44 24 04 05 04 00 	movl   $0x405,0x4(%esp)
    1c7c:	00 
    1c7d:	e8 5e 11 00 00       	call   2de0 <proto_add_oper>
    1c82:	89 7c 24 14          	mov    %edi,0x14(%esp)
    1c86:	89 74 24 08          	mov    %esi,0x8(%esp)
    1c8a:	c7 44 24 10 00 00 00 	movl   $0x0,0x10(%esp)
    1c91:	00 
    1c92:	c7 44 24 0c 04 00 00 	movl   $0x4,0xc(%esp)
    1c99:	00 
    1c9a:	c7 44 24 04 01 00 00 	movl   $0x1,0x4(%esp)
    1ca1:	00 
    1ca2:	c7 04 24 d4 05 02 00 	movl   $0x205d4,(%esp)
    1ca9:	e8 a2 11 00 00       	call   2e50 <oper_new>
    1cae:	89 1c 24             	mov    %ebx,(%esp)
    1cb1:	89 44 24 08          	mov    %eax,0x8(%esp)
    1cb5:	c7 44 24 04 06 04 00 	movl   $0x406,0x4(%esp)
    1cbc:	00 
    1cbd:	e8 1e 11 00 00       	call   2de0 <proto_add_oper>
    1cc2:	89 7c 24 14          	mov    %edi,0x14(%esp)
    1cc6:	89 74 24 08          	mov    %esi,0x8(%esp)
    1cca:	c7 44 24 10 00 00 00 	movl   $0x0,0x10(%esp)
    1cd1:	00 
    1cd2:	c7 44 24 0c 04 00 00 	movl   $0x4,0xc(%esp)
    1cd9:	00 
    1cda:	c7 44 24 04 02 00 00 	movl   $0x2,0x4(%esp)
    1ce1:	00 
    1ce2:	c7 04 24 da 05 02 00 	movl   $0x205da,(%esp)
    1ce9:	e8 62 11 00 00       	call   2e50 <oper_new>
    1cee:	89 1c 24             	mov    %ebx,(%esp)
    1cf1:	89 44 24 08          	mov    %eax,0x8(%esp)
    1cf5:	c7 44 24 04 08 04 00 	movl   $0x408,0x4(%esp)
    1cfc:	00 
    1cfd:	e8 de 10 00 00       	call   2de0 <proto_add_oper>
    1d02:	89 7c 24 14          	mov    %edi,0x14(%esp)
    1d06:	89 74 24 08          	mov    %esi,0x8(%esp)
    1d0a:	c7 44 24 10 00 00 00 	movl   $0x0,0x10(%esp)
    1d11:	00 
    1d12:	c7 44 24 0c 04 00 00 	movl   $0x4,0xc(%esp)
    1d19:	00 
    1d1a:	c7 44 24 04 01 00 00 	movl   $0x1,0x4(%esp)
    1d21:	00 
    1d22:	c7 04 24 e0 05 02 00 	movl   $0x205e0,(%esp)
    1d29:	e8 22 11 00 00       	call   2e50 <oper_new>
    1d2e:	89 1c 24             	mov    %ebx,(%esp)
    1d31:	89 44 24 08          	mov    %eax,0x8(%esp)
    1d35:	c7 44 24 04 0a 04 00 	movl   $0x40a,0x4(%esp)
    1d3c:	00 
    1d3d:	e8 9e 10 00 00       	call   2de0 <proto_add_oper>
    1d42:	89 7c 24 14          	mov    %edi,0x14(%esp)
    1d46:	89 74 24 08          	mov    %esi,0x8(%esp)
    1d4a:	c7 44 24 10 00 00 00 	movl   $0x0,0x10(%esp)
    1d51:	00 
    1d52:	c7 44 24 0c 04 00 00 	movl   $0x4,0xc(%esp)
    1d59:	00 
    1d5a:	c7 44 24 04 01 00 00 	movl   $0x1,0x4(%esp)
    1d61:	00 
    1d62:	c7 04 24 e5 05 02 00 	movl   $0x205e5,(%esp)
    1d69:	e8 e2 10 00 00       	call   2e50 <oper_new>
    1d6e:	89 1c 24             	mov    %ebx,(%esp)
    1d71:	89 44 24 08          	mov    %eax,0x8(%esp)
    1d75:	c7 44 24 04 0c 04 00 	movl   $0x40c,0x4(%esp)
    1d7c:	00 
    1d7d:	e8 5e 10 00 00       	call   2de0 <proto_add_oper>
    1d82:	89 7c 24 14          	mov    %edi,0x14(%esp)
    1d86:	89 74 24 08          	mov    %esi,0x8(%esp)
    1d8a:	c7 44 24 10 00 00 00 	movl   $0x0,0x10(%esp)
    1d91:	00 
    1d92:	c7 44 24 0c 04 00 00 	movl   $0x4,0xc(%esp)
    1d99:	00 
    1d9a:	c7 44 24 04 00 00 00 	movl   $0x0,0x4(%esp)
    1da1:	00 
    1da2:	c7 04 24 eb 05 02 00 	movl   $0x205eb,(%esp)
    1da9:	e8 a2 10 00 00       	call   2e50 <oper_new>
    1dae:	89 1c 24             	mov    %ebx,(%esp)
    1db1:	89 44 24 08          	mov    %eax,0x8(%esp)
    1db5:	c7 44 24 04 0d 04 00 	movl   $0x40d,0x4(%esp)
    1dbc:	00 
    1dbd:	e8 1e 10 00 00       	call   2de0 <proto_add_oper>
    1dc2:	89 7c 24 14          	mov    %edi,0x14(%esp)
    1dc6:	89 74 24 08          	mov    %esi,0x8(%esp)
    1dca:	c7 44 24 10 00 00 00 	movl   $0x0,0x10(%esp)
    1dd1:	00 
    1dd2:	c7 44 24 0c 04 00 00 	movl   $0x4,0xc(%esp)
    1dd9:	00 
    1dda:	c7 44 24 04 00 00 00 	movl   $0x0,0x4(%esp)
    1de1:	00 
    1de2:	c7 04 24 f2 05 02 00 	movl   $0x205f2,(%esp)
    1de9:	e8 62 10 00 00       	call   2e50 <oper_new>
    1dee:	89 1c 24             	mov    %ebx,(%esp)
    1df1:	89 44 24 08          	mov    %eax,0x8(%esp)
    1df5:	c7 44 24 04 0e 04 00 	movl   $0x40e,0x4(%esp)
    1dfc:	00 
    1dfd:	e8 de 0f 00 00       	call   2de0 <proto_add_oper>
    1e02:	89 7c 24 14          	mov    %edi,0x14(%esp)
    1e06:	89 74 24 08          	mov    %esi,0x8(%esp)
    1e0a:	c7 44 24 10 00 00 00 	movl   $0x0,0x10(%esp)
    1e11:	00 
    1e12:	c7 44 24 0c 04 00 00 	movl   $0x4,0xc(%esp)
    1e19:	00 
    1e1a:	c7 44 24 04 00 00 00 	movl   $0x0,0x4(%esp)
    1e21:	00 
    1e22:	c7 04 24 cf 05 02 00 	movl   $0x205cf,(%esp)
    1e29:	e8 22 10 00 00       	call   2e50 <oper_new>
    1e2e:	89 1c 24             	mov    %ebx,(%esp)
    1e31:	89 44 24 08          	mov    %eax,0x8(%esp)
    1e35:	c7 44 24 04 0f 04 00 	movl   $0x40f,0x4(%esp)
    1e3c:	00 
    1e3d:	e8 9e 0f 00 00       	call   2de0 <proto_add_oper>
    1e42:	89 5c 24 04          	mov    %ebx,0x4(%esp)
    1e46:	c7 04 24 76 66 73 20 	movl   $0x20736676,(%esp)
    1e4d:	e8 9e 0e 00 00       	call   2cf0 <proto_register>
    1e52:	8b 35 88 4a 02 00    	mov    0x24a88,%esi
    1e58:	8b 3d 8c 4a 02 00    	mov    0x24a8c,%edi
    1e5e:	89 34 24             	mov    %esi,(%esp)
    1e61:	89 7c 24 04          	mov    %edi,0x4(%esp)
    1e65:	e8 06 18 01 00       	call   13670 <async_connect_kbox>
    1e6a:	89 c3                	mov    %eax,%ebx
    1e6c:	85 c0                	test   %eax,%eax
    1e6e:	0f 84 5d 03 00 00    	je     21d1 <main+0x901>
    1e74:	89 1c 24             	mov    %ebx,(%esp)
    1e77:	e8 d4 64 01 00       	call   18350 <udebug_begin>
    1e7c:	85 c0                	test   %eax,%eax
    1e7e:	0f 88 db 03 00 00    	js     225f <main+0x98f>
    1e84:	c7 44 24 04 3f 00 00 	movl   $0x3f,0x4(%esp)
    1e8b:	00 
    1e8c:	89 1c 24             	mov    %ebx,(%esp)
    1e8f:	e8 9c 65 01 00       	call   18430 <udebug_set_evmask>
    1e94:	85 c0                	test   %eax,%eax
    1e96:	0f 88 0d 04 00 00    	js     22a9 <main+0x9d9>
    1e9c:	89 1d 08 46 02 00    	mov    %ebx,0x24608
    1ea2:	a1 88 4a 02 00       	mov    0x24a88,%eax
    1ea7:	8b 15 8c 4a 02 00    	mov    0x24a8c,%edx
    1ead:	89 44 24 04          	mov    %eax,0x4(%esp)
    1eb1:	89 54 24 08          	mov    %edx,0x8(%esp)
    1eb5:	c7 04 24 b2 04 02 00 	movl   $0x204b2,(%esp)
    1ebc:	e8 df 92 00 00       	call   b1a0 <printf>
    1ec1:	83 3d 90 4a 02 00 00 	cmpl   $0x0,0x24a90
    1ec8:	74 24                	je     1eee <main+0x61e>
    1eca:	c7 44 24 04 00 00 00 	movl   $0x0,0x4(%esp)
    1ed1:	00 
    1ed2:	c7 04 24 20 12 00 00 	movl   $0x1220,(%esp)
    1ed9:	e8 52 4e 00 00       	call   6d30 <fibril_create>
    1ede:	85 c0                	test   %eax,%eax
    1ee0:	0f 84 66 05 00 00    	je     244c <main+0xb7c>
    1ee6:	89 04 24             	mov    %eax,(%esp)
    1ee9:	e8 82 4f 00 00       	call   6e70 <fibril_add_ready>
    1eee:	c7 44 24 04 00 00 00 	movl   $0x0,0x4(%esp)
    1ef5:	00 
    1ef6:	c7 04 24 70 11 00 00 	movl   $0x1170,(%esp)
    1efd:	e8 2e 4e 00 00       	call   6d30 <fibril_create>
    1f02:	85 c0                	test   %eax,%eax
    1f04:	0f 84 42 05 00 00    	je     244c <main+0xb7c>
    1f0a:	89 04 24             	mov    %eax,(%esp)
    1f0d:	8d 7c 24 44          	lea    0x44(%esp),%edi
    1f11:	e8 5a 4f 00 00       	call   6e70 <fibril_add_ready>
    1f16:	e8 f5 07 00 00       	call   2710 <ipcp_init>
    1f1b:	8d 44 24 40          	lea    0x40(%esp),%eax
    1f1f:	89 44 24 0c          	mov    %eax,0xc(%esp)
    1f23:	a1 08 46 02 00       	mov    0x24608,%eax
    1f28:	89 7c 24 10          	mov    %edi,0x10(%esp)
    1f2c:	c7 44 24 08 00 01 00 	movl   $0x100,0x8(%esp)
    1f33:	00 
    1f34:	c7 44 24 04 20 46 02 	movl   $0x24620,0x4(%esp)
    1f3b:	00 
    1f3c:	89 04 24             	mov    %eax,(%esp)
    1f3f:	e8 5c 65 01 00       	call   184a0 <udebug_thread_read>
    1f44:	89 c3                	mov    %eax,%ebx
    1f46:	85 c0                	test   %eax,%eax
    1f48:	0f 88 ec 02 00 00    	js     223a <main+0x96a>
    1f4e:	8b 44 24 40          	mov    0x40(%esp),%eax
    1f52:	c7 04 24 fe 04 02 00 	movl   $0x204fe,(%esp)
    1f59:	c1 e8 02             	shr    $0x2,%eax
    1f5c:	31 f6                	xor    %esi,%esi
    1f5e:	a3 00 46 02 00       	mov    %eax,0x24600
    1f63:	e8 38 92 00 00       	call   b1a0 <printf>
    1f68:	83 3d 00 46 02 00 00 	cmpl   $0x0,0x24600
    1f6f:	7e 2b                	jle    1f9c <main+0x6cc>
    1f71:	8d b4 26 00 00 00 00 	lea    0x0(%esi,%eiz,1),%esi
    1f78:	8b 04 b5 20 46 02 00 	mov    0x24620(,%esi,4),%eax
    1f7f:	46                   	inc    %esi
    1f80:	89 44 24 08          	mov    %eax,0x8(%esp)
    1f84:	89 74 24 04          	mov    %esi,0x4(%esp)
    1f88:	c7 04 24 1e 05 02 00 	movl   $0x2051e,(%esp)
    1f8f:	e8 0c 92 00 00       	call   b1a0 <printf>
    1f94:	3b 35 00 46 02 00    	cmp    0x24600,%esi
    1f9a:	7c dc                	jl     1f78 <main+0x6a8>
    1f9c:	8b 44 24 44          	mov    0x44(%esp),%eax
    1fa0:	c7 04 24 07 05 02 00 	movl   $0x20507,(%esp)
    1fa7:	c1 e8 02             	shr    $0x2,%eax
    1faa:	31 f6                	xor    %esi,%esi
    1fac:	89 44 24 04          	mov    %eax,0x4(%esp)
    1fb0:	e8 eb 91 00 00       	call   b1a0 <printf>
    1fb5:	c6 05 04 46 02 00 00 	movb   $0x0,0x24604
    1fbc:	83 3d 00 46 02 00 00 	cmpl   $0x0,0x24600
    1fc3:	7e 43                	jle    2008 <main+0x738>
    1fc5:	8d 76 00             	lea    0x0(%esi),%esi
    1fc8:	8b 04 b5 20 46 02 00 	mov    0x24620(,%esi,4),%eax
    1fcf:	c7 04 24 d0 13 00 00 	movl   $0x13d0,(%esp)
    1fd6:	89 44 24 04          	mov    %eax,0x4(%esp)
    1fda:	a3 e0 3c 02 00       	mov    %eax,0x23ce0
    1fdf:	e8 4c 4d 00 00       	call   6d30 <fibril_create>
    1fe4:	89 c3                	mov    %eax,%ebx
    1fe6:	85 c0                	test   %eax,%eax
    1fe8:	75 0c                	jne    1ff6 <main+0x726>
    1fea:	c7 04 24 e8 06 02 00 	movl   $0x206e8,(%esp)
    1ff1:	e8 aa 91 00 00       	call   b1a0 <printf>
    1ff6:	89 1c 24             	mov    %ebx,(%esp)
    1ff9:	46                   	inc    %esi
    1ffa:	e8 71 4e 00 00       	call   6e70 <fibril_add_ready>
    1fff:	3b 35 00 46 02 00    	cmp    0x24600,%esi
    2005:	7c c1                	jl     1fc8 <main+0x6f8>
    2007:	90                   	nop
    2008:	c7 04 24 68 4a 02 00 	movl   $0x24a68,(%esp)
    200f:	e8 fc 51 00 00       	call   7210 <fibril_mutex_lock>
    2014:	80 3d 95 4a 02 00 00 	cmpb   $0x0,0x24a95
    201b:	74 20                	je     203d <main+0x76d>
    201d:	eb 27                	jmp    2046 <main+0x776>
    201f:	90                   	nop
    2020:	c7 44 24 04 68 4a 02 	movl   $0x24a68,0x4(%esp)
    2027:	00 
    2028:	c7 04 24 7c 4a 02 00 	movl   $0x24a7c,(%esp)
    202f:	e8 2c 5e 00 00       	call   7e60 <fibril_condvar_wait>
    2034:	80 3d 95 4a 02 00 00 	cmpb   $0x0,0x24a95
    203b:	75 09                	jne    2046 <main+0x776>
    203d:	80 3d 04 46 02 00 00 	cmpb   $0x0,0x24604
    2044:	74 da                	je     2020 <main+0x750>
    2046:	c7 04 24 68 4a 02 00 	movl   $0x24a68,(%esp)
    204d:	e8 de 52 00 00       	call   7330 <fibril_mutex_unlock>
    2052:	c7 04 24 68 4a 02 00 	movl   $0x24a68,(%esp)
    2059:	8b 35 a0 4a 02 00    	mov    0x24aa0,%esi
    205f:	8b 1d a4 4a 02 00    	mov    0x24aa4,%ebx
    2065:	e8 a6 51 00 00       	call   7210 <fibril_mutex_lock>
    206a:	c7 04 24 7c 4a 02 00 	movl   $0x24a7c,(%esp)
    2071:	c6 05 95 4a 02 00 00 	movb   $0x0,0x24a95
    2078:	e8 b3 5e 00 00       	call   7f30 <fibril_condvar_broadcast>
    207d:	c7 04 24 68 4a 02 00 	movl   $0x24a68,(%esp)
    2084:	e8 a7 52 00 00       	call   7330 <fibril_mutex_unlock>
    2089:	80 3d 04 46 02 00 00 	cmpb   $0x0,0x24604
    2090:	75 23                	jne    20b5 <main+0x7e5>
    2092:	85 f6                	test   %esi,%esi
    2094:	0f 85 6e ff ff ff    	jne    2008 <main+0x738>
    209a:	83 fb 13             	cmp    $0x13,%ebx
    209d:	0f 84 f2 00 00 00    	je     2195 <main+0x8c5>
    20a3:	83 fb 19             	cmp    $0x19,%ebx
    20a6:	0f 84 aa 00 00 00    	je     2156 <main+0x886>
    20ac:	83 fb 10             	cmp    $0x10,%ebx
    20af:	0f 85 53 ff ff ff    	jne    2008 <main+0x738>
    20b5:	c7 04 24 5c 08 02 00 	movl   $0x2085c,(%esp)
    20bc:	e8 df 90 00 00       	call   b1a0 <printf>
    20c1:	a1 08 46 02 00       	mov    0x24608,%eax
    20c6:	89 04 24             	mov    %eax,(%esp)
    20c9:	c6 05 04 46 02 00 01 	movb   $0x1,0x24604
    20d0:	e8 eb 62 01 00       	call   183c0 <udebug_end>
    20d5:	a1 08 46 02 00       	mov    0x24608,%eax
    20da:	89 04 24             	mov    %eax,(%esp)
    20dd:	e8 3e 16 01 00       	call   13720 <async_hangup>
    20e2:	e8 29 07 00 00       	call   2810 <ipcp_cleanup>
    20e7:	c7 04 24 56 05 02 00 	movl   $0x20556,(%esp)
    20ee:	e8 ad 90 00 00       	call   b1a0 <printf>
    20f3:	31 db                	xor    %ebx,%ebx
    20f5:	80 3d 94 4a 02 00 00 	cmpb   $0x0,0x24a94
    20fc:	0f 84 20 f9 ff ff    	je     1a22 <main+0x152>
    2102:	c7 04 24 5c 05 02 00 	movl   $0x2055c,(%esp)
    2109:	e8 92 90 00 00       	call   b1a0 <printf>
    210e:	89 7c 24 0c          	mov    %edi,0xc(%esp)
    2112:	8d 44 24 34          	lea    0x34(%esp),%eax
    2116:	8b 35 88 4a 02 00    	mov    0x24a88,%esi
    211c:	8b 3d 8c 4a 02 00    	mov    0x24a8c,%edi
    2122:	89 44 24 08          	mov    %eax,0x8(%esp)
    2126:	89 34 24             	mov    %esi,(%esp)
    2129:	89 7c 24 04          	mov    %edi,0x4(%esp)
    212d:	e8 4e 69 00 00       	call   8a80 <task_wait>
    2132:	85 c0                	test   %eax,%eax
    2134:	0f 85 a2 01 00 00    	jne    22dc <main+0xa0c>
    213a:	83 7c 24 34 00       	cmpl   $0x0,0x34(%esp)
    213f:	0f 84 2c 01 00 00    	je     2271 <main+0x9a1>
    2145:	c7 04 24 91 05 02 00 	movl   $0x20591,(%esp)
    214c:	e8 4f 90 00 00       	call   b1a0 <printf>
    2151:	e9 cc f8 ff ff       	jmp    1a22 <main+0x152>
    2156:	c7 04 24 2e 05 02 00 	movl   $0x2052e,(%esp)
    215d:	e8 3e 90 00 00       	call   b1a0 <printf>
    2162:	a1 e0 3c 02 00       	mov    0x23ce0,%eax
    2167:	89 44 24 04          	mov    %eax,0x4(%esp)
    216b:	a1 08 46 02 00       	mov    0x24608,%eax
    2170:	89 04 24             	mov    %eax,(%esp)
    2173:	e8 68 66 01 00       	call   187e0 <udebug_stop>
    2178:	85 c0                	test   %eax,%eax
    217a:	0f 84 88 fe ff ff    	je     2008 <main+0x738>
    2180:	89 44 24 04          	mov    %eax,0x4(%esp)
    2184:	c7 04 24 38 05 02 00 	movl   $0x20538,(%esp)
    218b:	e8 10 90 00 00       	call   b1a0 <printf>
    2190:	e9 73 fe ff ff       	jmp    2008 <main+0x738>
    2195:	c7 04 24 68 4a 02 00 	movl   $0x24a68,(%esp)
    219c:	e8 6f 50 00 00       	call   7210 <fibril_mutex_lock>
    21a1:	c7 04 24 7c 4a 02 00 	movl   $0x24a7c,(%esp)
    21a8:	c6 05 78 4a 02 00 00 	movb   $0x0,0x24a78
    21af:	e8 7c 5d 00 00       	call   7f30 <fibril_condvar_broadcast>
    21b4:	c7 04 24 68 4a 02 00 	movl   $0x24a68,(%esp)
    21bb:	e8 70 51 00 00       	call   7330 <fibril_mutex_unlock>
    21c0:	c7 04 24 4b 05 02 00 	movl   $0x2054b,(%esp)
    21c7:	e8 d4 8f 00 00       	call   b1a0 <printf>
    21cc:	e9 37 fe ff ff       	jmp    2008 <main+0x738>
    21d1:	e8 7a 0e 00 00       	call   3050 <__errno>
    21d6:	89 c3                	mov    %eax,%ebx
    21d8:	83 38 f5             	cmpl   $0xfffffff5,(%eax)
    21db:	0f 84 a9 00 00 00    	je     228a <main+0x9ba>
    21e1:	c7 04 24 6c 04 02 00 	movl   $0x2046c,(%esp)
    21e8:	e8 b3 8f 00 00       	call   b1a0 <printf>
    21ed:	8b 03                	mov    (%ebx),%eax
    21ef:	89 44 24 0c          	mov    %eax,0xc(%esp)
    21f3:	89 74 24 04          	mov    %esi,0x4(%esp)
    21f7:	89 7c 24 08          	mov    %edi,0x8(%esp)
    21fb:	c7 04 24 7e 04 02 00 	movl   $0x2047e,(%esp)
    2202:	e8 99 8f 00 00       	call   b1a0 <printf>
    2207:	8b 03                	mov    (%ebx),%eax
    2209:	85 c0                	test   %eax,%eax
    220b:	0f 89 91 fc ff ff    	jns    1ea2 <main+0x5d2>
    2211:	a1 88 4a 02 00       	mov    0x24a88,%eax
    2216:	8b 15 8c 4a 02 00    	mov    0x24a8c,%edx
    221c:	89 44 24 04          	mov    %eax,0x4(%esp)
    2220:	89 54 24 08          	mov    %edx,0x8(%esp)
    2224:	c7 04 24 10 08 02 00 	movl   $0x20810,(%esp)
    222b:	bb 01 00 00 00       	mov    $0x1,%ebx
    2230:	e8 6b 8f 00 00       	call   b1a0 <printf>
    2235:	e9 e8 f7 ff ff       	jmp    1a22 <main+0x152>
    223a:	89 44 24 04          	mov    %eax,0x4(%esp)
    223e:	c7 04 24 e2 04 02 00 	movl   $0x204e2,(%esp)
    2245:	e8 56 8f 00 00       	call   b1a0 <printf>
    224a:	89 5c 24 04          	mov    %ebx,0x4(%esp)
    224e:	c7 04 24 34 08 02 00 	movl   $0x20834,(%esp)
    2255:	e8 46 8f 00 00       	call   b1a0 <printf>
    225a:	e9 94 fe ff ff       	jmp    20f3 <main+0x823>
    225f:	89 44 24 04          	mov    %eax,0x4(%esp)
    2263:	c7 04 24 9c 04 02 00 	movl   $0x2049c,(%esp)
    226a:	e8 31 8f 00 00       	call   b1a0 <printf>
    226f:	eb a0                	jmp    2211 <main+0x941>
    2271:	8b 44 24 44          	mov    0x44(%esp),%eax
    2275:	c7 04 24 80 08 02 00 	movl   $0x20880,(%esp)
    227c:	89 44 24 04          	mov    %eax,0x4(%esp)
    2280:	e8 1b 8f 00 00       	call   b1a0 <printf>
    2285:	e9 98 f7 ff ff       	jmp    1a22 <main+0x152>
    228a:	c7 04 24 58 07 02 00 	movl   $0x20758,(%esp)
    2291:	e8 0a 8f 00 00       	call   b1a0 <printf>
    2296:	c7 04 24 a0 07 02 00 	movl   $0x207a0,(%esp)
    229d:	e8 fe 8e 00 00       	call   b1a0 <printf>
    22a2:	8b 03                	mov    (%ebx),%eax
    22a4:	e9 60 ff ff ff       	jmp    2209 <main+0x939>
    22a9:	89 44 24 08          	mov    %eax,0x8(%esp)
    22ad:	c7 44 24 04 3f 00 00 	movl   $0x3f,0x4(%esp)
    22b4:	00 
    22b5:	c7 04 24 f0 07 02 00 	movl   $0x207f0,(%esp)
    22bc:	e8 df 8e 00 00       	call   b1a0 <printf>
    22c1:	e9 4b ff ff ff       	jmp    2211 <main+0x941>
    22c6:	c7 04 24 43 04 02 00 	movl   $0x20443,(%esp)
    22cd:	e8 ce 8e 00 00       	call   b1a0 <printf>
    22d2:	e8 e9 ed ff ff       	call   10c0 <print_syntax>
    22d7:	e9 41 f7 ff ff       	jmp    1a1d <main+0x14d>
    22dc:	c7 04 24 77 05 02 00 	movl   $0x20577,(%esp)
    22e3:	83 cb ff             	or     $0xffffffff,%ebx
    22e6:	e8 b5 8e 00 00       	call   b1a0 <printf>
    22eb:	e9 32 f7 ff ff       	jmp    1a22 <main+0x152>
    22f0:	a1 8c 4a 02 00       	mov    0x24a8c,%eax
    22f5:	89 d6                	mov    %edx,%esi
    22f7:	0b 05 88 4a 02 00    	or     0x24a88,%eax
    22fd:	0f 85 5c f7 ff ff    	jne    1a5f <main+0x18f>
    2303:	89 4c 24 04          	mov    %ecx,0x4(%esp)
    2307:	c7 04 24 38 07 02 00 	movl   $0x20738,(%esp)
    230e:	eb 0e                	jmp    231e <main+0xa4e>
    2310:	83 c2 04             	add    $0x4,%edx
    2313:	89 44 24 04          	mov    %eax,0x4(%esp)
    2317:	c7 04 24 66 04 02 00 	movl   $0x20466,(%esp)
    231e:	89 54 24 2c          	mov    %edx,0x2c(%esp)
    2322:	e8 79 8e 00 00       	call   b1a0 <printf>
    2327:	8b 54 24 2c          	mov    0x2c(%esp),%edx
    232b:	8b 02                	mov    (%edx),%eax
    232d:	85 c0                	test   %eax,%eax
    232f:	75 df                	jne    2310 <main+0xa40>
    2331:	8b 3e                	mov    (%esi),%edi
    2333:	e8 08 34 01 00       	call   15740 <loader_connect>
    2338:	89 c3                	mov    %eax,%ebx
    233a:	85 c0                	test   %eax,%eax
    233c:	0f 84 dd 00 00 00    	je     241f <main+0xb4f>
    2342:	c7 44 24 04 88 4a 02 	movl   $0x24a88,0x4(%esp)
    2349:	00 
    234a:	89 04 24             	mov    %eax,(%esp)
    234d:	e8 4e 34 01 00       	call   157a0 <loader_get_task_id>
    2352:	85 c0                	test   %eax,%eax
    2354:	0f 85 d7 00 00 00    	jne    2431 <main+0xb61>
    235a:	89 7c 24 04          	mov    %edi,0x4(%esp)
    235e:	89 1c 24             	mov    %ebx,(%esp)
    2361:	e8 0a 36 01 00       	call   15970 <loader_set_pathname>
    2366:	85 c0                	test   %eax,%eax
    2368:	0f 85 c3 00 00 00    	jne    2431 <main+0xb61>
    236e:	89 74 24 04          	mov    %esi,0x4(%esp)
    2372:	89 1c 24             	mov    %ebx,(%esp)
    2375:	e8 d6 36 01 00       	call   15a50 <loader_set_args>
    237a:	85 c0                	test   %eax,%eax
    237c:	0f 85 af 00 00 00    	jne    2431 <main+0xb61>
    2382:	a1 00 4b 02 00       	mov    0x24b00,%eax
    2387:	85 c0                	test   %eax,%eax
    2389:	0f 84 ae 00 00 00    	je     243d <main+0xb6d>
    238f:	8d 74 24 3c          	lea    0x3c(%esp),%esi
    2393:	89 04 24             	mov    %eax,(%esp)
    2396:	89 74 24 04          	mov    %esi,0x4(%esp)
    239a:	e8 b1 8d 00 00       	call   b150 <fhandle>
    239f:	85 c0                	test   %eax,%eax
    23a1:	0f 85 96 00 00 00    	jne    243d <main+0xb6d>
    23a7:	89 f0                	mov    %esi,%eax
    23a9:	89 44 24 48          	mov    %eax,0x48(%esp)
    23ad:	a1 fc 4a 02 00       	mov    0x24afc,%eax
    23b2:	85 c0                	test   %eax,%eax
    23b4:	0f 84 8e 00 00 00    	je     2448 <main+0xb78>
    23ba:	8d 74 24 40          	lea    0x40(%esp),%esi
    23be:	89 04 24             	mov    %eax,(%esp)
    23c1:	89 74 24 04          	mov    %esi,0x4(%esp)
    23c5:	e8 86 8d 00 00       	call   b150 <fhandle>
    23ca:	85 c0                	test   %eax,%eax
    23cc:	75 7a                	jne    2448 <main+0xb78>
    23ce:	89 f0                	mov    %esi,%eax
    23d0:	89 44 24 4c          	mov    %eax,0x4c(%esp)
    23d4:	a1 f8 4a 02 00       	mov    0x24af8,%eax
    23d9:	85 c0                	test   %eax,%eax
    23db:	74 67                	je     2444 <main+0xb74>
    23dd:	8d 74 24 44          	lea    0x44(%esp),%esi
    23e1:	89 04 24             	mov    %eax,(%esp)
    23e4:	89 74 24 04          	mov    %esi,0x4(%esp)
    23e8:	e8 63 8d 00 00       	call   b150 <fhandle>
    23ed:	85 c0                	test   %eax,%eax
    23ef:	75 53                	jne    2444 <main+0xb74>
    23f1:	89 f0                	mov    %esi,%eax
    23f3:	89 44 24 50          	mov    %eax,0x50(%esp)
    23f7:	8d 44 24 48          	lea    0x48(%esp),%eax
    23fb:	89 44 24 04          	mov    %eax,0x4(%esp)
    23ff:	89 1c 24             	mov    %ebx,(%esp)
    2402:	c7 44 24 54 00 00 00 	movl   $0x0,0x54(%esp)
    2409:	00 
    240a:	e8 81 37 01 00       	call   15b90 <loader_set_files>
    240f:	85 c0                	test   %eax,%eax
    2411:	75 1e                	jne    2431 <main+0xb61>
    2413:	89 1c 24             	mov    %ebx,(%esp)
    2416:	e8 85 38 01 00       	call   15ca0 <loader_load_program>
    241b:	85 c0                	test   %eax,%eax
    241d:	75 12                	jne    2431 <main+0xb61>
    241f:	89 1d 90 4a 02 00    	mov    %ebx,0x24a90
    2425:	c6 05 94 4a 02 00 01 	movb   $0x1,0x24a94
    242c:	e9 36 f6 ff ff       	jmp    1a67 <main+0x197>
    2431:	89 1c 24             	mov    %ebx,(%esp)
    2434:	31 db                	xor    %ebx,%ebx
    2436:	e8 95 39 01 00       	call   15dd0 <loader_abort>
    243b:	eb e2                	jmp    241f <main+0xb4f>
    243d:	31 c0                	xor    %eax,%eax
    243f:	e9 65 ff ff ff       	jmp    23a9 <main+0xad9>
    2444:	31 c0                	xor    %eax,%eax
    2446:	eb ab                	jmp    23f3 <main+0xb23>
    2448:	31 c0                	xor    %eax,%eax
    244a:	eb 84                	jmp    23d0 <main+0xb00>
    244c:	c7 04 24 cb 04 02 00 	movl   $0x204cb,(%esp)
    2453:	e8 48 8d 00 00       	call   b1a0 <printf>
    2458:	c7 04 24 01 00 00 00 	movl   $0x1,(%esp)
    245f:	e8 5c 0a 00 00       	call   2ec0 <exit>
    2464:	66 90                	xchg   %ax,%ax
    2466:	66 90                	xchg   %ax,%ax
    2468:	66 90                	xchg   %ax,%ax
    246a:	66 90                	xchg   %ax,%ax
    246c:	66 90                	xchg   %ax,%ax
    246e:	66 90                	xchg   %ax,%ax

00002470 <pending_call_key_hash>:
    2470:	55                   	push   %ebp
    2471:	89 e5                	mov    %esp,%ebp
    2473:	8b 45 08             	mov    0x8(%ebp),%eax
    2476:	5d                   	pop    %ebp
    2477:	8b 00                	mov    (%eax),%eax
    2479:	c3                   	ret    
    247a:	8d b6 00 00 00 00    	lea    0x0(%esi),%esi

00002480 <pending_call_hash>:
    2480:	55                   	push   %ebp
    2481:	89 e5                	mov    %esp,%ebp
    2483:	8b 45 08             	mov    0x8(%ebp),%eax
    2486:	5d                   	pop    %ebp
    2487:	8b 40 fc             	mov    -0x4(%eax),%eax
    248a:	c3                   	ret    
    248b:	90                   	nop
    248c:	8d 74 26 00          	lea    0x0(%esi,%eiz,1),%esi

00002490 <pending_call_key_equal>:
    2490:	55                   	push   %ebp
    2491:	89 e5                	mov    %esp,%ebp
    2493:	8b 45 0c             	mov    0xc(%ebp),%eax
    2496:	8b 55 08             	mov    0x8(%ebp),%edx
    2499:	5d                   	pop    %ebp
    249a:	8b 48 fc             	mov    -0x4(%eax),%ecx
    249d:	39 0a                	cmp    %ecx,(%edx)
    249f:	0f 94 c0             	sete   %al
    24a2:	c3                   	ret    
    24a3:	8d b6 00 00 00 00    	lea    0x0(%esi),%esi
    24a9:	8d bc 27 00 00 00 00 	lea    0x0(%edi,%eiz,1),%edi

000024b0 <parse_answer>:
    24b0:	55                   	push   %ebp
    24b1:	89 e5                	mov    %esp,%ebp
    24b3:	57                   	push   %edi
    24b4:	56                   	push   %esi
    24b5:	53                   	push   %ebx
    24b6:	83 ec 3c             	sub    $0x3c,%esp
    24b9:	89 55 e4             	mov    %edx,-0x1c(%ebp)
    24bc:	8b 12                	mov    (%edx),%edx
    24be:	89 cf                	mov    %ecx,%edi
    24c0:	89 55 d8             	mov    %edx,-0x28(%ebp)
    24c3:	8b 55 e4             	mov    -0x1c(%ebp),%edx
    24c6:	8b 52 04             	mov    0x4(%edx),%edx
    24c9:	89 55 e0             	mov    %edx,-0x20(%ebp)
    24cc:	8b 11                	mov    (%ecx),%edx
    24ce:	89 55 dc             	mov    %edx,-0x24(%ebp)
    24d1:	8b 15 0c 46 02 00    	mov    0x2460c,%edx
    24d7:	f6 c2 04             	test   $0x4,%dl
    24da:	0f 85 28 01 00 00    	jne    2608 <parse_answer+0x158>
    24e0:	83 e2 10             	and    $0x10,%edx
    24e3:	0f 84 af 00 00 00    	je     2598 <parse_answer+0xe8>
    24e9:	8b 55 e4             	mov    -0x1c(%ebp),%edx
    24ec:	8b 72 28             	mov    0x28(%edx),%esi
    24ef:	85 f6                	test   %esi,%esi
    24f1:	0f 84 a1 00 00 00    	je     2598 <parse_answer+0xe8>
    24f7:	8b 46 1c             	mov    0x1c(%esi),%eax
    24fa:	85 c0                	test   %eax,%eax
    24fc:	75 0b                	jne    2509 <parse_answer+0x59>
    24fe:	8b 46 20             	mov    0x20(%esi),%eax
    2501:	85 c0                	test   %eax,%eax
    2503:	0f 8e 8f 00 00 00    	jle    2598 <parse_answer+0xe8>
    2509:	c7 04 24 d0 0d 02 00 	movl   $0x20dd0,(%esp)
    2510:	e8 8b 8c 00 00       	call   b1a0 <printf>
    2515:	8b 46 1c             	mov    0x1c(%esi),%eax
    2518:	85 c0                	test   %eax,%eax
    251a:	0f 85 50 01 00 00    	jne    2670 <parse_answer+0x1c0>
    2520:	8b 5e 20             	mov    0x20(%esi),%ebx
    2523:	85 db                	test   %ebx,%ebx
    2525:	7e 65                	jle    258c <parse_answer+0xdc>
    2527:	c7 04 24 20 00 00 00 	movl   $0x20,(%esp)
    252e:	bb 01 00 00 00       	mov    $0x1,%ebx
    2533:	e8 a8 89 00 00       	call   aee0 <putchar>
    2538:	c7 04 24 28 00 00 00 	movl   $0x28,(%esp)
    253f:	e8 9c 89 00 00       	call   aee0 <putchar>
    2544:	8b 4e 20             	mov    0x20(%esi),%ecx
    2547:	85 c9                	test   %ecx,%ecx
    2549:	7e 35                	jle    2580 <parse_answer+0xd0>
    254b:	90                   	nop
    254c:	8d 74 26 00          	lea    0x0(%esi,%eiz,1),%esi
    2550:	8b 44 9e 20          	mov    0x20(%esi,%ebx,4),%eax
    2554:	89 44 24 04          	mov    %eax,0x4(%esp)
    2558:	8b 04 9f             	mov    (%edi,%ebx,4),%eax
    255b:	89 04 24             	mov    %eax,(%esp)
    255e:	43                   	inc    %ebx
    255f:	e8 1c ed ff ff       	call   1280 <val_print>
    2564:	39 5e 20             	cmp    %ebx,0x20(%esi)
    2567:	7c 17                	jl     2580 <parse_answer+0xd0>
    2569:	83 fb 01             	cmp    $0x1,%ebx
    256c:	7e e2                	jle    2550 <parse_answer+0xa0>
    256e:	c7 04 24 d3 0d 02 00 	movl   $0x20dd3,(%esp)
    2575:	e8 26 8c 00 00       	call   b1a0 <printf>
    257a:	eb d4                	jmp    2550 <parse_answer+0xa0>
    257c:	8d 74 26 00          	lea    0x0(%esi,%eiz,1),%esi
    2580:	c7 04 24 29 00 00 00 	movl   $0x29,(%esp)
    2587:	e8 54 89 00 00       	call   aee0 <putchar>
    258c:	c7 04 24 0a 00 00 00 	movl   $0xa,(%esp)
    2593:	e8 48 89 00 00       	call   aee0 <putchar>
    2598:	83 7d e0 04          	cmpl   $0x4,-0x20(%ebp)
    259c:	75 0e                	jne    25ac <parse_answer+0xfc>
    259e:	8b 55 d8             	mov    -0x28(%ebp),%edx
    25a1:	85 d2                	test   %edx,%edx
    25a3:	75 07                	jne    25ac <parse_answer+0xfc>
    25a5:	8b 45 dc             	mov    -0x24(%ebp),%eax
    25a8:	85 c0                	test   %eax,%eax
    25aa:	74 0c                	je     25b8 <parse_answer+0x108>
    25ac:	83 c4 3c             	add    $0x3c,%esp
    25af:	5b                   	pop    %ebx
    25b0:	5e                   	pop    %esi
    25b1:	5f                   	pop    %edi
    25b2:	5d                   	pop    %ebp
    25b3:	c3                   	ret    
    25b4:	8d 74 26 00          	lea    0x0(%esi,%eiz,1),%esi
    25b8:	8b 55 e4             	mov    -0x1c(%ebp),%edx
    25bb:	8b 42 08             	mov    0x8(%edx),%eax
    25be:	89 04 24             	mov    %eax,(%esp)
    25c1:	e8 6a 07 00 00       	call   2d30 <proto_get_by_srv>
    25c6:	89 c6                	mov    %eax,%esi
    25c8:	85 c0                	test   %eax,%eax
    25ca:	0f 84 c8 00 00 00    	je     2698 <parse_answer+0x1e8>
    25d0:	8b 5f 14             	mov    0x14(%edi),%ebx
    25d3:	f6 05 0c 46 02 00 08 	testb  $0x8,0x2460c
    25da:	75 74                	jne    2650 <parse_answer+0x1a0>
    25dc:	83 fb 3f             	cmp    $0x3f,%ebx
    25df:	77 cb                	ja     25ac <parse_answer+0xfc>
    25e1:	89 34 dd 64 48 02 00 	mov    %esi,0x24864(,%ebx,8)
    25e8:	c7 04 dd 60 48 02 00 	movl   $0x0,0x24860(,%ebx,8)
    25ef:	00 00 00 00 
    25f3:	c7 04 9d 60 47 02 00 	movl   $0x1,0x24760(,%ebx,4)
    25fa:	01 00 00 00 
    25fe:	83 c4 3c             	add    $0x3c,%esp
    2601:	5b                   	pop    %ebx
    2602:	5e                   	pop    %esi
    2603:	5f                   	pop    %edi
    2604:	5d                   	pop    %ebp
    2605:	c3                   	ret    
    2606:	66 90                	xchg   %ax,%ax
    2608:	8b 51 14             	mov    0x14(%ecx),%edx
    260b:	89 54 24 1c          	mov    %edx,0x1c(%esp)
    260f:	8b 51 10             	mov    0x10(%ecx),%edx
    2612:	89 54 24 18          	mov    %edx,0x18(%esp)
    2616:	8b 51 0c             	mov    0xc(%ecx),%edx
    2619:	89 54 24 14          	mov    %edx,0x14(%esp)
    261d:	8b 51 08             	mov    0x8(%ecx),%edx
    2620:	89 54 24 10          	mov    %edx,0x10(%esp)
    2624:	8b 51 04             	mov    0x4(%ecx),%edx
    2627:	89 44 24 04          	mov    %eax,0x4(%esp)
    262b:	89 54 24 0c          	mov    %edx,0xc(%esp)
    262f:	8b 55 dc             	mov    -0x24(%ebp),%edx
    2632:	89 54 24 08          	mov    %edx,0x8(%esp)
    2636:	c7 04 24 38 0d 02 00 	movl   $0x20d38,(%esp)
    263d:	e8 5e 8b 00 00       	call   b1a0 <printf>
    2642:	8b 15 0c 46 02 00    	mov    0x2460c,%edx
    2648:	e9 93 fe ff ff       	jmp    24e0 <parse_answer+0x30>
    264d:	8d 76 00             	lea    0x0(%esi),%esi
    2650:	8b 06                	mov    (%esi),%eax
    2652:	89 5c 24 04          	mov    %ebx,0x4(%esp)
    2656:	89 44 24 08          	mov    %eax,0x8(%esp)
    265a:	c7 04 24 70 0d 02 00 	movl   $0x20d70,(%esp)
    2661:	e8 3a 8b 00 00       	call   b1a0 <printf>
    2666:	e9 71 ff ff ff       	jmp    25dc <parse_answer+0x12c>
    266b:	90                   	nop
    266c:	8d 74 26 00          	lea    0x0(%esi,%eiz,1),%esi
    2670:	c7 04 24 20 00 00 00 	movl   $0x20,(%esp)
    2677:	e8 64 88 00 00       	call   aee0 <putchar>
    267c:	8b 46 1c             	mov    0x1c(%esi),%eax
    267f:	8b 55 dc             	mov    -0x24(%ebp),%edx
    2682:	89 44 24 04          	mov    %eax,0x4(%esp)
    2686:	89 14 24             	mov    %edx,(%esp)
    2689:	e8 f2 eb ff ff       	call   1280 <val_print>
    268e:	e9 8d fe ff ff       	jmp    2520 <parse_answer+0x70>
    2693:	90                   	nop
    2694:	8d 74 26 00          	lea    0x0(%esi,%eiz,1),%esi
    2698:	8b 35 44 47 02 00    	mov    0x24744,%esi
    269e:	e9 2d ff ff ff       	jmp    25d0 <parse_answer+0x120>
    26a3:	8d b6 00 00 00 00    	lea    0x0(%esi),%esi
    26a9:	8d bc 27 00 00 00 00 	lea    0x0(%edi,%eiz,1),%edi

000026b0 <ipcp_connection_set>:
    26b0:	55                   	push   %ebp
    26b1:	89 e5                	mov    %esp,%ebp
    26b3:	8b 45 08             	mov    0x8(%ebp),%eax
    26b6:	83 f8 3f             	cmp    $0x3f,%eax
    26b9:	77 1f                	ja     26da <ipcp_connection_set+0x2a>
    26bb:	8b 55 0c             	mov    0xc(%ebp),%edx
    26be:	c7 04 85 60 47 02 00 	movl   $0x1,0x24760(,%eax,4)
    26c5:	01 00 00 00 
    26c9:	89 14 c5 60 48 02 00 	mov    %edx,0x24860(,%eax,8)
    26d0:	8b 55 10             	mov    0x10(%ebp),%edx
    26d3:	89 14 c5 64 48 02 00 	mov    %edx,0x24864(,%eax,8)
    26da:	5d                   	pop    %ebp
    26db:	c3                   	ret    
    26dc:	8d 74 26 00          	lea    0x0(%esi,%eiz,1),%esi

000026e0 <ipcp_connection_clear>:
    26e0:	55                   	push   %ebp
    26e1:	89 e5                	mov    %esp,%ebp
    26e3:	8b 45 08             	mov    0x8(%ebp),%eax
    26e6:	5d                   	pop    %ebp
    26e7:	c7 04 85 60 47 02 00 	movl   $0x0,0x24760(,%eax,4)
    26ee:	00 00 00 00 
    26f2:	c7 04 c5 60 48 02 00 	movl   $0x0,0x24860(,%eax,8)
    26f9:	00 00 00 00 
    26fd:	c7 04 c5 64 48 02 00 	movl   $0x0,0x24864(,%eax,8)
    2704:	00 00 00 00 
    2708:	c3                   	ret    
    2709:	8d b4 26 00 00 00 00 	lea    0x0(%esi,%eiz,1),%esi

00002710 <ipcp_init>:
    2710:	55                   	push   %ebp
    2711:	89 e5                	mov    %esp,%ebp
    2713:	56                   	push   %esi
    2714:	53                   	push   %ebx
    2715:	bb 60 3a 02 00       	mov    $0x23a60,%ebx
    271a:	83 ec 40             	sub    $0x40,%esp
    271d:	c7 45 e4 01 00 00 00 	movl   $0x1,-0x1c(%ebp)
    2724:	c7 45 e8 01 00 00 00 	movl   $0x1,-0x18(%ebp)
    272b:	c7 45 ec 01 00 00 00 	movl   $0x1,-0x14(%ebp)
    2732:	c7 04 24 d6 0d 02 00 	movl   $0x20dd6,(%esp)
    2739:	c7 45 f0 01 00 00 00 	movl   $0x1,-0x10(%ebp)
    2740:	c7 45 f4 01 00 00 00 	movl   $0x1,-0xc(%ebp)
    2747:	e8 14 06 00 00       	call   2d60 <proto_new>
    274c:	c7 04 24 de 0d 02 00 	movl   $0x20dde,(%esp)
    2753:	a3 44 47 02 00       	mov    %eax,0x24744
    2758:	e8 03 06 00 00       	call   2d60 <proto_new>
    275d:	8d 75 e4             	lea    -0x1c(%ebp),%esi
    2760:	a3 40 47 02 00       	mov    %eax,0x24740
    2765:	a1 60 3a 02 00       	mov    0x23a60,%eax
    276a:	85 c0                	test   %eax,%eax
    276c:	74 4d                	je     27bb <ipcp_init+0xab>
    276e:	66 90                	xchg   %ax,%ax
    2770:	8b 43 04             	mov    0x4(%ebx),%eax
    2773:	89 74 24 14          	mov    %esi,0x14(%esp)
    2777:	c7 44 24 10 05 00 00 	movl   $0x5,0x10(%esp)
    277e:	00 
    277f:	c7 44 24 0c 01 00 00 	movl   $0x1,0xc(%esp)
    2786:	00 
    2787:	89 74 24 08          	mov    %esi,0x8(%esp)
    278b:	c7 44 24 04 05 00 00 	movl   $0x5,0x4(%esp)
    2792:	00 
    2793:	89 04 24             	mov    %eax,(%esp)
    2796:	e8 b5 06 00 00       	call   2e50 <oper_new>
    279b:	89 44 24 08          	mov    %eax,0x8(%esp)
    279f:	8b 03                	mov    (%ebx),%eax
    27a1:	89 44 24 04          	mov    %eax,0x4(%esp)
    27a5:	83 c3 08             	add    $0x8,%ebx
    27a8:	a1 40 47 02 00       	mov    0x24740,%eax
    27ad:	89 04 24             	mov    %eax,(%esp)
    27b0:	e8 2b 06 00 00       	call   2de0 <proto_add_oper>
    27b5:	8b 03                	mov    (%ebx),%eax
    27b7:	85 c0                	test   %eax,%eax
    27b9:	75 b5                	jne    2770 <ipcp_init+0x60>
    27bb:	c7 44 24 0c 40 3a 02 	movl   $0x23a40,0xc(%esp)
    27c2:	00 
    27c3:	c7 44 24 08 00 00 00 	movl   $0x0,0x8(%esp)
    27ca:	00 
    27cb:	c7 44 24 04 00 00 00 	movl   $0x0,0x4(%esp)
    27d2:	00 
    27d3:	c7 04 24 b0 4a 02 00 	movl   $0x24ab0,(%esp)
    27da:	e8 a1 37 01 00       	call   15f80 <hash_table_create>
    27df:	84 c0                	test   %al,%al
    27e1:	74 07                	je     27ea <ipcp_init+0xda>
    27e3:	83 c4 40             	add    $0x40,%esp
    27e6:	5b                   	pop    %ebx
    27e7:	5e                   	pop    %esi
    27e8:	5d                   	pop    %ebp
    27e9:	c3                   	ret    
    27ea:	c7 44 24 08 ae 00 00 	movl   $0xae,0x8(%esp)
    27f1:	00 
    27f2:	c7 44 24 04 e5 0d 02 	movl   $0x20de5,0x4(%esp)
    27f9:	00 
    27fa:	c7 04 24 ec 0d 02 00 	movl   $0x20dec,(%esp)
    2801:	e8 ba 87 01 00       	call   1afc0 <assert_abort>
    2806:	8d 76 00             	lea    0x0(%esi),%esi
    2809:	8d bc 27 00 00 00 00 	lea    0x0(%edi,%eiz,1),%edi

00002810 <ipcp_cleanup>:
    2810:	55                   	push   %ebp
    2811:	89 e5                	mov    %esp,%ebp
    2813:	83 ec 18             	sub    $0x18,%esp
    2816:	a1 40 47 02 00       	mov    0x24740,%eax
    281b:	89 04 24             	mov    %eax,(%esp)
    281e:	e8 ad 05 00 00       	call   2dd0 <proto_delete>
    2823:	c7 04 24 b0 4a 02 00 	movl   $0x24ab0,(%esp)
    282a:	e8 81 38 01 00       	call   160b0 <hash_table_destroy>
    282f:	c9                   	leave  
    2830:	c3                   	ret    
    2831:	eb 0d                	jmp    2840 <ipcp_call_out>
    2833:	90                   	nop
    2834:	90                   	nop
    2835:	90                   	nop
    2836:	90                   	nop
    2837:	90                   	nop
    2838:	90                   	nop
    2839:	90                   	nop
    283a:	90                   	nop
    283b:	90                   	nop
    283c:	90                   	nop
    283d:	90                   	nop
    283e:	90                   	nop
    283f:	90                   	nop

00002840 <ipcp_call_out>:
    2840:	55                   	push   %ebp
    2841:	89 e5                	mov    %esp,%ebp
    2843:	57                   	push   %edi
    2844:	56                   	push   %esi
    2845:	53                   	push   %ebx
    2846:	83 ec 3c             	sub    $0x3c,%esp
    2849:	8b 55 08             	mov    0x8(%ebp),%edx
    284c:	8b 75 0c             	mov    0xc(%ebp),%esi
    284f:	89 55 e4             	mov    %edx,-0x1c(%ebp)
    2852:	8b 55 10             	mov    0x10(%ebp),%edx
    2855:	89 55 e0             	mov    %edx,-0x20(%ebp)
    2858:	8b 55 e4             	mov    -0x1c(%ebp),%edx
    285b:	8b 1c 95 60 47 02 00 	mov    0x24760(,%edx,4),%ebx
    2862:	85 db                	test   %ebx,%ebx
    2864:	75 6a                	jne    28d0 <ipcp_call_out+0x90>
    2866:	f6 05 0c 46 02 00 04 	testb  $0x4,0x2460c
    286d:	0f 84 14 01 00 00    	je     2987 <ipcp_call_out+0x147>
    2873:	90                   	nop
    2874:	8d 74 26 00          	lea    0x0(%esi,%eiz,1),%esi
    2878:	8b 55 e4             	mov    -0x1c(%ebp),%edx
    287b:	c7 44 24 0c 1e 0e 02 	movl   $0x20e1e,0xc(%esp)
    2882:	00 
    2883:	89 54 24 08          	mov    %edx,0x8(%esp)
    2887:	8b 55 e0             	mov    -0x20(%ebp),%edx
    288a:	89 54 24 04          	mov    %edx,0x4(%esp)
    288e:	c7 04 24 a4 0d 02 00 	movl   $0x20da4,(%esp)
    2895:	e8 06 89 00 00       	call   b1a0 <printf>
    289a:	8b 1e                	mov    (%esi),%ebx
    289c:	a1 40 47 02 00       	mov    0x24740,%eax
    28a1:	89 5c 24 04          	mov    %ebx,0x4(%esp)
    28a5:	89 04 24             	mov    %eax,(%esp)
    28a8:	e8 73 05 00 00       	call   2e20 <proto_get_oper>
    28ad:	31 d2                	xor    %edx,%edx
    28af:	85 c0                	test   %eax,%eax
    28b1:	75 76                	jne    2929 <ipcp_call_out+0xe9>
    28b3:	89 5c 24 04          	mov    %ebx,0x4(%esp)
    28b7:	c7 04 24 8e 03 02 00 	movl   $0x2038e,(%esp)
    28be:	89 55 dc             	mov    %edx,-0x24(%ebp)
    28c1:	e8 da 88 00 00       	call   b1a0 <printf>
    28c6:	8b 55 dc             	mov    -0x24(%ebp),%edx
    28c9:	eb 7a                	jmp    2945 <ipcp_call_out+0x105>
    28cb:	90                   	nop
    28cc:	8d 74 26 00          	lea    0x0(%esi,%eiz,1),%esi
    28d0:	a1 0c 46 02 00       	mov    0x2460c,%eax
    28d5:	8b 14 d5 64 48 02 00 	mov    0x24864(,%edx,8),%edx
    28dc:	a8 04                	test   $0x4,%al
    28de:	0f 84 9b 00 00 00    	je     297f <ipcp_call_out+0x13f>
    28e4:	85 d2                	test   %edx,%edx
    28e6:	74 90                	je     2878 <ipcp_call_out+0x38>
    28e8:	8b 02                	mov    (%edx),%eax
    28ea:	c7 04 24 a4 0d 02 00 	movl   $0x20da4,(%esp)
    28f1:	89 44 24 0c          	mov    %eax,0xc(%esp)
    28f5:	8b 45 e4             	mov    -0x1c(%ebp),%eax
    28f8:	89 44 24 08          	mov    %eax,0x8(%esp)
    28fc:	8b 45 e0             	mov    -0x20(%ebp),%eax
    28ff:	89 44 24 04          	mov    %eax,0x4(%esp)
    2903:	89 55 dc             	mov    %edx,-0x24(%ebp)
    2906:	e8 95 88 00 00       	call   b1a0 <printf>
    290b:	8b 1e                	mov    (%esi),%ebx
    290d:	a1 40 47 02 00       	mov    0x24740,%eax
    2912:	89 5c 24 04          	mov    %ebx,0x4(%esp)
    2916:	89 04 24             	mov    %eax,(%esp)
    2919:	e8 02 05 00 00       	call   2e20 <proto_get_oper>
    291e:	8b 55 dc             	mov    -0x24(%ebp),%edx
    2921:	85 c0                	test   %eax,%eax
    2923:	0f 84 67 01 00 00    	je     2a90 <ipcp_call_out+0x250>
    2929:	89 5c 24 08          	mov    %ebx,0x8(%esp)
    292d:	8b 00                	mov    (%eax),%eax
    292f:	c7 04 24 ef 0d 02 00 	movl   $0x20def,(%esp)
    2936:	89 44 24 04          	mov    %eax,0x4(%esp)
    293a:	89 55 dc             	mov    %edx,-0x24(%ebp)
    293d:	e8 5e 88 00 00       	call   b1a0 <printf>
    2942:	8b 55 dc             	mov    -0x24(%ebp),%edx
    2945:	8b 46 14             	mov    0x14(%esi),%eax
    2948:	89 44 24 14          	mov    %eax,0x14(%esp)
    294c:	8b 46 10             	mov    0x10(%esi),%eax
    294f:	89 44 24 10          	mov    %eax,0x10(%esp)
    2953:	8b 46 0c             	mov    0xc(%esi),%eax
    2956:	89 44 24 0c          	mov    %eax,0xc(%esp)
    295a:	8b 46 08             	mov    0x8(%esi),%eax
    295d:	89 44 24 08          	mov    %eax,0x8(%esp)
    2961:	8b 46 04             	mov    0x4(%esi),%eax
    2964:	c7 04 24 f7 0d 02 00 	movl   $0x20df7,(%esp)
    296b:	89 44 24 04          	mov    %eax,0x4(%esp)
    296f:	89 55 dc             	mov    %edx,-0x24(%ebp)
    2972:	e8 29 88 00 00       	call   b1a0 <printf>
    2977:	a1 0c 46 02 00       	mov    0x2460c,%eax
    297c:	8b 55 dc             	mov    -0x24(%ebp),%edx
    297f:	a8 10                	test   $0x10,%al
    2981:	74 04                	je     2987 <ipcp_call_out+0x147>
    2983:	85 d2                	test   %edx,%edx
    2985:	75 41                	jne    29c8 <ipcp_call_out+0x188>
    2987:	31 db                	xor    %ebx,%ebx
    2989:	c7 04 24 38 00 00 00 	movl   $0x38,(%esp)
    2990:	e8 bb dc 00 00       	call   10650 <malloc>
    2995:	8b 55 e4             	mov    -0x1c(%ebp),%edx
    2998:	b9 09 00 00 00       	mov    $0x9,%ecx
    299d:	89 10                	mov    %edx,(%eax)
    299f:	8d 78 04             	lea    0x4(%eax),%edi
    29a2:	f3 a5                	rep movsl %ds:(%esi),%es:(%edi)
    29a4:	8b 55 e0             	mov    -0x20(%ebp),%edx
    29a7:	89 58 28             	mov    %ebx,0x28(%eax)
    29aa:	89 50 2c             	mov    %edx,0x2c(%eax)
    29ad:	83 c0 30             	add    $0x30,%eax
    29b0:	89 45 0c             	mov    %eax,0xc(%ebp)
    29b3:	c7 45 08 b0 4a 02 00 	movl   $0x24ab0,0x8(%ebp)
    29ba:	83 c4 3c             	add    $0x3c,%esp
    29bd:	5b                   	pop    %ebx
    29be:	5e                   	pop    %esi
    29bf:	5f                   	pop    %edi
    29c0:	5d                   	pop    %ebp
    29c1:	e9 9a 39 01 00       	jmp    16360 <hash_table_insert>
    29c6:	66 90                	xchg   %ax,%ax
    29c8:	8b 06                	mov    (%esi),%eax
    29ca:	89 14 24             	mov    %edx,(%esp)
    29cd:	89 44 24 04          	mov    %eax,0x4(%esp)
    29d1:	89 55 dc             	mov    %edx,-0x24(%ebp)
    29d4:	e8 47 04 00 00       	call   2e20 <proto_get_oper>
    29d9:	8b 55 dc             	mov    -0x24(%ebp),%edx
    29dc:	89 c3                	mov    %eax,%ebx
    29de:	85 c0                	test   %eax,%eax
    29e0:	74 a5                	je     2987 <ipcp_call_out+0x147>
    29e2:	8b 00                	mov    (%eax),%eax
    29e4:	bf 01 00 00 00       	mov    $0x1,%edi
    29e9:	89 44 24 0c          	mov    %eax,0xc(%esp)
    29ed:	8b 45 e4             	mov    -0x1c(%ebp),%eax
    29f0:	89 44 24 08          	mov    %eax,0x8(%esp)
    29f4:	8b 02                	mov    (%edx),%eax
    29f6:	c7 04 24 14 0e 02 00 	movl   $0x20e14,(%esp)
    29fd:	89 44 24 04          	mov    %eax,0x4(%esp)
    2a01:	e8 9a 87 00 00       	call   b1a0 <printf>
    2a06:	c7 04 24 28 00 00 00 	movl   $0x28,(%esp)
    2a0d:	e8 ce 84 00 00       	call   aee0 <putchar>
    2a12:	8b 4b 04             	mov    0x4(%ebx),%ecx
    2a15:	85 c9                	test   %ecx,%ecx
    2a17:	7e 37                	jle    2a50 <ipcp_call_out+0x210>
    2a19:	8d b4 26 00 00 00 00 	lea    0x0(%esi,%eiz,1),%esi
    2a20:	8b 44 bb 04          	mov    0x4(%ebx,%edi,4),%eax
    2a24:	89 44 24 04          	mov    %eax,0x4(%esp)
    2a28:	8b 04 be             	mov    (%esi,%edi,4),%eax
    2a2b:	47                   	inc    %edi
    2a2c:	89 04 24             	mov    %eax,(%esp)
    2a2f:	e8 4c e8 ff ff       	call   1280 <val_print>
    2a34:	39 7b 04             	cmp    %edi,0x4(%ebx)
    2a37:	7c 17                	jl     2a50 <ipcp_call_out+0x210>
    2a39:	83 ff 01             	cmp    $0x1,%edi
    2a3c:	7e e2                	jle    2a20 <ipcp_call_out+0x1e0>
    2a3e:	c7 04 24 d3 0d 02 00 	movl   $0x20dd3,(%esp)
    2a45:	e8 56 87 00 00       	call   b1a0 <printf>
    2a4a:	eb d4                	jmp    2a20 <ipcp_call_out+0x1e0>
    2a4c:	8d 74 26 00          	lea    0x0(%esi,%eiz,1),%esi
    2a50:	c7 04 24 29 00 00 00 	movl   $0x29,(%esp)
    2a57:	e8 84 84 00 00       	call   aee0 <putchar>
    2a5c:	8b 53 1c             	mov    0x1c(%ebx),%edx
    2a5f:	85 d2                	test   %edx,%edx
    2a61:	75 07                	jne    2a6a <ipcp_call_out+0x22a>
    2a63:	8b 43 20             	mov    0x20(%ebx),%eax
    2a66:	85 c0                	test   %eax,%eax
    2a68:	74 16                	je     2a80 <ipcp_call_out+0x240>
    2a6a:	c7 04 24 0a 00 00 00 	movl   $0xa,(%esp)
    2a71:	e8 6a 84 00 00       	call   aee0 <putchar>
    2a76:	e9 0e ff ff ff       	jmp    2989 <ipcp_call_out+0x149>
    2a7b:	90                   	nop
    2a7c:	8d 74 26 00          	lea    0x0(%esi,%eiz,1),%esi
    2a80:	c7 04 24 2e 00 00 00 	movl   $0x2e,(%esp)
    2a87:	e8 54 84 00 00       	call   aee0 <putchar>
    2a8c:	eb dc                	jmp    2a6a <ipcp_call_out+0x22a>
    2a8e:	66 90                	xchg   %ax,%ax
    2a90:	89 14 24             	mov    %edx,(%esp)
    2a93:	89 5c 24 04          	mov    %ebx,0x4(%esp)
    2a97:	e8 84 03 00 00       	call   2e20 <proto_get_oper>
    2a9c:	8b 55 dc             	mov    -0x24(%ebp),%edx
    2a9f:	e9 0b fe ff ff       	jmp    28af <ipcp_call_out+0x6f>
    2aa4:	8d b6 00 00 00 00    	lea    0x0(%esi),%esi
    2aaa:	8d bf 00 00 00 00    	lea    0x0(%edi),%edi

00002ab0 <ipcp_call_in>:
    2ab0:	55                   	push   %ebp
    2ab1:	89 e5                	mov    %esp,%ebp
    2ab3:	56                   	push   %esi
    2ab4:	53                   	push   %ebx
    2ab5:	83 ec 10             	sub    $0x10,%esp
    2ab8:	8b 45 0c             	mov    0xc(%ebp),%eax
    2abb:	a8 01                	test   $0x1,%al
    2abd:	75 04                	jne    2ac3 <ipcp_call_in+0x13>
    2abf:	85 c0                	test   %eax,%eax
    2ac1:	75 4d                	jne    2b10 <ipcp_call_in+0x60>
    2ac3:	8d 5d 0c             	lea    0xc(%ebp),%ebx
    2ac6:	83 e0 fe             	and    $0xfffffffe,%eax
    2ac9:	89 5c 24 04          	mov    %ebx,0x4(%esp)
    2acd:	c7 04 24 b0 4a 02 00 	movl   $0x24ab0,(%esp)
    2ad4:	89 45 0c             	mov    %eax,0xc(%ebp)
    2ad7:	e8 b4 3a 01 00       	call   16590 <hash_table_find>
    2adc:	85 c0                	test   %eax,%eax
    2ade:	74 28                	je     2b08 <ipcp_call_in+0x58>
    2ae0:	8d 70 d0             	lea    -0x30(%eax),%esi
    2ae3:	89 5c 24 04          	mov    %ebx,0x4(%esp)
    2ae7:	c7 04 24 b0 4a 02 00 	movl   $0x24ab0,(%esp)
    2aee:	e8 ed 3b 01 00       	call   166e0 <hash_table_remove>
    2af3:	8b 4d 08             	mov    0x8(%ebp),%ecx
    2af6:	89 f2                	mov    %esi,%edx
    2af8:	8b 45 0c             	mov    0xc(%ebp),%eax
    2afb:	e8 b0 f9 ff ff       	call   24b0 <parse_answer>
    2b00:	89 34 24             	mov    %esi,(%esp)
    2b03:	e8 58 dc 00 00       	call   10760 <free>
    2b08:	83 c4 10             	add    $0x10,%esp
    2b0b:	5b                   	pop    %ebx
    2b0c:	5e                   	pop    %esi
    2b0d:	5d                   	pop    %ebp
    2b0e:	c3                   	ret    
    2b0f:	90                   	nop
    2b10:	f6 05 0c 46 02 00 04 	testb  $0x4,0x2460c
    2b17:	74 ef                	je     2b08 <ipcp_call_in+0x58>
    2b19:	89 44 24 04          	mov    %eax,0x4(%esp)
    2b1d:	c7 04 24 22 0e 02 00 	movl   $0x20e22,(%esp)
    2b24:	e8 77 86 00 00       	call   b1a0 <printf>
    2b29:	83 c4 10             	add    $0x10,%esp
    2b2c:	5b                   	pop    %ebx
    2b2d:	5e                   	pop    %esi
    2b2e:	5d                   	pop    %ebp
    2b2f:	c3                   	ret    

00002b30 <ipcp_call_sync>:
    2b30:	55                   	push   %ebp
    2b31:	89 e5                	mov    %esp,%ebp
    2b33:	56                   	push   %esi
    2b34:	53                   	push   %ebx
    2b35:	83 ec 20             	sub    $0x20,%esp
    2b38:	8d 5d f4             	lea    -0xc(%ebp),%ebx
    2b3b:	8b 45 0c             	mov    0xc(%ebp),%eax
    2b3e:	89 44 24 04          	mov    %eax,0x4(%esp)
    2b42:	8b 45 08             	mov    0x8(%ebp),%eax
    2b45:	89 04 24             	mov    %eax,(%esp)
    2b48:	c7 44 24 08 00 00 00 	movl   $0x0,0x8(%esp)
    2b4f:	00 
    2b50:	e8 eb fc ff ff       	call   2840 <ipcp_call_out>
    2b55:	89 5c 24 04          	mov    %ebx,0x4(%esp)
    2b59:	c7 04 24 b0 4a 02 00 	movl   $0x24ab0,(%esp)
    2b60:	c7 45 f4 00 00 00 00 	movl   $0x0,-0xc(%ebp)
    2b67:	e8 24 3a 01 00       	call   16590 <hash_table_find>
    2b6c:	85 c0                	test   %eax,%eax
    2b6e:	74 28                	je     2b98 <ipcp_call_sync+0x68>
    2b70:	8d 70 d0             	lea    -0x30(%eax),%esi
    2b73:	89 5c 24 04          	mov    %ebx,0x4(%esp)
    2b77:	c7 04 24 b0 4a 02 00 	movl   $0x24ab0,(%esp)
    2b7e:	e8 5d 3b 01 00       	call   166e0 <hash_table_remove>
    2b83:	8b 4d 10             	mov    0x10(%ebp),%ecx
    2b86:	89 f2                	mov    %esi,%edx
    2b88:	8b 45 f4             	mov    -0xc(%ebp),%eax
    2b8b:	e8 20 f9 ff ff       	call   24b0 <parse_answer>
    2b90:	89 34 24             	mov    %esi,(%esp)
    2b93:	e8 c8 db 00 00       	call   10760 <free>
    2b98:	83 c4 20             	add    $0x20,%esp
    2b9b:	5b                   	pop    %ebx
    2b9c:	5e                   	pop    %esi
    2b9d:	5d                   	pop    %ebp
    2b9e:	c3                   	ret    
    2b9f:	90                   	nop

00002ba0 <ipcp_hangup>:
    2ba0:	55                   	push   %ebp
    2ba1:	89 e5                	mov    %esp,%ebp
    2ba3:	53                   	push   %ebx
    2ba4:	83 ec 14             	sub    $0x14,%esp
    2ba7:	8b 5d 08             	mov    0x8(%ebp),%ebx
    2baa:	f6 05 0c 46 02 00 08 	testb  $0x8,0x2460c
    2bb1:	74 38                	je     2beb <ipcp_hangup+0x4b>
    2bb3:	8b 45 0c             	mov    0xc(%ebp),%eax
    2bb6:	89 5c 24 04          	mov    %ebx,0x4(%esp)
    2bba:	89 44 24 08          	mov    %eax,0x8(%esp)
    2bbe:	c7 04 24 3c 0e 02 00 	movl   $0x20e3c,(%esp)
    2bc5:	e8 d6 85 00 00       	call   b1a0 <printf>
    2bca:	c7 04 9d 60 47 02 00 	movl   $0x0,0x24760(,%ebx,4)
    2bd1:	00 00 00 00 
    2bd5:	c7 04 dd 60 48 02 00 	movl   $0x0,0x24860(,%ebx,8)
    2bdc:	00 00 00 00 
    2be0:	c7 04 dd 64 48 02 00 	movl   $0x0,0x24864(,%ebx,8)
    2be7:	00 00 00 00 
    2beb:	83 c4 14             	add    $0x14,%esp
    2bee:	5b                   	pop    %ebx
    2bef:	5d                   	pop    %ebp
    2bf0:	c3                   	ret    
    2bf1:	66 90                	xchg   %ax,%ax
    2bf3:	90                   	nop
    2bf4:	66 90                	xchg   %ax,%ax
    2bf6:	66 90                	xchg   %ax,%ax
    2bf8:	66 90                	xchg   %ax,%ax
    2bfa:	66 90                	xchg   %ax,%ax
    2bfc:	66 90                	xchg   %ax,%ax
    2bfe:	66 90                	xchg   %ax,%ax

00002c00 <srv_proto_key_hash>:
    2c00:	55                   	push   %ebp
    2c01:	89 e5                	mov    %esp,%ebp
    2c03:	8b 45 08             	mov    0x8(%ebp),%eax
    2c06:	5d                   	pop    %ebp
    2c07:	8b 00                	mov    (%eax),%eax
    2c09:	c3                   	ret    
    2c0a:	8d b6 00 00 00 00    	lea    0x0(%esi),%esi

00002c10 <srv_proto_hash>:
    2c10:	55                   	push   %ebp
    2c11:	89 e5                	mov    %esp,%ebp
    2c13:	8b 45 08             	mov    0x8(%ebp),%eax
    2c16:	5d                   	pop    %ebp
    2c17:	8b 40 f8             	mov    -0x8(%eax),%eax
    2c1a:	c3                   	ret    
    2c1b:	90                   	nop
    2c1c:	8d 74 26 00          	lea    0x0(%esi,%eiz,1),%esi

00002c20 <srv_proto_key_equal>:
    2c20:	55                   	push   %ebp
    2c21:	89 e5                	mov    %esp,%ebp
    2c23:	8b 45 08             	mov    0x8(%ebp),%eax
    2c26:	8b 55 0c             	mov    0xc(%ebp),%edx
    2c29:	5d                   	pop    %ebp
    2c2a:	8b 08                	mov    (%eax),%ecx
    2c2c:	39 4a f8             	cmp    %ecx,-0x8(%edx)
    2c2f:	0f 94 c0             	sete   %al
    2c32:	c3                   	ret    
    2c33:	8d b6 00 00 00 00    	lea    0x0(%esi),%esi
    2c39:	8d bc 27 00 00 00 00 	lea    0x0(%edi,%eiz,1),%edi

00002c40 <method_oper_key_hash>:
    2c40:	55                   	push   %ebp
    2c41:	89 e5                	mov    %esp,%ebp
    2c43:	8b 45 08             	mov    0x8(%ebp),%eax
    2c46:	5d                   	pop    %ebp
    2c47:	8b 00                	mov    (%eax),%eax
    2c49:	c3                   	ret    
    2c4a:	8d b6 00 00 00 00    	lea    0x0(%esi),%esi

00002c50 <method_oper_hash>:
    2c50:	55                   	push   %ebp
    2c51:	89 e5                	mov    %esp,%ebp
    2c53:	8b 45 08             	mov    0x8(%ebp),%eax
    2c56:	5d                   	pop    %ebp
    2c57:	8b 40 f8             	mov    -0x8(%eax),%eax
    2c5a:	c3                   	ret    
    2c5b:	90                   	nop
    2c5c:	8d 74 26 00          	lea    0x0(%esi,%eiz,1),%esi

00002c60 <method_oper_key_equal>:
    2c60:	55                   	push   %ebp
    2c61:	89 e5                	mov    %esp,%ebp
    2c63:	8b 45 08             	mov    0x8(%ebp),%eax
    2c66:	8b 55 0c             	mov    0xc(%ebp),%edx
    2c69:	5d                   	pop    %ebp
    2c6a:	8b 08                	mov    (%eax),%ecx
    2c6c:	39 4a f8             	cmp    %ecx,-0x8(%edx)
    2c6f:	0f 94 c0             	sete   %al
    2c72:	c3                   	ret    
    2c73:	8d b6 00 00 00 00    	lea    0x0(%esi),%esi
    2c79:	8d bc 27 00 00 00 00 	lea    0x0(%edi,%eiz,1),%edi

00002c80 <proto_init>:
    2c80:	55                   	push   %ebp
    2c81:	89 e5                	mov    %esp,%ebp
    2c83:	83 ec 18             	sub    $0x18,%esp
    2c86:	c7 44 24 0c b8 3a 02 	movl   $0x23ab8,0xc(%esp)
    2c8d:	00 
    2c8e:	c7 44 24 08 00 00 00 	movl   $0x0,0x8(%esp)
    2c95:	00 
    2c96:	c7 44 24 04 00 00 00 	movl   $0x0,0x4(%esp)
    2c9d:	00 
    2c9e:	c7 04 24 cc 4a 02 00 	movl   $0x24acc,(%esp)
    2ca5:	e8 d6 32 01 00       	call   15f80 <hash_table_create>
    2caa:	84 c0                	test   %al,%al
    2cac:	74 02                	je     2cb0 <proto_init+0x30>
    2cae:	c9                   	leave  
    2caf:	c3                   	ret    
    2cb0:	c7 44 24 08 74 00 00 	movl   $0x74,0x8(%esp)
    2cb7:	00 
    2cb8:	c7 44 24 04 cc 0e 02 	movl   $0x20ecc,0x4(%esp)
    2cbf:	00 
    2cc0:	c7 04 24 ec 0d 02 00 	movl   $0x20dec,(%esp)
    2cc7:	e8 f4 82 01 00       	call   1afc0 <assert_abort>
    2ccc:	8d 74 26 00          	lea    0x0(%esi,%eiz,1),%esi

00002cd0 <proto_cleanup>:
    2cd0:	55                   	push   %ebp
    2cd1:	89 e5                	mov    %esp,%ebp
    2cd3:	83 ec 18             	sub    $0x18,%esp
    2cd6:	c7 04 24 cc 4a 02 00 	movl   $0x24acc,(%esp)
    2cdd:	e8 ce 33 01 00       	call   160b0 <hash_table_destroy>
    2ce2:	c9                   	leave  
    2ce3:	c3                   	ret    
    2ce4:	8d b6 00 00 00 00    	lea    0x0(%esi),%esi
    2cea:	8d bf 00 00 00 00    	lea    0x0(%edi),%edi

00002cf0 <proto_register>:
    2cf0:	55                   	push   %ebp
    2cf1:	89 e5                	mov    %esp,%ebp
    2cf3:	56                   	push   %esi
    2cf4:	53                   	push   %ebx
    2cf5:	83 ec 10             	sub    $0x10,%esp
    2cf8:	8b 75 08             	mov    0x8(%ebp),%esi
    2cfb:	8b 5d 0c             	mov    0xc(%ebp),%ebx
    2cfe:	c7 04 24 10 00 00 00 	movl   $0x10,(%esp)
    2d05:	e8 46 d9 00 00       	call   10650 <malloc>
    2d0a:	89 30                	mov    %esi,(%eax)
    2d0c:	89 58 04             	mov    %ebx,0x4(%eax)
    2d0f:	83 c0 08             	add    $0x8,%eax
    2d12:	c7 45 08 cc 4a 02 00 	movl   $0x24acc,0x8(%ebp)
    2d19:	89 45 0c             	mov    %eax,0xc(%ebp)
    2d1c:	83 c4 10             	add    $0x10,%esp
    2d1f:	5b                   	pop    %ebx
    2d20:	5e                   	pop    %esi
    2d21:	5d                   	pop    %ebp
    2d22:	e9 39 36 01 00       	jmp    16360 <hash_table_insert>
    2d27:	89 f6                	mov    %esi,%esi
    2d29:	8d bc 27 00 00 00 00 	lea    0x0(%edi,%eiz,1),%edi

00002d30 <proto_get_by_srv>:
    2d30:	55                   	push   %ebp
    2d31:	89 e5                	mov    %esp,%ebp
    2d33:	83 ec 18             	sub    $0x18,%esp
    2d36:	8d 45 08             	lea    0x8(%ebp),%eax
    2d39:	c7 04 24 cc 4a 02 00 	movl   $0x24acc,(%esp)
    2d40:	89 44 24 04          	mov    %eax,0x4(%esp)
    2d44:	e8 47 38 01 00       	call   16590 <hash_table_find>
    2d49:	85 c0                	test   %eax,%eax
    2d4b:	74 0b                	je     2d58 <proto_get_by_srv+0x28>
    2d4d:	8b 40 fc             	mov    -0x4(%eax),%eax
    2d50:	c9                   	leave  
    2d51:	c3                   	ret    
    2d52:	8d b6 00 00 00 00    	lea    0x0(%esi),%esi
    2d58:	31 c0                	xor    %eax,%eax
    2d5a:	c9                   	leave  
    2d5b:	c3                   	ret    
    2d5c:	8d 74 26 00          	lea    0x0(%esi,%eiz,1),%esi

00002d60 <proto_new>:
    2d60:	55                   	push   %ebp
    2d61:	89 e5                	mov    %esp,%ebp
    2d63:	53                   	push   %ebx
    2d64:	83 ec 14             	sub    $0x14,%esp
    2d67:	c7 04 24 20 00 00 00 	movl   $0x20,(%esp)
    2d6e:	e8 dd d8 00 00       	call   10650 <malloc>
    2d73:	c7 44 24 0c cc 3a 02 	movl   $0x23acc,0xc(%esp)
    2d7a:	00 
    2d7b:	89 c3                	mov    %eax,%ebx
    2d7d:	8b 45 08             	mov    0x8(%ebp),%eax
    2d80:	c7 44 24 08 00 00 00 	movl   $0x0,0x8(%esp)
    2d87:	00 
    2d88:	c7 44 24 04 00 00 00 	movl   $0x0,0x4(%esp)
    2d8f:	00 
    2d90:	89 03                	mov    %eax,(%ebx)
    2d92:	8d 43 04             	lea    0x4(%ebx),%eax
    2d95:	89 04 24             	mov    %eax,(%esp)
    2d98:	e8 e3 31 01 00       	call   15f80 <hash_table_create>
    2d9d:	84 c0                	test   %al,%al
    2d9f:	74 08                	je     2da9 <proto_new+0x49>
    2da1:	83 c4 14             	add    $0x14,%esp
    2da4:	89 d8                	mov    %ebx,%eax
    2da6:	5b                   	pop    %ebx
    2da7:	5d                   	pop    %ebp
    2da8:	c3                   	ret    
    2da9:	c7 44 24 08 95 00 00 	movl   $0x95,0x8(%esp)
    2db0:	00 
    2db1:	c7 44 24 04 cc 0e 02 	movl   $0x20ecc,0x4(%esp)
    2db8:	00 
    2db9:	c7 04 24 ec 0d 02 00 	movl   $0x20dec,(%esp)
    2dc0:	e8 fb 81 01 00       	call   1afc0 <assert_abort>
    2dc5:	8d 74 26 00          	lea    0x0(%esi,%eiz,1),%esi
    2dc9:	8d bc 27 00 00 00 00 	lea    0x0(%edi,%eiz,1),%edi

00002dd0 <proto_delete>:
    2dd0:	55                   	push   %ebp
    2dd1:	89 e5                	mov    %esp,%ebp
    2dd3:	5d                   	pop    %ebp
    2dd4:	e9 87 d9 00 00       	jmp    10760 <free>
    2dd9:	8d b4 26 00 00 00 00 	lea    0x0(%esi,%eiz,1),%esi

00002de0 <proto_add_oper>:
    2de0:	55                   	push   %ebp
    2de1:	89 e5                	mov    %esp,%ebp
    2de3:	57                   	push   %edi
    2de4:	56                   	push   %esi
    2de5:	53                   	push   %ebx
    2de6:	83 ec 1c             	sub    $0x1c,%esp
    2de9:	8b 7d 0c             	mov    0xc(%ebp),%edi
    2dec:	8b 75 10             	mov    0x10(%ebp),%esi
    2def:	c7 04 24 10 00 00 00 	movl   $0x10,(%esp)
    2df6:	8b 5d 08             	mov    0x8(%ebp),%ebx
    2df9:	e8 52 d8 00 00       	call   10650 <malloc>
    2dfe:	83 c3 04             	add    $0x4,%ebx
    2e01:	89 38                	mov    %edi,(%eax)
    2e03:	89 70 04             	mov    %esi,0x4(%eax)
    2e06:	83 c0 08             	add    $0x8,%eax
    2e09:	89 5d 08             	mov    %ebx,0x8(%ebp)
    2e0c:	89 45 0c             	mov    %eax,0xc(%ebp)
    2e0f:	83 c4 1c             	add    $0x1c,%esp
    2e12:	5b                   	pop    %ebx
    2e13:	5e                   	pop    %esi
    2e14:	5f                   	pop    %edi
    2e15:	5d                   	pop    %ebp
    2e16:	e9 45 35 01 00       	jmp    16360 <hash_table_insert>
    2e1b:	90                   	nop
    2e1c:	8d 74 26 00          	lea    0x0(%esi,%eiz,1),%esi

00002e20 <proto_get_oper>:
    2e20:	55                   	push   %ebp
    2e21:	89 e5                	mov    %esp,%ebp
    2e23:	83 ec 18             	sub    $0x18,%esp
    2e26:	8d 45 0c             	lea    0xc(%ebp),%eax
    2e29:	89 44 24 04          	mov    %eax,0x4(%esp)
    2e2d:	8b 45 08             	mov    0x8(%ebp),%eax
    2e30:	83 c0 04             	add    $0x4,%eax
    2e33:	89 04 24             	mov    %eax,(%esp)
    2e36:	e8 55 37 01 00       	call   16590 <hash_table_find>
    2e3b:	85 c0                	test   %eax,%eax
    2e3d:	74 09                	je     2e48 <proto_get_oper+0x28>
    2e3f:	8b 40 fc             	mov    -0x4(%eax),%eax
    2e42:	c9                   	leave  
    2e43:	c3                   	ret    
    2e44:	8d 74 26 00          	lea    0x0(%esi,%eiz,1),%esi
    2e48:	31 c0                	xor    %eax,%eax
    2e4a:	c9                   	leave  
    2e4b:	c3                   	ret    
    2e4c:	8d 74 26 00          	lea    0x0(%esi,%eiz,1),%esi

00002e50 <oper_new>:
    2e50:	55                   	push   %ebp
    2e51:	89 e5                	mov    %esp,%ebp
    2e53:	57                   	push   %edi
    2e54:	56                   	push   %esi
    2e55:	53                   	push   %ebx
    2e56:	83 ec 2c             	sub    $0x2c,%esp
    2e59:	8b 4d 10             	mov    0x10(%ebp),%ecx
    2e5c:	8b 75 0c             	mov    0xc(%ebp),%esi
    2e5f:	c7 04 24 38 00 00 00 	movl   $0x38,(%esp)
    2e66:	89 4d e4             	mov    %ecx,-0x1c(%ebp)
    2e69:	8b 5d 18             	mov    0x18(%ebp),%ebx
    2e6c:	8b 7d 1c             	mov    0x1c(%ebp),%edi
    2e6f:	e8 dc d7 00 00       	call   10650 <malloc>
    2e74:	8b 55 08             	mov    0x8(%ebp),%edx
    2e77:	8b 4d e4             	mov    -0x1c(%ebp),%ecx
    2e7a:	89 10                	mov    %edx,(%eax)
    2e7c:	89 70 04             	mov    %esi,0x4(%eax)
    2e7f:	31 d2                	xor    %edx,%edx
    2e81:	85 f6                	test   %esi,%esi
    2e83:	7e 12                	jle    2e97 <oper_new+0x47>
    2e85:	89 5d e0             	mov    %ebx,-0x20(%ebp)
    2e88:	8b 1c 91             	mov    (%ecx,%edx,4),%ebx
    2e8b:	89 5c 90 08          	mov    %ebx,0x8(%eax,%edx,4)
    2e8f:	42                   	inc    %edx
    2e90:	39 f2                	cmp    %esi,%edx
    2e92:	75 f4                	jne    2e88 <oper_new+0x38>
    2e94:	8b 5d e0             	mov    -0x20(%ebp),%ebx
    2e97:	8b 55 14             	mov    0x14(%ebp),%edx
    2e9a:	89 58 20             	mov    %ebx,0x20(%eax)
    2e9d:	89 50 1c             	mov    %edx,0x1c(%eax)
    2ea0:	31 d2                	xor    %edx,%edx
    2ea2:	85 db                	test   %ebx,%ebx
    2ea4:	7e 0e                	jle    2eb4 <oper_new+0x64>
    2ea6:	66 90                	xchg   %ax,%ax
    2ea8:	8b 0c 97             	mov    (%edi,%edx,4),%ecx
    2eab:	89 4c 90 24          	mov    %ecx,0x24(%eax,%edx,4)
    2eaf:	42                   	inc    %edx
    2eb0:	39 da                	cmp    %ebx,%edx
    2eb2:	75 f4                	jne    2ea8 <oper_new+0x58>
    2eb4:	83 c4 2c             	add    $0x2c,%esp
    2eb7:	5b                   	pop    %ebx
    2eb8:	5e                   	pop    %esi
    2eb9:	5f                   	pop    %edi
    2eba:	5d                   	pop    %ebp
    2ebb:	c3                   	ret    
    2ebc:	66 90                	xchg   %ax,%ax
    2ebe:	66 90                	xchg   %ax,%ax

00002ec0 <exit>:
    2ec0:	55                   	push   %ebp
    2ec1:	89 e5                	mov    %esp,%ebp
    2ec3:	83 ec 28             	sub    $0x28,%esp
    2ec6:	80 3d e8 4a 02 00 00 	cmpb   $0x0,0x24ae8
    2ecd:	75 3f                	jne    2f0e <exit+0x4e>
    2ecf:	c7 44 24 18 0a 00 00 	movl   $0xa,0x18(%esp)
    2ed6:	00 
    2ed7:	c7 44 24 14 00 00 00 	movl   $0x0,0x14(%esp)
    2ede:	00 
    2edf:	c7 44 24 10 00 00 00 	movl   $0x0,0x10(%esp)
    2ee6:	00 
    2ee7:	c7 44 24 0c 00 00 00 	movl   $0x0,0xc(%esp)
    2eee:	00 
    2eef:	c7 44 24 08 00 00 00 	movl   $0x0,0x8(%esp)
    2ef6:	00 
    2ef7:	c7 44 24 04 00 00 00 	movl   $0x0,0x4(%esp)
    2efe:	00 
    2eff:	c7 04 24 00 00 00 00 	movl   $0x0,(%esp)
    2f06:	ff 15 54 3c 02 00    	call   *0x23c54
    2f0c:	eb fe                	jmp    2f0c <exit+0x4c>
    2f0e:	e8 2d 61 00 00       	call   9040 <__stdio_done>
    2f13:	8b 45 08             	mov    0x8(%ebp),%eax
    2f16:	89 04 24             	mov    %eax,(%esp)
    2f19:	e8 42 5c 00 00       	call   8b60 <task_retval>
    2f1e:	65 a1 00 00 00 00    	mov    %gs:0x0,%eax
    2f24:	8b 40 04             	mov    0x4(%eax),%eax
    2f27:	89 04 24             	mov    %eax,(%esp)
    2f2a:	e8 21 3a 00 00       	call   6950 <fibril_teardown>
    2f2f:	eb 9e                	jmp    2ecf <exit+0xf>
    2f31:	eb 0d                	jmp    2f40 <abort>
    2f33:	90                   	nop
    2f34:	90                   	nop
    2f35:	90                   	nop
    2f36:	90                   	nop
    2f37:	90                   	nop
    2f38:	90                   	nop
    2f39:	90                   	nop
    2f3a:	90                   	nop
    2f3b:	90                   	nop
    2f3c:	90                   	nop
    2f3d:	90                   	nop
    2f3e:	90                   	nop
    2f3f:	90                   	nop

00002f40 <abort>:
    2f40:	55                   	push   %ebp
    2f41:	89 e5                	mov    %esp,%ebp
    2f43:	83 ec 28             	sub    $0x28,%esp
    2f46:	c7 44 24 18 0a 00 00 	movl   $0xa,0x18(%esp)
    2f4d:	00 
    2f4e:	c7 44 24 14 00 00 00 	movl   $0x0,0x14(%esp)
    2f55:	00 
    2f56:	c7 44 24 10 00 00 00 	movl   $0x0,0x10(%esp)
    2f5d:	00 
    2f5e:	c7 44 24 0c 00 00 00 	movl   $0x0,0xc(%esp)
    2f65:	00 
    2f66:	c7 44 24 08 00 00 00 	movl   $0x0,0x8(%esp)
    2f6d:	00 
    2f6e:	c7 44 24 04 00 00 00 	movl   $0x0,0x4(%esp)
    2f75:	00 
    2f76:	c7 04 24 01 00 00 00 	movl   $0x1,(%esp)
    2f7d:	ff 15 54 3c 02 00    	call   *0x23c54
    2f83:	eb fe                	jmp    2f83 <abort+0x43>
    2f85:	8d 74 26 00          	lea    0x0(%esi,%eiz,1),%esi
    2f89:	8d bc 27 00 00 00 00 	lea    0x0(%edi,%eiz,1),%edi

00002f90 <__main>:
    2f90:	55                   	push   %ebp
    2f91:	89 e5                	mov    %esp,%ebp
    2f93:	57                   	push   %edi
    2f94:	56                   	push   %esi
    2f95:	53                   	push   %ebx
    2f96:	83 ec 2c             	sub    $0x2c,%esp
    2f99:	8b 5d 08             	mov    0x8(%ebp),%ebx
    2f9c:	e8 af d5 00 00       	call   10550 <__malloc_init>
    2fa1:	e8 4a f1 00 00       	call   120f0 <__async_init>
    2fa6:	e8 25 39 00 00       	call   68d0 <fibril_setup>
    2fab:	85 c0                	test   %eax,%eax
    2fad:	0f 84 82 00 00 00    	je     3035 <__main+0xa5>
    2fb3:	c7 44 24 18 01 00 00 	movl   $0x1,0x18(%esp)
    2fba:	00 
    2fbb:	c7 44 24 14 00 00 00 	movl   $0x0,0x14(%esp)
    2fc2:	00 
    2fc3:	c7 44 24 10 00 00 00 	movl   $0x0,0x10(%esp)
    2fca:	00 
    2fcb:	c7 44 24 0c 00 00 00 	movl   $0x0,0xc(%esp)
    2fd2:	00 
    2fd3:	c7 44 24 08 00 00 00 	movl   $0x0,0x8(%esp)
    2fda:	00 
    2fdb:	c7 44 24 04 00 00 00 	movl   $0x0,0x4(%esp)
    2fe2:	00 
    2fe3:	8b 40 30             	mov    0x30(%eax),%eax
    2fe6:	89 04 24             	mov    %eax,(%esp)
    2fe9:	ff 15 54 3c 02 00    	call   *0x23c54
    2fef:	89 1d 60 4a 02 00    	mov    %ebx,0x24a60
    2ff5:	c6 05 e8 4a 02 00 01 	movb   $0x1,0x24ae8
    2ffc:	85 db                	test   %ebx,%ebx
    2ffe:	74 3a                	je     303a <__main+0xaa>
    3000:	8b 43 10             	mov    0x10(%ebx),%eax
    3003:	8b 73 08             	mov    0x8(%ebx),%esi
    3006:	8b 7b 0c             	mov    0xc(%ebx),%edi
    3009:	89 04 24             	mov    %eax,(%esp)
    300c:	e8 9f 5d 00 00       	call   8db0 <__stdio_init>
    3011:	a1 60 4a 02 00       	mov    0x24a60,%eax
    3016:	8b 40 04             	mov    0x4(%eax),%eax
    3019:	89 04 24             	mov    %eax,(%esp)
    301c:	e8 2f 73 01 00       	call   1a350 <chdir>
    3021:	89 7c 24 04          	mov    %edi,0x4(%esp)
    3025:	89 34 24             	mov    %esi,(%esp)
    3028:	e8 a3 e8 ff ff       	call   18d0 <main>
    302d:	89 04 24             	mov    %eax,(%esp)
    3030:	e8 8b fe ff ff       	call   2ec0 <exit>
    3035:	e8 06 ff ff ff       	call   2f40 <abort>
    303a:	c7 04 24 00 00 00 00 	movl   $0x0,(%esp)
    3041:	31 ff                	xor    %edi,%edi
    3043:	e8 68 5d 00 00       	call   8db0 <__stdio_init>
    3048:	31 f6                	xor    %esi,%esi
    304a:	eb d5                	jmp    3021 <__main+0x91>
    304c:	66 90                	xchg   %ax,%ax
    304e:	66 90                	xchg   %ax,%ax

00003050 <__errno>:
    3050:	55                   	push   %ebp
    3051:	65 a1 00 00 00 00    	mov    %gs:0x0,%eax
    3057:	89 e5                	mov    %esp,%ebp
    3059:	05 f4 ff ff ff       	add    $0xfffffff4,%eax
    305e:	5d                   	pop    %ebp
    305f:	c3                   	ret    

00003060 <memset>:
    3060:	55                   	push   %ebp
    3061:	89 e5                	mov    %esp,%ebp
    3063:	57                   	push   %edi
    3064:	56                   	push   %esi
    3065:	53                   	push   %ebx
    3066:	83 ec 20             	sub    $0x20,%esp
    3069:	c7 45 f0 04 00 00 00 	movl   $0x4,-0x10(%ebp)
    3070:	8b 45 08             	mov    0x8(%ebp),%eax
    3073:	8b 75 f0             	mov    -0x10(%ebp),%esi
    3076:	89 c2                	mov    %eax,%edx
    3078:	83 e2 03             	and    $0x3,%edx
    307b:	29 d6                	sub    %edx,%esi
    307d:	8b 55 10             	mov    0x10(%ebp),%edx
    3080:	89 75 f0             	mov    %esi,-0x10(%ebp)
    3083:	39 55 f0             	cmp    %edx,-0x10(%ebp)
    3086:	76 03                	jbe    308b <memset+0x2b>
    3088:	89 55 f0             	mov    %edx,-0x10(%ebp)
    308b:	8b 7d f0             	mov    -0x10(%ebp),%edi
    308e:	8b 5d f0             	mov    -0x10(%ebp),%ebx
    3091:	4f                   	dec    %edi
    3092:	85 db                	test   %ebx,%ebx
    3094:	0f 84 2e 01 00 00    	je     31c8 <memset+0x168>
    309a:	89 c1                	mov    %eax,%ecx
    309c:	8b 55 f0             	mov    -0x10(%ebp),%edx
    309f:	f7 d9                	neg    %ecx
    30a1:	83 e1 03             	and    $0x3,%ecx
    30a4:	8a 5d 0c             	mov    0xc(%ebp),%bl
    30a7:	89 4d ec             	mov    %ecx,-0x14(%ebp)
    30aa:	39 d1                	cmp    %edx,%ecx
    30ac:	0f 87 0e 01 00 00    	ja     31c0 <memset+0x160>
    30b2:	83 7d f0 06          	cmpl   $0x6,-0x10(%ebp)
    30b6:	0f 87 10 01 00 00    	ja     31cc <memset+0x16c>
    30bc:	8b 4d f0             	mov    -0x10(%ebp),%ecx
    30bf:	89 4d ec             	mov    %ecx,-0x14(%ebp)
    30c2:	8b 75 ec             	mov    -0x14(%ebp),%esi
    30c5:	89 c2                	mov    %eax,%edx
    30c7:	90                   	nop
    30c8:	88 1a                	mov    %bl,(%edx)
    30ca:	42                   	inc    %edx
    30cb:	89 d1                	mov    %edx,%ecx
    30cd:	4f                   	dec    %edi
    30ce:	29 c1                	sub    %eax,%ecx
    30d0:	39 f1                	cmp    %esi,%ecx
    30d2:	72 f4                	jb     30c8 <memset+0x68>
    30d4:	89 55 d4             	mov    %edx,-0x2c(%ebp)
    30d7:	8b 55 ec             	mov    -0x14(%ebp),%edx
    30da:	39 55 f0             	cmp    %edx,-0x10(%ebp)
    30dd:	0f 84 84 00 00 00    	je     3167 <memset+0x107>
    30e3:	8b 4d f0             	mov    -0x10(%ebp),%ecx
    30e6:	8b 55 ec             	mov    -0x14(%ebp),%edx
    30e9:	29 d1                	sub    %edx,%ecx
    30eb:	89 4d dc             	mov    %ecx,-0x24(%ebp)
    30ee:	c1 e9 02             	shr    $0x2,%ecx
    30f1:	89 4d e4             	mov    %ecx,-0x1c(%ebp)
    30f4:	c1 e1 02             	shl    $0x2,%ecx
    30f7:	89 4d e0             	mov    %ecx,-0x20(%ebp)
    30fa:	74 59                	je     3155 <memset+0xf5>
    30fc:	31 c9                	xor    %ecx,%ecx
    30fe:	31 d2                	xor    %edx,%edx
    3100:	88 d9                	mov    %bl,%cl
    3102:	88 da                	mov    %bl,%dl
    3104:	8a 6d 0c             	mov    0xc(%ebp),%ch
    3107:	89 55 e8             	mov    %edx,-0x18(%ebp)
    310a:	c1 e2 10             	shl    $0x10,%edx
    310d:	89 ce                	mov    %ecx,%esi
    310f:	81 e6 ff ff 00 00    	and    $0xffff,%esi
    3115:	8b 4d e8             	mov    -0x18(%ebp),%ecx
    3118:	c1 e1 18             	shl    $0x18,%ecx
    311b:	09 d6                	or     %edx,%esi
    311d:	09 ce                	or     %ecx,%esi
    311f:	8b 4d ec             	mov    -0x14(%ebp),%ecx
    3122:	01 c1                	add    %eax,%ecx
    3124:	89 7d e8             	mov    %edi,-0x18(%ebp)
    3127:	89 4d ec             	mov    %ecx,-0x14(%ebp)
    312a:	8b 55 d4             	mov    -0x2c(%ebp),%edx
    312d:	8b 7d ec             	mov    -0x14(%ebp),%edi
    3130:	31 c9                	xor    %ecx,%ecx
    3132:	89 45 ec             	mov    %eax,-0x14(%ebp)
    3135:	8b 45 e4             	mov    -0x1c(%ebp),%eax
    3138:	89 34 8f             	mov    %esi,(%edi,%ecx,4)
    313b:	41                   	inc    %ecx
    313c:	39 c8                	cmp    %ecx,%eax
    313e:	77 f8                	ja     3138 <memset+0xd8>
    3140:	8b 4d e0             	mov    -0x20(%ebp),%ecx
    3143:	8b 7d e8             	mov    -0x18(%ebp),%edi
    3146:	01 ca                	add    %ecx,%edx
    3148:	29 cf                	sub    %ecx,%edi
    314a:	8b 45 ec             	mov    -0x14(%ebp),%eax
    314d:	89 55 d4             	mov    %edx,-0x2c(%ebp)
    3150:	39 4d dc             	cmp    %ecx,-0x24(%ebp)
    3153:	74 12                	je     3167 <memset+0x107>
    3155:	8b 55 d4             	mov    -0x2c(%ebp),%edx
    3158:	8d 4c 3a 01          	lea    0x1(%edx,%edi,1),%ecx
    315c:	8d 74 26 00          	lea    0x0(%esi,%eiz,1),%esi
    3160:	88 1a                	mov    %bl,(%edx)
    3162:	42                   	inc    %edx
    3163:	39 ca                	cmp    %ecx,%edx
    3165:	75 f9                	jne    3160 <memset+0x100>
    3167:	8b 5d f0             	mov    -0x10(%ebp),%ebx
    316a:	01 c3                	add    %eax,%ebx
    316c:	8b 75 10             	mov    0x10(%ebp),%esi
    316f:	2b 75 f0             	sub    -0x10(%ebp),%esi
    3172:	74 43                	je     31b7 <memset+0x157>
    3174:	0f b6 55 0c          	movzbl 0xc(%ebp),%edx
    3178:	89 d1                	mov    %edx,%ecx
    317a:	89 f7                	mov    %esi,%edi
    317c:	c1 e1 08             	shl    $0x8,%ecx
    317f:	83 e7 03             	and    $0x3,%edi
    3182:	09 d1                	or     %edx,%ecx
    3184:	c1 e1 08             	shl    $0x8,%ecx
    3187:	09 d1                	or     %edx,%ecx
    3189:	c1 e1 08             	shl    $0x8,%ecx
    318c:	09 d1                	or     %edx,%ecx
    318e:	c1 ee 02             	shr    $0x2,%esi
    3191:	74 10                	je     31a3 <memset+0x143>
    3193:	31 d2                	xor    %edx,%edx
    3195:	8d 76 00             	lea    0x0(%esi),%esi
    3198:	89 0c 93             	mov    %ecx,(%ebx,%edx,4)
    319b:	42                   	inc    %edx
    319c:	39 f2                	cmp    %esi,%edx
    319e:	75 f8                	jne    3198 <memset+0x138>
    31a0:	8d 1c 93             	lea    (%ebx,%edx,4),%ebx
    31a3:	85 ff                	test   %edi,%edi
    31a5:	74 10                	je     31b7 <memset+0x157>
    31a7:	8a 55 0c             	mov    0xc(%ebp),%dl
    31aa:	01 df                	add    %ebx,%edi
    31ac:	8d 74 26 00          	lea    0x0(%esi,%eiz,1),%esi
    31b0:	88 13                	mov    %dl,(%ebx)
    31b2:	43                   	inc    %ebx
    31b3:	39 fb                	cmp    %edi,%ebx
    31b5:	75 f9                	jne    31b0 <memset+0x150>
    31b7:	83 c4 20             	add    $0x20,%esp
    31ba:	5b                   	pop    %ebx
    31bb:	5e                   	pop    %esi
    31bc:	5f                   	pop    %edi
    31bd:	5d                   	pop    %ebp
    31be:	c3                   	ret    
    31bf:	90                   	nop
    31c0:	89 55 ec             	mov    %edx,-0x14(%ebp)
    31c3:	e9 ea fe ff ff       	jmp    30b2 <memset+0x52>
    31c8:	89 c3                	mov    %eax,%ebx
    31ca:	eb a0                	jmp    316c <memset+0x10c>
    31cc:	8b 4d ec             	mov    -0x14(%ebp),%ecx
    31cf:	85 c9                	test   %ecx,%ecx
    31d1:	0f 85 eb fe ff ff    	jne    30c2 <memset+0x62>
    31d7:	89 45 d4             	mov    %eax,-0x2c(%ebp)
    31da:	e9 04 ff ff ff       	jmp    30e3 <memset+0x83>
    31df:	90                   	nop

000031e0 <memcpy>:
    31e0:	55                   	push   %ebp
    31e1:	89 e5                	mov    %esp,%ebp
    31e3:	57                   	push   %edi
    31e4:	56                   	push   %esi
    31e5:	53                   	push   %ebx
    31e6:	83 ec 0c             	sub    $0xc,%esp
    31e9:	8b 4d 0c             	mov    0xc(%ebp),%ecx
    31ec:	8b 45 08             	mov    0x8(%ebp),%eax
    31ef:	89 ca                	mov    %ecx,%edx
    31f1:	31 c2                	xor    %eax,%edx
    31f3:	83 e2 03             	and    $0x3,%edx
    31f6:	0f 85 84 01 00 00    	jne    3380 <memcpy+0x1a0>
    31fc:	c7 45 ec 04 00 00 00 	movl   $0x4,-0x14(%ebp)
    3203:	89 c2                	mov    %eax,%edx
    3205:	83 e2 03             	and    $0x3,%edx
    3208:	8b 75 ec             	mov    -0x14(%ebp),%esi
    320b:	29 d6                	sub    %edx,%esi
    320d:	8b 55 10             	mov    0x10(%ebp),%edx
    3210:	89 75 ec             	mov    %esi,-0x14(%ebp)
    3213:	39 55 ec             	cmp    %edx,-0x14(%ebp)
    3216:	0f 87 5c 01 00 00    	ja     3378 <memcpy+0x198>
    321c:	8b 5d ec             	mov    -0x14(%ebp),%ebx
    321f:	4b                   	dec    %ebx
    3220:	89 5d f0             	mov    %ebx,-0x10(%ebp)
    3223:	8b 5d ec             	mov    -0x14(%ebp),%ebx
    3226:	85 db                	test   %ebx,%ebx
    3228:	0f 84 91 01 00 00    	je     33bf <memcpy+0x1df>
    322e:	8d 51 04             	lea    0x4(%ecx),%edx
    3231:	8b 5d ec             	mov    -0x14(%ebp),%ebx
    3234:	c1 eb 02             	shr    $0x2,%ebx
    3237:	39 d0                	cmp    %edx,%eax
    3239:	0f 93 c2             	setae  %dl
    323c:	89 d6                	mov    %edx,%esi
    323e:	8d 50 04             	lea    0x4(%eax),%edx
    3241:	39 d1                	cmp    %edx,%ecx
    3243:	8d 3c 9d 00 00 00 00 	lea    0x0(,%ebx,4),%edi
    324a:	0f 93 c2             	setae  %dl
    324d:	09 d6                	or     %edx,%esi
    324f:	83 7d ec 09          	cmpl   $0x9,-0x14(%ebp)
    3253:	0f 97 c2             	seta   %dl
    3256:	21 d6                	and    %edx,%esi
    3258:	89 ca                	mov    %ecx,%edx
    325a:	09 c2                	or     %eax,%edx
    325c:	83 e2 03             	and    $0x3,%edx
    325f:	89 f2                	mov    %esi,%edx
    3261:	0f 94 45 e8          	sete   -0x18(%ebp)
    3265:	84 55 e8             	test   %dl,-0x18(%ebp)
    3268:	0f 84 58 01 00 00    	je     33c6 <memcpy+0x1e6>
    326e:	85 ff                	test   %edi,%edi
    3270:	0f 84 50 01 00 00    	je     33c6 <memcpy+0x1e6>
    3276:	31 d2                	xor    %edx,%edx
    3278:	8b 34 91             	mov    (%ecx,%edx,4),%esi
    327b:	89 34 90             	mov    %esi,(%eax,%edx,4)
    327e:	42                   	inc    %edx
    327f:	39 d3                	cmp    %edx,%ebx
    3281:	77 f5                	ja     3278 <memcpy+0x98>
    3283:	8b 55 f0             	mov    -0x10(%ebp),%edx
    3286:	8d 1c 39             	lea    (%ecx,%edi,1),%ebx
    3289:	29 fa                	sub    %edi,%edx
    328b:	8d 34 38             	lea    (%eax,%edi,1),%esi
    328e:	89 55 f0             	mov    %edx,-0x10(%ebp)
    3291:	39 7d ec             	cmp    %edi,-0x14(%ebp)
    3294:	74 18                	je     32ae <memcpy+0xce>
    3296:	8b 7d f0             	mov    -0x10(%ebp),%edi
    3299:	31 d2                	xor    %edx,%edx
    329b:	47                   	inc    %edi
    329c:	89 45 f0             	mov    %eax,-0x10(%ebp)
    329f:	90                   	nop
    32a0:	8a 04 13             	mov    (%ebx,%edx,1),%al
    32a3:	88 04 16             	mov    %al,(%esi,%edx,1)
    32a6:	42                   	inc    %edx
    32a7:	39 fa                	cmp    %edi,%edx
    32a9:	75 f5                	jne    32a0 <memcpy+0xc0>
    32ab:	8b 45 f0             	mov    -0x10(%ebp),%eax
    32ae:	8b 55 ec             	mov    -0x14(%ebp),%edx
    32b1:	8b 7d ec             	mov    -0x14(%ebp),%edi
    32b4:	01 c2                	add    %eax,%edx
    32b6:	01 f9                	add    %edi,%ecx
    32b8:	8b 5d 10             	mov    0x10(%ebp),%ebx
    32bb:	2b 5d ec             	sub    -0x14(%ebp),%ebx
    32be:	0f 84 a9 00 00 00    	je     336d <memcpy+0x18d>
    32c4:	89 df                	mov    %ebx,%edi
    32c6:	c1 ef 02             	shr    $0x2,%edi
    32c9:	8d 34 bd 00 00 00 00 	lea    0x0(,%edi,4),%esi
    32d0:	29 f3                	sub    %esi,%ebx
    32d2:	85 ff                	test   %edi,%edi
    32d4:	89 5d ec             	mov    %ebx,-0x14(%ebp)
    32d7:	74 1c                	je     32f5 <memcpy+0x115>
    32d9:	31 db                	xor    %ebx,%ebx
    32db:	89 45 f0             	mov    %eax,-0x10(%ebp)
    32de:	66 90                	xchg   %ax,%ax
    32e0:	8b 04 99             	mov    (%ecx,%ebx,4),%eax
    32e3:	89 04 9a             	mov    %eax,(%edx,%ebx,4)
    32e6:	43                   	inc    %ebx
    32e7:	39 fb                	cmp    %edi,%ebx
    32e9:	75 f5                	jne    32e0 <memcpy+0x100>
    32eb:	8b 45 f0             	mov    -0x10(%ebp),%eax
    32ee:	01 f2                	add    %esi,%edx
    32f0:	01 f1                	add    %esi,%ecx
    32f2:	8b 5d ec             	mov    -0x14(%ebp),%ebx
    32f5:	4b                   	dec    %ebx
    32f6:	8b 75 ec             	mov    -0x14(%ebp),%esi
    32f9:	89 5d e8             	mov    %ebx,-0x18(%ebp)
    32fc:	85 f6                	test   %esi,%esi
    32fe:	74 6d                	je     336d <memcpy+0x18d>
    3300:	8d 5a 04             	lea    0x4(%edx),%ebx
    3303:	8b 75 ec             	mov    -0x14(%ebp),%esi
    3306:	c1 ee 02             	shr    $0x2,%esi
    3309:	39 d9                	cmp    %ebx,%ecx
    330b:	8d 59 04             	lea    0x4(%ecx),%ebx
    330e:	0f 93 45 f0          	setae  -0x10(%ebp)
    3312:	39 da                	cmp    %ebx,%edx
    3314:	8d 3c b5 00 00 00 00 	lea    0x0(,%esi,4),%edi
    331b:	0f 93 c3             	setae  %bl
    331e:	08 5d f0             	or     %bl,-0x10(%ebp)
    3321:	83 7d ec 08          	cmpl   $0x8,-0x14(%ebp)
    3325:	0f 97 c3             	seta   %bl
    3328:	84 5d f0             	test   %bl,-0x10(%ebp)
    332b:	74 2a                	je     3357 <memcpy+0x177>
    332d:	85 ff                	test   %edi,%edi
    332f:	74 26                	je     3357 <memcpy+0x177>
    3331:	31 db                	xor    %ebx,%ebx
    3333:	89 45 f0             	mov    %eax,-0x10(%ebp)
    3336:	66 90                	xchg   %ax,%ax
    3338:	8b 04 99             	mov    (%ecx,%ebx,4),%eax
    333b:	89 04 9a             	mov    %eax,(%edx,%ebx,4)
    333e:	43                   	inc    %ebx
    333f:	39 de                	cmp    %ebx,%esi
    3341:	77 f5                	ja     3338 <memcpy+0x158>
    3343:	8b 5d e8             	mov    -0x18(%ebp),%ebx
    3346:	01 f9                	add    %edi,%ecx
    3348:	29 fb                	sub    %edi,%ebx
    334a:	01 fa                	add    %edi,%edx
    334c:	8b 45 f0             	mov    -0x10(%ebp),%eax
    334f:	89 5d e8             	mov    %ebx,-0x18(%ebp)
    3352:	39 7d ec             	cmp    %edi,-0x14(%ebp)
    3355:	74 16                	je     336d <memcpy+0x18d>
    3357:	8b 75 e8             	mov    -0x18(%ebp),%esi
    335a:	31 db                	xor    %ebx,%ebx
    335c:	46                   	inc    %esi
    335d:	89 c7                	mov    %eax,%edi
    335f:	90                   	nop
    3360:	8a 04 19             	mov    (%ecx,%ebx,1),%al
    3363:	88 04 1a             	mov    %al,(%edx,%ebx,1)
    3366:	43                   	inc    %ebx
    3367:	39 f3                	cmp    %esi,%ebx
    3369:	75 f5                	jne    3360 <memcpy+0x180>
    336b:	89 f8                	mov    %edi,%eax
    336d:	83 c4 0c             	add    $0xc,%esp
    3370:	5b                   	pop    %ebx
    3371:	5e                   	pop    %esi
    3372:	5f                   	pop    %edi
    3373:	5d                   	pop    %ebp
    3374:	c3                   	ret    
    3375:	8d 76 00             	lea    0x0(%esi),%esi
    3378:	89 55 ec             	mov    %edx,-0x14(%ebp)
    337b:	e9 9c fe ff ff       	jmp    321c <memcpy+0x3c>
    3380:	8b 75 10             	mov    0x10(%ebp),%esi
    3383:	31 d2                	xor    %edx,%edx
    3385:	c1 ee 02             	shr    $0x2,%esi
    3388:	74 11                	je     339b <memcpy+0x1bb>
    338a:	8d b6 00 00 00 00    	lea    0x0(%esi),%esi
    3390:	8b 1c 91             	mov    (%ecx,%edx,4),%ebx
    3393:	89 1c 90             	mov    %ebx,(%eax,%edx,4)
    3396:	42                   	inc    %edx
    3397:	39 f2                	cmp    %esi,%edx
    3399:	75 f5                	jne    3390 <memcpy+0x1b0>
    339b:	8b 75 10             	mov    0x10(%ebp),%esi
    339e:	83 e6 03             	and    $0x3,%esi
    33a1:	74 ca                	je     336d <memcpy+0x18d>
    33a3:	c1 e2 02             	shl    $0x2,%edx
    33a6:	31 db                	xor    %ebx,%ebx
    33a8:	01 d1                	add    %edx,%ecx
    33aa:	89 c7                	mov    %eax,%edi
    33ac:	01 c2                	add    %eax,%edx
    33ae:	66 90                	xchg   %ax,%ax
    33b0:	8a 04 19             	mov    (%ecx,%ebx,1),%al
    33b3:	88 04 1a             	mov    %al,(%edx,%ebx,1)
    33b6:	43                   	inc    %ebx
    33b7:	39 de                	cmp    %ebx,%esi
    33b9:	77 f5                	ja     33b0 <memcpy+0x1d0>
    33bb:	89 f8                	mov    %edi,%eax
    33bd:	eb ae                	jmp    336d <memcpy+0x18d>
    33bf:	89 c2                	mov    %eax,%edx
    33c1:	e9 f2 fe ff ff       	jmp    32b8 <memcpy+0xd8>
    33c6:	89 c6                	mov    %eax,%esi
    33c8:	89 cb                	mov    %ecx,%ebx
    33ca:	e9 c7 fe ff ff       	jmp    3296 <memcpy+0xb6>
    33cf:	90                   	nop

000033d0 <memmove>:
    33d0:	55                   	push   %ebp
    33d1:	89 e5                	mov    %esp,%ebp
    33d3:	57                   	push   %edi
    33d4:	56                   	push   %esi
    33d5:	53                   	push   %ebx
    33d6:	83 ec 0c             	sub    $0xc,%esp
    33d9:	8b 45 08             	mov    0x8(%ebp),%eax
    33dc:	8b 55 0c             	mov    0xc(%ebp),%edx
    33df:	39 c2                	cmp    %eax,%edx
    33e1:	0f 84 b6 00 00 00    	je     349d <memmove+0xcd>
    33e7:	8b 4d 10             	mov    0x10(%ebp),%ecx
    33ea:	01 d1                	add    %edx,%ecx
    33ec:	39 c8                	cmp    %ecx,%eax
    33ee:	0f 83 b4 00 00 00    	jae    34a8 <memmove+0xd8>
    33f4:	8b 4d 10             	mov    0x10(%ebp),%ecx
    33f7:	01 c1                	add    %eax,%ecx
    33f9:	39 ca                	cmp    %ecx,%edx
    33fb:	0f 83 a7 00 00 00    	jae    34a8 <memmove+0xd8>
    3401:	39 c2                	cmp    %eax,%edx
    3403:	0f 86 47 02 00 00    	jbe    3650 <memmove+0x280>
    3409:	8b 7d 10             	mov    0x10(%ebp),%edi
    340c:	8b 4d 10             	mov    0x10(%ebp),%ecx
    340f:	4f                   	dec    %edi
    3410:	85 c9                	test   %ecx,%ecx
    3412:	0f 84 85 00 00 00    	je     349d <memmove+0xcd>
    3418:	8d 5a 04             	lea    0x4(%edx),%ebx
    341b:	8b 4d 10             	mov    0x10(%ebp),%ecx
    341e:	c1 e9 02             	shr    $0x2,%ecx
    3421:	39 d8                	cmp    %ebx,%eax
    3423:	8d 58 04             	lea    0x4(%eax),%ebx
    3426:	0f 93 45 f0          	setae  -0x10(%ebp)
    342a:	39 da                	cmp    %ebx,%edx
    342c:	8d 34 8d 00 00 00 00 	lea    0x0(,%ecx,4),%esi
    3433:	0f 93 c3             	setae  %bl
    3436:	08 5d f0             	or     %bl,-0x10(%ebp)
    3439:	83 7d 10 09          	cmpl   $0x9,0x10(%ebp)
    343d:	0f 97 c3             	seta   %bl
    3440:	20 5d f0             	and    %bl,-0x10(%ebp)
    3443:	89 d3                	mov    %edx,%ebx
    3445:	09 c3                	or     %eax,%ebx
    3447:	83 e3 03             	and    $0x3,%ebx
    344a:	0f 94 c3             	sete   %bl
    344d:	84 5d f0             	test   %bl,-0x10(%ebp)
    3450:	0f 84 8b 02 00 00    	je     36e1 <memmove+0x311>
    3456:	85 f6                	test   %esi,%esi
    3458:	0f 84 83 02 00 00    	je     36e1 <memmove+0x311>
    345e:	31 db                	xor    %ebx,%ebx
    3460:	89 75 f0             	mov    %esi,-0x10(%ebp)
    3463:	90                   	nop
    3464:	8d 74 26 00          	lea    0x0(%esi,%eiz,1),%esi
    3468:	8b 34 9a             	mov    (%edx,%ebx,4),%esi
    346b:	89 34 98             	mov    %esi,(%eax,%ebx,4)
    346e:	43                   	inc    %ebx
    346f:	39 d9                	cmp    %ebx,%ecx
    3471:	77 f5                	ja     3468 <memmove+0x98>
    3473:	8b 75 f0             	mov    -0x10(%ebp),%esi
    3476:	01 f2                	add    %esi,%edx
    3478:	29 f7                	sub    %esi,%edi
    347a:	8d 0c 30             	lea    (%eax,%esi,1),%ecx
    347d:	39 75 10             	cmp    %esi,0x10(%ebp)
    3480:	74 1b                	je     349d <memmove+0xcd>
    3482:	8d 77 01             	lea    0x1(%edi),%esi
    3485:	31 db                	xor    %ebx,%ebx
    3487:	89 c7                	mov    %eax,%edi
    3489:	8d b4 26 00 00 00 00 	lea    0x0(%esi,%eiz,1),%esi
    3490:	8a 04 1a             	mov    (%edx,%ebx,1),%al
    3493:	88 04 19             	mov    %al,(%ecx,%ebx,1)
    3496:	43                   	inc    %ebx
    3497:	39 f3                	cmp    %esi,%ebx
    3499:	75 f5                	jne    3490 <memmove+0xc0>
    349b:	89 f8                	mov    %edi,%eax
    349d:	83 c4 0c             	add    $0xc,%esp
    34a0:	5b                   	pop    %ebx
    34a1:	5e                   	pop    %esi
    34a2:	5f                   	pop    %edi
    34a3:	5d                   	pop    %ebp
    34a4:	c3                   	ret    
    34a5:	8d 76 00             	lea    0x0(%esi),%esi
    34a8:	89 d1                	mov    %edx,%ecx
    34aa:	31 c1                	xor    %eax,%ecx
    34ac:	83 e1 03             	and    $0x3,%ecx
    34af:	0f 85 db 01 00 00    	jne    3690 <memmove+0x2c0>
    34b5:	c7 45 e8 04 00 00 00 	movl   $0x4,-0x18(%ebp)
    34bc:	89 c1                	mov    %eax,%ecx
    34be:	83 e1 03             	and    $0x3,%ecx
    34c1:	8b 75 e8             	mov    -0x18(%ebp),%esi
    34c4:	29 ce                	sub    %ecx,%esi
    34c6:	8b 4d 10             	mov    0x10(%ebp),%ecx
    34c9:	89 75 e8             	mov    %esi,-0x18(%ebp)
    34cc:	39 4d e8             	cmp    %ecx,-0x18(%ebp)
    34cf:	0f 87 b3 01 00 00    	ja     3688 <memmove+0x2b8>
    34d5:	8b 5d e8             	mov    -0x18(%ebp),%ebx
    34d8:	4b                   	dec    %ebx
    34d9:	89 5d f0             	mov    %ebx,-0x10(%ebp)
    34dc:	8b 5d e8             	mov    -0x18(%ebp),%ebx
    34df:	85 db                	test   %ebx,%ebx
    34e1:	0f 84 f3 01 00 00    	je     36da <memmove+0x30a>
    34e7:	8d 4a 04             	lea    0x4(%edx),%ecx
    34ea:	8b 5d e8             	mov    -0x18(%ebp),%ebx
    34ed:	c1 eb 02             	shr    $0x2,%ebx
    34f0:	39 c8                	cmp    %ecx,%eax
    34f2:	0f 93 c1             	setae  %cl
    34f5:	89 ce                	mov    %ecx,%esi
    34f7:	8d 48 04             	lea    0x4(%eax),%ecx
    34fa:	39 ca                	cmp    %ecx,%edx
    34fc:	8d 3c 9d 00 00 00 00 	lea    0x0(,%ebx,4),%edi
    3503:	0f 93 c1             	setae  %cl
    3506:	09 ce                	or     %ecx,%esi
    3508:	83 7d e8 09          	cmpl   $0x9,-0x18(%ebp)
    350c:	0f 97 c1             	seta   %cl
    350f:	21 ce                	and    %ecx,%esi
    3511:	89 d1                	mov    %edx,%ecx
    3513:	09 c1                	or     %eax,%ecx
    3515:	83 e1 03             	and    $0x3,%ecx
    3518:	89 f1                	mov    %esi,%ecx
    351a:	0f 94 45 ec          	sete   -0x14(%ebp)
    351e:	84 4d ec             	test   %cl,-0x14(%ebp)
    3521:	0f 84 c1 01 00 00    	je     36e8 <memmove+0x318>
    3527:	85 ff                	test   %edi,%edi
    3529:	0f 84 b9 01 00 00    	je     36e8 <memmove+0x318>
    352f:	31 c9                	xor    %ecx,%ecx
    3531:	8d b4 26 00 00 00 00 	lea    0x0(%esi,%eiz,1),%esi
    3538:	8b 34 8a             	mov    (%edx,%ecx,4),%esi
    353b:	89 34 88             	mov    %esi,(%eax,%ecx,4)
    353e:	41                   	inc    %ecx
    353f:	39 cb                	cmp    %ecx,%ebx
    3541:	77 f5                	ja     3538 <memmove+0x168>
    3543:	8b 4d f0             	mov    -0x10(%ebp),%ecx
    3546:	8d 1c 3a             	lea    (%edx,%edi,1),%ebx
    3549:	29 f9                	sub    %edi,%ecx
    354b:	8d 34 38             	lea    (%eax,%edi,1),%esi
    354e:	89 4d f0             	mov    %ecx,-0x10(%ebp)
    3551:	39 7d e8             	cmp    %edi,-0x18(%ebp)
    3554:	74 18                	je     356e <memmove+0x19e>
    3556:	8b 7d f0             	mov    -0x10(%ebp),%edi
    3559:	31 c9                	xor    %ecx,%ecx
    355b:	47                   	inc    %edi
    355c:	89 45 f0             	mov    %eax,-0x10(%ebp)
    355f:	90                   	nop
    3560:	8a 04 0b             	mov    (%ebx,%ecx,1),%al
    3563:	88 04 0e             	mov    %al,(%esi,%ecx,1)
    3566:	41                   	inc    %ecx
    3567:	39 f9                	cmp    %edi,%ecx
    3569:	75 f5                	jne    3560 <memmove+0x190>
    356b:	8b 45 f0             	mov    -0x10(%ebp),%eax
    356e:	8b 4d e8             	mov    -0x18(%ebp),%ecx
    3571:	8b 7d e8             	mov    -0x18(%ebp),%edi
    3574:	01 c1                	add    %eax,%ecx
    3576:	01 fa                	add    %edi,%edx
    3578:	8b 5d 10             	mov    0x10(%ebp),%ebx
    357b:	2b 5d e8             	sub    -0x18(%ebp),%ebx
    357e:	0f 84 19 ff ff ff    	je     349d <memmove+0xcd>
    3584:	89 de                	mov    %ebx,%esi
    3586:	c1 ee 02             	shr    $0x2,%esi
    3589:	8d 3c b5 00 00 00 00 	lea    0x0(,%esi,4),%edi
    3590:	29 fb                	sub    %edi,%ebx
    3592:	85 f6                	test   %esi,%esi
    3594:	89 5d ec             	mov    %ebx,-0x14(%ebp)
    3597:	74 1c                	je     35b5 <memmove+0x1e5>
    3599:	31 db                	xor    %ebx,%ebx
    359b:	89 45 f0             	mov    %eax,-0x10(%ebp)
    359e:	66 90                	xchg   %ax,%ax
    35a0:	8b 04 9a             	mov    (%edx,%ebx,4),%eax
    35a3:	89 04 99             	mov    %eax,(%ecx,%ebx,4)
    35a6:	43                   	inc    %ebx
    35a7:	39 f3                	cmp    %esi,%ebx
    35a9:	75 f5                	jne    35a0 <memmove+0x1d0>
    35ab:	8b 45 f0             	mov    -0x10(%ebp),%eax
    35ae:	01 f9                	add    %edi,%ecx
    35b0:	01 fa                	add    %edi,%edx
    35b2:	8b 5d ec             	mov    -0x14(%ebp),%ebx
    35b5:	4b                   	dec    %ebx
    35b6:	8b 75 ec             	mov    -0x14(%ebp),%esi
    35b9:	89 5d e8             	mov    %ebx,-0x18(%ebp)
    35bc:	85 f6                	test   %esi,%esi
    35be:	0f 84 d9 fe ff ff    	je     349d <memmove+0xcd>
    35c4:	8d 59 04             	lea    0x4(%ecx),%ebx
    35c7:	8b 75 ec             	mov    -0x14(%ebp),%esi
    35ca:	c1 ee 02             	shr    $0x2,%esi
    35cd:	39 da                	cmp    %ebx,%edx
    35cf:	8d 5a 04             	lea    0x4(%edx),%ebx
    35d2:	0f 93 45 f0          	setae  -0x10(%ebp)
    35d6:	39 d9                	cmp    %ebx,%ecx
    35d8:	8d 3c b5 00 00 00 00 	lea    0x0(,%esi,4),%edi
    35df:	0f 93 c3             	setae  %bl
    35e2:	08 5d f0             	or     %bl,-0x10(%ebp)
    35e5:	83 7d ec 09          	cmpl   $0x9,-0x14(%ebp)
    35e9:	0f 97 c3             	seta   %bl
    35ec:	20 5d f0             	and    %bl,-0x10(%ebp)
    35ef:	89 cb                	mov    %ecx,%ebx
    35f1:	09 d3                	or     %edx,%ebx
    35f3:	83 e3 03             	and    $0x3,%ebx
    35f6:	0f 94 c3             	sete   %bl
    35f9:	84 5d f0             	test   %bl,-0x10(%ebp)
    35fc:	74 2d                	je     362b <memmove+0x25b>
    35fe:	85 ff                	test   %edi,%edi
    3600:	74 29                	je     362b <memmove+0x25b>
    3602:	31 db                	xor    %ebx,%ebx
    3604:	89 45 f0             	mov    %eax,-0x10(%ebp)
    3607:	90                   	nop
    3608:	8b 04 9a             	mov    (%edx,%ebx,4),%eax
    360b:	89 04 99             	mov    %eax,(%ecx,%ebx,4)
    360e:	43                   	inc    %ebx
    360f:	39 de                	cmp    %ebx,%esi
    3611:	77 f5                	ja     3608 <memmove+0x238>
    3613:	8b 5d e8             	mov    -0x18(%ebp),%ebx
    3616:	01 fa                	add    %edi,%edx
    3618:	29 fb                	sub    %edi,%ebx
    361a:	01 f9                	add    %edi,%ecx
    361c:	8b 45 f0             	mov    -0x10(%ebp),%eax
    361f:	89 5d e8             	mov    %ebx,-0x18(%ebp)
    3622:	39 7d ec             	cmp    %edi,-0x14(%ebp)
    3625:	0f 84 72 fe ff ff    	je     349d <memmove+0xcd>
    362b:	8b 75 e8             	mov    -0x18(%ebp),%esi
    362e:	31 db                	xor    %ebx,%ebx
    3630:	46                   	inc    %esi
    3631:	89 c7                	mov    %eax,%edi
    3633:	90                   	nop
    3634:	8d 74 26 00          	lea    0x0(%esi,%eiz,1),%esi
    3638:	8a 04 1a             	mov    (%edx,%ebx,1),%al
    363b:	88 04 19             	mov    %al,(%ecx,%ebx,1)
    363e:	43                   	inc    %ebx
    363f:	39 f3                	cmp    %esi,%ebx
    3641:	75 f5                	jne    3638 <memmove+0x268>
    3643:	89 f8                	mov    %edi,%eax
    3645:	e9 53 fe ff ff       	jmp    349d <memmove+0xcd>
    364a:	8d b6 00 00 00 00    	lea    0x0(%esi),%esi
    3650:	8b 4d 10             	mov    0x10(%ebp),%ecx
    3653:	8b 7d 10             	mov    0x10(%ebp),%edi
    3656:	49                   	dec    %ecx
    3657:	01 ca                	add    %ecx,%edx
    3659:	85 ff                	test   %edi,%edi
    365b:	8d 1c 08             	lea    (%eax,%ecx,1),%ebx
    365e:	0f 84 39 fe ff ff    	je     349d <memmove+0xcd>
    3664:	8b 75 10             	mov    0x10(%ebp),%esi
    3667:	f7 de                	neg    %esi
    3669:	01 f2                	add    %esi,%edx
    366b:	01 f3                	add    %esi,%ebx
    366d:	89 c6                	mov    %eax,%esi
    366f:	90                   	nop
    3670:	8a 44 0a 01          	mov    0x1(%edx,%ecx,1),%al
    3674:	88 44 0b 01          	mov    %al,0x1(%ebx,%ecx,1)
    3678:	49                   	dec    %ecx
    3679:	83 f9 ff             	cmp    $0xffffffff,%ecx
    367c:	75 f2                	jne    3670 <memmove+0x2a0>
    367e:	83 c4 0c             	add    $0xc,%esp
    3681:	89 f0                	mov    %esi,%eax
    3683:	5b                   	pop    %ebx
    3684:	5e                   	pop    %esi
    3685:	5f                   	pop    %edi
    3686:	5d                   	pop    %ebp
    3687:	c3                   	ret    
    3688:	89 4d e8             	mov    %ecx,-0x18(%ebp)
    368b:	e9 45 fe ff ff       	jmp    34d5 <memmove+0x105>
    3690:	8b 75 10             	mov    0x10(%ebp),%esi
    3693:	31 c9                	xor    %ecx,%ecx
    3695:	c1 ee 02             	shr    $0x2,%esi
    3698:	74 11                	je     36ab <memmove+0x2db>
    369a:	8d b6 00 00 00 00    	lea    0x0(%esi),%esi
    36a0:	8b 1c 8a             	mov    (%edx,%ecx,4),%ebx
    36a3:	89 1c 88             	mov    %ebx,(%eax,%ecx,4)
    36a6:	41                   	inc    %ecx
    36a7:	39 f1                	cmp    %esi,%ecx
    36a9:	75 f5                	jne    36a0 <memmove+0x2d0>
    36ab:	8b 75 10             	mov    0x10(%ebp),%esi
    36ae:	83 e6 03             	and    $0x3,%esi
    36b1:	0f 84 e6 fd ff ff    	je     349d <memmove+0xcd>
    36b7:	c1 e1 02             	shl    $0x2,%ecx
    36ba:	31 db                	xor    %ebx,%ebx
    36bc:	01 ca                	add    %ecx,%edx
    36be:	89 c7                	mov    %eax,%edi
    36c0:	01 c1                	add    %eax,%ecx
    36c2:	8d b6 00 00 00 00    	lea    0x0(%esi),%esi
    36c8:	8a 04 1a             	mov    (%edx,%ebx,1),%al
    36cb:	88 04 19             	mov    %al,(%ecx,%ebx,1)
    36ce:	43                   	inc    %ebx
    36cf:	39 de                	cmp    %ebx,%esi
    36d1:	77 f5                	ja     36c8 <memmove+0x2f8>
    36d3:	89 f8                	mov    %edi,%eax
    36d5:	e9 c3 fd ff ff       	jmp    349d <memmove+0xcd>
    36da:	89 c1                	mov    %eax,%ecx
    36dc:	e9 97 fe ff ff       	jmp    3578 <memmove+0x1a8>
    36e1:	89 c1                	mov    %eax,%ecx
    36e3:	e9 9a fd ff ff       	jmp    3482 <memmove+0xb2>
    36e8:	89 c6                	mov    %eax,%esi
    36ea:	89 d3                	mov    %edx,%ebx
    36ec:	e9 65 fe ff ff       	jmp    3556 <memmove+0x186>
    36f1:	eb 0d                	jmp    3700 <bcmp>
    36f3:	90                   	nop
    36f4:	90                   	nop
    36f5:	90                   	nop
    36f6:	90                   	nop
    36f7:	90                   	nop
    36f8:	90                   	nop
    36f9:	90                   	nop
    36fa:	90                   	nop
    36fb:	90                   	nop
    36fc:	90                   	nop
    36fd:	90                   	nop
    36fe:	90                   	nop
    36ff:	90                   	nop

00003700 <bcmp>:
    3700:	55                   	push   %ebp
    3701:	89 e5                	mov    %esp,%ebp
    3703:	57                   	push   %edi
    3704:	56                   	push   %esi
    3705:	53                   	push   %ebx
    3706:	8b 45 10             	mov    0x10(%ebp),%eax
    3709:	8b 7d 08             	mov    0x8(%ebp),%edi
    370c:	8b 75 0c             	mov    0xc(%ebp),%esi
    370f:	85 c0                	test   %eax,%eax
    3711:	74 1d                	je     3730 <bcmp+0x30>
    3713:	8a 0e                	mov    (%esi),%cl
    3715:	31 d2                	xor    %edx,%edx
    3717:	38 0f                	cmp    %cl,(%edi)
    3719:	74 12                	je     372d <bcmp+0x2d>
    371b:	eb 15                	jmp    3732 <bcmp+0x32>
    371d:	8d 76 00             	lea    0x0(%esi),%esi
    3720:	8a 5c 17 01          	mov    0x1(%edi,%edx,1),%bl
    3724:	8a 4c 16 01          	mov    0x1(%esi,%edx,1),%cl
    3728:	42                   	inc    %edx
    3729:	38 cb                	cmp    %cl,%bl
    372b:	75 05                	jne    3732 <bcmp+0x32>
    372d:	48                   	dec    %eax
    372e:	75 f0                	jne    3720 <bcmp+0x20>
    3730:	31 c0                	xor    %eax,%eax
    3732:	5b                   	pop    %ebx
    3733:	5e                   	pop    %esi
    3734:	5f                   	pop    %edi
    3735:	5d                   	pop    %ebp
    3736:	c3                   	ret    
    3737:	66 90                	xchg   %ax,%ax
    3739:	66 90                	xchg   %ax,%ax
    373b:	66 90                	xchg   %ax,%ax
    373d:	66 90                	xchg   %ax,%ax
    373f:	90                   	nop

00003740 <_strtoul>:
    3740:	55                   	push   %ebp
    3741:	89 e5                	mov    %esp,%ebp
    3743:	57                   	push   %edi
    3744:	56                   	push   %esi
    3745:	53                   	push   %ebx
    3746:	83 ec 08             	sub    $0x8,%esp
    3749:	89 45 f0             	mov    %eax,-0x10(%ebp)
    374c:	8a 00                	mov    (%eax),%al
    374e:	89 55 ec             	mov    %edx,-0x14(%ebp)
    3751:	0f be d0             	movsbl %al,%edx
    3754:	83 ea 09             	sub    $0x9,%edx
    3757:	8b 5d f0             	mov    -0x10(%ebp),%ebx
    375a:	83 fa 17             	cmp    $0x17,%edx
    375d:	77 23                	ja     3782 <_strtoul+0x42>
    375f:	8b 3c 95 60 12 02 00 	mov    0x21260(,%edx,4),%edi
    3766:	85 ff                	test   %edi,%edi
    3768:	0f 84 94 01 00 00    	je     3902 <_strtoul+0x1c2>
    376e:	66 90                	xchg   %ax,%ax
    3770:	43                   	inc    %ebx
    3771:	8a 03                	mov    (%ebx),%al
    3773:	0f be d0             	movsbl %al,%edx
    3776:	83 ea 09             	sub    $0x9,%edx
    3779:	83 fa 17             	cmp    $0x17,%edx
    377c:	0f 86 a6 00 00 00    	jbe    3828 <_strtoul+0xe8>
    3782:	3c 2d                	cmp    $0x2d,%al
    3784:	0f 84 1e 01 00 00    	je     38a8 <_strtoul+0x168>
    378a:	3c 2b                	cmp    $0x2b,%al
    378c:	0f 94 c0             	sete   %al
    378f:	25 ff 00 00 00       	and    $0xff,%eax
    3794:	01 c3                	add    %eax,%ebx
    3796:	85 c9                	test   %ecx,%ecx
    3798:	0f 84 a2 00 00 00    	je     3840 <_strtoul+0x100>
    379e:	83 f9 24             	cmp    $0x24,%ecx
    37a1:	0f 8f 21 01 00 00    	jg     38c8 <_strtoul+0x188>
    37a7:	83 f9 01             	cmp    $0x1,%ecx
    37aa:	0f 84 18 01 00 00    	je     38c8 <_strtoul+0x188>
    37b0:	8a 13                	mov    (%ebx),%dl
    37b2:	83 f9 10             	cmp    $0x10,%ecx
    37b5:	0f 84 16 01 00 00    	je     38d1 <_strtoul+0x191>
    37bb:	84 d2                	test   %dl,%dl
    37bd:	0f 84 2c 01 00 00    	je     38ef <_strtoul+0x1af>
    37c3:	89 de                	mov    %ebx,%esi
    37c5:	31 c0                	xor    %eax,%eax
    37c7:	eb 4a                	jmp    3813 <_strtoul+0xd3>
    37c9:	8d b4 26 00 00 00 00 	lea    0x0(%esi,%eiz,1),%esi
    37d0:	83 ea 57             	sub    $0x57,%edx
    37d3:	81 e2 ff 00 00 00    	and    $0xff,%edx
    37d9:	39 d1                	cmp    %edx,%ecx
    37db:	0f 8e 94 00 00 00    	jle    3875 <_strtoul+0x135>
    37e1:	0f b6 f8             	movzbl %al,%edi
    37e4:	0f af f9             	imul   %ecx,%edi
    37e7:	c1 e8 08             	shr    $0x8,%eax
    37ea:	01 fa                	add    %edi,%edx
    37ec:	0f af c1             	imul   %ecx,%eax
    37ef:	89 d7                	mov    %edx,%edi
    37f1:	c1 ef 08             	shr    $0x8,%edi
    37f4:	01 f8                	add    %edi,%eax
    37f6:	3d ff ff ff 00       	cmp    $0xffffff,%eax
    37fb:	0f 87 b7 00 00 00    	ja     38b8 <_strtoul+0x178>
    3801:	46                   	inc    %esi
    3802:	81 e2 ff 00 00 00    	and    $0xff,%edx
    3808:	c1 e0 08             	shl    $0x8,%eax
    380b:	01 d0                	add    %edx,%eax
    380d:	8a 16                	mov    (%esi),%dl
    380f:	84 d2                	test   %dl,%dl
    3811:	74 62                	je     3875 <_strtoul+0x135>
    3813:	80 fa 60             	cmp    $0x60,%dl
    3816:	77 b8                	ja     37d0 <_strtoul+0x90>
    3818:	80 fa 40             	cmp    $0x40,%dl
    381b:	76 53                	jbe    3870 <_strtoul+0x130>
    381d:	83 ea 37             	sub    $0x37,%edx
    3820:	eb b1                	jmp    37d3 <_strtoul+0x93>
    3822:	8d b6 00 00 00 00    	lea    0x0(%esi),%esi
    3828:	8b 34 95 60 12 02 00 	mov    0x21260(,%edx,4),%esi
    382f:	85 f6                	test   %esi,%esi
    3831:	0f 85 39 ff ff ff    	jne    3770 <_strtoul+0x30>
    3837:	e9 46 ff ff ff       	jmp    3782 <_strtoul+0x42>
    383c:	8d 74 26 00          	lea    0x0(%esi,%eiz,1),%esi
    3840:	8a 13                	mov    (%ebx),%dl
    3842:	b9 0a 00 00 00       	mov    $0xa,%ecx
    3847:	80 fa 30             	cmp    $0x30,%dl
    384a:	0f 85 6b ff ff ff    	jne    37bb <_strtoul+0x7b>
    3850:	8a 43 01             	mov    0x1(%ebx),%al
    3853:	83 e0 df             	and    $0xffffffdf,%eax
    3856:	3c 58                	cmp    $0x58,%al
    3858:	0f 85 98 00 00 00    	jne    38f6 <_strtoul+0x1b6>
    385e:	8a 53 02             	mov    0x2(%ebx),%dl
    3861:	b1 10                	mov    $0x10,%cl
    3863:	83 c3 02             	add    $0x2,%ebx
    3866:	e9 50 ff ff ff       	jmp    37bb <_strtoul+0x7b>
    386b:	90                   	nop
    386c:	8d 74 26 00          	lea    0x0(%esi,%eiz,1),%esi
    3870:	80 fa 39             	cmp    $0x39,%dl
    3873:	76 2b                	jbe    38a0 <_strtoul+0x160>
    3875:	39 f3                	cmp    %esi,%ebx
    3877:	74 76                	je     38ef <_strtoul+0x1af>
    3879:	8b 5d ec             	mov    -0x14(%ebp),%ebx
    387c:	85 db                	test   %ebx,%ebx
    387e:	74 05                	je     3885 <_strtoul+0x145>
    3880:	8b 55 ec             	mov    -0x14(%ebp),%edx
    3883:	89 32                	mov    %esi,(%edx)
    3885:	39 75 f0             	cmp    %esi,-0x10(%ebp)
    3888:	0f 95 c2             	setne  %dl
    388b:	81 e2 ff 00 00 00    	and    $0xff,%edx
    3891:	f7 da                	neg    %edx
    3893:	21 d0                	and    %edx,%eax
    3895:	5a                   	pop    %edx
    3896:	59                   	pop    %ecx
    3897:	5b                   	pop    %ebx
    3898:	5e                   	pop    %esi
    3899:	5f                   	pop    %edi
    389a:	5d                   	pop    %ebp
    389b:	c3                   	ret    
    389c:	8d 74 26 00          	lea    0x0(%esi,%eiz,1),%esi
    38a0:	83 ea 30             	sub    $0x30,%edx
    38a3:	e9 2b ff ff ff       	jmp    37d3 <_strtoul+0x93>
    38a8:	8b 45 08             	mov    0x8(%ebp),%eax
    38ab:	43                   	inc    %ebx
    38ac:	c6 00 01             	movb   $0x1,(%eax)
    38af:	e9 e2 fe ff ff       	jmp    3796 <_strtoul+0x56>
    38b4:	8d 74 26 00          	lea    0x0(%esi,%eiz,1),%esi
    38b8:	5a                   	pop    %edx
    38b9:	83 c8 ff             	or     $0xffffffff,%eax
    38bc:	59                   	pop    %ecx
    38bd:	5b                   	pop    %ebx
    38be:	5e                   	pop    %esi
    38bf:	5f                   	pop    %edi
    38c0:	5d                   	pop    %ebp
    38c1:	c3                   	ret    
    38c2:	8d b6 00 00 00 00    	lea    0x0(%esi),%esi
    38c8:	5a                   	pop    %edx
    38c9:	31 c0                	xor    %eax,%eax
    38cb:	59                   	pop    %ecx
    38cc:	5b                   	pop    %ebx
    38cd:	5e                   	pop    %esi
    38ce:	5f                   	pop    %edi
    38cf:	5d                   	pop    %ebp
    38d0:	c3                   	ret    
    38d1:	80 fa 30             	cmp    $0x30,%dl
    38d4:	0f 85 e1 fe ff ff    	jne    37bb <_strtoul+0x7b>
    38da:	8a 43 01             	mov    0x1(%ebx),%al
    38dd:	83 e0 df             	and    $0xffffffdf,%eax
    38e0:	3c 58                	cmp    $0x58,%al
    38e2:	75 17                	jne    38fb <_strtoul+0x1bb>
    38e4:	8a 53 02             	mov    0x2(%ebx),%dl
    38e7:	83 c3 02             	add    $0x2,%ebx
    38ea:	e9 cc fe ff ff       	jmp    37bb <_strtoul+0x7b>
    38ef:	8b 75 f0             	mov    -0x10(%ebp),%esi
    38f2:	31 c0                	xor    %eax,%eax
    38f4:	eb 83                	jmp    3879 <_strtoul+0x139>
    38f6:	b9 08 00 00 00       	mov    $0x8,%ecx
    38fb:	b2 30                	mov    $0x30,%dl
    38fd:	e9 c1 fe ff ff       	jmp    37c3 <_strtoul+0x83>
    3902:	8b 5d f0             	mov    -0x10(%ebp),%ebx
    3905:	e9 78 fe ff ff       	jmp    3782 <_strtoul+0x42>
    390a:	8d b6 00 00 00 00    	lea    0x0(%esi),%esi

00003910 <str_uint>:
    3910:	55                   	push   %ebp
    3911:	89 e5                	mov    %esp,%ebp
    3913:	57                   	push   %edi
    3914:	56                   	push   %esi
    3915:	53                   	push   %ebx
    3916:	83 ec 3c             	sub    $0x3c,%esp
    3919:	89 45 dc             	mov    %eax,-0x24(%ebp)
    391c:	89 55 d8             	mov    %edx,-0x28(%ebp)
    391f:	8b 75 08             	mov    0x8(%ebp),%esi
    3922:	85 d2                	test   %edx,%edx
    3924:	0f 84 5f 02 00 00    	je     3b89 <str_uint+0x279>
    392a:	85 f6                	test   %esi,%esi
    392c:	0f 84 3b 02 00 00    	je     3b6d <str_uint+0x25d>
    3932:	8b 45 0c             	mov    0xc(%ebp),%eax
    3935:	85 c0                	test   %eax,%eax
    3937:	0f 84 14 02 00 00    	je     3b51 <str_uint+0x241>
    393d:	8b 45 dc             	mov    -0x24(%ebp),%eax
    3940:	c6 06 00             	movb   $0x0,(%esi)
    3943:	8b 5d dc             	mov    -0x24(%ebp),%ebx
    3946:	8a 10                	mov    (%eax),%dl
    3948:	0f be c2             	movsbl %dl,%eax
    394b:	83 e8 09             	sub    $0x9,%eax
    394e:	83 f8 17             	cmp    $0x17,%eax
    3951:	77 27                	ja     397a <str_uint+0x6a>
    3953:	8b 04 85 60 12 02 00 	mov    0x21260(,%eax,4),%eax
    395a:	85 c0                	test   %eax,%eax
    395c:	0f 84 e7 01 00 00    	je     3b49 <str_uint+0x239>
    3962:	8d b6 00 00 00 00    	lea    0x0(%esi),%esi
    3968:	43                   	inc    %ebx
    3969:	8a 13                	mov    (%ebx),%dl
    396b:	0f be c2             	movsbl %dl,%eax
    396e:	83 e8 09             	sub    $0x9,%eax
    3971:	83 f8 17             	cmp    $0x17,%eax
    3974:	0f 86 06 01 00 00    	jbe    3a80 <str_uint+0x170>
    397a:	80 fa 2d             	cmp    $0x2d,%dl
    397d:	0f 84 4d 01 00 00    	je     3ad0 <str_uint+0x1c0>
    3983:	80 fa 2b             	cmp    $0x2b,%dl
    3986:	0f 94 c0             	sete   %al
    3989:	25 ff 00 00 00       	and    $0xff,%eax
    398e:	01 c3                	add    %eax,%ebx
    3990:	85 c9                	test   %ecx,%ecx
    3992:	0f 85 18 01 00 00    	jne    3ab0 <str_uint+0x1a0>
    3998:	b1 0a                	mov    $0xa,%cl
    399a:	80 3b 30             	cmpb   $0x30,(%ebx)
    399d:	0f 84 3d 01 00 00    	je     3ae0 <str_uint+0x1d0>
    39a3:	8b 45 0c             	mov    0xc(%ebp),%eax
    39a6:	c7 00 00 00 00 00    	movl   $0x0,(%eax)
    39ac:	c7 40 04 00 00 00 00 	movl   $0x0,0x4(%eax)
    39b3:	8a 03                	mov    (%ebx),%al
    39b5:	84 c0                	test   %al,%al
    39b7:	0f 84 37 01 00 00    	je     3af4 <str_uint+0x1e4>
    39bd:	8d 50 9f             	lea    -0x61(%eax),%edx
    39c0:	c7 45 e0 00 00 00 00 	movl   $0x0,-0x20(%ebp)
    39c7:	c7 45 e4 00 00 00 00 	movl   $0x0,-0x1c(%ebp)
    39ce:	89 5d d4             	mov    %ebx,-0x2c(%ebp)
    39d1:	80 fa 19             	cmp    $0x19,%dl
    39d4:	77 64                	ja     3a3a <str_uint+0x12a>
    39d6:	66 90                	xchg   %ax,%ax
    39d8:	0f be f0             	movsbl %al,%esi
    39db:	83 ee 57             	sub    $0x57,%esi
    39de:	39 f1                	cmp    %esi,%ecx
    39e0:	76 6e                	jbe    3a50 <str_uint+0x140>
    39e2:	8b 45 e0             	mov    -0x20(%ebp),%eax
    39e5:	8b 7d e4             	mov    -0x1c(%ebp),%edi
    39e8:	f7 e1                	mul    %ecx
    39ea:	0f af f9             	imul   %ecx,%edi
    39ed:	89 45 c8             	mov    %eax,-0x38(%ebp)
    39f0:	01 fa                	add    %edi,%edx
    39f2:	31 ff                	xor    %edi,%edi
    39f4:	03 75 c8             	add    -0x38(%ebp),%esi
    39f7:	89 55 cc             	mov    %edx,-0x34(%ebp)
    39fa:	8b 55 0c             	mov    0xc(%ebp),%edx
    39fd:	13 7d cc             	adc    -0x34(%ebp),%edi
    3a00:	89 32                	mov    %esi,(%edx)
    3a02:	89 7a 04             	mov    %edi,0x4(%edx)
    3a05:	3b 7d e4             	cmp    -0x1c(%ebp),%edi
    3a08:	77 1b                	ja     3a25 <str_uint+0x115>
    3a0a:	73 14                	jae    3a20 <str_uint+0x110>
    3a0c:	8b 45 d8             	mov    -0x28(%ebp),%eax
    3a0f:	89 18                	mov    %ebx,(%eax)
    3a11:	b8 f0 ff ff ff       	mov    $0xfffffff0,%eax
    3a16:	83 c4 3c             	add    $0x3c,%esp
    3a19:	5b                   	pop    %ebx
    3a1a:	5e                   	pop    %esi
    3a1b:	5f                   	pop    %edi
    3a1c:	5d                   	pop    %ebp
    3a1d:	c3                   	ret    
    3a1e:	66 90                	xchg   %ax,%ax
    3a20:	3b 75 e0             	cmp    -0x20(%ebp),%esi
    3a23:	72 e7                	jb     3a0c <str_uint+0xfc>
    3a25:	43                   	inc    %ebx
    3a26:	8a 03                	mov    (%ebx),%al
    3a28:	84 c0                	test   %al,%al
    3a2a:	74 24                	je     3a50 <str_uint+0x140>
    3a2c:	8d 50 9f             	lea    -0x61(%eax),%edx
    3a2f:	89 75 e0             	mov    %esi,-0x20(%ebp)
    3a32:	89 7d e4             	mov    %edi,-0x1c(%ebp)
    3a35:	80 fa 19             	cmp    $0x19,%dl
    3a38:	76 9e                	jbe    39d8 <str_uint+0xc8>
    3a3a:	8d 50 bf             	lea    -0x41(%eax),%edx
    3a3d:	80 fa 19             	cmp    $0x19,%dl
    3a40:	77 56                	ja     3a98 <str_uint+0x188>
    3a42:	0f be f0             	movsbl %al,%esi
    3a45:	83 ee 37             	sub    $0x37,%esi
    3a48:	39 f1                	cmp    %esi,%ecx
    3a4a:	77 96                	ja     39e2 <str_uint+0xd2>
    3a4c:	8d 74 26 00          	lea    0x0(%esi,%eiz,1),%esi
    3a50:	89 da                	mov    %ebx,%edx
    3a52:	8b 5d d4             	mov    -0x2c(%ebp),%ebx
    3a55:	39 d3                	cmp    %edx,%ebx
    3a57:	0f 84 97 00 00 00    	je     3af4 <str_uint+0x1e4>
    3a5d:	8b 45 d8             	mov    -0x28(%ebp),%eax
    3a60:	39 55 dc             	cmp    %edx,-0x24(%ebp)
    3a63:	89 10                	mov    %edx,(%eax)
    3a65:	0f 95 c0             	setne  %al
    3a68:	25 ff 00 00 00       	and    $0xff,%eax
    3a6d:	83 c4 3c             	add    $0x3c,%esp
    3a70:	48                   	dec    %eax
    3a71:	5b                   	pop    %ebx
    3a72:	83 e0 f2             	and    $0xfffffff2,%eax
    3a75:	5e                   	pop    %esi
    3a76:	5f                   	pop    %edi
    3a77:	5d                   	pop    %ebp
    3a78:	c3                   	ret    
    3a79:	8d b4 26 00 00 00 00 	lea    0x0(%esi,%eiz,1),%esi
    3a80:	8b 3c 85 60 12 02 00 	mov    0x21260(,%eax,4),%edi
    3a87:	85 ff                	test   %edi,%edi
    3a89:	0f 85 d9 fe ff ff    	jne    3968 <str_uint+0x58>
    3a8f:	e9 e6 fe ff ff       	jmp    397a <str_uint+0x6a>
    3a94:	8d 74 26 00          	lea    0x0(%esi,%eiz,1),%esi
    3a98:	8d 50 d0             	lea    -0x30(%eax),%edx
    3a9b:	80 fa 09             	cmp    $0x9,%dl
    3a9e:	77 b0                	ja     3a50 <str_uint+0x140>
    3aa0:	0f be f0             	movsbl %al,%esi
    3aa3:	83 ee 30             	sub    $0x30,%esi
    3aa6:	e9 33 ff ff ff       	jmp    39de <str_uint+0xce>
    3aab:	90                   	nop
    3aac:	8d 74 26 00          	lea    0x0(%esi,%eiz,1),%esi
    3ab0:	8d 41 fe             	lea    -0x2(%ecx),%eax
    3ab3:	83 f8 22             	cmp    $0x22,%eax
    3ab6:	0f 86 e7 fe ff ff    	jbe    39a3 <str_uint+0x93>
    3abc:	8b 55 d8             	mov    -0x28(%ebp),%edx
    3abf:	b8 f2 ff ff ff       	mov    $0xfffffff2,%eax
    3ac4:	89 1a                	mov    %ebx,(%edx)
    3ac6:	e9 4b ff ff ff       	jmp    3a16 <str_uint+0x106>
    3acb:	90                   	nop
    3acc:	8d 74 26 00          	lea    0x0(%esi,%eiz,1),%esi
    3ad0:	c6 06 01             	movb   $0x1,(%esi)
    3ad3:	43                   	inc    %ebx
    3ad4:	e9 b7 fe ff ff       	jmp    3990 <str_uint+0x80>
    3ad9:	8d b4 26 00 00 00 00 	lea    0x0(%esi,%eiz,1),%esi
    3ae0:	8a 43 01             	mov    0x1(%ebx),%al
    3ae3:	83 e8 42             	sub    $0x42,%eax
    3ae6:	3c 36                	cmp    $0x36,%al
    3ae8:	76 1f                	jbe    3b09 <str_uint+0x1f9>
    3aea:	b9 08 00 00 00       	mov    $0x8,%ecx
    3aef:	e9 af fe ff ff       	jmp    39a3 <str_uint+0x93>
    3af4:	8b 55 d8             	mov    -0x28(%ebp),%edx
    3af7:	8b 45 dc             	mov    -0x24(%ebp),%eax
    3afa:	89 02                	mov    %eax,(%edx)
    3afc:	83 c4 3c             	add    $0x3c,%esp
    3aff:	b8 f2 ff ff ff       	mov    $0xfffffff2,%eax
    3b04:	5b                   	pop    %ebx
    3b05:	5e                   	pop    %esi
    3b06:	5f                   	pop    %edi
    3b07:	5d                   	pop    %ebp
    3b08:	c3                   	ret    
    3b09:	25 ff 00 00 00       	and    $0xff,%eax
    3b0e:	ff 24 85 80 11 02 00 	jmp    *0x21180(,%eax,4)
    3b15:	83 c3 02             	add    $0x2,%ebx
    3b18:	b9 10 00 00 00       	mov    $0x10,%ecx
    3b1d:	e9 81 fe ff ff       	jmp    39a3 <str_uint+0x93>
    3b22:	83 c3 02             	add    $0x2,%ebx
    3b25:	b9 08 00 00 00       	mov    $0x8,%ecx
    3b2a:	e9 74 fe ff ff       	jmp    39a3 <str_uint+0x93>
    3b2f:	83 c3 02             	add    $0x2,%ebx
    3b32:	b9 0a 00 00 00       	mov    $0xa,%ecx
    3b37:	e9 67 fe ff ff       	jmp    39a3 <str_uint+0x93>
    3b3c:	83 c3 02             	add    $0x2,%ebx
    3b3f:	b9 02 00 00 00       	mov    $0x2,%ecx
    3b44:	e9 5a fe ff ff       	jmp    39a3 <str_uint+0x93>
    3b49:	8b 5d dc             	mov    -0x24(%ebp),%ebx
    3b4c:	e9 29 fe ff ff       	jmp    397a <str_uint+0x6a>
    3b51:	c7 44 24 08 82 05 00 	movl   $0x582,0x8(%esp)
    3b58:	00 
    3b59:	c7 44 24 04 08 11 02 	movl   $0x21108,0x4(%esp)
    3b60:	00 
    3b61:	c7 04 24 31 11 02 00 	movl   $0x21131,(%esp)
    3b68:	e8 53 74 01 00       	call   1afc0 <assert_abort>
    3b6d:	c7 44 24 08 81 05 00 	movl   $0x581,0x8(%esp)
    3b74:	00 
    3b75:	c7 44 24 04 08 11 02 	movl   $0x21108,0x4(%esp)
    3b7c:	00 
    3b7d:	c7 04 24 25 11 02 00 	movl   $0x21125,(%esp)
    3b84:	e8 37 74 01 00       	call   1afc0 <assert_abort>
    3b89:	c7 44 24 08 80 05 00 	movl   $0x580,0x8(%esp)
    3b90:	00 
    3b91:	c7 44 24 04 08 11 02 	movl   $0x21108,0x4(%esp)
    3b98:	00 
    3b99:	c7 04 24 16 11 02 00 	movl   $0x21116,(%esp)
    3ba0:	e8 1b 74 01 00       	call   1afc0 <assert_abort>
    3ba5:	8d 74 26 00          	lea    0x0(%esi,%eiz,1),%esi
    3ba9:	8d bc 27 00 00 00 00 	lea    0x0(%edi,%eiz,1),%edi

00003bb0 <str_decode>:
    3bb0:	55                   	push   %ebp
    3bb1:	89 e5                	mov    %esp,%ebp
    3bb3:	57                   	push   %edi
    3bb4:	56                   	push   %esi
    3bb5:	53                   	push   %ebx
    3bb6:	83 ec 0c             	sub    $0xc,%esp
    3bb9:	8b 45 0c             	mov    0xc(%ebp),%eax
    3bbc:	8b 7d 08             	mov    0x8(%ebp),%edi
    3bbf:	8b 10                	mov    (%eax),%edx
    3bc1:	31 c0                	xor    %eax,%eax
    3bc3:	8d 4a 01             	lea    0x1(%edx),%ecx
    3bc6:	3b 4d 10             	cmp    0x10(%ebp),%ecx
    3bc9:	77 0d                	ja     3bd8 <str_decode+0x28>
    3bcb:	0f be 04 17          	movsbl (%edi,%edx,1),%eax
    3bcf:	8b 5d 0c             	mov    0xc(%ebp),%ebx
    3bd2:	84 c0                	test   %al,%al
    3bd4:	89 0b                	mov    %ecx,(%ebx)
    3bd6:	78 08                	js     3be0 <str_decode+0x30>
    3bd8:	83 c4 0c             	add    $0xc,%esp
    3bdb:	5b                   	pop    %ebx
    3bdc:	5e                   	pop    %esi
    3bdd:	5f                   	pop    %edi
    3bde:	5d                   	pop    %ebp
    3bdf:	c3                   	ret    
    3be0:	be e0 ff ff ff       	mov    $0xffffffe0,%esi
    3be5:	21 c6                	and    %eax,%esi
    3be7:	89 f3                	mov    %esi,%ebx
    3be9:	80 fb c0             	cmp    $0xc0,%bl
    3bec:	74 32                	je     3c20 <str_decode+0x70>
    3bee:	be f0 ff ff ff       	mov    $0xfffffff0,%esi
    3bf3:	21 c6                	and    %eax,%esi
    3bf5:	89 f3                	mov    %esi,%ebx
    3bf7:	80 fb e0             	cmp    $0xe0,%bl
    3bfa:	0f 84 90 00 00 00    	je     3c90 <str_decode+0xe0>
    3c00:	be f8 ff ff ff       	mov    $0xfffffff8,%esi
    3c05:	21 c6                	and    %eax,%esi
    3c07:	89 f3                	mov    %esi,%ebx
    3c09:	80 fb f0             	cmp    $0xf0,%bl
    3c0c:	0f 84 87 00 00 00    	je     3c99 <str_decode+0xe9>
    3c12:	83 c4 0c             	add    $0xc,%esp
    3c15:	b8 3f 00 00 00       	mov    $0x3f,%eax
    3c1a:	5b                   	pop    %ebx
    3c1b:	5e                   	pop    %esi
    3c1c:	5f                   	pop    %edi
    3c1d:	5d                   	pop    %ebp
    3c1e:	c3                   	ret    
    3c1f:	90                   	nop
    3c20:	b3 1f                	mov    $0x1f,%bl
    3c22:	be 01 00 00 00       	mov    $0x1,%esi
    3c27:	01 f1                	add    %esi,%ecx
    3c29:	89 4d f0             	mov    %ecx,-0x10(%ebp)
    3c2c:	39 4d 10             	cmp    %ecx,0x10(%ebp)
    3c2f:	72 e1                	jb     3c12 <str_decode+0x62>
    3c31:	21 d8                	and    %ebx,%eax
    3c33:	8a 4c 17 01          	mov    0x1(%edi,%edx,1),%cl
    3c37:	8b 5d 0c             	mov    0xc(%ebp),%ebx
    3c3a:	be c0 ff ff ff       	mov    $0xffffffc0,%esi
    3c3f:	83 c2 02             	add    $0x2,%edx
    3c42:	21 ce                	and    %ecx,%esi
    3c44:	89 13                	mov    %edx,(%ebx)
    3c46:	89 f3                	mov    %esi,%ebx
    3c48:	25 ff 00 00 00       	and    $0xff,%eax
    3c4d:	80 fb 80             	cmp    $0x80,%bl
    3c50:	75 c0                	jne    3c12 <str_decode+0x62>
    3c52:	8b 5d 0c             	mov    0xc(%ebp),%ebx
    3c55:	89 5d e8             	mov    %ebx,-0x18(%ebp)
    3c58:	eb 1d                	jmp    3c77 <str_decode+0xc7>
    3c5a:	8d b6 00 00 00 00    	lea    0x0(%esi),%esi
    3c60:	8a 0c 17             	mov    (%edi,%edx,1),%cl
    3c63:	8b 5d e8             	mov    -0x18(%ebp),%ebx
    3c66:	be c0 ff ff ff       	mov    $0xffffffc0,%esi
    3c6b:	42                   	inc    %edx
    3c6c:	21 ce                	and    %ecx,%esi
    3c6e:	89 13                	mov    %edx,(%ebx)
    3c70:	89 f3                	mov    %esi,%ebx
    3c72:	80 fb 80             	cmp    $0x80,%bl
    3c75:	75 9b                	jne    3c12 <str_decode+0x62>
    3c77:	89 c6                	mov    %eax,%esi
    3c79:	89 c8                	mov    %ecx,%eax
    3c7b:	c1 e6 06             	shl    $0x6,%esi
    3c7e:	83 e0 3f             	and    $0x3f,%eax
    3c81:	09 f0                	or     %esi,%eax
    3c83:	39 55 f0             	cmp    %edx,-0x10(%ebp)
    3c86:	75 d8                	jne    3c60 <str_decode+0xb0>
    3c88:	e9 4b ff ff ff       	jmp    3bd8 <str_decode+0x28>
    3c8d:	8d 76 00             	lea    0x0(%esi),%esi
    3c90:	b3 0f                	mov    $0xf,%bl
    3c92:	be 02 00 00 00       	mov    $0x2,%esi
    3c97:	eb 8e                	jmp    3c27 <str_decode+0x77>
    3c99:	b3 07                	mov    $0x7,%bl
    3c9b:	be 03 00 00 00       	mov    $0x3,%esi
    3ca0:	eb 85                	jmp    3c27 <str_decode+0x77>
    3ca2:	8d b4 26 00 00 00 00 	lea    0x0(%esi,%eiz,1),%esi
    3ca9:	8d bc 27 00 00 00 00 	lea    0x0(%edi,%eiz,1),%edi

00003cb0 <str_decode_reverse>:
    3cb0:	55                   	push   %ebp
    3cb1:	89 e5                	mov    %esp,%ebp
    3cb3:	57                   	push   %edi
    3cb4:	56                   	push   %esi
    3cb5:	53                   	push   %ebx
    3cb6:	50                   	push   %eax
    3cb7:	31 c0                	xor    %eax,%eax
    3cb9:	8b 7d 0c             	mov    0xc(%ebp),%edi
    3cbc:	8b 1f                	mov    (%edi),%ebx
    3cbe:	85 db                	test   %ebx,%ebx
    3cc0:	0f 84 24 01 00 00    	je     3dea <str_decode_reverse+0x13a>
    3cc6:	8d 73 ff             	lea    -0x1(%ebx),%esi
    3cc9:	8b 55 08             	mov    0x8(%ebp),%edx
    3ccc:	89 37                	mov    %esi,(%edi)
    3cce:	8a 14 32             	mov    (%edx,%esi,1),%dl
    3cd1:	88 55 f1             	mov    %dl,-0xf(%ebp)
    3cd4:	84 d2                	test   %dl,%dl
    3cd6:	0f 89 c4 01 00 00    	jns    3ea0 <str_decode_reverse+0x1f0>
    3cdc:	88 d1                	mov    %dl,%cl
    3cde:	83 e1 e0             	and    $0xffffffe0,%ecx
    3ce1:	88 4d f2             	mov    %cl,-0xe(%ebp)
    3ce4:	80 f9 c0             	cmp    $0xc0,%cl
    3ce7:	0f 84 d8 01 00 00    	je     3ec5 <str_decode_reverse+0x215>
    3ced:	88 d1                	mov    %dl,%cl
    3cef:	83 e1 f0             	and    $0xfffffff0,%ecx
    3cf2:	80 f9 e0             	cmp    $0xe0,%cl
    3cf5:	0f 84 f1 01 00 00    	je     3eec <str_decode_reverse+0x23c>
    3cfb:	88 d0                	mov    %dl,%al
    3cfd:	83 e0 f8             	and    $0xfffffff8,%eax
    3d00:	3c f0                	cmp    $0xf0,%al
    3d02:	0f 84 ee 00 00 00    	je     3df6 <str_decode_reverse+0x146>
    3d08:	88 d1                	mov    %dl,%cl
    3d0a:	83 e1 c0             	and    $0xffffffc0,%ecx
    3d0d:	80 f9 80             	cmp    $0x80,%cl
    3d10:	0f 85 cf 00 00 00    	jne    3de5 <str_decode_reverse+0x135>
    3d16:	85 f6                	test   %esi,%esi
    3d18:	0f 84 c7 00 00 00    	je     3de5 <str_decode_reverse+0x135>
    3d1e:	8d 43 fe             	lea    -0x2(%ebx),%eax
    3d21:	8b 4d 08             	mov    0x8(%ebp),%ecx
    3d24:	89 07                	mov    %eax,(%edi)
    3d26:	8a 14 01             	mov    (%ecx,%eax,1),%dl
    3d29:	88 d1                	mov    %dl,%cl
    3d2b:	88 55 f1             	mov    %dl,-0xf(%ebp)
    3d2e:	83 e1 e0             	and    $0xffffffe0,%ecx
    3d31:	88 4d f2             	mov    %cl,-0xe(%ebp)
    3d34:	80 f9 c0             	cmp    $0xc0,%cl
    3d37:	0f 84 b3 00 00 00    	je     3df0 <str_decode_reverse+0x140>
    3d3d:	88 d1                	mov    %dl,%cl
    3d3f:	83 e1 f0             	and    $0xfffffff0,%ecx
    3d42:	80 f9 e0             	cmp    $0xe0,%cl
    3d45:	0f 84 65 01 00 00    	je     3eb0 <str_decode_reverse+0x200>
    3d4b:	88 d1                	mov    %dl,%cl
    3d4d:	83 e1 f8             	and    $0xfffffff8,%ecx
    3d50:	80 f9 f0             	cmp    $0xf0,%cl
    3d53:	0f 84 57 01 00 00    	je     3eb0 <str_decode_reverse+0x200>
    3d59:	83 e2 c0             	and    $0xffffffc0,%edx
    3d5c:	80 fa 80             	cmp    $0x80,%dl
    3d5f:	0f 85 80 00 00 00    	jne    3de5 <str_decode_reverse+0x135>
    3d65:	85 c0                	test   %eax,%eax
    3d67:	74 7c                	je     3de5 <str_decode_reverse+0x135>
    3d69:	8d 73 fd             	lea    -0x3(%ebx),%esi
    3d6c:	8b 4d 08             	mov    0x8(%ebp),%ecx
    3d6f:	89 37                	mov    %esi,(%edi)
    3d71:	8a 14 31             	mov    (%ecx,%esi,1),%dl
    3d74:	88 d1                	mov    %dl,%cl
    3d76:	88 55 f1             	mov    %dl,-0xf(%ebp)
    3d79:	83 e1 e0             	and    $0xffffffe0,%ecx
    3d7c:	88 4d f2             	mov    %cl,-0xe(%ebp)
    3d7f:	80 f9 c0             	cmp    $0xc0,%cl
    3d82:	0f 84 36 01 00 00    	je     3ebe <str_decode_reverse+0x20e>
    3d88:	88 d1                	mov    %dl,%cl
    3d8a:	83 e1 f0             	and    $0xfffffff0,%ecx
    3d8d:	80 f9 e0             	cmp    $0xe0,%cl
    3d90:	0f 84 21 01 00 00    	je     3eb7 <str_decode_reverse+0x207>
    3d96:	88 d1                	mov    %dl,%cl
    3d98:	83 e1 f8             	and    $0xfffffff8,%ecx
    3d9b:	80 f9 f0             	cmp    $0xf0,%cl
    3d9e:	0f 84 13 01 00 00    	je     3eb7 <str_decode_reverse+0x207>
    3da4:	83 e2 c0             	and    $0xffffffc0,%edx
    3da7:	80 fa 80             	cmp    $0x80,%dl
    3daa:	75 39                	jne    3de5 <str_decode_reverse+0x135>
    3dac:	85 f6                	test   %esi,%esi
    3dae:	74 35                	je     3de5 <str_decode_reverse+0x135>
    3db0:	83 eb 04             	sub    $0x4,%ebx
    3db3:	8b 45 08             	mov    0x8(%ebp),%eax
    3db6:	89 1f                	mov    %ebx,(%edi)
    3db8:	8a 14 18             	mov    (%eax,%ebx,1),%dl
    3dbb:	88 d1                	mov    %dl,%cl
    3dbd:	88 55 f1             	mov    %dl,-0xf(%ebp)
    3dc0:	83 e1 e0             	and    $0xffffffe0,%ecx
    3dc3:	88 4d f2             	mov    %cl,-0xe(%ebp)
    3dc6:	80 f9 c0             	cmp    $0xc0,%cl
    3dc9:	74 25                	je     3df0 <str_decode_reverse+0x140>
    3dcb:	88 d0                	mov    %dl,%al
    3dcd:	83 e0 f0             	and    $0xfffffff0,%eax
    3dd0:	3c e0                	cmp    $0xe0,%al
    3dd2:	0f 84 d8 00 00 00    	je     3eb0 <str_decode_reverse+0x200>
    3dd8:	88 d0                	mov    %dl,%al
    3dda:	83 e0 f8             	and    $0xfffffff8,%eax
    3ddd:	3c f0                	cmp    $0xf0,%al
    3ddf:	0f 84 cb 00 00 00    	je     3eb0 <str_decode_reverse+0x200>
    3de5:	b8 3f 00 00 00       	mov    $0x3f,%eax
    3dea:	5a                   	pop    %edx
    3deb:	5b                   	pop    %ebx
    3dec:	5e                   	pop    %esi
    3ded:	5f                   	pop    %edi
    3dee:	5d                   	pop    %ebp
    3def:	c3                   	ret    
    3df0:	89 f3                	mov    %esi,%ebx
    3df2:	c6 45 f2 c0          	movb   $0xc0,-0xe(%ebp)
    3df6:	31 c0                	xor    %eax,%eax
    3df8:	39 5d 10             	cmp    %ebx,0x10(%ebp)
    3dfb:	72 ed                	jb     3dea <str_decode_reverse+0x13a>
    3dfd:	84 d2                	test   %dl,%dl
    3dff:	78 69                	js     3e6a <str_decode_reverse+0x1ba>
    3e01:	bf 7f 00 00 00       	mov    $0x7f,%edi
    3e06:	31 d2                	xor    %edx,%edx
    3e08:	8d 34 1a             	lea    (%edx,%ebx,1),%esi
    3e0b:	b8 3f 00 00 00       	mov    $0x3f,%eax
    3e10:	39 75 10             	cmp    %esi,0x10(%ebp)
    3e13:	72 d5                	jb     3dea <str_decode_reverse+0x13a>
    3e15:	8a 4d f1             	mov    -0xf(%ebp),%cl
    3e18:	31 c0                	xor    %eax,%eax
    3e1a:	21 f9                	and    %edi,%ecx
    3e1c:	85 d2                	test   %edx,%edx
    3e1e:	88 c8                	mov    %cl,%al
    3e20:	74 c8                	je     3dea <str_decode_reverse+0x13a>
    3e22:	8b 4d 08             	mov    0x8(%ebp),%ecx
    3e25:	8d 73 01             	lea    0x1(%ebx),%esi
    3e28:	8a 0c 19             	mov    (%ecx,%ebx,1),%cl
    3e2b:	88 4d f3             	mov    %cl,-0xd(%ebp)
    3e2e:	83 e1 c0             	and    $0xffffffc0,%ecx
    3e31:	80 f9 80             	cmp    $0x80,%cl
    3e34:	75 af                	jne    3de5 <str_decode_reverse+0x135>
    3e36:	8b 7d 08             	mov    0x8(%ebp),%edi
    3e39:	8b 4d 08             	mov    0x8(%ebp),%ecx
    3e3c:	01 fb                	add    %edi,%ebx
    3e3e:	01 ce                	add    %ecx,%esi
    3e40:	01 da                	add    %ebx,%edx
    3e42:	8a 4d f3             	mov    -0xd(%ebp),%cl
    3e45:	eb 0e                	jmp    3e55 <str_decode_reverse+0x1a5>
    3e47:	90                   	nop
    3e48:	8a 0e                	mov    (%esi),%cl
    3e4a:	46                   	inc    %esi
    3e4b:	88 cb                	mov    %cl,%bl
    3e4d:	83 e3 c0             	and    $0xffffffc0,%ebx
    3e50:	80 fb 80             	cmp    $0x80,%bl
    3e53:	75 90                	jne    3de5 <str_decode_reverse+0x135>
    3e55:	89 c3                	mov    %eax,%ebx
    3e57:	89 c8                	mov    %ecx,%eax
    3e59:	c1 e3 06             	shl    $0x6,%ebx
    3e5c:	83 e0 3f             	and    $0x3f,%eax
    3e5f:	09 d8                	or     %ebx,%eax
    3e61:	39 d6                	cmp    %edx,%esi
    3e63:	75 e3                	jne    3e48 <str_decode_reverse+0x198>
    3e65:	e9 80 ff ff ff       	jmp    3dea <str_decode_reverse+0x13a>
    3e6a:	80 7d f2 c0          	cmpb   $0xc0,-0xe(%ebp)
    3e6e:	74 5e                	je     3ece <str_decode_reverse+0x21e>
    3e70:	8a 45 f1             	mov    -0xf(%ebp),%al
    3e73:	83 e0 f0             	and    $0xfffffff0,%eax
    3e76:	3c e0                	cmp    $0xe0,%al
    3e78:	74 63                	je     3edd <str_decode_reverse+0x22d>
    3e7a:	8a 55 f1             	mov    -0xf(%ebp),%dl
    3e7d:	b8 3f 00 00 00       	mov    $0x3f,%eax
    3e82:	83 e2 f8             	and    $0xfffffff8,%edx
    3e85:	80 fa f0             	cmp    $0xf0,%dl
    3e88:	0f 85 5c ff ff ff    	jne    3dea <str_decode_reverse+0x13a>
    3e8e:	bf 07 00 00 00       	mov    $0x7,%edi
    3e93:	ba 03 00 00 00       	mov    $0x3,%edx
    3e98:	e9 6b ff ff ff       	jmp    3e08 <str_decode_reverse+0x158>
    3e9d:	8d 76 00             	lea    0x0(%esi),%esi
    3ea0:	0f be 45 f1          	movsbl -0xf(%ebp),%eax
    3ea4:	e9 41 ff ff ff       	jmp    3dea <str_decode_reverse+0x13a>
    3ea9:	8d b4 26 00 00 00 00 	lea    0x0(%esi,%eiz,1),%esi
    3eb0:	89 f3                	mov    %esi,%ebx
    3eb2:	e9 3f ff ff ff       	jmp    3df6 <str_decode_reverse+0x146>
    3eb7:	89 c3                	mov    %eax,%ebx
    3eb9:	e9 38 ff ff ff       	jmp    3df6 <str_decode_reverse+0x146>
    3ebe:	89 c3                	mov    %eax,%ebx
    3ec0:	e9 2d ff ff ff       	jmp    3df2 <str_decode_reverse+0x142>
    3ec5:	3b 5d 10             	cmp    0x10(%ebp),%ebx
    3ec8:	0f 87 1c ff ff ff    	ja     3dea <str_decode_reverse+0x13a>
    3ece:	bf 1f 00 00 00       	mov    $0x1f,%edi
    3ed3:	ba 01 00 00 00       	mov    $0x1,%edx
    3ed8:	e9 2b ff ff ff       	jmp    3e08 <str_decode_reverse+0x158>
    3edd:	bf 0f 00 00 00       	mov    $0xf,%edi
    3ee2:	ba 02 00 00 00       	mov    $0x2,%edx
    3ee7:	e9 1c ff ff ff       	jmp    3e08 <str_decode_reverse+0x158>
    3eec:	3b 5d 10             	cmp    0x10(%ebp),%ebx
    3eef:	0f 86 7b ff ff ff    	jbe    3e70 <str_decode_reverse+0x1c0>
    3ef5:	e9 f0 fe ff ff       	jmp    3dea <str_decode_reverse+0x13a>
    3efa:	8d b6 00 00 00 00    	lea    0x0(%esi),%esi

00003f00 <chr_encode>:
    3f00:	55                   	push   %ebp
    3f01:	89 e5                	mov    %esp,%ebp
    3f03:	57                   	push   %edi
    3f04:	56                   	push   %esi
    3f05:	53                   	push   %ebx
    3f06:	83 ec 24             	sub    $0x24,%esp
    3f09:	8b 7d 10             	mov    0x10(%ebp),%edi
    3f0c:	8b 1f                	mov    (%edi),%ebx
    3f0e:	3b 5d 14             	cmp    0x14(%ebp),%ebx
    3f11:	0f 83 c5 00 00 00    	jae    3fdc <chr_encode+0xdc>
    3f17:	8b 4d 08             	mov    0x8(%ebp),%ecx
    3f1a:	b8 f2 ff ff ff       	mov    $0xfffffff2,%eax
    3f1f:	81 f9 ff ff 10 00    	cmp    $0x10ffff,%ecx
    3f25:	77 34                	ja     3f5b <chr_encode+0x5b>
    3f27:	f7 c1 80 ff ff ff    	test   $0xffffff80,%ecx
    3f2d:	75 39                	jne    3f68 <chr_encode+0x68>
    3f2f:	c6 45 d0 00          	movb   $0x0,-0x30(%ebp)
    3f33:	c6 45 e0 7f          	movb   $0x7f,-0x20(%ebp)
    3f37:	c7 45 f0 00 00 00 00 	movl   $0x0,-0x10(%ebp)
    3f3e:	8b 45 e0             	mov    -0x20(%ebp),%eax
    3f41:	8b 55 0c             	mov    0xc(%ebp),%edx
    3f44:	21 c1                	and    %eax,%ecx
    3f46:	8b 45 d0             	mov    -0x30(%ebp),%eax
    3f49:	09 c1                	or     %eax,%ecx
    3f4b:	88 0c 1a             	mov    %cl,(%edx,%ebx,1)
    3f4e:	8b 55 f0             	mov    -0x10(%ebp),%edx
    3f51:	8b 07                	mov    (%edi),%eax
    3f53:	8d 44 02 01          	lea    0x1(%edx,%eax,1),%eax
    3f57:	89 07                	mov    %eax,(%edi)
    3f59:	31 c0                	xor    %eax,%eax
    3f5b:	83 c4 24             	add    $0x24,%esp
    3f5e:	5b                   	pop    %ebx
    3f5f:	5e                   	pop    %esi
    3f60:	5f                   	pop    %edi
    3f61:	5d                   	pop    %ebp
    3f62:	c3                   	ret    
    3f63:	90                   	nop
    3f64:	8d 74 26 00          	lea    0x0(%esi,%eiz,1),%esi
    3f68:	f7 c1 00 f8 ff ff    	test   $0xfffff800,%ecx
    3f6e:	74 58                	je     3fc8 <chr_encode+0xc8>
    3f70:	89 c8                	mov    %ecx,%eax
    3f72:	25 00 00 ff ff       	and    $0xffff0000,%eax
    3f77:	83 f8 01             	cmp    $0x1,%eax
    3f7a:	19 d2                	sbb    %edx,%edx
    3f7c:	83 e2 f0             	and    $0xfffffff0,%edx
    3f7f:	83 ea 10             	sub    $0x10,%edx
    3f82:	83 f8 01             	cmp    $0x1,%eax
    3f85:	88 55 d0             	mov    %dl,-0x30(%ebp)
    3f88:	19 d2                	sbb    %edx,%edx
    3f8a:	83 e2 08             	and    $0x8,%edx
    3f8d:	83 c2 07             	add    $0x7,%edx
    3f90:	83 f8 01             	cmp    $0x1,%eax
    3f93:	19 c0                	sbb    %eax,%eax
    3f95:	88 55 e0             	mov    %dl,-0x20(%ebp)
    3f98:	83 c0 03             	add    $0x3,%eax
    3f9b:	89 45 f0             	mov    %eax,-0x10(%ebp)
    3f9e:	01 d8                	add    %ebx,%eax
    3fa0:	39 45 14             	cmp    %eax,0x14(%ebp)
    3fa3:	76 37                	jbe    3fdc <chr_encode+0xdc>
    3fa5:	8b 45 f0             	mov    -0x10(%ebp),%eax
    3fa8:	89 ca                	mov    %ecx,%edx
    3faa:	8b 75 0c             	mov    0xc(%ebp),%esi
    3fad:	01 c6                	add    %eax,%esi
    3faf:	83 e2 3f             	and    $0x3f,%edx
    3fb2:	c1 e9 06             	shr    $0x6,%ecx
    3fb5:	80 ca 80             	or     $0x80,%dl
    3fb8:	88 14 1e             	mov    %dl,(%esi,%ebx,1)
    3fbb:	48                   	dec    %eax
    3fbc:	8b 1f                	mov    (%edi),%ebx
    3fbe:	75 e8                	jne    3fa8 <chr_encode+0xa8>
    3fc0:	e9 79 ff ff ff       	jmp    3f3e <chr_encode+0x3e>
    3fc5:	8d 76 00             	lea    0x0(%esi),%esi
    3fc8:	c7 45 f0 01 00 00 00 	movl   $0x1,-0x10(%ebp)
    3fcf:	c6 45 d0 c0          	movb   $0xc0,-0x30(%ebp)
    3fd3:	c6 45 e0 1f          	movb   $0x1f,-0x20(%ebp)
    3fd7:	8b 45 f0             	mov    -0x10(%ebp),%eax
    3fda:	eb c2                	jmp    3f9e <chr_encode+0x9e>
    3fdc:	b8 f0 ff ff ff       	mov    $0xfffffff0,%eax
    3fe1:	e9 75 ff ff ff       	jmp    3f5b <chr_encode+0x5b>
    3fe6:	8d 76 00             	lea    0x0(%esi),%esi
    3fe9:	8d bc 27 00 00 00 00 	lea    0x0(%edi,%eiz,1),%edi

00003ff0 <str_size>:
    3ff0:	55                   	push   %ebp
    3ff1:	31 c0                	xor    %eax,%eax
    3ff3:	89 e5                	mov    %esp,%ebp
    3ff5:	8b 55 08             	mov    0x8(%ebp),%edx
    3ff8:	80 3a 00             	cmpb   $0x0,(%edx)
    3ffb:	74 0a                	je     4007 <str_size+0x17>
    3ffd:	8d 76 00             	lea    0x0(%esi),%esi
    4000:	40                   	inc    %eax
    4001:	80 3c 02 00          	cmpb   $0x0,(%edx,%eax,1)
    4005:	75 f9                	jne    4000 <str_size+0x10>
    4007:	5d                   	pop    %ebp
    4008:	c3                   	ret    
    4009:	8d b4 26 00 00 00 00 	lea    0x0(%esi,%eiz,1),%esi

00004010 <wstr_size>:
    4010:	55                   	push   %ebp
    4011:	31 c0                	xor    %eax,%eax
    4013:	89 e5                	mov    %esp,%ebp
    4015:	8b 55 08             	mov    0x8(%ebp),%edx
    4018:	8b 0a                	mov    (%edx),%ecx
    401a:	85 c9                	test   %ecx,%ecx
    401c:	74 0d                	je     402b <wstr_size+0x1b>
    401e:	66 90                	xchg   %ax,%ax
    4020:	40                   	inc    %eax
    4021:	8b 0c 82             	mov    (%edx,%eax,4),%ecx
    4024:	85 c9                	test   %ecx,%ecx
    4026:	75 f8                	jne    4020 <wstr_size+0x10>
    4028:	c1 e0 02             	shl    $0x2,%eax
    402b:	5d                   	pop    %ebp
    402c:	c3                   	ret    
    402d:	8d 76 00             	lea    0x0(%esi),%esi

00004030 <str_lsize>:
    4030:	55                   	push   %ebp
    4031:	31 c0                	xor    %eax,%eax
    4033:	89 e5                	mov    %esp,%ebp
    4035:	57                   	push   %edi
    4036:	56                   	push   %esi
    4037:	53                   	push   %ebx
    4038:	83 ec 0c             	sub    $0xc,%esp
    403b:	8b 7d 0c             	mov    0xc(%ebp),%edi
    403e:	8b 5d 08             	mov    0x8(%ebp),%ebx
    4041:	85 ff                	test   %edi,%edi
    4043:	74 5b                	je     40a0 <str_lsize+0x70>
    4045:	c7 45 f0 00 00 00 00 	movl   $0x0,-0x10(%ebp)
    404c:	eb 17                	jmp    4065 <str_lsize+0x35>
    404e:	66 90                	xchg   %ax,%ax
    4050:	89 f8                	mov    %edi,%eax
    4052:	85 d2                	test   %edx,%edx
    4054:	74 4a                	je     40a0 <str_lsize+0x70>
    4056:	8b 75 f0             	mov    -0x10(%ebp),%esi
    4059:	8b 55 0c             	mov    0xc(%ebp),%edx
    405c:	46                   	inc    %esi
    405d:	89 75 f0             	mov    %esi,-0x10(%ebp)
    4060:	39 55 f0             	cmp    %edx,-0x10(%ebp)
    4063:	74 3b                	je     40a0 <str_lsize+0x70>
    4065:	0f be 14 03          	movsbl (%ebx,%eax,1),%edx
    4069:	8d 78 01             	lea    0x1(%eax),%edi
    406c:	84 d2                	test   %dl,%dl
    406e:	79 e0                	jns    4050 <str_lsize+0x20>
    4070:	88 d1                	mov    %dl,%cl
    4072:	83 e1 e0             	and    $0xffffffe0,%ecx
    4075:	80 f9 c0             	cmp    $0xc0,%cl
    4078:	74 2e                	je     40a8 <str_lsize+0x78>
    407a:	88 d1                	mov    %dl,%cl
    407c:	83 e1 f0             	and    $0xfffffff0,%ecx
    407f:	80 f9 e0             	cmp    $0xe0,%cl
    4082:	74 7d                	je     4101 <str_lsize+0xd1>
    4084:	88 d1                	mov    %dl,%cl
    4086:	83 e1 f8             	and    $0xfffffff8,%ecx
    4089:	80 f9 f0             	cmp    $0xf0,%cl
    408c:	74 7c                	je     410a <str_lsize+0xda>
    408e:	8b 75 f0             	mov    -0x10(%ebp),%esi
    4091:	8b 55 0c             	mov    0xc(%ebp),%edx
    4094:	46                   	inc    %esi
    4095:	89 f8                	mov    %edi,%eax
    4097:	89 75 f0             	mov    %esi,-0x10(%ebp)
    409a:	39 55 f0             	cmp    %edx,-0x10(%ebp)
    409d:	75 c6                	jne    4065 <str_lsize+0x35>
    409f:	90                   	nop
    40a0:	83 c4 0c             	add    $0xc,%esp
    40a3:	5b                   	pop    %ebx
    40a4:	5e                   	pop    %esi
    40a5:	5f                   	pop    %edi
    40a6:	5d                   	pop    %ebp
    40a7:	c3                   	ret    
    40a8:	b1 1f                	mov    $0x1f,%cl
    40aa:	be 01 00 00 00       	mov    $0x1,%esi
    40af:	21 ca                	and    %ecx,%edx
    40b1:	8a 0c 3b             	mov    (%ebx,%edi,1),%cl
    40b4:	88 4d ee             	mov    %cl,-0x12(%ebp)
    40b7:	83 e1 c0             	and    $0xffffffc0,%ecx
    40ba:	81 e2 ff 00 00 00    	and    $0xff,%edx
    40c0:	83 c0 02             	add    $0x2,%eax
    40c3:	80 f9 80             	cmp    $0x80,%cl
    40c6:	75 8e                	jne    4056 <str_lsize+0x26>
    40c8:	01 f7                	add    %esi,%edi
    40ca:	8a 4d ee             	mov    -0x12(%ebp),%cl
    40cd:	89 5d e8             	mov    %ebx,-0x18(%ebp)
    40d0:	89 d6                	mov    %edx,%esi
    40d2:	89 ca                	mov    %ecx,%edx
    40d4:	c1 e6 06             	shl    $0x6,%esi
    40d7:	83 e2 3f             	and    $0x3f,%edx
    40da:	09 f2                	or     %esi,%edx
    40dc:	8b 5d e8             	mov    -0x18(%ebp),%ebx
    40df:	39 f8                	cmp    %edi,%eax
    40e1:	0f 84 6b ff ff ff    	je     4052 <str_lsize+0x22>
    40e7:	8a 0c 03             	mov    (%ebx,%eax,1),%cl
    40ea:	be c0 ff ff ff       	mov    $0xffffffc0,%esi
    40ef:	21 ce                	and    %ecx,%esi
    40f1:	40                   	inc    %eax
    40f2:	89 f3                	mov    %esi,%ebx
    40f4:	80 fb 80             	cmp    $0x80,%bl
    40f7:	74 d7                	je     40d0 <str_lsize+0xa0>
    40f9:	8b 5d e8             	mov    -0x18(%ebp),%ebx
    40fc:	e9 55 ff ff ff       	jmp    4056 <str_lsize+0x26>
    4101:	b1 0f                	mov    $0xf,%cl
    4103:	be 02 00 00 00       	mov    $0x2,%esi
    4108:	eb a5                	jmp    40af <str_lsize+0x7f>
    410a:	b1 07                	mov    $0x7,%cl
    410c:	be 03 00 00 00       	mov    $0x3,%esi
    4111:	eb 9c                	jmp    40af <str_lsize+0x7f>
    4113:	8d b6 00 00 00 00    	lea    0x0(%esi),%esi
    4119:	8d bc 27 00 00 00 00 	lea    0x0(%edi,%eiz,1),%edi

00004120 <str_nsize>:
    4120:	55                   	push   %ebp
    4121:	31 c0                	xor    %eax,%eax
    4123:	89 e5                	mov    %esp,%ebp
    4125:	8b 55 08             	mov    0x8(%ebp),%edx
    4128:	8b 4d 0c             	mov    0xc(%ebp),%ecx
    412b:	80 3a 00             	cmpb   $0x0,(%edx)
    412e:	74 13                	je     4143 <str_nsize+0x23>
    4130:	85 c9                	test   %ecx,%ecx
    4132:	75 08                	jne    413c <str_nsize+0x1c>
    4134:	eb 0d                	jmp    4143 <str_nsize+0x23>
    4136:	66 90                	xchg   %ax,%ax
    4138:	39 c8                	cmp    %ecx,%eax
    413a:	74 07                	je     4143 <str_nsize+0x23>
    413c:	40                   	inc    %eax
    413d:	80 3c 02 00          	cmpb   $0x0,(%edx,%eax,1)
    4141:	75 f5                	jne    4138 <str_nsize+0x18>
    4143:	5d                   	pop    %ebp
    4144:	c3                   	ret    
    4145:	8d 74 26 00          	lea    0x0(%esi,%eiz,1),%esi
    4149:	8d bc 27 00 00 00 00 	lea    0x0(%edi,%eiz,1),%edi

00004150 <wstr_nsize>:
    4150:	55                   	push   %ebp
    4151:	89 e5                	mov    %esp,%ebp
    4153:	53                   	push   %ebx
    4154:	8b 5d 0c             	mov    0xc(%ebp),%ebx
    4157:	8b 4d 08             	mov    0x8(%ebp),%ecx
    415a:	83 e3 fc             	and    $0xfffffffc,%ebx
    415d:	74 26                	je     4185 <wstr_nsize+0x35>
    415f:	8b 01                	mov    (%ecx),%eax
    4161:	85 c0                	test   %eax,%eax
    4163:	74 20                	je     4185 <wstr_nsize+0x35>
    4165:	31 d2                	xor    %edx,%edx
    4167:	eb 0d                	jmp    4176 <wstr_nsize+0x26>
    4169:	8d b4 26 00 00 00 00 	lea    0x0(%esi,%eiz,1),%esi
    4170:	83 3c 91 00          	cmpl   $0x0,(%ecx,%edx,4)
    4174:	74 0c                	je     4182 <wstr_nsize+0x32>
    4176:	42                   	inc    %edx
    4177:	8d 04 95 00 00 00 00 	lea    0x0(,%edx,4),%eax
    417e:	39 c3                	cmp    %eax,%ebx
    4180:	77 ee                	ja     4170 <wstr_nsize+0x20>
    4182:	5b                   	pop    %ebx
    4183:	5d                   	pop    %ebp
    4184:	c3                   	ret    
    4185:	31 c0                	xor    %eax,%eax
    4187:	eb f9                	jmp    4182 <wstr_nsize+0x32>
    4189:	8d b4 26 00 00 00 00 	lea    0x0(%esi,%eiz,1),%esi

00004190 <wstr_lsize>:
    4190:	55                   	push   %ebp
    4191:	89 e5                	mov    %esp,%ebp
    4193:	53                   	push   %ebx
    4194:	8b 5d 0c             	mov    0xc(%ebp),%ebx
    4197:	8b 4d 08             	mov    0x8(%ebp),%ecx
    419a:	c1 e3 02             	shl    $0x2,%ebx
    419d:	74 26                	je     41c5 <wstr_lsize+0x35>
    419f:	8b 01                	mov    (%ecx),%eax
    41a1:	85 c0                	test   %eax,%eax
    41a3:	74 20                	je     41c5 <wstr_lsize+0x35>
    41a5:	31 d2                	xor    %edx,%edx
    41a7:	eb 0d                	jmp    41b6 <wstr_lsize+0x26>
    41a9:	8d b4 26 00 00 00 00 	lea    0x0(%esi,%eiz,1),%esi
    41b0:	83 3c 91 00          	cmpl   $0x0,(%ecx,%edx,4)
    41b4:	74 0c                	je     41c2 <wstr_lsize+0x32>
    41b6:	42                   	inc    %edx
    41b7:	8d 04 95 00 00 00 00 	lea    0x0(,%edx,4),%eax
    41be:	39 c3                	cmp    %eax,%ebx
    41c0:	77 ee                	ja     41b0 <wstr_lsize+0x20>
    41c2:	5b                   	pop    %ebx
    41c3:	5d                   	pop    %ebp
    41c4:	c3                   	ret    
    41c5:	31 c0                	xor    %eax,%eax
    41c7:	eb f9                	jmp    41c2 <wstr_lsize+0x32>
    41c9:	8d b4 26 00 00 00 00 	lea    0x0(%esi,%eiz,1),%esi

000041d0 <str_length>:
    41d0:	55                   	push   %ebp
    41d1:	89 e5                	mov    %esp,%ebp
    41d3:	57                   	push   %edi
    41d4:	56                   	push   %esi
    41d5:	53                   	push   %ebx
    41d6:	83 ec 0c             	sub    $0xc,%esp
    41d9:	31 ff                	xor    %edi,%edi
    41db:	8b 5d 08             	mov    0x8(%ebp),%ebx
    41de:	c7 45 f0 00 00 00 00 	movl   $0x0,-0x10(%ebp)
    41e5:	eb 0e                	jmp    41f5 <str_length+0x25>
    41e7:	90                   	nop
    41e8:	85 c0                	test   %eax,%eax
    41ea:	74 3b                	je     4227 <str_length+0x57>
    41ec:	89 d7                	mov    %edx,%edi
    41ee:	8b 55 f0             	mov    -0x10(%ebp),%edx
    41f1:	42                   	inc    %edx
    41f2:	89 55 f0             	mov    %edx,-0x10(%ebp)
    41f5:	0f be 04 3b          	movsbl (%ebx,%edi,1),%eax
    41f9:	8d 57 01             	lea    0x1(%edi),%edx
    41fc:	84 c0                	test   %al,%al
    41fe:	79 e8                	jns    41e8 <str_length+0x18>
    4200:	88 c1                	mov    %al,%cl
    4202:	83 e1 e0             	and    $0xffffffe0,%ecx
    4205:	80 f9 c0             	cmp    $0xc0,%cl
    4208:	74 28                	je     4232 <str_length+0x62>
    420a:	88 c1                	mov    %al,%cl
    420c:	83 e1 f0             	and    $0xfffffff0,%ecx
    420f:	80 f9 e0             	cmp    $0xe0,%cl
    4212:	74 7d                	je     4291 <str_length+0xc1>
    4214:	88 c1                	mov    %al,%cl
    4216:	83 e1 f8             	and    $0xfffffff8,%ecx
    4219:	80 f9 f0             	cmp    $0xf0,%cl
    421c:	75 ce                	jne    41ec <str_length+0x1c>
    421e:	b1 07                	mov    $0x7,%cl
    4220:	be 03 00 00 00       	mov    $0x3,%esi
    4225:	eb 12                	jmp    4239 <str_length+0x69>
    4227:	8b 45 f0             	mov    -0x10(%ebp),%eax
    422a:	83 c4 0c             	add    $0xc,%esp
    422d:	5b                   	pop    %ebx
    422e:	5e                   	pop    %esi
    422f:	5f                   	pop    %edi
    4230:	5d                   	pop    %ebp
    4231:	c3                   	ret    
    4232:	b1 1f                	mov    $0x1f,%cl
    4234:	be 01 00 00 00       	mov    $0x1,%esi
    4239:	21 c8                	and    %ecx,%eax
    423b:	8a 0c 13             	mov    (%ebx,%edx,1),%cl
    423e:	83 c7 02             	add    $0x2,%edi
    4241:	88 4d eb             	mov    %cl,-0x15(%ebp)
    4244:	83 e1 c0             	and    $0xffffffc0,%ecx
    4247:	25 ff 00 00 00       	and    $0xff,%eax
    424c:	89 7d ec             	mov    %edi,-0x14(%ebp)
    424f:	80 f9 80             	cmp    $0x80,%cl
    4252:	75 46                	jne    429a <str_length+0xca>
    4254:	8d 3c 32             	lea    (%edx,%esi,1),%edi
    4257:	8a 4d eb             	mov    -0x15(%ebp),%cl
    425a:	8b 55 ec             	mov    -0x14(%ebp),%edx
    425d:	89 5d ec             	mov    %ebx,-0x14(%ebp)
    4260:	89 c6                	mov    %eax,%esi
    4262:	89 c8                	mov    %ecx,%eax
    4264:	c1 e6 06             	shl    $0x6,%esi
    4267:	83 e0 3f             	and    $0x3f,%eax
    426a:	09 f0                	or     %esi,%eax
    426c:	8b 5d ec             	mov    -0x14(%ebp),%ebx
    426f:	39 fa                	cmp    %edi,%edx
    4271:	0f 84 71 ff ff ff    	je     41e8 <str_length+0x18>
    4277:	8a 0c 13             	mov    (%ebx,%edx,1),%cl
    427a:	be c0 ff ff ff       	mov    $0xffffffc0,%esi
    427f:	21 ce                	and    %ecx,%esi
    4281:	42                   	inc    %edx
    4282:	89 f3                	mov    %esi,%ebx
    4284:	80 fb 80             	cmp    $0x80,%bl
    4287:	74 d7                	je     4260 <str_length+0x90>
    4289:	8b 5d ec             	mov    -0x14(%ebp),%ebx
    428c:	e9 5b ff ff ff       	jmp    41ec <str_length+0x1c>
    4291:	b1 0f                	mov    $0xf,%cl
    4293:	be 02 00 00 00       	mov    $0x2,%esi
    4298:	eb 9f                	jmp    4239 <str_length+0x69>
    429a:	89 fa                	mov    %edi,%edx
    429c:	e9 4b ff ff ff       	jmp    41ec <str_length+0x1c>
    42a1:	eb 0d                	jmp    42b0 <wstr_length>
    42a3:	90                   	nop
    42a4:	90                   	nop
    42a5:	90                   	nop
    42a6:	90                   	nop
    42a7:	90                   	nop
    42a8:	90                   	nop
    42a9:	90                   	nop
    42aa:	90                   	nop
    42ab:	90                   	nop
    42ac:	90                   	nop
    42ad:	90                   	nop
    42ae:	90                   	nop
    42af:	90                   	nop

000042b0 <wstr_length>:
    42b0:	55                   	push   %ebp
    42b1:	31 c0                	xor    %eax,%eax
    42b3:	89 e5                	mov    %esp,%ebp
    42b5:	8b 55 08             	mov    0x8(%ebp),%edx
    42b8:	8b 0a                	mov    (%edx),%ecx
    42ba:	85 c9                	test   %ecx,%ecx
    42bc:	74 0a                	je     42c8 <wstr_length+0x18>
    42be:	66 90                	xchg   %ax,%ax
    42c0:	40                   	inc    %eax
    42c1:	8b 0c 82             	mov    (%edx,%eax,4),%ecx
    42c4:	85 c9                	test   %ecx,%ecx
    42c6:	75 f8                	jne    42c0 <wstr_length+0x10>
    42c8:	5d                   	pop    %ebp
    42c9:	c3                   	ret    
    42ca:	8d b6 00 00 00 00    	lea    0x0(%esi),%esi

000042d0 <str_nlength>:
    42d0:	55                   	push   %ebp
    42d1:	89 e5                	mov    %esp,%ebp
    42d3:	57                   	push   %edi
    42d4:	56                   	push   %esi
    42d5:	53                   	push   %ebx
    42d6:	57                   	push   %edi
    42d7:	c7 45 f0 00 00 00 00 	movl   $0x0,-0x10(%ebp)
    42de:	8b 45 0c             	mov    0xc(%ebp),%eax
    42e1:	8b 7d 08             	mov    0x8(%ebp),%edi
    42e4:	85 c0                	test   %eax,%eax
    42e6:	74 2c                	je     4314 <str_nlength+0x44>
    42e8:	bb 01 00 00 00       	mov    $0x1,%ebx
    42ed:	31 c0                	xor    %eax,%eax
    42ef:	90                   	nop
    42f0:	8a 04 07             	mov    (%edi,%eax,1),%al
    42f3:	84 c0                	test   %al,%al
    42f5:	78 79                	js     4370 <str_nlength+0xa0>
    42f7:	b2 7f                	mov    $0x7f,%dl
    42f9:	31 c9                	xor    %ecx,%ecx
    42fb:	8d 34 19             	lea    (%ecx,%ebx,1),%esi
    42fe:	39 75 0c             	cmp    %esi,0xc(%ebp)
    4301:	73 1d                	jae    4320 <str_nlength+0x50>
    4303:	89 d8                	mov    %ebx,%eax
    4305:	8b 75 f0             	mov    -0x10(%ebp),%esi
    4308:	8d 58 01             	lea    0x1(%eax),%ebx
    430b:	46                   	inc    %esi
    430c:	39 5d 0c             	cmp    %ebx,0xc(%ebp)
    430f:	89 75 f0             	mov    %esi,-0x10(%ebp)
    4312:	73 dc                	jae    42f0 <str_nlength+0x20>
    4314:	8b 45 f0             	mov    -0x10(%ebp),%eax
    4317:	5b                   	pop    %ebx
    4318:	5b                   	pop    %ebx
    4319:	5e                   	pop    %esi
    431a:	5f                   	pop    %edi
    431b:	5d                   	pop    %ebp
    431c:	c3                   	ret    
    431d:	8d 76 00             	lea    0x0(%esi),%esi
    4320:	21 c2                	and    %eax,%edx
    4322:	81 e2 ff 00 00 00    	and    $0xff,%edx
    4328:	85 c9                	test   %ecx,%ecx
    432a:	0f 84 94 00 00 00    	je     43c4 <str_nlength+0xf4>
    4330:	8a 0c 1f             	mov    (%edi,%ebx,1),%cl
    4333:	8d 43 01             	lea    0x1(%ebx),%eax
    4336:	88 cb                	mov    %cl,%bl
    4338:	83 e3 c0             	and    $0xffffffc0,%ebx
    433b:	80 fb 80             	cmp    $0x80,%bl
    433e:	74 16                	je     4356 <str_nlength+0x86>
    4340:	eb 5e                	jmp    43a0 <str_nlength+0xd0>
    4342:	8d b6 00 00 00 00    	lea    0x0(%esi),%esi
    4348:	8a 0c 07             	mov    (%edi,%eax,1),%cl
    434b:	40                   	inc    %eax
    434c:	88 cb                	mov    %cl,%bl
    434e:	83 e3 c0             	and    $0xffffffc0,%ebx
    4351:	80 fb 80             	cmp    $0x80,%bl
    4354:	75 4a                	jne    43a0 <str_nlength+0xd0>
    4356:	89 d3                	mov    %edx,%ebx
    4358:	89 ca                	mov    %ecx,%edx
    435a:	c1 e3 06             	shl    $0x6,%ebx
    435d:	83 e2 3f             	and    $0x3f,%edx
    4360:	09 da                	or     %ebx,%edx
    4362:	39 c6                	cmp    %eax,%esi
    4364:	75 e2                	jne    4348 <str_nlength+0x78>
    4366:	85 d2                	test   %edx,%edx
    4368:	75 9b                	jne    4305 <str_nlength+0x35>
    436a:	eb a8                	jmp    4314 <str_nlength+0x44>
    436c:	8d 74 26 00          	lea    0x0(%esi,%eiz,1),%esi
    4370:	88 c2                	mov    %al,%dl
    4372:	83 e2 e0             	and    $0xffffffe0,%edx
    4375:	80 fa c0             	cmp    $0xc0,%dl
    4378:	74 2e                	je     43a8 <str_nlength+0xd8>
    437a:	88 c2                	mov    %al,%dl
    437c:	83 e2 f0             	and    $0xfffffff0,%edx
    437f:	80 fa e0             	cmp    $0xe0,%dl
    4382:	74 34                	je     43b8 <str_nlength+0xe8>
    4384:	88 c2                	mov    %al,%dl
    4386:	83 e2 f8             	and    $0xfffffff8,%edx
    4389:	80 fa f0             	cmp    $0xf0,%dl
    438c:	0f 85 71 ff ff ff    	jne    4303 <str_nlength+0x33>
    4392:	b2 07                	mov    $0x7,%dl
    4394:	b9 03 00 00 00       	mov    $0x3,%ecx
    4399:	e9 5d ff ff ff       	jmp    42fb <str_nlength+0x2b>
    439e:	66 90                	xchg   %ax,%ax
    43a0:	89 c3                	mov    %eax,%ebx
    43a2:	e9 5c ff ff ff       	jmp    4303 <str_nlength+0x33>
    43a7:	90                   	nop
    43a8:	b2 1f                	mov    $0x1f,%dl
    43aa:	b9 01 00 00 00       	mov    $0x1,%ecx
    43af:	e9 47 ff ff ff       	jmp    42fb <str_nlength+0x2b>
    43b4:	8d 74 26 00          	lea    0x0(%esi,%eiz,1),%esi
    43b8:	b2 0f                	mov    $0xf,%dl
    43ba:	b9 02 00 00 00       	mov    $0x2,%ecx
    43bf:	e9 37 ff ff ff       	jmp    42fb <str_nlength+0x2b>
    43c4:	89 d8                	mov    %ebx,%eax
    43c6:	eb 9e                	jmp    4366 <str_nlength+0x96>
    43c8:	90                   	nop
    43c9:	8d b4 26 00 00 00 00 	lea    0x0(%esi,%eiz,1),%esi

000043d0 <wstr_nlength>:
    43d0:	55                   	push   %ebp
    43d1:	31 c0                	xor    %eax,%eax
    43d3:	89 e5                	mov    %esp,%ebp
    43d5:	53                   	push   %ebx
    43d6:	8b 5d 0c             	mov    0xc(%ebp),%ebx
    43d9:	8b 4d 08             	mov    0x8(%ebp),%ecx
    43dc:	83 e3 fc             	and    $0xfffffffc,%ebx
    43df:	74 22                	je     4403 <wstr_nlength+0x33>
    43e1:	8b 11                	mov    (%ecx),%edx
    43e3:	85 d2                	test   %edx,%edx
    43e5:	75 10                	jne    43f7 <wstr_nlength+0x27>
    43e7:	eb 1a                	jmp    4403 <wstr_nlength+0x33>
    43e9:	8d b4 26 00 00 00 00 	lea    0x0(%esi,%eiz,1),%esi
    43f0:	8b 14 81             	mov    (%ecx,%eax,4),%edx
    43f3:	85 d2                	test   %edx,%edx
    43f5:	74 0c                	je     4403 <wstr_nlength+0x33>
    43f7:	40                   	inc    %eax
    43f8:	8d 14 85 00 00 00 00 	lea    0x0(,%eax,4),%edx
    43ff:	39 da                	cmp    %ebx,%edx
    4401:	72 ed                	jb     43f0 <wstr_nlength+0x20>
    4403:	5b                   	pop    %ebx
    4404:	5d                   	pop    %ebp
    4405:	c3                   	ret    
    4406:	8d 76 00             	lea    0x0(%esi),%esi
    4409:	8d bc 27 00 00 00 00 	lea    0x0(%edi,%eiz,1),%edi

00004410 <chr_width>:
    4410:	55                   	push   %ebp
    4411:	b8 01 00 00 00       	mov    $0x1,%eax
    4416:	89 e5                	mov    %esp,%ebp
    4418:	5d                   	pop    %ebp
    4419:	c3                   	ret    
    441a:	8d b6 00 00 00 00    	lea    0x0(%esi),%esi

00004420 <str_width>:
    4420:	55                   	push   %ebp
    4421:	89 e5                	mov    %esp,%ebp
    4423:	57                   	push   %edi
    4424:	56                   	push   %esi
    4425:	53                   	push   %ebx
    4426:	83 ec 0c             	sub    $0xc,%esp
    4429:	31 ff                	xor    %edi,%edi
    442b:	8b 5d 08             	mov    0x8(%ebp),%ebx
    442e:	c7 45 f0 00 00 00 00 	movl   $0x0,-0x10(%ebp)
    4435:	eb 0e                	jmp    4445 <str_width+0x25>
    4437:	90                   	nop
    4438:	85 c0                	test   %eax,%eax
    443a:	74 3b                	je     4477 <str_width+0x57>
    443c:	8b 4d f0             	mov    -0x10(%ebp),%ecx
    443f:	89 d7                	mov    %edx,%edi
    4441:	41                   	inc    %ecx
    4442:	89 4d f0             	mov    %ecx,-0x10(%ebp)
    4445:	0f be 04 3b          	movsbl (%ebx,%edi,1),%eax
    4449:	8d 57 01             	lea    0x1(%edi),%edx
    444c:	84 c0                	test   %al,%al
    444e:	79 e8                	jns    4438 <str_width+0x18>
    4450:	88 c1                	mov    %al,%cl
    4452:	83 e1 e0             	and    $0xffffffe0,%ecx
    4455:	80 f9 c0             	cmp    $0xc0,%cl
    4458:	74 28                	je     4482 <str_width+0x62>
    445a:	88 c1                	mov    %al,%cl
    445c:	83 e1 f0             	and    $0xfffffff0,%ecx
    445f:	80 f9 e0             	cmp    $0xe0,%cl
    4462:	74 7d                	je     44e1 <str_width+0xc1>
    4464:	88 c1                	mov    %al,%cl
    4466:	83 e1 f8             	and    $0xfffffff8,%ecx
    4469:	80 f9 f0             	cmp    $0xf0,%cl
    446c:	75 ce                	jne    443c <str_width+0x1c>
    446e:	b1 07                	mov    $0x7,%cl
    4470:	be 03 00 00 00       	mov    $0x3,%esi
    4475:	eb 12                	jmp    4489 <str_width+0x69>
    4477:	8b 45 f0             	mov    -0x10(%ebp),%eax
    447a:	83 c4 0c             	add    $0xc,%esp
    447d:	5b                   	pop    %ebx
    447e:	5e                   	pop    %esi
    447f:	5f                   	pop    %edi
    4480:	5d                   	pop    %ebp
    4481:	c3                   	ret    
    4482:	b1 1f                	mov    $0x1f,%cl
    4484:	be 01 00 00 00       	mov    $0x1,%esi
    4489:	21 c8                	and    %ecx,%eax
    448b:	8a 0c 13             	mov    (%ebx,%edx,1),%cl
    448e:	83 c7 02             	add    $0x2,%edi
    4491:	88 4d eb             	mov    %cl,-0x15(%ebp)
    4494:	83 e1 c0             	and    $0xffffffc0,%ecx
    4497:	25 ff 00 00 00       	and    $0xff,%eax
    449c:	89 7d ec             	mov    %edi,-0x14(%ebp)
    449f:	80 f9 80             	cmp    $0x80,%cl
    44a2:	75 46                	jne    44ea <str_width+0xca>
    44a4:	8d 3c 32             	lea    (%edx,%esi,1),%edi
    44a7:	8a 4d eb             	mov    -0x15(%ebp),%cl
    44aa:	8b 55 ec             	mov    -0x14(%ebp),%edx
    44ad:	89 5d ec             	mov    %ebx,-0x14(%ebp)
    44b0:	89 c6                	mov    %eax,%esi
    44b2:	89 c8                	mov    %ecx,%eax
    44b4:	c1 e6 06             	shl    $0x6,%esi
    44b7:	83 e0 3f             	and    $0x3f,%eax
    44ba:	09 f0                	or     %esi,%eax
    44bc:	8b 5d ec             	mov    -0x14(%ebp),%ebx
    44bf:	39 fa                	cmp    %edi,%edx
    44c1:	0f 84 71 ff ff ff    	je     4438 <str_width+0x18>
    44c7:	8a 0c 13             	mov    (%ebx,%edx,1),%cl
    44ca:	be c0 ff ff ff       	mov    $0xffffffc0,%esi
    44cf:	21 ce                	and    %ecx,%esi
    44d1:	42                   	inc    %edx
    44d2:	89 f3                	mov    %esi,%ebx
    44d4:	80 fb 80             	cmp    $0x80,%bl
    44d7:	74 d7                	je     44b0 <str_width+0x90>
    44d9:	8b 5d ec             	mov    -0x14(%ebp),%ebx
    44dc:	e9 5b ff ff ff       	jmp    443c <str_width+0x1c>
    44e1:	b1 0f                	mov    $0xf,%cl
    44e3:	be 02 00 00 00       	mov    $0x2,%esi
    44e8:	eb 9f                	jmp    4489 <str_width+0x69>
    44ea:	89 fa                	mov    %edi,%edx
    44ec:	e9 4b ff ff ff       	jmp    443c <str_width+0x1c>
    44f1:	eb 0d                	jmp    4500 <ascii_check>
    44f3:	90                   	nop
    44f4:	90                   	nop
    44f5:	90                   	nop
    44f6:	90                   	nop
    44f7:	90                   	nop
    44f8:	90                   	nop
    44f9:	90                   	nop
    44fa:	90                   	nop
    44fb:	90                   	nop
    44fc:	90                   	nop
    44fd:	90                   	nop
    44fe:	90                   	nop
    44ff:	90                   	nop

00004500 <ascii_check>:
    4500:	55                   	push   %ebp
    4501:	89 e5                	mov    %esp,%ebp
    4503:	83 7d 08 7f          	cmpl   $0x7f,0x8(%ebp)
    4507:	5d                   	pop    %ebp
    4508:	0f 96 c0             	setbe  %al
    450b:	c3                   	ret    
    450c:	8d 74 26 00          	lea    0x0(%esi,%eiz,1),%esi

00004510 <chr_check>:
    4510:	55                   	push   %ebp
    4511:	89 e5                	mov    %esp,%ebp
    4513:	81 7d 08 ff ff 10 00 	cmpl   $0x10ffff,0x8(%ebp)
    451a:	5d                   	pop    %ebp
    451b:	0f 96 c0             	setbe  %al
    451e:	c3                   	ret    
    451f:	90                   	nop

00004520 <str_cmp>:
    4520:	55                   	push   %ebp
    4521:	31 c9                	xor    %ecx,%ecx
    4523:	89 e5                	mov    %esp,%ebp
    4525:	57                   	push   %edi
    4526:	56                   	push   %esi
    4527:	31 f6                	xor    %esi,%esi
    4529:	53                   	push   %ebx
    452a:	89 f7                	mov    %esi,%edi
    452c:	83 ec 0c             	sub    $0xc,%esp
    452f:	eb 39                	jmp    456a <str_cmp+0x4a>
    4531:	8d b4 26 00 00 00 00 	lea    0x0(%esi,%eiz,1),%esi
    4538:	89 f1                	mov    %esi,%ecx
    453a:	8b 45 0c             	mov    0xc(%ebp),%eax
    453d:	8d 77 01             	lea    0x1(%edi),%esi
    4540:	8a 1c 38             	mov    (%eax,%edi,1),%bl
    4543:	84 db                	test   %bl,%bl
    4545:	78 69                	js     45b0 <str_cmp+0x90>
    4547:	0f be c3             	movsbl %bl,%eax
    454a:	89 f7                	mov    %esi,%edi
    454c:	39 c2                	cmp    %eax,%edx
    454e:	0f 8c 92 00 00 00    	jl     45e6 <str_cmp+0xc6>
    4554:	0f 8f a2 01 00 00    	jg     46fc <str_cmp+0x1dc>
    455a:	85 c0                	test   %eax,%eax
    455c:	0f 84 a7 01 00 00    	je     4709 <str_cmp+0x1e9>
    4562:	85 d2                	test   %edx,%edx
    4564:	0f 84 9f 01 00 00    	je     4709 <str_cmp+0x1e9>
    456a:	8b 45 08             	mov    0x8(%ebp),%eax
    456d:	8d 71 01             	lea    0x1(%ecx),%esi
    4570:	0f be 14 08          	movsbl (%eax,%ecx,1),%edx
    4574:	84 d2                	test   %dl,%dl
    4576:	79 c0                	jns    4538 <str_cmp+0x18>
    4578:	88 d0                	mov    %dl,%al
    457a:	83 e0 e0             	and    $0xffffffe0,%eax
    457d:	3c c0                	cmp    $0xc0,%al
    457f:	74 70                	je     45f1 <str_cmp+0xd1>
    4581:	88 d0                	mov    %dl,%al
    4583:	83 e0 f0             	and    $0xfffffff0,%eax
    4586:	3c e0                	cmp    $0xe0,%al
    4588:	0f 84 52 01 00 00    	je     46e0 <str_cmp+0x1c0>
    458e:	88 d0                	mov    %dl,%al
    4590:	83 e0 f8             	and    $0xfffffff8,%eax
    4593:	3c f0                	cmp    $0xf0,%al
    4595:	0f 84 86 01 00 00    	je     4721 <str_cmp+0x201>
    459b:	8b 45 0c             	mov    0xc(%ebp),%eax
    459e:	89 f1                	mov    %esi,%ecx
    45a0:	ba 3f 00 00 00       	mov    $0x3f,%edx
    45a5:	8d 77 01             	lea    0x1(%edi),%esi
    45a8:	8a 1c 38             	mov    (%eax,%edi,1),%bl
    45ab:	84 db                	test   %bl,%bl
    45ad:	79 98                	jns    4547 <str_cmp+0x27>
    45af:	90                   	nop
    45b0:	88 d8                	mov    %bl,%al
    45b2:	83 e0 e0             	and    $0xffffffe0,%eax
    45b5:	3c c0                	cmp    $0xc0,%al
    45b7:	0f 84 a0 00 00 00    	je     465d <str_cmp+0x13d>
    45bd:	88 d8                	mov    %bl,%al
    45bf:	83 e0 f0             	and    $0xfffffff0,%eax
    45c2:	3c e0                	cmp    $0xe0,%al
    45c4:	0f 84 24 01 00 00    	je     46ee <str_cmp+0x1ce>
    45ca:	88 d8                	mov    %bl,%al
    45cc:	83 e0 f8             	and    $0xfffffff8,%eax
    45cf:	3c f0                	cmp    $0xf0,%al
    45d1:	0f 84 3c 01 00 00    	je     4713 <str_cmp+0x1f3>
    45d7:	b8 3f 00 00 00       	mov    $0x3f,%eax
    45dc:	89 f7                	mov    %esi,%edi
    45de:	39 c2                	cmp    %eax,%edx
    45e0:	0f 8d 6e ff ff ff    	jge    4554 <str_cmp+0x34>
    45e6:	83 c4 0c             	add    $0xc,%esp
    45e9:	83 c8 ff             	or     $0xffffffff,%eax
    45ec:	5b                   	pop    %ebx
    45ed:	5e                   	pop    %esi
    45ee:	5f                   	pop    %edi
    45ef:	5d                   	pop    %ebp
    45f0:	c3                   	ret    
    45f1:	b0 1f                	mov    $0x1f,%al
    45f3:	c7 45 ec 01 00 00 00 	movl   $0x1,-0x14(%ebp)
    45fa:	8b 5d 08             	mov    0x8(%ebp),%ebx
    45fd:	21 c2                	and    %eax,%edx
    45ff:	81 e2 ff 00 00 00    	and    $0xff,%edx
    4605:	83 c1 02             	add    $0x2,%ecx
    4608:	8a 04 33             	mov    (%ebx,%esi,1),%al
    460b:	88 c3                	mov    %al,%bl
    460d:	83 e3 c0             	and    $0xffffffc0,%ebx
    4610:	80 fb 80             	cmp    $0x80,%bl
    4613:	0f 85 20 01 00 00    	jne    4739 <str_cmp+0x219>
    4619:	8b 5d ec             	mov    -0x14(%ebp),%ebx
    461c:	89 7d f0             	mov    %edi,-0x10(%ebp)
    461f:	01 de                	add    %ebx,%esi
    4621:	8b 7d 08             	mov    0x8(%ebp),%edi
    4624:	eb 10                	jmp    4636 <str_cmp+0x116>
    4626:	66 90                	xchg   %ax,%ax
    4628:	8a 04 0f             	mov    (%edi,%ecx,1),%al
    462b:	41                   	inc    %ecx
    462c:	88 c3                	mov    %al,%bl
    462e:	83 e3 c0             	and    $0xffffffc0,%ebx
    4631:	80 fb 80             	cmp    $0x80,%bl
    4634:	75 1a                	jne    4650 <str_cmp+0x130>
    4636:	89 d3                	mov    %edx,%ebx
    4638:	89 c2                	mov    %eax,%edx
    463a:	c1 e3 06             	shl    $0x6,%ebx
    463d:	83 e2 3f             	and    $0x3f,%edx
    4640:	09 da                	or     %ebx,%edx
    4642:	39 f1                	cmp    %esi,%ecx
    4644:	75 e2                	jne    4628 <str_cmp+0x108>
    4646:	8b 7d f0             	mov    -0x10(%ebp),%edi
    4649:	e9 ec fe ff ff       	jmp    453a <str_cmp+0x1a>
    464e:	66 90                	xchg   %ax,%ax
    4650:	8b 7d f0             	mov    -0x10(%ebp),%edi
    4653:	ba 3f 00 00 00       	mov    $0x3f,%edx
    4658:	e9 dd fe ff ff       	jmp    453a <str_cmp+0x1a>
    465d:	b0 1f                	mov    $0x1f,%al
    465f:	c7 45 ec 01 00 00 00 	movl   $0x1,-0x14(%ebp)
    4666:	21 c3                	and    %eax,%ebx
    4668:	31 c0                	xor    %eax,%eax
    466a:	88 d8                	mov    %bl,%al
    466c:	8b 5d 0c             	mov    0xc(%ebp),%ebx
    466f:	83 c7 02             	add    $0x2,%edi
    4672:	8a 1c 33             	mov    (%ebx,%esi,1),%bl
    4675:	88 5d eb             	mov    %bl,-0x15(%ebp)
    4678:	83 e3 c0             	and    $0xffffffc0,%ebx
    467b:	80 fb 80             	cmp    $0x80,%bl
    467e:	0f 85 ab 00 00 00    	jne    472f <str_cmp+0x20f>
    4684:	8b 5d ec             	mov    -0x14(%ebp),%ebx
    4687:	89 4d f0             	mov    %ecx,-0x10(%ebp)
    468a:	01 de                	add    %ebx,%esi
    468c:	89 55 ec             	mov    %edx,-0x14(%ebp)
    468f:	89 f1                	mov    %esi,%ecx
    4691:	8a 5d eb             	mov    -0x15(%ebp),%bl
    4694:	8b 75 0c             	mov    0xc(%ebp),%esi
    4697:	eb 15                	jmp    46ae <str_cmp+0x18e>
    4699:	8d b4 26 00 00 00 00 	lea    0x0(%esi,%eiz,1),%esi
    46a0:	8a 1c 3e             	mov    (%esi,%edi,1),%bl
    46a3:	47                   	inc    %edi
    46a4:	88 da                	mov    %bl,%dl
    46a6:	83 e2 c0             	and    $0xffffffc0,%edx
    46a9:	80 fa 80             	cmp    $0x80,%dl
    46ac:	75 22                	jne    46d0 <str_cmp+0x1b0>
    46ae:	89 c2                	mov    %eax,%edx
    46b0:	89 d8                	mov    %ebx,%eax
    46b2:	c1 e2 06             	shl    $0x6,%edx
    46b5:	83 e0 3f             	and    $0x3f,%eax
    46b8:	09 d0                	or     %edx,%eax
    46ba:	39 cf                	cmp    %ecx,%edi
    46bc:	75 e2                	jne    46a0 <str_cmp+0x180>
    46be:	8b 4d f0             	mov    -0x10(%ebp),%ecx
    46c1:	8b 55 ec             	mov    -0x14(%ebp),%edx
    46c4:	e9 83 fe ff ff       	jmp    454c <str_cmp+0x2c>
    46c9:	8d b4 26 00 00 00 00 	lea    0x0(%esi,%eiz,1),%esi
    46d0:	8b 4d f0             	mov    -0x10(%ebp),%ecx
    46d3:	8b 55 ec             	mov    -0x14(%ebp),%edx
    46d6:	b8 3f 00 00 00       	mov    $0x3f,%eax
    46db:	e9 6c fe ff ff       	jmp    454c <str_cmp+0x2c>
    46e0:	b0 0f                	mov    $0xf,%al
    46e2:	c7 45 ec 02 00 00 00 	movl   $0x2,-0x14(%ebp)
    46e9:	e9 0c ff ff ff       	jmp    45fa <str_cmp+0xda>
    46ee:	b0 0f                	mov    $0xf,%al
    46f0:	c7 45 ec 02 00 00 00 	movl   $0x2,-0x14(%ebp)
    46f7:	e9 6a ff ff ff       	jmp    4666 <str_cmp+0x146>
    46fc:	83 c4 0c             	add    $0xc,%esp
    46ff:	b8 01 00 00 00       	mov    $0x1,%eax
    4704:	5b                   	pop    %ebx
    4705:	5e                   	pop    %esi
    4706:	5f                   	pop    %edi
    4707:	5d                   	pop    %ebp
    4708:	c3                   	ret    
    4709:	83 c4 0c             	add    $0xc,%esp
    470c:	31 c0                	xor    %eax,%eax
    470e:	5b                   	pop    %ebx
    470f:	5e                   	pop    %esi
    4710:	5f                   	pop    %edi
    4711:	5d                   	pop    %ebp
    4712:	c3                   	ret    
    4713:	b0 07                	mov    $0x7,%al
    4715:	c7 45 ec 03 00 00 00 	movl   $0x3,-0x14(%ebp)
    471c:	e9 45 ff ff ff       	jmp    4666 <str_cmp+0x146>
    4721:	b0 07                	mov    $0x7,%al
    4723:	c7 45 ec 03 00 00 00 	movl   $0x3,-0x14(%ebp)
    472a:	e9 cb fe ff ff       	jmp    45fa <str_cmp+0xda>
    472f:	b8 3f 00 00 00       	mov    $0x3f,%eax
    4734:	e9 13 fe ff ff       	jmp    454c <str_cmp+0x2c>
    4739:	ba 3f 00 00 00       	mov    $0x3f,%edx
    473e:	e9 f7 fd ff ff       	jmp    453a <str_cmp+0x1a>
    4743:	8d b6 00 00 00 00    	lea    0x0(%esi),%esi
    4749:	8d bc 27 00 00 00 00 	lea    0x0(%edi,%eiz,1),%edi

00004750 <str_lcmp>:
    4750:	55                   	push   %ebp
    4751:	89 e5                	mov    %esp,%ebp
    4753:	57                   	push   %edi
    4754:	56                   	push   %esi
    4755:	53                   	push   %ebx
    4756:	83 ec 10             	sub    $0x10,%esp
    4759:	8b 75 10             	mov    0x10(%ebp),%esi
    475c:	85 f6                	test   %esi,%esi
    475e:	0f 84 ed 01 00 00    	je     4951 <str_lcmp+0x201>
    4764:	31 ff                	xor    %edi,%edi
    4766:	31 f6                	xor    %esi,%esi
    4768:	c7 45 f0 00 00 00 00 	movl   $0x0,-0x10(%ebp)
    476f:	eb 4e                	jmp    47bf <str_lcmp+0x6f>
    4771:	8d b4 26 00 00 00 00 	lea    0x0(%esi,%eiz,1),%esi
    4778:	89 de                	mov    %ebx,%esi
    477a:	8b 4d 0c             	mov    0xc(%ebp),%ecx
    477d:	8d 5f 01             	lea    0x1(%edi),%ebx
    4780:	0f be 04 39          	movsbl (%ecx,%edi,1),%eax
    4784:	84 c0                	test   %al,%al
    4786:	0f 88 7c 00 00 00    	js     4808 <str_lcmp+0xb8>
    478c:	89 df                	mov    %ebx,%edi
    478e:	39 c2                	cmp    %eax,%edx
    4790:	0f 8c ab 00 00 00    	jl     4841 <str_lcmp+0xf1>
    4796:	0f 8f db 01 00 00    	jg     4977 <str_lcmp+0x227>
    479c:	85 c0                	test   %eax,%eax
    479e:	0f 84 ad 01 00 00    	je     4951 <str_lcmp+0x201>
    47a4:	85 d2                	test   %edx,%edx
    47a6:	0f 84 a5 01 00 00    	je     4951 <str_lcmp+0x201>
    47ac:	8b 5d f0             	mov    -0x10(%ebp),%ebx
    47af:	8b 45 10             	mov    0x10(%ebp),%eax
    47b2:	43                   	inc    %ebx
    47b3:	89 5d f0             	mov    %ebx,-0x10(%ebp)
    47b6:	39 45 f0             	cmp    %eax,-0x10(%ebp)
    47b9:	0f 84 92 01 00 00    	je     4951 <str_lcmp+0x201>
    47bf:	8b 45 08             	mov    0x8(%ebp),%eax
    47c2:	8d 5e 01             	lea    0x1(%esi),%ebx
    47c5:	0f be 14 30          	movsbl (%eax,%esi,1),%edx
    47c9:	84 d2                	test   %dl,%dl
    47cb:	79 ab                	jns    4778 <str_lcmp+0x28>
    47cd:	88 d0                	mov    %dl,%al
    47cf:	83 e0 e0             	and    $0xffffffe0,%eax
    47d2:	3c c0                	cmp    $0xc0,%al
    47d4:	74 76                	je     484c <str_lcmp+0xfc>
    47d6:	88 d0                	mov    %dl,%al
    47d8:	83 e0 f0             	and    $0xfffffff0,%eax
    47db:	3c e0                	cmp    $0xe0,%al
    47dd:	0f 84 60 01 00 00    	je     4943 <str_lcmp+0x1f3>
    47e3:	88 d0                	mov    %dl,%al
    47e5:	83 e0 f8             	and    $0xfffffff8,%eax
    47e8:	3c f0                	cmp    $0xf0,%al
    47ea:	0f 84 6b 01 00 00    	je     495b <str_lcmp+0x20b>
    47f0:	8b 4d 0c             	mov    0xc(%ebp),%ecx
    47f3:	89 de                	mov    %ebx,%esi
    47f5:	ba 3f 00 00 00       	mov    $0x3f,%edx
    47fa:	8d 5f 01             	lea    0x1(%edi),%ebx
    47fd:	0f be 04 39          	movsbl (%ecx,%edi,1),%eax
    4801:	84 c0                	test   %al,%al
    4803:	79 87                	jns    478c <str_lcmp+0x3c>
    4805:	8d 76 00             	lea    0x0(%esi),%esi
    4808:	88 c1                	mov    %al,%cl
    480a:	83 e1 e0             	and    $0xffffffe0,%ecx
    480d:	80 f9 c0             	cmp    $0xc0,%cl
    4810:	0f 84 a7 00 00 00    	je     48bd <str_lcmp+0x16d>
    4816:	88 c1                	mov    %al,%cl
    4818:	83 e1 f0             	and    $0xfffffff0,%ecx
    481b:	80 f9 e0             	cmp    $0xe0,%cl
    481e:	0f 84 14 01 00 00    	je     4938 <str_lcmp+0x1e8>
    4824:	88 c1                	mov    %al,%cl
    4826:	83 e1 f8             	and    $0xfffffff8,%ecx
    4829:	80 f9 f0             	cmp    $0xf0,%cl
    482c:	0f 84 37 01 00 00    	je     4969 <str_lcmp+0x219>
    4832:	b8 3f 00 00 00       	mov    $0x3f,%eax
    4837:	89 df                	mov    %ebx,%edi
    4839:	39 c2                	cmp    %eax,%edx
    483b:	0f 8d 55 ff ff ff    	jge    4796 <str_lcmp+0x46>
    4841:	83 c4 10             	add    $0x10,%esp
    4844:	83 c8 ff             	or     $0xffffffff,%eax
    4847:	5b                   	pop    %ebx
    4848:	5e                   	pop    %esi
    4849:	5f                   	pop    %edi
    484a:	5d                   	pop    %ebp
    484b:	c3                   	ret    
    484c:	b0 1f                	mov    $0x1f,%al
    484e:	c7 45 e8 01 00 00 00 	movl   $0x1,-0x18(%ebp)
    4855:	8b 4d 08             	mov    0x8(%ebp),%ecx
    4858:	21 c2                	and    %eax,%edx
    485a:	81 e2 ff 00 00 00    	and    $0xff,%edx
    4860:	83 c6 02             	add    $0x2,%esi
    4863:	8a 04 19             	mov    (%ecx,%ebx,1),%al
    4866:	88 c1                	mov    %al,%cl
    4868:	83 e1 c0             	and    $0xffffffc0,%ecx
    486b:	80 f9 80             	cmp    $0x80,%cl
    486e:	0f 85 10 01 00 00    	jne    4984 <str_lcmp+0x234>
    4874:	8b 4d e8             	mov    -0x18(%ebp),%ecx
    4877:	89 7d ec             	mov    %edi,-0x14(%ebp)
    487a:	01 cb                	add    %ecx,%ebx
    487c:	8b 7d 08             	mov    0x8(%ebp),%edi
    487f:	eb 15                	jmp    4896 <str_lcmp+0x146>
    4881:	8d b4 26 00 00 00 00 	lea    0x0(%esi,%eiz,1),%esi
    4888:	8a 04 37             	mov    (%edi,%esi,1),%al
    488b:	46                   	inc    %esi
    488c:	88 c1                	mov    %al,%cl
    488e:	83 e1 c0             	and    $0xffffffc0,%ecx
    4891:	80 f9 80             	cmp    $0x80,%cl
    4894:	75 1a                	jne    48b0 <str_lcmp+0x160>
    4896:	89 d1                	mov    %edx,%ecx
    4898:	89 c2                	mov    %eax,%edx
    489a:	c1 e1 06             	shl    $0x6,%ecx
    489d:	83 e2 3f             	and    $0x3f,%edx
    48a0:	09 ca                	or     %ecx,%edx
    48a2:	39 de                	cmp    %ebx,%esi
    48a4:	75 e2                	jne    4888 <str_lcmp+0x138>
    48a6:	8b 7d ec             	mov    -0x14(%ebp),%edi
    48a9:	e9 cc fe ff ff       	jmp    477a <str_lcmp+0x2a>
    48ae:	66 90                	xchg   %ax,%ax
    48b0:	8b 7d ec             	mov    -0x14(%ebp),%edi
    48b3:	ba 3f 00 00 00       	mov    $0x3f,%edx
    48b8:	e9 bd fe ff ff       	jmp    477a <str_lcmp+0x2a>
    48bd:	b1 1f                	mov    $0x1f,%cl
    48bf:	c7 45 e8 01 00 00 00 	movl   $0x1,-0x18(%ebp)
    48c6:	21 c8                	and    %ecx,%eax
    48c8:	8b 4d 0c             	mov    0xc(%ebp),%ecx
    48cb:	25 ff 00 00 00       	and    $0xff,%eax
    48d0:	83 c7 02             	add    $0x2,%edi
    48d3:	8a 0c 19             	mov    (%ecx,%ebx,1),%cl
    48d6:	88 4d e7             	mov    %cl,-0x19(%ebp)
    48d9:	83 e1 c0             	and    $0xffffffc0,%ecx
    48dc:	80 f9 80             	cmp    $0x80,%cl
    48df:	0f 85 a9 00 00 00    	jne    498e <str_lcmp+0x23e>
    48e5:	8b 4d e8             	mov    -0x18(%ebp),%ecx
    48e8:	89 75 ec             	mov    %esi,-0x14(%ebp)
    48eb:	01 cb                	add    %ecx,%ebx
    48ed:	89 55 e8             	mov    %edx,-0x18(%ebp)
    48f0:	8a 4d e7             	mov    -0x19(%ebp),%cl
    48f3:	8b 75 0c             	mov    0xc(%ebp),%esi
    48f6:	eb 0e                	jmp    4906 <str_lcmp+0x1b6>
    48f8:	8a 0c 3e             	mov    (%esi,%edi,1),%cl
    48fb:	47                   	inc    %edi
    48fc:	88 ca                	mov    %cl,%dl
    48fe:	83 e2 c0             	and    $0xffffffc0,%edx
    4901:	80 fa 80             	cmp    $0x80,%dl
    4904:	75 22                	jne    4928 <str_lcmp+0x1d8>
    4906:	89 c2                	mov    %eax,%edx
    4908:	89 c8                	mov    %ecx,%eax
    490a:	c1 e2 06             	shl    $0x6,%edx
    490d:	83 e0 3f             	and    $0x3f,%eax
    4910:	09 d0                	or     %edx,%eax
    4912:	39 df                	cmp    %ebx,%edi
    4914:	75 e2                	jne    48f8 <str_lcmp+0x1a8>
    4916:	8b 75 ec             	mov    -0x14(%ebp),%esi
    4919:	8b 55 e8             	mov    -0x18(%ebp),%edx
    491c:	e9 6d fe ff ff       	jmp    478e <str_lcmp+0x3e>
    4921:	8d b4 26 00 00 00 00 	lea    0x0(%esi,%eiz,1),%esi
    4928:	8b 75 ec             	mov    -0x14(%ebp),%esi
    492b:	8b 55 e8             	mov    -0x18(%ebp),%edx
    492e:	b8 3f 00 00 00       	mov    $0x3f,%eax
    4933:	e9 56 fe ff ff       	jmp    478e <str_lcmp+0x3e>
    4938:	b1 0f                	mov    $0xf,%cl
    493a:	c7 45 e8 02 00 00 00 	movl   $0x2,-0x18(%ebp)
    4941:	eb 83                	jmp    48c6 <str_lcmp+0x176>
    4943:	b0 0f                	mov    $0xf,%al
    4945:	c7 45 e8 02 00 00 00 	movl   $0x2,-0x18(%ebp)
    494c:	e9 04 ff ff ff       	jmp    4855 <str_lcmp+0x105>
    4951:	83 c4 10             	add    $0x10,%esp
    4954:	31 c0                	xor    %eax,%eax
    4956:	5b                   	pop    %ebx
    4957:	5e                   	pop    %esi
    4958:	5f                   	pop    %edi
    4959:	5d                   	pop    %ebp
    495a:	c3                   	ret    
    495b:	b0 07                	mov    $0x7,%al
    495d:	c7 45 e8 03 00 00 00 	movl   $0x3,-0x18(%ebp)
    4964:	e9 ec fe ff ff       	jmp    4855 <str_lcmp+0x105>
    4969:	b1 07                	mov    $0x7,%cl
    496b:	c7 45 e8 03 00 00 00 	movl   $0x3,-0x18(%ebp)
    4972:	e9 4f ff ff ff       	jmp    48c6 <str_lcmp+0x176>
    4977:	83 c4 10             	add    $0x10,%esp
    497a:	b8 01 00 00 00       	mov    $0x1,%eax
    497f:	5b                   	pop    %ebx
    4980:	5e                   	pop    %esi
    4981:	5f                   	pop    %edi
    4982:	5d                   	pop    %ebp
    4983:	c3                   	ret    
    4984:	ba 3f 00 00 00       	mov    $0x3f,%edx
    4989:	e9 ec fd ff ff       	jmp    477a <str_lcmp+0x2a>
    498e:	b8 3f 00 00 00       	mov    $0x3f,%eax
    4993:	e9 f6 fd ff ff       	jmp    478e <str_lcmp+0x3e>
    4998:	90                   	nop
    4999:	8d b4 26 00 00 00 00 	lea    0x0(%esi,%eiz,1),%esi

000049a0 <str_test_prefix>:
    49a0:	55                   	push   %ebp
    49a1:	31 c9                	xor    %ecx,%ecx
    49a3:	89 e5                	mov    %esp,%ebp
    49a5:	57                   	push   %edi
    49a6:	56                   	push   %esi
    49a7:	31 f6                	xor    %esi,%esi
    49a9:	53                   	push   %ebx
    49aa:	89 f7                	mov    %esi,%edi
    49ac:	83 ec 0c             	sub    $0xc,%esp
    49af:	eb 27                	jmp    49d8 <str_test_prefix+0x38>
    49b1:	8d b4 26 00 00 00 00 	lea    0x0(%esi,%eiz,1),%esi
    49b8:	89 f1                	mov    %esi,%ecx
    49ba:	8b 45 0c             	mov    0xc(%ebp),%eax
    49bd:	8d 77 01             	lea    0x1(%edi),%esi
    49c0:	8a 1c 38             	mov    (%eax,%edi,1),%bl
    49c3:	84 db                	test   %bl,%bl
    49c5:	78 59                	js     4a20 <str_test_prefix+0x80>
    49c7:	0f be c3             	movsbl %bl,%eax
    49ca:	89 f7                	mov    %esi,%edi
    49cc:	85 c0                	test   %eax,%eax
    49ce:	0f 84 68 01 00 00    	je     4b3c <str_test_prefix+0x19c>
    49d4:	39 c2                	cmp    %eax,%edx
    49d6:	75 7a                	jne    4a52 <str_test_prefix+0xb2>
    49d8:	8b 45 08             	mov    0x8(%ebp),%eax
    49db:	8d 71 01             	lea    0x1(%ecx),%esi
    49de:	0f be 14 08          	movsbl (%eax,%ecx,1),%edx
    49e2:	84 d2                	test   %dl,%dl
    49e4:	79 d2                	jns    49b8 <str_test_prefix+0x18>
    49e6:	88 d0                	mov    %dl,%al
    49e8:	83 e0 e0             	and    $0xffffffe0,%eax
    49eb:	3c c0                	cmp    $0xc0,%al
    49ed:	74 6d                	je     4a5c <str_test_prefix+0xbc>
    49ef:	88 d0                	mov    %dl,%al
    49f1:	83 e0 f0             	and    $0xfffffff0,%eax
    49f4:	3c e0                	cmp    $0xe0,%al
    49f6:	0f 84 57 01 00 00    	je     4b53 <str_test_prefix+0x1b3>
    49fc:	88 d0                	mov    %dl,%al
    49fe:	83 e0 f8             	and    $0xfffffff8,%eax
    4a01:	3c f0                	cmp    $0xf0,%al
    4a03:	0f 84 66 01 00 00    	je     4b6f <str_test_prefix+0x1cf>
    4a09:	8b 45 0c             	mov    0xc(%ebp),%eax
    4a0c:	89 f1                	mov    %esi,%ecx
    4a0e:	ba 3f 00 00 00       	mov    $0x3f,%edx
    4a13:	8d 77 01             	lea    0x1(%edi),%esi
    4a16:	8a 1c 38             	mov    (%eax,%edi,1),%bl
    4a19:	84 db                	test   %bl,%bl
    4a1b:	79 aa                	jns    49c7 <str_test_prefix+0x27>
    4a1d:	8d 76 00             	lea    0x0(%esi),%esi
    4a20:	88 d8                	mov    %bl,%al
    4a22:	83 e0 e0             	and    $0xffffffe0,%eax
    4a25:	3c c0                	cmp    $0xc0,%al
    4a27:	0f 84 a0 00 00 00    	je     4acd <str_test_prefix+0x12d>
    4a2d:	88 d8                	mov    %bl,%al
    4a2f:	83 e0 f0             	and    $0xfffffff0,%eax
    4a32:	3c e0                	cmp    $0xe0,%al
    4a34:	0f 84 27 01 00 00    	je     4b61 <str_test_prefix+0x1c1>
    4a3a:	88 d8                	mov    %bl,%al
    4a3c:	83 e0 f8             	and    $0xfffffff8,%eax
    4a3f:	3c f0                	cmp    $0xf0,%al
    4a41:	0f 84 36 01 00 00    	je     4b7d <str_test_prefix+0x1dd>
    4a47:	89 f7                	mov    %esi,%edi
    4a49:	b8 3f 00 00 00       	mov    $0x3f,%eax
    4a4e:	39 c2                	cmp    %eax,%edx
    4a50:	74 86                	je     49d8 <str_test_prefix+0x38>
    4a52:	83 c4 0c             	add    $0xc,%esp
    4a55:	31 c0                	xor    %eax,%eax
    4a57:	5b                   	pop    %ebx
    4a58:	5e                   	pop    %esi
    4a59:	5f                   	pop    %edi
    4a5a:	5d                   	pop    %ebp
    4a5b:	c3                   	ret    
    4a5c:	b0 1f                	mov    $0x1f,%al
    4a5e:	c7 45 ec 01 00 00 00 	movl   $0x1,-0x14(%ebp)
    4a65:	8b 5d 08             	mov    0x8(%ebp),%ebx
    4a68:	21 c2                	and    %eax,%edx
    4a6a:	81 e2 ff 00 00 00    	and    $0xff,%edx
    4a70:	83 c1 02             	add    $0x2,%ecx
    4a73:	8a 04 33             	mov    (%ebx,%esi,1),%al
    4a76:	88 c3                	mov    %al,%bl
    4a78:	83 e3 c0             	and    $0xffffffc0,%ebx
    4a7b:	80 fb 80             	cmp    $0x80,%bl
    4a7e:	0f 85 07 01 00 00    	jne    4b8b <str_test_prefix+0x1eb>
    4a84:	8b 5d ec             	mov    -0x14(%ebp),%ebx
    4a87:	89 7d f0             	mov    %edi,-0x10(%ebp)
    4a8a:	01 de                	add    %ebx,%esi
    4a8c:	8b 7d 08             	mov    0x8(%ebp),%edi
    4a8f:	eb 15                	jmp    4aa6 <str_test_prefix+0x106>
    4a91:	8d b4 26 00 00 00 00 	lea    0x0(%esi,%eiz,1),%esi
    4a98:	8a 04 0f             	mov    (%edi,%ecx,1),%al
    4a9b:	41                   	inc    %ecx
    4a9c:	88 c3                	mov    %al,%bl
    4a9e:	83 e3 c0             	and    $0xffffffc0,%ebx
    4aa1:	80 fb 80             	cmp    $0x80,%bl
    4aa4:	75 1a                	jne    4ac0 <str_test_prefix+0x120>
    4aa6:	89 d3                	mov    %edx,%ebx
    4aa8:	89 c2                	mov    %eax,%edx
    4aaa:	c1 e3 06             	shl    $0x6,%ebx
    4aad:	83 e2 3f             	and    $0x3f,%edx
    4ab0:	09 da                	or     %ebx,%edx
    4ab2:	39 f1                	cmp    %esi,%ecx
    4ab4:	75 e2                	jne    4a98 <str_test_prefix+0xf8>
    4ab6:	8b 7d f0             	mov    -0x10(%ebp),%edi
    4ab9:	e9 fc fe ff ff       	jmp    49ba <str_test_prefix+0x1a>
    4abe:	66 90                	xchg   %ax,%ax
    4ac0:	8b 7d f0             	mov    -0x10(%ebp),%edi
    4ac3:	ba 3f 00 00 00       	mov    $0x3f,%edx
    4ac8:	e9 ed fe ff ff       	jmp    49ba <str_test_prefix+0x1a>
    4acd:	b0 1f                	mov    $0x1f,%al
    4acf:	c7 45 ec 01 00 00 00 	movl   $0x1,-0x14(%ebp)
    4ad6:	21 c3                	and    %eax,%ebx
    4ad8:	31 c0                	xor    %eax,%eax
    4ada:	88 d8                	mov    %bl,%al
    4adc:	8b 5d 0c             	mov    0xc(%ebp),%ebx
    4adf:	83 c7 02             	add    $0x2,%edi
    4ae2:	8a 1c 33             	mov    (%ebx,%esi,1),%bl
    4ae5:	88 5d eb             	mov    %bl,-0x15(%ebp)
    4ae8:	83 e3 c0             	and    $0xffffffc0,%ebx
    4aeb:	80 fb 80             	cmp    $0x80,%bl
    4aee:	0f 85 55 ff ff ff    	jne    4a49 <str_test_prefix+0xa9>
    4af4:	8b 5d ec             	mov    -0x14(%ebp),%ebx
    4af7:	89 4d f0             	mov    %ecx,-0x10(%ebp)
    4afa:	01 de                	add    %ebx,%esi
    4afc:	89 55 ec             	mov    %edx,-0x14(%ebp)
    4aff:	89 f1                	mov    %esi,%ecx
    4b01:	8a 5d eb             	mov    -0x15(%ebp),%bl
    4b04:	8b 75 0c             	mov    0xc(%ebp),%esi
    4b07:	eb 15                	jmp    4b1e <str_test_prefix+0x17e>
    4b09:	8d b4 26 00 00 00 00 	lea    0x0(%esi,%eiz,1),%esi
    4b10:	8a 1c 3e             	mov    (%esi,%edi,1),%bl
    4b13:	47                   	inc    %edi
    4b14:	88 da                	mov    %bl,%dl
    4b16:	83 e2 c0             	and    $0xffffffc0,%edx
    4b19:	80 fa 80             	cmp    $0x80,%dl
    4b1c:	75 2a                	jne    4b48 <str_test_prefix+0x1a8>
    4b1e:	89 c2                	mov    %eax,%edx
    4b20:	89 d8                	mov    %ebx,%eax
    4b22:	c1 e2 06             	shl    $0x6,%edx
    4b25:	83 e0 3f             	and    $0x3f,%eax
    4b28:	09 d0                	or     %edx,%eax
    4b2a:	39 cf                	cmp    %ecx,%edi
    4b2c:	75 e2                	jne    4b10 <str_test_prefix+0x170>
    4b2e:	8b 4d f0             	mov    -0x10(%ebp),%ecx
    4b31:	8b 55 ec             	mov    -0x14(%ebp),%edx
    4b34:	85 c0                	test   %eax,%eax
    4b36:	0f 85 98 fe ff ff    	jne    49d4 <str_test_prefix+0x34>
    4b3c:	83 c4 0c             	add    $0xc,%esp
    4b3f:	b0 01                	mov    $0x1,%al
    4b41:	5b                   	pop    %ebx
    4b42:	5e                   	pop    %esi
    4b43:	5f                   	pop    %edi
    4b44:	5d                   	pop    %ebp
    4b45:	c3                   	ret    
    4b46:	66 90                	xchg   %ax,%ax
    4b48:	8b 4d f0             	mov    -0x10(%ebp),%ecx
    4b4b:	8b 55 ec             	mov    -0x14(%ebp),%edx
    4b4e:	e9 f6 fe ff ff       	jmp    4a49 <str_test_prefix+0xa9>
    4b53:	b0 0f                	mov    $0xf,%al
    4b55:	c7 45 ec 02 00 00 00 	movl   $0x2,-0x14(%ebp)
    4b5c:	e9 04 ff ff ff       	jmp    4a65 <str_test_prefix+0xc5>
    4b61:	b0 0f                	mov    $0xf,%al
    4b63:	c7 45 ec 02 00 00 00 	movl   $0x2,-0x14(%ebp)
    4b6a:	e9 67 ff ff ff       	jmp    4ad6 <str_test_prefix+0x136>
    4b6f:	b0 07                	mov    $0x7,%al
    4b71:	c7 45 ec 03 00 00 00 	movl   $0x3,-0x14(%ebp)
    4b78:	e9 e8 fe ff ff       	jmp    4a65 <str_test_prefix+0xc5>
    4b7d:	b0 07                	mov    $0x7,%al
    4b7f:	c7 45 ec 03 00 00 00 	movl   $0x3,-0x14(%ebp)
    4b86:	e9 4b ff ff ff       	jmp    4ad6 <str_test_prefix+0x136>
    4b8b:	ba 3f 00 00 00       	mov    $0x3f,%edx
    4b90:	e9 25 fe ff ff       	jmp    49ba <str_test_prefix+0x1a>
    4b95:	8d 74 26 00          	lea    0x0(%esi,%eiz,1),%esi
    4b99:	8d bc 27 00 00 00 00 	lea    0x0(%edi,%eiz,1),%edi

00004ba0 <str_cpy>:
    4ba0:	55                   	push   %ebp
    4ba1:	89 e5                	mov    %esp,%ebp
    4ba3:	57                   	push   %edi
    4ba4:	56                   	push   %esi
    4ba5:	53                   	push   %ebx
    4ba6:	83 ec 4c             	sub    $0x4c,%esp
    4ba9:	8b 45 0c             	mov    0xc(%ebp),%eax
    4bac:	8b 7d 10             	mov    0x10(%ebp),%edi
    4baf:	85 c0                	test   %eax,%eax
    4bb1:	0f 84 ae 01 00 00    	je     4d65 <str_cpy+0x1c5>
    4bb7:	31 f6                	xor    %esi,%esi
    4bb9:	48                   	dec    %eax
    4bba:	c7 45 e4 00 00 00 00 	movl   $0x0,-0x1c(%ebp)
    4bc1:	89 45 e0             	mov    %eax,-0x20(%ebp)
    4bc4:	0f be 0c 37          	movsbl (%edi,%esi,1),%ecx
    4bc8:	8d 56 01             	lea    0x1(%esi),%edx
    4bcb:	84 c9                	test   %cl,%cl
    4bcd:	78 5e                	js     4c2d <str_cpy+0x8d>
    4bcf:	90                   	nop
    4bd0:	89 d6                	mov    %edx,%esi
    4bd2:	85 c9                	test   %ecx,%ecx
    4bd4:	0f 84 8e 00 00 00    	je     4c68 <str_cpy+0xc8>
    4bda:	8b 45 e4             	mov    -0x1c(%ebp),%eax
    4bdd:	39 45 e0             	cmp    %eax,-0x20(%ebp)
    4be0:	0f 86 82 00 00 00    	jbe    4c68 <str_cpy+0xc8>
    4be6:	81 f9 ff ff 10 00    	cmp    $0x10ffff,%ecx
    4bec:	77 7a                	ja     4c68 <str_cpy+0xc8>
    4bee:	f7 c1 80 ff ff ff    	test   $0xffffff80,%ecx
    4bf4:	0f 85 86 00 00 00    	jne    4c80 <str_cpy+0xe0>
    4bfa:	8b 45 e4             	mov    -0x1c(%ebp),%eax
    4bfd:	c6 45 b8 00          	movb   $0x0,-0x48(%ebp)
    4c01:	89 45 dc             	mov    %eax,-0x24(%ebp)
    4c04:	c6 45 c8 7f          	movb   $0x7f,-0x38(%ebp)
    4c08:	8b 45 c8             	mov    -0x38(%ebp),%eax
    4c0b:	8b 55 08             	mov    0x8(%ebp),%edx
    4c0e:	21 c1                	and    %eax,%ecx
    4c10:	8b 45 b8             	mov    -0x48(%ebp),%eax
    4c13:	09 c1                	or     %eax,%ecx
    4c15:	8b 45 e4             	mov    -0x1c(%ebp),%eax
    4c18:	8b 5d dc             	mov    -0x24(%ebp),%ebx
    4c1b:	88 0c 02             	mov    %cl,(%edx,%eax,1)
    4c1e:	43                   	inc    %ebx
    4c1f:	0f be 0c 37          	movsbl (%edi,%esi,1),%ecx
    4c23:	89 5d e4             	mov    %ebx,-0x1c(%ebp)
    4c26:	8d 56 01             	lea    0x1(%esi),%edx
    4c29:	84 c9                	test   %cl,%cl
    4c2b:	79 a3                	jns    4bd0 <str_cpy+0x30>
    4c2d:	88 c8                	mov    %cl,%al
    4c2f:	83 e0 e0             	and    $0xffffffe0,%eax
    4c32:	3c c0                	cmp    $0xc0,%al
    4c34:	0f 84 bd 00 00 00    	je     4cf7 <str_cpy+0x157>
    4c3a:	88 c8                	mov    %cl,%al
    4c3c:	83 e0 f0             	and    $0xfffffff0,%eax
    4c3f:	3c e0                	cmp    $0xe0,%al
    4c41:	0f 84 08 01 00 00    	je     4d4f <str_cpy+0x1af>
    4c47:	88 c8                	mov    %cl,%al
    4c49:	83 e0 f8             	and    $0xfffffff8,%eax
    4c4c:	3c f0                	cmp    $0xf0,%al
    4c4e:	0f 84 06 01 00 00    	je     4d5a <str_cpy+0x1ba>
    4c54:	89 d6                	mov    %edx,%esi
    4c56:	8b 45 e4             	mov    -0x1c(%ebp),%eax
    4c59:	b9 3f 00 00 00       	mov    $0x3f,%ecx
    4c5e:	39 45 e0             	cmp    %eax,-0x20(%ebp)
    4c61:	0f 87 7f ff ff ff    	ja     4be6 <str_cpy+0x46>
    4c67:	90                   	nop
    4c68:	8b 5d 08             	mov    0x8(%ebp),%ebx
    4c6b:	8b 55 e4             	mov    -0x1c(%ebp),%edx
    4c6e:	c6 04 13 00          	movb   $0x0,(%ebx,%edx,1)
    4c72:	83 c4 4c             	add    $0x4c,%esp
    4c75:	5b                   	pop    %ebx
    4c76:	5e                   	pop    %esi
    4c77:	5f                   	pop    %edi
    4c78:	5d                   	pop    %ebp
    4c79:	c3                   	ret    
    4c7a:	8d b6 00 00 00 00    	lea    0x0(%esi),%esi
    4c80:	f7 c1 00 f8 ff ff    	test   $0xfffff800,%ecx
    4c86:	74 60                	je     4ce8 <str_cpy+0x148>
    4c88:	89 c8                	mov    %ecx,%eax
    4c8a:	25 00 00 ff ff       	and    $0xffff0000,%eax
    4c8f:	83 f8 01             	cmp    $0x1,%eax
    4c92:	19 d2                	sbb    %edx,%edx
    4c94:	83 e2 f0             	and    $0xfffffff0,%edx
    4c97:	83 ea 10             	sub    $0x10,%edx
    4c9a:	83 f8 01             	cmp    $0x1,%eax
    4c9d:	19 db                	sbb    %ebx,%ebx
    4c9f:	88 55 b8             	mov    %dl,-0x48(%ebp)
    4ca2:	83 e3 08             	and    $0x8,%ebx
    4ca5:	83 c3 07             	add    $0x7,%ebx
    4ca8:	83 f8 01             	cmp    $0x1,%eax
    4cab:	19 c0                	sbb    %eax,%eax
    4cad:	88 5d c8             	mov    %bl,-0x38(%ebp)
    4cb0:	83 c0 03             	add    $0x3,%eax
    4cb3:	8b 55 e4             	mov    -0x1c(%ebp),%edx
    4cb6:	01 c2                	add    %eax,%edx
    4cb8:	89 55 dc             	mov    %edx,-0x24(%ebp)
    4cbb:	39 55 e0             	cmp    %edx,-0x20(%ebp)
    4cbe:	76 a8                	jbe    4c68 <str_cpy+0xc8>
    4cc0:	8b 55 08             	mov    0x8(%ebp),%edx
    4cc3:	8b 5d e4             	mov    -0x1c(%ebp),%ebx
    4cc6:	8d 1c 1a             	lea    (%edx,%ebx,1),%ebx
    4cc9:	89 5d d8             	mov    %ebx,-0x28(%ebp)
    4ccc:	8d 74 26 00          	lea    0x0(%esi,%eiz,1),%esi
    4cd0:	89 ca                	mov    %ecx,%edx
    4cd2:	c1 e9 06             	shr    $0x6,%ecx
    4cd5:	83 e2 3f             	and    $0x3f,%edx
    4cd8:	80 ca 80             	or     $0x80,%dl
    4cdb:	88 14 03             	mov    %dl,(%ebx,%eax,1)
    4cde:	48                   	dec    %eax
    4cdf:	75 ef                	jne    4cd0 <str_cpy+0x130>
    4ce1:	e9 22 ff ff ff       	jmp    4c08 <str_cpy+0x68>
    4ce6:	66 90                	xchg   %ax,%ax
    4ce8:	c6 45 b8 c0          	movb   $0xc0,-0x48(%ebp)
    4cec:	c6 45 c8 1f          	movb   $0x1f,-0x38(%ebp)
    4cf0:	b8 01 00 00 00       	mov    $0x1,%eax
    4cf5:	eb bc                	jmp    4cb3 <str_cpy+0x113>
    4cf7:	b0 1f                	mov    $0x1f,%al
    4cf9:	c7 45 dc 01 00 00 00 	movl   $0x1,-0x24(%ebp)
    4d00:	21 c1                	and    %eax,%ecx
    4d02:	8a 04 17             	mov    (%edi,%edx,1),%al
    4d05:	88 c3                	mov    %al,%bl
    4d07:	81 e1 ff 00 00 00    	and    $0xff,%ecx
    4d0d:	83 e3 c0             	and    $0xffffffc0,%ebx
    4d10:	83 c6 02             	add    $0x2,%esi
    4d13:	80 fb 80             	cmp    $0x80,%bl
    4d16:	0f 85 3a ff ff ff    	jne    4c56 <str_cpy+0xb6>
    4d1c:	8b 5d dc             	mov    -0x24(%ebp),%ebx
    4d1f:	01 da                	add    %ebx,%edx
    4d21:	eb 17                	jmp    4d3a <str_cpy+0x19a>
    4d23:	90                   	nop
    4d24:	8d 74 26 00          	lea    0x0(%esi,%eiz,1),%esi
    4d28:	8a 04 37             	mov    (%edi,%esi,1),%al
    4d2b:	46                   	inc    %esi
    4d2c:	88 c3                	mov    %al,%bl
    4d2e:	83 e3 c0             	and    $0xffffffc0,%ebx
    4d31:	80 fb 80             	cmp    $0x80,%bl
    4d34:	0f 85 1c ff ff ff    	jne    4c56 <str_cpy+0xb6>
    4d3a:	89 cb                	mov    %ecx,%ebx
    4d3c:	89 c1                	mov    %eax,%ecx
    4d3e:	c1 e3 06             	shl    $0x6,%ebx
    4d41:	83 e1 3f             	and    $0x3f,%ecx
    4d44:	09 d9                	or     %ebx,%ecx
    4d46:	39 d6                	cmp    %edx,%esi
    4d48:	75 de                	jne    4d28 <str_cpy+0x188>
    4d4a:	e9 83 fe ff ff       	jmp    4bd2 <str_cpy+0x32>
    4d4f:	b0 0f                	mov    $0xf,%al
    4d51:	c7 45 dc 02 00 00 00 	movl   $0x2,-0x24(%ebp)
    4d58:	eb a6                	jmp    4d00 <str_cpy+0x160>
    4d5a:	b0 07                	mov    $0x7,%al
    4d5c:	c7 45 dc 03 00 00 00 	movl   $0x3,-0x24(%ebp)
    4d63:	eb 9b                	jmp    4d00 <str_cpy+0x160>
    4d65:	c7 44 24 08 88 02 00 	movl   $0x288,0x8(%esp)
    4d6c:	00 
    4d6d:	c7 44 24 04 08 11 02 	movl   $0x21108,0x4(%esp)
    4d74:	00 
    4d75:	c7 04 24 66 1a 02 00 	movl   $0x21a66,(%esp)
    4d7c:	e8 3f 62 01 00       	call   1afc0 <assert_abort>
    4d81:	eb 0d                	jmp    4d90 <str_ncpy>
    4d83:	90                   	nop
    4d84:	90                   	nop
    4d85:	90                   	nop
    4d86:	90                   	nop
    4d87:	90                   	nop
    4d88:	90                   	nop
    4d89:	90                   	nop
    4d8a:	90                   	nop
    4d8b:	90                   	nop
    4d8c:	90                   	nop
    4d8d:	90                   	nop
    4d8e:	90                   	nop
    4d8f:	90                   	nop

00004d90 <str_ncpy>:
    4d90:	55                   	push   %ebp
    4d91:	89 e5                	mov    %esp,%ebp
    4d93:	57                   	push   %edi
    4d94:	56                   	push   %esi
    4d95:	53                   	push   %ebx
    4d96:	83 ec 4c             	sub    $0x4c,%esp
    4d99:	8b 45 0c             	mov    0xc(%ebp),%eax
    4d9c:	8b 7d 10             	mov    0x10(%ebp),%edi
    4d9f:	85 c0                	test   %eax,%eax
    4da1:	0f 84 f7 01 00 00    	je     4f9e <str_ncpy+0x20e>
    4da7:	8b 55 14             	mov    0x14(%ebp),%edx
    4daa:	c7 45 e4 00 00 00 00 	movl   $0x0,-0x1c(%ebp)
    4db1:	85 d2                	test   %edx,%edx
