
devman:     file format elf32-i386


Disassembly of section .init:

00001094 <__entry>:
    1094:	66 8c d0             	mov    %ss,%ax
    1097:	8e d8                	mov    %eax,%ds
    1099:	8e c0                	mov    %eax,%es
    109b:	8e e0                	mov    %eax,%fs
    109d:	b8 01 00 00 00       	mov    $0x1,%eax
    10a2:	0f a2                	cpuid  
    10a4:	0f ba e2 0b          	bt     $0xb,%edx
    10a8:	73 0c                	jae    10b6 <__entry+0x22>
    10aa:	8d 05 b4 64 02 00    	lea    0x264b4,%eax
    10b0:	c7 00 d7 05 02 00    	movl   $0x205d7,(%eax)
    10b6:	6a 00                	push   $0x0
    10b8:	89 e5                	mov    %esp,%ebp
    10ba:	57                   	push   %edi
    10bb:	e8 20 4c 00 00       	call   5ce0 <__main>

Disassembly of section .text:

000010c0 <devman_client_data_destroy>:
    10c0:	55                   	push   %ebp
    10c1:	89 e5                	mov    %esp,%ebp
    10c3:	5d                   	pop    %ebp
    10c4:	e9 37 4d 01 00       	jmp    15e00 <free>
    10c9:	8d b4 26 00 00 00 00 	lea    0x0(%esi,%eiz,1),%esi

000010d0 <init_running_drv>:
    10d0:	55                   	push   %ebp
    10d1:	89 e5                	mov    %esp,%ebp
    10d3:	53                   	push   %ebx
    10d4:	83 ec 14             	sub    $0x14,%esp
    10d7:	8b 5d 08             	mov    0x8(%ebp),%ebx
    10da:	89 1c 24             	mov    %ebx,(%esp)
    10dd:	c7 44 24 04 40 65 02 	movl   $0x26540,0x4(%esp)
    10e4:	00 
    10e5:	e8 c6 33 00 00       	call   44b0 <initialize_running_driver>
    10ea:	8b 43 10             	mov    0x10(%ebx),%eax
    10ed:	89 44 24 0c          	mov    %eax,0xc(%esp)
    10f1:	c7 44 24 08 14 29 02 	movl   $0x22914,0x8(%esp)
    10f8:	00 
    10f9:	c7 44 24 04 04 00 00 	movl   $0x4,0x4(%esp)
    1100:	00 
    1101:	c7 04 24 ff ff ff ff 	movl   $0xffffffff,(%esp)
    1108:	e8 43 fb 00 00       	call   10c50 <log_msg>
    110d:	83 c4 14             	add    $0x14,%esp
    1110:	31 c0                	xor    %eax,%eax
    1112:	5b                   	pop    %ebx
    1113:	5d                   	pop    %ebp
    1114:	c3                   	ret    
    1115:	8d 74 26 00          	lea    0x0(%esi,%eiz,1),%esi
    1119:	8d bc 27 00 00 00 00 	lea    0x0(%edi,%eiz,1),%edi

00001120 <online_function>:
    1120:	55                   	push   %ebp
    1121:	89 e5                	mov    %esp,%ebp
    1123:	56                   	push   %esi
    1124:	53                   	push   %ebx
    1125:	89 c3                	mov    %eax,%ebx
    1127:	83 ec 10             	sub    $0x10,%esp
    112a:	c7 04 24 48 65 02 00 	movl   $0x26548,(%esp)
    1131:	e8 ba bb 00 00       	call   ccf0 <fibril_rwlock_write_lock>
    1136:	83 7b 04 02          	cmpl   $0x2,0x4(%ebx)
    113a:	0f 84 c0 00 00 00    	je     1200 <online_function+0xe0>
    1140:	83 7b 20 01          	cmpl   $0x1,0x20(%ebx)
    1144:	0f 84 86 00 00 00    	je     11d0 <online_function+0xb0>
    114a:	8b 43 24             	mov    0x24(%ebx),%eax
    114d:	c7 44 24 08 b2 2f 02 	movl   $0x22fb2,0x8(%esp)
    1154:	00 
    1155:	89 44 24 0c          	mov    %eax,0xc(%esp)
    1159:	c7 44 24 04 04 00 00 	movl   $0x4,0x4(%esp)
    1160:	00 
    1161:	c7 04 24 ff ff ff ff 	movl   $0xffffffff,(%esp)
    1168:	e8 e3 fa 00 00       	call   10c50 <log_msg>
    116d:	83 7b 20 01          	cmpl   $0x1,0x20(%ebx)
    1171:	74 25                	je     1198 <online_function+0x78>
    1173:	c7 44 24 04 40 65 02 	movl   $0x26540,0x4(%esp)
    117a:	00 
    117b:	89 1c 24             	mov    %ebx,(%esp)
    117e:	e8 dd 30 00 00       	call   4260 <loc_register_tree_function>
    1183:	c7 04 24 48 65 02 00 	movl   $0x26548,(%esp)
    118a:	e8 a1 bc 00 00       	call   ce30 <fibril_rwlock_write_unlock>
    118f:	31 c0                	xor    %eax,%eax
    1191:	83 c4 10             	add    $0x10,%esp
    1194:	5b                   	pop    %ebx
    1195:	5e                   	pop    %esi
    1196:	5d                   	pop    %ebp
    1197:	c3                   	ret    
    1198:	8b 5b 34             	mov    0x34(%ebx),%ebx
    119b:	85 db                	test   %ebx,%ebx
    119d:	0f 84 c7 00 00 00    	je     126a <online_function+0x14a>
    11a3:	89 1c 24             	mov    %ebx,(%esp)
    11a6:	e8 85 3d 00 00       	call   4f30 <dev_add_ref>
    11ab:	89 5c 24 04          	mov    %ebx,0x4(%esp)
    11af:	c7 04 24 90 12 00 00 	movl   $0x1290,(%esp)
    11b6:	e8 d5 b2 00 00       	call   c490 <fibril_create>
    11bb:	85 c0                	test   %eax,%eax
    11bd:	74 79                	je     1238 <online_function+0x118>
    11bf:	89 04 24             	mov    %eax,(%esp)
    11c2:	e8 09 b4 00 00       	call   c5d0 <fibril_add_ready>
    11c7:	eb ba                	jmp    1183 <online_function+0x63>
    11c9:	8d b4 26 00 00 00 00 	lea    0x0(%esi,%eiz,1),%esi
    11d0:	e8 9b 3c 00 00       	call   4e70 <create_dev_node>
    11d5:	89 c6                	mov    %eax,%esi
    11d7:	85 c0                	test   %eax,%eax
    11d9:	74 79                	je     1254 <online_function+0x134>
    11db:	89 5c 24 08          	mov    %ebx,0x8(%esp)
    11df:	89 44 24 04          	mov    %eax,0x4(%esp)
    11e3:	c7 04 24 40 65 02 00 	movl   $0x26540,(%esp)
    11ea:	e8 d1 41 00 00       	call   53c0 <insert_dev_node>
    11ef:	89 34 24             	mov    %esi,(%esp)
    11f2:	e8 39 3d 00 00       	call   4f30 <dev_add_ref>
    11f7:	e9 4e ff ff ff       	jmp    114a <online_function+0x2a>
    11fc:	8d 74 26 00          	lea    0x0(%esi,%eiz,1),%esi
    1200:	c7 04 24 48 65 02 00 	movl   $0x26548,(%esp)
    1207:	e8 24 bc 00 00       	call   ce30 <fibril_rwlock_write_unlock>
    120c:	8b 43 24             	mov    0x24(%ebx),%eax
    120f:	89 44 24 0c          	mov    %eax,0xc(%esp)
    1213:	c7 44 24 08 44 29 02 	movl   $0x22944,0x8(%esp)
    121a:	00 
    121b:	c7 44 24 04 02 00 00 	movl   $0x2,0x4(%esp)
    1222:	00 
    1223:	c7 04 24 ff ff ff ff 	movl   $0xffffffff,(%esp)
    122a:	e8 21 fa 00 00       	call   10c50 <log_msg>
    122f:	31 c0                	xor    %eax,%eax
    1231:	e9 5b ff ff ff       	jmp    1191 <online_function+0x71>
    1236:	66 90                	xchg   %ax,%ax
    1238:	c7 44 24 08 64 29 02 	movl   $0x22964,0x8(%esp)
    123f:	00 
    1240:	c7 44 24 04 01 00 00 	movl   $0x1,0x4(%esp)
    1247:	00 
    1248:	c7 04 24 ff ff ff ff 	movl   $0xffffffff,(%esp)
    124f:	e8 fc f9 00 00       	call   10c50 <log_msg>
    1254:	c7 04 24 48 65 02 00 	movl   $0x26548,(%esp)
    125b:	e8 d0 bb 00 00       	call   ce30 <fibril_rwlock_write_unlock>
    1260:	b8 fe ff ff ff       	mov    $0xfffffffe,%eax
    1265:	e9 27 ff ff ff       	jmp    1191 <online_function+0x71>
    126a:	c7 44 24 08 0e 01 00 	movl   $0x10e,0x8(%esp)
    1271:	00 
    1272:	c7 44 24 04 d0 2f 02 	movl   $0x22fd0,0x4(%esp)
    1279:	00 
    127a:	c7 04 24 d7 2f 02 00 	movl   $0x22fd7,(%esp)
    1281:	e8 ca f2 01 00       	call   20550 <assert_abort>
    1286:	8d 76 00             	lea    0x0(%esi),%esi
    1289:	8d bc 27 00 00 00 00 	lea    0x0(%edi,%eiz,1),%edi

00001290 <assign_driver_fibril>:
    1290:	55                   	push   %ebp
    1291:	89 e5                	mov    %esp,%ebp
    1293:	53                   	push   %ebx
    1294:	83 ec 14             	sub    $0x14,%esp
    1297:	8b 5d 08             	mov    0x8(%ebp),%ebx
    129a:	89 1c 24             	mov    %ebx,(%esp)
    129d:	c7 44 24 08 40 65 02 	movl   $0x26540,0x8(%esp)
    12a4:	00 
    12a5:	c7 44 24 04 20 65 02 	movl   $0x26520,0x4(%esp)
    12ac:	00 
    12ad:	e8 de 33 00 00       	call   4690 <assign_driver>
    12b2:	89 1c 24             	mov    %ebx,(%esp)
    12b5:	e8 86 3c 00 00       	call   4f40 <dev_del_ref>
    12ba:	83 c4 14             	add    $0x14,%esp
    12bd:	31 c0                	xor    %eax,%eax
    12bf:	5b                   	pop    %ebx
    12c0:	5d                   	pop    %ebp
    12c1:	c3                   	ret    
    12c2:	8d b4 26 00 00 00 00 	lea    0x0(%esi,%eiz,1),%esi
    12c9:	8d bc 27 00 00 00 00 	lea    0x0(%edi,%eiz,1),%edi

000012d0 <devman_client_data_create>:
    12d0:	55                   	push   %ebp
    12d1:	89 e5                	mov    %esp,%ebp
    12d3:	83 ec 28             	sub    $0x28,%esp
    12d6:	c7 44 24 04 14 00 00 	movl   $0x14,0x4(%esp)
    12dd:	00 
    12de:	c7 04 24 01 00 00 00 	movl   $0x1,(%esp)
    12e5:	e8 a6 49 01 00       	call   15c90 <calloc>
    12ea:	85 c0                	test   %eax,%eax
    12ec:	74 0e                	je     12fc <devman_client_data_create+0x2c>
    12ee:	89 04 24             	mov    %eax,(%esp)
    12f1:	89 45 f4             	mov    %eax,-0xc(%ebp)
    12f4:	e8 57 b6 00 00       	call   c950 <fibril_mutex_initialize>
    12f9:	8b 45 f4             	mov    -0xc(%ebp),%eax
    12fc:	c9                   	leave  
    12fd:	c3                   	ret    
    12fe:	66 90                	xchg   %ax,%ax

00001300 <devman_forward.isra.17>:
    1300:	55                   	push   %ebp
    1301:	89 e5                	mov    %esp,%ebp
    1303:	57                   	push   %edi
    1304:	56                   	push   %esi
    1305:	53                   	push   %ebx
    1306:	83 ec 3c             	sub    $0x3c,%esp
    1309:	89 d6                	mov    %edx,%esi
    130b:	89 45 e0             	mov    %eax,-0x20(%ebp)
    130e:	88 4d e4             	mov    %cl,-0x1c(%ebp)
    1311:	89 54 24 04          	mov    %edx,0x4(%esp)
    1315:	c7 04 24 40 65 02 00 	movl   $0x26540,(%esp)
    131c:	e8 1f 40 00 00       	call   5340 <find_fun_node>
    1321:	89 c3                	mov    %eax,%ebx
    1323:	85 c0                	test   %eax,%eax
    1325:	0f 84 bd 01 00 00    	je     14e8 <devman_forward.isra.17+0x1e8>
    132b:	c7 04 24 48 65 02 00 	movl   $0x26548,(%esp)
    1332:	e8 d9 b8 00 00       	call   cc10 <fibril_rwlock_read_lock>
    1337:	8b 7b 28             	mov    0x28(%ebx),%edi
    133a:	85 ff                	test   %edi,%edi
    133c:	74 08                	je     1346 <devman_forward.isra.17+0x46>
    133e:	89 3c 24             	mov    %edi,(%esp)
    1341:	e8 ea 3b 00 00       	call   4f30 <dev_add_ref>
    1346:	c7 04 24 48 65 02 00 	movl   $0x26548,(%esp)
    134d:	e8 7e ba 00 00       	call   cdd0 <fibril_rwlock_read_unlock>
    1352:	85 ff                	test   %edi,%edi
    1354:	0f 84 a6 01 00 00    	je     1500 <devman_forward.isra.17+0x200>
    135a:	85 db                	test   %ebx,%ebx
    135c:	75 5a                	jne    13b8 <devman_forward.isra.17+0xb8>
    135e:	80 7d e4 01          	cmpb   $0x1,-0x1c(%ebp)
    1362:	74 54                	je     13b8 <devman_forward.isra.17+0xb8>
    1364:	89 74 24 0c          	mov    %esi,0xc(%esp)
    1368:	c7 44 24 08 dc 29 02 	movl   $0x229dc,0x8(%esp)
    136f:	00 
    1370:	c7 44 24 04 01 00 00 	movl   $0x1,0x4(%esp)
    1377:	00 
    1378:	c7 04 24 ff ff ff ff 	movl   $0xffffffff,(%esp)
    137f:	e8 cc f8 00 00       	call   10c50 <log_msg>
    1384:	8b 45 e0             	mov    -0x20(%ebp),%eax
    1387:	c7 44 24 04 ff ff ff 	movl   $0xffffffff,0x4(%esp)
    138e:	ff 
    138f:	89 04 24             	mov    %eax,(%esp)
    1392:	e8 99 74 01 00       	call   18830 <async_answer_0>
    1397:	89 3c 24             	mov    %edi,(%esp)
    139a:	e8 a1 3b 00 00       	call   4f40 <dev_del_ref>
    139f:	85 db                	test   %ebx,%ebx
    13a1:	74 08                	je     13ab <devman_forward.isra.17+0xab>
    13a3:	89 1c 24             	mov    %ebx,(%esp)
    13a6:	e8 d5 3e 00 00       	call   5280 <fun_del_ref>
    13ab:	83 c4 3c             	add    $0x3c,%esp
    13ae:	5b                   	pop    %ebx
    13af:	5e                   	pop    %esi
    13b0:	5f                   	pop    %edi
    13b1:	5d                   	pop    %ebp
    13b2:	c3                   	ret    
    13b3:	90                   	nop
    13b4:	8d 74 26 00          	lea    0x0(%esi,%eiz,1),%esi
    13b8:	c7 04 24 48 65 02 00 	movl   $0x26548,(%esp)
    13bf:	e8 4c b8 00 00       	call   cc10 <fibril_rwlock_read_lock>
    13c4:	80 7d e4 00          	cmpb   $0x0,-0x1c(%ebp)
    13c8:	0f 84 c2 00 00 00    	je     1490 <devman_forward.isra.17+0x190>
    13ce:	8b 57 08             	mov    0x8(%edi),%edx
    13d1:	8b 42 28             	mov    0x28(%edx),%eax
    13d4:	85 c0                	test   %eax,%eax
    13d6:	0f 84 ba 00 00 00    	je     1496 <devman_forward.isra.17+0x196>
    13dc:	8b 40 14             	mov    0x14(%eax),%eax
    13df:	8b 52 18             	mov    0x18(%edx),%edx
    13e2:	c7 04 24 48 65 02 00 	movl   $0x26548,(%esp)
    13e9:	89 45 d8             	mov    %eax,-0x28(%ebp)
    13ec:	89 55 e4             	mov    %edx,-0x1c(%ebp)
    13ef:	e8 dc b9 00 00       	call   cdd0 <fibril_rwlock_read_unlock>
    13f4:	8b 45 d8             	mov    -0x28(%ebp),%eax
    13f7:	85 c0                	test   %eax,%eax
    13f9:	0f 84 a3 00 00 00    	je     14a2 <devman_forward.isra.17+0x1a2>
    13ff:	c7 45 dc 03 00 00 00 	movl   $0x3,-0x24(%ebp)
    1406:	8b 50 0c             	mov    0xc(%eax),%edx
    1409:	85 d2                	test   %edx,%edx
    140b:	0f 84 3f 01 00 00    	je     1550 <devman_forward.isra.17+0x250>
    1411:	8b 50 10             	mov    0x10(%eax),%edx
    1414:	85 db                	test   %ebx,%ebx
    1416:	89 54 24 10          	mov    %edx,0x10(%esp)
    141a:	0f 84 18 01 00 00    	je     1538 <devman_forward.isra.17+0x238>
    1420:	8b 53 24             	mov    0x24(%ebx),%edx
    1423:	c7 44 24 08 90 2a 02 	movl   $0x22a90,0x8(%esp)
    142a:	00 
    142b:	89 54 24 0c          	mov    %edx,0xc(%esp)
    142f:	c7 44 24 04 04 00 00 	movl   $0x4,0x4(%esp)
    1436:	00 
    1437:	c7 04 24 ff ff ff ff 	movl   $0xffffffff,(%esp)
    143e:	89 45 d8             	mov    %eax,-0x28(%ebp)
    1441:	e8 0a f8 00 00       	call   10c50 <log_msg>
    1446:	8b 45 d8             	mov    -0x28(%ebp),%eax
    1449:	8b 40 0c             	mov    0xc(%eax),%eax
    144c:	89 04 24             	mov    %eax,(%esp)
    144f:	e8 dc 7d 01 00       	call   19230 <async_exchange_begin>
    1454:	c7 44 24 14 00 00 00 	movl   $0x0,0x14(%esp)
    145b:	00 
    145c:	89 c6                	mov    %eax,%esi
    145e:	8b 45 e4             	mov    -0x1c(%ebp),%eax
    1461:	89 44 24 0c          	mov    %eax,0xc(%esp)
    1465:	8b 45 dc             	mov    -0x24(%ebp),%eax
    1468:	89 44 24 08          	mov    %eax,0x8(%esp)
    146c:	8b 45 e0             	mov    -0x20(%ebp),%eax
    146f:	c7 44 24 10 00 00 00 	movl   $0x0,0x10(%esp)
    1476:	00 
    1477:	89 74 24 04          	mov    %esi,0x4(%esp)
    147b:	89 04 24             	mov    %eax,(%esp)
    147e:	e8 cd 74 01 00       	call   18950 <async_forward_fast>
    1483:	89 34 24             	mov    %esi,(%esp)
    1486:	e8 15 81 01 00       	call   195a0 <async_exchange_end>
    148b:	e9 07 ff ff ff       	jmp    1397 <devman_forward.isra.17+0x97>
    1490:	83 7f 18 01          	cmpl   $0x1,0x18(%edi)
    1494:	74 22                	je     14b8 <devman_forward.isra.17+0x1b8>
    1496:	c7 04 24 48 65 02 00 	movl   $0x26548,(%esp)
    149d:	e8 2e b9 00 00       	call   cdd0 <fibril_rwlock_read_unlock>
    14a2:	89 74 24 0c          	mov    %esi,0xc(%esp)
    14a6:	c7 44 24 08 2c 2a 02 	movl   $0x22a2c,0x8(%esp)
    14ad:	00 
    14ae:	e9 bd fe ff ff       	jmp    1370 <devman_forward.isra.17+0x70>
    14b3:	90                   	nop
    14b4:	8d 74 26 00          	lea    0x0(%esi,%eiz,1),%esi
    14b8:	8b 47 14             	mov    0x14(%edi),%eax
    14bb:	85 c0                	test   %eax,%eax
    14bd:	0f 84 c8 00 00 00    	je     158b <devman_forward.isra.17+0x28b>
    14c3:	c7 04 24 48 65 02 00 	movl   $0x26548,(%esp)
    14ca:	89 45 d8             	mov    %eax,-0x28(%ebp)
    14cd:	e8 fe b8 00 00       	call   cdd0 <fibril_rwlock_read_unlock>
    14d2:	89 75 e4             	mov    %esi,-0x1c(%ebp)
    14d5:	c7 45 dc 02 00 00 00 	movl   $0x2,-0x24(%ebp)
    14dc:	8b 45 d8             	mov    -0x28(%ebp),%eax
    14df:	e9 22 ff ff ff       	jmp    1406 <devman_forward.isra.17+0x106>
    14e4:	8d 74 26 00          	lea    0x0(%esi,%eiz,1),%esi
    14e8:	89 74 24 04          	mov    %esi,0x4(%esp)
    14ec:	c7 04 24 40 65 02 00 	movl   $0x26540,(%esp)
    14f3:	e8 38 3b 00 00       	call   5030 <find_dev_node>
    14f8:	89 c7                	mov    %eax,%edi
    14fa:	e9 53 fe ff ff       	jmp    1352 <devman_forward.isra.17+0x52>
    14ff:	90                   	nop
    1500:	89 74 24 0c          	mov    %esi,0xc(%esp)
    1504:	c7 44 24 08 94 29 02 	movl   $0x22994,0x8(%esp)
    150b:	00 
    150c:	c7 44 24 04 01 00 00 	movl   $0x1,0x4(%esp)
    1513:	00 
    1514:	c7 04 24 ff ff ff ff 	movl   $0xffffffff,(%esp)
    151b:	e8 30 f7 00 00       	call   10c50 <log_msg>
    1520:	8b 45 e0             	mov    -0x20(%ebp),%eax
    1523:	c7 44 24 04 ff ff ff 	movl   $0xffffffff,0x4(%esp)
    152a:	ff 
    152b:	89 04 24             	mov    %eax,(%esp)
    152e:	e8 fd 72 01 00       	call   18830 <async_answer_0>
    1533:	e9 67 fe ff ff       	jmp    139f <devman_forward.isra.17+0x9f>
    1538:	8b 57 08             	mov    0x8(%edi),%edx
    153b:	8b 52 24             	mov    0x24(%edx),%edx
    153e:	c7 44 24 08 c8 2a 02 	movl   $0x22ac8,0x8(%esp)
    1545:	00 
    1546:	89 54 24 0c          	mov    %edx,0xc(%esp)
    154a:	e9 e0 fe ff ff       	jmp    142f <devman_forward.isra.17+0x12f>
    154f:	90                   	nop
    1550:	8b 40 10             	mov    0x10(%eax),%eax
    1553:	c7 44 24 08 6c 2a 02 	movl   $0x22a6c,0x8(%esp)
    155a:	00 
    155b:	89 44 24 0c          	mov    %eax,0xc(%esp)
    155f:	c7 44 24 04 01 00 00 	movl   $0x1,0x4(%esp)
    1566:	00 
    1567:	c7 04 24 ff ff ff ff 	movl   $0xffffffff,(%esp)
    156e:	e8 dd f6 00 00       	call   10c50 <log_msg>
    1573:	8b 45 e0             	mov    -0x20(%ebp),%eax
    1576:	c7 44 24 04 f2 ff ff 	movl   $0xfffffff2,0x4(%esp)
    157d:	ff 
    157e:	89 04 24             	mov    %eax,(%esp)
    1581:	e8 aa 72 01 00       	call   18830 <async_answer_0>
    1586:	e9 0c fe ff ff       	jmp    1397 <devman_forward.isra.17+0x97>
    158b:	c7 44 24 08 ea 04 00 	movl   $0x4ea,0x8(%esp)
    1592:	00 
    1593:	c7 44 24 04 d0 2f 02 	movl   $0x22fd0,0x4(%esp)
    159a:	00 
    159b:	c7 04 24 e3 2f 02 00 	movl   $0x22fe3,(%esp)
    15a2:	e8 a9 ef 01 00       	call   20550 <assert_abort>
    15a7:	89 f6                	mov    %esi,%esi
    15a9:	8d bc 27 00 00 00 00 	lea    0x0(%edi,%eiz,1),%edi

000015b0 <devman_connection>:
    15b0:	55                   	push   %ebp
    15b1:	89 e5                	mov    %esp,%ebp
    15b3:	57                   	push   %edi
    15b4:	56                   	push   %esi
    15b5:	53                   	push   %ebx
    15b6:	81 ec ac 00 00 00    	sub    $0xac,%esp
    15bc:	8b 45 0c             	mov    0xc(%ebp),%eax
    15bf:	83 78 04 05          	cmpl   $0x5,0x4(%eax)
    15c3:	76 23                	jbe    15e8 <devman_connection+0x38>
    15c5:	8b 45 08             	mov    0x8(%ebp),%eax
    15c8:	c7 44 24 04 ff ff ff 	movl   $0xffffffff,0x4(%esp)
    15cf:	ff 
    15d0:	89 04 24             	mov    %eax,(%esp)
    15d3:	e8 58 72 01 00       	call   18830 <async_answer_0>
    15d8:	81 c4 ac 00 00 00    	add    $0xac,%esp
    15de:	5b                   	pop    %ebx
    15df:	5e                   	pop    %esi
    15e0:	5f                   	pop    %edi
    15e1:	5d                   	pop    %ebp
    15e2:	c3                   	ret    
    15e3:	90                   	nop
    15e4:	8d 74 26 00          	lea    0x0(%esi,%eiz,1),%esi
    15e8:	8b 50 04             	mov    0x4(%eax),%edx
    15eb:	ff 24 95 d8 30 02 00 	jmp    *0x230d8(,%edx,4)
    15f2:	8d b6 00 00 00 00    	lea    0x0(%esi),%esi
    15f8:	8b 50 08             	mov    0x8(%eax),%edx
    15fb:	b9 01 00 00 00       	mov    $0x1,%ecx
    1600:	8b 45 08             	mov    0x8(%ebp),%eax
    1603:	e8 f8 fc ff ff       	call   1300 <devman_forward.isra.17>
    1608:	81 c4 ac 00 00 00    	add    $0xac,%esp
    160e:	5b                   	pop    %ebx
    160f:	5e                   	pop    %esi
    1610:	5f                   	pop    %edi
    1611:	5d                   	pop    %ebp
    1612:	c3                   	ret    
    1613:	90                   	nop
    1614:	8d 74 26 00          	lea    0x0(%esi,%eiz,1),%esi
    1618:	8b 45 08             	mov    0x8(%ebp),%eax
    161b:	c7 44 24 04 00 00 00 	movl   $0x0,0x4(%esp)
    1622:	00 
    1623:	89 04 24             	mov    %eax,(%esp)
    1626:	e8 05 72 01 00       	call   18830 <async_answer_0>
    162b:	e8 f0 5d 01 00       	call   17420 <async_get_client_data>
    1630:	89 c7                	mov    %eax,%edi
    1632:	85 c0                	test   %eax,%eax
    1634:	0f 84 7c 11 00 00    	je     27b6 <devman_connection+0x1206>
    163a:	8d b6 00 00 00 00    	lea    0x0(%esi),%esi
    1640:	8d 55 a0             	lea    -0x60(%ebp),%edx
    1643:	c7 44 24 04 00 00 00 	movl   $0x0,0x4(%esp)
    164a:	00 
    164b:	89 14 24             	mov    %edx,(%esp)
    164e:	e8 ad 5b 01 00       	call   17200 <async_get_call_timeout>
    1653:	89 c6                	mov    %eax,%esi
    1655:	8b 45 a0             	mov    -0x60(%ebp),%eax
    1658:	85 c0                	test   %eax,%eax
    165a:	0f 84 78 ff ff ff    	je     15d8 <devman_connection+0x28>
    1660:	3d 00 04 00 00       	cmp    $0x400,%eax
    1665:	0f 85 d5 05 00 00    	jne    1c40 <devman_connection+0x690>
    166b:	89 3c 24             	mov    %edi,(%esp)
    166e:	e8 fd b2 00 00       	call   c970 <fibril_mutex_lock>
    1673:	8b 47 10             	mov    0x10(%edi),%eax
    1676:	85 c0                	test   %eax,%eax
    1678:	0f 84 da 0d 00 00    	je     2458 <devman_connection+0xea8>
    167e:	89 3c 24             	mov    %edi,(%esp)
    1681:	e8 0a b4 00 00       	call   ca90 <fibril_mutex_unlock>
    1686:	c7 44 24 04 f2 ff ff 	movl   $0xfffffff2,0x4(%esp)
    168d:	ff 
    168e:	89 34 24             	mov    %esi,(%esp)
    1691:	e8 9a 71 01 00       	call   18830 <async_answer_0>
    1696:	eb a8                	jmp    1640 <devman_connection+0x90>
    1698:	8b 45 08             	mov    0x8(%ebp),%eax
    169b:	c7 44 24 04 00 00 00 	movl   $0x0,0x4(%esp)
    16a2:	00 
    16a3:	89 04 24             	mov    %eax,(%esp)
    16a6:	8d 7d c4             	lea    -0x3c(%ebp),%edi
    16a9:	e8 82 71 01 00       	call   18830 <async_answer_0>
    16ae:	66 90                	xchg   %ax,%ax
    16b0:	c7 44 24 04 00 00 00 	movl   $0x0,0x4(%esp)
    16b7:	00 
    16b8:	89 3c 24             	mov    %edi,(%esp)
    16bb:	e8 40 5b 01 00       	call   17200 <async_get_call_timeout>
    16c0:	89 c3                	mov    %eax,%ebx
    16c2:	8b 45 c4             	mov    -0x3c(%ebp),%eax
    16c5:	85 c0                	test   %eax,%eax
    16c7:	0f 84 0b ff ff ff    	je     15d8 <devman_connection+0x28>
    16cd:	2d 00 04 00 00       	sub    $0x400,%eax
    16d2:	83 f8 08             	cmp    $0x8,%eax
    16d5:	0f 86 05 01 00 00    	jbe    17e0 <devman_connection+0x230>
    16db:	c7 44 24 04 ff ff ff 	movl   $0xffffffff,0x4(%esp)
    16e2:	ff 
    16e3:	89 1c 24             	mov    %ebx,(%esp)
    16e6:	e8 45 71 01 00       	call   18830 <async_answer_0>
    16eb:	eb c3                	jmp    16b0 <devman_connection+0x100>
    16ed:	8d 76 00             	lea    0x0(%esi),%esi
    16f0:	8b 50 08             	mov    0x8(%eax),%edx
    16f3:	31 c9                	xor    %ecx,%ecx
    16f5:	8b 45 08             	mov    0x8(%ebp),%eax
    16f8:	e8 03 fc ff ff       	call   1300 <devman_forward.isra.17>
    16fd:	81 c4 ac 00 00 00    	add    $0xac,%esp
    1703:	5b                   	pop    %ebx
    1704:	5e                   	pop    %esi
    1705:	5f                   	pop    %edi
    1706:	5d                   	pop    %ebp
    1707:	c3                   	ret    
    1708:	8b 40 08             	mov    0x8(%eax),%eax
    170b:	c7 04 24 40 65 02 00 	movl   $0x26540,(%esp)
    1712:	89 44 24 04          	mov    %eax,0x4(%esp)
    1716:	e8 a5 41 00 00       	call   58c0 <find_loc_tree_function>
    171b:	c7 04 24 48 65 02 00 	movl   $0x26548,(%esp)
    1722:	89 c3                	mov    %eax,%ebx
    1724:	e8 e7 b4 00 00       	call   cc10 <fibril_rwlock_read_lock>
    1729:	85 db                	test   %ebx,%ebx
    172b:	0f 84 a7 09 00 00    	je     20d8 <devman_connection+0xb28>
    1731:	8b 43 28             	mov    0x28(%ebx),%eax
    1734:	85 c0                	test   %eax,%eax
    1736:	0f 84 9c 09 00 00    	je     20d8 <devman_connection+0xb28>
    173c:	8b 70 14             	mov    0x14(%eax),%esi
    173f:	85 f6                	test   %esi,%esi
    1741:	0f 84 91 09 00 00    	je     20d8 <devman_connection+0xb28>
    1747:	8b 53 18             	mov    0x18(%ebx),%edx
    174a:	c7 04 24 48 65 02 00 	movl   $0x26548,(%esp)
    1751:	89 95 70 ff ff ff    	mov    %edx,-0x90(%ebp)
    1757:	e8 74 b6 00 00       	call   cdd0 <fibril_rwlock_read_unlock>
    175c:	8b 46 0c             	mov    0xc(%esi),%eax
    175f:	89 04 24             	mov    %eax,(%esp)
    1762:	e8 c9 7a 01 00       	call   19230 <async_exchange_begin>
    1767:	8b 95 70 ff ff ff    	mov    -0x90(%ebp),%edx
    176d:	89 c7                	mov    %eax,%edi
    176f:	89 44 24 04          	mov    %eax,0x4(%esp)
    1773:	8b 45 08             	mov    0x8(%ebp),%eax
    1776:	89 54 24 0c          	mov    %edx,0xc(%esp)
    177a:	c7 44 24 14 00 00 00 	movl   $0x0,0x14(%esp)
    1781:	00 
    1782:	c7 44 24 10 00 00 00 	movl   $0x0,0x10(%esp)
    1789:	00 
    178a:	c7 44 24 08 02 00 00 	movl   $0x2,0x8(%esp)
    1791:	00 
    1792:	89 04 24             	mov    %eax,(%esp)
    1795:	e8 b6 71 01 00       	call   18950 <async_forward_fast>
    179a:	89 3c 24             	mov    %edi,(%esp)
    179d:	e8 fe 7d 01 00       	call   195a0 <async_exchange_end>
    17a2:	8b 46 10             	mov    0x10(%esi),%eax
    17a5:	89 44 24 10          	mov    %eax,0x10(%esp)
    17a9:	8b 43 24             	mov    0x24(%ebx),%eax
    17ac:	c7 44 24 08 1c 2e 02 	movl   $0x22e1c,0x8(%esp)
    17b3:	00 
    17b4:	89 44 24 0c          	mov    %eax,0xc(%esp)
    17b8:	c7 44 24 04 04 00 00 	movl   $0x4,0x4(%esp)
    17bf:	00 
    17c0:	c7 04 24 ff ff ff ff 	movl   $0xffffffff,(%esp)
    17c7:	e8 84 f4 00 00       	call   10c50 <log_msg>
    17cc:	89 1c 24             	mov    %ebx,(%esp)
    17cf:	e8 ac 3a 00 00       	call   5280 <fun_del_ref>
    17d4:	81 c4 ac 00 00 00    	add    $0xac,%esp
    17da:	5b                   	pop    %ebx
    17db:	5e                   	pop    %esi
    17dc:	5f                   	pop    %edi
    17dd:	5d                   	pop    %ebp
    17de:	c3                   	ret    
    17df:	90                   	nop
    17e0:	ff 24 85 f0 30 02 00 	jmp    *0x230f0(,%eax,4)
    17e7:	90                   	nop
    17e8:	8b 45 c8             	mov    -0x38(%ebp),%eax
    17eb:	c7 04 24 40 65 02 00 	movl   $0x26540,(%esp)
    17f2:	89 44 24 04          	mov    %eax,0x4(%esp)
    17f6:	e8 45 3b 00 00       	call   5340 <find_fun_node>
    17fb:	89 c6                	mov    %eax,%esi
    17fd:	85 c0                	test   %eax,%eax
    17ff:	0f 84 bb 08 00 00    	je     20c0 <devman_connection+0xb10>
    1805:	8d 55 9c             	lea    -0x64(%ebp),%edx
    1808:	8d 45 98             	lea    -0x68(%ebp),%eax
    180b:	89 54 24 04          	mov    %edx,0x4(%esp)
    180f:	89 04 24             	mov    %eax,(%esp)
    1812:	e8 89 85 01 00       	call   19da0 <async_data_read_receive>
    1817:	84 c0                	test   %al,%al
    1819:	0f 84 d1 07 00 00    	je     1ff0 <devman_connection+0xa40>
    181f:	8b 45 9c             	mov    -0x64(%ebp),%eax
    1822:	89 04 24             	mov    %eax,(%esp)
    1825:	e8 c6 44 01 00       	call   15cf0 <malloc>
    182a:	89 45 84             	mov    %eax,-0x7c(%ebp)
    182d:	85 c0                	test   %eax,%eax
    182f:	0f 84 f3 0b 00 00    	je     2428 <devman_connection+0xe78>
    1835:	c7 04 24 48 65 02 00 	movl   $0x26548,(%esp)
    183c:	e8 cf b3 00 00       	call   cc10 <fibril_rwlock_read_lock>
    1841:	83 7e 04 03          	cmpl   $0x3,0x4(%esi)
    1845:	0f 84 7d 0a 00 00    	je     22c8 <devman_connection+0xd18>
    184b:	8b 46 24             	mov    0x24(%esi),%eax
    184e:	89 04 24             	mov    %eax,(%esp)
    1851:	e8 4a 7e 00 00       	call   96a0 <str_size>
    1856:	8b 55 9c             	mov    -0x64(%ebp),%edx
    1859:	39 d0                	cmp    %edx,%eax
    185b:	76 02                	jbe    185f <devman_connection+0x2af>
    185d:	89 d0                	mov    %edx,%eax
    185f:	89 44 24 08          	mov    %eax,0x8(%esp)
    1863:	8b 46 24             	mov    0x24(%esi),%eax
    1866:	e9 27 01 00 00       	jmp    1992 <devman_connection+0x3e2>
    186b:	90                   	nop
    186c:	8d 74 26 00          	lea    0x0(%esi,%eiz,1),%esi
    1870:	8b 45 c8             	mov    -0x38(%ebp),%eax
    1873:	c7 04 24 40 65 02 00 	movl   $0x26540,(%esp)
    187a:	89 44 24 04          	mov    %eax,0x4(%esp)
    187e:	e8 bd 3a 00 00       	call   5340 <find_fun_node>
    1883:	89 c6                	mov    %eax,%esi
    1885:	85 c0                	test   %eax,%eax
    1887:	0f 84 4e fe ff ff    	je     16db <devman_connection+0x12b>
    188d:	89 44 24 04          	mov    %eax,0x4(%esp)
    1891:	c7 04 24 40 65 02 00 	movl   $0x26540,(%esp)
    1898:	e8 93 33 00 00       	call   4c30 <driver_fun_offline>
    189d:	89 34 24             	mov    %esi,(%esp)
    18a0:	89 85 6c ff ff ff    	mov    %eax,-0x94(%ebp)
    18a6:	e8 d5 39 00 00       	call   5280 <fun_del_ref>
    18ab:	8b 85 6c ff ff ff    	mov    -0x94(%ebp),%eax
    18b1:	89 44 24 04          	mov    %eax,0x4(%esp)
    18b5:	89 1c 24             	mov    %ebx,(%esp)
    18b8:	e8 73 6f 01 00       	call   18830 <async_answer_0>
    18bd:	e9 ee fd ff ff       	jmp    16b0 <devman_connection+0x100>
    18c2:	8d b6 00 00 00 00    	lea    0x0(%esi),%esi
    18c8:	8b 45 c8             	mov    -0x38(%ebp),%eax
    18cb:	c7 04 24 40 65 02 00 	movl   $0x26540,(%esp)
    18d2:	89 44 24 04          	mov    %eax,0x4(%esp)
    18d6:	e8 65 3a 00 00       	call   5340 <find_fun_node>
    18db:	89 c6                	mov    %eax,%esi
    18dd:	85 c0                	test   %eax,%eax
    18df:	0f 84 f6 fd ff ff    	je     16db <devman_connection+0x12b>
    18e5:	89 44 24 04          	mov    %eax,0x4(%esp)
    18e9:	c7 04 24 40 65 02 00 	movl   $0x26540,(%esp)
    18f0:	e8 5b 32 00 00       	call   4b50 <driver_fun_online>
    18f5:	eb a6                	jmp    189d <devman_connection+0x2ed>
    18f7:	90                   	nop
    18f8:	8b 45 c8             	mov    -0x38(%ebp),%eax
    18fb:	c7 04 24 40 65 02 00 	movl   $0x26540,(%esp)
    1902:	89 44 24 04          	mov    %eax,0x4(%esp)
    1906:	e8 35 3a 00 00       	call   5340 <find_fun_node>
    190b:	89 c6                	mov    %eax,%esi
    190d:	85 c0                	test   %eax,%eax
    190f:	0f 84 ab 07 00 00    	je     20c0 <devman_connection+0xb10>
    1915:	8d 55 9c             	lea    -0x64(%ebp),%edx
    1918:	8d 45 98             	lea    -0x68(%ebp),%eax
    191b:	89 54 24 04          	mov    %edx,0x4(%esp)
    191f:	89 04 24             	mov    %eax,(%esp)
    1922:	e8 79 84 01 00       	call   19da0 <async_data_read_receive>
    1927:	84 c0                	test   %al,%al
    1929:	0f 84 c1 06 00 00    	je     1ff0 <devman_connection+0xa40>
    192f:	8b 45 9c             	mov    -0x64(%ebp),%eax
    1932:	89 04 24             	mov    %eax,(%esp)
    1935:	e8 b6 43 01 00       	call   15cf0 <malloc>
    193a:	89 45 84             	mov    %eax,-0x7c(%ebp)
    193d:	85 c0                	test   %eax,%eax
    193f:	0f 84 e3 0a 00 00    	je     2428 <devman_connection+0xe78>
    1945:	c7 04 24 48 65 02 00 	movl   $0x26548,(%esp)
    194c:	e8 bf b2 00 00       	call   cc10 <fibril_rwlock_read_lock>
    1951:	83 7e 04 03          	cmpl   $0x3,0x4(%esi)
    1955:	0f 84 6d 09 00 00    	je     22c8 <devman_connection+0xd18>
    195b:	8b 46 34             	mov    0x34(%esi),%eax
    195e:	85 c0                	test   %eax,%eax
    1960:	0f 84 5d 06 00 00    	je     1fc3 <devman_connection+0xa13>
    1966:	8b 40 14             	mov    0x14(%eax),%eax
    1969:	85 c0                	test   %eax,%eax
    196b:	0f 84 52 06 00 00    	je     1fc3 <devman_connection+0xa13>
    1971:	8b 40 10             	mov    0x10(%eax),%eax
    1974:	89 04 24             	mov    %eax,(%esp)
    1977:	e8 24 7d 00 00       	call   96a0 <str_size>
    197c:	8b 55 9c             	mov    -0x64(%ebp),%edx
    197f:	39 d0                	cmp    %edx,%eax
    1981:	76 02                	jbe    1985 <devman_connection+0x3d5>
    1983:	89 d0                	mov    %edx,%eax
    1985:	89 44 24 08          	mov    %eax,0x8(%esp)
    1989:	8b 46 34             	mov    0x34(%esi),%eax
    198c:	8b 40 14             	mov    0x14(%eax),%eax
    198f:	8b 40 10             	mov    0x10(%eax),%eax
    1992:	89 44 24 04          	mov    %eax,0x4(%esp)
    1996:	8b 45 98             	mov    -0x68(%ebp),%eax
    1999:	89 04 24             	mov    %eax,(%esp)
    199c:	e8 5f 84 01 00       	call   19e00 <async_data_read_finalize>
    19a1:	c7 44 24 04 00 00 00 	movl   $0x0,0x4(%esp)
    19a8:	00 
    19a9:	89 1c 24             	mov    %ebx,(%esp)
    19ac:	e8 7f 6e 01 00       	call   18830 <async_answer_0>
    19b1:	c7 04 24 48 65 02 00 	movl   $0x26548,(%esp)
    19b8:	e8 13 b4 00 00       	call   cdd0 <fibril_rwlock_read_unlock>
    19bd:	89 34 24             	mov    %esi,(%esp)
    19c0:	e8 bb 38 00 00       	call   5280 <fun_del_ref>
    19c5:	8b 45 84             	mov    -0x7c(%ebp),%eax
    19c8:	89 04 24             	mov    %eax,(%esp)
    19cb:	e8 30 44 01 00       	call   15e00 <free>
    19d0:	e9 db fc ff ff       	jmp    16b0 <devman_connection+0x100>
    19d5:	8d 76 00             	lea    0x0(%esi),%esi
    19d8:	8b 45 c8             	mov    -0x38(%ebp),%eax
    19db:	c7 04 24 40 65 02 00 	movl   $0x26540,(%esp)
    19e2:	89 44 24 04          	mov    %eax,0x4(%esp)
    19e6:	e8 55 39 00 00       	call   5340 <find_fun_node>
    19eb:	89 c6                	mov    %eax,%esi
    19ed:	85 c0                	test   %eax,%eax
    19ef:	0f 84 cb 06 00 00    	je     20c0 <devman_connection+0xb10>
    19f5:	8d 55 9c             	lea    -0x64(%ebp),%edx
    19f8:	8d 45 98             	lea    -0x68(%ebp),%eax
    19fb:	89 54 24 04          	mov    %edx,0x4(%esp)
    19ff:	89 04 24             	mov    %eax,(%esp)
    1a02:	e8 99 83 01 00       	call   19da0 <async_data_read_receive>
    1a07:	84 c0                	test   %al,%al
    1a09:	0f 84 e1 05 00 00    	je     1ff0 <devman_connection+0xa40>
    1a0f:	8b 45 9c             	mov    -0x64(%ebp),%eax
    1a12:	89 04 24             	mov    %eax,(%esp)
    1a15:	e8 d6 42 01 00       	call   15cf0 <malloc>
    1a1a:	89 45 84             	mov    %eax,-0x7c(%ebp)
    1a1d:	85 c0                	test   %eax,%eax
    1a1f:	0f 84 03 0a 00 00    	je     2428 <devman_connection+0xe78>
    1a25:	c7 04 24 48 65 02 00 	movl   $0x26548,(%esp)
    1a2c:	e8 df b1 00 00       	call   cc10 <fibril_rwlock_read_lock>
    1a31:	83 7e 04 03          	cmpl   $0x3,0x4(%esi)
    1a35:	0f 84 8d 08 00 00    	je     22c8 <devman_connection+0xd18>
    1a3b:	8b 46 1c             	mov    0x1c(%esi),%eax
    1a3e:	89 04 24             	mov    %eax,(%esp)
    1a41:	e8 5a 7c 00 00       	call   96a0 <str_size>
    1a46:	8b 55 9c             	mov    -0x64(%ebp),%edx
    1a49:	39 d0                	cmp    %edx,%eax
    1a4b:	76 02                	jbe    1a4f <devman_connection+0x49f>
    1a4d:	89 d0                	mov    %edx,%eax
    1a4f:	89 44 24 08          	mov    %eax,0x8(%esp)
    1a53:	8b 46 1c             	mov    0x1c(%esi),%eax
    1a56:	e9 37 ff ff ff       	jmp    1992 <devman_connection+0x3e2>
    1a5b:	90                   	nop
    1a5c:	8d 74 26 00          	lea    0x0(%esi,%eiz,1),%esi
    1a60:	c7 04 24 48 65 02 00 	movl   $0x26548,(%esp)
    1a67:	e8 a4 b1 00 00       	call   cc10 <fibril_rwlock_read_lock>
    1a6c:	8b 45 c8             	mov    -0x38(%ebp),%eax
    1a6f:	89 44 24 04          	mov    %eax,0x4(%esp)
    1a73:	c7 04 24 40 65 02 00 	movl   $0x26540,(%esp)
    1a7a:	e8 61 38 00 00       	call   52e0 <find_fun_node_no_lock>
    1a7f:	85 c0                	test   %eax,%eax
    1a81:	0f 84 a1 01 00 00    	je     1c28 <devman_connection+0x678>
    1a87:	83 78 04 03          	cmpl   $0x3,0x4(%eax)
    1a8b:	0f 84 97 01 00 00    	je     1c28 <devman_connection+0x678>
    1a91:	8b 40 34             	mov    0x34(%eax),%eax
    1a94:	85 c0                	test   %eax,%eax
    1a96:	0f 84 8c 01 00 00    	je     1c28 <devman_connection+0x678>
    1a9c:	8b 40 04             	mov    0x4(%eax),%eax
    1a9f:	c7 44 24 04 00 00 00 	movl   $0x0,0x4(%esp)
    1aa6:	00 
    1aa7:	89 44 24 08          	mov    %eax,0x8(%esp)
    1aab:	89 1c 24             	mov    %ebx,(%esp)
    1aae:	e8 bd 6d 01 00       	call   18870 <async_answer_1>
    1ab3:	c7 04 24 48 65 02 00 	movl   $0x26548,(%esp)
    1aba:	e8 11 b3 00 00       	call   cdd0 <fibril_rwlock_read_unlock>
    1abf:	e9 ec fb ff ff       	jmp    16b0 <devman_connection+0x100>
    1ac4:	8d 74 26 00          	lea    0x0(%esi,%eiz,1),%esi
    1ac8:	8d 55 98             	lea    -0x68(%ebp),%edx
    1acb:	8d 45 94             	lea    -0x6c(%ebp),%eax
    1ace:	89 54 24 04          	mov    %edx,0x4(%esp)
    1ad2:	89 04 24             	mov    %eax,(%esp)
    1ad5:	e8 c6 82 01 00       	call   19da0 <async_data_read_receive>
    1ada:	84 c0                	test   %al,%al
    1adc:	0f 85 2e 05 00 00    	jne    2010 <devman_connection+0xa60>
    1ae2:	8b 45 94             	mov    -0x6c(%ebp),%eax
    1ae5:	c7 44 24 04 fc ff ff 	movl   $0xfffffffc,0x4(%esp)
    1aec:	ff 
    1aed:	89 04 24             	mov    %eax,(%esp)
    1af0:	e8 3b 6d 01 00       	call   18830 <async_answer_0>
    1af5:	c7 44 24 04 fc ff ff 	movl   $0xfffffffc,0x4(%esp)
    1afc:	ff 
    1afd:	89 1c 24             	mov    %ebx,(%esp)
    1b00:	e8 2b 6d 01 00       	call   18830 <async_answer_0>
    1b05:	e9 a6 fb ff ff       	jmp    16b0 <devman_connection+0x100>
    1b0a:	8d b6 00 00 00 00    	lea    0x0(%esi),%esi
    1b10:	8d 45 90             	lea    -0x70(%ebp),%eax
    1b13:	c7 44 24 14 00 00 00 	movl   $0x0,0x14(%esp)
    1b1a:	00 
    1b1b:	c7 44 24 10 00 00 00 	movl   $0x0,0x10(%esp)
    1b22:	00 
    1b23:	c7 44 24 0c 00 00 00 	movl   $0x0,0xc(%esp)
    1b2a:	00 
    1b2b:	c7 44 24 08 00 00 00 	movl   $0x0,0x8(%esp)
    1b32:	00 
    1b33:	c7 44 24 04 01 00 00 	movl   $0x1,0x4(%esp)
    1b3a:	00 
    1b3b:	89 04 24             	mov    %eax,(%esp)
    1b3e:	e8 0d 88 01 00       	call   1a350 <async_data_write_accept>
    1b43:	85 c0                	test   %eax,%eax
    1b45:	0f 85 66 fd ff ff    	jne    18b1 <devman_connection+0x301>
    1b4b:	8b 45 90             	mov    -0x70(%ebp),%eax
    1b4e:	c7 04 24 40 65 02 00 	movl   $0x26540,(%esp)
    1b55:	89 44 24 04          	mov    %eax,0x4(%esp)
    1b59:	e8 12 3b 00 00       	call   5670 <find_fun_node_by_path>
    1b5e:	89 c6                	mov    %eax,%esi
    1b60:	8b 45 90             	mov    -0x70(%ebp),%eax
    1b63:	89 04 24             	mov    %eax,(%esp)
    1b66:	e8 95 42 01 00       	call   15e00 <free>
    1b6b:	85 f6                	test   %esi,%esi
    1b6d:	0f 84 68 fb ff ff    	je     16db <devman_connection+0x12b>
    1b73:	c7 04 24 48 65 02 00 	movl   $0x26548,(%esp)
    1b7a:	e8 91 b0 00 00       	call   cc10 <fibril_rwlock_read_lock>
    1b7f:	83 7e 04 03          	cmpl   $0x3,0x4(%esi)
    1b83:	0f 84 9f 00 00 00    	je     1c28 <devman_connection+0x678>
    1b89:	8b 46 18             	mov    0x18(%esi),%eax
    1b8c:	c7 04 24 48 65 02 00 	movl   $0x26548,(%esp)
    1b93:	89 85 6c ff ff ff    	mov    %eax,-0x94(%ebp)
    1b99:	e8 32 b2 00 00       	call   cdd0 <fibril_rwlock_read_unlock>
    1b9e:	89 34 24             	mov    %esi,(%esp)
    1ba1:	e8 da 36 00 00       	call   5280 <fun_del_ref>
    1ba6:	8b 85 6c ff ff ff    	mov    -0x94(%ebp),%eax
    1bac:	89 44 24 08          	mov    %eax,0x8(%esp)
    1bb0:	c7 44 24 04 00 00 00 	movl   $0x0,0x4(%esp)
    1bb7:	00 
    1bb8:	89 1c 24             	mov    %ebx,(%esp)
    1bbb:	e8 b0 6c 01 00       	call   18870 <async_answer_1>
    1bc0:	e9 eb fa ff ff       	jmp    16b0 <devman_connection+0x100>
    1bc5:	8d 76 00             	lea    0x0(%esi),%esi
    1bc8:	8b 45 c8             	mov    -0x38(%ebp),%eax
    1bcb:	c7 04 24 40 65 02 00 	movl   $0x26540,(%esp)
    1bd2:	89 44 24 04          	mov    %eax,0x4(%esp)
    1bd6:	e8 e5 3c 00 00       	call   58c0 <find_loc_tree_function>
    1bdb:	89 c6                	mov    %eax,%esi
    1bdd:	85 c0                	test   %eax,%eax
    1bdf:	0f 84 f6 fa ff ff    	je     16db <devman_connection+0x12b>
    1be5:	c7 04 24 48 65 02 00 	movl   $0x26548,(%esp)
    1bec:	e8 1f b0 00 00       	call   cc10 <fibril_rwlock_read_lock>
    1bf1:	83 7e 04 03          	cmpl   $0x3,0x4(%esi)
    1bf5:	74 31                	je     1c28 <devman_connection+0x678>
    1bf7:	8b 46 18             	mov    0x18(%esi),%eax
    1bfa:	c7 44 24 04 00 00 00 	movl   $0x0,0x4(%esp)
    1c01:	00 
    1c02:	89 44 24 08          	mov    %eax,0x8(%esp)
    1c06:	89 1c 24             	mov    %ebx,(%esp)
    1c09:	e8 62 6c 01 00       	call   18870 <async_answer_1>
    1c0e:	c7 04 24 48 65 02 00 	movl   $0x26548,(%esp)
    1c15:	e8 b6 b1 00 00       	call   cdd0 <fibril_rwlock_read_unlock>
    1c1a:	89 34 24             	mov    %esi,(%esp)
    1c1d:	e8 5e 36 00 00       	call   5280 <fun_del_ref>
    1c22:	e9 89 fa ff ff       	jmp    16b0 <devman_connection+0x100>
    1c27:	90                   	nop
    1c28:	c7 04 24 48 65 02 00 	movl   $0x26548,(%esp)
    1c2f:	e8 9c b1 00 00       	call   cdd0 <fibril_rwlock_read_unlock>
    1c34:	e9 a2 fa ff ff       	jmp    16db <devman_connection+0x12b>
    1c39:	8d b4 26 00 00 00 00 	lea    0x0(%esi,%eiz,1),%esi
    1c40:	89 3c 24             	mov    %edi,(%esp)
    1c43:	e8 28 ad 00 00       	call   c970 <fibril_mutex_lock>
    1c48:	8b 5f 10             	mov    0x10(%edi),%ebx
    1c4b:	89 3c 24             	mov    %edi,(%esp)
    1c4e:	e8 3d ae 00 00       	call   ca90 <fibril_mutex_unlock>
    1c53:	85 db                	test   %ebx,%ebx
    1c55:	0f 84 ad 05 00 00    	je     2208 <devman_connection+0xc58>
    1c5b:	8b 45 a0             	mov    -0x60(%ebp),%eax
    1c5e:	2d 00 04 00 00       	sub    $0x400,%eax
    1c63:	83 f8 06             	cmp    $0x6,%eax
    1c66:	76 18                	jbe    1c80 <devman_connection+0x6d0>
    1c68:	c7 44 24 04 f2 ff ff 	movl   $0xfffffff2,0x4(%esp)
    1c6f:	ff 
    1c70:	89 34 24             	mov    %esi,(%esp)
    1c73:	e8 b8 6b 01 00       	call   18830 <async_answer_0>
    1c78:	e9 c3 f9 ff ff       	jmp    1640 <devman_connection+0x90>
    1c7d:	8d 76 00             	lea    0x0(%esi),%esi
    1c80:	ff 24 85 14 31 02 00 	jmp    *0x23114(,%eax,4)
    1c87:	90                   	nop
    1c88:	8b 45 a4             	mov    -0x5c(%ebp),%eax
    1c8b:	c7 04 24 40 65 02 00 	movl   $0x26540,(%esp)
    1c92:	89 44 24 04          	mov    %eax,0x4(%esp)
    1c96:	e8 a5 36 00 00       	call   5340 <find_fun_node>
    1c9b:	89 c3                	mov    %eax,%ebx
    1c9d:	85 c0                	test   %eax,%eax
    1c9f:	0f 84 1e 01 00 00    	je     1dc3 <devman_connection+0x813>
    1ca5:	89 04 24             	mov    %eax,(%esp)
    1ca8:	e8 f3 35 00 00       	call   52a0 <fun_busy_lock>
    1cad:	c7 04 24 48 65 02 00 	movl   $0x26548,(%esp)
    1cb4:	e8 37 b0 00 00       	call   ccf0 <fibril_rwlock_write_lock>
    1cb9:	8b 43 24             	mov    0x24(%ebx),%eax
    1cbc:	89 44 24 0c          	mov    %eax,0xc(%esp)
    1cc0:	c7 44 24 08 a4 2d 02 	movl   $0x22da4,0x8(%esp)
    1cc7:	00 
    1cc8:	c7 44 24 04 04 00 00 	movl   $0x4,0x4(%esp)
    1ccf:	00 
    1cd0:	c7 04 24 ff ff ff ff 	movl   $0xffffffff,(%esp)
    1cd7:	e8 74 ef 00 00       	call   10c50 <log_msg>
    1cdc:	83 7b 04 03          	cmpl   $0x3,0x4(%ebx)
    1ce0:	0f 84 3b 0a 00 00    	je     2721 <devman_connection+0x1171>
    1ce6:	83 7b 20 01          	cmpl   $0x1,0x20(%ebx)
    1cea:	0f 84 20 06 00 00    	je     2310 <devman_connection+0xd60>
    1cf0:	8b 43 40             	mov    0x40(%ebx),%eax
    1cf3:	85 c0                	test   %eax,%eax
    1cf5:	0f 85 cd 06 00 00    	jne    23c8 <devman_connection+0xe18>
    1cfb:	89 5c 24 04          	mov    %ebx,0x4(%esp)
    1cff:	c7 04 24 40 65 02 00 	movl   $0x26540,(%esp)
    1d06:	e8 d5 38 00 00       	call   55e0 <remove_fun_node>
    1d0b:	c7 04 24 48 65 02 00 	movl   $0x26548,(%esp)
    1d12:	e8 19 b1 00 00       	call   ce30 <fibril_rwlock_write_unlock>
    1d17:	89 1c 24             	mov    %ebx,(%esp)
    1d1a:	e8 a1 35 00 00       	call   52c0 <fun_busy_unlock>
    1d1f:	89 1c 24             	mov    %ebx,(%esp)
    1d22:	e8 59 35 00 00       	call   5280 <fun_del_ref>
    1d27:	89 1c 24             	mov    %ebx,(%esp)
    1d2a:	e8 51 35 00 00       	call   5280 <fun_del_ref>
    1d2f:	c7 44 24 08 c8 2d 02 	movl   $0x22dc8,0x8(%esp)
    1d36:	00 
    1d37:	c7 44 24 04 04 00 00 	movl   $0x4,0x4(%esp)
    1d3e:	00 
    1d3f:	c7 04 24 ff ff ff ff 	movl   $0xffffffff,(%esp)
    1d46:	e8 05 ef 00 00       	call   10c50 <log_msg>
    1d4b:	c7 44 24 04 00 00 00 	movl   $0x0,0x4(%esp)
    1d52:	00 
    1d53:	89 34 24             	mov    %esi,(%esp)
    1d56:	e8 d5 6a 01 00       	call   18830 <async_answer_0>
    1d5b:	e9 e0 f8 ff ff       	jmp    1640 <devman_connection+0x90>
    1d60:	8b 45 a4             	mov    -0x5c(%ebp),%eax
    1d63:	c7 04 24 40 65 02 00 	movl   $0x26540,(%esp)
    1d6a:	89 44 24 04          	mov    %eax,0x4(%esp)
    1d6e:	e8 cd 35 00 00       	call   5340 <find_fun_node>
    1d73:	85 c0                	test   %eax,%eax
    1d75:	74 4c                	je     1dc3 <devman_connection+0x813>
    1d77:	89 04 24             	mov    %eax,(%esp)
    1d7a:	89 85 70 ff ff ff    	mov    %eax,-0x90(%ebp)
    1d80:	e8 1b 35 00 00       	call   52a0 <fun_busy_lock>
    1d85:	c7 04 24 48 65 02 00 	movl   $0x26548,(%esp)
    1d8c:	e8 5f af 00 00       	call   ccf0 <fibril_rwlock_write_lock>
    1d91:	8b 95 70 ff ff ff    	mov    -0x90(%ebp),%edx
    1d97:	8b 42 28             	mov    0x28(%edx),%eax
    1d9a:	85 c0                	test   %eax,%eax
    1d9c:	74 09                	je     1da7 <devman_connection+0x7f7>
    1d9e:	3b 58 14             	cmp    0x14(%eax),%ebx
    1da1:	0f 84 f8 08 00 00    	je     269f <devman_connection+0x10ef>
    1da7:	89 14 24             	mov    %edx,(%esp)
    1daa:	89 95 70 ff ff ff    	mov    %edx,-0x90(%ebp)
    1db0:	e8 0b 35 00 00       	call   52c0 <fun_busy_unlock>
    1db5:	8b 95 70 ff ff ff    	mov    -0x90(%ebp),%edx
    1dbb:	89 14 24             	mov    %edx,(%esp)
    1dbe:	e8 bd 34 00 00       	call   5280 <fun_del_ref>
    1dc3:	c7 44 24 04 ff ff ff 	movl   $0xffffffff,0x4(%esp)
    1dca:	ff 
    1dcb:	89 34 24             	mov    %esi,(%esp)
    1dce:	e8 5d 6a 01 00       	call   18830 <async_answer_0>
    1dd3:	e9 68 f8 ff ff       	jmp    1640 <devman_connection+0x90>
    1dd8:	c7 44 24 08 4a 30 02 	movl   $0x2304a,0x8(%esp)
    1ddf:	00 
    1de0:	c7 44 24 04 04 00 00 	movl   $0x4,0x4(%esp)
    1de7:	00 
    1de8:	c7 04 24 ff ff ff ff 	movl   $0xffffffff,(%esp)
    1def:	e8 5c ee 00 00       	call   10c50 <log_msg>
    1df4:	8b 45 a4             	mov    -0x5c(%ebp),%eax
    1df7:	89 44 24 04          	mov    %eax,0x4(%esp)
    1dfb:	c7 04 24 40 65 02 00 	movl   $0x26540,(%esp)
    1e02:	e8 39 35 00 00       	call   5340 <find_fun_node>
    1e07:	85 c0                	test   %eax,%eax
    1e09:	74 b8                	je     1dc3 <devman_connection+0x813>
    1e0b:	89 04 24             	mov    %eax,(%esp)
    1e0e:	89 85 70 ff ff ff    	mov    %eax,-0x90(%ebp)
    1e14:	e8 87 34 00 00       	call   52a0 <fun_busy_lock>
    1e19:	c7 04 24 48 65 02 00 	movl   $0x26548,(%esp)
    1e20:	e8 eb ad 00 00       	call   cc10 <fibril_rwlock_read_lock>
    1e25:	8b 95 70 ff ff ff    	mov    -0x90(%ebp),%edx
    1e2b:	8b 42 28             	mov    0x28(%edx),%eax
    1e2e:	85 c0                	test   %eax,%eax
    1e30:	74 09                	je     1e3b <devman_connection+0x88b>
    1e32:	3b 58 14             	cmp    0x14(%eax),%ebx
    1e35:	0f 84 06 08 00 00    	je     2641 <devman_connection+0x1091>
    1e3b:	c7 04 24 48 65 02 00 	movl   $0x26548,(%esp)
    1e42:	89 95 70 ff ff ff    	mov    %edx,-0x90(%ebp)
    1e48:	e8 83 af 00 00       	call   cdd0 <fibril_rwlock_read_unlock>
    1e4d:	8b 95 70 ff ff ff    	mov    -0x90(%ebp),%edx
    1e53:	89 14 24             	mov    %edx,(%esp)
    1e56:	e9 55 ff ff ff       	jmp    1db0 <devman_connection+0x800>
    1e5b:	90                   	nop
    1e5c:	8d 74 26 00          	lea    0x0(%esi,%eiz,1),%esi
    1e60:	8d 45 90             	lea    -0x70(%ebp),%eax
    1e63:	c7 44 24 14 00 00 00 	movl   $0x0,0x14(%esp)
    1e6a:	00 
    1e6b:	c7 44 24 10 00 00 00 	movl   $0x0,0x10(%esp)
    1e72:	00 
    1e73:	c7 44 24 0c 00 00 00 	movl   $0x0,0xc(%esp)
    1e7a:	00 
    1e7b:	c7 44 24 08 00 00 00 	movl   $0x0,0x8(%esp)
    1e82:	00 
    1e83:	c7 44 24 04 01 00 00 	movl   $0x1,0x4(%esp)
    1e8a:	00 
    1e8b:	89 04 24             	mov    %eax,(%esp)
    1e8e:	8b 5d a4             	mov    -0x5c(%ebp),%ebx
    1e91:	e8 ba 84 01 00       	call   1a350 <async_data_write_accept>
    1e96:	85 c0                	test   %eax,%eax
    1e98:	0f 85 96 00 00 00    	jne    1f34 <devman_connection+0x984>
    1e9e:	89 5c 24 04          	mov    %ebx,0x4(%esp)
    1ea2:	c7 04 24 40 65 02 00 	movl   $0x26540,(%esp)
    1ea9:	e8 92 34 00 00       	call   5340 <find_fun_node>
    1eae:	89 c3                	mov    %eax,%ebx
    1eb0:	85 c0                	test   %eax,%eax
    1eb2:	0f 84 0b ff ff ff    	je     1dc3 <devman_connection+0x813>
    1eb8:	c7 04 24 48 65 02 00 	movl   $0x26548,(%esp)
    1ebf:	e8 4c ad 00 00       	call   cc10 <fibril_rwlock_read_lock>
    1ec4:	83 7b 04 03          	cmpl   $0x3,0x4(%ebx)
    1ec8:	0f 84 52 07 00 00    	je     2620 <devman_connection+0x1070>
    1ece:	8d 55 9c             	lea    -0x64(%ebp),%edx
    1ed1:	8b 45 90             	mov    -0x70(%ebp),%eax
    1ed4:	c7 44 24 08 01 00 00 	movl   $0x1,0x8(%esp)
    1edb:	00 
    1edc:	89 54 24 04          	mov    %edx,0x4(%esp)
    1ee0:	89 04 24             	mov    %eax,(%esp)
    1ee3:	e8 08 55 00 00       	call   73f0 <loc_category_get_id>
    1ee8:	89 45 84             	mov    %eax,-0x7c(%ebp)
    1eeb:	85 c0                	test   %eax,%eax
    1eed:	0f 84 65 03 00 00    	je     2258 <devman_connection+0xca8>
    1ef3:	8b 45 90             	mov    -0x70(%ebp),%eax
    1ef6:	89 44 24 10          	mov    %eax,0x10(%esp)
    1efa:	8b 43 24             	mov    0x24(%ebx),%eax
    1efd:	c7 44 24 08 2c 2d 02 	movl   $0x22d2c,0x8(%esp)
    1f04:	00 
    1f05:	89 44 24 0c          	mov    %eax,0xc(%esp)
    1f09:	c7 44 24 04 01 00 00 	movl   $0x1,0x4(%esp)
    1f10:	00 
    1f11:	c7 04 24 ff ff ff ff 	movl   $0xffffffff,(%esp)
    1f18:	e8 33 ed 00 00       	call   10c50 <log_msg>
    1f1d:	c7 04 24 48 65 02 00 	movl   $0x26548,(%esp)
    1f24:	e8 a7 ae 00 00       	call   cdd0 <fibril_rwlock_read_unlock>
    1f29:	89 1c 24             	mov    %ebx,(%esp)
    1f2c:	e8 4f 33 00 00       	call   5280 <fun_del_ref>
    1f31:	8b 45 84             	mov    -0x7c(%ebp),%eax
    1f34:	89 44 24 04          	mov    %eax,0x4(%esp)
    1f38:	89 34 24             	mov    %esi,(%esp)
    1f3b:	e8 f0 68 01 00       	call   18830 <async_answer_0>
    1f40:	e9 fb f6 ff ff       	jmp    1640 <devman_connection+0x90>
    1f45:	8d 76 00             	lea    0x0(%esi),%esi
    1f48:	8b 45 a8             	mov    -0x58(%ebp),%eax
    1f4b:	8b 55 ac             	mov    -0x54(%ebp),%edx
    1f4e:	89 44 24 04          	mov    %eax,0x4(%esp)
    1f52:	c7 04 24 40 65 02 00 	movl   $0x26540,(%esp)
    1f59:	89 55 84             	mov    %edx,-0x7c(%ebp)
    1f5c:	8b 5d a4             	mov    -0x5c(%ebp),%ebx
    1f5f:	e8 cc 30 00 00       	call   5030 <find_dev_node>
    1f64:	89 c2                	mov    %eax,%edx
    1f66:	85 c0                	test   %eax,%eax
    1f68:	0f 84 55 fe ff ff    	je     1dc3 <devman_connection+0x813>
    1f6e:	8d 43 ff             	lea    -0x1(%ebx),%eax
    1f71:	83 f8 01             	cmp    $0x1,%eax
    1f74:	0f 86 9e 01 00 00    	jbe    2118 <devman_connection+0xb68>
    1f7a:	89 5c 24 0c          	mov    %ebx,0xc(%esp)
    1f7e:	c7 44 24 08 1c 2c 02 	movl   $0x22c1c,0x8(%esp)
    1f85:	00 
    1f86:	c7 44 24 04 01 00 00 	movl   $0x1,0x4(%esp)
    1f8d:	00 
    1f8e:	c7 04 24 ff ff ff ff 	movl   $0xffffffff,(%esp)
    1f95:	89 95 70 ff ff ff    	mov    %edx,-0x90(%ebp)
    1f9b:	e8 b0 ec 00 00       	call   10c50 <log_msg>
    1fa0:	8b 95 70 ff ff ff    	mov    -0x90(%ebp),%edx
    1fa6:	89 14 24             	mov    %edx,(%esp)
    1fa9:	e8 92 2f 00 00       	call   4f40 <dev_del_ref>
    1fae:	c7 44 24 04 f2 ff ff 	movl   $0xfffffff2,0x4(%esp)
    1fb5:	ff 
    1fb6:	89 34 24             	mov    %esi,(%esp)
    1fb9:	e8 72 68 01 00       	call   18830 <async_answer_0>
    1fbe:	e9 7d f6 ff ff       	jmp    1640 <devman_connection+0x90>
    1fc3:	c7 04 24 48 65 02 00 	movl   $0x26548,(%esp)
    1fca:	e8 01 ae 00 00       	call   cdd0 <fibril_rwlock_read_unlock>
    1fcf:	8b 45 84             	mov    -0x7c(%ebp),%eax
    1fd2:	89 04 24             	mov    %eax,(%esp)
    1fd5:	e8 26 3e 01 00       	call   15e00 <free>
    1fda:	8b 45 98             	mov    -0x68(%ebp),%eax
    1fdd:	c7 44 24 04 f2 ff ff 	movl   $0xfffffff2,0x4(%esp)
    1fe4:	ff 
    1fe5:	89 04 24             	mov    %eax,(%esp)
    1fe8:	e8 43 68 01 00       	call   18830 <async_answer_0>
    1fed:	8d 76 00             	lea    0x0(%esi),%esi
    1ff0:	c7 44 24 04 f2 ff ff 	movl   $0xfffffff2,0x4(%esp)
    1ff7:	ff 
    1ff8:	89 1c 24             	mov    %ebx,(%esp)
    1ffb:	e8 30 68 01 00       	call   18830 <async_answer_0>
    2000:	89 34 24             	mov    %esi,(%esp)
    2003:	e8 78 32 00 00       	call   5280 <fun_del_ref>
    2008:	e9 a3 f6 ff ff       	jmp    16b0 <devman_connection+0x100>
    200d:	8d 76 00             	lea    0x0(%esi),%esi
    2010:	c7 04 24 48 65 02 00 	movl   $0x26548,(%esp)
    2017:	e8 f4 ab 00 00       	call   cc10 <fibril_rwlock_read_lock>
    201c:	8b 45 c8             	mov    -0x38(%ebp),%eax
    201f:	89 44 24 04          	mov    %eax,0x4(%esp)
    2023:	c7 04 24 40 65 02 00 	movl   $0x26540,(%esp)
    202a:	e8 a1 2f 00 00       	call   4fd0 <find_dev_node_no_lock>
    202f:	89 c6                	mov    %eax,%esi
    2031:	85 c0                	test   %eax,%eax
    2033:	0f 84 e7 01 00 00    	je     2220 <devman_connection+0xc70>
    2039:	83 78 18 04          	cmpl   $0x4,0x18(%eax)
    203d:	0f 84 dd 01 00 00    	je     2220 <devman_connection+0xc70>
    2043:	8b 45 98             	mov    -0x68(%ebp),%eax
    2046:	89 04 24             	mov    %eax,(%esp)
    2049:	e8 a2 3c 01 00       	call   15cf0 <malloc>
    204e:	89 c2                	mov    %eax,%edx
    2050:	85 c0                	test   %eax,%eax
    2052:	0f 84 ba 07 00 00    	je     2812 <devman_connection+0x1262>
    2058:	8d 45 9c             	lea    -0x64(%ebp),%eax
    205b:	89 54 24 08          	mov    %edx,0x8(%esp)
    205f:	89 44 24 10          	mov    %eax,0x10(%esp)
    2063:	8b 45 98             	mov    -0x68(%ebp),%eax
    2066:	89 74 24 04          	mov    %esi,0x4(%esp)
    206a:	89 44 24 0c          	mov    %eax,0xc(%esp)
    206e:	c7 04 24 40 65 02 00 	movl   $0x26540,(%esp)
    2075:	89 95 70 ff ff ff    	mov    %edx,-0x90(%ebp)
    207b:	e8 30 30 00 00       	call   50b0 <dev_get_functions>
    2080:	8b 95 70 ff ff ff    	mov    -0x90(%ebp),%edx
    2086:	89 c6                	mov    %eax,%esi
    2088:	85 c0                	test   %eax,%eax
    208a:	c7 04 24 48 65 02 00 	movl   $0x26548,(%esp)
    2091:	0f 84 ab 06 00 00    	je     2742 <devman_connection+0x1192>
    2097:	e8 34 ad 00 00       	call   cdd0 <fibril_rwlock_read_unlock>
    209c:	8b 45 94             	mov    -0x6c(%ebp),%eax
    209f:	89 74 24 04          	mov    %esi,0x4(%esp)
    20a3:	89 04 24             	mov    %eax,(%esp)
    20a6:	e8 85 67 01 00       	call   18830 <async_answer_0>
    20ab:	89 74 24 04          	mov    %esi,0x4(%esp)
    20af:	89 1c 24             	mov    %ebx,(%esp)
    20b2:	e8 79 67 01 00       	call   18830 <async_answer_0>
    20b7:	e9 f4 f5 ff ff       	jmp    16b0 <devman_connection+0x100>
    20bc:	8d 74 26 00          	lea    0x0(%esi,%eiz,1),%esi
    20c0:	c7 44 24 04 fe ff ff 	movl   $0xfffffffe,0x4(%esp)
    20c7:	ff 
    20c8:	89 1c 24             	mov    %ebx,(%esp)
    20cb:	e8 60 67 01 00       	call   18830 <async_answer_0>
    20d0:	e9 db f5 ff ff       	jmp    16b0 <devman_connection+0x100>
    20d5:	8d 76 00             	lea    0x0(%esi),%esi
    20d8:	c7 44 24 08 ec 2d 02 	movl   $0x22dec,0x8(%esp)
    20df:	00 
    20e0:	c7 44 24 04 02 00 00 	movl   $0x2,0x4(%esp)
    20e7:	00 
    20e8:	c7 04 24 ff ff ff ff 	movl   $0xffffffff,(%esp)
    20ef:	e8 5c eb 00 00       	call   10c50 <log_msg>
    20f4:	c7 04 24 48 65 02 00 	movl   $0x26548,(%esp)
    20fb:	e8 d0 ac 00 00       	call   cdd0 <fibril_rwlock_read_unlock>
    2100:	8b 45 08             	mov    0x8(%ebp),%eax
    2103:	c7 44 24 04 ff ff ff 	movl   $0xffffffff,0x4(%esp)
    210a:	ff 
    210b:	89 04 24             	mov    %eax,(%esp)
    210e:	e8 1d 67 01 00       	call   18830 <async_answer_0>
    2113:	e9 c0 f4 ff ff       	jmp    15d8 <devman_connection+0x28>
    2118:	8d 45 8c             	lea    -0x74(%ebp),%eax
    211b:	c7 44 24 14 00 00 00 	movl   $0x0,0x14(%esp)
    2122:	00 
    2123:	c7 44 24 10 00 00 00 	movl   $0x0,0x10(%esp)
    212a:	00 
    212b:	c7 44 24 0c 00 00 00 	movl   $0x0,0xc(%esp)
    2132:	00 
    2133:	c7 44 24 08 00 00 00 	movl   $0x0,0x8(%esp)
    213a:	00 
    213b:	c7 44 24 04 01 00 00 	movl   $0x1,0x4(%esp)
    2142:	00 
    2143:	89 04 24             	mov    %eax,(%esp)
    2146:	89 95 70 ff ff ff    	mov    %edx,-0x90(%ebp)
    214c:	c7 45 8c 00 00 00 00 	movl   $0x0,-0x74(%ebp)
    2153:	e8 f8 81 01 00       	call   1a350 <async_data_write_accept>
    2158:	8b 95 70 ff ff ff    	mov    -0x90(%ebp),%edx
    215e:	85 c0                	test   %eax,%eax
    2160:	0f 85 3a 01 00 00    	jne    22a0 <devman_connection+0xcf0>
    2166:	c7 04 24 48 65 02 00 	movl   $0x26548,(%esp)
    216d:	89 95 70 ff ff ff    	mov    %edx,-0x90(%ebp)
    2173:	e8 78 ab 00 00       	call   ccf0 <fibril_rwlock_write_lock>
    2178:	8b 95 70 ff ff ff    	mov    -0x90(%ebp),%edx
    217e:	83 7a 18 04          	cmpl   $0x4,0x18(%edx)
    2182:	0f 84 4f 06 00 00    	je     27d7 <devman_connection+0x1227>
    2188:	8b 45 8c             	mov    -0x74(%ebp),%eax
    218b:	89 54 24 04          	mov    %edx,0x4(%esp)
    218f:	89 44 24 08          	mov    %eax,0x8(%esp)
    2193:	c7 04 24 40 65 02 00 	movl   $0x26540,(%esp)
    219a:	89 95 70 ff ff ff    	mov    %edx,-0x90(%ebp)
    21a0:	e8 6b 36 00 00       	call   5810 <find_fun_node_in_device>
    21a5:	8b 95 70 ff ff ff    	mov    -0x90(%ebp),%edx
    21ab:	85 c0                	test   %eax,%eax
    21ad:	0f 84 72 08 00 00    	je     2a25 <devman_connection+0x1475>
    21b3:	89 04 24             	mov    %eax,(%esp)
    21b6:	e8 c5 30 00 00       	call   5280 <fun_del_ref>
    21bb:	c7 04 24 48 65 02 00 	movl   $0x26548,(%esp)
    21c2:	e8 69 ac 00 00       	call   ce30 <fibril_rwlock_write_unlock>
    21c7:	8b 95 70 ff ff ff    	mov    -0x90(%ebp),%edx
    21cd:	89 14 24             	mov    %edx,(%esp)
    21d0:	e8 6b 2d 00 00       	call   4f40 <dev_del_ref>
    21d5:	c7 44 24 04 f7 ff ff 	movl   $0xfffffff7,0x4(%esp)
    21dc:	ff 
    21dd:	89 34 24             	mov    %esi,(%esp)
    21e0:	e8 4b 66 01 00       	call   18830 <async_answer_0>
    21e5:	8b 45 8c             	mov    -0x74(%ebp),%eax
    21e8:	89 44 24 04          	mov    %eax,0x4(%esp)
    21ec:	c7 04 24 4c 2c 02 00 	movl   $0x22c4c,(%esp)
    21f3:	e8 a8 e7 00 00       	call   109a0 <printf>
    21f8:	8b 45 8c             	mov    -0x74(%ebp),%eax
    21fb:	89 04 24             	mov    %eax,(%esp)
    21fe:	e8 fd 3b 01 00       	call   15e00 <free>
    2203:	e9 38 f4 ff ff       	jmp    1640 <devman_connection+0x90>
    2208:	c7 44 24 04 f5 ff ff 	movl   $0xfffffff5,0x4(%esp)
    220f:	ff 
    2210:	89 34 24             	mov    %esi,(%esp)
    2213:	e8 18 66 01 00       	call   18830 <async_answer_0>
    2218:	e9 23 f4 ff ff       	jmp    1640 <devman_connection+0x90>
    221d:	8d 76 00             	lea    0x0(%esi),%esi
    2220:	c7 04 24 48 65 02 00 	movl   $0x26548,(%esp)
    2227:	e8 a4 ab 00 00       	call   cdd0 <fibril_rwlock_read_unlock>
    222c:	8b 45 94             	mov    -0x6c(%ebp),%eax
    222f:	c7 44 24 04 ff ff ff 	movl   $0xffffffff,0x4(%esp)
    2236:	ff 
    2237:	89 04 24             	mov    %eax,(%esp)
    223a:	e8 f1 65 01 00       	call   18830 <async_answer_0>
    223f:	c7 44 24 04 ff ff ff 	movl   $0xffffffff,0x4(%esp)
    2246:	ff 
    2247:	89 1c 24             	mov    %ebx,(%esp)
    224a:	e8 e1 65 01 00       	call   18830 <async_answer_0>
    224f:	e9 5c f4 ff ff       	jmp    16b0 <devman_connection+0x100>
    2254:	8d 74 26 00          	lea    0x0(%esi,%eiz,1),%esi
    2258:	8b 45 9c             	mov    -0x64(%ebp),%eax
    225b:	89 44 24 04          	mov    %eax,0x4(%esp)
    225f:	8b 43 40             	mov    0x40(%ebx),%eax
    2262:	89 04 24             	mov    %eax,(%esp)
    2265:	e8 66 58 00 00       	call   7ad0 <loc_service_add_to_cat>
    226a:	8b 45 90             	mov    -0x70(%ebp),%eax
    226d:	89 44 24 10          	mov    %eax,0x10(%esp)
    2271:	8b 43 24             	mov    0x24(%ebx),%eax
    2274:	c7 44 24 08 04 2d 02 	movl   $0x22d04,0x8(%esp)
    227b:	00 
    227c:	89 44 24 0c          	mov    %eax,0xc(%esp)
    2280:	c7 44 24 04 03 00 00 	movl   $0x3,0x4(%esp)
    2287:	00 
    2288:	c7 04 24 ff ff ff ff 	movl   $0xffffffff,(%esp)
    228f:	e8 bc e9 00 00       	call   10c50 <log_msg>
    2294:	e9 84 fc ff ff       	jmp    1f1d <devman_connection+0x96d>
    2299:	8d b4 26 00 00 00 00 	lea    0x0(%esi,%eiz,1),%esi
    22a0:	89 14 24             	mov    %edx,(%esp)
    22a3:	89 85 6c ff ff ff    	mov    %eax,-0x94(%ebp)
    22a9:	e8 92 2c 00 00       	call   4f40 <dev_del_ref>
    22ae:	8b 85 6c ff ff ff    	mov    -0x94(%ebp),%eax
    22b4:	89 44 24 04          	mov    %eax,0x4(%esp)
    22b8:	89 34 24             	mov    %esi,(%esp)
    22bb:	e8 70 65 01 00       	call   18830 <async_answer_0>
    22c0:	e9 7b f3 ff ff       	jmp    1640 <devman_connection+0x90>
    22c5:	8d 76 00             	lea    0x0(%esi),%esi
    22c8:	c7 04 24 48 65 02 00 	movl   $0x26548,(%esp)
    22cf:	e8 fc aa 00 00       	call   cdd0 <fibril_rwlock_read_unlock>
    22d4:	8b 45 84             	mov    -0x7c(%ebp),%eax
    22d7:	89 04 24             	mov    %eax,(%esp)
    22da:	e8 21 3b 01 00       	call   15e00 <free>
    22df:	8b 45 98             	mov    -0x68(%ebp),%eax
    22e2:	c7 44 24 04 ff ff ff 	movl   $0xffffffff,0x4(%esp)
    22e9:	ff 
    22ea:	89 04 24             	mov    %eax,(%esp)
    22ed:	e8 3e 65 01 00       	call   18830 <async_answer_0>
    22f2:	c7 44 24 04 ff ff ff 	movl   $0xffffffff,0x4(%esp)
    22f9:	ff 
    22fa:	89 1c 24             	mov    %ebx,(%esp)
    22fd:	e8 2e 65 01 00       	call   18830 <async_answer_0>
    2302:	89 34 24             	mov    %esi,(%esp)
    2305:	e8 76 2f 00 00       	call   5280 <fun_del_ref>
    230a:	e9 a1 f3 ff ff       	jmp    16b0 <devman_connection+0x100>
    230f:	90                   	nop
    2310:	8b 53 34             	mov    0x34(%ebx),%edx
    2313:	89 55 84             	mov    %edx,-0x7c(%ebp)
    2316:	85 d2                	test   %edx,%edx
    2318:	0f 84 dd f9 ff ff    	je     1cfb <devman_connection+0x74b>
    231e:	89 14 24             	mov    %edx,(%esp)
    2321:	e8 0a 2c 00 00       	call   4f30 <dev_add_ref>
    2326:	8b 55 84             	mov    -0x7c(%ebp),%edx
    2329:	8b 52 18             	mov    0x18(%edx),%edx
    232c:	c7 04 24 48 65 02 00 	movl   $0x26548,(%esp)
    2333:	89 55 80             	mov    %edx,-0x80(%ebp)
    2336:	e8 f5 aa 00 00       	call   ce30 <fibril_rwlock_write_unlock>
    233b:	83 7d 80 01          	cmpl   $0x1,-0x80(%ebp)
    233f:	0f 84 46 05 00 00    	je     288b <devman_connection+0x12db>
    2345:	c7 04 24 48 65 02 00 	movl   $0x26548,(%esp)
    234c:	e8 bf a8 00 00       	call   cc10 <fibril_rwlock_read_lock>
    2351:	8b 45 84             	mov    -0x7c(%ebp),%eax
    2354:	8b 55 84             	mov    -0x7c(%ebp),%edx
    2357:	83 c0 0c             	add    $0xc,%eax
    235a:	39 42 10             	cmp    %eax,0x10(%edx)
    235d:	0f 84 73 07 00 00    	je     2ad6 <devman_connection+0x1526>
    2363:	c7 44 24 08 60 2e 02 	movl   $0x22e60,0x8(%esp)
    236a:	00 
    236b:	c7 44 24 04 01 00 00 	movl   $0x1,0x4(%esp)
    2372:	00 
    2373:	c7 04 24 ff ff ff ff 	movl   $0xffffffff,(%esp)
    237a:	e8 d1 e8 00 00       	call   10c50 <log_msg>
    237f:	8b 55 84             	mov    -0x7c(%ebp),%edx
    2382:	c7 42 18 03 00 00 00 	movl   $0x3,0x18(%edx)
    2389:	c7 04 24 48 65 02 00 	movl   $0x26548,(%esp)
    2390:	e8 3b aa 00 00       	call   cdd0 <fibril_rwlock_read_unlock>
    2395:	8b 55 84             	mov    -0x7c(%ebp),%edx
    2398:	89 14 24             	mov    %edx,(%esp)
    239b:	e8 a0 2b 00 00       	call   4f40 <dev_del_ref>
    23a0:	b8 f5 ff ff ff       	mov    $0xfffffff5,%eax
    23a5:	89 1c 24             	mov    %ebx,(%esp)
    23a8:	89 85 6c ff ff ff    	mov    %eax,-0x94(%ebp)
    23ae:	e8 0d 2f 00 00       	call   52c0 <fun_busy_unlock>
    23b3:	89 1c 24             	mov    %ebx,(%esp)
    23b6:	e8 c5 2e 00 00       	call   5280 <fun_del_ref>
    23bb:	8b 85 6c ff ff ff    	mov    -0x94(%ebp),%eax
    23c1:	e9 6e fb ff ff       	jmp    1f34 <devman_connection+0x984>
    23c6:	66 90                	xchg   %ax,%ax
    23c8:	89 04 24             	mov    %eax,(%esp)
    23cb:	e8 90 49 00 00       	call   6d60 <loc_service_unregister>
    23d0:	85 c0                	test   %eax,%eax
    23d2:	0f 84 23 f9 ff ff    	je     1cfb <devman_connection+0x74b>
    23d8:	c7 44 24 08 80 2d 02 	movl   $0x22d80,0x8(%esp)
    23df:	00 
    23e0:	c7 44 24 04 01 00 00 	movl   $0x1,0x4(%esp)
    23e7:	00 
    23e8:	c7 04 24 ff ff ff ff 	movl   $0xffffffff,(%esp)
    23ef:	e8 5c e8 00 00       	call   10c50 <log_msg>
    23f4:	c7 04 24 48 65 02 00 	movl   $0x26548,(%esp)
    23fb:	e8 30 aa 00 00       	call   ce30 <fibril_rwlock_write_unlock>
    2400:	89 1c 24             	mov    %ebx,(%esp)
    2403:	e8 b8 2e 00 00       	call   52c0 <fun_busy_unlock>
    2408:	89 1c 24             	mov    %ebx,(%esp)
    240b:	e8 70 2e 00 00       	call   5280 <fun_del_ref>
    2410:	c7 44 24 04 f7 fe ff 	movl   $0xfffffef7,0x4(%esp)
    2417:	ff 
    2418:	89 34 24             	mov    %esi,(%esp)
    241b:	e8 10 64 01 00       	call   18830 <async_answer_0>
    2420:	e9 1b f2 ff ff       	jmp    1640 <devman_connection+0x90>
    2425:	8d 76 00             	lea    0x0(%esi),%esi
    2428:	8b 45 98             	mov    -0x68(%ebp),%eax
    242b:	c7 44 24 04 fe ff ff 	movl   $0xfffffffe,0x4(%esp)
    2432:	ff 
    2433:	89 04 24             	mov    %eax,(%esp)
    2436:	e8 f5 63 01 00       	call   18830 <async_answer_0>
    243b:	c7 44 24 04 fe ff ff 	movl   $0xfffffffe,0x4(%esp)
    2442:	ff 
    2443:	89 1c 24             	mov    %ebx,(%esp)
    2446:	e8 e5 63 01 00       	call   18830 <async_answer_0>
    244b:	89 34 24             	mov    %esi,(%esp)
    244e:	e8 2d 2e 00 00       	call   5280 <fun_del_ref>
    2453:	e9 58 f2 ff ff       	jmp    16b0 <devman_connection+0x100>
    2458:	c7 44 24 08 f2 2f 02 	movl   $0x22ff2,0x8(%esp)
    245f:	00 
    2460:	c7 44 24 04 04 00 00 	movl   $0x4,0x4(%esp)
    2467:	00 
    2468:	c7 04 24 ff ff ff ff 	movl   $0xffffffff,(%esp)
    246f:	c7 45 90 00 00 00 00 	movl   $0x0,-0x70(%ebp)
    2476:	e8 d5 e7 00 00       	call   10c50 <log_msg>
    247b:	8d 45 90             	lea    -0x70(%ebp),%eax
    247e:	c7 44 24 14 00 00 00 	movl   $0x0,0x14(%esp)
    2485:	00 
    2486:	c7 44 24 10 00 00 00 	movl   $0x0,0x10(%esp)
    248d:	00 
    248e:	c7 44 24 0c 00 00 00 	movl   $0x0,0xc(%esp)
    2495:	00 
    2496:	c7 44 24 08 00 00 00 	movl   $0x0,0x8(%esp)
    249d:	00 
    249e:	c7 44 24 04 01 00 00 	movl   $0x1,0x4(%esp)
    24a5:	00 
    24a6:	89 04 24             	mov    %eax,(%esp)
    24a9:	e8 a2 7e 01 00       	call   1a350 <async_data_write_accept>
    24ae:	85 c0                	test   %eax,%eax
    24b0:	0f 85 5c 05 00 00    	jne    2a12 <devman_connection+0x1462>
    24b6:	8b 45 90             	mov    -0x70(%ebp),%eax
    24b9:	c7 44 24 08 1c 2b 02 	movl   $0x22b1c,0x8(%esp)
    24c0:	00 
    24c1:	89 44 24 0c          	mov    %eax,0xc(%esp)
    24c5:	c7 44 24 04 04 00 00 	movl   $0x4,0x4(%esp)
    24cc:	00 
    24cd:	c7 04 24 ff ff ff ff 	movl   $0xffffffff,(%esp)
    24d4:	e8 77 e7 00 00       	call   10c50 <log_msg>
    24d9:	8b 45 90             	mov    -0x70(%ebp),%eax
    24dc:	89 44 24 04          	mov    %eax,0x4(%esp)
    24e0:	c7 04 24 20 65 02 00 	movl   $0x26520,(%esp)
    24e7:	e8 c4 19 00 00       	call   3eb0 <find_driver>
    24ec:	89 c3                	mov    %eax,%ebx
    24ee:	8b 45 90             	mov    -0x70(%ebp),%eax
    24f1:	85 db                	test   %ebx,%ebx
    24f3:	0f 84 a1 09 00 00    	je     2e9a <devman_connection+0x18ea>
    24f9:	89 04 24             	mov    %eax,(%esp)
    24fc:	e8 ff 38 01 00       	call   15e00 <free>
    2501:	8d 53 28             	lea    0x28(%ebx),%edx
    2504:	89 14 24             	mov    %edx,(%esp)
    2507:	c7 45 90 00 00 00 00 	movl   $0x0,-0x70(%ebp)
    250e:	89 55 84             	mov    %edx,-0x7c(%ebp)
    2511:	e8 5a a4 00 00       	call   c970 <fibril_mutex_lock>
    2516:	8b 43 0c             	mov    0xc(%ebx),%eax
    2519:	85 c0                	test   %eax,%eax
    251b:	0f 85 25 03 00 00    	jne    2846 <devman_connection+0x1296>
    2521:	8b 43 08             	mov    0x8(%ebx),%eax
    2524:	85 c0                	test   %eax,%eax
    2526:	0f 85 65 02 00 00    	jne    2791 <devman_connection+0x11e1>
    252c:	8b 43 10             	mov    0x10(%ebx),%eax
    252f:	c7 44 24 08 64 2b 02 	movl   $0x22b64,0x8(%esp)
    2536:	00 
    2537:	89 44 24 0c          	mov    %eax,0xc(%esp)
    253b:	c7 44 24 04 03 00 00 	movl   $0x3,0x4(%esp)
    2542:	00 
    2543:	c7 04 24 ff ff ff ff 	movl   $0xffffffff,(%esp)
    254a:	e8 01 e7 00 00       	call   10c50 <log_msg>
    254f:	c7 43 08 01 00 00 00 	movl   $0x1,0x8(%ebx)
    2556:	8b 43 10             	mov    0x10(%ebx),%eax
    2559:	c7 44 24 08 84 2b 02 	movl   $0x22b84,0x8(%esp)
    2560:	00 
    2561:	89 44 24 0c          	mov    %eax,0xc(%esp)
    2565:	c7 44 24 04 04 00 00 	movl   $0x4,0x4(%esp)
    256c:	00 
    256d:	c7 04 24 ff ff ff ff 	movl   $0xffffffff,(%esp)
    2574:	e8 d7 e6 00 00       	call   10c50 <log_msg>
    2579:	c7 04 24 01 00 00 00 	movl   $0x1,(%esp)
    2580:	e8 4b 85 01 00       	call   1aad0 <async_callback_receive>
    2585:	89 43 0c             	mov    %eax,0xc(%ebx)
    2588:	85 c0                	test   %eax,%eax
    258a:	0f 84 80 09 00 00    	je     2f10 <devman_connection+0x1960>
    2590:	89 04 24             	mov    %eax,(%esp)
    2593:	c7 44 24 0c 00 00 00 	movl   $0x0,0xc(%esp)
    259a:	00 
    259b:	c7 44 24 08 00 00 00 	movl   $0x0,0x8(%esp)
    25a2:	00 
    25a3:	c7 44 24 04 01 00 00 	movl   $0x1,0x4(%esp)
    25aa:	00 
    25ab:	e8 e0 69 01 00       	call   18f90 <async_sess_args_set>
    25b0:	8b 43 10             	mov    0x10(%ebx),%eax
    25b3:	89 44 24 0c          	mov    %eax,0xc(%esp)
    25b7:	c7 44 24 08 ac 2b 02 	movl   $0x22bac,0x8(%esp)
    25be:	00 
    25bf:	c7 44 24 04 03 00 00 	movl   $0x3,0x4(%esp)
    25c6:	00 
    25c7:	c7 04 24 ff ff ff ff 	movl   $0xffffffff,(%esp)
    25ce:	e8 7d e6 00 00       	call   10c50 <log_msg>
    25d3:	89 5c 24 04          	mov    %ebx,0x4(%esp)
    25d7:	c7 04 24 d0 10 00 00 	movl   $0x10d0,(%esp)
    25de:	e8 ad 9e 00 00       	call   c490 <fibril_create>
    25e3:	85 c0                	test   %eax,%eax
    25e5:	0f 84 7e 07 00 00    	je     2d69 <devman_connection+0x17b9>
    25eb:	89 04 24             	mov    %eax,(%esp)
    25ee:	e8 dd 9f 00 00       	call   c5d0 <fibril_add_ready>
    25f3:	8b 55 84             	mov    -0x7c(%ebp),%edx
    25f6:	89 14 24             	mov    %edx,(%esp)
    25f9:	e8 92 a4 00 00       	call   ca90 <fibril_mutex_unlock>
    25fe:	c7 44 24 04 00 00 00 	movl   $0x0,0x4(%esp)
    2605:	00 
    2606:	89 34 24             	mov    %esi,(%esp)
    2609:	e8 22 62 01 00       	call   18830 <async_answer_0>
    260e:	89 5f 10             	mov    %ebx,0x10(%edi)
    2611:	89 3c 24             	mov    %edi,(%esp)
    2614:	e8 77 a4 00 00       	call   ca90 <fibril_mutex_unlock>
    2619:	e9 22 f0 ff ff       	jmp    1640 <devman_connection+0x90>
    261e:	66 90                	xchg   %ax,%ax
    2620:	c7 04 24 48 65 02 00 	movl   $0x26548,(%esp)
    2627:	e8 a4 a7 00 00       	call   cdd0 <fibril_rwlock_read_unlock>
    262c:	c7 44 24 04 ff ff ff 	movl   $0xffffffff,0x4(%esp)
    2633:	ff 
    2634:	89 34 24             	mov    %esi,(%esp)
    2637:	e8 f4 61 01 00       	call   18830 <async_answer_0>
    263c:	e9 ff ef ff ff       	jmp    1640 <devman_connection+0x90>
    2641:	c7 04 24 48 65 02 00 	movl   $0x26548,(%esp)
    2648:	89 95 70 ff ff ff    	mov    %edx,-0x90(%ebp)
    264e:	e8 7d a7 00 00       	call   cdd0 <fibril_rwlock_read_unlock>
    2653:	8b 95 70 ff ff ff    	mov    -0x90(%ebp),%edx
    2659:	89 d0                	mov    %edx,%eax
    265b:	e8 c0 ea ff ff       	call   1120 <online_function>
    2660:	8b 95 70 ff ff ff    	mov    -0x90(%ebp),%edx
    2666:	85 c0                	test   %eax,%eax
    2668:	0f 85 88 01 00 00    	jne    27f6 <devman_connection+0x1246>
    266e:	89 14 24             	mov    %edx,(%esp)
    2671:	89 95 70 ff ff ff    	mov    %edx,-0x90(%ebp)
    2677:	e8 44 2c 00 00       	call   52c0 <fun_busy_unlock>
    267c:	8b 95 70 ff ff ff    	mov    -0x90(%ebp),%edx
    2682:	89 14 24             	mov    %edx,(%esp)
    2685:	e8 f6 2b 00 00       	call   5280 <fun_del_ref>
    268a:	c7 44 24 04 00 00 00 	movl   $0x0,0x4(%esp)
    2691:	00 
    2692:	89 34 24             	mov    %esi,(%esp)
    2695:	e8 96 61 01 00       	call   18830 <async_answer_0>
    269a:	e9 a1 ef ff ff       	jmp    1640 <devman_connection+0x90>
    269f:	c7 04 24 48 65 02 00 	movl   $0x26548,(%esp)
    26a6:	89 95 70 ff ff ff    	mov    %edx,-0x90(%ebp)
    26ac:	e8 7f a7 00 00       	call   ce30 <fibril_rwlock_write_unlock>
    26b1:	c7 04 24 48 65 02 00 	movl   $0x26548,(%esp)
    26b8:	e8 33 a6 00 00       	call   ccf0 <fibril_rwlock_write_lock>
    26bd:	8b 95 70 ff ff ff    	mov    -0x90(%ebp),%edx
    26c3:	83 7a 04 01          	cmpl   $0x1,0x4(%edx)
    26c7:	0f 84 78 04 00 00    	je     2b45 <devman_connection+0x1595>
    26cd:	83 7a 20 01          	cmpl   $0x1,0x20(%edx)
    26d1:	0f 84 35 02 00 00    	je     290c <devman_connection+0x135c>
    26d7:	8b 42 40             	mov    0x40(%edx),%eax
    26da:	89 95 70 ff ff ff    	mov    %edx,-0x90(%ebp)
    26e0:	89 04 24             	mov    %eax,(%esp)
    26e3:	e8 78 46 00 00       	call   6d60 <loc_service_unregister>
    26e8:	8b 95 70 ff ff ff    	mov    -0x90(%ebp),%edx
    26ee:	85 c0                	test   %eax,%eax
    26f0:	0f 85 85 08 00 00    	jne    2f7b <devman_connection+0x19cb>
    26f6:	c7 42 40 00 00 00 00 	movl   $0x0,0x40(%edx)
    26fd:	c7 42 04 01 00 00 00 	movl   $0x1,0x4(%edx)
    2704:	c7 04 24 48 65 02 00 	movl   $0x26548,(%esp)
    270b:	89 95 70 ff ff ff    	mov    %edx,-0x90(%ebp)
    2711:	e8 1a a7 00 00       	call   ce30 <fibril_rwlock_write_unlock>
    2716:	8b 95 70 ff ff ff    	mov    -0x90(%ebp),%edx
    271c:	e9 4d ff ff ff       	jmp    266e <devman_connection+0x10be>
    2721:	c7 04 24 48 65 02 00 	movl   $0x26548,(%esp)
    2728:	e8 03 a7 00 00       	call   ce30 <fibril_rwlock_write_unlock>
    272d:	89 1c 24             	mov    %ebx,(%esp)
    2730:	e8 8b 2b 00 00       	call   52c0 <fun_busy_unlock>
    2735:	89 1c 24             	mov    %ebx,(%esp)
    2738:	e8 43 2b 00 00       	call   5280 <fun_del_ref>
    273d:	e9 81 f6 ff ff       	jmp    1dc3 <devman_connection+0x813>
    2742:	89 95 70 ff ff ff    	mov    %edx,-0x90(%ebp)
    2748:	e8 83 a6 00 00       	call   cdd0 <fibril_rwlock_read_unlock>
    274d:	8b 45 98             	mov    -0x68(%ebp),%eax
    2750:	8b 95 70 ff ff ff    	mov    -0x90(%ebp),%edx
    2756:	89 44 24 08          	mov    %eax,0x8(%esp)
    275a:	8b 45 94             	mov    -0x6c(%ebp),%eax
    275d:	89 54 24 04          	mov    %edx,0x4(%esp)
    2761:	89 04 24             	mov    %eax,(%esp)
    2764:	e8 97 76 01 00       	call   19e00 <async_data_read_finalize>
    2769:	8b 95 70 ff ff ff    	mov    -0x90(%ebp),%edx
    276f:	89 14 24             	mov    %edx,(%esp)
    2772:	89 c6                	mov    %eax,%esi
    2774:	e8 87 36 01 00       	call   15e00 <free>
    2779:	8b 45 9c             	mov    -0x64(%ebp),%eax
    277c:	89 44 24 08          	mov    %eax,0x8(%esp)
    2780:	89 74 24 04          	mov    %esi,0x4(%esp)
    2784:	89 1c 24             	mov    %ebx,(%esp)
    2787:	e8 e4 60 01 00       	call   18870 <async_answer_1>
    278c:	e9 1f ef ff ff       	jmp    16b0 <devman_connection+0x100>
    2791:	83 f8 02             	cmp    $0x2,%eax
    2794:	0f 85 bc fd ff ff    	jne    2556 <devman_connection+0xfa6>
    279a:	c7 44 24 08 7b 00 00 	movl   $0x7b,0x8(%esp)
    27a1:	00 
    27a2:	c7 44 24 04 d0 2f 02 	movl   $0x22fd0,0x4(%esp)
    27a9:	00 
    27aa:	c7 04 24 27 30 02 00 	movl   $0x23027,(%esp)
    27b1:	e8 9a dd 01 00       	call   20550 <assert_abort>
    27b6:	c7 44 24 08 fc 2a 02 	movl   $0x22afc,0x8(%esp)
    27bd:	00 
    27be:	c7 44 24 04 01 00 00 	movl   $0x1,0x4(%esp)
    27c5:	00 
    27c6:	c7 04 24 ff ff ff ff 	movl   $0xffffffff,(%esp)
    27cd:	e8 7e e4 00 00       	call   10c50 <log_msg>
    27d2:	e9 01 ee ff ff       	jmp    15d8 <devman_connection+0x28>
    27d7:	c7 04 24 48 65 02 00 	movl   $0x26548,(%esp)
    27de:	e8 4d a6 00 00       	call   ce30 <fibril_rwlock_write_unlock>
    27e3:	8b 95 70 ff ff ff    	mov    -0x90(%ebp),%edx
    27e9:	89 14 24             	mov    %edx,(%esp)
    27ec:	e8 4f 27 00 00       	call   4f40 <dev_del_ref>
    27f1:	e9 cd f5 ff ff       	jmp    1dc3 <devman_connection+0x813>
    27f6:	89 14 24             	mov    %edx,(%esp)
    27f9:	89 85 6c ff ff ff    	mov    %eax,-0x94(%ebp)
    27ff:	e8 bc 2a 00 00       	call   52c0 <fun_busy_unlock>
    2804:	8b 95 70 ff ff ff    	mov    -0x90(%ebp),%edx
    280a:	89 14 24             	mov    %edx,(%esp)
    280d:	e9 a4 fb ff ff       	jmp    23b6 <devman_connection+0xe06>
    2812:	c7 04 24 48 65 02 00 	movl   $0x26548,(%esp)
    2819:	e8 b2 a5 00 00       	call   cdd0 <fibril_rwlock_read_unlock>
    281e:	8b 45 94             	mov    -0x6c(%ebp),%eax
    2821:	c7 44 24 04 fe ff ff 	movl   $0xfffffffe,0x4(%esp)
    2828:	ff 
    2829:	89 04 24             	mov    %eax,(%esp)
    282c:	e8 ff 5f 01 00       	call   18830 <async_answer_0>
    2831:	c7 44 24 04 fe ff ff 	movl   $0xfffffffe,0x4(%esp)
    2838:	ff 
    2839:	89 1c 24             	mov    %ebx,(%esp)
    283c:	e8 ef 5f 01 00       	call   18830 <async_answer_0>
    2841:	e9 6a ee ff ff       	jmp    16b0 <devman_connection+0x100>
    2846:	8b 43 10             	mov    0x10(%ebx),%eax
    2849:	c7 44 24 08 09 30 02 	movl   $0x23009,0x8(%esp)
    2850:	00 
    2851:	89 44 24 0c          	mov    %eax,0xc(%esp)
    2855:	c7 44 24 04 01 00 00 	movl   $0x1,0x4(%esp)
    285c:	00 
    285d:	c7 04 24 ff ff ff ff 	movl   $0xffffffff,(%esp)
    2864:	31 db                	xor    %ebx,%ebx
    2866:	e8 e5 e3 00 00       	call   10c50 <log_msg>
    286b:	8b 55 84             	mov    -0x7c(%ebp),%edx
    286e:	89 14 24             	mov    %edx,(%esp)
    2871:	e8 1a a2 00 00       	call   ca90 <fibril_mutex_unlock>
    2876:	c7 44 24 04 f7 ff ff 	movl   $0xfffffff7,0x4(%esp)
    287d:	ff 
    287e:	89 34 24             	mov    %esi,(%esp)
    2881:	e8 aa 5f 01 00       	call   18830 <async_answer_0>
    2886:	e9 83 fd ff ff       	jmp    260e <devman_connection+0x105e>
    288b:	8b 55 84             	mov    -0x7c(%ebp),%edx
    288e:	c7 04 24 40 65 02 00 	movl   $0x26540,(%esp)
    2895:	89 54 24 04          	mov    %edx,0x4(%esp)
    2899:	e8 c2 21 00 00       	call   4a60 <driver_dev_gone>
    289e:	c7 04 24 48 65 02 00 	movl   $0x26548,(%esp)
    28a5:	89 85 6c ff ff ff    	mov    %eax,-0x94(%ebp)
    28ab:	e8 60 a3 00 00       	call   cc10 <fibril_rwlock_read_lock>
    28b0:	8b 85 6c ff ff ff    	mov    -0x94(%ebp),%eax
    28b6:	85 c0                	test   %eax,%eax
    28b8:	0f 84 93 fa ff ff    	je     2351 <devman_connection+0xda1>
    28be:	c7 44 24 08 60 2e 02 	movl   $0x22e60,0x8(%esp)
    28c5:	00 
    28c6:	c7 44 24 04 01 00 00 	movl   $0x1,0x4(%esp)
    28cd:	00 
    28ce:	c7 04 24 ff ff ff ff 	movl   $0xffffffff,(%esp)
    28d5:	89 85 6c ff ff ff    	mov    %eax,-0x94(%ebp)
    28db:	e8 70 e3 00 00       	call   10c50 <log_msg>
    28e0:	8b 55 84             	mov    -0x7c(%ebp),%edx
    28e3:	c7 42 18 03 00 00 00 	movl   $0x3,0x18(%edx)
    28ea:	c7 04 24 48 65 02 00 	movl   $0x26548,(%esp)
    28f1:	e8 da a4 00 00       	call   cdd0 <fibril_rwlock_read_unlock>
    28f6:	8b 55 84             	mov    -0x7c(%ebp),%edx
    28f9:	89 14 24             	mov    %edx,(%esp)
    28fc:	e8 3f 26 00 00       	call   4f40 <dev_del_ref>
    2901:	8b 85 6c ff ff ff    	mov    -0x94(%ebp),%eax
    2907:	e9 99 fa ff ff       	jmp    23a5 <devman_connection+0xdf5>
    290c:	8b 42 24             	mov    0x24(%edx),%eax
    290f:	c7 44 24 08 62 30 02 	movl   $0x23062,0x8(%esp)
    2916:	00 
    2917:	89 44 24 0c          	mov    %eax,0xc(%esp)
    291b:	c7 44 24 04 04 00 00 	movl   $0x4,0x4(%esp)
    2922:	00 
    2923:	c7 04 24 ff ff ff ff 	movl   $0xffffffff,(%esp)
    292a:	89 95 70 ff ff ff    	mov    %edx,-0x90(%ebp)
    2930:	e8 1b e3 00 00       	call   10c50 <log_msg>
    2935:	8b 95 70 ff ff ff    	mov    -0x90(%ebp),%edx
    293b:	8b 5a 34             	mov    0x34(%edx),%ebx
    293e:	85 db                	test   %ebx,%ebx
    2940:	0f 84 b7 fd ff ff    	je     26fd <devman_connection+0x114d>
    2946:	89 1c 24             	mov    %ebx,(%esp)
    2949:	e8 e2 25 00 00       	call   4f30 <dev_add_ref>
    294e:	8b 43 18             	mov    0x18(%ebx),%eax
    2951:	c7 04 24 48 65 02 00 	movl   $0x26548,(%esp)
    2958:	89 45 84             	mov    %eax,-0x7c(%ebp)
    295b:	e8 d0 a4 00 00       	call   ce30 <fibril_rwlock_write_unlock>
    2960:	8b 95 70 ff ff ff    	mov    -0x90(%ebp),%edx
    2966:	83 7d 84 01          	cmpl   $0x1,-0x7c(%ebp)
    296a:	0f 84 3e 04 00 00    	je     2dae <devman_connection+0x17fe>
    2970:	c7 04 24 48 65 02 00 	movl   $0x26548,(%esp)
    2977:	89 95 70 ff ff ff    	mov    %edx,-0x90(%ebp)
    297d:	e8 8e a2 00 00       	call   cc10 <fibril_rwlock_read_lock>
    2982:	8d 43 0c             	lea    0xc(%ebx),%eax
    2985:	39 43 10             	cmp    %eax,0x10(%ebx)
    2988:	8b 95 70 ff ff ff    	mov    -0x90(%ebp),%edx
    298e:	0f 85 e2 04 00 00    	jne    2e76 <devman_connection+0x18c6>
    2994:	8b 43 14             	mov    0x14(%ebx),%eax
    2997:	c7 04 24 48 65 02 00 	movl   $0x26548,(%esp)
    299e:	89 85 6c ff ff ff    	mov    %eax,-0x94(%ebp)
    29a4:	89 95 70 ff ff ff    	mov    %edx,-0x90(%ebp)
    29aa:	e8 21 a4 00 00       	call   cdd0 <fibril_rwlock_read_unlock>
    29af:	8b 85 6c ff ff ff    	mov    -0x94(%ebp),%eax
    29b5:	85 c0                	test   %eax,%eax
    29b7:	8b 95 70 ff ff ff    	mov    -0x90(%ebp),%edx
    29bd:	74 16                	je     29d5 <devman_connection+0x1425>
    29bf:	89 5c 24 04          	mov    %ebx,0x4(%esp)
    29c3:	c7 04 24 40 65 02 00 	movl   $0x26540,(%esp)
    29ca:	e8 41 13 00 00       	call   3d10 <detach_driver>
    29cf:	8b 95 70 ff ff ff    	mov    -0x90(%ebp),%edx
    29d5:	c7 04 24 48 65 02 00 	movl   $0x26548,(%esp)
    29dc:	89 95 70 ff ff ff    	mov    %edx,-0x90(%ebp)
    29e2:	e8 09 a3 00 00       	call   ccf0 <fibril_rwlock_write_lock>
    29e7:	89 5c 24 04          	mov    %ebx,0x4(%esp)
    29eb:	c7 04 24 40 65 02 00 	movl   $0x26540,(%esp)
    29f2:	e8 69 2a 00 00       	call   5460 <remove_dev_node>
    29f7:	89 1c 24             	mov    %ebx,(%esp)
    29fa:	e8 41 25 00 00       	call   4f40 <dev_del_ref>
    29ff:	89 1c 24             	mov    %ebx,(%esp)
    2a02:	e8 39 25 00 00       	call   4f40 <dev_del_ref>
    2a07:	8b 95 70 ff ff ff    	mov    -0x90(%ebp),%edx
    2a0d:	e9 eb fc ff ff       	jmp    26fd <devman_connection+0x114d>
    2a12:	89 44 24 04          	mov    %eax,0x4(%esp)
    2a16:	89 34 24             	mov    %esi,(%esp)
    2a19:	e8 12 5e 01 00       	call   18830 <async_answer_0>
    2a1e:	31 db                	xor    %ebx,%ebx
    2a20:	e9 e9 fb ff ff       	jmp    260e <devman_connection+0x105e>
    2a25:	89 95 70 ff ff ff    	mov    %edx,-0x90(%ebp)
    2a2b:	e8 10 27 00 00       	call   5140 <create_fun_node>
    2a30:	89 04 24             	mov    %eax,(%esp)
    2a33:	89 45 80             	mov    %eax,-0x80(%ebp)
    2a36:	e8 35 28 00 00       	call   5270 <fun_add_ref>
    2a3b:	8b 45 80             	mov    -0x80(%ebp),%eax
    2a3e:	89 04 24             	mov    %eax,(%esp)
    2a41:	e8 2a 28 00 00       	call   5270 <fun_add_ref>
    2a46:	8b 45 80             	mov    -0x80(%ebp),%eax
    2a49:	89 58 20             	mov    %ebx,0x20(%eax)
    2a4c:	89 04 24             	mov    %eax,(%esp)
    2a4f:	e8 4c 28 00 00       	call   52a0 <fun_busy_lock>
    2a54:	8b 45 8c             	mov    -0x74(%ebp),%eax
    2a57:	8b 95 70 ff ff ff    	mov    -0x90(%ebp),%edx
    2a5d:	89 44 24 08          	mov    %eax,0x8(%esp)
    2a61:	8b 45 80             	mov    -0x80(%ebp),%eax
    2a64:	89 54 24 0c          	mov    %edx,0xc(%esp)
    2a68:	89 44 24 04          	mov    %eax,0x4(%esp)
    2a6c:	c7 04 24 40 65 02 00 	movl   $0x26540,(%esp)
    2a73:	e8 78 2a 00 00       	call   54f0 <insert_fun_node>
    2a78:	8b 95 70 ff ff ff    	mov    -0x90(%ebp),%edx
    2a7e:	84 c0                	test   %al,%al
    2a80:	c7 04 24 48 65 02 00 	movl   $0x26548,(%esp)
    2a87:	0f 85 f8 00 00 00    	jne    2b85 <devman_connection+0x15d5>
    2a8d:	e8 9e a3 00 00       	call   ce30 <fibril_rwlock_write_unlock>
    2a92:	8b 95 70 ff ff ff    	mov    -0x90(%ebp),%edx
    2a98:	89 14 24             	mov    %edx,(%esp)
    2a9b:	e8 a0 24 00 00       	call   4f40 <dev_del_ref>
    2aa0:	8b 45 80             	mov    -0x80(%ebp),%eax
    2aa3:	89 04 24             	mov    %eax,(%esp)
    2aa6:	e8 15 28 00 00       	call   52c0 <fun_busy_unlock>
    2aab:	8b 45 80             	mov    -0x80(%ebp),%eax
    2aae:	89 04 24             	mov    %eax,(%esp)
    2ab1:	e8 ca 27 00 00       	call   5280 <fun_del_ref>
    2ab6:	8b 45 80             	mov    -0x80(%ebp),%eax
    2ab9:	89 04 24             	mov    %eax,(%esp)
    2abc:	e8 df 26 00 00       	call   51a0 <delete_fun_node>
    2ac1:	c7 44 24 04 fe ff ff 	movl   $0xfffffffe,0x4(%esp)
    2ac8:	ff 
    2ac9:	89 34 24             	mov    %esi,(%esp)
    2acc:	e8 5f 5d 01 00       	call   18830 <async_answer_0>
    2ad1:	e9 6a eb ff ff       	jmp    1640 <devman_connection+0x90>
    2ad6:	8b 55 84             	mov    -0x7c(%ebp),%edx
    2ad9:	8b 42 14             	mov    0x14(%edx),%eax
    2adc:	c7 04 24 48 65 02 00 	movl   $0x26548,(%esp)
    2ae3:	89 85 6c ff ff ff    	mov    %eax,-0x94(%ebp)
    2ae9:	e8 e2 a2 00 00       	call   cdd0 <fibril_rwlock_read_unlock>
    2aee:	8b 85 6c ff ff ff    	mov    -0x94(%ebp),%eax
    2af4:	85 c0                	test   %eax,%eax
    2af6:	74 13                	je     2b0b <devman_connection+0x155b>
    2af8:	8b 55 84             	mov    -0x7c(%ebp),%edx
    2afb:	c7 04 24 40 65 02 00 	movl   $0x26540,(%esp)
    2b02:	89 54 24 04          	mov    %edx,0x4(%esp)
    2b06:	e8 05 12 00 00       	call   3d10 <detach_driver>
    2b0b:	c7 04 24 48 65 02 00 	movl   $0x26548,(%esp)
    2b12:	e8 d9 a1 00 00       	call   ccf0 <fibril_rwlock_write_lock>
    2b17:	8b 55 84             	mov    -0x7c(%ebp),%edx
    2b1a:	89 54 24 04          	mov    %edx,0x4(%esp)
    2b1e:	c7 04 24 40 65 02 00 	movl   $0x26540,(%esp)
    2b25:	e8 36 29 00 00       	call   5460 <remove_dev_node>
    2b2a:	8b 55 84             	mov    -0x7c(%ebp),%edx
    2b2d:	89 14 24             	mov    %edx,(%esp)
    2b30:	e8 0b 24 00 00       	call   4f40 <dev_del_ref>
    2b35:	8b 55 84             	mov    -0x7c(%ebp),%edx
    2b38:	89 14 24             	mov    %edx,(%esp)
    2b3b:	e8 00 24 00 00       	call   4f40 <dev_del_ref>
    2b40:	e9 b6 f1 ff ff       	jmp    1cfb <devman_connection+0x74b>
    2b45:	c7 04 24 48 65 02 00 	movl   $0x26548,(%esp)
    2b4c:	e8 df a2 00 00       	call   ce30 <fibril_rwlock_write_unlock>
    2b51:	8b 95 70 ff ff ff    	mov    -0x90(%ebp),%edx
    2b57:	8b 42 24             	mov    0x24(%edx),%eax
    2b5a:	c7 44 24 08 5c 2d 02 	movl   $0x22d5c,0x8(%esp)
    2b61:	00 
    2b62:	89 44 24 0c          	mov    %eax,0xc(%esp)
    2b66:	c7 44 24 04 02 00 00 	movl   $0x2,0x4(%esp)
    2b6d:	00 
    2b6e:	c7 04 24 ff ff ff ff 	movl   $0xffffffff,(%esp)
    2b75:	e8 d6 e0 00 00       	call   10c50 <log_msg>
    2b7a:	8b 95 70 ff ff ff    	mov    -0x90(%ebp),%edx
    2b80:	e9 e9 fa ff ff       	jmp    266e <devman_connection+0x10be>
    2b85:	89 95 70 ff ff ff    	mov    %edx,-0x90(%ebp)
    2b8b:	e8 a0 a2 00 00       	call   ce30 <fibril_rwlock_write_unlock>
    2b90:	8b 95 70 ff ff ff    	mov    -0x90(%ebp),%edx
    2b96:	89 14 24             	mov    %edx,(%esp)
    2b99:	e8 a2 23 00 00       	call   4f40 <dev_del_ref>
    2b9e:	8b 5d 80             	mov    -0x80(%ebp),%ebx
    2ba1:	8b 45 84             	mov    -0x7c(%ebp),%eax
    2ba4:	83 c3 38             	add    $0x38,%ebx
    2ba7:	c7 85 7c ff ff ff 00 	movl   $0x0,-0x84(%ebp)
    2bae:	00 00 00 
    2bb1:	8d 55 c4             	lea    -0x3c(%ebp),%edx
    2bb4:	85 c0                	test   %eax,%eax
    2bb6:	0f 84 0d 01 00 00    	je     2cc9 <devman_connection+0x1719>
    2bbc:	89 b5 74 ff ff ff    	mov    %esi,-0x8c(%ebp)
    2bc2:	89 bd 78 ff ff ff    	mov    %edi,-0x88(%ebp)
    2bc8:	89 d6                	mov    %edx,%esi
    2bca:	c7 04 24 10 00 00 00 	movl   $0x10,(%esp)
    2bd1:	e8 1a 31 01 00       	call   15cf0 <malloc>
    2bd6:	c7 44 24 08 10 00 00 	movl   $0x10,0x8(%esp)
    2bdd:	00 
    2bde:	c7 44 24 04 00 00 00 	movl   $0x0,0x4(%esp)
    2be5:	00 
    2be6:	89 04 24             	mov    %eax,(%esp)
    2be9:	89 c7                	mov    %eax,%edi
    2beb:	e8 20 5b 00 00       	call   8710 <memset>
    2bf0:	c7 44 24 04 00 00 00 	movl   $0x0,0x4(%esp)
    2bf7:	00 
    2bf8:	89 34 24             	mov    %esi,(%esp)
    2bfb:	e8 00 46 01 00       	call   17200 <async_get_call_timeout>
    2c00:	81 7d c4 02 04 00 00 	cmpl   $0x402,-0x3c(%ebp)
    2c07:	0f 85 ff 01 00 00    	jne    2e0c <devman_connection+0x185c>
    2c0d:	85 ff                	test   %edi,%edi
    2c0f:	0f 84 1d 03 00 00    	je     2f32 <devman_connection+0x1982>
    2c15:	c7 44 24 04 00 00 00 	movl   $0x0,0x4(%esp)
    2c1c:	00 
    2c1d:	89 04 24             	mov    %eax,(%esp)
    2c20:	e8 0b 5c 01 00       	call   18830 <async_answer_0>
    2c25:	8b 45 c8             	mov    -0x38(%ebp),%eax
    2c28:	8d 55 90             	lea    -0x70(%ebp),%edx
    2c2b:	89 47 0c             	mov    %eax,0xc(%edi)
    2c2e:	c7 44 24 14 00 00 00 	movl   $0x0,0x14(%esp)
    2c35:	00 
    2c36:	c7 44 24 10 00 00 00 	movl   $0x0,0x10(%esp)
    2c3d:	00 
    2c3e:	c7 44 24 0c 00 00 00 	movl   $0x0,0xc(%esp)
    2c45:	00 
    2c46:	c7 44 24 08 00 00 00 	movl   $0x0,0x8(%esp)
    2c4d:	00 
    2c4e:	c7 44 24 04 01 00 00 	movl   $0x1,0x4(%esp)
    2c55:	00 
    2c56:	89 14 24             	mov    %edx,(%esp)
    2c59:	e8 f2 76 01 00       	call   1a350 <async_data_write_accept>
    2c5e:	8b 4d 90             	mov    -0x70(%ebp),%ecx
    2c61:	89 4f 08             	mov    %ecx,0x8(%edi)
    2c64:	85 c0                	test   %eax,%eax
    2c66:	0f 85 96 00 00 00    	jne    2d02 <devman_connection+0x1752>
    2c6c:	8b 03                	mov    (%ebx),%eax
    2c6e:	89 5f 04             	mov    %ebx,0x4(%edi)
    2c71:	89 07                	mov    %eax,(%edi)
    2c73:	8b 03                	mov    (%ebx),%eax
    2c75:	89 3b                	mov    %edi,(%ebx)
    2c77:	89 78 04             	mov    %edi,0x4(%eax)
    2c7a:	8b 47 0c             	mov    0xc(%edi),%eax
    2c7d:	89 44 24 10          	mov    %eax,0x10(%esp)
    2c81:	89 4c 24 0c          	mov    %ecx,0xc(%esp)
    2c85:	c7 44 24 08 e0 2c 02 	movl   $0x22ce0,0x8(%esp)
    2c8c:	00 
    2c8d:	c7 44 24 04 04 00 00 	movl   $0x4,0x4(%esp)
    2c94:	00 
    2c95:	c7 04 24 ff ff ff ff 	movl   $0xffffffff,(%esp)
    2c9c:	e8 af df 00 00       	call   10c50 <log_msg>
    2ca1:	8b 8d 7c ff ff ff    	mov    -0x84(%ebp),%ecx
    2ca7:	41                   	inc    %ecx
    2ca8:	8b 55 84             	mov    -0x7c(%ebp),%edx
    2cab:	89 8d 7c ff ff ff    	mov    %ecx,-0x84(%ebp)
    2cb1:	39 95 7c ff ff ff    	cmp    %edx,-0x84(%ebp)
    2cb7:	0f 85 0d ff ff ff    	jne    2bca <devman_connection+0x161a>
    2cbd:	8b bd 78 ff ff ff    	mov    -0x88(%ebp),%edi
    2cc3:	8b b5 74 ff ff ff    	mov    -0x8c(%ebp),%esi
    2cc9:	8b 45 80             	mov    -0x80(%ebp),%eax
    2ccc:	e8 4f e4 ff ff       	call   1120 <online_function>
    2cd1:	89 c3                	mov    %eax,%ebx
    2cd3:	8b 45 80             	mov    -0x80(%ebp),%eax
    2cd6:	89 04 24             	mov    %eax,(%esp)
    2cd9:	85 db                	test   %ebx,%ebx
    2cdb:	0f 84 00 02 00 00    	je     2ee1 <devman_connection+0x1931>
    2ce1:	e8 da 25 00 00       	call   52c0 <fun_busy_unlock>
    2ce6:	8b 45 80             	mov    -0x80(%ebp),%eax
    2ce9:	89 04 24             	mov    %eax,(%esp)
    2cec:	e8 8f 25 00 00       	call   5280 <fun_del_ref>
    2cf1:	89 5c 24 04          	mov    %ebx,0x4(%esp)
    2cf5:	89 34 24             	mov    %esi,(%esp)
    2cf8:	e8 33 5b 01 00       	call   18830 <async_answer_0>
    2cfd:	e9 3e e9 ff ff       	jmp    1640 <devman_connection+0x90>
    2d02:	89 fb                	mov    %edi,%ebx
    2d04:	8b b5 74 ff ff ff    	mov    -0x8c(%ebp),%esi
    2d0a:	8b bd 78 ff ff ff    	mov    -0x88(%ebp),%edi
    2d10:	85 c9                	test   %ecx,%ecx
    2d12:	74 14                	je     2d28 <devman_connection+0x1778>
    2d14:	89 0c 24             	mov    %ecx,(%esp)
    2d17:	89 85 6c ff ff ff    	mov    %eax,-0x94(%ebp)
    2d1d:	e8 de 30 01 00       	call   15e00 <free>
    2d22:	8b 85 6c ff ff ff    	mov    -0x94(%ebp),%eax
    2d28:	89 1c 24             	mov    %ebx,(%esp)
    2d2b:	89 85 6c ff ff ff    	mov    %eax,-0x94(%ebp)
    2d31:	e8 ca 30 01 00       	call   15e00 <free>
    2d36:	8b 85 6c ff ff ff    	mov    -0x94(%ebp),%eax
    2d3c:	89 04 24             	mov    %eax,(%esp)
    2d3f:	e8 3c 92 00 00       	call   bf80 <str_error>
    2d44:	c7 44 24 08 b8 2c 02 	movl   $0x22cb8,0x8(%esp)
    2d4b:	00 
    2d4c:	89 44 24 0c          	mov    %eax,0xc(%esp)
    2d50:	c7 44 24 04 01 00 00 	movl   $0x1,0x4(%esp)
    2d57:	00 
    2d58:	c7 04 24 ff ff ff ff 	movl   $0xffffffff,(%esp)
    2d5f:	e8 ec de 00 00       	call   10c50 <log_msg>
    2d64:	e9 60 ff ff ff       	jmp    2cc9 <devman_connection+0x1719>
    2d69:	8b 43 10             	mov    0x10(%ebx),%eax
    2d6c:	c7 44 24 08 e4 2b 02 	movl   $0x22be4,0x8(%esp)
    2d73:	00 
    2d74:	89 44 24 0c          	mov    %eax,0xc(%esp)
    2d78:	c7 44 24 04 01 00 00 	movl   $0x1,0x4(%esp)
    2d7f:	00 
    2d80:	c7 04 24 ff ff ff ff 	movl   $0xffffffff,(%esp)
    2d87:	31 db                	xor    %ebx,%ebx
    2d89:	e8 c2 de 00 00       	call   10c50 <log_msg>
    2d8e:	8b 55 84             	mov    -0x7c(%ebp),%edx
    2d91:	89 14 24             	mov    %edx,(%esp)
    2d94:	e8 f7 9c 00 00       	call   ca90 <fibril_mutex_unlock>
    2d99:	c7 44 24 04 fe ff ff 	movl   $0xfffffffe,0x4(%esp)
    2da0:	ff 
    2da1:	89 34 24             	mov    %esi,(%esp)
    2da4:	e8 87 5a 01 00       	call   18830 <async_answer_0>
    2da9:	e9 60 f8 ff ff       	jmp    260e <devman_connection+0x105e>
    2dae:	89 5c 24 04          	mov    %ebx,0x4(%esp)
    2db2:	c7 04 24 40 65 02 00 	movl   $0x26540,(%esp)
    2db9:	e8 b2 1b 00 00       	call   4970 <driver_dev_remove>
    2dbe:	8b 95 70 ff ff ff    	mov    -0x90(%ebp),%edx
    2dc4:	85 c0                	test   %eax,%eax
    2dc6:	0f 84 a4 fb ff ff    	je     2970 <devman_connection+0x13c0>
    2dcc:	89 1c 24             	mov    %ebx,(%esp)
    2dcf:	bb f5 ff ff ff       	mov    $0xfffffff5,%ebx
    2dd4:	e8 67 21 00 00       	call   4f40 <dev_del_ref>
    2dd9:	8b 95 70 ff ff ff    	mov    -0x90(%ebp),%edx
    2ddf:	89 14 24             	mov    %edx,(%esp)
    2de2:	89 95 70 ff ff ff    	mov    %edx,-0x90(%ebp)
    2de8:	e8 d3 24 00 00       	call   52c0 <fun_busy_unlock>
    2ded:	8b 95 70 ff ff ff    	mov    -0x90(%ebp),%edx
    2df3:	89 14 24             	mov    %edx,(%esp)
    2df6:	e8 85 24 00 00       	call   5280 <fun_del_ref>
    2dfb:	89 5c 24 04          	mov    %ebx,0x4(%esp)
    2dff:	89 34 24             	mov    %esi,(%esp)
    2e02:	e8 29 5a 01 00       	call   18830 <async_answer_0>
    2e07:	e9 34 e8 ff ff       	jmp    1640 <devman_connection+0x90>
    2e0c:	c7 44 24 08 84 2c 02 	movl   $0x22c84,0x8(%esp)
    2e13:	00 
    2e14:	c7 44 24 04 01 00 00 	movl   $0x1,0x4(%esp)
    2e1b:	00 
    2e1c:	c7 04 24 ff ff ff ff 	movl   $0xffffffff,(%esp)
    2e23:	89 fb                	mov    %edi,%ebx
    2e25:	89 85 6c ff ff ff    	mov    %eax,-0x94(%ebp)
    2e2b:	8b b5 74 ff ff ff    	mov    -0x8c(%ebp),%esi
    2e31:	8b bd 78 ff ff ff    	mov    -0x88(%ebp),%edi
    2e37:	e8 14 de 00 00       	call   10c50 <log_msg>
    2e3c:	8b 85 6c ff ff ff    	mov    -0x94(%ebp),%eax
    2e42:	c7 44 24 04 f2 ff ff 	movl   $0xfffffff2,0x4(%esp)
    2e49:	ff 
    2e4a:	89 04 24             	mov    %eax,(%esp)
    2e4d:	e8 de 59 01 00       	call   18830 <async_answer_0>
    2e52:	85 db                	test   %ebx,%ebx
    2e54:	0f 84 6f fe ff ff    	je     2cc9 <devman_connection+0x1719>
    2e5a:	8b 43 08             	mov    0x8(%ebx),%eax
    2e5d:	85 c0                	test   %eax,%eax
    2e5f:	74 08                	je     2e69 <devman_connection+0x18b9>
    2e61:	89 04 24             	mov    %eax,(%esp)
    2e64:	e8 97 2f 01 00       	call   15e00 <free>
    2e69:	89 1c 24             	mov    %ebx,(%esp)
    2e6c:	e8 8f 2f 01 00       	call   15e00 <free>
    2e71:	e9 53 fe ff ff       	jmp    2cc9 <devman_connection+0x1719>
    2e76:	c7 04 24 48 65 02 00 	movl   $0x26548,(%esp)
    2e7d:	e8 4e 9f 00 00       	call   cdd0 <fibril_rwlock_read_unlock>
    2e82:	89 1c 24             	mov    %ebx,(%esp)
    2e85:	e8 b6 20 00 00       	call   4f40 <dev_del_ref>
    2e8a:	bb f7 fe ff ff       	mov    $0xfffffef7,%ebx
    2e8f:	8b 95 70 ff ff ff    	mov    -0x90(%ebp),%edx
    2e95:	e9 45 ff ff ff       	jmp    2ddf <devman_connection+0x182f>
    2e9a:	89 44 24 0c          	mov    %eax,0xc(%esp)
    2e9e:	c7 44 24 08 44 2b 02 	movl   $0x22b44,0x8(%esp)
    2ea5:	00 
    2ea6:	c7 44 24 04 01 00 00 	movl   $0x1,0x4(%esp)
    2ead:	00 
    2eae:	c7 04 24 ff ff ff ff 	movl   $0xffffffff,(%esp)
    2eb5:	e8 96 dd 00 00       	call   10c50 <log_msg>
    2eba:	8b 45 90             	mov    -0x70(%ebp),%eax
    2ebd:	89 04 24             	mov    %eax,(%esp)
    2ec0:	e8 3b 2f 01 00       	call   15e00 <free>
    2ec5:	c7 44 24 04 ff ff ff 	movl   $0xffffffff,0x4(%esp)
    2ecc:	ff 
    2ecd:	89 34 24             	mov    %esi,(%esp)
    2ed0:	c7 45 90 00 00 00 00 	movl   $0x0,-0x70(%ebp)
    2ed7:	e8 54 59 01 00       	call   18830 <async_answer_0>
    2edc:	e9 2d f7 ff ff       	jmp    260e <devman_connection+0x105e>
    2ee1:	e8 da 23 00 00       	call   52c0 <fun_busy_unlock>
    2ee6:	8b 45 80             	mov    -0x80(%ebp),%eax
    2ee9:	89 04 24             	mov    %eax,(%esp)
    2eec:	e8 8f 23 00 00       	call   5280 <fun_del_ref>
    2ef1:	8b 55 80             	mov    -0x80(%ebp),%edx
    2ef4:	8b 42 18             	mov    0x18(%edx),%eax
    2ef7:	c7 44 24 04 00 00 00 	movl   $0x0,0x4(%esp)
    2efe:	00 
    2eff:	89 44 24 08          	mov    %eax,0x8(%esp)
    2f03:	89 34 24             	mov    %esi,(%esp)
    2f06:	e8 65 59 01 00       	call   18870 <async_answer_1>
    2f0b:	e9 30 e7 ff ff       	jmp    1640 <devman_connection+0x90>
    2f10:	8b 55 84             	mov    -0x7c(%ebp),%edx
    2f13:	31 db                	xor    %ebx,%ebx
    2f15:	89 14 24             	mov    %edx,(%esp)
    2f18:	e8 73 9b 00 00       	call   ca90 <fibril_mutex_unlock>
    2f1d:	c7 44 24 04 f5 ff ff 	movl   $0xfffffff5,0x4(%esp)
    2f24:	ff 
    2f25:	89 34 24             	mov    %esi,(%esp)
    2f28:	e8 03 59 01 00       	call   18830 <async_answer_0>
    2f2d:	e9 dc f6 ff ff       	jmp    260e <devman_connection+0x105e>
    2f32:	c7 44 24 08 2d 30 02 	movl   $0x2302d,0x8(%esp)
    2f39:	00 
    2f3a:	c7 44 24 04 01 00 00 	movl   $0x1,0x4(%esp)
    2f41:	00 
    2f42:	c7 04 24 ff ff ff ff 	movl   $0xffffffff,(%esp)
    2f49:	89 85 6c ff ff ff    	mov    %eax,-0x94(%ebp)
    2f4f:	8b bd 78 ff ff ff    	mov    -0x88(%ebp),%edi
    2f55:	8b b5 74 ff ff ff    	mov    -0x8c(%ebp),%esi
    2f5b:	e8 f0 dc 00 00       	call   10c50 <log_msg>
    2f60:	8b 85 6c ff ff ff    	mov    -0x94(%ebp),%eax
    2f66:	c7 44 24 04 fe ff ff 	movl   $0xfffffffe,0x4(%esp)
    2f6d:	ff 
    2f6e:	89 04 24             	mov    %eax,(%esp)
    2f71:	e8 ba 58 01 00       	call   18830 <async_answer_0>
    2f76:	e9 4e fd ff ff       	jmp    2cc9 <devman_connection+0x1719>
    2f7b:	c7 04 24 48 65 02 00 	movl   $0x26548,(%esp)
    2f82:	bb f7 fe ff ff       	mov    $0xfffffef7,%ebx
    2f87:	e8 a4 9e 00 00       	call   ce30 <fibril_rwlock_write_unlock>
    2f8c:	c7 44 24 08 80 2d 02 	movl   $0x22d80,0x8(%esp)
    2f93:	00 
    2f94:	c7 44 24 04 01 00 00 	movl   $0x1,0x4(%esp)
    2f9b:	00 
    2f9c:	c7 04 24 ff ff ff ff 	movl   $0xffffffff,(%esp)
    2fa3:	e8 a8 dc 00 00       	call   10c50 <log_msg>
    2fa8:	8b 95 70 ff ff ff    	mov    -0x90(%ebp),%edx
    2fae:	e9 2c fe ff ff       	jmp    2ddf <devman_connection+0x182f>
    2fb3:	66 90                	xchg   %ax,%ax
    2fb5:	66 90                	xchg   %ax,%ax
    2fb7:	66 90                	xchg   %ax,%ax
    2fb9:	66 90                	xchg   %ax,%ax
    2fbb:	66 90                	xchg   %ax,%ax
    2fbd:	66 90                	xchg   %ax,%ax
    2fbf:	90                   	nop

00002fc0 <main>:
    2fc0:	55                   	push   %ebp
    2fc1:	89 e5                	mov    %esp,%ebp
    2fc3:	53                   	push   %ebx
    2fc4:	83 e4 f0             	and    $0xfffffff0,%esp
    2fc7:	83 ec 10             	sub    $0x10,%esp
    2fca:	c7 44 24 04 7f 30 02 	movl   $0x2307f,0x4(%esp)
    2fd1:	00 
    2fd2:	c7 04 24 86 30 02 00 	movl   $0x23086,(%esp)
    2fd9:	e8 c2 d9 00 00       	call   109a0 <printf>
    2fde:	c7 04 24 7f 30 02 00 	movl   $0x2307f,(%esp)
    2fe5:	e8 96 da 00 00       	call   10a80 <log_init>
    2fea:	89 c3                	mov    %eax,%ebx
    2fec:	85 c0                	test   %eax,%eax
    2fee:	0f 85 4c 01 00 00    	jne    3140 <main+0x180>
    2ff4:	c7 04 24 d0 12 00 00 	movl   $0x12d0,(%esp)
    2ffb:	e8 60 3f 01 00       	call   16f60 <async_set_client_data_constructor>
    3000:	c7 04 24 c0 10 00 00 	movl   $0x10c0,(%esp)
    3007:	e8 94 3f 01 00       	call   16fa0 <async_set_client_data_destructor>
    300c:	c7 04 24 b0 15 00 00 	movl   $0x15b0,(%esp)
    3013:	e8 c8 3f 01 00       	call   16fe0 <async_set_client_connection>
    3018:	c7 44 24 08 e4 2e 02 	movl   $0x22ee4,0x8(%esp)
    301f:	00 
    3020:	c7 44 24 04 04 00 00 	movl   $0x4,0x4(%esp)
    3027:	00 
    3028:	c7 04 24 ff ff ff ff 	movl   $0xffffffff,(%esp)
    302f:	e8 1c dc 00 00       	call   10c50 <log_msg>
    3034:	c7 04 24 20 65 02 00 	movl   $0x26520,(%esp)
    303b:	e8 20 03 00 00       	call   3360 <init_driver_list>
    3040:	c7 44 24 04 a2 30 02 	movl   $0x230a2,0x4(%esp)
    3047:	00 
    3048:	c7 04 24 20 65 02 00 	movl   $0x26520,(%esp)
    304f:	e8 fc 0f 00 00       	call   4050 <lookup_available_drivers>
    3054:	85 c0                	test   %eax,%eax
    3056:	0f 84 84 00 00 00    	je     30e0 <main+0x120>
    305c:	c7 44 24 08 14 2f 02 	movl   $0x22f14,0x8(%esp)
    3063:	00 
    3064:	c7 44 24 04 04 00 00 	movl   $0x4,0x4(%esp)
    306b:	00 
    306c:	c7 04 24 ff ff ff ff 	movl   $0xffffffff,(%esp)
    3073:	e8 d8 db 00 00       	call   10c50 <log_msg>
    3078:	c7 44 24 04 20 65 02 	movl   $0x26520,0x4(%esp)
    307f:	00 
    3080:	c7 04 24 40 65 02 00 	movl   $0x26540,(%esp)
    3087:	e8 84 1c 00 00       	call   4d10 <init_device_tree>
    308c:	84 c0                	test   %al,%al
    308e:	0f 84 c2 00 00 00    	je     3156 <main+0x196>
    3094:	c7 04 24 7f 30 02 00 	movl   $0x2307f,(%esp)
    309b:	e8 e0 36 00 00       	call   6780 <loc_server_register>
    30a0:	c7 04 24 64 65 76 6e 	movl   $0x6e766564,(%esp)
    30a7:	e8 f4 33 01 00       	call   164a0 <service_register>
    30ac:	89 c3                	mov    %eax,%ebx
    30ae:	85 c0                	test   %eax,%eax
    30b0:	75 70                	jne    3122 <main+0x162>
    30b2:	c7 44 24 04 7f 30 02 	movl   $0x2307f,0x4(%esp)
    30b9:	00 
    30ba:	c7 04 24 b9 30 02 00 	movl   $0x230b9,(%esp)
    30c1:	e8 da d8 00 00       	call   109a0 <printf>
    30c6:	c7 04 24 00 00 00 00 	movl   $0x0,(%esp)
    30cd:	e8 ee b1 00 00       	call   e2c0 <task_retval>
    30d2:	c7 04 24 01 00 00 00 	movl   $0x1,(%esp)
    30d9:	e8 c2 90 00 00       	call   c1a0 <fibril_switch>
    30de:	eb 3b                	jmp    311b <main+0x15b>
    30e0:	c7 44 24 08 a7 30 02 	movl   $0x230a7,0x8(%esp)
    30e7:	00 
    30e8:	c7 44 24 04 00 00 00 	movl   $0x0,0x4(%esp)
    30ef:	00 
    30f0:	c7 04 24 ff ff ff ff 	movl   $0xffffffff,(%esp)
    30f7:	e8 54 db 00 00       	call   10c50 <log_msg>
    30fc:	c7 44 24 08 90 2f 02 	movl   $0x22f90,0x8(%esp)
    3103:	00 
    3104:	c7 44 24 04 01 00 00 	movl   $0x1,0x4(%esp)
    310b:	00 
    310c:	c7 04 24 ff ff ff ff 	movl   $0xffffffff,(%esp)
    3113:	83 cb ff             	or     $0xffffffff,%ebx
    3116:	e8 35 db 00 00       	call   10c50 <log_msg>
    311b:	89 d8                	mov    %ebx,%eax
    311d:	8b 5d fc             	mov    -0x4(%ebp),%ebx
    3120:	c9                   	leave  
    3121:	c3                   	ret    
    3122:	c7 44 24 08 6c 2f 02 	movl   $0x22f6c,0x8(%esp)
    3129:	00 
    312a:	c7 44 24 04 01 00 00 	movl   $0x1,0x4(%esp)
    3131:	00 
    3132:	c7 04 24 ff ff ff ff 	movl   $0xffffffff,(%esp)
    3139:	e8 12 db 00 00       	call   10c50 <log_msg>
    313e:	eb db                	jmp    311b <main+0x15b>
    3140:	c7 44 24 04 7f 30 02 	movl   $0x2307f,0x4(%esp)
    3147:	00 
    3148:	c7 04 24 b8 2e 02 00 	movl   $0x22eb8,(%esp)
    314f:	e8 4c d8 00 00       	call   109a0 <printf>
    3154:	eb c5                	jmp    311b <main+0x15b>
    3156:	c7 44 24 08 48 2f 02 	movl   $0x22f48,0x8(%esp)
    315d:	00 
    315e:	c7 44 24 04 00 00 00 	movl   $0x0,0x4(%esp)
    3165:	00 
    3166:	c7 04 24 ff ff ff ff 	movl   $0xffffffff,(%esp)
    316d:	e8 de da 00 00       	call   10c50 <log_msg>
    3172:	eb 88                	jmp    30fc <main+0x13c>
    3174:	66 90                	xchg   %ax,%ax
    3176:	66 90                	xchg   %ax,%ax
    3178:	66 90                	xchg   %ax,%ax
    317a:	66 90                	xchg   %ax,%ax
    317c:	66 90                	xchg   %ax,%ax
    317e:	66 90                	xchg   %ax,%ax

00003180 <handle_key_hash>:
    3180:	55                   	push   %ebp
    3181:	89 e5                	mov    %esp,%ebp
    3183:	8b 45 08             	mov    0x8(%ebp),%eax
    3186:	5d                   	pop    %ebp
    3187:	8b 00                	mov    (%eax),%eax
    3189:	c3                   	ret    
    318a:	8d b6 00 00 00 00    	lea    0x0(%esi),%esi

00003190 <devman_devices_hash>:
    3190:	55                   	push   %ebp
    3191:	89 e5                	mov    %esp,%ebp
    3193:	8b 45 08             	mov    0x8(%ebp),%eax
    3196:	5d                   	pop    %ebp
    3197:	8b 40 e0             	mov    -0x20(%eax),%eax
    319a:	c3                   	ret    
    319b:	90                   	nop
    319c:	8d 74 26 00          	lea    0x0(%esi,%eiz,1),%esi

000031a0 <devman_functions_hash>:
    31a0:	55                   	push   %ebp
    31a1:	89 e5                	mov    %esp,%ebp
    31a3:	8b 45 08             	mov    0x8(%ebp),%eax
    31a6:	5d                   	pop    %ebp
    31a7:	8b 40 d4             	mov    -0x2c(%eax),%eax
    31aa:	c3                   	ret    
    31ab:	90                   	nop
    31ac:	8d 74 26 00          	lea    0x0(%esi,%eiz,1),%esi

000031b0 <devman_devices_key_equal>:
    31b0:	55                   	push   %ebp
    31b1:	89 e5                	mov    %esp,%ebp
    31b3:	8b 45 08             	mov    0x8(%ebp),%eax
    31b6:	8b 55 0c             	mov    0xc(%ebp),%edx
    31b9:	5d                   	pop    %ebp
    31ba:	8b 08                	mov    (%eax),%ecx
    31bc:	39 4a e0             	cmp    %ecx,-0x20(%edx)
    31bf:	0f 94 c0             	sete   %al
    31c2:	c3                   	ret    
    31c3:	8d b6 00 00 00 00    	lea    0x0(%esi),%esi
    31c9:	8d bc 27 00 00 00 00 	lea    0x0(%edi,%eiz,1),%edi

000031d0 <devman_functions_key_equal>:
    31d0:	55                   	push   %ebp
    31d1:	89 e5                	mov    %esp,%ebp
    31d3:	8b 45 08             	mov    0x8(%ebp),%eax
    31d6:	8b 55 0c             	mov    0xc(%ebp),%edx
    31d9:	5d                   	pop    %ebp
    31da:	8b 08                	mov    (%eax),%ecx
    31dc:	39 4a d4             	cmp    %ecx,-0x2c(%edx)
    31df:	0f 94 c0             	sete   %al
    31e2:	c3                   	ret    
    31e3:	8d b6 00 00 00 00    	lea    0x0(%esi),%esi
    31e9:	8d bc 27 00 00 00 00 	lea    0x0(%edi,%eiz,1),%edi

000031f0 <service_id_key_hash>:
    31f0:	55                   	push   %ebp
    31f1:	89 e5                	mov    %esp,%ebp
    31f3:	8b 45 08             	mov    0x8(%ebp),%eax
    31f6:	5d                   	pop    %ebp
    31f7:	8b 00                	mov    (%eax),%eax
    31f9:	c3                   	ret    
    31fa:	8d b6 00 00 00 00    	lea    0x0(%esi),%esi

00003200 <loc_functions_hash>:
    3200:	55                   	push   %ebp
    3201:	89 e5                	mov    %esp,%ebp
    3203:	8b 45 08             	mov    0x8(%ebp),%eax
    3206:	5d                   	pop    %ebp
    3207:	8b 40 f4             	mov    -0xc(%eax),%eax
    320a:	c3                   	ret    
    320b:	90                   	nop
    320c:	8d 74 26 00          	lea    0x0(%esi,%eiz,1),%esi

00003210 <loc_functions_key_equal>:
    3210:	55                   	push   %ebp
    3211:	89 e5                	mov    %esp,%ebp
    3213:	8b 45 08             	mov    0x8(%ebp),%eax
    3216:	8b 55 0c             	mov    0xc(%ebp),%edx
    3219:	5d                   	pop    %ebp
    321a:	8b 08                	mov    (%eax),%ecx
    321c:	39 4a f4             	cmp    %ecx,-0xc(%edx)
    321f:	0f 94 c0             	sete   %al
    3222:	c3                   	ret    
    3223:	8d b6 00 00 00 00    	lea    0x0(%esi),%esi
    3229:	8d bc 27 00 00 00 00 	lea    0x0(%edi,%eiz,1),%edi

00003230 <set_fun_path>:
    3230:	55                   	push   %ebp
    3231:	83 c0 08             	add    $0x8,%eax
    3234:	89 e5                	mov    %esp,%ebp
    3236:	57                   	push   %edi
    3237:	56                   	push   %esi
    3238:	53                   	push   %ebx
    3239:	83 ec 1c             	sub    $0x1c,%esp
    323c:	89 d3                	mov    %edx,%ebx
    323e:	89 cf                	mov    %ecx,%edi
    3240:	89 04 24             	mov    %eax,(%esp)
    3243:	e8 a8 9c 00 00       	call   cef0 <fibril_rwlock_is_write_locked>
    3248:	84 c0                	test   %al,%al
    324a:	0f 84 c4 00 00 00    	je     3314 <set_fun_path+0xe4>
    3250:	8b 43 1c             	mov    0x1c(%ebx),%eax
    3253:	85 c0                	test   %eax,%eax
    3255:	0f 84 9d 00 00 00    	je     32f8 <set_fun_path+0xc8>
    325b:	89 04 24             	mov    %eax,(%esp)
    325e:	e8 3d 64 00 00       	call   96a0 <str_size>
    3263:	85 ff                	test   %edi,%edi
    3265:	89 c6                	mov    %eax,%esi
    3267:	0f 84 c3 00 00 00    	je     3330 <set_fun_path+0x100>
    326d:	8b 47 24             	mov    0x24(%edi),%eax
    3270:	89 04 24             	mov    %eax,(%esp)
    3273:	e8 28 64 00 00       	call   96a0 <str_size>
    3278:	8d 74 06 02          	lea    0x2(%esi,%eax,1),%esi
    327c:	89 34 24             	mov    %esi,(%esp)
    327f:	e8 6c 2a 01 00       	call   15cf0 <malloc>
    3284:	89 43 24             	mov    %eax,0x24(%ebx)
    3287:	85 c0                	test   %eax,%eax
    3289:	74 4d                	je     32d8 <set_fun_path+0xa8>
    328b:	8b 57 24             	mov    0x24(%edi),%edx
    328e:	89 04 24             	mov    %eax,(%esp)
    3291:	89 54 24 08          	mov    %edx,0x8(%esp)
    3295:	89 74 24 04          	mov    %esi,0x4(%esp)
    3299:	e8 b2 6f 00 00       	call   a250 <str_cpy>
    329e:	8b 43 24             	mov    0x24(%ebx),%eax
    32a1:	89 04 24             	mov    %eax,(%esp)
    32a4:	c7 44 24 08 4b 31 02 	movl   $0x2314b,0x8(%esp)
    32ab:	00 
    32ac:	89 74 24 04          	mov    %esi,0x4(%esp)
    32b0:	e8 bb 73 00 00       	call   a670 <str_append>
    32b5:	8b 43 1c             	mov    0x1c(%ebx),%eax
    32b8:	89 44 24 08          	mov    %eax,0x8(%esp)
    32bc:	8b 43 24             	mov    0x24(%ebx),%eax
    32bf:	89 04 24             	mov    %eax,(%esp)
    32c2:	89 74 24 04          	mov    %esi,0x4(%esp)
    32c6:	e8 a5 73 00 00       	call   a670 <str_append>
    32cb:	b0 01                	mov    $0x1,%al
    32cd:	83 c4 1c             	add    $0x1c,%esp
    32d0:	5b                   	pop    %ebx
    32d1:	5e                   	pop    %esi
    32d2:	5f                   	pop    %edi
    32d3:	5d                   	pop    %ebp
    32d4:	c3                   	ret    
    32d5:	8d 76 00             	lea    0x0(%esi),%esi
    32d8:	c7 44 24 08 04 33 02 	movl   $0x23304,0x8(%esp)
    32df:	00 
    32e0:	c7 44 24 04 01 00 00 	movl   $0x1,0x4(%esp)
    32e7:	00 
    32e8:	c7 04 24 ff ff ff ff 	movl   $0xffffffff,(%esp)
    32ef:	e8 5c d9 00 00       	call   10c50 <log_msg>
    32f4:	31 c0                	xor    %eax,%eax
    32f6:	eb d5                	jmp    32cd <set_fun_path+0x9d>
    32f8:	c7 44 24 08 f8 04 00 	movl   $0x4f8,0x8(%esp)
    32ff:	00 
    3300:	c7 44 24 04 30 31 02 	movl   $0x23130,0x4(%esp)
    3307:	00 
    3308:	c7 04 24 39 31 02 00 	movl   $0x23139,(%esp)
    330f:	e8 3c d2 01 00       	call   20550 <assert_abort>
    3314:	c7 44 24 08 f7 04 00 	movl   $0x4f7,0x8(%esp)
    331b:	00 
    331c:	c7 44 24 04 30 31 02 	movl   $0x23130,0x4(%esp)
    3323:	00 
    3324:	c7 04 24 d4 32 02 00 	movl   $0x232d4,(%esp)
    332b:	e8 20 d2 01 00       	call   20550 <assert_abort>
    3330:	46                   	inc    %esi
    3331:	89 34 24             	mov    %esi,(%esp)
    3334:	e8 b7 29 01 00       	call   15cf0 <malloc>
    3339:	89 43 24             	mov    %eax,0x24(%ebx)
    333c:	85 c0                	test   %eax,%eax
    333e:	74 98                	je     32d8 <set_fun_path+0xa8>
    3340:	8b 53 1c             	mov    0x1c(%ebx),%edx
    3343:	89 74 24 04          	mov    %esi,0x4(%esp)
    3347:	89 04 24             	mov    %eax,(%esp)
    334a:	89 54 24 08          	mov    %edx,0x8(%esp)
    334e:	e8 fd 6e 00 00       	call   a250 <str_cpy>
    3353:	83 c4 1c             	add    $0x1c,%esp
    3356:	b0 01                	mov    $0x1,%al
    3358:	5b                   	pop    %ebx
    3359:	5e                   	pop    %esi
    335a:	5f                   	pop    %edi
    335b:	5d                   	pop    %ebp
    335c:	c3                   	ret    
    335d:	8d 76 00             	lea    0x0(%esi),%esi

00003360 <init_driver_list>:
    3360:	55                   	push   %ebp
    3361:	89 e5                	mov    %esp,%ebp
    3363:	83 ec 18             	sub    $0x18,%esp
    3366:	8b 45 08             	mov    0x8(%ebp),%eax
    3369:	85 c0                	test   %eax,%eax
    336b:	74 11                	je     337e <init_driver_list+0x1e>
    336d:	89 00                	mov    %eax,(%eax)
    336f:	89 40 04             	mov    %eax,0x4(%eax)
    3372:	83 c0 08             	add    $0x8,%eax
    3375:	89 45 08             	mov    %eax,0x8(%ebp)
    3378:	c9                   	leave  
    3379:	e9 d2 95 00 00       	jmp    c950 <fibril_mutex_initialize>
    337e:	c7 44 24 08 98 00 00 	movl   $0x98,0x8(%esp)
    3385:	00 
    3386:	c7 44 24 04 30 31 02 	movl   $0x23130,0x4(%esp)
    338d:	00 
    338e:	c7 04 24 59 31 02 00 	movl   $0x23159,(%esp)
    3395:	e8 b6 d1 01 00       	call   20550 <assert_abort>
    339a:	8d b6 00 00 00 00    	lea    0x0(%esi),%esi

000033a0 <create_driver>:
    33a0:	55                   	push   %ebp
    33a1:	89 e5                	mov    %esp,%ebp
    33a3:	53                   	push   %ebx
    33a4:	83 ec 14             	sub    $0x14,%esp
    33a7:	c7 04 24 38 00 00 00 	movl   $0x38,(%esp)
    33ae:	e8 3d 29 01 00       	call   15cf0 <malloc>
    33b3:	89 c3                	mov    %eax,%ebx
    33b5:	85 c0                	test   %eax,%eax
    33b7:	74 3c                	je     33f5 <create_driver+0x55>
    33b9:	c7 44 24 08 38 00 00 	movl   $0x38,0x8(%esp)
    33c0:	00 
    33c1:	c7 44 24 04 00 00 00 	movl   $0x0,0x4(%esp)
    33c8:	00 
    33c9:	89 04 24             	mov    %eax,(%esp)
    33cc:	e8 3f 53 00 00       	call   8710 <memset>
    33d1:	8d 43 18             	lea    0x18(%ebx),%eax
    33d4:	89 43 18             	mov    %eax,0x18(%ebx)
    33d7:	89 43 1c             	mov    %eax,0x1c(%ebx)
    33da:	8d 43 20             	lea    0x20(%ebx),%eax
    33dd:	89 43 20             	mov    %eax,0x20(%ebx)
    33e0:	89 43 24             	mov    %eax,0x24(%ebx)
    33e3:	8d 43 28             	lea    0x28(%ebx),%eax
    33e6:	89 04 24             	mov    %eax,(%esp)
    33e9:	e8 62 95 00 00       	call   c950 <fibril_mutex_initialize>
    33ee:	c7 43 0c 00 00 00 00 	movl   $0x0,0xc(%ebx)
    33f5:	83 c4 14             	add    $0x14,%esp
    33f8:	89 d8                	mov    %ebx,%eax
    33fa:	5b                   	pop    %ebx
    33fb:	5d                   	pop    %ebp
    33fc:	c3                   	ret    
    33fd:	8d 76 00             	lea    0x0(%esi),%esi

00003400 <add_driver>:
    3400:	55                   	push   %ebp
    3401:	89 e5                	mov    %esp,%ebp
    3403:	57                   	push   %edi
    3404:	56                   	push   %esi
    3405:	53                   	push   %ebx
    3406:	83 ec 1c             	sub    $0x1c,%esp
    3409:	8b 75 08             	mov    0x8(%ebp),%esi
    340c:	8b 5d 0c             	mov    0xc(%ebp),%ebx
    340f:	8d 7e 08             	lea    0x8(%esi),%edi
    3412:	89 3c 24             	mov    %edi,(%esp)
    3415:	e8 56 95 00 00       	call   c970 <fibril_mutex_lock>
    341a:	8b 46 04             	mov    0x4(%esi),%eax
    341d:	89 43 04             	mov    %eax,0x4(%ebx)
    3420:	89 33                	mov    %esi,(%ebx)
    3422:	8b 46 04             	mov    0x4(%esi),%eax
    3425:	89 5e 04             	mov    %ebx,0x4(%esi)
    3428:	89 18                	mov    %ebx,(%eax)
    342a:	89 3c 24             	mov    %edi,(%esp)
    342d:	e8 5e 96 00 00       	call   ca90 <fibril_mutex_unlock>
    3432:	8b 43 10             	mov    0x10(%ebx),%eax
    3435:	89 44 24 0c          	mov    %eax,0xc(%esp)
    3439:	c7 44 24 08 24 33 02 	movl   $0x23324,0x8(%esp)
    3440:	00 
    3441:	c7 44 24 04 03 00 00 	movl   $0x3,0x4(%esp)
    3448:	00 
    3449:	c7 04 24 ff ff ff ff 	movl   $0xffffffff,(%esp)
    3450:	e8 fb d7 00 00       	call   10c50 <log_msg>
    3455:	83 c4 1c             	add    $0x1c,%esp
    3458:	5b                   	pop    %ebx
    3459:	5e                   	pop    %esi
    345a:	5f                   	pop    %edi
    345b:	5d                   	pop    %ebp
    345c:	c3                   	ret    
    345d:	8d 76 00             	lea    0x0(%esi),%esi

00003460 <read_match_id>:
    3460:	55                   	push   %ebp
    3461:	89 e5                	mov    %esp,%ebp
    3463:	57                   	push   %edi
    3464:	56                   	push   %esi
    3465:	53                   	push   %ebx
    3466:	83 ec 2c             	sub    $0x2c,%esp
    3469:	8b 75 08             	mov    0x8(%ebp),%esi
    346c:	8b 06                	mov    (%esi),%eax
    346e:	89 04 24             	mov    %eax,(%esp)
    3471:	e8 0a 27 00 00       	call   5b80 <get_nonspace_len>
    3476:	89 c3                	mov    %eax,%ebx
    3478:	85 c0                	test   %eax,%eax
    347a:	74 3c                	je     34b8 <read_match_id+0x58>
    347c:	8d 78 01             	lea    0x1(%eax),%edi
    347f:	89 3c 24             	mov    %edi,(%esp)
    3482:	e8 69 28 01 00       	call   15cf0 <malloc>
    3487:	85 c0                	test   %eax,%eax
    3489:	74 2d                	je     34b8 <read_match_id+0x58>
    348b:	89 5c 24 0c          	mov    %ebx,0xc(%esp)
    348f:	8b 16                	mov    (%esi),%edx
    3491:	89 7c 24 04          	mov    %edi,0x4(%esp)
    3495:	89 04 24             	mov    %eax,(%esp)
    3498:	89 54 24 08          	mov    %edx,0x8(%esp)
    349c:	89 45 e4             	mov    %eax,-0x1c(%ebp)
    349f:	e8 9c 6f 00 00       	call   a440 <str_ncpy>
    34a4:	8b 06                	mov    (%esi),%eax
    34a6:	01 d8                	add    %ebx,%eax
    34a8:	89 06                	mov    %eax,(%esi)
    34aa:	8b 45 e4             	mov    -0x1c(%ebp),%eax
    34ad:	83 c4 2c             	add    $0x2c,%esp
    34b0:	5b                   	pop    %ebx
    34b1:	5e                   	pop    %esi
    34b2:	5f                   	pop    %edi
    34b3:	5d                   	pop    %ebp
    34b4:	c3                   	ret    
    34b5:	8d 76 00             	lea    0x0(%esi),%esi
    34b8:	83 c4 2c             	add    $0x2c,%esp
    34bb:	31 c0                	xor    %eax,%eax
    34bd:	5b                   	pop    %ebx
    34be:	5e                   	pop    %esi
    34bf:	5f                   	pop    %edi
    34c0:	5d                   	pop    %ebp
    34c1:	c3                   	ret    
    34c2:	8d b4 26 00 00 00 00 	lea    0x0(%esi,%eiz,1),%esi
    34c9:	8d bc 27 00 00 00 00 	lea    0x0(%edi,%eiz,1),%edi

000034d0 <parse_match_ids>:
    34d0:	55                   	push   %ebp
    34d1:	89 e5                	mov    %esp,%ebp
    34d3:	57                   	push   %edi
    34d4:	56                   	push   %esi
    34d5:	53                   	push   %ebx
    34d6:	83 ec 2c             	sub    $0x2c,%esp
    34d9:	8d 45 08             	lea    0x8(%ebp),%eax
    34dc:	8b 75 0c             	mov    0xc(%ebp),%esi
    34df:	c7 45 e4 00 00 00 00 	movl   $0x0,-0x1c(%ebp)
    34e6:	89 04 24             	mov    %eax,(%esp)
    34e9:	e8 42 26 00 00       	call   5b30 <skip_spaces>
    34ee:	84 c0                	test   %al,%al
    34f0:	0f 84 fa 00 00 00    	je     35f0 <parse_match_ids+0x120>
    34f6:	66 90                	xchg   %ax,%ax
    34f8:	8d 45 08             	lea    0x8(%ebp),%eax
    34fb:	c7 44 24 08 0a 00 00 	movl   $0xa,0x8(%esp)
    3502:	00 
    3503:	89 44 24 04          	mov    %eax,0x4(%esp)
    3507:	8b 45 08             	mov    0x8(%ebp),%eax
    350a:	89 04 24             	mov    %eax,(%esp)
    350d:	e8 fe 81 00 00       	call   b710 <strtoul>
    3512:	89 c3                	mov    %eax,%ebx
    3514:	8d 45 08             	lea    0x8(%ebp),%eax
    3517:	89 04 24             	mov    %eax,(%esp)
    351a:	e8 11 26 00 00       	call   5b30 <skip_spaces>
    351f:	84 c0                	test   %al,%al
    3521:	0f 84 c9 00 00 00    	je     35f0 <parse_match_ids+0x120>
    3527:	8b 45 08             	mov    0x8(%ebp),%eax
    352a:	89 04 24             	mov    %eax,(%esp)
    352d:	e8 4e 26 00 00       	call   5b80 <get_nonspace_len>
    3532:	89 c7                	mov    %eax,%edi
    3534:	85 c0                	test   %eax,%eax
    3536:	0f 84 b4 00 00 00    	je     35f0 <parse_match_ids+0x120>
    353c:	8d 48 01             	lea    0x1(%eax),%ecx
    353f:	89 0c 24             	mov    %ecx,(%esp)
    3542:	89 4d e0             	mov    %ecx,-0x20(%ebp)
    3545:	e8 a6 27 01 00       	call   15cf0 <malloc>
    354a:	8b 4d e0             	mov    -0x20(%ebp),%ecx
    354d:	89 c2                	mov    %eax,%edx
    354f:	85 c0                	test   %eax,%eax
    3551:	0f 84 99 00 00 00    	je     35f0 <parse_match_ids+0x120>
    3557:	8b 45 08             	mov    0x8(%ebp),%eax
    355a:	89 14 24             	mov    %edx,(%esp)
    355d:	89 4c 24 04          	mov    %ecx,0x4(%esp)
    3561:	89 7c 24 0c          	mov    %edi,0xc(%esp)
    3565:	89 44 24 08          	mov    %eax,0x8(%esp)
    3569:	89 55 e0             	mov    %edx,-0x20(%ebp)
    356c:	e8 cf 6e 00 00       	call   a440 <str_ncpy>
    3571:	8b 45 08             	mov    0x8(%ebp),%eax
    3574:	01 f8                	add    %edi,%eax
    3576:	c7 04 24 10 00 00 00 	movl   $0x10,(%esp)
    357d:	89 45 08             	mov    %eax,0x8(%ebp)
    3580:	e8 6b 27 01 00       	call   15cf0 <malloc>
    3585:	c7 44 24 08 10 00 00 	movl   $0x10,0x8(%esp)
    358c:	00 
    358d:	89 c7                	mov    %eax,%edi
    358f:	c7 44 24 04 00 00 00 	movl   $0x0,0x4(%esp)
    3596:	00 
    3597:	89 04 24             	mov    %eax,(%esp)
    359a:	e8 71 51 00 00       	call   8710 <memset>
    359f:	8b 55 e0             	mov    -0x20(%ebp),%edx
    35a2:	8b 46 04             	mov    0x4(%esi),%eax
    35a5:	89 57 08             	mov    %edx,0x8(%edi)
    35a8:	89 5f 0c             	mov    %ebx,0xc(%edi)
    35ab:	39 f0                	cmp    %esi,%eax
    35ad:	75 10                	jne    35bf <parse_match_ids+0xef>
    35af:	eb 13                	jmp    35c4 <parse_match_ids+0xf4>
    35b1:	8d b4 26 00 00 00 00 	lea    0x0(%esi,%eiz,1),%esi
    35b8:	8b 40 04             	mov    0x4(%eax),%eax
    35bb:	39 f0                	cmp    %esi,%eax
    35bd:	74 05                	je     35c4 <parse_match_ids+0xf4>
    35bf:	3b 58 0c             	cmp    0xc(%eax),%ebx
    35c2:	76 f4                	jbe    35b8 <parse_match_ids+0xe8>
    35c4:	8b 10                	mov    (%eax),%edx
    35c6:	89 47 04             	mov    %eax,0x4(%edi)
    35c9:	89 17                	mov    %edx,(%edi)
    35cb:	8b 4d e4             	mov    -0x1c(%ebp),%ecx
    35ce:	8b 10                	mov    (%eax),%edx
    35d0:	89 38                	mov    %edi,(%eax)
    35d2:	8d 45 08             	lea    0x8(%ebp),%eax
    35d5:	41                   	inc    %ecx
    35d6:	89 7a 04             	mov    %edi,0x4(%edx)
    35d9:	89 04 24             	mov    %eax,(%esp)
    35dc:	89 4d e4             	mov    %ecx,-0x1c(%ebp)
    35df:	e8 4c 25 00 00       	call   5b30 <skip_spaces>
    35e4:	84 c0                	test   %al,%al
    35e6:	0f 85 0c ff ff ff    	jne    34f8 <parse_match_ids+0x28>
    35ec:	8d 74 26 00          	lea    0x0(%esi,%eiz,1),%esi
    35f0:	8b 55 e4             	mov    -0x1c(%ebp),%edx
    35f3:	85 d2                	test   %edx,%edx
    35f5:	0f 9f c0             	setg   %al
    35f8:	83 c4 2c             	add    $0x2c,%esp
    35fb:	5b                   	pop    %ebx
    35fc:	5e                   	pop    %esi
    35fd:	5f                   	pop    %edi
    35fe:	5d                   	pop    %ebp
    35ff:	c3                   	ret    

00003600 <read_match_ids>:
    3600:	55                   	push   %ebp
    3601:	89 e5                	mov    %esp,%ebp
    3603:	57                   	push   %edi
    3604:	56                   	push   %esi
    3605:	53                   	push   %ebx
    3606:	83 ec 3c             	sub    $0x3c,%esp
    3609:	8b 75 08             	mov    0x8(%ebp),%esi
    360c:	89 74 24 0c          	mov    %esi,0xc(%esp)
    3610:	c7 44 24 08 5c 33 02 	movl   $0x2335c,0x8(%esp)
    3617:	00 
    3618:	c7 44 24 04 04 00 00 	movl   $0x4,0x4(%esp)
    361f:	00 
    3620:	c7 04 24 ff ff ff ff 	movl   $0xffffffff,(%esp)
    3627:	e8 24 d6 00 00       	call   10c50 <log_msg>
    362c:	c7 44 24 04 10 00 00 	movl   $0x10,0x4(%esp)
    3633:	00 
    3634:	89 34 24             	mov    %esi,(%esp)
    3637:	e8 14 af 01 00       	call   1e550 <open>
    363c:	89 c3                	mov    %eax,%ebx
    363e:	85 c0                	test   %eax,%eax
    3640:	0f 88 da 00 00 00    	js     3720 <read_match_ids+0x120>
    3646:	c7 44 24 0c 02 00 00 	movl   $0x2,0xc(%esp)
    364d:	00 
    364e:	c7 44 24 04 00 00 00 	movl   $0x0,0x4(%esp)
    3655:	00 
    3656:	c7 44 24 08 00 00 00 	movl   $0x0,0x8(%esp)
    365d:	00 
    365e:	89 04 24             	mov    %eax,(%esp)
    3661:	e8 da b6 01 00       	call   1ed40 <lseek>
    3666:	c7 44 24 0c 00 00 00 	movl   $0x0,0xc(%esp)
    366d:	00 
    366e:	89 c7                	mov    %eax,%edi
    3670:	c7 44 24 04 00 00 00 	movl   $0x0,0x4(%esp)
    3677:	00 
    3678:	c7 44 24 08 00 00 00 	movl   $0x0,0x8(%esp)
    367f:	00 
    3680:	89 1c 24             	mov    %ebx,(%esp)
    3683:	e8 b8 b6 01 00       	call   1ed40 <lseek>
    3688:	85 ff                	test   %edi,%edi
    368a:	74 6c                	je     36f8 <read_match_ids+0xf8>
    368c:	8d 47 01             	lea    0x1(%edi),%eax
    368f:	89 04 24             	mov    %eax,(%esp)
    3692:	e8 59 26 01 00       	call   15cf0 <malloc>
    3697:	85 c0                	test   %eax,%eax
    3699:	0f 84 f9 00 00 00    	je     3798 <read_match_ids+0x198>
    369f:	89 7c 24 08          	mov    %edi,0x8(%esp)
    36a3:	89 44 24 04          	mov    %eax,0x4(%esp)
    36a7:	89 1c 24             	mov    %ebx,(%esp)
    36aa:	89 45 e4             	mov    %eax,-0x1c(%ebp)
    36ad:	e8 ee b2 01 00       	call   1e9a0 <read_all>
    36b2:	8b 55 e4             	mov    -0x1c(%ebp),%edx
    36b5:	85 c0                	test   %eax,%eax
    36b7:	0f 8e ab 00 00 00    	jle    3768 <read_match_ids+0x168>
    36bd:	c6 04 02 00          	movb   $0x0,(%edx,%eax,1)
    36c1:	8b 45 0c             	mov    0xc(%ebp),%eax
    36c4:	89 14 24             	mov    %edx,(%esp)
    36c7:	89 44 24 04          	mov    %eax,0x4(%esp)
    36cb:	89 55 e4             	mov    %edx,-0x1c(%ebp)
    36ce:	e8 fd fd ff ff       	call   34d0 <parse_match_ids>
    36d3:	8b 55 e4             	mov    -0x1c(%ebp),%edx
    36d6:	89 c6                	mov    %eax,%esi
    36d8:	89 14 24             	mov    %edx,(%esp)
    36db:	e8 20 27 01 00       	call   15e00 <free>
    36e0:	89 1c 24             	mov    %ebx,(%esp)
    36e3:	e8 a8 af 01 00       	call   1e690 <close>
    36e8:	83 c4 3c             	add    $0x3c,%esp
    36eb:	89 f0                	mov    %esi,%eax
    36ed:	5b                   	pop    %ebx
    36ee:	5e                   	pop    %esi
    36ef:	5f                   	pop    %edi
    36f0:	5d                   	pop    %ebp
    36f1:	c3                   	ret    
    36f2:	8d b6 00 00 00 00    	lea    0x0(%esi),%esi
    36f8:	89 74 24 0c          	mov    %esi,0xc(%esp)
    36fc:	c7 44 24 08 a4 33 02 	movl   $0x233a4,0x8(%esp)
    3703:	00 
    3704:	c7 44 24 04 01 00 00 	movl   $0x1,0x4(%esp)
    370b:	00 
    370c:	c7 04 24 ff ff ff ff 	movl   $0xffffffff,(%esp)
    3713:	e8 38 d5 00 00       	call   10c50 <log_msg>
    3718:	31 f6                	xor    %esi,%esi
    371a:	31 d2                	xor    %edx,%edx
    371c:	eb ba                	jmp    36d8 <read_match_ids+0xd8>
    371e:	66 90                	xchg   %ax,%ax
    3720:	89 04 24             	mov    %eax,(%esp)
    3723:	e8 58 88 00 00       	call   bf80 <str_error>
    3728:	89 74 24 0c          	mov    %esi,0xc(%esp)
    372c:	89 44 24 10          	mov    %eax,0x10(%esp)
    3730:	c7 44 24 08 7c 33 02 	movl   $0x2337c,0x8(%esp)
    3737:	00 
    3738:	c7 44 24 04 01 00 00 	movl   $0x1,0x4(%esp)
    373f:	00 
    3740:	c7 04 24 ff ff ff ff 	movl   $0xffffffff,(%esp)
    3747:	e8 04 d5 00 00       	call   10c50 <log_msg>
    374c:	c7 04 24 00 00 00 00 	movl   $0x0,(%esp)
    3753:	e8 a8 26 01 00       	call   15e00 <free>
    3758:	83 c4 3c             	add    $0x3c,%esp
    375b:	31 f6                	xor    %esi,%esi
    375d:	5b                   	pop    %ebx
    375e:	89 f0                	mov    %esi,%eax
    3760:	5e                   	pop    %esi
    3761:	5f                   	pop    %edi
    3762:	5d                   	pop    %ebp
    3763:	c3                   	ret    
    3764:	8d 74 26 00          	lea    0x0(%esi,%eiz,1),%esi
    3768:	89 74 24 0c          	mov    %esi,0xc(%esp)
    376c:	89 44 24 10          	mov    %eax,0x10(%esp)
    3770:	c7 44 24 08 fc 33 02 	movl   $0x233fc,0x8(%esp)
    3777:	00 
    3778:	c7 44 24 04 01 00 00 	movl   $0x1,0x4(%esp)
    377f:	00 
    3780:	c7 04 24 ff ff ff ff 	movl   $0xffffffff,(%esp)
    3787:	31 f6                	xor    %esi,%esi
    3789:	e8 c2 d4 00 00       	call   10c50 <log_msg>
    378e:	8b 55 e4             	mov    -0x1c(%ebp),%edx
    3791:	e9 42 ff ff ff       	jmp    36d8 <read_match_ids+0xd8>
    3796:	66 90                	xchg   %ax,%ax
    3798:	89 74 24 0c          	mov    %esi,0xc(%esp)
    379c:	c7 44 24 08 c8 33 02 	movl   $0x233c8,0x8(%esp)
    37a3:	00 
    37a4:	c7 44 24 04 01 00 00 	movl   $0x1,0x4(%esp)
    37ab:	00 
    37ac:	c7 04 24 ff ff ff ff 	movl   $0xffffffff,(%esp)
    37b3:	89 45 e4             	mov    %eax,-0x1c(%ebp)
    37b6:	31 f6                	xor    %esi,%esi
    37b8:	e8 93 d4 00 00       	call   10c50 <log_msg>
    37bd:	8b 55 e4             	mov    -0x1c(%ebp),%edx
    37c0:	e9 13 ff ff ff       	jmp    36d8 <read_match_ids+0xd8>
    37c5:	8d 74 26 00          	lea    0x0(%esi,%eiz,1),%esi
    37c9:	8d bc 27 00 00 00 00 	lea    0x0(%edi,%eiz,1),%edi

000037d0 <get_driver_info>:
    37d0:	55                   	push   %ebp
    37d1:	89 e5                	mov    %esp,%ebp
    37d3:	57                   	push   %edi
    37d4:	56                   	push   %esi
    37d5:	53                   	push   %ebx
    37d6:	83 ec 5c             	sub    $0x5c,%esp
    37d9:	8b 4d 0c             	mov    0xc(%ebp),%ecx
    37dc:	8b 5d 10             	mov    0x10(%ebp),%ebx
    37df:	89 4c 24 10          	mov    %ecx,0x10(%esp)
    37e3:	8b 4d 08             	mov    0x8(%ebp),%ecx
    37e6:	89 4c 24 0c          	mov    %ecx,0xc(%esp)
    37ea:	c7 44 24 08 1c 34 02 	movl   $0x2341c,0x8(%esp)
    37f1:	00 
    37f2:	c7 44 24 04 04 00 00 	movl   $0x4,0x4(%esp)
    37f9:	00 
    37fa:	c7 04 24 ff ff ff ff 	movl   $0xffffffff,(%esp)
    3801:	e8 4a d4 00 00       	call   10c50 <log_msg>
    3806:	8b 45 0c             	mov    0xc(%ebp),%eax
    3809:	85 c0                	test   %eax,%eax
    380b:	0f 84 6e 01 00 00    	je     397f <get_driver_info+0x1af>
    3811:	8b 45 08             	mov    0x8(%ebp),%eax
    3814:	85 c0                	test   %eax,%eax
    3816:	0f 84 63 01 00 00    	je     397f <get_driver_info+0x1af>
    381c:	85 db                	test   %ebx,%ebx
    381e:	0f 84 5b 01 00 00    	je     397f <get_driver_info+0x1af>
    3824:	8b 4d 0c             	mov    0xc(%ebp),%ecx
    3827:	c7 44 24 08 6a 31 02 	movl   $0x2316a,0x8(%esp)
    382e:	00 
    382f:	89 4c 24 04          	mov    %ecx,0x4(%esp)
    3833:	8b 4d 08             	mov    0x8(%ebp),%ecx
    3836:	89 0c 24             	mov    %ecx,(%esp)
    3839:	e8 e2 21 00 00       	call   5a20 <get_abs_path>
    383e:	89 c6                	mov    %eax,%esi
    3840:	85 c0                	test   %eax,%eax
    3842:	0f 84 20 01 00 00    	je     3968 <get_driver_info+0x198>
    3848:	8d 7b 18             	lea    0x18(%ebx),%edi
    384b:	89 04 24             	mov    %eax,(%esp)
    384e:	89 7c 24 04          	mov    %edi,0x4(%esp)
    3852:	e8 a9 fd ff ff       	call   3600 <read_match_ids>
    3857:	84 c0                	test   %al,%al
    3859:	75 6d                	jne    38c8 <get_driver_info+0xf8>
    385b:	8b 43 14             	mov    0x14(%ebx),%eax
    385e:	89 04 24             	mov    %eax,(%esp)
    3861:	e8 9a 25 01 00       	call   15e00 <free>
    3866:	8b 43 10             	mov    0x10(%ebx),%eax
    3869:	89 04 24             	mov    %eax,(%esp)
    386c:	e8 8f 25 01 00       	call   15e00 <free>
    3871:	c7 44 24 08 38 00 00 	movl   $0x38,0x8(%esp)
    3878:	00 
    3879:	c7 44 24 04 00 00 00 	movl   $0x0,0x4(%esp)
    3880:	00 
    3881:	89 1c 24             	mov    %ebx,(%esp)
    3884:	e8 87 4e 00 00       	call   8710 <memset>
    3889:	8d 43 20             	lea    0x20(%ebx),%eax
    388c:	89 43 20             	mov    %eax,0x20(%ebx)
    388f:	89 43 24             	mov    %eax,0x24(%ebx)
    3892:	8d 43 28             	lea    0x28(%ebx),%eax
    3895:	89 7b 18             	mov    %edi,0x18(%ebx)
    3898:	89 7b 1c             	mov    %edi,0x1c(%ebx)
    389b:	89 04 24             	mov    %eax,(%esp)
    389e:	e8 ad 90 00 00       	call   c950 <fibril_mutex_initialize>
    38a3:	c7 43 0c 00 00 00 00 	movl   $0x0,0xc(%ebx)
    38aa:	31 c0                	xor    %eax,%eax
    38ac:	89 34 24             	mov    %esi,(%esp)
    38af:	88 45 c4             	mov    %al,-0x3c(%ebp)
    38b2:	e8 49 25 01 00       	call   15e00 <free>
    38b7:	8a 45 c4             	mov    -0x3c(%ebp),%al
    38ba:	83 c4 5c             	add    $0x5c,%esp
    38bd:	5b                   	pop    %ebx
    38be:	5e                   	pop    %esi
    38bf:	5f                   	pop    %edi
    38c0:	5d                   	pop    %ebp
    38c1:	c3                   	ret    
    38c2:	8d b6 00 00 00 00    	lea    0x0(%esi),%esi
    38c8:	8b 4d 0c             	mov    0xc(%ebp),%ecx
    38cb:	89 0c 24             	mov    %ecx,(%esp)
    38ce:	e8 cd 5d 00 00       	call   96a0 <str_size>
    38d3:	8d 50 01             	lea    0x1(%eax),%edx
    38d6:	89 14 24             	mov    %edx,(%esp)
    38d9:	89 55 c4             	mov    %edx,-0x3c(%ebp)
    38dc:	e8 0f 24 01 00       	call   15cf0 <malloc>
    38e1:	8b 55 c4             	mov    -0x3c(%ebp),%edx
    38e4:	89 43 10             	mov    %eax,0x10(%ebx)
    38e7:	85 c0                	test   %eax,%eax
    38e9:	0f 84 6c ff ff ff    	je     385b <get_driver_info+0x8b>
    38ef:	8b 4d 0c             	mov    0xc(%ebp),%ecx
    38f2:	89 54 24 04          	mov    %edx,0x4(%esp)
    38f6:	89 4c 24 08          	mov    %ecx,0x8(%esp)
    38fa:	89 04 24             	mov    %eax,(%esp)
    38fd:	e8 4e 69 00 00       	call   a250 <str_cpy>
    3902:	8b 4d 0c             	mov    0xc(%ebp),%ecx
    3905:	89 4c 24 04          	mov    %ecx,0x4(%esp)
    3909:	8b 4d 08             	mov    0x8(%ebp),%ecx
    390c:	c7 44 24 08 bb 47 02 	movl   $0x247bb,0x8(%esp)
    3913:	00 
    3914:	89 0c 24             	mov    %ecx,(%esp)
    3917:	e8 04 21 00 00       	call   5a20 <get_abs_path>
    391c:	89 43 14             	mov    %eax,0x14(%ebx)
    391f:	85 c0                	test   %eax,%eax
    3921:	74 55                	je     3978 <get_driver_info+0x1a8>
    3923:	8d 55 c8             	lea    -0x38(%ebp),%edx
    3926:	89 04 24             	mov    %eax,(%esp)
    3929:	89 54 24 04          	mov    %edx,0x4(%esp)
    392d:	e8 de b6 01 00       	call   1f010 <stat>
    3932:	89 c2                	mov    %eax,%edx
    3934:	b0 01                	mov    $0x1,%al
    3936:	42                   	inc    %edx
    3937:	0f 85 6f ff ff ff    	jne    38ac <get_driver_info+0xdc>
    393d:	8b 43 14             	mov    0x14(%ebx),%eax
    3940:	c7 44 24 08 7c 34 02 	movl   $0x2347c,0x8(%esp)
    3947:	00 
    3948:	89 44 24 0c          	mov    %eax,0xc(%esp)
    394c:	c7 44 24 04 01 00 00 	movl   $0x1,0x4(%esp)
    3953:	00 
    3954:	c7 04 24 ff ff ff ff 	movl   $0xffffffff,(%esp)
    395b:	e8 f0 d2 00 00       	call   10c50 <log_msg>
    3960:	e9 f6 fe ff ff       	jmp    385b <get_driver_info+0x8b>
    3965:	8d 76 00             	lea    0x0(%esi),%esi
    3968:	8b 43 14             	mov    0x14(%ebx),%eax
    396b:	8d 7b 18             	lea    0x18(%ebx),%edi
    396e:	e9 eb fe ff ff       	jmp    385e <get_driver_info+0x8e>
    3973:	90                   	nop
    3974:	8d 74 26 00          	lea    0x0(%esi,%eiz,1),%esi
    3978:	31 c0                	xor    %eax,%eax
    397a:	e9 df fe ff ff       	jmp    385e <get_driver_info+0x8e>
    397f:	c7 44 24 08 5b 01 00 	movl   $0x15b,0x8(%esp)
    3986:	00 
    3987:	c7 44 24 04 30 31 02 	movl   $0x23130,0x4(%esp)
    398e:	00 
    398f:	c7 04 24 48 34 02 00 	movl   $0x23448,(%esp)
    3996:	e8 b5 cb 01 00       	call   20550 <assert_abort>
    399b:	90                   	nop
    399c:	8d 74 26 00          	lea    0x0(%esi,%eiz,1),%esi

000039a0 <create_root_nodes>:
    39a0:	55                   	push   %ebp
    39a1:	89 e5                	mov    %esp,%ebp
    39a3:	57                   	push   %edi
    39a4:	56                   	push   %esi
    39a5:	53                   	push   %ebx
    39a6:	83 ec 3c             	sub    $0x3c,%esp
    39a9:	8b 7d 08             	mov    0x8(%ebp),%edi
    39ac:	c7 44 24 08 6e 31 02 	movl   $0x2316e,0x8(%esp)
    39b3:	00 
    39b4:	c7 44 24 04 04 00 00 	movl   $0x4,0x4(%esp)
    39bb:	00 
    39bc:	c7 04 24 ff ff ff ff 	movl   $0xffffffff,(%esp)
    39c3:	e8 88 d2 00 00       	call   10c50 <log_msg>
    39c8:	8d 47 08             	lea    0x8(%edi),%eax
    39cb:	89 04 24             	mov    %eax,(%esp)
    39ce:	89 45 e4             	mov    %eax,-0x1c(%ebp)
    39d1:	e8 1a 93 00 00       	call   ccf0 <fibril_rwlock_write_lock>
    39d6:	c7 44 24 04 54 00 00 	movl   $0x54,0x4(%esp)
    39dd:	00 
    39de:	c7 04 24 01 00 00 00 	movl   $0x1,(%esp)
    39e5:	e8 a6 22 01 00       	call   15c90 <calloc>
    39ea:	89 c3                	mov    %eax,%ebx
    39ec:	85 c0                	test   %eax,%eax
    39ee:	0f 84 b0 01 00 00    	je     3ba4 <create_root_nodes+0x204>
    39f4:	c7 40 04 00 00 00 00 	movl   $0x0,0x4(%eax)
    39fb:	c7 00 00 00 00 00    	movl   $0x0,(%eax)
    3a01:	8d 40 08             	lea    0x8(%eax),%eax
    3a04:	8d 73 38             	lea    0x38(%ebx),%esi
    3a07:	89 04 24             	mov    %eax,(%esp)
    3a0a:	e8 41 8f 00 00       	call   c950 <fibril_mutex_initialize>
    3a0f:	c7 43 2c 00 00 00 00 	movl   $0x0,0x2c(%ebx)
    3a16:	c7 43 30 00 00 00 00 	movl   $0x0,0x30(%ebx)
    3a1d:	89 73 38             	mov    %esi,0x38(%ebx)
    3a20:	89 73 3c             	mov    %esi,0x3c(%ebx)
    3a23:	f0 ff 03             	lock incl (%ebx)
    3a26:	c7 04 24 bb 47 02 00 	movl   $0x247bb,(%esp)
    3a2d:	e8 0e 7c 00 00       	call   b640 <str_dup>
    3a32:	89 c2                	mov    %eax,%edx
    3a34:	85 c0                	test   %eax,%eax
    3a36:	0f 84 af 01 00 00    	je     3beb <create_root_nodes+0x24b>
    3a3c:	8b 45 e4             	mov    -0x1c(%ebp),%eax
    3a3f:	89 55 e0             	mov    %edx,-0x20(%ebp)
    3a42:	89 04 24             	mov    %eax,(%esp)
    3a45:	e8 a6 94 00 00       	call   cef0 <fibril_rwlock_is_write_locked>
    3a4a:	8b 55 e0             	mov    -0x20(%ebp),%edx
    3a4d:	84 c0                	test   %al,%al
    3a4f:	0f 84 7a 01 00 00    	je     3bcf <create_root_nodes+0x22f>
    3a55:	89 53 1c             	mov    %edx,0x1c(%ebx)
    3a58:	31 c9                	xor    %ecx,%ecx
    3a5a:	89 da                	mov    %ebx,%edx
    3a5c:	89 f8                	mov    %edi,%eax
    3a5e:	e8 cd f7 ff ff       	call   3230 <set_fun_path>
    3a63:	84 c0                	test   %al,%al
    3a65:	74 23                	je     3a8a <create_root_nodes+0xea>
    3a67:	8b 47 04             	mov    0x4(%edi),%eax
    3a6a:	40                   	inc    %eax
    3a6b:	89 47 04             	mov    %eax,0x4(%edi)
    3a6e:	89 43 18             	mov    %eax,0x18(%ebx)
    3a71:	8d 43 44             	lea    0x44(%ebx),%eax
    3a74:	89 44 24 04          	mov    %eax,0x4(%esp)
    3a78:	8d 47 38             	lea    0x38(%edi),%eax
    3a7b:	89 04 24             	mov    %eax,(%esp)
    3a7e:	e8 6d 83 01 00       	call   1bdf0 <hash_table_insert>
    3a83:	c7 43 28 00 00 00 00 	movl   $0x0,0x28(%ebx)
    3a8a:	c7 04 24 10 00 00 00 	movl   $0x10,(%esp)
    3a91:	e8 5a 22 01 00       	call   15cf0 <malloc>
    3a96:	c7 44 24 08 10 00 00 	movl   $0x10,0x8(%esp)
    3a9d:	00 
    3a9e:	c7 44 24 04 00 00 00 	movl   $0x0,0x4(%esp)
    3aa5:	00 
    3aa6:	89 04 24             	mov    %eax,(%esp)
    3aa9:	89 45 e0             	mov    %eax,-0x20(%ebp)
    3aac:	e8 5f 4c 00 00       	call   8710 <memset>
    3ab1:	c7 04 24 93 31 02 00 	movl   $0x23193,(%esp)
    3ab8:	e8 83 7b 00 00       	call   b640 <str_dup>
    3abd:	8b 4d e0             	mov    -0x20(%ebp),%ecx
    3ac0:	8b 53 3c             	mov    0x3c(%ebx),%edx
    3ac3:	c7 41 0c 64 00 00 00 	movl   $0x64,0xc(%ecx)
    3aca:	89 41 08             	mov    %eax,0x8(%ecx)
    3acd:	39 f2                	cmp    %esi,%edx
    3acf:	75 0e                	jne    3adf <create_root_nodes+0x13f>
    3ad1:	eb 12                	jmp    3ae5 <create_root_nodes+0x145>
    3ad3:	90                   	nop
    3ad4:	8d 74 26 00          	lea    0x0(%esi,%eiz,1),%esi
    3ad8:	8b 52 04             	mov    0x4(%edx),%edx
    3adb:	39 f2                	cmp    %esi,%edx
    3add:	74 06                	je     3ae5 <create_root_nodes+0x145>
    3adf:	83 7a 0c 63          	cmpl   $0x63,0xc(%edx)
    3ae3:	77 f3                	ja     3ad8 <create_root_nodes+0x138>
    3ae5:	8b 02                	mov    (%edx),%eax
    3ae7:	89 51 04             	mov    %edx,0x4(%ecx)
    3aea:	89 01                	mov    %eax,(%ecx)
    3aec:	8b 02                	mov    (%edx),%eax
    3aee:	89 0a                	mov    %ecx,(%edx)
    3af0:	89 48 04             	mov    %ecx,0x4(%eax)
    3af3:	89 1f                	mov    %ebx,(%edi)
    3af5:	c7 44 24 04 30 00 00 	movl   $0x30,0x4(%esp)
    3afc:	00 
    3afd:	c7 04 24 01 00 00 00 	movl   $0x1,(%esp)
    3b04:	e8 87 21 01 00       	call   15c90 <calloc>
    3b09:	89 c6                	mov    %eax,%esi
    3b0b:	85 c0                	test   %eax,%eax
    3b0d:	0f 84 91 00 00 00    	je     3ba4 <create_root_nodes+0x204>
    3b13:	c7 00 00 00 00 00    	movl   $0x0,(%eax)
    3b19:	8d 40 0c             	lea    0xc(%eax),%eax
    3b1c:	89 46 0c             	mov    %eax,0xc(%esi)
    3b1f:	89 46 10             	mov    %eax,0x10(%esi)
    3b22:	c7 46 1c 00 00 00 00 	movl   $0x0,0x1c(%esi)
    3b29:	c7 46 20 00 00 00 00 	movl   $0x0,0x20(%esi)
    3b30:	f0 ff 06             	lock incl (%esi)
    3b33:	8b 45 e4             	mov    -0x1c(%ebp),%eax
    3b36:	89 04 24             	mov    %eax,(%esp)
    3b39:	e8 b2 93 00 00       	call   cef0 <fibril_rwlock_is_write_locked>
    3b3e:	84 c0                	test   %al,%al
    3b40:	74 71                	je     3bb3 <create_root_nodes+0x213>
    3b42:	8b 43 24             	mov    0x24(%ebx),%eax
    3b45:	89 5c 24 10          	mov    %ebx,0x10(%esp)
    3b49:	89 44 24 14          	mov    %eax,0x14(%esp)
    3b4d:	89 74 24 0c          	mov    %esi,0xc(%esp)
    3b51:	c7 44 24 08 9c 34 02 	movl   $0x2349c,0x8(%esp)
    3b58:	00 
    3b59:	c7 44 24 04 04 00 00 	movl   $0x4,0x4(%esp)
    3b60:	00 
    3b61:	c7 04 24 ff ff ff ff 	movl   $0xffffffff,(%esp)
    3b68:	e8 e3 d0 00 00       	call   10c50 <log_msg>
    3b6d:	8b 47 04             	mov    0x4(%edi),%eax
    3b70:	40                   	inc    %eax
    3b71:	89 47 04             	mov    %eax,0x4(%edi)
    3b74:	89 46 04             	mov    %eax,0x4(%esi)
    3b77:	83 c7 1c             	add    $0x1c,%edi
    3b7a:	8d 46 24             	lea    0x24(%esi),%eax
    3b7d:	89 44 24 04          	mov    %eax,0x4(%esp)
    3b81:	89 3c 24             	mov    %edi,(%esp)
    3b84:	e8 67 82 01 00       	call   1bdf0 <hash_table_insert>
    3b89:	8b 45 e4             	mov    -0x1c(%ebp),%eax
    3b8c:	89 5e 08             	mov    %ebx,0x8(%esi)
    3b8f:	89 04 24             	mov    %eax,(%esp)
    3b92:	89 73 34             	mov    %esi,0x34(%ebx)
    3b95:	e8 96 92 00 00       	call   ce30 <fibril_rwlock_write_unlock>
    3b9a:	b0 01                	mov    $0x1,%al
    3b9c:	83 c4 3c             	add    $0x3c,%esp
    3b9f:	5b                   	pop    %ebx
    3ba0:	5e                   	pop    %esi
    3ba1:	5f                   	pop    %edi
    3ba2:	5d                   	pop    %ebp
    3ba3:	c3                   	ret    
    3ba4:	8b 45 e4             	mov    -0x1c(%ebp),%eax
    3ba7:	89 04 24             	mov    %eax,(%esp)
    3baa:	e8 81 92 00 00       	call   ce30 <fibril_rwlock_write_unlock>
    3baf:	31 c0                	xor    %eax,%eax
    3bb1:	eb e9                	jmp    3b9c <create_root_nodes+0x1fc>
    3bb3:	c7 44 24 08 1a 05 00 	movl   $0x51a,0x8(%esp)
    3bba:	00 
    3bbb:	c7 44 24 04 30 31 02 	movl   $0x23130,0x4(%esp)
    3bc2:	00 
    3bc3:	c7 04 24 d4 32 02 00 	movl   $0x232d4,(%esp)
    3bca:	e8 81 c9 01 00       	call   20550 <assert_abort>
    3bcf:	c7 44 24 08 50 05 00 	movl   $0x550,0x8(%esp)
    3bd6:	00 
    3bd7:	c7 44 24 04 30 31 02 	movl   $0x23130,0x4(%esp)
    3bde:	00 
    3bdf:	c7 04 24 d4 32 02 00 	movl   $0x232d4,(%esp)
    3be6:	e8 65 c9 01 00       	call   20550 <assert_abort>
    3beb:	c7 44 24 08 4f 05 00 	movl   $0x54f,0x8(%esp)
    3bf2:	00 
    3bf3:	c7 44 24 04 30 31 02 	movl   $0x23130,0x4(%esp)
    3bfa:	00 
    3bfb:	c7 04 24 82 31 02 00 	movl   $0x23182,(%esp)
    3c02:	e8 49 c9 01 00       	call   20550 <assert_abort>
    3c07:	89 f6                	mov    %esi,%esi
    3c09:	8d bc 27 00 00 00 00 	lea    0x0(%edi,%eiz,1),%edi

00003c10 <find_best_match_driver>:
    3c10:	55                   	push   %ebp
    3c11:	89 e5                	mov    %esp,%ebp
    3c13:	57                   	push   %edi
    3c14:	56                   	push   %esi
    3c15:	53                   	push   %ebx
    3c16:	83 ec 2c             	sub    $0x2c,%esp
    3c19:	8b 45 08             	mov    0x8(%ebp),%eax
    3c1c:	8b 7d 0c             	mov    0xc(%ebp),%edi
    3c1f:	83 c0 08             	add    $0x8,%eax
    3c22:	89 04 24             	mov    %eax,(%esp)
    3c25:	89 45 e0             	mov    %eax,-0x20(%ebp)
    3c28:	e8 43 8d 00 00       	call   c970 <fibril_mutex_lock>
    3c2d:	8b 45 08             	mov    0x8(%ebp),%eax
    3c30:	8b 70 04             	mov    0x4(%eax),%esi
    3c33:	39 c6                	cmp    %eax,%esi
    3c35:	74 3c                	je     3c73 <find_best_match_driver+0x63>
    3c37:	31 db                	xor    %ebx,%ebx
    3c39:	c7 45 e4 00 00 00 00 	movl   $0x0,-0x1c(%ebp)
    3c40:	89 7c 24 04          	mov    %edi,0x4(%esp)
    3c44:	89 34 24             	mov    %esi,(%esp)
    3c47:	e8 44 1d 00 00       	call   5990 <get_match_score>
    3c4c:	39 d8                	cmp    %ebx,%eax
    3c4e:	7e 05                	jle    3c55 <find_best_match_driver+0x45>
    3c50:	89 c3                	mov    %eax,%ebx
    3c52:	89 75 e4             	mov    %esi,-0x1c(%ebp)
    3c55:	8b 76 04             	mov    0x4(%esi),%esi
    3c58:	3b 75 08             	cmp    0x8(%ebp),%esi
    3c5b:	75 e3                	jne    3c40 <find_best_match_driver+0x30>
    3c5d:	8b 45 e0             	mov    -0x20(%ebp),%eax
    3c60:	89 04 24             	mov    %eax,(%esp)
    3c63:	e8 28 8e 00 00       	call   ca90 <fibril_mutex_unlock>
    3c68:	8b 45 e4             	mov    -0x1c(%ebp),%eax
    3c6b:	83 c4 2c             	add    $0x2c,%esp
    3c6e:	5b                   	pop    %ebx
    3c6f:	5e                   	pop    %esi
    3c70:	5f                   	pop    %edi
    3c71:	5d                   	pop    %ebp
    3c72:	c3                   	ret    
    3c73:	c7 45 e4 00 00 00 00 	movl   $0x0,-0x1c(%ebp)
    3c7a:	eb e1                	jmp    3c5d <find_best_match_driver+0x4d>
    3c7c:	8d 74 26 00          	lea    0x0(%esi,%eiz,1),%esi

00003c80 <attach_driver>:
    3c80:	55                   	push   %ebp
    3c81:	89 e5                	mov    %esp,%ebp
    3c83:	57                   	push   %edi
    3c84:	56                   	push   %esi
    3c85:	53                   	push   %ebx
    3c86:	83 ec 3c             	sub    $0x3c,%esp
    3c89:	8b 5d 10             	mov    0x10(%ebp),%ebx
    3c8c:	8b 75 0c             	mov    0xc(%ebp),%esi
    3c8f:	8b 7d 08             	mov    0x8(%ebp),%edi
    3c92:	8b 43 10             	mov    0x10(%ebx),%eax
    3c95:	83 c7 08             	add    $0x8,%edi
    3c98:	89 44 24 10          	mov    %eax,0x10(%esp)
    3c9c:	8b 46 08             	mov    0x8(%esi),%eax
    3c9f:	8b 40 24             	mov    0x24(%eax),%eax
    3ca2:	c7 44 24 08 c4 34 02 	movl   $0x234c4,0x8(%esp)
    3ca9:	00 
    3caa:	89 44 24 0c          	mov    %eax,0xc(%esp)
    3cae:	c7 44 24 04 04 00 00 	movl   $0x4,0x4(%esp)
    3cb5:	00 
    3cb6:	c7 04 24 ff ff ff ff 	movl   $0xffffffff,(%esp)
    3cbd:	e8 8e cf 00 00       	call   10c50 <log_msg>
    3cc2:	8d 43 28             	lea    0x28(%ebx),%eax
    3cc5:	89 04 24             	mov    %eax,(%esp)
    3cc8:	89 45 e4             	mov    %eax,-0x1c(%ebp)
    3ccb:	e8 a0 8c 00 00       	call   c970 <fibril_mutex_lock>
    3cd0:	89 3c 24             	mov    %edi,(%esp)
    3cd3:	e8 18 90 00 00       	call   ccf0 <fibril_rwlock_write_lock>
    3cd8:	8d 4b 20             	lea    0x20(%ebx),%ecx
    3cdb:	89 4e 20             	mov    %ecx,0x20(%esi)
    3cde:	8b 4b 20             	mov    0x20(%ebx),%ecx
    3ce1:	89 4e 1c             	mov    %ecx,0x1c(%esi)
    3ce4:	8d 56 1c             	lea    0x1c(%esi),%edx
    3ce7:	8b 4b 20             	mov    0x20(%ebx),%ecx
    3cea:	89 5e 14             	mov    %ebx,0x14(%esi)
    3ced:	89 53 20             	mov    %edx,0x20(%ebx)
    3cf0:	89 51 04             	mov    %edx,0x4(%ecx)
    3cf3:	89 3c 24             	mov    %edi,(%esp)
    3cf6:	e8 35 91 00 00       	call   ce30 <fibril_rwlock_write_unlock>
    3cfb:	8b 45 e4             	mov    -0x1c(%ebp),%eax
    3cfe:	89 45 08             	mov    %eax,0x8(%ebp)
    3d01:	83 c4 3c             	add    $0x3c,%esp
    3d04:	5b                   	pop    %ebx
    3d05:	5e                   	pop    %esi
    3d06:	5f                   	pop    %edi
    3d07:	5d                   	pop    %ebp
    3d08:	e9 83 8d 00 00       	jmp    ca90 <fibril_mutex_unlock>
    3d0d:	8d 76 00             	lea    0x0(%esi),%esi

00003d10 <detach_driver>:
    3d10:	55                   	push   %ebp
    3d11:	89 e5                	mov    %esp,%ebp
    3d13:	57                   	push   %edi
    3d14:	56                   	push   %esi
    3d15:	53                   	push   %ebx
    3d16:	83 ec 2c             	sub    $0x2c,%esp
    3d19:	8b 5d 0c             	mov    0xc(%ebp),%ebx
    3d1c:	8b 7d 08             	mov    0x8(%ebp),%edi
    3d1f:	8b 73 14             	mov    0x14(%ebx),%esi
    3d22:	85 f6                	test   %esi,%esi
    3d24:	0f 84 85 00 00 00    	je     3daf <detach_driver+0x9f>
    3d2a:	8b 46 10             	mov    0x10(%esi),%eax
    3d2d:	83 c6 28             	add    $0x28,%esi
    3d30:	89 44 24 10          	mov    %eax,0x10(%esp)
    3d34:	83 c7 08             	add    $0x8,%edi
    3d37:	8b 43 08             	mov    0x8(%ebx),%eax
    3d3a:	8b 40 24             	mov    0x24(%eax),%eax
    3d3d:	c7 44 24 08 e8 34 02 	movl   $0x234e8,0x8(%esp)
    3d44:	00 
    3d45:	89 44 24 0c          	mov    %eax,0xc(%esp)
    3d49:	c7 44 24 04 04 00 00 	movl   $0x4,0x4(%esp)
    3d50:	00 
    3d51:	c7 04 24 ff ff ff ff 	movl   $0xffffffff,(%esp)
    3d58:	e8 f3 ce 00 00       	call   10c50 <log_msg>
    3d5d:	89 34 24             	mov    %esi,(%esp)
    3d60:	e8 0b 8c 00 00       	call   c970 <fibril_mutex_lock>
    3d65:	89 3c 24             	mov    %edi,(%esp)
    3d68:	e8 83 8f 00 00       	call   ccf0 <fibril_rwlock_write_lock>
    3d6d:	8b 53 1c             	mov    0x1c(%ebx),%edx
    3d70:	c7 43 14 00 00 00 00 	movl   $0x0,0x14(%ebx)
    3d77:	85 d2                	test   %edx,%edx
    3d79:	74 0f                	je     3d8a <detach_driver+0x7a>
    3d7b:	8b 43 20             	mov    0x20(%ebx),%eax
    3d7e:	85 c0                	test   %eax,%eax
    3d80:	74 08                	je     3d8a <detach_driver+0x7a>
    3d82:	89 10                	mov    %edx,(%eax)
    3d84:	8b 53 1c             	mov    0x1c(%ebx),%edx
    3d87:	89 42 04             	mov    %eax,0x4(%edx)
    3d8a:	c7 43 1c 00 00 00 00 	movl   $0x0,0x1c(%ebx)
    3d91:	c7 43 20 00 00 00 00 	movl   $0x0,0x20(%ebx)
    3d98:	89 3c 24             	mov    %edi,(%esp)
    3d9b:	e8 90 90 00 00       	call   ce30 <fibril_rwlock_write_unlock>
    3da0:	89 75 08             	mov    %esi,0x8(%ebp)
    3da3:	83 c4 2c             	add    $0x2c,%esp
    3da6:	5b                   	pop    %ebx
    3da7:	5e                   	pop    %esi
    3da8:	5f                   	pop    %edi
    3da9:	5d                   	pop    %ebp
    3daa:	e9 e1 8c 00 00       	jmp    ca90 <fibril_mutex_unlock>
    3daf:	c7 44 24 08 24 02 00 	movl   $0x224,0x8(%esp)
    3db6:	00 
    3db7:	c7 44 24 04 30 31 02 	movl   $0x23130,0x4(%esp)
    3dbe:	00 
    3dbf:	c7 04 24 4d 31 02 00 	movl   $0x2314d,(%esp)
    3dc6:	e8 85 c7 01 00       	call   20550 <assert_abort>
    3dcb:	90                   	nop
    3dcc:	8d 74 26 00          	lea    0x0(%esi,%eiz,1),%esi

00003dd0 <start_driver>:
    3dd0:	55                   	push   %ebp
    3dd1:	89 e5                	mov    %esp,%ebp
    3dd3:	53                   	push   %ebx
    3dd4:	83 ec 24             	sub    $0x24,%esp
    3dd7:	8b 5d 08             	mov    0x8(%ebp),%ebx
    3dda:	8d 43 28             	lea    0x28(%ebx),%eax
    3ddd:	89 04 24             	mov    %eax,(%esp)
    3de0:	e8 bb 8d 00 00       	call   cba0 <fibril_mutex_is_locked>
    3de5:	84 c0                	test   %al,%al
    3de7:	0f 84 99 00 00 00    	je     3e86 <start_driver+0xb6>
    3ded:	8b 43 10             	mov    0x10(%ebx),%eax
    3df0:	c7 44 24 08 98 31 02 	movl   $0x23198,0x8(%esp)
    3df7:	00 
    3df8:	89 44 24 0c          	mov    %eax,0xc(%esp)
    3dfc:	c7 44 24 04 04 00 00 	movl   $0x4,0x4(%esp)
    3e03:	00 
    3e04:	c7 04 24 ff ff ff ff 	movl   $0xffffffff,(%esp)
    3e0b:	e8 40 ce 00 00       	call   10c50 <log_msg>
    3e10:	8b 43 14             	mov    0x14(%ebx),%eax
    3e13:	89 44 24 08          	mov    %eax,0x8(%esp)
    3e17:	c7 44 24 0c 00 00 00 	movl   $0x0,0xc(%esp)
    3e1e:	00 
    3e1f:	89 44 24 04          	mov    %eax,0x4(%esp)
    3e23:	c7 04 24 00 00 00 00 	movl   $0x0,(%esp)
    3e2a:	e8 a1 a2 00 00       	call   e0d0 <task_spawnl>
    3e2f:	85 c0                	test   %eax,%eax
    3e31:	75 15                	jne    3e48 <start_driver+0x78>
    3e33:	c7 43 08 01 00 00 00 	movl   $0x1,0x8(%ebx)
    3e3a:	83 c4 24             	add    $0x24,%esp
    3e3d:	b0 01                	mov    $0x1,%al
    3e3f:	5b                   	pop    %ebx
    3e40:	5d                   	pop    %ebp
    3e41:	c3                   	ret    
    3e42:	8d b6 00 00 00 00    	lea    0x0(%esi),%esi
    3e48:	89 04 24             	mov    %eax,(%esp)
    3e4b:	e8 30 81 00 00       	call   bf80 <str_error>
    3e50:	89 44 24 14          	mov    %eax,0x14(%esp)
    3e54:	8b 43 14             	mov    0x14(%ebx),%eax
    3e57:	89 44 24 10          	mov    %eax,0x10(%esp)
    3e5b:	8b 43 10             	mov    0x10(%ebx),%eax
    3e5e:	c7 44 24 08 38 35 02 	movl   $0x23538,0x8(%esp)
    3e65:	00 
    3e66:	89 44 24 0c          	mov    %eax,0xc(%esp)
    3e6a:	c7 44 24 04 01 00 00 	movl   $0x1,0x4(%esp)
    3e71:	00 
    3e72:	c7 04 24 ff ff ff ff 	movl   $0xffffffff,(%esp)
    3e79:	e8 d2 cd 00 00       	call   10c50 <log_msg>
    3e7e:	83 c4 24             	add    $0x24,%esp
    3e81:	31 c0                	xor    %eax,%eax
    3e83:	5b                   	pop    %ebx
    3e84:	5d                   	pop    %ebp
    3e85:	c3                   	ret    
    3e86:	c7 44 24 08 3d 02 00 	movl   $0x23d,0x8(%esp)
    3e8d:	00 
    3e8e:	c7 44 24 04 30 31 02 	movl   $0x23130,0x4(%esp)
    3e95:	00 
    3e96:	c7 04 24 0c 35 02 00 	movl   $0x2350c,(%esp)
    3e9d:	e8 ae c6 01 00       	call   20550 <assert_abort>
    3ea2:	8d b4 26 00 00 00 00 	lea    0x0(%esi,%eiz,1),%esi
    3ea9:	8d bc 27 00 00 00 00 	lea    0x0(%edi,%eiz,1),%edi

00003eb0 <find_driver>:
    3eb0:	55                   	push   %ebp
    3eb1:	89 e5                	mov    %esp,%ebp
    3eb3:	57                   	push   %edi
    3eb4:	56                   	push   %esi
    3eb5:	53                   	push   %ebx
    3eb6:	83 ec 2c             	sub    $0x2c,%esp
    3eb9:	8b 5d 08             	mov    0x8(%ebp),%ebx
    3ebc:	8b 75 0c             	mov    0xc(%ebp),%esi
    3ebf:	8d 43 08             	lea    0x8(%ebx),%eax
    3ec2:	89 04 24             	mov    %eax,(%esp)
    3ec5:	89 45 e4             	mov    %eax,-0x1c(%ebp)
    3ec8:	e8 a3 8a 00 00       	call   c970 <fibril_mutex_lock>
    3ecd:	8b 7b 04             	mov    0x4(%ebx),%edi
    3ed0:	39 df                	cmp    %ebx,%edi
    3ed2:	75 0b                	jne    3edf <find_driver+0x2f>
    3ed4:	eb 22                	jmp    3ef8 <find_driver+0x48>
    3ed6:	66 90                	xchg   %ax,%ax
    3ed8:	8b 7f 04             	mov    0x4(%edi),%edi
    3edb:	39 df                	cmp    %ebx,%edi
    3edd:	74 19                	je     3ef8 <find_driver+0x48>
    3edf:	89 74 24 04          	mov    %esi,0x4(%esp)
    3ee3:	8b 47 10             	mov    0x10(%edi),%eax
    3ee6:	89 04 24             	mov    %eax,(%esp)
    3ee9:	e8 e2 5c 00 00       	call   9bd0 <str_cmp>
    3eee:	85 c0                	test   %eax,%eax
    3ef0:	75 e6                	jne    3ed8 <find_driver+0x28>
    3ef2:	89 fb                	mov    %edi,%ebx
    3ef4:	eb 04                	jmp    3efa <find_driver+0x4a>
    3ef6:	66 90                	xchg   %ax,%ax
    3ef8:	31 db                	xor    %ebx,%ebx
    3efa:	8b 45 e4             	mov    -0x1c(%ebp),%eax
    3efd:	89 04 24             	mov    %eax,(%esp)
    3f00:	e8 8b 8b 00 00       	call   ca90 <fibril_mutex_unlock>
    3f05:	83 c4 2c             	add    $0x2c,%esp
    3f08:	89 d8                	mov    %ebx,%eax
    3f0a:	5b                   	pop    %ebx
    3f0b:	5e                   	pop    %esi
    3f0c:	5f                   	pop    %edi
    3f0d:	5d                   	pop    %ebp
    3f0e:	c3                   	ret    
    3f0f:	90                   	nop

00003f10 <init_driver>:
    3f10:	55                   	push   %ebp
    3f11:	89 e5                	mov    %esp,%ebp
    3f13:	53                   	push   %ebx
    3f14:	83 ec 14             	sub    $0x14,%esp
    3f17:	8b 5d 08             	mov    0x8(%ebp),%ebx
    3f1a:	85 db                	test   %ebx,%ebx
    3f1c:	74 42                	je     3f60 <init_driver+0x50>
    3f1e:	89 1c 24             	mov    %ebx,(%esp)
    3f21:	c7 44 24 08 38 00 00 	movl   $0x38,0x8(%esp)
    3f28:	00 
    3f29:	c7 44 24 04 00 00 00 	movl   $0x0,0x4(%esp)
    3f30:	00 
    3f31:	e8 da 47 00 00       	call   8710 <memset>
    3f36:	8d 43 18             	lea    0x18(%ebx),%eax
    3f39:	89 43 18             	mov    %eax,0x18(%ebx)
    3f3c:	89 43 1c             	mov    %eax,0x1c(%ebx)
    3f3f:	8d 43 20             	lea    0x20(%ebx),%eax
    3f42:	89 43 20             	mov    %eax,0x20(%ebx)
    3f45:	89 43 24             	mov    %eax,0x24(%ebx)
    3f48:	8d 43 28             	lea    0x28(%ebx),%eax
    3f4b:	89 04 24             	mov    %eax,(%esp)
    3f4e:	e8 fd 89 00 00       	call   c950 <fibril_mutex_initialize>
    3f53:	c7 43 0c 00 00 00 00 	movl   $0x0,0xc(%ebx)
    3f5a:	83 c4 14             	add    $0x14,%esp
    3f5d:	5b                   	pop    %ebx
    3f5e:	5d                   	pop    %ebp
    3f5f:	c3                   	ret    
    3f60:	e8 fb 19 00 00       	call   5960 <init_driver.part.0>
    3f65:	8d 74 26 00          	lea    0x0(%esi,%eiz,1),%esi
    3f69:	8d bc 27 00 00 00 00 	lea    0x0(%edi,%eiz,1),%edi

00003f70 <clean_driver>:
    3f70:	55                   	push   %ebp
    3f71:	89 e5                	mov    %esp,%ebp
    3f73:	57                   	push   %edi
    3f74:	56                   	push   %esi
    3f75:	53                   	push   %ebx
    3f76:	83 ec 1c             	sub    $0x1c,%esp
    3f79:	8b 7d 08             	mov    0x8(%ebp),%edi
    3f7c:	85 ff                	test   %edi,%edi
    3f7e:	0f 84 a4 00 00 00    	je     4028 <clean_driver+0xb8>
    3f84:	8b 47 10             	mov    0x10(%edi),%eax
    3f87:	8d 77 18             	lea    0x18(%edi),%esi
    3f8a:	89 04 24             	mov    %eax,(%esp)
    3f8d:	e8 2e 1c 00 00       	call   5bc0 <free_not_null>
    3f92:	8b 47 14             	mov    0x14(%edi),%eax
    3f95:	89 04 24             	mov    %eax,(%esp)
    3f98:	e8 23 1c 00 00       	call   5bc0 <free_not_null>
    3f9d:	8b 5f 1c             	mov    0x1c(%edi),%ebx
    3fa0:	39 f3                	cmp    %esi,%ebx
    3fa2:	74 43                	je     3fe7 <clean_driver+0x77>
    3fa4:	8d 74 26 00          	lea    0x0(%esi,%eiz,1),%esi
    3fa8:	8b 13                	mov    (%ebx),%edx
    3faa:	85 d2                	test   %edx,%edx
    3fac:	74 0e                	je     3fbc <clean_driver+0x4c>
    3fae:	8b 43 04             	mov    0x4(%ebx),%eax
    3fb1:	85 c0                	test   %eax,%eax
    3fb3:	74 07                	je     3fbc <clean_driver+0x4c>
    3fb5:	89 10                	mov    %edx,(%eax)
    3fb7:	8b 13                	mov    (%ebx),%edx
    3fb9:	89 42 04             	mov    %eax,0x4(%edx)
    3fbc:	8b 43 08             	mov    0x8(%ebx),%eax
    3fbf:	c7 03 00 00 00 00    	movl   $0x0,(%ebx)
    3fc5:	c7 43 04 00 00 00 00 	movl   $0x0,0x4(%ebx)
    3fcc:	85 c0                	test   %eax,%eax
    3fce:	74 08                	je     3fd8 <clean_driver+0x68>
    3fd0:	89 04 24             	mov    %eax,(%esp)
    3fd3:	e8 28 1e 01 00       	call   15e00 <free>
    3fd8:	89 1c 24             	mov    %ebx,(%esp)
    3fdb:	e8 20 1e 01 00       	call   15e00 <free>
    3fe0:	8b 5e 04             	mov    0x4(%esi),%ebx
    3fe3:	39 f3                	cmp    %esi,%ebx
    3fe5:	75 c1                	jne    3fa8 <clean_driver+0x38>
    3fe7:	89 3c 24             	mov    %edi,(%esp)
    3fea:	c7 44 24 08 38 00 00 	movl   $0x38,0x8(%esp)
    3ff1:	00 
    3ff2:	c7 44 24 04 00 00 00 	movl   $0x0,0x4(%esp)
    3ff9:	00 
    3ffa:	e8 11 47 00 00       	call   8710 <memset>
    3fff:	8d 47 20             	lea    0x20(%edi),%eax
    4002:	89 47 20             	mov    %eax,0x20(%edi)
    4005:	89 47 24             	mov    %eax,0x24(%edi)
    4008:	8d 47 28             	lea    0x28(%edi),%eax
    400b:	89 77 18             	mov    %esi,0x18(%edi)
    400e:	89 77 1c             	mov    %esi,0x1c(%edi)
    4011:	89 04 24             	mov    %eax,(%esp)
    4014:	e8 37 89 00 00       	call   c950 <fibril_mutex_initialize>
    4019:	c7 47 0c 00 00 00 00 	movl   $0x0,0xc(%edi)
    4020:	83 c4 1c             	add    $0x1c,%esp
    4023:	5b                   	pop    %ebx
    4024:	5e                   	pop    %esi
    4025:	5f                   	pop    %edi
    4026:	5d                   	pop    %ebp
    4027:	c3                   	ret    
    4028:	c7 44 24 08 d8 02 00 	movl   $0x2d8,0x8(%esp)
    402f:	00 
    4030:	c7 44 24 04 30 31 02 	movl   $0x23130,0x4(%esp)
    4037:	00 
    4038:	c7 04 24 4d 31 02 00 	movl   $0x2314d,(%esp)
    403f:	e8 0c c5 01 00       	call   20550 <assert_abort>
    4044:	8d b6 00 00 00 00    	lea    0x0(%esi),%esi
    404a:	8d bf 00 00 00 00    	lea    0x0(%edi),%edi

00004050 <lookup_available_drivers>:
    4050:	55                   	push   %ebp
    4051:	89 e5                	mov    %esp,%ebp
    4053:	57                   	push   %edi
    4054:	56                   	push   %esi
    4055:	53                   	push   %ebx
    4056:	83 ec 2c             	sub    $0x2c,%esp
    4059:	8b 7d 0c             	mov    0xc(%ebp),%edi
    405c:	89 7c 24 0c          	mov    %edi,0xc(%esp)
    4060:	c7 44 24 08 60 35 02 	movl   $0x23560,0x8(%esp)
    4067:	00 
    4068:	c7 44 24 04 04 00 00 	movl   $0x4,0x4(%esp)
    406f:	00 
    4070:	c7 04 24 ff ff ff ff 	movl   $0xffffffff,(%esp)
    4077:	e8 d4 cb 00 00       	call   10c50 <log_msg>
    407c:	89 3c 24             	mov    %edi,(%esp)
    407f:	e8 ec b0 01 00       	call   1f170 <opendir>
    4084:	89 c6                	mov    %eax,%esi
    4086:	85 c0                	test   %eax,%eax
    4088:	0f 84 62 01 00 00    	je     41f0 <lookup_available_drivers+0x1a0>
    408e:	c7 04 24 38 00 00 00 	movl   $0x38,(%esp)
    4095:	e8 56 1c 01 00       	call   15cf0 <malloc>
    409a:	89 c3                	mov    %eax,%ebx
    409c:	85 c0                	test   %eax,%eax
    409e:	74 3c                	je     40dc <lookup_available_drivers+0x8c>
    40a0:	c7 44 24 08 38 00 00 	movl   $0x38,0x8(%esp)
    40a7:	00 
    40a8:	c7 44 24 04 00 00 00 	movl   $0x0,0x4(%esp)
    40af:	00 
    40b0:	89 04 24             	mov    %eax,(%esp)
    40b3:	e8 58 46 00 00       	call   8710 <memset>
    40b8:	8d 43 18             	lea    0x18(%ebx),%eax
    40bb:	89 43 18             	mov    %eax,0x18(%ebx)
    40be:	89 43 1c             	mov    %eax,0x1c(%ebx)
    40c1:	8d 43 20             	lea    0x20(%ebx),%eax
    40c4:	89 43 20             	mov    %eax,0x20(%ebx)
    40c7:	89 43 24             	mov    %eax,0x24(%ebx)
    40ca:	8d 43 28             	lea    0x28(%ebx),%eax
    40cd:	89 04 24             	mov    %eax,(%esp)
    40d0:	e8 7b 88 00 00       	call   c950 <fibril_mutex_initialize>
    40d5:	c7 43 0c 00 00 00 00 	movl   $0x0,0xc(%ebx)
    40dc:	8b 55 08             	mov    0x8(%ebp),%edx
    40df:	c7 45 e4 00 00 00 00 	movl   $0x0,-0x1c(%ebp)
    40e6:	83 c2 08             	add    $0x8,%edx
    40e9:	89 55 e0             	mov    %edx,-0x20(%ebp)
    40ec:	eb 16                	jmp    4104 <lookup_available_drivers+0xb4>
    40ee:	66 90                	xchg   %ax,%ax
    40f0:	89 5c 24 08          	mov    %ebx,0x8(%esp)
    40f4:	89 44 24 04          	mov    %eax,0x4(%esp)
    40f8:	89 3c 24             	mov    %edi,(%esp)
    40fb:	e8 d0 f6 ff ff       	call   37d0 <get_driver_info>
    4100:	84 c0                	test   %al,%al
    4102:	75 3c                	jne    4140 <lookup_available_drivers+0xf0>
    4104:	89 34 24             	mov    %esi,(%esp)
    4107:	e8 d4 b1 01 00       	call   1f2e0 <readdir>
    410c:	85 c0                	test   %eax,%eax
    410e:	75 e0                	jne    40f0 <lookup_available_drivers+0xa0>
    4110:	85 db                	test   %ebx,%ebx
    4112:	0f 84 ea 00 00 00    	je     4202 <lookup_available_drivers+0x1b2>
    4118:	89 1c 24             	mov    %ebx,(%esp)
    411b:	e8 50 fe ff ff       	call   3f70 <clean_driver>
    4120:	89 1c 24             	mov    %ebx,(%esp)
    4123:	e8 d8 1c 01 00       	call   15e00 <free>
    4128:	89 34 24             	mov    %esi,(%esp)
    412b:	e8 c0 b3 01 00       	call   1f4f0 <closedir>
    4130:	8b 45 e4             	mov    -0x1c(%ebp),%eax
    4133:	83 c4 2c             	add    $0x2c,%esp
    4136:	5b                   	pop    %ebx
    4137:	5e                   	pop    %esi
    4138:	5f                   	pop    %edi
    4139:	5d                   	pop    %ebp
    413a:	c3                   	ret    
    413b:	90                   	nop
    413c:	8d 74 26 00          	lea    0x0(%esi,%eiz,1),%esi
    4140:	8b 55 e0             	mov    -0x20(%ebp),%edx
    4143:	89 14 24             	mov    %edx,(%esp)
    4146:	e8 25 88 00 00       	call   c970 <fibril_mutex_lock>
    414b:	8b 55 08             	mov    0x8(%ebp),%edx
    414e:	8b 42 04             	mov    0x4(%edx),%eax
    4151:	89 13                	mov    %edx,(%ebx)
    4153:	89 43 04             	mov    %eax,0x4(%ebx)
    4156:	8b 42 04             	mov    0x4(%edx),%eax
    4159:	89 5a 04             	mov    %ebx,0x4(%edx)
    415c:	8b 55 e0             	mov    -0x20(%ebp),%edx
    415f:	89 18                	mov    %ebx,(%eax)
    4161:	89 14 24             	mov    %edx,(%esp)
    4164:	e8 27 89 00 00       	call   ca90 <fibril_mutex_unlock>
    4169:	8b 43 10             	mov    0x10(%ebx),%eax
    416c:	89 44 24 0c          	mov    %eax,0xc(%esp)
    4170:	c7 44 24 08 24 33 02 	movl   $0x23324,0x8(%esp)
    4177:	00 
    4178:	c7 44 24 04 03 00 00 	movl   $0x3,0x4(%esp)
    417f:	00 
    4180:	c7 04 24 ff ff ff ff 	movl   $0xffffffff,(%esp)
    4187:	e8 c4 ca 00 00       	call   10c50 <log_msg>
    418c:	8b 45 e4             	mov    -0x1c(%ebp),%eax
    418f:	40                   	inc    %eax
    4190:	c7 04 24 38 00 00 00 	movl   $0x38,(%esp)
    4197:	89 45 e4             	mov    %eax,-0x1c(%ebp)
    419a:	e8 51 1b 01 00       	call   15cf0 <malloc>
    419f:	89 c3                	mov    %eax,%ebx
    41a1:	85 c0                	test   %eax,%eax
    41a3:	0f 84 5b ff ff ff    	je     4104 <lookup_available_drivers+0xb4>
    41a9:	c7 44 24 08 38 00 00 	movl   $0x38,0x8(%esp)
    41b0:	00 
    41b1:	c7 44 24 04 00 00 00 	movl   $0x0,0x4(%esp)
    41b8:	00 
    41b9:	89 04 24             	mov    %eax,(%esp)
    41bc:	e8 4f 45 00 00       	call   8710 <memset>
    41c1:	8d 43 18             	lea    0x18(%ebx),%eax
    41c4:	89 43 18             	mov    %eax,0x18(%ebx)
    41c7:	89 43 1c             	mov    %eax,0x1c(%ebx)
    41ca:	8d 43 20             	lea    0x20(%ebx),%eax
    41cd:	89 43 20             	mov    %eax,0x20(%ebx)
    41d0:	89 43 24             	mov    %eax,0x24(%ebx)
    41d3:	8d 43 28             	lea    0x28(%ebx),%eax
    41d6:	89 04 24             	mov    %eax,(%esp)
    41d9:	e8 72 87 00 00       	call   c950 <fibril_mutex_initialize>
    41de:	c7 43 0c 00 00 00 00 	movl   $0x0,0xc(%ebx)
    41e5:	e9 1a ff ff ff       	jmp    4104 <lookup_available_drivers+0xb4>
    41ea:	8d b6 00 00 00 00    	lea    0x0(%esi),%esi
    41f0:	c7 45 e4 00 00 00 00 	movl   $0x0,-0x1c(%ebp)
    41f7:	8b 45 e4             	mov    -0x1c(%ebp),%eax
    41fa:	83 c4 2c             	add    $0x2c,%esp
    41fd:	5b                   	pop    %ebx
    41fe:	5e                   	pop    %esi
    41ff:	5f                   	pop    %edi
    4200:	5d                   	pop    %ebp
    4201:	c3                   	ret    
    4202:	c7 44 24 08 e8 02 00 	movl   $0x2e8,0x8(%esp)
    4209:	00 
    420a:	c7 44 24 04 30 31 02 	movl   $0x23130,0x4(%esp)
    4211:	00 
    4212:	c7 04 24 4d 31 02 00 	movl   $0x2314d,(%esp)
    4219:	e8 32 c3 01 00       	call   20550 <assert_abort>
    421e:	66 90                	xchg   %ax,%ax

00004220 <delete_driver>:
    4220:	55                   	push   %ebp
    4221:	89 e5                	mov    %esp,%ebp
    4223:	53                   	push   %ebx
    4224:	83 ec 14             	sub    $0x14,%esp
    4227:	8b 5d 08             	mov    0x8(%ebp),%ebx
    422a:	85 db                	test   %ebx,%ebx
    422c:	74 15                	je     4243 <delete_driver+0x23>
    422e:	89 1c 24             	mov    %ebx,(%esp)
    4231:	e8 3a fd ff ff       	call   3f70 <clean_driver>
    4236:	89 5d 08             	mov    %ebx,0x8(%ebp)
    4239:	83 c4 14             	add    $0x14,%esp
    423c:	5b                   	pop    %ebx
    423d:	5d                   	pop    %ebp
    423e:	e9 bd 1b 01 00       	jmp    15e00 <free>
    4243:	c7 44 24 08 e8 02 00 	movl   $0x2e8,0x8(%esp)
    424a:	00 
    424b:	c7 44 24 04 30 31 02 	movl   $0x23130,0x4(%esp)
    4252:	00 
    4253:	c7 04 24 4d 31 02 00 	movl   $0x2314d,(%esp)
    425a:	e8 f1 c2 01 00       	call   20550 <assert_abort>
    425f:	90                   	nop

00004260 <loc_register_tree_function>:
    4260:	55                   	push   %ebp
    4261:	89 e5                	mov    %esp,%ebp
    4263:	57                   	push   %edi
    4264:	56                   	push   %esi
    4265:	53                   	push   %ebx
    4266:	83 ec 2c             	sub    $0x2c,%esp
    4269:	c7 45 e0 00 00 00 00 	movl   $0x0,-0x20(%ebp)
    4270:	8b 7d 0c             	mov    0xc(%ebp),%edi
    4273:	8b 5d 08             	mov    0x8(%ebp),%ebx
    4276:	c7 45 e4 00 00 00 00 	movl   $0x0,-0x1c(%ebp)
    427d:	8d 77 08             	lea    0x8(%edi),%esi
    4280:	89 34 24             	mov    %esi,(%esp)
    4283:	e8 c8 8c 00 00       	call   cf50 <fibril_rwlock_is_locked>
    4288:	84 c0                	test   %al,%al
    428a:	0f 84 d3 00 00 00    	je     4363 <loc_register_tree_function+0x103>
    4290:	8b 43 24             	mov    0x24(%ebx),%eax
    4293:	c7 44 24 04 ba 31 02 	movl   $0x231ba,0x4(%esp)
    429a:	00 
    429b:	89 44 24 08          	mov    %eax,0x8(%esp)
    429f:	8d 45 e4             	lea    -0x1c(%ebp),%eax
    42a2:	89 04 24             	mov    %eax,(%esp)
    42a5:	e8 b6 a1 00 00       	call   e460 <asprintf>
    42aa:	8b 45 e4             	mov    -0x1c(%ebp),%eax
    42ad:	85 c0                	test   %eax,%eax
    42af:	0f 84 8c 00 00 00    	je     4341 <loc_register_tree_function+0xe1>
    42b5:	89 04 24             	mov    %eax,(%esp)
    42b8:	c7 44 24 08 5c 00 00 	movl   $0x5c,0x8(%esp)
    42bf:	00 
    42c0:	c7 44 24 04 2f 00 00 	movl   $0x2f,0x4(%esp)
    42c7:	00 
    42c8:	e8 13 19 00 00       	call   5be0 <replace_char>
    42cd:	8b 45 e4             	mov    -0x1c(%ebp),%eax
    42d0:	89 44 24 0c          	mov    %eax,0xc(%esp)
    42d4:	8d 45 e0             	lea    -0x20(%ebp),%eax
    42d7:	c7 44 24 08 af 31 02 	movl   $0x231af,0x8(%esp)
    42de:	00 
    42df:	c7 44 24 04 b7 31 02 	movl   $0x231b7,0x4(%esp)
    42e6:	00 
    42e7:	89 04 24             	mov    %eax,(%esp)
    42ea:	e8 71 a1 00 00       	call   e460 <asprintf>
    42ef:	8b 45 e0             	mov    -0x20(%ebp),%eax
    42f2:	85 c0                	test   %eax,%eax
    42f4:	74 5a                	je     4350 <loc_register_tree_function+0xf0>
    42f6:	8d 53 40             	lea    0x40(%ebx),%edx
    42f9:	c7 44 24 08 04 00 00 	movl   $0x4,0x8(%esp)
    4300:	00 
    4301:	89 54 24 04          	mov    %edx,0x4(%esp)
    4305:	89 04 24             	mov    %eax,(%esp)
    4308:	e8 b3 26 00 00       	call   69c0 <loc_service_register_with_iface>
    430d:	89 34 24             	mov    %esi,(%esp)
    4310:	e8 db 8b 00 00       	call   cef0 <fibril_rwlock_is_write_locked>
    4315:	84 c0                	test   %al,%al
    4317:	74 66                	je     437f <loc_register_tree_function+0x11f>
    4319:	83 c3 4c             	add    $0x4c,%ebx
    431c:	83 c7 54             	add    $0x54,%edi
    431f:	89 5c 24 04          	mov    %ebx,0x4(%esp)
    4323:	89 3c 24             	mov    %edi,(%esp)
    4326:	e8 c5 7a 01 00       	call   1bdf0 <hash_table_insert>
    432b:	8b 45 e4             	mov    -0x1c(%ebp),%eax
    432e:	89 04 24             	mov    %eax,(%esp)
    4331:	e8 ca 1a 01 00       	call   15e00 <free>
    4336:	8b 45 e0             	mov    -0x20(%ebp),%eax
    4339:	89 04 24             	mov    %eax,(%esp)
    433c:	e8 bf 1a 01 00       	call   15e00 <free>
    4341:	83 c4 2c             	add    $0x2c,%esp
    4344:	5b                   	pop    %ebx
    4345:	5e                   	pop    %esi
    4346:	5f                   	pop    %edi
    4347:	5d                   	pop    %ebp
    4348:	c3                   	ret    
    4349:	8d b4 26 00 00 00 00 	lea    0x0(%esi,%eiz,1),%esi
    4350:	8b 45 e4             	mov    -0x1c(%ebp),%eax
    4353:	89 04 24             	mov    %eax,(%esp)
    4356:	e8 a5 1a 01 00       	call   15e00 <free>
    435b:	83 c4 2c             	add    $0x2c,%esp
    435e:	5b                   	pop    %ebx
    435f:	5e                   	pop    %esi
    4360:	5f                   	pop    %edi
    4361:	5d                   	pop    %ebp
    4362:	c3                   	ret    
    4363:	c7 44 24 08 f4 02 00 	movl   $0x2f4,0x8(%esp)
    436a:	00 
    436b:	c7 44 24 04 30 31 02 	movl   $0x23130,0x4(%esp)
    4372:	00 
    4373:	c7 04 24 84 35 02 00 	movl   $0x23584,(%esp)
    437a:	e8 d1 c1 01 00       	call   20550 <assert_abort>
    437f:	c7 44 24 08 f2 05 00 	movl   $0x5f2,0x8(%esp)
    4386:	00 
    4387:	c7 44 24 04 30 31 02 	movl   $0x23130,0x4(%esp)
    438e:	00 
    438f:	c7 04 24 d4 32 02 00 	movl   $0x232d4,(%esp)
    4396:	e8 b5 c1 01 00       	call   20550 <assert_abort>
    439b:	90                   	nop
    439c:	8d 74 26 00          	lea    0x0(%esi,%eiz,1),%esi

000043a0 <add_device>:
    43a0:	55                   	push   %ebp
    43a1:	89 e5                	mov    %esp,%ebp
    43a3:	57                   	push   %edi
    43a4:	56                   	push   %esi
    43a5:	53                   	push   %ebx
    43a6:	83 ec 5c             	sub    $0x5c,%esp
    43a9:	8b 5d 0c             	mov    0xc(%ebp),%ebx
    43ac:	8b 75 08             	mov    0x8(%ebp),%esi
    43af:	8b 43 08             	mov    0x8(%ebx),%eax
    43b2:	8b 40 1c             	mov    0x1c(%eax),%eax
    43b5:	89 44 24 10          	mov    %eax,0x10(%esp)
    43b9:	8b 46 10             	mov    0x10(%esi),%eax
    43bc:	c7 44 24 08 ac 35 02 	movl   $0x235ac,0x8(%esp)
    43c3:	00 
    43c4:	89 44 24 0c          	mov    %eax,0xc(%esp)
    43c8:	c7 44 24 04 04 00 00 	movl   $0x4,0x4(%esp)
    43cf:	00 
    43d0:	c7 04 24 ff ff ff ff 	movl   $0xffffffff,(%esp)
    43d7:	e8 74 c8 00 00       	call   10c50 <log_msg>
    43dc:	8b 43 08             	mov    0x8(%ebx),%eax
    43df:	85 c0                	test   %eax,%eax
    43e1:	0f 84 c1 00 00 00    	je     44a8 <add_device+0x108>
    43e7:	8b 78 18             	mov    0x18(%eax),%edi
    43ea:	8b 46 0c             	mov    0xc(%esi),%eax
    43ed:	89 04 24             	mov    %eax,(%esp)
    43f0:	e8 3b 4e 01 00       	call   19230 <async_exchange_begin>
    43f5:	89 7c 24 0c          	mov    %edi,0xc(%esp)
    43f9:	89 c6                	mov    %eax,%esi
    43fb:	8d 45 c4             	lea    -0x3c(%ebp),%eax
    43fe:	89 44 24 18          	mov    %eax,0x18(%esp)
    4402:	c7 44 24 14 00 00 00 	movl   $0x0,0x14(%esp)
    4409:	00 
    440a:	c7 44 24 10 00 00 00 	movl   $0x0,0x10(%esp)
    4411:	00 
    4412:	8b 43 04             	mov    0x4(%ebx),%eax
    4415:	c7 44 24 04 00 04 00 	movl   $0x400,0x4(%esp)
    441c:	00 
    441d:	89 44 24 08          	mov    %eax,0x8(%esp)
    4421:	89 34 24             	mov    %esi,(%esp)
    4424:	e8 a7 37 01 00       	call   17bd0 <async_send_fast>
    4429:	89 c7                	mov    %eax,%edi
    442b:	8b 43 08             	mov    0x8(%ebx),%eax
    442e:	8b 40 1c             	mov    0x1c(%eax),%eax
    4431:	89 04 24             	mov    %eax,(%esp)
    4434:	e8 67 52 00 00       	call   96a0 <str_size>
    4439:	40                   	inc    %eax
    443a:	89 44 24 08          	mov    %eax,0x8(%esp)
    443e:	8b 43 08             	mov    0x8(%ebx),%eax
    4441:	8b 40 1c             	mov    0x1c(%eax),%eax
    4444:	89 34 24             	mov    %esi,(%esp)
    4447:	89 44 24 04          	mov    %eax,0x4(%esp)
    444b:	e8 d0 5c 01 00       	call   1a120 <async_data_write_start>
    4450:	89 34 24             	mov    %esi,(%esp)
    4453:	89 45 c0             	mov    %eax,-0x40(%ebp)
    4456:	e8 45 51 01 00       	call   195a0 <async_exchange_end>
    445b:	8d 45 c0             	lea    -0x40(%ebp),%eax
    445e:	89 3c 24             	mov    %edi,(%esp)
    4461:	89 44 24 04          	mov    %eax,0x4(%esp)
    4465:	e8 36 39 01 00       	call   17da0 <async_wait_for>
    446a:	8b 45 c0             	mov    -0x40(%ebp),%eax
    446d:	85 c0                	test   %eax,%eax
    446f:	75 17                	jne    4488 <add_device+0xe8>
    4471:	c7 43 18 01 00 00 00 	movl   $0x1,0x18(%ebx)
    4478:	c6 43 2c 01          	movb   $0x1,0x2c(%ebx)
    447c:	83 c4 5c             	add    $0x5c,%esp
    447f:	5b                   	pop    %ebx
    4480:	5e                   	pop    %esi
    4481:	5f                   	pop    %edi
    4482:	5d                   	pop    %ebp
    4483:	c3                   	ret    
    4484:	8d 74 26 00          	lea    0x0(%esi,%eiz,1),%esi
    4488:	40                   	inc    %eax
    4489:	c6 43 2c 01          	movb   $0x1,0x2c(%ebx)
    448d:	0f 95 c0             	setne  %al
    4490:	25 ff 00 00 00       	and    $0xff,%eax
    4495:	83 c0 02             	add    $0x2,%eax
    4498:	89 43 18             	mov    %eax,0x18(%ebx)
    449b:	83 c4 5c             	add    $0x5c,%esp
    449e:	5b                   	pop    %ebx
    449f:	5e                   	pop    %esi
    44a0:	5f                   	pop    %edi
    44a1:	5d                   	pop    %ebp
    44a2:	c3                   	ret    
    44a3:	90                   	nop
    44a4:	8d 74 26 00          	lea    0x0(%esi,%eiz,1),%esi
    44a8:	31 ff                	xor    %edi,%edi
    44aa:	e9 3b ff ff ff       	jmp    43ea <add_device+0x4a>
    44af:	90                   	nop

000044b0 <initialize_running_driver>:
    44b0:	55                   	push   %ebp
    44b1:	89 e5                	mov    %esp,%ebp
    44b3:	57                   	push   %edi
    44b4:	56                   	push   %esi
    44b5:	53                   	push   %ebx
    44b6:	83 ec 2c             	sub    $0x2c,%esp
    44b9:	8b 45 08             	mov    0x8(%ebp),%eax
    44bc:	8b 55 0c             	mov    0xc(%ebp),%edx
    44bf:	89 45 e4             	mov    %eax,-0x1c(%ebp)
    44c2:	89 55 d8             	mov    %edx,-0x28(%ebp)
    44c5:	8b 40 10             	mov    0x10(%eax),%eax
    44c8:	c7 44 24 08 cc 35 02 	movl   $0x235cc,0x8(%esp)
    44cf:	00 
    44d0:	89 44 24 0c          	mov    %eax,0xc(%esp)
    44d4:	c7 44 24 04 04 00 00 	movl   $0x4,0x4(%esp)
    44db:	00 
    44dc:	c7 04 24 ff ff ff ff 	movl   $0xffffffff,(%esp)
    44e3:	e8 68 c7 00 00       	call   10c50 <log_msg>
    44e8:	8b 55 e4             	mov    -0x1c(%ebp),%edx
    44eb:	8b 42 10             	mov    0x10(%edx),%eax
    44ee:	c7 44 24 08 f4 35 02 	movl   $0x235f4,0x8(%esp)
    44f5:	00 
    44f6:	89 44 24 0c          	mov    %eax,0xc(%esp)
    44fa:	c7 44 24 04 04 00 00 	movl   $0x4,0x4(%esp)
    4501:	00 
    4502:	c7 04 24 ff ff ff ff 	movl   $0xffffffff,(%esp)
    4509:	e8 42 c7 00 00       	call   10c50 <log_msg>
    450e:	8b 45 e4             	mov    -0x1c(%ebp),%eax
    4511:	83 c0 28             	add    $0x28,%eax
    4514:	89 04 24             	mov    %eax,(%esp)
    4517:	89 45 e0             	mov    %eax,-0x20(%ebp)
    451a:	e8 51 84 00 00       	call   c970 <fibril_mutex_lock>
    451f:	8b 55 e4             	mov    -0x1c(%ebp),%edx
    4522:	8b 75 d8             	mov    -0x28(%ebp),%esi
    4525:	8d 42 20             	lea    0x20(%edx),%eax
    4528:	8b 7a 24             	mov    0x24(%edx),%edi
    452b:	89 45 dc             	mov    %eax,-0x24(%ebp)
    452e:	83 c6 08             	add    $0x8,%esi
    4531:	8d b4 26 00 00 00 00 	lea    0x0(%esi,%eiz,1),%esi
    4538:	3b 7d dc             	cmp    -0x24(%ebp),%edi
    453b:	74 21                	je     455e <initialize_running_driver+0xae>
    453d:	8d 5f e4             	lea    -0x1c(%edi),%ebx
    4540:	89 34 24             	mov    %esi,(%esp)
    4543:	e8 a8 87 00 00       	call   ccf0 <fibril_rwlock_write_lock>
    4548:	80 7b 2c 00          	cmpb   $0x0,0x2c(%ebx)
    454c:	74 52                	je     45a0 <initialize_running_driver+0xf0>
    454e:	89 34 24             	mov    %esi,(%esp)
    4551:	e8 da 88 00 00       	call   ce30 <fibril_rwlock_write_unlock>
    4556:	8b 7f 04             	mov    0x4(%edi),%edi
    4559:	3b 7d dc             	cmp    -0x24(%ebp),%edi
    455c:	75 df                	jne    453d <initialize_running_driver+0x8d>
    455e:	8b 55 e4             	mov    -0x1c(%ebp),%edx
    4561:	8b 42 10             	mov    0x10(%edx),%eax
    4564:	c7 44 24 08 40 36 02 	movl   $0x23640,0x8(%esp)
    456b:	00 
    456c:	89 44 24 0c          	mov    %eax,0xc(%esp)
    4570:	c7 44 24 04 04 00 00 	movl   $0x4,0x4(%esp)
    4577:	00 
    4578:	c7 04 24 ff ff ff ff 	movl   $0xffffffff,(%esp)
    457f:	e8 cc c6 00 00       	call   10c50 <log_msg>
    4584:	8b 45 e4             	mov    -0x1c(%ebp),%eax
    4587:	8b 55 e0             	mov    -0x20(%ebp),%edx
    458a:	c7 40 08 02 00 00 00 	movl   $0x2,0x8(%eax)
    4591:	89 55 08             	mov    %edx,0x8(%ebp)
    4594:	83 c4 2c             	add    $0x2c,%esp
    4597:	5b                   	pop    %ebx
    4598:	5e                   	pop    %esi
    4599:	5f                   	pop    %edi
    459a:	5d                   	pop    %ebp
    459b:	e9 f0 84 00 00       	jmp    ca90 <fibril_mutex_unlock>
    45a0:	8b 47 e4             	mov    -0x1c(%edi),%eax
    45a3:	c7 44 24 08 18 36 02 	movl   $0x23618,0x8(%esp)
    45aa:	00 
    45ab:	89 44 24 0c          	mov    %eax,0xc(%esp)
    45af:	c7 44 24 04 04 00 00 	movl   $0x4,0x4(%esp)
    45b6:	00 
    45b7:	c7 04 24 ff ff ff ff 	movl   $0xffffffff,(%esp)
    45be:	e8 8d c6 00 00       	call   10c50 <log_msg>
    45c3:	f0 ff 47 e4          	lock incl -0x1c(%edi)
    45c7:	8b 55 e0             	mov    -0x20(%ebp),%edx
    45ca:	89 14 24             	mov    %edx,(%esp)
    45cd:	e8 be 84 00 00       	call   ca90 <fibril_mutex_unlock>
    45d2:	89 34 24             	mov    %esi,(%esp)
    45d5:	e8 56 88 00 00       	call   ce30 <fibril_rwlock_write_unlock>
    45da:	8b 45 d8             	mov    -0x28(%ebp),%eax
    45dd:	8b 55 e4             	mov    -0x1c(%ebp),%edx
    45e0:	89 44 24 08          	mov    %eax,0x8(%esp)
    45e4:	89 5c 24 04          	mov    %ebx,0x4(%esp)
    45e8:	89 14 24             	mov    %edx,(%esp)
    45eb:	e8 b0 fd ff ff       	call   43a0 <add_device>
    45f0:	83 c8 ff             	or     $0xffffffff,%eax
    45f3:	f0 0f c1 47 e4       	lock xadd %eax,-0x1c(%edi)
    45f8:	48                   	dec    %eax
    45f9:	74 1d                	je     4618 <initialize_running_driver+0x168>
    45fb:	8b 45 e0             	mov    -0x20(%ebp),%eax
    45fe:	89 04 24             	mov    %eax,(%esp)
    4601:	e8 6a 83 00 00       	call   c970 <fibril_mutex_lock>
    4606:	8b 55 e4             	mov    -0x1c(%ebp),%edx
    4609:	8b 7a 24             	mov    0x24(%edx),%edi
    460c:	e9 27 ff ff ff       	jmp    4538 <initialize_running_driver+0x88>
    4611:	8d b4 26 00 00 00 00 	lea    0x0(%esi,%eiz,1),%esi
    4618:	83 ef 10             	sub    $0x10,%edi
    461b:	39 7b 10             	cmp    %edi,0x10(%ebx)
    461e:	75 18                	jne    4638 <initialize_running_driver+0x188>
    4620:	8b 43 08             	mov    0x8(%ebx),%eax
    4623:	85 c0                	test   %eax,%eax
    4625:	75 49                	jne    4670 <initialize_running_driver+0x1c0>
    4627:	8b 43 14             	mov    0x14(%ebx),%eax
    462a:	85 c0                	test   %eax,%eax
    462c:	75 26                	jne    4654 <initialize_running_driver+0x1a4>
    462e:	89 1c 24             	mov    %ebx,(%esp)
    4631:	e8 ca 17 01 00       	call   15e00 <free>
    4636:	eb c3                	jmp    45fb <initialize_running_driver+0x14b>
    4638:	c7 44 24 08 1a 04 00 	movl   $0x41a,0x8(%esp)
    463f:	00 
    4640:	c7 44 24 04 30 31 02 	movl   $0x23130,0x4(%esp)
    4647:	00 
    4648:	c7 04 24 bd 31 02 00 	movl   $0x231bd,(%esp)
    464f:	e8 fc be 01 00       	call   20550 <assert_abort>
    4654:	c7 44 24 08 1c 04 00 	movl   $0x41c,0x8(%esp)
    465b:	00 
    465c:	c7 44 24 04 30 31 02 	movl   $0x23130,0x4(%esp)
    4663:	00 
    4664:	c7 04 24 eb 31 02 00 	movl   $0x231eb,(%esp)
    466b:	e8 e0 be 01 00       	call   20550 <assert_abort>
    4670:	c7 44 24 08 1b 04 00 	movl   $0x41b,0x8(%esp)
    4677:	00 
    4678:	c7 44 24 04 30 31 02 	movl   $0x23130,0x4(%esp)
    467f:	00 
    4680:	c7 04 24 d9 31 02 00 	movl   $0x231d9,(%esp)
    4687:	e8 c4 be 01 00       	call   20550 <assert_abort>
    468c:	8d 74 26 00          	lea    0x0(%esi,%eiz,1),%esi

00004690 <assign_driver>:
    4690:	55                   	push   %ebp
    4691:	89 e5                	mov    %esp,%ebp
    4693:	57                   	push   %edi
    4694:	56                   	push   %esi
    4695:	53                   	push   %ebx
    4696:	83 ec 3c             	sub    $0x3c,%esp
    4699:	8b 7d 08             	mov    0x8(%ebp),%edi
    469c:	85 ff                	test   %edi,%edi
    469e:	0f 84 71 02 00 00    	je     4915 <assign_driver+0x285>
    46a4:	8b 4d 0c             	mov    0xc(%ebp),%ecx
    46a7:	85 c9                	test   %ecx,%ecx
    46a9:	0f 84 9e 02 00 00    	je     494d <assign_driver+0x2bd>
    46af:	8b 55 10             	mov    0x10(%ebp),%edx
    46b2:	85 d2                	test   %edx,%edx
    46b4:	0f 84 77 02 00 00    	je     4931 <assign_driver+0x2a1>
    46ba:	8b 45 0c             	mov    0xc(%ebp),%eax
    46bd:	83 c0 08             	add    $0x8,%eax
    46c0:	89 04 24             	mov    %eax,(%esp)
    46c3:	89 45 dc             	mov    %eax,-0x24(%ebp)
    46c6:	e8 a5 82 00 00       	call   c970 <fibril_mutex_lock>
    46cb:	8b 45 0c             	mov    0xc(%ebp),%eax
    46ce:	8b 70 04             	mov    0x4(%eax),%esi
    46d1:	39 c6                	cmp    %eax,%esi
    46d3:	0f 84 a7 01 00 00    	je     4880 <assign_driver+0x1f0>
    46d9:	31 db                	xor    %ebx,%ebx
    46db:	31 d2                	xor    %edx,%edx
    46dd:	89 5d e0             	mov    %ebx,-0x20(%ebp)
    46e0:	89 f3                	mov    %esi,%ebx
    46e2:	89 d6                	mov    %edx,%esi
    46e4:	8d 74 26 00          	lea    0x0(%esi,%eiz,1),%esi
    46e8:	89 7c 24 04          	mov    %edi,0x4(%esp)
    46ec:	89 1c 24             	mov    %ebx,(%esp)
    46ef:	e8 9c 12 00 00       	call   5990 <get_match_score>
    46f4:	39 f0                	cmp    %esi,%eax
    46f6:	7e 05                	jle    46fd <assign_driver+0x6d>
    46f8:	89 c6                	mov    %eax,%esi
    46fa:	89 5d e0             	mov    %ebx,-0x20(%ebp)
    46fd:	8b 5b 04             	mov    0x4(%ebx),%ebx
    4700:	3b 5d 0c             	cmp    0xc(%ebp),%ebx
    4703:	75 e3                	jne    46e8 <assign_driver+0x58>
    4705:	8b 45 dc             	mov    -0x24(%ebp),%eax
    4708:	8b 5d e0             	mov    -0x20(%ebp),%ebx
    470b:	89 04 24             	mov    %eax,(%esp)
    470e:	e8 7d 83 00 00       	call   ca90 <fibril_mutex_unlock>
    4713:	85 db                	test   %ebx,%ebx
    4715:	0f 84 70 01 00 00    	je     488b <assign_driver+0x1fb>
    471b:	8b 43 10             	mov    0x10(%ebx),%eax
    471e:	8d 73 28             	lea    0x28(%ebx),%esi
    4721:	89 44 24 10          	mov    %eax,0x10(%esp)
    4725:	8b 47 08             	mov    0x8(%edi),%eax
    4728:	8b 40 24             	mov    0x24(%eax),%eax
    472b:	c7 44 24 08 c4 34 02 	movl   $0x234c4,0x8(%esp)
    4732:	00 
    4733:	89 44 24 0c          	mov    %eax,0xc(%esp)
    4737:	c7 44 24 04 04 00 00 	movl   $0x4,0x4(%esp)
    473e:	00 
    473f:	c7 04 24 ff ff ff ff 	movl   $0xffffffff,(%esp)
    4746:	e8 05 c5 00 00       	call   10c50 <log_msg>
    474b:	89 34 24             	mov    %esi,(%esp)
    474e:	e8 1d 82 00 00       	call   c970 <fibril_mutex_lock>
    4753:	8b 45 10             	mov    0x10(%ebp),%eax
    4756:	83 c0 08             	add    $0x8,%eax
    4759:	89 04 24             	mov    %eax,(%esp)
    475c:	89 45 e4             	mov    %eax,-0x1c(%ebp)
    475f:	e8 8c 85 00 00       	call   ccf0 <fibril_rwlock_write_lock>
    4764:	8d 53 20             	lea    0x20(%ebx),%edx
    4767:	89 57 20             	mov    %edx,0x20(%edi)
    476a:	8b 53 20             	mov    0x20(%ebx),%edx
    476d:	89 57 1c             	mov    %edx,0x1c(%edi)
    4770:	8d 47 1c             	lea    0x1c(%edi),%eax
    4773:	8b 53 20             	mov    0x20(%ebx),%edx
    4776:	89 5f 14             	mov    %ebx,0x14(%edi)
    4779:	89 43 20             	mov    %eax,0x20(%ebx)
    477c:	89 42 04             	mov    %eax,0x4(%edx)
    477f:	8b 45 e4             	mov    -0x1c(%ebp),%eax
    4782:	89 04 24             	mov    %eax,(%esp)
    4785:	e8 a6 86 00 00       	call   ce30 <fibril_rwlock_write_unlock>
    478a:	89 34 24             	mov    %esi,(%esp)
    478d:	e8 fe 82 00 00       	call   ca90 <fibril_mutex_unlock>
    4792:	89 34 24             	mov    %esi,(%esp)
    4795:	e8 d6 81 00 00       	call   c970 <fibril_mutex_lock>
    479a:	8b 43 08             	mov    0x8(%ebx),%eax
    479d:	85 c0                	test   %eax,%eax
    479f:	74 57                	je     47f8 <assign_driver+0x168>
    47a1:	89 34 24             	mov    %esi,(%esp)
    47a4:	89 45 d8             	mov    %eax,-0x28(%ebp)
    47a7:	e8 e4 82 00 00       	call   ca90 <fibril_mutex_unlock>
    47ac:	8b 45 d8             	mov    -0x28(%ebp),%eax
    47af:	83 f8 02             	cmp    $0x2,%eax
    47b2:	0f 84 b0 00 00 00    	je     4868 <assign_driver+0x1d8>
    47b8:	89 34 24             	mov    %esi,(%esp)
    47bb:	e8 b0 81 00 00       	call   c970 <fibril_mutex_lock>
    47c0:	89 34 24             	mov    %esi,(%esp)
    47c3:	e8 c8 82 00 00       	call   ca90 <fibril_mutex_unlock>
    47c8:	8b 45 e4             	mov    -0x1c(%ebp),%eax
    47cb:	89 04 24             	mov    %eax,(%esp)
    47ce:	e8 1d 85 00 00       	call   ccf0 <fibril_rwlock_write_lock>
    47d3:	8b 47 08             	mov    0x8(%edi),%eax
    47d6:	85 c0                	test   %eax,%eax
    47d8:	74 07                	je     47e1 <assign_driver+0x151>
    47da:	c7 40 04 02 00 00 00 	movl   $0x2,0x4(%eax)
    47e1:	8b 45 e4             	mov    -0x1c(%ebp),%eax
    47e4:	89 04 24             	mov    %eax,(%esp)
    47e7:	e8 44 86 00 00       	call   ce30 <fibril_rwlock_write_unlock>
    47ec:	83 c4 3c             	add    $0x3c,%esp
    47ef:	b0 01                	mov    $0x1,%al
    47f1:	5b                   	pop    %ebx
    47f2:	5e                   	pop    %esi
    47f3:	5f                   	pop    %edi
    47f4:	5d                   	pop    %ebp
    47f5:	c3                   	ret    
    47f6:	66 90                	xchg   %ax,%ax
    47f8:	89 34 24             	mov    %esi,(%esp)
    47fb:	e8 a0 83 00 00       	call   cba0 <fibril_mutex_is_locked>
    4800:	84 c0                	test   %al,%al
    4802:	0f 84 f1 00 00 00    	je     48f9 <assign_driver+0x269>
    4808:	8b 43 10             	mov    0x10(%ebx),%eax
    480b:	c7 44 24 08 98 31 02 	movl   $0x23198,0x8(%esp)
    4812:	00 
    4813:	89 44 24 0c          	mov    %eax,0xc(%esp)
    4817:	c7 44 24 04 04 00 00 	movl   $0x4,0x4(%esp)
    481e:	00 
    481f:	c7 04 24 ff ff ff ff 	movl   $0xffffffff,(%esp)
    4826:	e8 25 c4 00 00       	call   10c50 <log_msg>
    482b:	8b 43 14             	mov    0x14(%ebx),%eax
    482e:	89 44 24 08          	mov    %eax,0x8(%esp)
    4832:	c7 44 24 0c 00 00 00 	movl   $0x0,0xc(%esp)
    4839:	00 
    483a:	89 44 24 04          	mov    %eax,0x4(%esp)
    483e:	c7 04 24 00 00 00 00 	movl   $0x0,(%esp)
    4845:	e8 86 98 00 00       	call   e0d0 <task_spawnl>
    484a:	85 c0                	test   %eax,%eax
    484c:	75 6d                	jne    48bb <assign_driver+0x22b>
    484e:	c7 43 08 01 00 00 00 	movl   $0x1,0x8(%ebx)
    4855:	89 34 24             	mov    %esi,(%esp)
    4858:	e8 33 82 00 00       	call   ca90 <fibril_mutex_unlock>
    485d:	e9 56 ff ff ff       	jmp    47b8 <assign_driver+0x128>
    4862:	8d b6 00 00 00 00    	lea    0x0(%esi),%esi
    4868:	8b 45 10             	mov    0x10(%ebp),%eax
    486b:	89 7c 24 04          	mov    %edi,0x4(%esp)
    486f:	89 44 24 08          	mov    %eax,0x8(%esp)
    4873:	89 1c 24             	mov    %ebx,(%esp)
    4876:	e8 25 fb ff ff       	call   43a0 <add_device>
    487b:	e9 38 ff ff ff       	jmp    47b8 <assign_driver+0x128>
    4880:	8b 45 dc             	mov    -0x24(%ebp),%eax
    4883:	89 04 24             	mov    %eax,(%esp)
    4886:	e8 05 82 00 00       	call   ca90 <fibril_mutex_unlock>
    488b:	8b 47 08             	mov    0x8(%edi),%eax
    488e:	8b 40 24             	mov    0x24(%eax),%eax
    4891:	c7 44 24 08 64 36 02 	movl   $0x23664,0x8(%esp)
    4898:	00 
    4899:	89 44 24 0c          	mov    %eax,0xc(%esp)
    489d:	c7 44 24 04 01 00 00 	movl   $0x1,0x4(%esp)
    48a4:	00 
    48a5:	c7 04 24 ff ff ff ff 	movl   $0xffffffff,(%esp)
    48ac:	e8 9f c3 00 00       	call   10c50 <log_msg>
    48b1:	83 c4 3c             	add    $0x3c,%esp
    48b4:	31 c0                	xor    %eax,%eax
    48b6:	5b                   	pop    %ebx
    48b7:	5e                   	pop    %esi
    48b8:	5f                   	pop    %edi
    48b9:	5d                   	pop    %ebp
    48ba:	c3                   	ret    
    48bb:	89 04 24             	mov    %eax,(%esp)
    48be:	e8 bd 76 00 00       	call   bf80 <str_error>
    48c3:	89 44 24 14          	mov    %eax,0x14(%esp)
    48c7:	8b 43 14             	mov    0x14(%ebx),%eax
    48ca:	89 44 24 10          	mov    %eax,0x10(%esp)
    48ce:	8b 43 10             	mov    0x10(%ebx),%eax
    48d1:	c7 44 24 08 38 35 02 	movl   $0x23538,0x8(%esp)
    48d8:	00 
    48d9:	89 44 24 0c          	mov    %eax,0xc(%esp)
    48dd:	c7 44 24 04 01 00 00 	movl   $0x1,0x4(%esp)
    48e4:	00 
    48e5:	c7 04 24 ff ff ff ff 	movl   $0xffffffff,(%esp)
    48ec:	e8 5f c3 00 00       	call   10c50 <log_msg>
    48f1:	8b 43 08             	mov    0x8(%ebx),%eax
    48f4:	e9 a8 fe ff ff       	jmp    47a1 <assign_driver+0x111>
    48f9:	c7 44 24 08 3d 02 00 	movl   $0x23d,0x8(%esp)
    4900:	00 
    4901:	c7 44 24 04 30 31 02 	movl   $0x23130,0x4(%esp)
    4908:	00 
    4909:	c7 04 24 0c 35 02 00 	movl   $0x2350c,(%esp)
    4910:	e8 3b bc 01 00       	call   20550 <assert_abort>
    4915:	c7 44 24 08 50 03 00 	movl   $0x350,0x8(%esp)
    491c:	00 
    491d:	c7 44 24 04 30 31 02 	movl   $0x23130,0x4(%esp)
    4924:	00 
    4925:	c7 04 24 d7 2f 02 00 	movl   $0x22fd7,(%esp)
    492c:	e8 1f bc 01 00       	call   20550 <assert_abort>
    4931:	c7 44 24 08 52 03 00 	movl   $0x352,0x8(%esp)
    4938:	00 
    4939:	c7 44 24 04 30 31 02 	movl   $0x23130,0x4(%esp)
    4940:	00 
    4941:	c7 04 24 11 32 02 00 	movl   $0x23211,(%esp)
    4948:	e8 03 bc 01 00       	call   20550 <assert_abort>
    494d:	c7 44 24 08 51 03 00 	movl   $0x351,0x8(%esp)
    4954:	00 
    4955:	c7 44 24 04 30 31 02 	movl   $0x23130,0x4(%esp)
    495c:	00 
    495d:	c7 04 24 fc 31 02 00 	movl   $0x231fc,(%esp)
    4964:	e8 e7 bb 01 00       	call   20550 <assert_abort>
    4969:	8d b4 26 00 00 00 00 	lea    0x0(%esi,%eiz,1),%esi

00004970 <driver_dev_remove>:
    4970:	55                   	push   %ebp
    4971:	89 e5                	mov    %esp,%ebp
    4973:	57                   	push   %edi
    4974:	56                   	push   %esi
    4975:	53                   	push   %ebx
    4976:	83 ec 4c             	sub    $0x4c,%esp
    4979:	8b 5d 0c             	mov    0xc(%ebp),%ebx
    497c:	85 db                	test   %ebx,%ebx
    497e:	0f 84 b9 00 00 00    	je     4a3d <driver_dev_remove+0xcd>
    4984:	89 5c 24 0c          	mov    %ebx,0xc(%esp)
    4988:	c7 44 24 08 1e 32 02 	movl   $0x2321e,0x8(%esp)
    498f:	00 
    4990:	c7 44 24 04 04 00 00 	movl   $0x4,0x4(%esp)
    4997:	00 
    4998:	c7 04 24 ff ff ff ff 	movl   $0xffffffff,(%esp)
    499f:	e8 ac c2 00 00       	call   10c50 <log_msg>
    49a4:	8b 75 08             	mov    0x8(%ebp),%esi
    49a7:	83 c6 08             	add    $0x8,%esi
    49aa:	89 34 24             	mov    %esi,(%esp)
    49ad:	e8 5e 82 00 00       	call   cc10 <fibril_rwlock_read_lock>
    49b2:	8b 7b 04             	mov    0x4(%ebx),%edi
    49b5:	8b 43 14             	mov    0x14(%ebx),%eax
    49b8:	89 34 24             	mov    %esi,(%esp)
    49bb:	89 45 e4             	mov    %eax,-0x1c(%ebp)
    49be:	e8 0d 84 00 00       	call   cdd0 <fibril_rwlock_read_unlock>
    49c3:	8b 45 e4             	mov    -0x1c(%ebp),%eax
    49c6:	8b 40 0c             	mov    0xc(%eax),%eax
    49c9:	89 04 24             	mov    %eax,(%esp)
    49cc:	e8 5f 48 01 00       	call   19230 <async_exchange_begin>
    49d1:	89 7c 24 08          	mov    %edi,0x8(%esp)
    49d5:	c7 44 24 28 00 00 00 	movl   $0x0,0x28(%esp)
    49dc:	00 
    49dd:	c7 44 24 24 00 00 00 	movl   $0x0,0x24(%esp)
    49e4:	00 
    49e5:	c7 44 24 20 00 00 00 	movl   $0x0,0x20(%esp)
    49ec:	00 
    49ed:	c7 44 24 1c 00 00 00 	movl   $0x0,0x1c(%esp)
    49f4:	00 
    49f5:	c7 44 24 18 00 00 00 	movl   $0x0,0x18(%esp)
    49fc:	00 
    49fd:	c7 44 24 14 00 00 00 	movl   $0x0,0x14(%esp)
    4a04:	00 
    4a05:	c7 44 24 10 00 00 00 	movl   $0x0,0x10(%esp)
    4a0c:	00 
    4a0d:	c7 44 24 0c 00 00 00 	movl   $0x0,0xc(%esp)
    4a14:	00 
    4a15:	c7 44 24 04 01 04 00 	movl   $0x401,0x4(%esp)
    4a1c:	00 
    4a1d:	89 04 24             	mov    %eax,(%esp)
    4a20:	89 c3                	mov    %eax,%ebx
    4a22:	e8 b9 37 01 00       	call   181e0 <async_req_fast>
    4a27:	89 1c 24             	mov    %ebx,(%esp)
    4a2a:	89 45 e4             	mov    %eax,-0x1c(%ebp)
    4a2d:	e8 6e 4b 01 00       	call   195a0 <async_exchange_end>
    4a32:	8b 45 e4             	mov    -0x1c(%ebp),%eax
    4a35:	83 c4 4c             	add    $0x4c,%esp
    4a38:	5b                   	pop    %ebx
    4a39:	5e                   	pop    %esi
    4a3a:	5f                   	pop    %edi
    4a3b:	5d                   	pop    %ebp
    4a3c:	c3                   	ret    
    4a3d:	c7 44 24 08 7f 03 00 	movl   $0x37f,0x8(%esp)
    4a44:	00 
    4a45:	c7 44 24 04 30 31 02 	movl   $0x23130,0x4(%esp)
    4a4c:	00 
    4a4d:	c7 04 24 d7 2f 02 00 	movl   $0x22fd7,(%esp)
    4a54:	e8 f7 ba 01 00       	call   20550 <assert_abort>
    4a59:	8d b4 26 00 00 00 00 	lea    0x0(%esi,%eiz,1),%esi

00004a60 <driver_dev_gone>:
    4a60:	55                   	push   %ebp
    4a61:	89 e5                	mov    %esp,%ebp
    4a63:	57                   	push   %edi
    4a64:	56                   	push   %esi
    4a65:	53                   	push   %ebx
    4a66:	83 ec 4c             	sub    $0x4c,%esp
    4a69:	8b 5d 0c             	mov    0xc(%ebp),%ebx
    4a6c:	85 db                	test   %ebx,%ebx
    4a6e:	0f 84 b9 00 00 00    	je     4b2d <driver_dev_gone+0xcd>
    4a74:	89 5c 24 0c          	mov    %ebx,0xc(%esp)
    4a78:	c7 44 24 08 34 32 02 	movl   $0x23234,0x8(%esp)
    4a7f:	00 
    4a80:	c7 44 24 04 04 00 00 	movl   $0x4,0x4(%esp)
    4a87:	00 
    4a88:	c7 04 24 ff ff ff ff 	movl   $0xffffffff,(%esp)
    4a8f:	e8 bc c1 00 00       	call   10c50 <log_msg>
    4a94:	8b 75 08             	mov    0x8(%ebp),%esi
    4a97:	83 c6 08             	add    $0x8,%esi
    4a9a:	89 34 24             	mov    %esi,(%esp)
    4a9d:	e8 6e 81 00 00       	call   cc10 <fibril_rwlock_read_lock>
    4aa2:	8b 7b 04             	mov    0x4(%ebx),%edi
    4aa5:	8b 43 14             	mov    0x14(%ebx),%eax
    4aa8:	89 34 24             	mov    %esi,(%esp)
    4aab:	89 45 e4             	mov    %eax,-0x1c(%ebp)
    4aae:	e8 1d 83 00 00       	call   cdd0 <fibril_rwlock_read_unlock>
    4ab3:	8b 45 e4             	mov    -0x1c(%ebp),%eax
    4ab6:	8b 40 0c             	mov    0xc(%eax),%eax
    4ab9:	89 04 24             	mov    %eax,(%esp)
    4abc:	e8 6f 47 01 00       	call   19230 <async_exchange_begin>
    4ac1:	89 7c 24 08          	mov    %edi,0x8(%esp)
    4ac5:	c7 44 24 28 00 00 00 	movl   $0x0,0x28(%esp)
    4acc:	00 
    4acd:	c7 44 24 24 00 00 00 	movl   $0x0,0x24(%esp)
    4ad4:	00 
    4ad5:	c7 44 24 20 00 00 00 	movl   $0x0,0x20(%esp)
    4adc:	00 
    4add:	c7 44 24 1c 00 00 00 	movl   $0x0,0x1c(%esp)
    4ae4:	00 
    4ae5:	c7 44 24 18 00 00 00 	movl   $0x0,0x18(%esp)
    4aec:	00 
    4aed:	c7 44 24 14 00 00 00 	movl   $0x0,0x14(%esp)
    4af4:	00 
    4af5:	c7 44 24 10 00 00 00 	movl   $0x0,0x10(%esp)
    4afc:	00 
    4afd:	c7 44 24 0c 00 00 00 	movl   $0x0,0xc(%esp)
    4b04:	00 
    4b05:	c7 44 24 04 02 04 00 	movl   $0x402,0x4(%esp)
    4b0c:	00 
    4b0d:	89 04 24             	mov    %eax,(%esp)
    4b10:	89 c3                	mov    %eax,%ebx
    4b12:	e8 c9 36 01 00       	call   181e0 <async_req_fast>
    4b17:	89 1c 24             	mov    %ebx,(%esp)
    4b1a:	89 45 e4             	mov    %eax,-0x1c(%ebp)
    4b1d:	e8 7e 4a 01 00       	call   195a0 <async_exchange_end>
    4b22:	8b 45 e4             	mov    -0x1c(%ebp),%eax
    4b25:	83 c4 4c             	add    $0x4c,%esp
    4b28:	5b                   	pop    %ebx
    4b29:	5e                   	pop    %esi
    4b2a:	5f                   	pop    %edi
    4b2b:	5d                   	pop    %ebp
    4b2c:	c3                   	ret    
    4b2d:	c7 44 24 08 96 03 00 	movl   $0x396,0x8(%esp)
    4b34:	00 
    4b35:	c7 44 24 04 30 31 02 	movl   $0x23130,0x4(%esp)
    4b3c:	00 
    4b3d:	c7 04 24 d7 2f 02 00 	movl   $0x22fd7,(%esp)
    4b44:	e8 07 ba 01 00       	call   20550 <assert_abort>
    4b49:	8d b4 26 00 00 00 00 	lea    0x0(%esi,%eiz,1),%esi

00004b50 <driver_fun_online>:
    4b50:	55                   	push   %ebp
    4b51:	89 e5                	mov    %esp,%ebp
    4b53:	57                   	push   %edi
    4b54:	56                   	push   %esi
    4b55:	53                   	push   %ebx
    4b56:	83 ec 4c             	sub    $0x4c,%esp
    4b59:	8b 5d 0c             	mov    0xc(%ebp),%ebx
    4b5c:	89 5c 24 0c          	mov    %ebx,0xc(%esp)
    4b60:	c7 44 24 08 48 32 02 	movl   $0x23248,0x8(%esp)
    4b67:	00 
    4b68:	c7 44 24 04 04 00 00 	movl   $0x4,0x4(%esp)
    4b6f:	00 
    4b70:	c7 04 24 ff ff ff ff 	movl   $0xffffffff,(%esp)
    4b77:	e8 d4 c0 00 00       	call   10c50 <log_msg>
    4b7c:	8b 75 08             	mov    0x8(%ebp),%esi
    4b7f:	83 c6 08             	add    $0x8,%esi
    4b82:	89 34 24             	mov    %esi,(%esp)
    4b85:	e8 86 80 00 00       	call   cc10 <fibril_rwlock_read_lock>
    4b8a:	8b 43 28             	mov    0x28(%ebx),%eax
    4b8d:	85 c0                	test   %eax,%eax
    4b8f:	0f 84 89 00 00 00    	je     4c1e <driver_fun_online+0xce>
    4b95:	8b 7b 18             	mov    0x18(%ebx),%edi
    4b98:	8b 40 14             	mov    0x14(%eax),%eax
    4b9b:	89 34 24             	mov    %esi,(%esp)
    4b9e:	89 45 e4             	mov    %eax,-0x1c(%ebp)
    4ba1:	e8 2a 82 00 00       	call   cdd0 <fibril_rwlock_read_unlock>
    4ba6:	8b 45 e4             	mov    -0x1c(%ebp),%eax
    4ba9:	8b 40 0c             	mov    0xc(%eax),%eax
    4bac:	89 04 24             	mov    %eax,(%esp)
    4baf:	e8 7c 46 01 00       	call   19230 <async_exchange_begin>
    4bb4:	c7 44 24 28 00 00 00 	movl   $0x0,0x28(%esp)
    4bbb:	00 
    4bbc:	c7 44 24 24 00 00 00 	movl   $0x0,0x24(%esp)
    4bc3:	00 
    4bc4:	c7 44 24 20 00 00 00 	movl   $0x0,0x20(%esp)
    4bcb:	00 
    4bcc:	c7 44 24 1c 00 00 00 	movl   $0x0,0x1c(%esp)
    4bd3:	00 
    4bd4:	c7 44 24 18 00 00 00 	movl   $0x0,0x18(%esp)
    4bdb:	00 
    4bdc:	c7 44 24 14 00 00 00 	movl   $0x0,0x14(%esp)
    4be3:	00 
    4be4:	c7 44 24 10 00 00 00 	movl   $0x0,0x10(%esp)
    4beb:	00 
    4bec:	c7 44 24 0c 00 00 00 	movl   $0x0,0xc(%esp)
    4bf3:	00 
    4bf4:	89 7c 24 08          	mov    %edi,0x8(%esp)
    4bf8:	c7 44 24 04 03 04 00 	movl   $0x403,0x4(%esp)
    4bff:	00 
    4c00:	89 04 24             	mov    %eax,(%esp)
    4c03:	89 c3                	mov    %eax,%ebx
    4c05:	e8 d6 35 01 00       	call   181e0 <async_req_fast>
    4c0a:	89 1c 24             	mov    %ebx,(%esp)
    4c0d:	89 c6                	mov    %eax,%esi
    4c0f:	e8 5c 1b 00 00       	call   6770 <loc_exchange_end>
    4c14:	89 f0                	mov    %esi,%eax
    4c16:	83 c4 4c             	add    $0x4c,%esp
    4c19:	5b                   	pop    %ebx
    4c1a:	5e                   	pop    %esi
    4c1b:	5f                   	pop    %edi
    4c1c:	5d                   	pop    %ebp
    4c1d:	c3                   	ret    
    4c1e:	89 34 24             	mov    %esi,(%esp)
    4c21:	e8 aa 81 00 00       	call   cdd0 <fibril_rwlock_read_unlock>
    4c26:	b8 f2 ff ff ff       	mov    $0xfffffff2,%eax
    4c2b:	eb e9                	jmp    4c16 <driver_fun_online+0xc6>
    4c2d:	8d 76 00             	lea    0x0(%esi),%esi

00004c30 <driver_fun_offline>:
    4c30:	55                   	push   %ebp
    4c31:	89 e5                	mov    %esp,%ebp
    4c33:	57                   	push   %edi
    4c34:	56                   	push   %esi
    4c35:	53                   	push   %ebx
    4c36:	83 ec 4c             	sub    $0x4c,%esp
    4c39:	8b 5d 0c             	mov    0xc(%ebp),%ebx
    4c3c:	89 5c 24 0c          	mov    %ebx,0xc(%esp)
    4c40:	c7 44 24 08 5e 32 02 	movl   $0x2325e,0x8(%esp)
    4c47:	00 
    4c48:	c7 44 24 04 04 00 00 	movl   $0x4,0x4(%esp)
    4c4f:	00 
    4c50:	c7 04 24 ff ff ff ff 	movl   $0xffffffff,(%esp)
    4c57:	e8 f4 bf 00 00       	call   10c50 <log_msg>
    4c5c:	8b 75 08             	mov    0x8(%ebp),%esi
    4c5f:	83 c6 08             	add    $0x8,%esi
    4c62:	89 34 24             	mov    %esi,(%esp)
    4c65:	e8 a6 7f 00 00       	call   cc10 <fibril_rwlock_read_lock>
    4c6a:	8b 43 28             	mov    0x28(%ebx),%eax
    4c6d:	85 c0                	test   %eax,%eax
    4c6f:	0f 84 89 00 00 00    	je     4cfe <driver_fun_offline+0xce>
    4c75:	8b 7b 18             	mov    0x18(%ebx),%edi
    4c78:	8b 40 14             	mov    0x14(%eax),%eax
    4c7b:	89 34 24             	mov    %esi,(%esp)
    4c7e:	89 45 e4             	mov    %eax,-0x1c(%ebp)
    4c81:	e8 4a 81 00 00       	call   cdd0 <fibril_rwlock_read_unlock>
    4c86:	8b 45 e4             	mov    -0x1c(%ebp),%eax
    4c89:	8b 40 0c             	mov    0xc(%eax),%eax
    4c8c:	89 04 24             	mov    %eax,(%esp)
    4c8f:	e8 9c 45 01 00       	call   19230 <async_exchange_begin>
    4c94:	c7 44 24 28 00 00 00 	movl   $0x0,0x28(%esp)
    4c9b:	00 
    4c9c:	c7 44 24 24 00 00 00 	movl   $0x0,0x24(%esp)
    4ca3:	00 
    4ca4:	c7 44 24 20 00 00 00 	movl   $0x0,0x20(%esp)
    4cab:	00 
    4cac:	c7 44 24 1c 00 00 00 	movl   $0x0,0x1c(%esp)
    4cb3:	00 
    4cb4:	c7 44 24 18 00 00 00 	movl   $0x0,0x18(%esp)
    4cbb:	00 
    4cbc:	c7 44 24 14 00 00 00 	movl   $0x0,0x14(%esp)
    4cc3:	00 
    4cc4:	c7 44 24 10 00 00 00 	movl   $0x0,0x10(%esp)
    4ccb:	00 
    4ccc:	c7 44 24 0c 00 00 00 	movl   $0x0,0xc(%esp)
    4cd3:	00 
    4cd4:	89 7c 24 08          	mov    %edi,0x8(%esp)
    4cd8:	c7 44 24 04 04 04 00 	movl   $0x404,0x4(%esp)
    4cdf:	00 
    4ce0:	89 04 24             	mov    %eax,(%esp)
    4ce3:	89 c3                	mov    %eax,%ebx
    4ce5:	e8 f6 34 01 00       	call   181e0 <async_req_fast>
    4cea:	89 1c 24             	mov    %ebx,(%esp)
    4ced:	89 c6                	mov    %eax,%esi
    4cef:	e8 7c 1a 00 00       	call   6770 <loc_exchange_end>
    4cf4:	89 f0                	mov    %esi,%eax
    4cf6:	83 c4 4c             	add    $0x4c,%esp
    4cf9:	5b                   	pop    %ebx
    4cfa:	5e                   	pop    %esi
    4cfb:	5f                   	pop    %edi
    4cfc:	5d                   	pop    %ebp
    4cfd:	c3                   	ret    
    4cfe:	89 34 24             	mov    %esi,(%esp)
    4d01:	e8 ca 80 00 00       	call   cdd0 <fibril_rwlock_read_unlock>
    4d06:	b8 f2 ff ff ff       	mov    $0xfffffff2,%eax
    4d0b:	eb e9                	jmp    4cf6 <driver_fun_offline+0xc6>
    4d0d:	8d 76 00             	lea    0x0(%esi),%esi

00004d10 <init_device_tree>:
    4d10:	55                   	push   %ebp
    4d11:	89 e5                	mov    %esp,%ebp
    4d13:	57                   	push   %edi
    4d14:	56                   	push   %esi
    4d15:	53                   	push   %ebx
    4d16:	83 ec 1c             	sub    $0x1c,%esp
    4d19:	31 ff                	xor    %edi,%edi
    4d1b:	8b 5d 08             	mov    0x8(%ebp),%ebx
    4d1e:	c7 44 24 08 75 32 02 	movl   $0x23275,0x8(%esp)
    4d25:	00 
    4d26:	c7 44 24 04 04 00 00 	movl   $0x4,0x4(%esp)
    4d2d:	00 
    4d2e:	c7 04 24 ff ff ff ff 	movl   $0xffffffff,(%esp)
    4d35:	e8 16 bf 00 00       	call   10c50 <log_msg>
    4d3a:	8d 43 1c             	lea    0x1c(%ebx),%eax
    4d3d:	c7 43 04 00 00 00 00 	movl   $0x0,0x4(%ebx)
    4d44:	c7 44 24 0c a0 62 02 	movl   $0x262a0,0xc(%esp)
    4d4b:	00 
    4d4c:	c7 44 24 08 00 00 00 	movl   $0x0,0x8(%esp)
    4d53:	00 
    4d54:	c7 44 24 04 00 00 00 	movl   $0x0,0x4(%esp)
    4d5b:	00 
    4d5c:	89 04 24             	mov    %eax,(%esp)
    4d5f:	e8 ac 6c 01 00       	call   1ba10 <hash_table_create>
    4d64:	8d 43 38             	lea    0x38(%ebx),%eax
    4d67:	c7 44 24 0c b4 62 02 	movl   $0x262b4,0xc(%esp)
    4d6e:	00 
    4d6f:	c7 44 24 08 00 00 00 	movl   $0x0,0x8(%esp)
    4d76:	00 
    4d77:	c7 44 24 04 00 00 00 	movl   $0x0,0x4(%esp)
    4d7e:	00 
    4d7f:	89 04 24             	mov    %eax,(%esp)
    4d82:	e8 89 6c 01 00       	call   1ba10 <hash_table_create>
    4d87:	8d 43 54             	lea    0x54(%ebx),%eax
    4d8a:	c7 44 24 0c c8 62 02 	movl   $0x262c8,0xc(%esp)
    4d91:	00 
    4d92:	c7 44 24 08 00 00 00 	movl   $0x0,0x8(%esp)
    4d99:	00 
    4d9a:	c7 44 24 04 00 00 00 	movl   $0x0,0x4(%esp)
    4da1:	00 
    4da2:	89 04 24             	mov    %eax,(%esp)
    4da5:	e8 66 6c 01 00       	call   1ba10 <hash_table_create>
    4daa:	8d 43 08             	lea    0x8(%ebx),%eax
    4dad:	89 04 24             	mov    %eax,(%esp)
    4db0:	e8 2b 7e 00 00       	call   cbe0 <fibril_rwlock_initialize>
    4db5:	89 1c 24             	mov    %ebx,(%esp)
    4db8:	e8 e3 eb ff ff       	call   39a0 <create_root_nodes>
    4dbd:	84 c0                	test   %al,%al
    4dbf:	75 0f                	jne    4dd0 <init_device_tree+0xc0>
    4dc1:	83 c4 1c             	add    $0x1c,%esp
    4dc4:	89 f8                	mov    %edi,%eax
    4dc6:	5b                   	pop    %ebx
    4dc7:	5e                   	pop    %esi
    4dc8:	5f                   	pop    %edi
    4dc9:	5d                   	pop    %ebp
    4dca:	c3                   	ret    
    4dcb:	90                   	nop
    4dcc:	8d 74 26 00          	lea    0x0(%esi,%eiz,1),%esi
    4dd0:	8b 03                	mov    (%ebx),%eax
    4dd2:	8b 70 34             	mov    0x34(%eax),%esi
    4dd5:	f0 ff 06             	lock incl (%esi)
    4dd8:	8b 45 0c             	mov    0xc(%ebp),%eax
    4ddb:	89 5c 24 08          	mov    %ebx,0x8(%esp)
    4ddf:	89 44 24 04          	mov    %eax,0x4(%esp)
    4de3:	89 34 24             	mov    %esi,(%esp)
    4de6:	e8 a5 f8 ff ff       	call   4690 <assign_driver>
    4deb:	89 c7                	mov    %eax,%edi
    4ded:	83 c8 ff             	or     $0xffffffff,%eax
    4df0:	f0 0f c1 06          	lock xadd %eax,(%esi)
    4df4:	48                   	dec    %eax
    4df5:	75 ca                	jne    4dc1 <init_device_tree+0xb1>
    4df7:	8d 46 0c             	lea    0xc(%esi),%eax
    4dfa:	39 46 10             	cmp    %eax,0x10(%esi)
    4dfd:	75 18                	jne    4e17 <init_device_tree+0x107>
    4dff:	8b 46 08             	mov    0x8(%esi),%eax
    4e02:	85 c0                	test   %eax,%eax
    4e04:	75 49                	jne    4e4f <init_device_tree+0x13f>
    4e06:	8b 5e 14             	mov    0x14(%esi),%ebx
    4e09:	85 db                	test   %ebx,%ebx
    4e0b:	75 26                	jne    4e33 <init_device_tree+0x123>
    4e0d:	89 34 24             	mov    %esi,(%esp)
    4e10:	e8 eb 0f 01 00       	call   15e00 <free>
    4e15:	eb aa                	jmp    4dc1 <init_device_tree+0xb1>
    4e17:	c7 44 24 08 1a 04 00 	movl   $0x41a,0x8(%esp)
    4e1e:	00 
    4e1f:	c7 44 24 04 30 31 02 	movl   $0x23130,0x4(%esp)
    4e26:	00 
    4e27:	c7 04 24 bd 31 02 00 	movl   $0x231bd,(%esp)
    4e2e:	e8 1d b7 01 00       	call   20550 <assert_abort>
    4e33:	c7 44 24 08 1c 04 00 	movl   $0x41c,0x8(%esp)
    4e3a:	00 
    4e3b:	c7 44 24 04 30 31 02 	movl   $0x23130,0x4(%esp)
    4e42:	00 
    4e43:	c7 04 24 eb 31 02 00 	movl   $0x231eb,(%esp)
    4e4a:	e8 01 b7 01 00       	call   20550 <assert_abort>
    4e4f:	c7 44 24 08 1b 04 00 	movl   $0x41b,0x8(%esp)
    4e56:	00 
    4e57:	c7 44 24 04 30 31 02 	movl   $0x23130,0x4(%esp)
    4e5e:	00 
    4e5f:	c7 04 24 d9 31 02 00 	movl   $0x231d9,(%esp)
    4e66:	e8 e5 b6 01 00       	call   20550 <assert_abort>
    4e6b:	90                   	nop
    4e6c:	8d 74 26 00          	lea    0x0(%esi,%eiz,1),%esi

00004e70 <create_dev_node>:
    4e70:	55                   	push   %ebp
    4e71:	89 e5                	mov    %esp,%ebp
    4e73:	83 ec 18             	sub    $0x18,%esp
    4e76:	c7 44 24 04 30 00 00 	movl   $0x30,0x4(%esp)
    4e7d:	00 
    4e7e:	c7 04 24 01 00 00 00 	movl   $0x1,(%esp)
    4e85:	e8 06 0e 01 00       	call   15c90 <calloc>
    4e8a:	85 c0                	test   %eax,%eax
    4e8c:	74 1d                	je     4eab <create_dev_node+0x3b>
    4e8e:	8d 50 0c             	lea    0xc(%eax),%edx
    4e91:	c7 00 00 00 00 00    	movl   $0x0,(%eax)
    4e97:	89 50 0c             	mov    %edx,0xc(%eax)
    4e9a:	89 50 10             	mov    %edx,0x10(%eax)
    4e9d:	c7 40 1c 00 00 00 00 	movl   $0x0,0x1c(%eax)
    4ea4:	c7 40 20 00 00 00 00 	movl   $0x0,0x20(%eax)
    4eab:	c9                   	leave  
    4eac:	c3                   	ret    
    4ead:	8d 76 00             	lea    0x0(%esi),%esi

00004eb0 <delete_dev_node>:
    4eb0:	55                   	push   %ebp
    4eb1:	89 e5                	mov    %esp,%ebp
    4eb3:	83 ec 18             	sub    $0x18,%esp
    4eb6:	8b 45 08             	mov    0x8(%ebp),%eax
    4eb9:	8d 50 0c             	lea    0xc(%eax),%edx
    4ebc:	39 50 10             	cmp    %edx,0x10(%eax)
    4ebf:	75 17                	jne    4ed8 <delete_dev_node+0x28>
    4ec1:	8b 48 08             	mov    0x8(%eax),%ecx
    4ec4:	85 c9                	test   %ecx,%ecx
    4ec6:	75 48                	jne    4f10 <delete_dev_node+0x60>
    4ec8:	8b 50 14             	mov    0x14(%eax),%edx
    4ecb:	85 d2                	test   %edx,%edx
    4ecd:	75 25                	jne    4ef4 <delete_dev_node+0x44>
    4ecf:	89 45 08             	mov    %eax,0x8(%ebp)
    4ed2:	c9                   	leave  
    4ed3:	e9 28 0f 01 00       	jmp    15e00 <free>
    4ed8:	c7 44 24 08 1a 04 00 	movl   $0x41a,0x8(%esp)
    4edf:	00 
    4ee0:	c7 44 24 04 30 31 02 	movl   $0x23130,0x4(%esp)
    4ee7:	00 
    4ee8:	c7 04 24 bd 31 02 00 	movl   $0x231bd,(%esp)
    4eef:	e8 5c b6 01 00       	call   20550 <assert_abort>
    4ef4:	c7 44 24 08 1c 04 00 	movl   $0x41c,0x8(%esp)
    4efb:	00 
    4efc:	c7 44 24 04 30 31 02 	movl   $0x23130,0x4(%esp)
    4f03:	00 
    4f04:	c7 04 24 eb 31 02 00 	movl   $0x231eb,(%esp)
    4f0b:	e8 40 b6 01 00       	call   20550 <assert_abort>
    4f10:	c7 44 24 08 1b 04 00 	movl   $0x41b,0x8(%esp)
    4f17:	00 
    4f18:	c7 44 24 04 30 31 02 	movl   $0x23130,0x4(%esp)
    4f1f:	00 
    4f20:	c7 04 24 d9 31 02 00 	movl   $0x231d9,(%esp)
    4f27:	e8 24 b6 01 00       	call   20550 <assert_abort>
    4f2c:	8d 74 26 00          	lea    0x0(%esi,%eiz,1),%esi

00004f30 <dev_add_ref>:
    4f30:	55                   	push   %ebp
    4f31:	89 e5                	mov    %esp,%ebp
    4f33:	8b 45 08             	mov    0x8(%ebp),%eax
    4f36:	f0 ff 00             	lock incl (%eax)
    4f39:	5d                   	pop    %ebp
    4f3a:	c3                   	ret    
    4f3b:	90                   	nop
    4f3c:	8d 74 26 00          	lea    0x0(%esi,%eiz,1),%esi

00004f40 <dev_del_ref>:
    4f40:	55                   	push   %ebp
    4f41:	83 c8 ff             	or     $0xffffffff,%eax
    4f44:	89 e5                	mov    %esp,%ebp
    4f46:	83 ec 18             	sub    $0x18,%esp
    4f49:	8b 55 08             	mov    0x8(%ebp),%edx
    4f4c:	f0 0f c1 02          	lock xadd %eax,(%edx)
    4f50:	48                   	dec    %eax
    4f51:	74 05                	je     4f58 <dev_del_ref+0x18>
    4f53:	c9                   	leave  
    4f54:	c3                   	ret    
    4f55:	8d 76 00             	lea    0x0(%esi),%esi
    4f58:	8d 42 0c             	lea    0xc(%edx),%eax
    4f5b:	39 42 10             	cmp    %eax,0x10(%edx)
    4f5e:	75 17                	jne    4f77 <dev_del_ref+0x37>
    4f60:	8b 42 08             	mov    0x8(%edx),%eax
    4f63:	85 c0                	test   %eax,%eax
    4f65:	75 48                	jne    4faf <dev_del_ref+0x6f>
    4f67:	8b 42 14             	mov    0x14(%edx),%eax
    4f6a:	85 c0                	test   %eax,%eax
    4f6c:	75 25                	jne    4f93 <dev_del_ref+0x53>
    4f6e:	89 55 08             	mov    %edx,0x8(%ebp)
    4f71:	c9                   	leave  
    4f72:	e9 89 0e 01 00       	jmp    15e00 <free>
    4f77:	c7 44 24 08 1a 04 00 	movl   $0x41a,0x8(%esp)
    4f7e:	00 
    4f7f:	c7 44 24 04 30 31 02 	movl   $0x23130,0x4(%esp)
    4f86:	00 
    4f87:	c7 04 24 bd 31 02 00 	movl   $0x231bd,(%esp)
    4f8e:	e8 bd b5 01 00       	call   20550 <assert_abort>
    4f93:	c7 44 24 08 1c 04 00 	movl   $0x41c,0x8(%esp)
    4f9a:	00 
    4f9b:	c7 44 24 04 30 31 02 	movl   $0x23130,0x4(%esp)
    4fa2:	00 
    4fa3:	c7 04 24 eb 31 02 00 	movl   $0x231eb,(%esp)
    4faa:	e8 a1 b5 01 00       	call   20550 <assert_abort>
    4faf:	c7 44 24 08 1b 04 00 	movl   $0x41b,0x8(%esp)
    4fb6:	00 
    4fb7:	c7 44 24 04 30 31 02 	movl   $0x23130,0x4(%esp)
    4fbe:	00 
    4fbf:	c7 04 24 d9 31 02 00 	movl   $0x231d9,(%esp)
    4fc6:	e8 85 b5 01 00       	call   20550 <assert_abort>
    4fcb:	90                   	nop
    4fcc:	8d 74 26 00          	lea    0x0(%esi,%eiz,1),%esi

00004fd0 <find_dev_node_no_lock>:
    4fd0:	55                   	push   %ebp
    4fd1:	89 e5                	mov    %esp,%ebp
    4fd3:	53                   	push   %ebx
    4fd4:	83 ec 14             	sub    $0x14,%esp
    4fd7:	8b 5d 08             	mov    0x8(%ebp),%ebx
    4fda:	8d 43 08             	lea    0x8(%ebx),%eax
    4fdd:	89 04 24             	mov    %eax,(%esp)
    4fe0:	e8 6b 7f 00 00       	call   cf50 <fibril_rwlock_is_locked>
    4fe5:	84 c0                	test   %al,%al
    4fe7:	74 23                	je     500c <find_dev_node_no_lock+0x3c>
    4fe9:	8d 45 0c             	lea    0xc(%ebp),%eax
    4fec:	83 c3 1c             	add    $0x1c,%ebx
    4fef:	89 44 24 04          	mov    %eax,0x4(%esp)
    4ff3:	89 1c 24             	mov    %ebx,(%esp)
    4ff6:	e8 25 70 01 00       	call   1c020 <hash_table_find>
    4ffb:	85 c0                	test   %eax,%eax
    4ffd:	74 09                	je     5008 <find_dev_node_no_lock+0x38>
    4fff:	83 e8 24             	sub    $0x24,%eax
    5002:	83 c4 14             	add    $0x14,%esp
    5005:	5b                   	pop    %ebx
    5006:	5d                   	pop    %ebp
    5007:	c3                   	ret    
    5008:	31 c0                	xor    %eax,%eax
    500a:	eb f6                	jmp    5002 <find_dev_node_no_lock+0x32>
    500c:	c7 44 24 08 3e 04 00 	movl   $0x43e,0x8(%esp)
    5013:	00 
    5014:	c7 44 24 04 30 31 02 	movl   $0x23130,0x4(%esp)
    501b:	00 
    501c:	c7 04 24 84 35 02 00 	movl   $0x23584,(%esp)
    5023:	e8 28 b5 01 00       	call   20550 <assert_abort>
    5028:	90                   	nop
    5029:	8d b4 26 00 00 00 00 	lea    0x0(%esi,%eiz,1),%esi

00005030 <find_dev_node>:
    5030:	55                   	push   %ebp
    5031:	89 e5                	mov    %esp,%ebp
    5033:	56                   	push   %esi
    5034:	53                   	push   %ebx
    5035:	83 ec 20             	sub    $0x20,%esp
    5038:	8b 75 08             	mov    0x8(%ebp),%esi
    503b:	8d 5e 08             	lea    0x8(%esi),%ebx
    503e:	89 1c 24             	mov    %ebx,(%esp)
    5041:	e8 ca 7b 00 00       	call   cc10 <fibril_rwlock_read_lock>
    5046:	8b 45 0c             	mov    0xc(%ebp),%eax
    5049:	89 1c 24             	mov    %ebx,(%esp)
    504c:	89 45 f4             	mov    %eax,-0xc(%ebp)
    504f:	e8 fc 7e 00 00       	call   cf50 <fibril_rwlock_is_locked>
    5054:	84 c0                	test   %al,%al
    5056:	74 3c                	je     5094 <find_dev_node+0x64>
    5058:	8d 45 f4             	lea    -0xc(%ebp),%eax
    505b:	83 c6 1c             	add    $0x1c,%esi
    505e:	89 44 24 04          	mov    %eax,0x4(%esp)
    5062:	89 34 24             	mov    %esi,(%esp)
    5065:	e8 b6 6f 01 00       	call   1c020 <hash_table_find>
    506a:	85 c0                	test   %eax,%eax
    506c:	74 22                	je     5090 <find_dev_node+0x60>
    506e:	89 c6                	mov    %eax,%esi
    5070:	83 ee 24             	sub    $0x24,%esi
    5073:	74 04                	je     5079 <find_dev_node+0x49>
    5075:	f0 ff 40 dc          	lock incl -0x24(%eax)
    5079:	89 1c 24             	mov    %ebx,(%esp)
    507c:	e8 4f 7d 00 00       	call   cdd0 <fibril_rwlock_read_unlock>
    5081:	83 c4 20             	add    $0x20,%esp
    5084:	89 f0                	mov    %esi,%eax
    5086:	5b                   	pop    %ebx
    5087:	5e                   	pop    %esi
    5088:	5d                   	pop    %ebp
    5089:	c3                   	ret    
    508a:	8d b6 00 00 00 00    	lea    0x0(%esi),%esi
    5090:	31 f6                	xor    %esi,%esi
    5092:	eb e5                	jmp    5079 <find_dev_node+0x49>
    5094:	c7 44 24 08 3e 04 00 	movl   $0x43e,0x8(%esp)
    509b:	00 
    509c:	c7 44 24 04 30 31 02 	movl   $0x23130,0x4(%esp)
    50a3:	00 
    50a4:	c7 04 24 84 35 02 00 	movl   $0x23584,(%esp)
    50ab:	e8 a0 b4 01 00       	call   20550 <assert_abort>

000050b0 <dev_get_functions>:
    50b0:	55                   	push   %ebp
    50b1:	89 e5                	mov    %esp,%ebp
    50b3:	57                   	push   %edi
    50b4:	56                   	push   %esi
    50b5:	53                   	push   %ebx
    50b6:	83 ec 1c             	sub    $0x1c,%esp
    50b9:	8b 45 08             	mov    0x8(%ebp),%eax
    50bc:	8b 75 10             	mov    0x10(%ebp),%esi
    50bf:	83 c0 08             	add    $0x8,%eax
    50c2:	89 04 24             	mov    %eax,(%esp)
    50c5:	e8 86 7e 00 00       	call   cf50 <fibril_rwlock_is_locked>
    50ca:	84 c0                	test   %al,%al
    50cc:	74 55                	je     5123 <dev_get_functions+0x73>
    50ce:	8b 5d 0c             	mov    0xc(%ebp),%ebx
    50d1:	8b 7d 14             	mov    0x14(%ebp),%edi
    50d4:	c1 ef 02             	shr    $0x2,%edi
    50d7:	83 c3 0c             	add    $0xc,%ebx
    50da:	89 1c 24             	mov    %ebx,(%esp)
    50dd:	e8 8e 67 01 00       	call   1b870 <list_count>
    50e2:	8b 4d 18             	mov    0x18(%ebp),%ecx
    50e5:	c1 e0 02             	shl    $0x2,%eax
    50e8:	f6 45 14 03          	testb  $0x3,0x14(%ebp)
    50ec:	89 01                	mov    %eax,(%ecx)
    50ee:	75 2c                	jne    511c <dev_get_functions+0x6c>
    50f0:	8b 55 0c             	mov    0xc(%ebp),%edx
    50f3:	31 c9                	xor    %ecx,%ecx
    50f5:	8b 42 10             	mov    0x10(%edx),%eax
    50f8:	39 d8                	cmp    %ebx,%eax
    50fa:	74 16                	je     5112 <dev_get_functions+0x62>
    50fc:	8d 74 26 00          	lea    0x0(%esi,%eiz,1),%esi
    5100:	39 cf                	cmp    %ecx,%edi
    5102:	76 06                	jbe    510a <dev_get_functions+0x5a>
    5104:	8b 50 ec             	mov    -0x14(%eax),%edx
    5107:	89 14 8e             	mov    %edx,(%esi,%ecx,4)
    510a:	8b 40 04             	mov    0x4(%eax),%eax
    510d:	41                   	inc    %ecx
    510e:	39 d8                	cmp    %ebx,%eax
    5110:	75 ee                	jne    5100 <dev_get_functions+0x50>
    5112:	31 c0                	xor    %eax,%eax
    5114:	83 c4 1c             	add    $0x1c,%esp
    5117:	5b                   	pop    %ebx
    5118:	5e                   	pop    %esi
    5119:	5f                   	pop    %edi
    511a:	5d                   	pop    %ebp
    511b:	c3                   	ret    
    511c:	b8 f2 ff ff ff       	mov    $0xfffffff2,%eax
    5121:	eb f1                	jmp    5114 <dev_get_functions+0x64>
    5123:	c7 44 24 08 62 04 00 	movl   $0x462,0x8(%esp)
    512a:	00 
    512b:	c7 44 24 04 30 31 02 	movl   $0x23130,0x4(%esp)
    5132:	00 
    5133:	c7 04 24 84 35 02 00 	movl   $0x23584,(%esp)
    513a:	e8 11 b4 01 00       	call   20550 <assert_abort>
    513f:	90                   	nop

00005140 <create_fun_node>:
    5140:	55                   	push   %ebp
    5141:	89 e5                	mov    %esp,%ebp
    5143:	83 ec 28             	sub    $0x28,%esp
    5146:	c7 44 24 04 54 00 00 	movl   $0x54,0x4(%esp)
    514d:	00 
    514e:	c7 04 24 01 00 00 00 	movl   $0x1,(%esp)
    5155:	e8 36 0b 01 00       	call   15c90 <calloc>
    515a:	85 c0                	test   %eax,%eax
    515c:	74 35                	je     5193 <create_fun_node+0x53>
    515e:	8d 50 08             	lea    0x8(%eax),%edx
    5161:	c7 40 04 00 00 00 00 	movl   $0x0,0x4(%eax)
    5168:	c7 00 00 00 00 00    	movl   $0x0,(%eax)
    516e:	89 14 24             	mov    %edx,(%esp)
    5171:	89 45 f4             	mov    %eax,-0xc(%ebp)
    5174:	e8 d7 77 00 00       	call   c950 <fibril_mutex_initialize>
    5179:	8b 45 f4             	mov    -0xc(%ebp),%eax
    517c:	8d 50 38             	lea    0x38(%eax),%edx
    517f:	c7 40 2c 00 00 00 00 	movl   $0x0,0x2c(%eax)
    5186:	c7 40 30 00 00 00 00 	movl   $0x0,0x30(%eax)
    518d:	89 50 38             	mov    %edx,0x38(%eax)
    5190:	89 50 3c             	mov    %edx,0x3c(%eax)
    5193:	c9                   	leave  
    5194:	c3                   	ret    
    5195:	8d 74 26 00          	lea    0x0(%esi,%eiz,1),%esi
    5199:	8d bc 27 00 00 00 00 	lea    0x0(%edi,%eiz,1),%edi

000051a0 <delete_fun_node>:
    51a0:	55                   	push   %ebp
    51a1:	89 e5                	mov    %esp,%ebp
    51a3:	57                   	push   %edi
    51a4:	56                   	push   %esi
    51a5:	53                   	push   %ebx
    51a6:	83 ec 1c             	sub    $0x1c,%esp
    51a9:	8b 7d 08             	mov    0x8(%ebp),%edi
    51ac:	8b 47 28             	mov    0x28(%edi),%eax
    51af:	85 c0                	test   %eax,%eax
    51b1:	75 79                	jne    522c <delete_fun_node+0x8c>
    51b3:	8b 47 34             	mov    0x34(%edi),%eax
    51b6:	85 c0                	test   %eax,%eax
    51b8:	0f 85 8a 00 00 00    	jne    5248 <delete_fun_node+0xa8>
    51be:	8d 77 38             	lea    0x38(%edi),%esi
    51c1:	8b 5f 3c             	mov    0x3c(%edi),%ebx
    51c4:	39 f3                	cmp    %esi,%ebx
    51c6:	74 3f                	je     5207 <delete_fun_node+0x67>
    51c8:	8b 13                	mov    (%ebx),%edx
    51ca:	85 d2                	test   %edx,%edx
    51cc:	74 0e                	je     51dc <delete_fun_node+0x3c>
    51ce:	8b 43 04             	mov    0x4(%ebx),%eax
    51d1:	85 c0                	test   %eax,%eax
    51d3:	74 07                	je     51dc <delete_fun_node+0x3c>
    51d5:	89 10                	mov    %edx,(%eax)
    51d7:	8b 13                	mov    (%ebx),%edx
    51d9:	89 42 04             	mov    %eax,0x4(%edx)
    51dc:	8b 43 08             	mov    0x8(%ebx),%eax
    51df:	c7 03 00 00 00 00    	movl   $0x0,(%ebx)
    51e5:	c7 43 04 00 00 00 00 	movl   $0x0,0x4(%ebx)
    51ec:	85 c0                	test   %eax,%eax
    51ee:	74 08                	je     51f8 <delete_fun_node+0x58>
    51f0:	89 04 24             	mov    %eax,(%esp)
    51f3:	e8 08 0c 01 00       	call   15e00 <free>
    51f8:	89 1c 24             	mov    %ebx,(%esp)
    51fb:	e8 00 0c 01 00       	call   15e00 <free>
    5200:	8b 5e 04             	mov    0x4(%esi),%ebx
    5203:	39 f3                	cmp    %esi,%ebx
    5205:	75 c1                	jne    51c8 <delete_fun_node+0x28>
    5207:	8b 47 1c             	mov    0x1c(%edi),%eax
    520a:	89 04 24             	mov    %eax,(%esp)
    520d:	e8 ae 09 00 00       	call   5bc0 <free_not_null>
    5212:	8b 47 24             	mov    0x24(%edi),%eax
    5215:	89 04 24             	mov    %eax,(%esp)
    5218:	e8 a3 09 00 00       	call   5bc0 <free_not_null>
    521d:	89 7d 08             	mov    %edi,0x8(%ebp)
    5220:	83 c4 1c             	add    $0x1c,%esp
    5223:	5b                   	pop    %ebx
    5224:	5e                   	pop    %esi
    5225:	5f                   	pop    %edi
    5226:	5d                   	pop    %ebp
    5227:	e9 d4 0b 01 00       	jmp    15e00 <free>
    522c:	c7 44 24 08 99 04 00 	movl   $0x499,0x8(%esp)
    5233:	00 
    5234:	c7 44 24 04 30 31 02 	movl   $0x23130,0x4(%esp)
    523b:	00 
    523c:	c7 04 24 88 32 02 00 	movl   $0x23288,(%esp)
    5243:	e8 08 b3 01 00       	call   20550 <assert_abort>
    5248:	c7 44 24 08 9a 04 00 	movl   $0x49a,0x8(%esp)
    524f:	00 
    5250:	c7 44 24 04 30 31 02 	movl   $0x23130,0x4(%esp)
    5257:	00 
    5258:	c7 04 24 99 32 02 00 	movl   $0x23299,(%esp)
    525f:	e8 ec b2 01 00       	call   20550 <assert_abort>
    5264:	8d b6 00 00 00 00    	lea    0x0(%esi),%esi
    526a:	8d bf 00 00 00 00    	lea    0x0(%edi),%edi

00005270 <fun_add_ref>:
    5270:	55                   	push   %ebp
    5271:	89 e5                	mov    %esp,%ebp
    5273:	8b 45 08             	mov    0x8(%ebp),%eax
    5276:	f0 ff 00             	lock incl (%eax)
    5279:	5d                   	pop    %ebp
    527a:	c3                   	ret    
    527b:	90                   	nop
    527c:	8d 74 26 00          	lea    0x0(%esi,%eiz,1),%esi

00005280 <fun_del_ref>:
    5280:	55                   	push   %ebp
    5281:	83 c8 ff             	or     $0xffffffff,%eax
    5284:	89 e5                	mov    %esp,%ebp
    5286:	8b 55 08             	mov    0x8(%ebp),%edx
    5289:	f0 0f c1 02          	lock xadd %eax,(%edx)
    528d:	48                   	dec    %eax
    528e:	74 08                	je     5298 <fun_del_ref+0x18>
    5290:	5d                   	pop    %ebp
    5291:	c3                   	ret    
    5292:	8d b6 00 00 00 00    	lea    0x0(%esi),%esi
    5298:	5d                   	pop    %ebp
    5299:	e9 02 ff ff ff       	jmp    51a0 <delete_fun_node>
    529e:	66 90                	xchg   %ax,%ax

000052a0 <fun_busy_lock>:
    52a0:	55                   	push   %ebp
    52a1:	89 e5                	mov    %esp,%ebp
    52a3:	8b 45 08             	mov    0x8(%ebp),%eax
    52a6:	83 c0 08             	add    $0x8,%eax
    52a9:	89 45 08             	mov    %eax,0x8(%ebp)
    52ac:	5d                   	pop    %ebp
    52ad:	e9 be 76 00 00       	jmp    c970 <fibril_mutex_lock>
    52b2:	8d b4 26 00 00 00 00 	lea    0x0(%esi,%eiz,1),%esi
    52b9:	8d bc 27 00 00 00 00 	lea    0x0(%edi,%eiz,1),%edi

000052c0 <fun_busy_unlock>:
    52c0:	55                   	push   %ebp
    52c1:	89 e5                	mov    %esp,%ebp
    52c3:	8b 45 08             	mov    0x8(%ebp),%eax
    52c6:	83 c0 08             	add    $0x8,%eax
    52c9:	89 45 08             	mov    %eax,0x8(%ebp)
    52cc:	5d                   	pop    %ebp
    52cd:	e9 be 77 00 00       	jmp    ca90 <fibril_mutex_unlock>
    52d2:	8d b4 26 00 00 00 00 	lea    0x0(%esi,%eiz,1),%esi
    52d9:	8d bc 27 00 00 00 00 	lea    0x0(%edi,%eiz,1),%edi

000052e0 <find_fun_node_no_lock>:
    52e0:	55                   	push   %ebp
    52e1:	89 e5                	mov    %esp,%ebp
    52e3:	53                   	push   %ebx
    52e4:	83 ec 14             	sub    $0x14,%esp
    52e7:	8b 5d 08             	mov    0x8(%ebp),%ebx
    52ea:	8d 43 08             	lea    0x8(%ebx),%eax
    52ed:	89 04 24             	mov    %eax,(%esp)
    52f0:	e8 5b 7c 00 00       	call   cf50 <fibril_rwlock_is_locked>
    52f5:	84 c0                	test   %al,%al
    52f7:	74 23                	je     531c <find_fun_node_no_lock+0x3c>
    52f9:	8d 45 0c             	lea    0xc(%ebp),%eax
    52fc:	83 c3 38             	add    $0x38,%ebx
    52ff:	89 44 24 04          	mov    %eax,0x4(%esp)
    5303:	89 1c 24             	mov    %ebx,(%esp)
    5306:	e8 15 6d 01 00       	call   1c020 <hash_table_find>
    530b:	85 c0                	test   %eax,%eax
    530d:	74 09                	je     5318 <find_fun_node_no_lock+0x38>
    530f:	83 e8 44             	sub    $0x44,%eax
    5312:	83 c4 14             	add    $0x14,%esp
    5315:	5b                   	pop    %ebx
    5316:	5d                   	pop    %ebp
    5317:	c3                   	ret    
    5318:	31 c0                	xor    %eax,%eax
    531a:	eb f6                	jmp    5312 <find_fun_node_no_lock+0x32>
    531c:	c7 44 24 08 cd 04 00 	movl   $0x4cd,0x8(%esp)
    5323:	00 
    5324:	c7 44 24 04 30 31 02 	movl   $0x23130,0x4(%esp)
    532b:	00 
    532c:	c7 04 24 84 35 02 00 	movl   $0x23584,(%esp)
    5333:	e8 18 b2 01 00       	call   20550 <assert_abort>
    5338:	90                   	nop
    5339:	8d b4 26 00 00 00 00 	lea    0x0(%esi,%eiz,1),%esi

00005340 <find_fun_node>:
    5340:	55                   	push   %ebp
    5341:	89 e5                	mov    %esp,%ebp
    5343:	56                   	push   %esi
    5344:	53                   	push   %ebx
    5345:	83 ec 20             	sub    $0x20,%esp
    5348:	8b 75 08             	mov    0x8(%ebp),%esi
    534b:	8d 5e 08             	lea    0x8(%esi),%ebx
    534e:	89 1c 24             	mov    %ebx,(%esp)
    5351:	e8 ba 78 00 00       	call   cc10 <fibril_rwlock_read_lock>
    5356:	8b 45 0c             	mov    0xc(%ebp),%eax
    5359:	89 1c 24             	mov    %ebx,(%esp)
    535c:	89 45 f4             	mov    %eax,-0xc(%ebp)
    535f:	e8 ec 7b 00 00       	call   cf50 <fibril_rwlock_is_locked>
    5364:	84 c0                	test   %al,%al
    5366:	74 3c                	je     53a4 <find_fun_node+0x64>
    5368:	8d 45 f4             	lea    -0xc(%ebp),%eax
    536b:	83 c6 38             	add    $0x38,%esi
    536e:	89 44 24 04          	mov    %eax,0x4(%esp)
    5372:	89 34 24             	mov    %esi,(%esp)
    5375:	e8 a6 6c 01 00       	call   1c020 <hash_table_find>
    537a:	85 c0                	test   %eax,%eax
    537c:	74 22                	je     53a0 <find_fun_node+0x60>
    537e:	89 c6                	mov    %eax,%esi
    5380:	83 ee 44             	sub    $0x44,%esi
    5383:	74 04                	je     5389 <find_fun_node+0x49>
    5385:	f0 ff 40 bc          	lock incl -0x44(%eax)
    5389:	89 1c 24             	mov    %ebx,(%esp)
    538c:	e8 3f 7a 00 00       	call   cdd0 <fibril_rwlock_read_unlock>
    5391:	83 c4 20             	add    $0x20,%esp
    5394:	89 f0                	mov    %esi,%eax
    5396:	5b                   	pop    %ebx
    5397:	5e                   	pop    %esi
    5398:	5d                   	pop    %ebp
    5399:	c3                   	ret    
    539a:	8d b6 00 00 00 00    	lea    0x0(%esi),%esi
    53a0:	31 f6                	xor    %esi,%esi
    53a2:	eb e5                	jmp    5389 <find_fun_node+0x49>
    53a4:	c7 44 24 08 cd 04 00 	movl   $0x4cd,0x8(%esp)
    53ab:	00 
    53ac:	c7 44 24 04 30 31 02 	movl   $0x23130,0x4(%esp)
    53b3:	00 
    53b4:	c7 04 24 84 35 02 00 	movl   $0x23584,(%esp)
    53bb:	e8 90 b1 01 00       	call   20550 <assert_abort>

000053c0 <insert_dev_node>:
    53c0:	55                   	push   %ebp
    53c1:	89 e5                	mov    %esp,%ebp
    53c3:	57                   	push   %edi
    53c4:	56                   	push   %esi
    53c5:	53                   	push   %ebx
    53c6:	83 ec 2c             	sub    $0x2c,%esp
    53c9:	8b 75 08             	mov    0x8(%ebp),%esi
    53cc:	8b 5d 0c             	mov    0xc(%ebp),%ebx
    53cf:	8b 7d 10             	mov    0x10(%ebp),%edi
    53d2:	8d 46 08             	lea    0x8(%esi),%eax
    53d5:	89 04 24             	mov    %eax,(%esp)
    53d8:	e8 13 7b 00 00       	call   cef0 <fibril_rwlock_is_write_locked>
    53dd:	84 c0                	test   %al,%al
    53df:	74 57                	je     5438 <insert_dev_node+0x78>
    53e1:	8b 47 24             	mov    0x24(%edi),%eax
    53e4:	89 7c 24 10          	mov    %edi,0x10(%esp)
    53e8:	89 44 24 14          	mov    %eax,0x14(%esp)
    53ec:	89 5c 24 0c          	mov    %ebx,0xc(%esp)
    53f0:	c7 44 24 08 9c 34 02 	movl   $0x2349c,0x8(%esp)
    53f7:	00 
    53f8:	c7 44 24 04 04 00 00 	movl   $0x4,0x4(%esp)
    53ff:	00 
    5400:	c7 04 24 ff ff ff ff 	movl   $0xffffffff,(%esp)
    5407:	e8 44 b8 00 00       	call   10c50 <log_msg>
    540c:	8b 46 04             	mov    0x4(%esi),%eax
    540f:	40                   	inc    %eax
    5410:	89 46 04             	mov    %eax,0x4(%esi)
    5413:	89 43 04             	mov    %eax,0x4(%ebx)
    5416:	83 c6 1c             	add    $0x1c,%esi
    5419:	8d 43 24             	lea    0x24(%ebx),%eax
    541c:	89 44 24 04          	mov    %eax,0x4(%esp)
    5420:	89 34 24             	mov    %esi,(%esp)
    5423:	e8 c8 69 01 00       	call   1bdf0 <hash_table_insert>
    5428:	89 7b 08             	mov    %edi,0x8(%ebx)
    542b:	89 5f 34             	mov    %ebx,0x34(%edi)
    542e:	83 c4 2c             	add    $0x2c,%esp
    5431:	b0 01                	mov    $0x1,%al
    5433:	5b                   	pop    %ebx
    5434:	5e                   	pop    %esi
    5435:	5f                   	pop    %edi
    5436:	5d                   	pop    %ebp
    5437:	c3                   	ret    
    5438:	c7 44 24 08 1a 05 00 	movl   $0x51a,0x8(%esp)
    543f:	00 
    5440:	c7 44 24 04 30 31 02 	movl   $0x23130,0x4(%esp)
    5447:	00 
    5448:	c7 04 24 d4 32 02 00 	movl   $0x232d4,(%esp)
    544f:	e8 fc b0 01 00       	call   20550 <assert_abort>
    5454:	8d b6 00 00 00 00    	lea    0x0(%esi),%esi
    545a:	8d bf 00 00 00 00    	lea    0x0(%edi),%edi

00005460 <remove_dev_node>:
    5460:	55                   	push   %ebp
    5461:	89 e5                	mov    %esp,%ebp
    5463:	56                   	push   %esi
    5464:	53                   	push   %ebx
    5465:	83 ec 10             	sub    $0x10,%esp
    5468:	8b 75 08             	mov    0x8(%ebp),%esi
    546b:	8b 5d 0c             	mov    0xc(%ebp),%ebx
    546e:	8d 46 08             	lea    0x8(%esi),%eax
    5471:	89 04 24             	mov    %eax,(%esp)
    5474:	e8 77 7a 00 00       	call   cef0 <fibril_rwlock_is_write_locked>
    5479:	84 c0                	test   %al,%al
    547b:	74 51                	je     54ce <remove_dev_node+0x6e>
    547d:	89 5c 24 0c          	mov    %ebx,0xc(%esp)
    5481:	c7 44 24 08 ac 32 02 	movl   $0x232ac,0x8(%esp)
    5488:	00 
    5489:	c7 44 24 04 04 00 00 	movl   $0x4,0x4(%esp)
    5490:	00 
    5491:	c7 04 24 ff ff ff ff 	movl   $0xffffffff,(%esp)
    5498:	e8 b3 b7 00 00       	call   10c50 <log_msg>
    549d:	83 c6 1c             	add    $0x1c,%esi
    54a0:	8d 43 04             	lea    0x4(%ebx),%eax
    54a3:	89 34 24             	mov    %esi,(%esp)
    54a6:	89 44 24 04          	mov    %eax,0x4(%esp)
    54aa:	e8 c1 6c 01 00       	call   1c170 <hash_table_remove>
    54af:	8b 43 08             	mov    0x8(%ebx),%eax
    54b2:	c7 40 34 00 00 00 00 	movl   $0x0,0x34(%eax)
    54b9:	c7 43 08 00 00 00 00 	movl   $0x0,0x8(%ebx)
    54c0:	c7 43 18 04 00 00 00 	movl   $0x4,0x18(%ebx)
    54c7:	83 c4 10             	add    $0x10,%esp
    54ca:	5b                   	pop    %ebx
    54cb:	5e                   	pop    %esi
    54cc:	5d                   	pop    %ebp
    54cd:	c3                   	ret    
    54ce:	c7 44 24 08 31 05 00 	movl   $0x531,0x8(%esp)
    54d5:	00 
    54d6:	c7 44 24 04 30 31 02 	movl   $0x23130,0x4(%esp)
    54dd:	00 
    54de:	c7 04 24 d4 32 02 00 	movl   $0x232d4,(%esp)
    54e5:	e8 66 b0 01 00       	call   20550 <assert_abort>
    54ea:	8d b6 00 00 00 00    	lea    0x0(%esi),%esi

000054f0 <insert_fun_node>:
    54f0:	55                   	push   %ebp
    54f1:	89 e5                	mov    %esp,%ebp
    54f3:	57                   	push   %edi
    54f4:	56                   	push   %esi
    54f5:	53                   	push   %ebx
    54f6:	83 ec 1c             	sub    $0x1c,%esp
    54f9:	8b 55 10             	mov    0x10(%ebp),%edx
    54fc:	8b 7d 08             	mov    0x8(%ebp),%edi
    54ff:	8b 5d 0c             	mov    0xc(%ebp),%ebx
    5502:	8b 75 14             	mov    0x14(%ebp),%esi
    5505:	85 d2                	test   %edx,%edx
    5507:	0f 84 ab 00 00 00    	je     55b8 <insert_fun_node+0xc8>
    550d:	8d 47 08             	lea    0x8(%edi),%eax
    5510:	89 04 24             	mov    %eax,(%esp)
    5513:	e8 d8 79 00 00       	call   cef0 <fibril_rwlock_is_write_locked>
    5518:	84 c0                	test   %al,%al
    551a:	0f 84 7c 00 00 00    	je     559c <insert_fun_node+0xac>
    5520:	85 f6                	test   %esi,%esi
    5522:	74 6c                	je     5590 <insert_fun_node+0xa0>
    5524:	8b 4e 08             	mov    0x8(%esi),%ecx
    5527:	8b 45 10             	mov    0x10(%ebp),%eax
    552a:	89 da                	mov    %ebx,%edx
    552c:	89 43 1c             	mov    %eax,0x1c(%ebx)
    552f:	89 f8                	mov    %edi,%eax
    5531:	e8 fa dc ff ff       	call   3230 <set_fun_path>
    5536:	31 d2                	xor    %edx,%edx
    5538:	84 c0                	test   %al,%al
    553a:	75 0c                	jne    5548 <insert_fun_node+0x58>
    553c:	83 c4 1c             	add    $0x1c,%esp
    553f:	88 d0                	mov    %dl,%al
    5541:	5b                   	pop    %ebx
    5542:	5e                   	pop    %esi
    5543:	5f                   	pop    %edi
    5544:	5d                   	pop    %ebp
    5545:	c3                   	ret    
    5546:	66 90                	xchg   %ax,%ax
    5548:	8b 47 04             	mov    0x4(%edi),%eax
    554b:	40                   	inc    %eax
    554c:	89 47 04             	mov    %eax,0x4(%edi)
    554f:	89 43 18             	mov    %eax,0x18(%ebx)
    5552:	83 c7 38             	add    $0x38,%edi
    5555:	8d 43 44             	lea    0x44(%ebx),%eax
    5558:	89 44 24 04          	mov    %eax,0x4(%esp)
    555c:	89 3c 24             	mov    %edi,(%esp)
    555f:	e8 8c 68 01 00       	call   1bdf0 <hash_table_insert>
    5564:	89 73 28             	mov    %esi,0x28(%ebx)
    5567:	85 f6                	test   %esi,%esi
    5569:	74 2d                	je     5598 <insert_fun_node+0xa8>
    556b:	8d 56 0c             	lea    0xc(%esi),%edx
    556e:	8d 43 2c             	lea    0x2c(%ebx),%eax
    5571:	89 53 30             	mov    %edx,0x30(%ebx)
    5574:	8b 56 0c             	mov    0xc(%esi),%edx
    5577:	89 53 2c             	mov    %edx,0x2c(%ebx)
    557a:	8b 56 0c             	mov    0xc(%esi),%edx
    557d:	89 46 0c             	mov    %eax,0xc(%esi)
    5580:	89 42 04             	mov    %eax,0x4(%edx)
    5583:	83 c4 1c             	add    $0x1c,%esp
    5586:	b2 01                	mov    $0x1,%dl
    5588:	5b                   	pop    %ebx
    5589:	88 d0                	mov    %dl,%al
