
usbflbk:     file format elf32-i386


Disassembly of section .init:

00001094 <__entry>:
    1094:	66 8c d0             	mov    %ss,%ax
    1097:	8e d8                	mov    %eax,%ds
    1099:	8e c0                	mov    %eax,%es
    109b:	8e e0                	mov    %eax,%fs
    109d:	b8 01 00 00 00       	mov    $0x1,%eax
    10a2:	0f a2                	cpuid  
    10a4:	0f ba e2 0b          	bt     $0xb,%edx
    10a8:	73 0c                	jae    10b6 <__entry+0x22>
    10aa:	8d 05 90 db 02 00    	lea    0x2db90,%eax
    10b0:	c7 00 f7 5c 02 00    	movl   $0x25cf7,(%eax)
    10b6:	6a 00                	push   $0x0
    10b8:	89 e5                	mov    %esp,%ebp
    10ba:	57                   	push   %edi
    10bb:	e8 b0 a8 00 00       	call   b970 <__main>

Disassembly of section .text:

000010c0 <usbfallback_device_add>:
    10c0:	55                   	push   %ebp
    10c1:	89 e5                	mov    %esp,%ebp
    10c3:	57                   	push   %edi
    10c4:	56                   	push   %esi
    10c5:	53                   	push   %ebx
    10c6:	83 ec 2c             	sub    $0x2c,%esp
    10c9:	8b 5d 08             	mov    0x8(%ebp),%ebx
    10cc:	c7 44 24 08 d3 a2 02 	movl   $0x2a2d3,0x8(%esp)
    10d3:	00 
    10d4:	c7 44 24 04 02 00 00 	movl   $0x2,0x4(%esp)
    10db:	00 
    10dc:	8b 43 70             	mov    0x70(%ebx),%eax
    10df:	89 04 24             	mov    %eax,(%esp)
    10e2:	e8 f9 58 00 00       	call   69e0 <ddf_fun_create>
    10e7:	89 c6                	mov    %eax,%esi
    10e9:	85 c0                	test   %eax,%eax
    10eb:	0f 84 ae 00 00 00    	je     119f <usbfallback_device_add+0xdf>
    10f1:	89 04 24             	mov    %eax,(%esp)
    10f4:	e8 77 5b 00 00       	call   6c70 <ddf_fun_bind>
    10f9:	89 c7                	mov    %eax,%edi
    10fb:	85 c0                	test   %eax,%eax
    10fd:	75 61                	jne    1160 <usbfallback_device_add+0xa0>
    10ff:	8b 43 70             	mov    0x70(%ebx),%eax
    1102:	89 73 74             	mov    %esi,0x74(%ebx)
    1105:	89 04 24             	mov    %eax,(%esp)
    1108:	e8 e3 57 00 00       	call   68f0 <ddf_dev_get_handle>
    110d:	89 c6                	mov    %eax,%esi
    110f:	8b 43 70             	mov    0x70(%ebx),%eax
    1112:	89 04 24             	mov    %eax,(%esp)
    1115:	e8 e6 57 00 00       	call   6900 <ddf_dev_get_name>
    111a:	8b 4b 44             	mov    0x44(%ebx),%ecx
    111d:	ba c9 a2 02 00       	mov    $0x2a2c9,%edx
    1122:	85 c9                	test   %ecx,%ecx
    1124:	78 72                	js     1198 <usbfallback_device_add+0xd8>
    1126:	89 74 24 18          	mov    %esi,0x18(%esp)
    112a:	c7 44 24 14 d3 a2 02 	movl   $0x2a2d3,0x14(%esp)
    1131:	00 
    1132:	89 44 24 10          	mov    %eax,0x10(%esp)
    1136:	89 54 24 0c          	mov    %edx,0xc(%esp)
    113a:	c7 44 24 08 48 a3 02 	movl   $0x2a348,0x8(%esp)
    1141:	00 
    1142:	c7 44 24 04 03 00 00 	movl   $0x3,0x4(%esp)
    1149:	00 
    114a:	c7 04 24 ff ff ff ff 	movl   $0xffffffff,(%esp)
    1151:	e8 4a 50 01 00       	call   161a0 <log_msg>
    1156:	83 c4 2c             	add    $0x2c,%esp
    1159:	89 f8                	mov    %edi,%eax
    115b:	5b                   	pop    %ebx
    115c:	5e                   	pop    %esi
    115d:	5f                   	pop    %edi
    115e:	5d                   	pop    %ebp
    115f:	c3                   	ret    
    1160:	89 04 24             	mov    %eax,(%esp)
    1163:	e8 68 03 01 00       	call   114d0 <str_error>
    1168:	c7 44 24 08 20 a3 02 	movl   $0x2a320,0x8(%esp)
    116f:	00 
    1170:	89 44 24 0c          	mov    %eax,0xc(%esp)
    1174:	c7 44 24 04 01 00 00 	movl   $0x1,0x4(%esp)
    117b:	00 
    117c:	c7 04 24 ff ff ff ff 	movl   $0xffffffff,(%esp)
    1183:	e8 18 50 01 00       	call   161a0 <log_msg>
    1188:	83 c4 2c             	add    $0x2c,%esp
    118b:	89 f8                	mov    %edi,%eax
    118d:	5b                   	pop    %ebx
    118e:	5e                   	pop    %esi
    118f:	5f                   	pop    %edi
    1190:	5d                   	pop    %ebp
    1191:	c3                   	ret    
    1192:	8d b6 00 00 00 00    	lea    0x0(%esi),%esi
    1198:	ba c2 a2 02 00       	mov    $0x2a2c2,%edx
    119d:	eb 87                	jmp    1126 <usbfallback_device_add+0x66>
    119f:	c7 44 24 08 fc a2 02 	movl   $0x2a2fc,0x8(%esp)
    11a6:	00 
    11a7:	c7 44 24 04 01 00 00 	movl   $0x1,0x4(%esp)
    11ae:	00 
    11af:	c7 04 24 ff ff ff ff 	movl   $0xffffffff,(%esp)
    11b6:	bf fe ff ff ff       	mov    $0xfffffffe,%edi
    11bb:	e8 e0 4f 01 00       	call   161a0 <log_msg>
    11c0:	eb 94                	jmp    1156 <usbfallback_device_add+0x96>
    11c2:	8d b4 26 00 00 00 00 	lea    0x0(%esi,%eiz,1),%esi
    11c9:	8d bc 27 00 00 00 00 	lea    0x0(%edi,%eiz,1),%edi

000011d0 <usbfallback_device_gone>:
    11d0:	55                   	push   %ebp
    11d1:	89 e5                	mov    %esp,%ebp
    11d3:	57                   	push   %edi
    11d4:	56                   	push   %esi
    11d5:	53                   	push   %ebx
    11d6:	83 ec 1c             	sub    $0x1c,%esp
    11d9:	8b 5d 08             	mov    0x8(%ebp),%ebx
    11dc:	85 db                	test   %ebx,%ebx
    11de:	74 5f                	je     123f <usbfallback_device_gone+0x6f>
    11e0:	8b 73 74             	mov    0x74(%ebx),%esi
    11e3:	89 34 24             	mov    %esi,(%esp)
    11e6:	e8 95 5b 00 00       	call   6d80 <ddf_fun_unbind>
    11eb:	89 34 24             	mov    %esi,(%esp)
    11ee:	89 c7                	mov    %eax,%edi
    11f0:	85 c0                	test   %eax,%eax
    11f2:	75 1c                	jne    1210 <usbfallback_device_gone+0x40>
    11f4:	e8 67 59 00 00       	call   6b60 <ddf_fun_destroy>
    11f9:	c7 43 74 00 00 00 00 	movl   $0x0,0x74(%ebx)
    1200:	83 c4 1c             	add    $0x1c,%esp
    1203:	31 c0                	xor    %eax,%eax
    1205:	5b                   	pop    %ebx
    1206:	5e                   	pop    %esi
    1207:	5f                   	pop    %edi
    1208:	5d                   	pop    %ebp
    1209:	c3                   	ret    
    120a:	8d b6 00 00 00 00    	lea    0x0(%esi),%esi
    1210:	e8 3b 59 00 00       	call   6b50 <ddf_fun_get_name>
    1215:	c7 44 24 08 de a2 02 	movl   $0x2a2de,0x8(%esp)
    121c:	00 
    121d:	89 44 24 0c          	mov    %eax,0xc(%esp)
    1221:	c7 44 24 04 01 00 00 	movl   $0x1,0x4(%esp)
    1228:	00 
    1229:	c7 04 24 ff ff ff ff 	movl   $0xffffffff,(%esp)
    1230:	e8 6b 4f 01 00       	call   161a0 <log_msg>
    1235:	83 c4 1c             	add    $0x1c,%esp
    1238:	89 f8                	mov    %edi,%eax
    123a:	5b                   	pop    %ebx
    123b:	5e                   	pop    %esi
    123c:	5f                   	pop    %edi
    123d:	5d                   	pop    %ebp
    123e:	c3                   	ret    
    123f:	c7 44 24 08 53 00 00 	movl   $0x53,0x8(%esp)
    1246:	00 
    1247:	c7 44 24 04 d7 a2 02 	movl   $0x2a2d7,0x4(%esp)
    124e:	00 
    124f:	c7 04 24 ce a4 02 00 	movl   $0x2a4ce,(%esp)
    1256:	e8 45 48 02 00       	call   25aa0 <assert_abort>
    125b:	66 90                	xchg   %ax,%ax
    125d:	66 90                	xchg   %ax,%ax
    125f:	90                   	nop

00001260 <main>:
    1260:	55                   	push   %ebp
    1261:	89 e5                	mov    %esp,%ebp
    1263:	83 e4 f0             	and    $0xfffffff0,%esp
    1266:	83 ec 10             	sub    $0x10,%esp
    1269:	c7 04 24 f4 a2 02 00 	movl   $0x2a2f4,(%esp)
    1270:	e8 5b 4d 01 00       	call   15fd0 <log_init>
    1275:	c7 04 24 80 a3 02 00 	movl   $0x2a380,(%esp)
    127c:	e8 0f 00 00 00       	call   1290 <usb_driver_main>
    1281:	c9                   	leave  
    1282:	c3                   	ret    
    1283:	66 90                	xchg   %ax,%ax
    1285:	66 90                	xchg   %ax,%ax
    1287:	66 90                	xchg   %ax,%ax
    1289:	66 90                	xchg   %ax,%ax
    128b:	66 90                	xchg   %ax,%ax
    128d:	66 90                	xchg   %ax,%ax
    128f:	90                   	nop

00001290 <usb_driver_main>:
    1290:	55                   	push   %ebp
    1291:	89 e5                	mov    %esp,%ebp
    1293:	83 ec 18             	sub    $0x18,%esp
    1296:	8b 45 08             	mov    0x8(%ebp),%eax
    1299:	85 c0                	test   %eax,%eax
    129b:	74 1a                	je     12b7 <usb_driver_main+0x27>
    129d:	8b 10                	mov    (%eax),%edx
    129f:	a3 04 dc 02 00       	mov    %eax,0x2dc04
    12a4:	89 15 80 d7 02 00    	mov    %edx,0x2d780
    12aa:	c7 45 08 80 d7 02 00 	movl   $0x2d780,0x8(%ebp)
    12b1:	c9                   	leave  
    12b2:	e9 99 5d 00 00       	jmp    7050 <ddf_driver_main>
    12b7:	c7 44 24 08 43 00 00 	movl   $0x43,0x8(%esp)
    12be:	00 
    12bf:	c7 44 24 04 98 a3 02 	movl   $0x2a398,0x4(%esp)
    12c6:	00 
    12c7:	c7 04 24 a5 a3 02 00 	movl   $0x2a3a5,(%esp)
    12ce:	e8 cd 47 02 00       	call   25aa0 <assert_abort>
    12d3:	8d b6 00 00 00 00    	lea    0x0(%esi),%esi
    12d9:	8d bc 27 00 00 00 00 	lea    0x0(%edi,%eiz,1),%edi

000012e0 <usb_device_retrieve_descriptors>:
    12e0:	55                   	push   %ebp
    12e1:	89 e5                	mov    %esp,%ebp
    12e3:	57                   	push   %edi
    12e4:	56                   	push   %esi
    12e5:	53                   	push   %ebx
    12e6:	83 ec 1c             	sub    $0x1c,%esp
    12e9:	8b 5d 0c             	mov    0xc(%ebp),%ebx
    12ec:	8b 75 08             	mov    0x8(%ebp),%esi
    12ef:	85 db                	test   %ebx,%ebx
    12f1:	74 53                	je     1346 <usb_device_retrieve_descriptors+0x66>
    12f3:	c7 43 14 00 00 00 00 	movl   $0x0,0x14(%ebx)
    12fa:	89 34 24             	mov    %esi,(%esp)
    12fd:	e8 6e 0b 00 00       	call   1e70 <usb_pipe_start_long_transfer>
    1302:	89 5c 24 04          	mov    %ebx,0x4(%esp)
    1306:	89 34 24             	mov    %esi,(%esp)
    1309:	e8 22 1c 00 00       	call   2f30 <usb_request_get_device_descriptor>
    130e:	89 c7                	mov    %eax,%edi
    1310:	85 c0                	test   %eax,%eax
    1312:	75 20                	jne    1334 <usb_device_retrieve_descriptors+0x54>
    1314:	8d 43 18             	lea    0x18(%ebx),%eax
    1317:	83 c3 14             	add    $0x14,%ebx
    131a:	89 44 24 0c          	mov    %eax,0xc(%esp)
    131e:	89 5c 24 08          	mov    %ebx,0x8(%esp)
    1322:	c7 44 24 04 00 00 00 	movl   $0x0,0x4(%esp)
    1329:	00 
    132a:	89 34 24             	mov    %esi,(%esp)
    132d:	e8 0e 1e 00 00       	call   3140 <usb_request_get_full_configuration_descriptor_alloc>
    1332:	89 c7                	mov    %eax,%edi
    1334:	89 34 24             	mov    %esi,(%esp)
    1337:	e8 b4 0b 00 00       	call   1ef0 <usb_pipe_end_long_transfer>
    133c:	83 c4 1c             	add    $0x1c,%esp
    133f:	89 f8                	mov    %edi,%eax
    1341:	5b                   	pop    %ebx
    1342:	5e                   	pop    %esi
    1343:	5f                   	pop    %edi
    1344:	5d                   	pop    %ebp
    1345:	c3                   	ret    
    1346:	c7 44 24 08 ee 00 00 	movl   $0xee,0x8(%esp)
    134d:	00 
    134e:	c7 44 24 04 98 a3 02 	movl   $0x2a398,0x4(%esp)
    1355:	00 
    1356:	c7 04 24 b1 a3 02 00 	movl   $0x2a3b1,(%esp)
    135d:	e8 3e 47 02 00       	call   25aa0 <assert_abort>
    1362:	8d b4 26 00 00 00 00 	lea    0x0(%esi,%eiz,1),%esi
    1369:	8d bc 27 00 00 00 00 	lea    0x0(%edi,%eiz,1),%edi

00001370 <usb_device_release_descriptors>:
    1370:	55                   	push   %ebp
    1371:	89 e5                	mov    %esp,%ebp
    1373:	53                   	push   %ebx
    1374:	83 ec 14             	sub    $0x14,%esp
    1377:	8b 5d 08             	mov    0x8(%ebp),%ebx
    137a:	85 db                	test   %ebx,%ebx
    137c:	74 18                	je     1396 <usb_device_release_descriptors+0x26>
    137e:	8b 43 14             	mov    0x14(%ebx),%eax
    1381:	89 04 24             	mov    %eax,(%esp)
    1384:	e8 c7 9f 01 00       	call   1b350 <free>
    1389:	c7 43 14 00 00 00 00 	movl   $0x0,0x14(%ebx)
    1390:	83 c4 14             	add    $0x14,%esp
    1393:	5b                   	pop    %ebx
    1394:	5d                   	pop    %ebp
    1395:	c3                   	ret    
    1396:	c7 44 24 08 0e 01 00 	movl   $0x10e,0x8(%esp)
    139d:	00 
    139e:	c7 44 24 04 98 a3 02 	movl   $0x2a398,0x4(%esp)
    13a5:	00 
    13a6:	c7 04 24 c5 a3 02 00 	movl   $0x2a3c5,(%esp)
    13ad:	e8 ee 46 02 00       	call   25aa0 <assert_abort>
    13b2:	8d b4 26 00 00 00 00 	lea    0x0(%esi,%eiz,1),%esi
    13b9:	8d bc 27 00 00 00 00 	lea    0x0(%edi,%eiz,1),%edi

000013c0 <usb_device_create_pipes>:
    13c0:	55                   	push   %ebp
    13c1:	89 e5                	mov    %esp,%ebp
    13c3:	57                   	push   %edi
    13c4:	56                   	push   %esi
    13c5:	53                   	push   %ebx
    13c6:	83 ec 3c             	sub    $0x3c,%esp
    13c9:	8b 45 08             	mov    0x8(%ebp),%eax
    13cc:	8b 55 0c             	mov    0xc(%ebp),%edx
    13cf:	8b 7d 18             	mov    0x18(%ebp),%edi
    13d2:	8b 75 1c             	mov    0x1c(%ebp),%esi
    13d5:	85 c0                	test   %eax,%eax
    13d7:	0f 84 ef 01 00 00    	je     15cc <usb_device_create_pipes+0x20c>
    13dd:	8b 45 10             	mov    0x10(%ebp),%eax
    13e0:	85 c0                	test   %eax,%eax
    13e2:	0f 84 c8 01 00 00    	je     15b0 <usb_device_create_pipes+0x1f0>
    13e8:	8b 45 14             	mov    0x14(%ebp),%eax
    13eb:	85 c0                	test   %eax,%eax
    13ed:	0f 84 a1 01 00 00    	je     1594 <usb_device_create_pipes+0x1d4>
    13f3:	8b 45 20             	mov    0x20(%ebp),%eax
    13f6:	85 c0                	test   %eax,%eax
    13f8:	0f 84 7a 01 00 00    	je     1578 <usb_device_create_pipes+0x1b8>
    13fe:	85 d2                	test   %edx,%edx
    1400:	74 1a                	je     141c <usb_device_create_pipes+0x5c>
    1402:	8b 02                	mov    (%edx),%eax
    1404:	bb 01 00 00 00       	mov    $0x1,%ebx
    1409:	85 c0                	test   %eax,%eax
    140b:	75 04                	jne    1411 <usb_device_create_pipes+0x51>
    140d:	eb 0d                	jmp    141c <usb_device_create_pipes+0x5c>
    140f:	90                   	nop
    1410:	43                   	inc    %ebx
    1411:	8b 0c 9a             	mov    (%edx,%ebx,4),%ecx
    1414:	85 c9                	test   %ecx,%ecx
    1416:	75 f8                	jne    1410 <usb_device_create_pipes+0x50>
    1418:	85 db                	test   %ebx,%ebx
    141a:	75 2c                	jne    1448 <usb_device_create_pipes+0x88>
    141c:	8b 55 24             	mov    0x24(%ebp),%edx
    141f:	85 d2                	test   %edx,%edx
    1421:	74 09                	je     142c <usb_device_create_pipes+0x6c>
    1423:	8b 4d 24             	mov    0x24(%ebp),%ecx
    1426:	c7 01 00 00 00 00    	movl   $0x0,(%ecx)
    142c:	8b 5d 20             	mov    0x20(%ebp),%ebx
    142f:	31 d2                	xor    %edx,%edx
    1431:	c7 03 00 00 00 00    	movl   $0x0,(%ebx)
    1437:	83 c4 3c             	add    $0x3c,%esp
    143a:	89 d0                	mov    %edx,%eax
    143c:	5b                   	pop    %ebx
    143d:	5e                   	pop    %esi
    143e:	5f                   	pop    %edi
    143f:	5d                   	pop    %ebp
    1440:	c3                   	ret    
    1441:	8d b4 26 00 00 00 00 	lea    0x0(%esi,%eiz,1),%esi
    1448:	c7 44 24 04 30 00 00 	movl   $0x30,0x4(%esp)
    144f:	00 
    1450:	89 1c 24             	mov    %ebx,(%esp)
    1453:	89 55 d8             	mov    %edx,-0x28(%ebp)
    1456:	e8 85 9d 01 00       	call   1b1e0 <calloc>
    145b:	8b 55 d8             	mov    -0x28(%ebp),%edx
    145e:	89 45 e0             	mov    %eax,-0x20(%ebp)
    1461:	85 c0                	test   %eax,%eax
    1463:	0f 84 05 01 00 00    	je     156e <usb_device_create_pipes+0x1ae>
    1469:	89 45 dc             	mov    %eax,-0x24(%ebp)
    146c:	8d 0c 9a             	lea    (%edx,%ebx,4),%ecx
    146f:	89 5d e4             	mov    %ebx,-0x1c(%ebp)
    1472:	8d b6 00 00 00 00    	lea    0x0(%esi),%esi
    1478:	8b 1a                	mov    (%edx),%ebx
    147a:	83 c2 04             	add    $0x4,%edx
    147d:	89 58 18             	mov    %ebx,0x18(%eax)
    1480:	89 78 1c             	mov    %edi,0x1c(%eax)
    1483:	89 70 20             	mov    %esi,0x20(%eax)
    1486:	83 c0 30             	add    $0x30,%eax
    1489:	39 ca                	cmp    %ecx,%edx
    148b:	75 eb                	jne    1478 <usb_device_create_pipes+0xb8>
    148d:	8b 4d 08             	mov    0x8(%ebp),%ecx
    1490:	8b 5d e4             	mov    -0x1c(%ebp),%ebx
    1493:	89 4c 24 10          	mov    %ecx,0x10(%esp)
    1497:	8b 4d 14             	mov    0x14(%ebp),%ecx
    149a:	89 4c 24 0c          	mov    %ecx,0xc(%esp)
    149e:	8b 45 e0             	mov    -0x20(%ebp),%eax
    14a1:	8b 4d 10             	mov    0x10(%ebp),%ecx
    14a4:	89 5c 24 04          	mov    %ebx,0x4(%esp)
    14a8:	89 4c 24 08          	mov    %ecx,0x8(%esp)
    14ac:	89 04 24             	mov    %eax,(%esp)
    14af:	e8 5c 11 00 00       	call   2610 <usb_pipe_initialize_from_configuration>
    14b4:	89 c2                	mov    %eax,%edx
    14b6:	85 c0                	test   %eax,%eax
    14b8:	0f 85 7f 00 00 00    	jne    153d <usb_device_create_pipes+0x17d>
    14be:	8b 75 e0             	mov    -0x20(%ebp),%esi
    14c1:	31 ff                	xor    %edi,%edi
    14c3:	89 45 e4             	mov    %eax,-0x1c(%ebp)
    14c6:	eb 08                	jmp    14d0 <usb_device_create_pipes+0x110>
    14c8:	47                   	inc    %edi
    14c9:	83 c6 30             	add    $0x30,%esi
    14cc:	39 df                	cmp    %ebx,%edi
    14ce:	74 48                	je     1518 <usb_device_create_pipes+0x158>
    14d0:	80 7e 2c 00          	cmpb   $0x0,0x2c(%esi)
    14d4:	74 f2                	je     14c8 <usb_device_create_pipes+0x108>
    14d6:	8b 46 24             	mov    0x24(%esi),%eax
    14d9:	8a 40 06             	mov    0x6(%eax),%al
    14dc:	89 34 24             	mov    %esi,(%esp)
    14df:	25 ff 00 00 00       	and    $0xff,%eax
    14e4:	89 44 24 04          	mov    %eax,0x4(%esp)
    14e8:	e8 23 10 00 00       	call   2510 <usb_pipe_register>
    14ed:	85 c0                	test   %eax,%eax
    14ef:	74 d7                	je     14c8 <usb_device_create_pipes+0x108>
    14f1:	31 f6                	xor    %esi,%esi
    14f3:	89 45 e4             	mov    %eax,-0x1c(%ebp)
    14f6:	8b 7d dc             	mov    -0x24(%ebp),%edi
    14f9:	eb 0d                	jmp    1508 <usb_device_create_pipes+0x148>
    14fb:	90                   	nop
    14fc:	8d 74 26 00          	lea    0x0(%esi,%eiz,1),%esi
    1500:	46                   	inc    %esi
    1501:	83 c7 30             	add    $0x30,%edi
    1504:	39 de                	cmp    %ebx,%esi
    1506:	74 4b                	je     1553 <usb_device_create_pipes+0x193>
    1508:	80 7f 2c 00          	cmpb   $0x0,0x2c(%edi)
    150c:	74 f2                	je     1500 <usb_device_create_pipes+0x140>
    150e:	89 3c 24             	mov    %edi,(%esp)
    1511:	e8 8a 10 00 00       	call   25a0 <usb_pipe_unregister>
    1516:	eb e8                	jmp    1500 <usb_device_create_pipes+0x140>
    1518:	8b 4d 20             	mov    0x20(%ebp),%ecx
    151b:	8b 45 e0             	mov    -0x20(%ebp),%eax
    151e:	8b 55 e4             	mov    -0x1c(%ebp),%edx
    1521:	89 01                	mov    %eax,(%ecx)
    1523:	8b 45 24             	mov    0x24(%ebp),%eax
    1526:	85 c0                	test   %eax,%eax
    1528:	0f 84 09 ff ff ff    	je     1437 <usb_device_create_pipes+0x77>
    152e:	8b 4d 24             	mov    0x24(%ebp),%ecx
    1531:	89 d0                	mov    %edx,%eax
    1533:	89 39                	mov    %edi,(%ecx)
    1535:	83 c4 3c             	add    $0x3c,%esp
    1538:	5b                   	pop    %ebx
    1539:	5e                   	pop    %esi
    153a:	5f                   	pop    %edi
    153b:	5d                   	pop    %ebp
    153c:	c3                   	ret    
    153d:	8b 45 e0             	mov    -0x20(%ebp),%eax
    1540:	89 55 d8             	mov    %edx,-0x28(%ebp)
    1543:	89 04 24             	mov    %eax,(%esp)
    1546:	e8 05 9e 01 00       	call   1b350 <free>
    154b:	8b 55 d8             	mov    -0x28(%ebp),%edx
    154e:	e9 e4 fe ff ff       	jmp    1437 <usb_device_create_pipes+0x77>
    1553:	8b 45 e0             	mov    -0x20(%ebp),%eax
    1556:	8b 4d e4             	mov    -0x1c(%ebp),%ecx
    1559:	89 04 24             	mov    %eax,(%esp)
    155c:	89 4d d8             	mov    %ecx,-0x28(%ebp)
    155f:	e8 ec 9d 01 00       	call   1b350 <free>
    1564:	8b 4d d8             	mov    -0x28(%ebp),%ecx
    1567:	89 ca                	mov    %ecx,%edx
    1569:	e9 c9 fe ff ff       	jmp    1437 <usb_device_create_pipes+0x77>
    156e:	ba fe ff ff ff       	mov    $0xfffffffe,%edx
    1573:	e9 bf fe ff ff       	jmp    1437 <usb_device_create_pipes+0x77>
    1578:	c7 44 24 08 2f 01 00 	movl   $0x12f,0x8(%esp)
    157f:	00 
    1580:	c7 44 24 04 98 a3 02 	movl   $0x2a398,0x4(%esp)
    1587:	00 
    1588:	c7 04 24 09 a4 02 00 	movl   $0x2a409,(%esp)
    158f:	e8 0c 45 02 00       	call   25aa0 <assert_abort>
    1594:	c7 44 24 08 2e 01 00 	movl   $0x12e,0x8(%esp)
    159b:	00 
    159c:	c7 44 24 04 98 a3 02 	movl   $0x2a398,0x4(%esp)
    15a3:	00 
    15a4:	c7 04 24 f3 a3 02 00 	movl   $0x2a3f3,(%esp)
    15ab:	e8 f0 44 02 00       	call   25aa0 <assert_abort>
    15b0:	c7 44 24 08 2d 01 00 	movl   $0x12d,0x8(%esp)
    15b7:	00 
    15b8:	c7 44 24 04 98 a3 02 	movl   $0x2a398,0x4(%esp)
    15bf:	00 
    15c0:	c7 04 24 de a3 02 00 	movl   $0x2a3de,(%esp)
    15c7:	e8 d4 44 02 00       	call   25aa0 <assert_abort>
    15cc:	c7 44 24 08 2c 01 00 	movl   $0x12c,0x8(%esp)
    15d3:	00 
    15d4:	c7 44 24 04 98 a3 02 	movl   $0x2a398,0x4(%esp)
    15db:	00 
    15dc:	c7 04 24 d1 a3 02 00 	movl   $0x2a3d1,(%esp)
    15e3:	e8 b8 44 02 00       	call   25aa0 <assert_abort>
    15e8:	90                   	nop
    15e9:	8d b4 26 00 00 00 00 	lea    0x0(%esi,%eiz,1),%esi

000015f0 <usb_device_select_interface>:
    15f0:	55                   	push   %ebp
    15f1:	89 e5                	mov    %esp,%ebp
    15f3:	57                   	push   %edi
    15f4:	56                   	push   %esi
    15f5:	53                   	push   %ebx
    15f6:	83 ec 3c             	sub    $0x3c,%esp
    15f9:	8b 7d 08             	mov    0x8(%ebp),%edi
    15fc:	8a 45 0c             	mov    0xc(%ebp),%al
    15ff:	88 45 df             	mov    %al,-0x21(%ebp)
    1602:	8b 4f 44             	mov    0x44(%edi),%ecx
    1605:	85 c9                	test   %ecx,%ecx
    1607:	0f 88 f0 00 00 00    	js     16fd <usb_device_select_interface+0x10d>
    160d:	8b 47 40             	mov    0x40(%edi),%eax
    1610:	89 45 e0             	mov    %eax,-0x20(%ebp)
    1613:	8b 47 3c             	mov    0x3c(%edi),%eax
    1616:	8b 55 e0             	mov    -0x20(%ebp),%edx
    1619:	89 45 e4             	mov    %eax,-0x1c(%ebp)
    161c:	85 d2                	test   %edx,%edx
    161e:	74 57                	je     1677 <usb_device_select_interface+0x87>
    1620:	85 c0                	test   %eax,%eax
    1622:	0f 84 dc 00 00 00    	je     1704 <usb_device_select_interface+0x114>
    1628:	8b 5d e4             	mov    -0x1c(%ebp),%ebx
    162b:	31 f6                	xor    %esi,%esi
    162d:	b8 1b a4 02 00       	mov    $0x2a41b,%eax
    1632:	80 7b 2c 00          	cmpb   $0x0,0x2c(%ebx)
    1636:	74 05                	je     163d <usb_device_select_interface+0x4d>
    1638:	b8 6d bc 02 00       	mov    $0x2bc6d,%eax
    163d:	89 44 24 10          	mov    %eax,0x10(%esp)
    1641:	89 74 24 0c          	mov    %esi,0xc(%esp)
    1645:	c7 44 24 08 f0 a4 02 	movl   $0x2a4f0,0x8(%esp)
    164c:	00 
    164d:	c7 44 24 04 05 00 00 	movl   $0x5,0x4(%esp)
    1654:	00 
    1655:	c7 04 24 ff ff ff ff 	movl   $0xffffffff,(%esp)
    165c:	e8 3f 4b 01 00       	call   161a0 <log_msg>
    1661:	80 7b 2c 00          	cmpb   $0x0,0x2c(%ebx)
    1665:	0f 85 85 00 00 00    	jne    16f0 <usb_device_select_interface+0x100>
    166b:	46                   	inc    %esi
    166c:	83 c3 30             	add    $0x30,%ebx
    166f:	3b 75 e0             	cmp    -0x20(%ebp),%esi
    1672:	75 b9                	jne    162d <usb_device_select_interface+0x3d>
    1674:	8b 45 e4             	mov    -0x1c(%ebp),%eax
    1677:	89 04 24             	mov    %eax,(%esp)
    167a:	31 db                	xor    %ebx,%ebx
    167c:	e8 cf 9c 01 00       	call   1b350 <free>
    1681:	8a 5d df             	mov    -0x21(%ebp),%bl
    1684:	c7 47 3c 00 00 00 00 	movl   $0x0,0x3c(%edi)
    168b:	c7 47 40 00 00 00 00 	movl   $0x0,0x40(%edi)
    1692:	31 c0                	xor    %eax,%eax
    1694:	89 5c 24 08          	mov    %ebx,0x8(%esp)
    1698:	8a 47 44             	mov    0x44(%edi),%al
    169b:	89 44 24 04          	mov    %eax,0x4(%esp)
    169f:	8d 47 24             	lea    0x24(%edi),%eax
    16a2:	89 04 24             	mov    %eax,(%esp)
    16a5:	e8 66 1e 00 00       	call   3510 <usb_request_set_interface>
    16aa:	85 c0                	test   %eax,%eax
    16ac:	75 39                	jne    16e7 <usb_device_select_interface+0xf7>
    16ae:	8d 47 40             	lea    0x40(%edi),%eax
    16b1:	89 5c 24 14          	mov    %ebx,0x14(%esp)
    16b5:	89 44 24 1c          	mov    %eax,0x1c(%esp)
    16b9:	8d 47 3c             	lea    0x3c(%edi),%eax
    16bc:	89 44 24 18          	mov    %eax,0x18(%esp)
    16c0:	8b 47 44             	mov    0x44(%edi),%eax
    16c3:	89 44 24 10          	mov    %eax,0x10(%esp)
    16c7:	8b 47 6c             	mov    0x6c(%edi),%eax
    16ca:	89 44 24 0c          	mov    %eax,0xc(%esp)
    16ce:	8b 47 68             	mov    0x68(%edi),%eax
    16d1:	83 c7 1c             	add    $0x1c,%edi
    16d4:	89 44 24 08          	mov    %eax,0x8(%esp)
    16d8:	8b 45 10             	mov    0x10(%ebp),%eax
    16db:	89 44 24 04          	mov    %eax,0x4(%esp)
    16df:	89 3c 24             	mov    %edi,(%esp)
    16e2:	e8 d9 fc ff ff       	call   13c0 <usb_device_create_pipes>
    16e7:	83 c4 3c             	add    $0x3c,%esp
    16ea:	5b                   	pop    %ebx
    16eb:	5e                   	pop    %esi
    16ec:	5f                   	pop    %edi
    16ed:	5d                   	pop    %ebp
    16ee:	c3                   	ret    
    16ef:	90                   	nop
    16f0:	89 1c 24             	mov    %ebx,(%esp)
    16f3:	e8 a8 0e 00 00       	call   25a0 <usb_pipe_unregister>
    16f8:	e9 6e ff ff ff       	jmp    166b <usb_device_select_interface+0x7b>
    16fd:	b8 f2 ff ff ff       	mov    $0xfffffff2,%eax
    1702:	eb e3                	jmp    16e7 <usb_device_select_interface+0xf7>
    1704:	c7 44 24 08 7d 01 00 	movl   $0x17d,0x8(%esp)
    170b:	00 
    170c:	c7 44 24 04 98 a3 02 	movl   $0x2a398,0x4(%esp)
    1713:	00 
    1714:	c7 04 24 20 a4 02 00 	movl   $0x2a420,(%esp)
    171b:	e8 80 43 02 00       	call   25aa0 <assert_abort>

00001720 <usb_device_destroy_pipes>:
    1720:	55                   	push   %ebp
    1721:	89 e5                	mov    %esp,%ebp
    1723:	57                   	push   %edi
    1724:	56                   	push   %esi
    1725:	53                   	push   %ebx
    1726:	83 ec 3c             	sub    $0x3c,%esp
    1729:	8b 45 0c             	mov    0xc(%ebp),%eax
    172c:	8b 7d 08             	mov    0x8(%ebp),%edi
    172f:	89 45 e4             	mov    %eax,-0x1c(%ebp)
    1732:	85 c0                	test   %eax,%eax
    1734:	74 4b                	je     1781 <usb_device_destroy_pipes+0x61>
    1736:	85 ff                	test   %edi,%edi
    1738:	74 60                	je     179a <usb_device_destroy_pipes+0x7a>
    173a:	89 fb                	mov    %edi,%ebx
    173c:	31 f6                	xor    %esi,%esi
    173e:	b8 1b a4 02 00       	mov    $0x2a41b,%eax
    1743:	80 7b 2c 00          	cmpb   $0x0,0x2c(%ebx)
    1747:	74 05                	je     174e <usb_device_destroy_pipes+0x2e>
    1749:	b8 6d bc 02 00       	mov    $0x2bc6d,%eax
    174e:	89 44 24 10          	mov    %eax,0x10(%esp)
    1752:	89 74 24 0c          	mov    %esi,0xc(%esp)
    1756:	c7 44 24 08 f0 a4 02 	movl   $0x2a4f0,0x8(%esp)
    175d:	00 
    175e:	c7 44 24 04 05 00 00 	movl   $0x5,0x4(%esp)
    1765:	00 
    1766:	c7 04 24 ff ff ff ff 	movl   $0xffffffff,(%esp)
    176d:	e8 2e 4a 01 00       	call   161a0 <log_msg>
    1772:	80 7b 2c 00          	cmpb   $0x0,0x2c(%ebx)
    1776:	75 18                	jne    1790 <usb_device_destroy_pipes+0x70>
    1778:	46                   	inc    %esi
    1779:	83 c3 30             	add    $0x30,%ebx
    177c:	3b 75 e4             	cmp    -0x1c(%ebp),%esi
    177f:	75 bd                	jne    173e <usb_device_destroy_pipes+0x1e>
    1781:	89 7d 08             	mov    %edi,0x8(%ebp)
    1784:	83 c4 3c             	add    $0x3c,%esp
    1787:	5b                   	pop    %ebx
    1788:	5e                   	pop    %esi
    1789:	5f                   	pop    %edi
    178a:	5d                   	pop    %ebp
    178b:	e9 c0 9b 01 00       	jmp    1b350 <free>
    1790:	89 1c 24             	mov    %ebx,(%esp)
    1793:	e8 08 0e 00 00       	call   25a0 <usb_pipe_unregister>
    1798:	eb de                	jmp    1778 <usb_device_destroy_pipes+0x58>
    179a:	c7 44 24 08 7d 01 00 	movl   $0x17d,0x8(%esp)
    17a1:	00 
    17a2:	c7 44 24 04 98 a3 02 	movl   $0x2a398,0x4(%esp)
    17a9:	00 
    17aa:	c7 04 24 20 a4 02 00 	movl   $0x2a420,(%esp)
    17b1:	e8 ea 42 02 00       	call   25aa0 <assert_abort>
    17b6:	8d 76 00             	lea    0x0(%esi),%esi
    17b9:	8d bc 27 00 00 00 00 	lea    0x0(%edi,%eiz,1),%edi

000017c0 <usb_device_init>:
    17c0:	55                   	push   %ebp
    17c1:	89 e5                	mov    %esp,%ebp
    17c3:	57                   	push   %edi
    17c4:	56                   	push   %esi
    17c5:	53                   	push   %ebx
    17c6:	83 ec 4c             	sub    $0x4c,%esp
    17c9:	8b 5d 08             	mov    0x8(%ebp),%ebx
    17cc:	8b 45 0c             	mov    0xc(%ebp),%eax
    17cf:	85 db                	test   %ebx,%ebx
    17d1:	0f 84 3a 02 00 00    	je     1a11 <usb_device_init+0x251>
    17d7:	85 c0                	test   %eax,%eax
    17d9:	0f 84 16 02 00 00    	je     19f5 <usb_device_init+0x235>
    17df:	8b 55 14             	mov    0x14(%ebp),%edx
    17e2:	c7 02 00 00 00 00    	movl   $0x0,(%edx)
    17e8:	89 43 70             	mov    %eax,0x70(%ebx)
    17eb:	c7 43 74 00 00 00 00 	movl   $0x0,0x74(%ebx)
    17f2:	c7 43 68 00 00 00 00 	movl   $0x0,0x68(%ebx)
    17f9:	c7 43 40 00 00 00 00 	movl   $0x0,0x40(%ebx)
    1800:	c7 43 3c 00 00 00 00 	movl   $0x0,0x3c(%ebx)
    1807:	89 04 24             	mov    %eax,(%esp)
    180a:	e8 e1 50 00 00       	call   68f0 <ddf_dev_get_handle>
    180f:	8d 4b 44             	lea    0x44(%ebx),%ecx
    1812:	89 4c 24 0c          	mov    %ecx,0xc(%esp)
    1816:	8d 4d e2             	lea    -0x1e(%ebp),%ecx
    1819:	89 4c 24 08          	mov    %ecx,0x8(%esp)
    181d:	8d 4d e4             	lea    -0x1c(%ebp),%ecx
    1820:	89 4c 24 04          	mov    %ecx,0x4(%esp)
    1824:	89 04 24             	mov    %eax,(%esp)
    1827:	e8 54 31 00 00       	call   4980 <usb_get_info_by_handle>
    182c:	89 c1                	mov    %eax,%ecx
    182e:	85 c0                	test   %eax,%eax
    1830:	74 16                	je     1848 <usb_device_init+0x88>
    1832:	8b 55 14             	mov    0x14(%ebp),%edx
    1835:	c7 02 46 a4 02 00    	movl   $0x2a446,(%edx)
    183b:	83 c4 4c             	add    $0x4c,%esp
    183e:	89 c8                	mov    %ecx,%eax
    1840:	5b                   	pop    %ebx
    1841:	5e                   	pop    %esi
    1842:	5f                   	pop    %edi
    1843:	5d                   	pop    %ebp
    1844:	c3                   	ret    
    1845:	8d 76 00             	lea    0x0(%esi),%esi
    1848:	8b 45 e4             	mov    -0x1c(%ebp),%eax
    184b:	c7 43 04 00 00 00 00 	movl   $0x0,0x4(%ebx)
    1852:	89 03                	mov    %eax,(%ebx)
    1854:	8d 43 08             	lea    0x8(%ebx),%eax
    1857:	c7 43 18 00 00 00 00 	movl   $0x0,0x18(%ebx)
    185e:	89 04 24             	mov    %eax,(%esp)
    1861:	e8 3a 06 01 00       	call   11ea0 <fibril_mutex_initialize>
    1866:	66 8b 45 e2          	mov    -0x1e(%ebp),%ax
    186a:	66 83 f8 7f          	cmp    $0x7f,%ax
    186e:	8d 7b 1c             	lea    0x1c(%ebx),%edi
    1871:	0f 87 95 00 00 00    	ja     190c <usb_device_init+0x14c>
    1877:	8d 73 24             	lea    0x24(%ebx),%esi
    187a:	89 5b 1c             	mov    %ebx,0x1c(%ebx)
    187d:	66 89 43 20          	mov    %ax,0x20(%ebx)
    1881:	89 7c 24 04          	mov    %edi,0x4(%esp)
    1885:	89 34 24             	mov    %esi,(%esp)
    1888:	e8 03 0c 00 00       	call   2490 <usb_pipe_initialize_default_control>
    188d:	89 c1                	mov    %eax,%ecx
    188f:	85 c0                	test   %eax,%eax
    1891:	74 0d                	je     18a0 <usb_device_init+0xe0>
    1893:	8b 55 14             	mov    0x14(%ebp),%edx
    1896:	c7 02 14 a5 02 00    	movl   $0x2a514,(%edx)
    189c:	eb 9d                	jmp    183b <usb_device_init+0x7b>
    189e:	66 90                	xchg   %ax,%ax
    18a0:	89 1c 24             	mov    %ebx,(%esp)
    18a3:	e8 c8 37 00 00       	call   5070 <usb_hc_connection_open>
    18a8:	89 c1                	mov    %eax,%ecx
    18aa:	85 c0                	test   %eax,%eax
    18ac:	74 12                	je     18c0 <usb_device_init+0x100>
    18ae:	8b 55 14             	mov    0x14(%ebp),%edx
    18b1:	c7 02 62 a4 02 00    	movl   $0x2a462,(%edx)
    18b7:	eb 82                	jmp    183b <usb_device_init+0x7b>
    18b9:	8d b4 26 00 00 00 00 	lea    0x0(%esi,%eiz,1),%esi
    18c0:	c7 43 68 00 00 00 00 	movl   $0x0,0x68(%ebx)
    18c7:	89 34 24             	mov    %esi,(%esp)
    18ca:	e8 a1 05 00 00       	call   1e70 <usb_pipe_start_long_transfer>
    18cf:	8d 43 54             	lea    0x54(%ebx),%eax
    18d2:	89 44 24 04          	mov    %eax,0x4(%esp)
    18d6:	89 34 24             	mov    %esi,(%esp)
    18d9:	e8 52 16 00 00       	call   2f30 <usb_request_get_device_descriptor>
    18de:	85 c0                	test   %eax,%eax
    18e0:	74 3d                	je     191f <usb_device_init+0x15f>
    18e2:	89 34 24             	mov    %esi,(%esp)
    18e5:	89 45 d4             	mov    %eax,-0x2c(%ebp)
    18e8:	e8 03 06 00 00       	call   1ef0 <usb_pipe_end_long_transfer>
    18ed:	8b 4d d4             	mov    -0x2c(%ebp),%ecx
    18f0:	8b 55 14             	mov    0x14(%ebp),%edx
    18f3:	c7 02 75 a4 02 00    	movl   $0x2a475,(%edx)
    18f9:	89 1c 24             	mov    %ebx,(%esp)
    18fc:	89 4d d4             	mov    %ecx,-0x2c(%ebp)
    18ff:	e8 1c 38 00 00       	call   5120 <usb_hc_connection_close>
    1904:	8b 4d d4             	mov    -0x2c(%ebp),%ecx
    1907:	e9 2f ff ff ff       	jmp    183b <usb_device_init+0x7b>
    190c:	8b 55 14             	mov    0x14(%ebp),%edx
    190f:	b9 f2 ff ff ff       	mov    $0xfffffff2,%ecx
    1914:	c7 02 38 a5 02 00    	movl   $0x2a538,(%edx)
    191a:	e9 1c ff ff ff       	jmp    183b <usb_device_init+0x7b>
    191f:	8d 43 6c             	lea    0x6c(%ebx),%eax
    1922:	c7 44 24 04 00 00 00 	movl   $0x0,0x4(%esp)
    1929:	00 
    192a:	89 44 24 0c          	mov    %eax,0xc(%esp)
    192e:	8d 43 68             	lea    0x68(%ebx),%eax
    1931:	89 44 24 08          	mov    %eax,0x8(%esp)
    1935:	89 34 24             	mov    %esi,(%esp)
    1938:	e8 03 18 00 00       	call   3140 <usb_request_get_full_configuration_descriptor_alloc>
    193d:	89 34 24             	mov    %esi,(%esp)
    1940:	89 45 d4             	mov    %eax,-0x2c(%ebp)
    1943:	e8 a8 05 00 00       	call   1ef0 <usb_pipe_end_long_transfer>
    1948:	8b 4d d4             	mov    -0x2c(%ebp),%ecx
    194b:	85 c9                	test   %ecx,%ecx
    194d:	75 a1                	jne    18f0 <usb_device_init+0x130>
    194f:	8b 43 44             	mov    0x44(%ebx),%eax
    1952:	8d 73 48             	lea    0x48(%ebx),%esi
    1955:	89 44 24 0c          	mov    %eax,0xc(%esp)
    1959:	8b 43 6c             	mov    0x6c(%ebx),%eax
    195c:	89 44 24 08          	mov    %eax,0x8(%esp)
    1960:	8b 43 68             	mov    0x68(%ebx),%eax
    1963:	89 34 24             	mov    %esi,(%esp)
    1966:	89 44 24 04          	mov    %eax,0x4(%esp)
    196a:	e8 11 21 00 00       	call   3a80 <usb_alternate_interfaces_init>
    196f:	31 c9                	xor    %ecx,%ecx
    1971:	85 c0                	test   %eax,%eax
    1973:	75 03                	jne    1978 <usb_device_init+0x1b8>
    1975:	8b 4b 50             	mov    0x50(%ebx),%ecx
    1978:	8d 43 40             	lea    0x40(%ebx),%eax
    197b:	89 4c 24 14          	mov    %ecx,0x14(%esp)
    197f:	89 44 24 1c          	mov    %eax,0x1c(%esp)
    1983:	8d 43 3c             	lea    0x3c(%ebx),%eax
    1986:	89 44 24 18          	mov    %eax,0x18(%esp)
    198a:	8b 43 44             	mov    0x44(%ebx),%eax
    198d:	89 44 24 10          	mov    %eax,0x10(%esp)
    1991:	8b 43 6c             	mov    0x6c(%ebx),%eax
    1994:	89 44 24 0c          	mov    %eax,0xc(%esp)
    1998:	8b 43 68             	mov    0x68(%ebx),%eax
    199b:	89 3c 24             	mov    %edi,(%esp)
    199e:	89 44 24 08          	mov    %eax,0x8(%esp)
    19a2:	8b 45 10             	mov    0x10(%ebp),%eax
    19a5:	89 44 24 04          	mov    %eax,0x4(%esp)
    19a9:	e8 12 fa ff ff       	call   13c0 <usb_device_create_pipes>
    19ae:	89 1c 24             	mov    %ebx,(%esp)
    19b1:	89 45 d4             	mov    %eax,-0x2c(%ebp)
    19b4:	85 c0                	test   %eax,%eax
    19b6:	75 0d                	jne    19c5 <usb_device_init+0x205>
    19b8:	e8 63 37 00 00       	call   5120 <usb_hc_connection_close>
    19bd:	8b 4d d4             	mov    -0x2c(%ebp),%ecx
    19c0:	e9 76 fe ff ff       	jmp    183b <usb_device_init+0x7b>
    19c5:	e8 56 37 00 00       	call   5120 <usb_hc_connection_close>
    19ca:	8b 43 68             	mov    0x68(%ebx),%eax
    19cd:	89 04 24             	mov    %eax,(%esp)
    19d0:	e8 7b 99 01 00       	call   1b350 <free>
    19d5:	c7 43 68 00 00 00 00 	movl   $0x0,0x68(%ebx)
    19dc:	89 34 24             	mov    %esi,(%esp)
    19df:	e8 cc 22 00 00       	call   3cb0 <usb_alternate_interfaces_deinit>
    19e4:	8b 55 14             	mov    0x14(%ebp),%edx
    19e7:	8b 4d d4             	mov    -0x2c(%ebp),%ecx
    19ea:	c7 02 8a a4 02 00    	movl   $0x2a48a,(%edx)
    19f0:	e9 46 fe ff ff       	jmp    183b <usb_device_init+0x7b>
    19f5:	c7 44 24 08 93 01 00 	movl   $0x193,0x8(%esp)
    19fc:	00 
    19fd:	c7 44 24 04 98 a3 02 	movl   $0x2a398,0x4(%esp)
    1a04:	00 
    1a05:	c7 04 24 36 a4 02 00 	movl   $0x2a436,(%esp)
    1a0c:	e8 8f 40 02 00       	call   25aa0 <assert_abort>
    1a11:	c7 44 24 08 92 01 00 	movl   $0x192,0x8(%esp)
    1a18:	00 
    1a19:	c7 44 24 04 98 a3 02 	movl   $0x2a398,0x4(%esp)
    1a20:	00 
    1a21:	c7 04 24 26 a4 02 00 	movl   $0x2a426,(%esp)
    1a28:	e8 73 40 02 00       	call   25aa0 <assert_abort>
    1a2d:	8d 76 00             	lea    0x0(%esi),%esi

00001a30 <usb_device_deinit>:
    1a30:	55                   	push   %ebp
    1a31:	89 e5                	mov    %esp,%ebp
    1a33:	57                   	push   %edi
    1a34:	56                   	push   %esi
    1a35:	53                   	push   %ebx
    1a36:	83 ec 3c             	sub    $0x3c,%esp
    1a39:	8b 75 08             	mov    0x8(%ebp),%esi
    1a3c:	85 f6                	test   %esi,%esi
    1a3e:	0f 84 c4 00 00 00    	je     1b08 <usb_device_deinit+0xd8>
    1a44:	8b 55 08             	mov    0x8(%ebp),%edx
    1a47:	8b 52 40             	mov    0x40(%edx),%edx
    1a4a:	89 55 e4             	mov    %edx,-0x1c(%ebp)
    1a4d:	8b 55 08             	mov    0x8(%ebp),%edx
    1a50:	8b 5d e4             	mov    -0x1c(%ebp),%ebx
    1a53:	8b 7a 3c             	mov    0x3c(%edx),%edi
    1a56:	85 db                	test   %ebx,%ebx
    1a58:	74 4f                	je     1aa9 <usb_device_deinit+0x79>
    1a5a:	85 ff                	test   %edi,%edi
    1a5c:	0f 84 b8 00 00 00    	je     1b1a <usb_device_deinit+0xea>
    1a62:	89 fb                	mov    %edi,%ebx
    1a64:	31 f6                	xor    %esi,%esi
    1a66:	b8 1b a4 02 00       	mov    $0x2a41b,%eax
    1a6b:	80 7b 2c 00          	cmpb   $0x0,0x2c(%ebx)
    1a6f:	74 05                	je     1a76 <usb_device_deinit+0x46>
    1a71:	b8 6d bc 02 00       	mov    $0x2bc6d,%eax
    1a76:	89 44 24 10          	mov    %eax,0x10(%esp)
    1a7a:	89 74 24 0c          	mov    %esi,0xc(%esp)
    1a7e:	c7 44 24 08 f0 a4 02 	movl   $0x2a4f0,0x8(%esp)
    1a85:	00 
    1a86:	c7 44 24 04 05 00 00 	movl   $0x5,0x4(%esp)
    1a8d:	00 
    1a8e:	c7 04 24 ff ff ff ff 	movl   $0xffffffff,(%esp)
    1a95:	e8 06 47 01 00       	call   161a0 <log_msg>
    1a9a:	80 7b 2c 00          	cmpb   $0x0,0x2c(%ebx)
    1a9e:	75 70                	jne    1b10 <usb_device_deinit+0xe0>
    1aa0:	46                   	inc    %esi
    1aa1:	83 c3 30             	add    $0x30,%ebx
    1aa4:	3b 75 e4             	cmp    -0x1c(%ebp),%esi
    1aa7:	75 bd                	jne    1a66 <usb_device_deinit+0x36>
    1aa9:	89 3c 24             	mov    %edi,(%esp)
    1aac:	e8 9f 98 01 00       	call   1b350 <free>
    1ab1:	8b 55 08             	mov    0x8(%ebp),%edx
    1ab4:	c7 42 3c 00 00 00 00 	movl   $0x0,0x3c(%edx)
    1abb:	c7 42 40 00 00 00 00 	movl   $0x0,0x40(%edx)
    1ac2:	89 14 24             	mov    %edx,(%esp)
    1ac5:	e8 f6 34 00 00       	call   4fc0 <usb_hc_connection_deinitialize>
    1aca:	8b 45 08             	mov    0x8(%ebp),%eax
    1acd:	83 c0 48             	add    $0x48,%eax
    1ad0:	89 04 24             	mov    %eax,(%esp)
    1ad3:	e8 d8 21 00 00       	call   3cb0 <usb_alternate_interfaces_deinit>
    1ad8:	8b 55 08             	mov    0x8(%ebp),%edx
    1adb:	8b 42 68             	mov    0x68(%edx),%eax
    1ade:	89 04 24             	mov    %eax,(%esp)
    1ae1:	e8 6a 98 01 00       	call   1b350 <free>
    1ae6:	8b 55 08             	mov    0x8(%ebp),%edx
    1ae9:	8b 42 74             	mov    0x74(%edx),%eax
    1aec:	c7 42 68 00 00 00 00 	movl   $0x0,0x68(%edx)
    1af3:	89 04 24             	mov    %eax,(%esp)
    1af6:	e8 55 98 01 00       	call   1b350 <free>
    1afb:	8b 55 08             	mov    0x8(%ebp),%edx
    1afe:	c7 42 74 00 00 00 00 	movl   $0x0,0x74(%edx)
    1b05:	8d 76 00             	lea    0x0(%esi),%esi
    1b08:	83 c4 3c             	add    $0x3c,%esp
    1b0b:	5b                   	pop    %ebx
    1b0c:	5e                   	pop    %esi
    1b0d:	5f                   	pop    %edi
    1b0e:	5d                   	pop    %ebp
    1b0f:	c3                   	ret    
    1b10:	89 1c 24             	mov    %ebx,(%esp)
    1b13:	e8 88 0a 00 00       	call   25a0 <usb_pipe_unregister>
    1b18:	eb 86                	jmp    1aa0 <usb_device_deinit+0x70>
    1b1a:	c7 44 24 08 7d 01 00 	movl   $0x17d,0x8(%esp)
    1b21:	00 
    1b22:	c7 44 24 04 98 a3 02 	movl   $0x2a398,0x4(%esp)
    1b29:	00 
    1b2a:	c7 04 24 20 a4 02 00 	movl   $0x2a420,(%esp)
    1b31:	e8 6a 3f 02 00       	call   25aa0 <assert_abort>
    1b36:	8d 76 00             	lea    0x0(%esi),%esi
    1b39:	8d bc 27 00 00 00 00 	lea    0x0(%edi,%eiz,1),%edi

00001b40 <generic_device_gone>:
    1b40:	55                   	push   %ebp
    1b41:	89 e5                	mov    %esp,%ebp
    1b43:	56                   	push   %esi
    1b44:	83 ec 24             	sub    $0x24,%esp
    1b47:	a1 04 dc 02 00       	mov    0x2dc04,%eax
    1b4c:	85 c0                	test   %eax,%eax
    1b4e:	74 73                	je     1bc3 <generic_device_gone+0x83>
    1b50:	8b 40 08             	mov    0x8(%eax),%eax
    1b53:	85 c0                	test   %eax,%eax
    1b55:	74 50                	je     1ba7 <generic_device_gone+0x67>
    1b57:	8b 40 08             	mov    0x8(%eax),%eax
    1b5a:	85 c0                	test   %eax,%eax
    1b5c:	74 42                	je     1ba0 <generic_device_gone+0x60>
    1b5e:	8b 45 08             	mov    0x8(%ebp),%eax
    1b61:	89 04 24             	mov    %eax,(%esp)
    1b64:	e8 77 4d 00 00       	call   68e0 <ddf_dev_data_get>
    1b69:	89 c6                	mov    %eax,%esi
    1b6b:	a1 04 dc 02 00       	mov    0x2dc04,%eax
    1b70:	8b 40 08             	mov    0x8(%eax),%eax
    1b73:	89 34 24             	mov    %esi,(%esp)
    1b76:	ff 50 08             	call   *0x8(%eax)
    1b79:	85 c0                	test   %eax,%eax
    1b7b:	74 0b                	je     1b88 <generic_device_gone+0x48>
    1b7d:	83 c4 24             	add    $0x24,%esp
    1b80:	5e                   	pop    %esi
    1b81:	5d                   	pop    %ebp
    1b82:	c3                   	ret    
    1b83:	90                   	nop
    1b84:	8d 74 26 00          	lea    0x0(%esi,%eiz,1),%esi
    1b88:	89 34 24             	mov    %esi,(%esp)
    1b8b:	89 45 f4             	mov    %eax,-0xc(%ebp)
    1b8e:	e8 9d fe ff ff       	call   1a30 <usb_device_deinit>
    1b93:	8b 45 f4             	mov    -0xc(%ebp),%eax
    1b96:	83 c4 24             	add    $0x24,%esp
    1b99:	5e                   	pop    %esi
    1b9a:	5d                   	pop    %ebp
    1b9b:	c3                   	ret    
    1b9c:	8d 74 26 00          	lea    0x0(%esi,%eiz,1),%esi
    1ba0:	b8 f5 ff ff ff       	mov    $0xfffffff5,%eax
    1ba5:	eb d6                	jmp    1b7d <generic_device_gone+0x3d>
    1ba7:	c7 44 24 08 9f 00 00 	movl   $0x9f,0x8(%esp)
    1bae:	00 
    1baf:	c7 44 24 04 98 a3 02 	movl   $0x2a398,0x4(%esp)
    1bb6:	00 
    1bb7:	c7 04 24 a6 a4 02 00 	movl   $0x2a4a6,(%esp)
    1bbe:	e8 dd 3e 02 00       	call   25aa0 <assert_abort>
    1bc3:	c7 44 24 08 9e 00 00 	movl   $0x9e,0x8(%esp)
    1bca:	00 
    1bcb:	c7 44 24 04 98 a3 02 	movl   $0x2a398,0x4(%esp)
    1bd2:	00 
    1bd3:	c7 04 24 9f a4 02 00 	movl   $0x2a49f,(%esp)
    1bda:	e8 c1 3e 02 00       	call   25aa0 <assert_abort>
    1bdf:	90                   	nop

00001be0 <generic_device_remove>:
    1be0:	55                   	push   %ebp
    1be1:	89 e5                	mov    %esp,%ebp
    1be3:	56                   	push   %esi
    1be4:	83 ec 24             	sub    $0x24,%esp
    1be7:	a1 04 dc 02 00       	mov    0x2dc04,%eax
    1bec:	85 c0                	test   %eax,%eax
    1bee:	74 6b                	je     1c5b <generic_device_remove+0x7b>
    1bf0:	8b 40 08             	mov    0x8(%eax),%eax
    1bf3:	85 c0                	test   %eax,%eax
    1bf5:	74 48                	je     1c3f <generic_device_remove+0x5f>
    1bf7:	8b 40 04             	mov    0x4(%eax),%eax
    1bfa:	85 c0                	test   %eax,%eax
    1bfc:	74 3a                	je     1c38 <generic_device_remove+0x58>
    1bfe:	8b 45 08             	mov    0x8(%ebp),%eax
    1c01:	89 04 24             	mov    %eax,(%esp)
    1c04:	e8 d7 4c 00 00       	call   68e0 <ddf_dev_data_get>
    1c09:	89 c6                	mov    %eax,%esi
    1c0b:	a1 04 dc 02 00       	mov    0x2dc04,%eax
    1c10:	8b 40 08             	mov    0x8(%eax),%eax
    1c13:	89 34 24             	mov    %esi,(%esp)
    1c16:	ff 50 04             	call   *0x4(%eax)
    1c19:	85 c0                	test   %eax,%eax
    1c1b:	75 0e                	jne    1c2b <generic_device_remove+0x4b>
    1c1d:	89 34 24             	mov    %esi,(%esp)
    1c20:	89 45 f4             	mov    %eax,-0xc(%ebp)
    1c23:	e8 08 fe ff ff       	call   1a30 <usb_device_deinit>
    1c28:	8b 45 f4             	mov    -0xc(%ebp),%eax
    1c2b:	83 c4 24             	add    $0x24,%esp
    1c2e:	5e                   	pop    %esi
    1c2f:	5d                   	pop    %ebp
    1c30:	c3                   	ret    
    1c31:	8d b4 26 00 00 00 00 	lea    0x0(%esi,%eiz,1),%esi
    1c38:	b8 f5 ff ff ff       	mov    $0xfffffff5,%eax
    1c3d:	eb ec                	jmp    1c2b <generic_device_remove+0x4b>
    1c3f:	c7 44 24 08 89 00 00 	movl   $0x89,0x8(%esp)
    1c46:	00 
    1c47:	c7 44 24 04 98 a3 02 	movl   $0x2a398,0x4(%esp)
    1c4e:	00 
    1c4f:	c7 04 24 a6 a4 02 00 	movl   $0x2a4a6,(%esp)
    1c56:	e8 45 3e 02 00       	call   25aa0 <assert_abort>
    1c5b:	c7 44 24 08 88 00 00 	movl   $0x88,0x8(%esp)
    1c62:	00 
    1c63:	c7 44 24 04 98 a3 02 	movl   $0x2a398,0x4(%esp)
    1c6a:	00 
    1c6b:	c7 04 24 9f a4 02 00 	movl   $0x2a49f,(%esp)
    1c72:	e8 29 3e 02 00       	call   25aa0 <assert_abort>
    1c77:	89 f6                	mov    %esi,%esi
    1c79:	8d bc 27 00 00 00 00 	lea    0x0(%edi,%eiz,1),%edi

00001c80 <generic_device_add>:
    1c80:	55                   	push   %ebp
    1c81:	89 e5                	mov    %esp,%ebp
    1c83:	57                   	push   %edi
    1c84:	56                   	push   %esi
    1c85:	53                   	push   %ebx
    1c86:	83 ec 4c             	sub    $0x4c,%esp
    1c89:	a1 04 dc 02 00       	mov    0x2dc04,%eax
    1c8e:	8b 7d 08             	mov    0x8(%ebp),%edi
    1c91:	85 c0                	test   %eax,%eax
    1c93:	0f 84 2f 01 00 00    	je     1dc8 <generic_device_add+0x148>
    1c99:	8b 40 08             	mov    0x8(%eax),%eax
    1c9c:	85 c0                	test   %eax,%eax
    1c9e:	0f 84 08 01 00 00    	je     1dac <generic_device_add+0x12c>
    1ca4:	8b 00                	mov    (%eax),%eax
    1ca6:	85 c0                	test   %eax,%eax
    1ca8:	0f 84 36 01 00 00    	je     1de4 <generic_device_add+0x164>
    1cae:	c7 44 24 04 78 00 00 	movl   $0x78,0x4(%esp)
    1cb5:	00 
    1cb6:	89 3c 24             	mov    %edi,(%esp)
    1cb9:	e8 92 4b 00 00       	call   6850 <ddf_dev_data_alloc>
    1cbe:	89 c6                	mov    %eax,%esi
    1cc0:	85 c0                	test   %eax,%eax
    1cc2:	0f 84 b2 00 00 00    	je     1d7a <generic_device_add+0xfa>
    1cc8:	8d 45 e4             	lea    -0x1c(%ebp),%eax
    1ccb:	c7 45 e4 00 00 00 00 	movl   $0x0,-0x1c(%ebp)
    1cd2:	89 44 24 0c          	mov    %eax,0xc(%esp)
    1cd6:	a1 04 dc 02 00       	mov    0x2dc04,%eax
    1cdb:	8b 40 04             	mov    0x4(%eax),%eax
    1cde:	89 7c 24 04          	mov    %edi,0x4(%esp)
    1ce2:	89 44 24 08          	mov    %eax,0x8(%esp)
    1ce6:	89 34 24             	mov    %esi,(%esp)
    1ce9:	e8 d2 fa ff ff       	call   17c0 <usb_device_init>
    1cee:	89 c3                	mov    %eax,%ebx
    1cf0:	85 c0                	test   %eax,%eax
    1cf2:	75 24                	jne    1d18 <generic_device_add+0x98>
    1cf4:	a1 04 dc 02 00       	mov    0x2dc04,%eax
    1cf9:	8b 40 08             	mov    0x8(%eax),%eax
    1cfc:	89 34 24             	mov    %esi,(%esp)
    1cff:	ff 10                	call   *(%eax)
    1d01:	89 c3                	mov    %eax,%ebx
    1d03:	85 c0                	test   %eax,%eax
    1d05:	75 61                	jne    1d68 <generic_device_add+0xe8>
    1d07:	83 c4 4c             	add    $0x4c,%esp
    1d0a:	89 d8                	mov    %ebx,%eax
    1d0c:	5b                   	pop    %ebx
    1d0d:	5e                   	pop    %esi
    1d0e:	5f                   	pop    %edi
    1d0f:	5d                   	pop    %ebp
    1d10:	c3                   	ret    
    1d11:	8d b4 26 00 00 00 00 	lea    0x0(%esi,%eiz,1),%esi
    1d18:	89 04 24             	mov    %eax,(%esp)
    1d1b:	e8 b0 f7 00 00       	call   114d0 <str_error>
    1d20:	89 3c 24             	mov    %edi,(%esp)
    1d23:	8b 75 e4             	mov    -0x1c(%ebp),%esi
    1d26:	89 45 d4             	mov    %eax,-0x2c(%ebp)
    1d29:	e8 d2 4b 00 00       	call   6900 <ddf_dev_get_name>
    1d2e:	8b 55 d4             	mov    -0x2c(%ebp),%edx
    1d31:	89 74 24 10          	mov    %esi,0x10(%esp)
    1d35:	89 44 24 0c          	mov    %eax,0xc(%esp)
    1d39:	89 54 24 14          	mov    %edx,0x14(%esp)
    1d3d:	c7 44 24 08 8c a5 02 	movl   $0x2a58c,0x8(%esp)
    1d44:	00 
    1d45:	c7 44 24 04 01 00 00 	movl   $0x1,0x4(%esp)
    1d4c:	00 
    1d4d:	c7 04 24 ff ff ff ff 	movl   $0xffffffff,(%esp)
    1d54:	e8 47 44 01 00       	call   161a0 <log_msg>
    1d59:	83 c4 4c             	add    $0x4c,%esp
    1d5c:	89 d8                	mov    %ebx,%eax
    1d5e:	5b                   	pop    %ebx
    1d5f:	5e                   	pop    %esi
    1d60:	5f                   	pop    %edi
    1d61:	5d                   	pop    %ebp
    1d62:	c3                   	ret    
    1d63:	90                   	nop
    1d64:	8d 74 26 00          	lea    0x0(%esi,%eiz,1),%esi
    1d68:	89 34 24             	mov    %esi,(%esp)
    1d6b:	e8 c0 fc ff ff       	call   1a30 <usb_device_deinit>
    1d70:	83 c4 4c             	add    $0x4c,%esp
    1d73:	89 d8                	mov    %ebx,%eax
    1d75:	5b                   	pop    %ebx
    1d76:	5e                   	pop    %esi
    1d77:	5f                   	pop    %edi
    1d78:	5d                   	pop    %ebp
    1d79:	c3                   	ret    
    1d7a:	89 3c 24             	mov    %edi,(%esp)
    1d7d:	bb fe ff ff ff       	mov    $0xfffffffe,%ebx
    1d82:	e8 79 4b 00 00       	call   6900 <ddf_dev_get_name>
    1d87:	c7 44 24 08 5c a5 02 	movl   $0x2a55c,0x8(%esp)
    1d8e:	00 
    1d8f:	89 44 24 0c          	mov    %eax,0xc(%esp)
    1d93:	c7 44 24 04 01 00 00 	movl   $0x1,0x4(%esp)
    1d9a:	00 
    1d9b:	c7 04 24 ff ff ff ff 	movl   $0xffffffff,(%esp)
    1da2:	e8 f9 43 01 00       	call   161a0 <log_msg>
    1da7:	e9 5b ff ff ff       	jmp    1d07 <generic_device_add+0x87>
    1dac:	c7 44 24 08 64 00 00 	movl   $0x64,0x8(%esp)
    1db3:	00 
    1db4:	c7 44 24 04 98 a3 02 	movl   $0x2a398,0x4(%esp)
    1dbb:	00 
    1dbc:	c7 04 24 a6 a4 02 00 	movl   $0x2a4a6,(%esp)
    1dc3:	e8 d8 3c 02 00       	call   25aa0 <assert_abort>
    1dc8:	c7 44 24 08 63 00 00 	movl   $0x63,0x8(%esp)
    1dcf:	00 
    1dd0:	c7 44 24 04 98 a3 02 	movl   $0x2a398,0x4(%esp)
    1dd7:	00 
    1dd8:	c7 04 24 9f a4 02 00 	movl   $0x2a49f,(%esp)
    1ddf:	e8 bc 3c 02 00       	call   25aa0 <assert_abort>
    1de4:	c7 44 24 08 65 00 00 	movl   $0x65,0x8(%esp)
    1deb:	00 
    1dec:	c7 44 24 04 98 a3 02 	movl   $0x2a398,0x4(%esp)
    1df3:	00 
    1df4:	c7 04 24 b2 a4 02 00 	movl   $0x2a4b2,(%esp)
    1dfb:	e8 a0 3c 02 00       	call   25aa0 <assert_abort>

00001e00 <usb_device_data_alloc>:
    1e00:	55                   	push   %ebp
    1e01:	89 e5                	mov    %esp,%ebp
    1e03:	53                   	push   %ebx
    1e04:	83 ec 14             	sub    $0x14,%esp
    1e07:	8b 5d 08             	mov    0x8(%ebp),%ebx
    1e0a:	85 db                	test   %ebx,%ebx
    1e0c:	74 23                	je     1e31 <usb_device_data_alloc+0x31>
    1e0e:	8b 43 74             	mov    0x74(%ebx),%eax
    1e11:	85 c0                	test   %eax,%eax
    1e13:	75 38                	jne    1e4d <usb_device_data_alloc+0x4d>
    1e15:	8b 45 0c             	mov    0xc(%ebp),%eax
    1e18:	c7 04 24 01 00 00 00 	movl   $0x1,(%esp)
    1e1f:	89 44 24 04          	mov    %eax,0x4(%esp)
    1e23:	e8 b8 93 01 00       	call   1b1e0 <calloc>
    1e28:	89 43 74             	mov    %eax,0x74(%ebx)
    1e2b:	83 c4 14             	add    $0x14,%esp
    1e2e:	5b                   	pop    %ebx
    1e2f:	5d                   	pop    %ebp
    1e30:	c3                   	ret    
    1e31:	c7 44 24 08 05 02 00 	movl   $0x205,0x8(%esp)
    1e38:	00 
    1e39:	c7 44 24 04 98 a3 02 	movl   $0x2a398,0x4(%esp)
    1e40:	00 
    1e41:	c7 04 24 ca a4 02 00 	movl   $0x2a4ca,(%esp)
    1e48:	e8 53 3c 02 00       	call   25aa0 <assert_abort>
    1e4d:	c7 44 24 08 06 02 00 	movl   $0x206,0x8(%esp)
    1e54:	00 
    1e55:	c7 44 24 04 98 a3 02 	movl   $0x2a398,0x4(%esp)
    1e5c:	00 
    1e5d:	c7 04 24 d2 a4 02 00 	movl   $0x2a4d2,(%esp)
    1e64:	e8 37 3c 02 00       	call   25aa0 <assert_abort>
    1e69:	66 90                	xchg   %ax,%ax
    1e6b:	66 90                	xchg   %ax,%ax
    1e6d:	66 90                	xchg   %ax,%ax
    1e6f:	90                   	nop

00001e70 <usb_pipe_start_long_transfer>:
    1e70:	55                   	push   %ebp
    1e71:	89 e5                	mov    %esp,%ebp
    1e73:	83 ec 18             	sub    $0x18,%esp
    1e76:	8b 45 08             	mov    0x8(%ebp),%eax
    1e79:	85 c0                	test   %eax,%eax
    1e7b:	74 15                	je     1e92 <usb_pipe_start_long_transfer+0x22>
    1e7d:	8b 00                	mov    (%eax),%eax
    1e7f:	85 c0                	test   %eax,%eax
    1e81:	74 47                	je     1eca <usb_pipe_start_long_transfer+0x5a>
    1e83:	8b 00                	mov    (%eax),%eax
    1e85:	85 c0                	test   %eax,%eax
    1e87:	74 25                	je     1eae <usb_pipe_start_long_transfer+0x3e>
    1e89:	89 45 08             	mov    %eax,0x8(%ebp)
    1e8c:	c9                   	leave  
    1e8d:	e9 de 31 00 00       	jmp    5070 <usb_hc_connection_open>
    1e92:	c7 44 24 08 33 00 00 	movl   $0x33,0x8(%esp)
    1e99:	00 
    1e9a:	c7 44 24 04 b3 a5 02 	movl   $0x2a5b3,0x4(%esp)
    1ea1:	00 
    1ea2:	c7 04 24 bf a5 02 00 	movl   $0x2a5bf,(%esp)
    1ea9:	e8 f2 3b 02 00       	call   25aa0 <assert_abort>
    1eae:	c7 44 24 08 35 00 00 	movl   $0x35,0x8(%esp)
    1eb5:	00 
    1eb6:	c7 44 24 04 b3 a5 02 	movl   $0x2a5b3,0x4(%esp)
    1ebd:	00 
    1ebe:	c7 04 24 cf a5 02 00 	movl   $0x2a5cf,(%esp)
    1ec5:	e8 d6 3b 02 00       	call   25aa0 <assert_abort>
    1eca:	c7 44 24 08 34 00 00 	movl   $0x34,0x8(%esp)
    1ed1:	00 
    1ed2:	c7 44 24 04 b3 a5 02 	movl   $0x2a5b3,0x4(%esp)
    1ed9:	00 
    1eda:	c7 04 24 c4 a5 02 00 	movl   $0x2a5c4,(%esp)
    1ee1:	e8 ba 3b 02 00       	call   25aa0 <assert_abort>
    1ee6:	8d 76 00             	lea    0x0(%esi),%esi
    1ee9:	8d bc 27 00 00 00 00 	lea    0x0(%edi,%eiz,1),%edi

00001ef0 <usb_pipe_end_long_transfer>:
    1ef0:	55                   	push   %ebp
    1ef1:	89 e5                	mov    %esp,%ebp
    1ef3:	83 ec 18             	sub    $0x18,%esp
    1ef6:	8b 45 08             	mov    0x8(%ebp),%eax
    1ef9:	85 c0                	test   %eax,%eax
    1efb:	74 15                	je     1f12 <usb_pipe_end_long_transfer+0x22>
    1efd:	8b 00                	mov    (%eax),%eax
    1eff:	85 c0                	test   %eax,%eax
    1f01:	74 47                	je     1f4a <usb_pipe_end_long_transfer+0x5a>
    1f03:	8b 00                	mov    (%eax),%eax
    1f05:	85 c0                	test   %eax,%eax
    1f07:	74 25                	je     1f2e <usb_pipe_end_long_transfer+0x3e>
    1f09:	89 45 08             	mov    %eax,0x8(%ebp)
    1f0c:	c9                   	leave  
    1f0d:	e9 0e 32 00 00       	jmp    5120 <usb_hc_connection_close>
    1f12:	c7 44 24 08 40 00 00 	movl   $0x40,0x8(%esp)
    1f19:	00 
    1f1a:	c7 44 24 04 b3 a5 02 	movl   $0x2a5b3,0x4(%esp)
    1f21:	00 
    1f22:	c7 04 24 bf a5 02 00 	movl   $0x2a5bf,(%esp)
    1f29:	e8 72 3b 02 00       	call   25aa0 <assert_abort>
    1f2e:	c7 44 24 08 42 00 00 	movl   $0x42,0x8(%esp)
    1f35:	00 
    1f36:	c7 44 24 04 b3 a5 02 	movl   $0x2a5b3,0x4(%esp)
    1f3d:	00 
    1f3e:	c7 04 24 cf a5 02 00 	movl   $0x2a5cf,(%esp)
    1f45:	e8 56 3b 02 00       	call   25aa0 <assert_abort>
    1f4a:	c7 44 24 08 41 00 00 	movl   $0x41,0x8(%esp)
    1f51:	00 
    1f52:	c7 44 24 04 b3 a5 02 	movl   $0x2a5b3,0x4(%esp)
    1f59:	00 
    1f5a:	c7 04 24 c4 a5 02 00 	movl   $0x2a5c4,(%esp)
    1f61:	e8 3a 3b 02 00       	call   25aa0 <assert_abort>
    1f66:	8d 76 00             	lea    0x0(%esi),%esi
    1f69:	8d bc 27 00 00 00 00 	lea    0x0(%edi,%eiz,1),%edi

00001f70 <usb_pipe_control_read>:
    1f70:	55                   	push   %ebp
    1f71:	89 e5                	mov    %esp,%ebp
    1f73:	57                   	push   %edi
    1f74:	56                   	push   %esi
    1f75:	53                   	push   %ebx
    1f76:	83 ec 3c             	sub    $0x3c,%esp
    1f79:	8b 5d 08             	mov    0x8(%ebp),%ebx
    1f7c:	8b 45 0c             	mov    0xc(%ebp),%eax
    1f7f:	85 db                	test   %ebx,%ebx
    1f81:	0f 84 08 01 00 00    	je     208f <usb_pipe_control_read+0x11f>
    1f87:	83 7d 10 08          	cmpl   $0x8,0x10(%ebp)
    1f8b:	0f 85 f7 00 00 00    	jne    2088 <usb_pipe_control_read+0x118>
    1f91:	85 c0                	test   %eax,%eax
    1f93:	0f 84 ef 00 00 00    	je     2088 <usb_pipe_control_read+0x118>
    1f99:	8b 75 18             	mov    0x18(%ebp),%esi
    1f9c:	85 f6                	test   %esi,%esi
    1f9e:	0f 84 e4 00 00 00    	je     2088 <usb_pipe_control_read+0x118>
    1fa4:	8b 4d 14             	mov    0x14(%ebp),%ecx
    1fa7:	85 c9                	test   %ecx,%ecx
    1fa9:	0f 84 d9 00 00 00    	je     2088 <usb_pipe_control_read+0x118>
    1faf:	83 7b 0c 02          	cmpl   $0x2,0xc(%ebx)
    1fb3:	0f 85 97 00 00 00    	jne    2050 <usb_pipe_control_read+0xe0>
    1fb9:	8b 53 08             	mov    0x8(%ebx),%edx
    1fbc:	85 d2                	test   %edx,%edx
    1fbe:	0f 85 8c 00 00 00    	jne    2050 <usb_pipe_control_read+0xe0>
    1fc4:	89 44 24 04          	mov    %eax,0x4(%esp)
    1fc8:	8d 45 e0             	lea    -0x20(%ebp),%eax
    1fcb:	c7 44 24 08 08 00 00 	movl   $0x8,0x8(%esp)
    1fd2:	00 
    1fd3:	89 04 24             	mov    %eax,(%esp)
    1fd6:	e8 05 be 00 00       	call   dde0 <memcpy>
    1fdb:	8b 0b                	mov    (%ebx),%ecx
    1fdd:	c7 45 dc 00 00 00 00 	movl   $0x0,-0x24(%ebp)
    1fe4:	8b 45 e0             	mov    -0x20(%ebp),%eax
    1fe7:	8b 55 e4             	mov    -0x1c(%ebp),%edx
    1fea:	85 c9                	test   %ecx,%ecx
    1fec:	0f bf 73 04          	movswl 0x4(%ebx),%esi
    1ff0:	0f 84 b5 00 00 00    	je     20ab <usb_pipe_control_read+0x13b>
    1ff6:	8d 7d dc             	lea    -0x24(%ebp),%edi
    1ff9:	89 74 24 08          	mov    %esi,0x8(%esp)
    1ffd:	89 7c 24 1c          	mov    %edi,0x1c(%esp)
    2001:	8b 7d 18             	mov    0x18(%ebp),%edi
    2004:	89 7c 24 18          	mov    %edi,0x18(%esp)
    2008:	8b 7d 14             	mov    0x14(%ebp),%edi
    200b:	89 7c 24 14          	mov    %edi,0x14(%esp)
    200f:	89 44 24 0c          	mov    %eax,0xc(%esp)
    2013:	89 54 24 10          	mov    %edx,0x10(%esp)
    2017:	0f bf 41 04          	movswl 0x4(%ecx),%eax
    201b:	89 44 24 04          	mov    %eax,0x4(%esp)
    201f:	8b 01                	mov    (%ecx),%eax
    2021:	89 04 24             	mov    %eax,(%esp)
    2024:	e8 b7 3b 00 00       	call   5be0 <usb_hc_read>
    2029:	89 c6                	mov    %eax,%esi
    202b:	3d d3 fe ff ff       	cmp    $0xfffffed3,%eax
    2030:	74 2e                	je     2060 <usb_pipe_control_read+0xf0>
    2032:	85 c0                	test   %eax,%eax
    2034:	75 0f                	jne    2045 <usb_pipe_control_read+0xd5>
    2036:	8b 45 1c             	mov    0x1c(%ebp),%eax
    2039:	85 c0                	test   %eax,%eax
    203b:	74 08                	je     2045 <usb_pipe_control_read+0xd5>
    203d:	8b 55 1c             	mov    0x1c(%ebp),%edx
    2040:	8b 45 dc             	mov    -0x24(%ebp),%eax
    2043:	89 02                	mov    %eax,(%edx)
    2045:	83 c4 3c             	add    $0x3c,%esp
    2048:	89 f0                	mov    %esi,%eax
    204a:	5b                   	pop    %ebx
    204b:	5e                   	pop    %esi
    204c:	5f                   	pop    %edi
    204d:	5d                   	pop    %ebp
    204e:	c3                   	ret    
    204f:	90                   	nop
    2050:	83 c4 3c             	add    $0x3c,%esp
    2053:	be fa fe ff ff       	mov    $0xfffffefa,%esi
    2058:	89 f0                	mov    %esi,%eax
    205a:	5b                   	pop    %ebx
    205b:	5e                   	pop    %esi
    205c:	5f                   	pop    %edi
    205d:	5d                   	pop    %ebp
    205e:	c3                   	ret    
    205f:	90                   	nop
    2060:	80 7b 14 00          	cmpb   $0x0,0x14(%ebx)
    2064:	74 df                	je     2045 <usb_pipe_control_read+0xd5>
    2066:	66 83 7b 04 00       	cmpw   $0x0,0x4(%ebx)
    206b:	75 d8                	jne    2045 <usb_pipe_control_read+0xd5>
    206d:	c6 43 14 00          	movb   $0x0,0x14(%ebx)
    2071:	c7 44 24 04 00 00 00 	movl   $0x0,0x4(%esp)
    2078:	00 
    2079:	89 1c 24             	mov    %ebx,(%esp)
    207c:	e8 cf 17 00 00       	call   3850 <usb_request_clear_endpoint_halt>
    2081:	c6 43 14 01          	movb   $0x1,0x14(%ebx)
    2085:	eb be                	jmp    2045 <usb_pipe_control_read+0xd5>
    2087:	90                   	nop
    2088:	be f2 ff ff ff       	mov    $0xfffffff2,%esi
    208d:	eb b6                	jmp    2045 <usb_pipe_control_read+0xd5>
    208f:	c7 44 24 08 69 00 00 	movl   $0x69,0x8(%esp)
    2096:	00 
    2097:	c7 44 24 04 b3 a5 02 	movl   $0x2a5b3,0x4(%esp)
    209e:	00 
    209f:	c7 04 24 bf a5 02 00 	movl   $0x2a5bf,(%esp)
    20a6:	e8 f5 39 02 00       	call   25aa0 <assert_abort>
    20ab:	c7 44 24 08 78 00 00 	movl   $0x78,0x8(%esp)
    20b2:	00 
    20b3:	c7 44 24 04 f4 a5 02 	movl   $0x2a5f4,0x4(%esp)
    20ba:	00 
    20bb:	c7 04 24 e9 a5 02 00 	movl   $0x2a5e9,(%esp)
    20c2:	e8 d9 39 02 00       	call   25aa0 <assert_abort>
    20c7:	89 f6                	mov    %esi,%esi
    20c9:	8d bc 27 00 00 00 00 	lea    0x0(%edi,%eiz,1),%edi

000020d0 <usb_pipe_control_write>:
    20d0:	55                   	push   %ebp
    20d1:	89 e5                	mov    %esp,%ebp
    20d3:	57                   	push   %edi
    20d4:	56                   	push   %esi
    20d5:	53                   	push   %ebx
    20d6:	83 ec 3c             	sub    $0x3c,%esp
    20d9:	8b 5d 08             	mov    0x8(%ebp),%ebx
    20dc:	8b 45 0c             	mov    0xc(%ebp),%eax
    20df:	8b 75 18             	mov    0x18(%ebp),%esi
    20e2:	85 db                	test   %ebx,%ebx
    20e4:	0f 84 03 01 00 00    	je     21ed <usb_pipe_control_write+0x11d>
    20ea:	83 7d 10 08          	cmpl   $0x8,0x10(%ebp)
    20ee:	0f 85 b4 00 00 00    	jne    21a8 <usb_pipe_control_write+0xd8>
    20f4:	85 c0                	test   %eax,%eax
    20f6:	0f 84 ac 00 00 00    	je     21a8 <usb_pipe_control_write+0xd8>
    20fc:	85 f6                	test   %esi,%esi
    20fe:	0f 85 dc 00 00 00    	jne    21e0 <usb_pipe_control_write+0x110>
    2104:	85 f6                	test   %esi,%esi
    2106:	0f 84 8c 00 00 00    	je     2198 <usb_pipe_control_write+0xc8>
    210c:	83 7b 0c 02          	cmpl   $0x2,0xc(%ebx)
    2110:	75 76                	jne    2188 <usb_pipe_control_write+0xb8>
    2112:	8b 7b 08             	mov    0x8(%ebx),%edi
    2115:	85 ff                	test   %edi,%edi
    2117:	75 6f                	jne    2188 <usb_pipe_control_write+0xb8>
    2119:	89 44 24 04          	mov    %eax,0x4(%esp)
    211d:	8d 45 e0             	lea    -0x20(%ebp),%eax
    2120:	c7 44 24 08 08 00 00 	movl   $0x8,0x8(%esp)
    2127:	00 
    2128:	89 04 24             	mov    %eax,(%esp)
    212b:	e8 b0 bc 00 00       	call   dde0 <memcpy>
    2130:	8b 0b                	mov    (%ebx),%ecx
    2132:	8b 45 e0             	mov    -0x20(%ebp),%eax
    2135:	8b 55 e4             	mov    -0x1c(%ebp),%edx
    2138:	8b 7b 04             	mov    0x4(%ebx),%edi
    213b:	85 c9                	test   %ecx,%ecx
    213d:	0f 84 c6 00 00 00    	je     2209 <usb_pipe_control_write+0x139>
    2143:	89 74 24 18          	mov    %esi,0x18(%esp)
    2147:	89 44 24 0c          	mov    %eax,0xc(%esp)
    214b:	8b 75 14             	mov    0x14(%ebp),%esi
    214e:	89 54 24 10          	mov    %edx,0x10(%esp)
    2152:	0f bf c7             	movswl %di,%eax
    2155:	89 74 24 14          	mov    %esi,0x14(%esp)
    2159:	89 44 24 08          	mov    %eax,0x8(%esp)
    215d:	0f bf 41 04          	movswl 0x4(%ecx),%eax
    2161:	89 44 24 04          	mov    %eax,0x4(%esp)
    2165:	8b 01                	mov    (%ecx),%eax
    2167:	89 04 24             	mov    %eax,(%esp)
    216a:	e8 41 3c 00 00       	call   5db0 <usb_hc_write>
    216f:	89 c6                	mov    %eax,%esi
    2171:	3d d3 fe ff ff       	cmp    $0xfffffed3,%eax
    2176:	74 40                	je     21b8 <usb_pipe_control_write+0xe8>
    2178:	83 c4 3c             	add    $0x3c,%esp
    217b:	89 f0                	mov    %esi,%eax
    217d:	5b                   	pop    %ebx
    217e:	5e                   	pop    %esi
    217f:	5f                   	pop    %edi
    2180:	5d                   	pop    %ebp
    2181:	c3                   	ret    
    2182:	8d b6 00 00 00 00    	lea    0x0(%esi),%esi
    2188:	83 c4 3c             	add    $0x3c,%esp
    218b:	be fa fe ff ff       	mov    $0xfffffefa,%esi
    2190:	89 f0                	mov    %esi,%eax
    2192:	5b                   	pop    %ebx
    2193:	5e                   	pop    %esi
    2194:	5f                   	pop    %edi
    2195:	5d                   	pop    %ebp
    2196:	c3                   	ret    
    2197:	90                   	nop
    2198:	8b 55 14             	mov    0x14(%ebp),%edx
    219b:	85 d2                	test   %edx,%edx
    219d:	0f 84 69 ff ff ff    	je     210c <usb_pipe_control_write+0x3c>
    21a3:	90                   	nop
    21a4:	8d 74 26 00          	lea    0x0(%esi,%eiz,1),%esi
    21a8:	83 c4 3c             	add    $0x3c,%esp
    21ab:	be f2 ff ff ff       	mov    $0xfffffff2,%esi
    21b0:	89 f0                	mov    %esi,%eax
    21b2:	5b                   	pop    %ebx
    21b3:	5e                   	pop    %esi
    21b4:	5f                   	pop    %edi
    21b5:	5d                   	pop    %ebp
    21b6:	c3                   	ret    
    21b7:	90                   	nop
    21b8:	80 7b 14 00          	cmpb   $0x0,0x14(%ebx)
    21bc:	74 ba                	je     2178 <usb_pipe_control_write+0xa8>
    21be:	66 83 7b 04 00       	cmpw   $0x0,0x4(%ebx)
    21c3:	75 b3                	jne    2178 <usb_pipe_control_write+0xa8>
    21c5:	c6 43 14 00          	movb   $0x0,0x14(%ebx)
    21c9:	c7 44 24 04 00 00 00 	movl   $0x0,0x4(%esp)
    21d0:	00 
    21d1:	89 1c 24             	mov    %ebx,(%esp)
    21d4:	e8 77 16 00 00       	call   3850 <usb_request_clear_endpoint_halt>
    21d9:	c6 43 14 01          	movb   $0x1,0x14(%ebx)
    21dd:	eb 99                	jmp    2178 <usb_pipe_control_write+0xa8>
    21df:	90                   	nop
    21e0:	8b 4d 14             	mov    0x14(%ebp),%ecx
    21e3:	85 c9                	test   %ecx,%ecx
    21e5:	0f 85 19 ff ff ff    	jne    2104 <usb_pipe_control_write+0x34>
    21eb:	eb bb                	jmp    21a8 <usb_pipe_control_write+0xd8>
    21ed:	c7 44 24 08 99 00 00 	movl   $0x99,0x8(%esp)
    21f4:	00 
    21f5:	c7 44 24 04 b3 a5 02 	movl   $0x2a5b3,0x4(%esp)
    21fc:	00 
    21fd:	c7 04 24 bf a5 02 00 	movl   $0x2a5bf,(%esp)
    2204:	e8 97 38 02 00       	call   25aa0 <assert_abort>
    2209:	c7 44 24 08 88 00 00 	movl   $0x88,0x8(%esp)
    2210:	00 
    2211:	c7 44 24 04 f4 a5 02 	movl   $0x2a5f4,0x4(%esp)
    2218:	00 
    2219:	c7 04 24 e9 a5 02 00 	movl   $0x2a5e9,(%esp)
    2220:	e8 7b 38 02 00       	call   25aa0 <assert_abort>
    2225:	8d 74 26 00          	lea    0x0(%esi,%eiz,1),%esi
    2229:	8d bc 27 00 00 00 00 	lea    0x0(%edi,%eiz,1),%edi

00002230 <usb_pipe_read>:
    2230:	55                   	push   %ebp
    2231:	89 e5                	mov    %esp,%ebp
    2233:	56                   	push   %esi
    2234:	53                   	push   %ebx
    2235:	83 ec 30             	sub    $0x30,%esp
    2238:	8b 45 08             	mov    0x8(%ebp),%eax
    223b:	8b 4d 0c             	mov    0xc(%ebp),%ecx
    223e:	8b 5d 10             	mov    0x10(%ebp),%ebx
    2241:	85 c0                	test   %eax,%eax
    2243:	0f 84 be 00 00 00    	je     2307 <usb_pipe_read+0xd7>
    2249:	85 c9                	test   %ecx,%ecx
    224b:	0f 84 af 00 00 00    	je     2300 <usb_pipe_read+0xd0>
    2251:	85 db                	test   %ebx,%ebx
    2253:	0f 84 a7 00 00 00    	je     2300 <usb_pipe_read+0xd0>
    2259:	8b 70 0c             	mov    0xc(%eax),%esi
    225c:	85 f6                	test   %esi,%esi
    225e:	0f 85 94 00 00 00    	jne    22f8 <usb_pipe_read+0xc8>
    2264:	8b 50 08             	mov    0x8(%eax),%edx
    2267:	85 d2                	test   %edx,%edx
    2269:	0f 84 89 00 00 00    	je     22f8 <usb_pipe_read+0xc8>
    226f:	83 ea 02             	sub    $0x2,%edx
    2272:	83 fa 01             	cmp    $0x1,%edx
    2275:	77 71                	ja     22e8 <usb_pipe_read+0xb8>
    2277:	0f bf 50 04          	movswl 0x4(%eax),%edx
    227b:	8b 00                	mov    (%eax),%eax
    227d:	c7 45 f4 00 00 00 00 	movl   $0x0,-0xc(%ebp)
    2284:	85 c0                	test   %eax,%eax
    2286:	0f 84 97 00 00 00    	je     2323 <usb_pipe_read+0xf3>
    228c:	8d 75 f4             	lea    -0xc(%ebp),%esi
    228f:	89 5c 24 18          	mov    %ebx,0x18(%esp)
    2293:	89 74 24 1c          	mov    %esi,0x1c(%esp)
    2297:	89 4c 24 14          	mov    %ecx,0x14(%esp)
    229b:	c7 44 24 0c 00 00 00 	movl   $0x0,0xc(%esp)
    22a2:	00 
    22a3:	c7 44 24 10 00 00 00 	movl   $0x0,0x10(%esp)
    22aa:	00 
    22ab:	89 54 24 08          	mov    %edx,0x8(%esp)
    22af:	0f bf 50 04          	movswl 0x4(%eax),%edx
    22b3:	89 54 24 04          	mov    %edx,0x4(%esp)
    22b7:	8b 00                	mov    (%eax),%eax
    22b9:	89 04 24             	mov    %eax,(%esp)
    22bc:	e8 1f 39 00 00       	call   5be0 <usb_hc_read>
    22c1:	85 c0                	test   %eax,%eax
    22c3:	74 0b                	je     22d0 <usb_pipe_read+0xa0>
    22c5:	83 c4 30             	add    $0x30,%esp
    22c8:	5b                   	pop    %ebx
    22c9:	5e                   	pop    %esi
    22ca:	5d                   	pop    %ebp
    22cb:	c3                   	ret    
    22cc:	8d 74 26 00          	lea    0x0(%esi,%eiz,1),%esi
    22d0:	8b 5d 14             	mov    0x14(%ebp),%ebx
    22d3:	85 db                	test   %ebx,%ebx
    22d5:	74 ee                	je     22c5 <usb_pipe_read+0x95>
    22d7:	8b 55 14             	mov    0x14(%ebp),%edx
    22da:	8b 45 f4             	mov    -0xc(%ebp),%eax
    22dd:	89 02                	mov    %eax,(%edx)
    22df:	83 c4 30             	add    $0x30,%esp
    22e2:	31 c0                	xor    %eax,%eax
    22e4:	5b                   	pop    %ebx
    22e5:	5e                   	pop    %esi
    22e6:	5d                   	pop    %ebp
    22e7:	c3                   	ret    
    22e8:	83 c4 30             	add    $0x30,%esp
    22eb:	b8 f5 ff ff ff       	mov    $0xfffffff5,%eax
    22f0:	5b                   	pop    %ebx
    22f1:	5e                   	pop    %esi
    22f2:	5d                   	pop    %ebp
    22f3:	c3                   	ret    
    22f4:	8d 74 26 00          	lea    0x0(%esi,%eiz,1),%esi
    22f8:	b8 fa fe ff ff       	mov    $0xfffffefa,%eax
    22fd:	eb c6                	jmp    22c5 <usb_pipe_read+0x95>
    22ff:	90                   	nop
    2300:	b8 f2 ff ff ff       	mov    $0xfffffff2,%eax
    2305:	eb be                	jmp    22c5 <usb_pipe_read+0x95>
    2307:	c7 44 24 08 c4 00 00 	movl   $0xc4,0x8(%esp)
    230e:	00 
    230f:	c7 44 24 04 b3 a5 02 	movl   $0x2a5b3,0x4(%esp)
    2316:	00 
    2317:	c7 04 24 bf a5 02 00 	movl   $0x2a5bf,(%esp)
    231e:	e8 7d 37 02 00       	call   25aa0 <assert_abort>
    2323:	c7 44 24 08 78 00 00 	movl   $0x78,0x8(%esp)
    232a:	00 
    232b:	c7 44 24 04 f4 a5 02 	movl   $0x2a5f4,0x4(%esp)
    2332:	00 
    2333:	c7 04 24 e9 a5 02 00 	movl   $0x2a5e9,(%esp)
    233a:	e8 61 37 02 00       	call   25aa0 <assert_abort>
    233f:	90                   	nop

00002340 <usb_pipe_write>:
    2340:	55                   	push   %ebp
    2341:	89 e5                	mov    %esp,%ebp
    2343:	53                   	push   %ebx
    2344:	83 ec 24             	sub    $0x24,%esp
    2347:	8b 45 08             	mov    0x8(%ebp),%eax
    234a:	8b 4d 0c             	mov    0xc(%ebp),%ecx
    234d:	8b 55 10             	mov    0x10(%ebp),%edx
    2350:	85 c0                	test   %eax,%eax
    2352:	0f 84 87 00 00 00    	je     23df <usb_pipe_write+0x9f>
    2358:	85 d2                	test   %edx,%edx
    235a:	74 7c                	je     23d8 <usb_pipe_write+0x98>
    235c:	85 c9                	test   %ecx,%ecx
    235e:	74 78                	je     23d8 <usb_pipe_write+0x98>
    2360:	83 78 0c 01          	cmpl   $0x1,0xc(%eax)
    2364:	75 62                	jne    23c8 <usb_pipe_write+0x88>
    2366:	8b 58 08             	mov    0x8(%eax),%ebx
    2369:	85 db                	test   %ebx,%ebx
    236b:	74 5b                	je     23c8 <usb_pipe_write+0x88>
    236d:	83 eb 02             	sub    $0x2,%ebx
    2370:	83 fb 01             	cmp    $0x1,%ebx
    2373:	77 43                	ja     23b8 <usb_pipe_write+0x78>
    2375:	0f bf 58 04          	movswl 0x4(%eax),%ebx
    2379:	8b 00                	mov    (%eax),%eax
    237b:	85 c0                	test   %eax,%eax
    237d:	74 7c                	je     23fb <usb_pipe_write+0xbb>
    237f:	89 54 24 18          	mov    %edx,0x18(%esp)
    2383:	89 4c 24 14          	mov    %ecx,0x14(%esp)
    2387:	c7 44 24 0c 00 00 00 	movl   $0x0,0xc(%esp)
    238e:	00 
    238f:	c7 44 24 10 00 00 00 	movl   $0x0,0x10(%esp)
    2396:	00 
    2397:	89 5c 24 08          	mov    %ebx,0x8(%esp)
    239b:	0f bf 50 04          	movswl 0x4(%eax),%edx
    239f:	89 54 24 04          	mov    %edx,0x4(%esp)
    23a3:	8b 00                	mov    (%eax),%eax
    23a5:	89 04 24             	mov    %eax,(%esp)
    23a8:	e8 03 3a 00 00       	call   5db0 <usb_hc_write>
    23ad:	83 c4 24             	add    $0x24,%esp
    23b0:	5b                   	pop    %ebx
    23b1:	5d                   	pop    %ebp
    23b2:	c3                   	ret    
    23b3:	90                   	nop
    23b4:	8d 74 26 00          	lea    0x0(%esi,%eiz,1),%esi
    23b8:	83 c4 24             	add    $0x24,%esp
    23bb:	b8 f5 ff ff ff       	mov    $0xfffffff5,%eax
    23c0:	5b                   	pop    %ebx
    23c1:	5d                   	pop    %ebp
    23c2:	c3                   	ret    
    23c3:	90                   	nop
    23c4:	8d 74 26 00          	lea    0x0(%esi,%eiz,1),%esi
    23c8:	83 c4 24             	add    $0x24,%esp
    23cb:	b8 fa fe ff ff       	mov    $0xfffffefa,%eax
    23d0:	5b                   	pop    %ebx
    23d1:	5d                   	pop    %ebp
    23d2:	c3                   	ret    
    23d3:	90                   	nop
    23d4:	8d 74 26 00          	lea    0x0(%esi,%eiz,1),%esi
    23d8:	b8 f2 ff ff ff       	mov    $0xfffffff2,%eax
    23dd:	eb ce                	jmp    23ad <usb_pipe_write+0x6d>
    23df:	c7 44 24 08 ef 00 00 	movl   $0xef,0x8(%esp)
    23e6:	00 
    23e7:	c7 44 24 04 b3 a5 02 	movl   $0x2a5b3,0x4(%esp)
    23ee:	00 
    23ef:	c7 04 24 bf a5 02 00 	movl   $0x2a5bf,(%esp)
    23f6:	e8 a5 36 02 00       	call   25aa0 <assert_abort>
    23fb:	c7 44 24 08 88 00 00 	movl   $0x88,0x8(%esp)
    2402:	00 
    2403:	c7 44 24 04 f4 a5 02 	movl   $0x2a5f4,0x4(%esp)
    240a:	00 
    240b:	c7 04 24 e9 a5 02 00 	movl   $0x2a5e9,(%esp)
    2412:	e8 89 36 02 00       	call   25aa0 <assert_abort>
    2417:	89 f6                	mov    %esi,%esi
    2419:	8d bc 27 00 00 00 00 	lea    0x0(%edi,%eiz,1),%edi

00002420 <usb_pipe_initialize>:
    2420:	55                   	push   %ebp
    2421:	89 e5                	mov    %esp,%ebp
    2423:	83 ec 18             	sub    $0x18,%esp
    2426:	8b 45 08             	mov    0x8(%ebp),%eax
    2429:	8b 55 0c             	mov    0xc(%ebp),%edx
    242c:	8b 4d 10             	mov    0x10(%ebp),%ecx
    242f:	85 c0                	test   %eax,%eax
    2431:	74 24                	je     2457 <usb_pipe_initialize+0x37>
    2433:	85 d2                	test   %edx,%edx
    2435:	74 3c                	je     2473 <usb_pipe_initialize+0x53>
    2437:	89 10                	mov    %edx,(%eax)
    2439:	8b 55 14             	mov    0x14(%ebp),%edx
    243c:	89 50 08             	mov    %edx,0x8(%eax)
    243f:	8b 55 18             	mov    0x18(%ebp),%edx
    2442:	89 50 10             	mov    %edx,0x10(%eax)
    2445:	8b 55 1c             	mov    0x1c(%ebp),%edx
    2448:	66 89 48 04          	mov    %cx,0x4(%eax)
    244c:	89 50 0c             	mov    %edx,0xc(%eax)
    244f:	c6 40 14 00          	movb   $0x0,0x14(%eax)
    2453:	31 c0                	xor    %eax,%eax
    2455:	c9                   	leave  
    2456:	c3                   	ret    
    2457:	c7 44 24 08 15 01 00 	movl   $0x115,0x8(%esp)
    245e:	00 
    245f:	c7 44 24 04 b3 a5 02 	movl   $0x2a5b3,0x4(%esp)
    2466:	00 
    2467:	c7 04 24 bf a5 02 00 	movl   $0x2a5bf,(%esp)
    246e:	e8 2d 36 02 00       	call   25aa0 <assert_abort>
    2473:	c7 44 24 08 16 01 00 	movl   $0x116,0x8(%esp)
    247a:	00 
    247b:	c7 44 24 04 b3 a5 02 	movl   $0x2a5b3,0x4(%esp)
    2482:	00 
    2483:	c7 04 24 65 ae 02 00 	movl   $0x2ae65,(%esp)
    248a:	e8 11 36 02 00       	call   25aa0 <assert_abort>
    248f:	90                   	nop

00002490 <usb_pipe_initialize_default_control>:
    2490:	55                   	push   %ebp
    2491:	89 e5                	mov    %esp,%ebp
    2493:	83 ec 18             	sub    $0x18,%esp
    2496:	8b 45 08             	mov    0x8(%ebp),%eax
    2499:	8b 55 0c             	mov    0xc(%ebp),%edx
    249c:	85 c0                	test   %eax,%eax
    249e:	74 29                	je     24c9 <usb_pipe_initialize_default_control+0x39>
    24a0:	85 d2                	test   %edx,%edx
    24a2:	74 41                	je     24e5 <usb_pipe_initialize_default_control+0x55>
    24a4:	89 10                	mov    %edx,(%eax)
    24a6:	66 c7 40 04 00 00    	movw   $0x0,0x4(%eax)
    24ac:	c7 40 08 00 00 00 00 	movl   $0x0,0x8(%eax)
    24b3:	c7 40 10 08 00 00 00 	movl   $0x8,0x10(%eax)
    24ba:	c7 40 0c 02 00 00 00 	movl   $0x2,0xc(%eax)
    24c1:	c6 40 14 01          	movb   $0x1,0x14(%eax)
    24c5:	c9                   	leave  
    24c6:	31 c0                	xor    %eax,%eax
    24c8:	c3                   	ret    
    24c9:	c7 44 24 08 2b 01 00 	movl   $0x12b,0x8(%esp)
    24d0:	00 
    24d1:	c7 44 24 04 b3 a5 02 	movl   $0x2a5b3,0x4(%esp)
    24d8:	00 
    24d9:	c7 04 24 bf a5 02 00 	movl   $0x2a5bf,(%esp)
    24e0:	e8 bb 35 02 00       	call   25aa0 <assert_abort>
    24e5:	c7 44 24 08 2c 01 00 	movl   $0x12c,0x8(%esp)
    24ec:	00 
    24ed:	c7 44 24 04 b3 a5 02 	movl   $0x2a5b3,0x4(%esp)
    24f4:	00 
    24f5:	c7 04 24 65 ae 02 00 	movl   $0x2ae65,(%esp)
    24fc:	e8 9f 35 02 00       	call   25aa0 <assert_abort>
    2501:	eb 0d                	jmp    2510 <usb_pipe_register>
    2503:	90                   	nop
    2504:	90                   	nop
    2505:	90                   	nop
    2506:	90                   	nop
    2507:	90                   	nop
    2508:	90                   	nop
    2509:	90                   	nop
    250a:	90                   	nop
    250b:	90                   	nop
    250c:	90                   	nop
    250d:	90                   	nop
    250e:	90                   	nop
    250f:	90                   	nop

00002510 <usb_pipe_register>:
    2510:	55                   	push   %ebp
    2511:	89 e5                	mov    %esp,%ebp
    2513:	83 ec 28             	sub    $0x28,%esp
    2516:	8b 45 08             	mov    0x8(%ebp),%eax
    2519:	85 c0                	test   %eax,%eax
    251b:	74 3e                	je     255b <usb_pipe_register+0x4b>
    251d:	8b 10                	mov    (%eax),%edx
    251f:	85 d2                	test   %edx,%edx
    2521:	74 54                	je     2577 <usb_pipe_register+0x67>
    2523:	8b 4d 0c             	mov    0xc(%ebp),%ecx
    2526:	89 4c 24 18          	mov    %ecx,0x18(%esp)
    252a:	8b 48 10             	mov    0x10(%eax),%ecx
    252d:	89 4c 24 14          	mov    %ecx,0x14(%esp)
    2531:	8b 48 0c             	mov    0xc(%eax),%ecx
    2534:	89 4c 24 10          	mov    %ecx,0x10(%esp)
    2538:	8b 48 08             	mov    0x8(%eax),%ecx
    253b:	89 4c 24 0c          	mov    %ecx,0xc(%esp)
    253f:	0f bf 40 04          	movswl 0x4(%eax),%eax
    2543:	89 44 24 08          	mov    %eax,0x8(%esp)
    2547:	0f bf 42 04          	movswl 0x4(%edx),%eax
    254b:	89 44 24 04          	mov    %eax,0x4(%esp)
    254f:	8b 02                	mov    (%edx),%eax
    2551:	89 04 24             	mov    %eax,(%esp)
    2554:	e8 17 33 00 00       	call   5870 <usb_hc_register_endpoint>
    2559:	c9                   	leave  
    255a:	c3                   	ret    
    255b:	c7 44 24 08 3e 01 00 	movl   $0x13e,0x8(%esp)
    2562:	00 
    2563:	c7 44 24 04 b3 a5 02 	movl   $0x2a5b3,0x4(%esp)
    256a:	00 
    256b:	c7 04 24 bf a5 02 00 	movl   $0x2a5bf,(%esp)
    2572:	e8 29 35 02 00       	call   25aa0 <assert_abort>
    2577:	c7 44 24 08 3f 01 00 	movl   $0x13f,0x8(%esp)
    257e:	00 
    257f:	c7 44 24 04 b3 a5 02 	movl   $0x2a5b3,0x4(%esp)
    2586:	00 
    2587:	c7 04 24 c4 a5 02 00 	movl   $0x2a5c4,(%esp)
    258e:	e8 0d 35 02 00       	call   25aa0 <assert_abort>
    2593:	8d b6 00 00 00 00    	lea    0x0(%esi),%esi
    2599:	8d bc 27 00 00 00 00 	lea    0x0(%edi,%eiz,1),%edi

000025a0 <usb_pipe_unregister>:
    25a0:	55                   	push   %ebp
    25a1:	89 e5                	mov    %esp,%ebp
    25a3:	83 ec 18             	sub    $0x18,%esp
    25a6:	8b 45 08             	mov    0x8(%ebp),%eax
    25a9:	85 c0                	test   %eax,%eax
    25ab:	74 29                	je     25d6 <usb_pipe_unregister+0x36>
    25ad:	8b 10                	mov    (%eax),%edx
    25af:	85 d2                	test   %edx,%edx
    25b1:	74 3f                	je     25f2 <usb_pipe_unregister+0x52>
    25b3:	8b 48 0c             	mov    0xc(%eax),%ecx
    25b6:	89 4c 24 0c          	mov    %ecx,0xc(%esp)
    25ba:	0f bf 40 04          	movswl 0x4(%eax),%eax
    25be:	89 44 24 08          	mov    %eax,0x8(%esp)
    25c2:	0f bf 42 04          	movswl 0x4(%edx),%eax
    25c6:	89 44 24 04          	mov    %eax,0x4(%esp)
    25ca:	8b 02                	mov    (%edx),%eax
    25cc:	89 04 24             	mov    %eax,(%esp)
    25cf:	e8 5c 34 00 00       	call   5a30 <usb_hc_unregister_endpoint>
    25d4:	c9                   	leave  
    25d5:	c3                   	ret    
    25d6:	c7 44 24 08 4d 01 00 	movl   $0x14d,0x8(%esp)
    25dd:	00 
    25de:	c7 44 24 04 b3 a5 02 	movl   $0x2a5b3,0x4(%esp)
    25e5:	00 
    25e6:	c7 04 24 bf a5 02 00 	movl   $0x2a5bf,(%esp)
    25ed:	e8 ae 34 02 00       	call   25aa0 <assert_abort>
    25f2:	c7 44 24 08 4e 01 00 	movl   $0x14e,0x8(%esp)
    25f9:	00 
    25fa:	c7 44 24 04 b3 a5 02 	movl   $0x2a5b3,0x4(%esp)
    2601:	00 
    2602:	c7 04 24 c4 a5 02 00 	movl   $0x2a5c4,(%esp)
    2609:	e8 92 34 02 00       	call   25aa0 <assert_abort>
    260e:	66 90                	xchg   %ax,%ax

00002610 <usb_pipe_initialize_from_configuration>:
    2610:	55                   	push   %ebp
    2611:	89 e5                	mov    %esp,%ebp
    2613:	57                   	push   %edi
    2614:	56                   	push   %esi
    2615:	53                   	push   %ebx
    2616:	83 ec 6c             	sub    $0x6c,%esp
    2619:	8b 4d 18             	mov    0x18(%ebp),%ecx
    261c:	8b 5d 14             	mov    0x14(%ebp),%ebx
    261f:	85 c9                	test   %ecx,%ecx
    2621:	0f 84 7d 02 00 00    	je     28a4 <usb_pipe_initialize_from_configuration+0x294>
    2627:	8b 55 10             	mov    0x10(%ebp),%edx
    262a:	85 d2                	test   %edx,%edx
    262c:	0f 84 68 02 00 00    	je     289a <usb_pipe_initialize_from_configuration+0x28a>
    2632:	83 fb 08             	cmp    $0x8,%ebx
    2635:	0f 86 4d 02 00 00    	jbe    2888 <usb_pipe_initialize_from_configuration+0x278>
    263b:	8b 45 0c             	mov    0xc(%ebp),%eax
    263e:	85 c0                	test   %eax,%eax
    2640:	74 27                	je     2669 <usb_pipe_initialize_from_configuration+0x59>
    2642:	8b 75 0c             	mov    0xc(%ebp),%esi
    2645:	8b 45 08             	mov    0x8(%ebp),%eax
    2648:	8d 14 76             	lea    (%esi,%esi,2),%edx
    264b:	c1 e2 04             	shl    $0x4,%edx
    264e:	01 c2                	add    %eax,%edx
    2650:	c6 40 2c 00          	movb   $0x0,0x2c(%eax)
    2654:	c7 40 24 00 00 00 00 	movl   $0x0,0x24(%eax)
    265b:	c7 40 28 00 00 00 00 	movl   $0x0,0x28(%eax)
    2662:	83 c0 30             	add    $0x30,%eax
    2665:	39 d0                	cmp    %edx,%eax
    2667:	75 e7                	jne    2650 <usb_pipe_initialize_from_configuration+0x40>
    2669:	8b 55 10             	mov    0x10(%ebp),%edx
    266c:	8d 75 dc             	lea    -0x24(%ebp),%esi
    266f:	8d 7d d8             	lea    -0x28(%ebp),%edi
    2672:	89 54 24 08          	mov    %edx,0x8(%esp)
    2676:	89 74 24 04          	mov    %esi,0x4(%esp)
    267a:	89 3c 24             	mov    %edi,(%esp)
    267d:	c7 45 d8 40 a6 02 00 	movl   $0x2a640,-0x28(%ebp)
    2684:	89 55 dc             	mov    %edx,-0x24(%ebp)
    2687:	89 5d e0             	mov    %ebx,-0x20(%ebp)
    268a:	89 4d e4             	mov    %ecx,-0x1c(%ebp)
    268d:	e8 4e 16 00 00       	call   3ce0 <usb_dp_get_nested_descriptor>
    2692:	85 c0                	test   %eax,%eax
    2694:	0f 84 f8 01 00 00    	je     2892 <usb_pipe_initialize_from_configuration+0x282>
    269a:	89 c6                	mov    %eax,%esi
    269c:	8d 74 26 00          	lea    0x0(%esi,%eiz,1),%esi
    26a0:	8d 7d dc             	lea    -0x24(%ebp),%edi
    26a3:	8d 45 d8             	lea    -0x28(%ebp),%eax
    26a6:	89 7c 24 04          	mov    %edi,0x4(%esp)
    26aa:	89 74 24 08          	mov    %esi,0x8(%esp)
    26ae:	89 04 24             	mov    %eax,(%esp)
    26b1:	e8 2a 16 00 00       	call   3ce0 <usb_dp_get_nested_descriptor>
    26b6:	89 c7                	mov    %eax,%edi
    26b8:	85 c0                	test   %eax,%eax
    26ba:	74 30                	je     26ec <usb_pipe_initialize_from_configuration+0xdc>
    26bc:	89 75 d0             	mov    %esi,-0x30(%ebp)
    26bf:	90                   	nop
    26c0:	80 7f 01 05          	cmpb   $0x5,0x1(%edi)
    26c4:	74 5a                	je     2720 <usb_pipe_initialize_from_configuration+0x110>
    26c6:	8b 45 d0             	mov    -0x30(%ebp),%eax
    26c9:	8d 55 dc             	lea    -0x24(%ebp),%edx
    26cc:	8d 75 d8             	lea    -0x28(%ebp),%esi
    26cf:	89 7c 24 0c          	mov    %edi,0xc(%esp)
    26d3:	89 44 24 08          	mov    %eax,0x8(%esp)
    26d7:	89 54 24 04          	mov    %edx,0x4(%esp)
    26db:	89 34 24             	mov    %esi,(%esp)
    26de:	e8 1d 18 00 00       	call   3f00 <usb_dp_get_sibling_descriptor>
    26e3:	89 c7                	mov    %eax,%edi
    26e5:	85 c0                	test   %eax,%eax
    26e7:	75 d7                	jne    26c0 <usb_pipe_initialize_from_configuration+0xb0>
    26e9:	8b 75 d0             	mov    -0x30(%ebp),%esi
    26ec:	89 74 24 0c          	mov    %esi,0xc(%esp)
    26f0:	8b 55 10             	mov    0x10(%ebp),%edx
    26f3:	8d 75 dc             	lea    -0x24(%ebp),%esi
    26f6:	8d 7d d8             	lea    -0x28(%ebp),%edi
    26f9:	89 74 24 04          	mov    %esi,0x4(%esp)
    26fd:	89 54 24 08          	mov    %edx,0x8(%esp)
    2701:	89 3c 24             	mov    %edi,(%esp)
    2704:	e8 f7 17 00 00       	call   3f00 <usb_dp_get_sibling_descriptor>
    2709:	89 c6                	mov    %eax,%esi
    270b:	85 c0                	test   %eax,%eax
    270d:	75 91                	jne    26a0 <usb_pipe_initialize_from_configuration+0x90>
    270f:	31 c0                	xor    %eax,%eax
    2711:	83 c4 6c             	add    $0x6c,%esp
    2714:	5b                   	pop    %ebx
    2715:	5e                   	pop    %esi
    2716:	5f                   	pop    %edi
    2717:	5d                   	pop    %ebp
    2718:	c3                   	ret    
    2719:	8d b4 26 00 00 00 00 	lea    0x0(%esi,%eiz,1),%esi
    2720:	8b 45 e4             	mov    -0x1c(%ebp),%eax
    2723:	8b 75 0c             	mov    0xc(%ebp),%esi
    2726:	89 45 bc             	mov    %eax,-0x44(%ebp)
    2729:	8b 5d 08             	mov    0x8(%ebp),%ebx
    272c:	0f be 47 02          	movsbl 0x2(%edi),%eax
    2730:	88 c2                	mov    %al,%dl
    2732:	89 c1                	mov    %eax,%ecx
    2734:	83 e2 0f             	and    $0xf,%edx
    2737:	31 c0                	xor    %eax,%eax
    2739:	88 55 bb             	mov    %dl,-0x45(%ebp)
    273c:	8a 57 03             	mov    0x3(%edi),%dl
    273f:	83 e2 03             	and    $0x3,%edx
    2742:	83 f1 ff             	xor    $0xffffffff,%ecx
    2745:	c1 e9 1f             	shr    $0x1f,%ecx
    2748:	89 55 c4             	mov    %edx,-0x3c(%ebp)
    274b:	8b 55 d0             	mov    -0x30(%ebp),%edx
    274e:	8a 42 05             	mov    0x5(%edx),%al
    2751:	89 45 c0             	mov    %eax,-0x40(%ebp)
    2754:	31 c0                	xor    %eax,%eax
    2756:	8a 42 06             	mov    0x6(%edx),%al
    2759:	89 45 b4             	mov    %eax,-0x4c(%ebp)
    275c:	31 c0                	xor    %eax,%eax
    275e:	8a 42 07             	mov    0x7(%edx),%al
    2761:	89 45 ac             	mov    %eax,-0x54(%ebp)
    2764:	31 c0                	xor    %eax,%eax
    2766:	8a 42 03             	mov    0x3(%edx),%al
    2769:	89 45 cc             	mov    %eax,-0x34(%ebp)
    276c:	31 c0                	xor    %eax,%eax
    276e:	8a 42 02             	mov    0x2(%edx),%al
    2771:	85 f6                	test   %esi,%esi
    2773:	89 45 c8             	mov    %eax,-0x38(%ebp)
    2776:	0f 84 4a ff ff ff    	je     26c6 <usb_pipe_initialize_from_configuration+0xb6>
    277c:	89 7d b0             	mov    %edi,-0x50(%ebp)
    277f:	eb 11                	jmp    2792 <usb_pipe_initialize_from_configuration+0x182>
    2781:	8d b4 26 00 00 00 00 	lea    0x0(%esi,%eiz,1),%esi
    2788:	83 c3 30             	add    $0x30,%ebx
    278b:	4e                   	dec    %esi
    278c:	0f 84 ee 00 00 00    	je     2880 <usb_pipe_initialize_from_configuration+0x270>
    2792:	8b 43 1c             	mov    0x1c(%ebx),%eax
    2795:	85 c0                	test   %eax,%eax
    2797:	0f 88 d3 00 00 00    	js     2870 <usb_pipe_initialize_from_configuration+0x260>
    279d:	39 45 c8             	cmp    %eax,-0x38(%ebp)
    27a0:	0f 94 c2             	sete   %dl
    27a3:	81 e2 ff 00 00 00    	and    $0xff,%edx
    27a9:	8b 43 20             	mov    0x20(%ebx),%eax
    27ac:	85 c0                	test   %eax,%eax
    27ae:	0f 88 ac 00 00 00    	js     2860 <usb_pipe_initialize_from_configuration+0x250>
    27b4:	39 45 cc             	cmp    %eax,-0x34(%ebp)
    27b7:	0f 94 c0             	sete   %al
    27ba:	25 ff 00 00 00       	and    $0xff,%eax
    27bf:	89 45 d4             	mov    %eax,-0x2c(%ebp)
    27c2:	8b 43 18             	mov    0x18(%ebx),%eax
    27c5:	3b 48 04             	cmp    0x4(%eax),%ecx
    27c8:	75 be                	jne    2788 <usb_pipe_initialize_from_configuration+0x178>
    27ca:	8b 7d c4             	mov    -0x3c(%ebp),%edi
    27cd:	3b 38                	cmp    (%eax),%edi
    27cf:	75 b7                	jne    2788 <usb_pipe_initialize_from_configuration+0x178>
    27d1:	8b 78 08             	mov    0x8(%eax),%edi
    27d4:	85 ff                	test   %edi,%edi
    27d6:	78 05                	js     27dd <usb_pipe_initialize_from_configuration+0x1cd>
    27d8:	39 7d c0             	cmp    %edi,-0x40(%ebp)
    27db:	75 ab                	jne    2788 <usb_pipe_initialize_from_configuration+0x178>
    27dd:	8b 78 0c             	mov    0xc(%eax),%edi
    27e0:	85 ff                	test   %edi,%edi
    27e2:	78 05                	js     27e9 <usb_pipe_initialize_from_configuration+0x1d9>
    27e4:	39 7d b4             	cmp    %edi,-0x4c(%ebp)
    27e7:	75 9f                	jne    2788 <usb_pipe_initialize_from_configuration+0x178>
    27e9:	8b 40 10             	mov    0x10(%eax),%eax
    27ec:	85 c0                	test   %eax,%eax
    27ee:	78 05                	js     27f5 <usb_pipe_initialize_from_configuration+0x1e5>
    27f0:	39 45 ac             	cmp    %eax,-0x54(%ebp)
    27f3:	75 93                	jne    2788 <usb_pipe_initialize_from_configuration+0x178>
    27f5:	85 55 d4             	test   %edx,-0x2c(%ebp)
    27f8:	74 8e                	je     2788 <usb_pipe_initialize_from_configuration+0x178>
    27fa:	8b 7d b0             	mov    -0x50(%ebp),%edi
    27fd:	85 db                	test   %ebx,%ebx
    27ff:	0f 84 c1 fe ff ff    	je     26c6 <usb_pipe_initialize_from_configuration+0xb6>
    2805:	80 7b 2c 00          	cmpb   $0x0,0x2c(%ebx)
    2809:	0f 85 b7 fe ff ff    	jne    26c6 <usb_pipe_initialize_from_configuration+0xb6>
    280f:	89 4c 24 14          	mov    %ecx,0x14(%esp)
    2813:	8b 55 bc             	mov    -0x44(%ebp),%edx
    2816:	66 8b 47 04          	mov    0x4(%edi),%ax
    281a:	89 54 24 04          	mov    %edx,0x4(%esp)
    281e:	25 ff ff 00 00       	and    $0xffff,%eax
    2823:	89 1c 24             	mov    %ebx,(%esp)
    2826:	89 44 24 10          	mov    %eax,0x10(%esp)
    282a:	8b 45 c4             	mov    -0x3c(%ebp),%eax
    282d:	89 44 24 0c          	mov    %eax,0xc(%esp)
    2831:	31 c0                	xor    %eax,%eax
    2833:	8a 45 bb             	mov    -0x45(%ebp),%al
    2836:	89 44 24 08          	mov    %eax,0x8(%esp)
    283a:	e8 e1 fb ff ff       	call   2420 <usb_pipe_initialize>
    283f:	85 c0                	test   %eax,%eax
    2841:	0f 85 7f fe ff ff    	jne    26c6 <usb_pipe_initialize_from_configuration+0xb6>
    2847:	8b 45 d0             	mov    -0x30(%ebp),%eax
    284a:	c6 43 2c 01          	movb   $0x1,0x2c(%ebx)
    284e:	89 7b 24             	mov    %edi,0x24(%ebx)
    2851:	89 43 28             	mov    %eax,0x28(%ebx)
    2854:	e9 6d fe ff ff       	jmp    26c6 <usb_pipe_initialize_from_configuration+0xb6>
    2859:	8d b4 26 00 00 00 00 	lea    0x0(%esi,%eiz,1),%esi
    2860:	c7 45 d4 01 00 00 00 	movl   $0x1,-0x2c(%ebp)
    2867:	e9 56 ff ff ff       	jmp    27c2 <usb_pipe_initialize_from_configuration+0x1b2>
    286c:	8d 74 26 00          	lea    0x0(%esi,%eiz,1),%esi
    2870:	ba 01 00 00 00       	mov    $0x1,%edx
    2875:	e9 2f ff ff ff       	jmp    27a9 <usb_pipe_initialize_from_configuration+0x199>
    287a:	8d b6 00 00 00 00    	lea    0x0(%esi),%esi
    2880:	8b 7d b0             	mov    -0x50(%ebp),%edi
    2883:	e9 3e fe ff ff       	jmp    26c6 <usb_pipe_initialize_from_configuration+0xb6>
    2888:	b8 f9 fe ff ff       	mov    $0xfffffef9,%eax
    288d:	e9 7f fe ff ff       	jmp    2711 <usb_pipe_initialize_from_configuration+0x101>
    2892:	83 c8 ff             	or     $0xffffffff,%eax
    2895:	e9 77 fe ff ff       	jmp    2711 <usb_pipe_initialize_from_configuration+0x101>
    289a:	b8 f6 ff ff ff       	mov    $0xfffffff6,%eax
    289f:	e9 6d fe ff ff       	jmp    2711 <usb_pipe_initialize_from_configuration+0x101>
    28a4:	c7 44 24 08 1c 01 00 	movl   $0x11c,0x8(%esp)
    28ab:	00 
    28ac:	c7 44 24 04 1c a6 02 	movl   $0x2a61c,0x4(%esp)
    28b3:	00 
    28b4:	c7 04 24 65 ae 02 00 	movl   $0x2ae65,(%esp)
    28bb:	e8 e0 31 02 00       	call   25aa0 <assert_abort>

000028c0 <usb_pipe_probe_default_control>:
    28c0:	55                   	push   %ebp
    28c1:	89 e5                	mov    %esp,%ebp
    28c3:	57                   	push   %edi
    28c4:	56                   	push   %esi
    28c5:	53                   	push   %ebx
    28c6:	83 ec 4c             	sub    $0x4c,%esp
    28c9:	8b 5d 08             	mov    0x8(%ebp),%ebx
    28cc:	85 db                	test   %ebx,%ebx
    28ce:	0f 84 5b 01 00 00    	je     2a2f <usb_pipe_probe_default_control+0x16f>
    28d4:	83 7b 0c 02          	cmpl   $0x2,0xc(%ebx)
    28d8:	0f 85 42 01 00 00    	jne    2a20 <usb_pipe_probe_default_control+0x160>
    28de:	8b 4b 08             	mov    0x8(%ebx),%ecx
    28e1:	85 c9                	test   %ecx,%ecx
    28e3:	0f 85 37 01 00 00    	jne    2a20 <usb_pipe_probe_default_control+0x160>
    28e9:	66 83 7b 04 00       	cmpw   $0x0,0x4(%ebx)
    28ee:	0f 85 2c 01 00 00    	jne    2a20 <usb_pipe_probe_default_control+0x160>
    28f4:	89 1c 24             	mov    %ebx,(%esp)
    28f7:	8d 7d dc             	lea    -0x24(%ebp),%edi
    28fa:	8d 75 e0             	lea    -0x20(%ebp),%esi
    28fd:	e8 6e f5 ff ff       	call   1e70 <usb_pipe_start_long_transfer>
    2902:	89 7c 24 20          	mov    %edi,0x20(%esp)
    2906:	c7 44 24 1c 08 00 00 	movl   $0x8,0x1c(%esp)
    290d:	00 
    290e:	89 74 24 18          	mov    %esi,0x18(%esp)
    2912:	c7 44 24 14 00 00 00 	movl   $0x0,0x14(%esp)
    2919:	00 
    291a:	c7 44 24 10 00 00 00 	movl   $0x0,0x10(%esp)
    2921:	00 
    2922:	c7 44 24 0c 01 00 00 	movl   $0x1,0xc(%esp)
    2929:	00 
    292a:	c7 44 24 08 00 00 00 	movl   $0x0,0x8(%esp)
    2931:	00 
    2932:	c7 44 24 04 00 00 00 	movl   $0x0,0x4(%esp)
    2939:	00 
    293a:	89 1c 24             	mov    %ebx,(%esp)
    293d:	e8 ce 03 00 00       	call   2d10 <usb_request_get_descriptor>
    2942:	85 c0                	test   %eax,%eax
    2944:	75 0a                	jne    2950 <usb_pipe_probe_default_control+0x90>
    2946:	83 7d dc 08          	cmpl   $0x8,-0x24(%ebp)
    294a:	0f 84 b0 00 00 00    	je     2a00 <usb_pipe_probe_default_control+0x140>
    2950:	89 7c 24 20          	mov    %edi,0x20(%esp)
    2954:	c7 44 24 1c 08 00 00 	movl   $0x8,0x1c(%esp)
    295b:	00 
    295c:	89 74 24 18          	mov    %esi,0x18(%esp)
    2960:	c7 44 24 14 00 00 00 	movl   $0x0,0x14(%esp)
    2967:	00 
    2968:	c7 44 24 10 00 00 00 	movl   $0x0,0x10(%esp)
    296f:	00 
    2970:	c7 44 24 0c 01 00 00 	movl   $0x1,0xc(%esp)
    2977:	00 
    2978:	c7 44 24 08 00 00 00 	movl   $0x0,0x8(%esp)
    297f:	00 
    2980:	c7 44 24 04 00 00 00 	movl   $0x0,0x4(%esp)
    2987:	00 
    2988:	89 1c 24             	mov    %ebx,(%esp)
    298b:	e8 80 03 00 00       	call   2d10 <usb_request_get_descriptor>
    2990:	85 c0                	test   %eax,%eax
    2992:	75 06                	jne    299a <usb_pipe_probe_default_control+0xda>
    2994:	83 7d dc 08          	cmpl   $0x8,-0x24(%ebp)
    2998:	74 66                	je     2a00 <usb_pipe_probe_default_control+0x140>
    299a:	89 74 24 18          	mov    %esi,0x18(%esp)
    299e:	89 7c 24 20          	mov    %edi,0x20(%esp)
    29a2:	c7 44 24 1c 08 00 00 	movl   $0x8,0x1c(%esp)
    29a9:	00 
    29aa:	c7 44 24 14 00 00 00 	movl   $0x0,0x14(%esp)
    29b1:	00 
    29b2:	c7 44 24 10 00 00 00 	movl   $0x0,0x10(%esp)
    29b9:	00 
    29ba:	c7 44 24 0c 01 00 00 	movl   $0x1,0xc(%esp)
    29c1:	00 
    29c2:	c7 44 24 08 00 00 00 	movl   $0x0,0x8(%esp)
    29c9:	00 
    29ca:	c7 44 24 04 00 00 00 	movl   $0x0,0x4(%esp)
    29d1:	00 
    29d2:	89 1c 24             	mov    %ebx,(%esp)
    29d5:	e8 36 03 00 00       	call   2d10 <usb_request_get_descriptor>
    29da:	89 c6                	mov    %eax,%esi
    29dc:	85 c0                	test   %eax,%eax
    29de:	75 0b                	jne    29eb <usb_pipe_probe_default_control+0x12b>
    29e0:	83 7d dc 08          	cmpl   $0x8,-0x24(%ebp)
    29e4:	74 1a                	je     2a00 <usb_pipe_probe_default_control+0x140>
    29e6:	be fd ff ff ff       	mov    $0xfffffffd,%esi
    29eb:	89 1c 24             	mov    %ebx,(%esp)
    29ee:	e8 fd f4 ff ff       	call   1ef0 <usb_pipe_end_long_transfer>
    29f3:	83 c4 4c             	add    $0x4c,%esp
    29f6:	89 f0                	mov    %esi,%eax
    29f8:	5b                   	pop    %ebx
    29f9:	5e                   	pop    %esi
    29fa:	5f                   	pop    %edi
    29fb:	5d                   	pop    %ebp
    29fc:	c3                   	ret    
    29fd:	8d 76 00             	lea    0x0(%esi),%esi
    2a00:	89 1c 24             	mov    %ebx,(%esp)
    2a03:	31 f6                	xor    %esi,%esi
    2a05:	e8 e6 f4 ff ff       	call   1ef0 <usb_pipe_end_long_transfer>
    2a0a:	31 c0                	xor    %eax,%eax
    2a0c:	8a 45 e7             	mov    -0x19(%ebp),%al
    2a0f:	89 43 10             	mov    %eax,0x10(%ebx)
    2a12:	83 c4 4c             	add    $0x4c,%esp
    2a15:	89 f0                	mov    %esi,%eax
    2a17:	5b                   	pop    %ebx
    2a18:	5e                   	pop    %esi
    2a19:	5f                   	pop    %edi
    2a1a:	5d                   	pop    %ebp
    2a1b:	c3                   	ret    
    2a1c:	8d 74 26 00          	lea    0x0(%esi,%eiz,1),%esi
    2a20:	83 c4 4c             	add    $0x4c,%esp
    2a23:	be f2 ff ff ff       	mov    $0xfffffff2,%esi
    2a28:	89 f0                	mov    %esi,%eax
    2a2a:	5b                   	pop    %ebx
    2a2b:	5e                   	pop    %esi
    2a2c:	5f                   	pop    %edi
    2a2d:	5d                   	pop    %ebp
    2a2e:	c3                   	ret    
    2a2f:	c7 44 24 08 55 01 00 	movl   $0x155,0x8(%esp)
    2a36:	00 
    2a37:	c7 44 24 04 1c a6 02 	movl   $0x2a61c,0x4(%esp)
    2a3e:	00 
    2a3f:	c7 04 24 bf a5 02 00 	movl   $0x2a5bf,(%esp)
    2a46:	e8 55 30 02 00       	call   25aa0 <assert_abort>
    2a4b:	66 90                	xchg   %ax,%ax
    2a4d:	66 90                	xchg   %ax,%ax
    2a4f:	90                   	nop

00002a50 <usb_control_request_set>:
    2a50:	55                   	push   %ebp
    2a51:	89 e5                	mov    %esp,%ebp
    2a53:	57                   	push   %edi
    2a54:	56                   	push   %esi
    2a55:	53                   	push   %ebx
    2a56:	83 ec 3c             	sub    $0x3c,%esp
    2a59:	8b 7d 08             	mov    0x8(%ebp),%edi
    2a5c:	8b 45 24             	mov    0x24(%ebp),%eax
    2a5f:	8a 4d 14             	mov    0x14(%ebp),%cl
    2a62:	8b 75 18             	mov    0x18(%ebp),%esi
    2a65:	8b 5d 1c             	mov    0x1c(%ebp),%ebx
    2a68:	85 ff                	test   %edi,%edi
    2a6a:	74 5b                	je     2ac7 <usb_control_request_set+0x77>
    2a6c:	3d ff ff 00 00       	cmp    $0xffff,%eax
    2a71:	77 5d                	ja     2ad0 <usb_control_request_set+0x80>
    2a73:	85 c0                	test   %eax,%eax
    2a75:	75 49                	jne    2ac0 <usb_control_request_set+0x70>
    2a77:	8a 55 0c             	mov    0xc(%ebp),%dl
    2a7a:	66 89 45 e6          	mov    %ax,-0x1a(%ebp)
    2a7e:	c1 e2 05             	shl    $0x5,%edx
    2a81:	89 44 24 10          	mov    %eax,0x10(%esp)
    2a85:	8b 45 20             	mov    0x20(%ebp),%eax
    2a88:	0b 55 10             	or     0x10(%ebp),%edx
    2a8b:	89 44 24 0c          	mov    %eax,0xc(%esp)
    2a8f:	8d 45 e0             	lea    -0x20(%ebp),%eax
    2a92:	c7 44 24 08 08 00 00 	movl   $0x8,0x8(%esp)
    2a99:	00 
    2a9a:	89 44 24 04          	mov    %eax,0x4(%esp)
    2a9e:	89 3c 24             	mov    %edi,(%esp)
    2aa1:	88 55 e0             	mov    %dl,-0x20(%ebp)
    2aa4:	88 4d e1             	mov    %cl,-0x1f(%ebp)
    2aa7:	66 89 75 e2          	mov    %si,-0x1e(%ebp)
    2aab:	66 89 5d e4          	mov    %bx,-0x1c(%ebp)
    2aaf:	e8 1c f6 ff ff       	call   20d0 <usb_pipe_control_write>
    2ab4:	83 c4 3c             	add    $0x3c,%esp
    2ab7:	5b                   	pop    %ebx
    2ab8:	5e                   	pop    %esi
    2ab9:	5f                   	pop    %edi
    2aba:	5d                   	pop    %ebp
    2abb:	c3                   	ret    
    2abc:	8d 74 26 00          	lea    0x0(%esi,%eiz,1),%esi
    2ac0:	8b 55 20             	mov    0x20(%ebp),%edx
    2ac3:	85 d2                	test   %edx,%edx
    2ac5:	75 b0                	jne    2a77 <usb_control_request_set+0x27>
    2ac7:	b8 f6 ff ff ff       	mov    $0xfffffff6,%eax
    2acc:	eb e6                	jmp    2ab4 <usb_control_request_set+0x64>
    2ace:	66 90                	xchg   %ax,%ax
    2ad0:	b8 f9 fe ff ff       	mov    $0xfffffef9,%eax
    2ad5:	eb dd                	jmp    2ab4 <usb_control_request_set+0x64>
    2ad7:	89 f6                	mov    %esi,%esi
    2ad9:	8d bc 27 00 00 00 00 	lea    0x0(%edi,%eiz,1),%edi

00002ae0 <usb_control_request_get>:
    2ae0:	55                   	push   %ebp
    2ae1:	89 e5                	mov    %esp,%ebp
    2ae3:	57                   	push   %edi
    2ae4:	56                   	push   %esi
    2ae5:	53                   	push   %ebx
    2ae6:	83 ec 3c             	sub    $0x3c,%esp
    2ae9:	8b 7d 08             	mov    0x8(%ebp),%edi
    2aec:	8b 55 24             	mov    0x24(%ebp),%edx
    2aef:	8a 4d 14             	mov    0x14(%ebp),%cl
    2af2:	8b 75 18             	mov    0x18(%ebp),%esi
    2af5:	8b 5d 1c             	mov    0x1c(%ebp),%ebx
    2af8:	85 ff                	test   %edi,%edi
    2afa:	74 63                	je     2b5f <usb_control_request_get+0x7f>
    2afc:	81 fa ff ff 00 00    	cmp    $0xffff,%edx
    2b02:	77 64                	ja     2b68 <usb_control_request_get+0x88>
    2b04:	85 d2                	test   %edx,%edx
    2b06:	75 50                	jne    2b58 <usb_control_request_get+0x78>
    2b08:	8a 45 0c             	mov    0xc(%ebp),%al
    2b0b:	89 54 24 10          	mov    %edx,0x10(%esp)
    2b0f:	c1 e0 05             	shl    $0x5,%eax
    2b12:	c7 44 24 08 08 00 00 	movl   $0x8,0x8(%esp)
    2b19:	00 
    2b1a:	0b 45 10             	or     0x10(%ebp),%eax
    2b1d:	89 3c 24             	mov    %edi,(%esp)
    2b20:	83 c8 80             	or     $0xffffff80,%eax
    2b23:	88 4d e1             	mov    %cl,-0x1f(%ebp)
    2b26:	88 45 e0             	mov    %al,-0x20(%ebp)
    2b29:	8b 45 28             	mov    0x28(%ebp),%eax
    2b2c:	89 44 24 14          	mov    %eax,0x14(%esp)
    2b30:	8b 45 20             	mov    0x20(%ebp),%eax
    2b33:	89 44 24 0c          	mov    %eax,0xc(%esp)
    2b37:	8d 45 e0             	lea    -0x20(%ebp),%eax
    2b3a:	89 44 24 04          	mov    %eax,0x4(%esp)
    2b3e:	66 89 75 e2          	mov    %si,-0x1e(%ebp)
    2b42:	66 89 5d e4          	mov    %bx,-0x1c(%ebp)
    2b46:	66 89 55 e6          	mov    %dx,-0x1a(%ebp)
    2b4a:	e8 21 f4 ff ff       	call   1f70 <usb_pipe_control_read>
    2b4f:	83 c4 3c             	add    $0x3c,%esp
    2b52:	5b                   	pop    %ebx
    2b53:	5e                   	pop    %esi
    2b54:	5f                   	pop    %edi
    2b55:	5d                   	pop    %ebp
    2b56:	c3                   	ret    
    2b57:	90                   	nop
    2b58:	8b 45 20             	mov    0x20(%ebp),%eax
    2b5b:	85 c0                	test   %eax,%eax
    2b5d:	75 a9                	jne    2b08 <usb_control_request_get+0x28>
    2b5f:	b8 f6 ff ff ff       	mov    $0xfffffff6,%eax
    2b64:	eb e9                	jmp    2b4f <usb_control_request_get+0x6f>
    2b66:	66 90                	xchg   %ax,%ax
    2b68:	b8 f9 fe ff ff       	mov    $0xfffffef9,%eax
    2b6d:	eb e0                	jmp    2b4f <usb_control_request_get+0x6f>
    2b6f:	90                   	nop

00002b70 <usb_request_get_status>:
    2b70:	55                   	push   %ebp
    2b71:	89 e5                	mov    %esp,%ebp
    2b73:	53                   	push   %ebx
    2b74:	83 ec 34             	sub    $0x34,%esp
    2b77:	8b 45 10             	mov    0x10(%ebp),%eax
    2b7a:	8b 55 08             	mov    0x8(%ebp),%edx
    2b7d:	66 85 c0             	test   %ax,%ax
    2b80:	8b 5d 14             	mov    0x14(%ebp),%ebx
    2b83:	75 73                	jne    2bf8 <usb_request_get_status+0x88>
    2b85:	85 db                	test   %ebx,%ebx
    2b87:	74 7f                	je     2c08 <usb_request_get_status+0x98>
    2b89:	85 d2                	test   %edx,%edx
    2b8b:	74 7b                	je     2c08 <usb_request_get_status+0x98>
    2b8d:	66 89 45 f4          	mov    %ax,-0xc(%ebp)
    2b91:	8d 45 ec             	lea    -0x14(%ebp),%eax
    2b94:	89 44 24 14          	mov    %eax,0x14(%esp)
    2b98:	8d 45 e8             	lea    -0x18(%ebp),%eax
    2b9b:	8b 4d 0c             	mov    0xc(%ebp),%ecx
    2b9e:	89 44 24 0c          	mov    %eax,0xc(%esp)
    2ba2:	8d 45 f0             	lea    -0x10(%ebp),%eax
    2ba5:	80 c9 80             	or     $0x80,%cl
    2ba8:	c7 44 24 10 02 00 00 	movl   $0x2,0x10(%esp)
    2baf:	00 
    2bb0:	c7 44 24 08 08 00 00 	movl   $0x8,0x8(%esp)
    2bb7:	00 
    2bb8:	89 44 24 04          	mov    %eax,0x4(%esp)
    2bbc:	89 14 24             	mov    %edx,(%esp)
    2bbf:	88 4d f0             	mov    %cl,-0x10(%ebp)
    2bc2:	c6 45 f1 00          	movb   $0x0,-0xf(%ebp)
    2bc6:	66 c7 45 f2 00 00    	movw   $0x0,-0xe(%ebp)
    2bcc:	66 c7 45 f6 02 00    	movw   $0x2,-0xa(%ebp)
    2bd2:	e8 99 f3 ff ff       	call   1f70 <usb_pipe_control_read>
    2bd7:	85 c0                	test   %eax,%eax
    2bd9:	75 0c                	jne    2be7 <usb_request_get_status+0x77>
    2bdb:	83 7d ec 02          	cmpl   $0x2,-0x14(%ebp)
    2bdf:	75 0f                	jne    2bf0 <usb_request_get_status+0x80>
    2be1:	8b 55 e8             	mov    -0x18(%ebp),%edx
    2be4:	66 89 13             	mov    %dx,(%ebx)
    2be7:	83 c4 34             	add    $0x34,%esp
    2bea:	5b                   	pop    %ebx
    2beb:	5d                   	pop    %ebp
    2bec:	c3                   	ret    
    2bed:	8d 76 00             	lea    0x0(%esi),%esi
    2bf0:	b8 fd ff ff ff       	mov    $0xfffffffd,%eax
    2bf5:	eb f0                	jmp    2be7 <usb_request_get_status+0x77>
    2bf7:	90                   	nop
    2bf8:	8b 4d 0c             	mov    0xc(%ebp),%ecx
    2bfb:	85 c9                	test   %ecx,%ecx
    2bfd:	75 86                	jne    2b85 <usb_request_get_status+0x15>
    2bff:	b8 f2 ff ff ff       	mov    $0xfffffff2,%eax
    2c04:	eb e1                	jmp    2be7 <usb_request_get_status+0x77>
    2c06:	66 90                	xchg   %ax,%ax
    2c08:	b8 f6 ff ff ff       	mov    $0xfffffff6,%eax
    2c0d:	eb d8                	jmp    2be7 <usb_request_get_status+0x77>
    2c0f:	90                   	nop

00002c10 <usb_request_clear_feature>:
    2c10:	55                   	push   %ebp
    2c11:	89 e5                	mov    %esp,%ebp
    2c13:	53                   	push   %ebx
    2c14:	83 ec 34             	sub    $0x34,%esp
    2c17:	8b 45 0c             	mov    0xc(%ebp),%eax
    2c1a:	8b 55 08             	mov    0x8(%ebp),%edx
    2c1d:	8b 5d 14             	mov    0x14(%ebp),%ebx
    2c20:	8b 4d 18             	mov    0x18(%ebp),%ecx
    2c23:	85 c0                	test   %eax,%eax
    2c25:	75 05                	jne    2c2c <usb_request_clear_feature+0x1c>
    2c27:	66 85 c9             	test   %cx,%cx
    2c2a:	75 4c                	jne    2c78 <usb_request_clear_feature+0x68>
    2c2c:	85 d2                	test   %edx,%edx
    2c2e:	74 55                	je     2c85 <usb_request_clear_feature+0x75>
    2c30:	c1 e0 05             	shl    $0x5,%eax
    2c33:	c7 44 24 10 00 00 00 	movl   $0x0,0x10(%esp)
    2c3a:	00 
    2c3b:	0b 45 10             	or     0x10(%ebp),%eax
    2c3e:	c7 44 24 0c 00 00 00 	movl   $0x0,0xc(%esp)
    2c45:	00 
    2c46:	88 45 f0             	mov    %al,-0x10(%ebp)
    2c49:	8d 45 f0             	lea    -0x10(%ebp),%eax
    2c4c:	c7 44 24 08 08 00 00 	movl   $0x8,0x8(%esp)
    2c53:	00 
    2c54:	89 44 24 04          	mov    %eax,0x4(%esp)
    2c58:	89 14 24             	mov    %edx,(%esp)
    2c5b:	c6 45 f1 01          	movb   $0x1,-0xf(%ebp)
    2c5f:	66 89 5d f2          	mov    %bx,-0xe(%ebp)
    2c63:	66 89 4d f4          	mov    %cx,-0xc(%ebp)
    2c67:	66 c7 45 f6 00 00    	movw   $0x0,-0xa(%ebp)
    2c6d:	e8 5e f4 ff ff       	call   20d0 <usb_pipe_control_write>
    2c72:	83 c4 34             	add    $0x34,%esp
    2c75:	5b                   	pop    %ebx
    2c76:	5d                   	pop    %ebp
    2c77:	c3                   	ret    
    2c78:	83 7d 10 00          	cmpl   $0x0,0x10(%ebp)
    2c7c:	75 ae                	jne    2c2c <usb_request_clear_feature+0x1c>
    2c7e:	b8 f2 ff ff ff       	mov    $0xfffffff2,%eax
    2c83:	eb ed                	jmp    2c72 <usb_request_clear_feature+0x62>
    2c85:	b8 f6 ff ff ff       	mov    $0xfffffff6,%eax
    2c8a:	eb e6                	jmp    2c72 <usb_request_clear_feature+0x62>
    2c8c:	8d 74 26 00          	lea    0x0(%esi,%eiz,1),%esi

00002c90 <usb_request_set_feature>:
    2c90:	55                   	push   %ebp
    2c91:	89 e5                	mov    %esp,%ebp
    2c93:	53                   	push   %ebx
    2c94:	83 ec 34             	sub    $0x34,%esp
    2c97:	8b 45 0c             	mov    0xc(%ebp),%eax
    2c9a:	8b 55 08             	mov    0x8(%ebp),%edx
    2c9d:	8b 5d 14             	mov    0x14(%ebp),%ebx
    2ca0:	8b 4d 18             	mov    0x18(%ebp),%ecx
    2ca3:	85 c0                	test   %eax,%eax
    2ca5:	75 05                	jne    2cac <usb_request_set_feature+0x1c>
    2ca7:	66 85 c9             	test   %cx,%cx
    2caa:	75 4c                	jne    2cf8 <usb_request_set_feature+0x68>
    2cac:	85 d2                	test   %edx,%edx
    2cae:	74 55                	je     2d05 <usb_request_set_feature+0x75>
    2cb0:	c1 e0 05             	shl    $0x5,%eax
    2cb3:	c7 44 24 10 00 00 00 	movl   $0x0,0x10(%esp)
    2cba:	00 
    2cbb:	0b 45 10             	or     0x10(%ebp),%eax
    2cbe:	c7 44 24 0c 00 00 00 	movl   $0x0,0xc(%esp)
    2cc5:	00 
    2cc6:	88 45 f0             	mov    %al,-0x10(%ebp)
    2cc9:	8d 45 f0             	lea    -0x10(%ebp),%eax
    2ccc:	c7 44 24 08 08 00 00 	movl   $0x8,0x8(%esp)
    2cd3:	00 
    2cd4:	89 44 24 04          	mov    %eax,0x4(%esp)
    2cd8:	89 14 24             	mov    %edx,(%esp)
    2cdb:	c6 45 f1 03          	movb   $0x3,-0xf(%ebp)
    2cdf:	66 89 5d f2          	mov    %bx,-0xe(%ebp)
    2ce3:	66 89 4d f4          	mov    %cx,-0xc(%ebp)
    2ce7:	66 c7 45 f6 00 00    	movw   $0x0,-0xa(%ebp)
    2ced:	e8 de f3 ff ff       	call   20d0 <usb_pipe_control_write>
    2cf2:	83 c4 34             	add    $0x34,%esp
    2cf5:	5b                   	pop    %ebx
    2cf6:	5d                   	pop    %ebp
    2cf7:	c3                   	ret    
    2cf8:	83 7d 10 00          	cmpl   $0x0,0x10(%ebp)
    2cfc:	75 ae                	jne    2cac <usb_request_set_feature+0x1c>
    2cfe:	b8 f2 ff ff ff       	mov    $0xfffffff2,%eax
    2d03:	eb ed                	jmp    2cf2 <usb_request_set_feature+0x62>
    2d05:	b8 f6 ff ff ff       	mov    $0xfffffff6,%eax
    2d0a:	eb e6                	jmp    2cf2 <usb_request_set_feature+0x62>
    2d0c:	8d 74 26 00          	lea    0x0(%esi,%eiz,1),%esi

00002d10 <usb_request_get_descriptor>:
    2d10:	55                   	push   %ebp
    2d11:	89 e5                	mov    %esp,%ebp
    2d13:	57                   	push   %edi
    2d14:	56                   	push   %esi
    2d15:	53                   	push   %ebx
    2d16:	83 ec 3c             	sub    $0x3c,%esp
    2d19:	8b 5d 20             	mov    0x20(%ebp),%ebx
    2d1c:	8b 75 08             	mov    0x8(%ebp),%esi
    2d1f:	8b 7d 1c             	mov    0x1c(%ebp),%edi
    2d22:	8b 55 24             	mov    0x24(%ebp),%edx
    2d25:	8a 4d 14             	mov    0x14(%ebp),%cl
    2d28:	8a 45 18             	mov    0x18(%ebp),%al
    2d2b:	85 db                	test   %ebx,%ebx
    2d2d:	74 79                	je     2da8 <usb_request_get_descriptor+0x98>
    2d2f:	85 d2                	test   %edx,%edx
    2d31:	74 65                	je     2d98 <usb_request_get_descriptor+0x88>
    2d33:	c1 e1 08             	shl    $0x8,%ecx
    2d36:	25 ff 00 00 00       	and    $0xff,%eax
    2d3b:	09 c1                	or     %eax,%ecx
    2d3d:	85 f6                	test   %esi,%esi
    2d3f:	74 67                	je     2da8 <usb_request_get_descriptor+0x98>
    2d41:	81 fa ff ff 00 00    	cmp    $0xffff,%edx
    2d47:	77 57                	ja     2da0 <usb_request_get_descriptor+0x90>
    2d49:	8a 45 0c             	mov    0xc(%ebp),%al
    2d4c:	89 54 24 10          	mov    %edx,0x10(%esp)
    2d50:	c1 e0 05             	shl    $0x5,%eax
    2d53:	89 5c 24 0c          	mov    %ebx,0xc(%esp)
    2d57:	0b 45 10             	or     0x10(%ebp),%eax
    2d5a:	c7 44 24 08 08 00 00 	movl   $0x8,0x8(%esp)
    2d61:	00 
    2d62:	83 c8 80             	or     $0xffffff80,%eax
    2d65:	89 34 24             	mov    %esi,(%esp)
    2d68:	88 45 e0             	mov    %al,-0x20(%ebp)
    2d6b:	8b 45 28             	mov    0x28(%ebp),%eax
    2d6e:	89 44 24 14          	mov    %eax,0x14(%esp)
    2d72:	8d 45 e0             	lea    -0x20(%ebp),%eax
    2d75:	89 44 24 04          	mov    %eax,0x4(%esp)
    2d79:	c6 45 e1 06          	movb   $0x6,-0x1f(%ebp)
    2d7d:	66 89 4d e2          	mov    %cx,-0x1e(%ebp)
    2d81:	66 89 7d e4          	mov    %di,-0x1c(%ebp)
    2d85:	66 89 55 e6          	mov    %dx,-0x1a(%ebp)
    2d89:	e8 e2 f1 ff ff       	call   1f70 <usb_pipe_control_read>
    2d8e:	83 c4 3c             	add    $0x3c,%esp
    2d91:	5b                   	pop    %ebx
    2d92:	5e                   	pop    %esi
    2d93:	5f                   	pop    %edi
    2d94:	5d                   	pop    %ebp
    2d95:	c3                   	ret    
    2d96:	66 90                	xchg   %ax,%ax
    2d98:	b8 f2 ff ff ff       	mov    $0xfffffff2,%eax
    2d9d:	eb ef                	jmp    2d8e <usb_request_get_descriptor+0x7e>
    2d9f:	90                   	nop
    2da0:	b8 f9 fe ff ff       	mov    $0xfffffef9,%eax
    2da5:	eb e7                	jmp    2d8e <usb_request_get_descriptor+0x7e>
    2da7:	90                   	nop
    2da8:	b8 f6 ff ff ff       	mov    $0xfffffff6,%eax
    2dad:	eb df                	jmp    2d8e <usb_request_get_descriptor+0x7e>
    2daf:	90                   	nop

00002db0 <usb_request_get_descriptor_alloc>:
    2db0:	55                   	push   %ebp
    2db1:	89 e5                	mov    %esp,%ebp
    2db3:	57                   	push   %edi
    2db4:	56                   	push   %esi
    2db5:	53                   	push   %ebx
    2db6:	83 ec 5c             	sub    $0x5c,%esp
    2db9:	8b 55 20             	mov    0x20(%ebp),%edx
    2dbc:	8b 7d 1c             	mov    0x1c(%ebp),%edi
    2dbf:	8a 4d 14             	mov    0x14(%ebp),%cl
    2dc2:	8a 45 18             	mov    0x18(%ebp),%al
    2dc5:	85 d2                	test   %edx,%edx
    2dc7:	0f 84 3b 01 00 00    	je     2f08 <usb_request_get_descriptor_alloc+0x158>
    2dcd:	89 ce                	mov    %ecx,%esi
    2dcf:	25 ff 00 00 00       	and    $0xff,%eax
    2dd4:	c1 e6 08             	shl    $0x8,%esi
    2dd7:	09 c6                	or     %eax,%esi
    2dd9:	8b 45 08             	mov    0x8(%ebp),%eax
    2ddc:	85 c0                	test   %eax,%eax
    2dde:	0f 84 24 01 00 00    	je     2f08 <usb_request_get_descriptor_alloc+0x158>
    2de4:	8a 5d 0c             	mov    0xc(%ebp),%bl
    2de7:	8b 45 10             	mov    0x10(%ebp),%eax
    2dea:	c1 e3 05             	shl    $0x5,%ebx
    2ded:	8b 4d 08             	mov    0x8(%ebp),%ecx
    2df0:	09 c3                	or     %eax,%ebx
    2df2:	8d 45 d4             	lea    -0x2c(%ebp),%eax
    2df5:	89 44 24 14          	mov    %eax,0x14(%esp)
    2df9:	8d 45 d0             	lea    -0x30(%ebp),%eax
    2dfc:	89 44 24 0c          	mov    %eax,0xc(%esp)
    2e00:	8d 45 d8             	lea    -0x28(%ebp),%eax
    2e03:	83 cb 80             	or     $0xffffff80,%ebx
    2e06:	c7 44 24 10 01 00 00 	movl   $0x1,0x10(%esp)
    2e0d:	00 
    2e0e:	c7 44 24 08 08 00 00 	movl   $0x8,0x8(%esp)
    2e15:	00 
    2e16:	89 44 24 04          	mov    %eax,0x4(%esp)
    2e1a:	89 0c 24             	mov    %ecx,(%esp)
    2e1d:	88 5d d8             	mov    %bl,-0x28(%ebp)
    2e20:	c6 45 d9 06          	movb   $0x6,-0x27(%ebp)
    2e24:	66 89 75 da          	mov    %si,-0x26(%ebp)
    2e28:	66 89 7d dc          	mov    %di,-0x24(%ebp)
    2e2c:	66 c7 45 de 01 00    	movw   $0x1,-0x22(%ebp)
    2e32:	e8 39 f1 ff ff       	call   1f70 <usb_pipe_control_read>
    2e37:	85 c0                	test   %eax,%eax
    2e39:	0f 85 9a 00 00 00    	jne    2ed9 <usb_request_get_descriptor_alloc+0x129>
    2e3f:	83 7d d4 01          	cmpl   $0x1,-0x2c(%ebp)
    2e43:	0f 85 9f 00 00 00    	jne    2ee8 <usb_request_get_descriptor_alloc+0x138>
    2e49:	8a 4d d0             	mov    -0x30(%ebp),%cl
    2e4c:	88 4d c3             	mov    %cl,-0x3d(%ebp)
    2e4f:	81 e1 ff 00 00 00    	and    $0xff,%ecx
    2e55:	89 4d c4             	mov    %ecx,-0x3c(%ebp)
    2e58:	85 c9                	test   %ecx,%ecx
    2e5a:	0f 84 88 00 00 00    	je     2ee8 <usb_request_get_descriptor_alloc+0x138>
    2e60:	89 0c 24             	mov    %ecx,(%esp)
    2e63:	e8 d8 83 01 00       	call   1b240 <malloc>
    2e68:	89 c1                	mov    %eax,%ecx
    2e6a:	85 c0                	test   %eax,%eax
    2e6c:	0f 84 ac 00 00 00    	je     2f1e <usb_request_get_descriptor_alloc+0x16e>
    2e72:	88 5d e0             	mov    %bl,-0x20(%ebp)
    2e75:	31 c0                	xor    %eax,%eax
    2e77:	8d 5d d4             	lea    -0x2c(%ebp),%ebx
    2e7a:	8a 45 c3             	mov    -0x3d(%ebp),%al
    2e7d:	89 5c 24 14          	mov    %ebx,0x14(%esp)
    2e81:	8b 5d c4             	mov    -0x3c(%ebp),%ebx
    2e84:	66 89 45 e6          	mov    %ax,-0x1a(%ebp)
    2e88:	89 5c 24 10          	mov    %ebx,0x10(%esp)
    2e8c:	8d 45 e0             	lea    -0x20(%ebp),%eax
    2e8f:	8b 5d 08             	mov    0x8(%ebp),%ebx
    2e92:	89 4c 24 0c          	mov    %ecx,0xc(%esp)
    2e96:	c7 44 24 08 08 00 00 	movl   $0x8,0x8(%esp)
    2e9d:	00 
    2e9e:	89 44 24 04          	mov    %eax,0x4(%esp)
    2ea2:	89 1c 24             	mov    %ebx,(%esp)
    2ea5:	89 4d bc             	mov    %ecx,-0x44(%ebp)
    2ea8:	c6 45 e1 06          	movb   $0x6,-0x1f(%ebp)
    2eac:	66 89 75 e2          	mov    %si,-0x1e(%ebp)
    2eb0:	66 89 7d e4          	mov    %di,-0x1c(%ebp)
    2eb4:	e8 b7 f0 ff ff       	call   1f70 <usb_pipe_control_read>
    2eb9:	8b 4d bc             	mov    -0x44(%ebp),%ecx
    2ebc:	85 c0                	test   %eax,%eax
    2ebe:	75 38                	jne    2ef8 <usb_request_get_descriptor_alloc+0x148>
    2ec0:	8b 55 d4             	mov    -0x2c(%ebp),%edx
    2ec3:	3b 55 c4             	cmp    -0x3c(%ebp),%edx
    2ec6:	75 47                	jne    2f0f <usb_request_get_descriptor_alloc+0x15f>
    2ec8:	8b 5d 20             	mov    0x20(%ebp),%ebx
    2ecb:	89 0b                	mov    %ecx,(%ebx)
    2ecd:	8b 4d 24             	mov    0x24(%ebp),%ecx
    2ed0:	85 c9                	test   %ecx,%ecx
    2ed2:	74 05                	je     2ed9 <usb_request_get_descriptor_alloc+0x129>
    2ed4:	8b 4d 24             	mov    0x24(%ebp),%ecx
    2ed7:	89 11                	mov    %edx,(%ecx)
    2ed9:	83 c4 5c             	add    $0x5c,%esp
    2edc:	5b                   	pop    %ebx
    2edd:	5e                   	pop    %esi
    2ede:	5f                   	pop    %edi
    2edf:	5d                   	pop    %ebp
    2ee0:	c3                   	ret    
    2ee1:	8d b4 26 00 00 00 00 	lea    0x0(%esi,%eiz,1),%esi
    2ee8:	83 c4 5c             	add    $0x5c,%esp
    2eeb:	b8 d3 fe ff ff       	mov    $0xfffffed3,%eax
    2ef0:	5b                   	pop    %ebx
    2ef1:	5e                   	pop    %esi
    2ef2:	5f                   	pop    %edi
    2ef3:	5d                   	pop    %ebp
    2ef4:	c3                   	ret    
    2ef5:	8d 76 00             	lea    0x0(%esi),%esi
    2ef8:	89 0c 24             	mov    %ecx,(%esp)
    2efb:	89 45 bc             	mov    %eax,-0x44(%ebp)
    2efe:	e8 4d 84 01 00       	call   1b350 <free>
    2f03:	8b 45 bc             	mov    -0x44(%ebp),%eax
    2f06:	eb d1                	jmp    2ed9 <usb_request_get_descriptor_alloc+0x129>
    2f08:	b8 f6 ff ff ff       	mov    $0xfffffff6,%eax
    2f0d:	eb ca                	jmp    2ed9 <usb_request_get_descriptor_alloc+0x129>
    2f0f:	89 0c 24             	mov    %ecx,(%esp)
    2f12:	e8 39 84 01 00       	call   1b350 <free>
    2f17:	b8 d3 fe ff ff       	mov    $0xfffffed3,%eax
    2f1c:	eb bb                	jmp    2ed9 <usb_request_get_descriptor_alloc+0x129>
    2f1e:	b8 fe ff ff ff       	mov    $0xfffffffe,%eax
    2f23:	eb b4                	jmp    2ed9 <usb_request_get_descriptor_alloc+0x129>
    2f25:	8d 74 26 00          	lea    0x0(%esi,%eiz,1),%esi
    2f29:	8d bc 27 00 00 00 00 	lea    0x0(%edi,%eiz,1),%edi

00002f30 <usb_request_get_device_descriptor>:
    2f30:	55                   	push   %ebp
    2f31:	89 e5                	mov    %esp,%ebp
    2f33:	57                   	push   %edi
    2f34:	56                   	push   %esi
    2f35:	53                   	push   %ebx
    2f36:	83 ec 4c             	sub    $0x4c,%esp
    2f39:	8b 75 0c             	mov    0xc(%ebp),%esi
    2f3c:	8b 45 08             	mov    0x8(%ebp),%eax
    2f3f:	85 f6                	test   %esi,%esi
    2f41:	0f 84 89 00 00 00    	je     2fd0 <usb_request_get_device_descriptor+0xa0>
    2f47:	c7 45 c8 00 00 00 00 	movl   $0x0,-0x38(%ebp)
    2f4e:	85 c0                	test   %eax,%eax
    2f50:	74 7e                	je     2fd0 <usb_request_get_device_descriptor+0xa0>
    2f52:	8d 55 c8             	lea    -0x38(%ebp),%edx
    2f55:	8d 7d d6             	lea    -0x2a(%ebp),%edi
    2f58:	89 54 24 14          	mov    %edx,0x14(%esp)
    2f5c:	8d 55 ce             	lea    -0x32(%ebp),%edx
    2f5f:	c7 44 24 10 12 00 00 	movl   $0x12,0x10(%esp)
    2f66:	00 
    2f67:	89 7c 24 0c          	mov    %edi,0xc(%esp)
    2f6b:	c7 44 24 08 08 00 00 	movl   $0x8,0x8(%esp)
    2f72:	00 
    2f73:	89 54 24 04          	mov    %edx,0x4(%esp)
    2f77:	89 04 24             	mov    %eax,(%esp)
    2f7a:	c6 45 ce 80          	movb   $0x80,-0x32(%ebp)
    2f7e:	c6 45 cf 06          	movb   $0x6,-0x31(%ebp)
    2f82:	66 c7 45 d0 00 01    	movw   $0x100,-0x30(%ebp)
    2f88:	66 c7 45 d2 00 00    	movw   $0x0,-0x2e(%ebp)
    2f8e:	66 c7 45 d4 12 00    	movw   $0x12,-0x2c(%ebp)
    2f94:	e8 d7 ef ff ff       	call   1f70 <usb_pipe_control_read>
    2f99:	89 c3                	mov    %eax,%ebx
    2f9b:	85 c0                	test   %eax,%eax
    2f9d:	75 1a                	jne    2fb9 <usb_request_get_device_descriptor+0x89>
    2f9f:	83 7d c8 11          	cmpl   $0x11,-0x38(%ebp)
    2fa3:	76 23                	jbe    2fc8 <usb_request_get_device_descriptor+0x98>
    2fa5:	c7 44 24 08 12 00 00 	movl   $0x12,0x8(%esp)
    2fac:	00 
    2fad:	89 7c 24 04          	mov    %edi,0x4(%esp)
    2fb1:	89 34 24             	mov    %esi,(%esp)
    2fb4:	e8 27 ae 00 00       	call   dde0 <memcpy>
    2fb9:	83 c4 4c             	add    $0x4c,%esp
    2fbc:	89 d8                	mov    %ebx,%eax
    2fbe:	5b                   	pop    %ebx
    2fbf:	5e                   	pop    %esi
    2fc0:	5f                   	pop    %edi
    2fc1:	5d                   	pop    %ebp
    2fc2:	c3                   	ret    
    2fc3:	90                   	nop
    2fc4:	8d 74 26 00          	lea    0x0(%esi,%eiz,1),%esi
    2fc8:	bb fd ff ff ff       	mov    $0xfffffffd,%ebx
    2fcd:	eb ea                	jmp    2fb9 <usb_request_get_device_descriptor+0x89>
    2fcf:	90                   	nop
    2fd0:	bb f6 ff ff ff       	mov    $0xfffffff6,%ebx
    2fd5:	eb e2                	jmp    2fb9 <usb_request_get_device_descriptor+0x89>
    2fd7:	89 f6                	mov    %esi,%esi
    2fd9:	8d bc 27 00 00 00 00 	lea    0x0(%edi,%eiz,1),%edi

00002fe0 <usb_request_get_bare_configuration_descriptor>:
    2fe0:	55                   	push   %ebp
    2fe1:	89 e5                	mov    %esp,%ebp
    2fe3:	57                   	push   %edi
    2fe4:	56                   	push   %esi
    2fe5:	53                   	push   %ebx
    2fe6:	83 ec 4c             	sub    $0x4c,%esp
    2fe9:	8b 75 10             	mov    0x10(%ebp),%esi
    2fec:	8b 45 08             	mov    0x8(%ebp),%eax
    2fef:	85 f6                	test   %esi,%esi
    2ff1:	0f 84 a0 00 00 00    	je     3097 <usb_request_get_bare_configuration_descriptor+0xb7>
    2ff7:	81 7d 0c ff 00 00 00 	cmpl   $0xff,0xc(%ebp)
    2ffe:	0f 87 8c 00 00 00    	ja     3090 <usb_request_get_bare_configuration_descriptor+0xb0>
    3004:	8b 55 0c             	mov    0xc(%ebp),%edx
    3007:	c7 45 d0 00 00 00 00 	movl   $0x0,-0x30(%ebp)
    300e:	80 ce 02             	or     $0x2,%dh
    3011:	85 c0                	test   %eax,%eax
    3013:	0f 84 7e 00 00 00    	je     3097 <usb_request_get_bare_configuration_descriptor+0xb7>
    3019:	66 89 55 d9          	mov    %dx,-0x27(%ebp)
    301d:	8d 55 d0             	lea    -0x30(%ebp),%edx
    3020:	89 54 24 14          	mov    %edx,0x14(%esp)
    3024:	8d 7d df             	lea    -0x21(%ebp),%edi
    3027:	8d 55 d7             	lea    -0x29(%ebp),%edx
    302a:	c7 44 24 10 09 00 00 	movl   $0x9,0x10(%esp)
    3031:	00 
    3032:	89 7c 24 0c          	mov    %edi,0xc(%esp)
    3036:	c7 44 24 08 08 00 00 	movl   $0x8,0x8(%esp)
    303d:	00 
    303e:	89 54 24 04          	mov    %edx,0x4(%esp)
    3042:	89 04 24             	mov    %eax,(%esp)
    3045:	c6 45 d7 80          	movb   $0x80,-0x29(%ebp)
    3049:	c6 45 d8 06          	movb   $0x6,-0x28(%ebp)
    304d:	66 c7 45 db 00 00    	movw   $0x0,-0x25(%ebp)
    3053:	66 c7 45 dd 09 00    	movw   $0x9,-0x23(%ebp)
    3059:	e8 12 ef ff ff       	call   1f70 <usb_pipe_control_read>
    305e:	89 c3                	mov    %eax,%ebx
    3060:	85 c0                	test   %eax,%eax
    3062:	75 1a                	jne    307e <usb_request_get_bare_configuration_descriptor+0x9e>
    3064:	83 7d d0 08          	cmpl   $0x8,-0x30(%ebp)
    3068:	76 1e                	jbe    3088 <usb_request_get_bare_configuration_descriptor+0xa8>
    306a:	c7 44 24 08 09 00 00 	movl   $0x9,0x8(%esp)
    3071:	00 
    3072:	89 7c 24 04          	mov    %edi,0x4(%esp)
    3076:	89 34 24             	mov    %esi,(%esp)
    3079:	e8 62 ad 00 00       	call   dde0 <memcpy>
    307e:	83 c4 4c             	add    $0x4c,%esp
    3081:	89 d8                	mov    %ebx,%eax
    3083:	5b                   	pop    %ebx
    3084:	5e                   	pop    %esi
    3085:	5f                   	pop    %edi
    3086:	5d                   	pop    %ebp
    3087:	c3                   	ret    
    3088:	bb fd ff ff ff       	mov    $0xfffffffd,%ebx
    308d:	eb ef                	jmp    307e <usb_request_get_bare_configuration_descriptor+0x9e>
    308f:	90                   	nop
    3090:	bb f9 fe ff ff       	mov    $0xfffffef9,%ebx
    3095:	eb e7                	jmp    307e <usb_request_get_bare_configuration_descriptor+0x9e>
    3097:	bb f6 ff ff ff       	mov    $0xfffffff6,%ebx
    309c:	eb e0                	jmp    307e <usb_request_get_bare_configuration_descriptor+0x9e>
    309e:	66 90                	xchg   %ax,%ax

000030a0 <usb_request_get_full_configuration_descriptor>:
    30a0:	55                   	push   %ebp
    30a1:	89 e5                	mov    %esp,%ebp
    30a3:	53                   	push   %ebx
    30a4:	83 ec 34             	sub    $0x34,%esp
    30a7:	8b 4d 08             	mov    0x8(%ebp),%ecx
    30aa:	8b 55 10             	mov    0x10(%ebp),%edx
    30ad:	8b 45 14             	mov    0x14(%ebp),%eax
    30b0:	81 7d 0c ff 00 00 00 	cmpl   $0xff,0xc(%ebp)
    30b7:	77 5f                	ja     3118 <usb_request_get_full_configuration_descriptor+0x78>
    30b9:	85 d2                	test   %edx,%edx
    30bb:	74 73                	je     3130 <usb_request_get_full_configuration_descriptor+0x90>
    30bd:	85 c0                	test   %eax,%eax
    30bf:	74 67                	je     3128 <usb_request_get_full_configuration_descriptor+0x88>
    30c1:	8b 5d 0c             	mov    0xc(%ebp),%ebx
    30c4:	80 cf 02             	or     $0x2,%bh
    30c7:	85 c9                	test   %ecx,%ecx
    30c9:	74 65                	je     3130 <usb_request_get_full_configuration_descriptor+0x90>
    30cb:	3d ff ff 00 00       	cmp    $0xffff,%eax
    30d0:	77 46                	ja     3118 <usb_request_get_full_configuration_descriptor+0x78>
    30d2:	66 89 5d f2          	mov    %bx,-0xe(%ebp)
    30d6:	66 89 45 f6          	mov    %ax,-0xa(%ebp)
    30da:	8b 5d 18             	mov    0x18(%ebp),%ebx
    30dd:	89 44 24 10          	mov    %eax,0x10(%esp)
    30e1:	8d 45 f0             	lea    -0x10(%ebp),%eax
    30e4:	89 5c 24 14          	mov    %ebx,0x14(%esp)
    30e8:	89 54 24 0c          	mov    %edx,0xc(%esp)
    30ec:	c7 44 24 08 08 00 00 	movl   $0x8,0x8(%esp)
    30f3:	00 
    30f4:	89 44 24 04          	mov    %eax,0x4(%esp)
    30f8:	89 0c 24             	mov    %ecx,(%esp)
    30fb:	c6 45 f0 80          	movb   $0x80,-0x10(%ebp)
    30ff:	c6 45 f1 06          	movb   $0x6,-0xf(%ebp)
    3103:	66 c7 45 f4 00 00    	movw   $0x0,-0xc(%ebp)
    3109:	e8 62 ee ff ff       	call   1f70 <usb_pipe_control_read>
    310e:	83 c4 34             	add    $0x34,%esp
    3111:	5b                   	pop    %ebx
    3112:	5d                   	pop    %ebp
    3113:	c3                   	ret    
    3114:	8d 74 26 00          	lea    0x0(%esi,%eiz,1),%esi
    3118:	83 c4 34             	add    $0x34,%esp
    311b:	b8 f9 fe ff ff       	mov    $0xfffffef9,%eax
    3120:	5b                   	pop    %ebx
    3121:	5d                   	pop    %ebp
    3122:	c3                   	ret    
    3123:	90                   	nop
    3124:	8d 74 26 00          	lea    0x0(%esi,%eiz,1),%esi
    3128:	b8 f2 ff ff ff       	mov    $0xfffffff2,%eax
    312d:	eb df                	jmp    310e <usb_request_get_full_configuration_descriptor+0x6e>
    312f:	90                   	nop
    3130:	b8 f6 ff ff ff       	mov    $0xfffffff6,%eax
    3135:	eb d7                	jmp    310e <usb_request_get_full_configuration_descriptor+0x6e>
    3137:	89 f6                	mov    %esi,%esi
    3139:	8d bc 27 00 00 00 00 	lea    0x0(%edi,%eiz,1),%edi

00003140 <usb_request_get_full_configuration_descriptor_alloc>:
    3140:	55                   	push   %ebp
    3141:	89 e5                	mov    %esp,%ebp
    3143:	57                   	push   %edi
    3144:	56                   	push   %esi
    3145:	53                   	push   %ebx
    3146:	83 ec 6c             	sub    $0x6c,%esp
    3149:	8b 45 10             	mov    0x10(%ebp),%eax
    314c:	85 c0                	test   %eax,%eax
    314e:	0f 84 74 01 00 00    	je     32c8 <usb_request_get_full_configuration_descriptor_alloc+0x188>
    3154:	81 7d 0c ff 00 00 00 	cmpl   $0xff,0xc(%ebp)
    315b:	0f 87 57 01 00 00    	ja     32b8 <usb_request_get_full_configuration_descriptor_alloc+0x178>
    3161:	8b 75 0c             	mov    0xc(%ebp),%esi
    3164:	8b 7d 08             	mov    0x8(%ebp),%edi
    3167:	81 ce 00 02 00 00    	or     $0x200,%esi
    316d:	c7 45 c0 00 00 00 00 	movl   $0x0,-0x40(%ebp)
    3174:	85 ff                	test   %edi,%edi
    3176:	0f 84 4c 01 00 00    	je     32c8 <usb_request_get_full_configuration_descriptor_alloc+0x188>
    317c:	8d 45 c4             	lea    -0x3c(%ebp),%eax
    317f:	8b 55 08             	mov    0x8(%ebp),%edx
    3182:	8d 7d c0             	lea    -0x40(%ebp),%edi
    3185:	8d 5d df             	lea    -0x21(%ebp),%ebx
    3188:	89 7c 24 14          	mov    %edi,0x14(%esp)
    318c:	c7 44 24 10 09 00 00 	movl   $0x9,0x10(%esp)
    3193:	00 
    3194:	89 5c 24 0c          	mov    %ebx,0xc(%esp)
    3198:	c7 44 24 08 08 00 00 	movl   $0x8,0x8(%esp)
    319f:	00 
    31a0:	89 44 24 04          	mov    %eax,0x4(%esp)
    31a4:	89 14 24             	mov    %edx,(%esp)
    31a7:	c6 45 c4 80          	movb   $0x80,-0x3c(%ebp)
    31ab:	c6 45 c5 06          	movb   $0x6,-0x3b(%ebp)
    31af:	66 89 75 c6          	mov    %si,-0x3a(%ebp)
    31b3:	66 c7 45 c8 00 00    	movw   $0x0,-0x38(%ebp)
    31b9:	66 c7 45 ca 09 00    	movw   $0x9,-0x36(%ebp)
    31bf:	e8 ac ed ff ff       	call   1f70 <usb_pipe_control_read>
    31c4:	85 c0                	test   %eax,%eax
    31c6:	0f 85 bd 00 00 00    	jne    3289 <usb_request_get_full_configuration_descriptor_alloc+0x149>
    31cc:	83 7d c0 08          	cmpl   $0x8,-0x40(%ebp)
    31d0:	0f 86 c2 00 00 00    	jbe    3298 <usb_request_get_full_configuration_descriptor_alloc+0x158>
    31d6:	8d 45 d4             	lea    -0x2c(%ebp),%eax
    31d9:	c7 44 24 08 09 00 00 	movl   $0x9,0x8(%esp)
    31e0:	00 
    31e1:	89 5c 24 04          	mov    %ebx,0x4(%esp)
    31e5:	89 04 24             	mov    %eax,(%esp)
    31e8:	e8 f3 ab 00 00       	call   dde0 <memcpy>
    31ed:	80 7d d5 02          	cmpb   $0x2,-0x2b(%ebp)
    31f1:	0f 85 c9 00 00 00    	jne    32c0 <usb_request_get_full_configuration_descriptor_alloc+0x180>
    31f7:	66 8b 4d d6          	mov    -0x2a(%ebp),%cx
    31fb:	89 cb                	mov    %ecx,%ebx
    31fd:	81 e3 ff ff 00 00    	and    $0xffff,%ebx
    3203:	83 fb 08             	cmp    $0x8,%ebx
    3206:	0f 86 8c 00 00 00    	jbe    3298 <usb_request_get_full_configuration_descriptor_alloc+0x158>
    320c:	89 1c 24             	mov    %ebx,(%esp)
    320f:	89 4d b4             	mov    %ecx,-0x4c(%ebp)
    3212:	e8 29 80 01 00       	call   1b240 <malloc>
    3217:	8b 4d b4             	mov    -0x4c(%ebp),%ecx
    321a:	89 c2                	mov    %eax,%edx
    321c:	85 c0                	test   %eax,%eax
    321e:	0f 84 ba 00 00 00    	je     32de <usb_request_get_full_configuration_descriptor_alloc+0x19e>
    3224:	89 44 24 0c          	mov    %eax,0xc(%esp)
    3228:	8d 45 cc             	lea    -0x34(%ebp),%eax
    322b:	89 44 24 04          	mov    %eax,0x4(%esp)
    322f:	8b 45 08             	mov    0x8(%ebp),%eax
    3232:	89 7c 24 14          	mov    %edi,0x14(%esp)
    3236:	89 5c 24 10          	mov    %ebx,0x10(%esp)
    323a:	c7 44 24 08 08 00 00 	movl   $0x8,0x8(%esp)
    3241:	00 
    3242:	89 04 24             	mov    %eax,(%esp)
    3245:	89 55 b4             	mov    %edx,-0x4c(%ebp)
    3248:	c7 45 c0 00 00 00 00 	movl   $0x0,-0x40(%ebp)
    324f:	c6 45 cc 80          	movb   $0x80,-0x34(%ebp)
    3253:	c6 45 cd 06          	movb   $0x6,-0x33(%ebp)
    3257:	66 89 75 ce          	mov    %si,-0x32(%ebp)
    325b:	66 c7 45 d0 00 00    	movw   $0x0,-0x30(%ebp)
    3261:	66 89 4d d2          	mov    %cx,-0x2e(%ebp)
    3265:	e8 06 ed ff ff       	call   1f70 <usb_pipe_control_read>
    326a:	8b 55 b4             	mov    -0x4c(%ebp),%edx
    326d:	85 c0                	test   %eax,%eax
    326f:	75 37                	jne    32a8 <usb_request_get_full_configuration_descriptor_alloc+0x168>
    3271:	8b 4d c0             	mov    -0x40(%ebp),%ecx
    3274:	39 d9                	cmp    %ebx,%ecx
    3276:	75 57                	jne    32cf <usb_request_get_full_configuration_descriptor_alloc+0x18f>
    3278:	8b 5d 10             	mov    0x10(%ebp),%ebx
    327b:	89 13                	mov    %edx,(%ebx)
    327d:	8b 5d 14             	mov    0x14(%ebp),%ebx
    3280:	85 db                	test   %ebx,%ebx
    3282:	74 05                	je     3289 <usb_request_get_full_configuration_descriptor_alloc+0x149>
    3284:	8b 55 14             	mov    0x14(%ebp),%edx
    3287:	89 0a                	mov    %ecx,(%edx)
    3289:	83 c4 6c             	add    $0x6c,%esp
    328c:	5b                   	pop    %ebx
    328d:	5e                   	pop    %esi
    328e:	5f                   	pop    %edi
    328f:	5d                   	pop    %ebp
    3290:	c3                   	ret    
    3291:	8d b4 26 00 00 00 00 	lea    0x0(%esi,%eiz,1),%esi
    3298:	83 c4 6c             	add    $0x6c,%esp
    329b:	b8 fd ff ff ff       	mov    $0xfffffffd,%eax
    32a0:	5b                   	pop    %ebx
    32a1:	5e                   	pop    %esi
    32a2:	5f                   	pop    %edi
    32a3:	5d                   	pop    %ebp
    32a4:	c3                   	ret    
    32a5:	8d 76 00             	lea    0x0(%esi),%esi
    32a8:	89 14 24             	mov    %edx,(%esp)
    32ab:	89 45 b4             	mov    %eax,-0x4c(%ebp)
    32ae:	e8 9d 80 01 00       	call   1b350 <free>
    32b3:	8b 45 b4             	mov    -0x4c(%ebp),%eax
    32b6:	eb d1                	jmp    3289 <usb_request_get_full_configuration_descriptor_alloc+0x149>
    32b8:	b8 f9 fe ff ff       	mov    $0xfffffef9,%eax
    32bd:	eb ca                	jmp    3289 <usb_request_get_full_configuration_descriptor_alloc+0x149>
    32bf:	90                   	nop
    32c0:	83 c8 ff             	or     $0xffffffff,%eax
    32c3:	eb c4                	jmp    3289 <usb_request_get_full_configuration_descriptor_alloc+0x149>
    32c5:	8d 76 00             	lea    0x0(%esi),%esi
    32c8:	b8 f6 ff ff ff       	mov    $0xfffffff6,%eax
    32cd:	eb ba                	jmp    3289 <usb_request_get_full_configuration_descriptor_alloc+0x149>
    32cf:	89 14 24             	mov    %edx,(%esp)
    32d2:	e8 79 80 01 00       	call   1b350 <free>
    32d7:	b8 fd ff ff ff       	mov    $0xfffffffd,%eax
    32dc:	eb ab                	jmp    3289 <usb_request_get_full_configuration_descriptor_alloc+0x149>
    32de:	b8 fe ff ff ff       	mov    $0xfffffffe,%eax
    32e3:	eb a4                	jmp    3289 <usb_request_get_full_configuration_descriptor_alloc+0x149>
    32e5:	8d 74 26 00          	lea    0x0(%esi,%eiz,1),%esi
    32e9:	8d bc 27 00 00 00 00 	lea    0x0(%edi,%eiz,1),%edi

000032f0 <usb_request_set_descriptor>:
    32f0:	55                   	push   %ebp
    32f1:	89 e5                	mov    %esp,%ebp
    32f3:	57                   	push   %edi
    32f4:	56                   	push   %esi
    32f5:	53                   	push   %ebx
    32f6:	83 ec 3c             	sub    $0x3c,%esp
    32f9:	8b 5d 20             	mov    0x20(%ebp),%ebx
    32fc:	8b 75 08             	mov    0x8(%ebp),%esi
    32ff:	8b 7d 1c             	mov    0x1c(%ebp),%edi
    3302:	8b 45 24             	mov    0x24(%ebp),%eax
    3305:	8a 55 14             	mov    0x14(%ebp),%dl
    3308:	8a 4d 18             	mov    0x18(%ebp),%cl
    330b:	85 db                	test   %ebx,%ebx
    330d:	74 71                	je     3380 <usb_request_set_descriptor+0x90>
    330f:	85 c0                	test   %eax,%eax
    3311:	74 5d                	je     3370 <usb_request_set_descriptor+0x80>
    3313:	c1 e2 08             	shl    $0x8,%edx
    3316:	81 e1 ff 00 00 00    	and    $0xff,%ecx
    331c:	09 ca                	or     %ecx,%edx
    331e:	85 f6                	test   %esi,%esi
    3320:	74 5e                	je     3380 <usb_request_set_descriptor+0x90>
    3322:	3d ff ff 00 00       	cmp    $0xffff,%eax
    3327:	77 4f                	ja     3378 <usb_request_set_descriptor+0x88>
    3329:	8a 4d 0c             	mov    0xc(%ebp),%cl
    332c:	66 89 45 e6          	mov    %ax,-0x1a(%ebp)
    3330:	c1 e1 05             	shl    $0x5,%ecx
    3333:	89 44 24 10          	mov    %eax,0x10(%esp)
    3337:	0b 4d 10             	or     0x10(%ebp),%ecx
    333a:	8d 45 e0             	lea    -0x20(%ebp),%eax
    333d:	89 5c 24 0c          	mov    %ebx,0xc(%esp)
    3341:	c7 44 24 08 08 00 00 	movl   $0x8,0x8(%esp)
    3348:	00 
    3349:	89 44 24 04          	mov    %eax,0x4(%esp)
    334d:	89 34 24             	mov    %esi,(%esp)
    3350:	88 4d e0             	mov    %cl,-0x20(%ebp)
    3353:	c6 45 e1 07          	movb   $0x7,-0x1f(%ebp)
    3357:	66 89 55 e2          	mov    %dx,-0x1e(%ebp)
    335b:	66 89 7d e4          	mov    %di,-0x1c(%ebp)
    335f:	e8 6c ed ff ff       	call   20d0 <usb_pipe_control_write>
    3364:	83 c4 3c             	add    $0x3c,%esp
    3367:	5b                   	pop    %ebx
    3368:	5e                   	pop    %esi
    3369:	5f                   	pop    %edi
    336a:	5d                   	pop    %ebp
    336b:	c3                   	ret    
    336c:	8d 74 26 00          	lea    0x0(%esi,%eiz,1),%esi
    3370:	b8 f2 ff ff ff       	mov    $0xfffffff2,%eax
    3375:	eb ed                	jmp    3364 <usb_request_set_descriptor+0x74>
    3377:	90                   	nop
    3378:	b8 f9 fe ff ff       	mov    $0xfffffef9,%eax
    337d:	eb e5                	jmp    3364 <usb_request_set_descriptor+0x74>
    337f:	90                   	nop
    3380:	b8 f6 ff ff ff       	mov    $0xfffffff6,%eax
    3385:	eb dd                	jmp    3364 <usb_request_set_descriptor+0x74>
    3387:	89 f6                	mov    %esi,%esi
    3389:	8d bc 27 00 00 00 00 	lea    0x0(%edi,%eiz,1),%edi

00003390 <usb_request_get_configuration>:
    3390:	55                   	push   %ebp
    3391:	89 e5                	mov    %esp,%ebp
    3393:	53                   	push   %ebx
    3394:	83 ec 34             	sub    $0x34,%esp
    3397:	8b 45 08             	mov    0x8(%ebp),%eax
    339a:	8b 5d 0c             	mov    0xc(%ebp),%ebx
    339d:	85 c0                	test   %eax,%eax
    339f:	74 6e                	je     340f <usb_request_get_configuration+0x7f>
    33a1:	8d 55 ec             	lea    -0x14(%ebp),%edx
    33a4:	c7 44 24 10 01 00 00 	movl   $0x1,0x10(%esp)
    33ab:	00 
    33ac:	89 54 24 14          	mov    %edx,0x14(%esp)
    33b0:	8d 55 e8             	lea    -0x18(%ebp),%edx
    33b3:	89 54 24 0c          	mov    %edx,0xc(%esp)
    33b7:	8d 55 f0             	lea    -0x10(%ebp),%edx
    33ba:	c7 44 24 08 08 00 00 	movl   $0x8,0x8(%esp)
    33c1:	00 
    33c2:	89 54 24 04          	mov    %edx,0x4(%esp)
    33c6:	89 04 24             	mov    %eax,(%esp)
    33c9:	c6 45 f0 80          	movb   $0x80,-0x10(%ebp)
    33cd:	c6 45 f1 08          	movb   $0x8,-0xf(%ebp)
    33d1:	66 c7 45 f2 00 00    	movw   $0x0,-0xe(%ebp)
    33d7:	66 c7 45 f4 00 00    	movw   $0x0,-0xc(%ebp)
    33dd:	66 c7 45 f6 01 00    	movw   $0x1,-0xa(%ebp)
    33e3:	e8 88 eb ff ff       	call   1f70 <usb_pipe_control_read>
    33e8:	85 c0                	test   %eax,%eax
    33ea:	75 0f                	jne    33fb <usb_request_get_configuration+0x6b>
    33ec:	83 7d ec 01          	cmpl   $0x1,-0x14(%ebp)
    33f0:	75 16                	jne    3408 <usb_request_get_configuration+0x78>
    33f2:	85 db                	test   %ebx,%ebx
    33f4:	74 05                	je     33fb <usb_request_get_configuration+0x6b>
    33f6:	8a 55 e8             	mov    -0x18(%ebp),%dl
    33f9:	88 13                	mov    %dl,(%ebx)
    33fb:	83 c4 34             	add    $0x34,%esp
    33fe:	5b                   	pop    %ebx
    33ff:	5d                   	pop    %ebp
    3400:	c3                   	ret    
    3401:	8d b4 26 00 00 00 00 	lea    0x0(%esi,%eiz,1),%esi
    3408:	b8 fd ff ff ff       	mov    $0xfffffffd,%eax
    340d:	eb ec                	jmp    33fb <usb_request_get_configuration+0x6b>
    340f:	b8 f6 ff ff ff       	mov    $0xfffffff6,%eax
    3414:	eb e5                	jmp    33fb <usb_request_get_configuration+0x6b>
    3416:	8d 76 00             	lea    0x0(%esi),%esi
    3419:	8d bc 27 00 00 00 00 	lea    0x0(%edi,%eiz,1),%edi

00003420 <usb_request_set_configuration>:
    3420:	55                   	push   %ebp
    3421:	31 d2                	xor    %edx,%edx
    3423:	89 e5                	mov    %esp,%ebp
    3425:	83 ec 38             	sub    $0x38,%esp
    3428:	8b 45 08             	mov    0x8(%ebp),%eax
    342b:	8a 55 0c             	mov    0xc(%ebp),%dl
    342e:	85 c0                	test   %eax,%eax
    3430:	74 41                	je     3473 <usb_request_set_configuration+0x53>
    3432:	66 89 55 f2          	mov    %dx,-0xe(%ebp)
    3436:	8d 55 f0             	lea    -0x10(%ebp),%edx
    3439:	c7 44 24 10 00 00 00 	movl   $0x0,0x10(%esp)
    3440:	00 
    3441:	c7 44 24 0c 00 00 00 	movl   $0x0,0xc(%esp)
    3448:	00 
    3449:	c7 44 24 08 08 00 00 	movl   $0x8,0x8(%esp)
    3450:	00 
    3451:	89 54 24 04          	mov    %edx,0x4(%esp)
    3455:	89 04 24             	mov    %eax,(%esp)
    3458:	c6 45 f0 00          	movb   $0x0,-0x10(%ebp)
    345c:	c6 45 f1 09          	movb   $0x9,-0xf(%ebp)
    3460:	66 c7 45 f4 00 00    	movw   $0x0,-0xc(%ebp)
    3466:	66 c7 45 f6 00 00    	movw   $0x0,-0xa(%ebp)
    346c:	e8 5f ec ff ff       	call   20d0 <usb_pipe_control_write>
    3471:	c9                   	leave  
    3472:	c3                   	ret    
    3473:	b8 f6 ff ff ff       	mov    $0xfffffff6,%eax
    3478:	c9                   	leave  
    3479:	c3                   	ret    
    347a:	8d b6 00 00 00 00    	lea    0x0(%esi),%esi

00003480 <usb_request_get_interface>:
    3480:	55                   	push   %ebp
    3481:	31 d2                	xor    %edx,%edx
    3483:	89 e5                	mov    %esp,%ebp
    3485:	53                   	push   %ebx
    3486:	83 ec 34             	sub    $0x34,%esp
    3489:	8b 45 08             	mov    0x8(%ebp),%eax
    348c:	8b 5d 10             	mov    0x10(%ebp),%ebx
    348f:	8a 55 0c             	mov    0xc(%ebp),%dl
    3492:	85 c0                	test   %eax,%eax
    3494:	74 69                	je     34ff <usb_request_get_interface+0x7f>
    3496:	66 89 55 f4          	mov    %dx,-0xc(%ebp)
    349a:	8d 55 ec             	lea    -0x14(%ebp),%edx
    349d:	89 54 24 14          	mov    %edx,0x14(%esp)
    34a1:	8d 55 e8             	lea    -0x18(%ebp),%edx
    34a4:	89 54 24 0c          	mov    %edx,0xc(%esp)
    34a8:	8d 55 f0             	lea    -0x10(%ebp),%edx
    34ab:	c7 44 24 10 01 00 00 	movl   $0x1,0x10(%esp)
    34b2:	00 
    34b3:	c7 44 24 08 08 00 00 	movl   $0x8,0x8(%esp)
    34ba:	00 
    34bb:	89 54 24 04          	mov    %edx,0x4(%esp)
    34bf:	89 04 24             	mov    %eax,(%esp)
    34c2:	c6 45 f0 81          	movb   $0x81,-0x10(%ebp)
    34c6:	c6 45 f1 0a          	movb   $0xa,-0xf(%ebp)
    34ca:	66 c7 45 f2 00 00    	movw   $0x0,-0xe(%ebp)
    34d0:	66 c7 45 f6 01 00    	movw   $0x1,-0xa(%ebp)
    34d6:	e8 95 ea ff ff       	call   1f70 <usb_pipe_control_read>
    34db:	85 c0                	test   %eax,%eax
    34dd:	75 0f                	jne    34ee <usb_request_get_interface+0x6e>
    34df:	83 7d ec 01          	cmpl   $0x1,-0x14(%ebp)
    34e3:	75 13                	jne    34f8 <usb_request_get_interface+0x78>
    34e5:	85 db                	test   %ebx,%ebx
    34e7:	74 05                	je     34ee <usb_request_get_interface+0x6e>
    34e9:	8a 55 e8             	mov    -0x18(%ebp),%dl
    34ec:	88 13                	mov    %dl,(%ebx)
    34ee:	83 c4 34             	add    $0x34,%esp
    34f1:	5b                   	pop    %ebx
    34f2:	5d                   	pop    %ebp
    34f3:	c3                   	ret    
    34f4:	8d 74 26 00          	lea    0x0(%esi,%eiz,1),%esi
    34f8:	b8 fd ff ff ff       	mov    $0xfffffffd,%eax
    34fd:	eb ef                	jmp    34ee <usb_request_get_interface+0x6e>
    34ff:	b8 f6 ff ff ff       	mov    $0xfffffff6,%eax
    3504:	eb e8                	jmp    34ee <usb_request_get_interface+0x6e>
    3506:	8d 76 00             	lea    0x0(%esi),%esi
    3509:	8d bc 27 00 00 00 00 	lea    0x0(%edi,%eiz,1),%edi

00003510 <usb_request_set_interface>:
    3510:	55                   	push   %ebp
    3511:	31 c9                	xor    %ecx,%ecx
    3513:	89 e5                	mov    %esp,%ebp
    3515:	83 ec 38             	sub    $0x38,%esp
    3518:	31 d2                	xor    %edx,%edx
    351a:	8b 45 08             	mov    0x8(%ebp),%eax
    351d:	8a 4d 10             	mov    0x10(%ebp),%cl
    3520:	8a 55 0c             	mov    0xc(%ebp),%dl
    3523:	85 c0                	test   %eax,%eax
    3525:	74 3f                	je     3566 <usb_request_set_interface+0x56>
    3527:	66 89 55 f4          	mov    %dx,-0xc(%ebp)
    352b:	8d 55 f0             	lea    -0x10(%ebp),%edx
    352e:	c7 44 24 10 00 00 00 	movl   $0x0,0x10(%esp)
    3535:	00 
    3536:	c7 44 24 0c 00 00 00 	movl   $0x0,0xc(%esp)
    353d:	00 
    353e:	c7 44 24 08 08 00 00 	movl   $0x8,0x8(%esp)
    3545:	00 
    3546:	89 54 24 04          	mov    %edx,0x4(%esp)
    354a:	89 04 24             	mov    %eax,(%esp)
    354d:	c6 45 f0 01          	movb   $0x1,-0x10(%ebp)
    3551:	c6 45 f1 0b          	movb   $0xb,-0xf(%ebp)
    3555:	66 89 4d f2          	mov    %cx,-0xe(%ebp)
    3559:	66 c7 45 f6 00 00    	movw   $0x0,-0xa(%ebp)
    355f:	e8 6c eb ff ff       	call   20d0 <usb_pipe_control_write>
    3564:	c9                   	leave  
    3565:	c3                   	ret    
    3566:	b8 f6 ff ff ff       	mov    $0xfffffff6,%eax
    356b:	c9                   	leave  
    356c:	c3                   	ret    
    356d:	8d 76 00             	lea    0x0(%esi),%esi

00003570 <usb_request_get_supported_languages>:
    3570:	55                   	push   %ebp
    3571:	89 e5                	mov    %esp,%ebp
    3573:	57                   	push   %edi
    3574:	56                   	push   %esi
    3575:	53                   	push   %ebx
    3576:	83 ec 4c             	sub    $0x4c,%esp
    3579:	8b 55 0c             	mov    0xc(%ebp),%edx
    357c:	85 d2                	test   %edx,%edx
    357e:	0f 84 ee 00 00 00    	je     3672 <usb_request_get_supported_languages+0x102>
    3584:	8b 45 10             	mov    0x10(%ebp),%eax
    3587:	85 c0                	test   %eax,%eax
    3589:	0f 84 e3 00 00 00    	je     3672 <usb_request_get_supported_languages+0x102>
    358f:	8d 45 e4             	lea    -0x1c(%ebp),%eax
    3592:	c7 44 24 14 00 00 00 	movl   $0x0,0x14(%esp)
    3599:	00 
    359a:	89 44 24 1c          	mov    %eax,0x1c(%esp)
    359e:	8d 45 e0             	lea    -0x20(%ebp),%eax
    35a1:	89 44 24 18          	mov    %eax,0x18(%esp)
    35a5:	8b 45 08             	mov    0x8(%ebp),%eax
    35a8:	c7 44 24 10 00 00 00 	movl   $0x0,0x10(%esp)
    35af:	00 
    35b0:	c7 44 24 0c 03 00 00 	movl   $0x3,0xc(%esp)
    35b7:	00 
    35b8:	c7 44 24 08 00 00 00 	movl   $0x0,0x8(%esp)
    35bf:	00 
    35c0:	c7 44 24 04 00 00 00 	movl   $0x0,0x4(%esp)
    35c7:	00 
    35c8:	89 04 24             	mov    %eax,(%esp)
    35cb:	c7 45 e0 00 00 00 00 	movl   $0x0,-0x20(%ebp)
    35d2:	c7 45 e4 00 00 00 00 	movl   $0x0,-0x1c(%ebp)
    35d9:	e8 d2 f7 ff ff       	call   2db0 <usb_request_get_descriptor_alloc>
    35de:	89 45 d4             	mov    %eax,-0x2c(%ebp)
    35e1:	85 c0                	test   %eax,%eax
    35e3:	0f 85 81 00 00 00    	jne    366a <usb_request_get_supported_languages+0xfa>
    35e9:	8b 7d e4             	mov    -0x1c(%ebp),%edi
    35ec:	83 ff 02             	cmp    $0x2,%edi
    35ef:	0f 86 a0 00 00 00    	jbe    3695 <usb_request_get_supported_languages+0x125>
    35f5:	83 ef 02             	sub    $0x2,%edi
    35f8:	89 7d e4             	mov    %edi,-0x1c(%ebp)
    35fb:	f7 c7 01 00 00 00    	test   $0x1,%edi
    3601:	75 7b                	jne    367e <usb_request_get_supported_languages+0x10e>
    3603:	d1 ef                	shr    %edi
    3605:	8d 04 bd 00 00 00 00 	lea    0x0(,%edi,4),%eax
    360c:	89 04 24             	mov    %eax,(%esp)
    360f:	e8 2c 7c 01 00       	call   1b240 <malloc>
    3614:	85 c0                	test   %eax,%eax
    3616:	0f 84 90 00 00 00    	je     36ac <usb_request_get_supported_languages+0x13c>
    361c:	8b 5d e0             	mov    -0x20(%ebp),%ebx
    361f:	85 ff                	test   %edi,%edi
    3621:	74 2c                	je     364f <usb_request_get_supported_languages+0xdf>
    3623:	31 d2                	xor    %edx,%edx
    3625:	89 45 cc             	mov    %eax,-0x34(%ebp)
    3628:	31 c9                	xor    %ecx,%ecx
    362a:	8a 4c 53 03          	mov    0x3(%ebx,%edx,2),%cl
    362e:	42                   	inc    %edx
    362f:	c1 e1 08             	shl    $0x8,%ecx
    3632:	8a 04 53             	mov    (%ebx,%edx,2),%al
    3635:	25 ff 00 00 00       	and    $0xff,%eax
    363a:	89 c6                	mov    %eax,%esi
    363c:	8b 45 cc             	mov    -0x34(%ebp),%eax
    363f:	01 f1                	add    %esi,%ecx
    3641:	81 e1 ff ff 00 00    	and    $0xffff,%ecx
    3647:	39 fa                	cmp    %edi,%edx
    3649:	89 4c 90 fc          	mov    %ecx,-0x4(%eax,%edx,4)
    364d:	75 d9                	jne    3628 <usb_request_get_supported_languages+0xb8>
    364f:	89 1c 24             	mov    %ebx,(%esp)
    3652:	89 45 d0             	mov    %eax,-0x30(%ebp)
    3655:	e8 f6 7c 01 00       	call   1b350 <free>
    365a:	8b 55 0c             	mov    0xc(%ebp),%edx
    365d:	8b 45 d0             	mov    -0x30(%ebp),%eax
    3660:	89 02                	mov    %eax,(%edx)
    3662:	8b 55 10             	mov    0x10(%ebp),%edx
    3665:	8b 45 d4             	mov    -0x2c(%ebp),%eax
    3668:	89 3a                	mov    %edi,(%edx)
    366a:	83 c4 4c             	add    $0x4c,%esp
    366d:	5b                   	pop    %ebx
    366e:	5e                   	pop    %esi
    366f:	5f                   	pop    %edi
    3670:	5d                   	pop    %ebp
    3671:	c3                   	ret    
    3672:	c7 45 d4 f6 ff ff ff 	movl   $0xfffffff6,-0x2c(%ebp)
    3679:	8b 45 d4             	mov    -0x2c(%ebp),%eax
    367c:	eb ec                	jmp    366a <usb_request_get_supported_languages+0xfa>
    367e:	8b 45 e0             	mov    -0x20(%ebp),%eax
    3681:	89 04 24             	mov    %eax,(%esp)
    3684:	e8 c7 7c 01 00       	call   1b350 <free>
    3689:	c7 45 d4 d3 fe ff ff 	movl   $0xfffffed3,-0x2c(%ebp)
    3690:	8b 45 d4             	mov    -0x2c(%ebp),%eax
    3693:	eb d5                	jmp    366a <usb_request_get_supported_languages+0xfa>
    3695:	8b 45 e0             	mov    -0x20(%ebp),%eax
    3698:	89 04 24             	mov    %eax,(%esp)
    369b:	e8 b0 7c 01 00       	call   1b350 <free>
    36a0:	c7 45 d4 d2 fe ff ff 	movl   $0xfffffed2,-0x2c(%ebp)
    36a7:	8b 45 d4             	mov    -0x2c(%ebp),%eax
    36aa:	eb be                	jmp    366a <usb_request_get_supported_languages+0xfa>
    36ac:	8b 45 e0             	mov    -0x20(%ebp),%eax
    36af:	89 04 24             	mov    %eax,(%esp)
    36b2:	e8 99 7c 01 00       	call   1b350 <free>
    36b7:	c7 45 d4 fe ff ff ff 	movl   $0xfffffffe,-0x2c(%ebp)
    36be:	8b 45 d4             	mov    -0x2c(%ebp),%eax
    36c1:	eb a7                	jmp    366a <usb_request_get_supported_languages+0xfa>
    36c3:	8d b6 00 00 00 00    	lea    0x0(%esi),%esi
    36c9:	8d bc 27 00 00 00 00 	lea    0x0(%edi,%eiz,1),%edi

000036d0 <usb_request_get_string>:
    36d0:	55                   	push   %ebp
    36d1:	89 e5                	mov    %esp,%ebp
    36d3:	57                   	push   %edi
    36d4:	56                   	push   %esi
    36d5:	53                   	push   %ebx
    36d6:	83 ec 4c             	sub    $0x4c,%esp
    36d9:	8b 5d 14             	mov    0x14(%ebp),%ebx
    36dc:	8b 45 0c             	mov    0xc(%ebp),%eax
    36df:	8b 55 10             	mov    0x10(%ebp),%edx
    36e2:	85 db                	test   %ebx,%ebx
    36e4:	0f 84 58 01 00 00    	je     3842 <usb_request_get_string+0x172>
    36ea:	8d 48 ff             	lea    -0x1(%eax),%ecx
    36ed:	81 f9 fe 00 00 00    	cmp    $0xfe,%ecx
    36f3:	0f 87 2f 01 00 00    	ja     3828 <usb_request_get_string+0x158>
    36f9:	81 fa ff ff 00 00    	cmp    $0xffff,%edx
    36ff:	0f 87 23 01 00 00    	ja     3828 <usb_request_get_string+0x158>
    3705:	8d 4d e4             	lea    -0x1c(%ebp),%ecx
    3708:	89 44 24 10          	mov    %eax,0x10(%esp)
    370c:	89 4c 24 1c          	mov    %ecx,0x1c(%esp)
    3710:	8b 45 08             	mov    0x8(%ebp),%eax
    3713:	8d 4d e0             	lea    -0x20(%ebp),%ecx
    3716:	89 54 24 14          	mov    %edx,0x14(%esp)
    371a:	89 4c 24 18          	mov    %ecx,0x18(%esp)
    371e:	c7 44 24 0c 03 00 00 	movl   $0x3,0xc(%esp)
    3725:	00 
    3726:	c7 44 24 08 00 00 00 	movl   $0x0,0x8(%esp)
    372d:	00 
    372e:	c7 44 24 04 00 00 00 	movl   $0x0,0x4(%esp)
    3735:	00 
    3736:	89 04 24             	mov    %eax,(%esp)
    3739:	c7 45 e0 00 00 00 00 	movl   $0x0,-0x20(%ebp)
    3740:	e8 6b f6 ff ff       	call   2db0 <usb_request_get_descriptor_alloc>
    3745:	31 f6                	xor    %esi,%esi
    3747:	89 c3                	mov    %eax,%ebx
    3749:	85 c0                	test   %eax,%eax
    374b:	74 2b                	je     3778 <usb_request_get_string+0xa8>
    374d:	8b 45 e0             	mov    -0x20(%ebp),%eax
    3750:	85 c0                	test   %eax,%eax
    3752:	74 08                	je     375c <usb_request_get_string+0x8c>
    3754:	89 04 24             	mov    %eax,(%esp)
    3757:	e8 f4 7b 01 00       	call   1b350 <free>
    375c:	85 f6                	test   %esi,%esi
    375e:	74 08                	je     3768 <usb_request_get_string+0x98>
    3760:	89 34 24             	mov    %esi,(%esp)
    3763:	e8 e8 7b 01 00       	call   1b350 <free>
    3768:	83 c4 4c             	add    $0x4c,%esp
    376b:	89 d8                	mov    %ebx,%eax
    376d:	5b                   	pop    %ebx
    376e:	5e                   	pop    %esi
    376f:	5f                   	pop    %edi
    3770:	5d                   	pop    %ebp
    3771:	c3                   	ret    
    3772:	8d b6 00 00 00 00    	lea    0x0(%esi),%esi
    3778:	8b 45 e4             	mov    -0x1c(%ebp),%eax
    377b:	83 f8 02             	cmp    $0x2,%eax
    377e:	76 18                	jbe    3798 <usb_request_get_string+0xc8>
    3780:	83 e8 02             	sub    $0x2,%eax
    3783:	89 45 e4             	mov    %eax,-0x1c(%ebp)
    3786:	a8 01                	test   $0x1,%al
    3788:	74 1e                	je     37a8 <usb_request_get_string+0xd8>
    378a:	89 de                	mov    %ebx,%esi
    378c:	bb d3 fe ff ff       	mov    $0xfffffed3,%ebx
    3791:	eb ba                	jmp    374d <usb_request_get_string+0x7d>
    3793:	90                   	nop
    3794:	8d 74 26 00          	lea    0x0(%esi,%eiz,1),%esi
    3798:	89 de                	mov    %ebx,%esi
    379a:	bb d2 fe ff ff       	mov    $0xfffffed2,%ebx
    379f:	eb ac                	jmp    374d <usb_request_get_string+0x7d>
    37a1:	8d b4 26 00 00 00 00 	lea    0x0(%esi,%eiz,1),%esi
    37a8:	d1 e8                	shr    %eax
    37aa:	89 45 d4             	mov    %eax,-0x2c(%ebp)
    37ad:	8d 04 85 04 00 00 00 	lea    0x4(,%eax,4),%eax
    37b4:	89 04 24             	mov    %eax,(%esp)
    37b7:	e8 84 7a 01 00       	call   1b240 <malloc>
    37bc:	89 c6                	mov    %eax,%esi
    37be:	85 c0                	test   %eax,%eax
    37c0:	74 76                	je     3838 <usb_request_get_string+0x168>
    37c2:	8b 4d d4             	mov    -0x2c(%ebp),%ecx
    37c5:	85 c9                	test   %ecx,%ecx
    37c7:	74 38                	je     3801 <usb_request_get_string+0x131>
    37c9:	8b 4d e0             	mov    -0x20(%ebp),%ecx
    37cc:	31 c0                	xor    %eax,%eax
    37ce:	89 5d d0             	mov    %ebx,-0x30(%ebp)
    37d1:	8d b4 26 00 00 00 00 	lea    0x0(%esi,%eiz,1),%esi
    37d8:	31 d2                	xor    %edx,%edx
    37da:	8a 54 41 03          	mov    0x3(%ecx,%eax,2),%dl
    37de:	40                   	inc    %eax
    37df:	c1 e2 08             	shl    $0x8,%edx
    37e2:	8a 1c 41             	mov    (%ecx,%eax,2),%bl
    37e5:	81 e3 ff 00 00 00    	and    $0xff,%ebx
    37eb:	89 df                	mov    %ebx,%edi
    37ed:	01 fa                	add    %edi,%edx
    37ef:	81 e2 ff ff 00 00    	and    $0xffff,%edx
    37f5:	3b 45 d4             	cmp    -0x2c(%ebp),%eax
    37f8:	89 54 86 fc          	mov    %edx,-0x4(%esi,%eax,4)
    37fc:	75 da                	jne    37d8 <usb_request_get_string+0x108>
    37fe:	8b 5d d0             	mov    -0x30(%ebp),%ebx
    3801:	8b 55 d4             	mov    -0x2c(%ebp),%edx
    3804:	c7 04 96 00 00 00 00 	movl   $0x0,(%esi,%edx,4)
    380b:	89 34 24             	mov    %esi,(%esp)
    380e:	e8 1d c9 00 00       	call   10130 <wstr_to_astr>
    3813:	85 c0                	test   %eax,%eax
    3815:	74 21                	je     3838 <usb_request_get_string+0x168>
    3817:	8b 4d 14             	mov    0x14(%ebp),%ecx
    381a:	89 01                	mov    %eax,(%ecx)
    381c:	e9 2c ff ff ff       	jmp    374d <usb_request_get_string+0x7d>
    3821:	8d b4 26 00 00 00 00 	lea    0x0(%esi,%eiz,1),%esi
    3828:	83 c4 4c             	add    $0x4c,%esp
    382b:	bb f9 fe ff ff       	mov    $0xfffffef9,%ebx
    3830:	89 d8                	mov    %ebx,%eax
    3832:	5b                   	pop    %ebx
    3833:	5e                   	pop    %esi
    3834:	5f                   	pop    %edi
    3835:	5d                   	pop    %ebp
    3836:	c3                   	ret    
    3837:	90                   	nop
    3838:	bb fe ff ff ff       	mov    $0xfffffffe,%ebx
    383d:	e9 0b ff ff ff       	jmp    374d <usb_request_get_string+0x7d>
    3842:	bb f6 ff ff ff       	mov    $0xfffffff6,%ebx
    3847:	e9 1c ff ff ff       	jmp    3768 <usb_request_get_string+0x98>
    384c:	8d 74 26 00          	lea    0x0(%esi,%eiz,1),%esi

00003850 <usb_request_clear_endpoint_halt>:
    3850:	55                   	push   %ebp
    3851:	89 e5                	mov    %esp,%ebp
    3853:	83 ec 38             	sub    $0x38,%esp
    3856:	8b 45 08             	mov    0x8(%ebp),%eax
    3859:	8b 55 0c             	mov    0xc(%ebp),%edx
    385c:	85 c0                	test   %eax,%eax
    385e:	74 41                	je     38a1 <usb_request_clear_endpoint_halt+0x51>
    3860:	66 89 55 f4          	mov    %dx,-0xc(%ebp)
    3864:	8d 55 f0             	lea    -0x10(%ebp),%edx
    3867:	c7 44 24 10 00 00 00 	movl   $0x0,0x10(%esp)
    386e:	00 
    386f:	c7 44 24 0c 00 00 00 	movl   $0x0,0xc(%esp)
    3876:	00 
    3877:	c7 44 24 08 08 00 00 	movl   $0x8,0x8(%esp)
    387e:	00 
    387f:	89 54 24 04          	mov    %edx,0x4(%esp)
    3883:	89 04 24             	mov    %eax,(%esp)
    3886:	c6 45 f0 02          	movb   $0x2,-0x10(%ebp)
    388a:	c6 45 f1 01          	movb   $0x1,-0xf(%ebp)
    388e:	66 c7 45 f2 00 00    	movw   $0x0,-0xe(%ebp)
    3894:	66 c7 45 f6 00 00    	movw   $0x0,-0xa(%ebp)
    389a:	e8 31 e8 ff ff       	call   20d0 <usb_pipe_control_write>
    389f:	c9                   	leave  
    38a0:	c3                   	ret    
    38a1:	b8 f6 ff ff ff       	mov    $0xfffffff6,%eax
    38a6:	c9                   	leave  
    38a7:	c3                   	ret    
    38a8:	90                   	nop
    38a9:	8d b4 26 00 00 00 00 	lea    0x0(%esi,%eiz,1),%esi

000038b0 <usb_pipe_clear_halt>:
    38b0:	55                   	push   %ebp
    38b1:	89 e5                	mov    %esp,%ebp
    38b3:	83 ec 38             	sub    $0x38,%esp
    38b6:	8b 45 0c             	mov    0xc(%ebp),%eax
    38b9:	8b 55 08             	mov    0x8(%ebp),%edx
    38bc:	85 c0                	test   %eax,%eax
    38be:	74 48                	je     3908 <usb_pipe_clear_halt+0x58>
    38c0:	85 d2                	test   %edx,%edx
    38c2:	74 44                	je     3908 <usb_pipe_clear_halt+0x58>
    38c4:	8b 40 04             	mov    0x4(%eax),%eax
    38c7:	c7 44 24 10 00 00 00 	movl   $0x0,0x10(%esp)
    38ce:	00 
    38cf:	66 89 45 f4          	mov    %ax,-0xc(%ebp)
    38d3:	8d 45 f0             	lea    -0x10(%ebp),%eax
    38d6:	c7 44 24 0c 00 00 00 	movl   $0x0,0xc(%esp)
    38dd:	00 
    38de:	c7 44 24 08 08 00 00 	movl   $0x8,0x8(%esp)
    38e5:	00 
    38e6:	89 44 24 04          	mov    %eax,0x4(%esp)
    38ea:	89 14 24             	mov    %edx,(%esp)
    38ed:	c6 45 f0 02          	movb   $0x2,-0x10(%ebp)
    38f1:	c6 45 f1 01          	movb   $0x1,-0xf(%ebp)
    38f5:	66 c7 45 f2 00 00    	movw   $0x0,-0xe(%ebp)
    38fb:	66 c7 45 f6 00 00    	movw   $0x0,-0xa(%ebp)
    3901:	e8 ca e7 ff ff       	call   20d0 <usb_pipe_control_write>
    3906:	c9                   	leave  
    3907:	c3                   	ret    
    3908:	b8 f2 ff ff ff       	mov    $0xfffffff2,%eax
    390d:	c9                   	leave  
    390e:	c3                   	ret    
    390f:	90                   	nop

00003910 <usb_request_get_endpoint_status>:
    3910:	55                   	push   %ebp
    3911:	89 e5                	mov    %esp,%ebp
    3913:	53                   	push   %ebx
    3914:	83 ec 34             	sub    $0x34,%esp
    3917:	8b 55 0c             	mov    0xc(%ebp),%edx
    391a:	8b 45 08             	mov    0x8(%ebp),%eax
    391d:	8b 5d 10             	mov    0x10(%ebp),%ebx
    3920:	85 c0                	test   %eax,%eax
    3922:	8b 52 04             	mov    0x4(%edx),%edx
    3925:	74 68                	je     398f <usb_request_get_endpoint_status+0x7f>
    3927:	66 89 55 f4          	mov    %dx,-0xc(%ebp)
    392b:	8d 55 ec             	lea    -0x14(%ebp),%edx
    392e:	89 54 24 14          	mov    %edx,0x14(%esp)
    3932:	8d 55 e8             	lea    -0x18(%ebp),%edx
    3935:	89 54 24 0c          	mov    %edx,0xc(%esp)
    3939:	8d 55 f0             	lea    -0x10(%ebp),%edx
    393c:	c7 44 24 10 02 00 00 	movl   $0x2,0x10(%esp)
    3943:	00 
    3944:	c7 44 24 08 08 00 00 	movl   $0x8,0x8(%esp)
    394b:	00 
    394c:	89 54 24 04          	mov    %edx,0x4(%esp)
    3950:	89 04 24             	mov    %eax,(%esp)
    3953:	c6 45 f0 82          	movb   $0x82,-0x10(%ebp)
    3957:	c6 45 f1 00          	movb   $0x0,-0xf(%ebp)
    395b:	66 c7 45 f2 00 00    	movw   $0x0,-0xe(%ebp)
    3961:	66 c7 45 f6 02 00    	movw   $0x2,-0xa(%ebp)
    3967:	e8 04 e6 ff ff       	call   1f70 <usb_pipe_control_read>
    396c:	85 c0                	test   %eax,%eax
    396e:	75 10                	jne    3980 <usb_request_get_endpoint_status+0x70>
    3970:	83 7d ec 02          	cmpl   $0x2,-0x14(%ebp)
    3974:	75 12                	jne    3988 <usb_request_get_endpoint_status+0x78>
    3976:	8b 55 e8             	mov    -0x18(%ebp),%edx
    3979:	85 db                	test   %ebx,%ebx
    397b:	74 03                	je     3980 <usb_request_get_endpoint_status+0x70>
    397d:	66 89 13             	mov    %dx,(%ebx)
    3980:	83 c4 34             	add    $0x34,%esp
    3983:	5b                   	pop    %ebx
    3984:	5d                   	pop    %ebp
    3985:	c3                   	ret    
    3986:	66 90                	xchg   %ax,%ax
    3988:	b8 fd ff ff ff       	mov    $0xfffffffd,%eax
    398d:	eb f1                	jmp    3980 <usb_request_get_endpoint_status+0x70>
    398f:	b8 f6 ff ff ff       	mov    $0xfffffff6,%eax
    3994:	eb ea                	jmp    3980 <usb_request_get_endpoint_status+0x70>
    3996:	66 90                	xchg   %ax,%ax
    3998:	66 90                	xchg   %ax,%ax
    399a:	66 90                	xchg   %ax,%ax
    399c:	66 90                	xchg   %ax,%ax
    399e:	66 90                	xchg   %ax,%ax

000039a0 <usb_interface_count_alternates>:
    39a0:	55                   	push   %ebp
    39a1:	89 e5                	mov    %esp,%ebp
    39a3:	57                   	push   %edi
    39a4:	56                   	push   %esi
    39a5:	53                   	push   %ebx
    39a6:	83 ec 3c             	sub    $0x3c,%esp
    39a9:	8b 5d 08             	mov    0x8(%ebp),%ebx
    39ac:	8a 55 10             	mov    0x10(%ebp),%dl
    39af:	8b 45 0c             	mov    0xc(%ebp),%eax
    39b2:	88 55 d3             	mov    %dl,-0x2d(%ebp)
    39b5:	85 db                	test   %ebx,%ebx
    39b7:	0f 84 86 00 00 00    	je     3a43 <usb_interface_count_alternates+0xa3>
    39bd:	85 c0                	test   %eax,%eax
    39bf:	0f 84 9a 00 00 00    	je     3a5f <usb_interface_count_alternates+0xbf>
    39c5:	8d 75 dc             	lea    -0x24(%ebp),%esi
    39c8:	8d 7d d8             	lea    -0x28(%ebp),%edi
    39cb:	89 5c 24 08          	mov    %ebx,0x8(%esp)
    39cf:	89 74 24 04          	mov    %esi,0x4(%esp)
    39d3:	89 3c 24             	mov    %edi,(%esp)
    39d6:	c7 45 d8 e0 a6 02 00 	movl   $0x2a6e0,-0x28(%ebp)
    39dd:	89 5d dc             	mov    %ebx,-0x24(%ebp)
    39e0:	89 45 e0             	mov    %eax,-0x20(%ebp)
    39e3:	c7 45 e4 00 00 00 00 	movl   $0x0,-0x1c(%ebp)
    39ea:	e8 f1 02 00 00       	call   3ce0 <usb_dp_get_nested_descriptor>
    39ef:	c7 45 d4 00 00 00 00 	movl   $0x0,-0x2c(%ebp)
    39f6:	85 c0                	test   %eax,%eax
    39f8:	75 1e                	jne    3a18 <usb_interface_count_alternates+0x78>
    39fa:	eb 3c                	jmp    3a38 <usb_interface_count_alternates+0x98>
    39fc:	8d 74 26 00          	lea    0x0(%esi,%eiz,1),%esi
    3a00:	89 44 24 0c          	mov    %eax,0xc(%esp)
    3a04:	89 5c 24 08          	mov    %ebx,0x8(%esp)
    3a08:	89 74 24 04          	mov    %esi,0x4(%esp)
    3a0c:	89 3c 24             	mov    %edi,(%esp)
    3a0f:	e8 ec 04 00 00       	call   3f00 <usb_dp_get_sibling_descriptor>
    3a14:	85 c0                	test   %eax,%eax
    3a16:	74 20                	je     3a38 <usb_interface_count_alternates+0x98>
    3a18:	80 78 01 04          	cmpb   $0x4,0x1(%eax)
    3a1c:	75 e2                	jne    3a00 <usb_interface_count_alternates+0x60>
    3a1e:	8a 55 d3             	mov    -0x2d(%ebp),%dl
    3a21:	8b 4d d4             	mov    -0x2c(%ebp),%ecx
    3a24:	38 50 02             	cmp    %dl,0x2(%eax)
    3a27:	0f 94 c2             	sete   %dl
    3a2a:	81 e2 ff 00 00 00    	and    $0xff,%edx
    3a30:	01 d1                	add    %edx,%ecx
    3a32:	89 4d d4             	mov    %ecx,-0x2c(%ebp)
    3a35:	eb c9                	jmp    3a00 <usb_interface_count_alternates+0x60>
    3a37:	90                   	nop
    3a38:	8b 45 d4             	mov    -0x2c(%ebp),%eax
    3a3b:	83 c4 3c             	add    $0x3c,%esp
    3a3e:	5b                   	pop    %ebx
    3a3f:	5e                   	pop    %esi
    3a40:	5f                   	pop    %edi
    3a41:	5d                   	pop    %ebp
    3a42:	c3                   	ret    
    3a43:	c7 44 24 08 36 00 00 	movl   $0x36,0x8(%esp)
    3a4a:	00 
    3a4b:	c7 44 24 04 70 a6 02 	movl   $0x2a670,0x4(%esp)
    3a52:	00 
    3a53:	c7 04 24 de a3 02 00 	movl   $0x2a3de,(%esp)
    3a5a:	e8 41 20 02 00       	call   25aa0 <assert_abort>
    3a5f:	c7 44 24 08 37 00 00 	movl   $0x37,0x8(%esp)
    3a66:	00 
    3a67:	c7 44 24 04 70 a6 02 	movl   $0x2a670,0x4(%esp)
    3a6e:	00 
    3a6f:	c7 04 24 f3 a3 02 00 	movl   $0x2a3f3,(%esp)
    3a76:	e8 25 20 02 00       	call   25aa0 <assert_abort>
    3a7b:	90                   	nop
    3a7c:	8d 74 26 00          	lea    0x0(%esi,%eiz,1),%esi

00003a80 <usb_alternate_interfaces_init>:
    3a80:	55                   	push   %ebp
    3a81:	89 e5                	mov    %esp,%ebp
    3a83:	57                   	push   %edi
    3a84:	56                   	push   %esi
    3a85:	53                   	push   %ebx
    3a86:	83 ec 3c             	sub    $0x3c,%esp
    3a89:	8b 45 08             	mov    0x8(%ebp),%eax
    3a8c:	85 c0                	test   %eax,%eax
    3a8e:	0f 84 f6 01 00 00    	je     3c8a <usb_alternate_interfaces_init+0x20a>
    3a94:	8b 7d 0c             	mov    0xc(%ebp),%edi
    3a97:	85 ff                	test   %edi,%edi
    3a99:	0f 84 cf 01 00 00    	je     3c6e <usb_alternate_interfaces_init+0x1ee>
    3a9f:	8b 75 10             	mov    0x10(%ebp),%esi
    3aa2:	85 f6                	test   %esi,%esi
    3aa4:	0f 84 a8 01 00 00    	je     3c52 <usb_alternate_interfaces_init+0x1d2>
    3aaa:	8b 55 08             	mov    0x8(%ebp),%edx
    3aad:	8b 5d 14             	mov    0x14(%ebp),%ebx
    3ab0:	85 db                	test   %ebx,%ebx
    3ab2:	c7 02 00 00 00 00    	movl   $0x0,(%edx)
    3ab8:	c7 42 04 00 00 00 00 	movl   $0x0,0x4(%edx)
    3abf:	c7 42 08 00 00 00 00 	movl   $0x0,0x8(%edx)
    3ac6:	0f 88 24 01 00 00    	js     3bf0 <usb_alternate_interfaces_init+0x170>
    3acc:	8b 55 0c             	mov    0xc(%ebp),%edx
    3acf:	8d 5d dc             	lea    -0x24(%ebp),%ebx
    3ad2:	89 55 dc             	mov    %edx,-0x24(%ebp)
    3ad5:	8b 55 10             	mov    0x10(%ebp),%edx
    3ad8:	89 55 e0             	mov    %edx,-0x20(%ebp)
    3adb:	8d 7d d8             	lea    -0x28(%ebp),%edi
    3ade:	8b 55 0c             	mov    0xc(%ebp),%edx
    3ae1:	8a 45 14             	mov    0x14(%ebp),%al
    3ae4:	89 54 24 08          	mov    %edx,0x8(%esp)
    3ae8:	89 5c 24 04          	mov    %ebx,0x4(%esp)
    3aec:	89 3c 24             	mov    %edi,(%esp)
    3aef:	88 45 cf             	mov    %al,-0x31(%ebp)
    3af2:	c7 45 d8 e0 a6 02 00 	movl   $0x2a6e0,-0x28(%ebp)
    3af9:	c7 45 e4 00 00 00 00 	movl   $0x0,-0x1c(%ebp)
    3b00:	e8 db 01 00 00       	call   3ce0 <usb_dp_get_nested_descriptor>
    3b05:	85 c0                	test   %eax,%eax
    3b07:	0f 84 25 01 00 00    	je     3c32 <usb_alternate_interfaces_init+0x1b2>
    3b0d:	31 f6                	xor    %esi,%esi
    3b0f:	89 75 d0             	mov    %esi,-0x30(%ebp)
    3b12:	8b 75 0c             	mov    0xc(%ebp),%esi
    3b15:	eb 19                	jmp    3b30 <usb_alternate_interfaces_init+0xb0>
    3b17:	90                   	nop
    3b18:	89 44 24 0c          	mov    %eax,0xc(%esp)
    3b1c:	89 74 24 08          	mov    %esi,0x8(%esp)
    3b20:	89 5c 24 04          	mov    %ebx,0x4(%esp)
    3b24:	89 3c 24             	mov    %edi,(%esp)
    3b27:	e8 d4 03 00 00       	call   3f00 <usb_dp_get_sibling_descriptor>
    3b2c:	85 c0                	test   %eax,%eax
    3b2e:	74 20                	je     3b50 <usb_alternate_interfaces_init+0xd0>
    3b30:	80 78 01 04          	cmpb   $0x4,0x1(%eax)
    3b34:	75 e2                	jne    3b18 <usb_alternate_interfaces_init+0x98>
    3b36:	8a 55 cf             	mov    -0x31(%ebp),%dl
    3b39:	8b 4d d0             	mov    -0x30(%ebp),%ecx
    3b3c:	3a 50 02             	cmp    0x2(%eax),%dl
    3b3f:	0f 94 c2             	sete   %dl
    3b42:	81 e2 ff 00 00 00    	and    $0xff,%edx
    3b48:	01 d1                	add    %edx,%ecx
    3b4a:	89 4d d0             	mov    %ecx,-0x30(%ebp)
    3b4d:	eb c9                	jmp    3b18 <usb_alternate_interfaces_init+0x98>
    3b4f:	90                   	nop
    3b50:	8b 55 08             	mov    0x8(%ebp),%edx
    3b53:	8b 75 d0             	mov    -0x30(%ebp),%esi
    3b56:	85 f6                	test   %esi,%esi
    3b58:	89 72 04             	mov    %esi,0x4(%edx)
    3b5b:	0f 84 db 00 00 00    	je     3c3c <usb_alternate_interfaces_init+0x1bc>
    3b61:	89 34 24             	mov    %esi,(%esp)
    3b64:	c7 44 24 04 0c 00 00 	movl   $0xc,0x4(%esp)
    3b6b:	00 
    3b6c:	e8 6f 76 01 00       	call   1b1e0 <calloc>
    3b71:	8b 55 08             	mov    0x8(%ebp),%edx
    3b74:	89 c6                	mov    %eax,%esi
    3b76:	85 c0                	test   %eax,%eax
    3b78:	89 02                	mov    %eax,(%edx)
    3b7a:	0f 84 cb 00 00 00    	je     3c4b <usb_alternate_interfaces_init+0x1cb>
    3b80:	8b 55 0c             	mov    0xc(%ebp),%edx
    3b83:	c7 45 d8 e0 a6 02 00 	movl   $0x2a6e0,-0x28(%ebp)
    3b8a:	89 55 dc             	mov    %edx,-0x24(%ebp)
    3b8d:	8b 55 10             	mov    0x10(%ebp),%edx
    3b90:	89 55 e0             	mov    %edx,-0x20(%ebp)
    3b93:	8b 55 08             	mov    0x8(%ebp),%edx
    3b96:	c7 45 e4 00 00 00 00 	movl   $0x0,-0x1c(%ebp)
    3b9d:	8b 42 04             	mov    0x4(%edx),%eax
    3ba0:	8b 55 0c             	mov    0xc(%ebp),%edx
    3ba3:	89 54 24 08          	mov    %edx,0x8(%esp)
    3ba7:	89 5c 24 04          	mov    %ebx,0x4(%esp)
    3bab:	8d 04 40             	lea    (%eax,%eax,2),%eax
    3bae:	89 3c 24             	mov    %edi,(%esp)
    3bb1:	8d 04 86             	lea    (%esi,%eax,4),%eax
    3bb4:	89 45 d4             	mov    %eax,-0x2c(%ebp)
    3bb7:	e8 24 01 00 00       	call   3ce0 <usb_dp_get_nested_descriptor>
    3bbc:	eb 2d                	jmp    3beb <usb_alternate_interfaces_init+0x16b>
    3bbe:	66 90                	xchg   %ax,%ax
    3bc0:	85 c0                	test   %eax,%eax
    3bc2:	74 2c                	je     3bf0 <usb_alternate_interfaces_init+0x170>
    3bc4:	80 78 01 04          	cmpb   $0x4,0x1(%eax)
    3bc8:	75 0a                	jne    3bd4 <usb_alternate_interfaces_init+0x154>
    3bca:	31 d2                	xor    %edx,%edx
    3bcc:	8a 50 02             	mov    0x2(%eax),%dl
    3bcf:	3b 55 14             	cmp    0x14(%ebp),%edx
    3bd2:	74 2c                	je     3c00 <usb_alternate_interfaces_init+0x180>
    3bd4:	89 44 24 0c          	mov    %eax,0xc(%esp)
    3bd8:	8b 45 dc             	mov    -0x24(%ebp),%eax
    3bdb:	89 44 24 08          	mov    %eax,0x8(%esp)
    3bdf:	89 5c 24 04          	mov    %ebx,0x4(%esp)
    3be3:	89 3c 24             	mov    %edi,(%esp)
    3be6:	e8 15 03 00 00       	call   3f00 <usb_dp_get_sibling_descriptor>
    3beb:	3b 75 d4             	cmp    -0x2c(%ebp),%esi
    3bee:	72 d0                	jb     3bc0 <usb_alternate_interfaces_init+0x140>
    3bf0:	31 c0                	xor    %eax,%eax
    3bf2:	83 c4 3c             	add    $0x3c,%esp
    3bf5:	5b                   	pop    %ebx
    3bf6:	5e                   	pop    %esi
    3bf7:	5f                   	pop    %edi
    3bf8:	5d                   	pop    %ebp
    3bf9:	c3                   	ret    
    3bfa:	8d b6 00 00 00 00    	lea    0x0(%esi),%esi
    3c00:	8d 50 09             	lea    0x9(%eax),%edx
    3c03:	89 06                	mov    %eax,(%esi)
    3c05:	89 56 04             	mov    %edx,0x4(%esi)
    3c08:	89 44 24 0c          	mov    %eax,0xc(%esp)
    3c0c:	8b 45 dc             	mov    -0x24(%ebp),%eax
    3c0f:	89 5c 24 04          	mov    %ebx,0x4(%esp)
    3c13:	89 44 24 08          	mov    %eax,0x8(%esp)
    3c17:	89 3c 24             	mov    %edi,(%esp)
    3c1a:	e8 e1 02 00 00       	call   3f00 <usb_dp_get_sibling_descriptor>
    3c1f:	89 c2                	mov    %eax,%edx
    3c21:	85 c0                	test   %eax,%eax
    3c23:	74 1c                	je     3c41 <usb_alternate_interfaces_init+0x1c1>
    3c25:	8b 4e 04             	mov    0x4(%esi),%ecx
    3c28:	29 ca                	sub    %ecx,%edx
    3c2a:	89 56 08             	mov    %edx,0x8(%esi)
    3c2d:	83 c6 0c             	add    $0xc,%esi
    3c30:	eb b9                	jmp    3beb <usb_alternate_interfaces_init+0x16b>
    3c32:	8b 55 08             	mov    0x8(%ebp),%edx
    3c35:	c7 42 04 00 00 00 00 	movl   $0x0,0x4(%edx)
    3c3c:	83 c8 ff             	or     $0xffffffff,%eax
    3c3f:	eb b1                	jmp    3bf2 <usb_alternate_interfaces_init+0x172>
    3c41:	8b 55 dc             	mov    -0x24(%ebp),%edx
    3c44:	8b 4d e0             	mov    -0x20(%ebp),%ecx
    3c47:	01 ca                	add    %ecx,%edx
    3c49:	eb da                	jmp    3c25 <usb_alternate_interfaces_init+0x1a5>
    3c4b:	b8 fe ff ff ff       	mov    $0xfffffffe,%eax
    3c50:	eb a0                	jmp    3bf2 <usb_alternate_interfaces_init+0x172>
    3c52:	c7 44 24 08 60 00 00 	movl   $0x60,0x8(%esp)
    3c59:	00 
    3c5a:	c7 44 24 04 70 a6 02 	movl   $0x2a670,0x4(%esp)
    3c61:	00 
    3c62:	c7 04 24 f3 a3 02 00 	movl   $0x2a3f3,(%esp)
    3c69:	e8 32 1e 02 00       	call   25aa0 <assert_abort>
    3c6e:	c7 44 24 08 5f 00 00 	movl   $0x5f,0x8(%esp)
    3c75:	00 
    3c76:	c7 44 24 04 70 a6 02 	movl   $0x2a670,0x4(%esp)
    3c7d:	00 
    3c7e:	c7 04 24 de a3 02 00 	movl   $0x2a3de,(%esp)
    3c85:	e8 16 1e 02 00       	call   25aa0 <assert_abort>
    3c8a:	c7 44 24 08 5e 00 00 	movl   $0x5e,0x8(%esp)
    3c91:	00 
    3c92:	c7 44 24 04 70 a6 02 	movl   $0x2a670,0x4(%esp)
    3c99:	00 
    3c9a:	c7 04 24 7f a6 02 00 	movl   $0x2a67f,(%esp)
    3ca1:	e8 fa 1d 02 00       	call   25aa0 <assert_abort>
    3ca6:	8d 76 00             	lea    0x0(%esi),%esi
    3ca9:	8d bc 27 00 00 00 00 	lea    0x0(%edi,%eiz,1),%edi

00003cb0 <usb_alternate_interfaces_deinit>:
    3cb0:	55                   	push   %ebp
    3cb1:	89 e5                	mov    %esp,%ebp
    3cb3:	53                   	push   %ebx
    3cb4:	83 ec 14             	sub    $0x14,%esp
    3cb7:	8b 5d 08             	mov    0x8(%ebp),%ebx
    3cba:	85 db                	test   %ebx,%ebx
    3cbc:	74 10                	je     3cce <usb_alternate_interfaces_deinit+0x1e>
    3cbe:	8b 03                	mov    (%ebx),%eax
    3cc0:	89 04 24             	mov    %eax,(%esp)
    3cc3:	e8 88 76 01 00       	call   1b350 <free>
    3cc8:	c7 03 00 00 00 00    	movl   $0x0,(%ebx)
    3cce:	83 c4 14             	add    $0x14,%esp
    3cd1:	5b                   	pop    %ebx
    3cd2:	5d                   	pop    %ebp
    3cd3:	c3                   	ret    
    3cd4:	66 90                	xchg   %ax,%ax
    3cd6:	66 90                	xchg   %ax,%ax
    3cd8:	66 90                	xchg   %ax,%ax
    3cda:	66 90                	xchg   %ax,%ax
    3cdc:	66 90                	xchg   %ax,%ax
    3cde:	66 90                	xchg   %ax,%ax

00003ce0 <usb_dp_get_nested_descriptor>:
    3ce0:	55                   	push   %ebp
    3ce1:	89 e5                	mov    %esp,%ebp
    3ce3:	57                   	push   %edi
    3ce4:	56                   	push   %esi
    3ce5:	53                   	push   %ebx
    3ce6:	8b 55 10             	mov    0x10(%ebp),%edx
    3ce9:	8b 5d 0c             	mov    0xc(%ebp),%ebx
    3cec:	85 d2                	test   %edx,%edx
    3cee:	0f 84 94 00 00 00    	je     3d88 <usb_dp_get_nested_descriptor+0xa8>
    3cf4:	8b 0b                	mov    (%ebx),%ecx
    3cf6:	31 c0                	xor    %eax,%eax
    3cf8:	39 ca                	cmp    %ecx,%edx
    3cfa:	0f 82 80 00 00 00    	jb     3d80 <usb_dp_get_nested_descriptor+0xa0>
    3d00:	89 d6                	mov    %edx,%esi
    3d02:	8b 5b 04             	mov    0x4(%ebx),%ebx
    3d05:	29 ce                	sub    %ecx,%esi
    3d07:	39 de                	cmp    %ebx,%esi
    3d09:	73 75                	jae    3d80 <usb_dp_get_nested_descriptor+0xa0>
    3d0b:	31 c0                	xor    %eax,%eax
    3d0d:	8a 02                	mov    (%edx),%al
    3d0f:	01 d0                	add    %edx,%eax
    3d11:	74 6d                	je     3d80 <usb_dp_get_nested_descriptor+0xa0>
    3d13:	39 c1                	cmp    %eax,%ecx
    3d15:	77 71                	ja     3d88 <usb_dp_get_nested_descriptor+0xa8>
    3d17:	89 c6                	mov    %eax,%esi
    3d19:	29 ce                	sub    %ecx,%esi
    3d1b:	39 f3                	cmp    %esi,%ebx
    3d1d:	76 69                	jbe    3d88 <usb_dp_get_nested_descriptor+0xa8>
    3d1f:	89 d6                	mov    %edx,%esi
    3d21:	83 cf ff             	or     $0xffffffff,%edi
    3d24:	46                   	inc    %esi
    3d25:	74 15                	je     3d3c <usb_dp_get_nested_descriptor+0x5c>
    3d27:	39 f1                	cmp    %esi,%ecx
    3d29:	77 11                	ja     3d3c <usb_dp_get_nested_descriptor+0x5c>
    3d2b:	29 ce                	sub    %ecx,%esi
    3d2d:	39 f3                	cmp    %esi,%ebx
    3d2f:	76 0b                	jbe    3d3c <usb_dp_get_nested_descriptor+0x5c>
    3d31:	8a 52 01             	mov    0x1(%edx),%dl
    3d34:	81 e2 ff 00 00 00    	and    $0xff,%edx
    3d3a:	89 d7                	mov    %edx,%edi
    3d3c:	89 c2                	mov    %eax,%edx
    3d3e:	83 ce ff             	or     $0xffffffff,%esi
    3d41:	42                   	inc    %edx
    3d42:	74 15                	je     3d59 <usb_dp_get_nested_descriptor+0x79>
    3d44:	39 d1                	cmp    %edx,%ecx
    3d46:	77 11                	ja     3d59 <usb_dp_get_nested_descriptor+0x79>
    3d48:	29 ca                	sub    %ecx,%edx
    3d4a:	39 d3                	cmp    %edx,%ebx
    3d4c:	76 0b                	jbe    3d59 <usb_dp_get_nested_descriptor+0x79>
    3d4e:	8a 50 01             	mov    0x1(%eax),%dl
    3d51:	81 e2 ff 00 00 00    	and    $0xff,%edx
    3d57:	89 d6                	mov    %edx,%esi
    3d59:	8b 55 08             	mov    0x8(%ebp),%edx
    3d5c:	8b 12                	mov    (%edx),%edx
    3d5e:	8b 0a                	mov    (%edx),%ecx
    3d60:	85 c9                	test   %ecx,%ecx
    3d62:	7f 0d                	jg     3d71 <usb_dp_get_nested_descriptor+0x91>
    3d64:	eb 22                	jmp    3d88 <usb_dp_get_nested_descriptor+0xa8>
    3d66:	66 90                	xchg   %ax,%ax
    3d68:	83 c2 08             	add    $0x8,%edx
    3d6b:	8b 0a                	mov    (%edx),%ecx
    3d6d:	85 c9                	test   %ecx,%ecx
    3d6f:	7e 17                	jle    3d88 <usb_dp_get_nested_descriptor+0xa8>
    3d71:	8b 5a 04             	mov    0x4(%edx),%ebx
    3d74:	85 db                	test   %ebx,%ebx
    3d76:	7e 10                	jle    3d88 <usb_dp_get_nested_descriptor+0xa8>
    3d78:	39 ce                	cmp    %ecx,%esi
    3d7a:	75 ec                	jne    3d68 <usb_dp_get_nested_descriptor+0x88>
    3d7c:	39 df                	cmp    %ebx,%edi
    3d7e:	75 e8                	jne    3d68 <usb_dp_get_nested_descriptor+0x88>
    3d80:	5b                   	pop    %ebx
    3d81:	5e                   	pop    %esi
    3d82:	5f                   	pop    %edi
    3d83:	5d                   	pop    %ebp
    3d84:	c3                   	ret    
    3d85:	8d 76 00             	lea    0x0(%esi),%esi
    3d88:	5b                   	pop    %ebx
    3d89:	31 c0                	xor    %eax,%eax
    3d8b:	5e                   	pop    %esi
    3d8c:	5f                   	pop    %edi
    3d8d:	5d                   	pop    %ebp
    3d8e:	c3                   	ret    
    3d8f:	90                   	nop

00003d90 <skip_nested_descriptors>:
    3d90:	55                   	push   %ebp
    3d91:	89 e5                	mov    %esp,%ebp
    3d93:	57                   	push   %edi
    3d94:	56                   	push   %esi
    3d95:	53                   	push   %ebx
    3d96:	83 ec 3c             	sub    $0x3c,%esp
    3d99:	89 45 d0             	mov    %eax,-0x30(%ebp)
    3d9c:	89 55 e4             	mov    %edx,-0x1c(%ebp)
    3d9f:	89 4d d4             	mov    %ecx,-0x2c(%ebp)
    3da2:	89 4c 24 08          	mov    %ecx,0x8(%esp)
    3da6:	89 54 24 04          	mov    %edx,0x4(%esp)
    3daa:	89 04 24             	mov    %eax,(%esp)
    3dad:	e8 2e ff ff ff       	call   3ce0 <usb_dp_get_nested_descriptor>
    3db2:	85 c0                	test   %eax,%eax
    3db4:	0f 84 ee 00 00 00    	je     3ea8 <skip_nested_descriptors+0x118>
    3dba:	89 c1                	mov    %eax,%ecx
    3dbc:	8b 55 e4             	mov    -0x1c(%ebp),%edx
    3dbf:	8b 45 d0             	mov    -0x30(%ebp),%eax
    3dc2:	e8 c9 ff ff ff       	call   3d90 <skip_nested_descriptors>
    3dc7:	8b 75 d0             	mov    -0x30(%ebp),%esi
    3dca:	8b 36                	mov    (%esi),%esi
    3dcc:	89 75 e0             	mov    %esi,-0x20(%ebp)
    3dcf:	8b 1e                	mov    (%esi),%ebx
    3dd1:	8b 75 d4             	mov    -0x2c(%ebp),%esi
    3dd4:	46                   	inc    %esi
    3dd5:	89 5d dc             	mov    %ebx,-0x24(%ebp)
    3dd8:	8b 5d d4             	mov    -0x2c(%ebp),%ebx
    3ddb:	89 75 d8             	mov    %esi,-0x28(%ebp)
    3dde:	85 db                	test   %ebx,%ebx
    3de0:	0f 84 a2 00 00 00    	je     3e88 <skip_nested_descriptors+0xf8>
    3de6:	8b 4d d8             	mov    -0x28(%ebp),%ecx
    3de9:	85 c9                	test   %ecx,%ecx
    3deb:	0f 84 97 00 00 00    	je     3e88 <skip_nested_descriptors+0xf8>
    3df1:	8b 4d e4             	mov    -0x1c(%ebp),%ecx
    3df4:	8b 11                	mov    (%ecx),%edx
    3df6:	83 c9 ff             	or     $0xffffffff,%ecx
    3df9:	39 55 d8             	cmp    %edx,-0x28(%ebp)
    3dfc:	72 15                	jb     3e13 <skip_nested_descriptors+0x83>
    3dfe:	8b 5d d8             	mov    -0x28(%ebp),%ebx
    3e01:	8b 75 e4             	mov    -0x1c(%ebp),%esi
    3e04:	29 d3                	sub    %edx,%ebx
    3e06:	3b 5e 04             	cmp    0x4(%esi),%ebx
    3e09:	73 08                	jae    3e13 <skip_nested_descriptors+0x83>
    3e0b:	8b 55 d4             	mov    -0x2c(%ebp),%edx
    3e0e:	31 c9                	xor    %ecx,%ecx
    3e10:	8a 4a 01             	mov    0x1(%edx),%cl
    3e13:	85 c0                	test   %eax,%eax
    3e15:	74 79                	je     3e90 <skip_nested_descriptors+0x100>
    3e17:	89 c2                	mov    %eax,%edx
    3e19:	42                   	inc    %edx
    3e1a:	74 74                	je     3e90 <skip_nested_descriptors+0x100>
    3e1c:	8b 75 e4             	mov    -0x1c(%ebp),%esi
    3e1f:	83 cf ff             	or     $0xffffffff,%edi
    3e22:	8b 1e                	mov    (%esi),%ebx
    3e24:	39 da                	cmp    %ebx,%edx
    3e26:	72 12                	jb     3e3a <skip_nested_descriptors+0xaa>
    3e28:	29 da                	sub    %ebx,%edx
    3e2a:	3b 56 04             	cmp    0x4(%esi),%edx
    3e2d:	73 0b                	jae    3e3a <skip_nested_descriptors+0xaa>
    3e2f:	8a 58 01             	mov    0x1(%eax),%bl
    3e32:	81 e3 ff 00 00 00    	and    $0xff,%ebx
    3e38:	89 df                	mov    %ebx,%edi
    3e3a:	8b 55 dc             	mov    -0x24(%ebp),%edx
    3e3d:	85 d2                	test   %edx,%edx
    3e3f:	7e 5f                	jle    3ea0 <skip_nested_descriptors+0x110>
    3e41:	8b 5d e0             	mov    -0x20(%ebp),%ebx
    3e44:	8b 73 04             	mov    0x4(%ebx),%esi
    3e47:	85 f6                	test   %esi,%esi
    3e49:	7e 55                	jle    3ea0 <skip_nested_descriptors+0x110>
    3e4b:	89 da                	mov    %ebx,%edx
    3e4d:	8b 5d dc             	mov    -0x24(%ebp),%ebx
    3e50:	eb 16                	jmp    3e68 <skip_nested_descriptors+0xd8>
    3e52:	8d b6 00 00 00 00    	lea    0x0(%esi),%esi
    3e58:	83 c2 08             	add    $0x8,%edx
    3e5b:	8b 1a                	mov    (%edx),%ebx
    3e5d:	85 db                	test   %ebx,%ebx
    3e5f:	7e 3f                	jle    3ea0 <skip_nested_descriptors+0x110>
    3e61:	8b 72 04             	mov    0x4(%edx),%esi
    3e64:	85 f6                	test   %esi,%esi
    3e66:	7e 38                	jle    3ea0 <skip_nested_descriptors+0x110>
    3e68:	39 df                	cmp    %ebx,%edi
    3e6a:	75 ec                	jne    3e58 <skip_nested_descriptors+0xc8>
    3e6c:	39 f1                	cmp    %esi,%ecx
    3e6e:	75 e8                	jne    3e58 <skip_nested_descriptors+0xc8>
    3e70:	89 c1                	mov    %eax,%ecx
    3e72:	8b 55 e4             	mov    -0x1c(%ebp),%edx
    3e75:	8b 45 d0             	mov    -0x30(%ebp),%eax
    3e78:	e8 13 ff ff ff       	call   3d90 <skip_nested_descriptors>
    3e7d:	8b 5d d4             	mov    -0x2c(%ebp),%ebx
    3e80:	85 db                	test   %ebx,%ebx
    3e82:	0f 85 5e ff ff ff    	jne    3de6 <skip_nested_descriptors+0x56>
    3e88:	83 c9 ff             	or     $0xffffffff,%ecx
    3e8b:	85 c0                	test   %eax,%eax
    3e8d:	75 88                	jne    3e17 <skip_nested_descriptors+0x87>
    3e8f:	90                   	nop
    3e90:	8b 55 dc             	mov    -0x24(%ebp),%edx
    3e93:	83 cf ff             	or     $0xffffffff,%edi
    3e96:	85 d2                	test   %edx,%edx
    3e98:	7f a7                	jg     3e41 <skip_nested_descriptors+0xb1>
    3e9a:	8d b6 00 00 00 00    	lea    0x0(%esi),%esi
    3ea0:	83 c4 3c             	add    $0x3c,%esp
    3ea3:	5b                   	pop    %ebx
    3ea4:	5e                   	pop    %esi
    3ea5:	5f                   	pop    %edi
    3ea6:	5d                   	pop    %ebp
    3ea7:	c3                   	ret    
    3ea8:	8b 75 d4             	mov    -0x2c(%ebp),%esi
    3eab:	85 f6                	test   %esi,%esi
    3ead:	74 3a                	je     3ee9 <skip_nested_descriptors+0x159>
    3eaf:	8b 45 e4             	mov    -0x1c(%ebp),%eax
    3eb2:	8b 10                	mov    (%eax),%edx
    3eb4:	39 55 d4             	cmp    %edx,-0x2c(%ebp)
    3eb7:	72 30                	jb     3ee9 <skip_nested_descriptors+0x159>
    3eb9:	8b 48 04             	mov    0x4(%eax),%ecx
    3ebc:	8b 45 d4             	mov    -0x2c(%ebp),%eax
    3ebf:	29 d0                	sub    %edx,%eax
    3ec1:	39 c8                	cmp    %ecx,%eax
    3ec3:	73 24                	jae    3ee9 <skip_nested_descriptors+0x159>
    3ec5:	8b 75 d4             	mov    -0x2c(%ebp),%esi
    3ec8:	31 c0                	xor    %eax,%eax
    3eca:	8a 06                	mov    (%esi),%al
    3ecc:	01 f0                	add    %esi,%eax
    3ece:	74 d0                	je     3ea0 <skip_nested_descriptors+0x110>
    3ed0:	39 c2                	cmp    %eax,%edx
    3ed2:	77 1a                	ja     3eee <skip_nested_descriptors+0x15e>
    3ed4:	89 c3                	mov    %eax,%ebx
    3ed6:	29 d3                	sub    %edx,%ebx
    3ed8:	39 d9                	cmp    %ebx,%ecx
    3eda:	0f 97 c2             	seta   %dl
    3edd:	81 e2 ff 00 00 00    	and    $0xff,%edx
    3ee3:	f7 da                	neg    %edx
    3ee5:	21 d0                	and    %edx,%eax
    3ee7:	eb b7                	jmp    3ea0 <skip_nested_descriptors+0x110>
    3ee9:	e8 63 0a 00 00       	call   4951 <get_next_descriptor.part.1>
    3eee:	31 c0                	xor    %eax,%eax
    3ef0:	eb ae                	jmp    3ea0 <skip_nested_descriptors+0x110>
    3ef2:	8d b4 26 00 00 00 00 	lea    0x0(%esi,%eiz,1),%esi
    3ef9:	8d bc 27 00 00 00 00 	lea    0x0(%edi,%eiz,1),%edi

00003f00 <usb_dp_get_sibling_descriptor>:
    3f00:	55                   	push   %ebp
    3f01:	89 e5                	mov    %esp,%ebp
    3f03:	57                   	push   %edi
    3f04:	56                   	push   %esi
    3f05:	53                   	push   %ebx
    3f06:	83 ec 0c             	sub    $0xc,%esp
    3f09:	8b 75 10             	mov    0x10(%ebp),%esi
    3f0c:	8b 55 0c             	mov    0xc(%ebp),%edx
    3f0f:	85 f6                	test   %esi,%esi
    3f11:	0f 84 a1 00 00 00    	je     3fb8 <usb_dp_get_sibling_descriptor+0xb8>
    3f17:	8b 1a                	mov    (%edx),%ebx
    3f19:	31 c0                	xor    %eax,%eax
    3f1b:	39 de                	cmp    %ebx,%esi
    3f1d:	0f 82 8d 00 00 00    	jb     3fb0 <usb_dp_get_sibling_descriptor+0xb0>
    3f23:	89 f1                	mov    %esi,%ecx
    3f25:	8b 7a 04             	mov    0x4(%edx),%edi
    3f28:	29 d9                	sub    %ebx,%ecx
    3f2a:	39 f9                	cmp    %edi,%ecx
    3f2c:	0f 83 7e 00 00 00    	jae    3fb0 <usb_dp_get_sibling_descriptor+0xb0>
    3f32:	8b 4d 14             	mov    0x14(%ebp),%ecx
    3f35:	85 c9                	test   %ecx,%ecx
    3f37:	74 77                	je     3fb0 <usb_dp_get_sibling_descriptor+0xb0>
    3f39:	39 5d 14             	cmp    %ebx,0x14(%ebp)
    3f3c:	72 72                	jb     3fb0 <usb_dp_get_sibling_descriptor+0xb0>
    3f3e:	8b 4d 14             	mov    0x14(%ebp),%ecx
    3f41:	29 d9                	sub    %ebx,%ecx
    3f43:	39 cf                	cmp    %ecx,%edi
    3f45:	76 69                	jbe    3fb0 <usb_dp_get_sibling_descriptor+0xb0>
    3f47:	8b 4d 14             	mov    0x14(%ebp),%ecx
    3f4a:	8b 45 08             	mov    0x8(%ebp),%eax
    3f4d:	e8 3e fe ff ff       	call   3d90 <skip_nested_descriptors>
    3f52:	85 c0                	test   %eax,%eax
    3f54:	74 5a                	je     3fb0 <usb_dp_get_sibling_descriptor+0xb0>
    3f56:	89 f2                	mov    %esi,%edx
    3f58:	83 c9 ff             	or     $0xffffffff,%ecx
    3f5b:	42                   	inc    %edx
    3f5c:	74 0f                	je     3f6d <usb_dp_get_sibling_descriptor+0x6d>
    3f5e:	39 d3                	cmp    %edx,%ebx
    3f60:	77 0b                	ja     3f6d <usb_dp_get_sibling_descriptor+0x6d>
    3f62:	29 da                	sub    %ebx,%edx
    3f64:	39 d7                	cmp    %edx,%edi
    3f66:	76 05                	jbe    3f6d <usb_dp_get_sibling_descriptor+0x6d>
    3f68:	31 c9                	xor    %ecx,%ecx
    3f6a:	8a 4e 01             	mov    0x1(%esi),%cl
    3f6d:	89 c2                	mov    %eax,%edx
    3f6f:	83 ce ff             	or     $0xffffffff,%esi
    3f72:	42                   	inc    %edx
    3f73:	74 15                	je     3f8a <usb_dp_get_sibling_descriptor+0x8a>
    3f75:	39 d3                	cmp    %edx,%ebx
    3f77:	77 11                	ja     3f8a <usb_dp_get_sibling_descriptor+0x8a>
    3f79:	29 da                	sub    %ebx,%edx
    3f7b:	39 d7                	cmp    %edx,%edi
    3f7d:	76 0b                	jbe    3f8a <usb_dp_get_sibling_descriptor+0x8a>
    3f7f:	8a 50 01             	mov    0x1(%eax),%dl
    3f82:	81 e2 ff 00 00 00    	and    $0xff,%edx
    3f88:	89 d6                	mov    %edx,%esi
    3f8a:	8b 5d 08             	mov    0x8(%ebp),%ebx
    3f8d:	8b 13                	mov    (%ebx),%edx
    3f8f:	8b 1a                	mov    (%edx),%ebx
    3f91:	85 db                	test   %ebx,%ebx
    3f93:	7f 0c                	jg     3fa1 <usb_dp_get_sibling_descriptor+0xa1>
    3f95:	eb 21                	jmp    3fb8 <usb_dp_get_sibling_descriptor+0xb8>
    3f97:	90                   	nop
    3f98:	83 c2 08             	add    $0x8,%edx
    3f9b:	8b 1a                	mov    (%edx),%ebx
    3f9d:	85 db                	test   %ebx,%ebx
    3f9f:	7e 17                	jle    3fb8 <usb_dp_get_sibling_descriptor+0xb8>
    3fa1:	8b 7a 04             	mov    0x4(%edx),%edi
    3fa4:	85 ff                	test   %edi,%edi
    3fa6:	7e 10                	jle    3fb8 <usb_dp_get_sibling_descriptor+0xb8>
    3fa8:	39 de                	cmp    %ebx,%esi
    3faa:	75 ec                	jne    3f98 <usb_dp_get_sibling_descriptor+0x98>
    3fac:	39 f9                	cmp    %edi,%ecx
    3fae:	75 e8                	jne    3f98 <usb_dp_get_sibling_descriptor+0x98>
    3fb0:	83 c4 0c             	add    $0xc,%esp
    3fb3:	5b                   	pop    %ebx
    3fb4:	5e                   	pop    %esi
    3fb5:	5f                   	pop    %edi
    3fb6:	5d                   	pop    %ebp
    3fb7:	c3                   	ret    
    3fb8:	83 c4 0c             	add    $0xc,%esp
    3fbb:	31 c0                	xor    %eax,%eax
    3fbd:	5b                   	pop    %ebx
    3fbe:	5e                   	pop    %esi
    3fbf:	5f                   	pop    %edi
    3fc0:	5d                   	pop    %ebp
    3fc1:	c3                   	ret    
    3fc2:	8d b4 26 00 00 00 00 	lea    0x0(%esi,%eiz,1),%esi
    3fc9:	8d bc 27 00 00 00 00 	lea    0x0(%edi,%eiz,1),%edi

00003fd0 <usb_dp_browse_simple_internal>:
    3fd0:	55                   	push   %ebp
    3fd1:	89 e5                	mov    %esp,%ebp
    3fd3:	57                   	push   %edi
    3fd4:	56                   	push   %esi
    3fd5:	53                   	push   %ebx
    3fd6:	83 ec 6c             	sub    $0x6c,%esp
    3fd9:	89 4d b0             	mov    %ecx,-0x50(%ebp)
    3fdc:	85 c9                	test   %ecx,%ecx
    3fde:	0f 84 7e 06 00 00    	je     4662 <usb_dp_browse_simple_internal+0x692>
    3fe4:	8b 5d 10             	mov    0x10(%ebp),%ebx
    3fe7:	89 0c 24             	mov    %ecx,(%esp)
    3fea:	89 5c 24 08          	mov    %ebx,0x8(%esp)
    3fee:	8b 5d 08             	mov    0x8(%ebp),%ebx
    3ff1:	89 5c 24 04          	mov    %ebx,0x4(%esp)
    3ff5:	8b 5d 0c             	mov    0xc(%ebp),%ebx
    3ff8:	89 c6                	mov    %eax,%esi
    3ffa:	89 d7                	mov    %edx,%edi
    3ffc:	ff d3                	call   *%ebx
    3ffe:	8b 4d b0             	mov    -0x50(%ebp),%ecx
    4001:	89 4c 24 08          	mov    %ecx,0x8(%esp)
    4005:	89 7c 24 04          	mov    %edi,0x4(%esp)
    4009:	89 34 24             	mov    %esi,(%esp)
    400c:	e8 cf fc ff ff       	call   3ce0 <usb_dp_get_nested_descriptor>
    4011:	8b 5d 08             	mov    0x8(%ebp),%ebx
    4014:	43                   	inc    %ebx
    4015:	89 45 b8             	mov    %eax,-0x48(%ebp)
    4018:	89 5d ac             	mov    %ebx,-0x54(%ebp)
    401b:	85 c0                	test   %eax,%eax
    401d:	0f 84 1a 06 00 00    	je     463d <usb_dp_browse_simple_internal+0x66d>
    4023:	8b 5d 10             	mov    0x10(%ebp),%ebx
    4026:	89 04 24             	mov    %eax,(%esp)
    4029:	89 5c 24 08          	mov    %ebx,0x8(%esp)
    402d:	8b 5d ac             	mov    -0x54(%ebp),%ebx
    4030:	89 5c 24 04          	mov    %ebx,0x4(%esp)
    4034:	8b 5d 0c             	mov    0xc(%ebp),%ebx
    4037:	ff d3                	call   *%ebx
    4039:	8b 07                	mov    (%edi),%eax
    403b:	c7 45 c8 00 00 00 00 	movl   $0x0,-0x38(%ebp)
    4042:	39 45 b8             	cmp    %eax,-0x48(%ebp)
    4045:	72 10                	jb     4057 <usb_dp_browse_simple_internal+0x87>
    4047:	8b 4d b8             	mov    -0x48(%ebp),%ecx
    404a:	8b 57 04             	mov    0x4(%edi),%edx
    404d:	29 c1                	sub    %eax,%ecx
    404f:	39 d1                	cmp    %edx,%ecx
    4051:	0f 82 39 06 00 00    	jb     4690 <usb_dp_browse_simple_internal+0x6c0>
    4057:	8b 5d 08             	mov    0x8(%ebp),%ebx
    405a:	8b 45 c8             	mov    -0x38(%ebp),%eax
    405d:	83 c3 02             	add    $0x2,%ebx
    4060:	85 c0                	test   %eax,%eax
    4062:	89 5d a4             	mov    %ebx,-0x5c(%ebp)
    4065:	0f 84 ad 05 00 00    	je     4618 <usb_dp_browse_simple_internal+0x648>
    406b:	8b 5d 10             	mov    0x10(%ebp),%ebx
    406e:	8b 45 c8             	mov    -0x38(%ebp),%eax
    4071:	89 5c 24 08          	mov    %ebx,0x8(%esp)
    4075:	8b 5d a4             	mov    -0x5c(%ebp),%ebx
    4078:	89 5c 24 04          	mov    %ebx,0x4(%esp)
    407c:	89 04 24             	mov    %eax,(%esp)
    407f:	8b 5d 0c             	mov    0xc(%ebp),%ebx
    4082:	ff d3                	call   *%ebx
    4084:	8b 07                	mov    (%edi),%eax
    4086:	c7 45 c4 00 00 00 00 	movl   $0x0,-0x3c(%ebp)
    408d:	39 45 c8             	cmp    %eax,-0x38(%ebp)
    4090:	72 10                	jb     40a2 <usb_dp_browse_simple_internal+0xd2>
    4092:	8b 4d c8             	mov    -0x38(%ebp),%ecx
    4095:	8b 57 04             	mov    0x4(%edi),%edx
    4098:	29 c1                	sub    %eax,%ecx
    409a:	39 d1                	cmp    %edx,%ecx
    409c:	0f 82 7f 06 00 00    	jb     4721 <usb_dp_browse_simple_internal+0x751>
    40a2:	8b 5d 08             	mov    0x8(%ebp),%ebx
    40a5:	8b 45 c4             	mov    -0x3c(%ebp),%eax
    40a8:	83 c3 03             	add    $0x3,%ebx
    40ab:	85 c0                	test   %eax,%eax
    40ad:	89 5d a0             	mov    %ebx,-0x60(%ebp)
    40b0:	0f 84 3d 05 00 00    	je     45f3 <usb_dp_browse_simple_internal+0x623>
    40b6:	8b 5d 10             	mov    0x10(%ebp),%ebx
    40b9:	8b 45 c4             	mov    -0x3c(%ebp),%eax
    40bc:	89 5c 24 08          	mov    %ebx,0x8(%esp)
    40c0:	8b 5d a0             	mov    -0x60(%ebp),%ebx
    40c3:	89 5c 24 04          	mov    %ebx,0x4(%esp)
    40c7:	89 04 24             	mov    %eax,(%esp)
    40ca:	8b 5d 0c             	mov    0xc(%ebp),%ebx
    40cd:	ff d3                	call   *%ebx
    40cf:	8b 07                	mov    (%edi),%eax
    40d1:	c7 45 c0 00 00 00 00 	movl   $0x0,-0x40(%ebp)
    40d8:	39 45 c4             	cmp    %eax,-0x3c(%ebp)
    40db:	72 10                	jb     40ed <usb_dp_browse_simple_internal+0x11d>
    40dd:	8b 4d c4             	mov    -0x3c(%ebp),%ecx
    40e0:	8b 57 04             	mov    0x4(%edi),%edx
    40e3:	29 c1                	sub    %eax,%ecx
    40e5:	39 d1                	cmp    %edx,%ecx
    40e7:	0f 82 c4 06 00 00    	jb     47b1 <usb_dp_browse_simple_internal+0x7e1>
    40ed:	8b 5d 08             	mov    0x8(%ebp),%ebx
    40f0:	8b 45 c0             	mov    -0x40(%ebp),%eax
    40f3:	83 c3 04             	add    $0x4,%ebx
    40f6:	85 c0                	test   %eax,%eax
    40f8:	89 5d 9c             	mov    %ebx,-0x64(%ebp)
    40fb:	0f 84 cd 04 00 00    	je     45ce <usb_dp_browse_simple_internal+0x5fe>
    4101:	8b 5d 10             	mov    0x10(%ebp),%ebx
    4104:	8b 45 c0             	mov    -0x40(%ebp),%eax
    4107:	89 5c 24 08          	mov    %ebx,0x8(%esp)
    410b:	8b 5d 9c             	mov    -0x64(%ebp),%ebx
    410e:	89 5c 24 04          	mov    %ebx,0x4(%esp)
    4112:	89 04 24             	mov    %eax,(%esp)
    4115:	8b 5d 0c             	mov    0xc(%ebp),%ebx
    4118:	ff d3                	call   *%ebx
    411a:	8b 07                	mov    (%edi),%eax
    411c:	c7 45 bc 00 00 00 00 	movl   $0x0,-0x44(%ebp)
    4123:	39 45 c0             	cmp    %eax,-0x40(%ebp)
    4126:	72 10                	jb     4138 <usb_dp_browse_simple_internal+0x168>
    4128:	8b 4d c0             	mov    -0x40(%ebp),%ecx
    412b:	8b 57 04             	mov    0x4(%edi),%edx
    412e:	29 c1                	sub    %eax,%ecx
    4130:	39 d1                	cmp    %edx,%ecx
    4132:	0f 82 12 07 00 00    	jb     484a <usb_dp_browse_simple_internal+0x87a>
    4138:	8b 5d 08             	mov    0x8(%ebp),%ebx
    413b:	8b 45 bc             	mov    -0x44(%ebp),%eax
    413e:	83 c3 05             	add    $0x5,%ebx
    4141:	85 c0                	test   %eax,%eax
    4143:	89 5d a8             	mov    %ebx,-0x58(%ebp)
    4146:	0f 84 5d 04 00 00    	je     45a9 <usb_dp_browse_simple_internal+0x5d9>
    414c:	8b 5d 10             	mov    0x10(%ebp),%ebx
    414f:	8b 45 bc             	mov    -0x44(%ebp),%eax
    4152:	89 5c 24 08          	mov    %ebx,0x8(%esp)
    4156:	8b 5d a8             	mov    -0x58(%ebp),%ebx
    4159:	89 5c 24 04          	mov    %ebx,0x4(%esp)
    415d:	89 04 24             	mov    %eax,(%esp)
    4160:	8b 5d 0c             	mov    0xc(%ebp),%ebx
    4163:	ff d3                	call   *%ebx
    4165:	8b 07                	mov    (%edi),%eax
    4167:	c7 45 cc 00 00 00 00 	movl   $0x0,-0x34(%ebp)
    416e:	39 45 bc             	cmp    %eax,-0x44(%ebp)
    4171:	0f 82 a2 00 00 00    	jb     4219 <usb_dp_browse_simple_internal+0x249>
    4177:	8b 4d bc             	mov    -0x44(%ebp),%ecx
    417a:	8b 57 04             	mov    0x4(%edi),%edx
    417d:	29 c1                	sub    %eax,%ecx
    417f:	39 d1                	cmp    %edx,%ecx
    4181:	0f 83 92 00 00 00    	jae    4219 <usb_dp_browse_simple_internal+0x249>
    4187:	8b 5d bc             	mov    -0x44(%ebp),%ebx
    418a:	31 c9                	xor    %ecx,%ecx
    418c:	8a 0b                	mov    (%ebx),%cl
    418e:	01 d9                	add    %ebx,%ecx
    4190:	89 4d cc             	mov    %ecx,-0x34(%ebp)
    4193:	0f 84 80 00 00 00    	je     4219 <usb_dp_browse_simple_internal+0x249>
    4199:	3b 45 cc             	cmp    -0x34(%ebp),%eax
    419c:	77 74                	ja     4212 <usb_dp_browse_simple_internal+0x242>
    419e:	8b 4d cc             	mov    -0x34(%ebp),%ecx
    41a1:	29 c1                	sub    %eax,%ecx
    41a3:	39 ca                	cmp    %ecx,%edx
    41a5:	76 6b                	jbe    4212 <usb_dp_browse_simple_internal+0x242>
    41a7:	8b 4d bc             	mov    -0x44(%ebp),%ecx
    41aa:	83 cb ff             	or     $0xffffffff,%ebx
    41ad:	41                   	inc    %ecx
    41ae:	74 12                	je     41c2 <usb_dp_browse_simple_internal+0x1f2>
    41b0:	39 c8                	cmp    %ecx,%eax
    41b2:	77 0e                	ja     41c2 <usb_dp_browse_simple_internal+0x1f2>
    41b4:	29 c1                	sub    %eax,%ecx
    41b6:	39 ca                	cmp    %ecx,%edx
    41b8:	76 08                	jbe    41c2 <usb_dp_browse_simple_internal+0x1f2>
    41ba:	8b 4d bc             	mov    -0x44(%ebp),%ecx
    41bd:	31 db                	xor    %ebx,%ebx
    41bf:	8a 59 01             	mov    0x1(%ecx),%bl
    41c2:	8b 4d cc             	mov    -0x34(%ebp),%ecx
    41c5:	c7 45 e4 ff ff ff ff 	movl   $0xffffffff,-0x1c(%ebp)
    41cc:	41                   	inc    %ecx
    41cd:	74 15                	je     41e4 <usb_dp_browse_simple_internal+0x214>
    41cf:	39 c8                	cmp    %ecx,%eax
    41d1:	77 11                	ja     41e4 <usb_dp_browse_simple_internal+0x214>
    41d3:	29 c1                	sub    %eax,%ecx
    41d5:	39 ca                	cmp    %ecx,%edx
    41d7:	76 0b                	jbe    41e4 <usb_dp_browse_simple_internal+0x214>
    41d9:	8b 55 cc             	mov    -0x34(%ebp),%edx
    41dc:	31 c0                	xor    %eax,%eax
    41de:	8a 42 01             	mov    0x1(%edx),%al
    41e1:	89 45 e4             	mov    %eax,-0x1c(%ebp)
    41e4:	8b 06                	mov    (%esi),%eax
    41e6:	8b 08                	mov    (%eax),%ecx
    41e8:	85 c9                	test   %ecx,%ecx
    41ea:	7f 0d                	jg     41f9 <usb_dp_browse_simple_internal+0x229>
    41ec:	eb 24                	jmp    4212 <usb_dp_browse_simple_internal+0x242>
    41ee:	66 90                	xchg   %ax,%ax
    41f0:	83 c0 08             	add    $0x8,%eax
    41f3:	8b 08                	mov    (%eax),%ecx
    41f5:	85 c9                	test   %ecx,%ecx
    41f7:	7e 19                	jle    4212 <usb_dp_browse_simple_internal+0x242>
    41f9:	8b 50 04             	mov    0x4(%eax),%edx
    41fc:	85 d2                	test   %edx,%edx
    41fe:	7e 12                	jle    4212 <usb_dp_browse_simple_internal+0x242>
    4200:	39 4d e4             	cmp    %ecx,-0x1c(%ebp)
    4203:	75 eb                	jne    41f0 <usb_dp_browse_simple_internal+0x220>
    4205:	39 d3                	cmp    %edx,%ebx
    4207:	74 10                	je     4219 <usb_dp_browse_simple_internal+0x249>
    4209:	83 c0 08             	add    $0x8,%eax
    420c:	8b 08                	mov    (%eax),%ecx
    420e:	85 c9                	test   %ecx,%ecx
    4210:	7f e7                	jg     41f9 <usb_dp_browse_simple_internal+0x229>
    4212:	c7 45 cc 00 00 00 00 	movl   $0x0,-0x34(%ebp)
    4219:	8b 5d 08             	mov    0x8(%ebp),%ebx
    421c:	8b 45 cc             	mov    -0x34(%ebp),%eax
    421f:	83 c3 06             	add    $0x6,%ebx
    4222:	85 c0                	test   %eax,%eax
    4224:	89 5d 98             	mov    %ebx,-0x68(%ebp)
    4227:	75 25                	jne    424e <usb_dp_browse_simple_internal+0x27e>
    4229:	8b 45 cc             	mov    -0x34(%ebp),%eax
    422c:	89 7c 24 04          	mov    %edi,0x4(%esp)
    4230:	89 44 24 0c          	mov    %eax,0xc(%esp)
    4234:	8b 45 bc             	mov    -0x44(%ebp),%eax
    4237:	89 44 24 08          	mov    %eax,0x8(%esp)
    423b:	89 34 24             	mov    %esi,(%esp)
    423e:	e8 bd fc ff ff       	call   3f00 <usb_dp_get_sibling_descriptor>
    4243:	89 45 cc             	mov    %eax,-0x34(%ebp)
    4246:	85 c0                	test   %eax,%eax
    4248:	0f 84 5b 03 00 00    	je     45a9 <usb_dp_browse_simple_internal+0x5d9>
    424e:	8b 5d 10             	mov    0x10(%ebp),%ebx
    4251:	8b 45 cc             	mov    -0x34(%ebp),%eax
    4254:	89 5c 24 08          	mov    %ebx,0x8(%esp)
    4258:	8b 5d 98             	mov    -0x68(%ebp),%ebx
    425b:	89 5c 24 04          	mov    %ebx,0x4(%esp)
    425f:	89 04 24             	mov    %eax,(%esp)
    4262:	8b 5d 0c             	mov    0xc(%ebp),%ebx
    4265:	ff d3                	call   *%ebx
    4267:	8b 07                	mov    (%edi),%eax
    4269:	c7 45 dc 00 00 00 00 	movl   $0x0,-0x24(%ebp)
    4270:	39 45 cc             	cmp    %eax,-0x34(%ebp)
    4273:	0f 82 a8 00 00 00    	jb     4321 <usb_dp_browse_simple_internal+0x351>
    4279:	8b 4d cc             	mov    -0x34(%ebp),%ecx
    427c:	8b 57 04             	mov    0x4(%edi),%edx
    427f:	29 c1                	sub    %eax,%ecx
    4281:	39 d1                	cmp    %edx,%ecx
    4283:	0f 83 98 00 00 00    	jae    4321 <usb_dp_browse_simple_internal+0x351>
    4289:	8b 5d cc             	mov    -0x34(%ebp),%ebx
    428c:	31 c9                	xor    %ecx,%ecx
    428e:	8a 0b                	mov    (%ebx),%cl
    4290:	01 d9                	add    %ebx,%ecx
    4292:	89 4d dc             	mov    %ecx,-0x24(%ebp)
    4295:	0f 84 86 00 00 00    	je     4321 <usb_dp_browse_simple_internal+0x351>
    429b:	3b 45 dc             	cmp    -0x24(%ebp),%eax
    429e:	0f 87 e0 03 00 00    	ja     4684 <usb_dp_browse_simple_internal+0x6b4>
    42a4:	8b 4d dc             	mov    -0x24(%ebp),%ecx
    42a7:	29 c1                	sub    %eax,%ecx
    42a9:	39 ca                	cmp    %ecx,%edx
    42ab:	0f 86 d3 03 00 00    	jbe    4684 <usb_dp_browse_simple_internal+0x6b4>
    42b1:	8b 4d cc             	mov    -0x34(%ebp),%ecx
    42b4:	c7 45 e4 ff ff ff ff 	movl   $0xffffffff,-0x1c(%ebp)
    42bb:	41                   	inc    %ecx
    42bc:	74 15                	je     42d3 <usb_dp_browse_simple_internal+0x303>
    42be:	39 c8                	cmp    %ecx,%eax
    42c0:	77 11                	ja     42d3 <usb_dp_browse_simple_internal+0x303>
    42c2:	29 c1                	sub    %eax,%ecx
    42c4:	39 ca                	cmp    %ecx,%edx
    42c6:	76 0b                	jbe    42d3 <usb_dp_browse_simple_internal+0x303>
    42c8:	8b 5d cc             	mov    -0x34(%ebp),%ebx
    42cb:	31 c9                	xor    %ecx,%ecx
    42cd:	8a 4b 01             	mov    0x1(%ebx),%cl
    42d0:	89 4d e4             	mov    %ecx,-0x1c(%ebp)
    42d3:	8b 4d dc             	mov    -0x24(%ebp),%ecx
    42d6:	83 cb ff             	or     $0xffffffff,%ebx
    42d9:	41                   	inc    %ecx
    42da:	74 12                	je     42ee <usb_dp_browse_simple_internal+0x31e>
    42dc:	39 c8                	cmp    %ecx,%eax
    42de:	77 0e                	ja     42ee <usb_dp_browse_simple_internal+0x31e>
    42e0:	29 c1                	sub    %eax,%ecx
    42e2:	39 ca                	cmp    %ecx,%edx
    42e4:	76 08                	jbe    42ee <usb_dp_browse_simple_internal+0x31e>
    42e6:	8b 45 dc             	mov    -0x24(%ebp),%eax
    42e9:	31 db                	xor    %ebx,%ebx
    42eb:	8a 58 01             	mov    0x1(%eax),%bl
    42ee:	8b 06                	mov    (%esi),%eax
    42f0:	8b 10                	mov    (%eax),%edx
    42f2:	85 d2                	test   %edx,%edx
    42f4:	7f 17                	jg     430d <usb_dp_browse_simple_internal+0x33d>
    42f6:	e9 89 03 00 00       	jmp    4684 <usb_dp_browse_simple_internal+0x6b4>
    42fb:	90                   	nop
    42fc:	8d 74 26 00          	lea    0x0(%esi,%eiz,1),%esi
    4300:	83 c0 08             	add    $0x8,%eax
    4303:	8b 10                	mov    (%eax),%edx
    4305:	85 d2                	test   %edx,%edx
    4307:	0f 8e 77 03 00 00    	jle    4684 <usb_dp_browse_simple_internal+0x6b4>
    430d:	8b 48 04             	mov    0x4(%eax),%ecx
    4310:	85 c9                	test   %ecx,%ecx
    4312:	0f 8e 6c 03 00 00    	jle    4684 <usb_dp_browse_simple_internal+0x6b4>
    4318:	39 d3                	cmp    %edx,%ebx
    431a:	75 e4                	jne    4300 <usb_dp_browse_simple_internal+0x330>
    431c:	39 4d e4             	cmp    %ecx,-0x1c(%ebp)
    431f:	75 df                	jne    4300 <usb_dp_browse_simple_internal+0x330>
    4321:	8b 5d 08             	mov    0x8(%ebp),%ebx
    4324:	8b 45 dc             	mov    -0x24(%ebp),%eax
    4327:	83 c3 07             	add    $0x7,%ebx
    432a:	85 c0                	test   %eax,%eax
    432c:	89 5d b4             	mov    %ebx,-0x4c(%ebp)
    432f:	75 2c                	jne    435d <usb_dp_browse_simple_internal+0x38d>
    4331:	8d b4 26 00 00 00 00 	lea    0x0(%esi,%eiz,1),%esi
    4338:	8b 45 dc             	mov    -0x24(%ebp),%eax
    433b:	89 7c 24 04          	mov    %edi,0x4(%esp)
    433f:	89 44 24 0c          	mov    %eax,0xc(%esp)
    4343:	8b 45 cc             	mov    -0x34(%ebp),%eax
    4346:	89 44 24 08          	mov    %eax,0x8(%esp)
    434a:	89 34 24             	mov    %esi,(%esp)
    434d:	e8 ae fb ff ff       	call   3f00 <usb_dp_get_sibling_descriptor>
    4352:	89 45 dc             	mov    %eax,-0x24(%ebp)
    4355:	85 c0                	test   %eax,%eax
    4357:	0f 84 cc fe ff ff    	je     4229 <usb_dp_browse_simple_internal+0x259>
    435d:	8b 5d 10             	mov    0x10(%ebp),%ebx
    4360:	8b 45 dc             	mov    -0x24(%ebp),%eax
    4363:	89 5c 24 08          	mov    %ebx,0x8(%esp)
    4367:	8b 5d b4             	mov    -0x4c(%ebp),%ebx
    436a:	89 5c 24 04          	mov    %ebx,0x4(%esp)
    436e:	89 04 24             	mov    %eax,(%esp)
    4371:	8b 5d 0c             	mov    0xc(%ebp),%ebx
    4374:	ff d3                	call   *%ebx
    4376:	8b 07                	mov    (%edi),%eax
    4378:	c7 45 e4 00 00 00 00 	movl   $0x0,-0x1c(%ebp)
    437f:	39 45 dc             	cmp    %eax,-0x24(%ebp)
    4382:	0f 82 b0 00 00 00    	jb     4438 <usb_dp_browse_simple_internal+0x468>
    4388:	8b 55 dc             	mov    -0x24(%ebp),%edx
    438b:	8b 4f 04             	mov    0x4(%edi),%ecx
    438e:	29 c2                	sub    %eax,%edx
    4390:	39 ca                	cmp    %ecx,%edx
    4392:	0f 83 a0 00 00 00    	jae    4438 <usb_dp_browse_simple_internal+0x468>
    4398:	8b 5d dc             	mov    -0x24(%ebp),%ebx
    439b:	31 d2                	xor    %edx,%edx
    439d:	8a 13                	mov    (%ebx),%dl
    439f:	01 da                	add    %ebx,%edx
    43a1:	89 55 e4             	mov    %edx,-0x1c(%ebp)
    43a4:	0f 84 8e 00 00 00    	je     4438 <usb_dp_browse_simple_internal+0x468>
    43aa:	3b 45 e4             	cmp    -0x1c(%ebp),%eax
    43ad:	0f 87 c5 02 00 00    	ja     4678 <usb_dp_browse_simple_internal+0x6a8>
    43b3:	8b 55 e4             	mov    -0x1c(%ebp),%edx
    43b6:	29 c2                	sub    %eax,%edx
    43b8:	39 d1                	cmp    %edx,%ecx
    43ba:	0f 86 b8 02 00 00    	jbe    4678 <usb_dp_browse_simple_internal+0x6a8>
    43c0:	8b 55 dc             	mov    -0x24(%ebp),%edx
    43c3:	c7 45 e0 ff ff ff ff 	movl   $0xffffffff,-0x20(%ebp)
    43ca:	42                   	inc    %edx
    43cb:	74 15                	je     43e2 <usb_dp_browse_simple_internal+0x412>
    43cd:	39 d0                	cmp    %edx,%eax
    43cf:	77 11                	ja     43e2 <usb_dp_browse_simple_internal+0x412>
    43d1:	29 c2                	sub    %eax,%edx
    43d3:	39 d1                	cmp    %edx,%ecx
    43d5:	76 0b                	jbe    43e2 <usb_dp_browse_simple_internal+0x412>
    43d7:	8b 5d dc             	mov    -0x24(%ebp),%ebx
    43da:	31 d2                	xor    %edx,%edx
    43dc:	8a 53 01             	mov    0x1(%ebx),%dl
    43df:	89 55 e0             	mov    %edx,-0x20(%ebp)
    43e2:	8b 55 e4             	mov    -0x1c(%ebp),%edx
    43e5:	83 cb ff             	or     $0xffffffff,%ebx
    43e8:	42                   	inc    %edx
    43e9:	74 12                	je     43fd <usb_dp_browse_simple_internal+0x42d>
    43eb:	39 d0                	cmp    %edx,%eax
    43ed:	77 0e                	ja     43fd <usb_dp_browse_simple_internal+0x42d>
    43ef:	29 c2                	sub    %eax,%edx
    43f1:	39 d1                	cmp    %edx,%ecx
    43f3:	76 08                	jbe    43fd <usb_dp_browse_simple_internal+0x42d>
    43f5:	8b 45 e4             	mov    -0x1c(%ebp),%eax
    43f8:	31 db                	xor    %ebx,%ebx
    43fa:	8a 58 01             	mov    0x1(%eax),%bl
    43fd:	8b 06                	mov    (%esi),%eax
    43ff:	8b 10                	mov    (%eax),%edx
    4401:	85 d2                	test   %edx,%edx
    4403:	7f 18                	jg     441d <usb_dp_browse_simple_internal+0x44d>
    4405:	e9 6e 02 00 00       	jmp    4678 <usb_dp_browse_simple_internal+0x6a8>
    440a:	8d b6 00 00 00 00    	lea    0x0(%esi),%esi
    4410:	83 c0 08             	add    $0x8,%eax
    4413:	8b 10                	mov    (%eax),%edx
    4415:	85 d2                	test   %edx,%edx
    4417:	0f 8e 5b 02 00 00    	jle    4678 <usb_dp_browse_simple_internal+0x6a8>
    441d:	8b 48 04             	mov    0x4(%eax),%ecx
    4420:	85 c9                	test   %ecx,%ecx
    4422:	0f 8e 50 02 00 00    	jle    4678 <usb_dp_browse_simple_internal+0x6a8>
    4428:	39 d3                	cmp    %edx,%ebx
    442a:	75 e4                	jne    4410 <usb_dp_browse_simple_internal+0x440>
    442c:	39 4d e0             	cmp    %ecx,-0x20(%ebp)
    442f:	75 df                	jne    4410 <usb_dp_browse_simple_internal+0x440>
    4431:	8d b4 26 00 00 00 00 	lea    0x0(%esi,%eiz,1),%esi
    4438:	8b 5d 08             	mov    0x8(%ebp),%ebx
    443b:	83 c3 08             	add    $0x8,%ebx
    443e:	89 5d d4             	mov    %ebx,-0x2c(%ebp)
    4441:	8b 5d e4             	mov    -0x1c(%ebp),%ebx
    4444:	85 db                	test   %ebx,%ebx
    4446:	75 25                	jne    446d <usb_dp_browse_simple_internal+0x49d>
    4448:	8b 45 e4             	mov    -0x1c(%ebp),%eax
    444b:	89 7c 24 04          	mov    %edi,0x4(%esp)
    444f:	89 44 24 0c          	mov    %eax,0xc(%esp)
    4453:	8b 45 dc             	mov    -0x24(%ebp),%eax
    4456:	89 44 24 08          	mov    %eax,0x8(%esp)
    445a:	89 34 24             	mov    %esi,(%esp)
    445d:	e8 9e fa ff ff       	call   3f00 <usb_dp_get_sibling_descriptor>
    4462:	89 45 e4             	mov    %eax,-0x1c(%ebp)
    4465:	85 c0                	test   %eax,%eax
    4467:	0f 84 cb fe ff ff    	je     4338 <usb_dp_browse_simple_internal+0x368>
    446d:	8b 5d 10             	mov    0x10(%ebp),%ebx
    4470:	8b 45 e4             	mov    -0x1c(%ebp),%eax
    4473:	89 5c 24 08          	mov    %ebx,0x8(%esp)
    4477:	8b 5d d4             	mov    -0x2c(%ebp),%ebx
    447a:	89 5c 24 04          	mov    %ebx,0x4(%esp)
    447e:	89 04 24             	mov    %eax,(%esp)
    4481:	8b 5d 0c             	mov    0xc(%ebp),%ebx
    4484:	ff d3                	call   *%ebx
    4486:	8b 07                	mov    (%edi),%eax
    4488:	31 db                	xor    %ebx,%ebx
    448a:	39 45 e4             	cmp    %eax,-0x1c(%ebp)
    448d:	0f 82 c5 00 00 00    	jb     4558 <usb_dp_browse_simple_internal+0x588>
    4493:	8b 57 04             	mov    0x4(%edi),%edx
    4496:	89 55 d0             	mov    %edx,-0x30(%ebp)
    4499:	8b 55 e4             	mov    -0x1c(%ebp),%edx
    449c:	29 c2                	sub    %eax,%edx
    449e:	3b 55 d0             	cmp    -0x30(%ebp),%edx
    44a1:	0f 83 b1 00 00 00    	jae    4558 <usb_dp_browse_simple_internal+0x588>
    44a7:	8b 55 e4             	mov    -0x1c(%ebp),%edx
    44aa:	31 db                	xor    %ebx,%ebx
    44ac:	8a 1a                	mov    (%edx),%bl
    44ae:	01 d3                	add    %edx,%ebx
    44b0:	0f 84 a2 00 00 00    	je     4558 <usb_dp_browse_simple_internal+0x588>
    44b6:	39 d8                	cmp    %ebx,%eax
    44b8:	0f 87 b2 01 00 00    	ja     4670 <usb_dp_browse_simple_internal+0x6a0>
    44be:	89 da                	mov    %ebx,%edx
    44c0:	29 c2                	sub    %eax,%edx
    44c2:	39 55 d0             	cmp    %edx,-0x30(%ebp)
    44c5:	0f 86 a5 01 00 00    	jbe    4670 <usb_dp_browse_simple_internal+0x6a0>
    44cb:	8b 55 e4             	mov    -0x1c(%ebp),%edx
    44ce:	c7 45 e0 ff ff ff ff 	movl   $0xffffffff,-0x20(%ebp)
    44d5:	42                   	inc    %edx
    44d6:	74 16                	je     44ee <usb_dp_browse_simple_internal+0x51e>
    44d8:	39 d0                	cmp    %edx,%eax
    44da:	77 12                	ja     44ee <usb_dp_browse_simple_internal+0x51e>
    44dc:	29 c2                	sub    %eax,%edx
    44de:	39 55 d0             	cmp    %edx,-0x30(%ebp)
    44e1:	76 0b                	jbe    44ee <usb_dp_browse_simple_internal+0x51e>
    44e3:	8b 55 e4             	mov    -0x1c(%ebp),%edx
    44e6:	31 c9                	xor    %ecx,%ecx
    44e8:	8a 4a 01             	mov    0x1(%edx),%cl
    44eb:	89 4d e0             	mov    %ecx,-0x20(%ebp)
    44ee:	89 da                	mov    %ebx,%edx
    44f0:	c7 45 d8 ff ff ff ff 	movl   $0xffffffff,-0x28(%ebp)
    44f7:	42                   	inc    %edx
    44f8:	74 13                	je     450d <usb_dp_browse_simple_internal+0x53d>
    44fa:	39 d0                	cmp    %edx,%eax
    44fc:	77 0f                	ja     450d <usb_dp_browse_simple_internal+0x53d>
    44fe:	29 c2                	sub    %eax,%edx
    4500:	39 55 d0             	cmp    %edx,-0x30(%ebp)
    4503:	76 08                	jbe    450d <usb_dp_browse_simple_internal+0x53d>
    4505:	31 c9                	xor    %ecx,%ecx
    4507:	8a 4b 01             	mov    0x1(%ebx),%cl
    450a:	89 4d d8             	mov    %ecx,-0x28(%ebp)
    450d:	8b 16                	mov    (%esi),%edx
    450f:	8b 02                	mov    (%edx),%eax
    4511:	85 c0                	test   %eax,%eax
    4513:	0f 8e 57 01 00 00    	jle    4670 <usb_dp_browse_simple_internal+0x6a0>
    4519:	8b 4a 04             	mov    0x4(%edx),%ecx
    451c:	85 c9                	test   %ecx,%ecx
    451e:	0f 8e 4c 01 00 00    	jle    4670 <usb_dp_browse_simple_internal+0x6a0>
    4524:	89 5d d0             	mov    %ebx,-0x30(%ebp)
    4527:	8b 5d d8             	mov    -0x28(%ebp),%ebx
    452a:	eb 1c                	jmp    4548 <usb_dp_browse_simple_internal+0x578>
    452c:	8d 74 26 00          	lea    0x0(%esi,%eiz,1),%esi
    4530:	83 c2 08             	add    $0x8,%edx
    4533:	8b 02                	mov    (%edx),%eax
    4535:	85 c0                	test   %eax,%eax
    4537:	0f 8e 33 01 00 00    	jle    4670 <usb_dp_browse_simple_internal+0x6a0>
    453d:	8b 4a 04             	mov    0x4(%edx),%ecx
    4540:	85 c9                	test   %ecx,%ecx
    4542:	0f 8e 28 01 00 00    	jle    4670 <usb_dp_browse_simple_internal+0x6a0>
    4548:	39 c3                	cmp    %eax,%ebx
    454a:	75 e4                	jne    4530 <usb_dp_browse_simple_internal+0x560>
    454c:	39 4d e0             	cmp    %ecx,-0x20(%ebp)
    454f:	75 df                	jne    4530 <usb_dp_browse_simple_internal+0x560>
    4551:	8b 5d d0             	mov    -0x30(%ebp),%ebx
    4554:	8d 74 26 00          	lea    0x0(%esi,%eiz,1),%esi
    4558:	8b 4d 08             	mov    0x8(%ebp),%ecx
    455b:	83 c1 09             	add    $0x9,%ecx
    455e:	89 4d e0             	mov    %ecx,-0x20(%ebp)
    4561:	8d b4 26 00 00 00 00 	lea    0x0(%esi,%eiz,1),%esi
    4568:	8b 45 10             	mov    0x10(%ebp),%eax
    456b:	8b 55 0c             	mov    0xc(%ebp),%edx
    456e:	8b 4d e0             	mov    -0x20(%ebp),%ecx
    4571:	89 44 24 08          	mov    %eax,0x8(%esp)
    4575:	89 54 24 04          	mov    %edx,0x4(%esp)
    4579:	89 0c 24             	mov    %ecx,(%esp)
    457c:	89 fa                	mov    %edi,%edx
    457e:	89 d9                	mov    %ebx,%ecx
    4580:	89 f0                	mov    %esi,%eax
    4582:	e8 49 fa ff ff       	call   3fd0 <usb_dp_browse_simple_internal>
    4587:	8b 45 e4             	mov    -0x1c(%ebp),%eax
    458a:	89 5c 24 0c          	mov    %ebx,0xc(%esp)
    458e:	89 44 24 08          	mov    %eax,0x8(%esp)
    4592:	89 7c 24 04          	mov    %edi,0x4(%esp)
    4596:	89 34 24             	mov    %esi,(%esp)
    4599:	e8 62 f9 ff ff       	call   3f00 <usb_dp_get_sibling_descriptor>
    459e:	89 c3                	mov    %eax,%ebx
    45a0:	85 c0                	test   %eax,%eax
    45a2:	75 c4                	jne    4568 <usb_dp_browse_simple_internal+0x598>
    45a4:	e9 9f fe ff ff       	jmp    4448 <usb_dp_browse_simple_internal+0x478>
    45a9:	8b 45 bc             	mov    -0x44(%ebp),%eax
    45ac:	89 7c 24 04          	mov    %edi,0x4(%esp)
    45b0:	89 44 24 0c          	mov    %eax,0xc(%esp)
    45b4:	8b 45 c0             	mov    -0x40(%ebp),%eax
    45b7:	89 44 24 08          	mov    %eax,0x8(%esp)
    45bb:	89 34 24             	mov    %esi,(%esp)
    45be:	e8 3d f9 ff ff       	call   3f00 <usb_dp_get_sibling_descriptor>
    45c3:	89 45 bc             	mov    %eax,-0x44(%ebp)
    45c6:	85 c0                	test   %eax,%eax
    45c8:	0f 85 7e fb ff ff    	jne    414c <usb_dp_browse_simple_internal+0x17c>
    45ce:	8b 45 c0             	mov    -0x40(%ebp),%eax
    45d1:	89 7c 24 04          	mov    %edi,0x4(%esp)
    45d5:	89 44 24 0c          	mov    %eax,0xc(%esp)
    45d9:	8b 45 c4             	mov    -0x3c(%ebp),%eax
    45dc:	89 44 24 08          	mov    %eax,0x8(%esp)
    45e0:	89 34 24             	mov    %esi,(%esp)
    45e3:	e8 18 f9 ff ff       	call   3f00 <usb_dp_get_sibling_descriptor>
    45e8:	89 45 c0             	mov    %eax,-0x40(%ebp)
    45eb:	85 c0                	test   %eax,%eax
    45ed:	0f 85 0e fb ff ff    	jne    4101 <usb_dp_browse_simple_internal+0x131>
    45f3:	8b 45 c4             	mov    -0x3c(%ebp),%eax
    45f6:	89 7c 24 04          	mov    %edi,0x4(%esp)
    45fa:	89 44 24 0c          	mov    %eax,0xc(%esp)
    45fe:	8b 45 c8             	mov    -0x38(%ebp),%eax
    4601:	89 44 24 08          	mov    %eax,0x8(%esp)
    4605:	89 34 24             	mov    %esi,(%esp)
    4608:	e8 f3 f8 ff ff       	call   3f00 <usb_dp_get_sibling_descriptor>
    460d:	89 45 c4             	mov    %eax,-0x3c(%ebp)
    4610:	85 c0                	test   %eax,%eax
    4612:	0f 85 9e fa ff ff    	jne    40b6 <usb_dp_browse_simple_internal+0xe6>
    4618:	8b 45 c8             	mov    -0x38(%ebp),%eax
    461b:	89 7c 24 04          	mov    %edi,0x4(%esp)
    461f:	89 44 24 0c          	mov    %eax,0xc(%esp)
    4623:	8b 45 b8             	mov    -0x48(%ebp),%eax
    4626:	89 44 24 08          	mov    %eax,0x8(%esp)
    462a:	89 34 24             	mov    %esi,(%esp)
    462d:	e8 ce f8 ff ff       	call   3f00 <usb_dp_get_sibling_descriptor>
    4632:	89 45 c8             	mov    %eax,-0x38(%ebp)
    4635:	85 c0                	test   %eax,%eax
    4637:	0f 85 2e fa ff ff    	jne    406b <usb_dp_browse_simple_internal+0x9b>
    463d:	8b 45 b8             	mov    -0x48(%ebp),%eax
    4640:	8b 4d b0             	mov    -0x50(%ebp),%ecx
    4643:	89 44 24 0c          	mov    %eax,0xc(%esp)
    4647:	89 4c 24 08          	mov    %ecx,0x8(%esp)
    464b:	89 7c 24 04          	mov    %edi,0x4(%esp)
    464f:	89 34 24             	mov    %esi,(%esp)
    4652:	e8 a9 f8 ff ff       	call   3f00 <usb_dp_get_sibling_descriptor>
    4657:	89 45 b8             	mov    %eax,-0x48(%ebp)
    465a:	85 c0                	test   %eax,%eax
    465c:	0f 85 c1 f9 ff ff    	jne    4023 <usb_dp_browse_simple_internal+0x53>
    4662:	83 c4 6c             	add    $0x6c,%esp
    4665:	5b                   	pop    %ebx
    4666:	5e                   	pop    %esi
    4667:	5f                   	pop    %edi
    4668:	5d                   	pop    %ebp
    4669:	c3                   	ret    
    466a:	8d b6 00 00 00 00    	lea    0x0(%esi),%esi
    4670:	31 db                	xor    %ebx,%ebx
    4672:	e9 e1 fe ff ff       	jmp    4558 <usb_dp_browse_simple_internal+0x588>
    4677:	90                   	nop
    4678:	c7 45 e4 00 00 00 00 	movl   $0x0,-0x1c(%ebp)
    467f:	e9 b4 fd ff ff       	jmp    4438 <usb_dp_browse_simple_internal+0x468>
    4684:	c7 45 dc 00 00 00 00 	movl   $0x0,-0x24(%ebp)
    468b:	e9 91 fc ff ff       	jmp    4321 <usb_dp_browse_simple_internal+0x351>
    4690:	8b 5d b8             	mov    -0x48(%ebp),%ebx
    4693:	31 c9                	xor    %ecx,%ecx
    4695:	8a 0b                	mov    (%ebx),%cl
    4697:	01 d9                	add    %ebx,%ecx
    4699:	89 4d c8             	mov    %ecx,-0x38(%ebp)
    469c:	0f 84 b5 f9 ff ff    	je     4057 <usb_dp_browse_simple_internal+0x87>
    46a2:	3b 45 c8             	cmp    -0x38(%ebp),%eax
    46a5:	77 63                	ja     470a <usb_dp_browse_simple_internal+0x73a>
    46a7:	8b 4d c8             	mov    -0x38(%ebp),%ecx
    46aa:	29 c1                	sub    %eax,%ecx
    46ac:	39 ca                	cmp    %ecx,%edx
    46ae:	76 5a                	jbe    470a <usb_dp_browse_simple_internal+0x73a>
    46b0:	8b 4d b8             	mov    -0x48(%ebp),%ecx
    46b3:	83 cb ff             	or     $0xffffffff,%ebx
    46b6:	41                   	inc    %ecx
    46b7:	74 12                	je     46cb <usb_dp_browse_simple_internal+0x6fb>
    46b9:	39 c8                	cmp    %ecx,%eax
    46bb:	77 0e                	ja     46cb <usb_dp_browse_simple_internal+0x6fb>
    46bd:	29 c1                	sub    %eax,%ecx
    46bf:	39 ca                	cmp    %ecx,%edx
    46c1:	76 08                	jbe    46cb <usb_dp_browse_simple_internal+0x6fb>
    46c3:	8b 4d b8             	mov    -0x48(%ebp),%ecx
    46c6:	31 db                	xor    %ebx,%ebx
    46c8:	8a 59 01             	mov    0x1(%ecx),%bl
    46cb:	8b 4d c8             	mov    -0x38(%ebp),%ecx
    46ce:	c7 45 e4 ff ff ff ff 	movl   $0xffffffff,-0x1c(%ebp)
    46d5:	41                   	inc    %ecx
    46d6:	74 15                	je     46ed <usb_dp_browse_simple_internal+0x71d>
    46d8:	39 c8                	cmp    %ecx,%eax
    46da:	77 11                	ja     46ed <usb_dp_browse_simple_internal+0x71d>
    46dc:	29 c1                	sub    %eax,%ecx
    46de:	39 ca                	cmp    %ecx,%edx
    46e0:	76 0b                	jbe    46ed <usb_dp_browse_simple_internal+0x71d>
    46e2:	8b 55 c8             	mov    -0x38(%ebp),%edx
    46e5:	31 c0                	xor    %eax,%eax
    46e7:	8a 42 01             	mov    0x1(%edx),%al
    46ea:	89 45 e4             	mov    %eax,-0x1c(%ebp)
    46ed:	8b 06                	mov    (%esi),%eax
    46ef:	8b 08                	mov    (%eax),%ecx
    46f1:	85 c9                	test   %ecx,%ecx
    46f3:	7e 15                	jle    470a <usb_dp_browse_simple_internal+0x73a>
    46f5:	8b 50 04             	mov    0x4(%eax),%edx
    46f8:	85 d2                	test   %edx,%edx
    46fa:	7e 0e                	jle    470a <usb_dp_browse_simple_internal+0x73a>
    46fc:	39 4d e4             	cmp    %ecx,-0x1c(%ebp)
    46ff:	74 17                	je     4718 <usb_dp_browse_simple_internal+0x748>
    4701:	83 c0 08             	add    $0x8,%eax
    4704:	8b 08                	mov    (%eax),%ecx
    4706:	85 c9                	test   %ecx,%ecx
    4708:	7f eb                	jg     46f5 <usb_dp_browse_simple_internal+0x725>
    470a:	c7 45 c8 00 00 00 00 	movl   $0x0,-0x38(%ebp)
    4711:	e9 41 f9 ff ff       	jmp    4057 <usb_dp_browse_simple_internal+0x87>
    4716:	66 90                	xchg   %ax,%ax
    4718:	39 d3                	cmp    %edx,%ebx
    471a:	75 e5                	jne    4701 <usb_dp_browse_simple_internal+0x731>
    471c:	e9 36 f9 ff ff       	jmp    4057 <usb_dp_browse_simple_internal+0x87>
    4721:	8b 5d c8             	mov    -0x38(%ebp),%ebx
    4724:	31 c9                	xor    %ecx,%ecx
    4726:	8a 0b                	mov    (%ebx),%cl
    4728:	01 d9                	add    %ebx,%ecx
    472a:	89 4d c4             	mov    %ecx,-0x3c(%ebp)
    472d:	0f 84 6f f9 ff ff    	je     40a2 <usb_dp_browse_simple_internal+0xd2>
    4733:	3b 45 c4             	cmp    -0x3c(%ebp),%eax
    4736:	77 63                	ja     479b <usb_dp_browse_simple_internal+0x7cb>
    4738:	8b 4d c4             	mov    -0x3c(%ebp),%ecx
    473b:	29 c1                	sub    %eax,%ecx
    473d:	39 ca                	cmp    %ecx,%edx
    473f:	76 5a                	jbe    479b <usb_dp_browse_simple_internal+0x7cb>
    4741:	8b 4d c8             	mov    -0x38(%ebp),%ecx
    4744:	83 cb ff             	or     $0xffffffff,%ebx
    4747:	41                   	inc    %ecx
    4748:	74 12                	je     475c <usb_dp_browse_simple_internal+0x78c>
    474a:	39 c8                	cmp    %ecx,%eax
    474c:	77 0e                	ja     475c <usb_dp_browse_simple_internal+0x78c>
    474e:	29 c1                	sub    %eax,%ecx
    4750:	39 ca                	cmp    %ecx,%edx
    4752:	76 08                	jbe    475c <usb_dp_browse_simple_internal+0x78c>
    4754:	8b 4d c8             	mov    -0x38(%ebp),%ecx
    4757:	31 db                	xor    %ebx,%ebx
    4759:	8a 59 01             	mov    0x1(%ecx),%bl
    475c:	8b 4d c4             	mov    -0x3c(%ebp),%ecx
    475f:	c7 45 e4 ff ff ff ff 	movl   $0xffffffff,-0x1c(%ebp)
    4766:	41                   	inc    %ecx
    4767:	74 15                	je     477e <usb_dp_browse_simple_internal+0x7ae>
    4769:	39 c8                	cmp    %ecx,%eax
    476b:	77 11                	ja     477e <usb_dp_browse_simple_internal+0x7ae>
    476d:	29 c1                	sub    %eax,%ecx
    476f:	39 ca                	cmp    %ecx,%edx
    4771:	76 0b                	jbe    477e <usb_dp_browse_simple_internal+0x7ae>
    4773:	8b 55 c4             	mov    -0x3c(%ebp),%edx
    4776:	31 c0                	xor    %eax,%eax
    4778:	8a 42 01             	mov    0x1(%edx),%al
    477b:	89 45 e4             	mov    %eax,-0x1c(%ebp)
    477e:	8b 06                	mov    (%esi),%eax
    4780:	8b 08                	mov    (%eax),%ecx
    4782:	85 c9                	test   %ecx,%ecx
    4784:	7e 15                	jle    479b <usb_dp_browse_simple_internal+0x7cb>
    4786:	8b 50 04             	mov    0x4(%eax),%edx
    4789:	85 d2                	test   %edx,%edx
    478b:	7e 0e                	jle    479b <usb_dp_browse_simple_internal+0x7cb>
    478d:	39 4d e4             	cmp    %ecx,-0x1c(%ebp)
    4790:	74 16                	je     47a8 <usb_dp_browse_simple_internal+0x7d8>
    4792:	83 c0 08             	add    $0x8,%eax
    4795:	8b 08                	mov    (%eax),%ecx
    4797:	85 c9                	test   %ecx,%ecx
    4799:	7f eb                	jg     4786 <usb_dp_browse_simple_internal+0x7b6>
    479b:	c7 45 c4 00 00 00 00 	movl   $0x0,-0x3c(%ebp)
    47a2:	e9 fb f8 ff ff       	jmp    40a2 <usb_dp_browse_simple_internal+0xd2>
    47a7:	90                   	nop
    47a8:	39 d3                	cmp    %edx,%ebx
    47aa:	75 e6                	jne    4792 <usb_dp_browse_simple_internal+0x7c2>
    47ac:	e9 f1 f8 ff ff       	jmp    40a2 <usb_dp_browse_simple_internal+0xd2>
    47b1:	8b 5d c4             	mov    -0x3c(%ebp),%ebx
    47b4:	31 c9                	xor    %ecx,%ecx
    47b6:	8a 0b                	mov    (%ebx),%cl
    47b8:	01 d9                	add    %ebx,%ecx
    47ba:	89 4d c0             	mov    %ecx,-0x40(%ebp)
    47bd:	0f 84 2a f9 ff ff    	je     40ed <usb_dp_browse_simple_internal+0x11d>
    47c3:	3b 45 c0             	cmp    -0x40(%ebp),%eax
    47c6:	77 76                	ja     483e <usb_dp_browse_simple_internal+0x86e>
    47c8:	8b 4d c0             	mov    -0x40(%ebp),%ecx
    47cb:	29 c1                	sub    %eax,%ecx
    47cd:	39 ca                	cmp    %ecx,%edx
    47cf:	76 6d                	jbe    483e <usb_dp_browse_simple_internal+0x86e>
    47d1:	8b 4d c4             	mov    -0x3c(%ebp),%ecx
    47d4:	83 cb ff             	or     $0xffffffff,%ebx
    47d7:	41                   	inc    %ecx
    47d8:	74 12                	je     47ec <usb_dp_browse_simple_internal+0x81c>
    47da:	39 c8                	cmp    %ecx,%eax
    47dc:	77 0e                	ja     47ec <usb_dp_browse_simple_internal+0x81c>
    47de:	29 c1                	sub    %eax,%ecx
    47e0:	39 ca                	cmp    %ecx,%edx
    47e2:	76 08                	jbe    47ec <usb_dp_browse_simple_internal+0x81c>
    47e4:	8b 4d c4             	mov    -0x3c(%ebp),%ecx
    47e7:	31 db                	xor    %ebx,%ebx
    47e9:	8a 59 01             	mov    0x1(%ecx),%bl
    47ec:	8b 4d c0             	mov    -0x40(%ebp),%ecx
    47ef:	c7 45 e4 ff ff ff ff 	movl   $0xffffffff,-0x1c(%ebp)
    47f6:	41                   	inc    %ecx
    47f7:	74 15                	je     480e <usb_dp_browse_simple_internal+0x83e>
    47f9:	39 c8                	cmp    %ecx,%eax
    47fb:	77 11                	ja     480e <usb_dp_browse_simple_internal+0x83e>
    47fd:	29 c1                	sub    %eax,%ecx
    47ff:	39 ca                	cmp    %ecx,%edx
    4801:	76 0b                	jbe    480e <usb_dp_browse_simple_internal+0x83e>
    4803:	8b 55 c0             	mov    -0x40(%ebp),%edx
    4806:	31 c0                	xor    %eax,%eax
    4808:	8a 42 01             	mov    0x1(%edx),%al
    480b:	89 45 e4             	mov    %eax,-0x1c(%ebp)
    480e:	8b 06                	mov    (%esi),%eax
    4810:	8b 08                	mov    (%eax),%ecx
    4812:	85 c9                	test   %ecx,%ecx
    4814:	7f 0b                	jg     4821 <usb_dp_browse_simple_internal+0x851>
    4816:	eb 26                	jmp    483e <usb_dp_browse_simple_internal+0x86e>
    4818:	83 c0 08             	add    $0x8,%eax
    481b:	8b 08                	mov    (%eax),%ecx
    481d:	85 c9                	test   %ecx,%ecx
    481f:	7e 1d                	jle    483e <usb_dp_browse_simple_internal+0x86e>
    4821:	8b 50 04             	mov    0x4(%eax),%edx
    4824:	85 d2                	test   %edx,%edx
    4826:	7e 16                	jle    483e <usb_dp_browse_simple_internal+0x86e>
    4828:	39 4d e4             	cmp    %ecx,-0x1c(%ebp)
    482b:	75 eb                	jne    4818 <usb_dp_browse_simple_internal+0x848>
    482d:	39 d3                	cmp    %edx,%ebx
    482f:	0f 84 b8 f8 ff ff    	je     40ed <usb_dp_browse_simple_internal+0x11d>
    4835:	83 c0 08             	add    $0x8,%eax
    4838:	8b 08                	mov    (%eax),%ecx
    483a:	85 c9                	test   %ecx,%ecx
    483c:	7f e3                	jg     4821 <usb_dp_browse_simple_internal+0x851>
    483e:	c7 45 c0 00 00 00 00 	movl   $0x0,-0x40(%ebp)
    4845:	e9 a3 f8 ff ff       	jmp    40ed <usb_dp_browse_simple_internal+0x11d>
    484a:	8b 5d c0             	mov    -0x40(%ebp),%ebx
    484d:	31 c9                	xor    %ecx,%ecx
    484f:	8a 0b                	mov    (%ebx),%cl
    4851:	01 d9                	add    %ebx,%ecx
    4853:	89 4d bc             	mov    %ecx,-0x44(%ebp)
    4856:	0f 84 dc f8 ff ff    	je     4138 <usb_dp_browse_simple_internal+0x168>
    485c:	3b 45 bc             	cmp    -0x44(%ebp),%eax
    485f:	77 7d                	ja     48de <usb_dp_browse_simple_internal+0x90e>
    4861:	8b 4d bc             	mov    -0x44(%ebp),%ecx
    4864:	29 c1                	sub    %eax,%ecx
    4866:	39 ca                	cmp    %ecx,%edx
    4868:	76 74                	jbe    48de <usb_dp_browse_simple_internal+0x90e>
    486a:	8b 4d c0             	mov    -0x40(%ebp),%ecx
    486d:	83 cb ff             	or     $0xffffffff,%ebx
    4870:	41                   	inc    %ecx
    4871:	74 12                	je     4885 <usb_dp_browse_simple_internal+0x8b5>
    4873:	39 c8                	cmp    %ecx,%eax
    4875:	77 0e                	ja     4885 <usb_dp_browse_simple_internal+0x8b5>
    4877:	29 c1                	sub    %eax,%ecx
    4879:	39 ca                	cmp    %ecx,%edx
    487b:	76 08                	jbe    4885 <usb_dp_browse_simple_internal+0x8b5>
    487d:	8b 4d c0             	mov    -0x40(%ebp),%ecx
    4880:	31 db                	xor    %ebx,%ebx
    4882:	8a 59 01             	mov    0x1(%ecx),%bl
    4885:	8b 4d bc             	mov    -0x44(%ebp),%ecx
    4888:	c7 45 e4 ff ff ff ff 	movl   $0xffffffff,-0x1c(%ebp)
    488f:	41                   	inc    %ecx
    4890:	74 15                	je     48a7 <usb_dp_browse_simple_internal+0x8d7>
    4892:	39 c8                	cmp    %ecx,%eax
    4894:	77 11                	ja     48a7 <usb_dp_browse_simple_internal+0x8d7>
    4896:	29 c1                	sub    %eax,%ecx
    4898:	39 ca                	cmp    %ecx,%edx
    489a:	76 0b                	jbe    48a7 <usb_dp_browse_simple_internal+0x8d7>
    489c:	8b 55 bc             	mov    -0x44(%ebp),%edx
    489f:	31 c0                	xor    %eax,%eax
