
vdemo:     file format elf32-i386


Disassembly of section .init:

00001094 <__entry>:
    1094:	66 8c d0             	mov    %ss,%ax
    1097:	8e d8                	mov    %eax,%ds
    1099:	8e c0                	mov    %eax,%es
    109b:	8e e0                	mov    %eax,%fs
    109d:	b8 01 00 00 00       	mov    $0x1,%eax
    10a2:	0f a2                	cpuid  
    10a4:	0f ba e2 0b          	bt     $0xb,%edx
    10a8:	73 0c                	jae    10b6 <__entry+0x22>
    10aa:	8d 05 14 15 03 00    	lea    0x31514,%eax
    10b0:	c7 00 37 0f 02 00    	movl   $0x20f37,(%eax)
    10b6:	6a 00                	push   $0x0
    10b8:	89 e5                	mov    %esp,%ebp
    10ba:	57                   	push   %edi
    10bb:	e8 d0 57 00 00       	call   6890 <__main>

Disassembly of section .text:

000010c0 <on_confirm>:
    10c0:	55                   	push   %ebp
    10c1:	89 e5                	mov    %esp,%ebp
    10c3:	8b 45 08             	mov    0x8(%ebp),%eax
    10c6:	c7 45 0c e2 32 02 00 	movl   $0x232e2,0xc(%ebp)
    10cd:	5d                   	pop    %ebp
    10ce:	8b 80 34 01 00 00    	mov    0x134(%eax),%eax
    10d4:	ff e0                	jmp    *%eax
    10d6:	8d 76 00             	lea    0x0(%esi),%esi
    10d9:	8d bc 27 00 00 00 00 	lea    0x0(%edi,%eiz,1),%edi

000010e0 <on_cancel>:
    10e0:	55                   	push   %ebp
    10e1:	89 e5                	mov    %esp,%ebp
    10e3:	8b 45 08             	mov    0x8(%ebp),%eax
    10e6:	c7 45 0c ec 32 02 00 	movl   $0x232ec,0xc(%ebp)
    10ed:	5d                   	pop    %ebp
    10ee:	8b 80 34 01 00 00    	mov    0x134(%eax),%eax
    10f4:	ff e0                	jmp    *%eax
    10f6:	8d 76 00             	lea    0x0(%esi),%esi
    10f9:	8d bc 27 00 00 00 00 	lea    0x0(%edi,%eiz,1),%edi

00001100 <my_label_destroy>:
    1100:	55                   	push   %ebp
    1101:	89 e5                	mov    %esp,%ebp
    1103:	53                   	push   %ebx
    1104:	83 ec 14             	sub    $0x14,%esp
    1107:	8b 5d 08             	mov    0x8(%ebp),%ebx
    110a:	89 1c 24             	mov    %ebx,(%esp)
    110d:	e8 6e 16 00 00       	call   2780 <deinit_label>
    1112:	89 5d 08             	mov    %ebx,0x8(%ebp)
    1115:	83 c4 14             	add    $0x14,%esp
    1118:	5b                   	pop    %ebx
    1119:	5d                   	pop    %ebp
    111a:	e9 c1 55 01 00       	jmp    166e0 <free>
    111f:	90                   	nop

00001120 <main>:
    1120:	55                   	push   %ebp
    1121:	89 e5                	mov    %esp,%ebp
    1123:	57                   	push   %edi
    1124:	56                   	push   %esi
    1125:	53                   	push   %ebx
    1126:	83 e4 f0             	and    $0xfffffff0,%esp
    1129:	83 ec 30             	sub    $0x30,%esp
    112c:	83 7d 08 01          	cmpl   $0x1,0x8(%ebp)
    1130:	0f 8e 58 01 00 00    	jle    128e <main+0x16e>
    1136:	8b 45 0c             	mov    0xc(%ebp),%eax
    1139:	c7 44 24 14 00 00 00 	movl   $0x0,0x14(%esp)
    1140:	00 
    1141:	c7 44 24 10 00 00 00 	movl   $0x0,0x10(%esp)
    1148:	00 
    1149:	c7 44 24 0c f6 32 02 	movl   $0x232f6,0xc(%esp)
    1150:	00 
    1151:	c7 44 24 08 01 00 00 	movl   $0x1,0x8(%esp)
    1158:	00 
    1159:	c7 44 24 04 01 00 00 	movl   $0x1,0x4(%esp)
    1160:	00 
    1161:	8b 40 04             	mov    0x4(%eax),%eax
    1164:	89 04 24             	mov    %eax,(%esp)
    1167:	e8 34 2a 00 00       	call   3ba0 <window_open>
    116c:	89 c6                	mov    %eax,%esi
    116e:	85 c0                	test   %eax,%eax
    1170:	0f 84 38 02 00 00    	je     13ae <main+0x28e>
    1176:	c7 04 24 40 01 00 00 	movl   $0x140,(%esp)
    117d:	e8 4e 54 01 00       	call   165d0 <malloc>
    1182:	89 c3                	mov    %eax,%ebx
    1184:	85 c0                	test   %eax,%eax
    1186:	0f 84 3b 02 00 00    	je     13c7 <main+0x2a7>
    118c:	c7 80 38 01 00 00 c0 	movl   $0x10c0,0x138(%eax)
    1193:	10 00 00 
    1196:	c7 80 3c 01 00 00 e0 	movl   $0x10e0,0x13c(%eax)
    119d:	10 00 00 
    11a0:	c7 44 24 14 00 00 00 	movl   $0xff000000,0x14(%esp)
    11a7:	ff 
    11a8:	c7 44 24 10 f0 f0 f0 	movl   $0xfff0f0f0,0x10(%esp)
    11af:	ff 
    11b0:	c7 44 24 0c 10 00 00 	movl   $0x10,0xc(%esp)
    11b7:	00 
    11b8:	c7 44 24 08 16 33 02 	movl   $0x23316,0x8(%esp)
    11bf:	00 
    11c0:	c7 44 24 04 00 00 00 	movl   $0x0,0x4(%esp)
    11c7:	00 
    11c8:	89 04 24             	mov    %eax,(%esp)
    11cb:	e8 f0 15 00 00       	call   27c0 <init_label>
    11d0:	c7 43 40 00 11 00 00 	movl   $0x1100,0x40(%ebx)
    11d7:	84 c0                	test   %al,%al
    11d9:	0f 84 e0 01 00 00    	je     13bf <main+0x29f>
    11df:	c7 44 24 10 f0 f0 f0 	movl   $0xfff0f0f0,0x10(%esp)
    11e6:	ff 
    11e7:	c7 44 24 0c 00 00 00 	movl   $0xff000000,0xc(%esp)
    11ee:	ff 
    11ef:	c7 44 24 08 10 00 00 	movl   $0x10,0x8(%esp)
    11f6:	00 
    11f7:	c7 44 24 04 23 33 02 	movl   $0x23323,0x4(%esp)
    11fe:	00 
    11ff:	c7 04 24 00 00 00 00 	movl   $0x0,(%esp)
    1206:	e8 45 06 00 00       	call   1850 <create_button>
    120b:	c7 44 24 10 f0 f0 f0 	movl   $0xfff0f0f0,0x10(%esp)
    1212:	ff 
    1213:	c7 44 24 0c 00 00 00 	movl   $0xff000000,0xc(%esp)
    121a:	ff 
    121b:	c7 44 24 08 10 00 00 	movl   $0x10,0x8(%esp)
    1222:	00 
    1223:	c7 44 24 04 2b 33 02 	movl   $0x2332b,0x4(%esp)
    122a:	00 
    122b:	c7 04 24 00 00 00 00 	movl   $0x0,(%esp)
    1232:	89 c7                	mov    %eax,%edi
    1234:	e8 17 06 00 00       	call   1850 <create_button>
    1239:	89 34 24             	mov    %esi,(%esp)
    123c:	89 44 24 2c          	mov    %eax,0x2c(%esp)
    1240:	e8 0b 2c 00 00       	call   3e50 <window_root>
    1245:	c7 44 24 0c f0 f0 f0 	movl   $0xfff0f0f0,0xc(%esp)
    124c:	ff 
    124d:	c7 44 24 08 02 00 00 	movl   $0x2,0x8(%esp)
    1254:	00 
    1255:	c7 44 24 04 02 00 00 	movl   $0x2,0x4(%esp)
    125c:	00 
    125d:	89 04 24             	mov    %eax,(%esp)
    1260:	e8 8b 11 00 00       	call   23f0 <create_grid>
    1265:	85 ff                	test   %edi,%edi
    1267:	74 04                	je     126d <main+0x14d>
    1269:	85 c0                	test   %eax,%eax
    126b:	75 2f                	jne    129c <main+0x17c>
    126d:	89 34 24             	mov    %esi,(%esp)
    1270:	e8 9b 2c 00 00       	call   3f10 <window_close>
    1275:	c7 04 24 32 33 02 00 	movl   $0x23332,(%esp)
    127c:	e8 0f 03 01 00       	call   11590 <printf>
    1281:	8d 65 f4             	lea    -0xc(%ebp),%esp
    1284:	b8 01 00 00 00       	mov    $0x1,%eax
    1289:	5b                   	pop    %ebx
    128a:	5e                   	pop    %esi
    128b:	5f                   	pop    %edi
    128c:	5d                   	pop    %ebp
    128d:	c3                   	ret    
    128e:	c7 04 24 4c 33 02 00 	movl   $0x2334c,(%esp)
    1295:	e8 f6 02 01 00       	call   11590 <printf>
    129a:	eb e5                	jmp    1281 <main+0x161>
    129c:	83 7c 24 2c 00       	cmpl   $0x0,0x2c(%esp)
    12a1:	74 ca                	je     126d <main+0x14d>
    12a3:	8b 93 38 01 00 00    	mov    0x138(%ebx),%edx
    12a9:	89 5c 24 04          	mov    %ebx,0x4(%esp)
    12ad:	89 54 24 08          	mov    %edx,0x8(%esp)
    12b1:	8d 97 34 01 00 00    	lea    0x134(%edi),%edx
    12b7:	89 14 24             	mov    %edx,(%esp)
    12ba:	89 44 24 28          	mov    %eax,0x28(%esp)
    12be:	e8 bd 06 00 00       	call   1980 <sig_connect>
    12c3:	8b 93 3c 01 00 00    	mov    0x13c(%ebx),%edx
    12c9:	89 54 24 08          	mov    %edx,0x8(%esp)
    12cd:	8b 54 24 2c          	mov    0x2c(%esp),%edx
    12d1:	81 c2 34 01 00 00    	add    $0x134,%edx
    12d7:	89 5c 24 04          	mov    %ebx,0x4(%esp)
    12db:	89 14 24             	mov    %edx,(%esp)
    12de:	e8 9d 06 00 00       	call   1980 <sig_connect>
    12e3:	8b 44 24 28          	mov    0x28(%esp),%eax
    12e7:	89 04 24             	mov    %eax,(%esp)
    12ea:	c7 44 24 14 02 00 00 	movl   $0x2,0x14(%esp)
    12f1:	00 
    12f2:	c7 44 24 10 01 00 00 	movl   $0x1,0x10(%esp)
    12f9:	00 
    12fa:	c7 44 24 0c 00 00 00 	movl   $0x0,0xc(%esp)
    1301:	00 
    1302:	c7 44 24 08 00 00 00 	movl   $0x0,0x8(%esp)
    1309:	00 
    130a:	89 5c 24 04          	mov    %ebx,0x4(%esp)
    130e:	ff 50 68             	call   *0x68(%eax)
    1311:	8b 44 24 28          	mov    0x28(%esp),%eax
    1315:	89 04 24             	mov    %eax,(%esp)
    1318:	c7 44 24 14 01 00 00 	movl   $0x1,0x14(%esp)
    131f:	00 
    1320:	c7 44 24 10 01 00 00 	movl   $0x1,0x10(%esp)
    1327:	00 
    1328:	c7 44 24 0c 00 00 00 	movl   $0x0,0xc(%esp)
    132f:	00 
    1330:	c7 44 24 08 01 00 00 	movl   $0x1,0x8(%esp)
    1337:	00 
    1338:	89 7c 24 04          	mov    %edi,0x4(%esp)
    133c:	ff 50 68             	call   *0x68(%eax)
    133f:	8b 54 24 2c          	mov    0x2c(%esp),%edx
    1343:	8b 44 24 28          	mov    0x28(%esp),%eax
    1347:	89 54 24 04          	mov    %edx,0x4(%esp)
    134b:	89 04 24             	mov    %eax,(%esp)
    134e:	c7 44 24 14 01 00 00 	movl   $0x1,0x14(%esp)
    1355:	00 
    1356:	c7 44 24 10 01 00 00 	movl   $0x1,0x10(%esp)
    135d:	00 
    135e:	c7 44 24 0c 01 00 00 	movl   $0x1,0xc(%esp)
    1365:	00 
    1366:	c7 44 24 08 01 00 00 	movl   $0x1,0x8(%esp)
    136d:	00 
    136e:	ff 50 68             	call   *0x68(%eax)
    1371:	c7 44 24 08 46 00 00 	movl   $0x46,0x8(%esp)
    1378:	00 
    1379:	c7 44 24 04 c8 00 00 	movl   $0xc8,0x4(%esp)
    1380:	00 
    1381:	89 34 24             	mov    %esi,(%esp)
    1384:	e8 e7 29 00 00       	call   3d70 <window_resize>
    1389:	89 34 24             	mov    %esi,(%esp)
    138c:	e8 cf 2a 00 00       	call   3e60 <window_exec>
    1391:	c7 04 24 00 00 00 00 	movl   $0x0,(%esp)
    1398:	e8 b3 db 00 00       	call   ef50 <task_retval>
    139d:	c7 04 24 01 00 00 00 	movl   $0x1,(%esp)
    13a4:	e8 87 ba 00 00       	call   ce30 <fibril_switch>
    13a9:	e9 d3 fe ff ff       	jmp    1281 <main+0x161>
    13ae:	c7 04 24 fc 32 02 00 	movl   $0x232fc,(%esp)
    13b5:	e8 d6 01 01 00       	call   11590 <printf>
    13ba:	e9 c2 fe ff ff       	jmp    1281 <main+0x161>
    13bf:	89 1c 24             	mov    %ebx,(%esp)
    13c2:	e8 19 53 01 00       	call   166e0 <free>
    13c7:	c7 44 24 10 f0 f0 f0 	movl   $0xfff0f0f0,0x10(%esp)
    13ce:	ff 
    13cf:	c7 44 24 0c 00 00 00 	movl   $0xff000000,0xc(%esp)
    13d6:	ff 
    13d7:	c7 44 24 08 10 00 00 	movl   $0x10,0x8(%esp)
    13de:	00 
    13df:	c7 44 24 04 23 33 02 	movl   $0x23323,0x4(%esp)
    13e6:	00 
    13e7:	c7 04 24 00 00 00 00 	movl   $0x0,(%esp)
    13ee:	e8 5d 04 00 00       	call   1850 <create_button>
    13f3:	c7 44 24 10 f0 f0 f0 	movl   $0xfff0f0f0,0x10(%esp)
    13fa:	ff 
    13fb:	c7 44 24 0c 00 00 00 	movl   $0xff000000,0xc(%esp)
    1402:	ff 
    1403:	c7 44 24 08 10 00 00 	movl   $0x10,0x8(%esp)
    140a:	00 
    140b:	c7 44 24 04 2b 33 02 	movl   $0x2332b,0x4(%esp)
    1412:	00 
    1413:	c7 04 24 00 00 00 00 	movl   $0x0,(%esp)
    141a:	e8 31 04 00 00       	call   1850 <create_button>
    141f:	89 34 24             	mov    %esi,(%esp)
    1422:	e8 29 2a 00 00       	call   3e50 <window_root>
    1427:	c7 44 24 0c f0 f0 f0 	movl   $0xfff0f0f0,0xc(%esp)
    142e:	ff 
    142f:	c7 44 24 08 02 00 00 	movl   $0x2,0x8(%esp)
    1436:	00 
    1437:	c7 44 24 04 02 00 00 	movl   $0x2,0x4(%esp)
    143e:	00 
    143f:	89 04 24             	mov    %eax,(%esp)
    1442:	e8 a9 0f 00 00       	call   23f0 <create_grid>
    1447:	e9 21 fe ff ff       	jmp    126d <main+0x14d>
    144c:	66 90                	xchg   %ax,%ax
    144e:	66 90                	xchg   %ax,%ax

00001450 <button_reconfigure>:
    1450:	55                   	push   %ebp
    1451:	89 e5                	mov    %esp,%ebp
    1453:	5d                   	pop    %ebp
    1454:	c3                   	ret    
    1455:	8d 74 26 00          	lea    0x0(%esi,%eiz,1),%esi
    1459:	8d bc 27 00 00 00 00 	lea    0x0(%edi,%eiz,1),%edi

00001460 <paint_internal>:
    1460:	55                   	push   %ebp
    1461:	89 e5                	mov    %esp,%ebp
    1463:	57                   	push   %edi
    1464:	56                   	push   %esi
    1465:	53                   	push   %ebx
    1466:	83 ec 7c             	sub    $0x7c,%esp
    1469:	89 c7                	mov    %eax,%edi
    146b:	8b 40 14             	mov    0x14(%eax),%eax
    146e:	89 04 24             	mov    %eax,(%esp)
    1471:	e8 4a 2a 00 00       	call   3ec0 <window_claim>
    1476:	85 c0                	test   %eax,%eax
    1478:	0f 84 4a 01 00 00    	je     15c8 <paint_internal+0x168>
    147e:	8d 5d b0             	lea    -0x50(%ebp),%ebx
    1481:	89 44 24 04          	mov    %eax,0x4(%esp)
    1485:	89 1c 24             	mov    %ebx,(%esp)
    1488:	e8 a3 2a 00 00       	call   3f30 <drawctx_init>
    148d:	8d 87 bc 00 00 00    	lea    0xbc(%edi),%eax
    1493:	89 44 24 04          	mov    %eax,0x4(%esp)
    1497:	89 1c 24             	mov    %ebx,(%esp)
    149a:	89 45 a4             	mov    %eax,-0x5c(%ebp)
    149d:	e8 7e 2c 00 00       	call   4120 <drawctx_set_source>
    14a2:	8b 47 24             	mov    0x24(%edi),%eax
    14a5:	89 1c 24             	mov    %ebx,(%esp)
    14a8:	89 44 24 10          	mov    %eax,0x10(%esp)
    14ac:	8b 47 20             	mov    0x20(%edi),%eax
    14af:	89 44 24 0c          	mov    %eax,0xc(%esp)
    14b3:	8b 47 1c             	mov    0x1c(%edi),%eax
    14b6:	89 44 24 08          	mov    %eax,0x8(%esp)
    14ba:	8b 47 18             	mov    0x18(%edi),%eax
    14bd:	89 44 24 04          	mov    %eax,0x4(%esp)
    14c1:	e8 7a 2c 00 00       	call   4140 <drawctx_transfer>
    14c6:	83 7f 20 05          	cmpl   $0x5,0x20(%edi)
    14ca:	76 0a                	jbe    14d6 <paint_internal+0x76>
    14cc:	83 7f 24 05          	cmpl   $0x5,0x24(%edi)
    14d0:	0f 87 aa 00 00 00    	ja     1580 <paint_internal+0x120>
    14d6:	8d 45 ac             	lea    -0x54(%ebp),%eax
    14d9:	8d b7 24 01 00 00    	lea    0x124(%edi),%esi
    14df:	89 44 24 0c          	mov    %eax,0xc(%esp)
    14e3:	8d 45 a8             	lea    -0x58(%ebp),%eax
    14e6:	89 44 24 08          	mov    %eax,0x8(%esp)
    14ea:	8b 87 20 01 00 00    	mov    0x120(%edi),%eax
    14f0:	89 44 24 04          	mov    %eax,0x4(%esp)
    14f4:	89 34 24             	mov    %esi,(%esp)
    14f7:	e8 74 30 00 00       	call   4570 <font_get_box>
    14fc:	8b 45 a8             	mov    -0x58(%ebp),%eax
    14ff:	39 47 20             	cmp    %eax,0x20(%edi)
    1502:	72 08                	jb     150c <paint_internal+0xac>
    1504:	8b 45 ac             	mov    -0x54(%ebp),%eax
    1507:	39 47 24             	cmp    %eax,0x24(%edi)
    150a:	73 14                	jae    1520 <paint_internal+0xc0>
    150c:	8b 47 14             	mov    0x14(%edi),%eax
    150f:	89 04 24             	mov    %eax,(%esp)
    1512:	e8 d9 29 00 00       	call   3ef0 <window_yield>
    1517:	83 c4 7c             	add    $0x7c,%esp
    151a:	5b                   	pop    %ebx
    151b:	5e                   	pop    %esi
    151c:	5f                   	pop    %edi
    151d:	5d                   	pop    %ebp
    151e:	c3                   	ret    
    151f:	90                   	nop
    1520:	8b 45 a4             	mov    -0x5c(%ebp),%eax
    1523:	89 1c 24             	mov    %ebx,(%esp)
    1526:	89 44 24 04          	mov    %eax,0x4(%esp)
    152a:	e8 f1 2b 00 00       	call   4120 <drawctx_set_source>
    152f:	89 74 24 04          	mov    %esi,0x4(%esp)
    1533:	89 1c 24             	mov    %ebx,(%esp)
    1536:	e8 f5 2b 00 00       	call   4130 <drawctx_set_font>
    153b:	8b 55 a8             	mov    -0x58(%ebp),%edx
    153e:	8b 47 20             	mov    0x20(%edi),%eax
    1541:	8b 4f 18             	mov    0x18(%edi),%ecx
    1544:	29 d0                	sub    %edx,%eax
    1546:	8b 75 ac             	mov    -0x54(%ebp),%esi
    1549:	d1 e8                	shr    %eax
    154b:	8b 57 1c             	mov    0x1c(%edi),%edx
    154e:	01 c8                	add    %ecx,%eax
    1550:	8b 4f 24             	mov    0x24(%edi),%ecx
    1553:	29 f1                	sub    %esi,%ecx
    1555:	8b b7 20 01 00 00    	mov    0x120(%edi),%esi
    155b:	d1 e9                	shr    %ecx
    155d:	01 d1                	add    %edx,%ecx
    155f:	85 f6                	test   %esi,%esi
    1561:	74 a9                	je     150c <paint_internal+0xac>
    1563:	89 4c 24 0c          	mov    %ecx,0xc(%esp)
    1567:	89 44 24 08          	mov    %eax,0x8(%esp)
    156b:	89 74 24 04          	mov    %esi,0x4(%esp)
    156f:	89 1c 24             	mov    %ebx,(%esp)
    1572:	e8 79 2e 00 00       	call   43f0 <drawctx_print>
    1577:	eb 93                	jmp    150c <paint_internal+0xac>
    1579:	8d b4 26 00 00 00 00 	lea    0x0(%esi,%eiz,1),%esi
    1580:	8d 47 58             	lea    0x58(%edi),%eax
    1583:	89 1c 24             	mov    %ebx,(%esp)
    1586:	89 44 24 04          	mov    %eax,0x4(%esp)
    158a:	e8 91 2b 00 00       	call   4120 <drawctx_set_source>
    158f:	8b 47 24             	mov    0x24(%edi),%eax
    1592:	83 e8 06             	sub    $0x6,%eax
    1595:	89 1c 24             	mov    %ebx,(%esp)
    1598:	89 44 24 10          	mov    %eax,0x10(%esp)
    159c:	8b 47 20             	mov    0x20(%edi),%eax
    159f:	83 e8 06             	sub    $0x6,%eax
    15a2:	89 44 24 0c          	mov    %eax,0xc(%esp)
    15a6:	8b 47 1c             	mov    0x1c(%edi),%eax
    15a9:	83 c0 03             	add    $0x3,%eax
    15ac:	89 44 24 08          	mov    %eax,0x8(%esp)
    15b0:	8b 47 18             	mov    0x18(%edi),%eax
    15b3:	83 c0 03             	add    $0x3,%eax
    15b6:	89 44 24 04          	mov    %eax,0x4(%esp)
    15ba:	e8 81 2b 00 00       	call   4140 <drawctx_transfer>
    15bf:	e9 12 ff ff ff       	jmp    14d6 <paint_internal+0x76>
    15c4:	8d 74 26 00          	lea    0x0(%esi,%eiz,1),%esi
    15c8:	8b 4f 14             	mov    0x14(%edi),%ecx
    15cb:	89 45 a0             	mov    %eax,-0x60(%ebp)
    15ce:	89 0c 24             	mov    %ecx,(%esp)
    15d1:	e8 1a 29 00 00       	call   3ef0 <window_yield>
    15d6:	8b 45 a0             	mov    -0x60(%ebp),%eax
    15d9:	e9 a0 fe ff ff       	jmp    147e <paint_internal+0x1e>
    15de:	66 90                	xchg   %ax,%ax

000015e0 <button_repaint>:
    15e0:	55                   	push   %ebp
    15e1:	89 e5                	mov    %esp,%ebp
    15e3:	53                   	push   %ebx
    15e4:	51                   	push   %ecx
    15e5:	8b 5d 08             	mov    0x8(%ebp),%ebx
    15e8:	89 d8                	mov    %ebx,%eax
    15ea:	e8 71 fe ff ff       	call   1460 <paint_internal>
    15ef:	8b 43 14             	mov    0x14(%ebx),%eax
    15f2:	89 45 08             	mov    %eax,0x8(%ebp)
    15f5:	5b                   	pop    %ebx
    15f6:	5b                   	pop    %ebx
    15f7:	5d                   	pop    %ebp
    15f8:	e9 13 28 00 00       	jmp    3e10 <window_damage>
    15fd:	8d 76 00             	lea    0x0(%esi),%esi

00001600 <button_rearrange>:
    1600:	55                   	push   %ebp
    1601:	89 e5                	mov    %esp,%ebp
    1603:	53                   	push   %ebx
    1604:	83 ec 24             	sub    $0x24,%esp
    1607:	8b 45 18             	mov    0x18(%ebp),%eax
    160a:	8b 5d 08             	mov    0x8(%ebp),%ebx
    160d:	89 44 24 10          	mov    %eax,0x10(%esp)
    1611:	8b 45 14             	mov    0x14(%ebp),%eax
    1614:	89 44 24 0c          	mov    %eax,0xc(%esp)
    1618:	8b 45 10             	mov    0x10(%ebp),%eax
    161b:	89 44 24 08          	mov    %eax,0x8(%esp)
    161f:	8b 45 0c             	mov    0xc(%ebp),%eax
    1622:	89 44 24 04          	mov    %eax,0x4(%esp)
    1626:	89 1c 24             	mov    %ebx,(%esp)
    1629:	e8 92 14 00 00       	call   2ac0 <widget_modify>
    162e:	83 c4 24             	add    $0x24,%esp
    1631:	89 d8                	mov    %ebx,%eax
    1633:	5b                   	pop    %ebx
    1634:	5d                   	pop    %ebp
    1635:	e9 26 fe ff ff       	jmp    1460 <paint_internal>
    163a:	8d b6 00 00 00 00    	lea    0x0(%esi),%esi

00001640 <button_handle_position_event>:
    1640:	55                   	push   %ebp
    1641:	89 e5                	mov    %esp,%ebp
    1643:	8b 45 08             	mov    0x8(%ebp),%eax
    1646:	83 7d 14 01          	cmpl   $0x1,0x14(%ebp)
    164a:	8b 50 14             	mov    0x14(%eax),%edx
    164d:	89 82 8c 00 00 00    	mov    %eax,0x8c(%edx)
    1653:	74 03                	je     1658 <button_handle_position_event+0x18>
    1655:	5d                   	pop    %ebp
    1656:	c3                   	ret    
    1657:	90                   	nop
    1658:	83 7d 10 02          	cmpl   $0x2,0x10(%ebp)
    165c:	75 f7                	jne    1655 <button_handle_position_event+0x15>
    165e:	05 34 01 00 00       	add    $0x134,%eax
    1663:	c7 45 0c 00 00 00 00 	movl   $0x0,0xc(%ebp)
    166a:	89 45 08             	mov    %eax,0x8(%ebp)
    166d:	5d                   	pop    %ebp
    166e:	e9 dd 04 00 00       	jmp    1b50 <sig_send>
    1673:	8d b6 00 00 00 00    	lea    0x0(%esi),%esi
    1679:	8d bc 27 00 00 00 00 	lea    0x0(%edi,%eiz,1),%edi

00001680 <button_handle_keyboard_event>:
    1680:	55                   	push   %ebp
    1681:	89 e5                	mov    %esp,%ebp
    1683:	8b 45 08             	mov    0x8(%ebp),%eax
    1686:	83 7d 18 29          	cmpl   $0x29,0x18(%ebp)
    168a:	74 04                	je     1690 <button_handle_keyboard_event+0x10>
    168c:	5d                   	pop    %ebp
    168d:	c3                   	ret    
    168e:	66 90                	xchg   %ax,%ax
    1690:	8b 55 14             	mov    0x14(%ebp),%edx
    1693:	85 d2                	test   %edx,%edx
    1695:	75 f5                	jne    168c <button_handle_keyboard_event+0xc>
    1697:	05 34 01 00 00       	add    $0x134,%eax
    169c:	c7 45 0c 00 00 00 00 	movl   $0x0,0xc(%ebp)
    16a3:	89 45 08             	mov    %eax,0x8(%ebp)
    16a6:	5d                   	pop    %ebp
    16a7:	e9 a4 04 00 00       	jmp    1b50 <sig_send>
    16ac:	8d 74 26 00          	lea    0x0(%esi,%eiz,1),%esi

000016b0 <button_destroy>:
    16b0:	55                   	push   %ebp
    16b1:	89 e5                	mov    %esp,%ebp
    16b3:	53                   	push   %ebx
    16b4:	83 ec 14             	sub    $0x14,%esp
    16b7:	8b 5d 08             	mov    0x8(%ebp),%ebx
    16ba:	89 1c 24             	mov    %ebx,(%esp)
    16bd:	e8 1e 14 00 00       	call   2ae0 <widget_deinit>
    16c2:	8b 83 20 01 00 00    	mov    0x120(%ebx),%eax
    16c8:	89 04 24             	mov    %eax,(%esp)
    16cb:	e8 10 50 01 00       	call   166e0 <free>
    16d0:	8d 83 24 01 00 00    	lea    0x124(%ebx),%eax
    16d6:	89 04 24             	mov    %eax,(%esp)
    16d9:	e8 22 2e 00 00       	call   4500 <font_release>
    16de:	89 5d 08             	mov    %ebx,0x8(%ebp)
    16e1:	83 c4 14             	add    $0x14,%esp
    16e4:	5b                   	pop    %ebx
    16e5:	5d                   	pop    %ebp
    16e6:	e9 f5 4f 01 00       	jmp    166e0 <free>
    16eb:	90                   	nop
    16ec:	8d 74 26 00          	lea    0x0(%esi,%eiz,1),%esi

000016f0 <deinit_button>:
    16f0:	55                   	push   %ebp
    16f1:	89 e5                	mov    %esp,%ebp
    16f3:	53                   	push   %ebx
    16f4:	83 ec 14             	sub    $0x14,%esp
    16f7:	8b 5d 08             	mov    0x8(%ebp),%ebx
    16fa:	89 1c 24             	mov    %ebx,(%esp)
    16fd:	e8 de 13 00 00       	call   2ae0 <widget_deinit>
    1702:	8b 83 20 01 00 00    	mov    0x120(%ebx),%eax
    1708:	89 04 24             	mov    %eax,(%esp)
    170b:	81 c3 24 01 00 00    	add    $0x124,%ebx
    1711:	e8 ca 4f 01 00       	call   166e0 <free>
    1716:	89 5d 08             	mov    %ebx,0x8(%ebp)
    1719:	83 c4 14             	add    $0x14,%esp
    171c:	5b                   	pop    %ebx
    171d:	5d                   	pop    %ebp
    171e:	e9 dd 2d 00 00       	jmp    4500 <font_release>
    1723:	8d b6 00 00 00 00    	lea    0x0(%esi),%esi
    1729:	8d bc 27 00 00 00 00 	lea    0x0(%edi,%eiz,1),%edi

00001730 <init_button>:
    1730:	55                   	push   %ebp
    1731:	89 e5                	mov    %esp,%ebp
    1733:	57                   	push   %edi
    1734:	56                   	push   %esi
    1735:	53                   	push   %ebx
    1736:	83 ec 2c             	sub    $0x2c,%esp
    1739:	8b 5d 08             	mov    0x8(%ebp),%ebx
    173c:	8b 45 0c             	mov    0xc(%ebp),%eax
    173f:	89 44 24 04          	mov    %eax,0x4(%esp)
    1743:	89 1c 24             	mov    %ebx,(%esp)
    1746:	8d 73 58             	lea    0x58(%ebx),%esi
    1749:	8b 7d 14             	mov    0x14(%ebp),%edi
    174c:	e8 cf 12 00 00       	call   2a20 <widget_init>
    1751:	c7 43 40 b0 16 00 00 	movl   $0x16b0,0x40(%ebx)
    1758:	c7 43 44 50 14 00 00 	movl   $0x1450,0x44(%ebx)
    175f:	c7 43 48 00 16 00 00 	movl   $0x1600,0x48(%ebx)
    1766:	c7 43 4c e0 15 00 00 	movl   $0x15e0,0x4c(%ebx)
    176d:	c7 43 50 80 16 00 00 	movl   $0x1680,0x50(%ebx)
    1774:	c7 43 54 40 16 00 00 	movl   $0x1640,0x54(%ebx)
    177b:	89 34 24             	mov    %esi,(%esp)
    177e:	e8 fd 30 00 00       	call   4880 <source_init>
    1783:	8b 55 18             	mov    0x18(%ebp),%edx
    1786:	89 54 24 04          	mov    %edx,0x4(%esp)
    178a:	89 34 24             	mov    %esi,(%esp)
    178d:	8d b3 bc 00 00 00    	lea    0xbc(%ebx),%esi
    1793:	e8 78 31 00 00       	call   4910 <source_set_color>
    1798:	89 34 24             	mov    %esi,(%esp)
    179b:	e8 e0 30 00 00       	call   4880 <source_init>
    17a0:	8b 55 1c             	mov    0x1c(%ebp),%edx
    17a3:	89 54 24 04          	mov    %edx,0x4(%esp)
    17a7:	89 34 24             	mov    %esi,(%esp)
    17aa:	e8 61 31 00 00       	call   4910 <source_set_color>
    17af:	8b 4d 10             	mov    0x10(%ebp),%ecx
    17b2:	85 c9                	test   %ecx,%ecx
    17b4:	0f 84 7e 00 00 00    	je     1838 <init_button+0x108>
    17ba:	8b 45 10             	mov    0x10(%ebp),%eax
    17bd:	89 04 24             	mov    %eax,(%esp)
    17c0:	e8 bb ab 00 00       	call   c380 <str_dup>
    17c5:	89 83 20 01 00 00    	mov    %eax,0x120(%ebx)
    17cb:	8d b3 24 01 00 00    	lea    0x124(%ebx),%esi
    17d1:	81 e7 ff ff 00 00    	and    $0xffff,%edi
    17d7:	89 7c 24 0c          	mov    %edi,0xc(%esp)
    17db:	89 34 24             	mov    %esi,(%esp)
    17de:	c7 44 24 08 00 00 00 	movl   $0x0,0x8(%esp)
    17e5:	00 
    17e6:	c7 44 24 04 00 00 00 	movl   $0x0,0x4(%esp)
    17ed:	00 
    17ee:	e8 4d 2c 00 00       	call   4440 <font_init>
    17f3:	8d 45 e4             	lea    -0x1c(%ebp),%eax
    17f6:	89 44 24 0c          	mov    %eax,0xc(%esp)
    17fa:	8d 45 e0             	lea    -0x20(%ebp),%eax
    17fd:	89 44 24 08          	mov    %eax,0x8(%esp)
    1801:	8b 83 20 01 00 00    	mov    0x120(%ebx),%eax
    1807:	89 34 24             	mov    %esi,(%esp)
    180a:	89 44 24 04          	mov    %eax,0x4(%esp)
    180e:	e8 5d 2d 00 00       	call   4570 <font_get_box>
    1813:	8b 55 e0             	mov    -0x20(%ebp),%edx
    1816:	8d 42 08             	lea    0x8(%edx),%eax
    1819:	83 c2 1c             	add    $0x1c,%edx
    181c:	89 43 28             	mov    %eax,0x28(%ebx)
    181f:	8b 45 e4             	mov    -0x1c(%ebp),%eax
    1822:	83 c0 08             	add    $0x8,%eax
    1825:	89 53 30             	mov    %edx,0x30(%ebx)
    1828:	89 43 2c             	mov    %eax,0x2c(%ebx)
    182b:	89 43 34             	mov    %eax,0x34(%ebx)
    182e:	83 c4 2c             	add    $0x2c,%esp
    1831:	b0 01                	mov    $0x1,%al
    1833:	5b                   	pop    %ebx
    1834:	5e                   	pop    %esi
    1835:	5f                   	pop    %edi
    1836:	5d                   	pop    %ebp
    1837:	c3                   	ret    
    1838:	c7 83 20 01 00 00 00 	movl   $0x0,0x120(%ebx)
    183f:	00 00 00 
    1842:	eb 87                	jmp    17cb <init_button+0x9b>
    1844:	8d b6 00 00 00 00    	lea    0x0(%esi),%esi
    184a:	8d bf 00 00 00 00    	lea    0x0(%edi),%edi

00001850 <create_button>:
    1850:	55                   	push   %ebp
    1851:	89 e5                	mov    %esp,%ebp
    1853:	57                   	push   %edi
    1854:	56                   	push   %esi
    1855:	53                   	push   %ebx
    1856:	83 ec 2c             	sub    $0x2c,%esp
    1859:	8b 7d 10             	mov    0x10(%ebp),%edi
    185c:	c7 04 24 38 01 00 00 	movl   $0x138,(%esp)
    1863:	e8 68 4d 01 00       	call   165d0 <malloc>
    1868:	89 c3                	mov    %eax,%ebx
    186a:	85 c0                	test   %eax,%eax
    186c:	0f 84 eb 00 00 00    	je     195d <create_button+0x10d>
    1872:	8b 45 08             	mov    0x8(%ebp),%eax
    1875:	8d 73 58             	lea    0x58(%ebx),%esi
    1878:	89 44 24 04          	mov    %eax,0x4(%esp)
    187c:	89 1c 24             	mov    %ebx,(%esp)
    187f:	e8 9c 11 00 00       	call   2a20 <widget_init>
    1884:	89 34 24             	mov    %esi,(%esp)
    1887:	c7 43 40 b0 16 00 00 	movl   $0x16b0,0x40(%ebx)
    188e:	c7 43 44 50 14 00 00 	movl   $0x1450,0x44(%ebx)
    1895:	c7 43 48 00 16 00 00 	movl   $0x1600,0x48(%ebx)
    189c:	c7 43 4c e0 15 00 00 	movl   $0x15e0,0x4c(%ebx)
    18a3:	c7 43 50 80 16 00 00 	movl   $0x1680,0x50(%ebx)
    18aa:	c7 43 54 40 16 00 00 	movl   $0x1640,0x54(%ebx)
    18b1:	e8 ca 2f 00 00       	call   4880 <source_init>
    18b6:	8b 55 14             	mov    0x14(%ebp),%edx
    18b9:	89 54 24 04          	mov    %edx,0x4(%esp)
    18bd:	89 34 24             	mov    %esi,(%esp)
    18c0:	8d b3 bc 00 00 00    	lea    0xbc(%ebx),%esi
    18c6:	e8 45 30 00 00       	call   4910 <source_set_color>
    18cb:	89 34 24             	mov    %esi,(%esp)
    18ce:	e8 ad 2f 00 00       	call   4880 <source_init>
    18d3:	8b 55 18             	mov    0x18(%ebp),%edx
    18d6:	89 34 24             	mov    %esi,(%esp)
    18d9:	89 54 24 04          	mov    %edx,0x4(%esp)
    18dd:	e8 2e 30 00 00       	call   4910 <source_set_color>
    18e2:	8b 75 0c             	mov    0xc(%ebp),%esi
    18e5:	85 f6                	test   %esi,%esi
    18e7:	74 7f                	je     1968 <create_button+0x118>
    18e9:	8b 45 0c             	mov    0xc(%ebp),%eax
    18ec:	89 04 24             	mov    %eax,(%esp)
    18ef:	e8 8c aa 00 00       	call   c380 <str_dup>
    18f4:	89 83 20 01 00 00    	mov    %eax,0x120(%ebx)
    18fa:	8d b3 24 01 00 00    	lea    0x124(%ebx),%esi
    1900:	81 e7 ff ff 00 00    	and    $0xffff,%edi
    1906:	89 7c 24 0c          	mov    %edi,0xc(%esp)
    190a:	c7 44 24 08 00 00 00 	movl   $0x0,0x8(%esp)
    1911:	00 
    1912:	c7 44 24 04 00 00 00 	movl   $0x0,0x4(%esp)
    1919:	00 
    191a:	89 34 24             	mov    %esi,(%esp)
    191d:	e8 1e 2b 00 00       	call   4440 <font_init>
    1922:	8d 45 e4             	lea    -0x1c(%ebp),%eax
    1925:	89 44 24 0c          	mov    %eax,0xc(%esp)
    1929:	8d 45 e0             	lea    -0x20(%ebp),%eax
    192c:	89 44 24 08          	mov    %eax,0x8(%esp)
    1930:	8b 83 20 01 00 00    	mov    0x120(%ebx),%eax
    1936:	89 44 24 04          	mov    %eax,0x4(%esp)
    193a:	89 34 24             	mov    %esi,(%esp)
    193d:	e8 2e 2c 00 00       	call   4570 <font_get_box>
    1942:	8b 55 e0             	mov    -0x20(%ebp),%edx
    1945:	8d 42 08             	lea    0x8(%edx),%eax
    1948:	83 c2 1c             	add    $0x1c,%edx
    194b:	89 43 28             	mov    %eax,0x28(%ebx)
    194e:	8b 45 e4             	mov    -0x1c(%ebp),%eax
    1951:	83 c0 08             	add    $0x8,%eax
    1954:	89 53 30             	mov    %edx,0x30(%ebx)
    1957:	89 43 2c             	mov    %eax,0x2c(%ebx)
    195a:	89 43 34             	mov    %eax,0x34(%ebx)
    195d:	83 c4 2c             	add    $0x2c,%esp
    1960:	89 d8                	mov    %ebx,%eax
    1962:	5b                   	pop    %ebx
    1963:	5e                   	pop    %esi
    1964:	5f                   	pop    %edi
    1965:	5d                   	pop    %ebp
    1966:	c3                   	ret    
    1967:	90                   	nop
    1968:	c7 83 20 01 00 00 00 	movl   $0x0,0x120(%ebx)
    196f:	00 00 00 
    1972:	eb 86                	jmp    18fa <create_button+0xaa>
    1974:	66 90                	xchg   %ax,%ax
    1976:	66 90                	xchg   %ax,%ax
    1978:	66 90                	xchg   %ax,%ax
    197a:	66 90                	xchg   %ax,%ax
    197c:	66 90                	xchg   %ax,%ax
    197e:	66 90                	xchg   %ax,%ax

00001980 <sig_connect>:
    1980:	55                   	push   %ebp
    1981:	89 e5                	mov    %esp,%ebp
    1983:	57                   	push   %edi
    1984:	56                   	push   %esi
    1985:	53                   	push   %ebx
    1986:	83 ec 2c             	sub    $0x2c,%esp
    1989:	8b 75 08             	mov    0x8(%ebp),%esi
    198c:	8b 7d 0c             	mov    0xc(%ebp),%edi
    198f:	c7 04 24 e0 5d 02 00 	movl   $0x25de0,(%esp)
    1996:	8b 5d 10             	mov    0x10(%ebp),%ebx
    1999:	e8 e2 bf 00 00       	call   d980 <fibril_rwlock_write_lock>
    199e:	a1 f8 5d 02 00       	mov    0x25df8,%eax
    19a3:	3d f4 5d 02 00       	cmp    $0x25df4,%eax
    19a8:	75 10                	jne    19ba <sig_connect+0x3a>
    19aa:	eb 54                	jmp    1a00 <sig_connect+0x80>
    19ac:	8d 74 26 00          	lea    0x0(%esi,%eiz,1),%esi
    19b0:	8b 40 04             	mov    0x4(%eax),%eax
    19b3:	3d f4 5d 02 00       	cmp    $0x25df4,%eax
    19b8:	74 46                	je     1a00 <sig_connect+0x80>
    19ba:	39 70 08             	cmp    %esi,0x8(%eax)
    19bd:	75 f1                	jne    19b0 <sig_connect+0x30>
    19bf:	89 c1                	mov    %eax,%ecx
    19c1:	8d 70 0c             	lea    0xc(%eax),%esi
    19c4:	8b 51 10             	mov    0x10(%ecx),%edx
    19c7:	39 f2                	cmp    %esi,%edx
    19c9:	75 0c                	jne    19d7 <sig_connect+0x57>
    19cb:	eb 6b                	jmp    1a38 <sig_connect+0xb8>
    19cd:	8d 76 00             	lea    0x0(%esi),%esi
    19d0:	8b 52 04             	mov    0x4(%edx),%edx
    19d3:	39 f2                	cmp    %esi,%edx
    19d5:	74 61                	je     1a38 <sig_connect+0xb8>
    19d7:	39 7a 08             	cmp    %edi,0x8(%edx)
    19da:	75 f4                	jne    19d0 <sig_connect+0x50>
    19dc:	39 5a 0c             	cmp    %ebx,0xc(%edx)
    19df:	75 ef                	jne    19d0 <sig_connect+0x50>
    19e1:	c7 04 24 e0 5d 02 00 	movl   $0x25de0,(%esp)
    19e8:	e8 d3 c0 00 00       	call   dac0 <fibril_rwlock_write_unlock>
    19ed:	c7 45 08 e0 5d 02 00 	movl   $0x25de0,0x8(%ebp)
    19f4:	83 c4 2c             	add    $0x2c,%esp
    19f7:	5b                   	pop    %ebx
    19f8:	5e                   	pop    %esi
    19f9:	5f                   	pop    %edi
    19fa:	5d                   	pop    %ebp
    19fb:	e9 c0 c0 00 00       	jmp    dac0 <fibril_rwlock_write_unlock>
    1a00:	c7 04 24 14 00 00 00 	movl   $0x14,(%esp)
    1a07:	e8 c4 4b 01 00       	call   165d0 <malloc>
    1a0c:	89 c1                	mov    %eax,%ecx
    1a0e:	85 c0                	test   %eax,%eax
    1a10:	74 db                	je     19ed <sig_connect+0x6d>
    1a12:	a1 f4 5d 02 00       	mov    0x25df4,%eax
    1a17:	89 71 08             	mov    %esi,0x8(%ecx)
    1a1a:	8d 71 0c             	lea    0xc(%ecx),%esi
    1a1d:	c7 41 04 f4 5d 02 00 	movl   $0x25df4,0x4(%ecx)
    1a24:	89 71 10             	mov    %esi,0x10(%ecx)
    1a27:	89 71 0c             	mov    %esi,0xc(%ecx)
    1a2a:	89 01                	mov    %eax,(%ecx)
    1a2c:	89 48 04             	mov    %ecx,0x4(%eax)
    1a2f:	89 0d f4 5d 02 00    	mov    %ecx,0x25df4
    1a35:	eb 8d                	jmp    19c4 <sig_connect+0x44>
    1a37:	90                   	nop
    1a38:	c7 04 24 10 00 00 00 	movl   $0x10,(%esp)
    1a3f:	89 4d e4             	mov    %ecx,-0x1c(%ebp)
    1a42:	e8 89 4b 01 00       	call   165d0 <malloc>
    1a47:	8b 4d e4             	mov    -0x1c(%ebp),%ecx
    1a4a:	85 c0                	test   %eax,%eax
    1a4c:	74 9f                	je     19ed <sig_connect+0x6d>
    1a4e:	c7 00 00 00 00 00    	movl   $0x0,(%eax)
    1a54:	89 78 08             	mov    %edi,0x8(%eax)
    1a57:	8b 51 0c             	mov    0xc(%ecx),%edx
    1a5a:	89 58 0c             	mov    %ebx,0xc(%eax)
    1a5d:	89 10                	mov    %edx,(%eax)
    1a5f:	89 70 04             	mov    %esi,0x4(%eax)
    1a62:	8b 51 0c             	mov    0xc(%ecx),%edx
    1a65:	89 41 0c             	mov    %eax,0xc(%ecx)
    1a68:	89 42 04             	mov    %eax,0x4(%edx)
    1a6b:	eb 80                	jmp    19ed <sig_connect+0x6d>
    1a6d:	8d 76 00             	lea    0x0(%esi),%esi

00001a70 <sig_disconnect>:
    1a70:	55                   	push   %ebp
    1a71:	89 e5                	mov    %esp,%ebp
    1a73:	57                   	push   %edi
    1a74:	56                   	push   %esi
    1a75:	53                   	push   %ebx
    1a76:	83 ec 2c             	sub    $0x2c,%esp
    1a79:	8b 55 10             	mov    0x10(%ebp),%edx
    1a7c:	8b 75 08             	mov    0x8(%ebp),%esi
    1a7f:	c7 04 24 e0 5d 02 00 	movl   $0x25de0,(%esp)
    1a86:	89 55 e4             	mov    %edx,-0x1c(%ebp)
    1a89:	8b 7d 0c             	mov    0xc(%ebp),%edi
    1a8c:	e8 ef be 00 00       	call   d980 <fibril_rwlock_write_lock>
    1a91:	8b 1d f8 5d 02 00    	mov    0x25df8,%ebx
    1a97:	8b 55 e4             	mov    -0x1c(%ebp),%edx
    1a9a:	81 fb f4 5d 02 00    	cmp    $0x25df4,%ebx
    1aa0:	75 11                	jne    1ab3 <sig_disconnect+0x43>
    1aa2:	e9 89 00 00 00       	jmp    1b30 <sig_disconnect+0xc0>
    1aa7:	90                   	nop
    1aa8:	8b 5b 04             	mov    0x4(%ebx),%ebx
    1aab:	81 fb f4 5d 02 00    	cmp    $0x25df4,%ebx
    1ab1:	74 7d                	je     1b30 <sig_disconnect+0xc0>
    1ab3:	39 73 08             	cmp    %esi,0x8(%ebx)
    1ab6:	75 f0                	jne    1aa8 <sig_disconnect+0x38>
    1ab8:	8b 43 10             	mov    0x10(%ebx),%eax
    1abb:	8d 73 0c             	lea    0xc(%ebx),%esi
    1abe:	39 f0                	cmp    %esi,%eax
    1ac0:	75 0d                	jne    1acf <sig_disconnect+0x5f>
    1ac2:	eb 6c                	jmp    1b30 <sig_disconnect+0xc0>
    1ac4:	8d 74 26 00          	lea    0x0(%esi,%eiz,1),%esi
    1ac8:	8b 40 04             	mov    0x4(%eax),%eax
    1acb:	39 f0                	cmp    %esi,%eax
    1acd:	74 61                	je     1b30 <sig_disconnect+0xc0>
    1acf:	39 78 08             	cmp    %edi,0x8(%eax)
    1ad2:	75 f4                	jne    1ac8 <sig_disconnect+0x58>
    1ad4:	39 50 0c             	cmp    %edx,0xc(%eax)
    1ad7:	75 ef                	jne    1ac8 <sig_disconnect+0x58>
    1ad9:	8b 08                	mov    (%eax),%ecx
    1adb:	85 c9                	test   %ecx,%ecx
    1add:	74 0e                	je     1aed <sig_disconnect+0x7d>
    1adf:	8b 50 04             	mov    0x4(%eax),%edx
    1ae2:	85 d2                	test   %edx,%edx
    1ae4:	74 07                	je     1aed <sig_disconnect+0x7d>
    1ae6:	89 0a                	mov    %ecx,(%edx)
    1ae8:	8b 08                	mov    (%eax),%ecx
    1aea:	89 51 04             	mov    %edx,0x4(%ecx)
    1aed:	c7 00 00 00 00 00    	movl   $0x0,(%eax)
    1af3:	c7 40 04 00 00 00 00 	movl   $0x0,0x4(%eax)
    1afa:	89 04 24             	mov    %eax,(%esp)
    1afd:	e8 de 4b 01 00       	call   166e0 <free>
    1b02:	39 73 10             	cmp    %esi,0x10(%ebx)
    1b05:	75 29                	jne    1b30 <sig_disconnect+0xc0>
    1b07:	8b 13                	mov    (%ebx),%edx
    1b09:	85 d2                	test   %edx,%edx
    1b0b:	74 0e                	je     1b1b <sig_disconnect+0xab>
    1b0d:	8b 43 04             	mov    0x4(%ebx),%eax
    1b10:	85 c0                	test   %eax,%eax
    1b12:	74 07                	je     1b1b <sig_disconnect+0xab>
    1b14:	89 10                	mov    %edx,(%eax)
    1b16:	8b 13                	mov    (%ebx),%edx
    1b18:	89 42 04             	mov    %eax,0x4(%edx)
    1b1b:	c7 03 00 00 00 00    	movl   $0x0,(%ebx)
    1b21:	c7 43 04 00 00 00 00 	movl   $0x0,0x4(%ebx)
    1b28:	89 1c 24             	mov    %ebx,(%esp)
    1b2b:	e8 b0 4b 01 00       	call   166e0 <free>
    1b30:	c7 45 08 e0 5d 02 00 	movl   $0x25de0,0x8(%ebp)
    1b37:	83 c4 2c             	add    $0x2c,%esp
    1b3a:	5b                   	pop    %ebx
    1b3b:	5e                   	pop    %esi
    1b3c:	5f                   	pop    %edi
    1b3d:	5d                   	pop    %ebp
    1b3e:	e9 7d bf 00 00       	jmp    dac0 <fibril_rwlock_write_unlock>
    1b43:	8d b6 00 00 00 00    	lea    0x0(%esi),%esi
    1b49:	8d bc 27 00 00 00 00 	lea    0x0(%edi,%eiz,1),%edi

00001b50 <sig_send>:
    1b50:	55                   	push   %ebp
    1b51:	89 e5                	mov    %esp,%ebp
    1b53:	57                   	push   %edi
    1b54:	56                   	push   %esi
    1b55:	53                   	push   %ebx
    1b56:	83 ec 1c             	sub    $0x1c,%esp
    1b59:	8b 5d 08             	mov    0x8(%ebp),%ebx
    1b5c:	8b 75 0c             	mov    0xc(%ebp),%esi
    1b5f:	c7 04 24 e0 5d 02 00 	movl   $0x25de0,(%esp)
    1b66:	e8 35 bd 00 00       	call   d8a0 <fibril_rwlock_read_lock>
    1b6b:	a1 f8 5d 02 00       	mov    0x25df8,%eax
    1b70:	3d f4 5d 02 00       	cmp    $0x25df4,%eax
    1b75:	75 13                	jne    1b8a <sig_send+0x3a>
    1b77:	eb 3b                	jmp    1bb4 <sig_send+0x64>
    1b79:	8d b4 26 00 00 00 00 	lea    0x0(%esi,%eiz,1),%esi
    1b80:	8b 40 04             	mov    0x4(%eax),%eax
    1b83:	3d f4 5d 02 00       	cmp    $0x25df4,%eax
    1b88:	74 2a                	je     1bb4 <sig_send+0x64>
    1b8a:	39 58 08             	cmp    %ebx,0x8(%eax)
    1b8d:	75 f1                	jne    1b80 <sig_send+0x30>
    1b8f:	8b 58 10             	mov    0x10(%eax),%ebx
    1b92:	8d 78 0c             	lea    0xc(%eax),%edi
    1b95:	39 fb                	cmp    %edi,%ebx
    1b97:	74 1b                	je     1bb4 <sig_send+0x64>
    1b99:	8d b4 26 00 00 00 00 	lea    0x0(%esi,%eiz,1),%esi
    1ba0:	89 74 24 04          	mov    %esi,0x4(%esp)
    1ba4:	8b 43 08             	mov    0x8(%ebx),%eax
    1ba7:	89 04 24             	mov    %eax,(%esp)
    1baa:	ff 53 0c             	call   *0xc(%ebx)
    1bad:	8b 5b 04             	mov    0x4(%ebx),%ebx
    1bb0:	39 fb                	cmp    %edi,%ebx
    1bb2:	75 ec                	jne    1ba0 <sig_send+0x50>
    1bb4:	c7 45 08 e0 5d 02 00 	movl   $0x25de0,0x8(%ebp)
    1bbb:	83 c4 1c             	add    $0x1c,%esp
    1bbe:	5b                   	pop    %ebx
    1bbf:	5e                   	pop    %esi
    1bc0:	5f                   	pop    %edi
    1bc1:	5d                   	pop    %ebp
    1bc2:	e9 99 be 00 00       	jmp    da60 <fibril_rwlock_read_unlock>
    1bc7:	89 f6                	mov    %esi,%esi
    1bc9:	8d bc 27 00 00 00 00 	lea    0x0(%edi,%eiz,1),%edi

00001bd0 <sig_post>:
    1bd0:	55                   	push   %ebp
    1bd1:	89 e5                	mov    %esp,%ebp
    1bd3:	57                   	push   %edi
    1bd4:	56                   	push   %esi
    1bd5:	53                   	push   %ebx
    1bd6:	83 ec 2c             	sub    $0x2c,%esp
    1bd9:	8b 45 0c             	mov    0xc(%ebp),%eax
    1bdc:	8b 5d 08             	mov    0x8(%ebp),%ebx
    1bdf:	c7 04 24 e0 5d 02 00 	movl   $0x25de0,(%esp)
    1be6:	89 45 e0             	mov    %eax,-0x20(%ebp)
    1be9:	8b 75 10             	mov    0x10(%ebp),%esi
    1bec:	e8 af bc 00 00       	call   d8a0 <fibril_rwlock_read_lock>
    1bf1:	a1 f8 5d 02 00       	mov    0x25df8,%eax
    1bf6:	3d f4 5d 02 00       	cmp    $0x25df4,%eax
    1bfb:	75 19                	jne    1c16 <sig_post+0x46>
    1bfd:	e9 be 00 00 00       	jmp    1cc0 <sig_post+0xf0>
    1c02:	8d b6 00 00 00 00    	lea    0x0(%esi),%esi
    1c08:	8b 40 04             	mov    0x4(%eax),%eax
    1c0b:	3d f4 5d 02 00       	cmp    $0x25df4,%eax
    1c10:	0f 84 aa 00 00 00    	je     1cc0 <sig_post+0xf0>
    1c16:	39 58 08             	cmp    %ebx,0x8(%eax)
    1c19:	75 ed                	jne    1c08 <sig_post+0x38>
    1c1b:	8b 58 10             	mov    0x10(%eax),%ebx
    1c1e:	83 c0 0c             	add    $0xc,%eax
    1c21:	89 45 e4             	mov    %eax,-0x1c(%ebp)
    1c24:	39 c3                	cmp    %eax,%ebx
    1c26:	0f 84 94 00 00 00    	je     1cc0 <sig_post+0xf0>
    1c2c:	8b 55 e0             	mov    -0x20(%ebp),%edx
    1c2f:	85 d2                	test   %edx,%edx
    1c31:	75 42                	jne    1c75 <sig_post+0xa5>
    1c33:	e9 9b 00 00 00       	jmp    1cd3 <sig_post+0x103>
    1c38:	8b 43 08             	mov    0x8(%ebx),%eax
    1c3b:	c7 02 00 00 00 00    	movl   $0x0,(%edx)
    1c41:	89 42 0c             	mov    %eax,0xc(%edx)
    1c44:	c7 42 04 00 00 00 00 	movl   $0x0,0x4(%edx)
    1c4b:	8b 4b 0c             	mov    0xc(%ebx),%ecx
    1c4e:	c7 42 08 02 00 00 00 	movl   $0x2,0x8(%edx)
    1c55:	89 4a 10             	mov    %ecx,0x10(%edx)
    1c58:	89 7a 14             	mov    %edi,0x14(%edx)
    1c5b:	89 54 24 04          	mov    %edx,0x4(%esp)
    1c5f:	8b 40 14             	mov    0x14(%eax),%eax
    1c62:	83 c0 10             	add    $0x10,%eax
    1c65:	89 04 24             	mov    %eax,(%esp)
    1c68:	e8 f3 b0 01 00       	call   1cd60 <prodcons_produce>
    1c6d:	8b 5b 04             	mov    0x4(%ebx),%ebx
    1c70:	3b 5d e4             	cmp    -0x1c(%ebp),%ebx
    1c73:	74 4b                	je     1cc0 <sig_post+0xf0>
    1c75:	89 34 24             	mov    %esi,(%esp)
    1c78:	e8 53 49 01 00       	call   165d0 <malloc>
    1c7d:	89 c7                	mov    %eax,%edi
    1c7f:	85 c0                	test   %eax,%eax
    1c81:	0f 84 a3 00 00 00    	je     1d2a <sig_post+0x15a>
    1c87:	8b 45 e0             	mov    -0x20(%ebp),%eax
    1c8a:	89 74 24 08          	mov    %esi,0x8(%esp)
    1c8e:	89 44 24 04          	mov    %eax,0x4(%esp)
    1c92:	89 3c 24             	mov    %edi,(%esp)
    1c95:	e8 36 79 00 00       	call   95d0 <memcpy>
    1c9a:	c7 04 24 24 00 00 00 	movl   $0x24,(%esp)
    1ca1:	e8 2a 49 01 00       	call   165d0 <malloc>
    1ca6:	89 c2                	mov    %eax,%edx
    1ca8:	85 c0                	test   %eax,%eax
    1caa:	75 8c                	jne    1c38 <sig_post+0x68>
    1cac:	89 3c 24             	mov    %edi,(%esp)
    1caf:	e8 2c 4a 01 00       	call   166e0 <free>
    1cb4:	8b 5b 04             	mov    0x4(%ebx),%ebx
    1cb7:	3b 5d e4             	cmp    -0x1c(%ebp),%ebx
    1cba:	75 b9                	jne    1c75 <sig_post+0xa5>
    1cbc:	8d 74 26 00          	lea    0x0(%esi,%eiz,1),%esi
    1cc0:	c7 45 08 e0 5d 02 00 	movl   $0x25de0,0x8(%ebp)
    1cc7:	83 c4 2c             	add    $0x2c,%esp
    1cca:	5b                   	pop    %ebx
    1ccb:	5e                   	pop    %esi
    1ccc:	5f                   	pop    %edi
    1ccd:	5d                   	pop    %ebp
    1cce:	e9 8d bd 00 00       	jmp    da60 <fibril_rwlock_read_unlock>
    1cd3:	89 c6                	mov    %eax,%esi
    1cd5:	8d 76 00             	lea    0x0(%esi),%esi
    1cd8:	c7 04 24 24 00 00 00 	movl   $0x24,(%esp)
    1cdf:	e8 ec 48 01 00       	call   165d0 <malloc>
    1ce4:	85 c0                	test   %eax,%eax
    1ce6:	74 39                	je     1d21 <sig_post+0x151>
    1ce8:	8b 53 08             	mov    0x8(%ebx),%edx
    1ceb:	c7 00 00 00 00 00    	movl   $0x0,(%eax)
    1cf1:	89 50 0c             	mov    %edx,0xc(%eax)
    1cf4:	c7 40 04 00 00 00 00 	movl   $0x0,0x4(%eax)
    1cfb:	8b 4b 0c             	mov    0xc(%ebx),%ecx
    1cfe:	c7 40 08 02 00 00 00 	movl   $0x2,0x8(%eax)
    1d05:	89 48 10             	mov    %ecx,0x10(%eax)
    1d08:	c7 40 14 00 00 00 00 	movl   $0x0,0x14(%eax)
    1d0f:	89 44 24 04          	mov    %eax,0x4(%esp)
    1d13:	8b 42 14             	mov    0x14(%edx),%eax
    1d16:	83 c0 10             	add    $0x10,%eax
    1d19:	89 04 24             	mov    %eax,(%esp)
    1d1c:	e8 3f b0 01 00       	call   1cd60 <prodcons_produce>
    1d21:	8b 5b 04             	mov    0x4(%ebx),%ebx
    1d24:	39 f3                	cmp    %esi,%ebx
    1d26:	75 b0                	jne    1cd8 <sig_post+0x108>
    1d28:	eb 96                	jmp    1cc0 <sig_post+0xf0>
    1d2a:	c7 04 24 24 00 00 00 	movl   $0x24,(%esp)
    1d31:	e8 9a 48 01 00       	call   165d0 <malloc>
    1d36:	89 c2                	mov    %eax,%edx
    1d38:	85 c0                	test   %eax,%eax
    1d3a:	0f 85 f8 fe ff ff    	jne    1c38 <sig_post+0x68>
    1d40:	e9 28 ff ff ff       	jmp    1c6d <sig_post+0x9d>
    1d45:	66 90                	xchg   %ax,%ax
    1d47:	66 90                	xchg   %ax,%ax
    1d49:	66 90                	xchg   %ax,%ax
    1d4b:	66 90                	xchg   %ax,%ax
    1d4d:	66 90                	xchg   %ax,%ax
    1d4f:	90                   	nop

00001d50 <grid_reconfigure>:
    1d50:	55                   	push   %ebp
    1d51:	89 e5                	mov    %esp,%ebp
    1d53:	5d                   	pop    %ebp
    1d54:	c3                   	ret    
    1d55:	8d 74 26 00          	lea    0x0(%esi,%eiz,1),%esi
    1d59:	8d bc 27 00 00 00 00 	lea    0x0(%edi,%eiz,1),%edi

00001d60 <grid_handle_keyboard_event>:
    1d60:	55                   	push   %ebp
    1d61:	89 e5                	mov    %esp,%ebp
    1d63:	5d                   	pop    %ebp
    1d64:	c3                   	ret    
    1d65:	8d 74 26 00          	lea    0x0(%esi,%eiz,1),%esi
    1d69:	8d bc 27 00 00 00 00 	lea    0x0(%edi,%eiz,1),%edi

00001d70 <grid_handle_position_event>:
    1d70:	55                   	push   %ebp
    1d71:	31 d2                	xor    %edx,%edx
    1d73:	89 e5                	mov    %esp,%ebp
    1d75:	57                   	push   %edi
    1d76:	56                   	push   %esi
    1d77:	53                   	push   %ebx
    1d78:	83 ec 1c             	sub    $0x1c,%esp
    1d7b:	8b 4d 08             	mov    0x8(%ebp),%ecx
    1d7e:	8b 59 5c             	mov    0x5c(%ecx),%ebx
    1d81:	8b 41 24             	mov    0x24(%ecx),%eax
    1d84:	f7 f3                	div    %ebx
    1d86:	89 c6                	mov    %eax,%esi
    1d88:	85 c0                	test   %eax,%eax
    1d8a:	74 64                	je     1df0 <grid_handle_position_event+0x80>
    1d8c:	31 d2                	xor    %edx,%edx
    1d8e:	8b 79 60             	mov    0x60(%ecx),%edi
    1d91:	8b 41 20             	mov    0x20(%ecx),%eax
    1d94:	f7 f7                	div    %edi
    1d96:	89 45 e4             	mov    %eax,-0x1c(%ebp)
    1d99:	85 c0                	test   %eax,%eax
    1d9b:	74 53                	je     1df0 <grid_handle_position_event+0x80>
    1d9d:	8b 45 1c             	mov    0x1c(%ebp),%eax
    1da0:	8b 51 1c             	mov    0x1c(%ecx),%edx
    1da3:	89 45 e0             	mov    %eax,-0x20(%ebp)
    1da6:	29 d0                	sub    %edx,%eax
    1da8:	31 d2                	xor    %edx,%edx
    1daa:	f7 f6                	div    %esi
    1dac:	89 45 dc             	mov    %eax,-0x24(%ebp)
    1daf:	8b 75 18             	mov    0x18(%ebp),%esi
    1db2:	8b 41 18             	mov    0x18(%ecx),%eax
    1db5:	3b 5d dc             	cmp    -0x24(%ebp),%ebx
    1db8:	76 36                	jbe    1df0 <grid_handle_position_event+0x80>
    1dba:	89 f2                	mov    %esi,%edx
    1dbc:	29 c2                	sub    %eax,%edx
    1dbe:	89 d0                	mov    %edx,%eax
    1dc0:	31 d2                	xor    %edx,%edx
    1dc2:	f7 75 e4             	divl   -0x1c(%ebp)
    1dc5:	39 c7                	cmp    %eax,%edi
    1dc7:	76 27                	jbe    1df0 <grid_handle_position_event+0x80>
    1dc9:	8b 55 dc             	mov    -0x24(%ebp),%edx
    1dcc:	0f af d7             	imul   %edi,%edx
    1dcf:	01 d0                	add    %edx,%eax
    1dd1:	8b 51 64             	mov    0x64(%ecx),%edx
    1dd4:	8d 04 82             	lea    (%edx,%eax,4),%eax
    1dd7:	85 c0                	test   %eax,%eax
    1dd9:	74 15                	je     1df0 <grid_handle_position_event+0x80>
    1ddb:	8b 00                	mov    (%eax),%eax
    1ddd:	85 c0                	test   %eax,%eax
    1ddf:	74 0f                	je     1df0 <grid_handle_position_event+0x80>
    1de1:	89 45 08             	mov    %eax,0x8(%ebp)
    1de4:	8b 40 54             	mov    0x54(%eax),%eax
    1de7:	83 c4 1c             	add    $0x1c,%esp
    1dea:	5b                   	pop    %ebx
    1deb:	5e                   	pop    %esi
    1dec:	5f                   	pop    %edi
    1ded:	5d                   	pop    %ebp
    1dee:	ff e0                	jmp    *%eax
    1df0:	83 c4 1c             	add    $0x1c,%esp
    1df3:	5b                   	pop    %ebx
    1df4:	5e                   	pop    %esi
    1df5:	5f                   	pop    %edi
    1df6:	5d                   	pop    %ebp
    1df7:	c3                   	ret    
    1df8:	90                   	nop
    1df9:	8d b4 26 00 00 00 00 	lea    0x0(%esi,%eiz,1),%esi

00001e00 <grid_add>:
    1e00:	55                   	push   %ebp
    1e01:	89 e5                	mov    %esp,%ebp
    1e03:	57                   	push   %edi
    1e04:	56                   	push   %esi
    1e05:	53                   	push   %ebx
    1e06:	83 ec 3c             	sub    $0x3c,%esp
    1e09:	8b 5d 08             	mov    0x8(%ebp),%ebx
    1e0c:	8b 55 10             	mov    0x10(%ebp),%edx
    1e0f:	8b 45 18             	mov    0x18(%ebp),%eax
    1e12:	8b 75 0c             	mov    0xc(%ebp),%esi
    1e15:	01 d0                	add    %edx,%eax
    1e17:	8b 5b 5c             	mov    0x5c(%ebx),%ebx
    1e1a:	89 45 dc             	mov    %eax,-0x24(%ebp)
    1e1d:	89 5d d4             	mov    %ebx,-0x2c(%ebp)
    1e20:	39 d8                	cmp    %ebx,%eax
    1e22:	0f 87 ae 00 00 00    	ja     1ed6 <grid_add+0xd6>
    1e28:	8b 45 08             	mov    0x8(%ebp),%eax
    1e2b:	8b 7d 1c             	mov    0x1c(%ebp),%edi
    1e2e:	8b 4d 14             	mov    0x14(%ebp),%ecx
    1e31:	01 f9                	add    %edi,%ecx
    1e33:	8b 78 60             	mov    0x60(%eax),%edi
    1e36:	39 f9                	cmp    %edi,%ecx
    1e38:	0f 87 b4 00 00 00    	ja     1ef2 <grid_add+0xf2>
    1e3e:	89 c3                	mov    %eax,%ebx
    1e40:	89 46 08             	mov    %eax,0x8(%esi)
    1e43:	83 c0 0c             	add    $0xc,%eax
    1e46:	3b 55 dc             	cmp    -0x24(%ebp),%edx
    1e49:	89 46 04             	mov    %eax,0x4(%esi)
    1e4c:	8b 43 0c             	mov    0xc(%ebx),%eax
    1e4f:	89 06                	mov    %eax,(%esi)
    1e51:	8b 43 0c             	mov    0xc(%ebx),%eax
    1e54:	89 73 0c             	mov    %esi,0xc(%ebx)
    1e57:	89 70 04             	mov    %esi,0x4(%eax)
    1e5a:	8b 43 14             	mov    0x14(%ebx),%eax
    1e5d:	89 46 14             	mov    %eax,0x14(%esi)
    1e60:	73 6c                	jae    1ece <grid_add+0xce>
    1e62:	8d 04 bd 00 00 00 00 	lea    0x0(,%edi,4),%eax
    1e69:	8b 5d 14             	mov    0x14(%ebp),%ebx
    1e6c:	89 45 d8             	mov    %eax,-0x28(%ebp)
    1e6f:	89 d0                	mov    %edx,%eax
    1e71:	0f af c7             	imul   %edi,%eax
    1e74:	01 d8                	add    %ebx,%eax
    1e76:	89 55 e4             	mov    %edx,-0x1c(%ebp)
    1e79:	c1 e0 02             	shl    $0x2,%eax
    1e7c:	89 45 e0             	mov    %eax,-0x20(%ebp)
    1e7f:	90                   	nop
    1e80:	39 4d 14             	cmp    %ecx,0x14(%ebp)
    1e83:	73 2f                	jae    1eb4 <grid_add+0xb4>
    1e85:	8b 45 e4             	mov    -0x1c(%ebp),%eax
    1e88:	39 45 d4             	cmp    %eax,-0x2c(%ebp)
    1e8b:	76 27                	jbe    1eb4 <grid_add+0xb4>
    1e8d:	8b 55 e0             	mov    -0x20(%ebp),%edx
    1e90:	8b 45 14             	mov    0x14(%ebp),%eax
    1e93:	89 4d d0             	mov    %ecx,-0x30(%ebp)
    1e96:	66 90                	xchg   %ax,%ax
    1e98:	39 c7                	cmp    %eax,%edi
    1e9a:	76 0c                	jbe    1ea8 <grid_add+0xa8>
    1e9c:	8b 5d 08             	mov    0x8(%ebp),%ebx
    1e9f:	8b 4b 64             	mov    0x64(%ebx),%ecx
    1ea2:	01 d1                	add    %edx,%ecx
    1ea4:	74 02                	je     1ea8 <grid_add+0xa8>
    1ea6:	89 31                	mov    %esi,(%ecx)
    1ea8:	40                   	inc    %eax
    1ea9:	83 c2 04             	add    $0x4,%edx
    1eac:	3b 45 d0             	cmp    -0x30(%ebp),%eax
    1eaf:	75 e7                	jne    1e98 <grid_add+0x98>
    1eb1:	8b 4d d0             	mov    -0x30(%ebp),%ecx
    1eb4:	8b 5d e4             	mov    -0x1c(%ebp),%ebx
    1eb7:	8b 55 e0             	mov    -0x20(%ebp),%edx
    1eba:	43                   	inc    %ebx
    1ebb:	8b 45 d8             	mov    -0x28(%ebp),%eax
    1ebe:	89 5d e4             	mov    %ebx,-0x1c(%ebp)
    1ec1:	01 c2                	add    %eax,%edx
    1ec3:	8b 5d dc             	mov    -0x24(%ebp),%ebx
    1ec6:	89 55 e0             	mov    %edx,-0x20(%ebp)
    1ec9:	39 5d e4             	cmp    %ebx,-0x1c(%ebp)
    1ecc:	75 b2                	jne    1e80 <grid_add+0x80>
    1ece:	83 c4 3c             	add    $0x3c,%esp
    1ed1:	5b                   	pop    %ebx
    1ed2:	5e                   	pop    %esi
    1ed3:	5f                   	pop    %edi
    1ed4:	5d                   	pop    %ebp
    1ed5:	c3                   	ret    
    1ed6:	c7 44 24 08 c0 00 00 	movl   $0xc0,0x8(%esp)
    1edd:	00 
    1ede:	c7 44 24 04 6e 33 02 	movl   $0x2336e,0x4(%esp)
    1ee5:	00 
    1ee6:	c7 04 24 75 33 02 00 	movl   $0x23375,(%esp)
    1eed:	e8 be ef 01 00       	call   20eb0 <assert_abort>
    1ef2:	c7 44 24 08 c1 00 00 	movl   $0xc1,0x8(%esp)
    1ef9:	00 
    1efa:	c7 44 24 04 6e 33 02 	movl   $0x2336e,0x4(%esp)
    1f01:	00 
    1f02:	c7 04 24 8e 33 02 00 	movl   $0x2338e,(%esp)
    1f09:	e8 a2 ef 01 00       	call   20eb0 <assert_abort>
    1f0e:	66 90                	xchg   %ax,%ax

00001f10 <grid_rearrange>:
    1f10:	55                   	push   %ebp
    1f11:	89 e5                	mov    %esp,%ebp
    1f13:	57                   	push   %edi
    1f14:	56                   	push   %esi
    1f15:	53                   	push   %ebx
    1f16:	83 ec 5c             	sub    $0x5c,%esp
    1f19:	8b 45 18             	mov    0x18(%ebp),%eax
    1f1c:	8b 4d 10             	mov    0x10(%ebp),%ecx
    1f1f:	8b 75 08             	mov    0x8(%ebp),%esi
    1f22:	89 44 24 10          	mov    %eax,0x10(%esp)
    1f26:	89 4c 24 08          	mov    %ecx,0x8(%esp)
    1f2a:	8b 45 14             	mov    0x14(%ebp),%eax
    1f2d:	8b 4d 0c             	mov    0xc(%ebp),%ecx
    1f30:	89 44 24 0c          	mov    %eax,0xc(%esp)
    1f34:	89 4c 24 04          	mov    %ecx,0x4(%esp)
    1f38:	89 34 24             	mov    %esi,(%esp)
    1f3b:	e8 80 0b 00 00       	call   2ac0 <widget_modify>
    1f40:	8b 46 14             	mov    0x14(%esi),%eax
    1f43:	89 04 24             	mov    %eax,(%esp)
    1f46:	e8 75 1f 00 00       	call   3ec0 <window_claim>
    1f4b:	89 45 e4             	mov    %eax,-0x1c(%ebp)
    1f4e:	85 c0                	test   %eax,%eax
    1f50:	0f 84 00 02 00 00    	je     2156 <grid_rearrange+0x246>
    1f56:	8b 5e 1c             	mov    0x1c(%esi),%ebx
    1f59:	8b 4e 24             	mov    0x24(%esi),%ecx
    1f5c:	01 d9                	add    %ebx,%ecx
    1f5e:	39 cb                	cmp    %ecx,%ebx
    1f60:	73 58                	jae    1fba <grid_rearrange+0xaa>
    1f62:	8b 46 18             	mov    0x18(%esi),%eax
    1f65:	8b 56 20             	mov    0x20(%esi),%edx
    1f68:	01 c2                	add    %eax,%edx
    1f6a:	89 cf                	mov    %ecx,%edi
    1f6c:	89 d1                	mov    %edx,%ecx
    1f6e:	89 c2                	mov    %eax,%edx
    1f70:	39 d1                	cmp    %edx,%ecx
    1f72:	76 41                	jbe    1fb5 <grid_rearrange+0xa5>
    1f74:	89 f0                	mov    %esi,%eax
    1f76:	89 d7                	mov    %edx,%edi
    1f78:	89 de                	mov    %ebx,%esi
    1f7a:	89 c3                	mov    %eax,%ebx
    1f7c:	8d 74 26 00          	lea    0x0(%esi,%eiz,1),%esi
    1f80:	8b 53 58             	mov    0x58(%ebx),%edx
    1f83:	8b 45 e4             	mov    -0x1c(%ebp),%eax
    1f86:	89 54 24 0c          	mov    %edx,0xc(%esp)
    1f8a:	89 7c 24 04          	mov    %edi,0x4(%esp)
    1f8e:	89 74 24 08          	mov    %esi,0x8(%esp)
    1f92:	89 04 24             	mov    %eax,(%esp)
    1f95:	e8 86 2f 00 00       	call   4f20 <surface_put_pixel>
    1f9a:	8b 53 18             	mov    0x18(%ebx),%edx
    1f9d:	8b 4b 20             	mov    0x20(%ebx),%ecx
    1fa0:	47                   	inc    %edi
    1fa1:	01 d1                	add    %edx,%ecx
    1fa3:	39 cf                	cmp    %ecx,%edi
    1fa5:	72 d9                	jb     1f80 <grid_rearrange+0x70>
    1fa7:	89 d8                	mov    %ebx,%eax
    1fa9:	89 f3                	mov    %esi,%ebx
    1fab:	89 c6                	mov    %eax,%esi
    1fad:	8b 78 24             	mov    0x24(%eax),%edi
    1fb0:	8b 40 1c             	mov    0x1c(%eax),%eax
    1fb3:	01 c7                	add    %eax,%edi
    1fb5:	43                   	inc    %ebx
    1fb6:	39 fb                	cmp    %edi,%ebx
    1fb8:	72 b6                	jb     1f70 <grid_rearrange+0x60>
    1fba:	8b 46 14             	mov    0x14(%esi),%eax
    1fbd:	89 04 24             	mov    %eax,(%esp)
    1fc0:	e8 2b 1f 00 00       	call   3ef0 <window_yield>
    1fc5:	31 d2                	xor    %edx,%edx
    1fc7:	8b 5e 60             	mov    0x60(%esi),%ebx
    1fca:	8b 45 14             	mov    0x14(%ebp),%eax
    1fcd:	f7 f3                	div    %ebx
    1fcf:	8b 4e 5c             	mov    0x5c(%esi),%ecx
    1fd2:	31 d2                	xor    %edx,%edx
    1fd4:	89 45 cc             	mov    %eax,-0x34(%ebp)
    1fd7:	8b 45 18             	mov    0x18(%ebp),%eax
    1fda:	f7 f1                	div    %ecx
    1fdc:	8b 7e 10             	mov    0x10(%esi),%edi
    1fdf:	8d 56 0c             	lea    0xc(%esi),%edx
    1fe2:	89 4d e0             	mov    %ecx,-0x20(%ebp)
    1fe5:	89 45 d4             	mov    %eax,-0x2c(%ebp)
    1fe8:	89 55 d0             	mov    %edx,-0x30(%ebp)
    1feb:	39 d7                	cmp    %edx,%edi
    1fed:	0f 84 5b 01 00 00    	je     214e <grid_rearrange+0x23e>
    1ff3:	89 75 d8             	mov    %esi,-0x28(%ebp)
    1ff6:	66 90                	xchg   %ax,%ax
    1ff8:	8b 75 e0             	mov    -0x20(%ebp),%esi
    1ffb:	c7 45 dc 00 00 00 00 	movl   $0x0,-0x24(%ebp)
    2002:	c7 45 e4 00 00 00 00 	movl   $0x0,-0x1c(%ebp)
    2009:	85 f6                	test   %esi,%esi
    200b:	0f 84 2c 01 00 00    	je     213d <grid_rearrange+0x22d>
    2011:	85 db                	test   %ebx,%ebx
    2013:	0f 84 0e 01 00 00    	je     2127 <grid_rearrange+0x217>
    2019:	8b 4d e4             	mov    -0x1c(%ebp),%ecx
    201c:	39 4d e0             	cmp    %ecx,-0x20(%ebp)
    201f:	0f 86 fb 00 00 00    	jbe    2120 <grid_rearrange+0x210>
    2025:	8b 55 dc             	mov    -0x24(%ebp),%edx
    2028:	31 c0                	xor    %eax,%eax
    202a:	c1 e2 02             	shl    $0x2,%edx
    202d:	89 d1                	mov    %edx,%ecx
    202f:	90                   	nop
    2030:	39 c3                	cmp    %eax,%ebx
    2032:	76 14                	jbe    2048 <grid_rearrange+0x138>
    2034:	8b 55 d8             	mov    -0x28(%ebp),%edx
    2037:	8b 72 64             	mov    0x64(%edx),%esi
    203a:	89 f2                	mov    %esi,%edx
    203c:	01 ca                	add    %ecx,%edx
    203e:	74 08                	je     2048 <grid_rearrange+0x138>
    2040:	3b 3a                	cmp    (%edx),%edi
    2042:	0f 84 20 01 00 00    	je     2168 <grid_rearrange+0x258>
    2048:	40                   	inc    %eax
    2049:	83 c1 04             	add    $0x4,%ecx
    204c:	39 d8                	cmp    %ebx,%eax
    204e:	75 e0                	jne    2030 <grid_rearrange+0x120>
    2050:	8b 55 e4             	mov    -0x1c(%ebp),%edx
    2053:	8b 4d dc             	mov    -0x24(%ebp),%ecx
    2056:	01 d9                	add    %ebx,%ecx
    2058:	42                   	inc    %edx
    2059:	89 55 e4             	mov    %edx,-0x1c(%ebp)
    205c:	89 4d dc             	mov    %ecx,-0x24(%ebp)
    205f:	8b 4d e0             	mov    -0x20(%ebp),%ecx
    2062:	39 4d e4             	cmp    %ecx,-0x1c(%ebp)
    2065:	75 aa                	jne    2011 <grid_rearrange+0x101>
    2067:	8b 4d e4             	mov    -0x1c(%ebp),%ecx
    206a:	8b 75 d4             	mov    -0x2c(%ebp),%esi
    206d:	8b 55 cc             	mov    -0x34(%ebp),%edx
    2070:	0f af ce             	imul   %esi,%ecx
    2073:	0f af d0             	imul   %eax,%edx
    2076:	8b 75 0c             	mov    0xc(%ebp),%esi
    2079:	01 f2                	add    %esi,%edx
    207b:	89 55 c0             	mov    %edx,-0x40(%ebp)
    207e:	8b 55 10             	mov    0x10(%ebp),%edx
    2081:	01 d1                	add    %edx,%ecx
    2083:	89 4d bc             	mov    %ecx,-0x44(%ebp)
    2086:	8b 4d e0             	mov    -0x20(%ebp),%ecx
    2089:	39 4d e4             	cmp    %ecx,-0x1c(%ebp)
    208c:	73 75                	jae    2103 <grid_rearrange+0x1f3>
    208e:	39 d8                	cmp    %ebx,%eax
    2090:	73 71                	jae    2103 <grid_rearrange+0x1f3>
    2092:	8b 55 d8             	mov    -0x28(%ebp),%edx
    2095:	c7 45 dc 00 00 00 00 	movl   $0x0,-0x24(%ebp)
    209c:	8b 72 64             	mov    0x64(%edx),%esi
    209f:	8b 55 e4             	mov    -0x1c(%ebp),%edx
    20a2:	0f af d3             	imul   %ebx,%edx
    20a5:	01 c2                	add    %eax,%edx
    20a7:	8d 14 96             	lea    (%esi,%edx,4),%edx
    20aa:	85 d2                	test   %edx,%edx
    20ac:	74 55                	je     2103 <grid_rearrange+0x1f3>
    20ae:	3b 3a                	cmp    (%edx),%edi
    20b0:	75 51                	jne    2103 <grid_rearrange+0x1f3>
    20b2:	8b 4d e4             	mov    -0x1c(%ebp),%ecx
    20b5:	8d 14 9d 00 00 00 00 	lea    0x0(,%ebx,4),%edx
    20bc:	41                   	inc    %ecx
    20bd:	0f af cb             	imul   %ebx,%ecx
    20c0:	01 c8                	add    %ecx,%eax
    20c2:	8b 4d e4             	mov    -0x1c(%ebp),%ecx
    20c5:	f7 db                	neg    %ebx
    20c7:	c1 e3 02             	shl    $0x2,%ebx
    20ca:	8d 04 86             	lea    (%esi,%eax,4),%eax
    20cd:	31 f6                	xor    %esi,%esi
    20cf:	90                   	nop
    20d0:	41                   	inc    %ecx
    20d1:	03 75 d4             	add    -0x2c(%ebp),%esi
    20d4:	39 4d e0             	cmp    %ecx,-0x20(%ebp)
    20d7:	77 57                	ja     2130 <grid_rearrange+0x220>
    20d9:	85 f6                	test   %esi,%esi
    20db:	74 26                	je     2103 <grid_rearrange+0x1f3>
    20dd:	8b 45 dc             	mov    -0x24(%ebp),%eax
    20e0:	85 c0                	test   %eax,%eax
    20e2:	74 1f                	je     2103 <grid_rearrange+0x1f3>
    20e4:	8b 4d dc             	mov    -0x24(%ebp),%ecx
    20e7:	8b 45 bc             	mov    -0x44(%ebp),%eax
    20ea:	8b 55 c0             	mov    -0x40(%ebp),%edx
    20ed:	89 74 24 10          	mov    %esi,0x10(%esp)
    20f1:	89 4c 24 0c          	mov    %ecx,0xc(%esp)
    20f5:	89 44 24 08          	mov    %eax,0x8(%esp)
    20f9:	89 54 24 04          	mov    %edx,0x4(%esp)
    20fd:	89 3c 24             	mov    %edi,(%esp)
    2100:	ff 57 48             	call   *0x48(%edi)
    2103:	8b 7f 04             	mov    0x4(%edi),%edi
    2106:	3b 7d d0             	cmp    -0x30(%ebp),%edi
    2109:	74 43                	je     214e <grid_rearrange+0x23e>
    210b:	8b 4d d8             	mov    -0x28(%ebp),%ecx
    210e:	8b 59 60             	mov    0x60(%ecx),%ebx
    2111:	8b 49 5c             	mov    0x5c(%ecx),%ecx
    2114:	89 4d e0             	mov    %ecx,-0x20(%ebp)
    2117:	e9 dc fe ff ff       	jmp    1ff8 <grid_rearrange+0xe8>
    211c:	8d 74 26 00          	lea    0x0(%esi,%eiz,1),%esi
    2120:	89 d8                	mov    %ebx,%eax
    2122:	e9 29 ff ff ff       	jmp    2050 <grid_rearrange+0x140>
    2127:	31 c0                	xor    %eax,%eax
    2129:	e9 22 ff ff ff       	jmp    2050 <grid_rearrange+0x140>
    212e:	66 90                	xchg   %ax,%ax
    2130:	85 c0                	test   %eax,%eax
    2132:	74 a5                	je     20d9 <grid_rearrange+0x1c9>
    2134:	01 d0                	add    %edx,%eax
    2136:	3b 3c 18             	cmp    (%eax,%ebx,1),%edi
    2139:	74 95                	je     20d0 <grid_rearrange+0x1c0>
    213b:	eb 9c                	jmp    20d9 <grid_rearrange+0x1c9>
    213d:	8b 45 e0             	mov    -0x20(%ebp),%eax
    2140:	31 d2                	xor    %edx,%edx
    2142:	89 45 e4             	mov    %eax,-0x1c(%ebp)
    2145:	31 c9                	xor    %ecx,%ecx
    2147:	31 c0                	xor    %eax,%eax
    2149:	e9 28 ff ff ff       	jmp    2076 <grid_rearrange+0x166>
    214e:	83 c4 5c             	add    $0x5c,%esp
    2151:	5b                   	pop    %ebx
    2152:	5e                   	pop    %esi
    2153:	5f                   	pop    %edi
    2154:	5d                   	pop    %ebp
    2155:	c3                   	ret    
    2156:	8b 46 14             	mov    0x14(%esi),%eax
    2159:	89 04 24             	mov    %eax,(%esp)
    215c:	e8 8f 1d 00 00       	call   3ef0 <window_yield>
    2161:	e9 f0 fd ff ff       	jmp    1f56 <grid_rearrange+0x46>
    2166:	66 90                	xchg   %ax,%ax
    2168:	8b 55 cc             	mov    -0x34(%ebp),%edx
    216b:	8b 4d 0c             	mov    0xc(%ebp),%ecx
    216e:	0f af d0             	imul   %eax,%edx
    2171:	01 ca                	add    %ecx,%edx
    2173:	8b 4d d4             	mov    -0x2c(%ebp),%ecx
    2176:	89 55 c0             	mov    %edx,-0x40(%ebp)
    2179:	8b 55 e4             	mov    -0x1c(%ebp),%edx
    217c:	0f af d1             	imul   %ecx,%edx
    217f:	8b 4d 10             	mov    0x10(%ebp),%ecx
    2182:	89 45 c8             	mov    %eax,-0x38(%ebp)
    2185:	01 ca                	add    %ecx,%edx
    2187:	8b 4d dc             	mov    -0x24(%ebp),%ecx
    218a:	89 55 bc             	mov    %edx,-0x44(%ebp)
    218d:	89 75 c4             	mov    %esi,-0x3c(%ebp)
    2190:	8d 54 08 01          	lea    0x1(%eax,%ecx,1),%edx
    2194:	c7 45 dc 00 00 00 00 	movl   $0x0,-0x24(%ebp)
    219b:	89 c1                	mov    %eax,%ecx
    219d:	31 c0                	xor    %eax,%eax
    219f:	8d 14 96             	lea    (%esi,%edx,4),%edx
    21a2:	8b 75 cc             	mov    -0x34(%ebp),%esi
    21a5:	eb 0d                	jmp    21b4 <grid_rearrange+0x2a4>
    21a7:	90                   	nop
    21a8:	85 d2                	test   %edx,%edx
    21aa:	74 0f                	je     21bb <grid_rearrange+0x2ab>
    21ac:	83 c2 04             	add    $0x4,%edx
    21af:	3b 7a fc             	cmp    -0x4(%edx),%edi
    21b2:	75 07                	jne    21bb <grid_rearrange+0x2ab>
    21b4:	41                   	inc    %ecx
    21b5:	01 f0                	add    %esi,%eax
    21b7:	39 d9                	cmp    %ebx,%ecx
    21b9:	72 ed                	jb     21a8 <grid_rearrange+0x298>
    21bb:	89 45 dc             	mov    %eax,-0x24(%ebp)
    21be:	8b 75 c4             	mov    -0x3c(%ebp),%esi
    21c1:	8b 45 c8             	mov    -0x38(%ebp),%eax
    21c4:	e9 d6 fe ff ff       	jmp    209f <grid_rearrange+0x18f>
    21c9:	8d b4 26 00 00 00 00 	lea    0x0(%esi,%eiz,1),%esi

000021d0 <grid_destroy>:
    21d0:	55                   	push   %ebp
    21d1:	89 e5                	mov    %esp,%ebp
    21d3:	53                   	push   %ebx
    21d4:	83 ec 14             	sub    $0x14,%esp
    21d7:	8b 5d 08             	mov    0x8(%ebp),%ebx
    21da:	89 1c 24             	mov    %ebx,(%esp)
    21dd:	e8 fe 08 00 00       	call   2ae0 <widget_deinit>
    21e2:	8b 43 64             	mov    0x64(%ebx),%eax
    21e5:	89 04 24             	mov    %eax,(%esp)
    21e8:	e8 f3 44 01 00       	call   166e0 <free>
    21ed:	89 5d 08             	mov    %ebx,0x8(%ebp)
    21f0:	83 c4 14             	add    $0x14,%esp
    21f3:	5b                   	pop    %ebx
    21f4:	5d                   	pop    %ebp
    21f5:	e9 e6 44 01 00       	jmp    166e0 <free>
    21fa:	8d b6 00 00 00 00    	lea    0x0(%esi),%esi

00002200 <grid_repaint>:
    2200:	55                   	push   %ebp
    2201:	89 e5                	mov    %esp,%ebp
    2203:	57                   	push   %edi
    2204:	56                   	push   %esi
    2205:	53                   	push   %ebx
    2206:	83 ec 2c             	sub    $0x2c,%esp
    2209:	8b 7d 08             	mov    0x8(%ebp),%edi
    220c:	8b 47 14             	mov    0x14(%edi),%eax
    220f:	89 04 24             	mov    %eax,(%esp)
    2212:	e8 a9 1c 00 00       	call   3ec0 <window_claim>
    2217:	89 45 e4             	mov    %eax,-0x1c(%ebp)
    221a:	85 c0                	test   %eax,%eax
    221c:	0f 84 8d 00 00 00    	je     22af <grid_repaint+0xaf>
    2222:	8b 77 1c             	mov    0x1c(%edi),%esi
    2225:	8b 5f 24             	mov    0x24(%edi),%ebx
    2228:	01 f3                	add    %esi,%ebx
    222a:	39 de                	cmp    %ebx,%esi
    222c:	73 46                	jae    2274 <grid_repaint+0x74>
    222e:	8b 47 18             	mov    0x18(%edi),%eax
    2231:	8b 4f 20             	mov    0x20(%edi),%ecx
    2234:	01 c1                	add    %eax,%ecx
    2236:	66 90                	xchg   %ax,%ax
    2238:	39 c1                	cmp    %eax,%ecx
    223a:	76 33                	jbe    226f <grid_repaint+0x6f>
    223c:	89 c3                	mov    %eax,%ebx
    223e:	66 90                	xchg   %ax,%ax
    2240:	8b 47 58             	mov    0x58(%edi),%eax
    2243:	89 5c 24 04          	mov    %ebx,0x4(%esp)
    2247:	89 44 24 0c          	mov    %eax,0xc(%esp)
    224b:	8b 45 e4             	mov    -0x1c(%ebp),%eax
    224e:	89 04 24             	mov    %eax,(%esp)
    2251:	89 74 24 08          	mov    %esi,0x8(%esp)
    2255:	e8 c6 2c 00 00       	call   4f20 <surface_put_pixel>
    225a:	8b 47 18             	mov    0x18(%edi),%eax
    225d:	8b 4f 20             	mov    0x20(%edi),%ecx
    2260:	43                   	inc    %ebx
    2261:	01 c1                	add    %eax,%ecx
    2263:	39 cb                	cmp    %ecx,%ebx
    2265:	72 d9                	jb     2240 <grid_repaint+0x40>
    2267:	8b 5f 24             	mov    0x24(%edi),%ebx
    226a:	8b 57 1c             	mov    0x1c(%edi),%edx
    226d:	01 d3                	add    %edx,%ebx
    226f:	46                   	inc    %esi
    2270:	39 de                	cmp    %ebx,%esi
    2272:	72 c4                	jb     2238 <grid_repaint+0x38>
    2274:	8b 47 14             	mov    0x14(%edi),%eax
    2277:	8d 77 0c             	lea    0xc(%edi),%esi
    227a:	89 04 24             	mov    %eax,(%esp)
    227d:	e8 6e 1c 00 00       	call   3ef0 <window_yield>
    2282:	8b 5f 10             	mov    0x10(%edi),%ebx
    2285:	39 f3                	cmp    %esi,%ebx
    2287:	74 14                	je     229d <grid_repaint+0x9d>
    2289:	8d b4 26 00 00 00 00 	lea    0x0(%esi,%eiz,1),%esi
    2290:	89 1c 24             	mov    %ebx,(%esp)
    2293:	ff 53 4c             	call   *0x4c(%ebx)
    2296:	8b 5b 04             	mov    0x4(%ebx),%ebx
    2299:	39 f3                	cmp    %esi,%ebx
    229b:	75 f3                	jne    2290 <grid_repaint+0x90>
    229d:	8b 47 14             	mov    0x14(%edi),%eax
    22a0:	89 45 08             	mov    %eax,0x8(%ebp)
    22a3:	83 c4 2c             	add    $0x2c,%esp
    22a6:	5b                   	pop    %ebx
    22a7:	5e                   	pop    %esi
    22a8:	5f                   	pop    %edi
    22a9:	5d                   	pop    %ebp
    22aa:	e9 61 1b 00 00       	jmp    3e10 <window_damage>
    22af:	8b 47 14             	mov    0x14(%edi),%eax
    22b2:	89 04 24             	mov    %eax,(%esp)
    22b5:	e8 36 1c 00 00       	call   3ef0 <window_yield>
    22ba:	e9 63 ff ff ff       	jmp    2222 <grid_repaint+0x22>
    22bf:	90                   	nop

000022c0 <deinit_grid>:
    22c0:	55                   	push   %ebp
    22c1:	89 e5                	mov    %esp,%ebp
    22c3:	53                   	push   %ebx
    22c4:	83 ec 14             	sub    $0x14,%esp
    22c7:	8b 5d 08             	mov    0x8(%ebp),%ebx
    22ca:	89 1c 24             	mov    %ebx,(%esp)
    22cd:	e8 0e 08 00 00       	call   2ae0 <widget_deinit>
    22d2:	8b 43 64             	mov    0x64(%ebx),%eax
    22d5:	89 45 08             	mov    %eax,0x8(%ebp)
    22d8:	83 c4 14             	add    $0x14,%esp
    22db:	5b                   	pop    %ebx
    22dc:	5d                   	pop    %ebp
    22dd:	e9 fe 43 01 00       	jmp    166e0 <free>
    22e2:	8d b4 26 00 00 00 00 	lea    0x0(%esi,%eiz,1),%esi
    22e9:	8d bc 27 00 00 00 00 	lea    0x0(%edi,%eiz,1),%edi

000022f0 <init_grid>:
    22f0:	55                   	push   %ebp
    22f1:	89 e5                	mov    %esp,%ebp
    22f3:	57                   	push   %edi
    22f4:	56                   	push   %esi
    22f5:	53                   	push   %ebx
    22f6:	83 ec 1c             	sub    $0x1c,%esp
    22f9:	8b 7d 10             	mov    0x10(%ebp),%edi
    22fc:	8b 5d 08             	mov    0x8(%ebp),%ebx
    22ff:	85 ff                	test   %edi,%edi
    2301:	0f 84 bf 00 00 00    	je     23c6 <init_grid+0xd6>
    2307:	8b 75 14             	mov    0x14(%ebp),%esi
    230a:	85 f6                	test   %esi,%esi
    230c:	0f 84 98 00 00 00    	je     23aa <init_grid+0xba>
    2312:	8b 75 10             	mov    0x10(%ebp),%esi
    2315:	8b 4d 14             	mov    0x14(%ebp),%ecx
    2318:	c1 e6 02             	shl    $0x2,%esi
    231b:	0f af f1             	imul   %ecx,%esi
    231e:	89 34 24             	mov    %esi,(%esp)
    2321:	e8 aa 42 01 00       	call   165d0 <malloc>
    2326:	89 c7                	mov    %eax,%edi
    2328:	85 c0                	test   %eax,%eax
    232a:	74 74                	je     23a0 <init_grid+0xb0>
    232c:	89 74 24 08          	mov    %esi,0x8(%esp)
    2330:	c7 44 24 04 00 00 00 	movl   $0x0,0x4(%esp)
    2337:	00 
    2338:	89 04 24             	mov    %eax,(%esp)
    233b:	e8 10 71 00 00       	call   9450 <memset>
    2340:	8b 45 0c             	mov    0xc(%ebp),%eax
    2343:	89 44 24 04          	mov    %eax,0x4(%esp)
    2347:	89 1c 24             	mov    %ebx,(%esp)
    234a:	e8 d1 06 00 00       	call   2a20 <widget_init>
    234f:	8b 45 18             	mov    0x18(%ebp),%eax
    2352:	89 43 58             	mov    %eax,0x58(%ebx)
    2355:	8b 45 10             	mov    0x10(%ebp),%eax
    2358:	89 43 5c             	mov    %eax,0x5c(%ebx)
    235b:	8b 45 14             	mov    0x14(%ebp),%eax
    235e:	89 43 60             	mov    %eax,0x60(%ebx)
    2361:	c7 43 40 d0 21 00 00 	movl   $0x21d0,0x40(%ebx)
    2368:	c7 43 44 50 1d 00 00 	movl   $0x1d50,0x44(%ebx)
    236f:	c7 43 48 10 1f 00 00 	movl   $0x1f10,0x48(%ebx)
    2376:	c7 43 4c 00 22 00 00 	movl   $0x2200,0x4c(%ebx)
    237d:	c7 43 50 60 1d 00 00 	movl   $0x1d60,0x50(%ebx)
    2384:	c7 43 54 70 1d 00 00 	movl   $0x1d70,0x54(%ebx)
    238b:	c7 43 68 00 1e 00 00 	movl   $0x1e00,0x68(%ebx)
    2392:	89 7b 64             	mov    %edi,0x64(%ebx)
    2395:	83 c4 1c             	add    $0x1c,%esp
    2398:	b0 01                	mov    $0x1,%al
    239a:	5b                   	pop    %ebx
    239b:	5e                   	pop    %esi
    239c:	5f                   	pop    %edi
    239d:	5d                   	pop    %ebp
    239e:	c3                   	ret    
    239f:	90                   	nop
    23a0:	83 c4 1c             	add    $0x1c,%esp
    23a3:	31 c0                	xor    %eax,%eax
    23a5:	5b                   	pop    %ebx
    23a6:	5e                   	pop    %esi
    23a7:	5f                   	pop    %edi
    23a8:	5d                   	pop    %ebp
    23a9:	c3                   	ret    
    23aa:	c7 44 24 08 d5 00 00 	movl   $0xd5,0x8(%esp)
    23b1:	00 
    23b2:	c7 44 24 04 6e 33 02 	movl   $0x2336e,0x4(%esp)
    23b9:	00 
    23ba:	c7 04 24 b0 33 02 00 	movl   $0x233b0,(%esp)
    23c1:	e8 ea ea 01 00       	call   20eb0 <assert_abort>
    23c6:	c7 44 24 08 d4 00 00 	movl   $0xd4,0x8(%esp)
    23cd:	00 
    23ce:	c7 44 24 04 6e 33 02 	movl   $0x2336e,0x4(%esp)
    23d5:	00 
    23d6:	c7 04 24 a7 33 02 00 	movl   $0x233a7,(%esp)
    23dd:	e8 ce ea 01 00       	call   20eb0 <assert_abort>
    23e2:	8d b4 26 00 00 00 00 	lea    0x0(%esi,%eiz,1),%esi
    23e9:	8d bc 27 00 00 00 00 	lea    0x0(%edi,%eiz,1),%edi

000023f0 <create_grid>:
    23f0:	55                   	push   %ebp
    23f1:	89 e5                	mov    %esp,%ebp
    23f3:	57                   	push   %edi
    23f4:	56                   	push   %esi
    23f5:	53                   	push   %ebx
    23f6:	83 ec 1c             	sub    $0x1c,%esp
    23f9:	c7 04 24 6c 00 00 00 	movl   $0x6c,(%esp)
    2400:	e8 cb 41 01 00       	call   165d0 <malloc>
    2405:	89 c3                	mov    %eax,%ebx
    2407:	85 c0                	test   %eax,%eax
    2409:	0f 84 99 00 00 00    	je     24a8 <create_grid+0xb8>
    240f:	8b 45 0c             	mov    0xc(%ebp),%eax
    2412:	85 c0                	test   %eax,%eax
    2414:	0f 84 ce 00 00 00    	je     24e8 <create_grid+0xf8>
    241a:	8b 45 10             	mov    0x10(%ebp),%eax
    241d:	85 c0                	test   %eax,%eax
    241f:	0f 84 a7 00 00 00    	je     24cc <create_grid+0xdc>
    2425:	8b 75 0c             	mov    0xc(%ebp),%esi
    2428:	8b 45 10             	mov    0x10(%ebp),%eax
    242b:	c1 e6 02             	shl    $0x2,%esi
    242e:	0f af f0             	imul   %eax,%esi
    2431:	89 34 24             	mov    %esi,(%esp)
    2434:	e8 97 41 01 00       	call   165d0 <malloc>
    2439:	89 c7                	mov    %eax,%edi
    243b:	85 c0                	test   %eax,%eax
    243d:	74 79                	je     24b8 <create_grid+0xc8>
    243f:	89 74 24 08          	mov    %esi,0x8(%esp)
    2443:	c7 44 24 04 00 00 00 	movl   $0x0,0x4(%esp)
    244a:	00 
    244b:	89 04 24             	mov    %eax,(%esp)
    244e:	e8 fd 6f 00 00       	call   9450 <memset>
    2453:	8b 45 08             	mov    0x8(%ebp),%eax
    2456:	89 44 24 04          	mov    %eax,0x4(%esp)
    245a:	89 1c 24             	mov    %ebx,(%esp)
    245d:	e8 be 05 00 00       	call   2a20 <widget_init>
    2462:	8b 45 14             	mov    0x14(%ebp),%eax
    2465:	89 43 58             	mov    %eax,0x58(%ebx)
    2468:	8b 45 0c             	mov    0xc(%ebp),%eax
    246b:	89 43 5c             	mov    %eax,0x5c(%ebx)
    246e:	8b 45 10             	mov    0x10(%ebp),%eax
    2471:	c7 43 40 d0 21 00 00 	movl   $0x21d0,0x40(%ebx)
    2478:	c7 43 44 50 1d 00 00 	movl   $0x1d50,0x44(%ebx)
    247f:	c7 43 48 10 1f 00 00 	movl   $0x1f10,0x48(%ebx)
    2486:	c7 43 4c 00 22 00 00 	movl   $0x2200,0x4c(%ebx)
    248d:	c7 43 50 60 1d 00 00 	movl   $0x1d60,0x50(%ebx)
    2494:	c7 43 54 70 1d 00 00 	movl   $0x1d70,0x54(%ebx)
    249b:	c7 43 68 00 1e 00 00 	movl   $0x1e00,0x68(%ebx)
    24a2:	89 43 60             	mov    %eax,0x60(%ebx)
    24a5:	89 7b 64             	mov    %edi,0x64(%ebx)
    24a8:	83 c4 1c             	add    $0x1c,%esp
    24ab:	89 d8                	mov    %ebx,%eax
    24ad:	5b                   	pop    %ebx
    24ae:	5e                   	pop    %esi
    24af:	5f                   	pop    %edi
    24b0:	5d                   	pop    %ebp
    24b1:	c3                   	ret    
    24b2:	8d b6 00 00 00 00    	lea    0x0(%esi),%esi
    24b8:	89 1c 24             	mov    %ebx,(%esp)
    24bb:	31 db                	xor    %ebx,%ebx
    24bd:	e8 1e 42 01 00       	call   166e0 <free>
    24c2:	83 c4 1c             	add    $0x1c,%esp
    24c5:	89 d8                	mov    %ebx,%eax
    24c7:	5b                   	pop    %ebx
    24c8:	5e                   	pop    %esi
    24c9:	5f                   	pop    %edi
    24ca:	5d                   	pop    %ebp
    24cb:	c3                   	ret    
    24cc:	c7 44 24 08 d5 00 00 	movl   $0xd5,0x8(%esp)
    24d3:	00 
    24d4:	c7 44 24 04 6e 33 02 	movl   $0x2336e,0x4(%esp)
    24db:	00 
    24dc:	c7 04 24 b0 33 02 00 	movl   $0x233b0,(%esp)
    24e3:	e8 c8 e9 01 00       	call   20eb0 <assert_abort>
    24e8:	c7 44 24 08 d4 00 00 	movl   $0xd4,0x8(%esp)
    24ef:	00 
    24f0:	c7 44 24 04 6e 33 02 	movl   $0x2336e,0x4(%esp)
    24f7:	00 
    24f8:	c7 04 24 a7 33 02 00 	movl   $0x233a7,(%esp)
    24ff:	e8 ac e9 01 00       	call   20eb0 <assert_abort>
    2504:	66 90                	xchg   %ax,%ax
    2506:	66 90                	xchg   %ax,%ax
    2508:	66 90                	xchg   %ax,%ax
    250a:	66 90                	xchg   %ax,%ax
    250c:	66 90                	xchg   %ax,%ax
    250e:	66 90                	xchg   %ax,%ax

00002510 <label_reconfigure>:
    2510:	55                   	push   %ebp
    2511:	89 e5                	mov    %esp,%ebp
    2513:	5d                   	pop    %ebp
    2514:	c3                   	ret    
    2515:	8d 74 26 00          	lea    0x0(%esi,%eiz,1),%esi
    2519:	8d bc 27 00 00 00 00 	lea    0x0(%edi,%eiz,1),%edi

00002520 <label_handle_keyboard_event>:
    2520:	55                   	push   %ebp
    2521:	89 e5                	mov    %esp,%ebp
    2523:	5d                   	pop    %ebp
    2524:	c3                   	ret    
    2525:	8d 74 26 00          	lea    0x0(%esi,%eiz,1),%esi
    2529:	8d bc 27 00 00 00 00 	lea    0x0(%edi,%eiz,1),%edi

00002530 <label_handle_position_event>:
    2530:	55                   	push   %ebp
    2531:	89 e5                	mov    %esp,%ebp
    2533:	5d                   	pop    %ebp
    2534:	c3                   	ret    
    2535:	8d 74 26 00          	lea    0x0(%esi,%eiz,1),%esi
    2539:	8d bc 27 00 00 00 00 	lea    0x0(%edi,%eiz,1),%edi

00002540 <on_rewrite>:
    2540:	55                   	push   %ebp
    2541:	89 e5                	mov    %esp,%ebp
    2543:	53                   	push   %ebx
    2544:	83 ec 24             	sub    $0x24,%esp
    2547:	8b 45 0c             	mov    0xc(%ebp),%eax
    254a:	8b 5d 08             	mov    0x8(%ebp),%ebx
    254d:	85 c0                	test   %eax,%eax
    254f:	74 51                	je     25a2 <on_rewrite+0x62>
    2551:	89 04 24             	mov    %eax,(%esp)
    2554:	e8 27 9e 00 00       	call   c380 <str_dup>
    2559:	8d 55 f4             	lea    -0xc(%ebp),%edx
    255c:	89 83 20 01 00 00    	mov    %eax,0x120(%ebx)
    2562:	89 54 24 0c          	mov    %edx,0xc(%esp)
    2566:	89 44 24 04          	mov    %eax,0x4(%esp)
    256a:	8d 55 f0             	lea    -0x10(%ebp),%edx
    256d:	8d 83 24 01 00 00    	lea    0x124(%ebx),%eax
    2573:	89 54 24 08          	mov    %edx,0x8(%esp)
    2577:	89 04 24             	mov    %eax,(%esp)
    257a:	e8 f1 1f 00 00       	call   4570 <font_get_box>
    257f:	8b 45 f4             	mov    -0xc(%ebp),%eax
    2582:	83 c0 04             	add    $0x4,%eax
    2585:	8b 55 f0             	mov    -0x10(%ebp),%edx
    2588:	83 c2 04             	add    $0x4,%edx
    258b:	89 43 2c             	mov    %eax,0x2c(%ebx)
    258e:	89 43 34             	mov    %eax,0x34(%ebx)
    2591:	8b 43 14             	mov    0x14(%ebx),%eax
    2594:	89 53 28             	mov    %edx,0x28(%ebx)
    2597:	89 53 30             	mov    %edx,0x30(%ebx)
    259a:	89 04 24             	mov    %eax,(%esp)
    259d:	e8 2e 18 00 00       	call   3dd0 <window_refresh>
    25a2:	83 c4 24             	add    $0x24,%esp
    25a5:	5b                   	pop    %ebx
    25a6:	5d                   	pop    %ebp
    25a7:	c3                   	ret    
    25a8:	90                   	nop
    25a9:	8d b4 26 00 00 00 00 	lea    0x0(%esi,%eiz,1),%esi

000025b0 <paint_internal>:
    25b0:	55                   	push   %ebp
    25b1:	89 e5                	mov    %esp,%ebp
    25b3:	57                   	push   %edi
    25b4:	56                   	push   %esi
    25b5:	53                   	push   %ebx
    25b6:	83 ec 7c             	sub    $0x7c,%esp
    25b9:	89 c3                	mov    %eax,%ebx
    25bb:	8b 40 14             	mov    0x14(%eax),%eax
    25be:	89 04 24             	mov    %eax,(%esp)
    25c1:	e8 fa 18 00 00       	call   3ec0 <window_claim>
    25c6:	85 c0                	test   %eax,%eax
    25c8:	0f 84 f2 00 00 00    	je     26c0 <paint_internal+0x110>
    25ce:	8d 75 b0             	lea    -0x50(%ebp),%esi
    25d1:	89 44 24 04          	mov    %eax,0x4(%esp)
    25d5:	89 34 24             	mov    %esi,(%esp)
    25d8:	8d bb 24 01 00 00    	lea    0x124(%ebx),%edi
    25de:	e8 4d 19 00 00       	call   3f30 <drawctx_init>
    25e3:	8d 43 58             	lea    0x58(%ebx),%eax
    25e6:	89 44 24 04          	mov    %eax,0x4(%esp)
    25ea:	89 34 24             	mov    %esi,(%esp)
    25ed:	e8 2e 1b 00 00       	call   4120 <drawctx_set_source>
    25f2:	8b 43 24             	mov    0x24(%ebx),%eax
    25f5:	89 44 24 10          	mov    %eax,0x10(%esp)
    25f9:	8b 43 20             	mov    0x20(%ebx),%eax
    25fc:	89 44 24 0c          	mov    %eax,0xc(%esp)
    2600:	8b 43 1c             	mov    0x1c(%ebx),%eax
    2603:	89 44 24 08          	mov    %eax,0x8(%esp)
    2607:	8b 43 18             	mov    0x18(%ebx),%eax
    260a:	89 44 24 04          	mov    %eax,0x4(%esp)
    260e:	89 34 24             	mov    %esi,(%esp)
    2611:	e8 2a 1b 00 00       	call   4140 <drawctx_transfer>
    2616:	8d 45 ac             	lea    -0x54(%ebp),%eax
    2619:	89 44 24 0c          	mov    %eax,0xc(%esp)
    261d:	8d 45 a8             	lea    -0x58(%ebp),%eax
    2620:	89 44 24 08          	mov    %eax,0x8(%esp)
    2624:	8b 83 20 01 00 00    	mov    0x120(%ebx),%eax
    262a:	89 44 24 04          	mov    %eax,0x4(%esp)
    262e:	89 3c 24             	mov    %edi,(%esp)
    2631:	e8 3a 1f 00 00       	call   4570 <font_get_box>
    2636:	8b 45 a8             	mov    -0x58(%ebp),%eax
    2639:	39 43 20             	cmp    %eax,0x20(%ebx)
    263c:	72 08                	jb     2646 <paint_internal+0x96>
    263e:	8b 45 ac             	mov    -0x54(%ebp),%eax
    2641:	39 43 24             	cmp    %eax,0x24(%ebx)
    2644:	73 1a                	jae    2660 <paint_internal+0xb0>
    2646:	8b 43 14             	mov    0x14(%ebx),%eax
    2649:	89 04 24             	mov    %eax,(%esp)
    264c:	e8 9f 18 00 00       	call   3ef0 <window_yield>
    2651:	83 c4 7c             	add    $0x7c,%esp
    2654:	5b                   	pop    %ebx
    2655:	5e                   	pop    %esi
    2656:	5f                   	pop    %edi
    2657:	5d                   	pop    %ebp
    2658:	c3                   	ret    
    2659:	8d b4 26 00 00 00 00 	lea    0x0(%esi,%eiz,1),%esi
    2660:	8d 83 bc 00 00 00    	lea    0xbc(%ebx),%eax
    2666:	89 34 24             	mov    %esi,(%esp)
    2669:	89 44 24 04          	mov    %eax,0x4(%esp)
    266d:	e8 ae 1a 00 00       	call   4120 <drawctx_set_source>
    2672:	89 7c 24 04          	mov    %edi,0x4(%esp)
    2676:	89 34 24             	mov    %esi,(%esp)
    2679:	e8 b2 1a 00 00       	call   4130 <drawctx_set_font>
    267e:	8b 55 a8             	mov    -0x58(%ebp),%edx
    2681:	8b 43 20             	mov    0x20(%ebx),%eax
    2684:	8b 7d ac             	mov    -0x54(%ebp),%edi
    2687:	29 d0                	sub    %edx,%eax
    2689:	8b 53 24             	mov    0x24(%ebx),%edx
    268c:	d1 e8                	shr    %eax
    268e:	8b 4b 18             	mov    0x18(%ebx),%ecx
    2691:	29 fa                	sub    %edi,%edx
    2693:	01 c8                	add    %ecx,%eax
    2695:	d1 ea                	shr    %edx
    2697:	8b 4b 1c             	mov    0x1c(%ebx),%ecx
    269a:	01 ca                	add    %ecx,%edx
    269c:	8b 8b 20 01 00 00    	mov    0x120(%ebx),%ecx
    26a2:	85 c9                	test   %ecx,%ecx
    26a4:	74 a0                	je     2646 <paint_internal+0x96>
    26a6:	89 54 24 0c          	mov    %edx,0xc(%esp)
    26aa:	89 44 24 08          	mov    %eax,0x8(%esp)
    26ae:	89 4c 24 04          	mov    %ecx,0x4(%esp)
    26b2:	89 34 24             	mov    %esi,(%esp)
    26b5:	e8 36 1d 00 00       	call   43f0 <drawctx_print>
    26ba:	eb 8a                	jmp    2646 <paint_internal+0x96>
    26bc:	8d 74 26 00          	lea    0x0(%esi,%eiz,1),%esi
    26c0:	8b 53 14             	mov    0x14(%ebx),%edx
    26c3:	89 45 a4             	mov    %eax,-0x5c(%ebp)
    26c6:	89 14 24             	mov    %edx,(%esp)
    26c9:	e8 22 18 00 00       	call   3ef0 <window_yield>
    26ce:	8b 45 a4             	mov    -0x5c(%ebp),%eax
    26d1:	e9 f8 fe ff ff       	jmp    25ce <paint_internal+0x1e>
    26d6:	8d 76 00             	lea    0x0(%esi),%esi
    26d9:	8d bc 27 00 00 00 00 	lea    0x0(%edi,%eiz,1),%edi

000026e0 <label_repaint>:
    26e0:	55                   	push   %ebp
    26e1:	89 e5                	mov    %esp,%ebp
    26e3:	53                   	push   %ebx
    26e4:	53                   	push   %ebx
    26e5:	8b 5d 08             	mov    0x8(%ebp),%ebx
    26e8:	89 d8                	mov    %ebx,%eax
    26ea:	e8 c1 fe ff ff       	call   25b0 <paint_internal>
    26ef:	8b 43 14             	mov    0x14(%ebx),%eax
    26f2:	89 45 08             	mov    %eax,0x8(%ebp)
    26f5:	58                   	pop    %eax
    26f6:	5b                   	pop    %ebx
    26f7:	5d                   	pop    %ebp
    26f8:	e9 13 17 00 00       	jmp    3e10 <window_damage>
    26fd:	8d 76 00             	lea    0x0(%esi),%esi

00002700 <label_rearrange>:
    2700:	55                   	push   %ebp
    2701:	89 e5                	mov    %esp,%ebp
    2703:	53                   	push   %ebx
    2704:	83 ec 24             	sub    $0x24,%esp
    2707:	8b 45 18             	mov    0x18(%ebp),%eax
    270a:	8b 5d 08             	mov    0x8(%ebp),%ebx
    270d:	89 44 24 10          	mov    %eax,0x10(%esp)
    2711:	8b 45 14             	mov    0x14(%ebp),%eax
    2714:	89 44 24 0c          	mov    %eax,0xc(%esp)
    2718:	8b 45 10             	mov    0x10(%ebp),%eax
    271b:	89 44 24 08          	mov    %eax,0x8(%esp)
    271f:	8b 45 0c             	mov    0xc(%ebp),%eax
    2722:	89 44 24 04          	mov    %eax,0x4(%esp)
    2726:	89 1c 24             	mov    %ebx,(%esp)
    2729:	e8 92 03 00 00       	call   2ac0 <widget_modify>
    272e:	83 c4 24             	add    $0x24,%esp
    2731:	89 d8                	mov    %ebx,%eax
    2733:	5b                   	pop    %ebx
    2734:	5d                   	pop    %ebp
    2735:	e9 76 fe ff ff       	jmp    25b0 <paint_internal>
    273a:	8d b6 00 00 00 00    	lea    0x0(%esi),%esi

00002740 <label_destroy>:
    2740:	55                   	push   %ebp
    2741:	89 e5                	mov    %esp,%ebp
    2743:	53                   	push   %ebx
    2744:	83 ec 14             	sub    $0x14,%esp
    2747:	8b 5d 08             	mov    0x8(%ebp),%ebx
    274a:	89 1c 24             	mov    %ebx,(%esp)
    274d:	e8 8e 03 00 00       	call   2ae0 <widget_deinit>
    2752:	8b 83 20 01 00 00    	mov    0x120(%ebx),%eax
    2758:	89 04 24             	mov    %eax,(%esp)
    275b:	e8 80 3f 01 00       	call   166e0 <free>
    2760:	8d 83 24 01 00 00    	lea    0x124(%ebx),%eax
    2766:	89 04 24             	mov    %eax,(%esp)
    2769:	e8 92 1d 00 00       	call   4500 <font_release>
    276e:	89 5d 08             	mov    %ebx,0x8(%ebp)
    2771:	83 c4 14             	add    $0x14,%esp
    2774:	5b                   	pop    %ebx
    2775:	5d                   	pop    %ebp
    2776:	e9 65 3f 01 00       	jmp    166e0 <free>
    277b:	90                   	nop
    277c:	8d 74 26 00          	lea    0x0(%esi,%eiz,1),%esi

00002780 <deinit_label>:
    2780:	55                   	push   %ebp
    2781:	89 e5                	mov    %esp,%ebp
    2783:	53                   	push   %ebx
    2784:	83 ec 14             	sub    $0x14,%esp
    2787:	8b 5d 08             	mov    0x8(%ebp),%ebx
    278a:	89 1c 24             	mov    %ebx,(%esp)
    278d:	e8 4e 03 00 00       	call   2ae0 <widget_deinit>
    2792:	8b 83 20 01 00 00    	mov    0x120(%ebx),%eax
    2798:	89 04 24             	mov    %eax,(%esp)
    279b:	81 c3 24 01 00 00    	add    $0x124,%ebx
    27a1:	e8 3a 3f 01 00       	call   166e0 <free>
    27a6:	89 5d 08             	mov    %ebx,0x8(%ebp)
    27a9:	83 c4 14             	add    $0x14,%esp
    27ac:	5b                   	pop    %ebx
    27ad:	5d                   	pop    %ebp
    27ae:	e9 4d 1d 00 00       	jmp    4500 <font_release>
    27b3:	8d b6 00 00 00 00    	lea    0x0(%esi),%esi
    27b9:	8d bc 27 00 00 00 00 	lea    0x0(%edi,%eiz,1),%edi

000027c0 <init_label>:
    27c0:	55                   	push   %ebp
    27c1:	89 e5                	mov    %esp,%ebp
    27c3:	57                   	push   %edi
    27c4:	56                   	push   %esi
    27c5:	53                   	push   %ebx
    27c6:	83 ec 2c             	sub    $0x2c,%esp
    27c9:	8b 5d 08             	mov    0x8(%ebp),%ebx
    27cc:	8b 45 0c             	mov    0xc(%ebp),%eax
    27cf:	89 44 24 04          	mov    %eax,0x4(%esp)
    27d3:	89 1c 24             	mov    %ebx,(%esp)
    27d6:	8d 73 58             	lea    0x58(%ebx),%esi
    27d9:	8b 7d 14             	mov    0x14(%ebp),%edi
    27dc:	e8 3f 02 00 00       	call   2a20 <widget_init>
    27e1:	c7 43 40 40 27 00 00 	movl   $0x2740,0x40(%ebx)
    27e8:	c7 43 44 10 25 00 00 	movl   $0x2510,0x44(%ebx)
    27ef:	c7 43 48 00 27 00 00 	movl   $0x2700,0x48(%ebx)
    27f6:	c7 43 4c e0 26 00 00 	movl   $0x26e0,0x4c(%ebx)
    27fd:	c7 43 50 20 25 00 00 	movl   $0x2520,0x50(%ebx)
    2804:	c7 43 54 30 25 00 00 	movl   $0x2530,0x54(%ebx)
    280b:	89 34 24             	mov    %esi,(%esp)
    280e:	e8 6d 20 00 00       	call   4880 <source_init>
    2813:	8b 55 18             	mov    0x18(%ebp),%edx
    2816:	89 54 24 04          	mov    %edx,0x4(%esp)
    281a:	89 34 24             	mov    %esi,(%esp)
    281d:	8d b3 bc 00 00 00    	lea    0xbc(%ebx),%esi
    2823:	e8 e8 20 00 00       	call   4910 <source_set_color>
    2828:	89 34 24             	mov    %esi,(%esp)
    282b:	e8 50 20 00 00       	call   4880 <source_init>
    2830:	8b 55 1c             	mov    0x1c(%ebp),%edx
    2833:	89 54 24 04          	mov    %edx,0x4(%esp)
    2837:	89 34 24             	mov    %esi,(%esp)
    283a:	e8 d1 20 00 00       	call   4910 <source_set_color>
    283f:	8b 45 10             	mov    0x10(%ebp),%eax
    2842:	85 c0                	test   %eax,%eax
    2844:	0f 84 86 00 00 00    	je     28d0 <init_label+0x110>
    284a:	8b 45 10             	mov    0x10(%ebp),%eax
    284d:	89 04 24             	mov    %eax,(%esp)
    2850:	e8 2b 9b 00 00       	call   c380 <str_dup>
    2855:	89 83 20 01 00 00    	mov    %eax,0x120(%ebx)
    285b:	8d b3 24 01 00 00    	lea    0x124(%ebx),%esi
    2861:	81 e7 ff ff 00 00    	and    $0xffff,%edi
    2867:	89 7c 24 0c          	mov    %edi,0xc(%esp)
    286b:	89 34 24             	mov    %esi,(%esp)
    286e:	c7 44 24 08 00 00 00 	movl   $0x0,0x8(%esp)
    2875:	00 
    2876:	c7 44 24 04 00 00 00 	movl   $0x0,0x4(%esp)
    287d:	00 
    287e:	e8 bd 1b 00 00       	call   4440 <font_init>
    2883:	8d 45 e4             	lea    -0x1c(%ebp),%eax
    2886:	89 44 24 0c          	mov    %eax,0xc(%esp)
    288a:	8d 45 e0             	lea    -0x20(%ebp),%eax
    288d:	89 44 24 08          	mov    %eax,0x8(%esp)
    2891:	8b 83 20 01 00 00    	mov    0x120(%ebx),%eax
    2897:	89 34 24             	mov    %esi,(%esp)
    289a:	89 44 24 04          	mov    %eax,0x4(%esp)
    289e:	e8 cd 1c 00 00       	call   4570 <font_get_box>
    28a3:	8b 55 e0             	mov    -0x20(%ebp),%edx
    28a6:	8b 45 e4             	mov    -0x1c(%ebp),%eax
    28a9:	83 c2 04             	add    $0x4,%edx
    28ac:	83 c0 04             	add    $0x4,%eax
    28af:	89 53 28             	mov    %edx,0x28(%ebx)
    28b2:	89 43 2c             	mov    %eax,0x2c(%ebx)
    28b5:	89 43 34             	mov    %eax,0x34(%ebx)
    28b8:	89 53 30             	mov    %edx,0x30(%ebx)
    28bb:	c7 83 34 01 00 00 40 	movl   $0x2540,0x134(%ebx)
    28c2:	25 00 00 
    28c5:	83 c4 2c             	add    $0x2c,%esp
    28c8:	b0 01                	mov    $0x1,%al
    28ca:	5b                   	pop    %ebx
    28cb:	5e                   	pop    %esi
    28cc:	5f                   	pop    %edi
    28cd:	5d                   	pop    %ebp
    28ce:	c3                   	ret    
    28cf:	90                   	nop
    28d0:	c7 83 20 01 00 00 00 	movl   $0x0,0x120(%ebx)
    28d7:	00 00 00 
    28da:	e9 7c ff ff ff       	jmp    285b <init_label+0x9b>
    28df:	90                   	nop

000028e0 <create_label>:
    28e0:	55                   	push   %ebp
    28e1:	89 e5                	mov    %esp,%ebp
    28e3:	57                   	push   %edi
    28e4:	56                   	push   %esi
    28e5:	53                   	push   %ebx
    28e6:	83 ec 2c             	sub    $0x2c,%esp
    28e9:	8b 7d 10             	mov    0x10(%ebp),%edi
    28ec:	c7 04 24 38 01 00 00 	movl   $0x138,(%esp)
    28f3:	e8 d8 3c 01 00       	call   165d0 <malloc>
    28f8:	89 c3                	mov    %eax,%ebx
    28fa:	85 c0                	test   %eax,%eax
    28fc:	0f 84 f6 00 00 00    	je     29f8 <create_label+0x118>
    2902:	8b 45 08             	mov    0x8(%ebp),%eax
    2905:	8d 73 58             	lea    0x58(%ebx),%esi
    2908:	89 44 24 04          	mov    %eax,0x4(%esp)
    290c:	89 1c 24             	mov    %ebx,(%esp)
    290f:	e8 0c 01 00 00       	call   2a20 <widget_init>
    2914:	89 34 24             	mov    %esi,(%esp)
    2917:	c7 43 40 40 27 00 00 	movl   $0x2740,0x40(%ebx)
    291e:	c7 43 44 10 25 00 00 	movl   $0x2510,0x44(%ebx)
    2925:	c7 43 48 00 27 00 00 	movl   $0x2700,0x48(%ebx)
    292c:	c7 43 4c e0 26 00 00 	movl   $0x26e0,0x4c(%ebx)
    2933:	c7 43 50 20 25 00 00 	movl   $0x2520,0x50(%ebx)
    293a:	c7 43 54 30 25 00 00 	movl   $0x2530,0x54(%ebx)
    2941:	e8 3a 1f 00 00       	call   4880 <source_init>
    2946:	8b 55 14             	mov    0x14(%ebp),%edx
    2949:	89 54 24 04          	mov    %edx,0x4(%esp)
    294d:	89 34 24             	mov    %esi,(%esp)
    2950:	8d b3 bc 00 00 00    	lea    0xbc(%ebx),%esi
    2956:	e8 b5 1f 00 00       	call   4910 <source_set_color>
    295b:	89 34 24             	mov    %esi,(%esp)
    295e:	e8 1d 1f 00 00       	call   4880 <source_init>
    2963:	8b 55 18             	mov    0x18(%ebp),%edx
    2966:	89 54 24 04          	mov    %edx,0x4(%esp)
    296a:	89 34 24             	mov    %esi,(%esp)
    296d:	e8 9e 1f 00 00       	call   4910 <source_set_color>
    2972:	8b 45 0c             	mov    0xc(%ebp),%eax
    2975:	85 c0                	test   %eax,%eax
    2977:	0f 84 8b 00 00 00    	je     2a08 <create_label+0x128>
    297d:	8b 45 0c             	mov    0xc(%ebp),%eax
    2980:	89 04 24             	mov    %eax,(%esp)
    2983:	e8 f8 99 00 00       	call   c380 <str_dup>
    2988:	89 83 20 01 00 00    	mov    %eax,0x120(%ebx)
    298e:	8d b3 24 01 00 00    	lea    0x124(%ebx),%esi
    2994:	81 e7 ff ff 00 00    	and    $0xffff,%edi
    299a:	89 7c 24 0c          	mov    %edi,0xc(%esp)
    299e:	c7 44 24 08 00 00 00 	movl   $0x0,0x8(%esp)
    29a5:	00 
    29a6:	c7 44 24 04 00 00 00 	movl   $0x0,0x4(%esp)
    29ad:	00 
    29ae:	89 34 24             	mov    %esi,(%esp)
    29b1:	e8 8a 1a 00 00       	call   4440 <font_init>
    29b6:	8d 45 e4             	lea    -0x1c(%ebp),%eax
    29b9:	89 44 24 0c          	mov    %eax,0xc(%esp)
    29bd:	8d 45 e0             	lea    -0x20(%ebp),%eax
    29c0:	89 44 24 08          	mov    %eax,0x8(%esp)
    29c4:	8b 83 20 01 00 00    	mov    0x120(%ebx),%eax
    29ca:	89 44 24 04          	mov    %eax,0x4(%esp)
    29ce:	89 34 24             	mov    %esi,(%esp)
    29d1:	e8 9a 1b 00 00       	call   4570 <font_get_box>
    29d6:	8b 55 e0             	mov    -0x20(%ebp),%edx
    29d9:	8b 45 e4             	mov    -0x1c(%ebp),%eax
    29dc:	83 c2 04             	add    $0x4,%edx
    29df:	83 c0 04             	add    $0x4,%eax
    29e2:	89 53 28             	mov    %edx,0x28(%ebx)
    29e5:	89 43 2c             	mov    %eax,0x2c(%ebx)
    29e8:	89 53 30             	mov    %edx,0x30(%ebx)
    29eb:	89 43 34             	mov    %eax,0x34(%ebx)
    29ee:	c7 83 34 01 00 00 40 	movl   $0x2540,0x134(%ebx)
    29f5:	25 00 00 
    29f8:	83 c4 2c             	add    $0x2c,%esp
    29fb:	89 d8                	mov    %ebx,%eax
    29fd:	5b                   	pop    %ebx
    29fe:	5e                   	pop    %esi
    29ff:	5f                   	pop    %edi
    2a00:	5d                   	pop    %ebp
    2a01:	c3                   	ret    
    2a02:	8d b6 00 00 00 00    	lea    0x0(%esi),%esi
    2a08:	c7 83 20 01 00 00 00 	movl   $0x0,0x120(%ebx)
    2a0f:	00 00 00 
    2a12:	e9 77 ff ff ff       	jmp    298e <create_label+0xae>
    2a17:	66 90                	xchg   %ax,%ax
    2a19:	66 90                	xchg   %ax,%ax
    2a1b:	66 90                	xchg   %ax,%ax
    2a1d:	66 90                	xchg   %ax,%ax
    2a1f:	90                   	nop

00002a20 <widget_init>:
    2a20:	55                   	push   %ebp
    2a21:	89 e5                	mov    %esp,%ebp
    2a23:	8b 45 08             	mov    0x8(%ebp),%eax
    2a26:	8b 55 0c             	mov    0xc(%ebp),%edx
    2a29:	85 d2                	test   %edx,%edx
    2a2b:	8d 48 0c             	lea    0xc(%eax),%ecx
    2a2e:	c7 00 00 00 00 00    	movl   $0x0,(%eax)
    2a34:	c7 40 04 00 00 00 00 	movl   $0x0,0x4(%eax)
    2a3b:	89 48 0c             	mov    %ecx,0xc(%eax)
    2a3e:	89 48 10             	mov    %ecx,0x10(%eax)
    2a41:	74 65                	je     2aa8 <widget_init+0x88>
    2a43:	8d 4a 0c             	lea    0xc(%edx),%ecx
    2a46:	89 50 08             	mov    %edx,0x8(%eax)
    2a49:	89 48 04             	mov    %ecx,0x4(%eax)
    2a4c:	8b 4a 0c             	mov    0xc(%edx),%ecx
    2a4f:	89 08                	mov    %ecx,(%eax)
    2a51:	8b 4a 0c             	mov    0xc(%edx),%ecx
    2a54:	89 42 0c             	mov    %eax,0xc(%edx)
    2a57:	8b 52 14             	mov    0x14(%edx),%edx
    2a5a:	89 41 04             	mov    %eax,0x4(%ecx)
    2a5d:	89 50 14             	mov    %edx,0x14(%eax)
    2a60:	c7 40 18 00 00 00 00 	movl   $0x0,0x18(%eax)
    2a67:	c7 40 1c 00 00 00 00 	movl   $0x0,0x1c(%eax)
    2a6e:	c7 40 20 00 00 00 00 	movl   $0x0,0x20(%eax)
    2a75:	c7 40 24 00 00 00 00 	movl   $0x0,0x24(%eax)
    2a7c:	c7 40 28 00 00 00 00 	movl   $0x0,0x28(%eax)
    2a83:	c7 40 2c 00 00 00 00 	movl   $0x0,0x2c(%eax)
    2a8a:	c7 40 30 00 00 00 00 	movl   $0x0,0x30(%eax)
    2a91:	c7 40 34 00 00 00 00 	movl   $0x0,0x34(%eax)
    2a98:	c7 40 38 ff ff ff ff 	movl   $0xffffffff,0x38(%eax)
    2a9f:	c7 40 3c ff ff ff ff 	movl   $0xffffffff,0x3c(%eax)
    2aa6:	5d                   	pop    %ebp
    2aa7:	c3                   	ret    
    2aa8:	c7 40 08 00 00 00 00 	movl   $0x0,0x8(%eax)
    2aaf:	c7 40 14 00 00 00 00 	movl   $0x0,0x14(%eax)
    2ab6:	eb a8                	jmp    2a60 <widget_init+0x40>
    2ab8:	90                   	nop
    2ab9:	8d b4 26 00 00 00 00 	lea    0x0(%esi,%eiz,1),%esi

00002ac0 <widget_modify>:
    2ac0:	55                   	push   %ebp
    2ac1:	89 e5                	mov    %esp,%ebp
    2ac3:	8b 45 08             	mov    0x8(%ebp),%eax
    2ac6:	8b 55 0c             	mov    0xc(%ebp),%edx
    2ac9:	89 50 18             	mov    %edx,0x18(%eax)
    2acc:	8b 55 10             	mov    0x10(%ebp),%edx
    2acf:	89 50 1c             	mov    %edx,0x1c(%eax)
    2ad2:	8b 55 14             	mov    0x14(%ebp),%edx
    2ad5:	89 50 20             	mov    %edx,0x20(%eax)
    2ad8:	8b 55 18             	mov    0x18(%ebp),%edx
    2adb:	89 50 24             	mov    %edx,0x24(%eax)
    2ade:	5d                   	pop    %ebp
    2adf:	c3                   	ret    

00002ae0 <widget_deinit>:
    2ae0:	55                   	push   %ebp
    2ae1:	89 e5                	mov    %esp,%ebp
    2ae3:	8b 45 08             	mov    0x8(%ebp),%eax
    2ae6:	8b 50 08             	mov    0x8(%eax),%edx
    2ae9:	85 d2                	test   %edx,%edx
    2aeb:	74 21                	je     2b0e <widget_deinit+0x2e>
    2aed:	8b 08                	mov    (%eax),%ecx
    2aef:	85 c9                	test   %ecx,%ecx
    2af1:	74 0e                	je     2b01 <widget_deinit+0x21>
    2af3:	8b 50 04             	mov    0x4(%eax),%edx
    2af6:	85 d2                	test   %edx,%edx
    2af8:	74 07                	je     2b01 <widget_deinit+0x21>
    2afa:	89 0a                	mov    %ecx,(%edx)
    2afc:	8b 08                	mov    (%eax),%ecx
    2afe:	89 51 04             	mov    %edx,0x4(%ecx)
    2b01:	c7 00 00 00 00 00    	movl   $0x0,(%eax)
    2b07:	c7 40 04 00 00 00 00 	movl   $0x0,0x4(%eax)
    2b0e:	5d                   	pop    %ebp
    2b0f:	c3                   	ret    

00002b10 <root_handle_keyboard_event>:
    2b10:	55                   	push   %ebp
    2b11:	89 e5                	mov    %esp,%ebp
    2b13:	57                   	push   %edi
    2b14:	56                   	push   %esi
    2b15:	8b 55 08             	mov    0x8(%ebp),%edx
    2b18:	8b 42 10             	mov    0x10(%edx),%eax
    2b1b:	83 c2 0c             	add    $0xc,%edx
    2b1e:	39 d0                	cmp    %edx,%eax
    2b20:	74 1e                	je     2b40 <root_handle_keyboard_event+0x30>
    2b22:	8d 7d 0c             	lea    0xc(%ebp),%edi
    2b25:	b9 06 00 00 00       	mov    $0x6,%ecx
    2b2a:	89 fe                	mov    %edi,%esi
    2b2c:	f3 a5                	rep movsl %ds:(%esi),%es:(%edi)
    2b2e:	89 45 08             	mov    %eax,0x8(%ebp)
    2b31:	5e                   	pop    %esi
    2b32:	8b 40 50             	mov    0x50(%eax),%eax
    2b35:	5f                   	pop    %edi
    2b36:	5d                   	pop    %ebp
    2b37:	ff e0                	jmp    *%eax
    2b39:	8d b4 26 00 00 00 00 	lea    0x0(%esi,%eiz,1),%esi
    2b40:	5e                   	pop    %esi
    2b41:	5f                   	pop    %edi
    2b42:	5d                   	pop    %ebp
    2b43:	c3                   	ret    
    2b44:	8d b6 00 00 00 00    	lea    0x0(%esi),%esi
    2b4a:	8d bf 00 00 00 00    	lea    0x0(%edi),%edi

00002b50 <fetch_input>:
    2b50:	55                   	push   %ebp
    2b51:	89 e5                	mov    %esp,%ebp
    2b53:	57                   	push   %edi
    2b54:	56                   	push   %esi
    2b55:	53                   	push   %ebx
    2b56:	83 ec 2c             	sub    $0x2c,%esp
    2b59:	8b 5d 08             	mov    0x8(%ebp),%ebx
    2b5c:	8d 43 10             	lea    0x10(%ebx),%eax
    2b5f:	89 45 e4             	mov    %eax,-0x1c(%ebp)
    2b62:	c7 04 24 24 00 00 00 	movl   $0x24,(%esp)
    2b69:	e8 62 3a 01 00       	call   165d0 <malloc>
    2b6e:	89 c7                	mov    %eax,%edi
    2b70:	85 c0                	test   %eax,%eax
    2b72:	74 44                	je     2bb8 <fetch_input+0x68>
    2b74:	89 44 24 04          	mov    %eax,0x4(%esp)
    2b78:	8b 43 08             	mov    0x8(%ebx),%eax
    2b7b:	89 04 24             	mov    %eax,(%esp)
    2b7e:	e8 9d 14 01 00       	call   14020 <win_get_event>
    2b83:	85 c0                	test   %eax,%eax
    2b85:	75 29                	jne    2bb0 <fetch_input+0x60>
    2b87:	8b 45 e4             	mov    -0x1c(%ebp),%eax
    2b8a:	8b 77 08             	mov    0x8(%edi),%esi
    2b8d:	89 7c 24 04          	mov    %edi,0x4(%esp)
    2b91:	89 04 24             	mov    %eax,(%esp)
    2b94:	c7 07 00 00 00 00    	movl   $0x0,(%edi)
    2b9a:	c7 47 04 00 00 00 00 	movl   $0x0,0x4(%edi)
    2ba1:	e8 ba a1 01 00       	call   1cd60 <prodcons_produce>
    2ba6:	83 fe 08             	cmp    $0x8,%esi
    2ba9:	75 b7                	jne    2b62 <fetch_input+0x12>
    2bab:	eb 0b                	jmp    2bb8 <fetch_input+0x68>
    2bad:	8d 76 00             	lea    0x0(%esi),%esi
    2bb0:	89 3c 24             	mov    %edi,(%esp)
    2bb3:	e8 28 3b 01 00       	call   166e0 <free>
    2bb8:	83 c4 2c             	add    $0x2c,%esp
    2bbb:	31 c0                	xor    %eax,%eax
    2bbd:	5b                   	pop    %ebx
    2bbe:	5e                   	pop    %esi
    2bbf:	5f                   	pop    %edi
    2bc0:	5d                   	pop    %ebp
    2bc1:	c3                   	ret    
    2bc2:	8d b4 26 00 00 00 00 	lea    0x0(%esi,%eiz,1),%esi
    2bc9:	8d bc 27 00 00 00 00 	lea    0x0(%edi,%eiz,1),%edi

00002bd0 <root_handle_position_event>:
    2bd0:	55                   	push   %ebp
    2bd1:	89 e5                	mov    %esp,%ebp
    2bd3:	57                   	push   %edi
    2bd4:	56                   	push   %esi
    2bd5:	53                   	push   %ebx
    2bd6:	83 ec 4c             	sub    $0x4c,%esp
    2bd9:	8b 45 08             	mov    0x8(%ebp),%eax
    2bdc:	8b 55 0c             	mov    0xc(%ebp),%edx
    2bdf:	8b 5d 10             	mov    0x10(%ebp),%ebx
    2be2:	89 55 e4             	mov    %edx,-0x1c(%ebp)
    2be5:	8b 48 14             	mov    0x14(%eax),%ecx
    2be8:	89 5d e0             	mov    %ebx,-0x20(%ebp)
    2beb:	8b 55 14             	mov    0x14(%ebp),%edx
    2bee:	8b 75 18             	mov    0x18(%ebp),%esi
    2bf1:	8b 7d 1c             	mov    0x1c(%ebp),%edi
    2bf4:	80 79 01 00          	cmpb   $0x0,0x1(%ecx)
    2bf8:	0f 84 aa 00 00 00    	je     2ca8 <root_handle_position_event+0xd8>
    2bfe:	8b 58 20             	mov    0x20(%eax),%ebx
    2c01:	83 fa 01             	cmp    $0x1,%edx
    2c04:	89 5d d4             	mov    %ebx,-0x2c(%ebp)
    2c07:	8b 58 24             	mov    0x24(%eax),%ebx
    2c0a:	89 5d c8             	mov    %ebx,-0x38(%ebp)
    2c0d:	0f 84 c5 01 00 00    	je     2dd8 <root_handle_position_event+0x208>
    2c13:	83 fa 02             	cmp    $0x2,%edx
    2c16:	0f 84 2c 02 00 00    	je     2e48 <root_handle_position_event+0x278>
    2c1c:	c6 45 dc 00          	movb   $0x0,-0x24(%ebp)
    2c20:	c6 45 d2 00          	movb   $0x0,-0x2e(%ebp)
    2c24:	8b 5d d4             	mov    -0x2c(%ebp),%ebx
    2c27:	83 fe 04             	cmp    $0x4,%esi
    2c2a:	0f 96 45 d1          	setbe  -0x2f(%ebp)
    2c2e:	83 eb 05             	sub    $0x5,%ebx
    2c31:	39 f3                	cmp    %esi,%ebx
    2c33:	89 5d d8             	mov    %ebx,-0x28(%ebp)
    2c36:	8b 5d c8             	mov    -0x38(%ebp),%ebx
    2c39:	0f 96 45 d0          	setbe  -0x30(%ebp)
    2c3d:	83 ff 04             	cmp    $0x4,%edi
    2c40:	0f 96 45 d3          	setbe  -0x2d(%ebp)
    2c44:	83 eb 05             	sub    $0x5,%ebx
    2c47:	39 fb                	cmp    %edi,%ebx
    2c49:	0f 96 45 c8          	setbe  -0x38(%ebp)
    2c4d:	83 fe 04             	cmp    $0x4,%esi
    2c50:	76 09                	jbe    2c5b <root_handle_position_event+0x8b>
    2c52:	39 75 d8             	cmp    %esi,-0x28(%ebp)
    2c55:	0f 87 95 01 00 00    	ja     2df0 <root_handle_position_event+0x220>
    2c5b:	c6 45 d8 00          	movb   $0x0,-0x28(%ebp)
    2c5f:	c6 45 d4 00          	movb   $0x0,-0x2c(%ebp)
    2c63:	80 7d d3 00          	cmpb   $0x0,-0x2d(%ebp)
    2c67:	0f 84 9b 00 00 00    	je     2d08 <root_handle_position_event+0x138>
    2c6d:	80 7d d1 00          	cmpb   $0x0,-0x2f(%ebp)
    2c71:	0f 84 91 00 00 00    	je     2d08 <root_handle_position_event+0x138>
    2c77:	80 7d dc 00          	cmpb   $0x0,-0x24(%ebp)
    2c7b:	0f 84 21 02 00 00    	je     2ea2 <root_handle_position_event+0x2d2>
    2c81:	80 7d d2 01          	cmpb   $0x1,-0x2e(%ebp)
    2c85:	19 c0                	sbb    %eax,%eax
    2c87:	83 e0 24             	and    $0x24,%eax
    2c8a:	83 c0 0f             	add    $0xf,%eax
    2c8d:	89 45 10             	mov    %eax,0x10(%ebp)
    2c90:	8b 45 e4             	mov    -0x1c(%ebp),%eax
    2c93:	89 45 0c             	mov    %eax,0xc(%ebp)
    2c96:	8b 41 0c             	mov    0xc(%ecx),%eax
    2c99:	89 45 08             	mov    %eax,0x8(%ebp)
    2c9c:	83 c4 4c             	add    $0x4c,%esp
    2c9f:	5b                   	pop    %ebx
    2ca0:	5e                   	pop    %esi
    2ca1:	5f                   	pop    %edi
    2ca2:	5d                   	pop    %ebp
    2ca3:	e9 98 14 01 00       	jmp    14140 <win_grab>
    2ca8:	8b 58 10             	mov    0x10(%eax),%ebx
    2cab:	83 c0 0c             	add    $0xc,%eax
    2cae:	89 45 dc             	mov    %eax,-0x24(%ebp)
    2cb1:	39 d8                	cmp    %ebx,%eax
    2cb3:	74 48                	je     2cfd <root_handle_position_event+0x12d>
    2cb5:	8d 76 00             	lea    0x0(%esi),%esi
    2cb8:	8b 45 e4             	mov    -0x1c(%ebp),%eax
    2cbb:	8b 4b 54             	mov    0x54(%ebx),%ecx
    2cbe:	89 45 0c             	mov    %eax,0xc(%ebp)
    2cc1:	8b 45 e0             	mov    -0x20(%ebp),%eax
    2cc4:	89 45 10             	mov    %eax,0x10(%ebp)
    2cc7:	8b 45 e4             	mov    -0x1c(%ebp),%eax
    2cca:	89 44 24 04          	mov    %eax,0x4(%esp)
    2cce:	8b 45 e0             	mov    -0x20(%ebp),%eax
    2cd1:	89 54 24 0c          	mov    %edx,0xc(%esp)
    2cd5:	89 1c 24             	mov    %ebx,(%esp)
    2cd8:	89 55 cc             	mov    %edx,-0x34(%ebp)
    2cdb:	89 44 24 08          	mov    %eax,0x8(%esp)
    2cdf:	89 74 24 10          	mov    %esi,0x10(%esp)
    2ce3:	89 7c 24 14          	mov    %edi,0x14(%esp)
    2ce7:	89 55 14             	mov    %edx,0x14(%ebp)
    2cea:	89 75 18             	mov    %esi,0x18(%ebp)
    2ced:	89 7d 1c             	mov    %edi,0x1c(%ebp)
    2cf0:	ff d1                	call   *%ecx
    2cf2:	8b 5b 04             	mov    0x4(%ebx),%ebx
    2cf5:	8b 55 cc             	mov    -0x34(%ebp),%edx
    2cf8:	39 5d dc             	cmp    %ebx,-0x24(%ebp)
    2cfb:	75 bb                	jne    2cb8 <root_handle_position_event+0xe8>
    2cfd:	83 c4 4c             	add    $0x4c,%esp
    2d00:	5b                   	pop    %ebx
    2d01:	5e                   	pop    %esi
    2d02:	5f                   	pop    %edi
    2d03:	5d                   	pop    %ebp
    2d04:	c3                   	ret    
    2d05:	8d 76 00             	lea    0x0(%esi),%esi
    2d08:	80 7d c8 00          	cmpb   $0x0,-0x38(%ebp)
    2d0c:	75 3a                	jne    2d48 <root_handle_position_event+0x178>
    2d0e:	80 7d d0 00          	cmpb   $0x0,-0x30(%ebp)
    2d12:	74 0a                	je     2d1e <root_handle_position_event+0x14e>
    2d14:	80 7d d3 00          	cmpb   $0x0,-0x2d(%ebp)
    2d18:	0f 85 42 01 00 00    	jne    2e60 <root_handle_position_event+0x290>
    2d1e:	80 7d dc 00          	cmpb   $0x0,-0x24(%ebp)
    2d22:	74 3e                	je     2d62 <root_handle_position_event+0x192>
    2d24:	80 7d d3 00          	cmpb   $0x0,-0x2d(%ebp)
    2d28:	0f 84 ad 01 00 00    	je     2edb <root_handle_position_event+0x30b>
    2d2e:	80 7d d2 01          	cmpb   $0x1,-0x2e(%ebp)
    2d32:	19 c0                	sbb    %eax,%eax
    2d34:	8b 55 e4             	mov    -0x1c(%ebp),%edx
    2d37:	83 e0 18             	and    $0x18,%eax
    2d3a:	89 55 0c             	mov    %edx,0xc(%ebp)
    2d3d:	83 c0 0a             	add    $0xa,%eax
    2d40:	89 45 10             	mov    %eax,0x10(%ebp)
    2d43:	e9 4e ff ff ff       	jmp    2c96 <root_handle_position_event+0xc6>
    2d48:	80 7d d1 00          	cmpb   $0x0,-0x2f(%ebp)
    2d4c:	0f 85 ce 00 00 00    	jne    2e20 <root_handle_position_event+0x250>
    2d52:	80 7d d0 00          	cmpb   $0x0,-0x30(%ebp)
    2d56:	74 c6                	je     2d1e <root_handle_position_event+0x14e>
    2d58:	80 7d dc 00          	cmpb   $0x0,-0x24(%ebp)
    2d5c:	0f 85 26 01 00 00    	jne    2e88 <root_handle_position_event+0x2b8>
    2d62:	80 7d d4 00          	cmpb   $0x0,-0x2c(%ebp)
    2d66:	0f 85 4c 01 00 00    	jne    2eb8 <root_handle_position_event+0x2e8>
    2d6c:	80 7d d8 00          	cmpb   $0x0,-0x28(%ebp)
    2d70:	0f 85 5c 01 00 00    	jne    2ed2 <root_handle_position_event+0x302>
    2d76:	8b 58 10             	mov    0x10(%eax),%ebx
    2d79:	83 c0 0c             	add    $0xc,%eax
    2d7c:	89 45 dc             	mov    %eax,-0x24(%ebp)
    2d7f:	39 d8                	cmp    %ebx,%eax
    2d81:	0f 84 76 ff ff ff    	je     2cfd <root_handle_position_event+0x12d>
    2d87:	90                   	nop
    2d88:	8b 45 e4             	mov    -0x1c(%ebp),%eax
    2d8b:	8b 4b 54             	mov    0x54(%ebx),%ecx
    2d8e:	89 45 0c             	mov    %eax,0xc(%ebp)
    2d91:	8b 45 e0             	mov    -0x20(%ebp),%eax
    2d94:	89 45 10             	mov    %eax,0x10(%ebp)
    2d97:	8b 45 e4             	mov    -0x1c(%ebp),%eax
    2d9a:	89 44 24 04          	mov    %eax,0x4(%esp)
    2d9e:	8b 45 e0             	mov    -0x20(%ebp),%eax
    2da1:	89 54 24 0c          	mov    %edx,0xc(%esp)
    2da5:	89 1c 24             	mov    %ebx,(%esp)
    2da8:	89 55 cc             	mov    %edx,-0x34(%ebp)
    2dab:	89 44 24 08          	mov    %eax,0x8(%esp)
    2daf:	89 74 24 10          	mov    %esi,0x10(%esp)
    2db3:	89 7c 24 14          	mov    %edi,0x14(%esp)
    2db7:	89 55 14             	mov    %edx,0x14(%ebp)
    2dba:	89 75 18             	mov    %esi,0x18(%ebp)
    2dbd:	89 7d 1c             	mov    %edi,0x1c(%ebp)
    2dc0:	ff d1                	call   *%ecx
    2dc2:	8b 5b 04             	mov    0x4(%ebx),%ebx
    2dc5:	8b 55 cc             	mov    -0x34(%ebp),%edx
    2dc8:	39 5d dc             	cmp    %ebx,-0x24(%ebp)
    2dcb:	75 bb                	jne    2d88 <root_handle_position_event+0x1b8>
    2dcd:	e9 2b ff ff ff       	jmp    2cfd <root_handle_position_event+0x12d>
    2dd2:	8d b6 00 00 00 00    	lea    0x0(%esi),%esi
    2dd8:	83 7d e0 01          	cmpl   $0x1,-0x20(%ebp)
    2ddc:	0f 94 45 dc          	sete   -0x24(%ebp)
    2de0:	8a 5d dc             	mov    -0x24(%ebp),%bl
    2de3:	88 5d d2             	mov    %bl,-0x2e(%ebp)
    2de6:	e9 39 fe ff ff       	jmp    2c24 <root_handle_position_event+0x54>
    2deb:	90                   	nop
    2dec:	8d 74 26 00          	lea    0x0(%esi,%eiz,1),%esi
    2df0:	83 ff 04             	cmp    $0x4,%edi
    2df3:	0f 86 62 fe ff ff    	jbe    2c5b <root_handle_position_event+0x8b>
    2df9:	83 ff 18             	cmp    $0x18,%edi
    2dfc:	0f 87 59 fe ff ff    	ja     2c5b <root_handle_position_event+0x8b>
    2e02:	8b 5d d4             	mov    -0x2c(%ebp),%ebx
    2e05:	83 eb 19             	sub    $0x19,%ebx
    2e08:	39 f3                	cmp    %esi,%ebx
    2e0a:	8a 5d d2             	mov    -0x2e(%ebp),%bl
    2e0d:	88 5d d8             	mov    %bl,-0x28(%ebp)
    2e10:	0f 86 b4 00 00 00    	jbe    2eca <root_handle_position_event+0x2fa>
    2e16:	c6 45 d4 00          	movb   $0x0,-0x2c(%ebp)
    2e1a:	e9 44 fe ff ff       	jmp    2c63 <root_handle_position_event+0x93>
    2e1f:	90                   	nop
    2e20:	80 7d dc 00          	cmpb   $0x0,-0x24(%ebp)
    2e24:	0f 84 38 ff ff ff    	je     2d62 <root_handle_position_event+0x192>
    2e2a:	80 7d d2 01          	cmpb   $0x1,-0x2e(%ebp)
    2e2e:	19 c0                	sbb    %eax,%eax
    2e30:	8b 55 e4             	mov    -0x1c(%ebp),%edx
    2e33:	83 e0 24             	and    $0x24,%eax
    2e36:	89 55 0c             	mov    %edx,0xc(%ebp)
    2e39:	83 c0 0d             	add    $0xd,%eax
    2e3c:	89 45 10             	mov    %eax,0x10(%ebp)
    2e3f:	e9 52 fe ff ff       	jmp    2c96 <root_handle_position_event+0xc6>
    2e44:	8d 74 26 00          	lea    0x0(%esi,%eiz,1),%esi
    2e48:	83 7d e0 01          	cmpl   $0x1,-0x20(%ebp)
    2e4c:	0f 94 45 dc          	sete   -0x24(%ebp)
    2e50:	c6 45 d2 00          	movb   $0x0,-0x2e(%ebp)
    2e54:	e9 cb fd ff ff       	jmp    2c24 <root_handle_position_event+0x54>
    2e59:	8d b4 26 00 00 00 00 	lea    0x0(%esi,%eiz,1),%esi
    2e60:	80 7d dc 00          	cmpb   $0x0,-0x24(%ebp)
    2e64:	0f 84 f8 fe ff ff    	je     2d62 <root_handle_position_event+0x192>
    2e6a:	80 7d d2 01          	cmpb   $0x1,-0x2e(%ebp)
    2e6e:	19 c0                	sbb    %eax,%eax
    2e70:	83 e0 24             	and    $0x24,%eax
    2e73:	83 c0 0e             	add    $0xe,%eax
    2e76:	89 45 10             	mov    %eax,0x10(%ebp)
    2e79:	8b 45 e4             	mov    -0x1c(%ebp),%eax
    2e7c:	89 45 0c             	mov    %eax,0xc(%ebp)
    2e7f:	e9 12 fe ff ff       	jmp    2c96 <root_handle_position_event+0xc6>
    2e84:	8d 74 26 00          	lea    0x0(%esi,%eiz,1),%esi
    2e88:	80 7d d2 01          	cmpb   $0x1,-0x2e(%ebp)
    2e8c:	19 c0                	sbb    %eax,%eax
    2e8e:	83 e0 24             	and    $0x24,%eax
    2e91:	83 c0 0c             	add    $0xc,%eax
    2e94:	89 45 10             	mov    %eax,0x10(%ebp)
    2e97:	8b 5d e4             	mov    -0x1c(%ebp),%ebx
    2e9a:	89 5d 0c             	mov    %ebx,0xc(%ebp)
    2e9d:	e9 f4 fd ff ff       	jmp    2c96 <root_handle_position_event+0xc6>
    2ea2:	80 7d c8 00          	cmpb   $0x0,-0x38(%ebp)
    2ea6:	0f 84 62 fe ff ff    	je     2d0e <root_handle_position_event+0x13e>
    2eac:	e9 b1 fe ff ff       	jmp    2d62 <root_handle_position_event+0x192>
    2eb1:	8d b4 26 00 00 00 00 	lea    0x0(%esi,%eiz,1),%esi
    2eb8:	8b 41 0c             	mov    0xc(%ecx),%eax
    2ebb:	89 45 08             	mov    %eax,0x8(%ebp)
    2ebe:	83 c4 4c             	add    $0x4c,%esp
    2ec1:	5b                   	pop    %ebx
    2ec2:	5e                   	pop    %esi
    2ec3:	5f                   	pop    %edi
    2ec4:	5d                   	pop    %ebp
    2ec5:	e9 16 14 01 00       	jmp    142e0 <win_close_request>
    2eca:	88 5d d4             	mov    %bl,-0x2c(%ebp)
    2ecd:	e9 91 fd ff ff       	jmp    2c63 <root_handle_position_event+0x93>
    2ed2:	c7 45 10 03 00 00 00 	movl   $0x3,0x10(%ebp)
    2ed9:	eb bc                	jmp    2e97 <root_handle_position_event+0x2c7>
    2edb:	80 7d d1 00          	cmpb   $0x0,-0x2f(%ebp)
    2edf:	74 11                	je     2ef2 <root_handle_position_event+0x322>
    2ee1:	80 7d d2 01          	cmpb   $0x1,-0x2e(%ebp)
    2ee5:	19 c0                	sbb    %eax,%eax
    2ee7:	83 e0 0c             	and    $0xc,%eax
    2eea:	83 c0 05             	add    $0x5,%eax
    2eed:	89 45 10             	mov    %eax,0x10(%ebp)
    2ef0:	eb a5                	jmp    2e97 <root_handle_position_event+0x2c7>
    2ef2:	80 7d c8 00          	cmpb   $0x0,-0x38(%ebp)
    2ef6:	75 24                	jne    2f1c <root_handle_position_event+0x34c>
    2ef8:	80 7d d0 00          	cmpb   $0x0,-0x30(%ebp)
    2efc:	0f 84 60 fe ff ff    	je     2d62 <root_handle_position_event+0x192>
    2f02:	80 7d d2 01          	cmpb   $0x1,-0x2e(%ebp)
    2f06:	19 c0                	sbb    %eax,%eax
    2f08:	8b 55 e4             	mov    -0x1c(%ebp),%edx
    2f0b:	83 e0 0c             	and    $0xc,%eax
    2f0e:	89 55 0c             	mov    %edx,0xc(%ebp)
    2f11:	83 c0 04             	add    $0x4,%eax
    2f14:	89 45 10             	mov    %eax,0x10(%ebp)
    2f17:	e9 7a fd ff ff       	jmp    2c96 <root_handle_position_event+0xc6>
    2f1c:	80 7d d2 01          	cmpb   $0x1,-0x2e(%ebp)
    2f20:	19 c0                	sbb    %eax,%eax
    2f22:	83 e0 18             	and    $0x18,%eax
    2f25:	83 c0 08             	add    $0x8,%eax
    2f28:	89 45 10             	mov    %eax,0x10(%ebp)
    2f2b:	8b 45 e4             	mov    -0x1c(%ebp),%eax
    2f2e:	89 45 0c             	mov    %eax,0xc(%ebp)
    2f31:	e9 60 fd ff ff       	jmp    2c96 <root_handle_position_event+0xc6>
    2f36:	8d 76 00             	lea    0x0(%esi),%esi
    2f39:	8d bc 27 00 00 00 00 	lea    0x0(%edi,%eiz,1),%edi

00002f40 <root_destroy>:
    2f40:	55                   	push   %ebp
    2f41:	89 e5                	mov    %esp,%ebp
    2f43:	5d                   	pop    %ebp
    2f44:	e9 97 fb ff ff       	jmp    2ae0 <widget_deinit>
    2f49:	8d b4 26 00 00 00 00 	lea    0x0(%esi,%eiz,1),%esi

00002f50 <root_reconfigure>:
    2f50:	55                   	push   %ebp
    2f51:	89 e5                	mov    %esp,%ebp
    2f53:	57                   	push   %edi
    2f54:	56                   	push   %esi
    2f55:	53                   	push   %ebx
    2f56:	83 ec 2c             	sub    $0x2c,%esp
    2f59:	8b 5d 08             	mov    0x8(%ebp),%ebx
    2f5c:	8b 43 14             	mov    0x14(%ebx),%eax
    2f5f:	8b 73 10             	mov    0x10(%ebx),%esi
    2f62:	8d 7b 0c             	lea    0xc(%ebx),%edi
    2f65:	80 78 01 00          	cmpb   $0x0,0x1(%eax)
    2f69:	74 6a                	je     2fd5 <root_reconfigure+0x85>
    2f6b:	39 fe                	cmp    %edi,%esi
    2f6d:	74 36                	je     2fa5 <root_reconfigure+0x55>
    2f6f:	90                   	nop
    2f70:	8b 43 24             	mov    0x24(%ebx),%eax
    2f73:	83 e8 1e             	sub    $0x1e,%eax
    2f76:	89 44 24 10          	mov    %eax,0x10(%esp)
    2f7a:	8b 43 20             	mov    0x20(%ebx),%eax
    2f7d:	83 e8 0a             	sub    $0xa,%eax
    2f80:	89 44 24 0c          	mov    %eax,0xc(%esp)
    2f84:	8b 43 1c             	mov    0x1c(%ebx),%eax
    2f87:	83 c0 19             	add    $0x19,%eax
    2f8a:	89 44 24 08          	mov    %eax,0x8(%esp)
    2f8e:	8b 43 18             	mov    0x18(%ebx),%eax
    2f91:	89 34 24             	mov    %esi,(%esp)
    2f94:	83 c0 05             	add    $0x5,%eax
    2f97:	89 44 24 04          	mov    %eax,0x4(%esp)
    2f9b:	ff 56 48             	call   *0x48(%esi)
    2f9e:	8b 76 04             	mov    0x4(%esi),%esi
    2fa1:	39 f7                	cmp    %esi,%edi
    2fa3:	75 cb                	jne    2f70 <root_reconfigure+0x20>
    2fa5:	83 c4 2c             	add    $0x2c,%esp
    2fa8:	5b                   	pop    %ebx
    2fa9:	5e                   	pop    %esi
    2faa:	5f                   	pop    %edi
    2fab:	5d                   	pop    %ebp
    2fac:	c3                   	ret    
    2fad:	8d 76 00             	lea    0x0(%esi),%esi
    2fb0:	8b 43 24             	mov    0x24(%ebx),%eax
    2fb3:	89 44 24 10          	mov    %eax,0x10(%esp)
    2fb7:	8b 43 20             	mov    0x20(%ebx),%eax
    2fba:	89 44 24 0c          	mov    %eax,0xc(%esp)
    2fbe:	8b 43 1c             	mov    0x1c(%ebx),%eax
    2fc1:	89 44 24 08          	mov    %eax,0x8(%esp)
    2fc5:	8b 43 18             	mov    0x18(%ebx),%eax
    2fc8:	89 34 24             	mov    %esi,(%esp)
    2fcb:	89 44 24 04          	mov    %eax,0x4(%esp)
    2fcf:	ff 56 48             	call   *0x48(%esi)
    2fd2:	8b 76 04             	mov    0x4(%esi),%esi
    2fd5:	39 fe                	cmp    %edi,%esi
    2fd7:	75 d7                	jne    2fb0 <root_reconfigure+0x60>
    2fd9:	83 c4 2c             	add    $0x2c,%esp
    2fdc:	5b                   	pop    %ebx
    2fdd:	5e                   	pop    %esi
    2fde:	5f                   	pop    %edi
    2fdf:	5d                   	pop    %ebp
    2fe0:	c3                   	ret    
    2fe1:	eb 0d                	jmp    2ff0 <paint_internal>
    2fe3:	90                   	nop
    2fe4:	90                   	nop
    2fe5:	90                   	nop
    2fe6:	90                   	nop
    2fe7:	90                   	nop
    2fe8:	90                   	nop
    2fe9:	90                   	nop
    2fea:	90                   	nop
    2feb:	90                   	nop
    2fec:	90                   	nop
    2fed:	90                   	nop
    2fee:	90                   	nop
    2fef:	90                   	nop

00002ff0 <paint_internal>:
    2ff0:	55                   	push   %ebp
    2ff1:	89 e5                	mov    %esp,%ebp
    2ff3:	57                   	push   %edi
    2ff4:	56                   	push   %esi
    2ff5:	53                   	push   %ebx
    2ff6:	81 ec fc 00 00 00    	sub    $0xfc,%esp
    2ffc:	89 c6                	mov    %eax,%esi
    2ffe:	8b 58 14             	mov    0x14(%eax),%ebx
    3001:	8d 93 90 00 00 00    	lea    0x90(%ebx),%edx
    3007:	89 14 24             	mov    %edx,(%esp)
    300a:	e8 f1 a5 00 00       	call   d600 <fibril_mutex_lock>
    300f:	8b 9b a0 00 00 00    	mov    0xa0(%ebx),%ebx
    3015:	85 db                	test   %ebx,%ebx
    3017:	0f 84 ab 02 00 00    	je     32c8 <paint_internal+0x2d8>
    301d:	8d 7d 84             	lea    -0x7c(%ebp),%edi
    3020:	89 3c 24             	mov    %edi,(%esp)
    3023:	e8 58 18 00 00       	call   4880 <source_init>
    3028:	8d 85 3c ff ff ff    	lea    -0xc4(%ebp),%eax
    302e:	89 04 24             	mov    %eax,(%esp)
    3031:	c7 44 24 0c 10 00 00 	movl   $0x10,0xc(%esp)
    3038:	00 
    3039:	c7 44 24 08 00 00 00 	movl   $0x0,0x8(%esp)
    3040:	00 
    3041:	c7 44 24 04 00 00 00 	movl   $0x0,0x4(%esp)
    3048:	00 
    3049:	e8 f2 13 00 00       	call   4440 <font_init>
    304e:	89 5c 24 04          	mov    %ebx,0x4(%esp)
    3052:	8d 9d 4c ff ff ff    	lea    -0xb4(%ebp),%ebx
    3058:	89 1c 24             	mov    %ebx,(%esp)
    305b:	e8 d0 0e 00 00       	call   3f30 <drawctx_init>
    3060:	89 7c 24 04          	mov    %edi,0x4(%esp)
    3064:	89 1c 24             	mov    %ebx,(%esp)
    3067:	e8 b4 10 00 00       	call   4120 <drawctx_set_source>
    306c:	8d 85 3c ff ff ff    	lea    -0xc4(%ebp),%eax
    3072:	89 44 24 04          	mov    %eax,0x4(%esp)
    3076:	89 1c 24             	mov    %ebx,(%esp)
    3079:	e8 b2 10 00 00       	call   4130 <drawctx_set_font>
    307e:	89 3c 24             	mov    %edi,(%esp)
    3081:	c7 44 24 04 00 00 00 	movl   $0xff000000,0x4(%esp)
    3088:	ff 
    3089:	e8 82 18 00 00       	call   4910 <source_set_color>
    308e:	8b 56 24             	mov    0x24(%esi),%edx
    3091:	89 54 24 10          	mov    %edx,0x10(%esp)
    3095:	8b 56 1c             	mov    0x1c(%esi),%edx
    3098:	89 54 24 08          	mov    %edx,0x8(%esp)
    309c:	8b 56 18             	mov    0x18(%esi),%edx
    309f:	89 54 24 04          	mov    %edx,0x4(%esp)
    30a3:	c7 44 24 0c 05 00 00 	movl   $0x5,0xc(%esp)
    30aa:	00 
    30ab:	89 1c 24             	mov    %ebx,(%esp)
    30ae:	e8 8d 10 00 00       	call   4140 <drawctx_transfer>
    30b3:	8b 56 24             	mov    0x24(%esi),%edx
    30b6:	89 54 24 10          	mov    %edx,0x10(%esp)
    30ba:	8b 56 1c             	mov    0x1c(%esi),%edx
    30bd:	8b 46 20             	mov    0x20(%esi),%eax
    30c0:	89 54 24 08          	mov    %edx,0x8(%esp)
    30c4:	8b 56 18             	mov    0x18(%esi),%edx
    30c7:	c7 44 24 0c 05 00 00 	movl   $0x5,0xc(%esp)
    30ce:	00 
    30cf:	01 c2                	add    %eax,%edx
    30d1:	89 1c 24             	mov    %ebx,(%esp)
    30d4:	83 ea 05             	sub    $0x5,%edx
    30d7:	89 54 24 04          	mov    %edx,0x4(%esp)
    30db:	e8 60 10 00 00       	call   4140 <drawctx_transfer>
    30e0:	8b 56 20             	mov    0x20(%esi),%edx
    30e3:	89 54 24 0c          	mov    %edx,0xc(%esp)
    30e7:	8b 56 1c             	mov    0x1c(%esi),%edx
    30ea:	89 54 24 08          	mov    %edx,0x8(%esp)
    30ee:	8b 56 18             	mov    0x18(%esi),%edx
    30f1:	89 54 24 04          	mov    %edx,0x4(%esp)
    30f5:	c7 44 24 10 05 00 00 	movl   $0x5,0x10(%esp)
    30fc:	00 
    30fd:	89 1c 24             	mov    %ebx,(%esp)
    3100:	e8 3b 10 00 00       	call   4140 <drawctx_transfer>
    3105:	8b 56 20             	mov    0x20(%esi),%edx
    3108:	8b 46 24             	mov    0x24(%esi),%eax
    310b:	89 54 24 0c          	mov    %edx,0xc(%esp)
    310f:	8b 56 1c             	mov    0x1c(%esi),%edx
    3112:	c7 44 24 10 05 00 00 	movl   $0x5,0x10(%esp)
    3119:	00 
    311a:	01 c2                	add    %eax,%edx
    311c:	89 1c 24             	mov    %ebx,(%esp)
    311f:	83 ea 05             	sub    $0x5,%edx
    3122:	89 54 24 08          	mov    %edx,0x8(%esp)
    3126:	8b 56 18             	mov    0x18(%esi),%edx
    3129:	89 54 24 04          	mov    %edx,0x4(%esp)
    312d:	e8 0e 10 00 00       	call   4140 <drawctx_transfer>
    3132:	8b 56 14             	mov    0x14(%esi),%edx
    3135:	80 7a 02 01          	cmpb   $0x1,0x2(%edx)
    3139:	19 d2                	sbb    %edx,%edx
    313b:	89 3c 24             	mov    %edi,(%esp)
    313e:	81 e2 44 69 2d 00    	and    $0x2d6944,%edx
    3144:	81 ea 90 e6 e6 00    	sub    $0xe6e690,%edx
    314a:	89 54 24 04          	mov    %edx,0x4(%esp)
    314e:	e8 bd 17 00 00       	call   4910 <source_set_color>
    3153:	8b 56 20             	mov    0x20(%esi),%edx
    3156:	83 ea 0a             	sub    $0xa,%edx
    3159:	c7 44 24 10 14 00 00 	movl   $0x14,0x10(%esp)
    3160:	00 
    3161:	89 54 24 0c          	mov    %edx,0xc(%esp)
    3165:	8b 56 1c             	mov    0x1c(%esi),%edx
    3168:	83 c2 05             	add    $0x5,%edx
    316b:	89 1c 24             	mov    %ebx,(%esp)
    316e:	89 54 24 08          	mov    %edx,0x8(%esp)
    3172:	8b 56 18             	mov    0x18(%esi),%edx
    3175:	83 c2 05             	add    $0x5,%edx
    3178:	89 54 24 04          	mov    %edx,0x4(%esp)
    317c:	e8 bf 0f 00 00       	call   4140 <drawctx_transfer>
    3181:	8d 95 30 ff ff ff    	lea    -0xd0(%ebp),%edx
    3187:	89 54 24 0c          	mov    %edx,0xc(%esp)
    318b:	8d 95 2c ff ff ff    	lea    -0xd4(%ebp),%edx
    3191:	89 54 24 08          	mov    %edx,0x8(%esp)
    3195:	8b 56 14             	mov    0x14(%esi),%edx
    3198:	8d 85 3c ff ff ff    	lea    -0xc4(%ebp),%eax
    319e:	8b 52 04             	mov    0x4(%edx),%edx
    31a1:	89 04 24             	mov    %eax,(%esp)
    31a4:	89 54 24 04          	mov    %edx,0x4(%esp)
    31a8:	e8 c3 13 00 00       	call   4570 <font_get_box>
    31ad:	8d 95 38 ff ff ff    	lea    -0xc8(%ebp),%edx
    31b3:	8d 8d 2a ff ff ff    	lea    -0xd6(%ebp),%ecx
    31b9:	8d 85 3c ff ff ff    	lea    -0xc4(%ebp),%eax
    31bf:	89 54 24 0c          	mov    %edx,0xc(%esp)
    31c3:	8d 95 34 ff ff ff    	lea    -0xcc(%ebp),%edx
    31c9:	89 54 24 08          	mov    %edx,0x8(%esp)
    31cd:	89 4c 24 04          	mov    %ecx,0x4(%esp)
    31d1:	89 04 24             	mov    %eax,(%esp)
    31d4:	89 8d 24 ff ff ff    	mov    %ecx,-0xdc(%ebp)
    31da:	66 c7 85 2a ff ff ff 	movw   $0x78,-0xd6(%ebp)
    31e1:	78 00 
    31e3:	e8 88 13 00 00       	call   4570 <font_get_box>
    31e8:	89 3c 24             	mov    %edi,(%esp)
    31eb:	c7 44 24 04 ff ff ff 	movl   $0xffffffff,0x4(%esp)
    31f2:	ff 
    31f3:	e8 18 17 00 00       	call   4910 <source_set_color>
    31f8:	b8 14 00 00 00       	mov    $0x14,%eax
    31fd:	89 c2                	mov    %eax,%edx
    31ff:	8b 8d 38 ff ff ff    	mov    -0xc8(%ebp),%ecx
    3205:	29 ca                	sub    %ecx,%edx
    3207:	8b 7e 1c             	mov    0x1c(%esi),%edi
    320a:	d1 ea                	shr    %edx
    320c:	8b 8d 34 ff ff ff    	mov    -0xcc(%ebp),%ecx
    3212:	89 1c 24             	mov    %ebx,(%esp)
    3215:	8d 54 17 05          	lea    0x5(%edi,%edx,1),%edx
    3219:	8b 7e 18             	mov    0x18(%esi),%edi
    321c:	89 54 24 0c          	mov    %edx,0xc(%esp)
    3220:	8b 56 20             	mov    0x20(%esi),%edx
    3223:	01 d7                	add    %edx,%edi
    3225:	89 c2                	mov    %eax,%edx
    3227:	29 ca                	sub    %ecx,%edx
    3229:	8b 8d 24 ff ff ff    	mov    -0xdc(%ebp),%ecx
    322f:	d1 ea                	shr    %edx
    3231:	89 4c 24 04          	mov    %ecx,0x4(%esp)
    3235:	89 85 24 ff ff ff    	mov    %eax,-0xdc(%ebp)
    323b:	8d 54 17 e7          	lea    -0x19(%edi,%edx,1),%edx
    323f:	89 54 24 08          	mov    %edx,0x8(%esp)
    3243:	e8 a8 11 00 00       	call   43f0 <drawctx_print>
    3248:	8b 95 2c ff ff ff    	mov    -0xd4(%ebp),%edx
    324e:	8b 4e 20             	mov    0x20(%esi),%ecx
    3251:	8d 7a 1e             	lea    0x1e(%edx),%edi
    3254:	39 f9                	cmp    %edi,%ecx
    3256:	8b 85 24 ff ff ff    	mov    -0xdc(%ebp),%eax
    325c:	72 3a                	jb     3298 <paint_internal+0x2a8>
    325e:	29 d1                	sub    %edx,%ecx
    3260:	89 c7                	mov    %eax,%edi
    3262:	8b 85 30 ff ff ff    	mov    -0xd0(%ebp),%eax
    3268:	8b 56 18             	mov    0x18(%esi),%edx
    326b:	d1 e9                	shr    %ecx
    326d:	29 c7                	sub    %eax,%edi
    326f:	d1 ef                	shr    %edi
    3271:	01 d1                	add    %edx,%ecx
    3273:	8b 56 1c             	mov    0x1c(%esi),%edx
    3276:	8d 7c 3a 05          	lea    0x5(%edx,%edi,1),%edi
    327a:	8b 56 14             	mov    0x14(%esi),%edx
    327d:	8b 52 04             	mov    0x4(%edx),%edx
    3280:	85 d2                	test   %edx,%edx
    3282:	74 14                	je     3298 <paint_internal+0x2a8>
    3284:	89 7c 24 0c          	mov    %edi,0xc(%esp)
    3288:	89 4c 24 08          	mov    %ecx,0x8(%esp)
    328c:	89 54 24 04          	mov    %edx,0x4(%esp)
    3290:	89 1c 24             	mov    %ebx,(%esp)
    3293:	e8 58 11 00 00       	call   43f0 <drawctx_print>
    3298:	8d 85 3c ff ff ff    	lea    -0xc4(%ebp),%eax
    329e:	89 04 24             	mov    %eax,(%esp)
    32a1:	e8 5a 12 00 00       	call   4500 <font_release>
    32a6:	8b 46 14             	mov    0x14(%esi),%eax
    32a9:	05 90 00 00 00       	add    $0x90,%eax
    32ae:	89 04 24             	mov    %eax,(%esp)
    32b1:	e8 6a a4 00 00       	call   d720 <fibril_mutex_unlock>
    32b6:	81 c4 fc 00 00 00    	add    $0xfc,%esp
    32bc:	5b                   	pop    %ebx
    32bd:	5e                   	pop    %esi
    32be:	5f                   	pop    %edi
    32bf:	5d                   	pop    %ebp
    32c0:	c3                   	ret    
    32c1:	8d b4 26 00 00 00 00 	lea    0x0(%esi,%eiz,1),%esi
    32c8:	8b 56 14             	mov    0x14(%esi),%edx
    32cb:	81 c2 90 00 00 00    	add    $0x90,%edx
    32d1:	89 14 24             	mov    %edx,(%esp)
    32d4:	e8 47 a4 00 00       	call   d720 <fibril_mutex_unlock>
    32d9:	e9 3f fd ff ff       	jmp    301d <paint_internal+0x2d>
    32de:	66 90                	xchg   %ax,%ax

000032e0 <root_rearrange>:
    32e0:	55                   	push   %ebp
    32e1:	89 e5                	mov    %esp,%ebp
    32e3:	57                   	push   %edi
    32e4:	56                   	push   %esi
    32e5:	53                   	push   %ebx
    32e6:	83 ec 3c             	sub    $0x3c,%esp
    32e9:	8b 45 10             	mov    0x10(%ebp),%eax
    32ec:	8b 4d 08             	mov    0x8(%ebp),%ecx
    32ef:	8b 75 14             	mov    0x14(%ebp),%esi
    32f2:	8b 7d 18             	mov    0x18(%ebp),%edi
    32f5:	89 44 24 08          	mov    %eax,0x8(%esp)
    32f9:	8b 45 0c             	mov    0xc(%ebp),%eax
    32fc:	89 44 24 04          	mov    %eax,0x4(%esp)
    3300:	89 0c 24             	mov    %ecx,(%esp)
    3303:	89 7c 24 10          	mov    %edi,0x10(%esp)
    3307:	89 74 24 0c          	mov    %esi,0xc(%esp)
    330b:	89 4d d8             	mov    %ecx,-0x28(%ebp)
    330e:	e8 ad f7 ff ff       	call   2ac0 <widget_modify>
    3313:	8b 4d d8             	mov    -0x28(%ebp),%ecx
    3316:	8b 41 14             	mov    0x14(%ecx),%eax
    3319:	80 78 01 00          	cmpb   $0x0,0x1(%eax)
    331d:	75 41                	jne    3360 <root_rearrange+0x80>
    331f:	8b 59 10             	mov    0x10(%ecx),%ebx
    3322:	83 c1 0c             	add    $0xc,%ecx
    3325:	89 4d dc             	mov    %ecx,-0x24(%ebp)
    3328:	39 cb                	cmp    %ecx,%ebx
    332a:	74 28                	je     3354 <root_rearrange+0x74>
    332c:	8d 74 26 00          	lea    0x0(%esi,%eiz,1),%esi
    3330:	8b 45 10             	mov    0x10(%ebp),%eax
    3333:	89 1c 24             	mov    %ebx,(%esp)
    3336:	89 44 24 08          	mov    %eax,0x8(%esp)
    333a:	8b 45 0c             	mov    0xc(%ebp),%eax
    333d:	89 7c 24 10          	mov    %edi,0x10(%esp)
    3341:	89 74 24 0c          	mov    %esi,0xc(%esp)
    3345:	89 44 24 04          	mov    %eax,0x4(%esp)
    3349:	ff 53 48             	call   *0x48(%ebx)
    334c:	8b 5b 04             	mov    0x4(%ebx),%ebx
    334f:	3b 5d dc             	cmp    -0x24(%ebp),%ebx
    3352:	75 dc                	jne    3330 <root_rearrange+0x50>
    3354:	83 c4 3c             	add    $0x3c,%esp
    3357:	5b                   	pop    %ebx
    3358:	5e                   	pop    %esi
    3359:	5f                   	pop    %edi
    335a:	5d                   	pop    %ebp
    335b:	c3                   	ret    
    335c:	8d 74 26 00          	lea    0x0(%esi,%eiz,1),%esi
    3360:	89 c8                	mov    %ecx,%eax
    3362:	e8 89 fc ff ff       	call   2ff0 <paint_internal>
    3367:	8b 4d d8             	mov    -0x28(%ebp),%ecx
    336a:	8b 59 10             	mov    0x10(%ecx),%ebx
    336d:	83 c1 0c             	add    $0xc,%ecx
    3370:	89 4d dc             	mov    %ecx,-0x24(%ebp)
    3373:	39 cb                	cmp    %ecx,%ebx
    3375:	74 dd                	je     3354 <root_rearrange+0x74>
    3377:	8b 45 10             	mov    0x10(%ebp),%eax
    337a:	83 ef 1e             	sub    $0x1e,%edi
    337d:	83 c0 19             	add    $0x19,%eax
    3380:	83 ee 0a             	sub    $0xa,%esi
    3383:	89 45 e0             	mov    %eax,-0x20(%ebp)
    3386:	8b 45 0c             	mov    0xc(%ebp),%eax
    3389:	83 c0 05             	add    $0x5,%eax
    338c:	89 45 e4             	mov    %eax,-0x1c(%ebp)
    338f:	90                   	nop
    3390:	8b 45 e0             	mov    -0x20(%ebp),%eax
    3393:	89 1c 24             	mov    %ebx,(%esp)
    3396:	89 44 24 08          	mov    %eax,0x8(%esp)
    339a:	8b 45 e4             	mov    -0x1c(%ebp),%eax
    339d:	89 7c 24 10          	mov    %edi,0x10(%esp)
    33a1:	89 74 24 0c          	mov    %esi,0xc(%esp)
    33a5:	89 44 24 04          	mov    %eax,0x4(%esp)
    33a9:	ff 53 48             	call   *0x48(%ebx)
    33ac:	8b 5b 04             	mov    0x4(%ebx),%ebx
    33af:	39 5d dc             	cmp    %ebx,-0x24(%ebp)
    33b2:	75 dc                	jne    3390 <root_rearrange+0xb0>
    33b4:	83 c4 3c             	add    $0x3c,%esp
    33b7:	5b                   	pop    %ebx
    33b8:	5e                   	pop    %esi
    33b9:	5f                   	pop    %edi
    33ba:	5d                   	pop    %ebp
    33bb:	c3                   	ret    
    33bc:	8d 74 26 00          	lea    0x0(%esi,%eiz,1),%esi

000033c0 <destroy_children>:
    33c0:	55                   	push   %ebp
    33c1:	89 e5                	mov    %esp,%ebp
    33c3:	57                   	push   %edi
    33c4:	56                   	push   %esi
    33c5:	53                   	push   %ebx
    33c6:	83 ec 5c             	sub    $0x5c,%esp
    33c9:	89 45 c0             	mov    %eax,-0x40(%ebp)
    33cc:	8b 40 10             	mov    0x10(%eax),%eax
    33cf:	89 45 d4             	mov    %eax,-0x2c(%ebp)
    33d2:	8b 45 c0             	mov    -0x40(%ebp),%eax
    33d5:	83 c0 0c             	add    $0xc,%eax
    33d8:	89 45 bc             	mov    %eax,-0x44(%ebp)
    33db:	39 45 d4             	cmp    %eax,-0x2c(%ebp)
    33de:	0f 84 b7 01 00 00    	je     359b <destroy_children+0x1db>
    33e4:	8b 45 d4             	mov    -0x2c(%ebp),%eax
    33e7:	8b 40 10             	mov    0x10(%eax),%eax
    33ea:	89 45 d0             	mov    %eax,-0x30(%ebp)
    33ed:	8b 45 d4             	mov    -0x2c(%ebp),%eax
    33f0:	83 c0 0c             	add    $0xc,%eax
    33f3:	89 45 ac             	mov    %eax,-0x54(%ebp)
    33f6:	39 45 d0             	cmp    %eax,-0x30(%ebp)
    33f9:	0f 84 7e 01 00 00    	je     357d <destroy_children+0x1bd>
    33ff:	8b 45 d0             	mov    -0x30(%ebp),%eax
    3402:	8b 40 10             	mov    0x10(%eax),%eax
    3405:	89 45 cc             	mov    %eax,-0x34(%ebp)
    3408:	8b 45 d0             	mov    -0x30(%ebp),%eax
    340b:	83 c0 0c             	add    $0xc,%eax
    340e:	89 45 b0             	mov    %eax,-0x50(%ebp)
    3411:	39 45 cc             	cmp    %eax,-0x34(%ebp)
    3414:	0f 84 45 01 00 00    	je     355f <destroy_children+0x19f>
    341a:	8b 45 cc             	mov    -0x34(%ebp),%eax
    341d:	8b 40 10             	mov    0x10(%eax),%eax
    3420:	89 45 c8             	mov    %eax,-0x38(%ebp)
    3423:	8b 45 cc             	mov    -0x34(%ebp),%eax
    3426:	83 c0 0c             	add    $0xc,%eax
    3429:	89 45 b4             	mov    %eax,-0x4c(%ebp)
    342c:	39 45 c8             	cmp    %eax,-0x38(%ebp)
    342f:	0f 84 0c 01 00 00    	je     3541 <destroy_children+0x181>
    3435:	8b 45 c8             	mov    -0x38(%ebp),%eax
    3438:	8b 40 10             	mov    0x10(%eax),%eax
    343b:	89 45 c4             	mov    %eax,-0x3c(%ebp)
    343e:	8b 45 c8             	mov    -0x38(%ebp),%eax
    3441:	83 c0 0c             	add    $0xc,%eax
    3444:	89 45 b8             	mov    %eax,-0x48(%ebp)
    3447:	39 45 c4             	cmp    %eax,-0x3c(%ebp)
    344a:	0f 84 d3 00 00 00    	je     3523 <destroy_children+0x163>
    3450:	8b 45 c4             	mov    -0x3c(%ebp),%eax
    3453:	8b 40 10             	mov    0x10(%eax),%eax
    3456:	89 45 dc             	mov    %eax,-0x24(%ebp)
    3459:	8b 45 c4             	mov    -0x3c(%ebp),%eax
    345c:	83 c0 0c             	add    $0xc,%eax
    345f:	89 45 a8             	mov    %eax,-0x58(%ebp)
    3462:	39 45 dc             	cmp    %eax,-0x24(%ebp)
    3465:	0f 84 9a 00 00 00    	je     3505 <destroy_children+0x145>
    346b:	8b 45 dc             	mov    -0x24(%ebp),%eax
    346e:	8b 40 10             	mov    0x10(%eax),%eax
    3471:	89 45 e4             	mov    %eax,-0x1c(%ebp)
    3474:	8b 45 dc             	mov    -0x24(%ebp),%eax
    3477:	83 c0 0c             	add    $0xc,%eax
    347a:	89 45 d8             	mov    %eax,-0x28(%ebp)
    347d:	39 45 e4             	cmp    %eax,-0x1c(%ebp)
    3480:	74 65                	je     34e7 <destroy_children+0x127>
    3482:	8b 45 e4             	mov    -0x1c(%ebp),%eax
    3485:	8b 58 10             	mov    0x10(%eax),%ebx
    3488:	83 c0 0c             	add    $0xc,%eax
    348b:	89 45 e0             	mov    %eax,-0x20(%ebp)
    348e:	39 c3                	cmp    %eax,%ebx
    3490:	74 3b                	je     34cd <destroy_children+0x10d>
    3492:	8d b6 00 00 00 00    	lea    0x0(%esi),%esi
    3498:	8b 7b 10             	mov    0x10(%ebx),%edi
    349b:	8d 73 0c             	lea    0xc(%ebx),%esi
    349e:	39 f7                	cmp    %esi,%edi
    34a0:	74 1a                	je     34bc <destroy_children+0xfc>
    34a2:	8d b6 00 00 00 00    	lea    0x0(%esi),%esi
    34a8:	89 f8                	mov    %edi,%eax
    34aa:	e8 11 ff ff ff       	call   33c0 <destroy_children>
    34af:	89 3c 24             	mov    %edi,(%esp)
    34b2:	ff 57 40             	call   *0x40(%edi)
    34b5:	8b 7b 10             	mov    0x10(%ebx),%edi
    34b8:	39 f7                	cmp    %esi,%edi
    34ba:	75 ec                	jne    34a8 <destroy_children+0xe8>
    34bc:	89 1c 24             	mov    %ebx,(%esp)
    34bf:	ff 53 40             	call   *0x40(%ebx)
    34c2:	8b 45 e4             	mov    -0x1c(%ebp),%eax
    34c5:	8b 58 10             	mov    0x10(%eax),%ebx
    34c8:	3b 5d e0             	cmp    -0x20(%ebp),%ebx
    34cb:	75 cb                	jne    3498 <destroy_children+0xd8>
    34cd:	8b 45 e4             	mov    -0x1c(%ebp),%eax
    34d0:	89 04 24             	mov    %eax,(%esp)
    34d3:	ff 50 40             	call   *0x40(%eax)
    34d6:	8b 45 dc             	mov    -0x24(%ebp),%eax
    34d9:	8b 40 10             	mov    0x10(%eax),%eax
    34dc:	89 45 e4             	mov    %eax,-0x1c(%ebp)
    34df:	8b 45 d8             	mov    -0x28(%ebp),%eax
    34e2:	39 45 e4             	cmp    %eax,-0x1c(%ebp)
    34e5:	75 9b                	jne    3482 <destroy_children+0xc2>
    34e7:	8b 45 dc             	mov    -0x24(%ebp),%eax
    34ea:	89 04 24             	mov    %eax,(%esp)
    34ed:	ff 50 40             	call   *0x40(%eax)
    34f0:	8b 45 c4             	mov    -0x3c(%ebp),%eax
    34f3:	8b 40 10             	mov    0x10(%eax),%eax
    34f6:	89 45 dc             	mov    %eax,-0x24(%ebp)
    34f9:	8b 45 a8             	mov    -0x58(%ebp),%eax
    34fc:	39 45 dc             	cmp    %eax,-0x24(%ebp)
    34ff:	0f 85 66 ff ff ff    	jne    346b <destroy_children+0xab>
    3505:	8b 45 c4             	mov    -0x3c(%ebp),%eax
    3508:	89 04 24             	mov    %eax,(%esp)
    350b:	ff 50 40             	call   *0x40(%eax)
    350e:	8b 45 c8             	mov    -0x38(%ebp),%eax
    3511:	8b 40 10             	mov    0x10(%eax),%eax
    3514:	89 45 c4             	mov    %eax,-0x3c(%ebp)
    3517:	8b 45 b8             	mov    -0x48(%ebp),%eax
    351a:	39 45 c4             	cmp    %eax,-0x3c(%ebp)
    351d:	0f 85 2d ff ff ff    	jne    3450 <destroy_children+0x90>
    3523:	8b 45 c8             	mov    -0x38(%ebp),%eax
    3526:	89 04 24             	mov    %eax,(%esp)
    3529:	ff 50 40             	call   *0x40(%eax)
    352c:	8b 45 cc             	mov    -0x34(%ebp),%eax
    352f:	8b 40 10             	mov    0x10(%eax),%eax
    3532:	89 45 c8             	mov    %eax,-0x38(%ebp)
    3535:	8b 45 b4             	mov    -0x4c(%ebp),%eax
    3538:	39 45 c8             	cmp    %eax,-0x38(%ebp)
    353b:	0f 85 f4 fe ff ff    	jne    3435 <destroy_children+0x75>
    3541:	8b 45 cc             	mov    -0x34(%ebp),%eax
    3544:	89 04 24             	mov    %eax,(%esp)
    3547:	ff 50 40             	call   *0x40(%eax)
    354a:	8b 45 d0             	mov    -0x30(%ebp),%eax
    354d:	8b 40 10             	mov    0x10(%eax),%eax
    3550:	89 45 cc             	mov    %eax,-0x34(%ebp)
    3553:	8b 45 b0             	mov    -0x50(%ebp),%eax
    3556:	39 45 cc             	cmp    %eax,-0x34(%ebp)
    3559:	0f 85 bb fe ff ff    	jne    341a <destroy_children+0x5a>
    355f:	8b 45 d0             	mov    -0x30(%ebp),%eax
    3562:	89 04 24             	mov    %eax,(%esp)
    3565:	ff 50 40             	call   *0x40(%eax)
    3568:	8b 45 d4             	mov    -0x2c(%ebp),%eax
    356b:	8b 40 10             	mov    0x10(%eax),%eax
    356e:	89 45 d0             	mov    %eax,-0x30(%ebp)
    3571:	8b 45 ac             	mov    -0x54(%ebp),%eax
    3574:	39 45 d0             	cmp    %eax,-0x30(%ebp)
    3577:	0f 85 82 fe ff ff    	jne    33ff <destroy_children+0x3f>
    357d:	8b 45 d4             	mov    -0x2c(%ebp),%eax
    3580:	89 04 24             	mov    %eax,(%esp)
    3583:	ff 50 40             	call   *0x40(%eax)
    3586:	8b 45 c0             	mov    -0x40(%ebp),%eax
    3589:	8b 40 10             	mov    0x10(%eax),%eax
    358c:	89 45 d4             	mov    %eax,-0x2c(%ebp)
    358f:	8b 45 bc             	mov    -0x44(%ebp),%eax
    3592:	39 45 d4             	cmp    %eax,-0x2c(%ebp)
    3595:	0f 85 49 fe ff ff    	jne    33e4 <destroy_children+0x24>
    359b:	83 c4 5c             	add    $0x5c,%esp
    359e:	5b                   	pop    %ebx
    359f:	5e                   	pop    %esi
    35a0:	5f                   	pop    %edi
    35a1:	5d                   	pop    %ebp
    35a2:	c3                   	ret    
    35a3:	8d b6 00 00 00 00    	lea    0x0(%esi),%esi
    35a9:	8d bc 27 00 00 00 00 	lea    0x0(%edi,%eiz,1),%edi

000035b0 <event_loop>:
    35b0:	55                   	push   %ebp
    35b1:	89 e5                	mov    %esp,%ebp
    35b3:	57                   	push   %edi
    35b4:	56                   	push   %esi
    35b5:	53                   	push   %ebx
    35b6:	81 ec 8c 00 00 00    	sub    $0x8c,%esp
    35bc:	8b 55 08             	mov    0x8(%ebp),%edx
    35bf:	83 c2 10             	add    $0x10,%edx
    35c2:	89 55 a4             	mov    %edx,-0x5c(%ebp)
    35c5:	8b 55 08             	mov    0x8(%ebp),%edx
    35c8:	83 c2 30             	add    $0x30,%edx
    35cb:	89 55 a0             	mov    %edx,-0x60(%ebp)
    35ce:	8b 55 08             	mov    0x8(%ebp),%edx
    35d1:	81 c2 90 00 00 00    	add    $0x90,%edx
    35d7:	89 55 9c             	mov    %edx,-0x64(%ebp)
    35da:	8d b6 00 00 00 00    	lea    0x0(%esi),%esi
    35e0:	8b 55 a4             	mov    -0x5c(%ebp),%edx
    35e3:	89 14 24             	mov    %edx,(%esp)
    35e6:	e8 c5 97 01 00       	call   1cdb0 <prodcons_consume>
    35eb:	89 c3                	mov    %eax,%ebx
    35ed:	83 78 08 08          	cmpl   $0x8,0x8(%eax)
    35f1:	0f 87 a9 00 00 00    	ja     36a0 <event_loop+0xf0>
    35f7:	8b 40 08             	mov    0x8(%eax),%eax
    35fa:	ff 24 85 bc 33 02 00 	jmp    *0x233bc(,%eax,4)
    3601:	8d b4 26 00 00 00 00 	lea    0x0(%esi,%eiz,1),%esi
    3608:	8b 55 9c             	mov    -0x64(%ebp),%edx
    360b:	89 14 24             	mov    %edx,(%esp)
    360e:	e8 ed 9f 00 00       	call   d600 <fibril_mutex_lock>
    3613:	8d 45 b4             	lea    -0x4c(%ebp),%eax
    3616:	89 44 24 0c          	mov    %eax,0xc(%esp)
    361a:	8d 45 b0             	lea    -0x50(%ebp),%eax
    361d:	8d 4d b8             	lea    -0x48(%ebp),%ecx
    3620:	89 44 24 08          	mov    %eax,0x8(%esp)
    3624:	8b 55 08             	mov    0x8(%ebp),%edx
    3627:	8d 45 ac             	lea    -0x54(%ebp),%eax
    362a:	89 4c 24 10          	mov    %ecx,0x10(%esp)
    362e:	89 44 24 04          	mov    %eax,0x4(%esp)
    3632:	8b 82 a0 00 00 00    	mov    0xa0(%edx),%eax
    3638:	89 04 24             	mov    %eax,(%esp)
    363b:	e8 70 17 00 00       	call   4db0 <surface_get_damaged_region>
    3640:	8b 55 08             	mov    0x8(%ebp),%edx
    3643:	8b 82 a0 00 00 00    	mov    0xa0(%edx),%eax
    3649:	89 04 24             	mov    %eax,(%esp)
    364c:	e8 9f 18 00 00       	call   4ef0 <surface_reset_damaged_region>
    3651:	8b 55 9c             	mov    -0x64(%ebp),%edx
    3654:	89 14 24             	mov    %edx,(%esp)
    3657:	e8 c4 a0 00 00       	call   d720 <fibril_mutex_unlock>
    365c:	8b 45 b4             	mov    -0x4c(%ebp),%eax
    365f:	85 c0                	test   %eax,%eax
    3661:	74 3d                	je     36a0 <event_loop+0xf0>
    3663:	8b 55 b8             	mov    -0x48(%ebp),%edx
    3666:	85 d2                	test   %edx,%edx
    3668:	74 36                	je     36a0 <event_loop+0xf0>
    366a:	89 44 24 0c          	mov    %eax,0xc(%esp)
    366e:	8b 45 b0             	mov    -0x50(%ebp),%eax
    3671:	89 54 24 10          	mov    %edx,0x10(%esp)
    3675:	89 44 24 08          	mov    %eax,0x8(%esp)
    3679:	8b 55 08             	mov    0x8(%ebp),%edx
    367c:	8b 45 ac             	mov    -0x54(%ebp),%eax
    367f:	89 44 24 04          	mov    %eax,0x4(%esp)
    3683:	8b 42 0c             	mov    0xc(%edx),%eax
    3686:	89 04 24             	mov    %eax,(%esp)
    3689:	e8 32 0a 01 00       	call   140c0 <win_damage>
    368e:	eb 10                	jmp    36a0 <event_loop+0xf0>
    3690:	8b 55 a0             	mov    -0x60(%ebp),%edx
    3693:	89 14 24             	mov    %edx,(%esp)
    3696:	8b 55 08             	mov    0x8(%ebp),%edx
    3699:	ff 52 7c             	call   *0x7c(%edx)
    369c:	8d 74 26 00          	lea    0x0(%esi,%eiz,1),%esi
    36a0:	89 1c 24             	mov    %ebx,(%esp)
    36a3:	e8 38 30 01 00       	call   166e0 <free>
    36a8:	e9 33 ff ff ff       	jmp    35e0 <event_loop+0x30>
    36ad:	8d 76 00             	lea    0x0(%esi),%esi
    36b0:	8b 73 0c             	mov    0xc(%ebx),%esi
    36b3:	8b 7b 10             	mov    0x10(%ebx),%edi
    36b6:	83 fe 31             	cmp    $0x31,%esi
    36b9:	0f 86 91 03 00 00    	jbe    3a50 <event_loop+0x4a0>
    36bf:	83 ff 1d             	cmp    $0x1d,%edi
    36c2:	0f 86 88 03 00 00    	jbe    3a50 <event_loop+0x4a0>
    36c8:	c7 44 24 0c 01 00 00 	movl   $0x1,0xc(%esp)
    36cf:	00 
    36d0:	c7 44 24 08 00 00 00 	movl   $0x0,0x8(%esp)
    36d7:	00 
    36d8:	89 7c 24 04          	mov    %edi,0x4(%esp)
    36dc:	89 34 24             	mov    %esi,(%esp)
    36df:	e8 0c 15 00 00       	call   4bf0 <surface_create>
    36e4:	85 c0                	test   %eax,%eax
    36e6:	74 b8                	je     36a0 <event_loop+0xf0>
    36e8:	8b 55 9c             	mov    -0x64(%ebp),%edx
    36eb:	89 45 94             	mov    %eax,-0x6c(%ebp)
    36ee:	89 14 24             	mov    %edx,(%esp)
    36f1:	e8 0a 9f 00 00       	call   d600 <fibril_mutex_lock>
    36f6:	8b 55 08             	mov    0x8(%ebp),%edx
    36f9:	8b 92 a0 00 00 00    	mov    0xa0(%edx),%edx
    36ff:	8b 45 94             	mov    -0x6c(%ebp),%eax
    3702:	89 55 98             	mov    %edx,-0x68(%ebp)
    3705:	8b 55 08             	mov    0x8(%ebp),%edx
    3708:	89 82 a0 00 00 00    	mov    %eax,0xa0(%edx)
    370e:	8b 55 9c             	mov    -0x64(%ebp),%edx
    3711:	89 14 24             	mov    %edx,(%esp)
    3714:	e8 07 a0 00 00       	call   d720 <fibril_mutex_unlock>
    3719:	8b 55 a0             	mov    -0x60(%ebp),%edx
    371c:	89 14 24             	mov    %edx,(%esp)
    371f:	8b 55 08             	mov    0x8(%ebp),%edx
    3722:	89 7c 24 10          	mov    %edi,0x10(%esp)
    3726:	89 74 24 0c          	mov    %esi,0xc(%esp)
    372a:	c7 44 24 08 00 00 00 	movl   $0x0,0x8(%esp)
    3731:	00 
    3732:	c7 44 24 04 00 00 00 	movl   $0x0,0x4(%esp)
    3739:	00 
    373a:	ff 52 78             	call   *0x78(%edx)
    373d:	8b 55 9c             	mov    -0x64(%ebp),%edx
    3740:	89 14 24             	mov    %edx,(%esp)
    3743:	e8 b8 9e 00 00       	call   d600 <fibril_mutex_lock>
    3748:	8b 55 08             	mov    0x8(%ebp),%edx
    374b:	8b 8a a0 00 00 00    	mov    0xa0(%edx),%ecx
    3751:	89 0c 24             	mov    %ecx,(%esp)
    3754:	e8 97 17 00 00       	call   4ef0 <surface_reset_damaged_region>
    3759:	8b 55 9c             	mov    -0x64(%ebp),%edx
    375c:	89 14 24             	mov    %edx,(%esp)
    375f:	e8 bc 9f 00 00       	call   d720 <fibril_mutex_unlock>
    3764:	8b 45 94             	mov    -0x6c(%ebp),%eax
    3767:	89 04 24             	mov    %eax,(%esp)
    376a:	e8 c1 15 00 00       	call   4d30 <surface_direct_access>
    376f:	8b 55 08             	mov    0x8(%ebp),%edx
    3772:	89 44 24 0c          	mov    %eax,0xc(%esp)
    3776:	89 7c 24 08          	mov    %edi,0x8(%esp)
    377a:	89 74 24 04          	mov    %esi,0x4(%esp)
    377e:	8b 42 0c             	mov    0xc(%edx),%eax
    3781:	89 04 24             	mov    %eax,(%esp)
    3784:	e8 37 0a 01 00       	call   141c0 <win_resize>
    3789:	85 c0                	test   %eax,%eax
    378b:	0f 84 0f 03 00 00    	je     3aa0 <event_loop+0x4f0>
    3791:	8b 45 98             	mov    -0x68(%ebp),%eax
    3794:	c7 45 b4 00 00 00 00 	movl   $0x0,-0x4c(%ebp)
    379b:	c7 45 b8 00 00 00 00 	movl   $0x0,-0x48(%ebp)
    37a2:	85 c0                	test   %eax,%eax
    37a4:	74 19                	je     37bf <event_loop+0x20f>
    37a6:	8d 4d b8             	lea    -0x48(%ebp),%ecx
    37a9:	8d 45 b4             	lea    -0x4c(%ebp),%eax
    37ac:	8b 55 98             	mov    -0x68(%ebp),%edx
    37af:	89 4c 24 08          	mov    %ecx,0x8(%esp)
    37b3:	89 44 24 04          	mov    %eax,0x4(%esp)
    37b7:	89 14 24             	mov    %edx,(%esp)
    37ba:	e8 91 15 00 00       	call   4d50 <surface_get_resolution>
    37bf:	8b 55 9c             	mov    -0x64(%ebp),%edx
    37c2:	89 14 24             	mov    %edx,(%esp)
    37c5:	e8 36 9e 00 00       	call   d600 <fibril_mutex_lock>
    37ca:	8b 55 08             	mov    0x8(%ebp),%edx
    37cd:	8b 4d 98             	mov    -0x68(%ebp),%ecx
    37d0:	8b b2 a0 00 00 00    	mov    0xa0(%edx),%esi
    37d6:	89 8a a0 00 00 00    	mov    %ecx,0xa0(%edx)
    37dc:	8b 55 9c             	mov    -0x64(%ebp),%edx
    37df:	89 14 24             	mov    %edx,(%esp)
    37e2:	e8 39 9f 00 00       	call   d720 <fibril_mutex_unlock>
    37e7:	8b 45 b8             	mov    -0x48(%ebp),%eax
    37ea:	8b 55 a0             	mov    -0x60(%ebp),%edx
    37ed:	89 44 24 10          	mov    %eax,0x10(%esp)
    37f1:	89 14 24             	mov    %edx,(%esp)
    37f4:	8b 45 b4             	mov    -0x4c(%ebp),%eax
    37f7:	8b 55 08             	mov    0x8(%ebp),%edx
    37fa:	89 44 24 0c          	mov    %eax,0xc(%esp)
    37fe:	c7 44 24 08 00 00 00 	movl   $0x0,0x8(%esp)
    3805:	00 
    3806:	c7 44 24 04 00 00 00 	movl   $0x0,0x4(%esp)
    380d:	00 
    380e:	ff 52 78             	call   *0x78(%edx)
    3811:	8b 55 08             	mov    0x8(%ebp),%edx
    3814:	8b ba a0 00 00 00    	mov    0xa0(%edx),%edi
    381a:	85 ff                	test   %edi,%edi
    381c:	74 27                	je     3845 <event_loop+0x295>
    381e:	8b 55 9c             	mov    -0x64(%ebp),%edx
    3821:	89 14 24             	mov    %edx,(%esp)
    3824:	e8 d7 9d 00 00       	call   d600 <fibril_mutex_lock>
    3829:	8b 55 08             	mov    0x8(%ebp),%edx
    382c:	8b 82 a0 00 00 00    	mov    0xa0(%edx),%eax
    3832:	89 04 24             	mov    %eax,(%esp)
    3835:	e8 b6 16 00 00       	call   4ef0 <surface_reset_damaged_region>
    383a:	8b 55 9c             	mov    -0x64(%ebp),%edx
    383d:	89 14 24             	mov    %edx,(%esp)
    3840:	e8 db 9e 00 00       	call   d720 <fibril_mutex_unlock>
    3845:	89 34 24             	mov    %esi,(%esp)
    3848:	e8 93 14 00 00       	call   4ce0 <surface_destroy>
    384d:	e9 4e fe ff ff       	jmp    36a0 <event_loop+0xf0>
    3852:	8d b6 00 00 00 00    	lea    0x0(%esi),%esi
    3858:	8b 55 08             	mov    0x8(%ebp),%edx
    385b:	80 7a 02 00          	cmpb   $0x0,0x2(%edx)
    385f:	0f 84 3b fe ff ff    	je     36a0 <event_loop+0xf0>
    3865:	c6 42 02 00          	movb   $0x0,0x2(%edx)
    3869:	8b 55 a0             	mov    -0x60(%ebp),%edx
    386c:	89 14 24             	mov    %edx,(%esp)
    386f:	8b 55 08             	mov    0x8(%ebp),%edx
    3872:	ff 52 7c             	call   *0x7c(%edx)
    3875:	e9 26 fe ff ff       	jmp    36a0 <event_loop+0xf0>
    387a:	8d b6 00 00 00 00    	lea    0x0(%esi),%esi
    3880:	8b 55 08             	mov    0x8(%ebp),%edx
    3883:	80 7a 02 00          	cmpb   $0x0,0x2(%edx)
    3887:	0f 85 13 fe ff ff    	jne    36a0 <event_loop+0xf0>
    388d:	c6 42 02 01          	movb   $0x1,0x2(%edx)
    3891:	8b 55 a0             	mov    -0x60(%ebp),%edx
    3894:	89 14 24             	mov    %edx,(%esp)
    3897:	8b 55 08             	mov    0x8(%ebp),%edx
    389a:	ff 52 7c             	call   *0x7c(%edx)
    389d:	e9 fe fd ff ff       	jmp    36a0 <event_loop+0xf0>
    38a2:	8d b6 00 00 00 00    	lea    0x0(%esi),%esi
    38a8:	8b 73 14             	mov    0x14(%ebx),%esi
    38ab:	89 74 24 04          	mov    %esi,0x4(%esp)
    38af:	8b 43 0c             	mov    0xc(%ebx),%eax
    38b2:	89 04 24             	mov    %eax,(%esp)
    38b5:	ff 53 10             	call   *0x10(%ebx)
    38b8:	89 34 24             	mov    %esi,(%esp)
    38bb:	e8 20 2e 01 00       	call   166e0 <free>
    38c0:	e9 db fd ff ff       	jmp    36a0 <event_loop+0xf0>
    38c5:	8d 76 00             	lea    0x0(%esi),%esi
    38c8:	8b 55 08             	mov    0x8(%ebp),%edx
    38cb:	80 7a 02 00          	cmpb   $0x0,0x2(%edx)
    38cf:	0f 84 b3 01 00 00    	je     3a88 <event_loop+0x4d8>
    38d5:	8b 4b 14             	mov    0x14(%ebx),%ecx
    38d8:	8b 43 18             	mov    0x18(%ebx),%eax
    38db:	89 4d 90             	mov    %ecx,-0x70(%ebp)
    38de:	89 4d c4             	mov    %ecx,-0x3c(%ebp)
    38e1:	8b 4d 08             	mov    0x8(%ebp),%ecx
    38e4:	8b 7b 0c             	mov    0xc(%ebx),%edi
    38e7:	8b 73 10             	mov    0x10(%ebx),%esi
    38ea:	8b 53 1c             	mov    0x1c(%ebx),%edx
    38ed:	89 45 98             	mov    %eax,-0x68(%ebp)
    38f0:	89 45 c8             	mov    %eax,-0x38(%ebp)
    38f3:	8b 81 88 00 00 00    	mov    0x88(%ecx),%eax
    38f9:	89 7d bc             	mov    %edi,-0x44(%ebp)
    38fc:	89 75 c0             	mov    %esi,-0x40(%ebp)
    38ff:	89 55 cc             	mov    %edx,-0x34(%ebp)
    3902:	89 7c 24 04          	mov    %edi,0x4(%esp)
    3906:	89 74 24 08          	mov    %esi,0x8(%esp)
    390a:	85 c0                	test   %eax,%eax
    390c:	0f 84 c6 01 00 00    	je     3ad8 <event_loop+0x528>
    3912:	8b 4d 90             	mov    -0x70(%ebp),%ecx
    3915:	89 54 24 14          	mov    %edx,0x14(%esp)
    3919:	89 4c 24 0c          	mov    %ecx,0xc(%esp)
    391d:	8b 4d 98             	mov    -0x68(%ebp),%ecx
    3920:	89 4c 24 10          	mov    %ecx,0x10(%esp)
    3924:	89 04 24             	mov    %eax,(%esp)
    3927:	ff 50 54             	call   *0x54(%eax)
    392a:	e9 71 fd ff ff       	jmp    36a0 <event_loop+0xf0>
    392f:	90                   	nop
    3930:	8b 55 08             	mov    0x8(%ebp),%edx
    3933:	8b 45 a0             	mov    -0x60(%ebp),%eax
    3936:	0f b6 3a             	movzbl (%edx),%edi
    3939:	e8 82 fa ff ff       	call   33c0 <destroy_children>
    393e:	8b 55 a0             	mov    -0x60(%ebp),%edx
    3941:	89 14 24             	mov    %edx,(%esp)
    3944:	8b 55 08             	mov    0x8(%ebp),%edx
    3947:	ff 52 70             	call   *0x70(%edx)
    394a:	8b 55 08             	mov    0x8(%ebp),%edx
    394d:	8b 42 0c             	mov    0xc(%edx),%eax
    3950:	c7 82 88 00 00 00 00 	movl   $0x0,0x88(%edx)
    3957:	00 00 00 
    395a:	c7 82 8c 00 00 00 00 	movl   $0x0,0x8c(%edx)
    3961:	00 00 00 
    3964:	89 04 24             	mov    %eax,(%esp)
    3967:	e8 f4 08 01 00       	call   14260 <win_close>
    396c:	8b 55 08             	mov    0x8(%ebp),%edx
    396f:	8b 42 08             	mov    0x8(%edx),%eax
    3972:	89 04 24             	mov    %eax,(%esp)
    3975:	e8 96 60 01 00       	call   19a10 <async_hangup>
    397a:	8b 55 08             	mov    0x8(%ebp),%edx
    397d:	8b 42 0c             	mov    0xc(%edx),%eax
    3980:	89 04 24             	mov    %eax,(%esp)
    3983:	e8 88 60 01 00       	call   19a10 <async_hangup>
    3988:	8b 55 08             	mov    0x8(%ebp),%edx
    398b:	89 d6                	mov    %edx,%esi
    398d:	8b 42 2c             	mov    0x2c(%edx),%eax
    3990:	83 c6 28             	add    $0x28,%esi
    3993:	39 f0                	cmp    %esi,%eax
    3995:	74 37                	je     39ce <event_loop+0x41e>
    3997:	89 5d a4             	mov    %ebx,-0x5c(%ebp)
    399a:	8b 5d 08             	mov    0x8(%ebp),%ebx
    399d:	8d 76 00             	lea    0x0(%esi),%esi
    39a0:	8b 08                	mov    (%eax),%ecx
    39a2:	85 c9                	test   %ecx,%ecx
    39a4:	74 0e                	je     39b4 <event_loop+0x404>
    39a6:	8b 50 04             	mov    0x4(%eax),%edx
    39a9:	85 d2                	test   %edx,%edx
    39ab:	74 07                	je     39b4 <event_loop+0x404>
    39ad:	89 0a                	mov    %ecx,(%edx)
    39af:	8b 08                	mov    (%eax),%ecx
    39b1:	89 51 04             	mov    %edx,0x4(%ecx)
    39b4:	c7 40 04 00 00 00 00 	movl   $0x0,0x4(%eax)
    39bb:	c7 00 00 00 00 00    	movl   $0x0,(%eax)
    39c1:	8b 43 2c             	mov    0x2c(%ebx),%eax
    39c4:	39 f0                	cmp    %esi,%eax
    39c6:	75 d8                	jne    39a0 <event_loop+0x3f0>
    39c8:	8b 5d a4             	mov    -0x5c(%ebp),%ebx
    39cb:	8b 55 08             	mov    0x8(%ebp),%edx
    39ce:	8b 82 a0 00 00 00    	mov    0xa0(%edx),%eax
    39d4:	85 c0                	test   %eax,%eax
    39d6:	74 08                	je     39e0 <event_loop+0x430>
    39d8:	89 04 24             	mov    %eax,(%esp)
    39db:	e8 00 13 00 00       	call   4ce0 <surface_destroy>
    39e0:	8b 55 08             	mov    0x8(%ebp),%edx
    39e3:	8b 42 04             	mov    0x4(%edx),%eax
    39e6:	89 04 24             	mov    %eax,(%esp)
    39e9:	e8 f2 2c 01 00       	call   166e0 <free>
    39ee:	8b 55 08             	mov    0x8(%ebp),%edx
    39f1:	89 14 24             	mov    %edx,(%esp)
    39f4:	e8 e7 2c 01 00       	call   166e0 <free>
    39f9:	89 1c 24             	mov    %ebx,(%esp)
    39fc:	e8 df 2c 01 00       	call   166e0 <free>
    3a01:	89 f9                	mov    %edi,%ecx
    3a03:	84 c9                	test   %cl,%cl
    3a05:	0f 85 f3 00 00 00    	jne    3afe <event_loop+0x54e>
    3a0b:	81 c4 8c 00 00 00    	add    $0x8c,%esp
    3a11:	31 c0                	xor    %eax,%eax
    3a13:	5b                   	pop    %ebx
    3a14:	5e                   	pop    %esi
    3a15:	5f                   	pop    %edi
    3a16:	5d                   	pop    %ebp
    3a17:	c3                   	ret    
    3a18:	8d 55 d0             	lea    -0x30(%ebp),%edx
    3a1b:	8d 73 0c             	lea    0xc(%ebx),%esi
    3a1e:	b9 06 00 00 00       	mov    $0x6,%ecx
    3a23:	89 d7                	mov    %edx,%edi
    3a25:	f3 a5                	rep movsl %ds:(%esi),%es:(%edi)
    3a27:	8b 4d 08             	mov    0x8(%ebp),%ecx
    3a2a:	8d 7c 24 04          	lea    0x4(%esp),%edi
    3a2e:	89 d6                	mov    %edx,%esi
    3a30:	8b 81 8c 00 00 00    	mov    0x8c(%ecx),%eax
    3a36:	b9 06 00 00 00       	mov    $0x6,%ecx
    3a3b:	f3 a5                	rep movsl %ds:(%esi),%es:(%edi)
    3a3d:	85 c0                	test   %eax,%eax
    3a3f:	74 7f                	je     3ac0 <event_loop+0x510>
    3a41:	89 04 24             	mov    %eax,(%esp)
    3a44:	ff 50 50             	call   *0x50(%eax)
    3a47:	e9 54 fc ff ff       	jmp    36a0 <event_loop+0xf0>
    3a4c:	8d 74 26 00          	lea    0x0(%esi,%eiz,1),%esi
    3a50:	8b 55 08             	mov    0x8(%ebp),%edx
    3a53:	c7 44 24 10 00 00 00 	movl   $0x0,0x10(%esp)
    3a5a:	00 
    3a5b:	c7 44 24 0c 00 00 00 	movl   $0x0,0xc(%esp)
    3a62:	00 
    3a63:	c7 44 24 08 00 00 00 	movl   $0x0,0x8(%esp)
    3a6a:	00 
    3a6b:	c7 44 24 04 00 00 00 	movl   $0x0,0x4(%esp)
    3a72:	00 
    3a73:	8b 42 0c             	mov    0xc(%edx),%eax
    3a76:	89 04 24             	mov    %eax,(%esp)
    3a79:	e8 42 06 01 00       	call   140c0 <win_damage>
    3a7e:	e9 1d fc ff ff       	jmp    36a0 <event_loop+0xf0>
    3a83:	90                   	nop
    3a84:	8d 74 26 00          	lea    0x0(%esi,%eiz,1),%esi
    3a88:	c6 42 02 01          	movb   $0x1,0x2(%edx)
    3a8c:	8b 55 a0             	mov    -0x60(%ebp),%edx
    3a8f:	89 14 24             	mov    %edx,(%esp)
    3a92:	8b 55 08             	mov    0x8(%ebp),%edx
    3a95:	ff 52 7c             	call   *0x7c(%edx)
    3a98:	e9 38 fe ff ff       	jmp    38d5 <event_loop+0x325>
    3a9d:	8d 76 00             	lea    0x0(%esi),%esi
    3aa0:	8b 75 98             	mov    -0x68(%ebp),%esi
    3aa3:	85 f6                	test   %esi,%esi
    3aa5:	0f 84 f5 fb ff ff    	je     36a0 <event_loop+0xf0>
    3aab:	8b 4d 98             	mov    -0x68(%ebp),%ecx
    3aae:	89 0c 24             	mov    %ecx,(%esp)
    3ab1:	e8 2a 12 00 00       	call   4ce0 <surface_destroy>
    3ab6:	e9 e5 fb ff ff       	jmp    36a0 <event_loop+0xf0>
    3abb:	90                   	nop
    3abc:	8d 74 26 00          	lea    0x0(%esi,%eiz,1),%esi
    3ac0:	8b 55 a0             	mov    -0x60(%ebp),%edx
    3ac3:	89 14 24             	mov    %edx,(%esp)
    3ac6:	8b 55 08             	mov    0x8(%ebp),%edx
    3ac9:	ff 92 80 00 00 00    	call   *0x80(%edx)
    3acf:	e9 cc fb ff ff       	jmp    36a0 <event_loop+0xf0>
    3ad4:	8d 74 26 00          	lea    0x0(%esi,%eiz,1),%esi
    3ad8:	89 54 24 14          	mov    %edx,0x14(%esp)
    3adc:	8b 55 a0             	mov    -0x60(%ebp),%edx
    3adf:	8b 45 90             	mov    -0x70(%ebp),%eax
    3ae2:	8b 4d 98             	mov    -0x68(%ebp),%ecx
    3ae5:	89 14 24             	mov    %edx,(%esp)
    3ae8:	8b 55 08             	mov    0x8(%ebp),%edx
    3aeb:	89 44 24 0c          	mov    %eax,0xc(%esp)
    3aef:	89 4c 24 10          	mov    %ecx,0x10(%esp)
    3af3:	ff 92 84 00 00 00    	call   *0x84(%edx)
    3af9:	e9 a2 fb ff ff       	jmp    36a0 <event_loop+0xf0>
    3afe:	c7 04 24 00 00 00 00 	movl   $0x0,(%esp)
    3b05:	e8 b6 2c 00 00       	call   67c0 <exit>
    3b0a:	8d b6 00 00 00 00    	lea    0x0(%esi),%esi

00003b10 <root_repaint>:
    3b10:	55                   	push   %ebp
    3b11:	89 e5                	mov    %esp,%ebp
    3b13:	57                   	push   %edi
    3b14:	56                   	push   %esi
    3b15:	53                   	push   %ebx
    3b16:	83 ec 1c             	sub    $0x1c,%esp
    3b19:	8b 7d 08             	mov    0x8(%ebp),%edi
    3b1c:	8b 47 14             	mov    0x14(%edi),%eax
    3b1f:	80 78 01 00          	cmpb   $0x0,0x1(%eax)
    3b23:	75 6b                	jne    3b90 <root_repaint+0x80>
    3b25:	8b 5f 10             	mov    0x10(%edi),%ebx
    3b28:	8d 77 0c             	lea    0xc(%edi),%esi
    3b2b:	39 f3                	cmp    %esi,%ebx
    3b2d:	74 0e                	je     3b3d <root_repaint+0x2d>
    3b2f:	90                   	nop
    3b30:	89 1c 24             	mov    %ebx,(%esp)
    3b33:	ff 53 4c             	call   *0x4c(%ebx)
    3b36:	8b 5b 04             	mov    0x4(%ebx),%ebx
    3b39:	39 f3                	cmp    %esi,%ebx
    3b3b:	75 f3                	jne    3b30 <root_repaint+0x20>
    3b3d:	8b 5f 14             	mov    0x14(%edi),%ebx
    3b40:	80 7b 01 00          	cmpb   $0x0,0x1(%ebx)
    3b44:	75 0a                	jne    3b50 <root_repaint+0x40>
    3b46:	83 c4 1c             	add    $0x1c,%esp
    3b49:	5b                   	pop    %ebx
    3b4a:	5e                   	pop    %esi
    3b4b:	5f                   	pop    %edi
    3b4c:	5d                   	pop    %ebp
    3b4d:	c3                   	ret    
    3b4e:	66 90                	xchg   %ax,%ax
    3b50:	c7 04 24 24 00 00 00 	movl   $0x24,(%esp)
    3b57:	e8 74 2a 01 00       	call   165d0 <malloc>
    3b5c:	85 c0                	test   %eax,%eax
    3b5e:	74 e6                	je     3b46 <root_repaint+0x36>
    3b60:	83 c3 10             	add    $0x10,%ebx
    3b63:	c7 00 00 00 00 00    	movl   $0x0,(%eax)
    3b69:	c7 40 04 00 00 00 00 	movl   $0x0,0x4(%eax)
    3b70:	c7 40 08 07 00 00 00 	movl   $0x7,0x8(%eax)
    3b77:	89 1c 24             	mov    %ebx,(%esp)
    3b7a:	89 44 24 04          	mov    %eax,0x4(%esp)
    3b7e:	e8 dd 91 01 00       	call   1cd60 <prodcons_produce>
    3b83:	83 c4 1c             	add    $0x1c,%esp
    3b86:	5b                   	pop    %ebx
    3b87:	5e                   	pop    %esi
    3b88:	5f                   	pop    %edi
    3b89:	5d                   	pop    %ebp
    3b8a:	c3                   	ret    
    3b8b:	90                   	nop
    3b8c:	8d 74 26 00          	lea    0x0(%esi,%eiz,1),%esi
    3b90:	89 f8                	mov    %edi,%eax
    3b92:	e8 59 f4 ff ff       	call   2ff0 <paint_internal>
    3b97:	eb 8c                	jmp    3b25 <root_repaint+0x15>
    3b99:	8d b4 26 00 00 00 00 	lea    0x0(%esi,%eiz,1),%esi

00003ba0 <window_open>:
    3ba0:	55                   	push   %ebp
    3ba1:	89 e5                	mov    %esp,%ebp
    3ba3:	57                   	push   %edi
    3ba4:	56                   	push   %esi
    3ba5:	53                   	push   %ebx
    3ba6:	83 ec 3c             	sub    $0x3c,%esp
    3ba9:	8b 7d 0c             	mov    0xc(%ebp),%edi
    3bac:	8b 75 10             	mov    0x10(%ebp),%esi
    3baf:	c7 04 24 a4 00 00 00 	movl   $0xa4,(%esp)
    3bb6:	e8 15 2a 01 00       	call   165d0 <malloc>
    3bbb:	89 c3                	mov    %eax,%ebx
    3bbd:	85 c0                	test   %eax,%eax
    3bbf:	0f 84 60 01 00 00    	je     3d25 <window_open+0x185>
    3bc5:	89 f8                	mov    %edi,%eax
    3bc7:	c6 43 02 01          	movb   $0x1,0x2(%ebx)
    3bcb:	88 03                	mov    %al,(%ebx)
    3bcd:	89 f0                	mov    %esi,%eax
    3bcf:	88 43 01             	mov    %al,0x1(%ebx)
    3bd2:	8d 43 10             	lea    0x10(%ebx),%eax
    3bd5:	89 04 24             	mov    %eax,(%esp)
    3bd8:	e8 53 91 01 00       	call   1cd30 <prodcons_initialize>
    3bdd:	8d 83 90 00 00 00    	lea    0x90(%ebx),%eax
    3be3:	89 04 24             	mov    %eax,(%esp)
    3be6:	e8 f5 99 00 00       	call   d5e0 <fibril_mutex_initialize>
    3beb:	8d 43 30             	lea    0x30(%ebx),%eax
    3bee:	89 04 24             	mov    %eax,(%esp)
    3bf1:	c7 44 24 04 00 00 00 	movl   $0x0,0x4(%esp)
    3bf8:	00 
    3bf9:	e8 22 ee ff ff       	call   2a20 <widget_init>
    3bfe:	8d 45 dc             	lea    -0x24(%ebp),%eax
    3c01:	89 5b 44             	mov    %ebx,0x44(%ebx)
    3c04:	c7 43 70 40 2f 00 00 	movl   $0x2f40,0x70(%ebx)
    3c0b:	c7 43 74 50 2f 00 00 	movl   $0x2f50,0x74(%ebx)
    3c12:	c7 43 78 e0 32 00 00 	movl   $0x32e0,0x78(%ebx)
    3c19:	c7 43 7c 10 3b 00 00 	movl   $0x3b10,0x7c(%ebx)
    3c20:	c7 83 80 00 00 00 10 	movl   $0x2b10,0x80(%ebx)
    3c27:	2b 00 00 
    3c2a:	c7 83 84 00 00 00 d0 	movl   $0x2bd0,0x84(%ebx)
    3c31:	2b 00 00 
    3c34:	c7 83 88 00 00 00 00 	movl   $0x0,0x88(%ebx)
    3c3b:	00 00 00 
    3c3e:	c7 83 8c 00 00 00 00 	movl   $0x0,0x8c(%ebx)
    3c45:	00 00 00 
    3c48:	c7 83 a0 00 00 00 00 	movl   $0x0,0xa0(%ebx)
    3c4f:	00 00 00 
    3c52:	89 44 24 04          	mov    %eax,0x4(%esp)
    3c56:	8b 45 08             	mov    0x8(%ebp),%eax
    3c59:	c7 44 24 08 00 00 00 	movl   $0x0,0x8(%esp)
    3c60:	00 
    3c61:	89 04 24             	mov    %eax,(%esp)
    3c64:	e8 a7 3f 00 00       	call   7c10 <loc_service_get_id>
    3c69:	85 c0                	test   %eax,%eax
    3c6b:	0f 85 df 00 00 00    	jne    3d50 <window_open+0x1b0>
    3c71:	8b 45 dc             	mov    -0x24(%ebp),%eax
    3c74:	c7 44 24 08 00 00 00 	movl   $0x0,0x8(%esp)
    3c7b:	00 
    3c7c:	89 44 24 04          	mov    %eax,0x4(%esp)
    3c80:	c7 04 24 02 00 00 00 	movl   $0x2,(%esp)
    3c87:	e8 74 48 00 00       	call   8500 <loc_service_connect>
    3c8c:	89 c6                	mov    %eax,%esi
    3c8e:	85 c0                	test   %eax,%eax
    3c90:	0f 84 ba 00 00 00    	je     3d50 <window_open+0x1b0>
    3c96:	8b 45 1c             	mov    0x1c(%ebp),%eax
    3c99:	89 34 24             	mov    %esi,(%esp)
    3c9c:	89 44 24 10          	mov    %eax,0x10(%esp)
    3ca0:	8b 45 18             	mov    0x18(%ebp),%eax
    3ca3:	89 44 24 0c          	mov    %eax,0xc(%esp)
    3ca7:	8d 45 e4             	lea    -0x1c(%ebp),%eax
    3caa:	89 44 24 08          	mov    %eax,0x8(%esp)
    3cae:	8d 45 e0             	lea    -0x20(%ebp),%eax
    3cb1:	89 44 24 04          	mov    %eax,0x4(%esp)
    3cb5:	e8 e6 02 01 00       	call   13fa0 <win_register>
    3cba:	89 34 24             	mov    %esi,(%esp)
    3cbd:	89 c7                	mov    %eax,%edi
    3cbf:	e8 4c 5d 01 00       	call   19a10 <async_hangup>
    3cc4:	85 ff                	test   %edi,%edi
    3cc6:	0f 85 84 00 00 00    	jne    3d50 <window_open+0x1b0>
    3ccc:	8b 45 e4             	mov    -0x1c(%ebp),%eax
    3ccf:	c7 44 24 08 00 00 00 	movl   $0x0,0x8(%esp)
    3cd6:	00 
    3cd7:	89 44 24 04          	mov    %eax,0x4(%esp)
    3cdb:	c7 04 24 02 00 00 00 	movl   $0x2,(%esp)
    3ce2:	e8 19 48 00 00       	call   8500 <loc_service_connect>
    3ce7:	89 43 0c             	mov    %eax,0xc(%ebx)
    3cea:	85 c0                	test   %eax,%eax
    3cec:	74 62                	je     3d50 <window_open+0x1b0>
    3cee:	8b 45 e0             	mov    -0x20(%ebp),%eax
    3cf1:	c7 44 24 08 00 00 00 	movl   $0x0,0x8(%esp)
    3cf8:	00 
    3cf9:	89 44 24 04          	mov    %eax,0x4(%esp)
    3cfd:	c7 04 24 02 00 00 00 	movl   $0x2,(%esp)
    3d04:	e8 f7 47 00 00       	call   8500 <loc_service_connect>
    3d09:	89 43 08             	mov    %eax,0x8(%ebx)
    3d0c:	85 c0                	test   %eax,%eax
    3d0e:	74 31                	je     3d41 <window_open+0x1a1>
    3d10:	8b 45 14             	mov    0x14(%ebp),%eax
    3d13:	85 c0                	test   %eax,%eax
    3d15:	74 19                	je     3d30 <window_open+0x190>
    3d17:	8b 45 14             	mov    0x14(%ebp),%eax
    3d1a:	89 04 24             	mov    %eax,(%esp)
    3d1d:	e8 5e 86 00 00       	call   c380 <str_dup>
    3d22:	89 43 04             	mov    %eax,0x4(%ebx)
    3d25:	83 c4 3c             	add    $0x3c,%esp
    3d28:	89 d8                	mov    %ebx,%eax
    3d2a:	5b                   	pop    %ebx
    3d2b:	5e                   	pop    %esi
    3d2c:	5f                   	pop    %edi
    3d2d:	5d                   	pop    %ebp
    3d2e:	c3                   	ret    
    3d2f:	90                   	nop
    3d30:	c7 43 04 00 00 00 00 	movl   $0x0,0x4(%ebx)
    3d37:	83 c4 3c             	add    $0x3c,%esp
    3d3a:	89 d8                	mov    %ebx,%eax
    3d3c:	5b                   	pop    %ebx
    3d3d:	5e                   	pop    %esi
    3d3e:	5f                   	pop    %edi
    3d3f:	5d                   	pop    %ebp
    3d40:	c3                   	ret    
    3d41:	8b 43 0c             	mov    0xc(%ebx),%eax
    3d44:	89 04 24             	mov    %eax,(%esp)
    3d47:	e8 c4 5c 01 00       	call   19a10 <async_hangup>
    3d4c:	8d 74 26 00          	lea    0x0(%esi,%eiz,1),%esi
    3d50:	89 1c 24             	mov    %ebx,(%esp)
    3d53:	31 db                	xor    %ebx,%ebx
    3d55:	e8 86 29 01 00       	call   166e0 <free>
    3d5a:	83 c4 3c             	add    $0x3c,%esp
    3d5d:	89 d8                	mov    %ebx,%eax
    3d5f:	5b                   	pop    %ebx
    3d60:	5e                   	pop    %esi
    3d61:	5f                   	pop    %edi
    3d62:	5d                   	pop    %ebp
    3d63:	c3                   	ret    
    3d64:	8d b6 00 00 00 00    	lea    0x0(%esi),%esi
    3d6a:	8d bf 00 00 00 00    	lea    0x0(%edi),%edi

00003d70 <window_resize>:
    3d70:	55                   	push   %ebp
    3d71:	89 e5                	mov    %esp,%ebp
    3d73:	57                   	push   %edi
    3d74:	56                   	push   %esi
    3d75:	53                   	push   %ebx
    3d76:	83 ec 1c             	sub    $0x1c,%esp
    3d79:	8b 5d 08             	mov    0x8(%ebp),%ebx
    3d7c:	8b 7d 0c             	mov    0xc(%ebp),%edi
    3d7f:	c7 04 24 24 00 00 00 	movl   $0x24,(%esp)
    3d86:	8b 75 10             	mov    0x10(%ebp),%esi
    3d89:	e8 42 28 01 00       	call   165d0 <malloc>
    3d8e:	85 c0                	test   %eax,%eax
    3d90:	74 36                	je     3dc8 <window_resize+0x58>
    3d92:	83 c3 10             	add    $0x10,%ebx
    3d95:	c7 00 00 00 00 00    	movl   $0x0,(%eax)
    3d9b:	c7 40 04 00 00 00 00 	movl   $0x0,0x4(%eax)
    3da2:	c7 40 08 05 00 00 00 	movl   $0x5,0x8(%eax)
    3da9:	89 78 0c             	mov    %edi,0xc(%eax)
    3dac:	89 70 10             	mov    %esi,0x10(%eax)
    3daf:	89 5d 08             	mov    %ebx,0x8(%ebp)
    3db2:	89 45 0c             	mov    %eax,0xc(%ebp)
    3db5:	83 c4 1c             	add    $0x1c,%esp
    3db8:	5b                   	pop    %ebx
    3db9:	5e                   	pop    %esi
    3dba:	5f                   	pop    %edi
    3dbb:	5d                   	pop    %ebp
    3dbc:	e9 9f 8f 01 00       	jmp    1cd60 <prodcons_produce>
    3dc1:	8d b4 26 00 00 00 00 	lea    0x0(%esi,%eiz,1),%esi
    3dc8:	83 c4 1c             	add    $0x1c,%esp
    3dcb:	5b                   	pop    %ebx
    3dcc:	5e                   	pop    %esi
    3dcd:	5f                   	pop    %edi
    3dce:	5d                   	pop    %ebp
    3dcf:	c3                   	ret    

00003dd0 <window_refresh>:
    3dd0:	55                   	push   %ebp
    3dd1:	89 e5                	mov    %esp,%ebp
    3dd3:	83 ec 18             	sub    $0x18,%esp
    3dd6:	c7 04 24 24 00 00 00 	movl   $0x24,(%esp)
    3ddd:	e8 ee 27 01 00       	call   165d0 <malloc>
    3de2:	85 c0                	test   %eax,%eax
    3de4:	74 26                	je     3e0c <window_refresh+0x3c>
    3de6:	c7 00 00 00 00 00    	movl   $0x0,(%eax)
    3dec:	c7 40 04 00 00 00 00 	movl   $0x0,0x4(%eax)
    3df3:	c7 40 08 06 00 00 00 	movl   $0x6,0x8(%eax)
    3dfa:	89 44 24 04          	mov    %eax,0x4(%esp)
    3dfe:	8b 45 08             	mov    0x8(%ebp),%eax
    3e01:	83 c0 10             	add    $0x10,%eax
    3e04:	89 04 24             	mov    %eax,(%esp)
    3e07:	e8 54 8f 01 00       	call   1cd60 <prodcons_produce>
    3e0c:	c9                   	leave  
    3e0d:	c3                   	ret    
    3e0e:	66 90                	xchg   %ax,%ax

00003e10 <window_damage>:
    3e10:	55                   	push   %ebp
    3e11:	89 e5                	mov    %esp,%ebp
    3e13:	83 ec 18             	sub    $0x18,%esp
    3e16:	c7 04 24 24 00 00 00 	movl   $0x24,(%esp)
    3e1d:	e8 ae 27 01 00       	call   165d0 <malloc>
    3e22:	85 c0                	test   %eax,%eax
    3e24:	74 26                	je     3e4c <window_damage+0x3c>
    3e26:	c7 00 00 00 00 00    	movl   $0x0,(%eax)
    3e2c:	c7 40 04 00 00 00 00 	movl   $0x0,0x4(%eax)
    3e33:	c7 40 08 07 00 00 00 	movl   $0x7,0x8(%eax)
    3e3a:	89 44 24 04          	mov    %eax,0x4(%esp)
    3e3e:	8b 45 08             	mov    0x8(%ebp),%eax
    3e41:	83 c0 10             	add    $0x10,%eax
    3e44:	89 04 24             	mov    %eax,(%esp)
    3e47:	e8 14 8f 01 00       	call   1cd60 <prodcons_produce>
    3e4c:	c9                   	leave  
    3e4d:	c3                   	ret    
    3e4e:	66 90                	xchg   %ax,%ax

00003e50 <window_root>:
    3e50:	55                   	push   %ebp
    3e51:	89 e5                	mov    %esp,%ebp
    3e53:	8b 45 08             	mov    0x8(%ebp),%eax
    3e56:	5d                   	pop    %ebp
    3e57:	83 c0 30             	add    $0x30,%eax
    3e5a:	c3                   	ret    
    3e5b:	90                   	nop
    3e5c:	8d 74 26 00          	lea    0x0(%esi,%eiz,1),%esi

00003e60 <window_exec>:
    3e60:	55                   	push   %ebp
    3e61:	89 e5                	mov    %esp,%ebp
    3e63:	56                   	push   %esi
    3e64:	53                   	push   %ebx
    3e65:	83 ec 20             	sub    $0x20,%esp
    3e68:	8b 5d 08             	mov    0x8(%ebp),%ebx
    3e6b:	89 5c 24 04          	mov    %ebx,0x4(%esp)
    3e6f:	c7 04 24 b0 35 00 00 	movl   $0x35b0,(%esp)
    3e76:	e8 a5 92 00 00       	call   d120 <fibril_create>
    3e7b:	89 5c 24 04          	mov    %ebx,0x4(%esp)
    3e7f:	c7 04 24 50 2b 00 00 	movl   $0x2b50,(%esp)
    3e86:	89 c6                	mov    %eax,%esi
    3e88:	e8 93 92 00 00       	call   d120 <fibril_create>
    3e8d:	85 c0                	test   %eax,%eax
    3e8f:	75 07                	jne    3e98 <window_exec+0x38>
    3e91:	83 c4 20             	add    $0x20,%esp
    3e94:	5b                   	pop    %ebx
    3e95:	5e                   	pop    %esi
    3e96:	5d                   	pop    %ebp
    3e97:	c3                   	ret    
    3e98:	85 f6                	test   %esi,%esi
    3e9a:	74 f5                	je     3e91 <window_exec+0x31>
    3e9c:	89 34 24             	mov    %esi,(%esp)
    3e9f:	89 45 f4             	mov    %eax,-0xc(%ebp)
    3ea2:	e8 b9 93 00 00       	call   d260 <fibril_add_ready>
    3ea7:	8b 45 f4             	mov    -0xc(%ebp),%eax
    3eaa:	89 45 08             	mov    %eax,0x8(%ebp)
    3ead:	83 c4 20             	add    $0x20,%esp
    3eb0:	5b                   	pop    %ebx
    3eb1:	5e                   	pop    %esi
    3eb2:	5d                   	pop    %ebp
    3eb3:	e9 a8 93 00 00       	jmp    d260 <fibril_add_ready>
    3eb8:	90                   	nop
    3eb9:	8d b4 26 00 00 00 00 	lea    0x0(%esi,%eiz,1),%esi

00003ec0 <window_claim>:
    3ec0:	55                   	push   %ebp
    3ec1:	89 e5                	mov    %esp,%ebp
    3ec3:	53                   	push   %ebx
    3ec4:	83 ec 14             	sub    $0x14,%esp
    3ec7:	8b 5d 08             	mov    0x8(%ebp),%ebx
    3eca:	8d 83 90 00 00 00    	lea    0x90(%ebx),%eax
    3ed0:	89 04 24             	mov    %eax,(%esp)
    3ed3:	e8 28 97 00 00       	call   d600 <fibril_mutex_lock>
    3ed8:	8b 83 a0 00 00 00    	mov    0xa0(%ebx),%eax
    3ede:	83 c4 14             	add    $0x14,%esp
    3ee1:	5b                   	pop    %ebx
    3ee2:	5d                   	pop    %ebp
    3ee3:	c3                   	ret    
    3ee4:	8d b6 00 00 00 00    	lea    0x0(%esi),%esi
    3eea:	8d bf 00 00 00 00    	lea    0x0(%edi),%edi

00003ef0 <window_yield>:
    3ef0:	55                   	push   %ebp
    3ef1:	89 e5                	mov    %esp,%ebp
    3ef3:	8b 45 08             	mov    0x8(%ebp),%eax
    3ef6:	05 90 00 00 00       	add    $0x90,%eax
    3efb:	89 45 08             	mov    %eax,0x8(%ebp)
    3efe:	5d                   	pop    %ebp
    3eff:	e9 1c 98 00 00       	jmp    d720 <fibril_mutex_unlock>
    3f04:	8d b6 00 00 00 00    	lea    0x0(%esi),%esi
    3f0a:	8d bf 00 00 00 00    	lea    0x0(%edi),%edi

00003f10 <window_close>:
    3f10:	55                   	push   %ebp
    3f11:	89 e5                	mov    %esp,%ebp
    3f13:	8b 45 08             	mov    0x8(%ebp),%eax
    3f16:	8b 40 0c             	mov    0xc(%eax),%eax
    3f19:	89 45 08             	mov    %eax,0x8(%ebp)
    3f1c:	5d                   	pop    %ebp
    3f1d:	e9 be 03 01 00       	jmp    142e0 <win_close_request>
    3f22:	66 90                	xchg   %ax,%ax
    3f24:	66 90                	xchg   %ax,%ax
    3f26:	66 90                	xchg   %ax,%ax
    3f28:	66 90                	xchg   %ax,%ax
    3f2a:	66 90                	xchg   %ax,%ax
    3f2c:	66 90                	xchg   %ax,%ax
    3f2e:	66 90                	xchg   %ax,%ax

00003f30 <drawctx_init>:
    3f30:	55                   	push   %ebp
    3f31:	89 e5                	mov    %esp,%ebp
    3f33:	83 ec 18             	sub    $0x18,%esp
    3f36:	8b 55 0c             	mov    0xc(%ebp),%edx
    3f39:	8b 45 08             	mov    0x8(%ebp),%eax
    3f3c:	85 d2                	test   %edx,%edx
    3f3e:	74 4b                	je     3f8b <drawctx_init+0x5b>
    3f40:	8d 48 08             	lea    0x8(%eax),%ecx
    3f43:	89 50 10             	mov    %edx,0x10(%eax)
    3f46:	89 48 08             	mov    %ecx,0x8(%eax)
    3f49:	89 48 0c             	mov    %ecx,0xc(%eax)
    3f4c:	c7 40 14 e0 5c 00 00 	movl   $0x5ce0,0x14(%eax)
    3f53:	c7 40 18 00 00 00 00 	movl   $0x0,0x18(%eax)
    3f5a:	c7 40 1c 00 00 00 00 	movl   $0x0,0x1c(%eax)
    3f61:	c6 40 24 00          	movb   $0x0,0x24(%eax)
    3f65:	c7 40 28 00 00 00 00 	movl   $0x0,0x28(%eax)
    3f6c:	c7 40 2c 00 00 00 00 	movl   $0x0,0x2c(%eax)
    3f73:	8d 48 34             	lea    0x34(%eax),%ecx
    3f76:	83 c0 30             	add    $0x30,%eax
    3f79:	89 4c 24 08          	mov    %ecx,0x8(%esp)
    3f7d:	89 44 24 04          	mov    %eax,0x4(%esp)
    3f81:	89 14 24             	mov    %edx,(%esp)
    3f84:	e8 c7 0d 00 00       	call   4d50 <surface_get_resolution>
    3f89:	c9                   	leave  
    3f8a:	c3                   	ret    
    3f8b:	c7 44 24 08 2c 00 00 	movl   $0x2c,0x8(%esp)
    3f92:	00 
    3f93:	c7 44 24 04 e0 33 02 	movl   $0x233e0,0x4(%esp)
    3f9a:	00 
    3f9b:	c7 04 24 ea 33 02 00 	movl   $0x233ea,(%esp)
    3fa2:	e8 09 cf 01 00       	call   20eb0 <assert_abort>
    3fa7:	89 f6                	mov    %esi,%esi
    3fa9:	8d bc 27 00 00 00 00 	lea    0x0(%edi,%eiz,1),%edi

00003fb0 <drawctx_save>:
    3fb0:	55                   	push   %ebp
    3fb1:	89 e5                	mov    %esp,%ebp
    3fb3:	53                   	push   %ebx
    3fb4:	83 ec 14             	sub    $0x14,%esp
    3fb7:	8b 5d 08             	mov    0x8(%ebp),%ebx
    3fba:	c7 04 24 38 00 00 00 	movl   $0x38,(%esp)
    3fc1:	e8 0a 26 01 00       	call   165d0 <malloc>
    3fc6:	85 c0                	test   %eax,%eax
    3fc8:	74 47                	je     4011 <drawctx_save+0x61>
    3fca:	8b 53 14             	mov    0x14(%ebx),%edx
    3fcd:	c7 00 00 00 00 00    	movl   $0x0,(%eax)
    3fd3:	89 50 14             	mov    %edx,0x14(%eax)
    3fd6:	8b 53 18             	mov    0x18(%ebx),%edx
    3fd9:	89 50 18             	mov    %edx,0x18(%eax)
    3fdc:	8b 53 1c             	mov    0x1c(%ebx),%edx
    3fdf:	89 50 1c             	mov    %edx,0x1c(%eax)
    3fe2:	8a 53 24             	mov    0x24(%ebx),%dl
    3fe5:	88 50 24             	mov    %dl,0x24(%eax)
    3fe8:	8b 53 28             	mov    0x28(%ebx),%edx
    3feb:	89 50 28             	mov    %edx,0x28(%eax)
    3fee:	8b 53 2c             	mov    0x2c(%ebx),%edx
    3ff1:	89 50 2c             	mov    %edx,0x2c(%eax)
    3ff4:	8b 53 30             	mov    0x30(%ebx),%edx
    3ff7:	89 50 30             	mov    %edx,0x30(%eax)
    3ffa:	8b 53 34             	mov    0x34(%ebx),%edx
    3ffd:	89 50 34             	mov    %edx,0x34(%eax)
    4000:	8d 53 08             	lea    0x8(%ebx),%edx
    4003:	89 50 04             	mov    %edx,0x4(%eax)
    4006:	8b 53 08             	mov    0x8(%ebx),%edx
    4009:	89 10                	mov    %edx,(%eax)
    400b:	89 43 08             	mov    %eax,0x8(%ebx)
    400e:	89 42 04             	mov    %eax,0x4(%edx)
    4011:	83 c4 14             	add    $0x14,%esp
    4014:	5b                   	pop    %ebx
    4015:	5d                   	pop    %ebp
    4016:	c3                   	ret    
    4017:	89 f6                	mov    %esi,%esi
    4019:	8d bc 27 00 00 00 00 	lea    0x0(%edi,%eiz,1),%edi

00004020 <drawctx_restore>:
    4020:	55                   	push   %ebp
    4021:	89 e5                	mov    %esp,%ebp
    4023:	53                   	push   %ebx
    4024:	8b 55 08             	mov    0x8(%ebp),%edx
    4027:	8b 42 08             	mov    0x8(%edx),%eax
    402a:	8d 4a 08             	lea    0x8(%edx),%ecx
    402d:	39 c8                	cmp    %ecx,%eax
    402f:	74 5f                	je     4090 <drawctx_restore+0x70>
    4031:	85 c0                	test   %eax,%eax
    4033:	74 5b                	je     4090 <drawctx_restore+0x70>
    4035:	8b 18                	mov    (%eax),%ebx
    4037:	85 db                	test   %ebx,%ebx
    4039:	74 0e                	je     4049 <drawctx_restore+0x29>
    403b:	8b 48 04             	mov    0x4(%eax),%ecx
    403e:	85 c9                	test   %ecx,%ecx
    4040:	74 07                	je     4049 <drawctx_restore+0x29>
    4042:	89 19                	mov    %ebx,(%ecx)
    4044:	8b 18                	mov    (%eax),%ebx
    4046:	89 4b 04             	mov    %ecx,0x4(%ebx)
    4049:	8b 48 14             	mov    0x14(%eax),%ecx
    404c:	c7 00 00 00 00 00    	movl   $0x0,(%eax)
    4052:	c7 40 04 00 00 00 00 	movl   $0x0,0x4(%eax)
    4059:	89 4a 14             	mov    %ecx,0x14(%edx)
    405c:	8b 48 18             	mov    0x18(%eax),%ecx
    405f:	89 4a 18             	mov    %ecx,0x18(%edx)
    4062:	8b 48 1c             	mov    0x1c(%eax),%ecx
    4065:	89 4a 1c             	mov    %ecx,0x1c(%edx)
    4068:	8a 48 24             	mov    0x24(%eax),%cl
    406b:	88 4a 24             	mov    %cl,0x24(%edx)
    406e:	8b 48 28             	mov    0x28(%eax),%ecx
    4071:	89 4a 28             	mov    %ecx,0x28(%edx)
    4074:	8b 48 2c             	mov    0x2c(%eax),%ecx
    4077:	89 4a 2c             	mov    %ecx,0x2c(%edx)
    407a:	8b 48 30             	mov    0x30(%eax),%ecx
    407d:	89 4a 30             	mov    %ecx,0x30(%edx)
    4080:	8b 48 34             	mov    0x34(%eax),%ecx
    4083:	89 4a 34             	mov    %ecx,0x34(%edx)
    4086:	89 45 08             	mov    %eax,0x8(%ebp)
    4089:	5b                   	pop    %ebx
    408a:	5d                   	pop    %ebp
    408b:	e9 50 26 01 00       	jmp    166e0 <free>
    4090:	5b                   	pop    %ebx
    4091:	5d                   	pop    %ebp
    4092:	c3                   	ret    
    4093:	8d b6 00 00 00 00    	lea    0x0(%esi),%esi
    4099:	8d bc 27 00 00 00 00 	lea    0x0(%edi,%eiz,1),%edi

000040a0 <drawctx_set_compose>:
    40a0:	55                   	push   %ebp
    40a1:	89 e5                	mov    %esp,%ebp
    40a3:	8b 45 08             	mov    0x8(%ebp),%eax
    40a6:	8b 55 0c             	mov    0xc(%ebp),%edx
    40a9:	89 50 14             	mov    %edx,0x14(%eax)
    40ac:	5d                   	pop    %ebp
    40ad:	c3                   	ret    
    40ae:	66 90                	xchg   %ax,%ax

000040b0 <drawctx_set_clip>:
    40b0:	55                   	push   %ebp
    40b1:	89 e5                	mov    %esp,%ebp
    40b3:	57                   	push   %edi
    40b4:	56                   	push   %esi
    40b5:	53                   	push   %ebx
    40b6:	83 ec 1c             	sub    $0x1c,%esp
    40b9:	8b 5d 08             	mov    0x8(%ebp),%ebx
    40bc:	8b 75 0c             	mov    0xc(%ebp),%esi
    40bf:	8b 7d 14             	mov    0x14(%ebp),%edi
    40c2:	8d 53 34             	lea    0x34(%ebx),%edx
    40c5:	89 54 24 08          	mov    %edx,0x8(%esp)
    40c9:	8d 53 30             	lea    0x30(%ebx),%edx
    40cc:	89 54 24 04          	mov    %edx,0x4(%esp)
    40d0:	8b 53 10             	mov    0x10(%ebx),%edx
    40d3:	89 14 24             	mov    %edx,(%esp)
    40d6:	e8 75 0c 00 00       	call   4d50 <surface_get_resolution>
    40db:	8b 45 10             	mov    0x10(%ebp),%eax
    40de:	b2 01                	mov    $0x1,%dl
    40e0:	09 f0                	or     %esi,%eax
    40e2:	75 0e                	jne    40f2 <drawctx_set_clip+0x42>
    40e4:	39 7b 30             	cmp    %edi,0x30(%ebx)
    40e7:	77 09                	ja     40f2 <drawctx_set_clip+0x42>
    40e9:	8b 45 18             	mov    0x18(%ebp),%eax
    40ec:	39 43 34             	cmp    %eax,0x34(%ebx)
    40ef:	0f 97 c2             	seta   %dl
    40f2:	8b 45 10             	mov    0x10(%ebp),%eax
    40f5:	88 53 24             	mov    %dl,0x24(%ebx)
    40f8:	89 43 2c             	mov    %eax,0x2c(%ebx)
    40fb:	8b 45 18             	mov    0x18(%ebp),%eax
    40fe:	89 73 28             	mov    %esi,0x28(%ebx)
    4101:	89 7b 30             	mov    %edi,0x30(%ebx)
    4104:	89 43 34             	mov    %eax,0x34(%ebx)
    4107:	83 c4 1c             	add    $0x1c,%esp
    410a:	5b                   	pop    %ebx
    410b:	5e                   	pop    %esi
    410c:	5f                   	pop    %edi
    410d:	5d                   	pop    %ebp
    410e:	c3                   	ret    
    410f:	90                   	nop

00004110 <drawctx_set_mask>:
    4110:	55                   	push   %ebp
    4111:	89 e5                	mov    %esp,%ebp
    4113:	8b 45 08             	mov    0x8(%ebp),%eax
    4116:	8b 55 0c             	mov    0xc(%ebp),%edx
    4119:	89 50 18             	mov    %edx,0x18(%eax)
    411c:	5d                   	pop    %ebp
    411d:	c3                   	ret    
    411e:	66 90                	xchg   %ax,%ax

00004120 <drawctx_set_source>:
    4120:	55                   	push   %ebp
    4121:	89 e5                	mov    %esp,%ebp
    4123:	8b 45 08             	mov    0x8(%ebp),%eax
    4126:	8b 55 0c             	mov    0xc(%ebp),%edx
    4129:	89 50 1c             	mov    %edx,0x1c(%eax)
    412c:	5d                   	pop    %ebp
    412d:	c3                   	ret    
    412e:	66 90                	xchg   %ax,%ax

00004130 <drawctx_set_font>:
    4130:	55                   	push   %ebp
    4131:	89 e5                	mov    %esp,%ebp
    4133:	8b 45 08             	mov    0x8(%ebp),%eax
    4136:	8b 55 0c             	mov    0xc(%ebp),%edx
    4139:	89 50 20             	mov    %edx,0x20(%eax)
    413c:	5d                   	pop    %ebp
    413d:	c3                   	ret    
    413e:	66 90                	xchg   %ax,%ax

00004140 <drawctx_transfer>:
    4140:	55                   	push   %ebp
    4141:	89 e5                	mov    %esp,%ebp
    4143:	57                   	push   %edi
    4144:	56                   	push   %esi
    4145:	53                   	push   %ebx
    4146:	83 ec 6c             	sub    $0x6c,%esp
    4149:	8b 75 0c             	mov    0xc(%ebp),%esi
    414c:	8b 7d 08             	mov    0x8(%ebp),%edi
    414f:	89 75 c4             	mov    %esi,-0x3c(%ebp)
    4152:	8b 75 10             	mov    0x10(%ebp),%esi
    4155:	89 75 c8             	mov    %esi,-0x38(%ebp)
    4158:	8b 47 1c             	mov    0x1c(%edi),%eax
    415b:	8b 75 18             	mov    0x18(%ebp),%esi
    415e:	8b 5d 14             	mov    0x14(%ebp),%ebx
    4161:	89 75 c0             	mov    %esi,-0x40(%ebp)
    4164:	85 c0                	test   %eax,%eax
    4166:	0f 84 32 01 00 00    	je     429e <drawctx_transfer+0x15e>
    416c:	89 04 24             	mov    %eax,(%esp)
    416f:	e8 fc 07 00 00       	call   4970 <source_is_fast>
    4174:	84 c0                	test   %al,%al
    4176:	0f 85 2a 01 00 00    	jne    42a6 <drawctx_transfer+0x166>
    417c:	8b 75 c0             	mov    -0x40(%ebp),%esi
    417f:	8b 45 c8             	mov    -0x38(%ebp),%eax
    4182:	01 c6                	add    %eax,%esi
    4184:	89 75 c0             	mov    %esi,-0x40(%ebp)
    4187:	39 75 c8             	cmp    %esi,-0x38(%ebp)
    418a:	0f 83 0e 01 00 00    	jae    429e <drawctx_transfer+0x15e>
    4190:	8b 4d c4             	mov    -0x3c(%ebp),%ecx
    4193:	8b 75 c8             	mov    -0x38(%ebp),%esi
    4196:	01 cb                	add    %ecx,%ebx
    4198:	c6 45 d0 00          	movb   $0x0,-0x30(%ebp)
    419c:	89 5d d8             	mov    %ebx,-0x28(%ebp)
    419f:	31 c9                	xor    %ecx,%ecx
    41a1:	8d b4 26 00 00 00 00 	lea    0x0(%esi,%eiz,1),%esi
    41a8:	8b 5d c4             	mov    -0x3c(%ebp),%ebx
    41ab:	89 75 c8             	mov    %esi,-0x38(%ebp)
    41ae:	c7 45 cc 00 00 00 00 	movl   $0x0,-0x34(%ebp)
    41b5:	39 5d d8             	cmp    %ebx,-0x28(%ebp)
    41b8:	77 10                	ja     41ca <drawctx_transfer+0x8a>
    41ba:	e9 d5 00 00 00       	jmp    4294 <drawctx_transfer+0x154>
    41bf:	90                   	nop
    41c0:	43                   	inc    %ebx
    41c1:	39 5d d8             	cmp    %ebx,-0x28(%ebp)
    41c4:	0f 86 ca 00 00 00    	jbe    4294 <drawctx_transfer+0x154>
    41ca:	80 7f 24 00          	cmpb   $0x0,0x24(%edi)
    41ce:	74 28                	je     41f8 <drawctx_transfer+0xb8>
    41d0:	39 5f 28             	cmp    %ebx,0x28(%edi)
    41d3:	0f 86 c7 01 00 00    	jbe    43a0 <drawctx_transfer+0x260>
    41d9:	39 5f 30             	cmp    %ebx,0x30(%edi)
    41dc:	0f 87 be 01 00 00    	ja     43a0 <drawctx_transfer+0x260>
    41e2:	39 77 2c             	cmp    %esi,0x2c(%edi)
    41e5:	0f 86 b5 01 00 00    	jbe    43a0 <drawctx_transfer+0x260>
    41eb:	3b 77 34             	cmp    0x34(%edi),%esi
    41ee:	0f 93 45 d0          	setae  -0x30(%ebp)
    41f2:	8d b6 00 00 00 00    	lea    0x0(%esi),%esi
    41f8:	8a 45 d0             	mov    -0x30(%ebp),%al
    41fb:	83 f0 01             	xor    $0x1,%eax
    41fe:	88 45 df             	mov    %al,-0x21(%ebp)
    4201:	8b 47 18             	mov    0x18(%edi),%eax
    4204:	85 c0                	test   %eax,%eax
    4206:	74 15                	je     421d <drawctx_transfer+0xdd>
    4208:	89 74 24 08          	mov    %esi,0x8(%esp)
    420c:	89 5c 24 04          	mov    %ebx,0x4(%esp)
    4210:	89 04 24             	mov    %eax,(%esp)
    4213:	e8 78 0d 00 00       	call   4f90 <surface_get_pixel>
    4218:	85 c0                	test   %eax,%eax
    421a:	0f 94 c1             	sete   %cl
    421d:	84 c9                	test   %cl,%cl
    421f:	75 9f                	jne    41c0 <drawctx_transfer+0x80>
    4221:	80 7d df 00          	cmpb   $0x0,-0x21(%ebp)
    4225:	74 99                	je     41c0 <drawctx_transfer+0x80>
    4227:	df 6d c8             	fildll -0x38(%ebp)
    422a:	31 d2                	xor    %edx,%edx
    422c:	89 5d e0             	mov    %ebx,-0x20(%ebp)
    422f:	dd 5c 24 0c          	fstpl  0xc(%esp)
    4233:	89 55 e4             	mov    %edx,-0x1c(%ebp)
    4236:	df 6d e0             	fildll -0x20(%ebp)
    4239:	dd 5c 24 04          	fstpl  0x4(%esp)
    423d:	8b 47 1c             	mov    0x1c(%edi),%eax
    4240:	88 4d bc             	mov    %cl,-0x44(%ebp)
    4243:	89 04 24             	mov    %eax,(%esp)
    4246:	e8 55 08 00 00       	call   4aa0 <source_determine_pixel>
    424b:	89 5c 24 04          	mov    %ebx,0x4(%esp)
    424f:	89 74 24 08          	mov    %esi,0x8(%esp)
    4253:	89 c2                	mov    %eax,%edx
    4255:	8b 47 10             	mov    0x10(%edi),%eax
    4258:	89 55 b8             	mov    %edx,-0x48(%ebp)
    425b:	89 04 24             	mov    %eax,(%esp)
    425e:	e8 2d 0d 00 00       	call   4f90 <surface_get_pixel>
    4263:	8b 55 b8             	mov    -0x48(%ebp),%edx
    4266:	89 14 24             	mov    %edx,(%esp)
    4269:	89 44 24 04          	mov    %eax,0x4(%esp)
    426d:	ff 57 14             	call   *0x14(%edi)
    4270:	89 5c 24 04          	mov    %ebx,0x4(%esp)
    4274:	89 44 24 0c          	mov    %eax,0xc(%esp)
    4278:	89 74 24 08          	mov    %esi,0x8(%esp)
    427c:	8b 47 10             	mov    0x10(%edi),%eax
    427f:	43                   	inc    %ebx
    4280:	89 04 24             	mov    %eax,(%esp)
    4283:	e8 98 0c 00 00       	call   4f20 <surface_put_pixel>
    4288:	8a 4d bc             	mov    -0x44(%ebp),%cl
    428b:	39 5d d8             	cmp    %ebx,-0x28(%ebp)
    428e:	0f 87 36 ff ff ff    	ja     41ca <drawctx_transfer+0x8a>
    4294:	46                   	inc    %esi
    4295:	3b 75 c0             	cmp    -0x40(%ebp),%esi
    4298:	0f 82 0a ff ff ff    	jb     41a8 <drawctx_transfer+0x68>
    429e:	83 c4 6c             	add    $0x6c,%esp
    42a1:	5b                   	pop    %ebx
    42a2:	5e                   	pop    %esi
    42a3:	5f                   	pop    %edi
    42a4:	5d                   	pop    %ebp
    42a5:	c3                   	ret    
    42a6:	80 7f 24 00          	cmpb   $0x0,0x24(%edi)
    42aa:	0f 85 cc fe ff ff    	jne    417c <drawctx_transfer+0x3c>
    42b0:	8b 57 18             	mov    0x18(%edi),%edx
    42b3:	85 d2                	test   %edx,%edx
    42b5:	0f 85 c1 fe ff ff    	jne    417c <drawctx_transfer+0x3c>
    42bb:	8b 47 14             	mov    0x14(%edi),%eax
    42be:	3d e0 5c 00 00       	cmp    $0x5ce0,%eax
    42c3:	74 0b                	je     42d0 <drawctx_transfer+0x190>
    42c5:	3d 00 5d 00 00       	cmp    $0x5d00,%eax
    42ca:	0f 85 ac fe ff ff    	jne    417c <drawctx_transfer+0x3c>
    42d0:	8b 45 c8             	mov    -0x38(%ebp),%eax
    42d3:	8b 75 c0             	mov    -0x40(%ebp),%esi
    42d6:	01 c6                	add    %eax,%esi
    42d8:	89 75 d8             	mov    %esi,-0x28(%ebp)
    42db:	8b 75 c8             	mov    -0x38(%ebp),%esi
    42de:	8b 45 d8             	mov    -0x28(%ebp),%eax
    42e1:	39 c6                	cmp    %eax,%esi
    42e3:	0f 83 8b 00 00 00    	jae    4374 <drawctx_transfer+0x234>
    42e9:	8b 45 c4             	mov    -0x3c(%ebp),%eax
    42ec:	31 d2                	xor    %edx,%edx
    42ee:	89 45 e0             	mov    %eax,-0x20(%ebp)
    42f1:	89 55 e4             	mov    %edx,-0x1c(%ebp)
    42f4:	df 6d e0             	fildll -0x20(%ebp)
    42f7:	dd 5d d0             	fstpl  -0x30(%ebp)
    42fa:	8d b6 00 00 00 00    	lea    0x0(%esi),%esi
    4300:	31 d2                	xor    %edx,%edx
    4302:	89 75 e0             	mov    %esi,-0x20(%ebp)
    4305:	89 55 e4             	mov    %edx,-0x1c(%ebp)
    4308:	df 6d e0             	fildll -0x20(%ebp)
    430b:	dd 5c 24 0c          	fstpl  0xc(%esp)
    430f:	dd 45 d0             	fldl   -0x30(%ebp)
    4312:	dd 5c 24 04          	fstpl  0x4(%esp)
    4316:	8b 47 1c             	mov    0x1c(%edi),%eax
    4319:	89 04 24             	mov    %eax,(%esp)
    431c:	e8 8f 06 00 00       	call   49b0 <source_direct_access>
    4321:	89 c1                	mov    %eax,%ecx
    4323:	8b 47 10             	mov    0x10(%edi),%eax
    4326:	89 04 24             	mov    %eax,(%esp)
    4329:	89 4d bc             	mov    %ecx,-0x44(%ebp)
    432c:	e8 0f 0a 00 00       	call   4d40 <surface_pixmap_access>
    4331:	8b 4d bc             	mov    -0x44(%ebp),%ecx
    4334:	8b 10                	mov    (%eax),%edx
    4336:	39 55 c4             	cmp    %edx,-0x3c(%ebp)
    4339:	73 33                	jae    436e <drawctx_transfer+0x22e>
    433b:	3b 70 04             	cmp    0x4(%eax),%esi
    433e:	73 2e                	jae    436e <drawctx_transfer+0x22e>
    4340:	0f af d6             	imul   %esi,%edx
    4343:	03 55 c4             	add    -0x3c(%ebp),%edx
    4346:	8b 40 08             	mov    0x8(%eax),%eax
    4349:	8d 04 90             	lea    (%eax,%edx,4),%eax
    434c:	85 c0                	test   %eax,%eax
    434e:	74 1e                	je     436e <drawctx_transfer+0x22e>
    4350:	85 c9                	test   %ecx,%ecx
    4352:	74 1a                	je     436e <drawctx_transfer+0x22e>
    4354:	85 db                	test   %ebx,%ebx
    4356:	74 16                	je     436e <drawctx_transfer+0x22e>
    4358:	31 d2                	xor    %edx,%edx
    435a:	89 75 b4             	mov    %esi,-0x4c(%ebp)
    435d:	8d 76 00             	lea    0x0(%esi),%esi
    4360:	8b 34 91             	mov    (%ecx,%edx,4),%esi
    4363:	89 34 90             	mov    %esi,(%eax,%edx,4)
    4366:	42                   	inc    %edx
    4367:	39 da                	cmp    %ebx,%edx
    4369:	75 f5                	jne    4360 <drawctx_transfer+0x220>
    436b:	8b 75 b4             	mov    -0x4c(%ebp),%esi
    436e:	46                   	inc    %esi
    436f:	3b 75 d8             	cmp    -0x28(%ebp),%esi
    4372:	72 8c                	jb     4300 <drawctx_transfer+0x1c0>
    4374:	8b 75 c0             	mov    -0x40(%ebp),%esi
    4377:	89 5d 14             	mov    %ebx,0x14(%ebp)
    437a:	89 75 18             	mov    %esi,0x18(%ebp)
    437d:	8b 75 c8             	mov    -0x38(%ebp),%esi
    4380:	89 75 10             	mov    %esi,0x10(%ebp)
    4383:	8b 75 c4             	mov    -0x3c(%ebp),%esi
    4386:	89 75 0c             	mov    %esi,0xc(%ebp)
    4389:	8b 47 10             	mov    0x10(%edi),%eax
    438c:	89 45 08             	mov    %eax,0x8(%ebp)
    438f:	83 c4 6c             	add    $0x6c,%esp
    4392:	5b                   	pop    %ebx
    4393:	5e                   	pop    %esi
    4394:	5f                   	pop    %edi
    4395:	5d                   	pop    %ebp
    4396:	e9 f5 0a 00 00       	jmp    4e90 <surface_add_damaged_region>
    439b:	90                   	nop
    439c:	8d 74 26 00          	lea    0x0(%esi,%eiz,1),%esi
    43a0:	c6 45 df 01          	movb   $0x1,-0x21(%ebp)
    43a4:	c6 45 d0 00          	movb   $0x0,-0x30(%ebp)
    43a8:	e9 54 fe ff ff       	jmp    4201 <drawctx_transfer+0xc1>
    43ad:	8d 76 00             	lea    0x0(%esi),%esi

000043b0 <drawctx_stroke>:
    43b0:	55                   	push   %ebp
    43b1:	89 e5                	mov    %esp,%ebp
    43b3:	8b 45 08             	mov    0x8(%ebp),%eax
    43b6:	8b 55 0c             	mov    0xc(%ebp),%edx
    43b9:	8b 40 1c             	mov    0x1c(%eax),%eax
    43bc:	85 c0                	test   %eax,%eax
    43be:	74 17                	je     43d7 <drawctx_stroke+0x27>
    43c0:	85 d2                	test   %edx,%edx
    43c2:	74 13                	je     43d7 <drawctx_stroke+0x27>
    43c4:	8b 42 04             	mov    0x4(%edx),%eax
    43c7:	39 d0                	cmp    %edx,%eax
    43c9:	74 0c                	je     43d7 <drawctx_stroke+0x27>
    43cb:	90                   	nop
    43cc:	8d 74 26 00          	lea    0x0(%esi,%eiz,1),%esi
    43d0:	8b 40 04             	mov    0x4(%eax),%eax
    43d3:	39 d0                	cmp    %edx,%eax
    43d5:	75 f9                	jne    43d0 <drawctx_stroke+0x20>
    43d7:	5d                   	pop    %ebp
    43d8:	c3                   	ret    
    43d9:	8d b4 26 00 00 00 00 	lea    0x0(%esi,%eiz,1),%esi

000043e0 <drawctx_fill>:
    43e0:	55                   	push   %ebp
    43e1:	89 e5                	mov    %esp,%ebp
    43e3:	5d                   	pop    %ebp
    43e4:	c3                   	ret    
    43e5:	8d 74 26 00          	lea    0x0(%esi,%eiz,1),%esi
    43e9:	8d bc 27 00 00 00 00 	lea    0x0(%edi,%eiz,1),%edi

000043f0 <drawctx_print>:
    43f0:	55                   	push   %ebp
    43f1:	89 e5                	mov    %esp,%ebp
    43f3:	53                   	push   %ebx
    43f4:	83 ec 24             	sub    $0x24,%esp
    43f7:	8b 45 08             	mov    0x8(%ebp),%eax
    43fa:	8b 50 20             	mov    0x20(%eax),%edx
    43fd:	85 d2                	test   %edx,%edx
    43ff:	74 2c                	je     442d <drawctx_print+0x3d>
    4401:	8b 48 1c             	mov    0x1c(%eax),%ecx
    4404:	85 c9                	test   %ecx,%ecx
    4406:	74 25                	je     442d <drawctx_print+0x3d>
    4408:	8b 5d 14             	mov    0x14(%ebp),%ebx
    440b:	89 4c 24 08          	mov    %ecx,0x8(%esp)
    440f:	89 5c 24 14          	mov    %ebx,0x14(%esp)
    4413:	8b 5d 10             	mov    0x10(%ebp),%ebx
    4416:	89 5c 24 10          	mov    %ebx,0x10(%esp)
    441a:	8b 5d 0c             	mov    0xc(%ebp),%ebx
    441d:	89 5c 24 0c          	mov    %ebx,0xc(%esp)
    4421:	89 44 24 04          	mov    %eax,0x4(%esp)
    4425:	89 14 24             	mov    %edx,(%esp)
    4428:	e8 63 02 00 00       	call   4690 <font_draw_text>
    442d:	83 c4 24             	add    $0x24,%esp
    4430:	5b                   	pop    %ebx
    4431:	5d                   	pop    %ebp
    4432:	c3                   	ret    
    4433:	66 90                	xchg   %ax,%ax
    4435:	66 90                	xchg   %ax,%ax
    4437:	66 90                	xchg   %ax,%ax
    4439:	66 90                	xchg   %ax,%ax
    443b:	66 90                	xchg   %ax,%ax
    443d:	66 90                	xchg   %ax,%ax
    443f:	90                   	nop

00004440 <font_init>:
    4440:	55                   	push   %ebp
    4441:	89 e5                	mov    %esp,%ebp
    4443:	53                   	push   %ebx
    4444:	83 ec 14             	sub    $0x14,%esp
    4447:	8b 5d 08             	mov    0x8(%ebp),%ebx
    444a:	8b 45 14             	mov    0x14(%ebp),%eax
    444d:	66 89 03             	mov    %ax,(%ebx)
    4450:	8b 45 0c             	mov    0xc(%ebp),%eax
    4453:	85 c0                	test   %eax,%eax
    4455:	75 39                	jne    4490 <font_init+0x50>
    4457:	8d 43 0c             	lea    0xc(%ebx),%eax
    445a:	c7 43 08 fc 5d 02 00 	movl   $0x25dfc,0x8(%ebx)
    4461:	89 44 24 08          	mov    %eax,0x8(%esp)
    4465:	8d 43 02             	lea    0x2(%ebx),%eax
    4468:	89 44 24 04          	mov    %eax,0x4(%esp)
    446c:	8b 45 10             	mov    0x10(%ebp),%eax
    446f:	89 04 24             	mov    %eax,(%esp)
    4472:	ff 15 fc 5d 02 00    	call   *0x25dfc
    4478:	66 8b 43 02          	mov    0x2(%ebx),%ax
    447c:	66 85 c0             	test   %ax,%ax
    447f:	75 37                	jne    44b8 <font_init+0x78>
    4481:	c7 43 04 00 00 00 00 	movl   $0x0,0x4(%ebx)
    4488:	66 c7 43 02 00 00    	movw   $0x0,0x2(%ebx)
    448e:	eb 1b                	jmp    44ab <font_init+0x6b>
    4490:	c7 43 08 00 00 00 00 	movl   $0x0,0x8(%ebx)
    4497:	66 c7 43 02 00 00    	movw   $0x0,0x2(%ebx)
    449d:	c7 43 04 00 00 00 00 	movl   $0x0,0x4(%ebx)
    44a4:	c7 43 0c 00 00 00 00 	movl   $0x0,0xc(%ebx)
    44ab:	83 c4 14             	add    $0x14,%esp
    44ae:	5b                   	pop    %ebx
    44af:	5d                   	pop    %ebp
    44b0:	c3                   	ret    
    44b1:	8d b4 26 00 00 00 00 	lea    0x0(%esi,%eiz,1),%esi
    44b8:	25 ff ff 00 00       	and    $0xffff,%eax
    44bd:	c1 e0 02             	shl    $0x2,%eax
    44c0:	89 04 24             	mov    %eax,(%esp)
    44c3:	e8 08 21 01 00       	call   165d0 <malloc>
    44c8:	89 43 04             	mov    %eax,0x4(%ebx)
    44cb:	85 c0                	test   %eax,%eax
    44cd:	74 b9                	je     4488 <font_init+0x48>
    44cf:	66 8b 4b 02          	mov    0x2(%ebx),%cx
    44d3:	66 85 c9             	test   %cx,%cx
    44d6:	74 d3                	je     44ab <font_init+0x6b>
    44d8:	81 e1 ff ff 00 00    	and    $0xffff,%ecx
    44de:	31 d2                	xor    %edx,%edx
    44e0:	49                   	dec    %ecx
    44e1:	eb 09                	jmp    44ec <font_init+0xac>
    44e3:	90                   	nop
    44e4:	8d 74 26 00          	lea    0x0(%esi,%eiz,1),%esi
    44e8:	8b 43 04             	mov    0x4(%ebx),%eax
    44eb:	42                   	inc    %edx
    44ec:	c7 04 90 00 00 00 00 	movl   $0x0,(%eax,%edx,4)
    44f3:	39 ca                	cmp    %ecx,%edx
    44f5:	75 f1                	jne    44e8 <font_init+0xa8>
    44f7:	83 c4 14             	add    $0x14,%esp
    44fa:	5b                   	pop    %ebx
    44fb:	5d                   	pop    %ebp
    44fc:	c3                   	ret    
    44fd:	8d 76 00             	lea    0x0(%esi),%esi

00004500 <font_release>:
    4500:	55                   	push   %ebp
    4501:	89 e5                	mov    %esp,%ebp
    4503:	56                   	push   %esi
    4504:	53                   	push   %ebx
    4505:	83 ec 10             	sub    $0x10,%esp
    4508:	8b 75 08             	mov    0x8(%ebp),%esi
    450b:	8b 56 04             	mov    0x4(%esi),%edx
    450e:	85 d2                	test   %edx,%edx
    4510:	74 38                	je     454a <font_release+0x4a>
    4512:	66 8b 4e 02          	mov    0x2(%esi),%cx
    4516:	66 85 c9             	test   %cx,%cx
    4519:	74 27                	je     4542 <font_release+0x42>
    451b:	31 db                	xor    %ebx,%ebx
    451d:	8d 76 00             	lea    0x0(%esi),%esi
    4520:	8b 04 9a             	mov    (%edx,%ebx,4),%eax
    4523:	85 c0                	test   %eax,%eax
    4525:	74 0f                	je     4536 <font_release+0x36>
    4527:	89 04 24             	mov    %eax,(%esp)
    452a:	e8 b1 07 00 00       	call   4ce0 <surface_destroy>
    452f:	8b 56 04             	mov    0x4(%esi),%edx
    4532:	66 8b 4e 02          	mov    0x2(%esi),%cx
    4536:	89 c8                	mov    %ecx,%eax
    4538:	43                   	inc    %ebx
    4539:	25 ff ff 00 00       	and    $0xffff,%eax
    453e:	39 d8                	cmp    %ebx,%eax
    4540:	77 de                	ja     4520 <font_release+0x20>
    4542:	89 14 24             	mov    %edx,(%esp)
    4545:	e8 96 21 01 00       	call   166e0 <free>
    454a:	8b 46 08             	mov    0x8(%esi),%eax
    454d:	85 c0                	test   %eax,%eax
    454f:	74 17                	je     4568 <font_release+0x68>
    4551:	8b 56 0c             	mov    0xc(%esi),%edx
    4554:	89 55 08             	mov    %edx,0x8(%ebp)
    4557:	8b 40 0c             	mov    0xc(%eax),%eax
    455a:	83 c4 10             	add    $0x10,%esp
    455d:	5b                   	pop    %ebx
    455e:	5e                   	pop    %esi
    455f:	5d                   	pop    %ebp
    4560:	ff e0                	jmp    *%eax
    4562:	8d b6 00 00 00 00    	lea    0x0(%esi),%esi
    4568:	83 c4 10             	add    $0x10,%esp
    456b:	5b                   	pop    %ebx
    456c:	5e                   	pop    %esi
    456d:	5d                   	pop    %ebp
    456e:	c3                   	ret    
    456f:	90                   	nop

00004570 <font_get_box>:
    4570:	55                   	push   %ebp
    4571:	89 e5                	mov    %esp,%ebp
    4573:	57                   	push   %edi
    4574:	56                   	push   %esi
    4575:	53                   	push   %ebx
    4576:	83 ec 3c             	sub    $0x3c,%esp
    4579:	8b 7d 10             	mov    0x10(%ebp),%edi
    457c:	8b 5d 08             	mov    0x8(%ebp),%ebx
    457f:	8b 75 0c             	mov    0xc(%ebp),%esi
    4582:	85 ff                	test   %edi,%edi
    4584:	0f 84 e7 00 00 00    	je     4671 <font_get_box+0x101>
    458a:	8b 4d 14             	mov    0x14(%ebp),%ecx
    458d:	85 c9                	test   %ecx,%ecx
    458f:	0f 84 c0 00 00 00    	je     4655 <font_get_box+0xe5>
    4595:	8b 55 14             	mov    0x14(%ebp),%edx
    4598:	c7 07 00 00 00 00    	movl   $0x0,(%edi)
    459e:	85 f6                	test   %esi,%esi
    45a0:	c7 02 00 00 00 00    	movl   $0x0,(%edx)
    45a6:	74 72                	je     461a <font_get_box+0xaa>
    45a8:	0f be 06             	movsbl (%esi),%eax
    45ab:	84 c0                	test   %al,%al
    45ad:	74 6b                	je     461a <font_get_box+0xaa>
    45af:	90                   	nop
    45b0:	8b 4b 08             	mov    0x8(%ebx),%ecx
    45b3:	8b 53 0c             	mov    0xc(%ebx),%edx
    45b6:	89 54 24 04          	mov    %edx,0x4(%esp)
    45ba:	89 04 24             	mov    %eax,(%esp)
    45bd:	ff 51 04             	call   *0x4(%ecx)
    45c0:	66 3b 43 02          	cmp    0x2(%ebx),%ax
    45c4:	73 4c                	jae    4612 <font_get_box+0xa2>
    45c6:	25 ff ff 00 00       	and    $0xffff,%eax
    45cb:	8b 53 04             	mov    0x4(%ebx),%edx
    45ce:	8d 0c 85 00 00 00 00 	lea    0x0(,%eax,4),%ecx
    45d5:	89 4d d4             	mov    %ecx,-0x2c(%ebp)
    45d8:	01 d1                	add    %edx,%ecx
    45da:	8b 11                	mov    (%ecx),%edx
    45dc:	85 d2                	test   %edx,%edx
    45de:	74 48                	je     4628 <font_get_box+0xb8>
    45e0:	8d 45 e4             	lea    -0x1c(%ebp),%eax
    45e3:	8d 4d e0             	lea    -0x20(%ebp),%ecx
    45e6:	89 44 24 08          	mov    %eax,0x8(%esp)
    45ea:	89 4c 24 04          	mov    %ecx,0x4(%esp)
    45ee:	89 14 24             	mov    %edx,(%esp)
    45f1:	e8 5a 07 00 00       	call   4d50 <surface_get_resolution>
    45f6:	8b 45 e0             	mov    -0x20(%ebp),%eax
    45f9:	8b 17                	mov    (%edi),%edx
    45fb:	8b 4d 14             	mov    0x14(%ebp),%ecx
    45fe:	01 c2                	add    %eax,%edx
    4600:	89 17                	mov    %edx,(%edi)
    4602:	8b 55 e4             	mov    -0x1c(%ebp),%edx
    4605:	8b 01                	mov    (%ecx),%eax
    4607:	39 d0                	cmp    %edx,%eax
    4609:	73 02                	jae    460d <font_get_box+0x9d>
    460b:	89 d0                	mov    %edx,%eax
    460d:	8b 55 14             	mov    0x14(%ebp),%edx
    4610:	89 02                	mov    %eax,(%edx)
    4612:	46                   	inc    %esi
    4613:	0f be 06             	movsbl (%esi),%eax
    4616:	84 c0                	test   %al,%al
    4618:	75 96                	jne    45b0 <font_get_box+0x40>
    461a:	83 c4 3c             	add    $0x3c,%esp
    461d:	5b                   	pop    %ebx
    461e:	5e                   	pop    %esi
    461f:	5f                   	pop    %edi
    4620:	5d                   	pop    %ebp
    4621:	c3                   	ret    
    4622:	8d b6 00 00 00 00    	lea    0x0(%esi),%esi
    4628:	8b 13                	mov    (%ebx),%edx
    462a:	89 04 24             	mov    %eax,(%esp)
    462d:	81 e2 ff ff 00 00    	and    $0xffff,%edx
    4633:	89 4d d0             	mov    %ecx,-0x30(%ebp)
    4636:	89 54 24 04          	mov    %edx,0x4(%esp)
    463a:	8b 53 08             	mov    0x8(%ebx),%edx
    463d:	ff 52 08             	call   *0x8(%edx)
    4640:	8b 4d d0             	mov    -0x30(%ebp),%ecx
    4643:	89 01                	mov    %eax,(%ecx)
    4645:	8b 4d d4             	mov    -0x2c(%ebp),%ecx
    4648:	8b 43 04             	mov    0x4(%ebx),%eax
    464b:	8b 14 08             	mov    (%eax,%ecx,1),%edx
    464e:	85 d2                	test   %edx,%edx
    4650:	75 8e                	jne    45e0 <font_get_box+0x70>
    4652:	46                   	inc    %esi
    4653:	eb be                	jmp    4613 <font_get_box+0xa3>
    4655:	c7 44 24 08 62 00 00 	movl   $0x62,0x8(%esp)
    465c:	00 
    465d:	c7 44 24 04 f2 33 02 	movl   $0x233f2,0x4(%esp)
    4664:	00 
    4665:	c7 04 24 ff 33 02 00 	movl   $0x233ff,(%esp)
    466c:	e8 3f c8 01 00       	call   20eb0 <assert_abort>
    4671:	c7 44 24 08 61 00 00 	movl   $0x61,0x8(%esp)
    4678:	00 
    4679:	c7 44 24 04 f2 33 02 	movl   $0x233f2,0x4(%esp)
    4680:	00 
    4681:	c7 04 24 f9 33 02 00 	movl   $0x233f9,(%esp)
    4688:	e8 23 c8 01 00       	call   20eb0 <assert_abort>
    468d:	8d 76 00             	lea    0x0(%esi),%esi

00004690 <font_draw_text>:
    4690:	55                   	push   %ebp
    4691:	89 e5                	mov    %esp,%ebp
    4693:	57                   	push   %edi
    4694:	56                   	push   %esi
    4695:	53                   	push   %ebx
    4696:	81 ec bc 00 00 00    	sub    $0xbc,%esp
    469c:	8b 45 0c             	mov    0xc(%ebp),%eax
    469f:	8b 5d 08             	mov    0x8(%ebp),%ebx
    46a2:	85 c0                	test   %eax,%eax
    46a4:	0f 84 b3 01 00 00    	je     485d <font_draw_text+0x1cd>
    46aa:	8b 45 10             	mov    0x10(%ebp),%eax
    46ad:	85 c0                	test   %eax,%eax
    46af:	0f 84 8c 01 00 00    	je     4841 <font_draw_text+0x1b1>
    46b5:	8b 55 0c             	mov    0xc(%ebp),%edx
    46b8:	89 14 24             	mov    %edx,(%esp)
    46bb:	e8 f0 f8 ff ff       	call   3fb0 <drawctx_save>
    46c0:	8b 55 0c             	mov    0xc(%ebp),%edx
    46c3:	89 14 24             	mov    %edx,(%esp)
    46c6:	c7 44 24 04 00 5d 00 	movl   $0x5d00,0x4(%esp)
    46cd:	00 
    46ce:	e8 cd f9 ff ff       	call   40a0 <drawctx_set_compose>
    46d3:	8b 55 14             	mov    0x14(%ebp),%edx
    46d6:	0f be 02             	movsbl (%edx),%eax
    46d9:	84 c0                	test   %al,%al
    46db:	0f 84 06 01 00 00    	je     47e7 <font_draw_text+0x157>
    46e1:	8d b4 26 00 00 00 00 	lea    0x0(%esi,%eiz,1),%esi
    46e8:	8b 53 08             	mov    0x8(%ebx),%edx
    46eb:	8b 4b 0c             	mov    0xc(%ebx),%ecx
    46ee:	89 4c 24 04          	mov    %ecx,0x4(%esp)
    46f2:	89 04 24             	mov    %eax,(%esp)
    46f5:	ff 52 04             	call   *0x4(%edx)
    46f8:	66 3b 43 02          	cmp    0x2(%ebx),%ax
    46fc:	0f 83 d0 00 00 00    	jae    47d2 <font_draw_text+0x142>
    4702:	25 ff ff 00 00       	and    $0xffff,%eax
    4707:	8b 7b 04             	mov    0x4(%ebx),%edi
    470a:	8d 34 85 00 00 00 00 	lea    0x0(,%eax,4),%esi
    4711:	01 f7                	add    %esi,%edi
    4713:	8b 17                	mov    (%edi),%edx
    4715:	89 55 8c             	mov    %edx,-0x74(%ebp)
    4718:	85 d2                	test   %edx,%edx
    471a:	0f 84 f8 00 00 00    	je     4818 <font_draw_text+0x188>
    4720:	8d 45 9c             	lea    -0x64(%ebp),%eax
    4723:	8d 55 98             	lea    -0x68(%ebp),%edx
    4726:	89 44 24 08          	mov    %eax,0x8(%esp)
    472a:	8b 45 8c             	mov    -0x74(%ebp),%eax
    472d:	89 54 24 04          	mov    %edx,0x4(%esp)
    4731:	89 04 24             	mov    %eax,(%esp)
    4734:	8d 75 a0             	lea    -0x60(%ebp),%esi
    4737:	e8 14 06 00 00       	call   4d50 <surface_get_resolution>
    473c:	89 34 24             	mov    %esi,(%esp)
    473f:	8d 7c 24 04          	lea    0x4(%esp),%edi
    4743:	e8 38 1a 00 00       	call   6180 <transform_identity>
    4748:	8b 45 1c             	mov    0x1c(%ebp),%eax
    474b:	31 d2                	xor    %edx,%edx
    474d:	89 45 90             	mov    %eax,-0x70(%ebp)
    4750:	89 55 94             	mov    %edx,-0x6c(%ebp)
    4753:	8b 45 18             	mov    0x18(%ebp),%eax
    4756:	df 6d 90             	fildll -0x70(%ebp)
    4759:	31 d2                	xor    %edx,%edx
    475b:	89 45 90             	mov    %eax,-0x70(%ebp)
    475e:	dd 5c 24 0c          	fstpl  0xc(%esp)
    4762:	89 55 94             	mov    %edx,-0x6c(%ebp)
    4765:	89 34 24             	mov    %esi,(%esp)
    4768:	df 6d 90             	fildll -0x70(%ebp)
    476b:	dd 5c 24 04          	fstpl  0x4(%esp)
    476f:	e8 3c 1a 00 00       	call   61b0 <transform_translate>
    4774:	b9 12 00 00 00       	mov    $0x12,%ecx
    4779:	f3 a5                	rep movsl %ds:(%esi),%es:(%edi)
    477b:	8b 55 10             	mov    0x10(%ebp),%edx
    477e:	89 14 24             	mov    %edx,(%esp)
    4781:	e8 4a 01 00 00       	call   48d0 <source_set_transform>
    4786:	8b 45 8c             	mov    -0x74(%ebp),%eax
    4789:	8b 55 10             	mov    0x10(%ebp),%edx
    478c:	89 44 24 04          	mov    %eax,0x4(%esp)
    4790:	89 14 24             	mov    %edx,(%esp)
    4793:	c7 44 24 08 00 00 00 	movl   $0x0,0x8(%esp)
    479a:	00 
    479b:	e8 b0 01 00 00       	call   4950 <source_set_mask>
    47a0:	8b 55 1c             	mov    0x1c(%ebp),%edx
    47a3:	8b 45 9c             	mov    -0x64(%ebp),%eax
    47a6:	89 54 24 08          	mov    %edx,0x8(%esp)
    47aa:	8b 55 18             	mov    0x18(%ebp),%edx
    47ad:	89 44 24 10          	mov    %eax,0x10(%esp)
    47b1:	89 54 24 04          	mov    %edx,0x4(%esp)
    47b5:	8b 45 98             	mov    -0x68(%ebp),%eax
    47b8:	8b 55 0c             	mov    0xc(%ebp),%edx
    47bb:	89 44 24 0c          	mov    %eax,0xc(%esp)
    47bf:	89 14 24             	mov    %edx,(%esp)
    47c2:	e8 79 f9 ff ff       	call   4140 <drawctx_transfer>
    47c7:	8b 7d 18             	mov    0x18(%ebp),%edi
    47ca:	8b 45 98             	mov    -0x68(%ebp),%eax
    47cd:	01 c7                	add    %eax,%edi
    47cf:	89 7d 18             	mov    %edi,0x18(%ebp)
    47d2:	8b 75 14             	mov    0x14(%ebp),%esi
    47d5:	46                   	inc    %esi
    47d6:	89 75 14             	mov    %esi,0x14(%ebp)
    47d9:	8b 55 14             	mov    0x14(%ebp),%edx
    47dc:	0f be 02             	movsbl (%edx),%eax
    47df:	84 c0                	test   %al,%al
    47e1:	0f 85 01 ff ff ff    	jne    46e8 <font_draw_text+0x58>
    47e7:	8b 55 0c             	mov    0xc(%ebp),%edx
    47ea:	89 14 24             	mov    %edx,(%esp)
    47ed:	e8 2e f8 ff ff       	call   4020 <drawctx_restore>
    47f2:	8b 55 10             	mov    0x10(%ebp),%edx
    47f5:	c7 44 24 08 00 00 00 	movl   $0x0,0x8(%esp)
    47fc:	00 
    47fd:	c7 44 24 04 00 00 00 	movl   $0x0,0x4(%esp)
    4804:	00 
    4805:	89 14 24             	mov    %edx,(%esp)
    4808:	e8 43 01 00 00       	call   4950 <source_set_mask>
    480d:	81 c4 bc 00 00 00    	add    $0xbc,%esp
    4813:	5b                   	pop    %ebx
    4814:	5e                   	pop    %esi
    4815:	5f                   	pop    %edi
    4816:	5d                   	pop    %ebp
    4817:	c3                   	ret    
    4818:	8b 13                	mov    (%ebx),%edx
    481a:	8b 4b 08             	mov    0x8(%ebx),%ecx
    481d:	81 e2 ff ff 00 00    	and    $0xffff,%edx
    4823:	89 04 24             	mov    %eax,(%esp)
    4826:	89 54 24 04          	mov    %edx,0x4(%esp)
    482a:	ff 51 08             	call   *0x8(%ecx)
    482d:	89 07                	mov    %eax,(%edi)
    482f:	8b 43 04             	mov    0x4(%ebx),%eax
    4832:	8b 04 30             	mov    (%eax,%esi,1),%eax
    4835:	89 45 8c             	mov    %eax,-0x74(%ebp)
    4838:	85 c0                	test   %eax,%eax
    483a:	74 96                	je     47d2 <font_draw_text+0x142>
    483c:	e9 df fe ff ff       	jmp    4720 <font_draw_text+0x90>
    4841:	c7 44 24 08 84 00 00 	movl   $0x84,0x8(%esp)
    4848:	00 
    4849:	c7 44 24 04 f2 33 02 	movl   $0x233f2,0x4(%esp)
    4850:	00 
    4851:	c7 04 24 0e 34 02 00 	movl   $0x2340e,(%esp)
    4858:	e8 53 c6 01 00       	call   20eb0 <assert_abort>
    485d:	c7 44 24 08 83 00 00 	movl   $0x83,0x8(%esp)
    4864:	00 
    4865:	c7 44 24 04 f2 33 02 	movl   $0x233f2,0x4(%esp)
    486c:	00 
    486d:	c7 04 24 06 34 02 00 	movl   $0x23406,(%esp)
    4874:	e8 37 c6 01 00       	call   20eb0 <assert_abort>
    4879:	66 90                	xchg   %ax,%ax
    487b:	66 90                	xchg   %ax,%ax
    487d:	66 90                	xchg   %ax,%ax
    487f:	90                   	nop

00004880 <source_init>:
    4880:	55                   	push   %ebp
    4881:	89 e5                	mov    %esp,%ebp
    4883:	53                   	push   %ebx
    4884:	83 ec 14             	sub    $0x14,%esp
    4887:	8b 5d 08             	mov    0x8(%ebp),%ebx
    488a:	89 1c 24             	mov    %ebx,(%esp)
    488d:	e8 ee 18 00 00       	call   6180 <transform_identity>
    4892:	c7 43 48 b0 5e 00 00 	movl   $0x5eb0,0x48(%ebx)
    4899:	c7 43 4c 00 00 00 00 	movl   $0x0,0x4c(%ebx)
    48a0:	c7 43 50 00 00 00 00 	movl   $0x0,0x50(%ebx)
    48a7:	c6 43 54 00          	movb   $0x0,0x54(%ebx)
    48ab:	c7 43 58 00 00 00 ff 	movl   $0xff000000,0x58(%ebx)
    48b2:	c7 43 5c 00 00 00 00 	movl   $0x0,0x5c(%ebx)
    48b9:	c6 43 60 00          	movb   $0x0,0x60(%ebx)
    48bd:	83 c4 14             	add    $0x14,%esp
    48c0:	5b                   	pop    %ebx
    48c1:	5d                   	pop    %ebp
    48c2:	c3                   	ret    
    48c3:	8d b6 00 00 00 00    	lea    0x0(%esi),%esi
    48c9:	8d bc 27 00 00 00 00 	lea    0x0(%edi,%eiz,1),%edi

000048d0 <source_set_transform>:
    48d0:	55                   	push   %ebp
    48d1:	b9 12 00 00 00       	mov    $0x12,%ecx
    48d6:	89 e5                	mov    %esp,%ebp
    48d8:	57                   	push   %edi
    48d9:	56                   	push   %esi
    48da:	8b 45 08             	mov    0x8(%ebp),%eax
    48dd:	8d 75 0c             	lea    0xc(%ebp),%esi
    48e0:	89 c7                	mov    %eax,%edi
    48e2:	f3 a5                	rep movsl %ds:(%esi),%es:(%edi)
    48e4:	5e                   	pop    %esi
    48e5:	5f                   	pop    %edi
    48e6:	5d                   	pop    %ebp
    48e7:	e9 b4 17 00 00       	jmp    60a0 <transform_invert>
    48ec:	8d 74 26 00          	lea    0x0(%esi,%eiz,1),%esi

000048f0 <source_reset_transform>:
    48f0:	55                   	push   %ebp
    48f1:	89 e5                	mov    %esp,%ebp
    48f3:	5d                   	pop    %ebp
    48f4:	e9 87 18 00 00       	jmp    6180 <transform_identity>
    48f9:	8d b4 26 00 00 00 00 	lea    0x0(%esi,%eiz,1),%esi

00004900 <source_set_filter>:
    4900:	55                   	push   %ebp
    4901:	89 e5                	mov    %esp,%ebp
    4903:	8b 45 08             	mov    0x8(%ebp),%eax
    4906:	8b 55 0c             	mov    0xc(%ebp),%edx
    4909:	89 50 48             	mov    %edx,0x48(%eax)
    490c:	5d                   	pop    %ebp
    490d:	c3                   	ret    
    490e:	66 90                	xchg   %ax,%ax

00004910 <source_set_color>:
    4910:	55                   	push   %ebp
    4911:	89 e5                	mov    %esp,%ebp
    4913:	8b 45 08             	mov    0x8(%ebp),%eax
    4916:	8b 55 0c             	mov    0xc(%ebp),%edx
    4919:	89 50 4c             	mov    %edx,0x4c(%eax)
    491c:	5d                   	pop    %ebp
    491d:	c3                   	ret    
    491e:	66 90                	xchg   %ax,%ax

00004920 <source_set_texture>:
    4920:	55                   	push   %ebp
    4921:	89 e5                	mov    %esp,%ebp
    4923:	8b 45 08             	mov    0x8(%ebp),%eax
    4926:	8b 55 0c             	mov    0xc(%ebp),%edx
    4929:	89 50 50             	mov    %edx,0x50(%eax)
    492c:	8b 55 10             	mov    0x10(%ebp),%edx
    492f:	88 50 54             	mov    %dl,0x54(%eax)
    4932:	5d                   	pop    %ebp
    4933:	c3                   	ret    
    4934:	8d b6 00 00 00 00    	lea    0x0(%esi),%esi
    493a:	8d bf 00 00 00 00    	lea    0x0(%edi),%edi

00004940 <source_set_alpha>:
    4940:	55                   	push   %ebp
    4941:	89 e5                	mov    %esp,%ebp
    4943:	8b 45 08             	mov    0x8(%ebp),%eax
    4946:	8b 55 0c             	mov    0xc(%ebp),%edx
    4949:	89 50 58             	mov    %edx,0x58(%eax)
    494c:	5d                   	pop    %ebp
    494d:	c3                   	ret    
    494e:	66 90                	xchg   %ax,%ax

00004950 <source_set_mask>:
    4950:	55                   	push   %ebp
    4951:	89 e5                	mov    %esp,%ebp
    4953:	8b 45 08             	mov    0x8(%ebp),%eax
    4956:	8b 55 0c             	mov    0xc(%ebp),%edx
    4959:	89 50 5c             	mov    %edx,0x5c(%eax)
    495c:	8b 55 10             	mov    0x10(%ebp),%edx
    495f:	88 50 60             	mov    %dl,0x60(%eax)
    4962:	5d                   	pop    %ebp
    4963:	c3                   	ret    
    4964:	8d b6 00 00 00 00    	lea    0x0(%esi),%esi
    496a:	8d bf 00 00 00 00    	lea    0x0(%edi),%edi

00004970 <source_is_fast>:
    4970:	55                   	push   %ebp
    4971:	89 e5                	mov    %esp,%ebp
    4973:	8b 45 08             	mov    0x8(%ebp),%eax
    4976:	8b 48 5c             	mov    0x5c(%eax),%ecx
    4979:	85 c9                	test   %ecx,%ecx
    497b:	74 0b                	je     4988 <source_is_fast+0x18>
    497d:	31 c0                	xor    %eax,%eax
    497f:	5d                   	pop    %ebp
    4980:	c3                   	ret    
    4981:	8d b4 26 00 00 00 00 	lea    0x0(%esi,%eiz,1),%esi
    4988:	81 78 58 00 00 00 ff 	cmpl   $0xff000000,0x58(%eax)
    498f:	75 ec                	jne    497d <source_is_fast+0xd>
    4991:	8b 50 50             	mov    0x50(%eax),%edx
    4994:	85 d2                	test   %edx,%edx
    4996:	74 e5                	je     497d <source_is_fast+0xd>
    4998:	80 78 54 00          	cmpb   $0x0,0x54(%eax)
    499c:	75 df                	jne    497d <source_is_fast+0xd>
    499e:	5d                   	pop    %ebp
    499f:	e9 cc 1c 00 00       	jmp    6670 <transform_is_fast>
    49a4:	8d b6 00 00 00 00    	lea    0x0(%esi),%esi
    49aa:	8d bf 00 00 00 00    	lea    0x0(%edi),%edi

000049b0 <source_direct_access>:
    49b0:	55                   	push   %ebp
    49b1:	89 e5                	mov    %esp,%ebp
    49b3:	57                   	push   %edi
    49b4:	56                   	push   %esi
    49b5:	53                   	push   %ebx
    49b6:	83 ec 4c             	sub    $0x4c,%esp
    49b9:	8b 5d 08             	mov    0x8(%ebp),%ebx
    49bc:	dd 45 0c             	fldl   0xc(%ebp)
    49bf:	8b 7b 5c             	mov    0x5c(%ebx),%edi
    49c2:	dd 45 14             	fldl   0x14(%ebp)
    49c5:	85 ff                	test   %edi,%edi
    49c7:	74 47                	je     4a10 <source_direct_access+0x60>
    49c9:	dd d8                	fstp   %st(0)
    49cb:	dd d8                	fstp   %st(0)
    49cd:	eb 21                	jmp    49f0 <source_direct_access+0x40>
    49cf:	90                   	nop
    49d0:	dd d8                	fstp   %st(0)
    49d2:	dd d8                	fstp   %st(0)
    49d4:	eb 1a                	jmp    49f0 <source_direct_access+0x40>
    49d6:	dd d8                	fstp   %st(0)
    49d8:	dd d8                	fstp   %st(0)
    49da:	eb 14                	jmp    49f0 <source_direct_access+0x40>
    49dc:	8d 74 26 00          	lea    0x0(%esi,%eiz,1),%esi
    49e0:	dd d8                	fstp   %st(0)
    49e2:	dd d8                	fstp   %st(0)
    49e4:	eb 0a                	jmp    49f0 <source_direct_access+0x40>
    49e6:	dd d8                	fstp   %st(0)
    49e8:	dd d8                	fstp   %st(0)
    49ea:	8d b6 00 00 00 00    	lea    0x0(%esi),%esi
    49f0:	c7 44 24 08 67 00 00 	movl   $0x67,0x8(%esp)
    49f7:	00 
    49f8:	c7 44 24 04 15 34 02 	movl   $0x23415,0x4(%esp)
    49ff:	00 
    4a00:	c7 04 24 1e 34 02 00 	movl   $0x2341e,(%esp)
    4a07:	e8 a4 c4 01 00       	call   20eb0 <assert_abort>
    4a0c:	8d 74 26 00          	lea    0x0(%esi,%eiz,1),%esi
    4a10:	81 7b 58 00 00 00 ff 	cmpl   $0xff000000,0x58(%ebx)
    4a17:	75 b7                	jne    49d0 <source_direct_access+0x20>
    4a19:	8b 73 50             	mov    0x50(%ebx),%esi
    4a1c:	85 f6                	test   %esi,%esi
    4a1e:	74 b6                	je     49d6 <source_direct_access+0x26>
    4a20:	80 7b 54 00          	cmpb   $0x0,0x54(%ebx)
    4a24:	75 ba                	jne    49e0 <source_direct_access+0x30>
    4a26:	d9 c9                	fxch   %st(1)
    4a28:	dd 5d c8             	fstpl  -0x38(%ebp)
    4a2b:	89 1c 24             	mov    %ebx,(%esp)
    4a2e:	dd 5d b8             	fstpl  -0x48(%ebp)
    4a31:	e8 3a 1c 00 00       	call   6670 <transform_is_fast>
    4a36:	dd 45 c8             	fldl   -0x38(%ebp)
    4a39:	84 c0                	test   %al,%al
    4a3b:	dd 45 b8             	fldl   -0x48(%ebp)
    4a3e:	74 a6                	je     49e6 <source_direct_access+0x36>
    4a40:	dc 43 28             	faddl  0x28(%ebx)
    4a43:	d9 7d e6             	fnstcw -0x1a(%ebp)
    4a46:	66 8b 45 e6          	mov    -0x1a(%ebp),%ax
    4a4a:	b4 0c                	mov    $0xc,%ah
    4a4c:	66 89 45 e4          	mov    %ax,-0x1c(%ebp)
    4a50:	d9 6d e4             	fldcw  -0x1c(%ebp)
    4a53:	db 5d e0             	fistpl -0x20(%ebp)
    4a56:	d9 6d e6             	fldcw  -0x1a(%ebp)
    4a59:	dc 43 10             	faddl  0x10(%ebx)
    4a5c:	8b 75 e0             	mov    -0x20(%ebp),%esi
    4a5f:	d9 6d e4             	fldcw  -0x1c(%ebp)
    4a62:	db 5d e0             	fistpl -0x20(%ebp)
    4a65:	d9 6d e6             	fldcw  -0x1a(%ebp)
    4a68:	8b 43 50             	mov    0x50(%ebx),%eax
    4a6b:	8b 7d e0             	mov    -0x20(%ebp),%edi
    4a6e:	89 04 24             	mov    %eax,(%esp)
    4a71:	e8 ca 02 00 00       	call   4d40 <surface_pixmap_access>
    4a76:	8b 10                	mov    (%eax),%edx
    4a78:	39 d7                	cmp    %edx,%edi
    4a7a:	73 1c                	jae    4a98 <source_direct_access+0xe8>
    4a7c:	3b 70 04             	cmp    0x4(%eax),%esi
    4a7f:	73 17                	jae    4a98 <source_direct_access+0xe8>
    4a81:	0f af f2             	imul   %edx,%esi
    4a84:	8b 40 08             	mov    0x8(%eax),%eax
    4a87:	01 fe                	add    %edi,%esi
    4a89:	8d 04 b0             	lea    (%eax,%esi,4),%eax
    4a8c:	83 c4 4c             	add    $0x4c,%esp
    4a8f:	5b                   	pop    %ebx
    4a90:	5e                   	pop    %esi
    4a91:	5f                   	pop    %edi
    4a92:	5d                   	pop    %ebp
    4a93:	c3                   	ret    
    4a94:	8d 74 26 00          	lea    0x0(%esi,%eiz,1),%esi
    4a98:	31 c0                	xor    %eax,%eax
    4a9a:	eb f0                	jmp    4a8c <source_direct_access+0xdc>
    4a9c:	8d 74 26 00          	lea    0x0(%esi,%eiz,1),%esi

00004aa0 <source_determine_pixel>:
    4aa0:	55                   	push   %ebp
    4aa1:	89 e5                	mov    %esp,%ebp
    4aa3:	57                   	push   %edi
    4aa4:	56                   	push   %esi
    4aa5:	53                   	push   %ebx
    4aa6:	83 ec 6c             	sub    $0x6c,%esp
    4aa9:	8b 45 0c             	mov    0xc(%ebp),%eax
    4aac:	8b 5d 08             	mov    0x8(%ebp),%ebx
    4aaf:	89 45 e0             	mov    %eax,-0x20(%ebp)
    4ab2:	8b 45 10             	mov    0x10(%ebp),%eax
    4ab5:	89 45 e4             	mov    %eax,-0x1c(%ebp)
    4ab8:	8b 45 14             	mov    0x14(%ebp),%eax
    4abb:	89 45 d8             	mov    %eax,-0x28(%ebp)
    4abe:	8b 45 18             	mov    0x18(%ebp),%eax
    4ac1:	89 45 dc             	mov    %eax,-0x24(%ebp)
    4ac4:	8b 43 5c             	mov    0x5c(%ebx),%eax
    4ac7:	85 c0                	test   %eax,%eax
    4ac9:	0f 84 01 01 00 00    	je     4bd0 <source_determine_pixel+0x130>
    4acf:	8d 45 d8             	lea    -0x28(%ebp),%eax
    4ad2:	89 1c 24             	mov    %ebx,(%esp)
    4ad5:	89 44 24 08          	mov    %eax,0x8(%esp)
    4ad9:	8d 45 e0             	lea    -0x20(%ebp),%eax
    4adc:	89 44 24 04          	mov    %eax,0x4(%esp)
    4ae0:	e8 9b 1c 00 00       	call   6780 <transform_apply_affine>
    4ae5:	8b 43 5c             	mov    0x5c(%ebx),%eax
    4ae8:	85 c0                	test   %eax,%eax
    4aea:	0f 84 f0 00 00 00    	je     4be0 <source_determine_pixel+0x140>
    4af0:	dd 45 d8             	fldl   -0x28(%ebp)
    4af3:	dd 45 e0             	fldl   -0x20(%ebp)
    4af6:	8b 73 48             	mov    0x48(%ebx),%esi
    4af9:	8a 53 60             	mov    0x60(%ebx),%dl
    4afc:	dd 5d a8             	fstpl  -0x58(%ebp)
    4aff:	81 e2 ff 00 00 00    	and    $0xff,%edx
    4b05:	89 04 24             	mov    %eax,(%esp)
    4b08:	89 d7                	mov    %edx,%edi
    4b0a:	dd 5d b8             	fstpl  -0x48(%ebp)
    4b0d:	e8 2e 02 00 00       	call   4d40 <surface_pixmap_access>
    4b12:	89 7c 24 14          	mov    %edi,0x14(%esp)
    4b16:	dd 45 b8             	fldl   -0x48(%ebp)
    4b19:	89 04 24             	mov    %eax,(%esp)
    4b1c:	dd 5c 24 0c          	fstpl  0xc(%esp)
    4b20:	dd 45 a8             	fldl   -0x58(%ebp)
    4b23:	dd 5c 24 04          	fstpl  0x4(%esp)
    4b27:	ff d6                	call   *%esi
    4b29:	89 c2                	mov    %eax,%edx
    4b2b:	89 d7                	mov    %edx,%edi
    4b2d:	31 c0                	xor    %eax,%eax
    4b2f:	c1 ef 18             	shr    $0x18,%edi
    4b32:	0f 84 8b 00 00 00    	je     4bc3 <source_determine_pixel+0x123>
    4b38:	8b 43 50             	mov    0x50(%ebx),%eax
    4b3b:	85 c0                	test   %eax,%eax
    4b3d:	0f 84 a5 00 00 00    	je     4be8 <source_determine_pixel+0x148>
    4b43:	dd 45 d8             	fldl   -0x28(%ebp)
    4b46:	dd 45 e0             	fldl   -0x20(%ebp)
    4b49:	8b 73 48             	mov    0x48(%ebx),%esi
    4b4c:	8a 5b 54             	mov    0x54(%ebx),%bl
    4b4f:	dd 5d a8             	fstpl  -0x58(%ebp)
    4b52:	89 04 24             	mov    %eax,(%esp)
    4b55:	81 e3 ff 00 00 00    	and    $0xff,%ebx
    4b5b:	dd 5d b8             	fstpl  -0x48(%ebp)
    4b5e:	e8 dd 01 00 00       	call   4d40 <surface_pixmap_access>
    4b63:	89 5c 24 14          	mov    %ebx,0x14(%esp)
    4b67:	dd 45 b8             	fldl   -0x48(%ebp)
    4b6a:	89 04 24             	mov    %eax,(%esp)
    4b6d:	dd 5c 24 0c          	fstpl  0xc(%esp)
    4b71:	dd 45 a8             	fldl   -0x58(%ebp)
    4b74:	dd 5c 24 04          	fstpl  0x4(%esp)
    4b78:	ff d6                	call   *%esi
    4b7a:	81 ff fe 00 00 00    	cmp    $0xfe,%edi
    4b80:	77 41                	ja     4bc3 <source_determine_pixel+0x123>
    4b82:	89 c1                	mov    %eax,%ecx
    4b84:	31 db                	xor    %ebx,%ebx
    4b86:	c1 e9 18             	shr    $0x18,%ecx
    4b89:	89 5d d4             	mov    %ebx,-0x2c(%ebp)
    4b8c:	89 4d d0             	mov    %ecx,-0x30(%ebp)
    4b8f:	89 7d cc             	mov    %edi,-0x34(%ebp)
    4b92:	df 6d d0             	fildll -0x30(%ebp)
    4b95:	d9 7d ca             	fnstcw -0x36(%ebp)
    4b98:	db 45 cc             	fildl  -0x34(%ebp)
    4b9b:	d8 35 38 34 02 00    	fdivs  0x23438
    4ba1:	66 8b 55 ca          	mov    -0x36(%ebp),%dx
    4ba5:	25 ff ff ff 00       	and    $0xffffff,%eax
    4baa:	b6 0c                	mov    $0xc,%dh
    4bac:	66 89 55 c8          	mov    %dx,-0x38(%ebp)
    4bb0:	de c9                	fmulp  %st,%st(1)
    4bb2:	d9 6d c8             	fldcw  -0x38(%ebp)
    4bb5:	df 7d d0             	fistpll -0x30(%ebp)
    4bb8:	d9 6d ca             	fldcw  -0x36(%ebp)
    4bbb:	8b 4d d0             	mov    -0x30(%ebp),%ecx
    4bbe:	c1 e1 18             	shl    $0x18,%ecx
    4bc1:	09 c8                	or     %ecx,%eax
    4bc3:	83 c4 6c             	add    $0x6c,%esp
