
vterm:     file format elf32-i386


Disassembly of section .init:

00001094 <__entry>:
    1094:	66 8c d0             	mov    %ss,%ax
    1097:	8e d8                	mov    %eax,%ds
    1099:	8e c0                	mov    %eax,%es
    109b:	8e e0                	mov    %eax,%fs
    109d:	b8 01 00 00 00       	mov    $0x1,%eax
    10a2:	0f a2                	cpuid  
    10a4:	0f ba e2 0b          	bt     $0xb,%edx
    10a8:	73 0c                	jae    10b6 <__entry+0x22>
    10aa:	8d 05 b4 20 03 00    	lea    0x320b4,%eax
    10b0:	c7 00 c7 1b 02 00    	movl   $0x21bc7,(%eax)
    10b6:	6a 00                	push   $0x0
    10b8:	89 e5                	mov    %esp,%ebp
    10ba:	57                   	push   %edi
    10bb:	e8 50 54 00 00       	call   6510 <__main>

Disassembly of section .text:

000010c0 <main>:
    10c0:	55                   	push   %ebp
    10c1:	89 e5                	mov    %esp,%ebp
    10c3:	53                   	push   %ebx
    10c4:	83 e4 f0             	and    $0xfffffff0,%esp
    10c7:	83 ec 20             	sub    $0x20,%esp
    10ca:	83 7d 08 01          	cmpl   $0x1,0x8(%ebp)
    10ce:	0f 8e da 00 00 00    	jle    11ae <main+0xee>
    10d4:	8b 45 0c             	mov    0xc(%ebp),%eax
    10d7:	c7 44 24 14 00 00 00 	movl   $0x0,0x14(%esp)
    10de:	00 
    10df:	c7 44 24 10 00 00 00 	movl   $0x0,0x10(%esp)
    10e6:	00 
    10e7:	c7 44 24 0c 72 3d 02 	movl   $0x23d72,0xc(%esp)
    10ee:	00 
    10ef:	c7 44 24 08 01 00 00 	movl   $0x1,0x8(%esp)
    10f6:	00 
    10f7:	c7 44 24 04 01 00 00 	movl   $0x1,0x4(%esp)
    10fe:	00 
    10ff:	8b 40 04             	mov    0x4(%eax),%eax
    1102:	89 04 24             	mov    %eax,(%esp)
    1105:	e8 16 27 00 00       	call   3820 <window_open>
    110a:	89 c3                	mov    %eax,%ebx
    110c:	85 c0                	test   %eax,%eax
    110e:	74 63                	je     1173 <main+0xb3>
    1110:	89 04 24             	mov    %eax,(%esp)
    1113:	c7 44 24 08 fe 01 00 	movl   $0x1fe,0x8(%esp)
    111a:	00 
    111b:	c7 44 24 04 8a 02 00 	movl   $0x28a,0x4(%esp)
    1122:	00 
    1123:	e8 c8 28 00 00       	call   39f0 <window_resize>
    1128:	89 1c 24             	mov    %ebx,(%esp)
    112b:	e8 a0 29 00 00       	call   3ad0 <window_root>
    1130:	c7 44 24 08 e0 01 00 	movl   $0x1e0,0x8(%esp)
    1137:	00 
    1138:	c7 44 24 04 80 02 00 	movl   $0x280,0x4(%esp)
    113f:	00 
    1140:	89 04 24             	mov    %eax,(%esp)
    1143:	e8 f8 14 00 00       	call   2640 <create_terminal>
    1148:	89 1c 24             	mov    %ebx,(%esp)
    114b:	85 c0                	test   %eax,%eax
    114d:	74 3f                	je     118e <main+0xce>
    114f:	e8 8c 29 00 00       	call   3ae0 <window_exec>
    1154:	c7 04 24 00 00 00 00 	movl   $0x0,(%esp)
    115b:	e8 70 da 00 00       	call   ebd0 <task_retval>
    1160:	c7 04 24 01 00 00 00 	movl   $0x1,(%esp)
    1167:	e8 44 b9 00 00       	call   cab0 <fibril_switch>
    116c:	31 c0                	xor    %eax,%eax
    116e:	8b 5d fc             	mov    -0x4(%ebp),%ebx
    1171:	c9                   	leave  
    1172:	c3                   	ret    
    1173:	c7 44 24 04 72 3d 02 	movl   $0x23d72,0x4(%esp)
    117a:	00 
    117b:	c7 04 24 78 3d 02 00 	movl   $0x23d78,(%esp)
    1182:	e8 79 09 01 00       	call   11b00 <printf>
    1187:	b8 02 00 00 00       	mov    $0x2,%eax
    118c:	eb e0                	jmp    116e <main+0xae>
    118e:	e8 fd 29 00 00       	call   3b90 <window_close>
    1193:	c7 44 24 04 72 3d 02 	movl   $0x23d72,0x4(%esp)
    119a:	00 
    119b:	c7 04 24 96 3d 02 00 	movl   $0x23d96,(%esp)
    11a2:	e8 59 09 01 00       	call   11b00 <printf>
    11a7:	b8 03 00 00 00       	mov    $0x3,%eax
    11ac:	eb c0                	jmp    116e <main+0xae>
    11ae:	c7 44 24 04 72 3d 02 	movl   $0x23d72,0x4(%esp)
    11b5:	00 
    11b6:	c7 04 24 b4 3d 02 00 	movl   $0x23db4,(%esp)
    11bd:	e8 3e 09 01 00       	call   11b00 <printf>
    11c2:	b8 01 00 00 00       	mov    $0x1,%eax
    11c7:	eb a5                	jmp    116e <main+0xae>
    11c9:	66 90                	xchg   %ax,%ax
    11cb:	66 90                	xchg   %ax,%ax
    11cd:	66 90                	xchg   %ax,%ax
    11cf:	90                   	nop

000011d0 <term_open>:
    11d0:	55                   	push   %ebp
    11d1:	31 c0                	xor    %eax,%eax
    11d3:	89 e5                	mov    %esp,%ebp
    11d5:	5d                   	pop    %ebp
    11d6:	c3                   	ret    
    11d7:	89 f6                	mov    %esi,%esi
    11d9:	8d bc 27 00 00 00 00 	lea    0x0(%edi,%eiz,1),%edi

000011e0 <term_close>:
    11e0:	55                   	push   %ebp
    11e1:	31 c0                	xor    %eax,%eax
    11e3:	89 e5                	mov    %esp,%ebp
    11e5:	5d                   	pop    %ebp
    11e6:	c3                   	ret    
    11e7:	89 f6                	mov    %esi,%esi
    11e9:	8d bc 27 00 00 00 00 	lea    0x0(%edi,%eiz,1),%edi

000011f0 <term_get_color_cap>:
    11f0:	55                   	push   %ebp
    11f1:	89 e5                	mov    %esp,%ebp
    11f3:	8b 45 0c             	mov    0xc(%ebp),%eax
    11f6:	c7 00 07 00 00 00    	movl   $0x7,(%eax)
    11fc:	31 c0                	xor    %eax,%eax
    11fe:	5d                   	pop    %ebp
    11ff:	c3                   	ret    

00001200 <terminal_reconfigure>:
    1200:	55                   	push   %ebp
    1201:	89 e5                	mov    %esp,%ebp
    1203:	5d                   	pop    %ebp
    1204:	c3                   	ret    
    1205:	8d 74 26 00          	lea    0x0(%esi,%eiz,1),%esi
    1209:	8d bc 27 00 00 00 00 	lea    0x0(%edi,%eiz,1),%edi

00001210 <terminal_handle_position_event>:
    1210:	55                   	push   %ebp
    1211:	89 e5                	mov    %esp,%ebp
    1213:	5d                   	pop    %ebp
    1214:	c3                   	ret    
    1215:	8d 74 26 00          	lea    0x0(%esi,%eiz,1),%esi
    1219:	8d bc 27 00 00 00 00 	lea    0x0(%edi,%eiz,1),%edi

00001220 <term_get_event>:
    1220:	55                   	push   %ebp
    1221:	89 e5                	mov    %esp,%ebp
    1223:	57                   	push   %edi
    1224:	56                   	push   %esi
    1225:	83 ec 10             	sub    $0x10,%esp
    1228:	8b 45 08             	mov    0x8(%ebp),%eax
    122b:	8b 00                	mov    (%eax),%eax
    122d:	8b 40 04             	mov    0x4(%eax),%eax
    1230:	83 c0 74             	add    $0x74,%eax
    1233:	89 04 24             	mov    %eax,(%esp)
    1236:	e8 05 c8 01 00       	call   1da40 <prodcons_consume>
    123b:	8b 7d 0c             	mov    0xc(%ebp),%edi
    123e:	89 c6                	mov    %eax,%esi
    1240:	b9 06 00 00 00       	mov    $0x6,%ecx
    1245:	f3 a5                	rep movsl %ds:(%esi),%es:(%edi)
    1247:	89 04 24             	mov    %eax,(%esp)
    124a:	e8 21 61 01 00       	call   17370 <free>
    124f:	83 c4 10             	add    $0x10,%esp
    1252:	31 c0                	xor    %eax,%eax
    1254:	5e                   	pop    %esi
    1255:	5f                   	pop    %edi
    1256:	5d                   	pop    %ebp
    1257:	c3                   	ret    
    1258:	90                   	nop
    1259:	8d b4 26 00 00 00 00 	lea    0x0(%esi,%eiz,1),%esi

00001260 <term_get_size>:
    1260:	55                   	push   %ebp
    1261:	89 e5                	mov    %esp,%ebp
    1263:	56                   	push   %esi
    1264:	53                   	push   %ebx
    1265:	83 ec 10             	sub    $0x10,%esp
    1268:	8b 45 08             	mov    0x8(%ebp),%eax
    126b:	8b 00                	mov    (%eax),%eax
    126d:	8b 58 04             	mov    0x4(%eax),%ebx
    1270:	8d 73 58             	lea    0x58(%ebx),%esi
    1273:	89 34 24             	mov    %esi,(%esp)
    1276:	e8 05 c0 00 00       	call   d280 <fibril_mutex_lock>
    127b:	8b 45 0c             	mov    0xc(%ebp),%eax
    127e:	8b 93 a0 00 00 00    	mov    0xa0(%ebx),%edx
    1284:	89 10                	mov    %edx,(%eax)
    1286:	8b 45 10             	mov    0x10(%ebp),%eax
    1289:	8b 93 a4 00 00 00    	mov    0xa4(%ebx),%edx
    128f:	89 10                	mov    %edx,(%eax)
    1291:	89 34 24             	mov    %esi,(%esp)
    1294:	e8 07 c1 00 00       	call   d3a0 <fibril_mutex_unlock>
    1299:	83 c4 10             	add    $0x10,%esp
    129c:	31 c0                	xor    %eax,%eax
    129e:	5b                   	pop    %ebx
    129f:	5e                   	pop    %esi
    12a0:	5d                   	pop    %ebp
    12a1:	c3                   	ret    
    12a2:	8d b4 26 00 00 00 00 	lea    0x0(%esi,%eiz,1),%esi
    12a9:	8d bc 27 00 00 00 00 	lea    0x0(%edi,%eiz,1),%edi

000012b0 <term_get_pos>:
    12b0:	55                   	push   %ebp
    12b1:	89 e5                	mov    %esp,%ebp
    12b3:	56                   	push   %esi
    12b4:	53                   	push   %ebx
    12b5:	83 ec 10             	sub    $0x10,%esp
    12b8:	8b 45 08             	mov    0x8(%ebp),%eax
    12bb:	8b 00                	mov    (%eax),%eax
    12bd:	8b 70 04             	mov    0x4(%eax),%esi
    12c0:	8d 5e 58             	lea    0x58(%esi),%ebx
    12c3:	89 1c 24             	mov    %ebx,(%esp)
    12c6:	e8 b5 bf 00 00       	call   d280 <fibril_mutex_lock>
    12cb:	8b 45 10             	mov    0x10(%ebp),%eax
    12ce:	89 44 24 08          	mov    %eax,0x8(%esp)
    12d2:	8b 45 0c             	mov    0xc(%ebp),%eax
    12d5:	89 44 24 04          	mov    %eax,0x4(%esp)
    12d9:	8b 86 a8 00 00 00    	mov    0xa8(%esi),%eax
    12df:	89 04 24             	mov    %eax,(%esp)
    12e2:	e8 19 05 01 00       	call   11800 <chargrid_get_cursor>
    12e7:	89 1c 24             	mov    %ebx,(%esp)
    12ea:	e8 b1 c0 00 00       	call   d3a0 <fibril_mutex_unlock>
    12ef:	83 c4 10             	add    $0x10,%esp
    12f2:	31 c0                	xor    %eax,%eax
    12f4:	5b                   	pop    %ebx
    12f5:	5e                   	pop    %esi
    12f6:	5d                   	pop    %ebp
    12f7:	c3                   	ret    
    12f8:	90                   	nop
    12f9:	8d b4 26 00 00 00 00 	lea    0x0(%esi,%eiz,1),%esi

00001300 <term_set_rgb_color>:
    1300:	55                   	push   %ebp
    1301:	89 e5                	mov    %esp,%ebp
    1303:	57                   	push   %edi
    1304:	56                   	push   %esi
    1305:	53                   	push   %ebx
    1306:	83 ec 2c             	sub    $0x2c,%esp
    1309:	8b 55 08             	mov    0x8(%ebp),%edx
    130c:	8b 45 10             	mov    0x10(%ebp),%eax
    130f:	8b 7d 0c             	mov    0xc(%ebp),%edi
    1312:	8b 12                	mov    (%edx),%edx
    1314:	8b 72 04             	mov    0x4(%edx),%esi
    1317:	89 45 e4             	mov    %eax,-0x1c(%ebp)
    131a:	8d 5e 58             	lea    0x58(%esi),%ebx
    131d:	89 1c 24             	mov    %ebx,(%esp)
    1320:	e8 5b bf 00 00       	call   d280 <fibril_mutex_lock>
    1325:	8b 45 e4             	mov    -0x1c(%ebp),%eax
    1328:	89 7c 24 04          	mov    %edi,0x4(%esp)
    132c:	89 44 24 08          	mov    %eax,0x8(%esp)
    1330:	8b 86 a8 00 00 00    	mov    0xa8(%esi),%eax
    1336:	89 04 24             	mov    %eax,(%esp)
    1339:	e8 72 07 01 00       	call   11ab0 <chargrid_set_rgb_color>
    133e:	89 5d 08             	mov    %ebx,0x8(%ebp)
    1341:	83 c4 2c             	add    $0x2c,%esp
    1344:	5b                   	pop    %ebx
    1345:	5e                   	pop    %esi
    1346:	5f                   	pop    %edi
    1347:	5d                   	pop    %ebp
    1348:	e9 53 c0 00 00       	jmp    d3a0 <fibril_mutex_unlock>
    134d:	8d 76 00             	lea    0x0(%esi),%esi

00001350 <term_set_color>:
    1350:	55                   	push   %ebp
    1351:	89 e5                	mov    %esp,%ebp
    1353:	57                   	push   %edi
    1354:	56                   	push   %esi
    1355:	53                   	push   %ebx
    1356:	83 ec 2c             	sub    $0x2c,%esp
    1359:	8b 4d 08             	mov    0x8(%ebp),%ecx
    135c:	8b 45 10             	mov    0x10(%ebp),%eax
    135f:	8b 55 14             	mov    0x14(%ebp),%edx
    1362:	8b 7d 0c             	mov    0xc(%ebp),%edi
    1365:	8b 09                	mov    (%ecx),%ecx
    1367:	8b 71 04             	mov    0x4(%ecx),%esi
    136a:	89 45 e4             	mov    %eax,-0x1c(%ebp)
    136d:	89 55 e0             	mov    %edx,-0x20(%ebp)
    1370:	8d 5e 58             	lea    0x58(%esi),%ebx
    1373:	89 1c 24             	mov    %ebx,(%esp)
    1376:	e8 05 bf 00 00       	call   d280 <fibril_mutex_lock>
    137b:	8b 45 e4             	mov    -0x1c(%ebp),%eax
    137e:	8b 55 e0             	mov    -0x20(%ebp),%edx
    1381:	89 7c 24 04          	mov    %edi,0x4(%esp)
    1385:	89 54 24 0c          	mov    %edx,0xc(%esp)
    1389:	89 44 24 08          	mov    %eax,0x8(%esp)
    138d:	8b 86 a8 00 00 00    	mov    0xa8(%esi),%eax
    1393:	89 04 24             	mov    %eax,(%esp)
    1396:	e8 e5 06 01 00       	call   11a80 <chargrid_set_color>
    139b:	89 5d 08             	mov    %ebx,0x8(%ebp)
    139e:	83 c4 2c             	add    $0x2c,%esp
    13a1:	5b                   	pop    %ebx
    13a2:	5e                   	pop    %esi
    13a3:	5f                   	pop    %edi
    13a4:	5d                   	pop    %ebp
    13a5:	e9 f6 bf 00 00       	jmp    d3a0 <fibril_mutex_unlock>
    13aa:	8d b6 00 00 00 00    	lea    0x0(%esi),%esi

000013b0 <term_set_style>:
    13b0:	55                   	push   %ebp
    13b1:	89 e5                	mov    %esp,%ebp
    13b3:	57                   	push   %edi
    13b4:	56                   	push   %esi
    13b5:	53                   	push   %ebx
    13b6:	83 ec 1c             	sub    $0x1c,%esp
    13b9:	8b 45 08             	mov    0x8(%ebp),%eax
    13bc:	8b 7d 0c             	mov    0xc(%ebp),%edi
    13bf:	8b 00                	mov    (%eax),%eax
    13c1:	8b 70 04             	mov    0x4(%eax),%esi
    13c4:	8d 5e 58             	lea    0x58(%esi),%ebx
    13c7:	89 1c 24             	mov    %ebx,(%esp)
    13ca:	e8 b1 be 00 00       	call   d280 <fibril_mutex_lock>
    13cf:	89 7c 24 04          	mov    %edi,0x4(%esp)
    13d3:	8b 86 a8 00 00 00    	mov    0xa8(%esi),%eax
    13d9:	89 04 24             	mov    %eax,(%esp)
    13dc:	e8 7f 06 01 00       	call   11a60 <chargrid_set_style>
    13e1:	89 5d 08             	mov    %ebx,0x8(%ebp)
    13e4:	83 c4 1c             	add    $0x1c,%esp
    13e7:	5b                   	pop    %ebx
    13e8:	5e                   	pop    %esi
    13e9:	5f                   	pop    %edi
    13ea:	5d                   	pop    %ebp
    13eb:	e9 b0 bf 00 00       	jmp    d3a0 <fibril_mutex_unlock>

000013f0 <term_read>:
    13f0:	55                   	push   %ebp
    13f1:	89 e5                	mov    %esp,%ebp
    13f3:	57                   	push   %edi
    13f4:	56                   	push   %esi
    13f5:	53                   	push   %ebx
    13f6:	83 ec 3c             	sub    $0x3c,%esp
    13f9:	31 f6                	xor    %esi,%esi
    13fb:	8b 45 08             	mov    0x8(%ebp),%eax
    13fe:	8b 7d 0c             	mov    0xc(%ebp),%edi
    1401:	8b 00                	mov    (%eax),%eax
    1403:	8b 58 04             	mov    0x4(%eax),%ebx
    1406:	8d 4b 74             	lea    0x74(%ebx),%ecx
    1409:	89 4d d4             	mov    %ecx,-0x2c(%ebp)
    140c:	8d 8b 94 00 00 00    	lea    0x94(%ebx),%ecx
    1412:	89 4d d0             	mov    %ecx,-0x30(%ebp)
    1415:	8b 4d 10             	mov    0x10(%ebp),%ecx
    1418:	85 c9                	test   %ecx,%ecx
    141a:	0f 84 88 00 00 00    	je     14a8 <term_read+0xb8>
    1420:	8b 93 9c 00 00 00    	mov    0x9c(%ebx),%edx
    1426:	85 d2                	test   %edx,%edx
    1428:	74 47                	je     1471 <term_read+0x81>
    142a:	8d b6 00 00 00 00    	lea    0x0(%esi),%esi
    1430:	8a 83 94 00 00 00    	mov    0x94(%ebx),%al
    1436:	88 04 37             	mov    %al,(%edi,%esi,1)
    1439:	46                   	inc    %esi
    143a:	8b 8b 9c 00 00 00    	mov    0x9c(%ebx),%ecx
    1440:	83 f9 01             	cmp    $0x1,%ecx
    1443:	76 53                	jbe    1498 <term_read+0xa8>
    1445:	49                   	dec    %ecx
    1446:	89 d8                	mov    %ebx,%eax
    1448:	89 4d c8             	mov    %ecx,-0x38(%ebp)
    144b:	8d 14 0b             	lea    (%ebx,%ecx,1),%edx
    144e:	8a 88 95 00 00 00    	mov    0x95(%eax),%cl
    1454:	88 88 94 00 00 00    	mov    %cl,0x94(%eax)
    145a:	40                   	inc    %eax
    145b:	39 d0                	cmp    %edx,%eax
    145d:	75 ef                	jne    144e <term_read+0x5e>
    145f:	8b 4d c8             	mov    -0x38(%ebp),%ecx
    1462:	39 75 10             	cmp    %esi,0x10(%ebp)
    1465:	89 8b 9c 00 00 00    	mov    %ecx,0x9c(%ebx)
    146b:	76 3b                	jbe    14a8 <term_read+0xb8>
    146d:	85 c9                	test   %ecx,%ecx
    146f:	75 bf                	jne    1430 <term_read+0x40>
    1471:	8b 4d d4             	mov    -0x2c(%ebp),%ecx
    1474:	89 0c 24             	mov    %ecx,(%esp)
    1477:	e8 c4 c5 01 00       	call   1da40 <prodcons_consume>
    147c:	89 c2                	mov    %eax,%edx
    147e:	8b 40 08             	mov    0x8(%eax),%eax
    1481:	85 c0                	test   %eax,%eax
    1483:	75 07                	jne    148c <term_read+0x9c>
    1485:	8b 42 14             	mov    0x14(%edx),%eax
    1488:	85 c0                	test   %eax,%eax
    148a:	75 27                	jne    14b3 <term_read+0xc3>
    148c:	89 14 24             	mov    %edx,(%esp)
    148f:	e8 dc 5e 01 00       	call   17370 <free>
    1494:	eb 8a                	jmp    1420 <term_read+0x30>
    1496:	66 90                	xchg   %ax,%ax
    1498:	49                   	dec    %ecx
    1499:	39 75 10             	cmp    %esi,0x10(%ebp)
    149c:	89 8b 9c 00 00 00    	mov    %ecx,0x9c(%ebx)
    14a2:	77 c9                	ja     146d <term_read+0x7d>
    14a4:	8d 74 26 00          	lea    0x0(%esi,%eiz,1),%esi
    14a8:	8b 45 10             	mov    0x10(%ebp),%eax
    14ab:	83 c4 3c             	add    $0x3c,%esp
    14ae:	5b                   	pop    %ebx
    14af:	5e                   	pop    %esi
    14b0:	5f                   	pop    %edi
    14b1:	5d                   	pop    %ebp
    14b2:	c3                   	ret    
    14b3:	8b 4d d0             	mov    -0x30(%ebp),%ecx
    14b6:	89 45 e0             	mov    %eax,-0x20(%ebp)
    14b9:	8d 45 e0             	lea    -0x20(%ebp),%eax
    14bc:	89 0c 24             	mov    %ecx,(%esp)
    14bf:	89 44 24 08          	mov    %eax,0x8(%esp)
    14c3:	c7 44 24 04 05 00 00 	movl   $0x5,0x4(%esp)
    14ca:	00 
    14cb:	89 55 cc             	mov    %edx,-0x34(%ebp)
    14ce:	c7 45 e4 00 00 00 00 	movl   $0x0,-0x1c(%ebp)
    14d5:	e8 46 9c 00 00       	call   b120 <wstr_to_str>
    14da:	8b 4d d0             	mov    -0x30(%ebp),%ecx
    14dd:	89 0c 24             	mov    %ecx,(%esp)
    14e0:	e8 7b 8b 00 00       	call   a060 <str_size>
    14e5:	8b 55 cc             	mov    -0x34(%ebp),%edx
    14e8:	89 83 9c 00 00 00    	mov    %eax,0x9c(%ebx)
    14ee:	eb 9c                	jmp    148c <term_read+0x9c>

000014f0 <term_connection>:
    14f0:	55                   	push   %ebp
    14f1:	89 e5                	mov    %esp,%ebp
    14f3:	57                   	push   %edi
    14f4:	56                   	push   %esi
    14f5:	53                   	push   %ebx
    14f6:	83 ec 1c             	sub    $0x1c,%esp
    14f9:	a1 80 69 02 00       	mov    0x26980,%eax
    14fe:	8b 7d 08             	mov    0x8(%ebp),%edi
    1501:	8b 75 0c             	mov    0xc(%ebp),%esi
    1504:	3d 7c 69 02 00       	cmp    $0x2697c,%eax
    1509:	74 2a                	je     1535 <term_connection+0x45>
    150b:	8d 58 98             	lea    -0x68(%eax),%ebx
    150e:	8b 4e 04             	mov    0x4(%esi),%ecx
    1511:	39 8b b4 00 00 00    	cmp    %ecx,0xb4(%ebx)
    1517:	75 12                	jne    152b <term_connection+0x3b>
    1519:	eb 37                	jmp    1552 <term_connection+0x62>
    151b:	90                   	nop
    151c:	8d 74 26 00          	lea    0x0(%esi,%eiz,1),%esi
    1520:	8d 50 98             	lea    -0x68(%eax),%edx
    1523:	39 8a b4 00 00 00    	cmp    %ecx,0xb4(%edx)
    1529:	74 25                	je     1550 <term_connection+0x60>
    152b:	8b 40 04             	mov    0x4(%eax),%eax
    152e:	3d 7c 69 02 00       	cmp    $0x2697c,%eax
    1533:	75 eb                	jne    1520 <term_connection+0x30>
    1535:	89 7d 08             	mov    %edi,0x8(%ebp)
    1538:	c7 45 0c ff ff ff ff 	movl   $0xffffffff,0xc(%ebp)
    153f:	83 c4 1c             	add    $0x1c,%esp
    1542:	5b                   	pop    %ebx
    1543:	5e                   	pop    %esi
    1544:	5f                   	pop    %edi
    1545:	5d                   	pop    %ebp
    1546:	e9 55 88 01 00       	jmp    19da0 <async_answer_0>
    154b:	90                   	nop
    154c:	8d 74 26 00          	lea    0x0(%esi,%eiz,1),%esi
    1550:	89 d3                	mov    %edx,%ebx
    1552:	b8 01 00 00 00       	mov    $0x1,%eax
    1557:	f0 0f c1 43 70       	lock xadd %eax,0x70(%ebx)
    155c:	85 c0                	test   %eax,%eax
    155e:	75 16                	jne    1576 <term_connection+0x86>
    1560:	c7 44 24 04 01 00 00 	movl   $0x1,0x4(%esp)
    1567:	00 
    1568:	8b 83 a8 00 00 00    	mov    0xa8(%ebx),%eax
    156e:	89 04 24             	mov    %eax,(%esp)
    1571:	e8 7a 02 01 00       	call   117f0 <chargrid_set_cursor_visibility>
    1576:	81 c3 b8 00 00 00    	add    $0xb8,%ebx
    157c:	89 75 0c             	mov    %esi,0xc(%ebp)
    157f:	89 5d 10             	mov    %ebx,0x10(%ebp)
    1582:	89 7d 08             	mov    %edi,0x8(%ebp)
    1585:	83 c4 1c             	add    $0x1c,%esp
    1588:	5b                   	pop    %ebx
    1589:	5e                   	pop    %esi
    158a:	5f                   	pop    %edi
    158b:	5d                   	pop    %ebp
    158c:	e9 9f 31 01 00       	jmp    14730 <con_conn>
    1591:	eb 0d                	jmp    15a0 <terminal_handle_keyboard_event>
    1593:	90                   	nop
    1594:	90                   	nop
    1595:	90                   	nop
    1596:	90                   	nop
    1597:	90                   	nop
    1598:	90                   	nop
    1599:	90                   	nop
    159a:	90                   	nop
    159b:	90                   	nop
    159c:	90                   	nop
    159d:	90                   	nop
    159e:	90                   	nop
    159f:	90                   	nop

000015a0 <terminal_handle_keyboard_event>:
    15a0:	55                   	push   %ebp
    15a1:	89 e5                	mov    %esp,%ebp
    15a3:	53                   	push   %ebx
    15a4:	83 ec 14             	sub    $0x14,%esp
    15a7:	8b 5d 08             	mov    0x8(%ebp),%ebx
    15aa:	c7 04 24 18 00 00 00 	movl   $0x18,(%esp)
    15b1:	e8 aa 5c 01 00       	call   17260 <malloc>
    15b6:	85 c0                	test   %eax,%eax
    15b8:	74 3e                	je     15f8 <terminal_handle_keyboard_event+0x58>
    15ba:	8b 55 14             	mov    0x14(%ebp),%edx
    15bd:	83 c3 74             	add    $0x74,%ebx
    15c0:	89 50 08             	mov    %edx,0x8(%eax)
    15c3:	8b 55 18             	mov    0x18(%ebp),%edx
    15c6:	89 50 0c             	mov    %edx,0xc(%eax)
    15c9:	8b 55 1c             	mov    0x1c(%ebp),%edx
    15cc:	89 50 10             	mov    %edx,0x10(%eax)
    15cf:	8b 55 20             	mov    0x20(%ebp),%edx
    15d2:	c7 00 00 00 00 00    	movl   $0x0,(%eax)
    15d8:	c7 40 04 00 00 00 00 	movl   $0x0,0x4(%eax)
    15df:	89 50 14             	mov    %edx,0x14(%eax)
    15e2:	89 5d 08             	mov    %ebx,0x8(%ebp)
    15e5:	89 45 0c             	mov    %eax,0xc(%ebp)
    15e8:	83 c4 14             	add    $0x14,%esp
    15eb:	5b                   	pop    %ebx
    15ec:	5d                   	pop    %ebp
    15ed:	e9 fe c3 01 00       	jmp    1d9f0 <prodcons_produce>
    15f2:	8d b6 00 00 00 00    	lea    0x0(%esi),%esi
    15f8:	83 c4 14             	add    $0x14,%esp
    15fb:	5b                   	pop    %ebx
    15fc:	5d                   	pop    %ebp
    15fd:	c3                   	ret    
    15fe:	66 90                	xchg   %ax,%ax

00001600 <terminal_destroy>:
    1600:	55                   	push   %ebp
    1601:	89 e5                	mov    %esp,%ebp
    1603:	53                   	push   %ebx
    1604:	83 ec 14             	sub    $0x14,%esp
    1607:	8b 5d 08             	mov    0x8(%ebp),%ebx
    160a:	8b 53 68             	mov    0x68(%ebx),%edx
    160d:	85 d2                	test   %edx,%edx
    160f:	74 0f                	je     1620 <terminal_destroy+0x20>
    1611:	8b 43 6c             	mov    0x6c(%ebx),%eax
    1614:	85 c0                	test   %eax,%eax
    1616:	74 08                	je     1620 <terminal_destroy+0x20>
    1618:	89 10                	mov    %edx,(%eax)
    161a:	8b 53 68             	mov    0x68(%ebx),%edx
    161d:	89 42 04             	mov    %eax,0x4(%edx)
    1620:	c7 43 68 00 00 00 00 	movl   $0x0,0x68(%ebx)
    1627:	c7 43 6c 00 00 00 00 	movl   $0x0,0x6c(%ebx)
    162e:	89 1c 24             	mov    %ebx,(%esp)
    1631:	e8 2a 11 00 00       	call   2760 <widget_deinit>
    1636:	8b 83 a8 00 00 00    	mov    0xa8(%ebx),%eax
    163c:	85 c0                	test   %eax,%eax
    163e:	74 08                	je     1648 <terminal_destroy+0x48>
    1640:	89 04 24             	mov    %eax,(%esp)
    1643:	e8 78 fc 00 00       	call   112c0 <chargrid_destroy>
    1648:	8b 83 ac 00 00 00    	mov    0xac(%ebx),%eax
    164e:	85 c0                	test   %eax,%eax
    1650:	74 08                	je     165a <terminal_destroy+0x5a>
    1652:	89 04 24             	mov    %eax,(%esp)
    1655:	e8 66 fc 00 00       	call   112c0 <chargrid_destroy>
    165a:	89 5d 08             	mov    %ebx,0x8(%ebp)
    165d:	83 c4 14             	add    $0x14,%esp
    1660:	5b                   	pop    %ebx
    1661:	5d                   	pop    %ebp
    1662:	e9 09 5d 01 00       	jmp    17370 <free>
    1667:	89 f6                	mov    %esi,%esi
    1669:	8d bc 27 00 00 00 00 	lea    0x0(%edi,%eiz,1),%edi

00001670 <term_update_char>:
    1670:	55                   	push   %ebp
    1671:	89 e5                	mov    %esp,%ebp
    1673:	57                   	push   %edi
    1674:	56                   	push   %esi
    1675:	53                   	push   %ebx
    1676:	83 ec 5c             	sub    $0x5c,%esp
    1679:	89 55 e0             	mov    %edx,-0x20(%ebp)
    167c:	8b 98 ac 00 00 00    	mov    0xac(%eax),%ebx
    1682:	8b 45 10             	mov    0x10(%ebp),%eax
    1685:	31 d2                	xor    %edx,%edx
    1687:	8b 75 0c             	mov    0xc(%ebp),%esi
    168a:	8b 7b 2c             	mov    0x2c(%ebx),%edi
    168d:	01 f8                	add    %edi,%eax
    168f:	f7 73 0c             	divl   0xc(%ebx)
    1692:	8b 43 08             	mov    0x8(%ebx),%eax
    1695:	89 74 24 04          	mov    %esi,0x4(%esp)
    1699:	0f af d0             	imul   %eax,%edx
    169c:	01 f2                	add    %esi,%edx
    169e:	89 1c 24             	mov    %ebx,(%esp)
    16a1:	89 4d c4             	mov    %ecx,-0x3c(%ebp)
    16a4:	8d 04 52             	lea    (%edx,%edx,2),%eax
    16a7:	8d 7c c3 30          	lea    0x30(%ebx,%eax,8),%edi
    16ab:	8b 45 10             	mov    0x10(%ebp),%eax
    16ae:	89 44 24 08          	mov    %eax,0x8(%esp)
    16b2:	e8 19 fc 00 00       	call   112d0 <chargrid_cursor_at>
    16b7:	8b 4d c4             	mov    -0x3c(%ebp),%ecx
    16ba:	8d 34 f1             	lea    (%ecx,%esi,8),%esi
    16bd:	8b 55 08             	mov    0x8(%ebp),%edx
    16c0:	89 75 d8             	mov    %esi,-0x28(%ebp)
    16c3:	8b 75 10             	mov    0x10(%ebp),%esi
    16c6:	c1 e6 04             	shl    $0x4,%esi
    16c9:	8b 4f 08             	mov    0x8(%edi),%ecx
    16cc:	01 d6                	add    %edx,%esi
    16ce:	8b 5f 10             	mov    0x10(%edi),%ebx
    16d1:	89 75 c8             	mov    %esi,-0x38(%ebp)
    16d4:	84 c0                	test   %al,%al
    16d6:	8b 77 0c             	mov    0xc(%edi),%esi
    16d9:	8b 47 04             	mov    0x4(%edi),%eax
    16dc:	0f 84 6e 01 00 00    	je     1850 <term_update_char+0x1e0>
    16e2:	83 f8 01             	cmp    $0x1,%eax
    16e5:	0f 84 10 02 00 00    	je     18fb <term_update_char+0x28b>
    16eb:	0f 82 cf 01 00 00    	jb     18c0 <term_update_char+0x250>
    16f1:	83 f8 02             	cmp    $0x2,%eax
    16f4:	0f 84 73 02 00 00    	je     196d <term_update_char+0x2fd>
    16fa:	c7 45 e4 00 00 00 00 	movl   $0x0,-0x1c(%ebp)
    1701:	c7 45 dc 00 00 00 00 	movl   $0x0,-0x24(%ebp)
    1708:	8b 07                	mov    (%edi),%eax
    170a:	89 04 24             	mov    %eax,(%esp)
    170d:	e8 9e 24 00 00       	call   3bb0 <fb_font_glyph>
    1712:	8b 55 d8             	mov    -0x28(%ebp),%edx
    1715:	25 ff ff 00 00       	and    $0xffff,%eax
    171a:	83 c2 07             	add    $0x7,%edx
    171d:	c1 e0 04             	shl    $0x4,%eax
    1720:	89 55 d4             	mov    %edx,-0x2c(%ebp)
    1723:	8d 90 b0 69 02 00    	lea    0x269b0(%eax),%edx
    1729:	8d 98 a0 69 02 00    	lea    0x269a0(%eax),%ebx
    172f:	89 55 cc             	mov    %edx,-0x34(%ebp)
    1732:	8b 55 c8             	mov    -0x38(%ebp),%edx
    1735:	29 c2                	sub    %eax,%edx
    1737:	81 ea a0 69 02 00    	sub    $0x269a0,%edx
    173d:	89 55 d0             	mov    %edx,-0x30(%ebp)
    1740:	8b 55 e0             	mov    -0x20(%ebp),%edx
    1743:	8b 7d d0             	mov    -0x30(%ebp),%edi
    1746:	89 14 24             	mov    %edx,(%esp)
    1749:	01 df                	add    %ebx,%edi
    174b:	e8 10 3b 00 00       	call   5260 <surface_pixmap_access>
    1750:	31 f6                	xor    %esi,%esi
    1752:	8b 08                	mov    (%eax),%ecx
    1754:	39 4d d8             	cmp    %ecx,-0x28(%ebp)
    1757:	73 13                	jae    176c <term_update_char+0xfc>
    1759:	39 78 04             	cmp    %edi,0x4(%eax)
    175c:	76 0e                	jbe    176c <term_update_char+0xfc>
    175e:	0f af cf             	imul   %edi,%ecx
    1761:	8b 55 d8             	mov    -0x28(%ebp),%edx
    1764:	8b 40 08             	mov    0x8(%eax),%eax
    1767:	01 d1                	add    %edx,%ecx
    1769:	8d 34 88             	lea    (%eax,%ecx,4),%esi
    176c:	8b 55 e0             	mov    -0x20(%ebp),%edx
    176f:	89 14 24             	mov    %edx,(%esp)
    1772:	e8 e9 3a 00 00       	call   5260 <surface_pixmap_access>
    1777:	8b 08                	mov    (%eax),%ecx
    1779:	3b 4d d4             	cmp    -0x2c(%ebp),%ecx
    177c:	0f 86 92 00 00 00    	jbe    1814 <term_update_char+0x1a4>
    1782:	39 78 04             	cmp    %edi,0x4(%eax)
    1785:	0f 86 89 00 00 00    	jbe    1814 <term_update_char+0x1a4>
    178b:	85 f6                	test   %esi,%esi
    178d:	0f 84 81 00 00 00    	je     1814 <term_update_char+0x1a4>
    1793:	0f af cf             	imul   %edi,%ecx
    1796:	8b 7d d4             	mov    -0x2c(%ebp),%edi
    1799:	8b 40 08             	mov    0x8(%eax),%eax
    179c:	01 f9                	add    %edi,%ecx
    179e:	8d 04 88             	lea    (%eax,%ecx,4),%eax
    17a1:	85 c0                	test   %eax,%eax
    17a3:	74 6f                	je     1814 <term_update_char+0x1a4>
    17a5:	8b 45 e4             	mov    -0x1c(%ebp),%eax
    17a8:	f6 03 80             	testb  $0x80,(%ebx)
    17ab:	75 03                	jne    17b0 <term_update_char+0x140>
    17ad:	8b 45 dc             	mov    -0x24(%ebp),%eax
    17b0:	89 06                	mov    %eax,(%esi)
    17b2:	8b 45 e4             	mov    -0x1c(%ebp),%eax
    17b5:	f6 03 40             	testb  $0x40,(%ebx)
    17b8:	75 03                	jne    17bd <term_update_char+0x14d>
    17ba:	8b 45 dc             	mov    -0x24(%ebp),%eax
    17bd:	89 46 04             	mov    %eax,0x4(%esi)
    17c0:	8b 45 e4             	mov    -0x1c(%ebp),%eax
    17c3:	f6 03 20             	testb  $0x20,(%ebx)
    17c6:	75 03                	jne    17cb <term_update_char+0x15b>
    17c8:	8b 45 dc             	mov    -0x24(%ebp),%eax
    17cb:	89 46 08             	mov    %eax,0x8(%esi)
    17ce:	8b 45 e4             	mov    -0x1c(%ebp),%eax
    17d1:	f6 03 10             	testb  $0x10,(%ebx)
    17d4:	75 03                	jne    17d9 <term_update_char+0x169>
    17d6:	8b 45 dc             	mov    -0x24(%ebp),%eax
    17d9:	89 46 0c             	mov    %eax,0xc(%esi)
    17dc:	8b 45 e4             	mov    -0x1c(%ebp),%eax
    17df:	f6 03 08             	testb  $0x8,(%ebx)
    17e2:	75 03                	jne    17e7 <term_update_char+0x177>
    17e4:	8b 45 dc             	mov    -0x24(%ebp),%eax
    17e7:	89 46 10             	mov    %eax,0x10(%esi)
    17ea:	8b 45 e4             	mov    -0x1c(%ebp),%eax
    17ed:	f6 03 04             	testb  $0x4,(%ebx)
    17f0:	75 03                	jne    17f5 <term_update_char+0x185>
    17f2:	8b 45 dc             	mov    -0x24(%ebp),%eax
    17f5:	89 46 14             	mov    %eax,0x14(%esi)
    17f8:	8b 45 e4             	mov    -0x1c(%ebp),%eax
    17fb:	f6 03 02             	testb  $0x2,(%ebx)
    17fe:	75 03                	jne    1803 <term_update_char+0x193>
    1800:	8b 45 dc             	mov    -0x24(%ebp),%eax
    1803:	89 46 18             	mov    %eax,0x18(%esi)
    1806:	8b 45 e4             	mov    -0x1c(%ebp),%eax
    1809:	f6 03 01             	testb  $0x1,(%ebx)
    180c:	75 03                	jne    1811 <term_update_char+0x1a1>
    180e:	8b 45 dc             	mov    -0x24(%ebp),%eax
    1811:	89 46 1c             	mov    %eax,0x1c(%esi)
    1814:	43                   	inc    %ebx
    1815:	3b 5d cc             	cmp    -0x34(%ebp),%ebx
    1818:	0f 85 22 ff ff ff    	jne    1740 <term_update_char+0xd0>
    181e:	8b 55 c8             	mov    -0x38(%ebp),%edx
    1821:	c7 44 24 10 10 00 00 	movl   $0x10,0x10(%esp)
    1828:	00 
    1829:	89 54 24 08          	mov    %edx,0x8(%esp)
    182d:	8b 55 d8             	mov    -0x28(%ebp),%edx
    1830:	89 54 24 04          	mov    %edx,0x4(%esp)
    1834:	8b 55 e0             	mov    -0x20(%ebp),%edx
    1837:	c7 44 24 0c 08 00 00 	movl   $0x8,0xc(%esp)
    183e:	00 
    183f:	89 14 24             	mov    %edx,(%esp)
    1842:	e8 69 3b 00 00       	call   53b0 <surface_add_damaged_region>
    1847:	83 c4 5c             	add    $0x5c,%esp
    184a:	5b                   	pop    %ebx
    184b:	5e                   	pop    %esi
    184c:	5f                   	pop    %edi
    184d:	5d                   	pop    %ebp
    184e:	c3                   	ret    
    184f:	90                   	nop
    1850:	83 f8 01             	cmp    $0x1,%eax
    1853:	0f 84 c8 00 00 00    	je     1921 <term_update_char+0x2b1>
    1859:	73 45                	jae    18a0 <term_update_char+0x230>
    185b:	83 f9 01             	cmp    $0x1,%ecx
    185e:	0f 84 33 01 00 00    	je     1997 <term_update_char+0x327>
    1864:	0f 82 dd 00 00 00    	jb     1947 <term_update_char+0x2d7>
    186a:	83 f9 02             	cmp    $0x2,%ecx
    186d:	0f 84 e7 00 00 00    	je     195a <term_update_char+0x2ea>
    1873:	83 f9 03             	cmp    $0x3,%ecx
    1876:	0f 95 c0             	setne  %al
    1879:	31 d2                	xor    %edx,%edx
    187b:	88 c2                	mov    %al,%dl
    187d:	25 ff 00 00 00       	and    $0xff,%eax
    1882:	4a                   	dec    %edx
    1883:	48                   	dec    %eax
    1884:	81 e2 f0 f0 f0 ff    	and    $0xfff0f0f0,%edx
    188a:	25 00 00 f0 ff       	and    $0xfff00000,%eax
    188f:	89 55 e4             	mov    %edx,-0x1c(%ebp)
    1892:	89 45 dc             	mov    %eax,-0x24(%ebp)
    1895:	e9 6e fe ff ff       	jmp    1708 <term_update_char+0x98>
    189a:	8d b6 00 00 00 00    	lea    0x0(%esi),%esi
    18a0:	83 f8 02             	cmp    $0x2,%eax
    18a3:	0f 85 51 fe ff ff    	jne    16fa <term_update_char+0x8a>
    18a9:	81 c9 00 00 00 ff    	or     $0xff000000,%ecx
    18af:	81 ce 00 00 00 ff    	or     $0xff000000,%esi
    18b5:	89 4d dc             	mov    %ecx,-0x24(%ebp)
    18b8:	89 75 e4             	mov    %esi,-0x1c(%ebp)
    18bb:	e9 48 fe ff ff       	jmp    1708 <term_update_char+0x98>
    18c0:	83 f9 01             	cmp    $0x1,%ecx
    18c3:	0f 84 bb 00 00 00    	je     1984 <term_update_char+0x314>
    18c9:	0f 82 8b 00 00 00    	jb     195a <term_update_char+0x2ea>
    18cf:	83 f9 02             	cmp    $0x2,%ecx
    18d2:	74 73                	je     1947 <term_update_char+0x2d7>
    18d4:	83 f9 03             	cmp    $0x3,%ecx
    18d7:	0f 95 c0             	setne  %al
    18da:	31 d2                	xor    %edx,%edx
    18dc:	88 c2                	mov    %al,%dl
    18de:	25 ff 00 00 00       	and    $0xff,%eax
    18e3:	4a                   	dec    %edx
    18e4:	48                   	dec    %eax
    18e5:	81 e2 00 00 f0 ff    	and    $0xfff00000,%edx
    18eb:	25 f0 f0 f0 ff       	and    $0xfff0f0f0,%eax
    18f0:	89 55 e4             	mov    %edx,-0x1c(%ebp)
    18f3:	89 45 dc             	mov    %eax,-0x24(%ebp)
    18f6:	e9 0d fe ff ff       	jmp    1708 <term_update_char+0x98>
    18fb:	83 e3 08             	and    $0x8,%ebx
    18fe:	83 e1 07             	and    $0x7,%ecx
    1901:	83 e6 07             	and    $0x7,%esi
    1904:	09 d9                	or     %ebx,%ecx
    1906:	09 de                	or     %ebx,%esi
    1908:	8b 0c 8d 20 3e 02 00 	mov    0x23e20(,%ecx,4),%ecx
    190f:	8b 34 b5 20 3e 02 00 	mov    0x23e20(,%esi,4),%esi
    1916:	89 4d e4             	mov    %ecx,-0x1c(%ebp)
    1919:	89 75 dc             	mov    %esi,-0x24(%ebp)
    191c:	e9 e7 fd ff ff       	jmp    1708 <term_update_char+0x98>
    1921:	83 e3 08             	and    $0x8,%ebx
    1924:	83 e1 07             	and    $0x7,%ecx
    1927:	83 e6 07             	and    $0x7,%esi
    192a:	09 d9                	or     %ebx,%ecx
    192c:	09 de                	or     %ebx,%esi
    192e:	8b 0c 8d 20 3e 02 00 	mov    0x23e20(,%ecx,4),%ecx
    1935:	8b 34 b5 20 3e 02 00 	mov    0x23e20(,%esi,4),%esi
    193c:	89 4d dc             	mov    %ecx,-0x24(%ebp)
    193f:	89 75 e4             	mov    %esi,-0x1c(%ebp)
    1942:	e9 c1 fd ff ff       	jmp    1708 <term_update_char+0x98>
    1947:	c7 45 e4 00 00 00 ff 	movl   $0xff000000,-0x1c(%ebp)
    194e:	c7 45 dc f0 f0 f0 ff 	movl   $0xfff0f0f0,-0x24(%ebp)
    1955:	e9 ae fd ff ff       	jmp    1708 <term_update_char+0x98>
    195a:	c7 45 e4 f0 f0 f0 ff 	movl   $0xfff0f0f0,-0x1c(%ebp)
    1961:	c7 45 dc 00 00 00 ff 	movl   $0xff000000,-0x24(%ebp)
    1968:	e9 9b fd ff ff       	jmp    1708 <term_update_char+0x98>
    196d:	81 c9 00 00 00 ff    	or     $0xff000000,%ecx
    1973:	81 ce 00 00 00 ff    	or     $0xff000000,%esi
    1979:	89 4d e4             	mov    %ecx,-0x1c(%ebp)
    197c:	89 75 dc             	mov    %esi,-0x24(%ebp)
    197f:	e9 84 fd ff ff       	jmp    1708 <term_update_char+0x98>
    1984:	c7 45 e4 f0 f0 f0 ff 	movl   $0xfff0f0f0,-0x1c(%ebp)
    198b:	c7 45 dc 00 00 f0 ff 	movl   $0xfff00000,-0x24(%ebp)
    1992:	e9 71 fd ff ff       	jmp    1708 <term_update_char+0x98>
    1997:	c7 45 e4 00 00 f0 ff 	movl   $0xfff00000,-0x1c(%ebp)
    199e:	c7 45 dc f0 f0 f0 ff 	movl   $0xfff0f0f0,-0x24(%ebp)
    19a5:	e9 5e fd ff ff       	jmp    1708 <term_update_char+0x98>
    19aa:	8d b6 00 00 00 00    	lea    0x0(%esi),%esi

000019b0 <term_update_scroll>:
    19b0:	55                   	push   %ebp
    19b1:	89 e5                	mov    %esp,%ebp
    19b3:	57                   	push   %edi
    19b4:	56                   	push   %esi
    19b5:	53                   	push   %ebx
    19b6:	83 ec 4c             	sub    $0x4c,%esp
    19b9:	89 c7                	mov    %eax,%edi
    19bb:	8b 80 a8 00 00 00    	mov    0xa8(%eax),%eax
    19c1:	89 55 c4             	mov    %edx,-0x3c(%ebp)
    19c4:	89 04 24             	mov    %eax,(%esp)
    19c7:	89 4d c0             	mov    %ecx,-0x40(%ebp)
    19ca:	e8 31 f9 00 00       	call   11300 <chargrid_get_top_row>
    19cf:	39 87 b0 00 00 00    	cmp    %eax,0xb0(%edi)
    19d5:	0f 84 bb 01 00 00    	je     1b96 <term_update_scroll+0x1e6>
    19db:	89 87 b0 00 00 00    	mov    %eax,0xb0(%edi)
    19e1:	8b 87 a4 00 00 00    	mov    0xa4(%edi),%eax
    19e7:	85 c0                	test   %eax,%eax
    19e9:	0f 84 54 01 00 00    	je     1b43 <term_update_scroll+0x193>
    19ef:	8b 9f a0 00 00 00    	mov    0xa0(%edi),%ebx
    19f5:	c7 45 e4 00 00 00 00 	movl   $0x0,-0x1c(%ebp)
    19fc:	89 5d e0             	mov    %ebx,-0x20(%ebp)
    19ff:	90                   	nop
    1a00:	8b 4d e0             	mov    -0x20(%ebp),%ecx
    1a03:	31 f6                	xor    %esi,%esi
    1a05:	85 c9                	test   %ecx,%ecx
    1a07:	0f 85 93 00 00 00    	jne    1aa0 <term_update_scroll+0xf0>
    1a0d:	e9 21 01 00 00       	jmp    1b33 <term_update_scroll+0x183>
    1a12:	8d b6 00 00 00 00    	lea    0x0(%esi),%esi
    1a18:	89 10                	mov    %edx,(%eax)
    1a1a:	c6 45 bf 01          	movb   $0x1,-0x41(%ebp)
    1a1e:	8b 59 08             	mov    0x8(%ecx),%ebx
    1a21:	8b 51 04             	mov    0x4(%ecx),%edx
    1a24:	89 5d dc             	mov    %ebx,-0x24(%ebp)
    1a27:	8b 59 0c             	mov    0xc(%ecx),%ebx
    1a2a:	89 5d d4             	mov    %ebx,-0x2c(%ebp)
    1a2d:	8b 59 10             	mov    0x10(%ecx),%ebx
    1a30:	89 5d cc             	mov    %ebx,-0x34(%ebp)
    1a33:	8b 58 08             	mov    0x8(%eax),%ebx
    1a36:	89 5d d8             	mov    %ebx,-0x28(%ebp)
    1a39:	8b 58 0c             	mov    0xc(%eax),%ebx
    1a3c:	89 5d d0             	mov    %ebx,-0x30(%ebp)
    1a3f:	8b 58 10             	mov    0x10(%eax),%ebx
    1a42:	89 5d c8             	mov    %ebx,-0x38(%ebp)
    1a45:	3b 50 04             	cmp    0x4(%eax),%edx
    1a48:	0f 84 aa 00 00 00    	je     1af8 <term_update_scroll+0x148>
    1a4e:	8b 51 04             	mov    0x4(%ecx),%edx
    1a51:	89 50 04             	mov    %edx,0x4(%eax)
    1a54:	8b 51 08             	mov    0x8(%ecx),%edx
    1a57:	89 50 08             	mov    %edx,0x8(%eax)
    1a5a:	8b 51 0c             	mov    0xc(%ecx),%edx
    1a5d:	89 50 0c             	mov    %edx,0xc(%eax)
    1a60:	8b 51 10             	mov    0x10(%ecx),%edx
    1a63:	89 50 10             	mov    %edx,0x10(%eax)
    1a66:	8b 41 14             	mov    0x14(%ecx),%eax
    1a69:	83 e0 fe             	and    $0xfffffffe,%eax
    1a6c:	89 41 14             	mov    %eax,0x14(%ecx)
    1a6f:	8b 5d e4             	mov    -0x1c(%ebp),%ebx
    1a72:	89 74 24 04          	mov    %esi,0x4(%esp)
    1a76:	89 5c 24 08          	mov    %ebx,0x8(%esp)
    1a7a:	8b 5d 08             	mov    0x8(%ebp),%ebx
    1a7d:	89 1c 24             	mov    %ebx,(%esp)
    1a80:	8b 4d c0             	mov    -0x40(%ebp),%ecx
    1a83:	8b 55 c4             	mov    -0x3c(%ebp),%edx
    1a86:	89 f8                	mov    %edi,%eax
    1a88:	e8 e3 fb ff ff       	call   1670 <term_update_char>
    1a8d:	8b 9f a0 00 00 00    	mov    0xa0(%edi),%ebx
    1a93:	89 5d e0             	mov    %ebx,-0x20(%ebp)
    1a96:	46                   	inc    %esi
    1a97:	39 75 e0             	cmp    %esi,-0x20(%ebp)
    1a9a:	0f 86 8d 00 00 00    	jbe    1b2d <term_update_scroll+0x17d>
    1aa0:	8b 8f a8 00 00 00    	mov    0xa8(%edi),%ecx
    1aa6:	8b 45 e4             	mov    -0x1c(%ebp),%eax
    1aa9:	8b 51 2c             	mov    0x2c(%ecx),%edx
    1aac:	8b 59 08             	mov    0x8(%ecx),%ebx
    1aaf:	01 d0                	add    %edx,%eax
    1ab1:	31 d2                	xor    %edx,%edx
    1ab3:	f7 71 0c             	divl   0xc(%ecx)
    1ab6:	0f af d3             	imul   %ebx,%edx
    1ab9:	01 f2                	add    %esi,%edx
    1abb:	8b 9f ac 00 00 00    	mov    0xac(%edi),%ebx
    1ac1:	8d 04 52             	lea    (%edx,%edx,2),%eax
    1ac4:	8b 53 2c             	mov    0x2c(%ebx),%edx
    1ac7:	8d 4c c1 30          	lea    0x30(%ecx,%eax,8),%ecx
    1acb:	8b 45 e4             	mov    -0x1c(%ebp),%eax
    1ace:	01 d0                	add    %edx,%eax
    1ad0:	31 d2                	xor    %edx,%edx
    1ad2:	f7 73 0c             	divl   0xc(%ebx)
    1ad5:	8b 43 08             	mov    0x8(%ebx),%eax
    1ad8:	0f af d0             	imul   %eax,%edx
    1adb:	01 f2                	add    %esi,%edx
    1add:	8d 04 52             	lea    (%edx,%edx,2),%eax
    1ae0:	8b 11                	mov    (%ecx),%edx
    1ae2:	8d 44 c3 30          	lea    0x30(%ebx,%eax,8),%eax
    1ae6:	3b 10                	cmp    (%eax),%edx
    1ae8:	0f 85 2a ff ff ff    	jne    1a18 <term_update_scroll+0x68>
    1aee:	c6 45 bf 00          	movb   $0x0,-0x41(%ebp)
    1af2:	e9 27 ff ff ff       	jmp    1a1e <term_update_scroll+0x6e>
    1af7:	90                   	nop
    1af8:	83 fa 01             	cmp    $0x1,%edx
    1afb:	74 73                	je     1b70 <term_update_scroll+0x1c0>
    1afd:	73 51                	jae    1b50 <term_update_scroll+0x1a0>
    1aff:	8b 55 d8             	mov    -0x28(%ebp),%edx
    1b02:	39 55 dc             	cmp    %edx,-0x24(%ebp)
    1b05:	0f 94 c2             	sete   %dl
    1b08:	84 d2                	test   %dl,%dl
    1b0a:	0f 84 3e ff ff ff    	je     1a4e <term_update_scroll+0x9e>
    1b10:	8b 41 14             	mov    0x14(%ecx),%eax
    1b13:	83 e0 fe             	and    $0xfffffffe,%eax
    1b16:	89 41 14             	mov    %eax,0x14(%ecx)
    1b19:	80 7d bf 00          	cmpb   $0x0,-0x41(%ebp)
    1b1d:	0f 85 4c ff ff ff    	jne    1a6f <term_update_scroll+0xbf>
    1b23:	46                   	inc    %esi
    1b24:	39 75 e0             	cmp    %esi,-0x20(%ebp)
    1b27:	0f 87 73 ff ff ff    	ja     1aa0 <term_update_scroll+0xf0>
    1b2d:	8b 87 a4 00 00 00    	mov    0xa4(%edi),%eax
    1b33:	8b 5d e4             	mov    -0x1c(%ebp),%ebx
    1b36:	43                   	inc    %ebx
    1b37:	89 5d e4             	mov    %ebx,-0x1c(%ebp)
    1b3a:	39 45 e4             	cmp    %eax,-0x1c(%ebp)
    1b3d:	0f 82 bd fe ff ff    	jb     1a00 <term_update_scroll+0x50>
    1b43:	83 c4 4c             	add    $0x4c,%esp
    1b46:	b0 01                	mov    $0x1,%al
    1b48:	5b                   	pop    %ebx
    1b49:	5e                   	pop    %esi
    1b4a:	5f                   	pop    %edi
    1b4b:	5d                   	pop    %ebp
    1b4c:	c3                   	ret    
    1b4d:	8d 76 00             	lea    0x0(%esi),%esi
    1b50:	83 fa 02             	cmp    $0x2,%edx
    1b53:	0f 85 f5 fe ff ff    	jne    1a4e <term_update_scroll+0x9e>
    1b59:	8b 55 d8             	mov    -0x28(%ebp),%edx
    1b5c:	39 55 dc             	cmp    %edx,-0x24(%ebp)
    1b5f:	0f 85 e9 fe ff ff    	jne    1a4e <term_update_scroll+0x9e>
    1b65:	8b 5d d0             	mov    -0x30(%ebp),%ebx
    1b68:	39 5d d4             	cmp    %ebx,-0x2c(%ebp)
    1b6b:	0f 94 c2             	sete   %dl
    1b6e:	eb 98                	jmp    1b08 <term_update_scroll+0x158>
    1b70:	8b 5d d8             	mov    -0x28(%ebp),%ebx
    1b73:	39 5d dc             	cmp    %ebx,-0x24(%ebp)
    1b76:	0f 85 d2 fe ff ff    	jne    1a4e <term_update_scroll+0x9e>
    1b7c:	8b 55 d0             	mov    -0x30(%ebp),%edx
    1b7f:	39 55 d4             	cmp    %edx,-0x2c(%ebp)
    1b82:	0f 85 c6 fe ff ff    	jne    1a4e <term_update_scroll+0x9e>
    1b88:	8b 5d c8             	mov    -0x38(%ebp),%ebx
    1b8b:	39 5d cc             	cmp    %ebx,-0x34(%ebp)
    1b8e:	0f 94 c2             	sete   %dl
    1b91:	e9 72 ff ff ff       	jmp    1b08 <term_update_scroll+0x158>
    1b96:	83 c4 4c             	add    $0x4c,%esp
    1b99:	31 c0                	xor    %eax,%eax
    1b9b:	5b                   	pop    %ebx
    1b9c:	5e                   	pop    %esi
    1b9d:	5f                   	pop    %edi
    1b9e:	5d                   	pop    %ebp
    1b9f:	c3                   	ret    

00001ba0 <term_update_cursor>:
    1ba0:	55                   	push   %ebp
    1ba1:	89 e5                	mov    %esp,%ebp
    1ba3:	57                   	push   %edi
    1ba4:	56                   	push   %esi
    1ba5:	53                   	push   %ebx
    1ba6:	83 ec 3c             	sub    $0x3c,%esp
    1ba9:	89 c3                	mov    %eax,%ebx
    1bab:	8d 45 dc             	lea    -0x24(%ebp),%eax
    1bae:	89 d6                	mov    %edx,%esi
    1bb0:	89 44 24 08          	mov    %eax,0x8(%esp)
    1bb4:	8d 45 d8             	lea    -0x28(%ebp),%eax
    1bb7:	89 44 24 04          	mov    %eax,0x4(%esp)
    1bbb:	8b 83 a8 00 00 00    	mov    0xa8(%ebx),%eax
    1bc1:	89 04 24             	mov    %eax,(%esp)
    1bc4:	89 cf                	mov    %ecx,%edi
    1bc6:	e8 35 fc 00 00       	call   11800 <chargrid_get_cursor>
    1bcb:	8d 45 e4             	lea    -0x1c(%ebp),%eax
    1bce:	89 44 24 08          	mov    %eax,0x8(%esp)
    1bd2:	8d 45 e0             	lea    -0x20(%ebp),%eax
    1bd5:	89 44 24 04          	mov    %eax,0x4(%esp)
    1bd9:	8b 83 ac 00 00 00    	mov    0xac(%ebx),%eax
    1bdf:	89 04 24             	mov    %eax,(%esp)
    1be2:	e8 19 fc 00 00       	call   11800 <chargrid_get_cursor>
    1be7:	8b 83 a8 00 00 00    	mov    0xa8(%ebx),%eax
    1bed:	89 04 24             	mov    %eax,(%esp)
    1bf0:	e8 6b fc 00 00       	call   11860 <chargrid_get_cursor_visibility>
    1bf5:	88 c1                	mov    %al,%cl
    1bf7:	8b 83 ac 00 00 00    	mov    0xac(%ebx),%eax
    1bfd:	89 04 24             	mov    %eax,(%esp)
    1c00:	88 4d d4             	mov    %cl,-0x2c(%ebp)
    1c03:	e8 58 fc 00 00       	call   11860 <chargrid_get_cursor_visibility>
    1c08:	8a 4d d4             	mov    -0x2c(%ebp),%cl
    1c0b:	31 d2                	xor    %edx,%edx
    1c0d:	38 c1                	cmp    %al,%cl
    1c0f:	74 39                	je     1c4a <term_update_cursor+0xaa>
    1c11:	81 e1 ff 00 00 00    	and    $0xff,%ecx
    1c17:	8b 83 ac 00 00 00    	mov    0xac(%ebx),%eax
    1c1d:	89 4c 24 04          	mov    %ecx,0x4(%esp)
    1c21:	89 04 24             	mov    %eax,(%esp)
    1c24:	e8 c7 fb 00 00       	call   117f0 <chargrid_set_cursor_visibility>
    1c29:	8b 45 e4             	mov    -0x1c(%ebp),%eax
    1c2c:	89 44 24 08          	mov    %eax,0x8(%esp)
    1c30:	8b 45 e0             	mov    -0x20(%ebp),%eax
    1c33:	89 44 24 04          	mov    %eax,0x4(%esp)
    1c37:	8b 45 08             	mov    0x8(%ebp),%eax
    1c3a:	89 04 24             	mov    %eax,(%esp)
    1c3d:	89 f2                	mov    %esi,%edx
    1c3f:	89 f9                	mov    %edi,%ecx
    1c41:	89 d8                	mov    %ebx,%eax
    1c43:	e8 28 fa ff ff       	call   1670 <term_update_char>
    1c48:	b2 01                	mov    $0x1,%dl
    1c4a:	8b 45 d8             	mov    -0x28(%ebp),%eax
    1c4d:	8b 4d dc             	mov    -0x24(%ebp),%ecx
    1c50:	3b 45 e0             	cmp    -0x20(%ebp),%eax
    1c53:	74 63                	je     1cb8 <term_update_cursor+0x118>
    1c55:	89 44 24 04          	mov    %eax,0x4(%esp)
    1c59:	8b 83 ac 00 00 00    	mov    0xac(%ebx),%eax
    1c5f:	89 4c 24 08          	mov    %ecx,0x8(%esp)
    1c63:	89 04 24             	mov    %eax,(%esp)
    1c66:	e8 65 fb 00 00       	call   117d0 <chargrid_set_cursor>
    1c6b:	8b 45 e4             	mov    -0x1c(%ebp),%eax
    1c6e:	89 44 24 08          	mov    %eax,0x8(%esp)
    1c72:	8b 45 e0             	mov    -0x20(%ebp),%eax
    1c75:	89 44 24 04          	mov    %eax,0x4(%esp)
    1c79:	8b 45 08             	mov    0x8(%ebp),%eax
    1c7c:	89 04 24             	mov    %eax,(%esp)
    1c7f:	89 f9                	mov    %edi,%ecx
    1c81:	89 f2                	mov    %esi,%edx
    1c83:	89 d8                	mov    %ebx,%eax
    1c85:	e8 e6 f9 ff ff       	call   1670 <term_update_char>
    1c8a:	8b 45 dc             	mov    -0x24(%ebp),%eax
    1c8d:	89 44 24 08          	mov    %eax,0x8(%esp)
    1c91:	8b 45 d8             	mov    -0x28(%ebp),%eax
    1c94:	89 44 24 04          	mov    %eax,0x4(%esp)
    1c98:	8b 45 08             	mov    0x8(%ebp),%eax
    1c9b:	89 04 24             	mov    %eax,(%esp)
    1c9e:	89 f2                	mov    %esi,%edx
    1ca0:	89 f9                	mov    %edi,%ecx
    1ca2:	89 d8                	mov    %ebx,%eax
    1ca4:	e8 c7 f9 ff ff       	call   1670 <term_update_char>
    1ca9:	b2 01                	mov    $0x1,%dl
    1cab:	83 c4 3c             	add    $0x3c,%esp
    1cae:	88 d0                	mov    %dl,%al
    1cb0:	5b                   	pop    %ebx
    1cb1:	5e                   	pop    %esi
    1cb2:	5f                   	pop    %edi
    1cb3:	5d                   	pop    %ebp
    1cb4:	c3                   	ret    
    1cb5:	8d 76 00             	lea    0x0(%esi),%esi
    1cb8:	3b 4d e4             	cmp    -0x1c(%ebp),%ecx
    1cbb:	75 98                	jne    1c55 <term_update_cursor+0xb5>
    1cbd:	eb ec                	jmp    1cab <term_update_cursor+0x10b>
    1cbf:	90                   	nop

00001cc0 <term_update>:
    1cc0:	55                   	push   %ebp
    1cc1:	89 e5                	mov    %esp,%ebp
    1cc3:	57                   	push   %edi
    1cc4:	56                   	push   %esi
    1cc5:	53                   	push   %ebx
    1cc6:	83 ec 5c             	sub    $0x5c,%esp
    1cc9:	8d 58 58             	lea    0x58(%eax),%ebx
    1ccc:	89 c7                	mov    %eax,%edi
    1cce:	89 5d b0             	mov    %ebx,-0x50(%ebp)
    1cd1:	89 1c 24             	mov    %ebx,(%esp)
    1cd4:	e8 a7 b5 00 00       	call   d280 <fibril_mutex_lock>
    1cd9:	8b 47 14             	mov    0x14(%edi),%eax
    1cdc:	89 04 24             	mov    %eax,(%esp)
    1cdf:	e8 5c 1e 00 00       	call   3b40 <window_claim>
    1ce4:	89 45 c0             	mov    %eax,-0x40(%ebp)
    1ce7:	85 c0                	test   %eax,%eax
    1ce9:	0f 84 47 02 00 00    	je     1f36 <term_update+0x276>
    1cef:	8b 5f 1c             	mov    0x1c(%edi),%ebx
    1cf2:	89 c2                	mov    %eax,%edx
    1cf4:	8b 47 18             	mov    0x18(%edi),%eax
    1cf7:	89 1c 24             	mov    %ebx,(%esp)
    1cfa:	89 45 bc             	mov    %eax,-0x44(%ebp)
    1cfd:	89 c1                	mov    %eax,%ecx
    1cff:	89 f8                	mov    %edi,%eax
    1d01:	89 5d b8             	mov    %ebx,-0x48(%ebp)
    1d04:	e8 a7 fc ff ff       	call   19b0 <term_update_scroll>
    1d09:	c6 45 b7 01          	movb   $0x1,-0x49(%ebp)
    1d0d:	84 c0                	test   %al,%al
    1d0f:	0f 85 3b 01 00 00    	jne    1e50 <term_update+0x190>
    1d15:	8b 87 a4 00 00 00    	mov    0xa4(%edi),%eax
    1d1b:	85 c0                	test   %eax,%eax
    1d1d:	0f 84 27 01 00 00    	je     1e4a <term_update+0x18a>
    1d23:	8b 9f a0 00 00 00    	mov    0xa0(%edi),%ebx
    1d29:	c7 45 d8 00 00 00 00 	movl   $0x0,-0x28(%ebp)
    1d30:	89 5d d4             	mov    %ebx,-0x2c(%ebp)
    1d33:	c6 45 b7 00          	movb   $0x0,-0x49(%ebp)
    1d37:	90                   	nop
    1d38:	8b 55 d4             	mov    -0x2c(%ebp),%edx
    1d3b:	31 f6                	xor    %esi,%esi
    1d3d:	85 d2                	test   %edx,%edx
    1d3f:	0f 85 97 00 00 00    	jne    1ddc <term_update+0x11c>
    1d45:	e9 91 01 00 00       	jmp    1edb <term_update+0x21b>
    1d4a:	8d b6 00 00 00 00    	lea    0x0(%esi),%esi
    1d50:	89 10                	mov    %edx,(%eax)
    1d52:	c6 45 af 01          	movb   $0x1,-0x51(%ebp)
    1d56:	8b 59 08             	mov    0x8(%ecx),%ebx
    1d59:	8b 51 04             	mov    0x4(%ecx),%edx
    1d5c:	89 5d e4             	mov    %ebx,-0x1c(%ebp)
    1d5f:	8b 59 0c             	mov    0xc(%ecx),%ebx
    1d62:	89 5d d0             	mov    %ebx,-0x30(%ebp)
    1d65:	8b 59 10             	mov    0x10(%ecx),%ebx
    1d68:	89 5d c8             	mov    %ebx,-0x38(%ebp)
    1d6b:	8b 58 08             	mov    0x8(%eax),%ebx
    1d6e:	89 5d dc             	mov    %ebx,-0x24(%ebp)
    1d71:	8b 58 0c             	mov    0xc(%eax),%ebx
    1d74:	89 5d cc             	mov    %ebx,-0x34(%ebp)
    1d77:	8b 58 10             	mov    0x10(%eax),%ebx
    1d7a:	89 5d c4             	mov    %ebx,-0x3c(%ebp)
    1d7d:	3b 50 04             	cmp    0x4(%eax),%edx
    1d80:	0f 84 1a 01 00 00    	je     1ea0 <term_update+0x1e0>
    1d86:	8b 51 04             	mov    0x4(%ecx),%edx
    1d89:	89 50 04             	mov    %edx,0x4(%eax)
    1d8c:	8b 51 08             	mov    0x8(%ecx),%edx
    1d8f:	89 50 08             	mov    %edx,0x8(%eax)
    1d92:	8b 51 0c             	mov    0xc(%ecx),%edx
    1d95:	89 50 0c             	mov    %edx,0xc(%eax)
    1d98:	8b 51 10             	mov    0x10(%ecx),%edx
    1d9b:	89 50 10             	mov    %edx,0x10(%eax)
    1d9e:	8b 45 e0             	mov    -0x20(%ebp),%eax
    1da1:	83 e0 fe             	and    $0xfffffffe,%eax
    1da4:	89 41 14             	mov    %eax,0x14(%ecx)
    1da7:	8b 5d d8             	mov    -0x28(%ebp),%ebx
    1daa:	89 74 24 04          	mov    %esi,0x4(%esp)
    1dae:	89 5c 24 08          	mov    %ebx,0x8(%esp)
    1db2:	8b 5d b8             	mov    -0x48(%ebp),%ebx
    1db5:	89 1c 24             	mov    %ebx,(%esp)
    1db8:	8b 4d bc             	mov    -0x44(%ebp),%ecx
    1dbb:	8b 55 c0             	mov    -0x40(%ebp),%edx
    1dbe:	89 f8                	mov    %edi,%eax
    1dc0:	e8 ab f8 ff ff       	call   1670 <term_update_char>
    1dc5:	8b 9f a0 00 00 00    	mov    0xa0(%edi),%ebx
    1dcb:	89 5d d4             	mov    %ebx,-0x2c(%ebp)
    1dce:	c6 45 b7 01          	movb   $0x1,-0x49(%ebp)
    1dd2:	46                   	inc    %esi
    1dd3:	3b 75 d4             	cmp    -0x2c(%ebp),%esi
    1dd6:	0f 83 f9 00 00 00    	jae    1ed5 <term_update+0x215>
    1ddc:	8b 8f a8 00 00 00    	mov    0xa8(%edi),%ecx
    1de2:	8b 45 d8             	mov    -0x28(%ebp),%eax
    1de5:	8b 51 2c             	mov    0x2c(%ecx),%edx
    1de8:	8b 59 08             	mov    0x8(%ecx),%ebx
    1deb:	01 d0                	add    %edx,%eax
    1ded:	31 d2                	xor    %edx,%edx
    1def:	f7 71 0c             	divl   0xc(%ecx)
    1df2:	0f af d3             	imul   %ebx,%edx
    1df5:	01 f2                	add    %esi,%edx
    1df7:	8b 9f ac 00 00 00    	mov    0xac(%edi),%ebx
    1dfd:	8d 04 52             	lea    (%edx,%edx,2),%eax
    1e00:	8b 53 0c             	mov    0xc(%ebx),%edx
    1e03:	89 55 e4             	mov    %edx,-0x1c(%ebp)
    1e06:	8b 53 08             	mov    0x8(%ebx),%edx
    1e09:	8d 4c c1 30          	lea    0x30(%ecx,%eax,8),%ecx
    1e0d:	89 55 dc             	mov    %edx,-0x24(%ebp)
    1e10:	8b 43 2c             	mov    0x2c(%ebx),%eax
    1e13:	8b 51 14             	mov    0x14(%ecx),%edx
    1e16:	89 55 e0             	mov    %edx,-0x20(%ebp)
    1e19:	83 e2 01             	and    $0x1,%edx
    1e1c:	74 b4                	je     1dd2 <term_update+0x112>
    1e1e:	8b 55 d8             	mov    -0x28(%ebp),%edx
    1e21:	01 d0                	add    %edx,%eax
    1e23:	31 d2                	xor    %edx,%edx
    1e25:	f7 75 e4             	divl   -0x1c(%ebp)
    1e28:	8b 45 dc             	mov    -0x24(%ebp),%eax
    1e2b:	0f af d0             	imul   %eax,%edx
    1e2e:	01 f2                	add    %esi,%edx
    1e30:	8d 04 52             	lea    (%edx,%edx,2),%eax
    1e33:	8b 11                	mov    (%ecx),%edx
    1e35:	8d 44 c3 30          	lea    0x30(%ebx,%eax,8),%eax
    1e39:	3b 10                	cmp    (%eax),%edx
    1e3b:	0f 85 0f ff ff ff    	jne    1d50 <term_update+0x90>
    1e41:	c6 45 af 00          	movb   $0x0,-0x51(%ebp)
    1e45:	e9 0c ff ff ff       	jmp    1d56 <term_update+0x96>
    1e4a:	c6 45 b7 00          	movb   $0x0,-0x49(%ebp)
    1e4e:	66 90                	xchg   %ax,%ax
    1e50:	8b 5d b8             	mov    -0x48(%ebp),%ebx
    1e53:	8b 4d bc             	mov    -0x44(%ebp),%ecx
    1e56:	89 1c 24             	mov    %ebx,(%esp)
    1e59:	8b 55 c0             	mov    -0x40(%ebp),%edx
    1e5c:	89 f8                	mov    %edi,%eax
    1e5e:	e8 3d fd ff ff       	call   1ba0 <term_update_cursor>
    1e63:	84 c0                	test   %al,%al
    1e65:	8b 47 14             	mov    0x14(%edi),%eax
    1e68:	89 04 24             	mov    %eax,(%esp)
    1e6b:	75 1e                	jne    1e8b <term_update+0x1cb>
    1e6d:	e8 fe 1c 00 00       	call   3b70 <window_yield>
    1e72:	80 7d b7 00          	cmpb   $0x0,-0x49(%ebp)
    1e76:	75 18                	jne    1e90 <term_update+0x1d0>
    1e78:	8b 5d b0             	mov    -0x50(%ebp),%ebx
    1e7b:	89 1c 24             	mov    %ebx,(%esp)
    1e7e:	e8 1d b5 00 00       	call   d3a0 <fibril_mutex_unlock>
    1e83:	83 c4 5c             	add    $0x5c,%esp
    1e86:	5b                   	pop    %ebx
    1e87:	5e                   	pop    %esi
    1e88:	5f                   	pop    %edi
    1e89:	5d                   	pop    %ebp
    1e8a:	c3                   	ret    
    1e8b:	e8 e0 1c 00 00       	call   3b70 <window_yield>
    1e90:	8b 47 14             	mov    0x14(%edi),%eax
    1e93:	89 04 24             	mov    %eax,(%esp)
    1e96:	e8 f5 1b 00 00       	call   3a90 <window_damage>
    1e9b:	eb db                	jmp    1e78 <term_update+0x1b8>
    1e9d:	8d 76 00             	lea    0x0(%esi),%esi
    1ea0:	83 fa 01             	cmp    $0x1,%edx
    1ea3:	74 6b                	je     1f10 <term_update+0x250>
    1ea5:	73 49                	jae    1ef0 <term_update+0x230>
    1ea7:	8b 55 dc             	mov    -0x24(%ebp),%edx
    1eaa:	39 55 e4             	cmp    %edx,-0x1c(%ebp)
    1ead:	0f 94 c2             	sete   %dl
    1eb0:	84 d2                	test   %dl,%dl
    1eb2:	0f 84 ce fe ff ff    	je     1d86 <term_update+0xc6>
    1eb8:	8b 45 e0             	mov    -0x20(%ebp),%eax
    1ebb:	83 e0 fe             	and    $0xfffffffe,%eax
    1ebe:	89 41 14             	mov    %eax,0x14(%ecx)
    1ec1:	80 7d af 00          	cmpb   $0x0,-0x51(%ebp)
    1ec5:	0f 85 dc fe ff ff    	jne    1da7 <term_update+0xe7>
    1ecb:	46                   	inc    %esi
    1ecc:	3b 75 d4             	cmp    -0x2c(%ebp),%esi
    1ecf:	0f 82 07 ff ff ff    	jb     1ddc <term_update+0x11c>
    1ed5:	8b 87 a4 00 00 00    	mov    0xa4(%edi),%eax
    1edb:	8b 4d d8             	mov    -0x28(%ebp),%ecx
    1ede:	41                   	inc    %ecx
    1edf:	89 4d d8             	mov    %ecx,-0x28(%ebp)
    1ee2:	39 45 d8             	cmp    %eax,-0x28(%ebp)
    1ee5:	0f 82 4d fe ff ff    	jb     1d38 <term_update+0x78>
    1eeb:	e9 60 ff ff ff       	jmp    1e50 <term_update+0x190>
    1ef0:	83 fa 02             	cmp    $0x2,%edx
    1ef3:	0f 85 8d fe ff ff    	jne    1d86 <term_update+0xc6>
    1ef9:	8b 55 dc             	mov    -0x24(%ebp),%edx
    1efc:	39 55 e4             	cmp    %edx,-0x1c(%ebp)
    1eff:	0f 85 81 fe ff ff    	jne    1d86 <term_update+0xc6>
    1f05:	8b 5d cc             	mov    -0x34(%ebp),%ebx
    1f08:	39 5d d0             	cmp    %ebx,-0x30(%ebp)
    1f0b:	0f 94 c2             	sete   %dl
    1f0e:	eb a0                	jmp    1eb0 <term_update+0x1f0>
    1f10:	8b 5d dc             	mov    -0x24(%ebp),%ebx
    1f13:	39 5d e4             	cmp    %ebx,-0x1c(%ebp)
    1f16:	0f 85 6a fe ff ff    	jne    1d86 <term_update+0xc6>
    1f1c:	8b 55 cc             	mov    -0x34(%ebp),%edx
    1f1f:	39 55 d0             	cmp    %edx,-0x30(%ebp)
    1f22:	0f 85 5e fe ff ff    	jne    1d86 <term_update+0xc6>
    1f28:	8b 5d c4             	mov    -0x3c(%ebp),%ebx
    1f2b:	39 5d c8             	cmp    %ebx,-0x38(%ebp)
    1f2e:	0f 94 c2             	sete   %dl
    1f31:	e9 7a ff ff ff       	jmp    1eb0 <term_update+0x1f0>
    1f36:	8b 47 14             	mov    0x14(%edi),%eax
    1f39:	89 04 24             	mov    %eax,(%esp)
    1f3c:	e8 2f 1c 00 00       	call   3b70 <window_yield>
    1f41:	89 1c 24             	mov    %ebx,(%esp)
    1f44:	e8 57 b4 00 00       	call   d3a0 <fibril_mutex_unlock>
    1f49:	83 c4 5c             	add    $0x5c,%esp
    1f4c:	5b                   	pop    %ebx
    1f4d:	5e                   	pop    %esi
    1f4e:	5f                   	pop    %edi
    1f4f:	5d                   	pop    %ebp
    1f50:	c3                   	ret    
    1f51:	eb 0d                	jmp    1f60 <term_set_cursor_visibility>
    1f53:	90                   	nop
    1f54:	90                   	nop
    1f55:	90                   	nop
    1f56:	90                   	nop
    1f57:	90                   	nop
    1f58:	90                   	nop
    1f59:	90                   	nop
    1f5a:	90                   	nop
    1f5b:	90                   	nop
    1f5c:	90                   	nop
    1f5d:	90                   	nop
    1f5e:	90                   	nop
    1f5f:	90                   	nop

00001f60 <term_set_cursor_visibility>:
    1f60:	55                   	push   %ebp
    1f61:	89 e5                	mov    %esp,%ebp
    1f63:	57                   	push   %edi
    1f64:	56                   	push   %esi
    1f65:	53                   	push   %ebx
    1f66:	83 ec 1c             	sub    $0x1c,%esp
    1f69:	8b 45 08             	mov    0x8(%ebp),%eax
    1f6c:	0f b6 7d 0c          	movzbl 0xc(%ebp),%edi
    1f70:	8b 00                	mov    (%eax),%eax
    1f72:	8b 58 04             	mov    0x4(%eax),%ebx
    1f75:	8d 73 58             	lea    0x58(%ebx),%esi
    1f78:	89 34 24             	mov    %esi,(%esp)
    1f7b:	e8 00 b3 00 00       	call   d280 <fibril_mutex_lock>
    1f80:	89 f8                	mov    %edi,%eax
    1f82:	25 ff 00 00 00       	and    $0xff,%eax
    1f87:	89 44 24 04          	mov    %eax,0x4(%esp)
    1f8b:	8b 83 a8 00 00 00    	mov    0xa8(%ebx),%eax
    1f91:	89 04 24             	mov    %eax,(%esp)
    1f94:	e8 57 f8 00 00       	call   117f0 <chargrid_set_cursor_visibility>
    1f99:	89 34 24             	mov    %esi,(%esp)
    1f9c:	e8 ff b3 00 00       	call   d3a0 <fibril_mutex_unlock>
    1fa1:	83 c4 1c             	add    $0x1c,%esp
    1fa4:	89 d8                	mov    %ebx,%eax
    1fa6:	5b                   	pop    %ebx
    1fa7:	5e                   	pop    %esi
    1fa8:	5f                   	pop    %edi
    1fa9:	5d                   	pop    %ebp
    1faa:	e9 11 fd ff ff       	jmp    1cc0 <term_update>
    1faf:	90                   	nop

00001fb0 <term_clear>:
    1fb0:	55                   	push   %ebp
    1fb1:	89 e5                	mov    %esp,%ebp
    1fb3:	56                   	push   %esi
    1fb4:	53                   	push   %ebx
    1fb5:	83 ec 10             	sub    $0x10,%esp
    1fb8:	8b 45 08             	mov    0x8(%ebp),%eax
    1fbb:	8b 00                	mov    (%eax),%eax
    1fbd:	8b 58 04             	mov    0x4(%eax),%ebx
    1fc0:	8d 73 58             	lea    0x58(%ebx),%esi
    1fc3:	89 34 24             	mov    %esi,(%esp)
    1fc6:	e8 b5 b2 00 00       	call   d280 <fibril_mutex_lock>
    1fcb:	8b 83 a8 00 00 00    	mov    0xa8(%ebx),%eax
    1fd1:	89 04 24             	mov    %eax,(%esp)
    1fd4:	e8 97 f7 00 00       	call   11770 <chargrid_clear>
    1fd9:	89 34 24             	mov    %esi,(%esp)
    1fdc:	e8 bf b3 00 00       	call   d3a0 <fibril_mutex_unlock>
    1fe1:	83 c4 10             	add    $0x10,%esp
    1fe4:	89 d8                	mov    %ebx,%eax
    1fe6:	5b                   	pop    %ebx
    1fe7:	5e                   	pop    %esi
    1fe8:	5d                   	pop    %ebp
    1fe9:	e9 d2 fc ff ff       	jmp    1cc0 <term_update>
    1fee:	66 90                	xchg   %ax,%ax

00001ff0 <term_sync>:
    1ff0:	55                   	push   %ebp
    1ff1:	89 e5                	mov    %esp,%ebp
    1ff3:	8b 45 08             	mov    0x8(%ebp),%eax
    1ff6:	5d                   	pop    %ebp
    1ff7:	8b 00                	mov    (%eax),%eax
    1ff9:	8b 40 04             	mov    0x4(%eax),%eax
    1ffc:	e9 bf fc ff ff       	jmp    1cc0 <term_update>
    2001:	eb 0d                	jmp    2010 <term_set_pos>
    2003:	90                   	nop
    2004:	90                   	nop
    2005:	90                   	nop
    2006:	90                   	nop
    2007:	90                   	nop
    2008:	90                   	nop
    2009:	90                   	nop
    200a:	90                   	nop
    200b:	90                   	nop
    200c:	90                   	nop
    200d:	90                   	nop
    200e:	90                   	nop
    200f:	90                   	nop

00002010 <term_set_pos>:
    2010:	55                   	push   %ebp
    2011:	89 e5                	mov    %esp,%ebp
    2013:	57                   	push   %edi
    2014:	56                   	push   %esi
    2015:	53                   	push   %ebx
    2016:	83 ec 2c             	sub    $0x2c,%esp
    2019:	8b 55 08             	mov    0x8(%ebp),%edx
    201c:	8b 45 10             	mov    0x10(%ebp),%eax
    201f:	8b 7d 0c             	mov    0xc(%ebp),%edi
    2022:	8b 12                	mov    (%edx),%edx
    2024:	8b 5a 04             	mov    0x4(%edx),%ebx
    2027:	89 45 e4             	mov    %eax,-0x1c(%ebp)
    202a:	8d 73 58             	lea    0x58(%ebx),%esi
    202d:	89 34 24             	mov    %esi,(%esp)
    2030:	e8 4b b2 00 00       	call   d280 <fibril_mutex_lock>
    2035:	8b 45 e4             	mov    -0x1c(%ebp),%eax
    2038:	89 7c 24 04          	mov    %edi,0x4(%esp)
    203c:	89 44 24 08          	mov    %eax,0x8(%esp)
    2040:	8b 83 a8 00 00 00    	mov    0xa8(%ebx),%eax
    2046:	89 04 24             	mov    %eax,(%esp)
    2049:	e8 82 f7 00 00       	call   117d0 <chargrid_set_cursor>
    204e:	89 34 24             	mov    %esi,(%esp)
    2051:	e8 4a b3 00 00       	call   d3a0 <fibril_mutex_unlock>
    2056:	83 c4 2c             	add    $0x2c,%esp
    2059:	89 d8                	mov    %ebx,%eax
    205b:	5b                   	pop    %ebx
    205c:	5e                   	pop    %esi
    205d:	5f                   	pop    %edi
    205e:	5d                   	pop    %ebp
    205f:	e9 5c fc ff ff       	jmp    1cc0 <term_update>
    2064:	8d b6 00 00 00 00    	lea    0x0(%esi),%esi
    206a:	8d bf 00 00 00 00    	lea    0x0(%edi),%edi

00002070 <term_write>:
    2070:	55                   	push   %ebp
    2071:	89 e5                	mov    %esp,%ebp
    2073:	57                   	push   %edi
    2074:	56                   	push   %esi
    2075:	53                   	push   %ebx
    2076:	83 ec 3c             	sub    $0x3c,%esp
    2079:	c7 45 e4 00 00 00 00 	movl   $0x0,-0x1c(%ebp)
    2080:	8b 45 08             	mov    0x8(%ebp),%eax
    2083:	8b 5d 10             	mov    0x10(%ebp),%ebx
    2086:	8b 00                	mov    (%eax),%eax
    2088:	8b 78 04             	mov    0x4(%eax),%edi
    208b:	31 c0                	xor    %eax,%eax
    208d:	8d 77 58             	lea    0x58(%edi),%esi
    2090:	39 c3                	cmp    %eax,%ebx
    2092:	76 6f                	jbe    2103 <term_write+0x93>
    2094:	8d 45 e4             	lea    -0x1c(%ebp),%eax
    2097:	89 5c 24 08          	mov    %ebx,0x8(%esp)
    209b:	89 44 24 04          	mov    %eax,0x4(%esp)
    209f:	8b 45 0c             	mov    0xc(%ebp),%eax
    20a2:	89 04 24             	mov    %eax,(%esp)
    20a5:	e8 76 7b 00 00       	call   9c20 <str_decode>
    20aa:	89 34 24             	mov    %esi,(%esp)
    20ad:	89 45 d4             	mov    %eax,-0x2c(%ebp)
    20b0:	e8 cb b1 00 00       	call   d280 <fibril_mutex_lock>
    20b5:	8b 45 d4             	mov    -0x2c(%ebp),%eax
    20b8:	83 f8 09             	cmp    $0x9,%eax
    20bb:	0f 84 8f 00 00 00    	je     2150 <term_write+0xe0>
    20c1:	7f 4d                	jg     2110 <term_write+0xa0>
    20c3:	83 f8 08             	cmp    $0x8,%eax
    20c6:	74 78                	je     2140 <term_write+0xd0>
    20c8:	c7 44 24 08 01 00 00 	movl   $0x1,0x8(%esp)
    20cf:	00 
    20d0:	89 44 24 04          	mov    %eax,0x4(%esp)
    20d4:	8b 87 a8 00 00 00    	mov    0xa8(%edi),%eax
    20da:	89 04 24             	mov    %eax,(%esp)
    20dd:	e8 2e f2 00 00       	call   11310 <chargrid_putchar>
    20e2:	89 34 24             	mov    %esi,(%esp)
    20e5:	89 45 d4             	mov    %eax,-0x2c(%ebp)
    20e8:	e8 b3 b2 00 00       	call   d3a0 <fibril_mutex_unlock>
    20ed:	8b 45 d4             	mov    -0x2c(%ebp),%eax
    20f0:	83 f8 01             	cmp    $0x1,%eax
    20f3:	76 2d                	jbe    2122 <term_write+0xb2>
    20f5:	89 f8                	mov    %edi,%eax
    20f7:	e8 c4 fb ff ff       	call   1cc0 <term_update>
    20fc:	8b 45 e4             	mov    -0x1c(%ebp),%eax
    20ff:	39 c3                	cmp    %eax,%ebx
    2101:	77 91                	ja     2094 <term_write+0x24>
    2103:	83 c4 3c             	add    $0x3c,%esp
    2106:	89 d8                	mov    %ebx,%eax
    2108:	5b                   	pop    %ebx
    2109:	5e                   	pop    %esi
    210a:	5f                   	pop    %edi
    210b:	5d                   	pop    %ebp
    210c:	c3                   	ret    
    210d:	8d 76 00             	lea    0x0(%esi),%esi
    2110:	83 f8 0a             	cmp    $0xa,%eax
    2113:	74 1b                	je     2130 <term_write+0xc0>
    2115:	83 f8 0d             	cmp    $0xd,%eax
    2118:	75 ae                	jne    20c8 <term_write+0x58>
    211a:	89 34 24             	mov    %esi,(%esp)
    211d:	e8 7e b2 00 00       	call   d3a0 <fibril_mutex_unlock>
    2122:	8b 45 e4             	mov    -0x1c(%ebp),%eax
    2125:	e9 66 ff ff ff       	jmp    2090 <term_write+0x20>
    212a:	8d b6 00 00 00 00    	lea    0x0(%esi),%esi
    2130:	8b 87 a8 00 00 00    	mov    0xa8(%edi),%eax
    2136:	89 04 24             	mov    %eax,(%esp)
    2139:	e8 42 f3 00 00       	call   11480 <chargrid_newline>
    213e:	eb a2                	jmp    20e2 <term_write+0x72>
    2140:	8b 87 a8 00 00 00    	mov    0xa8(%edi),%eax
    2146:	89 04 24             	mov    %eax,(%esp)
    2149:	e8 a2 f7 00 00       	call   118f0 <chargrid_backspace>
    214e:	eb 92                	jmp    20e2 <term_write+0x72>
    2150:	c7 44 24 04 08 00 00 	movl   $0x8,0x4(%esp)
    2157:	00 
    2158:	8b 87 a8 00 00 00    	mov    0xa8(%edi),%eax
    215e:	89 04 24             	mov    %eax,(%esp)
    2161:	e8 0a f4 00 00       	call   11570 <chargrid_tabstop>
    2166:	e9 77 ff ff ff       	jmp    20e2 <term_write+0x72>
    216b:	90                   	nop
    216c:	8d 74 26 00          	lea    0x0(%esi,%eiz,1),%esi

00002170 <term_damage>:
    2170:	55                   	push   %ebp
    2171:	89 e5                	mov    %esp,%ebp
    2173:	57                   	push   %edi
    2174:	56                   	push   %esi
    2175:	53                   	push   %ebx
    2176:	83 ec 3c             	sub    $0x3c,%esp
    2179:	89 c6                	mov    %eax,%esi
    217b:	8d 40 58             	lea    0x58(%eax),%eax
    217e:	89 04 24             	mov    %eax,(%esp)
    2181:	89 45 d4             	mov    %eax,-0x2c(%ebp)
    2184:	e8 f7 b0 00 00       	call   d280 <fibril_mutex_lock>
    2189:	8b 46 14             	mov    0x14(%esi),%eax
    218c:	89 04 24             	mov    %eax,(%esp)
    218f:	e8 ac 19 00 00       	call   3b40 <window_claim>
    2194:	89 45 e0             	mov    %eax,-0x20(%ebp)
    2197:	85 c0                	test   %eax,%eax
    2199:	0f 84 39 01 00 00    	je     22d8 <term_damage+0x168>
    219f:	89 c2                	mov    %eax,%edx
    21a1:	8b 46 18             	mov    0x18(%esi),%eax
    21a4:	89 45 dc             	mov    %eax,-0x24(%ebp)
    21a7:	8b 46 1c             	mov    0x1c(%esi),%eax
    21aa:	89 45 d8             	mov    %eax,-0x28(%ebp)
    21ad:	89 04 24             	mov    %eax,(%esp)
    21b0:	8b 4d dc             	mov    -0x24(%ebp),%ecx
    21b3:	89 f0                	mov    %esi,%eax
    21b5:	e8 f6 f7 ff ff       	call   19b0 <term_update_scroll>
    21ba:	84 c0                	test   %al,%al
    21bc:	0f 85 da 00 00 00    	jne    229c <term_damage+0x12c>
    21c2:	8b 96 a4 00 00 00    	mov    0xa4(%esi),%edx
    21c8:	85 d2                	test   %edx,%edx
    21ca:	0f 84 cc 00 00 00    	je     229c <term_damage+0x12c>
    21d0:	8b 86 a0 00 00 00    	mov    0xa0(%esi),%eax
    21d6:	c7 45 e4 00 00 00 00 	movl   $0x0,-0x1c(%ebp)
    21dd:	8d 76 00             	lea    0x0(%esi),%esi
    21e0:	31 db                	xor    %ebx,%ebx
    21e2:	85 c0                	test   %eax,%eax
    21e4:	0f 84 a2 00 00 00    	je     228c <term_damage+0x11c>
    21ea:	8d b6 00 00 00 00    	lea    0x0(%esi),%esi
    21f0:	8b 8e a8 00 00 00    	mov    0xa8(%esi),%ecx
    21f6:	8b 45 e4             	mov    -0x1c(%ebp),%eax
    21f9:	8b 51 2c             	mov    0x2c(%ecx),%edx
    21fc:	8b 79 08             	mov    0x8(%ecx),%edi
    21ff:	01 d0                	add    %edx,%eax
    2201:	31 d2                	xor    %edx,%edx
    2203:	f7 71 0c             	divl   0xc(%ecx)
    2206:	0f af d7             	imul   %edi,%edx
    2209:	01 da                	add    %ebx,%edx
    220b:	8b be ac 00 00 00    	mov    0xac(%esi),%edi
    2211:	8d 04 52             	lea    (%edx,%edx,2),%eax
    2214:	8b 57 2c             	mov    0x2c(%edi),%edx
    2217:	8d 4c c1 30          	lea    0x30(%ecx,%eax,8),%ecx
    221b:	8b 45 e4             	mov    -0x1c(%ebp),%eax
    221e:	01 d0                	add    %edx,%eax
    2220:	31 d2                	xor    %edx,%edx
    2222:	f7 77 0c             	divl   0xc(%edi)
    2225:	8b 47 08             	mov    0x8(%edi),%eax
    2228:	0f af d0             	imul   %eax,%edx
    222b:	01 da                	add    %ebx,%edx
    222d:	8d 04 52             	lea    (%edx,%edx,2),%eax
    2230:	8b 11                	mov    (%ecx),%edx
    2232:	8d 44 c7 30          	lea    0x30(%edi,%eax,8),%eax
    2236:	89 10                	mov    %edx,(%eax)
    2238:	8b 51 04             	mov    0x4(%ecx),%edx
    223b:	89 50 04             	mov    %edx,0x4(%eax)
    223e:	8b 51 08             	mov    0x8(%ecx),%edx
    2241:	89 50 08             	mov    %edx,0x8(%eax)
    2244:	8b 51 0c             	mov    0xc(%ecx),%edx
    2247:	89 50 0c             	mov    %edx,0xc(%eax)
    224a:	8b 51 10             	mov    0x10(%ecx),%edx
    224d:	89 50 10             	mov    %edx,0x10(%eax)
    2250:	8b 41 14             	mov    0x14(%ecx),%eax
    2253:	83 e0 fe             	and    $0xfffffffe,%eax
    2256:	8b 55 e0             	mov    -0x20(%ebp),%edx
    2259:	89 41 14             	mov    %eax,0x14(%ecx)
    225c:	8b 45 e4             	mov    -0x1c(%ebp),%eax
    225f:	89 44 24 08          	mov    %eax,0x8(%esp)
    2263:	8b 45 d8             	mov    -0x28(%ebp),%eax
    2266:	89 5c 24 04          	mov    %ebx,0x4(%esp)
    226a:	89 04 24             	mov    %eax,(%esp)
    226d:	8b 4d dc             	mov    -0x24(%ebp),%ecx
    2270:	89 f0                	mov    %esi,%eax
    2272:	e8 f9 f3 ff ff       	call   1670 <term_update_char>
    2277:	43                   	inc    %ebx
    2278:	8b 86 a0 00 00 00    	mov    0xa0(%esi),%eax
    227e:	39 d8                	cmp    %ebx,%eax
    2280:	0f 87 6a ff ff ff    	ja     21f0 <term_damage+0x80>
    2286:	8b 96 a4 00 00 00    	mov    0xa4(%esi),%edx
    228c:	8b 7d e4             	mov    -0x1c(%ebp),%edi
    228f:	47                   	inc    %edi
    2290:	89 7d e4             	mov    %edi,-0x1c(%ebp)
    2293:	39 55 e4             	cmp    %edx,-0x1c(%ebp)
    2296:	0f 82 44 ff ff ff    	jb     21e0 <term_damage+0x70>
    229c:	8b 45 d8             	mov    -0x28(%ebp),%eax
    229f:	8b 4d dc             	mov    -0x24(%ebp),%ecx
    22a2:	8b 55 e0             	mov    -0x20(%ebp),%edx
    22a5:	89 04 24             	mov    %eax,(%esp)
    22a8:	89 f0                	mov    %esi,%eax
    22aa:	e8 f1 f8 ff ff       	call   1ba0 <term_update_cursor>
    22af:	8b 46 14             	mov    0x14(%esi),%eax
    22b2:	89 04 24             	mov    %eax,(%esp)
    22b5:	e8 b6 18 00 00       	call   3b70 <window_yield>
    22ba:	8b 46 14             	mov    0x14(%esi),%eax
    22bd:	89 04 24             	mov    %eax,(%esp)
    22c0:	e8 cb 17 00 00       	call   3a90 <window_damage>
    22c5:	8b 45 d4             	mov    -0x2c(%ebp),%eax
    22c8:	89 04 24             	mov    %eax,(%esp)
    22cb:	e8 d0 b0 00 00       	call   d3a0 <fibril_mutex_unlock>
    22d0:	83 c4 3c             	add    $0x3c,%esp
    22d3:	5b                   	pop    %ebx
    22d4:	5e                   	pop    %esi
    22d5:	5f                   	pop    %edi
    22d6:	5d                   	pop    %ebp
    22d7:	c3                   	ret    
    22d8:	8b 46 14             	mov    0x14(%esi),%eax
    22db:	89 04 24             	mov    %eax,(%esp)
    22de:	e8 8d 18 00 00       	call   3b70 <window_yield>
    22e3:	8b 45 d4             	mov    -0x2c(%ebp),%eax
    22e6:	89 04 24             	mov    %eax,(%esp)
    22e9:	e8 b2 b0 00 00       	call   d3a0 <fibril_mutex_unlock>
    22ee:	83 c4 3c             	add    $0x3c,%esp
    22f1:	5b                   	pop    %ebx
    22f2:	5e                   	pop    %esi
    22f3:	5f                   	pop    %edi
    22f4:	5d                   	pop    %ebp
    22f5:	c3                   	ret    
    22f6:	8d 76 00             	lea    0x0(%esi),%esi
    22f9:	8d bc 27 00 00 00 00 	lea    0x0(%edi,%eiz,1),%edi

00002300 <terminal_repaint>:
    2300:	55                   	push   %ebp
    2301:	89 e5                	mov    %esp,%ebp
    2303:	8b 45 08             	mov    0x8(%ebp),%eax
    2306:	5d                   	pop    %ebp
    2307:	e9 64 fe ff ff       	jmp    2170 <term_damage>
    230c:	8d 74 26 00          	lea    0x0(%esi,%eiz,1),%esi

00002310 <terminal_rearrange>:
    2310:	55                   	push   %ebp
    2311:	89 e5                	mov    %esp,%ebp
    2313:	57                   	push   %edi
    2314:	56                   	push   %esi
    2315:	53                   	push   %ebx
    2316:	83 ec 2c             	sub    $0x2c,%esp
    2319:	8b 45 10             	mov    0x10(%ebp),%eax
    231c:	8b 5d 08             	mov    0x8(%ebp),%ebx
    231f:	8b 7d 14             	mov    0x14(%ebp),%edi
    2322:	8b 75 18             	mov    0x18(%ebp),%esi
    2325:	89 44 24 08          	mov    %eax,0x8(%esp)
    2329:	8b 45 0c             	mov    0xc(%ebp),%eax
    232c:	89 74 24 10          	mov    %esi,0x10(%esp)
    2330:	89 7c 24 0c          	mov    %edi,0xc(%esp)
    2334:	89 44 24 04          	mov    %eax,0x4(%esp)
    2338:	89 1c 24             	mov    %ebx,(%esp)
    233b:	e8 00 04 00 00       	call   2740 <widget_modify>
    2340:	89 7b 30             	mov    %edi,0x30(%ebx)
    2343:	89 73 34             	mov    %esi,0x34(%ebx)
    2346:	83 c4 2c             	add    $0x2c,%esp
    2349:	89 d8                	mov    %ebx,%eax
    234b:	5b                   	pop    %ebx
    234c:	5e                   	pop    %esi
    234d:	5f                   	pop    %edi
    234e:	5d                   	pop    %ebp
    234f:	e9 1c fe ff ff       	jmp    2170 <term_damage>
    2354:	8d b6 00 00 00 00    	lea    0x0(%esi),%esi
    235a:	8d bf 00 00 00 00    	lea    0x0(%edi),%edi

00002360 <deinit_terminal>:
    2360:	55                   	push   %ebp
    2361:	89 e5                	mov    %esp,%ebp
    2363:	53                   	push   %ebx
    2364:	83 ec 14             	sub    $0x14,%esp
    2367:	8b 5d 08             	mov    0x8(%ebp),%ebx
    236a:	8b 53 68             	mov    0x68(%ebx),%edx
    236d:	85 d2                	test   %edx,%edx
    236f:	74 0f                	je     2380 <deinit_terminal+0x20>
    2371:	8b 43 6c             	mov    0x6c(%ebx),%eax
    2374:	85 c0                	test   %eax,%eax
    2376:	74 08                	je     2380 <deinit_terminal+0x20>
    2378:	89 10                	mov    %edx,(%eax)
    237a:	8b 53 68             	mov    0x68(%ebx),%edx
    237d:	89 42 04             	mov    %eax,0x4(%edx)
    2380:	c7 43 68 00 00 00 00 	movl   $0x0,0x68(%ebx)
    2387:	c7 43 6c 00 00 00 00 	movl   $0x0,0x6c(%ebx)
    238e:	89 1c 24             	mov    %ebx,(%esp)
    2391:	e8 ca 03 00 00       	call   2760 <widget_deinit>
    2396:	8b 83 a8 00 00 00    	mov    0xa8(%ebx),%eax
    239c:	85 c0                	test   %eax,%eax
    239e:	74 08                	je     23a8 <deinit_terminal+0x48>
    23a0:	89 04 24             	mov    %eax,(%esp)
    23a3:	e8 18 ef 00 00       	call   112c0 <chargrid_destroy>
    23a8:	8b 83 ac 00 00 00    	mov    0xac(%ebx),%eax
    23ae:	85 c0                	test   %eax,%eax
    23b0:	74 0e                	je     23c0 <deinit_terminal+0x60>
    23b2:	89 45 08             	mov    %eax,0x8(%ebp)
    23b5:	83 c4 14             	add    $0x14,%esp
    23b8:	5b                   	pop    %ebx
    23b9:	5d                   	pop    %ebp
    23ba:	e9 01 ef 00 00       	jmp    112c0 <chargrid_destroy>
    23bf:	90                   	nop
    23c0:	83 c4 14             	add    $0x14,%esp
    23c3:	5b                   	pop    %ebx
    23c4:	5d                   	pop    %ebp
    23c5:	c3                   	ret    
    23c6:	8d 76 00             	lea    0x0(%esi),%esi
    23c9:	8d bc 27 00 00 00 00 	lea    0x0(%edi,%eiz,1),%edi

000023d0 <init_terminal>:
    23d0:	55                   	push   %ebp
    23d1:	89 e5                	mov    %esp,%ebp
    23d3:	57                   	push   %edi
    23d4:	56                   	push   %esi
    23d5:	53                   	push   %ebx
    23d6:	81 ec 3c 02 00 00    	sub    $0x23c,%esp
    23dc:	8b 5d 08             	mov    0x8(%ebp),%ebx
    23df:	8b 45 0c             	mov    0xc(%ebp),%eax
    23e2:	89 44 24 04          	mov    %eax,0x4(%esp)
    23e6:	89 1c 24             	mov    %ebx,(%esp)
    23e9:	8b 7d 10             	mov    0x10(%ebp),%edi
    23ec:	8b 75 14             	mov    0x14(%ebp),%esi
    23ef:	e8 ac 02 00 00       	call   26a0 <widget_init>
    23f4:	8d 43 58             	lea    0x58(%ebx),%eax
    23f7:	c7 43 68 00 00 00 00 	movl   $0x0,0x68(%ebx)
    23fe:	c7 43 6c 00 00 00 00 	movl   $0x0,0x6c(%ebx)
    2405:	89 04 24             	mov    %eax,(%esp)
    2408:	e8 53 ae 00 00       	call   d260 <fibril_mutex_initialize>
    240d:	8d 43 74             	lea    0x74(%ebx),%eax
    2410:	c7 43 70 00 00 00 00 	movl   $0x0,0x70(%ebx)
    2417:	89 04 24             	mov    %eax,(%esp)
    241a:	e8 a1 b5 01 00       	call   1d9c0 <prodcons_initialize>
    241f:	89 7b 20             	mov    %edi,0x20(%ebx)
    2422:	89 73 24             	mov    %esi,0x24(%ebx)
    2425:	89 7b 30             	mov    %edi,0x30(%ebx)
    2428:	89 73 34             	mov    %esi,0x34(%ebx)
    242b:	c7 83 9c 00 00 00 00 	movl   $0x0,0x9c(%ebx)
    2432:	00 00 00 
    2435:	c1 ef 03             	shr    $0x3,%edi
    2438:	c7 43 40 00 16 00 00 	movl   $0x1600,0x40(%ebx)
    243f:	c1 ee 04             	shr    $0x4,%esi
    2442:	c7 43 44 00 12 00 00 	movl   $0x1200,0x44(%ebx)
    2449:	c7 43 48 10 23 00 00 	movl   $0x2310,0x48(%ebx)
    2450:	c7 43 4c 00 23 00 00 	movl   $0x2300,0x4c(%ebx)
    2457:	c7 43 50 a0 15 00 00 	movl   $0x15a0,0x50(%ebx)
    245e:	c7 43 54 10 12 00 00 	movl   $0x1210,0x54(%ebx)
    2465:	89 bb a0 00 00 00    	mov    %edi,0xa0(%ebx)
    246b:	89 b3 a4 00 00 00    	mov    %esi,0xa4(%ebx)
    2471:	c7 83 a8 00 00 00 00 	movl   $0x0,0xa8(%ebx)
    2478:	00 00 00 
    247b:	c7 83 ac 00 00 00 00 	movl   $0x0,0xac(%ebx)
    2482:	00 00 00 
    2485:	c7 44 24 08 00 00 00 	movl   $0x0,0x8(%esp)
    248c:	00 
    248d:	89 74 24 04          	mov    %esi,0x4(%esp)
    2491:	89 3c 24             	mov    %edi,(%esp)
    2494:	e8 47 ed 00 00       	call   111e0 <chargrid_create>
    2499:	89 83 a8 00 00 00    	mov    %eax,0xa8(%ebx)
    249f:	85 c0                	test   %eax,%eax
    24a1:	0f 84 81 01 00 00    	je     2628 <init_terminal+0x258>
    24a7:	c7 44 24 08 00 00 00 	movl   $0x0,0x8(%esp)
    24ae:	00 
    24af:	8b 83 a4 00 00 00    	mov    0xa4(%ebx),%eax
    24b5:	89 44 24 04          	mov    %eax,0x4(%esp)
    24b9:	8b 83 a0 00 00 00    	mov    0xa0(%ebx),%eax
    24bf:	89 04 24             	mov    %eax,(%esp)
    24c2:	e8 19 ed 00 00       	call   111e0 <chargrid_create>
    24c7:	89 83 ac 00 00 00    	mov    %eax,0xac(%ebx)
    24cd:	85 c0                	test   %eax,%eax
    24cf:	0f 84 53 01 00 00    	je     2628 <init_terminal+0x258>
    24d5:	8b 83 a8 00 00 00    	mov    0xa8(%ebx),%eax
    24db:	89 04 24             	mov    %eax,(%esp)
    24de:	e8 8d f2 00 00       	call   11770 <chargrid_clear>
    24e3:	8b 83 ac 00 00 00    	mov    0xac(%ebx),%eax
    24e9:	89 04 24             	mov    %eax,(%esp)
    24ec:	e8 7f f2 00 00       	call   11770 <chargrid_clear>
    24f1:	c7 83 b0 00 00 00 00 	movl   $0x0,0xb0(%ebx)
    24f8:	00 00 00 
    24fb:	c7 04 24 f0 14 00 00 	movl   $0x14f0,(%esp)
    2502:	e8 49 60 01 00       	call   18550 <async_set_client_connection>
    2507:	8d 83 b8 00 00 00    	lea    0xb8(%ebx),%eax
    250d:	89 04 24             	mov    %eax,(%esp)
    2510:	e8 fb 21 01 00       	call   14710 <con_srvs_init>
    2515:	c7 83 b8 00 00 00 40 	movl   $0x26940,0xb8(%ebx)
    251c:	69 02 00 
    251f:	89 9b bc 00 00 00    	mov    %ebx,0xbc(%ebx)
    2525:	c7 04 24 72 3d 02 00 	movl   $0x23d72,(%esp)
    252c:	e8 0f 4c 00 00       	call   7140 <loc_server_register>
    2531:	85 c0                	test   %eax,%eax
    2533:	0f 85 ef 00 00 00    	jne    2628 <init_terminal+0x258>
    2539:	e8 02 c1 00 00       	call   e640 <task_get_id>
    253e:	8d b5 e8 fe ff ff    	lea    -0x118(%ebp),%esi
    2544:	89 54 24 14          	mov    %edx,0x14(%esp)
    2548:	89 44 24 10          	mov    %eax,0x10(%esp)
    254c:	c7 44 24 0c 72 3d 02 	movl   $0x23d72,0xc(%esp)
    2553:	00 
    2554:	c7 44 24 08 da 3d 02 	movl   $0x23dda,0x8(%esp)
    255b:	00 
    255c:	c7 44 24 04 ff 00 00 	movl   $0xff,0x4(%esp)
    2563:	00 
    2564:	89 34 24             	mov    %esi,(%esp)
    2567:	e8 34 f8 00 00       	call   11da0 <snprintf>
    256c:	8d 83 b4 00 00 00    	lea    0xb4(%ebx),%eax
    2572:	89 44 24 04          	mov    %eax,0x4(%esp)
    2576:	89 34 24             	mov    %esi,(%esp)
    2579:	e8 d2 4f 00 00       	call   7550 <loc_service_register>
    257e:	85 c0                	test   %eax,%eax
    2580:	0f 85 a2 00 00 00    	jne    2628 <init_terminal+0x258>
    2586:	8b 15 7c 69 02 00    	mov    0x2697c,%edx
    258c:	8d 43 68             	lea    0x68(%ebx),%eax
    258f:	8d bd e9 fd ff ff    	lea    -0x217(%ebp),%edi
    2595:	c7 43 6c 7c 69 02 00 	movl   $0x2697c,0x6c(%ebx)
    259c:	89 53 68             	mov    %edx,0x68(%ebx)
    259f:	89 42 04             	mov    %eax,0x4(%edx)
    25a2:	89 74 24 10          	mov    %esi,0x10(%esp)
    25a6:	c7 44 24 0c e2 3d 02 	movl   $0x23de2,0xc(%esp)
    25ad:	00 
    25ae:	c7 44 24 08 e7 3d 02 	movl   $0x23de7,0x8(%esp)
    25b5:	00 
    25b6:	c7 44 24 04 ff 00 00 	movl   $0xff,0x4(%esp)
    25bd:	00 
    25be:	89 3c 24             	mov    %edi,(%esp)
    25c1:	a3 7c 69 02 00       	mov    %eax,0x2697c
    25c6:	e8 d5 f7 00 00       	call   11da0 <snprintf>
    25cb:	8d 85 e4 fd ff ff    	lea    -0x21c(%ebp),%eax
    25d1:	c7 44 24 08 01 00 00 	movl   $0x1,0x8(%esp)
    25d8:	00 
    25d9:	89 44 24 04          	mov    %eax,0x4(%esp)
    25dd:	89 34 24             	mov    %esi,(%esp)
    25e0:	b3 01                	mov    $0x1,%bl
    25e2:	e8 a9 52 00 00       	call   7890 <loc_service_get_id>
    25e7:	85 c0                	test   %eax,%eax
    25e9:	75 47                	jne    2632 <init_terminal+0x262>
    25eb:	c7 44 24 18 00 00 00 	movl   $0x0,0x18(%esp)
    25f2:	00 
    25f3:	c7 44 24 14 ed 3d 02 	movl   $0x23ded,0x14(%esp)
    25fa:	00 
    25fb:	89 7c 24 10          	mov    %edi,0x10(%esp)
    25ff:	c7 44 24 0c f7 3d 02 	movl   $0x23df7,0xc(%esp)
    2606:	00 
    2607:	c7 44 24 08 fa 3d 02 	movl   $0x23dfa,0x8(%esp)
    260e:	00 
    260f:	c7 44 24 04 fa 3d 02 	movl   $0x23dfa,0x4(%esp)
    2616:	00 
    2617:	c7 04 24 00 00 00 00 	movl   $0x0,(%esp)
    261e:	e8 bd c3 00 00       	call   e9e0 <task_spawnl>
    2623:	eb 0d                	jmp    2632 <init_terminal+0x262>
    2625:	8d 76 00             	lea    0x0(%esi),%esi
    2628:	89 1c 24             	mov    %ebx,(%esp)
    262b:	31 db                	xor    %ebx,%ebx
    262d:	e8 2e 01 00 00       	call   2760 <widget_deinit>
    2632:	81 c4 3c 02 00 00    	add    $0x23c,%esp
    2638:	88 d8                	mov    %bl,%al
    263a:	5b                   	pop    %ebx
    263b:	5e                   	pop    %esi
    263c:	5f                   	pop    %edi
    263d:	5d                   	pop    %ebp
    263e:	c3                   	ret    
    263f:	90                   	nop

00002640 <create_terminal>:
    2640:	55                   	push   %ebp
    2641:	89 e5                	mov    %esp,%ebp
    2643:	53                   	push   %ebx
    2644:	83 ec 14             	sub    $0x14,%esp
    2647:	c7 04 24 c8 00 00 00 	movl   $0xc8,(%esp)
    264e:	e8 0d 4c 01 00       	call   17260 <malloc>
    2653:	89 c3                	mov    %eax,%ebx
    2655:	85 c0                	test   %eax,%eax
    2657:	74 21                	je     267a <create_terminal+0x3a>
    2659:	8b 45 10             	mov    0x10(%ebp),%eax
    265c:	89 1c 24             	mov    %ebx,(%esp)
    265f:	89 44 24 0c          	mov    %eax,0xc(%esp)
    2663:	8b 45 0c             	mov    0xc(%ebp),%eax
    2666:	89 44 24 08          	mov    %eax,0x8(%esp)
    266a:	8b 45 08             	mov    0x8(%ebp),%eax
    266d:	89 44 24 04          	mov    %eax,0x4(%esp)
    2671:	e8 5a fd ff ff       	call   23d0 <init_terminal>
    2676:	84 c0                	test   %al,%al
    2678:	74 0e                	je     2688 <create_terminal+0x48>
    267a:	83 c4 14             	add    $0x14,%esp
    267d:	89 d8                	mov    %ebx,%eax
    267f:	5b                   	pop    %ebx
    2680:	5d                   	pop    %ebp
    2681:	c3                   	ret    
    2682:	8d b6 00 00 00 00    	lea    0x0(%esi),%esi
    2688:	89 1c 24             	mov    %ebx,(%esp)
    268b:	31 db                	xor    %ebx,%ebx
    268d:	e8 de 4c 01 00       	call   17370 <free>
    2692:	eb e6                	jmp    267a <create_terminal+0x3a>
    2694:	66 90                	xchg   %ax,%ax
    2696:	66 90                	xchg   %ax,%ax
    2698:	66 90                	xchg   %ax,%ax
    269a:	66 90                	xchg   %ax,%ax
    269c:	66 90                	xchg   %ax,%ax
    269e:	66 90                	xchg   %ax,%ax

000026a0 <widget_init>:
    26a0:	55                   	push   %ebp
    26a1:	89 e5                	mov    %esp,%ebp
    26a3:	8b 45 08             	mov    0x8(%ebp),%eax
    26a6:	8b 55 0c             	mov    0xc(%ebp),%edx
    26a9:	85 d2                	test   %edx,%edx
    26ab:	8d 48 0c             	lea    0xc(%eax),%ecx
    26ae:	c7 00 00 00 00 00    	movl   $0x0,(%eax)
    26b4:	c7 40 04 00 00 00 00 	movl   $0x0,0x4(%eax)
    26bb:	89 48 0c             	mov    %ecx,0xc(%eax)
    26be:	89 48 10             	mov    %ecx,0x10(%eax)
    26c1:	74 65                	je     2728 <widget_init+0x88>
    26c3:	8d 4a 0c             	lea    0xc(%edx),%ecx
    26c6:	89 50 08             	mov    %edx,0x8(%eax)
    26c9:	89 48 04             	mov    %ecx,0x4(%eax)
    26cc:	8b 4a 0c             	mov    0xc(%edx),%ecx
    26cf:	89 08                	mov    %ecx,(%eax)
    26d1:	8b 4a 0c             	mov    0xc(%edx),%ecx
    26d4:	89 42 0c             	mov    %eax,0xc(%edx)
    26d7:	8b 52 14             	mov    0x14(%edx),%edx
    26da:	89 41 04             	mov    %eax,0x4(%ecx)
    26dd:	89 50 14             	mov    %edx,0x14(%eax)
    26e0:	c7 40 18 00 00 00 00 	movl   $0x0,0x18(%eax)
    26e7:	c7 40 1c 00 00 00 00 	movl   $0x0,0x1c(%eax)
    26ee:	c7 40 20 00 00 00 00 	movl   $0x0,0x20(%eax)
    26f5:	c7 40 24 00 00 00 00 	movl   $0x0,0x24(%eax)
    26fc:	c7 40 28 00 00 00 00 	movl   $0x0,0x28(%eax)
    2703:	c7 40 2c 00 00 00 00 	movl   $0x0,0x2c(%eax)
    270a:	c7 40 30 00 00 00 00 	movl   $0x0,0x30(%eax)
    2711:	c7 40 34 00 00 00 00 	movl   $0x0,0x34(%eax)
    2718:	c7 40 38 ff ff ff ff 	movl   $0xffffffff,0x38(%eax)
    271f:	c7 40 3c ff ff ff ff 	movl   $0xffffffff,0x3c(%eax)
    2726:	5d                   	pop    %ebp
    2727:	c3                   	ret    
    2728:	c7 40 08 00 00 00 00 	movl   $0x0,0x8(%eax)
    272f:	c7 40 14 00 00 00 00 	movl   $0x0,0x14(%eax)
    2736:	eb a8                	jmp    26e0 <widget_init+0x40>
    2738:	90                   	nop
    2739:	8d b4 26 00 00 00 00 	lea    0x0(%esi,%eiz,1),%esi

00002740 <widget_modify>:
    2740:	55                   	push   %ebp
    2741:	89 e5                	mov    %esp,%ebp
    2743:	8b 45 08             	mov    0x8(%ebp),%eax
    2746:	8b 55 0c             	mov    0xc(%ebp),%edx
    2749:	89 50 18             	mov    %edx,0x18(%eax)
    274c:	8b 55 10             	mov    0x10(%ebp),%edx
    274f:	89 50 1c             	mov    %edx,0x1c(%eax)
    2752:	8b 55 14             	mov    0x14(%ebp),%edx
    2755:	89 50 20             	mov    %edx,0x20(%eax)
    2758:	8b 55 18             	mov    0x18(%ebp),%edx
    275b:	89 50 24             	mov    %edx,0x24(%eax)
    275e:	5d                   	pop    %ebp
    275f:	c3                   	ret    

00002760 <widget_deinit>:
    2760:	55                   	push   %ebp
    2761:	89 e5                	mov    %esp,%ebp
    2763:	8b 45 08             	mov    0x8(%ebp),%eax
    2766:	8b 50 08             	mov    0x8(%eax),%edx
    2769:	85 d2                	test   %edx,%edx
    276b:	74 21                	je     278e <widget_deinit+0x2e>
    276d:	8b 08                	mov    (%eax),%ecx
    276f:	85 c9                	test   %ecx,%ecx
    2771:	74 0e                	je     2781 <widget_deinit+0x21>
    2773:	8b 50 04             	mov    0x4(%eax),%edx
    2776:	85 d2                	test   %edx,%edx
    2778:	74 07                	je     2781 <widget_deinit+0x21>
    277a:	89 0a                	mov    %ecx,(%edx)
    277c:	8b 08                	mov    (%eax),%ecx
    277e:	89 51 04             	mov    %edx,0x4(%ecx)
    2781:	c7 00 00 00 00 00    	movl   $0x0,(%eax)
    2787:	c7 40 04 00 00 00 00 	movl   $0x0,0x4(%eax)
    278e:	5d                   	pop    %ebp
    278f:	c3                   	ret    

00002790 <root_handle_keyboard_event>:
    2790:	55                   	push   %ebp
    2791:	89 e5                	mov    %esp,%ebp
    2793:	57                   	push   %edi
    2794:	56                   	push   %esi
    2795:	8b 55 08             	mov    0x8(%ebp),%edx
    2798:	8b 42 10             	mov    0x10(%edx),%eax
    279b:	83 c2 0c             	add    $0xc,%edx
    279e:	39 d0                	cmp    %edx,%eax
    27a0:	74 1e                	je     27c0 <root_handle_keyboard_event+0x30>
    27a2:	8d 7d 0c             	lea    0xc(%ebp),%edi
    27a5:	b9 06 00 00 00       	mov    $0x6,%ecx
    27aa:	89 fe                	mov    %edi,%esi
    27ac:	f3 a5                	rep movsl %ds:(%esi),%es:(%edi)
    27ae:	89 45 08             	mov    %eax,0x8(%ebp)
    27b1:	5e                   	pop    %esi
    27b2:	8b 40 50             	mov    0x50(%eax),%eax
    27b5:	5f                   	pop    %edi
    27b6:	5d                   	pop    %ebp
    27b7:	ff e0                	jmp    *%eax
    27b9:	8d b4 26 00 00 00 00 	lea    0x0(%esi,%eiz,1),%esi
    27c0:	5e                   	pop    %esi
    27c1:	5f                   	pop    %edi
    27c2:	5d                   	pop    %ebp
    27c3:	c3                   	ret    
    27c4:	8d b6 00 00 00 00    	lea    0x0(%esi),%esi
    27ca:	8d bf 00 00 00 00    	lea    0x0(%edi),%edi

000027d0 <fetch_input>:
    27d0:	55                   	push   %ebp
    27d1:	89 e5                	mov    %esp,%ebp
    27d3:	57                   	push   %edi
    27d4:	56                   	push   %esi
    27d5:	53                   	push   %ebx
    27d6:	83 ec 2c             	sub    $0x2c,%esp
    27d9:	8b 5d 08             	mov    0x8(%ebp),%ebx
    27dc:	8d 43 10             	lea    0x10(%ebx),%eax
    27df:	89 45 e4             	mov    %eax,-0x1c(%ebp)
    27e2:	c7 04 24 24 00 00 00 	movl   $0x24,(%esp)
    27e9:	e8 72 4a 01 00       	call   17260 <malloc>
    27ee:	89 c7                	mov    %eax,%edi
    27f0:	85 c0                	test   %eax,%eax
    27f2:	74 44                	je     2838 <fetch_input+0x68>
    27f4:	89 44 24 04          	mov    %eax,0x4(%esp)
    27f8:	8b 43 08             	mov    0x8(%ebx),%eax
    27fb:	89 04 24             	mov    %eax,(%esp)
    27fe:	e8 ad 24 01 00       	call   14cb0 <win_get_event>
    2803:	85 c0                	test   %eax,%eax
    2805:	75 29                	jne    2830 <fetch_input+0x60>
    2807:	8b 45 e4             	mov    -0x1c(%ebp),%eax
    280a:	8b 77 08             	mov    0x8(%edi),%esi
    280d:	89 7c 24 04          	mov    %edi,0x4(%esp)
    2811:	89 04 24             	mov    %eax,(%esp)
    2814:	c7 07 00 00 00 00    	movl   $0x0,(%edi)
    281a:	c7 47 04 00 00 00 00 	movl   $0x0,0x4(%edi)
    2821:	e8 ca b1 01 00       	call   1d9f0 <prodcons_produce>
    2826:	83 fe 08             	cmp    $0x8,%esi
    2829:	75 b7                	jne    27e2 <fetch_input+0x12>
    282b:	eb 0b                	jmp    2838 <fetch_input+0x68>
    282d:	8d 76 00             	lea    0x0(%esi),%esi
    2830:	89 3c 24             	mov    %edi,(%esp)
    2833:	e8 38 4b 01 00       	call   17370 <free>
    2838:	83 c4 2c             	add    $0x2c,%esp
    283b:	31 c0                	xor    %eax,%eax
    283d:	5b                   	pop    %ebx
    283e:	5e                   	pop    %esi
    283f:	5f                   	pop    %edi
    2840:	5d                   	pop    %ebp
    2841:	c3                   	ret    
    2842:	8d b4 26 00 00 00 00 	lea    0x0(%esi,%eiz,1),%esi
    2849:	8d bc 27 00 00 00 00 	lea    0x0(%edi,%eiz,1),%edi

00002850 <root_handle_position_event>:
    2850:	55                   	push   %ebp
    2851:	89 e5                	mov    %esp,%ebp
    2853:	57                   	push   %edi
    2854:	56                   	push   %esi
    2855:	53                   	push   %ebx
    2856:	83 ec 4c             	sub    $0x4c,%esp
    2859:	8b 45 08             	mov    0x8(%ebp),%eax
    285c:	8b 55 0c             	mov    0xc(%ebp),%edx
    285f:	8b 5d 10             	mov    0x10(%ebp),%ebx
    2862:	89 55 e4             	mov    %edx,-0x1c(%ebp)
    2865:	8b 48 14             	mov    0x14(%eax),%ecx
    2868:	89 5d e0             	mov    %ebx,-0x20(%ebp)
    286b:	8b 55 14             	mov    0x14(%ebp),%edx
    286e:	8b 75 18             	mov    0x18(%ebp),%esi
    2871:	8b 7d 1c             	mov    0x1c(%ebp),%edi
    2874:	80 79 01 00          	cmpb   $0x0,0x1(%ecx)
    2878:	0f 84 aa 00 00 00    	je     2928 <root_handle_position_event+0xd8>
    287e:	8b 58 20             	mov    0x20(%eax),%ebx
    2881:	83 fa 01             	cmp    $0x1,%edx
    2884:	89 5d d4             	mov    %ebx,-0x2c(%ebp)
    2887:	8b 58 24             	mov    0x24(%eax),%ebx
    288a:	89 5d c8             	mov    %ebx,-0x38(%ebp)
    288d:	0f 84 c5 01 00 00    	je     2a58 <root_handle_position_event+0x208>
    2893:	83 fa 02             	cmp    $0x2,%edx
    2896:	0f 84 2c 02 00 00    	je     2ac8 <root_handle_position_event+0x278>
    289c:	c6 45 dc 00          	movb   $0x0,-0x24(%ebp)
    28a0:	c6 45 d2 00          	movb   $0x0,-0x2e(%ebp)
    28a4:	8b 5d d4             	mov    -0x2c(%ebp),%ebx
    28a7:	83 fe 04             	cmp    $0x4,%esi
    28aa:	0f 96 45 d1          	setbe  -0x2f(%ebp)
    28ae:	83 eb 05             	sub    $0x5,%ebx
    28b1:	39 f3                	cmp    %esi,%ebx
    28b3:	89 5d d8             	mov    %ebx,-0x28(%ebp)
    28b6:	8b 5d c8             	mov    -0x38(%ebp),%ebx
    28b9:	0f 96 45 d0          	setbe  -0x30(%ebp)
    28bd:	83 ff 04             	cmp    $0x4,%edi
    28c0:	0f 96 45 d3          	setbe  -0x2d(%ebp)
    28c4:	83 eb 05             	sub    $0x5,%ebx
    28c7:	39 fb                	cmp    %edi,%ebx
    28c9:	0f 96 45 c8          	setbe  -0x38(%ebp)
    28cd:	83 fe 04             	cmp    $0x4,%esi
    28d0:	76 09                	jbe    28db <root_handle_position_event+0x8b>
    28d2:	39 75 d8             	cmp    %esi,-0x28(%ebp)
    28d5:	0f 87 95 01 00 00    	ja     2a70 <root_handle_position_event+0x220>
    28db:	c6 45 d8 00          	movb   $0x0,-0x28(%ebp)
    28df:	c6 45 d4 00          	movb   $0x0,-0x2c(%ebp)
    28e3:	80 7d d3 00          	cmpb   $0x0,-0x2d(%ebp)
    28e7:	0f 84 9b 00 00 00    	je     2988 <root_handle_position_event+0x138>
    28ed:	80 7d d1 00          	cmpb   $0x0,-0x2f(%ebp)
    28f1:	0f 84 91 00 00 00    	je     2988 <root_handle_position_event+0x138>
    28f7:	80 7d dc 00          	cmpb   $0x0,-0x24(%ebp)
    28fb:	0f 84 21 02 00 00    	je     2b22 <root_handle_position_event+0x2d2>
    2901:	80 7d d2 01          	cmpb   $0x1,-0x2e(%ebp)
    2905:	19 c0                	sbb    %eax,%eax
    2907:	83 e0 24             	and    $0x24,%eax
    290a:	83 c0 0f             	add    $0xf,%eax
    290d:	89 45 10             	mov    %eax,0x10(%ebp)
    2910:	8b 45 e4             	mov    -0x1c(%ebp),%eax
    2913:	89 45 0c             	mov    %eax,0xc(%ebp)
    2916:	8b 41 0c             	mov    0xc(%ecx),%eax
    2919:	89 45 08             	mov    %eax,0x8(%ebp)
    291c:	83 c4 4c             	add    $0x4c,%esp
    291f:	5b                   	pop    %ebx
    2920:	5e                   	pop    %esi
    2921:	5f                   	pop    %edi
    2922:	5d                   	pop    %ebp
    2923:	e9 a8 24 01 00       	jmp    14dd0 <win_grab>
    2928:	8b 58 10             	mov    0x10(%eax),%ebx
    292b:	83 c0 0c             	add    $0xc,%eax
    292e:	89 45 dc             	mov    %eax,-0x24(%ebp)
    2931:	39 d8                	cmp    %ebx,%eax
    2933:	74 48                	je     297d <root_handle_position_event+0x12d>
    2935:	8d 76 00             	lea    0x0(%esi),%esi
    2938:	8b 45 e4             	mov    -0x1c(%ebp),%eax
    293b:	8b 4b 54             	mov    0x54(%ebx),%ecx
    293e:	89 45 0c             	mov    %eax,0xc(%ebp)
    2941:	8b 45 e0             	mov    -0x20(%ebp),%eax
    2944:	89 45 10             	mov    %eax,0x10(%ebp)
    2947:	8b 45 e4             	mov    -0x1c(%ebp),%eax
    294a:	89 44 24 04          	mov    %eax,0x4(%esp)
    294e:	8b 45 e0             	mov    -0x20(%ebp),%eax
    2951:	89 54 24 0c          	mov    %edx,0xc(%esp)
    2955:	89 1c 24             	mov    %ebx,(%esp)
    2958:	89 55 cc             	mov    %edx,-0x34(%ebp)
    295b:	89 44 24 08          	mov    %eax,0x8(%esp)
    295f:	89 74 24 10          	mov    %esi,0x10(%esp)
    2963:	89 7c 24 14          	mov    %edi,0x14(%esp)
    2967:	89 55 14             	mov    %edx,0x14(%ebp)
    296a:	89 75 18             	mov    %esi,0x18(%ebp)
    296d:	89 7d 1c             	mov    %edi,0x1c(%ebp)
    2970:	ff d1                	call   *%ecx
    2972:	8b 5b 04             	mov    0x4(%ebx),%ebx
    2975:	8b 55 cc             	mov    -0x34(%ebp),%edx
    2978:	39 5d dc             	cmp    %ebx,-0x24(%ebp)
    297b:	75 bb                	jne    2938 <root_handle_position_event+0xe8>
    297d:	83 c4 4c             	add    $0x4c,%esp
    2980:	5b                   	pop    %ebx
    2981:	5e                   	pop    %esi
    2982:	5f                   	pop    %edi
    2983:	5d                   	pop    %ebp
    2984:	c3                   	ret    
    2985:	8d 76 00             	lea    0x0(%esi),%esi
    2988:	80 7d c8 00          	cmpb   $0x0,-0x38(%ebp)
    298c:	75 3a                	jne    29c8 <root_handle_position_event+0x178>
    298e:	80 7d d0 00          	cmpb   $0x0,-0x30(%ebp)
    2992:	74 0a                	je     299e <root_handle_position_event+0x14e>
    2994:	80 7d d3 00          	cmpb   $0x0,-0x2d(%ebp)
    2998:	0f 85 42 01 00 00    	jne    2ae0 <root_handle_position_event+0x290>
    299e:	80 7d dc 00          	cmpb   $0x0,-0x24(%ebp)
    29a2:	74 3e                	je     29e2 <root_handle_position_event+0x192>
    29a4:	80 7d d3 00          	cmpb   $0x0,-0x2d(%ebp)
    29a8:	0f 84 ad 01 00 00    	je     2b5b <root_handle_position_event+0x30b>
    29ae:	80 7d d2 01          	cmpb   $0x1,-0x2e(%ebp)
    29b2:	19 c0                	sbb    %eax,%eax
    29b4:	8b 55 e4             	mov    -0x1c(%ebp),%edx
    29b7:	83 e0 18             	and    $0x18,%eax
    29ba:	89 55 0c             	mov    %edx,0xc(%ebp)
    29bd:	83 c0 0a             	add    $0xa,%eax
    29c0:	89 45 10             	mov    %eax,0x10(%ebp)
    29c3:	e9 4e ff ff ff       	jmp    2916 <root_handle_position_event+0xc6>
    29c8:	80 7d d1 00          	cmpb   $0x0,-0x2f(%ebp)
    29cc:	0f 85 ce 00 00 00    	jne    2aa0 <root_handle_position_event+0x250>
    29d2:	80 7d d0 00          	cmpb   $0x0,-0x30(%ebp)
    29d6:	74 c6                	je     299e <root_handle_position_event+0x14e>
    29d8:	80 7d dc 00          	cmpb   $0x0,-0x24(%ebp)
    29dc:	0f 85 26 01 00 00    	jne    2b08 <root_handle_position_event+0x2b8>
    29e2:	80 7d d4 00          	cmpb   $0x0,-0x2c(%ebp)
    29e6:	0f 85 4c 01 00 00    	jne    2b38 <root_handle_position_event+0x2e8>
    29ec:	80 7d d8 00          	cmpb   $0x0,-0x28(%ebp)
    29f0:	0f 85 5c 01 00 00    	jne    2b52 <root_handle_position_event+0x302>
    29f6:	8b 58 10             	mov    0x10(%eax),%ebx
    29f9:	83 c0 0c             	add    $0xc,%eax
    29fc:	89 45 dc             	mov    %eax,-0x24(%ebp)
    29ff:	39 d8                	cmp    %ebx,%eax
    2a01:	0f 84 76 ff ff ff    	je     297d <root_handle_position_event+0x12d>
    2a07:	90                   	nop
    2a08:	8b 45 e4             	mov    -0x1c(%ebp),%eax
    2a0b:	8b 4b 54             	mov    0x54(%ebx),%ecx
    2a0e:	89 45 0c             	mov    %eax,0xc(%ebp)
    2a11:	8b 45 e0             	mov    -0x20(%ebp),%eax
    2a14:	89 45 10             	mov    %eax,0x10(%ebp)
    2a17:	8b 45 e4             	mov    -0x1c(%ebp),%eax
    2a1a:	89 44 24 04          	mov    %eax,0x4(%esp)
    2a1e:	8b 45 e0             	mov    -0x20(%ebp),%eax
    2a21:	89 54 24 0c          	mov    %edx,0xc(%esp)
    2a25:	89 1c 24             	mov    %ebx,(%esp)
    2a28:	89 55 cc             	mov    %edx,-0x34(%ebp)
    2a2b:	89 44 24 08          	mov    %eax,0x8(%esp)
    2a2f:	89 74 24 10          	mov    %esi,0x10(%esp)
    2a33:	89 7c 24 14          	mov    %edi,0x14(%esp)
    2a37:	89 55 14             	mov    %edx,0x14(%ebp)
    2a3a:	89 75 18             	mov    %esi,0x18(%ebp)
    2a3d:	89 7d 1c             	mov    %edi,0x1c(%ebp)
    2a40:	ff d1                	call   *%ecx
    2a42:	8b 5b 04             	mov    0x4(%ebx),%ebx
    2a45:	8b 55 cc             	mov    -0x34(%ebp),%edx
    2a48:	39 5d dc             	cmp    %ebx,-0x24(%ebp)
    2a4b:	75 bb                	jne    2a08 <root_handle_position_event+0x1b8>
    2a4d:	e9 2b ff ff ff       	jmp    297d <root_handle_position_event+0x12d>
    2a52:	8d b6 00 00 00 00    	lea    0x0(%esi),%esi
    2a58:	83 7d e0 01          	cmpl   $0x1,-0x20(%ebp)
    2a5c:	0f 94 45 dc          	sete   -0x24(%ebp)
    2a60:	8a 5d dc             	mov    -0x24(%ebp),%bl
    2a63:	88 5d d2             	mov    %bl,-0x2e(%ebp)
    2a66:	e9 39 fe ff ff       	jmp    28a4 <root_handle_position_event+0x54>
    2a6b:	90                   	nop
    2a6c:	8d 74 26 00          	lea    0x0(%esi,%eiz,1),%esi
    2a70:	83 ff 04             	cmp    $0x4,%edi
    2a73:	0f 86 62 fe ff ff    	jbe    28db <root_handle_position_event+0x8b>
    2a79:	83 ff 18             	cmp    $0x18,%edi
    2a7c:	0f 87 59 fe ff ff    	ja     28db <root_handle_position_event+0x8b>
    2a82:	8b 5d d4             	mov    -0x2c(%ebp),%ebx
    2a85:	83 eb 19             	sub    $0x19,%ebx
    2a88:	39 f3                	cmp    %esi,%ebx
    2a8a:	8a 5d d2             	mov    -0x2e(%ebp),%bl
    2a8d:	88 5d d8             	mov    %bl,-0x28(%ebp)
    2a90:	0f 86 b4 00 00 00    	jbe    2b4a <root_handle_position_event+0x2fa>
    2a96:	c6 45 d4 00          	movb   $0x0,-0x2c(%ebp)
    2a9a:	e9 44 fe ff ff       	jmp    28e3 <root_handle_position_event+0x93>
    2a9f:	90                   	nop
    2aa0:	80 7d dc 00          	cmpb   $0x0,-0x24(%ebp)
    2aa4:	0f 84 38 ff ff ff    	je     29e2 <root_handle_position_event+0x192>
    2aaa:	80 7d d2 01          	cmpb   $0x1,-0x2e(%ebp)
    2aae:	19 c0                	sbb    %eax,%eax
    2ab0:	8b 55 e4             	mov    -0x1c(%ebp),%edx
    2ab3:	83 e0 24             	and    $0x24,%eax
    2ab6:	89 55 0c             	mov    %edx,0xc(%ebp)
    2ab9:	83 c0 0d             	add    $0xd,%eax
    2abc:	89 45 10             	mov    %eax,0x10(%ebp)
    2abf:	e9 52 fe ff ff       	jmp    2916 <root_handle_position_event+0xc6>
    2ac4:	8d 74 26 00          	lea    0x0(%esi,%eiz,1),%esi
    2ac8:	83 7d e0 01          	cmpl   $0x1,-0x20(%ebp)
    2acc:	0f 94 45 dc          	sete   -0x24(%ebp)
    2ad0:	c6 45 d2 00          	movb   $0x0,-0x2e(%ebp)
    2ad4:	e9 cb fd ff ff       	jmp    28a4 <root_handle_position_event+0x54>
    2ad9:	8d b4 26 00 00 00 00 	lea    0x0(%esi,%eiz,1),%esi
    2ae0:	80 7d dc 00          	cmpb   $0x0,-0x24(%ebp)
    2ae4:	0f 84 f8 fe ff ff    	je     29e2 <root_handle_position_event+0x192>
    2aea:	80 7d d2 01          	cmpb   $0x1,-0x2e(%ebp)
    2aee:	19 c0                	sbb    %eax,%eax
    2af0:	83 e0 24             	and    $0x24,%eax
    2af3:	83 c0 0e             	add    $0xe,%eax
    2af6:	89 45 10             	mov    %eax,0x10(%ebp)
    2af9:	8b 45 e4             	mov    -0x1c(%ebp),%eax
    2afc:	89 45 0c             	mov    %eax,0xc(%ebp)
    2aff:	e9 12 fe ff ff       	jmp    2916 <root_handle_position_event+0xc6>
    2b04:	8d 74 26 00          	lea    0x0(%esi,%eiz,1),%esi
    2b08:	80 7d d2 01          	cmpb   $0x1,-0x2e(%ebp)
    2b0c:	19 c0                	sbb    %eax,%eax
    2b0e:	83 e0 24             	and    $0x24,%eax
    2b11:	83 c0 0c             	add    $0xc,%eax
    2b14:	89 45 10             	mov    %eax,0x10(%ebp)
    2b17:	8b 5d e4             	mov    -0x1c(%ebp),%ebx
    2b1a:	89 5d 0c             	mov    %ebx,0xc(%ebp)
    2b1d:	e9 f4 fd ff ff       	jmp    2916 <root_handle_position_event+0xc6>
    2b22:	80 7d c8 00          	cmpb   $0x0,-0x38(%ebp)
    2b26:	0f 84 62 fe ff ff    	je     298e <root_handle_position_event+0x13e>
    2b2c:	e9 b1 fe ff ff       	jmp    29e2 <root_handle_position_event+0x192>
    2b31:	8d b4 26 00 00 00 00 	lea    0x0(%esi,%eiz,1),%esi
    2b38:	8b 41 0c             	mov    0xc(%ecx),%eax
    2b3b:	89 45 08             	mov    %eax,0x8(%ebp)
    2b3e:	83 c4 4c             	add    $0x4c,%esp
    2b41:	5b                   	pop    %ebx
    2b42:	5e                   	pop    %esi
    2b43:	5f                   	pop    %edi
    2b44:	5d                   	pop    %ebp
    2b45:	e9 26 24 01 00       	jmp    14f70 <win_close_request>
    2b4a:	88 5d d4             	mov    %bl,-0x2c(%ebp)
    2b4d:	e9 91 fd ff ff       	jmp    28e3 <root_handle_position_event+0x93>
    2b52:	c7 45 10 03 00 00 00 	movl   $0x3,0x10(%ebp)
    2b59:	eb bc                	jmp    2b17 <root_handle_position_event+0x2c7>
    2b5b:	80 7d d1 00          	cmpb   $0x0,-0x2f(%ebp)
    2b5f:	74 11                	je     2b72 <root_handle_position_event+0x322>
    2b61:	80 7d d2 01          	cmpb   $0x1,-0x2e(%ebp)
    2b65:	19 c0                	sbb    %eax,%eax
    2b67:	83 e0 0c             	and    $0xc,%eax
    2b6a:	83 c0 05             	add    $0x5,%eax
    2b6d:	89 45 10             	mov    %eax,0x10(%ebp)
    2b70:	eb a5                	jmp    2b17 <root_handle_position_event+0x2c7>
    2b72:	80 7d c8 00          	cmpb   $0x0,-0x38(%ebp)
    2b76:	75 24                	jne    2b9c <root_handle_position_event+0x34c>
    2b78:	80 7d d0 00          	cmpb   $0x0,-0x30(%ebp)
    2b7c:	0f 84 60 fe ff ff    	je     29e2 <root_handle_position_event+0x192>
    2b82:	80 7d d2 01          	cmpb   $0x1,-0x2e(%ebp)
    2b86:	19 c0                	sbb    %eax,%eax
    2b88:	8b 55 e4             	mov    -0x1c(%ebp),%edx
    2b8b:	83 e0 0c             	and    $0xc,%eax
    2b8e:	89 55 0c             	mov    %edx,0xc(%ebp)
    2b91:	83 c0 04             	add    $0x4,%eax
    2b94:	89 45 10             	mov    %eax,0x10(%ebp)
    2b97:	e9 7a fd ff ff       	jmp    2916 <root_handle_position_event+0xc6>
    2b9c:	80 7d d2 01          	cmpb   $0x1,-0x2e(%ebp)
    2ba0:	19 c0                	sbb    %eax,%eax
    2ba2:	83 e0 18             	and    $0x18,%eax
    2ba5:	83 c0 08             	add    $0x8,%eax
    2ba8:	89 45 10             	mov    %eax,0x10(%ebp)
    2bab:	8b 45 e4             	mov    -0x1c(%ebp),%eax
    2bae:	89 45 0c             	mov    %eax,0xc(%ebp)
    2bb1:	e9 60 fd ff ff       	jmp    2916 <root_handle_position_event+0xc6>
    2bb6:	8d 76 00             	lea    0x0(%esi),%esi
    2bb9:	8d bc 27 00 00 00 00 	lea    0x0(%edi,%eiz,1),%edi

00002bc0 <root_destroy>:
    2bc0:	55                   	push   %ebp
    2bc1:	89 e5                	mov    %esp,%ebp
    2bc3:	5d                   	pop    %ebp
    2bc4:	e9 97 fb ff ff       	jmp    2760 <widget_deinit>
    2bc9:	8d b4 26 00 00 00 00 	lea    0x0(%esi,%eiz,1),%esi

00002bd0 <root_reconfigure>:
    2bd0:	55                   	push   %ebp
    2bd1:	89 e5                	mov    %esp,%ebp
    2bd3:	57                   	push   %edi
    2bd4:	56                   	push   %esi
    2bd5:	53                   	push   %ebx
    2bd6:	83 ec 2c             	sub    $0x2c,%esp
    2bd9:	8b 5d 08             	mov    0x8(%ebp),%ebx
    2bdc:	8b 43 14             	mov    0x14(%ebx),%eax
    2bdf:	8b 73 10             	mov    0x10(%ebx),%esi
    2be2:	8d 7b 0c             	lea    0xc(%ebx),%edi
    2be5:	80 78 01 00          	cmpb   $0x0,0x1(%eax)
    2be9:	74 6a                	je     2c55 <root_reconfigure+0x85>
    2beb:	39 fe                	cmp    %edi,%esi
    2bed:	74 36                	je     2c25 <root_reconfigure+0x55>
    2bef:	90                   	nop
    2bf0:	8b 43 24             	mov    0x24(%ebx),%eax
    2bf3:	83 e8 1e             	sub    $0x1e,%eax
    2bf6:	89 44 24 10          	mov    %eax,0x10(%esp)
    2bfa:	8b 43 20             	mov    0x20(%ebx),%eax
    2bfd:	83 e8 0a             	sub    $0xa,%eax
    2c00:	89 44 24 0c          	mov    %eax,0xc(%esp)
    2c04:	8b 43 1c             	mov    0x1c(%ebx),%eax
    2c07:	83 c0 19             	add    $0x19,%eax
    2c0a:	89 44 24 08          	mov    %eax,0x8(%esp)
    2c0e:	8b 43 18             	mov    0x18(%ebx),%eax
    2c11:	89 34 24             	mov    %esi,(%esp)
    2c14:	83 c0 05             	add    $0x5,%eax
    2c17:	89 44 24 04          	mov    %eax,0x4(%esp)
    2c1b:	ff 56 48             	call   *0x48(%esi)
    2c1e:	8b 76 04             	mov    0x4(%esi),%esi
    2c21:	39 f7                	cmp    %esi,%edi
    2c23:	75 cb                	jne    2bf0 <root_reconfigure+0x20>
    2c25:	83 c4 2c             	add    $0x2c,%esp
    2c28:	5b                   	pop    %ebx
    2c29:	5e                   	pop    %esi
    2c2a:	5f                   	pop    %edi
    2c2b:	5d                   	pop    %ebp
    2c2c:	c3                   	ret    
    2c2d:	8d 76 00             	lea    0x0(%esi),%esi
    2c30:	8b 43 24             	mov    0x24(%ebx),%eax
    2c33:	89 44 24 10          	mov    %eax,0x10(%esp)
    2c37:	8b 43 20             	mov    0x20(%ebx),%eax
    2c3a:	89 44 24 0c          	mov    %eax,0xc(%esp)
    2c3e:	8b 43 1c             	mov    0x1c(%ebx),%eax
    2c41:	89 44 24 08          	mov    %eax,0x8(%esp)
    2c45:	8b 43 18             	mov    0x18(%ebx),%eax
    2c48:	89 34 24             	mov    %esi,(%esp)
    2c4b:	89 44 24 04          	mov    %eax,0x4(%esp)
    2c4f:	ff 56 48             	call   *0x48(%esi)
    2c52:	8b 76 04             	mov    0x4(%esi),%esi
    2c55:	39 fe                	cmp    %edi,%esi
    2c57:	75 d7                	jne    2c30 <root_reconfigure+0x60>
    2c59:	83 c4 2c             	add    $0x2c,%esp
    2c5c:	5b                   	pop    %ebx
    2c5d:	5e                   	pop    %esi
    2c5e:	5f                   	pop    %edi
    2c5f:	5d                   	pop    %ebp
    2c60:	c3                   	ret    
    2c61:	eb 0d                	jmp    2c70 <paint_internal>
    2c63:	90                   	nop
    2c64:	90                   	nop
    2c65:	90                   	nop
    2c66:	90                   	nop
    2c67:	90                   	nop
    2c68:	90                   	nop
    2c69:	90                   	nop
    2c6a:	90                   	nop
    2c6b:	90                   	nop
    2c6c:	90                   	nop
    2c6d:	90                   	nop
    2c6e:	90                   	nop
    2c6f:	90                   	nop

00002c70 <paint_internal>:
    2c70:	55                   	push   %ebp
    2c71:	89 e5                	mov    %esp,%ebp
    2c73:	57                   	push   %edi
    2c74:	56                   	push   %esi
    2c75:	53                   	push   %ebx
    2c76:	81 ec fc 00 00 00    	sub    $0xfc,%esp
    2c7c:	89 c6                	mov    %eax,%esi
    2c7e:	8b 58 14             	mov    0x14(%eax),%ebx
    2c81:	8d 93 90 00 00 00    	lea    0x90(%ebx),%edx
    2c87:	89 14 24             	mov    %edx,(%esp)
    2c8a:	e8 f1 a5 00 00       	call   d280 <fibril_mutex_lock>
    2c8f:	8b 9b a0 00 00 00    	mov    0xa0(%ebx),%ebx
    2c95:	85 db                	test   %ebx,%ebx
    2c97:	0f 84 ab 02 00 00    	je     2f48 <paint_internal+0x2d8>
    2c9d:	8d 7d 84             	lea    -0x7c(%ebp),%edi
    2ca0:	89 3c 24             	mov    %edi,(%esp)
    2ca3:	e8 f8 20 00 00       	call   4da0 <source_init>
    2ca8:	8d 85 3c ff ff ff    	lea    -0xc4(%ebp),%eax
    2cae:	89 04 24             	mov    %eax,(%esp)
    2cb1:	c7 44 24 0c 10 00 00 	movl   $0x10,0xc(%esp)
    2cb8:	00 
    2cb9:	c7 44 24 08 00 00 00 	movl   $0x0,0x8(%esp)
    2cc0:	00 
    2cc1:	c7 44 24 04 00 00 00 	movl   $0x0,0x4(%esp)
    2cc8:	00 
    2cc9:	e8 92 1c 00 00       	call   4960 <font_init>
    2cce:	89 5c 24 04          	mov    %ebx,0x4(%esp)
    2cd2:	8d 9d 4c ff ff ff    	lea    -0xb4(%ebp),%ebx
    2cd8:	89 1c 24             	mov    %ebx,(%esp)
    2cdb:	e8 70 17 00 00       	call   4450 <drawctx_init>
    2ce0:	89 7c 24 04          	mov    %edi,0x4(%esp)
    2ce4:	89 1c 24             	mov    %ebx,(%esp)
    2ce7:	e8 54 19 00 00       	call   4640 <drawctx_set_source>
    2cec:	8d 85 3c ff ff ff    	lea    -0xc4(%ebp),%eax
    2cf2:	89 44 24 04          	mov    %eax,0x4(%esp)
    2cf6:	89 1c 24             	mov    %ebx,(%esp)
    2cf9:	e8 52 19 00 00       	call   4650 <drawctx_set_font>
    2cfe:	89 3c 24             	mov    %edi,(%esp)
    2d01:	c7 44 24 04 00 00 00 	movl   $0xff000000,0x4(%esp)
    2d08:	ff 
    2d09:	e8 22 21 00 00       	call   4e30 <source_set_color>
    2d0e:	8b 56 24             	mov    0x24(%esi),%edx
    2d11:	89 54 24 10          	mov    %edx,0x10(%esp)
    2d15:	8b 56 1c             	mov    0x1c(%esi),%edx
    2d18:	89 54 24 08          	mov    %edx,0x8(%esp)
    2d1c:	8b 56 18             	mov    0x18(%esi),%edx
    2d1f:	89 54 24 04          	mov    %edx,0x4(%esp)
    2d23:	c7 44 24 0c 05 00 00 	movl   $0x5,0xc(%esp)
    2d2a:	00 
    2d2b:	89 1c 24             	mov    %ebx,(%esp)
    2d2e:	e8 2d 19 00 00       	call   4660 <drawctx_transfer>
    2d33:	8b 56 24             	mov    0x24(%esi),%edx
    2d36:	89 54 24 10          	mov    %edx,0x10(%esp)
    2d3a:	8b 56 1c             	mov    0x1c(%esi),%edx
    2d3d:	8b 46 20             	mov    0x20(%esi),%eax
    2d40:	89 54 24 08          	mov    %edx,0x8(%esp)
    2d44:	8b 56 18             	mov    0x18(%esi),%edx
    2d47:	c7 44 24 0c 05 00 00 	movl   $0x5,0xc(%esp)
    2d4e:	00 
    2d4f:	01 c2                	add    %eax,%edx
    2d51:	89 1c 24             	mov    %ebx,(%esp)
    2d54:	83 ea 05             	sub    $0x5,%edx
    2d57:	89 54 24 04          	mov    %edx,0x4(%esp)
    2d5b:	e8 00 19 00 00       	call   4660 <drawctx_transfer>
    2d60:	8b 56 20             	mov    0x20(%esi),%edx
    2d63:	89 54 24 0c          	mov    %edx,0xc(%esp)
    2d67:	8b 56 1c             	mov    0x1c(%esi),%edx
    2d6a:	89 54 24 08          	mov    %edx,0x8(%esp)
    2d6e:	8b 56 18             	mov    0x18(%esi),%edx
    2d71:	89 54 24 04          	mov    %edx,0x4(%esp)
    2d75:	c7 44 24 10 05 00 00 	movl   $0x5,0x10(%esp)
    2d7c:	00 
    2d7d:	89 1c 24             	mov    %ebx,(%esp)
    2d80:	e8 db 18 00 00       	call   4660 <drawctx_transfer>
    2d85:	8b 56 20             	mov    0x20(%esi),%edx
    2d88:	8b 46 24             	mov    0x24(%esi),%eax
    2d8b:	89 54 24 0c          	mov    %edx,0xc(%esp)
    2d8f:	8b 56 1c             	mov    0x1c(%esi),%edx
    2d92:	c7 44 24 10 05 00 00 	movl   $0x5,0x10(%esp)
    2d99:	00 
    2d9a:	01 c2                	add    %eax,%edx
    2d9c:	89 1c 24             	mov    %ebx,(%esp)
    2d9f:	83 ea 05             	sub    $0x5,%edx
    2da2:	89 54 24 08          	mov    %edx,0x8(%esp)
    2da6:	8b 56 18             	mov    0x18(%esi),%edx
    2da9:	89 54 24 04          	mov    %edx,0x4(%esp)
    2dad:	e8 ae 18 00 00       	call   4660 <drawctx_transfer>
    2db2:	8b 56 14             	mov    0x14(%esi),%edx
    2db5:	80 7a 02 01          	cmpb   $0x1,0x2(%edx)
    2db9:	19 d2                	sbb    %edx,%edx
    2dbb:	89 3c 24             	mov    %edi,(%esp)
    2dbe:	81 e2 44 69 2d 00    	and    $0x2d6944,%edx
    2dc4:	81 ea 90 e6 e6 00    	sub    $0xe6e690,%edx
    2dca:	89 54 24 04          	mov    %edx,0x4(%esp)
    2dce:	e8 5d 20 00 00       	call   4e30 <source_set_color>
    2dd3:	8b 56 20             	mov    0x20(%esi),%edx
    2dd6:	83 ea 0a             	sub    $0xa,%edx
    2dd9:	c7 44 24 10 14 00 00 	movl   $0x14,0x10(%esp)
    2de0:	00 
    2de1:	89 54 24 0c          	mov    %edx,0xc(%esp)
    2de5:	8b 56 1c             	mov    0x1c(%esi),%edx
    2de8:	83 c2 05             	add    $0x5,%edx
    2deb:	89 1c 24             	mov    %ebx,(%esp)
    2dee:	89 54 24 08          	mov    %edx,0x8(%esp)
    2df2:	8b 56 18             	mov    0x18(%esi),%edx
    2df5:	83 c2 05             	add    $0x5,%edx
    2df8:	89 54 24 04          	mov    %edx,0x4(%esp)
    2dfc:	e8 5f 18 00 00       	call   4660 <drawctx_transfer>
    2e01:	8d 95 30 ff ff ff    	lea    -0xd0(%ebp),%edx
    2e07:	89 54 24 0c          	mov    %edx,0xc(%esp)
    2e0b:	8d 95 2c ff ff ff    	lea    -0xd4(%ebp),%edx
    2e11:	89 54 24 08          	mov    %edx,0x8(%esp)
    2e15:	8b 56 14             	mov    0x14(%esi),%edx
    2e18:	8d 85 3c ff ff ff    	lea    -0xc4(%ebp),%eax
    2e1e:	8b 52 04             	mov    0x4(%edx),%edx
    2e21:	89 04 24             	mov    %eax,(%esp)
    2e24:	89 54 24 04          	mov    %edx,0x4(%esp)
    2e28:	e8 63 1c 00 00       	call   4a90 <font_get_box>
    2e2d:	8d 95 38 ff ff ff    	lea    -0xc8(%ebp),%edx
    2e33:	8d 8d 2a ff ff ff    	lea    -0xd6(%ebp),%ecx
    2e39:	8d 85 3c ff ff ff    	lea    -0xc4(%ebp),%eax
    2e3f:	89 54 24 0c          	mov    %edx,0xc(%esp)
    2e43:	8d 95 34 ff ff ff    	lea    -0xcc(%ebp),%edx
    2e49:	89 54 24 08          	mov    %edx,0x8(%esp)
    2e4d:	89 4c 24 04          	mov    %ecx,0x4(%esp)
    2e51:	89 04 24             	mov    %eax,(%esp)
    2e54:	89 8d 24 ff ff ff    	mov    %ecx,-0xdc(%ebp)
    2e5a:	66 c7 85 2a ff ff ff 	movw   $0x78,-0xd6(%ebp)
    2e61:	78 00 
    2e63:	e8 28 1c 00 00       	call   4a90 <font_get_box>
    2e68:	89 3c 24             	mov    %edi,(%esp)
    2e6b:	c7 44 24 04 ff ff ff 	movl   $0xffffffff,0x4(%esp)
    2e72:	ff 
    2e73:	e8 b8 1f 00 00       	call   4e30 <source_set_color>
    2e78:	b8 14 00 00 00       	mov    $0x14,%eax
    2e7d:	89 c2                	mov    %eax,%edx
    2e7f:	8b 8d 38 ff ff ff    	mov    -0xc8(%ebp),%ecx
    2e85:	29 ca                	sub    %ecx,%edx
    2e87:	8b 7e 1c             	mov    0x1c(%esi),%edi
    2e8a:	d1 ea                	shr    %edx
    2e8c:	8b 8d 34 ff ff ff    	mov    -0xcc(%ebp),%ecx
    2e92:	89 1c 24             	mov    %ebx,(%esp)
    2e95:	8d 54 17 05          	lea    0x5(%edi,%edx,1),%edx
    2e99:	8b 7e 18             	mov    0x18(%esi),%edi
    2e9c:	89 54 24 0c          	mov    %edx,0xc(%esp)
    2ea0:	8b 56 20             	mov    0x20(%esi),%edx
    2ea3:	01 d7                	add    %edx,%edi
    2ea5:	89 c2                	mov    %eax,%edx
    2ea7:	29 ca                	sub    %ecx,%edx
    2ea9:	8b 8d 24 ff ff ff    	mov    -0xdc(%ebp),%ecx
    2eaf:	d1 ea                	shr    %edx
    2eb1:	89 4c 24 04          	mov    %ecx,0x4(%esp)
    2eb5:	89 85 24 ff ff ff    	mov    %eax,-0xdc(%ebp)
    2ebb:	8d 54 17 e7          	lea    -0x19(%edi,%edx,1),%edx
    2ebf:	89 54 24 08          	mov    %edx,0x8(%esp)
    2ec3:	e8 48 1a 00 00       	call   4910 <drawctx_print>
    2ec8:	8b 95 2c ff ff ff    	mov    -0xd4(%ebp),%edx
    2ece:	8b 4e 20             	mov    0x20(%esi),%ecx
    2ed1:	8d 7a 1e             	lea    0x1e(%edx),%edi
    2ed4:	39 f9                	cmp    %edi,%ecx
    2ed6:	8b 85 24 ff ff ff    	mov    -0xdc(%ebp),%eax
    2edc:	72 3a                	jb     2f18 <paint_internal+0x2a8>
    2ede:	29 d1                	sub    %edx,%ecx
    2ee0:	89 c7                	mov    %eax,%edi
    2ee2:	8b 85 30 ff ff ff    	mov    -0xd0(%ebp),%eax
    2ee8:	8b 56 18             	mov    0x18(%esi),%edx
    2eeb:	d1 e9                	shr    %ecx
    2eed:	29 c7                	sub    %eax,%edi
    2eef:	d1 ef                	shr    %edi
    2ef1:	01 d1                	add    %edx,%ecx
    2ef3:	8b 56 1c             	mov    0x1c(%esi),%edx
    2ef6:	8d 7c 3a 05          	lea    0x5(%edx,%edi,1),%edi
    2efa:	8b 56 14             	mov    0x14(%esi),%edx
    2efd:	8b 52 04             	mov    0x4(%edx),%edx
    2f00:	85 d2                	test   %edx,%edx
    2f02:	74 14                	je     2f18 <paint_internal+0x2a8>
    2f04:	89 7c 24 0c          	mov    %edi,0xc(%esp)
    2f08:	89 4c 24 08          	mov    %ecx,0x8(%esp)
    2f0c:	89 54 24 04          	mov    %edx,0x4(%esp)
    2f10:	89 1c 24             	mov    %ebx,(%esp)
    2f13:	e8 f8 19 00 00       	call   4910 <drawctx_print>
    2f18:	8d 85 3c ff ff ff    	lea    -0xc4(%ebp),%eax
    2f1e:	89 04 24             	mov    %eax,(%esp)
    2f21:	e8 fa 1a 00 00       	call   4a20 <font_release>
    2f26:	8b 46 14             	mov    0x14(%esi),%eax
    2f29:	05 90 00 00 00       	add    $0x90,%eax
    2f2e:	89 04 24             	mov    %eax,(%esp)
    2f31:	e8 6a a4 00 00       	call   d3a0 <fibril_mutex_unlock>
    2f36:	81 c4 fc 00 00 00    	add    $0xfc,%esp
    2f3c:	5b                   	pop    %ebx
    2f3d:	5e                   	pop    %esi
    2f3e:	5f                   	pop    %edi
    2f3f:	5d                   	pop    %ebp
    2f40:	c3                   	ret    
    2f41:	8d b4 26 00 00 00 00 	lea    0x0(%esi,%eiz,1),%esi
    2f48:	8b 56 14             	mov    0x14(%esi),%edx
    2f4b:	81 c2 90 00 00 00    	add    $0x90,%edx
    2f51:	89 14 24             	mov    %edx,(%esp)
    2f54:	e8 47 a4 00 00       	call   d3a0 <fibril_mutex_unlock>
    2f59:	e9 3f fd ff ff       	jmp    2c9d <paint_internal+0x2d>
    2f5e:	66 90                	xchg   %ax,%ax

00002f60 <root_rearrange>:
    2f60:	55                   	push   %ebp
    2f61:	89 e5                	mov    %esp,%ebp
    2f63:	57                   	push   %edi
    2f64:	56                   	push   %esi
    2f65:	53                   	push   %ebx
    2f66:	83 ec 3c             	sub    $0x3c,%esp
    2f69:	8b 45 10             	mov    0x10(%ebp),%eax
    2f6c:	8b 4d 08             	mov    0x8(%ebp),%ecx
    2f6f:	8b 75 14             	mov    0x14(%ebp),%esi
    2f72:	8b 7d 18             	mov    0x18(%ebp),%edi
    2f75:	89 44 24 08          	mov    %eax,0x8(%esp)
    2f79:	8b 45 0c             	mov    0xc(%ebp),%eax
    2f7c:	89 44 24 04          	mov    %eax,0x4(%esp)
    2f80:	89 0c 24             	mov    %ecx,(%esp)
    2f83:	89 7c 24 10          	mov    %edi,0x10(%esp)
    2f87:	89 74 24 0c          	mov    %esi,0xc(%esp)
    2f8b:	89 4d d8             	mov    %ecx,-0x28(%ebp)
    2f8e:	e8 ad f7 ff ff       	call   2740 <widget_modify>
    2f93:	8b 4d d8             	mov    -0x28(%ebp),%ecx
    2f96:	8b 41 14             	mov    0x14(%ecx),%eax
    2f99:	80 78 01 00          	cmpb   $0x0,0x1(%eax)
    2f9d:	75 41                	jne    2fe0 <root_rearrange+0x80>
    2f9f:	8b 59 10             	mov    0x10(%ecx),%ebx
    2fa2:	83 c1 0c             	add    $0xc,%ecx
    2fa5:	89 4d dc             	mov    %ecx,-0x24(%ebp)
    2fa8:	39 cb                	cmp    %ecx,%ebx
    2faa:	74 28                	je     2fd4 <root_rearrange+0x74>
    2fac:	8d 74 26 00          	lea    0x0(%esi,%eiz,1),%esi
    2fb0:	8b 45 10             	mov    0x10(%ebp),%eax
    2fb3:	89 1c 24             	mov    %ebx,(%esp)
    2fb6:	89 44 24 08          	mov    %eax,0x8(%esp)
    2fba:	8b 45 0c             	mov    0xc(%ebp),%eax
    2fbd:	89 7c 24 10          	mov    %edi,0x10(%esp)
    2fc1:	89 74 24 0c          	mov    %esi,0xc(%esp)
    2fc5:	89 44 24 04          	mov    %eax,0x4(%esp)
    2fc9:	ff 53 48             	call   *0x48(%ebx)
    2fcc:	8b 5b 04             	mov    0x4(%ebx),%ebx
    2fcf:	3b 5d dc             	cmp    -0x24(%ebp),%ebx
    2fd2:	75 dc                	jne    2fb0 <root_rearrange+0x50>
    2fd4:	83 c4 3c             	add    $0x3c,%esp
    2fd7:	5b                   	pop    %ebx
    2fd8:	5e                   	pop    %esi
    2fd9:	5f                   	pop    %edi
    2fda:	5d                   	pop    %ebp
    2fdb:	c3                   	ret    
    2fdc:	8d 74 26 00          	lea    0x0(%esi,%eiz,1),%esi
    2fe0:	89 c8                	mov    %ecx,%eax
    2fe2:	e8 89 fc ff ff       	call   2c70 <paint_internal>
    2fe7:	8b 4d d8             	mov    -0x28(%ebp),%ecx
    2fea:	8b 59 10             	mov    0x10(%ecx),%ebx
    2fed:	83 c1 0c             	add    $0xc,%ecx
    2ff0:	89 4d dc             	mov    %ecx,-0x24(%ebp)
    2ff3:	39 cb                	cmp    %ecx,%ebx
    2ff5:	74 dd                	je     2fd4 <root_rearrange+0x74>
    2ff7:	8b 45 10             	mov    0x10(%ebp),%eax
    2ffa:	83 ef 1e             	sub    $0x1e,%edi
    2ffd:	83 c0 19             	add    $0x19,%eax
    3000:	83 ee 0a             	sub    $0xa,%esi
    3003:	89 45 e0             	mov    %eax,-0x20(%ebp)
    3006:	8b 45 0c             	mov    0xc(%ebp),%eax
    3009:	83 c0 05             	add    $0x5,%eax
    300c:	89 45 e4             	mov    %eax,-0x1c(%ebp)
    300f:	90                   	nop
    3010:	8b 45 e0             	mov    -0x20(%ebp),%eax
    3013:	89 1c 24             	mov    %ebx,(%esp)
    3016:	89 44 24 08          	mov    %eax,0x8(%esp)
    301a:	8b 45 e4             	mov    -0x1c(%ebp),%eax
    301d:	89 7c 24 10          	mov    %edi,0x10(%esp)
    3021:	89 74 24 0c          	mov    %esi,0xc(%esp)
    3025:	89 44 24 04          	mov    %eax,0x4(%esp)
    3029:	ff 53 48             	call   *0x48(%ebx)
    302c:	8b 5b 04             	mov    0x4(%ebx),%ebx
    302f:	39 5d dc             	cmp    %ebx,-0x24(%ebp)
    3032:	75 dc                	jne    3010 <root_rearrange+0xb0>
    3034:	83 c4 3c             	add    $0x3c,%esp
    3037:	5b                   	pop    %ebx
    3038:	5e                   	pop    %esi
    3039:	5f                   	pop    %edi
    303a:	5d                   	pop    %ebp
    303b:	c3                   	ret    
    303c:	8d 74 26 00          	lea    0x0(%esi,%eiz,1),%esi

00003040 <destroy_children>:
    3040:	55                   	push   %ebp
    3041:	89 e5                	mov    %esp,%ebp
    3043:	57                   	push   %edi
    3044:	56                   	push   %esi
    3045:	53                   	push   %ebx
    3046:	83 ec 5c             	sub    $0x5c,%esp
    3049:	89 45 c0             	mov    %eax,-0x40(%ebp)
    304c:	8b 40 10             	mov    0x10(%eax),%eax
    304f:	89 45 d4             	mov    %eax,-0x2c(%ebp)
    3052:	8b 45 c0             	mov    -0x40(%ebp),%eax
    3055:	83 c0 0c             	add    $0xc,%eax
    3058:	89 45 bc             	mov    %eax,-0x44(%ebp)
    305b:	39 45 d4             	cmp    %eax,-0x2c(%ebp)
    305e:	0f 84 b7 01 00 00    	je     321b <destroy_children+0x1db>
    3064:	8b 45 d4             	mov    -0x2c(%ebp),%eax
    3067:	8b 40 10             	mov    0x10(%eax),%eax
    306a:	89 45 d0             	mov    %eax,-0x30(%ebp)
    306d:	8b 45 d4             	mov    -0x2c(%ebp),%eax
    3070:	83 c0 0c             	add    $0xc,%eax
    3073:	89 45 ac             	mov    %eax,-0x54(%ebp)
    3076:	39 45 d0             	cmp    %eax,-0x30(%ebp)
    3079:	0f 84 7e 01 00 00    	je     31fd <destroy_children+0x1bd>
    307f:	8b 45 d0             	mov    -0x30(%ebp),%eax
    3082:	8b 40 10             	mov    0x10(%eax),%eax
    3085:	89 45 cc             	mov    %eax,-0x34(%ebp)
    3088:	8b 45 d0             	mov    -0x30(%ebp),%eax
    308b:	83 c0 0c             	add    $0xc,%eax
    308e:	89 45 b0             	mov    %eax,-0x50(%ebp)
    3091:	39 45 cc             	cmp    %eax,-0x34(%ebp)
    3094:	0f 84 45 01 00 00    	je     31df <destroy_children+0x19f>
    309a:	8b 45 cc             	mov    -0x34(%ebp),%eax
    309d:	8b 40 10             	mov    0x10(%eax),%eax
    30a0:	89 45 c8             	mov    %eax,-0x38(%ebp)
    30a3:	8b 45 cc             	mov    -0x34(%ebp),%eax
    30a6:	83 c0 0c             	add    $0xc,%eax
    30a9:	89 45 b4             	mov    %eax,-0x4c(%ebp)
    30ac:	39 45 c8             	cmp    %eax,-0x38(%ebp)
    30af:	0f 84 0c 01 00 00    	je     31c1 <destroy_children+0x181>
    30b5:	8b 45 c8             	mov    -0x38(%ebp),%eax
    30b8:	8b 40 10             	mov    0x10(%eax),%eax
    30bb:	89 45 c4             	mov    %eax,-0x3c(%ebp)
    30be:	8b 45 c8             	mov    -0x38(%ebp),%eax
    30c1:	83 c0 0c             	add    $0xc,%eax
    30c4:	89 45 b8             	mov    %eax,-0x48(%ebp)
    30c7:	39 45 c4             	cmp    %eax,-0x3c(%ebp)
    30ca:	0f 84 d3 00 00 00    	je     31a3 <destroy_children+0x163>
    30d0:	8b 45 c4             	mov    -0x3c(%ebp),%eax
    30d3:	8b 40 10             	mov    0x10(%eax),%eax
    30d6:	89 45 dc             	mov    %eax,-0x24(%ebp)
    30d9:	8b 45 c4             	mov    -0x3c(%ebp),%eax
    30dc:	83 c0 0c             	add    $0xc,%eax
    30df:	89 45 a8             	mov    %eax,-0x58(%ebp)
    30e2:	39 45 dc             	cmp    %eax,-0x24(%ebp)
    30e5:	0f 84 9a 00 00 00    	je     3185 <destroy_children+0x145>
    30eb:	8b 45 dc             	mov    -0x24(%ebp),%eax
    30ee:	8b 40 10             	mov    0x10(%eax),%eax
    30f1:	89 45 e4             	mov    %eax,-0x1c(%ebp)
    30f4:	8b 45 dc             	mov    -0x24(%ebp),%eax
    30f7:	83 c0 0c             	add    $0xc,%eax
    30fa:	89 45 d8             	mov    %eax,-0x28(%ebp)
    30fd:	39 45 e4             	cmp    %eax,-0x1c(%ebp)
    3100:	74 65                	je     3167 <destroy_children+0x127>
    3102:	8b 45 e4             	mov    -0x1c(%ebp),%eax
    3105:	8b 58 10             	mov    0x10(%eax),%ebx
    3108:	83 c0 0c             	add    $0xc,%eax
    310b:	89 45 e0             	mov    %eax,-0x20(%ebp)
    310e:	39 c3                	cmp    %eax,%ebx
    3110:	74 3b                	je     314d <destroy_children+0x10d>
    3112:	8d b6 00 00 00 00    	lea    0x0(%esi),%esi
    3118:	8b 7b 10             	mov    0x10(%ebx),%edi
    311b:	8d 73 0c             	lea    0xc(%ebx),%esi
    311e:	39 f7                	cmp    %esi,%edi
    3120:	74 1a                	je     313c <destroy_children+0xfc>
    3122:	8d b6 00 00 00 00    	lea    0x0(%esi),%esi
    3128:	89 f8                	mov    %edi,%eax
    312a:	e8 11 ff ff ff       	call   3040 <destroy_children>
    312f:	89 3c 24             	mov    %edi,(%esp)
    3132:	ff 57 40             	call   *0x40(%edi)
    3135:	8b 7b 10             	mov    0x10(%ebx),%edi
    3138:	39 f7                	cmp    %esi,%edi
    313a:	75 ec                	jne    3128 <destroy_children+0xe8>
    313c:	89 1c 24             	mov    %ebx,(%esp)
    313f:	ff 53 40             	call   *0x40(%ebx)
    3142:	8b 45 e4             	mov    -0x1c(%ebp),%eax
    3145:	8b 58 10             	mov    0x10(%eax),%ebx
    3148:	3b 5d e0             	cmp    -0x20(%ebp),%ebx
    314b:	75 cb                	jne    3118 <destroy_children+0xd8>
    314d:	8b 45 e4             	mov    -0x1c(%ebp),%eax
    3150:	89 04 24             	mov    %eax,(%esp)
    3153:	ff 50 40             	call   *0x40(%eax)
    3156:	8b 45 dc             	mov    -0x24(%ebp),%eax
    3159:	8b 40 10             	mov    0x10(%eax),%eax
    315c:	89 45 e4             	mov    %eax,-0x1c(%ebp)
    315f:	8b 45 d8             	mov    -0x28(%ebp),%eax
    3162:	39 45 e4             	cmp    %eax,-0x1c(%ebp)
    3165:	75 9b                	jne    3102 <destroy_children+0xc2>
    3167:	8b 45 dc             	mov    -0x24(%ebp),%eax
    316a:	89 04 24             	mov    %eax,(%esp)
    316d:	ff 50 40             	call   *0x40(%eax)
    3170:	8b 45 c4             	mov    -0x3c(%ebp),%eax
    3173:	8b 40 10             	mov    0x10(%eax),%eax
    3176:	89 45 dc             	mov    %eax,-0x24(%ebp)
    3179:	8b 45 a8             	mov    -0x58(%ebp),%eax
    317c:	39 45 dc             	cmp    %eax,-0x24(%ebp)
    317f:	0f 85 66 ff ff ff    	jne    30eb <destroy_children+0xab>
    3185:	8b 45 c4             	mov    -0x3c(%ebp),%eax
    3188:	89 04 24             	mov    %eax,(%esp)
    318b:	ff 50 40             	call   *0x40(%eax)
    318e:	8b 45 c8             	mov    -0x38(%ebp),%eax
    3191:	8b 40 10             	mov    0x10(%eax),%eax
    3194:	89 45 c4             	mov    %eax,-0x3c(%ebp)
    3197:	8b 45 b8             	mov    -0x48(%ebp),%eax
    319a:	39 45 c4             	cmp    %eax,-0x3c(%ebp)
    319d:	0f 85 2d ff ff ff    	jne    30d0 <destroy_children+0x90>
    31a3:	8b 45 c8             	mov    -0x38(%ebp),%eax
    31a6:	89 04 24             	mov    %eax,(%esp)
    31a9:	ff 50 40             	call   *0x40(%eax)
    31ac:	8b 45 cc             	mov    -0x34(%ebp),%eax
    31af:	8b 40 10             	mov    0x10(%eax),%eax
    31b2:	89 45 c8             	mov    %eax,-0x38(%ebp)
    31b5:	8b 45 b4             	mov    -0x4c(%ebp),%eax
    31b8:	39 45 c8             	cmp    %eax,-0x38(%ebp)
    31bb:	0f 85 f4 fe ff ff    	jne    30b5 <destroy_children+0x75>
    31c1:	8b 45 cc             	mov    -0x34(%ebp),%eax
    31c4:	89 04 24             	mov    %eax,(%esp)
    31c7:	ff 50 40             	call   *0x40(%eax)
    31ca:	8b 45 d0             	mov    -0x30(%ebp),%eax
    31cd:	8b 40 10             	mov    0x10(%eax),%eax
    31d0:	89 45 cc             	mov    %eax,-0x34(%ebp)
    31d3:	8b 45 b0             	mov    -0x50(%ebp),%eax
    31d6:	39 45 cc             	cmp    %eax,-0x34(%ebp)
    31d9:	0f 85 bb fe ff ff    	jne    309a <destroy_children+0x5a>
    31df:	8b 45 d0             	mov    -0x30(%ebp),%eax
    31e2:	89 04 24             	mov    %eax,(%esp)
    31e5:	ff 50 40             	call   *0x40(%eax)
    31e8:	8b 45 d4             	mov    -0x2c(%ebp),%eax
    31eb:	8b 40 10             	mov    0x10(%eax),%eax
    31ee:	89 45 d0             	mov    %eax,-0x30(%ebp)
    31f1:	8b 45 ac             	mov    -0x54(%ebp),%eax
    31f4:	39 45 d0             	cmp    %eax,-0x30(%ebp)
    31f7:	0f 85 82 fe ff ff    	jne    307f <destroy_children+0x3f>
    31fd:	8b 45 d4             	mov    -0x2c(%ebp),%eax
    3200:	89 04 24             	mov    %eax,(%esp)
    3203:	ff 50 40             	call   *0x40(%eax)
    3206:	8b 45 c0             	mov    -0x40(%ebp),%eax
    3209:	8b 40 10             	mov    0x10(%eax),%eax
    320c:	89 45 d4             	mov    %eax,-0x2c(%ebp)
    320f:	8b 45 bc             	mov    -0x44(%ebp),%eax
    3212:	39 45 d4             	cmp    %eax,-0x2c(%ebp)
    3215:	0f 85 49 fe ff ff    	jne    3064 <destroy_children+0x24>
    321b:	83 c4 5c             	add    $0x5c,%esp
    321e:	5b                   	pop    %ebx
    321f:	5e                   	pop    %esi
    3220:	5f                   	pop    %edi
    3221:	5d                   	pop    %ebp
    3222:	c3                   	ret    
    3223:	8d b6 00 00 00 00    	lea    0x0(%esi),%esi
    3229:	8d bc 27 00 00 00 00 	lea    0x0(%edi,%eiz,1),%edi

00003230 <event_loop>:
    3230:	55                   	push   %ebp
    3231:	89 e5                	mov    %esp,%ebp
    3233:	57                   	push   %edi
    3234:	56                   	push   %esi
    3235:	53                   	push   %ebx
    3236:	81 ec 8c 00 00 00    	sub    $0x8c,%esp
    323c:	8b 55 08             	mov    0x8(%ebp),%edx
    323f:	83 c2 10             	add    $0x10,%edx
    3242:	89 55 a4             	mov    %edx,-0x5c(%ebp)
    3245:	8b 55 08             	mov    0x8(%ebp),%edx
    3248:	83 c2 30             	add    $0x30,%edx
    324b:	89 55 a0             	mov    %edx,-0x60(%ebp)
    324e:	8b 55 08             	mov    0x8(%ebp),%edx
    3251:	81 c2 90 00 00 00    	add    $0x90,%edx
    3257:	89 55 9c             	mov    %edx,-0x64(%ebp)
    325a:	8d b6 00 00 00 00    	lea    0x0(%esi),%esi
    3260:	8b 55 a4             	mov    -0x5c(%ebp),%edx
    3263:	89 14 24             	mov    %edx,(%esp)
    3266:	e8 d5 a7 01 00       	call   1da40 <prodcons_consume>
    326b:	89 c3                	mov    %eax,%ebx
    326d:	83 78 08 08          	cmpl   $0x8,0x8(%eax)
    3271:	0f 87 a9 00 00 00    	ja     3320 <event_loop+0xf0>
    3277:	8b 40 08             	mov    0x8(%eax),%eax
    327a:	ff 24 85 60 3e 02 00 	jmp    *0x23e60(,%eax,4)
    3281:	8d b4 26 00 00 00 00 	lea    0x0(%esi,%eiz,1),%esi
    3288:	8b 55 9c             	mov    -0x64(%ebp),%edx
    328b:	89 14 24             	mov    %edx,(%esp)
    328e:	e8 ed 9f 00 00       	call   d280 <fibril_mutex_lock>
    3293:	8d 45 b4             	lea    -0x4c(%ebp),%eax
    3296:	89 44 24 0c          	mov    %eax,0xc(%esp)
    329a:	8d 45 b0             	lea    -0x50(%ebp),%eax
    329d:	8d 4d b8             	lea    -0x48(%ebp),%ecx
    32a0:	89 44 24 08          	mov    %eax,0x8(%esp)
    32a4:	8b 55 08             	mov    0x8(%ebp),%edx
    32a7:	8d 45 ac             	lea    -0x54(%ebp),%eax
    32aa:	89 4c 24 10          	mov    %ecx,0x10(%esp)
    32ae:	89 44 24 04          	mov    %eax,0x4(%esp)
    32b2:	8b 82 a0 00 00 00    	mov    0xa0(%edx),%eax
    32b8:	89 04 24             	mov    %eax,(%esp)
    32bb:	e8 10 20 00 00       	call   52d0 <surface_get_damaged_region>
    32c0:	8b 55 08             	mov    0x8(%ebp),%edx
    32c3:	8b 82 a0 00 00 00    	mov    0xa0(%edx),%eax
    32c9:	89 04 24             	mov    %eax,(%esp)
    32cc:	e8 3f 21 00 00       	call   5410 <surface_reset_damaged_region>
    32d1:	8b 55 9c             	mov    -0x64(%ebp),%edx
    32d4:	89 14 24             	mov    %edx,(%esp)
    32d7:	e8 c4 a0 00 00       	call   d3a0 <fibril_mutex_unlock>
    32dc:	8b 45 b4             	mov    -0x4c(%ebp),%eax
    32df:	85 c0                	test   %eax,%eax
    32e1:	74 3d                	je     3320 <event_loop+0xf0>
    32e3:	8b 55 b8             	mov    -0x48(%ebp),%edx
    32e6:	85 d2                	test   %edx,%edx
    32e8:	74 36                	je     3320 <event_loop+0xf0>
    32ea:	89 44 24 0c          	mov    %eax,0xc(%esp)
    32ee:	8b 45 b0             	mov    -0x50(%ebp),%eax
    32f1:	89 54 24 10          	mov    %edx,0x10(%esp)
    32f5:	89 44 24 08          	mov    %eax,0x8(%esp)
    32f9:	8b 55 08             	mov    0x8(%ebp),%edx
    32fc:	8b 45 ac             	mov    -0x54(%ebp),%eax
    32ff:	89 44 24 04          	mov    %eax,0x4(%esp)
    3303:	8b 42 0c             	mov    0xc(%edx),%eax
    3306:	89 04 24             	mov    %eax,(%esp)
    3309:	e8 42 1a 01 00       	call   14d50 <win_damage>
    330e:	eb 10                	jmp    3320 <event_loop+0xf0>
    3310:	8b 55 a0             	mov    -0x60(%ebp),%edx
    3313:	89 14 24             	mov    %edx,(%esp)
    3316:	8b 55 08             	mov    0x8(%ebp),%edx
    3319:	ff 52 7c             	call   *0x7c(%edx)
    331c:	8d 74 26 00          	lea    0x0(%esi,%eiz,1),%esi
    3320:	89 1c 24             	mov    %ebx,(%esp)
    3323:	e8 48 40 01 00       	call   17370 <free>
    3328:	e9 33 ff ff ff       	jmp    3260 <event_loop+0x30>
    332d:	8d 76 00             	lea    0x0(%esi),%esi
    3330:	8b 73 0c             	mov    0xc(%ebx),%esi
    3333:	8b 7b 10             	mov    0x10(%ebx),%edi
    3336:	83 fe 31             	cmp    $0x31,%esi
    3339:	0f 86 91 03 00 00    	jbe    36d0 <event_loop+0x4a0>
    333f:	83 ff 1d             	cmp    $0x1d,%edi
    3342:	0f 86 88 03 00 00    	jbe    36d0 <event_loop+0x4a0>
    3348:	c7 44 24 0c 01 00 00 	movl   $0x1,0xc(%esp)
    334f:	00 
    3350:	c7 44 24 08 00 00 00 	movl   $0x0,0x8(%esp)
    3357:	00 
    3358:	89 7c 24 04          	mov    %edi,0x4(%esp)
    335c:	89 34 24             	mov    %esi,(%esp)
    335f:	e8 ac 1d 00 00       	call   5110 <surface_create>
    3364:	85 c0                	test   %eax,%eax
    3366:	74 b8                	je     3320 <event_loop+0xf0>
    3368:	8b 55 9c             	mov    -0x64(%ebp),%edx
    336b:	89 45 94             	mov    %eax,-0x6c(%ebp)
    336e:	89 14 24             	mov    %edx,(%esp)
    3371:	e8 0a 9f 00 00       	call   d280 <fibril_mutex_lock>
    3376:	8b 55 08             	mov    0x8(%ebp),%edx
    3379:	8b 92 a0 00 00 00    	mov    0xa0(%edx),%edx
    337f:	8b 45 94             	mov    -0x6c(%ebp),%eax
    3382:	89 55 98             	mov    %edx,-0x68(%ebp)
    3385:	8b 55 08             	mov    0x8(%ebp),%edx
    3388:	89 82 a0 00 00 00    	mov    %eax,0xa0(%edx)
    338e:	8b 55 9c             	mov    -0x64(%ebp),%edx
    3391:	89 14 24             	mov    %edx,(%esp)
    3394:	e8 07 a0 00 00       	call   d3a0 <fibril_mutex_unlock>
    3399:	8b 55 a0             	mov    -0x60(%ebp),%edx
    339c:	89 14 24             	mov    %edx,(%esp)
    339f:	8b 55 08             	mov    0x8(%ebp),%edx
    33a2:	89 7c 24 10          	mov    %edi,0x10(%esp)
    33a6:	89 74 24 0c          	mov    %esi,0xc(%esp)
    33aa:	c7 44 24 08 00 00 00 	movl   $0x0,0x8(%esp)
    33b1:	00 
    33b2:	c7 44 24 04 00 00 00 	movl   $0x0,0x4(%esp)
    33b9:	00 
    33ba:	ff 52 78             	call   *0x78(%edx)
    33bd:	8b 55 9c             	mov    -0x64(%ebp),%edx
    33c0:	89 14 24             	mov    %edx,(%esp)
    33c3:	e8 b8 9e 00 00       	call   d280 <fibril_mutex_lock>
    33c8:	8b 55 08             	mov    0x8(%ebp),%edx
    33cb:	8b 8a a0 00 00 00    	mov    0xa0(%edx),%ecx
    33d1:	89 0c 24             	mov    %ecx,(%esp)
    33d4:	e8 37 20 00 00       	call   5410 <surface_reset_damaged_region>
    33d9:	8b 55 9c             	mov    -0x64(%ebp),%edx
    33dc:	89 14 24             	mov    %edx,(%esp)
    33df:	e8 bc 9f 00 00       	call   d3a0 <fibril_mutex_unlock>
    33e4:	8b 45 94             	mov    -0x6c(%ebp),%eax
    33e7:	89 04 24             	mov    %eax,(%esp)
    33ea:	e8 61 1e 00 00       	call   5250 <surface_direct_access>
    33ef:	8b 55 08             	mov    0x8(%ebp),%edx
    33f2:	89 44 24 0c          	mov    %eax,0xc(%esp)
    33f6:	89 7c 24 08          	mov    %edi,0x8(%esp)
    33fa:	89 74 24 04          	mov    %esi,0x4(%esp)
    33fe:	8b 42 0c             	mov    0xc(%edx),%eax
    3401:	89 04 24             	mov    %eax,(%esp)
    3404:	e8 47 1a 01 00       	call   14e50 <win_resize>
    3409:	85 c0                	test   %eax,%eax
    340b:	0f 84 0f 03 00 00    	je     3720 <event_loop+0x4f0>
    3411:	8b 45 98             	mov    -0x68(%ebp),%eax
    3414:	c7 45 b4 00 00 00 00 	movl   $0x0,-0x4c(%ebp)
    341b:	c7 45 b8 00 00 00 00 	movl   $0x0,-0x48(%ebp)
    3422:	85 c0                	test   %eax,%eax
    3424:	74 19                	je     343f <event_loop+0x20f>
    3426:	8d 4d b8             	lea    -0x48(%ebp),%ecx
    3429:	8d 45 b4             	lea    -0x4c(%ebp),%eax
    342c:	8b 55 98             	mov    -0x68(%ebp),%edx
    342f:	89 4c 24 08          	mov    %ecx,0x8(%esp)
    3433:	89 44 24 04          	mov    %eax,0x4(%esp)
    3437:	89 14 24             	mov    %edx,(%esp)
    343a:	e8 31 1e 00 00       	call   5270 <surface_get_resolution>
    343f:	8b 55 9c             	mov    -0x64(%ebp),%edx
    3442:	89 14 24             	mov    %edx,(%esp)
    3445:	e8 36 9e 00 00       	call   d280 <fibril_mutex_lock>
    344a:	8b 55 08             	mov    0x8(%ebp),%edx
    344d:	8b 4d 98             	mov    -0x68(%ebp),%ecx
    3450:	8b b2 a0 00 00 00    	mov    0xa0(%edx),%esi
    3456:	89 8a a0 00 00 00    	mov    %ecx,0xa0(%edx)
    345c:	8b 55 9c             	mov    -0x64(%ebp),%edx
    345f:	89 14 24             	mov    %edx,(%esp)
    3462:	e8 39 9f 00 00       	call   d3a0 <fibril_mutex_unlock>
    3467:	8b 45 b8             	mov    -0x48(%ebp),%eax
    346a:	8b 55 a0             	mov    -0x60(%ebp),%edx
    346d:	89 44 24 10          	mov    %eax,0x10(%esp)
    3471:	89 14 24             	mov    %edx,(%esp)
    3474:	8b 45 b4             	mov    -0x4c(%ebp),%eax
    3477:	8b 55 08             	mov    0x8(%ebp),%edx
    347a:	89 44 24 0c          	mov    %eax,0xc(%esp)
    347e:	c7 44 24 08 00 00 00 	movl   $0x0,0x8(%esp)
    3485:	00 
    3486:	c7 44 24 04 00 00 00 	movl   $0x0,0x4(%esp)
    348d:	00 
    348e:	ff 52 78             	call   *0x78(%edx)
    3491:	8b 55 08             	mov    0x8(%ebp),%edx
    3494:	8b ba a0 00 00 00    	mov    0xa0(%edx),%edi
    349a:	85 ff                	test   %edi,%edi
    349c:	74 27                	je     34c5 <event_loop+0x295>
    349e:	8b 55 9c             	mov    -0x64(%ebp),%edx
    34a1:	89 14 24             	mov    %edx,(%esp)
    34a4:	e8 d7 9d 00 00       	call   d280 <fibril_mutex_lock>
    34a9:	8b 55 08             	mov    0x8(%ebp),%edx
    34ac:	8b 82 a0 00 00 00    	mov    0xa0(%edx),%eax
    34b2:	89 04 24             	mov    %eax,(%esp)
    34b5:	e8 56 1f 00 00       	call   5410 <surface_reset_damaged_region>
    34ba:	8b 55 9c             	mov    -0x64(%ebp),%edx
    34bd:	89 14 24             	mov    %edx,(%esp)
    34c0:	e8 db 9e 00 00       	call   d3a0 <fibril_mutex_unlock>
    34c5:	89 34 24             	mov    %esi,(%esp)
    34c8:	e8 33 1d 00 00       	call   5200 <surface_destroy>
    34cd:	e9 4e fe ff ff       	jmp    3320 <event_loop+0xf0>
    34d2:	8d b6 00 00 00 00    	lea    0x0(%esi),%esi
    34d8:	8b 55 08             	mov    0x8(%ebp),%edx
    34db:	80 7a 02 00          	cmpb   $0x0,0x2(%edx)
    34df:	0f 84 3b fe ff ff    	je     3320 <event_loop+0xf0>
    34e5:	c6 42 02 00          	movb   $0x0,0x2(%edx)
    34e9:	8b 55 a0             	mov    -0x60(%ebp),%edx
    34ec:	89 14 24             	mov    %edx,(%esp)
    34ef:	8b 55 08             	mov    0x8(%ebp),%edx
    34f2:	ff 52 7c             	call   *0x7c(%edx)
    34f5:	e9 26 fe ff ff       	jmp    3320 <event_loop+0xf0>
    34fa:	8d b6 00 00 00 00    	lea    0x0(%esi),%esi
    3500:	8b 55 08             	mov    0x8(%ebp),%edx
    3503:	80 7a 02 00          	cmpb   $0x0,0x2(%edx)
    3507:	0f 85 13 fe ff ff    	jne    3320 <event_loop+0xf0>
    350d:	c6 42 02 01          	movb   $0x1,0x2(%edx)
    3511:	8b 55 a0             	mov    -0x60(%ebp),%edx
    3514:	89 14 24             	mov    %edx,(%esp)
    3517:	8b 55 08             	mov    0x8(%ebp),%edx
    351a:	ff 52 7c             	call   *0x7c(%edx)
    351d:	e9 fe fd ff ff       	jmp    3320 <event_loop+0xf0>
    3522:	8d b6 00 00 00 00    	lea    0x0(%esi),%esi
    3528:	8b 73 14             	mov    0x14(%ebx),%esi
    352b:	89 74 24 04          	mov    %esi,0x4(%esp)
    352f:	8b 43 0c             	mov    0xc(%ebx),%eax
    3532:	89 04 24             	mov    %eax,(%esp)
    3535:	ff 53 10             	call   *0x10(%ebx)
    3538:	89 34 24             	mov    %esi,(%esp)
    353b:	e8 30 3e 01 00       	call   17370 <free>
    3540:	e9 db fd ff ff       	jmp    3320 <event_loop+0xf0>
    3545:	8d 76 00             	lea    0x0(%esi),%esi
    3548:	8b 55 08             	mov    0x8(%ebp),%edx
    354b:	80 7a 02 00          	cmpb   $0x0,0x2(%edx)
    354f:	0f 84 b3 01 00 00    	je     3708 <event_loop+0x4d8>
    3555:	8b 4b 14             	mov    0x14(%ebx),%ecx
    3558:	8b 43 18             	mov    0x18(%ebx),%eax
    355b:	89 4d 90             	mov    %ecx,-0x70(%ebp)
    355e:	89 4d c4             	mov    %ecx,-0x3c(%ebp)
    3561:	8b 4d 08             	mov    0x8(%ebp),%ecx
    3564:	8b 7b 0c             	mov    0xc(%ebx),%edi
    3567:	8b 73 10             	mov    0x10(%ebx),%esi
    356a:	8b 53 1c             	mov    0x1c(%ebx),%edx
    356d:	89 45 98             	mov    %eax,-0x68(%ebp)
    3570:	89 45 c8             	mov    %eax,-0x38(%ebp)
    3573:	8b 81 88 00 00 00    	mov    0x88(%ecx),%eax
    3579:	89 7d bc             	mov    %edi,-0x44(%ebp)
    357c:	89 75 c0             	mov    %esi,-0x40(%ebp)
    357f:	89 55 cc             	mov    %edx,-0x34(%ebp)
    3582:	89 7c 24 04          	mov    %edi,0x4(%esp)
    3586:	89 74 24 08          	mov    %esi,0x8(%esp)
    358a:	85 c0                	test   %eax,%eax
    358c:	0f 84 c6 01 00 00    	je     3758 <event_loop+0x528>
    3592:	8b 4d 90             	mov    -0x70(%ebp),%ecx
    3595:	89 54 24 14          	mov    %edx,0x14(%esp)
    3599:	89 4c 24 0c          	mov    %ecx,0xc(%esp)
    359d:	8b 4d 98             	mov    -0x68(%ebp),%ecx
    35a0:	89 4c 24 10          	mov    %ecx,0x10(%esp)
    35a4:	89 04 24             	mov    %eax,(%esp)
    35a7:	ff 50 54             	call   *0x54(%eax)
    35aa:	e9 71 fd ff ff       	jmp    3320 <event_loop+0xf0>
    35af:	90                   	nop
    35b0:	8b 55 08             	mov    0x8(%ebp),%edx
    35b3:	8b 45 a0             	mov    -0x60(%ebp),%eax
    35b6:	0f b6 3a             	movzbl (%edx),%edi
    35b9:	e8 82 fa ff ff       	call   3040 <destroy_children>
    35be:	8b 55 a0             	mov    -0x60(%ebp),%edx
    35c1:	89 14 24             	mov    %edx,(%esp)
    35c4:	8b 55 08             	mov    0x8(%ebp),%edx
    35c7:	ff 52 70             	call   *0x70(%edx)
    35ca:	8b 55 08             	mov    0x8(%ebp),%edx
    35cd:	8b 42 0c             	mov    0xc(%edx),%eax
    35d0:	c7 82 88 00 00 00 00 	movl   $0x0,0x88(%edx)
    35d7:	00 00 00 
    35da:	c7 82 8c 00 00 00 00 	movl   $0x0,0x8c(%edx)
    35e1:	00 00 00 
    35e4:	89 04 24             	mov    %eax,(%esp)
    35e7:	e8 04 19 01 00       	call   14ef0 <win_close>
    35ec:	8b 55 08             	mov    0x8(%ebp),%edx
    35ef:	8b 42 08             	mov    0x8(%edx),%eax
    35f2:	89 04 24             	mov    %eax,(%esp)
    35f5:	e8 a6 70 01 00       	call   1a6a0 <async_hangup>
    35fa:	8b 55 08             	mov    0x8(%ebp),%edx
    35fd:	8b 42 0c             	mov    0xc(%edx),%eax
    3600:	89 04 24             	mov    %eax,(%esp)
    3603:	e8 98 70 01 00       	call   1a6a0 <async_hangup>
    3608:	8b 55 08             	mov    0x8(%ebp),%edx
    360b:	89 d6                	mov    %edx,%esi
    360d:	8b 42 2c             	mov    0x2c(%edx),%eax
    3610:	83 c6 28             	add    $0x28,%esi
    3613:	39 f0                	cmp    %esi,%eax
    3615:	74 37                	je     364e <event_loop+0x41e>
    3617:	89 5d a4             	mov    %ebx,-0x5c(%ebp)
    361a:	8b 5d 08             	mov    0x8(%ebp),%ebx
    361d:	8d 76 00             	lea    0x0(%esi),%esi
    3620:	8b 08                	mov    (%eax),%ecx
    3622:	85 c9                	test   %ecx,%ecx
    3624:	74 0e                	je     3634 <event_loop+0x404>
    3626:	8b 50 04             	mov    0x4(%eax),%edx
    3629:	85 d2                	test   %edx,%edx
    362b:	74 07                	je     3634 <event_loop+0x404>
    362d:	89 0a                	mov    %ecx,(%edx)
    362f:	8b 08                	mov    (%eax),%ecx
    3631:	89 51 04             	mov    %edx,0x4(%ecx)
    3634:	c7 40 04 00 00 00 00 	movl   $0x0,0x4(%eax)
    363b:	c7 00 00 00 00 00    	movl   $0x0,(%eax)
    3641:	8b 43 2c             	mov    0x2c(%ebx),%eax
    3644:	39 f0                	cmp    %esi,%eax
    3646:	75 d8                	jne    3620 <event_loop+0x3f0>
    3648:	8b 5d a4             	mov    -0x5c(%ebp),%ebx
    364b:	8b 55 08             	mov    0x8(%ebp),%edx
    364e:	8b 82 a0 00 00 00    	mov    0xa0(%edx),%eax
    3654:	85 c0                	test   %eax,%eax
    3656:	74 08                	je     3660 <event_loop+0x430>
    3658:	89 04 24             	mov    %eax,(%esp)
    365b:	e8 a0 1b 00 00       	call   5200 <surface_destroy>
    3660:	8b 55 08             	mov    0x8(%ebp),%edx
    3663:	8b 42 04             	mov    0x4(%edx),%eax
    3666:	89 04 24             	mov    %eax,(%esp)
    3669:	e8 02 3d 01 00       	call   17370 <free>
    366e:	8b 55 08             	mov    0x8(%ebp),%edx
    3671:	89 14 24             	mov    %edx,(%esp)
    3674:	e8 f7 3c 01 00       	call   17370 <free>
    3679:	89 1c 24             	mov    %ebx,(%esp)
    367c:	e8 ef 3c 01 00       	call   17370 <free>
    3681:	89 f9                	mov    %edi,%ecx
    3683:	84 c9                	test   %cl,%cl
    3685:	0f 85 f3 00 00 00    	jne    377e <event_loop+0x54e>
    368b:	81 c4 8c 00 00 00    	add    $0x8c,%esp
    3691:	31 c0                	xor    %eax,%eax
    3693:	5b                   	pop    %ebx
    3694:	5e                   	pop    %esi
    3695:	5f                   	pop    %edi
    3696:	5d                   	pop    %ebp
    3697:	c3                   	ret    
    3698:	8d 55 d0             	lea    -0x30(%ebp),%edx
    369b:	8d 73 0c             	lea    0xc(%ebx),%esi
    369e:	b9 06 00 00 00       	mov    $0x6,%ecx
    36a3:	89 d7                	mov    %edx,%edi
    36a5:	f3 a5                	rep movsl %ds:(%esi),%es:(%edi)
    36a7:	8b 4d 08             	mov    0x8(%ebp),%ecx
    36aa:	8d 7c 24 04          	lea    0x4(%esp),%edi
    36ae:	89 d6                	mov    %edx,%esi
    36b0:	8b 81 8c 00 00 00    	mov    0x8c(%ecx),%eax
    36b6:	b9 06 00 00 00       	mov    $0x6,%ecx
    36bb:	f3 a5                	rep movsl %ds:(%esi),%es:(%edi)
    36bd:	85 c0                	test   %eax,%eax
    36bf:	74 7f                	je     3740 <event_loop+0x510>
    36c1:	89 04 24             	mov    %eax,(%esp)
    36c4:	ff 50 50             	call   *0x50(%eax)
    36c7:	e9 54 fc ff ff       	jmp    3320 <event_loop+0xf0>
    36cc:	8d 74 26 00          	lea    0x0(%esi,%eiz,1),%esi
    36d0:	8b 55 08             	mov    0x8(%ebp),%edx
    36d3:	c7 44 24 10 00 00 00 	movl   $0x0,0x10(%esp)
    36da:	00 
    36db:	c7 44 24 0c 00 00 00 	movl   $0x0,0xc(%esp)
    36e2:	00 
    36e3:	c7 44 24 08 00 00 00 	movl   $0x0,0x8(%esp)
    36ea:	00 
    36eb:	c7 44 24 04 00 00 00 	movl   $0x0,0x4(%esp)
    36f2:	00 
    36f3:	8b 42 0c             	mov    0xc(%edx),%eax
    36f6:	89 04 24             	mov    %eax,(%esp)
    36f9:	e8 52 16 01 00       	call   14d50 <win_damage>
    36fe:	e9 1d fc ff ff       	jmp    3320 <event_loop+0xf0>
    3703:	90                   	nop
    3704:	8d 74 26 00          	lea    0x0(%esi,%eiz,1),%esi
    3708:	c6 42 02 01          	movb   $0x1,0x2(%edx)
    370c:	8b 55 a0             	mov    -0x60(%ebp),%edx
    370f:	89 14 24             	mov    %edx,(%esp)
    3712:	8b 55 08             	mov    0x8(%ebp),%edx
    3715:	ff 52 7c             	call   *0x7c(%edx)
    3718:	e9 38 fe ff ff       	jmp    3555 <event_loop+0x325>
    371d:	8d 76 00             	lea    0x0(%esi),%esi
    3720:	8b 75 98             	mov    -0x68(%ebp),%esi
    3723:	85 f6                	test   %esi,%esi
    3725:	0f 84 f5 fb ff ff    	je     3320 <event_loop+0xf0>
    372b:	8b 4d 98             	mov    -0x68(%ebp),%ecx
    372e:	89 0c 24             	mov    %ecx,(%esp)
    3731:	e8 ca 1a 00 00       	call   5200 <surface_destroy>
    3736:	e9 e5 fb ff ff       	jmp    3320 <event_loop+0xf0>
    373b:	90                   	nop
    373c:	8d 74 26 00          	lea    0x0(%esi,%eiz,1),%esi
    3740:	8b 55 a0             	mov    -0x60(%ebp),%edx
    3743:	89 14 24             	mov    %edx,(%esp)
    3746:	8b 55 08             	mov    0x8(%ebp),%edx
    3749:	ff 92 80 00 00 00    	call   *0x80(%edx)
    374f:	e9 cc fb ff ff       	jmp    3320 <event_loop+0xf0>
    3754:	8d 74 26 00          	lea    0x0(%esi,%eiz,1),%esi
    3758:	89 54 24 14          	mov    %edx,0x14(%esp)
    375c:	8b 55 a0             	mov    -0x60(%ebp),%edx
    375f:	8b 45 90             	mov    -0x70(%ebp),%eax
    3762:	8b 4d 98             	mov    -0x68(%ebp),%ecx
    3765:	89 14 24             	mov    %edx,(%esp)
    3768:	8b 55 08             	mov    0x8(%ebp),%edx
    376b:	89 44 24 0c          	mov    %eax,0xc(%esp)
    376f:	89 4c 24 10          	mov    %ecx,0x10(%esp)
    3773:	ff 92 84 00 00 00    	call   *0x84(%edx)
    3779:	e9 a2 fb ff ff       	jmp    3320 <event_loop+0xf0>
    377e:	c7 04 24 00 00 00 00 	movl   $0x0,(%esp)
    3785:	e8 b6 2c 00 00       	call   6440 <exit>
    378a:	8d b6 00 00 00 00    	lea    0x0(%esi),%esi

00003790 <root_repaint>:
    3790:	55                   	push   %ebp
    3791:	89 e5                	mov    %esp,%ebp
    3793:	57                   	push   %edi
    3794:	56                   	push   %esi
    3795:	53                   	push   %ebx
    3796:	83 ec 1c             	sub    $0x1c,%esp
    3799:	8b 7d 08             	mov    0x8(%ebp),%edi
    379c:	8b 47 14             	mov    0x14(%edi),%eax
    379f:	80 78 01 00          	cmpb   $0x0,0x1(%eax)
    37a3:	75 6b                	jne    3810 <root_repaint+0x80>
    37a5:	8b 5f 10             	mov    0x10(%edi),%ebx
    37a8:	8d 77 0c             	lea    0xc(%edi),%esi
    37ab:	39 f3                	cmp    %esi,%ebx
    37ad:	74 0e                	je     37bd <root_repaint+0x2d>
    37af:	90                   	nop
    37b0:	89 1c 24             	mov    %ebx,(%esp)
    37b3:	ff 53 4c             	call   *0x4c(%ebx)
    37b6:	8b 5b 04             	mov    0x4(%ebx),%ebx
    37b9:	39 f3                	cmp    %esi,%ebx
    37bb:	75 f3                	jne    37b0 <root_repaint+0x20>
    37bd:	8b 5f 14             	mov    0x14(%edi),%ebx
    37c0:	80 7b 01 00          	cmpb   $0x0,0x1(%ebx)
    37c4:	75 0a                	jne    37d0 <root_repaint+0x40>
    37c6:	83 c4 1c             	add    $0x1c,%esp
    37c9:	5b                   	pop    %ebx
    37ca:	5e                   	pop    %esi
    37cb:	5f                   	pop    %edi
    37cc:	5d                   	pop    %ebp
    37cd:	c3                   	ret    
    37ce:	66 90                	xchg   %ax,%ax
    37d0:	c7 04 24 24 00 00 00 	movl   $0x24,(%esp)
    37d7:	e8 84 3a 01 00       	call   17260 <malloc>
    37dc:	85 c0                	test   %eax,%eax
    37de:	74 e6                	je     37c6 <root_repaint+0x36>
    37e0:	83 c3 10             	add    $0x10,%ebx
    37e3:	c7 00 00 00 00 00    	movl   $0x0,(%eax)
    37e9:	c7 40 04 00 00 00 00 	movl   $0x0,0x4(%eax)
    37f0:	c7 40 08 07 00 00 00 	movl   $0x7,0x8(%eax)
    37f7:	89 1c 24             	mov    %ebx,(%esp)
    37fa:	89 44 24 04          	mov    %eax,0x4(%esp)
    37fe:	e8 ed a1 01 00       	call   1d9f0 <prodcons_produce>
    3803:	83 c4 1c             	add    $0x1c,%esp
    3806:	5b                   	pop    %ebx
    3807:	5e                   	pop    %esi
    3808:	5f                   	pop    %edi
    3809:	5d                   	pop    %ebp
    380a:	c3                   	ret    
    380b:	90                   	nop
    380c:	8d 74 26 00          	lea    0x0(%esi,%eiz,1),%esi
    3810:	89 f8                	mov    %edi,%eax
    3812:	e8 59 f4 ff ff       	call   2c70 <paint_internal>
    3817:	eb 8c                	jmp    37a5 <root_repaint+0x15>
    3819:	8d b4 26 00 00 00 00 	lea    0x0(%esi,%eiz,1),%esi

00003820 <window_open>:
    3820:	55                   	push   %ebp
    3821:	89 e5                	mov    %esp,%ebp
    3823:	57                   	push   %edi
    3824:	56                   	push   %esi
    3825:	53                   	push   %ebx
    3826:	83 ec 3c             	sub    $0x3c,%esp
    3829:	8b 7d 0c             	mov    0xc(%ebp),%edi
    382c:	8b 75 10             	mov    0x10(%ebp),%esi
    382f:	c7 04 24 a4 00 00 00 	movl   $0xa4,(%esp)
    3836:	e8 25 3a 01 00       	call   17260 <malloc>
    383b:	89 c3                	mov    %eax,%ebx
    383d:	85 c0                	test   %eax,%eax
    383f:	0f 84 60 01 00 00    	je     39a5 <window_open+0x185>
    3845:	89 f8                	mov    %edi,%eax
    3847:	c6 43 02 01          	movb   $0x1,0x2(%ebx)
    384b:	88 03                	mov    %al,(%ebx)
    384d:	89 f0                	mov    %esi,%eax
    384f:	88 43 01             	mov    %al,0x1(%ebx)
    3852:	8d 43 10             	lea    0x10(%ebx),%eax
    3855:	89 04 24             	mov    %eax,(%esp)
    3858:	e8 63 a1 01 00       	call   1d9c0 <prodcons_initialize>
    385d:	8d 83 90 00 00 00    	lea    0x90(%ebx),%eax
    3863:	89 04 24             	mov    %eax,(%esp)
    3866:	e8 f5 99 00 00       	call   d260 <fibril_mutex_initialize>
    386b:	8d 43 30             	lea    0x30(%ebx),%eax
    386e:	89 04 24             	mov    %eax,(%esp)
    3871:	c7 44 24 04 00 00 00 	movl   $0x0,0x4(%esp)
    3878:	00 
    3879:	e8 22 ee ff ff       	call   26a0 <widget_init>
    387e:	8d 45 dc             	lea    -0x24(%ebp),%eax
    3881:	89 5b 44             	mov    %ebx,0x44(%ebx)
    3884:	c7 43 70 c0 2b 00 00 	movl   $0x2bc0,0x70(%ebx)
    388b:	c7 43 74 d0 2b 00 00 	movl   $0x2bd0,0x74(%ebx)
    3892:	c7 43 78 60 2f 00 00 	movl   $0x2f60,0x78(%ebx)
    3899:	c7 43 7c 90 37 00 00 	movl   $0x3790,0x7c(%ebx)
    38a0:	c7 83 80 00 00 00 90 	movl   $0x2790,0x80(%ebx)
    38a7:	27 00 00 
    38aa:	c7 83 84 00 00 00 50 	movl   $0x2850,0x84(%ebx)
    38b1:	28 00 00 
    38b4:	c7 83 88 00 00 00 00 	movl   $0x0,0x88(%ebx)
    38bb:	00 00 00 
    38be:	c7 83 8c 00 00 00 00 	movl   $0x0,0x8c(%ebx)
    38c5:	00 00 00 
    38c8:	c7 83 a0 00 00 00 00 	movl   $0x0,0xa0(%ebx)
    38cf:	00 00 00 
    38d2:	89 44 24 04          	mov    %eax,0x4(%esp)
    38d6:	8b 45 08             	mov    0x8(%ebp),%eax
    38d9:	c7 44 24 08 00 00 00 	movl   $0x0,0x8(%esp)
    38e0:	00 
    38e1:	89 04 24             	mov    %eax,(%esp)
    38e4:	e8 a7 3f 00 00       	call   7890 <loc_service_get_id>
    38e9:	85 c0                	test   %eax,%eax
    38eb:	0f 85 df 00 00 00    	jne    39d0 <window_open+0x1b0>
    38f1:	8b 45 dc             	mov    -0x24(%ebp),%eax
    38f4:	c7 44 24 08 00 00 00 	movl   $0x0,0x8(%esp)
    38fb:	00 
    38fc:	89 44 24 04          	mov    %eax,0x4(%esp)
    3900:	c7 04 24 02 00 00 00 	movl   $0x2,(%esp)
    3907:	e8 74 48 00 00       	call   8180 <loc_service_connect>
    390c:	89 c6                	mov    %eax,%esi
    390e:	85 c0                	test   %eax,%eax
    3910:	0f 84 ba 00 00 00    	je     39d0 <window_open+0x1b0>
    3916:	8b 45 1c             	mov    0x1c(%ebp),%eax
    3919:	89 34 24             	mov    %esi,(%esp)
    391c:	89 44 24 10          	mov    %eax,0x10(%esp)
    3920:	8b 45 18             	mov    0x18(%ebp),%eax
    3923:	89 44 24 0c          	mov    %eax,0xc(%esp)
    3927:	8d 45 e4             	lea    -0x1c(%ebp),%eax
    392a:	89 44 24 08          	mov    %eax,0x8(%esp)
    392e:	8d 45 e0             	lea    -0x20(%ebp),%eax
    3931:	89 44 24 04          	mov    %eax,0x4(%esp)
    3935:	e8 f6 12 01 00       	call   14c30 <win_register>
    393a:	89 34 24             	mov    %esi,(%esp)
    393d:	89 c7                	mov    %eax,%edi
    393f:	e8 5c 6d 01 00       	call   1a6a0 <async_hangup>
    3944:	85 ff                	test   %edi,%edi
    3946:	0f 85 84 00 00 00    	jne    39d0 <window_open+0x1b0>
    394c:	8b 45 e4             	mov    -0x1c(%ebp),%eax
    394f:	c7 44 24 08 00 00 00 	movl   $0x0,0x8(%esp)
    3956:	00 
    3957:	89 44 24 04          	mov    %eax,0x4(%esp)
    395b:	c7 04 24 02 00 00 00 	movl   $0x2,(%esp)
    3962:	e8 19 48 00 00       	call   8180 <loc_service_connect>
    3967:	89 43 0c             	mov    %eax,0xc(%ebx)
    396a:	85 c0                	test   %eax,%eax
    396c:	74 62                	je     39d0 <window_open+0x1b0>
    396e:	8b 45 e0             	mov    -0x20(%ebp),%eax
    3971:	c7 44 24 08 00 00 00 	movl   $0x0,0x8(%esp)
    3978:	00 
    3979:	89 44 24 04          	mov    %eax,0x4(%esp)
    397d:	c7 04 24 02 00 00 00 	movl   $0x2,(%esp)
    3984:	e8 f7 47 00 00       	call   8180 <loc_service_connect>
    3989:	89 43 08             	mov    %eax,0x8(%ebx)
    398c:	85 c0                	test   %eax,%eax
    398e:	74 31                	je     39c1 <window_open+0x1a1>
    3990:	8b 45 14             	mov    0x14(%ebp),%eax
    3993:	85 c0                	test   %eax,%eax
    3995:	74 19                	je     39b0 <window_open+0x190>
    3997:	8b 45 14             	mov    0x14(%ebp),%eax
    399a:	89 04 24             	mov    %eax,(%esp)
    399d:	e8 5e 86 00 00       	call   c000 <str_dup>
    39a2:	89 43 04             	mov    %eax,0x4(%ebx)
    39a5:	83 c4 3c             	add    $0x3c,%esp
    39a8:	89 d8                	mov    %ebx,%eax
    39aa:	5b                   	pop    %ebx
    39ab:	5e                   	pop    %esi
    39ac:	5f                   	pop    %edi
    39ad:	5d                   	pop    %ebp
    39ae:	c3                   	ret    
    39af:	90                   	nop
    39b0:	c7 43 04 00 00 00 00 	movl   $0x0,0x4(%ebx)
    39b7:	83 c4 3c             	add    $0x3c,%esp
    39ba:	89 d8                	mov    %ebx,%eax
    39bc:	5b                   	pop    %ebx
    39bd:	5e                   	pop    %esi
    39be:	5f                   	pop    %edi
    39bf:	5d                   	pop    %ebp
    39c0:	c3                   	ret    
    39c1:	8b 43 0c             	mov    0xc(%ebx),%eax
    39c4:	89 04 24             	mov    %eax,(%esp)
    39c7:	e8 d4 6c 01 00       	call   1a6a0 <async_hangup>
    39cc:	8d 74 26 00          	lea    0x0(%esi,%eiz,1),%esi
    39d0:	89 1c 24             	mov    %ebx,(%esp)
    39d3:	31 db                	xor    %ebx,%ebx
    39d5:	e8 96 39 01 00       	call   17370 <free>
    39da:	83 c4 3c             	add    $0x3c,%esp
    39dd:	89 d8                	mov    %ebx,%eax
    39df:	5b                   	pop    %ebx
    39e0:	5e                   	pop    %esi
    39e1:	5f                   	pop    %edi
    39e2:	5d                   	pop    %ebp
    39e3:	c3                   	ret    
    39e4:	8d b6 00 00 00 00    	lea    0x0(%esi),%esi
    39ea:	8d bf 00 00 00 00    	lea    0x0(%edi),%edi

000039f0 <window_resize>:
    39f0:	55                   	push   %ebp
    39f1:	89 e5                	mov    %esp,%ebp
    39f3:	57                   	push   %edi
    39f4:	56                   	push   %esi
    39f5:	53                   	push   %ebx
    39f6:	83 ec 1c             	sub    $0x1c,%esp
    39f9:	8b 5d 08             	mov    0x8(%ebp),%ebx
    39fc:	8b 7d 0c             	mov    0xc(%ebp),%edi
    39ff:	c7 04 24 24 00 00 00 	movl   $0x24,(%esp)
    3a06:	8b 75 10             	mov    0x10(%ebp),%esi
    3a09:	e8 52 38 01 00       	call   17260 <malloc>
    3a0e:	85 c0                	test   %eax,%eax
    3a10:	74 36                	je     3a48 <window_resize+0x58>
    3a12:	83 c3 10             	add    $0x10,%ebx
    3a15:	c7 00 00 00 00 00    	movl   $0x0,(%eax)
    3a1b:	c7 40 04 00 00 00 00 	movl   $0x0,0x4(%eax)
    3a22:	c7 40 08 05 00 00 00 	movl   $0x5,0x8(%eax)
    3a29:	89 78 0c             	mov    %edi,0xc(%eax)
    3a2c:	89 70 10             	mov    %esi,0x10(%eax)
    3a2f:	89 5d 08             	mov    %ebx,0x8(%ebp)
    3a32:	89 45 0c             	mov    %eax,0xc(%ebp)
    3a35:	83 c4 1c             	add    $0x1c,%esp
    3a38:	5b                   	pop    %ebx
    3a39:	5e                   	pop    %esi
    3a3a:	5f                   	pop    %edi
    3a3b:	5d                   	pop    %ebp
    3a3c:	e9 af 9f 01 00       	jmp    1d9f0 <prodcons_produce>
    3a41:	8d b4 26 00 00 00 00 	lea    0x0(%esi,%eiz,1),%esi
    3a48:	83 c4 1c             	add    $0x1c,%esp
    3a4b:	5b                   	pop    %ebx
    3a4c:	5e                   	pop    %esi
    3a4d:	5f                   	pop    %edi
    3a4e:	5d                   	pop    %ebp
    3a4f:	c3                   	ret    

00003a50 <window_refresh>:
    3a50:	55                   	push   %ebp
    3a51:	89 e5                	mov    %esp,%ebp
    3a53:	83 ec 18             	sub    $0x18,%esp
    3a56:	c7 04 24 24 00 00 00 	movl   $0x24,(%esp)
    3a5d:	e8 fe 37 01 00       	call   17260 <malloc>
    3a62:	85 c0                	test   %eax,%eax
    3a64:	74 26                	je     3a8c <window_refresh+0x3c>
    3a66:	c7 00 00 00 00 00    	movl   $0x0,(%eax)
    3a6c:	c7 40 04 00 00 00 00 	movl   $0x0,0x4(%eax)
    3a73:	c7 40 08 06 00 00 00 	movl   $0x6,0x8(%eax)
    3a7a:	89 44 24 04          	mov    %eax,0x4(%esp)
    3a7e:	8b 45 08             	mov    0x8(%ebp),%eax
    3a81:	83 c0 10             	add    $0x10,%eax
    3a84:	89 04 24             	mov    %eax,(%esp)
    3a87:	e8 64 9f 01 00       	call   1d9f0 <prodcons_produce>
    3a8c:	c9                   	leave  
    3a8d:	c3                   	ret    
    3a8e:	66 90                	xchg   %ax,%ax

00003a90 <window_damage>:
    3a90:	55                   	push   %ebp
    3a91:	89 e5                	mov    %esp,%ebp
    3a93:	83 ec 18             	sub    $0x18,%esp
    3a96:	c7 04 24 24 00 00 00 	movl   $0x24,(%esp)
    3a9d:	e8 be 37 01 00       	call   17260 <malloc>
    3aa2:	85 c0                	test   %eax,%eax
    3aa4:	74 26                	je     3acc <window_damage+0x3c>
    3aa6:	c7 00 00 00 00 00    	movl   $0x0,(%eax)
    3aac:	c7 40 04 00 00 00 00 	movl   $0x0,0x4(%eax)
    3ab3:	c7 40 08 07 00 00 00 	movl   $0x7,0x8(%eax)
    3aba:	89 44 24 04          	mov    %eax,0x4(%esp)
    3abe:	8b 45 08             	mov    0x8(%ebp),%eax
    3ac1:	83 c0 10             	add    $0x10,%eax
    3ac4:	89 04 24             	mov    %eax,(%esp)
    3ac7:	e8 24 9f 01 00       	call   1d9f0 <prodcons_produce>
    3acc:	c9                   	leave  
    3acd:	c3                   	ret    
    3ace:	66 90                	xchg   %ax,%ax

00003ad0 <window_root>:
    3ad0:	55                   	push   %ebp
    3ad1:	89 e5                	mov    %esp,%ebp
    3ad3:	8b 45 08             	mov    0x8(%ebp),%eax
    3ad6:	5d                   	pop    %ebp
    3ad7:	83 c0 30             	add    $0x30,%eax
    3ada:	c3                   	ret    
    3adb:	90                   	nop
    3adc:	8d 74 26 00          	lea    0x0(%esi,%eiz,1),%esi

00003ae0 <window_exec>:
    3ae0:	55                   	push   %ebp
    3ae1:	89 e5                	mov    %esp,%ebp
    3ae3:	56                   	push   %esi
    3ae4:	53                   	push   %ebx
    3ae5:	83 ec 20             	sub    $0x20,%esp
    3ae8:	8b 5d 08             	mov    0x8(%ebp),%ebx
    3aeb:	89 5c 24 04          	mov    %ebx,0x4(%esp)
    3aef:	c7 04 24 30 32 00 00 	movl   $0x3230,(%esp)
    3af6:	e8 a5 92 00 00       	call   cda0 <fibril_create>
    3afb:	89 5c 24 04          	mov    %ebx,0x4(%esp)
    3aff:	c7 04 24 d0 27 00 00 	movl   $0x27d0,(%esp)
    3b06:	89 c6                	mov    %eax,%esi
    3b08:	e8 93 92 00 00       	call   cda0 <fibril_create>
    3b0d:	85 c0                	test   %eax,%eax
    3b0f:	75 07                	jne    3b18 <window_exec+0x38>
    3b11:	83 c4 20             	add    $0x20,%esp
    3b14:	5b                   	pop    %ebx
    3b15:	5e                   	pop    %esi
    3b16:	5d                   	pop    %ebp
    3b17:	c3                   	ret    
    3b18:	85 f6                	test   %esi,%esi
    3b1a:	74 f5                	je     3b11 <window_exec+0x31>
    3b1c:	89 34 24             	mov    %esi,(%esp)
    3b1f:	89 45 f4             	mov    %eax,-0xc(%ebp)
    3b22:	e8 b9 93 00 00       	call   cee0 <fibril_add_ready>
    3b27:	8b 45 f4             	mov    -0xc(%ebp),%eax
    3b2a:	89 45 08             	mov    %eax,0x8(%ebp)
    3b2d:	83 c4 20             	add    $0x20,%esp
    3b30:	5b                   	pop    %ebx
    3b31:	5e                   	pop    %esi
    3b32:	5d                   	pop    %ebp
    3b33:	e9 a8 93 00 00       	jmp    cee0 <fibril_add_ready>
    3b38:	90                   	nop
    3b39:	8d b4 26 00 00 00 00 	lea    0x0(%esi,%eiz,1),%esi

00003b40 <window_claim>:
    3b40:	55                   	push   %ebp
    3b41:	89 e5                	mov    %esp,%ebp
    3b43:	53                   	push   %ebx
    3b44:	83 ec 14             	sub    $0x14,%esp
    3b47:	8b 5d 08             	mov    0x8(%ebp),%ebx
    3b4a:	8d 83 90 00 00 00    	lea    0x90(%ebx),%eax
    3b50:	89 04 24             	mov    %eax,(%esp)
    3b53:	e8 28 97 00 00       	call   d280 <fibril_mutex_lock>
    3b58:	8b 83 a0 00 00 00    	mov    0xa0(%ebx),%eax
    3b5e:	83 c4 14             	add    $0x14,%esp
    3b61:	5b                   	pop    %ebx
    3b62:	5d                   	pop    %ebp
    3b63:	c3                   	ret    
    3b64:	8d b6 00 00 00 00    	lea    0x0(%esi),%esi
    3b6a:	8d bf 00 00 00 00    	lea    0x0(%edi),%edi

00003b70 <window_yield>:
    3b70:	55                   	push   %ebp
    3b71:	89 e5                	mov    %esp,%ebp
    3b73:	8b 45 08             	mov    0x8(%ebp),%eax
    3b76:	05 90 00 00 00       	add    $0x90,%eax
    3b7b:	89 45 08             	mov    %eax,0x8(%ebp)
    3b7e:	5d                   	pop    %ebp
    3b7f:	e9 1c 98 00 00       	jmp    d3a0 <fibril_mutex_unlock>
    3b84:	8d b6 00 00 00 00    	lea    0x0(%esi),%esi
    3b8a:	8d bf 00 00 00 00    	lea    0x0(%edi),%edi

00003b90 <window_close>:
    3b90:	55                   	push   %ebp
    3b91:	89 e5                	mov    %esp,%ebp
    3b93:	8b 45 08             	mov    0x8(%ebp),%eax
    3b96:	8b 40 0c             	mov    0xc(%eax),%eax
    3b99:	89 45 08             	mov    %eax,0x8(%ebp)
    3b9c:	5d                   	pop    %ebp
    3b9d:	e9 ce 13 01 00       	jmp    14f70 <win_close_request>
    3ba2:	66 90                	xchg   %ax,%ax
    3ba4:	66 90                	xchg   %ax,%ax
    3ba6:	66 90                	xchg   %ax,%ax
    3ba8:	66 90                	xchg   %ax,%ax
    3baa:	66 90                	xchg   %ax,%ax
    3bac:	66 90                	xchg   %ax,%ax
    3bae:	66 90                	xchg   %ax,%ax

00003bb0 <fb_font_glyph>:
    3bb0:	55                   	push   %ebp
    3bb1:	31 c0                	xor    %eax,%eax
    3bb3:	89 e5                	mov    %esp,%ebp
    3bb5:	8b 55 08             	mov    0x8(%ebp),%edx
    3bb8:	85 d2                	test   %edx,%edx
    3bba:	0f 84 30 06 00 00    	je     41f0 <fb_font_glyph+0x640>
    3bc0:	8d 42 e0             	lea    -0x20(%edx),%eax
    3bc3:	83 f8 5f             	cmp    $0x5f,%eax
    3bc6:	0f 86 2c 06 00 00    	jbe    41f8 <fb_font_glyph+0x648>
    3bcc:	8d 82 60 ff ff ff    	lea    -0xa0(%edx),%eax
    3bd2:	3d 7f 01 00 00       	cmp    $0x17f,%eax
    3bd7:	0f 86 2b 06 00 00    	jbe    4208 <fb_font_glyph+0x658>
    3bdd:	8d 82 de fd ff ff    	lea    -0x222(%edx),%eax
    3be3:	83 f8 11             	cmp    $0x11,%eax
    3be6:	0f 86 14 06 00 00    	jbe    4200 <fb_font_glyph+0x650>
    3bec:	8d 82 b0 fd ff ff    	lea    -0x250(%edx),%eax
    3bf2:	83 f8 5d             	cmp    $0x5d,%eax
    3bf5:	0f 86 15 06 00 00    	jbe    4210 <fb_font_glyph+0x660>
    3bfb:	8d 82 50 fd ff ff    	lea    -0x2b0(%edx),%eax
    3c01:	83 f8 1f             	cmp    $0x1f,%eax
    3c04:	0f 86 16 06 00 00    	jbe    4220 <fb_font_glyph+0x670>
    3c0a:	8d 82 28 fd ff ff    	lea    -0x2d8(%edx),%eax
    3c10:	83 f8 05             	cmp    $0x5,%eax
    3c13:	0f 86 ff 05 00 00    	jbe    4218 <fb_font_glyph+0x668>
    3c19:	b8 76 02 00 00       	mov    $0x276,%eax
    3c1e:	81 fa ee 02 00 00    	cmp    $0x2ee,%edx
    3c24:	0f 84 c6 05 00 00    	je     41f0 <fb_font_glyph+0x640>
    3c2a:	8d 82 00 fd ff ff    	lea    -0x300(%edx),%eax
    3c30:	83 f8 01             	cmp    $0x1,%eax
    3c33:	0f 86 ec 05 00 00    	jbe    4225 <fb_font_glyph+0x675>
    3c39:	b8 79 02 00 00       	mov    $0x279,%eax
    3c3e:	81 fa 03 03 00 00    	cmp    $0x303,%edx
    3c44:	0f 84 a6 05 00 00    	je     41f0 <fb_font_glyph+0x640>
    3c4a:	b0 7a                	mov    $0x7a,%al
    3c4c:	81 fa 09 03 00 00    	cmp    $0x309,%edx
    3c52:	0f 84 98 05 00 00    	je     41f0 <fb_font_glyph+0x640>
    3c58:	8d 82 ee fc ff ff    	lea    -0x312(%edx),%eax
    3c5e:	83 f8 02             	cmp    $0x2,%eax
    3c61:	0f 86 c6 05 00 00    	jbe    422d <fb_font_glyph+0x67d>
    3c67:	b8 7e 02 00 00       	mov    $0x27e,%eax
    3c6c:	81 fa 23 03 00 00    	cmp    $0x323,%edx
    3c72:	0f 84 78 05 00 00    	je     41f0 <fb_font_glyph+0x640>
    3c78:	8d 82 c0 fc ff ff    	lea    -0x340(%edx),%eax
    3c7e:	83 f8 01             	cmp    $0x1,%eax
    3c81:	0f 86 ae 05 00 00    	jbe    4235 <fb_font_glyph+0x685>
    3c87:	8d 82 8c fc ff ff    	lea    -0x374(%edx),%eax
    3c8d:	83 f8 01             	cmp    $0x1,%eax
    3c90:	0f 86 a7 05 00 00    	jbe    423d <fb_font_glyph+0x68d>
    3c96:	b8 83 02 00 00       	mov    $0x283,%eax
    3c9b:	81 fa 7a 03 00 00    	cmp    $0x37a,%edx
    3ca1:	0f 84 49 05 00 00    	je     41f0 <fb_font_glyph+0x640>
    3ca7:	b0 84                	mov    $0x84,%al
    3ca9:	81 fa 7e 03 00 00    	cmp    $0x37e,%edx
    3caf:	0f 84 3b 05 00 00    	je     41f0 <fb_font_glyph+0x640>
    3cb5:	8d 82 7c fc ff ff    	lea    -0x384(%edx),%eax
    3cbb:	83 f8 06             	cmp    $0x6,%eax
    3cbe:	0f 86 81 05 00 00    	jbe    4245 <fb_font_glyph+0x695>
    3cc4:	b8 8c 02 00 00       	mov    $0x28c,%eax
    3cc9:	81 fa 8c 03 00 00    	cmp    $0x38c,%edx
    3ccf:	0f 84 1b 05 00 00    	je     41f0 <fb_font_glyph+0x640>
    3cd5:	8d 82 72 fc ff ff    	lea    -0x38e(%edx),%eax
    3cdb:	83 f8 13             	cmp    $0x13,%eax
    3cde:	0f 86 71 05 00 00    	jbe    4255 <fb_font_glyph+0x6a5>
    3ce4:	8d 82 5d fc ff ff    	lea    -0x3a3(%edx),%eax
    3cea:	83 f8 2b             	cmp    $0x2b,%eax
    3ced:	0f 86 72 05 00 00    	jbe    4265 <fb_font_glyph+0x6b5>
    3cf3:	8d 82 30 fc ff ff    	lea    -0x3d0(%edx),%eax
    3cf9:	83 f8 07             	cmp    $0x7,%eax
    3cfc:	0f 86 5b 05 00 00    	jbe    425d <fb_font_glyph+0x6ad>
    3d02:	8d 82 26 fc ff ff    	lea    -0x3da(%edx),%eax
    3d08:	83 f8 19             	cmp    $0x19,%eax
    3d0b:	0f 86 b4 05 00 00    	jbe    42c5 <fb_font_glyph+0x715>
    3d11:	8d 82 00 fc ff ff    	lea    -0x400(%edx),%eax
    3d17:	3d 86 00 00 00       	cmp    $0x86,%eax
    3d1c:	0f 86 9b 05 00 00    	jbe    42bd <fb_font_glyph+0x70d>
    3d22:	8d 82 78 fb ff ff    	lea    -0x488(%edx),%eax
    3d28:	83 f8 46             	cmp    $0x46,%eax
    3d2b:	0f 86 84 05 00 00    	jbe    42b5 <fb_font_glyph+0x705>
    3d31:	8d 82 30 fb ff ff    	lea    -0x4d0(%edx),%eax
    3d37:	83 f8 25             	cmp    $0x25,%eax
    3d3a:	0f 86 6d 05 00 00    	jbe    42ad <fb_font_glyph+0x6fd>
    3d40:	8d 82 08 fb ff ff    	lea    -0x4f8(%edx),%eax
    3d46:	83 f8 01             	cmp    $0x1,%eax
    3d49:	0f 86 56 05 00 00    	jbe    42a5 <fb_font_glyph+0x6f5>
    3d4f:	8d 82 00 fb ff ff    	lea    -0x500(%edx),%eax
    3d55:	83 f8 0f             	cmp    $0xf,%eax
    3d58:	0f 86 3f 05 00 00    	jbe    429d <fb_font_glyph+0x6ed>
    3d5e:	8d 82 d0 fa ff ff    	lea    -0x530(%edx),%eax
    3d64:	83 f8 26             	cmp    $0x26,%eax
    3d67:	0f 86 28 05 00 00    	jbe    4295 <fb_font_glyph+0x6e5>
    3d6d:	8d 82 a7 fa ff ff    	lea    -0x559(%edx),%eax
    3d73:	83 f8 06             	cmp    $0x6,%eax
    3d76:	0f 86 11 05 00 00    	jbe    428d <fb_font_glyph+0x6dd>
    3d7c:	8d 82 9f fa ff ff    	lea    -0x561(%edx),%eax
    3d82:	83 f8 26             	cmp    $0x26,%eax
    3d85:	0f 86 ba 05 00 00    	jbe    4345 <fb_font_glyph+0x795>
    3d8b:	8d 82 77 fa ff ff    	lea    -0x589(%edx),%eax
    3d91:	83 f8 01             	cmp    $0x1,%eax
    3d94:	0f 86 a3 05 00 00    	jbe    433d <fb_font_glyph+0x78d>
    3d9a:	8d 82 6f fa ff ff    	lea    -0x591(%edx),%eax
    3da0:	83 f8 10             	cmp    $0x10,%eax
    3da3:	0f 86 8c 05 00 00    	jbe    4335 <fb_font_glyph+0x785>
    3da9:	8d 82 5d fa ff ff    	lea    -0x5a3(%edx),%eax
    3daf:	83 f8 16             	cmp    $0x16,%eax
    3db2:	0f 86 75 05 00 00    	jbe    432d <fb_font_glyph+0x77d>
    3db8:	8d 82 45 fa ff ff    	lea    -0x5bb(%edx),%eax
    3dbe:	83 f8 09             	cmp    $0x9,%eax
    3dc1:	0f 86 5e 05 00 00    	jbe    4325 <fb_font_glyph+0x775>
    3dc7:	8d 82 30 fa ff ff    	lea    -0x5d0(%edx),%eax
    3dcd:	83 f8 1a             	cmp    $0x1a,%eax
    3dd0:	0f 86 47 05 00 00    	jbe    431d <fb_font_glyph+0x76d>
    3dd6:	8d 82 10 fa ff ff    	lea    -0x5f0(%edx),%eax
    3ddc:	83 f8 04             	cmp    $0x4,%eax
    3ddf:	0f 86 30 05 00 00    	jbe    4315 <fb_font_glyph+0x765>
    3de5:	b8 9e 04 00 00       	mov    $0x49e,%eax
    3dea:	81 fa 0c 06 00 00    	cmp    $0x60c,%edx
    3df0:	0f 84 fa 03 00 00    	je     41f0 <fb_font_glyph+0x640>
    3df6:	b0 9f                	mov    $0x9f,%al
    3df8:	81 fa 1b 06 00 00    	cmp    $0x61b,%edx
    3dfe:	0f 84 ec 03 00 00    	je     41f0 <fb_font_glyph+0x640>
    3e04:	b0 a0                	mov    $0xa0,%al
    3e06:	81 fa 1f 06 00 00    	cmp    $0x61f,%edx
    3e0c:	0f 84 de 03 00 00    	je     41f0 <fb_font_glyph+0x640>
    3e12:	8d 82 df f9 ff ff    	lea    -0x621(%edx),%eax
    3e18:	83 f8 19             	cmp    $0x19,%eax
    3e1b:	0f 86 ec 04 00 00    	jbe    430d <fb_font_glyph+0x75d>
    3e21:	8d 82 c0 f9 ff ff    	lea    -0x640(%edx),%eax
    3e27:	83 f8 15             	cmp    $0x15,%eax
    3e2a:	0f 86 d5 04 00 00    	jbe    4305 <fb_font_glyph+0x755>
    3e30:	8d 82 a0 f9 ff ff    	lea    -0x660(%edx),%eax
    3e36:	83 f8 0d             	cmp    $0xd,%eax
    3e39:	0f 86 be 04 00 00    	jbe    42fd <fb_font_glyph+0x74d>
    3e3f:	8d 82 90 f9 ff ff    	lea    -0x670(%edx),%eax
    3e45:	83 f8 7d             	cmp    $0x7d,%eax
    3e48:	0f 86 a7 04 00 00    	jbe    42f5 <fb_font_glyph+0x745>
    3e4e:	8d 82 10 f9 ff ff    	lea    -0x6f0(%edx),%eax
    3e54:	83 f8 0e             	cmp    $0xe,%eax
    3e57:	0f 86 90 04 00 00    	jbe    42ed <fb_font_glyph+0x73d>
    3e5d:	b8 6c 05 00 00       	mov    $0x56c,%eax
    3e62:	81 fa d3 10 00 00    	cmp    $0x10d3,%edx
    3e68:	0f 84 82 03 00 00    	je     41f0 <fb_font_glyph+0x640>
    3e6e:	b0 6d                	mov    $0x6d,%al
    3e70:	81 fa d7 10 00 00    	cmp    $0x10d7,%edx
    3e76:	0f 84 74 03 00 00    	je     41f0 <fb_font_glyph+0x640>
    3e7c:	b0 6e                	mov    $0x6e,%al
    3e7e:	81 fa da 10 00 00    	cmp    $0x10da,%edx
    3e84:	0f 84 66 03 00 00    	je     41f0 <fb_font_glyph+0x640>
    3e8a:	b0 6f                	mov    $0x6f,%al
    3e8c:	81 fa dd 10 00 00    	cmp    $0x10dd,%edx
    3e92:	0f 84 58 03 00 00    	je     41f0 <fb_font_glyph+0x640>
    3e98:	b0 70                	mov    $0x70,%al
    3e9a:	81 fa e6 10 00 00    	cmp    $0x10e6,%edx
    3ea0:	0f 84 4a 03 00 00    	je     41f0 <fb_font_glyph+0x640>
    3ea6:	8d 82 00 e2 ff ff    	lea    -0x1e00(%edx),%eax
    3eac:	3d 9b 00 00 00       	cmp    $0x9b,%eax
    3eb1:	0f 86 2e 04 00 00    	jbe    42e5 <fb_font_glyph+0x735>
    3eb7:	8d 82 60 e1 ff ff    	lea    -0x1ea0(%edx),%eax
    3ebd:	83 f8 59             	cmp    $0x59,%eax
    3ec0:	0f 86 17 04 00 00    	jbe    42dd <fb_font_glyph+0x72d>
    3ec6:	8d 82 00 e1 ff ff    	lea    -0x1f00(%edx),%eax
    3ecc:	83 f8 07             	cmp    $0x7,%eax
    3ecf:	0f 86 00 04 00 00    	jbe    42d5 <fb_font_glyph+0x725>
    3ed5:	8d 82 00 e0 ff ff    	lea    -0x2000(%edx),%eax
    3edb:	83 f8 27             	cmp    $0x27,%eax
    3ede:	0f 86 e9 03 00 00    	jbe    42cd <fb_font_glyph+0x71d>
    3ee4:	8d 82 d0 df ff ff    	lea    -0x2030(%edx),%eax
    3eea:	83 f8 16             	cmp    $0x16,%eax
    3eed:	0f 86 52 05 00 00    	jbe    4445 <fb_font_glyph+0x895>
    3ef3:	8d 82 b8 df ff ff    	lea    -0x2048(%edx),%eax
    3ef9:	83 f8 05             	cmp    $0x5,%eax
    3efc:	0f 86 3b 05 00 00    	jbe    443d <fb_font_glyph+0x88d>
    3f02:	b8 b4 06 00 00       	mov    $0x6b4,%eax
    3f07:	81 fa 70 20 00 00    	cmp    $0x2070,%edx
    3f0d:	0f 84 dd 02 00 00    	je     41f0 <fb_font_glyph+0x640>
    3f13:	8d 82 8c df ff ff    	lea    -0x2074(%edx),%eax
    3f19:	83 f8 1b             	cmp    $0x1b,%eax
    3f1c:	0f 86 13 05 00 00    	jbe    4435 <fb_font_glyph+0x885>
    3f22:	8d 82 60 df ff ff    	lea    -0x20a0(%edx),%eax
    3f28:	83 f8 0f             	cmp    $0xf,%eax
    3f2b:	0f 86 fc 04 00 00    	jbe    442d <fb_font_glyph+0x87d>
    3f31:	8d 82 00 df ff ff    	lea    -0x2100(%edx),%eax
    3f37:	83 f8 3a             	cmp    $0x3a,%eax
    3f3a:	0f 86 e5 04 00 00    	jbe    4425 <fb_font_glyph+0x875>
    3f40:	8d 82 ad de ff ff    	lea    -0x2153(%edx),%eax
    3f46:	83 f8 30             	cmp    $0x30,%eax
    3f49:	0f 86 ce 04 00 00    	jbe    441d <fb_font_glyph+0x86d>
    3f4f:	8d 82 70 de ff ff    	lea    -0x2190(%edx),%eax
    3f55:	83 f8 63             	cmp    $0x63,%eax
    3f58:	0f 86 b7 04 00 00    	jbe    4415 <fb_font_glyph+0x865>
    3f5e:	8d 82 00 de ff ff    	lea    -0x2200(%edx),%eax
    3f64:	3d f1 00 00 00       	cmp    $0xf1,%eax
    3f69:	0f 86 9e 04 00 00    	jbe    440d <fb_font_glyph+0x85d>
    3f6f:	b8 a3 08 00 00       	mov    $0x8a3,%eax
    3f74:	81 fa 00 23 00 00    	cmp    $0x2300,%edx
    3f7a:	0f 84 70 02 00 00    	je     41f0 <fb_font_glyph+0x640>
    3f80:	b0 a4                	mov    $0xa4,%al
    3f82:	81 fa 02 23 00 00    	cmp    $0x2302,%edx
    3f88:	0f 84 62 02 00 00    	je     41f0 <fb_font_glyph+0x640>
    3f8e:	8d 82 f8 dc ff ff    	lea    -0x2308(%edx),%eax
    3f94:	83 f8 03             	cmp    $0x3,%eax
    3f97:	0f 86 68 04 00 00    	jbe    4405 <fb_font_glyph+0x855>
    3f9d:	b8 a9 08 00 00       	mov    $0x8a9,%eax
    3fa2:	81 fa 10 23 00 00    	cmp    $0x2310,%edx
    3fa8:	0f 84 42 02 00 00    	je     41f0 <fb_font_glyph+0x640>
    3fae:	b0 aa                	mov    $0xaa,%al
    3fb0:	81 fa 18 23 00 00    	cmp    $0x2318,%edx
    3fb6:	0f 84 34 02 00 00    	je     41f0 <fb_font_glyph+0x640>
    3fbc:	8d 82 e6 dc ff ff    	lea    -0x231a(%edx),%eax
    3fc2:	83 f8 01             	cmp    $0x1,%eax
    3fc5:	0f 86 32 04 00 00    	jbe    43fd <fb_font_glyph+0x84d>
    3fcb:	8d 82 e0 dc ff ff    	lea    -0x2320(%edx),%eax
    3fd1:	83 f8 01             	cmp    $0x1,%eax
    3fd4:	0f 86 1b 04 00 00    	jbe    43f5 <fb_font_glyph+0x845>
    3fda:	8d 82 d7 dc ff ff    	lea    -0x2329(%edx),%eax
    3fe0:	83 f8 01             	cmp    $0x1,%eax
    3fe3:	0f 86 04 04 00 00    	jbe    43ed <fb_font_glyph+0x83d>
    3fe9:	8d 82 65 dc ff ff    	lea    -0x239b(%edx),%eax
    3fef:	83 f8 22             	cmp    $0x22,%eax
    3ff2:	0f 86 ed 03 00 00    	jbe    43e5 <fb_font_glyph+0x835>
    3ff8:	b8 d4 08 00 00       	mov    $0x8d4,%eax
    3ffd:	81 fa ce 23 00 00    	cmp    $0x23ce,%edx
    4003:	0f 84 e7 01 00 00    	je     41f0 <fb_font_glyph+0x640>
    4009:	8d 82 f7 db ff ff    	lea    -0x2409(%edx),%eax
    400f:	83 f8 04             	cmp    $0x4,%eax
    4012:	0f 86 c5 03 00 00    	jbe    43dd <fb_font_glyph+0x82d>
    4018:	8d 82 dd db ff ff    	lea    -0x2423(%edx),%eax
    401e:	83 f8 01             	cmp    $0x1,%eax
    4021:	0f 86 ae 03 00 00    	jbe    43d5 <fb_font_glyph+0x825>
    4027:	b8 dc 08 00 00       	mov    $0x8dc,%eax
    402c:	81 fa 26 24 00 00    	cmp    $0x2426,%edx
    4032:	0f 84 b8 01 00 00    	je     41f0 <fb_font_glyph+0x640>
    4038:	8d 82 00 db ff ff    	lea    -0x2500(%edx),%eax
    403e:	3d 95 00 00 00       	cmp    $0x95,%eax
    4043:	0f 86 84 03 00 00    	jbe    43cd <fb_font_glyph+0x81d>
    4049:	8d 82 60 da ff ff    	lea    -0x25a0(%edx),%eax
    404f:	83 f8 57             	cmp    $0x57,%eax
    4052:	0f 86 6d 03 00 00    	jbe    43c5 <fb_font_glyph+0x815>
    4058:	8d 82 00 da ff ff    	lea    -0x2600(%edx),%eax
    405e:	83 f8 02             	cmp    $0x2,%eax
    4061:	0f 86 56 03 00 00    	jbe    43bd <fb_font_glyph+0x80d>
    4067:	8d 82 fb d9 ff ff    	lea    -0x2605(%edx),%eax
    406d:	83 f8 08             	cmp    $0x8,%eax
    4070:	0f 86 3f 03 00 00    	jbe    43b5 <fb_font_glyph+0x805>
    4076:	8d 82 f0 d9 ff ff    	lea    -0x2610(%edx),%eax
    407c:	83 f8 03             	cmp    $0x3,%eax
    407f:	0f 86 28 03 00 00    	jbe    43ad <fb_font_glyph+0x7fd>
    4085:	b8 db 09 00 00       	mov    $0x9db,%eax
    408a:	81 fa 20 26 00 00    	cmp    $0x2620,%edx
    4090:	0f 84 5a 01 00 00    	je     41f0 <fb_font_glyph+0x640>
    4096:	b0 dc                	mov    $0xdc,%al
    4098:	81 fa 22 26 00 00    	cmp    $0x2622,%edx
    409e:	0f 84 4c 01 00 00    	je     41f0 <fb_font_glyph+0x640>
    40a4:	b0 dd                	mov    $0xdd,%al
    40a6:	81 fa 26 26 00 00    	cmp    $0x2626,%edx
    40ac:	0f 84 3e 01 00 00    	je     41f0 <fb_font_glyph+0x640>
    40b2:	8d 82 d8 d9 ff ff    	lea    -0x2628(%edx),%eax
    40b8:	83 f8 03             	cmp    $0x3,%eax
    40bb:	0f 86 e4 02 00 00    	jbe    43a5 <fb_font_glyph+0x7f5>
    40c1:	8d 82 d2 d9 ff ff    	lea    -0x262e(%edx),%eax
    40c7:	83 f8 09             	cmp    $0x9,%eax
    40ca:	0f 86 cd 02 00 00    	jbe    439d <fb_font_glyph+0x7ed>
    40d0:	8d 82 c7 d9 ff ff    	lea    -0x2639(%edx),%eax
    40d6:	83 f8 1a             	cmp    $0x1a,%eax
    40d9:	0f 86 b6 02 00 00    	jbe    4395 <fb_font_glyph+0x7e5>
    40df:	8d 82 a0 d9 ff ff    	lea    -0x2660(%edx),%eax
    40e5:	83 f8 07             	cmp    $0x7,%eax
    40e8:	0f 86 9f 02 00 00    	jbe    438d <fb_font_glyph+0x7dd>
    40ee:	8d 82 97 d9 ff ff    	lea    -0x2669(%edx),%eax
    40f4:	83 f8 06             	cmp    $0x6,%eax
    40f7:	0f 86 88 02 00 00    	jbe    4385 <fb_font_glyph+0x7d5>
    40fd:	8d 82 00 05 ff ff    	lea    -0xfb00(%edx),%eax
    4103:	83 f8 05             	cmp    $0x5,%eax
    4106:	0f 86 71 02 00 00    	jbe    437d <fb_font_glyph+0x7cd>
    410c:	8d 82 b0 04 ff ff    	lea    -0xfb50(%edx),%eax
    4112:	83 f8 61             	cmp    $0x61,%eax
    4115:	0f 86 5a 02 00 00    	jbe    4375 <fb_font_glyph+0x7c5>
    411b:	8d 82 2d 04 ff ff    	lea    -0xfbd3(%edx),%eax
    4121:	83 f8 16             	cmp    $0x16,%eax
    4124:	0f 86 43 02 00 00    	jbe    436d <fb_font_glyph+0x7bd>
    412a:	8d 82 04 04 ff ff    	lea    -0xfbfc(%edx),%eax
    4130:	83 f8 03             	cmp    $0x3,%eax
    4133:	0f 86 2c 02 00 00    	jbe    4365 <fb_font_glyph+0x7b5>
    4139:	8d 82 a5 03 ff ff    	lea    -0xfc5b(%edx),%eax
    413f:	83 f8 08             	cmp    $0x8,%eax
    4142:	0f 86 15 02 00 00    	jbe    435d <fb_font_glyph+0x7ad>
    4148:	b8 a2 0a 00 00       	mov    $0xaa2,%eax
    414d:	81 fa 90 fc 00 00    	cmp    $0xfc90,%edx
    4153:	0f 84 97 00 00 00    	je     41f0 <fb_font_glyph+0x640>
    4159:	8d 82 0e 03 ff ff    	lea    -0xfcf2(%edx),%eax
    415f:	83 f8 02             	cmp    $0x2,%eax
    4162:	0f 86 ed 01 00 00    	jbe    4355 <fb_font_glyph+0x7a5>
    4168:	8d 82 c4 02 ff ff    	lea    -0xfd3c(%edx),%eax
    416e:	83 f8 03             	cmp    $0x3,%eax
    4171:	0f 86 d6 01 00 00    	jbe    434d <fb_font_glyph+0x79d>
    4177:	b8 aa 0a 00 00       	mov    $0xaaa,%eax
    417c:	81 fa f2 fd 00 00    	cmp    $0xfdf2,%edx
    4182:	74 6c                	je     41f0 <fb_font_glyph+0x640>
    4184:	8d 82 b0 01 ff ff    	lea    -0xfe50(%edx),%eax
    418a:	83 f8 02             	cmp    $0x2,%eax
    418d:	0f 86 f2 00 00 00    	jbe    4285 <fb_font_glyph+0x6d5>
    4193:	8d 82 ac 01 ff ff    	lea    -0xfe54(%edx),%eax
    4199:	83 f8 12             	cmp    $0x12,%eax
    419c:	0f 86 db 00 00 00    	jbe    427d <fb_font_glyph+0x6cd>
    41a2:	8d 82 98 01 ff ff    	lea    -0xfe68(%edx),%eax
    41a8:	83 f8 03             	cmp    $0x3,%eax
    41ab:	0f 86 c4 00 00 00    	jbe    4275 <fb_font_glyph+0x6c5>
    41b1:	8d 82 90 01 ff ff    	lea    -0xfe70(%edx),%eax
    41b7:	83 f8 02             	cmp    $0x2,%eax
    41ba:	0f 86 ad 00 00 00    	jbe    426d <fb_font_glyph+0x6bd>
    41c0:	b8 c8 0a 00 00       	mov    $0xac8,%eax
    41c5:	81 fa 74 fe 00 00    	cmp    $0xfe74,%edx
    41cb:	74 23                	je     41f0 <fb_font_glyph+0x640>
    41cd:	8d 82 8a 01 ff ff    	lea    -0xfe76(%edx),%eax
    41d3:	3d 86 00 00 00       	cmp    $0x86,%eax
    41d8:	76 73                	jbe    424d <fb_font_glyph+0x69d>
    41da:	b8 52 0b 00 00       	mov    $0xb52,%eax
    41df:	81 fa ff fe 00 00    	cmp    $0xfeff,%edx
    41e5:	75 09                	jne    41f0 <fb_font_glyph+0x640>
    41e7:	b0 50                	mov    $0x50,%al
    41e9:	8d b4 26 00 00 00 00 	lea    0x0(%esi,%eiz,1),%esi
    41f0:	5d                   	pop    %ebp
    41f1:	c3                   	ret    
    41f2:	8d b6 00 00 00 00    	lea    0x0(%esi),%esi
    41f8:	8d 42 e0             	lea    -0x20(%edx),%eax
    41fb:	5d                   	pop    %ebp
    41fc:	c3                   	ret    
    41fd:	8d 76 00             	lea    0x0(%esi),%esi
    4200:	8d 42 be             	lea    -0x42(%edx),%eax
    4203:	5d                   	pop    %ebp
    4204:	c3                   	ret    
    4205:	8d 76 00             	lea    0x0(%esi),%esi
    4208:	8d 42 c0             	lea    -0x40(%edx),%eax
    420b:	5d                   	pop    %ebp
    420c:	c3                   	ret    
    420d:	8d 76 00             	lea    0x0(%esi),%esi
    4210:	8d 42 a2             	lea    -0x5e(%edx),%eax
    4213:	5d                   	pop    %ebp
    4214:	c3                   	ret    
    4215:	8d 76 00             	lea    0x0(%esi),%esi
    4218:	8d 42 98             	lea    -0x68(%edx),%eax
    421b:	5d                   	pop    %ebp
    421c:	c3                   	ret    
    421d:	8d 76 00             	lea    0x0(%esi),%esi
    4220:	8d 42 a0             	lea    -0x60(%edx),%eax
    4223:	5d                   	pop    %ebp
    4224:	c3                   	ret    
    4225:	8d 82 77 ff ff ff    	lea    -0x89(%edx),%eax
    422b:	5d                   	pop    %ebp
    422c:	c3                   	ret    
    422d:	8d 82 69 ff ff ff    	lea    -0x97(%edx),%eax
    4233:	5d                   	pop    %ebp
    4234:	c3                   	ret    
    4235:	8d 82 3f ff ff ff    	lea    -0xc1(%edx),%eax
    423b:	5d                   	pop    %ebp
    423c:	c3                   	ret    
    423d:	8d 82 0d ff ff ff    	lea    -0xf3(%edx),%eax
    4243:	5d                   	pop    %ebp
    4244:	c3                   	ret    
    4245:	8d 82 01 ff ff ff    	lea    -0xff(%edx),%eax
    424b:	5d                   	pop    %ebp
    424c:	c3                   	ret    
    424d:	8d 82 53 0c 00 00    	lea    0xc53(%edx),%eax
    4253:	5d                   	pop    %ebp
    4254:	c3                   	ret    
    4255:	8d 82 ff fe ff ff    	lea    -0x101(%edx),%eax
    425b:	5d                   	pop    %ebp
    425c:	c3                   	ret    
    425d:	8d 82 fd fe ff ff    	lea    -0x103(%edx),%eax
    4263:	5d                   	pop    %ebp
    4264:	c3                   	ret    
    4265:	8d 82 fe fe ff ff    	lea    -0x102(%edx),%eax
    426b:	5d                   	pop    %ebp
    426c:	c3                   	ret    
    426d:	8d 82 55 0c 00 00    	lea    0xc55(%edx),%eax
    4273:	5d                   	pop    %ebp
    4274:	c3                   	ret    
    4275:	8d 82 59 0c 00 00    	lea    0xc59(%edx),%eax
    427b:	5d                   	pop    %ebp
    427c:	c3                   	ret    
    427d:	8d 82 5a 0c 00 00    	lea    0xc5a(%edx),%eax
    4283:	5d                   	pop    %ebp
    4284:	c3                   	ret    
    4285:	8d 82 5b 0c 00 00    	lea    0xc5b(%edx),%eax
    428b:	5d                   	pop    %ebp
    428c:	c3                   	ret    
    428d:	8d 82 c3 fe ff ff    	lea    -0x13d(%edx),%eax
    4293:	5d                   	pop    %ebp
    4294:	c3                   	ret    
    4295:	8d 82 c5 fe ff ff    	lea    -0x13b(%edx),%eax
    429b:	5d                   	pop    %ebp
    429c:	c3                   	ret    
    429d:	8d 82 e5 fe ff ff    	lea    -0x11b(%edx),%eax
    42a3:	5d                   	pop    %ebp
    42a4:	c3                   	ret    
    42a5:	8d 82 eb fe ff ff    	lea    -0x115(%edx),%eax
    42ab:	5d                   	pop    %ebp
    42ac:	c3                   	ret    
    42ad:	8d 82 ed fe ff ff    	lea    -0x113(%edx),%eax
    42b3:	5d                   	pop    %ebp
    42b4:	c3                   	ret    
    42b5:	8d 82 ee fe ff ff    	lea    -0x112(%edx),%eax
    42bb:	5d                   	pop    %ebp
    42bc:	c3                   	ret    
    42bd:	8d 82 ef fe ff ff    	lea    -0x111(%edx),%eax
    42c3:	5d                   	pop    %ebp
    42c4:	c3                   	ret    
    42c5:	8d 82 fb fe ff ff    	lea    -0x105(%edx),%eax
    42cb:	5d                   	pop    %ebp
    42cc:	c3                   	ret    
    42cd:	8d 82 6f e6 ff ff    	lea    -0x1991(%edx),%eax
    42d3:	5d                   	pop    %ebp
    42d4:	c3                   	ret    
    42d5:	8d 82 67 e7 ff ff    	lea    -0x1899(%edx),%eax
    42db:	5d                   	pop    %ebp
    42dc:	c3                   	ret    
    42dd:	8d 82 6d e7 ff ff    	lea    -0x1893(%edx),%eax
    42e3:	5d                   	pop    %ebp
    42e4:	c3                   	ret    
    42e5:	8d 82 71 e7 ff ff    	lea    -0x188f(%edx),%eax
    42eb:	5d                   	pop    %ebp
    42ec:	c3                   	ret    
    42ed:	8d 82 6d fe ff ff    	lea    -0x193(%edx),%eax
    42f3:	5d                   	pop    %ebp
    42f4:	c3                   	ret    
    42f5:	8d 82 6f fe ff ff    	lea    -0x191(%edx),%eax
    42fb:	5d                   	pop    %ebp
    42fc:	c3                   	ret    
    42fd:	8d 82 71 fe ff ff    	lea    -0x18f(%edx),%eax
    4303:	5d                   	pop    %ebp
    4304:	c3                   	ret    
    4305:	8d 82 7b fe ff ff    	lea    -0x185(%edx),%eax
    430b:	5d                   	pop    %ebp
    430c:	c3                   	ret    
    430d:	8d 82 80 fe ff ff    	lea    -0x180(%edx),%eax
    4313:	5d                   	pop    %ebp
    4314:	c3                   	ret    
    4315:	8d 82 a9 fe ff ff    	lea    -0x157(%edx),%eax
    431b:	5d                   	pop    %ebp
    431c:	c3                   	ret    
    431d:	8d 82 ae fe ff ff    	lea    -0x152(%edx),%eax
    4323:	5d                   	pop    %ebp
    4324:	c3                   	ret    
    4325:	8d 82 b9 fe ff ff    	lea    -0x147(%edx),%eax
    432b:	5d                   	pop    %ebp
    432c:	c3                   	ret    
    432d:	8d 82 ba fe ff ff    	lea    -0x146(%edx),%eax
    4333:	5d                   	pop    %ebp
    4334:	c3                   	ret    
    4335:	8d 82 bb fe ff ff    	lea    -0x145(%edx),%eax
    433b:	5d                   	pop    %ebp
    433c:	c3                   	ret    
    433d:	8d 82 c1 fe ff ff    	lea    -0x13f(%edx),%eax
    4343:	5d                   	pop    %ebp
    4344:	c3                   	ret    
    4345:	8d 82 c2 fe ff ff    	lea    -0x13e(%edx),%eax
    434b:	5d                   	pop    %ebp
    434c:	c3                   	ret    
    434d:	8d 82 6a 0d 00 00    	lea    0xd6a(%edx),%eax
    4353:	5d                   	pop    %ebp
    4354:	c3                   	ret    
    4355:	8d 82 b1 0d 00 00    	lea    0xdb1(%edx),%eax
    435b:	5d                   	pop    %ebp
    435c:	c3                   	ret    
    435d:	8d 82 3e 0e 00 00    	lea    0xe3e(%edx),%eax
    4363:	5d                   	pop    %ebp
    4364:	c3                   	ret    
    4365:	8d 82 99 0e 00 00    	lea    0xe99(%edx),%eax
    436b:	5d                   	pop    %ebp
    436c:	c3                   	ret    
    436d:	8d 82 ab 0e 00 00    	lea    0xeab(%edx),%eax
    4373:	5d                   	pop    %ebp
    4374:	c3                   	ret    
    4375:	8d 82 cc 0e 00 00    	lea    0xecc(%edx),%eax
    437b:	5d                   	pop    %ebp
    437c:	c3                   	ret    
    437d:	8d 82 16 0f 00 00    	lea    0xf16(%edx),%eax
    4383:	5d                   	pop    %ebp
    4384:	c3                   	ret    
    4385:	8d 82 a6 e3 ff ff    	lea    -0x1c5a(%edx),%eax
    438b:	5d                   	pop    %ebp
    438c:	c3                   	ret    
    438d:	8d 82 a7 e3 ff ff    	lea    -0x1c59(%edx),%eax
    4393:	5d                   	pop    %ebp
    4394:	c3                   	ret    
    4395:	8d 82 b3 e3 ff ff    	lea    -0x1c4d(%edx),%eax
    439b:	5d                   	pop    %ebp
    439c:	c3                   	ret    
    439d:	8d 82 b4 e3 ff ff    	lea    -0x1c4c(%edx),%eax
    43a3:	5d                   	pop    %ebp
    43a4:	c3                   	ret    
    43a5:	8d 82 b6 e3 ff ff    	lea    -0x1c4a(%edx),%eax
    43ab:	5d                   	pop    %ebp
    43ac:	c3                   	ret    
    43ad:	8d 82 c7 e3 ff ff    	lea    -0x1c39(%edx),%eax
    43b3:	5d                   	pop    %ebp
    43b4:	c3                   	ret    
    43b5:	8d 82 c9 e3 ff ff    	lea    -0x1c37(%edx),%eax
    43bb:	5d                   	pop    %ebp
    43bc:	c3                   	ret    
    43bd:	8d 82 cb e3 ff ff    	lea    -0x1c35(%edx),%eax
    43c3:	5d                   	pop    %ebp
    43c4:	c3                   	ret    
    43c5:	8d 82 d3 e3 ff ff    	lea    -0x1c2d(%edx),%eax
    43cb:	5d                   	pop    %ebp
    43cc:	c3                   	ret    
    43cd:	8d 82 dd e3 ff ff    	lea    -0x1c23(%edx),%eax
    43d3:	5d                   	pop    %ebp
    43d4:	c3                   	ret    
    43d5:	8d 82 b7 e4 ff ff    	lea    -0x1b49(%edx),%eax
    43db:	5d                   	pop    %ebp
    43dc:	c3                   	ret    
    43dd:	8d 82 cc e4 ff ff    	lea    -0x1b34(%edx),%eax
    43e3:	5d                   	pop    %ebp
    43e4:	c3                   	ret    
    43e5:	8d 82 16 e5 ff ff    	lea    -0x1aea(%edx),%eax
    43eb:	5d                   	pop    %ebp
    43ec:	c3                   	ret    
    43ed:	8d 82 86 e5 ff ff    	lea    -0x1a7a(%edx),%eax
    43f3:	5d                   	pop    %ebp
    43f4:	c3                   	ret    
    43f5:	8d 82 8d e5 ff ff    	lea    -0x1a73(%edx),%eax
    43fb:	5d                   	pop    %ebp
    43fc:	c3                   	ret    
    43fd:	8d 82 91 e5 ff ff    	lea    -0x1a6f(%edx),%eax
    4403:	5d                   	pop    %ebp
    4404:	c3                   	ret    
    4405:	8d 82 9d e5 ff ff    	lea    -0x1a63(%edx),%eax
    440b:	5d                   	pop    %ebp
    440c:	c3                   	ret    
    440d:	8d 82 b1 e5 ff ff    	lea    -0x1a4f(%edx),%eax
    4413:	5d                   	pop    %ebp
    4414:	c3                   	ret    
    4415:	8d 82 bd e5 ff ff    	lea    -0x1a43(%edx),%eax
    441b:	5d                   	pop    %ebp
    441c:	c3                   	ret    
    441d:	8d 82 c9 e5 ff ff    	lea    -0x1a37(%edx),%eax
    4423:	5d                   	pop    %ebp
    4424:	c3                   	ret    
    4425:	8d 82 e1 e5 ff ff    	lea    -0x1a1f(%edx),%eax
    442b:	5d                   	pop    %ebp
    442c:	c3                   	ret    
    442d:	8d 82 31 e6 ff ff    	lea    -0x19cf(%edx),%eax
    4433:	5d                   	pop    %ebp
    4434:	c3                   	ret    
    4435:	8d 82 41 e6 ff ff    	lea    -0x19bf(%edx),%eax
    443b:	5d                   	pop    %ebp
    443c:	c3                   	ret    
    443d:	8d 82 66 e6 ff ff    	lea    -0x199a(%edx),%eax
    4443:	5d                   	pop    %ebp
    4444:	c3                   	ret    
    4445:	8d 82 67 e6 ff ff    	lea    -0x1999(%edx),%eax
    444b:	5d                   	pop    %ebp
    444c:	c3                   	ret    
    444d:	66 90                	xchg   %ax,%ax
    444f:	90                   	nop

00004450 <drawctx_init>:
    4450:	55                   	push   %ebp
    4451:	89 e5                	mov    %esp,%ebp
    4453:	83 ec 18             	sub    $0x18,%esp
    4456:	8b 55 0c             	mov    0xc(%ebp),%edx
    4459:	8b 45 08             	mov    0x8(%ebp),%eax
    445c:	85 d2                	test   %edx,%edx
    445e:	74 4b                	je     44ab <drawctx_init+0x5b>
    4460:	8d 48 08             	lea    0x8(%eax),%ecx
    4463:	89 50 10             	mov    %edx,0x10(%eax)
    4466:	89 48 08             	mov    %ecx,0x8(%eax)
    4469:	89 48 0c             	mov    %ecx,0xc(%eax)
    446c:	c7 40 14 60 59 00 00 	movl   $0x5960,0x14(%eax)
    4473:	c7 40 18 00 00 00 00 	movl   $0x0,0x18(%eax)
    447a:	c7 40 1c 00 00 00 00 	movl   $0x0,0x1c(%eax)
    4481:	c6 40 24 00          	movb   $0x0,0x24(%eax)
    4485:	c7 40 28 00 00 00 00 	movl   $0x0,0x28(%eax)
    448c:	c7 40 2c 00 00 00 00 	movl   $0x0,0x2c(%eax)
    4493:	8d 48 34             	lea    0x34(%eax),%ecx
    4496:	83 c0 30             	add    $0x30,%eax
    4499:	89 4c 24 08          	mov    %ecx,0x8(%esp)
    449d:	89 44 24 04          	mov    %eax,0x4(%esp)
    44a1:	89 14 24             	mov    %edx,(%esp)
    44a4:	e8 c7 0d 00 00       	call   5270 <surface_get_resolution>
    44a9:	c9                   	leave  
    44aa:	c3                   	ret    
    44ab:	c7 44 24 08 2c 00 00 	movl   $0x2c,0x8(%esp)
    44b2:	00 
    44b3:	c7 44 24 04 84 3e 02 	movl   $0x23e84,0x4(%esp)
    44ba:	00 
    44bb:	c7 04 24 8e 3e 02 00 	movl   $0x23e8e,(%esp)
    44c2:	e8 79 d6 01 00       	call   21b40 <assert_abort>
    44c7:	89 f6                	mov    %esi,%esi
    44c9:	8d bc 27 00 00 00 00 	lea    0x0(%edi,%eiz,1),%edi

000044d0 <drawctx_save>:
    44d0:	55                   	push   %ebp
    44d1:	89 e5                	mov    %esp,%ebp
    44d3:	53                   	push   %ebx
    44d4:	83 ec 14             	sub    $0x14,%esp
    44d7:	8b 5d 08             	mov    0x8(%ebp),%ebx
    44da:	c7 04 24 38 00 00 00 	movl   $0x38,(%esp)
    44e1:	e8 7a 2d 01 00       	call   17260 <malloc>
    44e6:	85 c0                	test   %eax,%eax
    44e8:	74 47                	je     4531 <drawctx_save+0x61>
    44ea:	8b 53 14             	mov    0x14(%ebx),%edx
    44ed:	c7 00 00 00 00 00    	movl   $0x0,(%eax)
    44f3:	89 50 14             	mov    %edx,0x14(%eax)
    44f6:	8b 53 18             	mov    0x18(%ebx),%edx
    44f9:	89 50 18             	mov    %edx,0x18(%eax)
    44fc:	8b 53 1c             	mov    0x1c(%ebx),%edx
    44ff:	89 50 1c             	mov    %edx,0x1c(%eax)
    4502:	8a 53 24             	mov    0x24(%ebx),%dl
    4505:	88 50 24             	mov    %dl,0x24(%eax)
    4508:	8b 53 28             	mov    0x28(%ebx),%edx
    450b:	89 50 28             	mov    %edx,0x28(%eax)
    450e:	8b 53 2c             	mov    0x2c(%ebx),%edx
    4511:	89 50 2c             	mov    %edx,0x2c(%eax)
    4514:	8b 53 30             	mov    0x30(%ebx),%edx
    4517:	89 50 30             	mov    %edx,0x30(%eax)
    451a:	8b 53 34             	mov    0x34(%ebx),%edx
    451d:	89 50 34             	mov    %edx,0x34(%eax)
    4520:	8d 53 08             	lea    0x8(%ebx),%edx
    4523:	89 50 04             	mov    %edx,0x4(%eax)
    4526:	8b 53 08             	mov    0x8(%ebx),%edx
    4529:	89 10                	mov    %edx,(%eax)
    452b:	89 43 08             	mov    %eax,0x8(%ebx)
    452e:	89 42 04             	mov    %eax,0x4(%edx)
    4531:	83 c4 14             	add    $0x14,%esp
    4534:	5b                   	pop    %ebx
    4535:	5d                   	pop    %ebp
    4536:	c3                   	ret    
    4537:	89 f6                	mov    %esi,%esi
    4539:	8d bc 27 00 00 00 00 	lea    0x0(%edi,%eiz,1),%edi

00004540 <drawctx_restore>:
    4540:	55                   	push   %ebp
    4541:	89 e5                	mov    %esp,%ebp
    4543:	53                   	push   %ebx
    4544:	8b 55 08             	mov    0x8(%ebp),%edx
    4547:	8b 42 08             	mov    0x8(%edx),%eax
    454a:	8d 4a 08             	lea    0x8(%edx),%ecx
    454d:	39 c8                	cmp    %ecx,%eax
    454f:	74 5f                	je     45b0 <drawctx_restore+0x70>
    4551:	85 c0                	test   %eax,%eax
    4553:	74 5b                	je     45b0 <drawctx_restore+0x70>
    4555:	8b 18                	mov    (%eax),%ebx
    4557:	85 db                	test   %ebx,%ebx
    4559:	74 0e                	je     4569 <drawctx_restore+0x29>
    455b:	8b 48 04             	mov    0x4(%eax),%ecx
    455e:	85 c9                	test   %ecx,%ecx
    4560:	74 07                	je     4569 <drawctx_restore+0x29>
    4562:	89 19                	mov    %ebx,(%ecx)
    4564:	8b 18                	mov    (%eax),%ebx
    4566:	89 4b 04             	mov    %ecx,0x4(%ebx)
    4569:	8b 48 14             	mov    0x14(%eax),%ecx
    456c:	c7 00 00 00 00 00    	movl   $0x0,(%eax)
    4572:	c7 40 04 00 00 00 00 	movl   $0x0,0x4(%eax)
    4579:	89 4a 14             	mov    %ecx,0x14(%edx)
    457c:	8b 48 18             	mov    0x18(%eax),%ecx
    457f:	89 4a 18             	mov    %ecx,0x18(%edx)
    4582:	8b 48 1c             	mov    0x1c(%eax),%ecx
    4585:	89 4a 1c             	mov    %ecx,0x1c(%edx)
    4588:	8a 48 24             	mov    0x24(%eax),%cl
    458b:	88 4a 24             	mov    %cl,0x24(%edx)
    458e:	8b 48 28             	mov    0x28(%eax),%ecx
    4591:	89 4a 28             	mov    %ecx,0x28(%edx)
    4594:	8b 48 2c             	mov    0x2c(%eax),%ecx
    4597:	89 4a 2c             	mov    %ecx,0x2c(%edx)
    459a:	8b 48 30             	mov    0x30(%eax),%ecx
    459d:	89 4a 30             	mov    %ecx,0x30(%edx)
    45a0:	8b 48 34             	mov    0x34(%eax),%ecx
    45a3:	89 4a 34             	mov    %ecx,0x34(%edx)
    45a6:	89 45 08             	mov    %eax,0x8(%ebp)
    45a9:	5b                   	pop    %ebx
    45aa:	5d                   	pop    %ebp
    45ab:	e9 c0 2d 01 00       	jmp    17370 <free>
    45b0:	5b                   	pop    %ebx
    45b1:	5d                   	pop    %ebp
    45b2:	c3                   	ret    
    45b3:	8d b6 00 00 00 00    	lea    0x0(%esi),%esi
    45b9:	8d bc 27 00 00 00 00 	lea    0x0(%edi,%eiz,1),%edi

000045c0 <drawctx_set_compose>:
    45c0:	55                   	push   %ebp
    45c1:	89 e5                	mov    %esp,%ebp
    45c3:	8b 45 08             	mov    0x8(%ebp),%eax
    45c6:	8b 55 0c             	mov    0xc(%ebp),%edx
    45c9:	89 50 14             	mov    %edx,0x14(%eax)
    45cc:	5d                   	pop    %ebp
    45cd:	c3                   	ret    
    45ce:	66 90                	xchg   %ax,%ax

000045d0 <drawctx_set_clip>:
    45d0:	55                   	push   %ebp
    45d1:	89 e5                	mov    %esp,%ebp
    45d3:	57                   	push   %edi
    45d4:	56                   	push   %esi
    45d5:	53                   	push   %ebx
    45d6:	83 ec 1c             	sub    $0x1c,%esp
    45d9:	8b 5d 08             	mov    0x8(%ebp),%ebx
    45dc:	8b 75 0c             	mov    0xc(%ebp),%esi
    45df:	8b 7d 14             	mov    0x14(%ebp),%edi
    45e2:	8d 53 34             	lea    0x34(%ebx),%edx
    45e5:	89 54 24 08          	mov    %edx,0x8(%esp)
    45e9:	8d 53 30             	lea    0x30(%ebx),%edx
    45ec:	89 54 24 04          	mov    %edx,0x4(%esp)
    45f0:	8b 53 10             	mov    0x10(%ebx),%edx
    45f3:	89 14 24             	mov    %edx,(%esp)
    45f6:	e8 75 0c 00 00       	call   5270 <surface_get_resolution>
    45fb:	8b 45 10             	mov    0x10(%ebp),%eax
    45fe:	b2 01                	mov    $0x1,%dl
    4600:	09 f0                	or     %esi,%eax
    4602:	75 0e                	jne    4612 <drawctx_set_clip+0x42>
    4604:	39 7b 30             	cmp    %edi,0x30(%ebx)
    4607:	77 09                	ja     4612 <drawctx_set_clip+0x42>
    4609:	8b 45 18             	mov    0x18(%ebp),%eax
    460c:	39 43 34             	cmp    %eax,0x34(%ebx)
    460f:	0f 97 c2             	seta   %dl
    4612:	8b 45 10             	mov    0x10(%ebp),%eax
    4615:	88 53 24             	mov    %dl,0x24(%ebx)
    4618:	89 43 2c             	mov    %eax,0x2c(%ebx)
    461b:	8b 45 18             	mov    0x18(%ebp),%eax
    461e:	89 73 28             	mov    %esi,0x28(%ebx)
    4621:	89 7b 30             	mov    %edi,0x30(%ebx)
    4624:	89 43 34             	mov    %eax,0x34(%ebx)
    4627:	83 c4 1c             	add    $0x1c,%esp
    462a:	5b                   	pop    %ebx
    462b:	5e                   	pop    %esi
    462c:	5f                   	pop    %edi
    462d:	5d                   	pop    %ebp
    462e:	c3                   	ret    
    462f:	90                   	nop

00004630 <drawctx_set_mask>:
    4630:	55                   	push   %ebp
    4631:	89 e5                	mov    %esp,%ebp
    4633:	8b 45 08             	mov    0x8(%ebp),%eax
    4636:	8b 55 0c             	mov    0xc(%ebp),%edx
    4639:	89 50 18             	mov    %edx,0x18(%eax)
    463c:	5d                   	pop    %ebp
    463d:	c3                   	ret    
    463e:	66 90                	xchg   %ax,%ax

00004640 <drawctx_set_source>:
    4640:	55                   	push   %ebp
    4641:	89 e5                	mov    %esp,%ebp
    4643:	8b 45 08             	mov    0x8(%ebp),%eax
    4646:	8b 55 0c             	mov    0xc(%ebp),%edx
    4649:	89 50 1c             	mov    %edx,0x1c(%eax)
    464c:	5d                   	pop    %ebp
    464d:	c3                   	ret    
    464e:	66 90                	xchg   %ax,%ax

00004650 <drawctx_set_font>:
    4650:	55                   	push   %ebp
    4651:	89 e5                	mov    %esp,%ebp
    4653:	8b 45 08             	mov    0x8(%ebp),%eax
    4656:	8b 55 0c             	mov    0xc(%ebp),%edx
    4659:	89 50 20             	mov    %edx,0x20(%eax)
    465c:	5d                   	pop    %ebp
    465d:	c3                   	ret    
    465e:	66 90                	xchg   %ax,%ax

00004660 <drawctx_transfer>:
    4660:	55                   	push   %ebp
    4661:	89 e5                	mov    %esp,%ebp
    4663:	57                   	push   %edi
    4664:	56                   	push   %esi
    4665:	53                   	push   %ebx
    4666:	83 ec 6c             	sub    $0x6c,%esp
    4669:	8b 75 0c             	mov    0xc(%ebp),%esi
    466c:	8b 7d 08             	mov    0x8(%ebp),%edi
    466f:	89 75 c4             	mov    %esi,-0x3c(%ebp)
    4672:	8b 75 10             	mov    0x10(%ebp),%esi
    4675:	89 75 c8             	mov    %esi,-0x38(%ebp)
    4678:	8b 47 1c             	mov    0x1c(%edi),%eax
    467b:	8b 75 18             	mov    0x18(%ebp),%esi
    467e:	8b 5d 14             	mov    0x14(%ebp),%ebx
    4681:	89 75 c0             	mov    %esi,-0x40(%ebp)
    4684:	85 c0                	test   %eax,%eax
    4686:	0f 84 32 01 00 00    	je     47be <drawctx_transfer+0x15e>
    468c:	89 04 24             	mov    %eax,(%esp)
    468f:	e8 fc 07 00 00       	call   4e90 <source_is_fast>
    4694:	84 c0                	test   %al,%al
    4696:	0f 85 2a 01 00 00    	jne    47c6 <drawctx_transfer+0x166>
    469c:	8b 75 c0             	mov    -0x40(%ebp),%esi
    469f:	8b 45 c8             	mov    -0x38(%ebp),%eax
    46a2:	01 c6                	add    %eax,%esi
    46a4:	89 75 c0             	mov    %esi,-0x40(%ebp)
    46a7:	39 75 c8             	cmp    %esi,-0x38(%ebp)
    46aa:	0f 83 0e 01 00 00    	jae    47be <drawctx_transfer+0x15e>
    46b0:	8b 4d c4             	mov    -0x3c(%ebp),%ecx
    46b3:	8b 75 c8             	mov    -0x38(%ebp),%esi
    46b6:	01 cb                	add    %ecx,%ebx
    46b8:	c6 45 d0 00          	movb   $0x0,-0x30(%ebp)
    46bc:	89 5d d8             	mov    %ebx,-0x28(%ebp)
    46bf:	31 c9                	xor    %ecx,%ecx
    46c1:	8d b4 26 00 00 00 00 	lea    0x0(%esi,%eiz,1),%esi
    46c8:	8b 5d c4             	mov    -0x3c(%ebp),%ebx
    46cb:	89 75 c8             	mov    %esi,-0x38(%ebp)
    46ce:	c7 45 cc 00 00 00 00 	movl   $0x0,-0x34(%ebp)
    46d5:	39 5d d8             	cmp    %ebx,-0x28(%ebp)
    46d8:	77 10                	ja     46ea <drawctx_transfer+0x8a>
    46da:	e9 d5 00 00 00       	jmp    47b4 <drawctx_transfer+0x154>
    46df:	90                   	nop
    46e0:	43                   	inc    %ebx
    46e1:	39 5d d8             	cmp    %ebx,-0x28(%ebp)
    46e4:	0f 86 ca 00 00 00    	jbe    47b4 <drawctx_transfer+0x154>
    46ea:	80 7f 24 00          	cmpb   $0x0,0x24(%edi)
    46ee:	74 28                	je     4718 <drawctx_transfer+0xb8>
    46f0:	39 5f 28             	cmp    %ebx,0x28(%edi)
    46f3:	0f 86 c7 01 00 00    	jbe    48c0 <drawctx_transfer+0x260>
    46f9:	39 5f 30             	cmp    %ebx,0x30(%edi)
    46fc:	0f 87 be 01 00 00    	ja     48c0 <drawctx_transfer+0x260>
    4702:	39 77 2c             	cmp    %esi,0x2c(%edi)
    4705:	0f 86 b5 01 00 00    	jbe    48c0 <drawctx_transfer+0x260>
    470b:	3b 77 34             	cmp    0x34(%edi),%esi
    470e:	0f 93 45 d0          	setae  -0x30(%ebp)
    4712:	8d b6 00 00 00 00    	lea    0x0(%esi),%esi
    4718:	8a 45 d0             	mov    -0x30(%ebp),%al
    471b:	83 f0 01             	xor    $0x1,%eax
    471e:	88 45 df             	mov    %al,-0x21(%ebp)
    4721:	8b 47 18             	mov    0x18(%edi),%eax
    4724:	85 c0                	test   %eax,%eax
    4726:	74 15                	je     473d <drawctx_transfer+0xdd>
    4728:	89 74 24 08          	mov    %esi,0x8(%esp)
    472c:	89 5c 24 04          	mov    %ebx,0x4(%esp)
    4730:	89 04 24             	mov    %eax,(%esp)
    4733:	e8 78 0d 00 00       	call   54b0 <surface_get_pixel>
    4738:	85 c0                	test   %eax,%eax
    473a:	0f 94 c1             	sete   %cl
    473d:	84 c9                	test   %cl,%cl
    473f:	75 9f                	jne    46e0 <drawctx_transfer+0x80>
    4741:	80 7d df 00          	cmpb   $0x0,-0x21(%ebp)
    4745:	74 99                	je     46e0 <drawctx_transfer+0x80>
    4747:	df 6d c8             	fildll -0x38(%ebp)
    474a:	31 d2                	xor    %edx,%edx
    474c:	89 5d e0             	mov    %ebx,-0x20(%ebp)
    474f:	dd 5c 24 0c          	fstpl  0xc(%esp)
    4753:	89 55 e4             	mov    %edx,-0x1c(%ebp)
    4756:	df 6d e0             	fildll -0x20(%ebp)
    4759:	dd 5c 24 04          	fstpl  0x4(%esp)
    475d:	8b 47 1c             	mov    0x1c(%edi),%eax
    4760:	88 4d bc             	mov    %cl,-0x44(%ebp)
    4763:	89 04 24             	mov    %eax,(%esp)
    4766:	e8 55 08 00 00       	call   4fc0 <source_determine_pixel>
    476b:	89 5c 24 04          	mov    %ebx,0x4(%esp)
    476f:	89 74 24 08          	mov    %esi,0x8(%esp)
    4773:	89 c2                	mov    %eax,%edx
    4775:	8b 47 10             	mov    0x10(%edi),%eax
    4778:	89 55 b8             	mov    %edx,-0x48(%ebp)
    477b:	89 04 24             	mov    %eax,(%esp)
    477e:	e8 2d 0d 00 00       	call   54b0 <surface_get_pixel>
    4783:	8b 55 b8             	mov    -0x48(%ebp),%edx
    4786:	89 14 24             	mov    %edx,(%esp)
    4789:	89 44 24 04          	mov    %eax,0x4(%esp)
    478d:	ff 57 14             	call   *0x14(%edi)
    4790:	89 5c 24 04          	mov    %ebx,0x4(%esp)
    4794:	89 44 24 0c          	mov    %eax,0xc(%esp)
    4798:	89 74 24 08          	mov    %esi,0x8(%esp)
    479c:	8b 47 10             	mov    0x10(%edi),%eax
    479f:	43                   	inc    %ebx
    47a0:	89 04 24             	mov    %eax,(%esp)
    47a3:	e8 98 0c 00 00       	call   5440 <surface_put_pixel>
    47a8:	8a 4d bc             	mov    -0x44(%ebp),%cl
    47ab:	39 5d d8             	cmp    %ebx,-0x28(%ebp)
    47ae:	0f 87 36 ff ff ff    	ja     46ea <drawctx_transfer+0x8a>
    47b4:	46                   	inc    %esi
    47b5:	3b 75 c0             	cmp    -0x40(%ebp),%esi
    47b8:	0f 82 0a ff ff ff    	jb     46c8 <drawctx_transfer+0x68>
    47be:	83 c4 6c             	add    $0x6c,%esp
    47c1:	5b                   	pop    %ebx
    47c2:	5e                   	pop    %esi
    47c3:	5f                   	pop    %edi
    47c4:	5d                   	pop    %ebp
    47c5:	c3                   	ret    
    47c6:	80 7f 24 00          	cmpb   $0x0,0x24(%edi)
    47ca:	0f 85 cc fe ff ff    	jne    469c <drawctx_transfer+0x3c>
    47d0:	8b 57 18             	mov    0x18(%edi),%edx
    47d3:	85 d2                	test   %edx,%edx
    47d5:	0f 85 c1 fe ff ff    	jne    469c <drawctx_transfer+0x3c>
    47db:	8b 47 14             	mov    0x14(%edi),%eax
    47de:	3d 60 59 00 00       	cmp    $0x5960,%eax
    47e3:	74 0b                	je     47f0 <drawctx_transfer+0x190>
    47e5:	3d 80 59 00 00       	cmp    $0x5980,%eax
    47ea:	0f 85 ac fe ff ff    	jne    469c <drawctx_transfer+0x3c>
    47f0:	8b 45 c8             	mov    -0x38(%ebp),%eax
    47f3:	8b 75 c0             	mov    -0x40(%ebp),%esi
    47f6:	01 c6                	add    %eax,%esi
    47f8:	89 75 d8             	mov    %esi,-0x28(%ebp)
    47fb:	8b 75 c8             	mov    -0x38(%ebp),%esi
    47fe:	8b 45 d8             	mov    -0x28(%ebp),%eax
    4801:	39 c6                	cmp    %eax,%esi
    4803:	0f 83 8b 00 00 00    	jae    4894 <drawctx_transfer+0x234>
    4809:	8b 45 c4             	mov    -0x3c(%ebp),%eax
    480c:	31 d2                	xor    %edx,%edx
    480e:	89 45 e0             	mov    %eax,-0x20(%ebp)
    4811:	89 55 e4             	mov    %edx,-0x1c(%ebp)
    4814:	df 6d e0             	fildll -0x20(%ebp)
    4817:	dd 5d d0             	fstpl  -0x30(%ebp)
    481a:	8d b6 00 00 00 00    	lea    0x0(%esi),%esi
    4820:	31 d2                	xor    %edx,%edx
    4822:	89 75 e0             	mov    %esi,-0x20(%ebp)
    4825:	89 55 e4             	mov    %edx,-0x1c(%ebp)
    4828:	df 6d e0             	fildll -0x20(%ebp)
    482b:	dd 5c 24 0c          	fstpl  0xc(%esp)
    482f:	dd 45 d0             	fldl   -0x30(%ebp)
    4832:	dd 5c 24 04          	fstpl  0x4(%esp)
    4836:	8b 47 1c             	mov    0x1c(%edi),%eax
    4839:	89 04 24             	mov    %eax,(%esp)
    483c:	e8 8f 06 00 00       	call   4ed0 <source_direct_access>
    4841:	89 c1                	mov    %eax,%ecx
    4843:	8b 47 10             	mov    0x10(%edi),%eax
    4846:	89 04 24             	mov    %eax,(%esp)
    4849:	89 4d bc             	mov    %ecx,-0x44(%ebp)
    484c:	e8 0f 0a 00 00       	call   5260 <surface_pixmap_access>
    4851:	8b 4d bc             	mov    -0x44(%ebp),%ecx
    4854:	8b 10                	mov    (%eax),%edx
    4856:	39 55 c4             	cmp    %edx,-0x3c(%ebp)
    4859:	73 33                	jae    488e <drawctx_transfer+0x22e>
    485b:	3b 70 04             	cmp    0x4(%eax),%esi
    485e:	73 2e                	jae    488e <drawctx_transfer+0x22e>
    4860:	0f af d6             	imul   %esi,%edx
    4863:	03 55 c4             	add    -0x3c(%ebp),%edx
    4866:	8b 40 08             	mov    0x8(%eax),%eax
    4869:	8d 04 90             	lea    (%eax,%edx,4),%eax
    486c:	85 c0                	test   %eax,%eax
    486e:	74 1e                	je     488e <drawctx_transfer+0x22e>
    4870:	85 c9                	test   %ecx,%ecx
    4872:	74 1a                	je     488e <drawctx_transfer+0x22e>
    4874:	85 db                	test   %ebx,%ebx
    4876:	74 16                	je     488e <drawctx_transfer+0x22e>
    4878:	31 d2                	xor    %edx,%edx
    487a:	89 75 b4             	mov    %esi,-0x4c(%ebp)
    487d:	8d 76 00             	lea    0x0(%esi),%esi
    4880:	8b 34 91             	mov    (%ecx,%edx,4),%esi
    4883:	89 34 90             	mov    %esi,(%eax,%edx,4)
    4886:	42                   	inc    %edx
    4887:	39 da                	cmp    %ebx,%edx
    4889:	75 f5                	jne    4880 <drawctx_transfer+0x220>
    488b:	8b 75 b4             	mov    -0x4c(%ebp),%esi
    488e:	46                   	inc    %esi
    488f:	3b 75 d8             	cmp    -0x28(%ebp),%esi
    4892:	72 8c                	jb     4820 <drawctx_transfer+0x1c0>
    4894:	8b 75 c0             	mov    -0x40(%ebp),%esi
    4897:	89 5d 14             	mov    %ebx,0x14(%ebp)
    489a:	89 75 18             	mov    %esi,0x18(%ebp)
    489d:	8b 75 c8             	mov    -0x38(%ebp),%esi
    48a0:	89 75 10             	mov    %esi,0x10(%ebp)
    48a3:	8b 75 c4             	mov    -0x3c(%ebp),%esi
    48a6:	89 75 0c             	mov    %esi,0xc(%ebp)
    48a9:	8b 47 10             	mov    0x10(%edi),%eax
    48ac:	89 45 08             	mov    %eax,0x8(%ebp)
    48af:	83 c4 6c             	add    $0x6c,%esp
    48b2:	5b                   	pop    %ebx
    48b3:	5e                   	pop    %esi
    48b4:	5f                   	pop    %edi
    48b5:	5d                   	pop    %ebp
    48b6:	e9 f5 0a 00 00       	jmp    53b0 <surface_add_damaged_region>
    48bb:	90                   	nop
    48bc:	8d 74 26 00          	lea    0x0(%esi,%eiz,1),%esi
    48c0:	c6 45 df 01          	movb   $0x1,-0x21(%ebp)
    48c4:	c6 45 d0 00          	movb   $0x0,-0x30(%ebp)
    48c8:	e9 54 fe ff ff       	jmp    4721 <drawctx_transfer+0xc1>
    48cd:	8d 76 00             	lea    0x0(%esi),%esi

000048d0 <drawctx_stroke>:
    48d0:	55                   	push   %ebp
    48d1:	89 e5                	mov    %esp,%ebp
    48d3:	8b 45 08             	mov    0x8(%ebp),%eax
    48d6:	8b 55 0c             	mov    0xc(%ebp),%edx
    48d9:	8b 40 1c             	mov    0x1c(%eax),%eax
    48dc:	85 c0                	test   %eax,%eax
    48de:	74 17                	je     48f7 <drawctx_stroke+0x27>
    48e0:	85 d2                	test   %edx,%edx
    48e2:	74 13                	je     48f7 <drawctx_stroke+0x27>
    48e4:	8b 42 04             	mov    0x4(%edx),%eax
    48e7:	39 d0                	cmp    %edx,%eax
    48e9:	74 0c                	je     48f7 <drawctx_stroke+0x27>
    48eb:	90                   	nop
    48ec:	8d 74 26 00          	lea    0x0(%esi,%eiz,1),%esi
    48f0:	8b 40 04             	mov    0x4(%eax),%eax
    48f3:	39 d0                	cmp    %edx,%eax
    48f5:	75 f9                	jne    48f0 <drawctx_stroke+0x20>
    48f7:	5d                   	pop    %ebp
    48f8:	c3                   	ret    
    48f9:	8d b4 26 00 00 00 00 	lea    0x0(%esi,%eiz,1),%esi

00004900 <drawctx_fill>:
    4900:	55                   	push   %ebp
    4901:	89 e5                	mov    %esp,%ebp
    4903:	5d                   	pop    %ebp
    4904:	c3                   	ret    
    4905:	8d 74 26 00          	lea    0x0(%esi,%eiz,1),%esi
    4909:	8d bc 27 00 00 00 00 	lea    0x0(%edi,%eiz,1),%edi

00004910 <drawctx_print>:
    4910:	55                   	push   %ebp
    4911:	89 e5                	mov    %esp,%ebp
    4913:	53                   	push   %ebx
    4914:	83 ec 24             	sub    $0x24,%esp
    4917:	8b 45 08             	mov    0x8(%ebp),%eax
    491a:	8b 50 20             	mov    0x20(%eax),%edx
    491d:	85 d2                	test   %edx,%edx
    491f:	74 2c                	je     494d <drawctx_print+0x3d>
    4921:	8b 48 1c             	mov    0x1c(%eax),%ecx
    4924:	85 c9                	test   %ecx,%ecx
    4926:	74 25                	je     494d <drawctx_print+0x3d>
    4928:	8b 5d 14             	mov    0x14(%ebp),%ebx
    492b:	89 4c 24 08          	mov    %ecx,0x8(%esp)
    492f:	89 5c 24 14          	mov    %ebx,0x14(%esp)
    4933:	8b 5d 10             	mov    0x10(%ebp),%ebx
    4936:	89 5c 24 10          	mov    %ebx,0x10(%esp)
    493a:	8b 5d 0c             	mov    0xc(%ebp),%ebx
    493d:	89 5c 24 0c          	mov    %ebx,0xc(%esp)
    4941:	89 44 24 04          	mov    %eax,0x4(%esp)
    4945:	89 14 24             	mov    %edx,(%esp)
    4948:	e8 63 02 00 00       	call   4bb0 <font_draw_text>
    494d:	83 c4 24             	add    $0x24,%esp
    4950:	5b                   	pop    %ebx
    4951:	5d                   	pop    %ebp
    4952:	c3                   	ret    
    4953:	66 90                	xchg   %ax,%ax
    4955:	66 90                	xchg   %ax,%ax
    4957:	66 90                	xchg   %ax,%ax
    4959:	66 90                	xchg   %ax,%ax
    495b:	66 90                	xchg   %ax,%ax
    495d:	66 90                	xchg   %ax,%ax
    495f:	90                   	nop

00004960 <font_init>:
    4960:	55                   	push   %ebp
    4961:	89 e5                	mov    %esp,%ebp
    4963:	53                   	push   %ebx
    4964:	83 ec 14             	sub    $0x14,%esp
    4967:	8b 5d 08             	mov    0x8(%ebp),%ebx
    496a:	8b 45 14             	mov    0x14(%ebp),%eax
    496d:	66 89 03             	mov    %ax,(%ebx)
    4970:	8b 45 0c             	mov    0xc(%ebp),%eax
    4973:	85 c0                	test   %eax,%eax
    4975:	75 39                	jne    49b0 <font_init+0x50>
    4977:	8d 43 0c             	lea    0xc(%ebx),%eax
    497a:	c7 43 08 d0 1e 03 00 	movl   $0x31ed0,0x8(%ebx)
    4981:	89 44 24 08          	mov    %eax,0x8(%esp)
    4985:	8d 43 02             	lea    0x2(%ebx),%eax
    4988:	89 44 24 04          	mov    %eax,0x4(%esp)
    498c:	8b 45 10             	mov    0x10(%ebp),%eax
    498f:	89 04 24             	mov    %eax,(%esp)
    4992:	ff 15 d0 1e 03 00    	call   *0x31ed0
    4998:	66 8b 43 02          	mov    0x2(%ebx),%ax
    499c:	66 85 c0             	test   %ax,%ax
    499f:	75 37                	jne    49d8 <font_init+0x78>
    49a1:	c7 43 04 00 00 00 00 	movl   $0x0,0x4(%ebx)
    49a8:	66 c7 43 02 00 00    	movw   $0x0,0x2(%ebx)
    49ae:	eb 1b                	jmp    49cb <font_init+0x6b>
    49b0:	c7 43 08 00 00 00 00 	movl   $0x0,0x8(%ebx)
    49b7:	66 c7 43 02 00 00    	movw   $0x0,0x2(%ebx)
    49bd:	c7 43 04 00 00 00 00 	movl   $0x0,0x4(%ebx)
    49c4:	c7 43 0c 00 00 00 00 	movl   $0x0,0xc(%ebx)
    49cb:	83 c4 14             	add    $0x14,%esp
    49ce:	5b                   	pop    %ebx
    49cf:	5d                   	pop    %ebp
    49d0:	c3                   	ret    
    49d1:	8d b4 26 00 00 00 00 	lea    0x0(%esi,%eiz,1),%esi
    49d8:	25 ff ff 00 00       	and    $0xffff,%eax
    49dd:	c1 e0 02             	shl    $0x2,%eax
    49e0:	89 04 24             	mov    %eax,(%esp)
    49e3:	e8 78 28 01 00       	call   17260 <malloc>
    49e8:	89 43 04             	mov    %eax,0x4(%ebx)
    49eb:	85 c0                	test   %eax,%eax
    49ed:	74 b9                	je     49a8 <font_init+0x48>
    49ef:	66 8b 4b 02          	mov    0x2(%ebx),%cx
    49f3:	66 85 c9             	test   %cx,%cx
    49f6:	74 d3                	je     49cb <font_init+0x6b>
    49f8:	81 e1 ff ff 00 00    	and    $0xffff,%ecx
    49fe:	31 d2                	xor    %edx,%edx
    4a00:	49                   	dec    %ecx
    4a01:	eb 09                	jmp    4a0c <font_init+0xac>
    4a03:	90                   	nop
    4a04:	8d 74 26 00          	lea    0x0(%esi,%eiz,1),%esi
    4a08:	8b 43 04             	mov    0x4(%ebx),%eax
    4a0b:	42                   	inc    %edx
    4a0c:	c7 04 90 00 00 00 00 	movl   $0x0,(%eax,%edx,4)
    4a13:	39 ca                	cmp    %ecx,%edx
    4a15:	75 f1                	jne    4a08 <font_init+0xa8>
    4a17:	83 c4 14             	add    $0x14,%esp
    4a1a:	5b                   	pop    %ebx
    4a1b:	5d                   	pop    %ebp
    4a1c:	c3                   	ret    
    4a1d:	8d 76 00             	lea    0x0(%esi),%esi

00004a20 <font_release>:
    4a20:	55                   	push   %ebp
    4a21:	89 e5                	mov    %esp,%ebp
    4a23:	56                   	push   %esi
    4a24:	53                   	push   %ebx
    4a25:	83 ec 10             	sub    $0x10,%esp
    4a28:	8b 75 08             	mov    0x8(%ebp),%esi
    4a2b:	8b 56 04             	mov    0x4(%esi),%edx
    4a2e:	85 d2                	test   %edx,%edx
    4a30:	74 38                	je     4a6a <font_release+0x4a>
    4a32:	66 8b 4e 02          	mov    0x2(%esi),%cx
    4a36:	66 85 c9             	test   %cx,%cx
    4a39:	74 27                	je     4a62 <font_release+0x42>
    4a3b:	31 db                	xor    %ebx,%ebx
    4a3d:	8d 76 00             	lea    0x0(%esi),%esi
    4a40:	8b 04 9a             	mov    (%edx,%ebx,4),%eax
    4a43:	85 c0                	test   %eax,%eax
    4a45:	74 0f                	je     4a56 <font_release+0x36>
    4a47:	89 04 24             	mov    %eax,(%esp)
    4a4a:	e8 b1 07 00 00       	call   5200 <surface_destroy>
    4a4f:	8b 56 04             	mov    0x4(%esi),%edx
    4a52:	66 8b 4e 02          	mov    0x2(%esi),%cx
    4a56:	89 c8                	mov    %ecx,%eax
    4a58:	43                   	inc    %ebx
    4a59:	25 ff ff 00 00       	and    $0xffff,%eax
    4a5e:	39 d8                	cmp    %ebx,%eax
    4a60:	77 de                	ja     4a40 <font_release+0x20>
    4a62:	89 14 24             	mov    %edx,(%esp)
    4a65:	e8 06 29 01 00       	call   17370 <free>
    4a6a:	8b 46 08             	mov    0x8(%esi),%eax
    4a6d:	85 c0                	test   %eax,%eax
    4a6f:	74 17                	je     4a88 <font_release+0x68>
    4a71:	8b 56 0c             	mov    0xc(%esi),%edx
    4a74:	89 55 08             	mov    %edx,0x8(%ebp)
    4a77:	8b 40 0c             	mov    0xc(%eax),%eax
    4a7a:	83 c4 10             	add    $0x10,%esp
    4a7d:	5b                   	pop    %ebx
    4a7e:	5e                   	pop    %esi
    4a7f:	5d                   	pop    %ebp
    4a80:	ff e0                	jmp    *%eax
    4a82:	8d b6 00 00 00 00    	lea    0x0(%esi),%esi
    4a88:	83 c4 10             	add    $0x10,%esp
    4a8b:	5b                   	pop    %ebx
    4a8c:	5e                   	pop    %esi
    4a8d:	5d                   	pop    %ebp
    4a8e:	c3                   	ret    
    4a8f:	90                   	nop

00004a90 <font_get_box>:
    4a90:	55                   	push   %ebp
    4a91:	89 e5                	mov    %esp,%ebp
    4a93:	57                   	push   %edi
    4a94:	56                   	push   %esi
    4a95:	53                   	push   %ebx
    4a96:	83 ec 3c             	sub    $0x3c,%esp
    4a99:	8b 7d 10             	mov    0x10(%ebp),%edi
    4a9c:	8b 5d 08             	mov    0x8(%ebp),%ebx
    4a9f:	8b 75 0c             	mov    0xc(%ebp),%esi
    4aa2:	85 ff                	test   %edi,%edi
    4aa4:	0f 84 e7 00 00 00    	je     4b91 <font_get_box+0x101>
    4aaa:	8b 4d 14             	mov    0x14(%ebp),%ecx
    4aad:	85 c9                	test   %ecx,%ecx
    4aaf:	0f 84 c0 00 00 00    	je     4b75 <font_get_box+0xe5>
    4ab5:	8b 55 14             	mov    0x14(%ebp),%edx
    4ab8:	c7 07 00 00 00 00    	movl   $0x0,(%edi)
    4abe:	85 f6                	test   %esi,%esi
    4ac0:	c7 02 00 00 00 00    	movl   $0x0,(%edx)
    4ac6:	74 72                	je     4b3a <font_get_box+0xaa>
    4ac8:	0f be 06             	movsbl (%esi),%eax
    4acb:	84 c0                	test   %al,%al
    4acd:	74 6b                	je     4b3a <font_get_box+0xaa>
    4acf:	90                   	nop
    4ad0:	8b 4b 08             	mov    0x8(%ebx),%ecx
    4ad3:	8b 53 0c             	mov    0xc(%ebx),%edx
    4ad6:	89 54 24 04          	mov    %edx,0x4(%esp)
    4ada:	89 04 24             	mov    %eax,(%esp)
    4add:	ff 51 04             	call   *0x4(%ecx)
    4ae0:	66 3b 43 02          	cmp    0x2(%ebx),%ax
    4ae4:	73 4c                	jae    4b32 <font_get_box+0xa2>
    4ae6:	25 ff ff 00 00       	and    $0xffff,%eax
    4aeb:	8b 53 04             	mov    0x4(%ebx),%edx
    4aee:	8d 0c 85 00 00 00 00 	lea    0x0(,%eax,4),%ecx
    4af5:	89 4d d4             	mov    %ecx,-0x2c(%ebp)
    4af8:	01 d1                	add    %edx,%ecx
    4afa:	8b 11                	mov    (%ecx),%edx
    4afc:	85 d2                	test   %edx,%edx
    4afe:	74 48                	je     4b48 <font_get_box+0xb8>
    4b00:	8d 45 e4             	lea    -0x1c(%ebp),%eax
    4b03:	8d 4d e0             	lea    -0x20(%ebp),%ecx
    4b06:	89 44 24 08          	mov    %eax,0x8(%esp)
    4b0a:	89 4c 24 04          	mov    %ecx,0x4(%esp)
    4b0e:	89 14 24             	mov    %edx,(%esp)
    4b11:	e8 5a 07 00 00       	call   5270 <surface_get_resolution>
    4b16:	8b 45 e0             	mov    -0x20(%ebp),%eax
    4b19:	8b 17                	mov    (%edi),%edx
    4b1b:	8b 4d 14             	mov    0x14(%ebp),%ecx
    4b1e:	01 c2                	add    %eax,%edx
    4b20:	89 17                	mov    %edx,(%edi)
    4b22:	8b 55 e4             	mov    -0x1c(%ebp),%edx
    4b25:	8b 01                	mov    (%ecx),%eax
    4b27:	39 d0                	cmp    %edx,%eax
    4b29:	73 02                	jae    4b2d <font_get_box+0x9d>
    4b2b:	89 d0                	mov    %edx,%eax
    4b2d:	8b 55 14             	mov    0x14(%ebp),%edx
    4b30:	89 02                	mov    %eax,(%edx)
    4b32:	46                   	inc    %esi
    4b33:	0f be 06             	movsbl (%esi),%eax
    4b36:	84 c0                	test   %al,%al
    4b38:	75 96                	jne    4ad0 <font_get_box+0x40>
    4b3a:	83 c4 3c             	add    $0x3c,%esp
    4b3d:	5b                   	pop    %ebx
    4b3e:	5e                   	pop    %esi
    4b3f:	5f                   	pop    %edi
    4b40:	5d                   	pop    %ebp
    4b41:	c3                   	ret    
    4b42:	8d b6 00 00 00 00    	lea    0x0(%esi),%esi
    4b48:	8b 13                	mov    (%ebx),%edx
    4b4a:	89 04 24             	mov    %eax,(%esp)
    4b4d:	81 e2 ff ff 00 00    	and    $0xffff,%edx
    4b53:	89 4d d0             	mov    %ecx,-0x30(%ebp)
    4b56:	89 54 24 04          	mov    %edx,0x4(%esp)
    4b5a:	8b 53 08             	mov    0x8(%ebx),%edx
    4b5d:	ff 52 08             	call   *0x8(%edx)
    4b60:	8b 4d d0             	mov    -0x30(%ebp),%ecx
    4b63:	89 01                	mov    %eax,(%ecx)
    4b65:	8b 4d d4             	mov    -0x2c(%ebp),%ecx
    4b68:	8b 43 04             	mov    0x4(%ebx),%eax
    4b6b:	8b 14 08             	mov    (%eax,%ecx,1),%edx
    4b6e:	85 d2                	test   %edx,%edx
    4b70:	75 8e                	jne    4b00 <font_get_box+0x70>
    4b72:	46                   	inc    %esi
    4b73:	eb be                	jmp    4b33 <font_get_box+0xa3>
    4b75:	c7 44 24 08 62 00 00 	movl   $0x62,0x8(%esp)
    4b7c:	00 
    4b7d:	c7 44 24 04 96 3e 02 	movl   $0x23e96,0x4(%esp)
    4b84:	00 
    4b85:	c7 04 24 a3 3e 02 00 	movl   $0x23ea3,(%esp)
    4b8c:	e8 af cf 01 00       	call   21b40 <assert_abort>
    4b91:	c7 44 24 08 61 00 00 	movl   $0x61,0x8(%esp)
    4b98:	00 
    4b99:	c7 44 24 04 96 3e 02 	movl   $0x23e96,0x4(%esp)
    4ba0:	00 
    4ba1:	c7 04 24 9d 3e 02 00 	movl   $0x23e9d,(%esp)
    4ba8:	e8 93 cf 01 00       	call   21b40 <assert_abort>
    4bad:	8d 76 00             	lea    0x0(%esi),%esi

00004bb0 <font_draw_text>:
    4bb0:	55                   	push   %ebp
    4bb1:	89 e5                	mov    %esp,%ebp
    4bb3:	57                   	push   %edi
    4bb4:	56                   	push   %esi
    4bb5:	53                   	push   %ebx
    4bb6:	81 ec bc 00 00 00    	sub    $0xbc,%esp
    4bbc:	8b 45 0c             	mov    0xc(%ebp),%eax
    4bbf:	8b 5d 08             	mov    0x8(%ebp),%ebx
    4bc2:	85 c0                	test   %eax,%eax
    4bc4:	0f 84 b3 01 00 00    	je     4d7d <font_draw_text+0x1cd>
    4bca:	8b 45 10             	mov    0x10(%ebp),%eax
    4bcd:	85 c0                	test   %eax,%eax
    4bcf:	0f 84 8c 01 00 00    	je     4d61 <font_draw_text+0x1b1>
    4bd5:	8b 55 0c             	mov    0xc(%ebp),%edx
    4bd8:	89 14 24             	mov    %edx,(%esp)
    4bdb:	e8 f0 f8 ff ff       	call   44d0 <drawctx_save>
    4be0:	8b 55 0c             	mov    0xc(%ebp),%edx
    4be3:	89 14 24             	mov    %edx,(%esp)
    4be6:	c7 44 24 04 80 59 00 	movl   $0x5980,0x4(%esp)
    4bed:	00 
    4bee:	e8 cd f9 ff ff       	call   45c0 <drawctx_set_compose>
    4bf3:	8b 55 14             	mov    0x14(%ebp),%edx
    4bf6:	0f be 02             	movsbl (%edx),%eax
    4bf9:	84 c0                	test   %al,%al
    4bfb:	0f 84 06 01 00 00    	je     4d07 <font_draw_text+0x157>
    4c01:	8d b4 26 00 00 00 00 	lea    0x0(%esi,%eiz,1),%esi
    4c08:	8b 53 08             	mov    0x8(%ebx),%edx
    4c0b:	8b 4b 0c             	mov    0xc(%ebx),%ecx
    4c0e:	89 4c 24 04          	mov    %ecx,0x4(%esp)
    4c12:	89 04 24             	mov    %eax,(%esp)
    4c15:	ff 52 04             	call   *0x4(%edx)
    4c18:	66 3b 43 02          	cmp    0x2(%ebx),%ax
    4c1c:	0f 83 d0 00 00 00    	jae    4cf2 <font_draw_text+0x142>
    4c22:	25 ff ff 00 00       	and    $0xffff,%eax
    4c27:	8b 7b 04             	mov    0x4(%ebx),%edi
    4c2a:	8d 34 85 00 00 00 00 	lea    0x0(,%eax,4),%esi
    4c31:	01 f7                	add    %esi,%edi
    4c33:	8b 17                	mov    (%edi),%edx
    4c35:	89 55 8c             	mov    %edx,-0x74(%ebp)
    4c38:	85 d2                	test   %edx,%edx
    4c3a:	0f 84 f8 00 00 00    	je     4d38 <font_draw_text+0x188>
    4c40:	8d 45 9c             	lea    -0x64(%ebp),%eax
    4c43:	8d 55 98             	lea    -0x68(%ebp),%edx
    4c46:	89 44 24 08          	mov    %eax,0x8(%esp)
    4c4a:	8b 45 8c             	mov    -0x74(%ebp),%eax
    4c4d:	89 54 24 04          	mov    %edx,0x4(%esp)
    4c51:	89 04 24             	mov    %eax,(%esp)
    4c54:	8d 75 a0             	lea    -0x60(%ebp),%esi
    4c57:	e8 14 06 00 00       	call   5270 <surface_get_resolution>
    4c5c:	89 34 24             	mov    %esi,(%esp)
    4c5f:	8d 7c 24 04          	lea    0x4(%esp),%edi
    4c63:	e8 98 11 00 00       	call   5e00 <transform_identity>
    4c68:	8b 45 1c             	mov    0x1c(%ebp),%eax
    4c6b:	31 d2                	xor    %edx,%edx
    4c6d:	89 45 90             	mov    %eax,-0x70(%ebp)
    4c70:	89 55 94             	mov    %edx,-0x6c(%ebp)
    4c73:	8b 45 18             	mov    0x18(%ebp),%eax
    4c76:	df 6d 90             	fildll -0x70(%ebp)
    4c79:	31 d2                	xor    %edx,%edx
    4c7b:	89 45 90             	mov    %eax,-0x70(%ebp)
    4c7e:	dd 5c 24 0c          	fstpl  0xc(%esp)
    4c82:	89 55 94             	mov    %edx,-0x6c(%ebp)
    4c85:	89 34 24             	mov    %esi,(%esp)
    4c88:	df 6d 90             	fildll -0x70(%ebp)
    4c8b:	dd 5c 24 04          	fstpl  0x4(%esp)
    4c8f:	e8 9c 11 00 00       	call   5e30 <transform_translate>
    4c94:	b9 12 00 00 00       	mov    $0x12,%ecx
    4c99:	f3 a5                	rep movsl %ds:(%esi),%es:(%edi)
    4c9b:	8b 55 10             	mov    0x10(%ebp),%edx
    4c9e:	89 14 24             	mov    %edx,(%esp)
    4ca1:	e8 4a 01 00 00       	call   4df0 <source_set_transform>
    4ca6:	8b 45 8c             	mov    -0x74(%ebp),%eax
    4ca9:	8b 55 10             	mov    0x10(%ebp),%edx
    4cac:	89 44 24 04          	mov    %eax,0x4(%esp)
    4cb0:	89 14 24             	mov    %edx,(%esp)
    4cb3:	c7 44 24 08 00 00 00 	movl   $0x0,0x8(%esp)
    4cba:	00 
    4cbb:	e8 b0 01 00 00       	call   4e70 <source_set_mask>
    4cc0:	8b 55 1c             	mov    0x1c(%ebp),%edx
    4cc3:	8b 45 9c             	mov    -0x64(%ebp),%eax
    4cc6:	89 54 24 08          	mov    %edx,0x8(%esp)
    4cca:	8b 55 18             	mov    0x18(%ebp),%edx
    4ccd:	89 44 24 10          	mov    %eax,0x10(%esp)
    4cd1:	89 54 24 04          	mov    %edx,0x4(%esp)
