
devctl:     file format elf32-i386


Disassembly of section .init:

00001094 <__entry>:
    1094:	66 8c d0             	mov    %ss,%ax
    1097:	8e d8                	mov    %eax,%ds
    1099:	8e c0                	mov    %eax,%es
    109b:	8e e0                	mov    %eax,%fs
    109d:	b8 01 00 00 00       	mov    $0x1,%eax
    10a2:	0f a2                	cpuid  
    10a4:	0f ba e2 0b          	bt     $0xb,%edx
    10a8:	73 0c                	jae    10b6 <__entry+0x22>
    10aa:	8d 05 74 27 02 00    	lea    0x22774,%eax
    10b0:	c7 00 37 a5 01 00    	movl   $0x1a537,(%eax)
    10b6:	6a 00                	push   $0x0
    10b8:	89 e5                	mov    %esp,%ebp
    10ba:	57                   	push   %edi
    10bb:	e8 20 04 00 00       	call   14e0 <__main>

Disassembly of section .text:

000010c0 <fun_subtree_print>:
    10c0:	55                   	push   %ebp
    10c1:	89 e5                	mov    %esp,%ebp
    10c3:	57                   	push   %edi
    10c4:	56                   	push   %esi
    10c5:	53                   	push   %ebx
    10c6:	83 ec 2c             	sub    $0x2c,%esp
    10c9:	31 db                	xor    %ebx,%ebx
    10cb:	89 c7                	mov    %eax,%edi
    10cd:	89 d6                	mov    %edx,%esi
    10cf:	85 d2                	test   %edx,%edx
    10d1:	7e 16                	jle    10e9 <fun_subtree_print+0x29>
    10d3:	90                   	nop
    10d4:	8d 74 26 00          	lea    0x0(%esi,%eiz,1),%esi
    10d8:	c7 04 24 c2 f8 01 00 	movl   $0x1f8c2,(%esp)
    10df:	43                   	inc    %ebx
    10e0:	e8 eb 9c 00 00       	call   add0 <printf>
    10e5:	39 f3                	cmp    %esi,%ebx
    10e7:	75 ef                	jne    10d8 <fun_subtree_print+0x18>
    10e9:	c7 44 24 08 00 04 00 	movl   $0x400,0x8(%esp)
    10f0:	00 
    10f1:	c7 44 24 04 00 28 02 	movl   $0x22800,0x4(%esp)
    10f8:	00 
    10f9:	89 3c 24             	mov    %edi,(%esp)
    10fc:	e8 bf 16 00 00       	call   27c0 <devman_fun_get_name>
    1101:	89 c3                	mov    %eax,%ebx
    1103:	85 c0                	test   %eax,%eax
    1105:	0f 85 47 01 00 00    	jne    1252 <fun_subtree_print+0x192>
    110b:	80 3d 00 28 02 00 00 	cmpb   $0x0,0x22800
    1112:	0f 84 d8 00 00 00    	je     11f0 <fun_subtree_print+0x130>
    1118:	c7 44 24 08 00 04 00 	movl   $0x400,0x8(%esp)
    111f:	00 
    1120:	c7 44 24 04 00 2c 02 	movl   $0x22c00,0x4(%esp)
    1127:	00 
    1128:	89 3c 24             	mov    %edi,(%esp)
    112b:	e8 70 18 00 00       	call   29a0 <devman_fun_get_driver_name>
    1130:	83 f8 f2             	cmp    $0xfffffff2,%eax
    1133:	0f 85 11 01 00 00    	jne    124a <fun_subtree_print+0x18a>
    1139:	83 f8 f2             	cmp    $0xfffffff2,%eax
    113c:	0f 84 d6 00 00 00    	je     1218 <fun_subtree_print+0x158>
    1142:	c7 44 24 08 00 2c 02 	movl   $0x22c00,0x8(%esp)
    1149:	00 
    114a:	c7 44 24 04 00 28 02 	movl   $0x22800,0x4(%esp)
    1151:	00 
    1152:	c7 04 24 c9 f8 01 00 	movl   $0x1f8c9,(%esp)
    1159:	e8 72 9c 00 00       	call   add0 <printf>
    115e:	8d 45 dc             	lea    -0x24(%ebp),%eax
    1161:	89 3c 24             	mov    %edi,(%esp)
    1164:	89 44 24 04          	mov    %eax,0x4(%esp)
    1168:	e8 f3 1b 00 00       	call   2d60 <devman_fun_get_child>
    116d:	89 c7                	mov    %eax,%edi
    116f:	83 f8 ff             	cmp    $0xffffffff,%eax
    1172:	74 52                	je     11c6 <fun_subtree_print+0x106>
    1174:	85 c0                	test   %eax,%eax
    1176:	75 58                	jne    11d0 <fun_subtree_print+0x110>
    1178:	8d 45 e4             	lea    -0x1c(%ebp),%eax
    117b:	89 44 24 08          	mov    %eax,0x8(%esp)
    117f:	8d 45 e0             	lea    -0x20(%ebp),%eax
    1182:	89 44 24 04          	mov    %eax,0x4(%esp)
    1186:	8b 45 dc             	mov    -0x24(%ebp),%eax
    1189:	89 04 24             	mov    %eax,(%esp)
    118c:	e8 bf 1c 00 00       	call   2e50 <devman_dev_get_functions>
    1191:	89 c3                	mov    %eax,%ebx
    1193:	85 c0                	test   %eax,%eax
    1195:	0f 85 96 00 00 00    	jne    1231 <fun_subtree_print+0x171>
    119b:	8b 45 e4             	mov    -0x1c(%ebp),%eax
    119e:	46                   	inc    %esi
    119f:	31 ff                	xor    %edi,%edi
    11a1:	85 c0                	test   %eax,%eax
    11a3:	74 16                	je     11bb <fun_subtree_print+0xfb>
    11a5:	8d 76 00             	lea    0x0(%esi),%esi
    11a8:	8b 45 e0             	mov    -0x20(%ebp),%eax
    11ab:	89 f2                	mov    %esi,%edx
    11ad:	8b 04 b8             	mov    (%eax,%edi,4),%eax
    11b0:	47                   	inc    %edi
    11b1:	e8 0a ff ff ff       	call   10c0 <fun_subtree_print>
    11b6:	39 7d e4             	cmp    %edi,-0x1c(%ebp)
    11b9:	77 ed                	ja     11a8 <fun_subtree_print+0xe8>
    11bb:	8b 45 e0             	mov    -0x20(%ebp),%eax
    11be:	89 04 24             	mov    %eax,(%esp)
    11c1:	e8 9a eb 00 00       	call   fd60 <free>
    11c6:	83 c4 2c             	add    $0x2c,%esp
    11c9:	89 d8                	mov    %ebx,%eax
    11cb:	5b                   	pop    %ebx
    11cc:	5e                   	pop    %esi
    11cd:	5f                   	pop    %edi
    11ce:	5d                   	pop    %ebp
    11cf:	c3                   	ret    
    11d0:	c7 44 24 04 d2 f8 01 	movl   $0x1f8d2,0x4(%esp)
    11d7:	00 
    11d8:	c7 04 24 00 f9 01 00 	movl   $0x1f900,(%esp)
    11df:	e8 ec 9b 00 00       	call   add0 <printf>
    11e4:	83 c4 2c             	add    $0x2c,%esp
    11e7:	89 fb                	mov    %edi,%ebx
    11e9:	89 d8                	mov    %ebx,%eax
    11eb:	5b                   	pop    %ebx
    11ec:	5e                   	pop    %esi
    11ed:	5f                   	pop    %edi
    11ee:	5d                   	pop    %ebp
    11ef:	c3                   	ret    
    11f0:	c7 44 24 08 c7 f8 01 	movl   $0x1f8c7,0x8(%esp)
    11f7:	00 
    11f8:	c7 44 24 04 00 04 00 	movl   $0x400,0x4(%esp)
    11ff:	00 
    1200:	c7 04 24 00 28 02 00 	movl   $0x22800,(%esp)
    1207:	e8 14 35 00 00       	call   4720 <str_cpy>
    120c:	e9 07 ff ff ff       	jmp    1118 <fun_subtree_print+0x58>
    1211:	8d b4 26 00 00 00 00 	lea    0x0(%esi,%eiz,1),%esi
    1218:	c7 44 24 04 00 28 02 	movl   $0x22800,0x4(%esp)
    121f:	00 
    1220:	c7 04 24 ce f8 01 00 	movl   $0x1f8ce,(%esp)
    1227:	e8 a4 9b 00 00       	call   add0 <printf>
    122c:	e9 2d ff ff ff       	jmp    115e <fun_subtree_print+0x9e>
    1231:	c7 44 24 04 d2 f8 01 	movl   $0x1f8d2,0x4(%esp)
    1238:	00 
    1239:	c7 04 24 38 f9 01 00 	movl   $0x1f938,(%esp)
    1240:	e8 8b 9b 00 00       	call   add0 <printf>
    1245:	e9 7c ff ff ff       	jmp    11c6 <fun_subtree_print+0x106>
    124a:	85 c0                	test   %eax,%eax
    124c:	0f 84 e7 fe ff ff    	je     1139 <fun_subtree_print+0x79>
    1252:	bb fd ff ff ff       	mov    $0xfffffffd,%ebx
    1257:	e9 6a ff ff ff       	jmp    11c6 <fun_subtree_print+0x106>
    125c:	66 90                	xchg   %ax,%ax
    125e:	66 90                	xchg   %ax,%ax

00001260 <main>:
    1260:	55                   	push   %ebp
    1261:	89 e5                	mov    %esp,%ebp
    1263:	53                   	push   %ebx
    1264:	83 e4 f0             	and    $0xfffffff0,%esp
    1267:	83 ec 20             	sub    $0x20,%esp
    126a:	8b 5d 0c             	mov    0xc(%ebp),%ebx
    126d:	83 7d 08 01          	cmpl   $0x1,0x8(%ebp)
    1271:	0f 84 91 00 00 00    	je     1308 <main+0xa8>
    1277:	c7 44 24 04 d6 f8 01 	movl   $0x1f8d6,0x4(%esp)
    127e:	00 
    127f:	8b 43 04             	mov    0x4(%ebx),%eax
    1282:	89 04 24             	mov    %eax,(%esp)
    1285:	e8 16 2e 00 00       	call   40a0 <str_cmp>
    128a:	85 c0                	test   %eax,%eax
    128c:	0f 85 ad 00 00 00    	jne    133f <main+0xdf>
    1292:	83 7d 08 02          	cmpl   $0x2,0x8(%ebp)
    1296:	7e 4e                	jle    12e6 <main+0x86>
    1298:	8b 5b 08             	mov    0x8(%ebx),%ebx
    129b:	8d 44 24 1c          	lea    0x1c(%esp),%eax
    129f:	c7 44 24 08 00 00 00 	movl   $0x0,0x8(%esp)
    12a6:	00 
    12a7:	89 44 24 04          	mov    %eax,0x4(%esp)
    12ab:	89 1c 24             	mov    %ebx,(%esp)
    12ae:	e8 dd 10 00 00       	call   2390 <devman_fun_get_handle>
    12b3:	85 c0                	test   %eax,%eax
    12b5:	0f 85 f9 00 00 00    	jne    13b4 <main+0x154>
    12bb:	8b 44 24 1c          	mov    0x1c(%esp),%eax
    12bf:	89 04 24             	mov    %eax,(%esp)
    12c2:	e8 b9 18 00 00       	call   2b80 <devman_fun_online>
    12c7:	89 c2                	mov    %eax,%edx
    12c9:	31 c0                	xor    %eax,%eax
    12cb:	85 d2                	test   %edx,%edx
    12cd:	74 34                	je     1303 <main+0xa3>
    12cf:	89 5c 24 04          	mov    %ebx,0x4(%esp)
    12d3:	c7 04 24 00 fa 01 00 	movl   $0x1fa00,(%esp)
    12da:	e8 f1 9a 00 00       	call   add0 <printf>
    12df:	b8 02 00 00 00       	mov    $0x2,%eax
    12e4:	eb 1d                	jmp    1303 <main+0xa3>
    12e6:	c7 04 24 dd f8 01 00 	movl   $0x1f8dd,(%esp)
    12ed:	e8 de 9a 00 00       	call   add0 <printf>
    12f2:	c7 04 24 9c f9 01 00 	movl   $0x1f99c,(%esp)
    12f9:	e8 d2 9a 00 00       	call   add0 <printf>
    12fe:	b8 01 00 00 00       	mov    $0x1,%eax
    1303:	8b 5d fc             	mov    -0x4(%ebp),%ebx
    1306:	c9                   	leave  
    1307:	c3                   	ret    
    1308:	8d 44 24 1c          	lea    0x1c(%esp),%eax
    130c:	c7 44 24 08 00 00 00 	movl   $0x0,0x8(%esp)
    1313:	00 
    1314:	89 44 24 04          	mov    %eax,0x4(%esp)
    1318:	c7 04 24 c7 f8 01 00 	movl   $0x1f8c7,(%esp)
    131f:	e8 6c 10 00 00       	call   2390 <devman_fun_get_handle>
    1324:	85 c0                	test   %eax,%eax
    1326:	0f 85 d2 00 00 00    	jne    13fe <main+0x19e>
    132c:	31 d2                	xor    %edx,%edx
    132e:	8b 44 24 1c          	mov    0x1c(%esp),%eax
    1332:	e8 89 fd ff ff       	call   10c0 <fun_subtree_print>
    1337:	85 c0                	test   %eax,%eax
    1339:	75 a4                	jne    12df <main+0x7f>
    133b:	31 c0                	xor    %eax,%eax
    133d:	eb c4                	jmp    1303 <main+0xa3>
    133f:	c7 44 24 04 f8 f8 01 	movl   $0x1f8f8,0x4(%esp)
    1346:	00 
    1347:	8b 43 04             	mov    0x4(%ebx),%eax
    134a:	89 04 24             	mov    %eax,(%esp)
    134d:	e8 4e 2d 00 00       	call   40a0 <str_cmp>
    1352:	85 c0                	test   %eax,%eax
    1354:	75 7f                	jne    13d5 <main+0x175>
    1356:	83 7d 08 02          	cmpl   $0x2,0x8(%ebp)
    135a:	7e 8a                	jle    12e6 <main+0x86>
    135c:	8b 5b 08             	mov    0x8(%ebx),%ebx
    135f:	8d 44 24 1c          	lea    0x1c(%esp),%eax
    1363:	c7 44 24 08 00 00 00 	movl   $0x0,0x8(%esp)
    136a:	00 
    136b:	89 44 24 04          	mov    %eax,0x4(%esp)
    136f:	89 1c 24             	mov    %ebx,(%esp)
    1372:	e8 19 10 00 00       	call   2390 <devman_fun_get_handle>
    1377:	85 c0                	test   %eax,%eax
    1379:	75 39                	jne    13b4 <main+0x154>
    137b:	8b 44 24 1c          	mov    0x1c(%esp),%eax
    137f:	89 04 24             	mov    %eax,(%esp)
    1382:	e8 e9 18 00 00       	call   2c70 <devman_fun_offline>
    1387:	89 c2                	mov    %eax,%edx
    1389:	31 c0                	xor    %eax,%eax
    138b:	85 d2                	test   %edx,%edx
    138d:	0f 84 70 ff ff ff    	je     1303 <main+0xa3>
    1393:	89 14 24             	mov    %edx,(%esp)
    1396:	e8 b5 50 00 00       	call   6450 <str_error>
    139b:	89 5c 24 04          	mov    %ebx,0x4(%esp)
    139f:	89 44 24 08          	mov    %eax,0x8(%esp)
    13a3:	c7 04 24 2c fa 01 00 	movl   $0x1fa2c,(%esp)
    13aa:	e8 21 9a 00 00       	call   add0 <printf>
    13af:	e9 2b ff ff ff       	jmp    12df <main+0x7f>
    13b4:	89 04 24             	mov    %eax,(%esp)
    13b7:	e8 94 50 00 00       	call   6450 <str_error>
    13bc:	89 5c 24 04          	mov    %ebx,0x4(%esp)
    13c0:	89 44 24 08          	mov    %eax,0x8(%esp)
    13c4:	c7 04 24 cc f9 01 00 	movl   $0x1f9cc,(%esp)
    13cb:	e8 00 9a 00 00       	call   add0 <printf>
    13d0:	e9 0a ff ff ff       	jmp    12df <main+0x7f>
    13d5:	8b 43 04             	mov    0x4(%ebx),%eax
    13d8:	c7 04 24 5c fa 01 00 	movl   $0x1fa5c,(%esp)
    13df:	89 44 24 04          	mov    %eax,0x4(%esp)
    13e3:	e8 e8 99 00 00       	call   add0 <printf>
    13e8:	c7 04 24 9c f9 01 00 	movl   $0x1f99c,(%esp)
    13ef:	e8 dc 99 00 00       	call   add0 <printf>
    13f4:	b8 01 00 00 00       	mov    $0x1,%eax
    13f9:	e9 05 ff ff ff       	jmp    1303 <main+0xa3>
    13fe:	c7 04 24 74 f9 01 00 	movl   $0x1f974,(%esp)
    1405:	e8 c6 99 00 00       	call   add0 <printf>
    140a:	e9 d0 fe ff ff       	jmp    12df <main+0x7f>
    140f:	90                   	nop

00001410 <exit>:
    1410:	55                   	push   %ebp
    1411:	89 e5                	mov    %esp,%ebp
    1413:	83 ec 28             	sub    $0x28,%esp
    1416:	80 3d 08 30 02 00 00 	cmpb   $0x0,0x23008
    141d:	75 3f                	jne    145e <exit+0x4e>
    141f:	c7 44 24 18 0a 00 00 	movl   $0xa,0x18(%esp)
    1426:	00 
    1427:	c7 44 24 14 00 00 00 	movl   $0x0,0x14(%esp)
    142e:	00 
    142f:	c7 44 24 10 00 00 00 	movl   $0x0,0x10(%esp)
    1436:	00 
    1437:	c7 44 24 0c 00 00 00 	movl   $0x0,0xc(%esp)
    143e:	00 
    143f:	c7 44 24 08 00 00 00 	movl   $0x0,0x8(%esp)
    1446:	00 
    1447:	c7 44 24 04 00 00 00 	movl   $0x0,0x4(%esp)
    144e:	00 
    144f:	c7 04 24 00 00 00 00 	movl   $0x0,(%esp)
    1456:	ff 15 74 27 02 00    	call   *0x22774
    145c:	eb fe                	jmp    145c <exit+0x4c>
    145e:	e8 0d 78 00 00       	call   8c70 <__stdio_done>
    1463:	8b 45 08             	mov    0x8(%ebp),%eax
    1466:	89 04 24             	mov    %eax,(%esp)
    1469:	e8 22 73 00 00       	call   8790 <task_retval>
    146e:	65 a1 00 00 00 00    	mov    %gs:0x0,%eax
    1474:	8b 40 04             	mov    0x4(%eax),%eax
    1477:	89 04 24             	mov    %eax,(%esp)
    147a:	e8 01 51 00 00       	call   6580 <fibril_teardown>
    147f:	eb 9e                	jmp    141f <exit+0xf>
    1481:	eb 0d                	jmp    1490 <abort>
    1483:	90                   	nop
    1484:	90                   	nop
    1485:	90                   	nop
    1486:	90                   	nop
    1487:	90                   	nop
    1488:	90                   	nop
    1489:	90                   	nop
    148a:	90                   	nop
    148b:	90                   	nop
    148c:	90                   	nop
    148d:	90                   	nop
    148e:	90                   	nop
    148f:	90                   	nop

00001490 <abort>:
    1490:	55                   	push   %ebp
    1491:	89 e5                	mov    %esp,%ebp
    1493:	83 ec 28             	sub    $0x28,%esp
    1496:	c7 44 24 18 0a 00 00 	movl   $0xa,0x18(%esp)
    149d:	00 
    149e:	c7 44 24 14 00 00 00 	movl   $0x0,0x14(%esp)
    14a5:	00 
    14a6:	c7 44 24 10 00 00 00 	movl   $0x0,0x10(%esp)
    14ad:	00 
    14ae:	c7 44 24 0c 00 00 00 	movl   $0x0,0xc(%esp)
    14b5:	00 
    14b6:	c7 44 24 08 00 00 00 	movl   $0x0,0x8(%esp)
    14bd:	00 
    14be:	c7 44 24 04 00 00 00 	movl   $0x0,0x4(%esp)
    14c5:	00 
    14c6:	c7 04 24 01 00 00 00 	movl   $0x1,(%esp)
    14cd:	ff 15 74 27 02 00    	call   *0x22774
    14d3:	eb fe                	jmp    14d3 <abort+0x43>
    14d5:	8d 74 26 00          	lea    0x0(%esi,%eiz,1),%esi
    14d9:	8d bc 27 00 00 00 00 	lea    0x0(%edi,%eiz,1),%edi

000014e0 <__main>:
    14e0:	55                   	push   %ebp
    14e1:	89 e5                	mov    %esp,%ebp
    14e3:	57                   	push   %edi
    14e4:	56                   	push   %esi
    14e5:	53                   	push   %ebx
    14e6:	83 ec 2c             	sub    $0x2c,%esp
    14e9:	8b 5d 08             	mov    0x8(%ebp),%ebx
    14ec:	e8 5f e6 00 00       	call   fb50 <__malloc_init>
    14f1:	e8 6a 05 01 00       	call   11a60 <__async_init>
    14f6:	e8 05 50 00 00       	call   6500 <fibril_setup>
    14fb:	85 c0                	test   %eax,%eax
    14fd:	0f 84 82 00 00 00    	je     1585 <__main+0xa5>
    1503:	c7 44 24 18 01 00 00 	movl   $0x1,0x18(%esp)
    150a:	00 
    150b:	c7 44 24 14 00 00 00 	movl   $0x0,0x14(%esp)
    1512:	00 
    1513:	c7 44 24 10 00 00 00 	movl   $0x0,0x10(%esp)
    151a:	00 
    151b:	c7 44 24 0c 00 00 00 	movl   $0x0,0xc(%esp)
    1522:	00 
    1523:	c7 44 24 08 00 00 00 	movl   $0x0,0x8(%esp)
    152a:	00 
    152b:	c7 44 24 04 00 00 00 	movl   $0x0,0x4(%esp)
    1532:	00 
    1533:	8b 40 30             	mov    0x30(%eax),%eax
    1536:	89 04 24             	mov    %eax,(%esp)
    1539:	ff 15 74 27 02 00    	call   *0x22774
    153f:	89 1d 00 30 02 00    	mov    %ebx,0x23000
    1545:	c6 05 08 30 02 00 01 	movb   $0x1,0x23008
    154c:	85 db                	test   %ebx,%ebx
    154e:	74 3a                	je     158a <__main+0xaa>
    1550:	8b 43 10             	mov    0x10(%ebx),%eax
    1553:	8b 73 08             	mov    0x8(%ebx),%esi
    1556:	8b 7b 0c             	mov    0xc(%ebx),%edi
    1559:	89 04 24             	mov    %eax,(%esp)
    155c:	e8 7f 74 00 00       	call   89e0 <__stdio_init>
    1561:	a1 00 30 02 00       	mov    0x23000,%eax
    1566:	8b 40 04             	mov    0x4(%eax),%eax
    1569:	89 04 24             	mov    %eax,(%esp)
    156c:	e8 cf 82 01 00       	call   19840 <chdir>
    1571:	89 7c 24 04          	mov    %edi,0x4(%esp)
    1575:	89 34 24             	mov    %esi,(%esp)
    1578:	e8 e3 fc ff ff       	call   1260 <main>
    157d:	89 04 24             	mov    %eax,(%esp)
    1580:	e8 8b fe ff ff       	call   1410 <exit>
    1585:	e8 06 ff ff ff       	call   1490 <abort>
    158a:	c7 04 24 00 00 00 00 	movl   $0x0,(%esp)
    1591:	31 ff                	xor    %edi,%edi
    1593:	e8 48 74 00 00       	call   89e0 <__stdio_init>
    1598:	31 f6                	xor    %esi,%esi
    159a:	eb d5                	jmp    1571 <__main+0x91>
    159c:	66 90                	xchg   %ax,%ax
    159e:	66 90                	xchg   %ax,%ax

000015a0 <devman_exchange_begin.part.0>:
    15a0:	55                   	push   %ebp
    15a1:	89 e5                	mov    %esp,%ebp
    15a3:	83 ec 18             	sub    $0x18,%esp
    15a6:	c7 04 24 d0 25 02 00 	movl   $0x225d0,(%esp)
    15ad:	e8 8e 58 00 00       	call   6e40 <fibril_mutex_lock>
    15b2:	a1 0c 30 02 00       	mov    0x2300c,%eax
    15b7:	85 c0                	test   %eax,%eax
    15b9:	74 25                	je     15e0 <devman_exchange_begin.part.0+0x40>
    15bb:	c7 04 24 d0 25 02 00 	movl   $0x225d0,(%esp)
    15c2:	e8 99 59 00 00       	call   6f60 <fibril_mutex_unlock>
    15c7:	a1 0c 30 02 00       	mov    0x2300c,%eax
    15cc:	85 c0                	test   %eax,%eax
    15ce:	74 40                	je     1610 <devman_exchange_begin.part.0+0x70>
    15d0:	89 04 24             	mov    %eax,(%esp)
    15d3:	e8 b8 1b 01 00       	call   13190 <async_exchange_begin>
    15d8:	c9                   	leave  
    15d9:	c3                   	ret    
    15da:	8d b6 00 00 00 00    	lea    0x0(%esi),%esi
    15e0:	c7 44 24 0c 00 00 00 	movl   $0x0,0xc(%esp)
    15e7:	00 
    15e8:	c7 44 24 08 01 00 00 	movl   $0x1,0x8(%esp)
    15ef:	00 
    15f0:	c7 44 24 04 64 65 76 	movl   $0x6e766564,0x4(%esp)
    15f7:	6e 
    15f8:	c7 04 24 01 00 00 00 	movl   $0x1,(%esp)
    15ff:	e8 5c ee 00 00       	call   10460 <service_connect>
    1604:	a3 0c 30 02 00       	mov    %eax,0x2300c
    1609:	eb b0                	jmp    15bb <devman_exchange_begin.part.0+0x1b>
    160b:	90                   	nop
    160c:	8d 74 26 00          	lea    0x0(%esi,%eiz,1),%esi
    1610:	31 c0                	xor    %eax,%eax
    1612:	c9                   	leave  
    1613:	c3                   	ret    
    1614:	8d b6 00 00 00 00    	lea    0x0(%esi),%esi
    161a:	8d bf 00 00 00 00    	lea    0x0(%edi),%edi

00001620 <devman_exchange_begin_blocking>:
    1620:	55                   	push   %ebp
    1621:	89 e5                	mov    %esp,%ebp
    1623:	53                   	push   %ebx
    1624:	83 ec 14             	sub    $0x14,%esp
    1627:	8b 45 08             	mov    0x8(%ebp),%eax
    162a:	83 f8 01             	cmp    $0x1,%eax
    162d:	74 11                	je     1640 <devman_exchange_begin_blocking+0x20>
    162f:	83 f8 02             	cmp    $0x2,%eax
    1632:	0f 84 b0 00 00 00    	je     16e8 <devman_exchange_begin_blocking+0xc8>
    1638:	83 c4 14             	add    $0x14,%esp
    163b:	31 c0                	xor    %eax,%eax
    163d:	5b                   	pop    %ebx
    163e:	5d                   	pop    %ebp
    163f:	c3                   	ret    
    1640:	c7 04 24 c0 25 02 00 	movl   $0x225c0,(%esp)
    1647:	e8 f4 57 00 00       	call   6e40 <fibril_mutex_lock>
    164c:	a1 10 30 02 00       	mov    0x23010,%eax
    1651:	85 c0                	test   %eax,%eax
    1653:	75 34                	jne    1689 <devman_exchange_begin_blocking+0x69>
    1655:	c7 04 24 d0 25 02 00 	movl   $0x225d0,(%esp)
    165c:	8b 1d 0c 30 02 00    	mov    0x2300c,%ebx
    1662:	e8 d9 57 00 00       	call   6e40 <fibril_mutex_lock>
    1667:	a1 10 30 02 00       	mov    0x23010,%eax
    166c:	85 c0                	test   %eax,%eax
    166e:	74 68                	je     16d8 <devman_exchange_begin_blocking+0xb8>
    1670:	c7 04 24 d0 25 02 00 	movl   $0x225d0,(%esp)
    1677:	e8 e4 58 00 00       	call   6f60 <fibril_mutex_unlock>
    167c:	a1 10 30 02 00       	mov    0x23010,%eax
    1681:	85 c0                	test   %eax,%eax
    1683:	0f 84 07 01 00 00    	je     1790 <devman_exchange_begin_blocking+0x170>
    1689:	c7 04 24 c0 25 02 00 	movl   $0x225c0,(%esp)
    1690:	e8 cb 58 00 00       	call   6f60 <fibril_mutex_unlock>
    1695:	c7 04 24 d0 25 02 00 	movl   $0x225d0,(%esp)
    169c:	8b 1d 10 30 02 00    	mov    0x23010,%ebx
    16a2:	e8 99 57 00 00       	call   6e40 <fibril_mutex_lock>
    16a7:	a1 0c 30 02 00       	mov    0x2300c,%eax
    16ac:	85 c0                	test   %eax,%eax
    16ae:	0f 84 3c 01 00 00    	je     17f0 <devman_exchange_begin_blocking+0x1d0>
    16b4:	c7 04 24 d0 25 02 00 	movl   $0x225d0,(%esp)
    16bb:	e8 a0 58 00 00       	call   6f60 <fibril_mutex_unlock>
    16c0:	a1 10 30 02 00       	mov    0x23010,%eax
    16c5:	89 45 08             	mov    %eax,0x8(%ebp)
    16c8:	83 c4 14             	add    $0x14,%esp
    16cb:	5b                   	pop    %ebx
    16cc:	5d                   	pop    %ebp
    16cd:	e9 be 1a 01 00       	jmp    13190 <async_exchange_begin>
    16d2:	8d b6 00 00 00 00    	lea    0x0(%esi),%esi
    16d8:	85 db                	test   %ebx,%ebx
    16da:	74 94                	je     1670 <devman_exchange_begin_blocking+0x50>
    16dc:	89 1d 10 30 02 00    	mov    %ebx,0x23010
    16e2:	eb 8c                	jmp    1670 <devman_exchange_begin_blocking+0x50>
    16e4:	8d 74 26 00          	lea    0x0(%esi,%eiz,1),%esi
    16e8:	c7 04 24 e0 25 02 00 	movl   $0x225e0,(%esp)
    16ef:	e8 4c 57 00 00       	call   6e40 <fibril_mutex_lock>
    16f4:	a1 18 30 02 00       	mov    0x23018,%eax
    16f9:	85 c0                	test   %eax,%eax
    16fb:	75 35                	jne    1732 <devman_exchange_begin_blocking+0x112>
    16fd:	c7 04 24 f0 25 02 00 	movl   $0x225f0,(%esp)
    1704:	8b 1d 14 30 02 00    	mov    0x23014,%ebx
    170a:	e8 31 57 00 00       	call   6e40 <fibril_mutex_lock>
    170f:	a1 18 30 02 00       	mov    0x23018,%eax
    1714:	85 c0                	test   %eax,%eax
    1716:	74 68                	je     1780 <devman_exchange_begin_blocking+0x160>
    1718:	c7 04 24 f0 25 02 00 	movl   $0x225f0,(%esp)
    171f:	e8 3c 58 00 00       	call   6f60 <fibril_mutex_unlock>
    1724:	8b 0d 18 30 02 00    	mov    0x23018,%ecx
    172a:	85 c9                	test   %ecx,%ecx
    172c:	0f 84 8e 00 00 00    	je     17c0 <devman_exchange_begin_blocking+0x1a0>
    1732:	c7 04 24 e0 25 02 00 	movl   $0x225e0,(%esp)
    1739:	e8 22 58 00 00       	call   6f60 <fibril_mutex_unlock>
    173e:	c7 04 24 f0 25 02 00 	movl   $0x225f0,(%esp)
    1745:	8b 1d 18 30 02 00    	mov    0x23018,%ebx
    174b:	e8 f0 56 00 00       	call   6e40 <fibril_mutex_lock>
    1750:	8b 15 14 30 02 00    	mov    0x23014,%edx
    1756:	85 d2                	test   %edx,%edx
    1758:	0f 84 aa 00 00 00    	je     1808 <devman_exchange_begin_blocking+0x1e8>
    175e:	c7 04 24 f0 25 02 00 	movl   $0x225f0,(%esp)
    1765:	e8 f6 57 00 00       	call   6f60 <fibril_mutex_unlock>
    176a:	a1 18 30 02 00       	mov    0x23018,%eax
    176f:	89 45 08             	mov    %eax,0x8(%ebp)
    1772:	83 c4 14             	add    $0x14,%esp
    1775:	5b                   	pop    %ebx
    1776:	5d                   	pop    %ebp
    1777:	e9 14 1a 01 00       	jmp    13190 <async_exchange_begin>
    177c:	8d 74 26 00          	lea    0x0(%esi,%eiz,1),%esi
    1780:	85 db                	test   %ebx,%ebx
    1782:	74 94                	je     1718 <devman_exchange_begin_blocking+0xf8>
    1784:	89 1d 18 30 02 00    	mov    %ebx,0x23018
    178a:	eb 8c                	jmp    1718 <devman_exchange_begin_blocking+0xf8>
    178c:	8d 74 26 00          	lea    0x0(%esi,%eiz,1),%esi
    1790:	c7 44 24 0c 00 00 00 	movl   $0x0,0xc(%esp)
    1797:	00 
    1798:	c7 44 24 08 01 00 00 	movl   $0x1,0x8(%esp)
    179f:	00 
    17a0:	c7 44 24 04 64 65 76 	movl   $0x6e766564,0x4(%esp)
    17a7:	6e 
    17a8:	c7 04 24 01 00 00 00 	movl   $0x1,(%esp)
    17af:	e8 2c ed 00 00       	call   104e0 <service_connect_blocking>
    17b4:	a3 10 30 02 00       	mov    %eax,0x23010
    17b9:	e9 93 fe ff ff       	jmp    1651 <devman_exchange_begin_blocking+0x31>
    17be:	66 90                	xchg   %ax,%ax
    17c0:	c7 44 24 0c 00 00 00 	movl   $0x0,0xc(%esp)
    17c7:	00 
    17c8:	c7 44 24 08 02 00 00 	movl   $0x2,0x8(%esp)
    17cf:	00 
    17d0:	c7 44 24 04 64 65 76 	movl   $0x6e766564,0x4(%esp)
    17d7:	6e 
    17d8:	c7 04 24 02 00 00 00 	movl   $0x2,(%esp)
    17df:	e8 fc ec 00 00       	call   104e0 <service_connect_blocking>
    17e4:	a3 18 30 02 00       	mov    %eax,0x23018
    17e9:	e9 0b ff ff ff       	jmp    16f9 <devman_exchange_begin_blocking+0xd9>
    17ee:	66 90                	xchg   %ax,%ax
    17f0:	85 db                	test   %ebx,%ebx
    17f2:	0f 84 bc fe ff ff    	je     16b4 <devman_exchange_begin_blocking+0x94>
    17f8:	89 1d 0c 30 02 00    	mov    %ebx,0x2300c
    17fe:	e9 b1 fe ff ff       	jmp    16b4 <devman_exchange_begin_blocking+0x94>
    1803:	90                   	nop
    1804:	8d 74 26 00          	lea    0x0(%esi,%eiz,1),%esi
    1808:	85 db                	test   %ebx,%ebx
    180a:	0f 84 4e ff ff ff    	je     175e <devman_exchange_begin_blocking+0x13e>
    1810:	89 1d 14 30 02 00    	mov    %ebx,0x23014
    1816:	e9 43 ff ff ff       	jmp    175e <devman_exchange_begin_blocking+0x13e>
    181b:	90                   	nop
    181c:	8d 74 26 00          	lea    0x0(%esi,%eiz,1),%esi

00001820 <devman_exchange_begin>:
    1820:	55                   	push   %ebp
    1821:	89 e5                	mov    %esp,%ebp
    1823:	83 ec 18             	sub    $0x18,%esp
    1826:	8b 45 08             	mov    0x8(%ebp),%eax
    1829:	83 f8 01             	cmp    $0x1,%eax
    182c:	74 0a                	je     1838 <devman_exchange_begin+0x18>
    182e:	83 f8 02             	cmp    $0x2,%eax
    1831:	74 3d                	je     1870 <devman_exchange_begin+0x50>
    1833:	31 c0                	xor    %eax,%eax
    1835:	c9                   	leave  
    1836:	c3                   	ret    
    1837:	90                   	nop
    1838:	c7 04 24 d0 25 02 00 	movl   $0x225d0,(%esp)
    183f:	e8 fc 55 00 00       	call   6e40 <fibril_mutex_lock>
    1844:	a1 0c 30 02 00       	mov    0x2300c,%eax
    1849:	85 c0                	test   %eax,%eax
    184b:	74 5b                	je     18a8 <devman_exchange_begin+0x88>
    184d:	c7 04 24 d0 25 02 00 	movl   $0x225d0,(%esp)
    1854:	e8 07 57 00 00       	call   6f60 <fibril_mutex_unlock>
    1859:	a1 0c 30 02 00       	mov    0x2300c,%eax
    185e:	85 c0                	test   %eax,%eax
    1860:	74 d1                	je     1833 <devman_exchange_begin+0x13>
    1862:	89 45 08             	mov    %eax,0x8(%ebp)
    1865:	c9                   	leave  
    1866:	e9 25 19 01 00       	jmp    13190 <async_exchange_begin>
    186b:	90                   	nop
    186c:	8d 74 26 00          	lea    0x0(%esi,%eiz,1),%esi
    1870:	c7 04 24 f0 25 02 00 	movl   $0x225f0,(%esp)
    1877:	e8 c4 55 00 00       	call   6e40 <fibril_mutex_lock>
    187c:	a1 14 30 02 00       	mov    0x23014,%eax
    1881:	85 c0                	test   %eax,%eax
    1883:	74 53                	je     18d8 <devman_exchange_begin+0xb8>
    1885:	c7 04 24 f0 25 02 00 	movl   $0x225f0,(%esp)
    188c:	e8 cf 56 00 00       	call   6f60 <fibril_mutex_unlock>
    1891:	a1 14 30 02 00       	mov    0x23014,%eax
    1896:	85 c0                	test   %eax,%eax
    1898:	74 99                	je     1833 <devman_exchange_begin+0x13>
    189a:	89 45 08             	mov    %eax,0x8(%ebp)
    189d:	c9                   	leave  
    189e:	e9 ed 18 01 00       	jmp    13190 <async_exchange_begin>
    18a3:	90                   	nop
    18a4:	8d 74 26 00          	lea    0x0(%esi,%eiz,1),%esi
    18a8:	c7 44 24 0c 00 00 00 	movl   $0x0,0xc(%esp)
    18af:	00 
    18b0:	c7 44 24 08 01 00 00 	movl   $0x1,0x8(%esp)
    18b7:	00 
    18b8:	c7 44 24 04 64 65 76 	movl   $0x6e766564,0x4(%esp)
    18bf:	6e 
    18c0:	c7 04 24 01 00 00 00 	movl   $0x1,(%esp)
    18c7:	e8 94 eb 00 00       	call   10460 <service_connect>
    18cc:	a3 0c 30 02 00       	mov    %eax,0x2300c
    18d1:	e9 77 ff ff ff       	jmp    184d <devman_exchange_begin+0x2d>
    18d6:	66 90                	xchg   %ax,%ax
    18d8:	c7 44 24 0c 00 00 00 	movl   $0x0,0xc(%esp)
    18df:	00 
    18e0:	c7 44 24 08 02 00 00 	movl   $0x2,0x8(%esp)
    18e7:	00 
    18e8:	c7 44 24 04 64 65 76 	movl   $0x6e766564,0x4(%esp)
    18ef:	6e 
    18f0:	c7 04 24 02 00 00 00 	movl   $0x2,(%esp)
    18f7:	e8 64 eb 00 00       	call   10460 <service_connect>
    18fc:	a3 14 30 02 00       	mov    %eax,0x23014
    1901:	eb 82                	jmp    1885 <devman_exchange_begin+0x65>
    1903:	8d b6 00 00 00 00    	lea    0x0(%esi),%esi
    1909:	8d bc 27 00 00 00 00 	lea    0x0(%edi,%eiz,1),%edi

00001910 <devman_exchange_end>:
    1910:	55                   	push   %ebp
    1911:	89 e5                	mov    %esp,%ebp
    1913:	5d                   	pop    %ebp
    1914:	e9 e7 1b 01 00       	jmp    13500 <async_exchange_end>
    1919:	8d b4 26 00 00 00 00 	lea    0x0(%esi,%eiz,1),%esi

00001920 <devman_driver_register>:
    1920:	55                   	push   %ebp
    1921:	89 e5                	mov    %esp,%ebp
    1923:	57                   	push   %edi
    1924:	56                   	push   %esi
    1925:	53                   	push   %ebx
    1926:	83 ec 5c             	sub    $0x5c,%esp
    1929:	8b 75 08             	mov    0x8(%ebp),%esi
    192c:	c7 04 24 c0 25 02 00 	movl   $0x225c0,(%esp)
    1933:	e8 08 55 00 00       	call   6e40 <fibril_mutex_lock>
    1938:	a1 10 30 02 00       	mov    0x23010,%eax
    193d:	85 c0                	test   %eax,%eax
    193f:	75 38                	jne    1979 <devman_driver_register+0x59>
    1941:	c7 04 24 d0 25 02 00 	movl   $0x225d0,(%esp)
    1948:	8b 1d 0c 30 02 00    	mov    0x2300c,%ebx
    194e:	e8 ed 54 00 00       	call   6e40 <fibril_mutex_lock>
    1953:	a1 10 30 02 00       	mov    0x23010,%eax
    1958:	85 c0                	test   %eax,%eax
    195a:	0f 84 58 01 00 00    	je     1ab8 <devman_driver_register+0x198>
    1960:	c7 04 24 d0 25 02 00 	movl   $0x225d0,(%esp)
    1967:	e8 f4 55 00 00       	call   6f60 <fibril_mutex_unlock>
    196c:	a1 10 30 02 00       	mov    0x23010,%eax
    1971:	85 c0                	test   %eax,%eax
    1973:	0f 84 57 01 00 00    	je     1ad0 <devman_driver_register+0x1b0>
    1979:	c7 04 24 c0 25 02 00 	movl   $0x225c0,(%esp)
    1980:	e8 db 55 00 00       	call   6f60 <fibril_mutex_unlock>
    1985:	c7 04 24 d0 25 02 00 	movl   $0x225d0,(%esp)
    198c:	8b 1d 10 30 02 00    	mov    0x23010,%ebx
    1992:	e8 a9 54 00 00       	call   6e40 <fibril_mutex_lock>
    1997:	8b 3d 0c 30 02 00    	mov    0x2300c,%edi
    199d:	85 ff                	test   %edi,%edi
    199f:	0f 84 73 01 00 00    	je     1b18 <devman_driver_register+0x1f8>
    19a5:	c7 04 24 d0 25 02 00 	movl   $0x225d0,(%esp)
    19ac:	e8 af 55 00 00       	call   6f60 <fibril_mutex_unlock>
    19b1:	a1 10 30 02 00       	mov    0x23010,%eax
    19b6:	89 04 24             	mov    %eax,(%esp)
    19b9:	e8 d2 17 01 00       	call   13190 <async_exchange_begin>
    19be:	c7 44 24 14 00 00 00 	movl   $0x0,0x14(%esp)
    19c5:	00 
    19c6:	89 c3                	mov    %eax,%ebx
    19c8:	8d 45 c4             	lea    -0x3c(%ebp),%eax
    19cb:	89 44 24 18          	mov    %eax,0x18(%esp)
    19cf:	c7 44 24 10 00 00 00 	movl   $0x0,0x10(%esp)
    19d6:	00 
    19d7:	c7 44 24 0c 00 00 00 	movl   $0x0,0xc(%esp)
    19de:	00 
    19df:	c7 44 24 08 00 00 00 	movl   $0x0,0x8(%esp)
    19e6:	00 
    19e7:	c7 44 24 04 00 04 00 	movl   $0x400,0x4(%esp)
    19ee:	00 
    19ef:	89 1c 24             	mov    %ebx,(%esp)
    19f2:	e8 39 01 01 00       	call   11b30 <async_send_fast>
    19f7:	89 34 24             	mov    %esi,(%esp)
    19fa:	89 c7                	mov    %eax,%edi
    19fc:	e8 6f 21 00 00       	call   3b70 <str_size>
    1a01:	89 74 24 04          	mov    %esi,0x4(%esp)
    1a05:	89 44 24 08          	mov    %eax,0x8(%esp)
    1a09:	89 1c 24             	mov    %ebx,(%esp)
    1a0c:	e8 6f 26 01 00       	call   14080 <async_data_write_start>
    1a11:	89 1c 24             	mov    %ebx,(%esp)
    1a14:	89 45 c0             	mov    %eax,-0x40(%ebp)
    1a17:	e8 e4 1a 01 00       	call   13500 <async_exchange_end>
    1a1c:	8b 4d c0             	mov    -0x40(%ebp),%ecx
    1a1f:	85 c9                	test   %ecx,%ecx
    1a21:	0f 85 d9 00 00 00    	jne    1b00 <devman_driver_register+0x1e0>
    1a27:	c7 04 24 d0 25 02 00 	movl   $0x225d0,(%esp)
    1a2e:	e8 0d 54 00 00       	call   6e40 <fibril_mutex_lock>
    1a33:	8b 15 0c 30 02 00    	mov    0x2300c,%edx
    1a39:	85 d2                	test   %edx,%edx
    1a3b:	0f 84 ea 00 00 00    	je     1b2b <devman_driver_register+0x20b>
    1a41:	c7 04 24 d0 25 02 00 	movl   $0x225d0,(%esp)
    1a48:	e8 13 55 00 00       	call   6f60 <fibril_mutex_unlock>
    1a4d:	a1 0c 30 02 00       	mov    0x2300c,%eax
    1a52:	85 c0                	test   %eax,%eax
    1a54:	0f 84 ff 00 00 00    	je     1b59 <devman_driver_register+0x239>
    1a5a:	89 04 24             	mov    %eax,(%esp)
    1a5d:	e8 2e 17 01 00       	call   13190 <async_exchange_begin>
    1a62:	89 c3                	mov    %eax,%ebx
    1a64:	89 1c 24             	mov    %ebx,(%esp)
    1a67:	c7 44 24 14 00 00 00 	movl   $0x0,0x14(%esp)
    1a6e:	00 
    1a6f:	c7 44 24 10 00 00 00 	movl   $0x0,0x10(%esp)
    1a76:	00 
    1a77:	c7 44 24 0c 00 00 00 	movl   $0x0,0xc(%esp)
    1a7e:	00 
    1a7f:	c7 44 24 08 00 00 00 	movl   $0x0,0x8(%esp)
    1a86:	00 
    1a87:	c7 44 24 04 00 00 00 	movl   $0x0,0x4(%esp)
    1a8e:	00 
    1a8f:	e8 9c 0e 01 00       	call   12930 <async_connect_to_me>
    1a94:	89 1c 24             	mov    %ebx,(%esp)
    1a97:	e8 64 1a 01 00       	call   13500 <async_exchange_end>
    1a9c:	8d 45 c0             	lea    -0x40(%ebp),%eax
    1a9f:	89 44 24 04          	mov    %eax,0x4(%esp)
    1aa3:	89 3c 24             	mov    %edi,(%esp)
    1aa6:	e8 55 02 01 00       	call   11d00 <async_wait_for>
    1aab:	8b 45 c0             	mov    -0x40(%ebp),%eax
    1aae:	83 c4 5c             	add    $0x5c,%esp
    1ab1:	5b                   	pop    %ebx
    1ab2:	5e                   	pop    %esi
    1ab3:	5f                   	pop    %edi
    1ab4:	5d                   	pop    %ebp
    1ab5:	c3                   	ret    
    1ab6:	66 90                	xchg   %ax,%ax
    1ab8:	85 db                	test   %ebx,%ebx
    1aba:	0f 84 a0 fe ff ff    	je     1960 <devman_driver_register+0x40>
    1ac0:	89 1d 10 30 02 00    	mov    %ebx,0x23010
    1ac6:	e9 95 fe ff ff       	jmp    1960 <devman_driver_register+0x40>
    1acb:	90                   	nop
    1acc:	8d 74 26 00          	lea    0x0(%esi,%eiz,1),%esi
    1ad0:	c7 44 24 0c 00 00 00 	movl   $0x0,0xc(%esp)
    1ad7:	00 
    1ad8:	c7 44 24 08 01 00 00 	movl   $0x1,0x8(%esp)
    1adf:	00 
    1ae0:	c7 44 24 04 64 65 76 	movl   $0x6e766564,0x4(%esp)
    1ae7:	6e 
    1ae8:	c7 04 24 01 00 00 00 	movl   $0x1,(%esp)
    1aef:	e8 ec e9 00 00       	call   104e0 <service_connect_blocking>
    1af4:	a3 10 30 02 00       	mov    %eax,0x23010
    1af9:	e9 3f fe ff ff       	jmp    193d <devman_driver_register+0x1d>
    1afe:	66 90                	xchg   %ax,%ax
    1b00:	89 3c 24             	mov    %edi,(%esp)
    1b03:	e8 48 04 01 00       	call   11f50 <async_forget>
    1b08:	8b 45 c0             	mov    -0x40(%ebp),%eax
    1b0b:	83 c4 5c             	add    $0x5c,%esp
    1b0e:	5b                   	pop    %ebx
    1b0f:	5e                   	pop    %esi
    1b10:	5f                   	pop    %edi
    1b11:	5d                   	pop    %ebp
    1b12:	c3                   	ret    
    1b13:	90                   	nop
    1b14:	8d 74 26 00          	lea    0x0(%esi,%eiz,1),%esi
    1b18:	85 db                	test   %ebx,%ebx
    1b1a:	0f 84 85 fe ff ff    	je     19a5 <devman_driver_register+0x85>
    1b20:	89 1d 0c 30 02 00    	mov    %ebx,0x2300c
    1b26:	e9 7a fe ff ff       	jmp    19a5 <devman_driver_register+0x85>
    1b2b:	c7 44 24 0c 00 00 00 	movl   $0x0,0xc(%esp)
    1b32:	00 
    1b33:	c7 44 24 08 01 00 00 	movl   $0x1,0x8(%esp)
    1b3a:	00 
    1b3b:	c7 44 24 04 64 65 76 	movl   $0x6e766564,0x4(%esp)
    1b42:	6e 
    1b43:	c7 04 24 01 00 00 00 	movl   $0x1,(%esp)
    1b4a:	e8 11 e9 00 00       	call   10460 <service_connect>
    1b4f:	a3 0c 30 02 00       	mov    %eax,0x2300c
    1b54:	e9 e8 fe ff ff       	jmp    1a41 <devman_driver_register+0x121>
    1b59:	31 db                	xor    %ebx,%ebx
    1b5b:	e9 04 ff ff ff       	jmp    1a64 <devman_driver_register+0x144>

00001b60 <devman_add_function>:
    1b60:	55                   	push   %ebp
    1b61:	89 e5                	mov    %esp,%ebp
    1b63:	57                   	push   %edi
    1b64:	56                   	push   %esi
    1b65:	53                   	push   %ebx
    1b66:	81 ec 8c 00 00 00    	sub    $0x8c,%esp
    1b6c:	8b 55 10             	mov    0x10(%ebp),%edx
    1b6f:	8b 75 08             	mov    0x8(%ebp),%esi
    1b72:	89 14 24             	mov    %edx,(%esp)
    1b75:	e8 56 3c 01 00       	call   157d0 <list_count>
    1b7a:	c7 04 24 c0 25 02 00 	movl   $0x225c0,(%esp)
    1b81:	89 c7                	mov    %eax,%edi
    1b83:	e8 b8 52 00 00       	call   6e40 <fibril_mutex_lock>
    1b88:	a1 10 30 02 00       	mov    0x23010,%eax
    1b8d:	85 c0                	test   %eax,%eax
    1b8f:	75 38                	jne    1bc9 <devman_add_function+0x69>
    1b91:	c7 04 24 d0 25 02 00 	movl   $0x225d0,(%esp)
    1b98:	8b 1d 0c 30 02 00    	mov    0x2300c,%ebx
    1b9e:	e8 9d 52 00 00       	call   6e40 <fibril_mutex_lock>
    1ba3:	a1 10 30 02 00       	mov    0x23010,%eax
    1ba8:	85 c0                	test   %eax,%eax
    1baa:	0f 84 80 01 00 00    	je     1d30 <devman_add_function+0x1d0>
    1bb0:	c7 04 24 d0 25 02 00 	movl   $0x225d0,(%esp)
    1bb7:	e8 a4 53 00 00       	call   6f60 <fibril_mutex_unlock>
    1bbc:	a1 10 30 02 00       	mov    0x23010,%eax
    1bc1:	85 c0                	test   %eax,%eax
    1bc3:	0f 84 7f 01 00 00    	je     1d48 <devman_add_function+0x1e8>
    1bc9:	c7 04 24 c0 25 02 00 	movl   $0x225c0,(%esp)
    1bd0:	e8 8b 53 00 00       	call   6f60 <fibril_mutex_unlock>
    1bd5:	c7 04 24 d0 25 02 00 	movl   $0x225d0,(%esp)
    1bdc:	8b 1d 10 30 02 00    	mov    0x23010,%ebx
    1be2:	e8 59 52 00 00       	call   6e40 <fibril_mutex_lock>
    1be7:	a1 0c 30 02 00       	mov    0x2300c,%eax
    1bec:	85 c0                	test   %eax,%eax
    1bee:	0f 84 ec 01 00 00    	je     1de0 <devman_add_function+0x280>
    1bf4:	c7 04 24 d0 25 02 00 	movl   $0x225d0,(%esp)
    1bfb:	e8 60 53 00 00       	call   6f60 <fibril_mutex_unlock>
    1c00:	a1 10 30 02 00       	mov    0x23010,%eax
    1c05:	89 04 24             	mov    %eax,(%esp)
    1c08:	e8 83 15 01 00       	call   13190 <async_exchange_begin>
    1c0d:	c7 44 24 14 00 00 00 	movl   $0x0,0x14(%esp)
    1c14:	00 
    1c15:	89 c3                	mov    %eax,%ebx
    1c17:	8d 45 a0             	lea    -0x60(%ebp),%eax
    1c1a:	89 44 24 18          	mov    %eax,0x18(%esp)
    1c1e:	8b 45 14             	mov    0x14(%ebp),%eax
    1c21:	89 44 24 0c          	mov    %eax,0xc(%esp)
    1c25:	8b 45 0c             	mov    0xc(%ebp),%eax
    1c28:	89 7c 24 10          	mov    %edi,0x10(%esp)
    1c2c:	89 44 24 08          	mov    %eax,0x8(%esp)
    1c30:	c7 44 24 04 01 04 00 	movl   $0x401,0x4(%esp)
    1c37:	00 
    1c38:	89 1c 24             	mov    %ebx,(%esp)
    1c3b:	e8 f0 fe 00 00       	call   11b30 <async_send_fast>
    1c40:	89 34 24             	mov    %esi,(%esp)
    1c43:	89 45 90             	mov    %eax,-0x70(%ebp)
    1c46:	e8 25 1f 00 00       	call   3b70 <str_size>
    1c4b:	89 74 24 04          	mov    %esi,0x4(%esp)
    1c4f:	89 44 24 08          	mov    %eax,0x8(%esp)
    1c53:	89 1c 24             	mov    %ebx,(%esp)
    1c56:	e8 25 24 01 00       	call   14080 <async_data_write_start>
    1c5b:	89 45 9c             	mov    %eax,-0x64(%ebp)
    1c5e:	85 c0                	test   %eax,%eax
    1c60:	0f 85 12 01 00 00    	jne    1d78 <devman_add_function+0x218>
    1c66:	8b 55 10             	mov    0x10(%ebp),%edx
    1c69:	8b 7a 04             	mov    0x4(%edx),%edi
    1c6c:	39 d7                	cmp    %edx,%edi
    1c6e:	75 31                	jne    1ca1 <devman_add_function+0x141>
    1c70:	e9 24 01 00 00       	jmp    1d99 <devman_add_function+0x239>
    1c75:	8d 76 00             	lea    0x0(%esi),%esi
    1c78:	8d 55 9c             	lea    -0x64(%ebp),%edx
    1c7b:	89 34 24             	mov    %esi,(%esp)
    1c7e:	89 54 24 04          	mov    %edx,0x4(%esp)
    1c82:	89 55 94             	mov    %edx,-0x6c(%ebp)
    1c85:	e8 76 00 01 00       	call   11d00 <async_wait_for>
    1c8a:	8b 75 9c             	mov    -0x64(%ebp),%esi
    1c8d:	85 f6                	test   %esi,%esi
    1c8f:	0f 85 e3 00 00 00    	jne    1d78 <devman_add_function+0x218>
    1c95:	8b 7f 04             	mov    0x4(%edi),%edi
    1c98:	3b 7d 10             	cmp    0x10(%ebp),%edi
    1c9b:	0f 84 ff 00 00 00    	je     1da0 <devman_add_function+0x240>
    1ca1:	8d 45 c4             	lea    -0x3c(%ebp),%eax
    1ca4:	c7 44 24 14 00 00 00 	movl   $0x0,0x14(%esp)
    1cab:	00 
    1cac:	89 44 24 18          	mov    %eax,0x18(%esp)
    1cb0:	c7 44 24 10 00 00 00 	movl   $0x0,0x10(%esp)
    1cb7:	00 
    1cb8:	c7 44 24 0c 00 00 00 	movl   $0x0,0xc(%esp)
    1cbf:	00 
    1cc0:	8b 47 0c             	mov    0xc(%edi),%eax
    1cc3:	c7 44 24 04 02 04 00 	movl   $0x402,0x4(%esp)
    1cca:	00 
    1ccb:	89 44 24 08          	mov    %eax,0x8(%esp)
    1ccf:	89 1c 24             	mov    %ebx,(%esp)
    1cd2:	e8 59 fe 00 00       	call   11b30 <async_send_fast>
    1cd7:	89 c6                	mov    %eax,%esi
    1cd9:	8b 47 08             	mov    0x8(%edi),%eax
    1cdc:	89 04 24             	mov    %eax,(%esp)
    1cdf:	e8 8c 1e 00 00       	call   3b70 <str_size>
    1ce4:	89 44 24 08          	mov    %eax,0x8(%esp)
    1ce8:	8b 47 08             	mov    0x8(%edi),%eax
    1ceb:	89 1c 24             	mov    %ebx,(%esp)
    1cee:	89 44 24 04          	mov    %eax,0x4(%esp)
    1cf2:	e8 89 23 01 00       	call   14080 <async_data_write_start>
    1cf7:	89 45 9c             	mov    %eax,-0x64(%ebp)
    1cfa:	85 c0                	test   %eax,%eax
    1cfc:	0f 84 76 ff ff ff    	je     1c78 <devman_add_function+0x118>
    1d02:	89 1c 24             	mov    %ebx,(%esp)
    1d05:	e8 f6 17 01 00       	call   13500 <async_exchange_end>
    1d0a:	89 34 24             	mov    %esi,(%esp)
    1d0d:	e8 3e 02 01 00       	call   11f50 <async_forget>
    1d12:	8b 45 90             	mov    -0x70(%ebp),%eax
    1d15:	89 04 24             	mov    %eax,(%esp)
    1d18:	e8 33 02 01 00       	call   11f50 <async_forget>
    1d1d:	8b 45 9c             	mov    -0x64(%ebp),%eax
    1d20:	81 c4 8c 00 00 00    	add    $0x8c,%esp
    1d26:	5b                   	pop    %ebx
    1d27:	5e                   	pop    %esi
    1d28:	5f                   	pop    %edi
    1d29:	5d                   	pop    %ebp
    1d2a:	c3                   	ret    
    1d2b:	90                   	nop
    1d2c:	8d 74 26 00          	lea    0x0(%esi,%eiz,1),%esi
    1d30:	85 db                	test   %ebx,%ebx
    1d32:	0f 84 78 fe ff ff    	je     1bb0 <devman_add_function+0x50>
    1d38:	89 1d 10 30 02 00    	mov    %ebx,0x23010
    1d3e:	e9 6d fe ff ff       	jmp    1bb0 <devman_add_function+0x50>
    1d43:	90                   	nop
    1d44:	8d 74 26 00          	lea    0x0(%esi,%eiz,1),%esi
    1d48:	c7 44 24 0c 00 00 00 	movl   $0x0,0xc(%esp)
    1d4f:	00 
    1d50:	c7 44 24 08 01 00 00 	movl   $0x1,0x8(%esp)
    1d57:	00 
    1d58:	c7 44 24 04 64 65 76 	movl   $0x6e766564,0x4(%esp)
    1d5f:	6e 
    1d60:	c7 04 24 01 00 00 00 	movl   $0x1,(%esp)
    1d67:	e8 74 e7 00 00       	call   104e0 <service_connect_blocking>
    1d6c:	a3 10 30 02 00       	mov    %eax,0x23010
    1d71:	e9 17 fe ff ff       	jmp    1b8d <devman_add_function+0x2d>
    1d76:	66 90                	xchg   %ax,%ax
    1d78:	89 1c 24             	mov    %ebx,(%esp)
    1d7b:	e8 80 17 01 00       	call   13500 <async_exchange_end>
    1d80:	8b 45 90             	mov    -0x70(%ebp),%eax
    1d83:	89 04 24             	mov    %eax,(%esp)
    1d86:	e8 c5 01 01 00       	call   11f50 <async_forget>
    1d8b:	8b 45 9c             	mov    -0x64(%ebp),%eax
    1d8e:	81 c4 8c 00 00 00    	add    $0x8c,%esp
    1d94:	5b                   	pop    %ebx
    1d95:	5e                   	pop    %esi
    1d96:	5f                   	pop    %edi
    1d97:	5d                   	pop    %ebp
    1d98:	c3                   	ret    
    1d99:	8d 4d 9c             	lea    -0x64(%ebp),%ecx
    1d9c:	89 4d 94             	mov    %ecx,-0x6c(%ebp)
    1d9f:	90                   	nop
    1da0:	89 1c 24             	mov    %ebx,(%esp)
    1da3:	e8 58 17 01 00       	call   13500 <async_exchange_end>
    1da8:	8b 45 90             	mov    -0x70(%ebp),%eax
    1dab:	8b 55 94             	mov    -0x6c(%ebp),%edx
    1dae:	89 04 24             	mov    %eax,(%esp)
    1db1:	89 54 24 04          	mov    %edx,0x4(%esp)
    1db5:	e8 46 ff 00 00       	call   11d00 <async_wait_for>
    1dba:	8b 45 9c             	mov    -0x64(%ebp),%eax
    1dbd:	85 c0                	test   %eax,%eax
    1dbf:	75 32                	jne    1df3 <devman_add_function+0x293>
    1dc1:	8b 4d 18             	mov    0x18(%ebp),%ecx
    1dc4:	85 c9                	test   %ecx,%ecx
    1dc6:	0f 84 54 ff ff ff    	je     1d20 <devman_add_function+0x1c0>
    1dcc:	8b 4d 18             	mov    0x18(%ebp),%ecx
    1dcf:	8b 55 a4             	mov    -0x5c(%ebp),%edx
    1dd2:	89 11                	mov    %edx,(%ecx)
    1dd4:	81 c4 8c 00 00 00    	add    $0x8c,%esp
    1dda:	5b                   	pop    %ebx
    1ddb:	5e                   	pop    %esi
    1ddc:	5f                   	pop    %edi
    1ddd:	5d                   	pop    %ebp
    1dde:	c3                   	ret    
    1ddf:	90                   	nop
    1de0:	85 db                	test   %ebx,%ebx
    1de2:	0f 84 0c fe ff ff    	je     1bf4 <devman_add_function+0x94>
    1de8:	89 1d 0c 30 02 00    	mov    %ebx,0x2300c
    1dee:	e9 01 fe ff ff       	jmp    1bf4 <devman_add_function+0x94>
    1df3:	8b 55 18             	mov    0x18(%ebp),%edx
    1df6:	85 d2                	test   %edx,%edx
    1df8:	0f 84 22 ff ff ff    	je     1d20 <devman_add_function+0x1c0>
    1dfe:	8b 55 18             	mov    0x18(%ebp),%edx
    1e01:	c7 02 ff ff ff ff    	movl   $0xffffffff,(%edx)
    1e07:	81 c4 8c 00 00 00    	add    $0x8c,%esp
    1e0d:	5b                   	pop    %ebx
    1e0e:	5e                   	pop    %esi
    1e0f:	5f                   	pop    %edi
    1e10:	5d                   	pop    %ebp
    1e11:	c3                   	ret    
    1e12:	8d b4 26 00 00 00 00 	lea    0x0(%esi,%eiz,1),%esi
    1e19:	8d bc 27 00 00 00 00 	lea    0x0(%edi,%eiz,1),%edi

00001e20 <devman_add_device_to_category>:
    1e20:	55                   	push   %ebp
    1e21:	89 e5                	mov    %esp,%ebp
    1e23:	57                   	push   %edi
    1e24:	56                   	push   %esi
    1e25:	53                   	push   %ebx
    1e26:	83 ec 5c             	sub    $0x5c,%esp
    1e29:	8b 75 0c             	mov    0xc(%ebp),%esi
    1e2c:	c7 04 24 c0 25 02 00 	movl   $0x225c0,(%esp)
    1e33:	e8 08 50 00 00       	call   6e40 <fibril_mutex_lock>
    1e38:	a1 10 30 02 00       	mov    0x23010,%eax
    1e3d:	85 c0                	test   %eax,%eax
    1e3f:	75 39                	jne    1e7a <devman_add_device_to_category+0x5a>
    1e41:	c7 04 24 d0 25 02 00 	movl   $0x225d0,(%esp)
    1e48:	8b 1d 0c 30 02 00    	mov    0x2300c,%ebx
    1e4e:	e8 ed 4f 00 00       	call   6e40 <fibril_mutex_lock>
    1e53:	8b 15 10 30 02 00    	mov    0x23010,%edx
    1e59:	85 d2                	test   %edx,%edx
    1e5b:	0f 84 df 00 00 00    	je     1f40 <devman_add_device_to_category+0x120>
    1e61:	c7 04 24 d0 25 02 00 	movl   $0x225d0,(%esp)
    1e68:	e8 f3 50 00 00       	call   6f60 <fibril_mutex_unlock>
    1e6d:	a1 10 30 02 00       	mov    0x23010,%eax
    1e72:	85 c0                	test   %eax,%eax
    1e74:	0f 84 de 00 00 00    	je     1f58 <devman_add_device_to_category+0x138>
    1e7a:	c7 04 24 c0 25 02 00 	movl   $0x225c0,(%esp)
    1e81:	e8 da 50 00 00       	call   6f60 <fibril_mutex_unlock>
    1e86:	c7 04 24 d0 25 02 00 	movl   $0x225d0,(%esp)
    1e8d:	8b 1d 10 30 02 00    	mov    0x23010,%ebx
    1e93:	e8 a8 4f 00 00       	call   6e40 <fibril_mutex_lock>
    1e98:	a1 0c 30 02 00       	mov    0x2300c,%eax
    1e9d:	85 c0                	test   %eax,%eax
    1e9f:	0f 84 fb 00 00 00    	je     1fa0 <devman_add_device_to_category+0x180>
    1ea5:	c7 04 24 d0 25 02 00 	movl   $0x225d0,(%esp)
    1eac:	e8 af 50 00 00       	call   6f60 <fibril_mutex_unlock>
    1eb1:	a1 10 30 02 00       	mov    0x23010,%eax
    1eb6:	89 04 24             	mov    %eax,(%esp)
    1eb9:	e8 d2 12 01 00       	call   13190 <async_exchange_begin>
    1ebe:	c7 44 24 14 00 00 00 	movl   $0x0,0x14(%esp)
    1ec5:	00 
    1ec6:	89 c3                	mov    %eax,%ebx
    1ec8:	8d 45 c4             	lea    -0x3c(%ebp),%eax
    1ecb:	89 44 24 18          	mov    %eax,0x18(%esp)
    1ecf:	8b 45 08             	mov    0x8(%ebp),%eax
    1ed2:	c7 44 24 10 00 00 00 	movl   $0x0,0x10(%esp)
    1ed9:	00 
    1eda:	c7 44 24 0c 00 00 00 	movl   $0x0,0xc(%esp)
    1ee1:	00 
    1ee2:	89 44 24 08          	mov    %eax,0x8(%esp)
    1ee6:	c7 44 24 04 03 04 00 	movl   $0x403,0x4(%esp)
    1eed:	00 
    1eee:	89 1c 24             	mov    %ebx,(%esp)
    1ef1:	e8 3a fc 00 00       	call   11b30 <async_send_fast>
    1ef6:	89 34 24             	mov    %esi,(%esp)
    1ef9:	89 c7                	mov    %eax,%edi
    1efb:	e8 70 1c 00 00       	call   3b70 <str_size>
    1f00:	89 74 24 04          	mov    %esi,0x4(%esp)
    1f04:	89 44 24 08          	mov    %eax,0x8(%esp)
    1f08:	89 1c 24             	mov    %ebx,(%esp)
    1f0b:	e8 70 21 01 00       	call   14080 <async_data_write_start>
    1f10:	89 1c 24             	mov    %ebx,(%esp)
    1f13:	89 45 c0             	mov    %eax,-0x40(%ebp)
    1f16:	e8 e5 15 01 00       	call   13500 <async_exchange_end>
    1f1b:	8b 45 c0             	mov    -0x40(%ebp),%eax
    1f1e:	85 c0                	test   %eax,%eax
    1f20:	75 66                	jne    1f88 <devman_add_device_to_category+0x168>
    1f22:	8d 45 c0             	lea    -0x40(%ebp),%eax
    1f25:	89 3c 24             	mov    %edi,(%esp)
    1f28:	89 44 24 04          	mov    %eax,0x4(%esp)
    1f2c:	e8 cf fd 00 00       	call   11d00 <async_wait_for>
    1f31:	8b 45 c0             	mov    -0x40(%ebp),%eax
    1f34:	83 c4 5c             	add    $0x5c,%esp
    1f37:	5b                   	pop    %ebx
    1f38:	5e                   	pop    %esi
    1f39:	5f                   	pop    %edi
    1f3a:	5d                   	pop    %ebp
    1f3b:	c3                   	ret    
    1f3c:	8d 74 26 00          	lea    0x0(%esi,%eiz,1),%esi
    1f40:	85 db                	test   %ebx,%ebx
    1f42:	0f 84 19 ff ff ff    	je     1e61 <devman_add_device_to_category+0x41>
    1f48:	89 1d 10 30 02 00    	mov    %ebx,0x23010
    1f4e:	e9 0e ff ff ff       	jmp    1e61 <devman_add_device_to_category+0x41>
    1f53:	90                   	nop
    1f54:	8d 74 26 00          	lea    0x0(%esi,%eiz,1),%esi
    1f58:	c7 44 24 0c 00 00 00 	movl   $0x0,0xc(%esp)
    1f5f:	00 
    1f60:	c7 44 24 08 01 00 00 	movl   $0x1,0x8(%esp)
    1f67:	00 
    1f68:	c7 44 24 04 64 65 76 	movl   $0x6e766564,0x4(%esp)
    1f6f:	6e 
    1f70:	c7 04 24 01 00 00 00 	movl   $0x1,(%esp)
    1f77:	e8 64 e5 00 00       	call   104e0 <service_connect_blocking>
    1f7c:	a3 10 30 02 00       	mov    %eax,0x23010
    1f81:	e9 b7 fe ff ff       	jmp    1e3d <devman_add_device_to_category+0x1d>
    1f86:	66 90                	xchg   %ax,%ax
    1f88:	89 3c 24             	mov    %edi,(%esp)
    1f8b:	e8 c0 ff 00 00       	call   11f50 <async_forget>
    1f90:	8b 45 c0             	mov    -0x40(%ebp),%eax
    1f93:	83 c4 5c             	add    $0x5c,%esp
    1f96:	5b                   	pop    %ebx
    1f97:	5e                   	pop    %esi
    1f98:	5f                   	pop    %edi
    1f99:	5d                   	pop    %ebp
    1f9a:	c3                   	ret    
    1f9b:	90                   	nop
    1f9c:	8d 74 26 00          	lea    0x0(%esi,%eiz,1),%esi
    1fa0:	85 db                	test   %ebx,%ebx
    1fa2:	0f 84 fd fe ff ff    	je     1ea5 <devman_add_device_to_category+0x85>
    1fa8:	89 1d 0c 30 02 00    	mov    %ebx,0x2300c
    1fae:	e9 f2 fe ff ff       	jmp    1ea5 <devman_add_device_to_category+0x85>
    1fb3:	8d b6 00 00 00 00    	lea    0x0(%esi),%esi
    1fb9:	8d bc 27 00 00 00 00 	lea    0x0(%edi,%eiz,1),%edi

00001fc0 <devman_device_connect>:
    1fc0:	55                   	push   %ebp
    1fc1:	89 e5                	mov    %esp,%ebp
    1fc3:	83 ec 18             	sub    $0x18,%esp
    1fc6:	8b 45 08             	mov    0x8(%ebp),%eax
    1fc9:	8b 55 0c             	mov    0xc(%ebp),%edx
    1fcc:	f6 45 10 01          	testb  $0x1,0x10(%ebp)
    1fd0:	89 54 24 0c          	mov    %edx,0xc(%esp)
    1fd4:	c7 44 24 08 03 00 00 	movl   $0x3,0x8(%esp)
    1fdb:	00 
    1fdc:	c7 44 24 04 64 65 76 	movl   $0x6e766564,0x4(%esp)
    1fe3:	6e 
    1fe4:	89 04 24             	mov    %eax,(%esp)
    1fe7:	75 07                	jne    1ff0 <devman_device_connect+0x30>
    1fe9:	e8 72 e4 00 00       	call   10460 <service_connect>
    1fee:	c9                   	leave  
    1fef:	c3                   	ret    
    1ff0:	e8 eb e4 00 00       	call   104e0 <service_connect_blocking>
    1ff5:	c9                   	leave  
    1ff6:	c3                   	ret    
    1ff7:	89 f6                	mov    %esi,%esi
    1ff9:	8d bc 27 00 00 00 00 	lea    0x0(%edi,%eiz,1),%edi

00002000 <devman_remove_function>:
    2000:	55                   	push   %ebp
    2001:	89 e5                	mov    %esp,%ebp
    2003:	53                   	push   %ebx
    2004:	83 ec 44             	sub    $0x44,%esp
    2007:	c7 04 24 c0 25 02 00 	movl   $0x225c0,(%esp)
    200e:	e8 2d 4e 00 00       	call   6e40 <fibril_mutex_lock>
    2013:	a1 10 30 02 00       	mov    0x23010,%eax
    2018:	85 c0                	test   %eax,%eax
    201a:	75 39                	jne    2055 <devman_remove_function+0x55>
    201c:	c7 04 24 d0 25 02 00 	movl   $0x225d0,(%esp)
    2023:	8b 1d 0c 30 02 00    	mov    0x2300c,%ebx
    2029:	e8 12 4e 00 00       	call   6e40 <fibril_mutex_lock>
    202e:	a1 10 30 02 00       	mov    0x23010,%eax
    2033:	85 c0                	test   %eax,%eax
    2035:	0f 84 cd 00 00 00    	je     2108 <devman_remove_function+0x108>
    203b:	c7 04 24 d0 25 02 00 	movl   $0x225d0,(%esp)
    2042:	e8 19 4f 00 00       	call   6f60 <fibril_mutex_unlock>
    2047:	8b 1d 10 30 02 00    	mov    0x23010,%ebx
    204d:	85 db                	test   %ebx,%ebx
    204f:	0f 84 cb 00 00 00    	je     2120 <devman_remove_function+0x120>
    2055:	c7 04 24 c0 25 02 00 	movl   $0x225c0,(%esp)
    205c:	e8 ff 4e 00 00       	call   6f60 <fibril_mutex_unlock>
    2061:	c7 04 24 d0 25 02 00 	movl   $0x225d0,(%esp)
    2068:	8b 1d 10 30 02 00    	mov    0x23010,%ebx
    206e:	e8 cd 4d 00 00       	call   6e40 <fibril_mutex_lock>
    2073:	8b 0d 0c 30 02 00    	mov    0x2300c,%ecx
    2079:	85 c9                	test   %ecx,%ecx
    207b:	0f 84 cf 00 00 00    	je     2150 <devman_remove_function+0x150>
    2081:	c7 04 24 d0 25 02 00 	movl   $0x225d0,(%esp)
    2088:	e8 d3 4e 00 00       	call   6f60 <fibril_mutex_unlock>
    208d:	a1 10 30 02 00       	mov    0x23010,%eax
    2092:	89 04 24             	mov    %eax,(%esp)
    2095:	e8 f6 10 01 00       	call   13190 <async_exchange_begin>
    209a:	c7 44 24 28 00 00 00 	movl   $0x0,0x28(%esp)
    20a1:	00 
    20a2:	89 c3                	mov    %eax,%ebx
    20a4:	8b 45 08             	mov    0x8(%ebp),%eax
    20a7:	89 1c 24             	mov    %ebx,(%esp)
    20aa:	c7 44 24 24 00 00 00 	movl   $0x0,0x24(%esp)
    20b1:	00 
    20b2:	c7 44 24 20 00 00 00 	movl   $0x0,0x20(%esp)
    20b9:	00 
    20ba:	c7 44 24 1c 00 00 00 	movl   $0x0,0x1c(%esp)
    20c1:	00 
    20c2:	c7 44 24 18 00 00 00 	movl   $0x0,0x18(%esp)
    20c9:	00 
    20ca:	c7 44 24 14 00 00 00 	movl   $0x0,0x14(%esp)
    20d1:	00 
    20d2:	c7 44 24 10 00 00 00 	movl   $0x0,0x10(%esp)
    20d9:	00 
    20da:	c7 44 24 0c 00 00 00 	movl   $0x0,0xc(%esp)
    20e1:	00 
    20e2:	89 44 24 08          	mov    %eax,0x8(%esp)
    20e6:	c7 44 24 04 06 04 00 	movl   $0x406,0x4(%esp)
    20ed:	00 
    20ee:	e8 4d 00 01 00       	call   12140 <async_req_fast>
    20f3:	89 1c 24             	mov    %ebx,(%esp)
    20f6:	89 45 f4             	mov    %eax,-0xc(%ebp)
    20f9:	e8 02 14 01 00       	call   13500 <async_exchange_end>
    20fe:	8b 45 f4             	mov    -0xc(%ebp),%eax
    2101:	83 c4 44             	add    $0x44,%esp
    2104:	5b                   	pop    %ebx
    2105:	5d                   	pop    %ebp
    2106:	c3                   	ret    
    2107:	90                   	nop
    2108:	85 db                	test   %ebx,%ebx
    210a:	0f 84 2b ff ff ff    	je     203b <devman_remove_function+0x3b>
    2110:	89 1d 10 30 02 00    	mov    %ebx,0x23010
    2116:	e9 20 ff ff ff       	jmp    203b <devman_remove_function+0x3b>
    211b:	90                   	nop
    211c:	8d 74 26 00          	lea    0x0(%esi,%eiz,1),%esi
    2120:	c7 44 24 0c 00 00 00 	movl   $0x0,0xc(%esp)
    2127:	00 
    2128:	c7 44 24 08 01 00 00 	movl   $0x1,0x8(%esp)
    212f:	00 
    2130:	c7 44 24 04 64 65 76 	movl   $0x6e766564,0x4(%esp)
    2137:	6e 
    2138:	c7 04 24 01 00 00 00 	movl   $0x1,(%esp)
    213f:	e8 9c e3 00 00       	call   104e0 <service_connect_blocking>
    2144:	a3 10 30 02 00       	mov    %eax,0x23010
    2149:	e9 ca fe ff ff       	jmp    2018 <devman_remove_function+0x18>
    214e:	66 90                	xchg   %ax,%ax
    2150:	85 db                	test   %ebx,%ebx
    2152:	0f 84 29 ff ff ff    	je     2081 <devman_remove_function+0x81>
    2158:	89 1d 0c 30 02 00    	mov    %ebx,0x2300c
    215e:	e9 1e ff ff ff       	jmp    2081 <devman_remove_function+0x81>
    2163:	8d b6 00 00 00 00    	lea    0x0(%esi),%esi
    2169:	8d bc 27 00 00 00 00 	lea    0x0(%edi,%eiz,1),%edi

00002170 <devman_drv_fun_online>:
    2170:	55                   	push   %ebp
    2171:	89 e5                	mov    %esp,%ebp
    2173:	56                   	push   %esi
    2174:	53                   	push   %ebx
    2175:	83 ec 30             	sub    $0x30,%esp
    2178:	c7 04 24 d0 25 02 00 	movl   $0x225d0,(%esp)
    217f:	e8 bc 4c 00 00       	call   6e40 <fibril_mutex_lock>
    2184:	a1 0c 30 02 00       	mov    0x2300c,%eax
    2189:	85 c0                	test   %eax,%eax
    218b:	0f 84 97 00 00 00    	je     2228 <devman_drv_fun_online+0xb8>
    2191:	c7 04 24 d0 25 02 00 	movl   $0x225d0,(%esp)
    2198:	e8 c3 4d 00 00       	call   6f60 <fibril_mutex_unlock>
    219d:	a1 0c 30 02 00       	mov    0x2300c,%eax
    21a2:	85 c0                	test   %eax,%eax
    21a4:	0f 84 ae 00 00 00    	je     2258 <devman_drv_fun_online+0xe8>
    21aa:	89 04 24             	mov    %eax,(%esp)
    21ad:	e8 de 0f 01 00       	call   13190 <async_exchange_begin>
    21b2:	89 c3                	mov    %eax,%ebx
    21b4:	85 c0                	test   %eax,%eax
    21b6:	0f 84 9c 00 00 00    	je     2258 <devman_drv_fun_online+0xe8>
    21bc:	8b 45 08             	mov    0x8(%ebp),%eax
    21bf:	c7 44 24 28 00 00 00 	movl   $0x0,0x28(%esp)
    21c6:	00 
    21c7:	c7 44 24 24 00 00 00 	movl   $0x0,0x24(%esp)
    21ce:	00 
    21cf:	c7 44 24 20 00 00 00 	movl   $0x0,0x20(%esp)
    21d6:	00 
    21d7:	c7 44 24 1c 00 00 00 	movl   $0x0,0x1c(%esp)
    21de:	00 
    21df:	c7 44 24 18 00 00 00 	movl   $0x0,0x18(%esp)
    21e6:	00 
    21e7:	c7 44 24 14 00 00 00 	movl   $0x0,0x14(%esp)
    21ee:	00 
    21ef:	c7 44 24 10 00 00 00 	movl   $0x0,0x10(%esp)
    21f6:	00 
    21f7:	c7 44 24 0c 00 00 00 	movl   $0x0,0xc(%esp)
    21fe:	00 
    21ff:	89 44 24 08          	mov    %eax,0x8(%esp)
    2203:	c7 44 24 04 04 04 00 	movl   $0x404,0x4(%esp)
    220a:	00 
    220b:	89 1c 24             	mov    %ebx,(%esp)
    220e:	e8 2d ff 00 00       	call   12140 <async_req_fast>
    2213:	89 1c 24             	mov    %ebx,(%esp)
    2216:	89 c6                	mov    %eax,%esi
    2218:	e8 e3 12 01 00       	call   13500 <async_exchange_end>
    221d:	89 f0                	mov    %esi,%eax
    221f:	83 c4 30             	add    $0x30,%esp
    2222:	5b                   	pop    %ebx
    2223:	5e                   	pop    %esi
    2224:	5d                   	pop    %ebp
    2225:	c3                   	ret    
    2226:	66 90                	xchg   %ax,%ax
    2228:	c7 44 24 0c 00 00 00 	movl   $0x0,0xc(%esp)
    222f:	00 
    2230:	c7 44 24 08 01 00 00 	movl   $0x1,0x8(%esp)
    2237:	00 
    2238:	c7 44 24 04 64 65 76 	movl   $0x6e766564,0x4(%esp)
    223f:	6e 
    2240:	c7 04 24 01 00 00 00 	movl   $0x1,(%esp)
    2247:	e8 14 e2 00 00       	call   10460 <service_connect>
    224c:	a3 0c 30 02 00       	mov    %eax,0x2300c
    2251:	e9 3b ff ff ff       	jmp    2191 <devman_drv_fun_online+0x21>
    2256:	66 90                	xchg   %ax,%ax
    2258:	b8 fe ff ff ff       	mov    $0xfffffffe,%eax
    225d:	eb c0                	jmp    221f <devman_drv_fun_online+0xaf>
    225f:	90                   	nop

00002260 <devman_drv_fun_offline>:
    2260:	55                   	push   %ebp
    2261:	89 e5                	mov    %esp,%ebp
    2263:	56                   	push   %esi
    2264:	53                   	push   %ebx
    2265:	83 ec 30             	sub    $0x30,%esp
    2268:	c7 04 24 d0 25 02 00 	movl   $0x225d0,(%esp)
    226f:	e8 cc 4b 00 00       	call   6e40 <fibril_mutex_lock>
    2274:	a1 0c 30 02 00       	mov    0x2300c,%eax
    2279:	85 c0                	test   %eax,%eax
    227b:	0f 84 97 00 00 00    	je     2318 <devman_drv_fun_offline+0xb8>
    2281:	c7 04 24 d0 25 02 00 	movl   $0x225d0,(%esp)
    2288:	e8 d3 4c 00 00       	call   6f60 <fibril_mutex_unlock>
    228d:	a1 0c 30 02 00       	mov    0x2300c,%eax
    2292:	85 c0                	test   %eax,%eax
    2294:	0f 84 ae 00 00 00    	je     2348 <devman_drv_fun_offline+0xe8>
    229a:	89 04 24             	mov    %eax,(%esp)
    229d:	e8 ee 0e 01 00       	call   13190 <async_exchange_begin>
    22a2:	89 c3                	mov    %eax,%ebx
    22a4:	85 c0                	test   %eax,%eax
    22a6:	0f 84 9c 00 00 00    	je     2348 <devman_drv_fun_offline+0xe8>
    22ac:	8b 45 08             	mov    0x8(%ebp),%eax
    22af:	c7 44 24 28 00 00 00 	movl   $0x0,0x28(%esp)
    22b6:	00 
    22b7:	c7 44 24 24 00 00 00 	movl   $0x0,0x24(%esp)
    22be:	00 
    22bf:	c7 44 24 20 00 00 00 	movl   $0x0,0x20(%esp)
    22c6:	00 
    22c7:	c7 44 24 1c 00 00 00 	movl   $0x0,0x1c(%esp)
    22ce:	00 
    22cf:	c7 44 24 18 00 00 00 	movl   $0x0,0x18(%esp)
    22d6:	00 
    22d7:	c7 44 24 14 00 00 00 	movl   $0x0,0x14(%esp)
    22de:	00 
    22df:	c7 44 24 10 00 00 00 	movl   $0x0,0x10(%esp)
    22e6:	00 
    22e7:	c7 44 24 0c 00 00 00 	movl   $0x0,0xc(%esp)
    22ee:	00 
    22ef:	89 44 24 08          	mov    %eax,0x8(%esp)
    22f3:	c7 44 24 04 05 04 00 	movl   $0x405,0x4(%esp)
    22fa:	00 
    22fb:	89 1c 24             	mov    %ebx,(%esp)
    22fe:	e8 3d fe 00 00       	call   12140 <async_req_fast>
    2303:	89 1c 24             	mov    %ebx,(%esp)
    2306:	89 c6                	mov    %eax,%esi
    2308:	e8 f3 11 01 00       	call   13500 <async_exchange_end>
    230d:	89 f0                	mov    %esi,%eax
    230f:	83 c4 30             	add    $0x30,%esp
    2312:	5b                   	pop    %ebx
    2313:	5e                   	pop    %esi
    2314:	5d                   	pop    %ebp
    2315:	c3                   	ret    
    2316:	66 90                	xchg   %ax,%ax
    2318:	c7 44 24 0c 00 00 00 	movl   $0x0,0xc(%esp)
    231f:	00 
    2320:	c7 44 24 08 01 00 00 	movl   $0x1,0x8(%esp)
    2327:	00 
    2328:	c7 44 24 04 64 65 76 	movl   $0x6e766564,0x4(%esp)
    232f:	6e 
    2330:	c7 04 24 01 00 00 00 	movl   $0x1,(%esp)
    2337:	e8 24 e1 00 00       	call   10460 <service_connect>
    233c:	a3 0c 30 02 00       	mov    %eax,0x2300c
    2341:	e9 3b ff ff ff       	jmp    2281 <devman_drv_fun_offline+0x21>
    2346:	66 90                	xchg   %ax,%ax
    2348:	b8 fe ff ff ff       	mov    $0xfffffffe,%eax
    234d:	eb c0                	jmp    230f <devman_drv_fun_offline+0xaf>
    234f:	90                   	nop

00002350 <devman_parent_device_connect>:
    2350:	55                   	push   %ebp
    2351:	89 e5                	mov    %esp,%ebp
    2353:	83 ec 18             	sub    $0x18,%esp
    2356:	8b 45 08             	mov    0x8(%ebp),%eax
    2359:	8b 55 0c             	mov    0xc(%ebp),%edx
    235c:	f6 45 10 01          	testb  $0x1,0x10(%ebp)
    2360:	89 54 24 0c          	mov    %edx,0xc(%esp)
    2364:	c7 44 24 08 05 00 00 	movl   $0x5,0x8(%esp)
    236b:	00 
    236c:	c7 44 24 04 64 65 76 	movl   $0x6e766564,0x4(%esp)
    2373:	6e 
    2374:	89 04 24             	mov    %eax,(%esp)
    2377:	75 07                	jne    2380 <devman_parent_device_connect+0x30>
    2379:	e8 e2 e0 00 00       	call   10460 <service_connect>
    237e:	c9                   	leave  
    237f:	c3                   	ret    
    2380:	e8 5b e1 00 00       	call   104e0 <service_connect_blocking>
    2385:	c9                   	leave  
    2386:	c3                   	ret    
    2387:	89 f6                	mov    %esi,%esi
    2389:	8d bc 27 00 00 00 00 	lea    0x0(%edi,%eiz,1),%edi

00002390 <devman_fun_get_handle>:
    2390:	55                   	push   %ebp
    2391:	89 e5                	mov    %esp,%ebp
    2393:	57                   	push   %edi
    2394:	56                   	push   %esi
    2395:	53                   	push   %ebx
    2396:	83 ec 5c             	sub    $0x5c,%esp
    2399:	8b 75 10             	mov    0x10(%ebp),%esi
    239c:	8b 7d 08             	mov    0x8(%ebp),%edi
    239f:	f7 c6 01 00 00 00    	test   $0x1,%esi
    23a5:	0f 84 3d 01 00 00    	je     24e8 <devman_fun_get_handle+0x158>
    23ab:	c7 04 24 e0 25 02 00 	movl   $0x225e0,(%esp)
    23b2:	e8 89 4a 00 00       	call   6e40 <fibril_mutex_lock>
    23b7:	a1 18 30 02 00       	mov    0x23018,%eax
    23bc:	85 c0                	test   %eax,%eax
    23be:	75 38                	jne    23f8 <devman_fun_get_handle+0x68>
    23c0:	c7 04 24 f0 25 02 00 	movl   $0x225f0,(%esp)
    23c7:	8b 1d 14 30 02 00    	mov    0x23014,%ebx
    23cd:	e8 6e 4a 00 00       	call   6e40 <fibril_mutex_lock>
    23d2:	a1 18 30 02 00       	mov    0x23018,%eax
    23d7:	85 c0                	test   %eax,%eax
    23d9:	0f 84 f1 00 00 00    	je     24d0 <devman_fun_get_handle+0x140>
    23df:	c7 04 24 f0 25 02 00 	movl   $0x225f0,(%esp)
    23e6:	e8 75 4b 00 00       	call   6f60 <fibril_mutex_unlock>
    23eb:	a1 18 30 02 00       	mov    0x23018,%eax
    23f0:	85 c0                	test   %eax,%eax
    23f2:	0f 84 58 01 00 00    	je     2550 <devman_fun_get_handle+0x1c0>
    23f8:	c7 04 24 e0 25 02 00 	movl   $0x225e0,(%esp)
    23ff:	e8 5c 4b 00 00       	call   6f60 <fibril_mutex_unlock>
    2404:	c7 04 24 f0 25 02 00 	movl   $0x225f0,(%esp)
    240b:	8b 1d 18 30 02 00    	mov    0x23018,%ebx
    2411:	e8 2a 4a 00 00       	call   6e40 <fibril_mutex_lock>
    2416:	a1 14 30 02 00       	mov    0x23014,%eax
    241b:	85 c0                	test   %eax,%eax
    241d:	0f 84 75 01 00 00    	je     2598 <devman_fun_get_handle+0x208>
    2423:	c7 04 24 f0 25 02 00 	movl   $0x225f0,(%esp)
    242a:	e8 31 4b 00 00       	call   6f60 <fibril_mutex_unlock>
    242f:	a1 18 30 02 00       	mov    0x23018,%eax
    2434:	89 04 24             	mov    %eax,(%esp)
    2437:	e8 54 0d 01 00       	call   13190 <async_exchange_begin>
    243c:	89 c3                	mov    %eax,%ebx
    243e:	8d 45 c4             	lea    -0x3c(%ebp),%eax
    2441:	89 74 24 08          	mov    %esi,0x8(%esp)
    2445:	89 44 24 18          	mov    %eax,0x18(%esp)
    2449:	c7 44 24 14 00 00 00 	movl   $0x0,0x14(%esp)
    2450:	00 
    2451:	c7 44 24 10 00 00 00 	movl   $0x0,0x10(%esp)
    2458:	00 
    2459:	c7 44 24 0c 00 00 00 	movl   $0x0,0xc(%esp)
    2460:	00 
    2461:	c7 44 24 04 00 04 00 	movl   $0x400,0x4(%esp)
    2468:	00 
    2469:	89 1c 24             	mov    %ebx,(%esp)
    246c:	e8 bf f6 00 00       	call   11b30 <async_send_fast>
    2471:	89 3c 24             	mov    %edi,(%esp)
    2474:	89 c6                	mov    %eax,%esi
    2476:	e8 f5 16 00 00       	call   3b70 <str_size>
    247b:	89 7c 24 04          	mov    %edi,0x4(%esp)
    247f:	89 44 24 08          	mov    %eax,0x8(%esp)
    2483:	89 1c 24             	mov    %ebx,(%esp)
    2486:	e8 f5 1b 01 00       	call   14080 <async_data_write_start>
    248b:	89 1c 24             	mov    %ebx,(%esp)
    248e:	89 45 c0             	mov    %eax,-0x40(%ebp)
    2491:	e8 6a 10 01 00       	call   13500 <async_exchange_end>
    2496:	8b 4d c0             	mov    -0x40(%ebp),%ecx
    2499:	85 c9                	test   %ecx,%ecx
    249b:	0f 85 df 00 00 00    	jne    2580 <devman_fun_get_handle+0x1f0>
    24a1:	8d 45 c0             	lea    -0x40(%ebp),%eax
    24a4:	89 34 24             	mov    %esi,(%esp)
    24a7:	89 44 24 04          	mov    %eax,0x4(%esp)
    24ab:	e8 50 f8 00 00       	call   11d00 <async_wait_for>
    24b0:	8b 45 c0             	mov    -0x40(%ebp),%eax
    24b3:	85 c0                	test   %eax,%eax
    24b5:	74 79                	je     2530 <devman_fun_get_handle+0x1a0>
    24b7:	8b 55 0c             	mov    0xc(%ebp),%edx
    24ba:	85 d2                	test   %edx,%edx
    24bc:	74 09                	je     24c7 <devman_fun_get_handle+0x137>
    24be:	8b 55 0c             	mov    0xc(%ebp),%edx
    24c1:	c7 02 ff ff ff ff    	movl   $0xffffffff,(%edx)
    24c7:	83 c4 5c             	add    $0x5c,%esp
    24ca:	5b                   	pop    %ebx
    24cb:	5e                   	pop    %esi
    24cc:	5f                   	pop    %edi
    24cd:	5d                   	pop    %ebp
    24ce:	c3                   	ret    
    24cf:	90                   	nop
    24d0:	85 db                	test   %ebx,%ebx
    24d2:	0f 84 07 ff ff ff    	je     23df <devman_fun_get_handle+0x4f>
    24d8:	89 1d 18 30 02 00    	mov    %ebx,0x23018
    24de:	e9 fc fe ff ff       	jmp    23df <devman_fun_get_handle+0x4f>
    24e3:	90                   	nop
    24e4:	8d 74 26 00          	lea    0x0(%esi,%eiz,1),%esi
    24e8:	c7 04 24 f0 25 02 00 	movl   $0x225f0,(%esp)
    24ef:	e8 4c 49 00 00       	call   6e40 <fibril_mutex_lock>
    24f4:	8b 1d 14 30 02 00    	mov    0x23014,%ebx
    24fa:	85 db                	test   %ebx,%ebx
    24fc:	0f 84 a9 00 00 00    	je     25ab <devman_fun_get_handle+0x21b>
    2502:	c7 04 24 f0 25 02 00 	movl   $0x225f0,(%esp)
    2509:	e8 52 4a 00 00       	call   6f60 <fibril_mutex_unlock>
    250e:	a1 14 30 02 00       	mov    0x23014,%eax
    2513:	85 c0                	test   %eax,%eax
    2515:	74 12                	je     2529 <devman_fun_get_handle+0x199>
    2517:	89 04 24             	mov    %eax,(%esp)
    251a:	e8 71 0c 01 00       	call   13190 <async_exchange_begin>
    251f:	89 c3                	mov    %eax,%ebx
    2521:	85 c0                	test   %eax,%eax
    2523:	0f 85 15 ff ff ff    	jne    243e <devman_fun_get_handle+0xae>
    2529:	b8 fe ff ff ff       	mov    $0xfffffffe,%eax
    252e:	eb 97                	jmp    24c7 <devman_fun_get_handle+0x137>
    2530:	8b 45 0c             	mov    0xc(%ebp),%eax
    2533:	85 c0                	test   %eax,%eax
    2535:	74 08                	je     253f <devman_fun_get_handle+0x1af>
    2537:	8b 55 0c             	mov    0xc(%ebp),%edx
    253a:	8b 45 c8             	mov    -0x38(%ebp),%eax
    253d:	89 02                	mov    %eax,(%edx)
    253f:	83 c4 5c             	add    $0x5c,%esp
    2542:	31 c0                	xor    %eax,%eax
    2544:	5b                   	pop    %ebx
    2545:	5e                   	pop    %esi
    2546:	5f                   	pop    %edi
    2547:	5d                   	pop    %ebp
    2548:	c3                   	ret    
    2549:	8d b4 26 00 00 00 00 	lea    0x0(%esi,%eiz,1),%esi
    2550:	c7 44 24 0c 00 00 00 	movl   $0x0,0xc(%esp)
    2557:	00 
    2558:	c7 44 24 08 02 00 00 	movl   $0x2,0x8(%esp)
    255f:	00 
    2560:	c7 44 24 04 64 65 76 	movl   $0x6e766564,0x4(%esp)
    2567:	6e 
    2568:	c7 04 24 02 00 00 00 	movl   $0x2,(%esp)
    256f:	e8 6c df 00 00       	call   104e0 <service_connect_blocking>
    2574:	a3 18 30 02 00       	mov    %eax,0x23018
    2579:	e9 3e fe ff ff       	jmp    23bc <devman_fun_get_handle+0x2c>
    257e:	66 90                	xchg   %ax,%ax
    2580:	89 34 24             	mov    %esi,(%esp)
    2583:	e8 c8 f9 00 00       	call   11f50 <async_forget>
    2588:	8b 45 c0             	mov    -0x40(%ebp),%eax
    258b:	83 c4 5c             	add    $0x5c,%esp
    258e:	5b                   	pop    %ebx
    258f:	5e                   	pop    %esi
    2590:	5f                   	pop    %edi
    2591:	5d                   	pop    %ebp
    2592:	c3                   	ret    
    2593:	90                   	nop
    2594:	8d 74 26 00          	lea    0x0(%esi,%eiz,1),%esi
    2598:	85 db                	test   %ebx,%ebx
    259a:	0f 84 83 fe ff ff    	je     2423 <devman_fun_get_handle+0x93>
    25a0:	89 1d 14 30 02 00    	mov    %ebx,0x23014
    25a6:	e9 78 fe ff ff       	jmp    2423 <devman_fun_get_handle+0x93>
    25ab:	c7 44 24 0c 00 00 00 	movl   $0x0,0xc(%esp)
    25b2:	00 
    25b3:	c7 44 24 08 02 00 00 	movl   $0x2,0x8(%esp)
    25ba:	00 
    25bb:	c7 44 24 04 64 65 76 	movl   $0x6e766564,0x4(%esp)
    25c2:	6e 
    25c3:	c7 04 24 02 00 00 00 	movl   $0x2,(%esp)
    25ca:	e8 91 de 00 00       	call   10460 <service_connect>
    25cf:	a3 14 30 02 00       	mov    %eax,0x23014
    25d4:	e9 29 ff ff ff       	jmp    2502 <devman_fun_get_handle+0x172>
    25d9:	8d b4 26 00 00 00 00 	lea    0x0(%esi,%eiz,1),%esi

000025e0 <devman_fun_get_path>:
    25e0:	55                   	push   %ebp
    25e1:	89 e5                	mov    %esp,%ebp
    25e3:	57                   	push   %edi
    25e4:	56                   	push   %esi
    25e5:	53                   	push   %ebx
    25e6:	83 ec 7c             	sub    $0x7c,%esp
    25e9:	c7 04 24 e0 25 02 00 	movl   $0x225e0,(%esp)
    25f0:	e8 4b 48 00 00       	call   6e40 <fibril_mutex_lock>
    25f5:	a1 18 30 02 00       	mov    0x23018,%eax
    25fa:	85 c0                	test   %eax,%eax
    25fc:	75 39                	jne    2637 <devman_fun_get_path+0x57>
    25fe:	c7 04 24 f0 25 02 00 	movl   $0x225f0,(%esp)
    2605:	8b 1d 14 30 02 00    	mov    0x23014,%ebx
    260b:	e8 30 48 00 00       	call   6e40 <fibril_mutex_lock>
    2610:	8b 15 18 30 02 00    	mov    0x23018,%edx
    2616:	85 d2                	test   %edx,%edx
    2618:	0f 84 0a 01 00 00    	je     2728 <devman_fun_get_path+0x148>
    261e:	c7 04 24 f0 25 02 00 	movl   $0x225f0,(%esp)
    2625:	e8 36 49 00 00       	call   6f60 <fibril_mutex_unlock>
    262a:	a1 18 30 02 00       	mov    0x23018,%eax
    262f:	85 c0                	test   %eax,%eax
    2631:	0f 84 09 01 00 00    	je     2740 <devman_fun_get_path+0x160>
    2637:	c7 04 24 e0 25 02 00 	movl   $0x225e0,(%esp)
    263e:	e8 1d 49 00 00       	call   6f60 <fibril_mutex_unlock>
    2643:	c7 04 24 f0 25 02 00 	movl   $0x225f0,(%esp)
    264a:	8b 1d 18 30 02 00    	mov    0x23018,%ebx
    2650:	e8 eb 47 00 00       	call   6e40 <fibril_mutex_lock>
    2655:	a1 14 30 02 00       	mov    0x23014,%eax
    265a:	85 c0                	test   %eax,%eax
    265c:	0f 84 26 01 00 00    	je     2788 <devman_fun_get_path+0x1a8>
    2662:	c7 04 24 f0 25 02 00 	movl   $0x225f0,(%esp)
    2669:	e8 f2 48 00 00       	call   6f60 <fibril_mutex_unlock>
    266e:	a1 18 30 02 00       	mov    0x23018,%eax
    2673:	89 04 24             	mov    %eax,(%esp)
    2676:	e8 15 0b 01 00       	call   13190 <async_exchange_begin>
    267b:	c7 44 24 14 00 00 00 	movl   $0x0,0x14(%esp)
    2682:	00 
    2683:	89 c6                	mov    %eax,%esi
    2685:	8d 45 c4             	lea    -0x3c(%ebp),%eax
    2688:	89 44 24 18          	mov    %eax,0x18(%esp)
    268c:	8b 45 08             	mov    0x8(%ebp),%eax
    268f:	c7 44 24 10 00 00 00 	movl   $0x0,0x10(%esp)
    2696:	00 
    2697:	c7 44 24 0c 00 00 00 	movl   $0x0,0xc(%esp)
    269e:	00 
    269f:	89 44 24 08          	mov    %eax,0x8(%esp)
    26a3:	c7 44 24 04 07 04 00 	movl   $0x407,0x4(%esp)
    26aa:	00 
    26ab:	89 34 24             	mov    %esi,(%esp)
    26ae:	e8 7d f4 00 00       	call   11b30 <async_send_fast>
    26b3:	8b 5d 10             	mov    0x10(%ebp),%ebx
    26b6:	8b 55 0c             	mov    0xc(%ebp),%edx
    26b9:	4b                   	dec    %ebx
    26ba:	89 c7                	mov    %eax,%edi
    26bc:	8d 45 a0             	lea    -0x60(%ebp),%eax
    26bf:	89 54 24 04          	mov    %edx,0x4(%esp)
    26c3:	89 44 24 0c          	mov    %eax,0xc(%esp)
    26c7:	89 5c 24 08          	mov    %ebx,0x8(%esp)
    26cb:	89 34 24             	mov    %esi,(%esp)
    26ce:	e8 ad 13 01 00       	call   13a80 <async_data_read>
    26d3:	8d 4d 98             	lea    -0x68(%ebp),%ecx
    26d6:	89 04 24             	mov    %eax,(%esp)
    26d9:	89 4c 24 04          	mov    %ecx,0x4(%esp)
    26dd:	e8 1e f6 00 00       	call   11d00 <async_wait_for>
    26e2:	89 34 24             	mov    %esi,(%esp)
    26e5:	e8 16 0e 01 00       	call   13500 <async_exchange_end>
    26ea:	8b 45 98             	mov    -0x68(%ebp),%eax
    26ed:	85 c0                	test   %eax,%eax
    26ef:	75 7f                	jne    2770 <devman_fun_get_path+0x190>
    26f1:	8d 45 9c             	lea    -0x64(%ebp),%eax
    26f4:	89 3c 24             	mov    %edi,(%esp)
    26f7:	89 44 24 04          	mov    %eax,0x4(%esp)
    26fb:	e8 00 f6 00 00       	call   11d00 <async_wait_for>
    2700:	8b 45 9c             	mov    -0x64(%ebp),%eax
    2703:	85 c0                	test   %eax,%eax
    2705:	75 14                	jne    271b <devman_fun_get_path+0x13b>
    2707:	8b 45 a8             	mov    -0x58(%ebp),%eax
    270a:	39 c3                	cmp    %eax,%ebx
    270c:	0f 82 89 00 00 00    	jb     279b <devman_fun_get_path+0x1bb>
    2712:	8b 55 0c             	mov    0xc(%ebp),%edx
    2715:	c6 04 02 00          	movb   $0x0,(%edx,%eax,1)
    2719:	31 c0                	xor    %eax,%eax
    271b:	83 c4 7c             	add    $0x7c,%esp
    271e:	5b                   	pop    %ebx
    271f:	5e                   	pop    %esi
    2720:	5f                   	pop    %edi
    2721:	5d                   	pop    %ebp
    2722:	c3                   	ret    
    2723:	90                   	nop
    2724:	8d 74 26 00          	lea    0x0(%esi,%eiz,1),%esi
    2728:	85 db                	test   %ebx,%ebx
    272a:	0f 84 ee fe ff ff    	je     261e <devman_fun_get_path+0x3e>
    2730:	89 1d 18 30 02 00    	mov    %ebx,0x23018
    2736:	e9 e3 fe ff ff       	jmp    261e <devman_fun_get_path+0x3e>
    273b:	90                   	nop
    273c:	8d 74 26 00          	lea    0x0(%esi,%eiz,1),%esi
    2740:	c7 44 24 0c 00 00 00 	movl   $0x0,0xc(%esp)
    2747:	00 
    2748:	c7 44 24 08 02 00 00 	movl   $0x2,0x8(%esp)
    274f:	00 
    2750:	c7 44 24 04 64 65 76 	movl   $0x6e766564,0x4(%esp)
    2757:	6e 
    2758:	c7 04 24 02 00 00 00 	movl   $0x2,(%esp)
    275f:	e8 7c dd 00 00       	call   104e0 <service_connect_blocking>
    2764:	a3 18 30 02 00       	mov    %eax,0x23018
    2769:	e9 8c fe ff ff       	jmp    25fa <devman_fun_get_path+0x1a>
    276e:	66 90                	xchg   %ax,%ax
    2770:	89 3c 24             	mov    %edi,(%esp)
    2773:	e8 d8 f7 00 00       	call   11f50 <async_forget>
    2778:	8b 45 98             	mov    -0x68(%ebp),%eax
    277b:	83 c4 7c             	add    $0x7c,%esp
    277e:	5b                   	pop    %ebx
    277f:	5e                   	pop    %esi
    2780:	5f                   	pop    %edi
    2781:	5d                   	pop    %ebp
    2782:	c3                   	ret    
    2783:	90                   	nop
    2784:	8d 74 26 00          	lea    0x0(%esi,%eiz,1),%esi
    2788:	85 db                	test   %ebx,%ebx
    278a:	0f 84 d2 fe ff ff    	je     2662 <devman_fun_get_path+0x82>
    2790:	89 1d 14 30 02 00    	mov    %ebx,0x23014
    2796:	e9 c7 fe ff ff       	jmp    2662 <devman_fun_get_path+0x82>
    279b:	c7 44 24 08 b5 01 00 	movl   $0x1b5,0x8(%esp)
    27a2:	00 
    27a3:	c7 44 24 04 7c fa 01 	movl   $0x1fa7c,0x4(%esp)
    27aa:	00 
    27ab:	c7 04 24 8d fa 01 00 	movl   $0x1fa8d,(%esp)
    27b2:	e8 f9 7c 01 00       	call   1a4b0 <assert_abort>
    27b7:	89 f6                	mov    %esi,%esi
    27b9:	8d bc 27 00 00 00 00 	lea    0x0(%edi,%eiz,1),%edi

000027c0 <devman_fun_get_name>:
    27c0:	55                   	push   %ebp
    27c1:	89 e5                	mov    %esp,%ebp
    27c3:	57                   	push   %edi
    27c4:	56                   	push   %esi
    27c5:	53                   	push   %ebx
    27c6:	83 ec 7c             	sub    $0x7c,%esp
    27c9:	c7 04 24 e0 25 02 00 	movl   $0x225e0,(%esp)
    27d0:	e8 6b 46 00 00       	call   6e40 <fibril_mutex_lock>
    27d5:	a1 18 30 02 00       	mov    0x23018,%eax
    27da:	85 c0                	test   %eax,%eax
    27dc:	75 39                	jne    2817 <devman_fun_get_name+0x57>
    27de:	c7 04 24 f0 25 02 00 	movl   $0x225f0,(%esp)
    27e5:	8b 1d 14 30 02 00    	mov    0x23014,%ebx
    27eb:	e8 50 46 00 00       	call   6e40 <fibril_mutex_lock>
    27f0:	a1 18 30 02 00       	mov    0x23018,%eax
    27f5:	85 c0                	test   %eax,%eax
    27f7:	0f 84 0b 01 00 00    	je     2908 <devman_fun_get_name+0x148>
    27fd:	c7 04 24 f0 25 02 00 	movl   $0x225f0,(%esp)
    2804:	e8 57 47 00 00       	call   6f60 <fibril_mutex_unlock>
    2809:	8b 3d 18 30 02 00    	mov    0x23018,%edi
    280f:	85 ff                	test   %edi,%edi
    2811:	0f 84 09 01 00 00    	je     2920 <devman_fun_get_name+0x160>
    2817:	c7 04 24 e0 25 02 00 	movl   $0x225e0,(%esp)
    281e:	e8 3d 47 00 00       	call   6f60 <fibril_mutex_unlock>
    2823:	c7 04 24 f0 25 02 00 	movl   $0x225f0,(%esp)
    282a:	8b 1d 18 30 02 00    	mov    0x23018,%ebx
    2830:	e8 0b 46 00 00       	call   6e40 <fibril_mutex_lock>
    2835:	8b 35 14 30 02 00    	mov    0x23014,%esi
    283b:	85 f6                	test   %esi,%esi
    283d:	0f 84 25 01 00 00    	je     2968 <devman_fun_get_name+0x1a8>
    2843:	c7 04 24 f0 25 02 00 	movl   $0x225f0,(%esp)
    284a:	e8 11 47 00 00       	call   6f60 <fibril_mutex_unlock>
    284f:	a1 18 30 02 00       	mov    0x23018,%eax
    2854:	89 04 24             	mov    %eax,(%esp)
    2857:	e8 34 09 01 00       	call   13190 <async_exchange_begin>
    285c:	c7 44 24 14 00 00 00 	movl   $0x0,0x14(%esp)
    2863:	00 
    2864:	89 c6                	mov    %eax,%esi
    2866:	8d 45 c4             	lea    -0x3c(%ebp),%eax
    2869:	89 44 24 18          	mov    %eax,0x18(%esp)
    286d:	8b 45 08             	mov    0x8(%ebp),%eax
    2870:	c7 44 24 10 00 00 00 	movl   $0x0,0x10(%esp)
    2877:	00 
    2878:	c7 44 24 0c 00 00 00 	movl   $0x0,0xc(%esp)
    287f:	00 
    2880:	89 44 24 08          	mov    %eax,0x8(%esp)
    2884:	c7 44 24 04 03 04 00 	movl   $0x403,0x4(%esp)
    288b:	00 
    288c:	89 34 24             	mov    %esi,(%esp)
    288f:	e8 9c f2 00 00       	call   11b30 <async_send_fast>
    2894:	8b 5d 10             	mov    0x10(%ebp),%ebx
    2897:	8b 55 0c             	mov    0xc(%ebp),%edx
    289a:	4b                   	dec    %ebx
    289b:	89 c7                	mov    %eax,%edi
    289d:	8d 45 a0             	lea    -0x60(%ebp),%eax
    28a0:	89 54 24 04          	mov    %edx,0x4(%esp)
    28a4:	89 44 24 0c          	mov    %eax,0xc(%esp)
    28a8:	89 5c 24 08          	mov    %ebx,0x8(%esp)
    28ac:	89 34 24             	mov    %esi,(%esp)
    28af:	e8 cc 11 01 00       	call   13a80 <async_data_read>
    28b4:	8d 4d 98             	lea    -0x68(%ebp),%ecx
    28b7:	89 4c 24 04          	mov    %ecx,0x4(%esp)
    28bb:	89 04 24             	mov    %eax,(%esp)
    28be:	e8 3d f4 00 00       	call   11d00 <async_wait_for>
    28c3:	89 34 24             	mov    %esi,(%esp)
    28c6:	e8 35 0c 01 00       	call   13500 <async_exchange_end>
    28cb:	8b 4d 98             	mov    -0x68(%ebp),%ecx
    28ce:	85 c9                	test   %ecx,%ecx
    28d0:	75 7e                	jne    2950 <devman_fun_get_name+0x190>
    28d2:	8d 45 9c             	lea    -0x64(%ebp),%eax
    28d5:	89 3c 24             	mov    %edi,(%esp)
    28d8:	89 44 24 04          	mov    %eax,0x4(%esp)
    28dc:	e8 1f f4 00 00       	call   11d00 <async_wait_for>
    28e1:	8b 45 9c             	mov    -0x64(%ebp),%eax
    28e4:	85 c0                	test   %eax,%eax
    28e6:	75 14                	jne    28fc <devman_fun_get_name+0x13c>
    28e8:	8b 45 a8             	mov    -0x58(%ebp),%eax
    28eb:	39 c3                	cmp    %eax,%ebx
    28ed:	0f 82 88 00 00 00    	jb     297b <devman_fun_get_name+0x1bb>
    28f3:	8b 55 0c             	mov    0xc(%ebp),%edx
    28f6:	c6 04 02 00          	movb   $0x0,(%edx,%eax,1)
    28fa:	31 c0                	xor    %eax,%eax
    28fc:	83 c4 7c             	add    $0x7c,%esp
    28ff:	5b                   	pop    %ebx
    2900:	5e                   	pop    %esi
    2901:	5f                   	pop    %edi
    2902:	5d                   	pop    %ebp
    2903:	c3                   	ret    
    2904:	8d 74 26 00          	lea    0x0(%esi,%eiz,1),%esi
    2908:	85 db                	test   %ebx,%ebx
    290a:	0f 84 ed fe ff ff    	je     27fd <devman_fun_get_name+0x3d>
    2910:	89 1d 18 30 02 00    	mov    %ebx,0x23018
    2916:	e9 e2 fe ff ff       	jmp    27fd <devman_fun_get_name+0x3d>
    291b:	90                   	nop
    291c:	8d 74 26 00          	lea    0x0(%esi,%eiz,1),%esi
    2920:	c7 44 24 0c 00 00 00 	movl   $0x0,0xc(%esp)
    2927:	00 
    2928:	c7 44 24 08 02 00 00 	movl   $0x2,0x8(%esp)
    292f:	00 
    2930:	c7 44 24 04 64 65 76 	movl   $0x6e766564,0x4(%esp)
    2937:	6e 
    2938:	c7 04 24 02 00 00 00 	movl   $0x2,(%esp)
    293f:	e8 9c db 00 00       	call   104e0 <service_connect_blocking>
    2944:	a3 18 30 02 00       	mov    %eax,0x23018
    2949:	e9 8c fe ff ff       	jmp    27da <devman_fun_get_name+0x1a>
    294e:	66 90                	xchg   %ax,%ax
    2950:	89 3c 24             	mov    %edi,(%esp)
    2953:	e8 f8 f5 00 00       	call   11f50 <async_forget>
    2958:	8b 45 98             	mov    -0x68(%ebp),%eax
    295b:	83 c4 7c             	add    $0x7c,%esp
    295e:	5b                   	pop    %ebx
    295f:	5e                   	pop    %esi
    2960:	5f                   	pop    %edi
    2961:	5d                   	pop    %ebp
    2962:	c3                   	ret    
    2963:	90                   	nop
    2964:	8d 74 26 00          	lea    0x0(%esi,%eiz,1),%esi
    2968:	85 db                	test   %ebx,%ebx
    296a:	0f 84 d3 fe ff ff    	je     2843 <devman_fun_get_name+0x83>
    2970:	89 1d 14 30 02 00    	mov    %ebx,0x23014
    2976:	e9 c8 fe ff ff       	jmp    2843 <devman_fun_get_name+0x83>
    297b:	c7 44 24 08 b5 01 00 	movl   $0x1b5,0x8(%esp)
    2982:	00 
    2983:	c7 44 24 04 7c fa 01 	movl   $0x1fa7c,0x4(%esp)
    298a:	00 
    298b:	c7 04 24 8d fa 01 00 	movl   $0x1fa8d,(%esp)
    2992:	e8 19 7b 01 00       	call   1a4b0 <assert_abort>
    2997:	89 f6                	mov    %esi,%esi
    2999:	8d bc 27 00 00 00 00 	lea    0x0(%edi,%eiz,1),%edi

000029a0 <devman_fun_get_driver_name>:
    29a0:	55                   	push   %ebp
    29a1:	89 e5                	mov    %esp,%ebp
    29a3:	57                   	push   %edi
    29a4:	56                   	push   %esi
    29a5:	53                   	push   %ebx
    29a6:	83 ec 7c             	sub    $0x7c,%esp
    29a9:	c7 04 24 e0 25 02 00 	movl   $0x225e0,(%esp)
    29b0:	e8 8b 44 00 00       	call   6e40 <fibril_mutex_lock>
    29b5:	a1 18 30 02 00       	mov    0x23018,%eax
    29ba:	85 c0                	test   %eax,%eax
    29bc:	75 38                	jne    29f6 <devman_fun_get_driver_name+0x56>
    29be:	c7 04 24 f0 25 02 00 	movl   $0x225f0,(%esp)
    29c5:	8b 1d 14 30 02 00    	mov    0x23014,%ebx
    29cb:	e8 70 44 00 00       	call   6e40 <fibril_mutex_lock>
    29d0:	a1 18 30 02 00       	mov    0x23018,%eax
    29d5:	85 c0                	test   %eax,%eax
    29d7:	0f 84 0b 01 00 00    	je     2ae8 <devman_fun_get_driver_name+0x148>
    29dd:	c7 04 24 f0 25 02 00 	movl   $0x225f0,(%esp)
    29e4:	e8 77 45 00 00       	call   6f60 <fibril_mutex_unlock>
    29e9:	a1 18 30 02 00       	mov    0x23018,%eax
    29ee:	85 c0                	test   %eax,%eax
    29f0:	0f 84 0a 01 00 00    	je     2b00 <devman_fun_get_driver_name+0x160>
    29f6:	c7 04 24 e0 25 02 00 	movl   $0x225e0,(%esp)
    29fd:	e8 5e 45 00 00       	call   6f60 <fibril_mutex_unlock>
    2a02:	c7 04 24 f0 25 02 00 	movl   $0x225f0,(%esp)
    2a09:	8b 1d 18 30 02 00    	mov    0x23018,%ebx
    2a0f:	e8 2c 44 00 00       	call   6e40 <fibril_mutex_lock>
    2a14:	a1 14 30 02 00       	mov    0x23014,%eax
    2a19:	85 c0                	test   %eax,%eax
    2a1b:	0f 84 27 01 00 00    	je     2b48 <devman_fun_get_driver_name+0x1a8>
    2a21:	c7 04 24 f0 25 02 00 	movl   $0x225f0,(%esp)
    2a28:	e8 33 45 00 00       	call   6f60 <fibril_mutex_unlock>
    2a2d:	a1 18 30 02 00       	mov    0x23018,%eax
    2a32:	89 04 24             	mov    %eax,(%esp)
    2a35:	e8 56 07 01 00       	call   13190 <async_exchange_begin>
    2a3a:	c7 44 24 14 00 00 00 	movl   $0x0,0x14(%esp)
    2a41:	00 
    2a42:	89 c6                	mov    %eax,%esi
    2a44:	8d 45 c4             	lea    -0x3c(%ebp),%eax
    2a47:	89 44 24 18          	mov    %eax,0x18(%esp)
    2a4b:	8b 45 08             	mov    0x8(%ebp),%eax
    2a4e:	c7 44 24 10 00 00 00 	movl   $0x0,0x10(%esp)
    2a55:	00 
    2a56:	c7 44 24 0c 00 00 00 	movl   $0x0,0xc(%esp)
    2a5d:	00 
    2a5e:	89 44 24 08          	mov    %eax,0x8(%esp)
    2a62:	c7 44 24 04 04 04 00 	movl   $0x404,0x4(%esp)
    2a69:	00 
    2a6a:	89 34 24             	mov    %esi,(%esp)
    2a6d:	e8 be f0 00 00       	call   11b30 <async_send_fast>
    2a72:	8b 5d 10             	mov    0x10(%ebp),%ebx
    2a75:	8b 55 0c             	mov    0xc(%ebp),%edx
    2a78:	4b                   	dec    %ebx
    2a79:	89 c7                	mov    %eax,%edi
    2a7b:	8d 45 a0             	lea    -0x60(%ebp),%eax
    2a7e:	89 54 24 04          	mov    %edx,0x4(%esp)
    2a82:	89 44 24 0c          	mov    %eax,0xc(%esp)
    2a86:	89 5c 24 08          	mov    %ebx,0x8(%esp)
    2a8a:	89 34 24             	mov    %esi,(%esp)
    2a8d:	e8 ee 0f 01 00       	call   13a80 <async_data_read>
    2a92:	8d 4d 98             	lea    -0x68(%ebp),%ecx
    2a95:	89 04 24             	mov    %eax,(%esp)
    2a98:	89 4c 24 04          	mov    %ecx,0x4(%esp)
    2a9c:	e8 5f f2 00 00       	call   11d00 <async_wait_for>
    2aa1:	89 34 24             	mov    %esi,(%esp)
    2aa4:	e8 57 0a 01 00       	call   13500 <async_exchange_end>
    2aa9:	8b 45 98             	mov    -0x68(%ebp),%eax
    2aac:	85 c0                	test   %eax,%eax
    2aae:	0f 85 7c 00 00 00    	jne    2b30 <devman_fun_get_driver_name+0x190>
    2ab4:	8d 45 9c             	lea    -0x64(%ebp),%eax
    2ab7:	89 3c 24             	mov    %edi,(%esp)
    2aba:	89 44 24 04          	mov    %eax,0x4(%esp)
    2abe:	e8 3d f2 00 00       	call   11d00 <async_wait_for>
    2ac3:	8b 45 9c             	mov    -0x64(%ebp),%eax
    2ac6:	85 c0                	test   %eax,%eax
    2ac8:	75 14                	jne    2ade <devman_fun_get_driver_name+0x13e>
    2aca:	8b 45 a8             	mov    -0x58(%ebp),%eax
    2acd:	39 c3                	cmp    %eax,%ebx
    2acf:	0f 82 86 00 00 00    	jb     2b5b <devman_fun_get_driver_name+0x1bb>
    2ad5:	8b 55 0c             	mov    0xc(%ebp),%edx
    2ad8:	c6 04 02 00          	movb   $0x0,(%edx,%eax,1)
    2adc:	31 c0                	xor    %eax,%eax
    2ade:	83 c4 7c             	add    $0x7c,%esp
    2ae1:	5b                   	pop    %ebx
    2ae2:	5e                   	pop    %esi
    2ae3:	5f                   	pop    %edi
    2ae4:	5d                   	pop    %ebp
    2ae5:	c3                   	ret    
    2ae6:	66 90                	xchg   %ax,%ax
    2ae8:	85 db                	test   %ebx,%ebx
    2aea:	0f 84 ed fe ff ff    	je     29dd <devman_fun_get_driver_name+0x3d>
    2af0:	89 1d 18 30 02 00    	mov    %ebx,0x23018
    2af6:	e9 e2 fe ff ff       	jmp    29dd <devman_fun_get_driver_name+0x3d>
    2afb:	90                   	nop
    2afc:	8d 74 26 00          	lea    0x0(%esi,%eiz,1),%esi
    2b00:	c7 44 24 0c 00 00 00 	movl   $0x0,0xc(%esp)
    2b07:	00 
    2b08:	c7 44 24 08 02 00 00 	movl   $0x2,0x8(%esp)
    2b0f:	00 
    2b10:	c7 44 24 04 64 65 76 	movl   $0x6e766564,0x4(%esp)
    2b17:	6e 
    2b18:	c7 04 24 02 00 00 00 	movl   $0x2,(%esp)
    2b1f:	e8 bc d9 00 00       	call   104e0 <service_connect_blocking>
    2b24:	a3 18 30 02 00       	mov    %eax,0x23018
    2b29:	e9 8c fe ff ff       	jmp    29ba <devman_fun_get_driver_name+0x1a>
    2b2e:	66 90                	xchg   %ax,%ax
    2b30:	89 3c 24             	mov    %edi,(%esp)
    2b33:	e8 18 f4 00 00       	call   11f50 <async_forget>
    2b38:	8b 45 98             	mov    -0x68(%ebp),%eax
    2b3b:	83 c4 7c             	add    $0x7c,%esp
    2b3e:	5b                   	pop    %ebx
    2b3f:	5e                   	pop    %esi
    2b40:	5f                   	pop    %edi
    2b41:	5d                   	pop    %ebp
    2b42:	c3                   	ret    
    2b43:	90                   	nop
    2b44:	8d 74 26 00          	lea    0x0(%esi,%eiz,1),%esi
    2b48:	85 db                	test   %ebx,%ebx
    2b4a:	0f 84 d1 fe ff ff    	je     2a21 <devman_fun_get_driver_name+0x81>
    2b50:	89 1d 14 30 02 00    	mov    %ebx,0x23014
    2b56:	e9 c6 fe ff ff       	jmp    2a21 <devman_fun_get_driver_name+0x81>
    2b5b:	c7 44 24 08 b5 01 00 	movl   $0x1b5,0x8(%esp)
    2b62:	00 
    2b63:	c7 44 24 04 7c fa 01 	movl   $0x1fa7c,0x4(%esp)
    2b6a:	00 
    2b6b:	c7 04 24 8d fa 01 00 	movl   $0x1fa8d,(%esp)
    2b72:	e8 39 79 01 00       	call   1a4b0 <assert_abort>
    2b77:	89 f6                	mov    %esi,%esi
    2b79:	8d bc 27 00 00 00 00 	lea    0x0(%edi,%eiz,1),%edi

00002b80 <devman_fun_online>:
    2b80:	55                   	push   %ebp
    2b81:	89 e5                	mov    %esp,%ebp
    2b83:	56                   	push   %esi
    2b84:	53                   	push   %ebx
    2b85:	83 ec 30             	sub    $0x30,%esp
    2b88:	c7 04 24 f0 25 02 00 	movl   $0x225f0,(%esp)
    2b8f:	e8 ac 42 00 00       	call   6e40 <fibril_mutex_lock>
    2b94:	a1 14 30 02 00       	mov    0x23014,%eax
    2b99:	85 c0                	test   %eax,%eax
    2b9b:	0f 84 97 00 00 00    	je     2c38 <devman_fun_online+0xb8>
    2ba1:	c7 04 24 f0 25 02 00 	movl   $0x225f0,(%esp)
    2ba8:	e8 b3 43 00 00       	call   6f60 <fibril_mutex_unlock>
    2bad:	a1 14 30 02 00       	mov    0x23014,%eax
    2bb2:	85 c0                	test   %eax,%eax
    2bb4:	0f 84 ae 00 00 00    	je     2c68 <devman_fun_online+0xe8>
    2bba:	89 04 24             	mov    %eax,(%esp)
    2bbd:	e8 ce 05 01 00       	call   13190 <async_exchange_begin>
    2bc2:	89 c3                	mov    %eax,%ebx
    2bc4:	85 c0                	test   %eax,%eax
    2bc6:	0f 84 9c 00 00 00    	je     2c68 <devman_fun_online+0xe8>
    2bcc:	8b 45 08             	mov    0x8(%ebp),%eax
    2bcf:	c7 44 24 28 00 00 00 	movl   $0x0,0x28(%esp)
    2bd6:	00 
    2bd7:	c7 44 24 24 00 00 00 	movl   $0x0,0x24(%esp)
    2bde:	00 
    2bdf:	c7 44 24 20 00 00 00 	movl   $0x0,0x20(%esp)
    2be6:	00 
    2be7:	c7 44 24 1c 00 00 00 	movl   $0x0,0x1c(%esp)
    2bee:	00 
    2bef:	c7 44 24 18 00 00 00 	movl   $0x0,0x18(%esp)
    2bf6:	00 
    2bf7:	c7 44 24 14 00 00 00 	movl   $0x0,0x14(%esp)
    2bfe:	00 
    2bff:	c7 44 24 10 00 00 00 	movl   $0x0,0x10(%esp)
    2c06:	00 
    2c07:	c7 44 24 0c 00 00 00 	movl   $0x0,0xc(%esp)
    2c0e:	00 
    2c0f:	89 44 24 08          	mov    %eax,0x8(%esp)
    2c13:	c7 44 24 04 05 04 00 	movl   $0x405,0x4(%esp)
    2c1a:	00 
    2c1b:	89 1c 24             	mov    %ebx,(%esp)
    2c1e:	e8 1d f5 00 00       	call   12140 <async_req_fast>
    2c23:	89 1c 24             	mov    %ebx,(%esp)
    2c26:	89 c6                	mov    %eax,%esi
    2c28:	e8 d3 08 01 00       	call   13500 <async_exchange_end>
    2c2d:	89 f0                	mov    %esi,%eax
    2c2f:	83 c4 30             	add    $0x30,%esp
    2c32:	5b                   	pop    %ebx
    2c33:	5e                   	pop    %esi
    2c34:	5d                   	pop    %ebp
    2c35:	c3                   	ret    
    2c36:	66 90                	xchg   %ax,%ax
    2c38:	c7 44 24 0c 00 00 00 	movl   $0x0,0xc(%esp)
    2c3f:	00 
    2c40:	c7 44 24 08 02 00 00 	movl   $0x2,0x8(%esp)
    2c47:	00 
    2c48:	c7 44 24 04 64 65 76 	movl   $0x6e766564,0x4(%esp)
    2c4f:	6e 
    2c50:	c7 04 24 02 00 00 00 	movl   $0x2,(%esp)
    2c57:	e8 04 d8 00 00       	call   10460 <service_connect>
    2c5c:	a3 14 30 02 00       	mov    %eax,0x23014
    2c61:	e9 3b ff ff ff       	jmp    2ba1 <devman_fun_online+0x21>
    2c66:	66 90                	xchg   %ax,%ax
    2c68:	b8 fe ff ff ff       	mov    $0xfffffffe,%eax
    2c6d:	eb c0                	jmp    2c2f <devman_fun_online+0xaf>
    2c6f:	90                   	nop

00002c70 <devman_fun_offline>:
    2c70:	55                   	push   %ebp
    2c71:	89 e5                	mov    %esp,%ebp
    2c73:	56                   	push   %esi
    2c74:	53                   	push   %ebx
    2c75:	83 ec 30             	sub    $0x30,%esp
    2c78:	c7 04 24 f0 25 02 00 	movl   $0x225f0,(%esp)
    2c7f:	e8 bc 41 00 00       	call   6e40 <fibril_mutex_lock>
    2c84:	8b 15 14 30 02 00    	mov    0x23014,%edx
    2c8a:	85 d2                	test   %edx,%edx
    2c8c:	0f 84 96 00 00 00    	je     2d28 <devman_fun_offline+0xb8>
    2c92:	c7 04 24 f0 25 02 00 	movl   $0x225f0,(%esp)
    2c99:	e8 c2 42 00 00       	call   6f60 <fibril_mutex_unlock>
    2c9e:	a1 14 30 02 00       	mov    0x23014,%eax
    2ca3:	85 c0                	test   %eax,%eax
    2ca5:	0f 84 ad 00 00 00    	je     2d58 <devman_fun_offline+0xe8>
    2cab:	89 04 24             	mov    %eax,(%esp)
    2cae:	e8 dd 04 01 00       	call   13190 <async_exchange_begin>
    2cb3:	89 c3                	mov    %eax,%ebx
    2cb5:	85 c0                	test   %eax,%eax
    2cb7:	0f 84 9b 00 00 00    	je     2d58 <devman_fun_offline+0xe8>
    2cbd:	8b 45 08             	mov    0x8(%ebp),%eax
    2cc0:	c7 44 24 28 00 00 00 	movl   $0x0,0x28(%esp)
    2cc7:	00 
    2cc8:	c7 44 24 24 00 00 00 	movl   $0x0,0x24(%esp)
    2ccf:	00 
    2cd0:	c7 44 24 20 00 00 00 	movl   $0x0,0x20(%esp)
    2cd7:	00 
    2cd8:	c7 44 24 1c 00 00 00 	movl   $0x0,0x1c(%esp)
    2cdf:	00 
    2ce0:	c7 44 24 18 00 00 00 	movl   $0x0,0x18(%esp)
    2ce7:	00 
    2ce8:	c7 44 24 14 00 00 00 	movl   $0x0,0x14(%esp)
    2cef:	00 
    2cf0:	c7 44 24 10 00 00 00 	movl   $0x0,0x10(%esp)
    2cf7:	00 
    2cf8:	c7 44 24 0c 00 00 00 	movl   $0x0,0xc(%esp)
    2cff:	00 
    2d00:	89 44 24 08          	mov    %eax,0x8(%esp)
    2d04:	c7 44 24 04 06 04 00 	movl   $0x406,0x4(%esp)
    2d0b:	00 
    2d0c:	89 1c 24             	mov    %ebx,(%esp)
    2d0f:	e8 2c f4 00 00       	call   12140 <async_req_fast>
    2d14:	89 1c 24             	mov    %ebx,(%esp)
    2d17:	89 c6                	mov    %eax,%esi
    2d19:	e8 e2 07 01 00       	call   13500 <async_exchange_end>
    2d1e:	89 f0                	mov    %esi,%eax
    2d20:	83 c4 30             	add    $0x30,%esp
    2d23:	5b                   	pop    %ebx
    2d24:	5e                   	pop    %esi
    2d25:	5d                   	pop    %ebp
    2d26:	c3                   	ret    
    2d27:	90                   	nop
    2d28:	c7 44 24 0c 00 00 00 	movl   $0x0,0xc(%esp)
    2d2f:	00 
    2d30:	c7 44 24 08 02 00 00 	movl   $0x2,0x8(%esp)
    2d37:	00 
    2d38:	c7 44 24 04 64 65 76 	movl   $0x6e766564,0x4(%esp)
    2d3f:	6e 
    2d40:	c7 04 24 02 00 00 00 	movl   $0x2,(%esp)
    2d47:	e8 14 d7 00 00       	call   10460 <service_connect>
    2d4c:	a3 14 30 02 00       	mov    %eax,0x23014
    2d51:	e9 3c ff ff ff       	jmp    2c92 <devman_fun_offline+0x22>
    2d56:	66 90                	xchg   %ax,%ax
    2d58:	b8 fe ff ff ff       	mov    $0xfffffffe,%eax
    2d5d:	eb c1                	jmp    2d20 <devman_fun_offline+0xb0>
    2d5f:	90                   	nop

00002d60 <devman_fun_get_child>:
    2d60:	55                   	push   %ebp
    2d61:	89 e5                	mov    %esp,%ebp
    2d63:	56                   	push   %esi
    2d64:	53                   	push   %ebx
    2d65:	83 ec 30             	sub    $0x30,%esp
    2d68:	c7 04 24 f0 25 02 00 	movl   $0x225f0,(%esp)
    2d6f:	e8 cc 40 00 00       	call   6e40 <fibril_mutex_lock>
    2d74:	8b 0d 14 30 02 00    	mov    0x23014,%ecx
    2d7a:	85 c9                	test   %ecx,%ecx
    2d7c:	0f 84 96 00 00 00    	je     2e18 <devman_fun_get_child+0xb8>
    2d82:	c7 04 24 f0 25 02 00 	movl   $0x225f0,(%esp)
    2d89:	e8 d2 41 00 00       	call   6f60 <fibril_mutex_unlock>
    2d8e:	a1 14 30 02 00       	mov    0x23014,%eax
    2d93:	85 c0                	test   %eax,%eax
    2d95:	0f 84 ad 00 00 00    	je     2e48 <devman_fun_get_child+0xe8>
    2d9b:	89 04 24             	mov    %eax,(%esp)
    2d9e:	e8 ed 03 01 00       	call   13190 <async_exchange_begin>
    2da3:	89 c3                	mov    %eax,%ebx
    2da5:	85 c0                	test   %eax,%eax
    2da7:	0f 84 9b 00 00 00    	je     2e48 <devman_fun_get_child+0xe8>
    2dad:	8b 45 0c             	mov    0xc(%ebp),%eax
    2db0:	c7 44 24 28 00 00 00 	movl   $0x0,0x28(%esp)
    2db7:	00 
    2db8:	89 44 24 18          	mov    %eax,0x18(%esp)
    2dbc:	8b 45 08             	mov    0x8(%ebp),%eax
    2dbf:	c7 44 24 24 00 00 00 	movl   $0x0,0x24(%esp)
    2dc6:	00 
    2dc7:	c7 44 24 20 00 00 00 	movl   $0x0,0x20(%esp)
    2dce:	00 
    2dcf:	c7 44 24 1c 00 00 00 	movl   $0x0,0x1c(%esp)
    2dd6:	00 
    2dd7:	c7 44 24 14 00 00 00 	movl   $0x0,0x14(%esp)
    2dde:	00 
    2ddf:	c7 44 24 10 00 00 00 	movl   $0x0,0x10(%esp)
    2de6:	00 
    2de7:	c7 44 24 0c 00 00 00 	movl   $0x0,0xc(%esp)
    2dee:	00 
    2def:	89 44 24 08          	mov    %eax,0x8(%esp)
    2df3:	c7 44 24 04 02 04 00 	movl   $0x402,0x4(%esp)
    2dfa:	00 
    2dfb:	89 1c 24             	mov    %ebx,(%esp)
    2dfe:	e8 3d f3 00 00       	call   12140 <async_req_fast>
    2e03:	89 1c 24             	mov    %ebx,(%esp)
    2e06:	89 c6                	mov    %eax,%esi
    2e08:	e8 f3 06 01 00       	call   13500 <async_exchange_end>
    2e0d:	89 f0                	mov    %esi,%eax
    2e0f:	83 c4 30             	add    $0x30,%esp
    2e12:	5b                   	pop    %ebx
    2e13:	5e                   	pop    %esi
    2e14:	5d                   	pop    %ebp
    2e15:	c3                   	ret    
    2e16:	66 90                	xchg   %ax,%ax
    2e18:	c7 44 24 0c 00 00 00 	movl   $0x0,0xc(%esp)
    2e1f:	00 
    2e20:	c7 44 24 08 02 00 00 	movl   $0x2,0x8(%esp)
    2e27:	00 
    2e28:	c7 44 24 04 64 65 76 	movl   $0x6e766564,0x4(%esp)
    2e2f:	6e 
    2e30:	c7 04 24 02 00 00 00 	movl   $0x2,(%esp)
    2e37:	e8 24 d6 00 00       	call   10460 <service_connect>
    2e3c:	a3 14 30 02 00       	mov    %eax,0x23014
    2e41:	e9 3c ff ff ff       	jmp    2d82 <devman_fun_get_child+0x22>
    2e46:	66 90                	xchg   %ax,%ax
    2e48:	b8 fe ff ff ff       	mov    $0xfffffffe,%eax
    2e4d:	eb c0                	jmp    2e0f <devman_fun_get_child+0xaf>
    2e4f:	90                   	nop

00002e50 <devman_dev_get_functions>:
    2e50:	55                   	push   %ebp
    2e51:	89 e5                	mov    %esp,%ebp
    2e53:	57                   	push   %edi
    2e54:	56                   	push   %esi
    2e55:	53                   	push   %ebx
    2e56:	83 ec 6c             	sub    $0x6c,%esp
    2e59:	8b 55 0c             	mov    0xc(%ebp),%edx
    2e5c:	c7 02 00 00 00 00    	movl   $0x0,(%edx)
    2e62:	c7 04 24 e0 25 02 00 	movl   $0x225e0,(%esp)
    2e69:	e8 d2 3f 00 00       	call   6e40 <fibril_mutex_lock>
    2e6e:	a1 18 30 02 00       	mov    0x23018,%eax
    2e73:	85 c0                	test   %eax,%eax
    2e75:	75 38                	jne    2eaf <devman_dev_get_functions+0x5f>
    2e77:	c7 04 24 f0 25 02 00 	movl   $0x225f0,(%esp)
    2e7e:	8b 1d 14 30 02 00    	mov    0x23014,%ebx
    2e84:	e8 b7 3f 00 00       	call   6e40 <fibril_mutex_lock>
    2e89:	a1 18 30 02 00       	mov    0x23018,%eax
    2e8e:	85 c0                	test   %eax,%eax
    2e90:	0f 84 4a 02 00 00    	je     30e0 <devman_dev_get_functions+0x290>
    2e96:	c7 04 24 f0 25 02 00 	movl   $0x225f0,(%esp)
    2e9d:	e8 be 40 00 00       	call   6f60 <fibril_mutex_unlock>
    2ea2:	a1 18 30 02 00       	mov    0x23018,%eax
    2ea7:	85 c0                	test   %eax,%eax
    2ea9:	0f 84 49 02 00 00    	je     30f8 <devman_dev_get_functions+0x2a8>
    2eaf:	c7 04 24 e0 25 02 00 	movl   $0x225e0,(%esp)
    2eb6:	e8 a5 40 00 00       	call   6f60 <fibril_mutex_unlock>
    2ebb:	c7 04 24 f0 25 02 00 	movl   $0x225f0,(%esp)
    2ec2:	8b 1d 18 30 02 00    	mov    0x23018,%ebx
    2ec8:	e8 73 3f 00 00       	call   6e40 <fibril_mutex_lock>
    2ecd:	a1 14 30 02 00       	mov    0x23014,%eax
    2ed2:	85 c0                	test   %eax,%eax
    2ed4:	0f 84 c5 02 00 00    	je     319f <devman_dev_get_functions+0x34f>
    2eda:	c7 04 24 f0 25 02 00 	movl   $0x225f0,(%esp)
    2ee1:	e8 7a 40 00 00       	call   6f60 <fibril_mutex_unlock>
    2ee6:	a1 18 30 02 00       	mov    0x23018,%eax
    2eeb:	89 04 24             	mov    %eax,(%esp)
    2eee:	e8 9d 02 01 00       	call   13190 <async_exchange_begin>
    2ef3:	8b 55 08             	mov    0x8(%ebp),%edx
    2ef6:	89 c6                	mov    %eax,%esi
    2ef8:	8d 45 c4             	lea    -0x3c(%ebp),%eax
    2efb:	89 54 24 08          	mov    %edx,0x8(%esp)
    2eff:	89 44 24 18          	mov    %eax,0x18(%esp)
    2f03:	c7 44 24 14 00 00 00 	movl   $0x0,0x14(%esp)
    2f0a:	00 
    2f0b:	c7 44 24 10 00 00 00 	movl   $0x0,0x10(%esp)
    2f12:	00 
    2f13:	c7 44 24 0c 00 00 00 	movl   $0x0,0xc(%esp)
    2f1a:	00 
    2f1b:	c7 44 24 04 01 04 00 	movl   $0x401,0x4(%esp)
    2f22:	00 
    2f23:	89 34 24             	mov    %esi,(%esp)
    2f26:	e8 05 ec 00 00       	call   11b30 <async_send_fast>
    2f2b:	c7 44 24 08 00 00 00 	movl   $0x0,0x8(%esp)
    2f32:	00 
    2f33:	c7 44 24 04 00 00 00 	movl   $0x0,0x4(%esp)
    2f3a:	00 
    2f3b:	89 34 24             	mov    %esi,(%esp)
    2f3e:	89 c7                	mov    %eax,%edi
    2f40:	e8 1b 0c 01 00       	call   13b60 <async_data_read_start>
    2f45:	89 34 24             	mov    %esi,(%esp)
    2f48:	89 c3                	mov    %eax,%ebx
    2f4a:	e8 b1 05 01 00       	call   13500 <async_exchange_end>
    2f4f:	85 db                	test   %ebx,%ebx
    2f51:	0f 85 2c 02 00 00    	jne    3183 <devman_dev_get_functions+0x333>
    2f57:	8d 45 c0             	lea    -0x40(%ebp),%eax
    2f5a:	89 3c 24             	mov    %edi,(%esp)
    2f5d:	89 44 24 04          	mov    %eax,0x4(%esp)
    2f61:	e8 9a ed 00 00       	call   11d00 <async_wait_for>
    2f66:	8b 45 c0             	mov    -0x40(%ebp),%eax
    2f69:	85 c0                	test   %eax,%eax
    2f6b:	0f 85 61 01 00 00    	jne    30d2 <devman_dev_get_functions+0x282>
    2f71:	8b 75 c8             	mov    -0x38(%ebp),%esi
    2f74:	e9 f9 00 00 00       	jmp    3072 <devman_dev_get_functions+0x222>
    2f79:	8d b4 26 00 00 00 00 	lea    0x0(%esi,%eiz,1),%esi
    2f80:	c7 04 24 f0 25 02 00 	movl   $0x225f0,(%esp)
    2f87:	e8 d4 3f 00 00       	call   6f60 <fibril_mutex_unlock>
    2f8c:	a1 18 30 02 00       	mov    0x23018,%eax
    2f91:	85 c0                	test   %eax,%eax
    2f93:	0f 84 8f 01 00 00    	je     3128 <devman_dev_get_functions+0x2d8>
    2f99:	c7 04 24 e0 25 02 00 	movl   $0x225e0,(%esp)
    2fa0:	e8 bb 3f 00 00       	call   6f60 <fibril_mutex_unlock>
    2fa5:	c7 04 24 f0 25 02 00 	movl   $0x225f0,(%esp)
    2fac:	8b 1d 18 30 02 00    	mov    0x23018,%ebx
    2fb2:	e8 89 3e 00 00       	call   6e40 <fibril_mutex_lock>
    2fb7:	a1 14 30 02 00       	mov    0x23014,%eax
    2fbc:	85 c0                	test   %eax,%eax
    2fbe:	0f 84 ac 01 00 00    	je     3170 <devman_dev_get_functions+0x320>
    2fc4:	c7 04 24 f0 25 02 00 	movl   $0x225f0,(%esp)
    2fcb:	e8 90 3f 00 00       	call   6f60 <fibril_mutex_unlock>
    2fd0:	a1 18 30 02 00       	mov    0x23018,%eax
    2fd5:	89 04 24             	mov    %eax,(%esp)
    2fd8:	e8 b3 01 01 00       	call   13190 <async_exchange_begin>
    2fdd:	8d 55 c4             	lea    -0x3c(%ebp),%edx
    2fe0:	89 54 24 18          	mov    %edx,0x18(%esp)
    2fe4:	8b 55 08             	mov    0x8(%ebp),%edx
    2fe7:	89 54 24 08          	mov    %edx,0x8(%esp)
    2feb:	c7 44 24 14 00 00 00 	movl   $0x0,0x14(%esp)
    2ff2:	00 
    2ff3:	c7 44 24 10 00 00 00 	movl   $0x0,0x10(%esp)
    2ffa:	00 
    2ffb:	c7 44 24 0c 00 00 00 	movl   $0x0,0xc(%esp)
    3002:	00 
    3003:	c7 44 24 04 01 04 00 	movl   $0x401,0x4(%esp)
    300a:	00 
    300b:	89 04 24             	mov    %eax,(%esp)
    300e:	89 c3                	mov    %eax,%ebx
    3010:	e8 1b eb 00 00       	call   11b30 <async_send_fast>
    3015:	89 74 24 08          	mov    %esi,0x8(%esp)
    3019:	89 7c 24 04          	mov    %edi,0x4(%esp)
    301d:	89 1c 24             	mov    %ebx,(%esp)
    3020:	89 45 b4             	mov    %eax,-0x4c(%ebp)
    3023:	e8 38 0b 01 00       	call   13b60 <async_data_read_start>
    3028:	89 1c 24             	mov    %ebx,(%esp)
    302b:	89 45 b0             	mov    %eax,-0x50(%ebp)
    302e:	e8 cd 04 01 00       	call   13500 <async_exchange_end>
    3033:	8b 45 b0             	mov    -0x50(%ebp),%eax
    3036:	85 c0                	test   %eax,%eax
    3038:	0f 85 1a 01 00 00    	jne    3158 <devman_dev_get_functions+0x308>
    303e:	8d 55 c0             	lea    -0x40(%ebp),%edx
    3041:	89 45 b0             	mov    %eax,-0x50(%ebp)
    3044:	89 54 24 04          	mov    %edx,0x4(%esp)
    3048:	8b 55 b4             	mov    -0x4c(%ebp),%edx
    304b:	89 14 24             	mov    %edx,(%esp)
    304e:	e8 ad ec 00 00       	call   11d00 <async_wait_for>
    3053:	8b 55 c0             	mov    -0x40(%ebp),%edx
    3056:	85 d2                	test   %edx,%edx
    3058:	8b 45 b0             	mov    -0x50(%ebp),%eax
    305b:	75 73                	jne    30d0 <devman_dev_get_functions+0x280>
    305d:	8b 55 c8             	mov    -0x38(%ebp),%edx
    3060:	39 d6                	cmp    %edx,%esi
    3062:	0f 83 4a 01 00 00    	jae    31b2 <devman_dev_get_functions+0x362>
    3068:	89 3c 24             	mov    %edi,(%esp)
    306b:	01 f6                	add    %esi,%esi
    306d:	e8 ee cc 00 00       	call   fd60 <free>
    3072:	89 34 24             	mov    %esi,(%esp)
    3075:	e8 d6 cb 00 00       	call   fc50 <malloc>
    307a:	89 c7                	mov    %eax,%edi
    307c:	85 c0                	test   %eax,%eax
    307e:	0f 84 11 01 00 00    	je     3195 <devman_dev_get_functions+0x345>
    3084:	c7 04 24 e0 25 02 00 	movl   $0x225e0,(%esp)
    308b:	e8 b0 3d 00 00       	call   6e40 <fibril_mutex_lock>
    3090:	a1 18 30 02 00       	mov    0x23018,%eax
    3095:	85 c0                	test   %eax,%eax
    3097:	0f 85 fc fe ff ff    	jne    2f99 <devman_dev_get_functions+0x149>
    309d:	c7 04 24 f0 25 02 00 	movl   $0x225f0,(%esp)
    30a4:	8b 1d 14 30 02 00    	mov    0x23014,%ebx
    30aa:	e8 91 3d 00 00       	call   6e40 <fibril_mutex_lock>
    30af:	a1 18 30 02 00       	mov    0x23018,%eax
    30b4:	85 c0                	test   %eax,%eax
    30b6:	0f 85 c4 fe ff ff    	jne    2f80 <devman_dev_get_functions+0x130>
    30bc:	85 db                	test   %ebx,%ebx
    30be:	0f 84 bc fe ff ff    	je     2f80 <devman_dev_get_functions+0x130>
    30c4:	89 1d 18 30 02 00    	mov    %ebx,0x23018
    30ca:	e9 b1 fe ff ff       	jmp    2f80 <devman_dev_get_functions+0x130>
    30cf:	90                   	nop
    30d0:	89 d0                	mov    %edx,%eax
    30d2:	89 c3                	mov    %eax,%ebx
    30d4:	83 c4 6c             	add    $0x6c,%esp
    30d7:	89 d8                	mov    %ebx,%eax
    30d9:	5b                   	pop    %ebx
    30da:	5e                   	pop    %esi
    30db:	5f                   	pop    %edi
    30dc:	5d                   	pop    %ebp
    30dd:	c3                   	ret    
    30de:	66 90                	xchg   %ax,%ax
    30e0:	85 db                	test   %ebx,%ebx
    30e2:	0f 84 ae fd ff ff    	je     2e96 <devman_dev_get_functions+0x46>
    30e8:	89 1d 18 30 02 00    	mov    %ebx,0x23018
    30ee:	e9 a3 fd ff ff       	jmp    2e96 <devman_dev_get_functions+0x46>
    30f3:	90                   	nop
    30f4:	8d 74 26 00          	lea    0x0(%esi,%eiz,1),%esi
    30f8:	c7 44 24 0c 00 00 00 	movl   $0x0,0xc(%esp)
    30ff:	00 
    3100:	c7 44 24 08 02 00 00 	movl   $0x2,0x8(%esp)
    3107:	00 
    3108:	c7 44 24 04 64 65 76 	movl   $0x6e766564,0x4(%esp)
    310f:	6e 
    3110:	c7 04 24 02 00 00 00 	movl   $0x2,(%esp)
    3117:	e8 c4 d3 00 00       	call   104e0 <service_connect_blocking>
    311c:	a3 18 30 02 00       	mov    %eax,0x23018
    3121:	e9 4d fd ff ff       	jmp    2e73 <devman_dev_get_functions+0x23>
    3126:	66 90                	xchg   %ax,%ax
    3128:	c7 44 24 0c 00 00 00 	movl   $0x0,0xc(%esp)
    312f:	00 
    3130:	c7 44 24 08 02 00 00 	movl   $0x2,0x8(%esp)
    3137:	00 
    3138:	c7 44 24 04 64 65 76 	movl   $0x6e766564,0x4(%esp)
    313f:	6e 
    3140:	c7 04 24 02 00 00 00 	movl   $0x2,(%esp)
    3147:	e8 94 d3 00 00       	call   104e0 <service_connect_blocking>
    314c:	a3 18 30 02 00       	mov    %eax,0x23018
    3151:	e9 3f ff ff ff       	jmp    3095 <devman_dev_get_functions+0x245>
    3156:	66 90                	xchg   %ax,%ax
    3158:	89 c3                	mov    %eax,%ebx
    315a:	8b 45 b4             	mov    -0x4c(%ebp),%eax
    315d:	89 04 24             	mov    %eax,(%esp)
    3160:	e8 eb ed 00 00       	call   11f50 <async_forget>
    3165:	83 c4 6c             	add    $0x6c,%esp
    3168:	89 d8                	mov    %ebx,%eax
    316a:	5b                   	pop    %ebx
    316b:	5e                   	pop    %esi
    316c:	5f                   	pop    %edi
    316d:	5d                   	pop    %ebp
    316e:	c3                   	ret    
    316f:	90                   	nop
    3170:	85 db                	test   %ebx,%ebx
    3172:	0f 84 4c fe ff ff    	je     2fc4 <devman_dev_get_functions+0x174>
    3178:	89 1d 14 30 02 00    	mov    %ebx,0x23014
    317e:	e9 41 fe ff ff       	jmp    2fc4 <devman_dev_get_functions+0x174>
    3183:	89 3c 24             	mov    %edi,(%esp)
    3186:	e8 c5 ed 00 00       	call   11f50 <async_forget>
    318b:	83 c4 6c             	add    $0x6c,%esp
    318e:	89 d8                	mov    %ebx,%eax
    3190:	5b                   	pop    %ebx
    3191:	5e                   	pop    %esi
    3192:	5f                   	pop    %edi
    3193:	5d                   	pop    %ebp
    3194:	c3                   	ret    
    3195:	bb fe ff ff ff       	mov    $0xfffffffe,%ebx
    319a:	e9 35 ff ff ff       	jmp    30d4 <devman_dev_get_functions+0x284>
    319f:	85 db                	test   %ebx,%ebx
    31a1:	0f 84 33 fd ff ff    	je     2eda <devman_dev_get_functions+0x8a>
    31a7:	89 1d 14 30 02 00    	mov    %ebx,0x23014
    31ad:	e9 28 fd ff ff       	jmp    2eda <devman_dev_get_functions+0x8a>
    31b2:	89 c3                	mov    %eax,%ebx
    31b4:	89 d0                	mov    %edx,%eax
    31b6:	c1 e8 02             	shr    $0x2,%eax
    31b9:	8b 55 10             	mov    0x10(%ebp),%edx
    31bc:	89 02                	mov    %eax,(%edx)
    31be:	8b 55 0c             	mov    0xc(%ebp),%edx
    31c1:	89 3a                	mov    %edi,(%edx)
    31c3:	e9 0c ff ff ff       	jmp    30d4 <devman_dev_get_functions+0x284>
    31c8:	90                   	nop
    31c9:	8d b4 26 00 00 00 00 	lea    0x0(%esi,%eiz,1),%esi

000031d0 <devman_fun_sid_to_handle>:
    31d0:	55                   	push   %ebp
    31d1:	89 e5                	mov    %esp,%ebp
    31d3:	56                   	push   %esi
    31d4:	53                   	push   %ebx
    31d5:	83 ec 30             	sub    $0x30,%esp
    31d8:	c7 04 24 f0 25 02 00 	movl   $0x225f0,(%esp)
    31df:	e8 5c 3c 00 00       	call   6e40 <fibril_mutex_lock>
    31e4:	8b 15 14 30 02 00    	mov    0x23014,%edx
    31ea:	85 d2                	test   %edx,%edx
    31ec:	0f 84 96 00 00 00    	je     3288 <devman_fun_sid_to_handle+0xb8>
    31f2:	c7 04 24 f0 25 02 00 	movl   $0x225f0,(%esp)
    31f9:	e8 62 3d 00 00       	call   6f60 <fibril_mutex_unlock>
    31fe:	a1 14 30 02 00       	mov    0x23014,%eax
    3203:	85 c0                	test   %eax,%eax
    3205:	0f 84 ad 00 00 00    	je     32b8 <devman_fun_sid_to_handle+0xe8>
    320b:	89 04 24             	mov    %eax,(%esp)
    320e:	e8 7d ff 00 00       	call   13190 <async_exchange_begin>
    3213:	89 c3                	mov    %eax,%ebx
    3215:	85 c0                	test   %eax,%eax
    3217:	0f 84 9b 00 00 00    	je     32b8 <devman_fun_sid_to_handle+0xe8>
    321d:	8b 45 0c             	mov    0xc(%ebp),%eax
    3220:	c7 44 24 28 00 00 00 	movl   $0x0,0x28(%esp)
    3227:	00 
    3228:	89 44 24 18          	mov    %eax,0x18(%esp)
    322c:	8b 45 08             	mov    0x8(%ebp),%eax
    322f:	c7 44 24 24 00 00 00 	movl   $0x0,0x24(%esp)
    3236:	00 
    3237:	c7 44 24 20 00 00 00 	movl   $0x0,0x20(%esp)
    323e:	00 
    323f:	c7 44 24 1c 00 00 00 	movl   $0x0,0x1c(%esp)
    3246:	00 
    3247:	c7 44 24 14 00 00 00 	movl   $0x0,0x14(%esp)
    324e:	00 
    324f:	c7 44 24 10 00 00 00 	movl   $0x0,0x10(%esp)
    3256:	00 
    3257:	c7 44 24 0c 00 00 00 	movl   $0x0,0xc(%esp)
    325e:	00 
    325f:	89 44 24 08          	mov    %eax,0x8(%esp)
    3263:	c7 44 24 04 08 04 00 	movl   $0x408,0x4(%esp)
    326a:	00 
    326b:	89 1c 24             	mov    %ebx,(%esp)
    326e:	e8 cd ee 00 00       	call   12140 <async_req_fast>
    3273:	89 1c 24             	mov    %ebx,(%esp)
    3276:	89 c6                	mov    %eax,%esi
    3278:	e8 83 02 01 00       	call   13500 <async_exchange_end>
    327d:	89 f0                	mov    %esi,%eax
    327f:	83 c4 30             	add    $0x30,%esp
    3282:	5b                   	pop    %ebx
    3283:	5e                   	pop    %esi
    3284:	5d                   	pop    %ebp
    3285:	c3                   	ret    
    3286:	66 90                	xchg   %ax,%ax
    3288:	c7 44 24 0c 00 00 00 	movl   $0x0,0xc(%esp)
    328f:	00 
    3290:	c7 44 24 08 02 00 00 	movl   $0x2,0x8(%esp)
    3297:	00 
    3298:	c7 44 24 04 64 65 76 	movl   $0x6e766564,0x4(%esp)
    329f:	6e 
    32a0:	c7 04 24 02 00 00 00 	movl   $0x2,(%esp)
    32a7:	e8 b4 d1 00 00       	call   10460 <service_connect>
    32ac:	a3 14 30 02 00       	mov    %eax,0x23014
    32b1:	e9 3c ff ff ff       	jmp    31f2 <devman_fun_sid_to_handle+0x22>
    32b6:	66 90                	xchg   %ax,%ax
    32b8:	b8 fe ff ff ff       	mov    $0xfffffffe,%eax
    32bd:	eb c0                	jmp    327f <devman_fun_sid_to_handle+0xaf>
    32bf:	90                   	nop

000032c0 <_strtoul>:
    32c0:	55                   	push   %ebp
    32c1:	89 e5                	mov    %esp,%ebp
    32c3:	57                   	push   %edi
    32c4:	56                   	push   %esi
    32c5:	53                   	push   %ebx
    32c6:	83 ec 08             	sub    $0x8,%esp
    32c9:	89 45 f0             	mov    %eax,-0x10(%ebp)
    32cc:	8a 00                	mov    (%eax),%al
    32ce:	89 55 ec             	mov    %edx,-0x14(%ebp)
    32d1:	0f be d0             	movsbl %al,%edx
    32d4:	83 ea 09             	sub    $0x9,%edx
    32d7:	8b 5d f0             	mov    -0x10(%ebp),%ebx
    32da:	83 fa 17             	cmp    $0x17,%edx
    32dd:	77 23                	ja     3302 <_strtoul+0x42>
    32df:	8b 3c 95 e0 fb 01 00 	mov    0x1fbe0(,%edx,4),%edi
    32e6:	85 ff                	test   %edi,%edi
    32e8:	0f 84 94 01 00 00    	je     3482 <_strtoul+0x1c2>
    32ee:	66 90                	xchg   %ax,%ax
    32f0:	43                   	inc    %ebx
    32f1:	8a 03                	mov    (%ebx),%al
    32f3:	0f be d0             	movsbl %al,%edx
    32f6:	83 ea 09             	sub    $0x9,%edx
    32f9:	83 fa 17             	cmp    $0x17,%edx
    32fc:	0f 86 a6 00 00 00    	jbe    33a8 <_strtoul+0xe8>
    3302:	3c 2d                	cmp    $0x2d,%al
    3304:	0f 84 1e 01 00 00    	je     3428 <_strtoul+0x168>
    330a:	3c 2b                	cmp    $0x2b,%al
    330c:	0f 94 c0             	sete   %al
    330f:	25 ff 00 00 00       	and    $0xff,%eax
    3314:	01 c3                	add    %eax,%ebx
    3316:	85 c9                	test   %ecx,%ecx
    3318:	0f 84 a2 00 00 00    	je     33c0 <_strtoul+0x100>
    331e:	83 f9 24             	cmp    $0x24,%ecx
    3321:	0f 8f 21 01 00 00    	jg     3448 <_strtoul+0x188>
    3327:	83 f9 01             	cmp    $0x1,%ecx
    332a:	0f 84 18 01 00 00    	je     3448 <_strtoul+0x188>
    3330:	8a 13                	mov    (%ebx),%dl
    3332:	83 f9 10             	cmp    $0x10,%ecx
    3335:	0f 84 16 01 00 00    	je     3451 <_strtoul+0x191>
    333b:	84 d2                	test   %dl,%dl
    333d:	0f 84 2c 01 00 00    	je     346f <_strtoul+0x1af>
    3343:	89 de                	mov    %ebx,%esi
    3345:	31 c0                	xor    %eax,%eax
    3347:	eb 4a                	jmp    3393 <_strtoul+0xd3>
    3349:	8d b4 26 00 00 00 00 	lea    0x0(%esi,%eiz,1),%esi
    3350:	83 ea 57             	sub    $0x57,%edx
    3353:	81 e2 ff 00 00 00    	and    $0xff,%edx
    3359:	39 d1                	cmp    %edx,%ecx
    335b:	0f 8e 94 00 00 00    	jle    33f5 <_strtoul+0x135>
    3361:	0f b6 f8             	movzbl %al,%edi
    3364:	0f af f9             	imul   %ecx,%edi
    3367:	c1 e8 08             	shr    $0x8,%eax
    336a:	01 fa                	add    %edi,%edx
    336c:	0f af c1             	imul   %ecx,%eax
    336f:	89 d7                	mov    %edx,%edi
    3371:	c1 ef 08             	shr    $0x8,%edi
    3374:	01 f8                	add    %edi,%eax
    3376:	3d ff ff ff 00       	cmp    $0xffffff,%eax
    337b:	0f 87 b7 00 00 00    	ja     3438 <_strtoul+0x178>
    3381:	46                   	inc    %esi
    3382:	81 e2 ff 00 00 00    	and    $0xff,%edx
    3388:	c1 e0 08             	shl    $0x8,%eax
    338b:	01 d0                	add    %edx,%eax
    338d:	8a 16                	mov    (%esi),%dl
    338f:	84 d2                	test   %dl,%dl
    3391:	74 62                	je     33f5 <_strtoul+0x135>
    3393:	80 fa 60             	cmp    $0x60,%dl
    3396:	77 b8                	ja     3350 <_strtoul+0x90>
    3398:	80 fa 40             	cmp    $0x40,%dl
    339b:	76 53                	jbe    33f0 <_strtoul+0x130>
    339d:	83 ea 37             	sub    $0x37,%edx
    33a0:	eb b1                	jmp    3353 <_strtoul+0x93>
    33a2:	8d b6 00 00 00 00    	lea    0x0(%esi),%esi
    33a8:	8b 34 95 e0 fb 01 00 	mov    0x1fbe0(,%edx,4),%esi
    33af:	85 f6                	test   %esi,%esi
    33b1:	0f 85 39 ff ff ff    	jne    32f0 <_strtoul+0x30>
    33b7:	e9 46 ff ff ff       	jmp    3302 <_strtoul+0x42>
    33bc:	8d 74 26 00          	lea    0x0(%esi,%eiz,1),%esi
    33c0:	8a 13                	mov    (%ebx),%dl
    33c2:	b9 0a 00 00 00       	mov    $0xa,%ecx
    33c7:	80 fa 30             	cmp    $0x30,%dl
    33ca:	0f 85 6b ff ff ff    	jne    333b <_strtoul+0x7b>
    33d0:	8a 43 01             	mov    0x1(%ebx),%al
    33d3:	83 e0 df             	and    $0xffffffdf,%eax
    33d6:	3c 58                	cmp    $0x58,%al
    33d8:	0f 85 98 00 00 00    	jne    3476 <_strtoul+0x1b6>
    33de:	8a 53 02             	mov    0x2(%ebx),%dl
    33e1:	b1 10                	mov    $0x10,%cl
    33e3:	83 c3 02             	add    $0x2,%ebx
    33e6:	e9 50 ff ff ff       	jmp    333b <_strtoul+0x7b>
    33eb:	90                   	nop
    33ec:	8d 74 26 00          	lea    0x0(%esi,%eiz,1),%esi
    33f0:	80 fa 39             	cmp    $0x39,%dl
    33f3:	76 2b                	jbe    3420 <_strtoul+0x160>
    33f5:	39 f3                	cmp    %esi,%ebx
    33f7:	74 76                	je     346f <_strtoul+0x1af>
    33f9:	8b 5d ec             	mov    -0x14(%ebp),%ebx
    33fc:	85 db                	test   %ebx,%ebx
    33fe:	74 05                	je     3405 <_strtoul+0x145>
    3400:	8b 55 ec             	mov    -0x14(%ebp),%edx
    3403:	89 32                	mov    %esi,(%edx)
    3405:	39 75 f0             	cmp    %esi,-0x10(%ebp)
    3408:	0f 95 c2             	setne  %dl
    340b:	81 e2 ff 00 00 00    	and    $0xff,%edx
    3411:	f7 da                	neg    %edx
    3413:	21 d0                	and    %edx,%eax
    3415:	5a                   	pop    %edx
    3416:	59                   	pop    %ecx
    3417:	5b                   	pop    %ebx
    3418:	5e                   	pop    %esi
    3419:	5f                   	pop    %edi
    341a:	5d                   	pop    %ebp
    341b:	c3                   	ret    
    341c:	8d 74 26 00          	lea    0x0(%esi,%eiz,1),%esi
    3420:	83 ea 30             	sub    $0x30,%edx
    3423:	e9 2b ff ff ff       	jmp    3353 <_strtoul+0x93>
    3428:	8b 45 08             	mov    0x8(%ebp),%eax
    342b:	43                   	inc    %ebx
    342c:	c6 00 01             	movb   $0x1,(%eax)
    342f:	e9 e2 fe ff ff       	jmp    3316 <_strtoul+0x56>
    3434:	8d 74 26 00          	lea    0x0(%esi,%eiz,1),%esi
    3438:	5a                   	pop    %edx
    3439:	83 c8 ff             	or     $0xffffffff,%eax
    343c:	59                   	pop    %ecx
    343d:	5b                   	pop    %ebx
    343e:	5e                   	pop    %esi
    343f:	5f                   	pop    %edi
    3440:	5d                   	pop    %ebp
    3441:	c3                   	ret    
    3442:	8d b6 00 00 00 00    	lea    0x0(%esi),%esi
    3448:	5a                   	pop    %edx
    3449:	31 c0                	xor    %eax,%eax
    344b:	59                   	pop    %ecx
    344c:	5b                   	pop    %ebx
    344d:	5e                   	pop    %esi
    344e:	5f                   	pop    %edi
    344f:	5d                   	pop    %ebp
    3450:	c3                   	ret    
    3451:	80 fa 30             	cmp    $0x30,%dl
    3454:	0f 85 e1 fe ff ff    	jne    333b <_strtoul+0x7b>
    345a:	8a 43 01             	mov    0x1(%ebx),%al
    345d:	83 e0 df             	and    $0xffffffdf,%eax
    3460:	3c 58                	cmp    $0x58,%al
    3462:	75 17                	jne    347b <_strtoul+0x1bb>
    3464:	8a 53 02             	mov    0x2(%ebx),%dl
    3467:	83 c3 02             	add    $0x2,%ebx
    346a:	e9 cc fe ff ff       	jmp    333b <_strtoul+0x7b>
    346f:	8b 75 f0             	mov    -0x10(%ebp),%esi
    3472:	31 c0                	xor    %eax,%eax
    3474:	eb 83                	jmp    33f9 <_strtoul+0x139>
    3476:	b9 08 00 00 00       	mov    $0x8,%ecx
    347b:	b2 30                	mov    $0x30,%dl
    347d:	e9 c1 fe ff ff       	jmp    3343 <_strtoul+0x83>
    3482:	8b 5d f0             	mov    -0x10(%ebp),%ebx
    3485:	e9 78 fe ff ff       	jmp    3302 <_strtoul+0x42>
    348a:	8d b6 00 00 00 00    	lea    0x0(%esi),%esi

00003490 <str_uint>:
    3490:	55                   	push   %ebp
    3491:	89 e5                	mov    %esp,%ebp
    3493:	57                   	push   %edi
    3494:	56                   	push   %esi
    3495:	53                   	push   %ebx
    3496:	83 ec 3c             	sub    $0x3c,%esp
    3499:	89 45 dc             	mov    %eax,-0x24(%ebp)
    349c:	89 55 d8             	mov    %edx,-0x28(%ebp)
    349f:	8b 75 08             	mov    0x8(%ebp),%esi
    34a2:	85 d2                	test   %edx,%edx
    34a4:	0f 84 5f 02 00 00    	je     3709 <str_uint+0x279>
    34aa:	85 f6                	test   %esi,%esi
    34ac:	0f 84 3b 02 00 00    	je     36ed <str_uint+0x25d>
    34b2:	8b 45 0c             	mov    0xc(%ebp),%eax
    34b5:	85 c0                	test   %eax,%eax
    34b7:	0f 84 14 02 00 00    	je     36d1 <str_uint+0x241>
    34bd:	8b 45 dc             	mov    -0x24(%ebp),%eax
    34c0:	c6 06 00             	movb   $0x0,(%esi)
    34c3:	8b 5d dc             	mov    -0x24(%ebp),%ebx
    34c6:	8a 10                	mov    (%eax),%dl
    34c8:	0f be c2             	movsbl %dl,%eax
    34cb:	83 e8 09             	sub    $0x9,%eax
    34ce:	83 f8 17             	cmp    $0x17,%eax
    34d1:	77 27                	ja     34fa <str_uint+0x6a>
    34d3:	8b 04 85 e0 fb 01 00 	mov    0x1fbe0(,%eax,4),%eax
    34da:	85 c0                	test   %eax,%eax
    34dc:	0f 84 e7 01 00 00    	je     36c9 <str_uint+0x239>
    34e2:	8d b6 00 00 00 00    	lea    0x0(%esi),%esi
    34e8:	43                   	inc    %ebx
    34e9:	8a 13                	mov    (%ebx),%dl
    34eb:	0f be c2             	movsbl %dl,%eax
    34ee:	83 e8 09             	sub    $0x9,%eax
    34f1:	83 f8 17             	cmp    $0x17,%eax
    34f4:	0f 86 06 01 00 00    	jbe    3600 <str_uint+0x170>
    34fa:	80 fa 2d             	cmp    $0x2d,%dl
    34fd:	0f 84 4d 01 00 00    	je     3650 <str_uint+0x1c0>
    3503:	80 fa 2b             	cmp    $0x2b,%dl
    3506:	0f 94 c0             	sete   %al
    3509:	25 ff 00 00 00       	and    $0xff,%eax
    350e:	01 c3                	add    %eax,%ebx
    3510:	85 c9                	test   %ecx,%ecx
    3512:	0f 85 18 01 00 00    	jne    3630 <str_uint+0x1a0>
    3518:	b1 0a                	mov    $0xa,%cl
    351a:	80 3b 30             	cmpb   $0x30,(%ebx)
    351d:	0f 84 3d 01 00 00    	je     3660 <str_uint+0x1d0>
    3523:	8b 45 0c             	mov    0xc(%ebp),%eax
    3526:	c7 00 00 00 00 00    	movl   $0x0,(%eax)
    352c:	c7 40 04 00 00 00 00 	movl   $0x0,0x4(%eax)
    3533:	8a 03                	mov    (%ebx),%al
    3535:	84 c0                	test   %al,%al
    3537:	0f 84 37 01 00 00    	je     3674 <str_uint+0x1e4>
    353d:	8d 50 9f             	lea    -0x61(%eax),%edx
    3540:	c7 45 e0 00 00 00 00 	movl   $0x0,-0x20(%ebp)
    3547:	c7 45 e4 00 00 00 00 	movl   $0x0,-0x1c(%ebp)
    354e:	89 5d d4             	mov    %ebx,-0x2c(%ebp)
    3551:	80 fa 19             	cmp    $0x19,%dl
    3554:	77 64                	ja     35ba <str_uint+0x12a>
    3556:	66 90                	xchg   %ax,%ax
    3558:	0f be f0             	movsbl %al,%esi
    355b:	83 ee 57             	sub    $0x57,%esi
    355e:	39 f1                	cmp    %esi,%ecx
    3560:	76 6e                	jbe    35d0 <str_uint+0x140>
    3562:	8b 45 e0             	mov    -0x20(%ebp),%eax
    3565:	8b 7d e4             	mov    -0x1c(%ebp),%edi
    3568:	f7 e1                	mul    %ecx
    356a:	0f af f9             	imul   %ecx,%edi
    356d:	89 45 c8             	mov    %eax,-0x38(%ebp)
    3570:	01 fa                	add    %edi,%edx
    3572:	31 ff                	xor    %edi,%edi
    3574:	03 75 c8             	add    -0x38(%ebp),%esi
    3577:	89 55 cc             	mov    %edx,-0x34(%ebp)
    357a:	8b 55 0c             	mov    0xc(%ebp),%edx
    357d:	13 7d cc             	adc    -0x34(%ebp),%edi
    3580:	89 32                	mov    %esi,(%edx)
    3582:	89 7a 04             	mov    %edi,0x4(%edx)
    3585:	3b 7d e4             	cmp    -0x1c(%ebp),%edi
    3588:	77 1b                	ja     35a5 <str_uint+0x115>
    358a:	73 14                	jae    35a0 <str_uint+0x110>
    358c:	8b 45 d8             	mov    -0x28(%ebp),%eax
    358f:	89 18                	mov    %ebx,(%eax)
    3591:	b8 f0 ff ff ff       	mov    $0xfffffff0,%eax
    3596:	83 c4 3c             	add    $0x3c,%esp
    3599:	5b                   	pop    %ebx
    359a:	5e                   	pop    %esi
    359b:	5f                   	pop    %edi
    359c:	5d                   	pop    %ebp
    359d:	c3                   	ret    
    359e:	66 90                	xchg   %ax,%ax
    35a0:	3b 75 e0             	cmp    -0x20(%ebp),%esi
    35a3:	72 e7                	jb     358c <str_uint+0xfc>
    35a5:	43                   	inc    %ebx
    35a6:	8a 03                	mov    (%ebx),%al
    35a8:	84 c0                	test   %al,%al
    35aa:	74 24                	je     35d0 <str_uint+0x140>
    35ac:	8d 50 9f             	lea    -0x61(%eax),%edx
    35af:	89 75 e0             	mov    %esi,-0x20(%ebp)
    35b2:	89 7d e4             	mov    %edi,-0x1c(%ebp)
    35b5:	80 fa 19             	cmp    $0x19,%dl
    35b8:	76 9e                	jbe    3558 <str_uint+0xc8>
    35ba:	8d 50 bf             	lea    -0x41(%eax),%edx
    35bd:	80 fa 19             	cmp    $0x19,%dl
    35c0:	77 56                	ja     3618 <str_uint+0x188>
    35c2:	0f be f0             	movsbl %al,%esi
    35c5:	83 ee 37             	sub    $0x37,%esi
    35c8:	39 f1                	cmp    %esi,%ecx
    35ca:	77 96                	ja     3562 <str_uint+0xd2>
    35cc:	8d 74 26 00          	lea    0x0(%esi,%eiz,1),%esi
    35d0:	89 da                	mov    %ebx,%edx
    35d2:	8b 5d d4             	mov    -0x2c(%ebp),%ebx
    35d5:	39 d3                	cmp    %edx,%ebx
    35d7:	0f 84 97 00 00 00    	je     3674 <str_uint+0x1e4>
    35dd:	8b 45 d8             	mov    -0x28(%ebp),%eax
    35e0:	39 55 dc             	cmp    %edx,-0x24(%ebp)
    35e3:	89 10                	mov    %edx,(%eax)
    35e5:	0f 95 c0             	setne  %al
    35e8:	25 ff 00 00 00       	and    $0xff,%eax
    35ed:	83 c4 3c             	add    $0x3c,%esp
    35f0:	48                   	dec    %eax
    35f1:	5b                   	pop    %ebx
    35f2:	83 e0 f2             	and    $0xfffffff2,%eax
    35f5:	5e                   	pop    %esi
    35f6:	5f                   	pop    %edi
    35f7:	5d                   	pop    %ebp
    35f8:	c3                   	ret    
    35f9:	8d b4 26 00 00 00 00 	lea    0x0(%esi,%eiz,1),%esi
    3600:	8b 3c 85 e0 fb 01 00 	mov    0x1fbe0(,%eax,4),%edi
    3607:	85 ff                	test   %edi,%edi
    3609:	0f 85 d9 fe ff ff    	jne    34e8 <str_uint+0x58>
    360f:	e9 e6 fe ff ff       	jmp    34fa <str_uint+0x6a>
    3614:	8d 74 26 00          	lea    0x0(%esi,%eiz,1),%esi
    3618:	8d 50 d0             	lea    -0x30(%eax),%edx
    361b:	80 fa 09             	cmp    $0x9,%dl
    361e:	77 b0                	ja     35d0 <str_uint+0x140>
    3620:	0f be f0             	movsbl %al,%esi
    3623:	83 ee 30             	sub    $0x30,%esi
    3626:	e9 33 ff ff ff       	jmp    355e <str_uint+0xce>
    362b:	90                   	nop
    362c:	8d 74 26 00          	lea    0x0(%esi,%eiz,1),%esi
    3630:	8d 41 fe             	lea    -0x2(%ecx),%eax
    3633:	83 f8 22             	cmp    $0x22,%eax
    3636:	0f 86 e7 fe ff ff    	jbe    3523 <str_uint+0x93>
    363c:	8b 55 d8             	mov    -0x28(%ebp),%edx
    363f:	b8 f2 ff ff ff       	mov    $0xfffffff2,%eax
    3644:	89 1a                	mov    %ebx,(%edx)
    3646:	e9 4b ff ff ff       	jmp    3596 <str_uint+0x106>
    364b:	90                   	nop
    364c:	8d 74 26 00          	lea    0x0(%esi,%eiz,1),%esi
    3650:	c6 06 01             	movb   $0x1,(%esi)
    3653:	43                   	inc    %ebx
    3654:	e9 b7 fe ff ff       	jmp    3510 <str_uint+0x80>
    3659:	8d b4 26 00 00 00 00 	lea    0x0(%esi,%eiz,1),%esi
    3660:	8a 43 01             	mov    0x1(%ebx),%al
    3663:	83 e8 42             	sub    $0x42,%eax
    3666:	3c 36                	cmp    $0x36,%al
    3668:	76 1f                	jbe    3689 <str_uint+0x1f9>
    366a:	b9 08 00 00 00       	mov    $0x8,%ecx
    366f:	e9 af fe ff ff       	jmp    3523 <str_uint+0x93>
    3674:	8b 55 d8             	mov    -0x28(%ebp),%edx
    3677:	8b 45 dc             	mov    -0x24(%ebp),%eax
    367a:	89 02                	mov    %eax,(%edx)
    367c:	83 c4 3c             	add    $0x3c,%esp
    367f:	b8 f2 ff ff ff       	mov    $0xfffffff2,%eax
    3684:	5b                   	pop    %ebx
    3685:	5e                   	pop    %esi
    3686:	5f                   	pop    %edi
    3687:	5d                   	pop    %ebp
    3688:	c3                   	ret    
    3689:	25 ff 00 00 00       	and    $0xff,%eax
    368e:	ff 24 85 00 fb 01 00 	jmp    *0x1fb00(,%eax,4)
    3695:	83 c3 02             	add    $0x2,%ebx
    3698:	b9 10 00 00 00       	mov    $0x10,%ecx
    369d:	e9 81 fe ff ff       	jmp    3523 <str_uint+0x93>
    36a2:	83 c3 02             	add    $0x2,%ebx
    36a5:	b9 08 00 00 00       	mov    $0x8,%ecx
    36aa:	e9 74 fe ff ff       	jmp    3523 <str_uint+0x93>
    36af:	83 c3 02             	add    $0x2,%ebx
    36b2:	b9 0a 00 00 00       	mov    $0xa,%ecx
    36b7:	e9 67 fe ff ff       	jmp    3523 <str_uint+0x93>
    36bc:	83 c3 02             	add    $0x2,%ebx
    36bf:	b9 02 00 00 00       	mov    $0x2,%ecx
    36c4:	e9 5a fe ff ff       	jmp    3523 <str_uint+0x93>
    36c9:	8b 5d dc             	mov    -0x24(%ebp),%ebx
    36cc:	e9 29 fe ff ff       	jmp    34fa <str_uint+0x6a>
    36d1:	c7 44 24 08 82 05 00 	movl   $0x582,0x8(%esp)
    36d8:	00 
    36d9:	c7 44 24 04 a6 fa 01 	movl   $0x1faa6,0x4(%esp)
    36e0:	00 
    36e1:	c7 04 24 cf fa 01 00 	movl   $0x1facf,(%esp)
    36e8:	e8 c3 6d 01 00       	call   1a4b0 <assert_abort>
    36ed:	c7 44 24 08 81 05 00 	movl   $0x581,0x8(%esp)
    36f4:	00 
    36f5:	c7 44 24 04 a6 fa 01 	movl   $0x1faa6,0x4(%esp)
    36fc:	00 
    36fd:	c7 04 24 c3 fa 01 00 	movl   $0x1fac3,(%esp)
    3704:	e8 a7 6d 01 00       	call   1a4b0 <assert_abort>
    3709:	c7 44 24 08 80 05 00 	movl   $0x580,0x8(%esp)
    3710:	00 
    3711:	c7 44 24 04 a6 fa 01 	movl   $0x1faa6,0x4(%esp)
    3718:	00 
    3719:	c7 04 24 b4 fa 01 00 	movl   $0x1fab4,(%esp)
    3720:	e8 8b 6d 01 00       	call   1a4b0 <assert_abort>
    3725:	8d 74 26 00          	lea    0x0(%esi,%eiz,1),%esi
    3729:	8d bc 27 00 00 00 00 	lea    0x0(%edi,%eiz,1),%edi

00003730 <str_decode>:
    3730:	55                   	push   %ebp
    3731:	89 e5                	mov    %esp,%ebp
    3733:	57                   	push   %edi
    3734:	56                   	push   %esi
    3735:	53                   	push   %ebx
    3736:	83 ec 0c             	sub    $0xc,%esp
    3739:	8b 45 0c             	mov    0xc(%ebp),%eax
    373c:	8b 7d 08             	mov    0x8(%ebp),%edi
    373f:	8b 10                	mov    (%eax),%edx
    3741:	31 c0                	xor    %eax,%eax
    3743:	8d 4a 01             	lea    0x1(%edx),%ecx
    3746:	3b 4d 10             	cmp    0x10(%ebp),%ecx
    3749:	77 0d                	ja     3758 <str_decode+0x28>
    374b:	0f be 04 17          	movsbl (%edi,%edx,1),%eax
    374f:	8b 5d 0c             	mov    0xc(%ebp),%ebx
    3752:	84 c0                	test   %al,%al
    3754:	89 0b                	mov    %ecx,(%ebx)
    3756:	78 08                	js     3760 <str_decode+0x30>
    3758:	83 c4 0c             	add    $0xc,%esp
    375b:	5b                   	pop    %ebx
    375c:	5e                   	pop    %esi
    375d:	5f                   	pop    %edi
    375e:	5d                   	pop    %ebp
    375f:	c3                   	ret    
    3760:	be e0 ff ff ff       	mov    $0xffffffe0,%esi
    3765:	21 c6                	and    %eax,%esi
    3767:	89 f3                	mov    %esi,%ebx
    3769:	80 fb c0             	cmp    $0xc0,%bl
    376c:	74 32                	je     37a0 <str_decode+0x70>
    376e:	be f0 ff ff ff       	mov    $0xfffffff0,%esi
    3773:	21 c6                	and    %eax,%esi
    3775:	89 f3                	mov    %esi,%ebx
    3777:	80 fb e0             	cmp    $0xe0,%bl
    377a:	0f 84 90 00 00 00    	je     3810 <str_decode+0xe0>
    3780:	be f8 ff ff ff       	mov    $0xfffffff8,%esi
    3785:	21 c6                	and    %eax,%esi
    3787:	89 f3                	mov    %esi,%ebx
    3789:	80 fb f0             	cmp    $0xf0,%bl
    378c:	0f 84 87 00 00 00    	je     3819 <str_decode+0xe9>
    3792:	83 c4 0c             	add    $0xc,%esp
    3795:	b8 3f 00 00 00       	mov    $0x3f,%eax
    379a:	5b                   	pop    %ebx
    379b:	5e                   	pop    %esi
    379c:	5f                   	pop    %edi
    379d:	5d                   	pop    %ebp
    379e:	c3                   	ret    
    379f:	90                   	nop
    37a0:	b3 1f                	mov    $0x1f,%bl
    37a2:	be 01 00 00 00       	mov    $0x1,%esi
    37a7:	01 f1                	add    %esi,%ecx
    37a9:	89 4d f0             	mov    %ecx,-0x10(%ebp)
    37ac:	39 4d 10             	cmp    %ecx,0x10(%ebp)
    37af:	72 e1                	jb     3792 <str_decode+0x62>
    37b1:	21 d8                	and    %ebx,%eax
    37b3:	8a 4c 17 01          	mov    0x1(%edi,%edx,1),%cl
    37b7:	8b 5d 0c             	mov    0xc(%ebp),%ebx
    37ba:	be c0 ff ff ff       	mov    $0xffffffc0,%esi
    37bf:	83 c2 02             	add    $0x2,%edx
    37c2:	21 ce                	and    %ecx,%esi
    37c4:	89 13                	mov    %edx,(%ebx)
    37c6:	89 f3                	mov    %esi,%ebx
    37c8:	25 ff 00 00 00       	and    $0xff,%eax
    37cd:	80 fb 80             	cmp    $0x80,%bl
    37d0:	75 c0                	jne    3792 <str_decode+0x62>
    37d2:	8b 5d 0c             	mov    0xc(%ebp),%ebx
    37d5:	89 5d e8             	mov    %ebx,-0x18(%ebp)
    37d8:	eb 1d                	jmp    37f7 <str_decode+0xc7>
    37da:	8d b6 00 00 00 00    	lea    0x0(%esi),%esi
    37e0:	8a 0c 17             	mov    (%edi,%edx,1),%cl
    37e3:	8b 5d e8             	mov    -0x18(%ebp),%ebx
    37e6:	be c0 ff ff ff       	mov    $0xffffffc0,%esi
    37eb:	42                   	inc    %edx
    37ec:	21 ce                	and    %ecx,%esi
    37ee:	89 13                	mov    %edx,(%ebx)
    37f0:	89 f3                	mov    %esi,%ebx
    37f2:	80 fb 80             	cmp    $0x80,%bl
    37f5:	75 9b                	jne    3792 <str_decode+0x62>
    37f7:	89 c6                	mov    %eax,%esi
    37f9:	89 c8                	mov    %ecx,%eax
    37fb:	c1 e6 06             	shl    $0x6,%esi
    37fe:	83 e0 3f             	and    $0x3f,%eax
    3801:	09 f0                	or     %esi,%eax
    3803:	39 55 f0             	cmp    %edx,-0x10(%ebp)
    3806:	75 d8                	jne    37e0 <str_decode+0xb0>
    3808:	e9 4b ff ff ff       	jmp    3758 <str_decode+0x28>
    380d:	8d 76 00             	lea    0x0(%esi),%esi
    3810:	b3 0f                	mov    $0xf,%bl
    3812:	be 02 00 00 00       	mov    $0x2,%esi
    3817:	eb 8e                	jmp    37a7 <str_decode+0x77>
    3819:	b3 07                	mov    $0x7,%bl
    381b:	be 03 00 00 00       	mov    $0x3,%esi
    3820:	eb 85                	jmp    37a7 <str_decode+0x77>
    3822:	8d b4 26 00 00 00 00 	lea    0x0(%esi,%eiz,1),%esi
    3829:	8d bc 27 00 00 00 00 	lea    0x0(%edi,%eiz,1),%edi

00003830 <str_decode_reverse>:
    3830:	55                   	push   %ebp
    3831:	89 e5                	mov    %esp,%ebp
    3833:	57                   	push   %edi
    3834:	56                   	push   %esi
    3835:	53                   	push   %ebx
    3836:	50                   	push   %eax
    3837:	31 c0                	xor    %eax,%eax
    3839:	8b 7d 0c             	mov    0xc(%ebp),%edi
    383c:	8b 1f                	mov    (%edi),%ebx
    383e:	85 db                	test   %ebx,%ebx
    3840:	0f 84 24 01 00 00    	je     396a <str_decode_reverse+0x13a>
    3846:	8d 73 ff             	lea    -0x1(%ebx),%esi
    3849:	8b 55 08             	mov    0x8(%ebp),%edx
    384c:	89 37                	mov    %esi,(%edi)
    384e:	8a 14 32             	mov    (%edx,%esi,1),%dl
    3851:	88 55 f1             	mov    %dl,-0xf(%ebp)
    3854:	84 d2                	test   %dl,%dl
    3856:	0f 89 c4 01 00 00    	jns    3a20 <str_decode_reverse+0x1f0>
    385c:	88 d1                	mov    %dl,%cl
    385e:	83 e1 e0             	and    $0xffffffe0,%ecx
    3861:	88 4d f2             	mov    %cl,-0xe(%ebp)
    3864:	80 f9 c0             	cmp    $0xc0,%cl
    3867:	0f 84 d8 01 00 00    	je     3a45 <str_decode_reverse+0x215>
    386d:	88 d1                	mov    %dl,%cl
    386f:	83 e1 f0             	and    $0xfffffff0,%ecx
    3872:	80 f9 e0             	cmp    $0xe0,%cl
    3875:	0f 84 f1 01 00 00    	je     3a6c <str_decode_reverse+0x23c>
    387b:	88 d0                	mov    %dl,%al
    387d:	83 e0 f8             	and    $0xfffffff8,%eax
    3880:	3c f0                	cmp    $0xf0,%al
    3882:	0f 84 ee 00 00 00    	je     3976 <str_decode_reverse+0x146>
    3888:	88 d1                	mov    %dl,%cl
    388a:	83 e1 c0             	and    $0xffffffc0,%ecx
    388d:	80 f9 80             	cmp    $0x80,%cl
    3890:	0f 85 cf 00 00 00    	jne    3965 <str_decode_reverse+0x135>
    3896:	85 f6                	test   %esi,%esi
    3898:	0f 84 c7 00 00 00    	je     3965 <str_decode_reverse+0x135>
    389e:	8d 43 fe             	lea    -0x2(%ebx),%eax
    38a1:	8b 4d 08             	mov    0x8(%ebp),%ecx
    38a4:	89 07                	mov    %eax,(%edi)
    38a6:	8a 14 01             	mov    (%ecx,%eax,1),%dl
    38a9:	88 d1                	mov    %dl,%cl
    38ab:	88 55 f1             	mov    %dl,-0xf(%ebp)
    38ae:	83 e1 e0             	and    $0xffffffe0,%ecx
    38b1:	88 4d f2             	mov    %cl,-0xe(%ebp)
    38b4:	80 f9 c0             	cmp    $0xc0,%cl
    38b7:	0f 84 b3 00 00 00    	je     3970 <str_decode_reverse+0x140>
    38bd:	88 d1                	mov    %dl,%cl
    38bf:	83 e1 f0             	and    $0xfffffff0,%ecx
    38c2:	80 f9 e0             	cmp    $0xe0,%cl
    38c5:	0f 84 65 01 00 00    	je     3a30 <str_decode_reverse+0x200>
    38cb:	88 d1                	mov    %dl,%cl
    38cd:	83 e1 f8             	and    $0xfffffff8,%ecx
    38d0:	80 f9 f0             	cmp    $0xf0,%cl
    38d3:	0f 84 57 01 00 00    	je     3a30 <str_decode_reverse+0x200>
    38d9:	83 e2 c0             	and    $0xffffffc0,%edx
    38dc:	80 fa 80             	cmp    $0x80,%dl
    38df:	0f 85 80 00 00 00    	jne    3965 <str_decode_reverse+0x135>
    38e5:	85 c0                	test   %eax,%eax
    38e7:	74 7c                	je     3965 <str_decode_reverse+0x135>
    38e9:	8d 73 fd             	lea    -0x3(%ebx),%esi
    38ec:	8b 4d 08             	mov    0x8(%ebp),%ecx
    38ef:	89 37                	mov    %esi,(%edi)
    38f1:	8a 14 31             	mov    (%ecx,%esi,1),%dl
    38f4:	88 d1                	mov    %dl,%cl
    38f6:	88 55 f1             	mov    %dl,-0xf(%ebp)
    38f9:	83 e1 e0             	and    $0xffffffe0,%ecx
    38fc:	88 4d f2             	mov    %cl,-0xe(%ebp)
    38ff:	80 f9 c0             	cmp    $0xc0,%cl
    3902:	0f 84 36 01 00 00    	je     3a3e <str_decode_reverse+0x20e>
    3908:	88 d1                	mov    %dl,%cl
    390a:	83 e1 f0             	and    $0xfffffff0,%ecx
    390d:	80 f9 e0             	cmp    $0xe0,%cl
    3910:	0f 84 21 01 00 00    	je     3a37 <str_decode_reverse+0x207>
    3916:	88 d1                	mov    %dl,%cl
    3918:	83 e1 f8             	and    $0xfffffff8,%ecx
    391b:	80 f9 f0             	cmp    $0xf0,%cl
    391e:	0f 84 13 01 00 00    	je     3a37 <str_decode_reverse+0x207>
    3924:	83 e2 c0             	and    $0xffffffc0,%edx
    3927:	80 fa 80             	cmp    $0x80,%dl
    392a:	75 39                	jne    3965 <str_decode_reverse+0x135>
    392c:	85 f6                	test   %esi,%esi
    392e:	74 35                	je     3965 <str_decode_reverse+0x135>
    3930:	83 eb 04             	sub    $0x4,%ebx
    3933:	8b 45 08             	mov    0x8(%ebp),%eax
    3936:	89 1f                	mov    %ebx,(%edi)
    3938:	8a 14 18             	mov    (%eax,%ebx,1),%dl
    393b:	88 d1                	mov    %dl,%cl
    393d:	88 55 f1             	mov    %dl,-0xf(%ebp)
    3940:	83 e1 e0             	and    $0xffffffe0,%ecx
    3943:	88 4d f2             	mov    %cl,-0xe(%ebp)
    3946:	80 f9 c0             	cmp    $0xc0,%cl
    3949:	74 25                	je     3970 <str_decode_reverse+0x140>
    394b:	88 d0                	mov    %dl,%al
    394d:	83 e0 f0             	and    $0xfffffff0,%eax
    3950:	3c e0                	cmp    $0xe0,%al
    3952:	0f 84 d8 00 00 00    	je     3a30 <str_decode_reverse+0x200>
    3958:	88 d0                	mov    %dl,%al
    395a:	83 e0 f8             	and    $0xfffffff8,%eax
    395d:	3c f0                	cmp    $0xf0,%al
    395f:	0f 84 cb 00 00 00    	je     3a30 <str_decode_reverse+0x200>
    3965:	b8 3f 00 00 00       	mov    $0x3f,%eax
    396a:	5a                   	pop    %edx
    396b:	5b                   	pop    %ebx
    396c:	5e                   	pop    %esi
    396d:	5f                   	pop    %edi
    396e:	5d                   	pop    %ebp
    396f:	c3                   	ret    
    3970:	89 f3                	mov    %esi,%ebx
    3972:	c6 45 f2 c0          	movb   $0xc0,-0xe(%ebp)
    3976:	31 c0                	xor    %eax,%eax
    3978:	39 5d 10             	cmp    %ebx,0x10(%ebp)
    397b:	72 ed                	jb     396a <str_decode_reverse+0x13a>
    397d:	84 d2                	test   %dl,%dl
    397f:	78 69                	js     39ea <str_decode_reverse+0x1ba>
    3981:	bf 7f 00 00 00       	mov    $0x7f,%edi
    3986:	31 d2                	xor    %edx,%edx
    3988:	8d 34 1a             	lea    (%edx,%ebx,1),%esi
    398b:	b8 3f 00 00 00       	mov    $0x3f,%eax
    3990:	39 75 10             	cmp    %esi,0x10(%ebp)
    3993:	72 d5                	jb     396a <str_decode_reverse+0x13a>
    3995:	8a 4d f1             	mov    -0xf(%ebp),%cl
    3998:	31 c0                	xor    %eax,%eax
    399a:	21 f9                	and    %edi,%ecx
    399c:	85 d2                	test   %edx,%edx
    399e:	88 c8                	mov    %cl,%al
    39a0:	74 c8                	je     396a <str_decode_reverse+0x13a>
    39a2:	8b 4d 08             	mov    0x8(%ebp),%ecx
    39a5:	8d 73 01             	lea    0x1(%ebx),%esi
    39a8:	8a 0c 19             	mov    (%ecx,%ebx,1),%cl
    39ab:	88 4d f3             	mov    %cl,-0xd(%ebp)
    39ae:	83 e1 c0             	and    $0xffffffc0,%ecx
    39b1:	80 f9 80             	cmp    $0x80,%cl
    39b4:	75 af                	jne    3965 <str_decode_reverse+0x135>
    39b6:	8b 7d 08             	mov    0x8(%ebp),%edi
    39b9:	8b 4d 08             	mov    0x8(%ebp),%ecx
    39bc:	01 fb                	add    %edi,%ebx
    39be:	01 ce                	add    %ecx,%esi
    39c0:	01 da                	add    %ebx,%edx
    39c2:	8a 4d f3             	mov    -0xd(%ebp),%cl
    39c5:	eb 0e                	jmp    39d5 <str_decode_reverse+0x1a5>
    39c7:	90                   	nop
    39c8:	8a 0e                	mov    (%esi),%cl
    39ca:	46                   	inc    %esi
    39cb:	88 cb                	mov    %cl,%bl
    39cd:	83 e3 c0             	and    $0xffffffc0,%ebx
    39d0:	80 fb 80             	cmp    $0x80,%bl
    39d3:	75 90                	jne    3965 <str_decode_reverse+0x135>
    39d5:	89 c3                	mov    %eax,%ebx
    39d7:	89 c8                	mov    %ecx,%eax
    39d9:	c1 e3 06             	shl    $0x6,%ebx
    39dc:	83 e0 3f             	and    $0x3f,%eax
    39df:	09 d8                	or     %ebx,%eax
    39e1:	39 d6                	cmp    %edx,%esi
    39e3:	75 e3                	jne    39c8 <str_decode_reverse+0x198>
    39e5:	e9 80 ff ff ff       	jmp    396a <str_decode_reverse+0x13a>
    39ea:	80 7d f2 c0          	cmpb   $0xc0,-0xe(%ebp)
    39ee:	74 5e                	je     3a4e <str_decode_reverse+0x21e>
    39f0:	8a 45 f1             	mov    -0xf(%ebp),%al
    39f3:	83 e0 f0             	and    $0xfffffff0,%eax
    39f6:	3c e0                	cmp    $0xe0,%al
    39f8:	74 63                	je     3a5d <str_decode_reverse+0x22d>
    39fa:	8a 55 f1             	mov    -0xf(%ebp),%dl
    39fd:	b8 3f 00 00 00       	mov    $0x3f,%eax
    3a02:	83 e2 f8             	and    $0xfffffff8,%edx
    3a05:	80 fa f0             	cmp    $0xf0,%dl
    3a08:	0f 85 5c ff ff ff    	jne    396a <str_decode_reverse+0x13a>
    3a0e:	bf 07 00 00 00       	mov    $0x7,%edi
    3a13:	ba 03 00 00 00       	mov    $0x3,%edx
    3a18:	e9 6b ff ff ff       	jmp    3988 <str_decode_reverse+0x158>
    3a1d:	8d 76 00             	lea    0x0(%esi),%esi
    3a20:	0f be 45 f1          	movsbl -0xf(%ebp),%eax
    3a24:	e9 41 ff ff ff       	jmp    396a <str_decode_reverse+0x13a>
    3a29:	8d b4 26 00 00 00 00 	lea    0x0(%esi,%eiz,1),%esi
    3a30:	89 f3                	mov    %esi,%ebx
    3a32:	e9 3f ff ff ff       	jmp    3976 <str_decode_reverse+0x146>
    3a37:	89 c3                	mov    %eax,%ebx
    3a39:	e9 38 ff ff ff       	jmp    3976 <str_decode_reverse+0x146>
    3a3e:	89 c3                	mov    %eax,%ebx
    3a40:	e9 2d ff ff ff       	jmp    3972 <str_decode_reverse+0x142>
    3a45:	3b 5d 10             	cmp    0x10(%ebp),%ebx
    3a48:	0f 87 1c ff ff ff    	ja     396a <str_decode_reverse+0x13a>
    3a4e:	bf 1f 00 00 00       	mov    $0x1f,%edi
    3a53:	ba 01 00 00 00       	mov    $0x1,%edx
    3a58:	e9 2b ff ff ff       	jmp    3988 <str_decode_reverse+0x158>
    3a5d:	bf 0f 00 00 00       	mov    $0xf,%edi
    3a62:	ba 02 00 00 00       	mov    $0x2,%edx
    3a67:	e9 1c ff ff ff       	jmp    3988 <str_decode_reverse+0x158>
    3a6c:	3b 5d 10             	cmp    0x10(%ebp),%ebx
    3a6f:	0f 86 7b ff ff ff    	jbe    39f0 <str_decode_reverse+0x1c0>
    3a75:	e9 f0 fe ff ff       	jmp    396a <str_decode_reverse+0x13a>
    3a7a:	8d b6 00 00 00 00    	lea    0x0(%esi),%esi

00003a80 <chr_encode>:
    3a80:	55                   	push   %ebp
    3a81:	89 e5                	mov    %esp,%ebp
    3a83:	57                   	push   %edi
    3a84:	56                   	push   %esi
    3a85:	53                   	push   %ebx
    3a86:	83 ec 24             	sub    $0x24,%esp
    3a89:	8b 7d 10             	mov    0x10(%ebp),%edi
    3a8c:	8b 1f                	mov    (%edi),%ebx
    3a8e:	3b 5d 14             	cmp    0x14(%ebp),%ebx
    3a91:	0f 83 c5 00 00 00    	jae    3b5c <chr_encode+0xdc>
    3a97:	8b 4d 08             	mov    0x8(%ebp),%ecx
    3a9a:	b8 f2 ff ff ff       	mov    $0xfffffff2,%eax
    3a9f:	81 f9 ff ff 10 00    	cmp    $0x10ffff,%ecx
    3aa5:	77 34                	ja     3adb <chr_encode+0x5b>
    3aa7:	f7 c1 80 ff ff ff    	test   $0xffffff80,%ecx
    3aad:	75 39                	jne    3ae8 <chr_encode+0x68>
    3aaf:	c6 45 d0 00          	movb   $0x0,-0x30(%ebp)
    3ab3:	c6 45 e0 7f          	movb   $0x7f,-0x20(%ebp)
    3ab7:	c7 45 f0 00 00 00 00 	movl   $0x0,-0x10(%ebp)
    3abe:	8b 45 e0             	mov    -0x20(%ebp),%eax
    3ac1:	8b 55 0c             	mov    0xc(%ebp),%edx
    3ac4:	21 c1                	and    %eax,%ecx
    3ac6:	8b 45 d0             	mov    -0x30(%ebp),%eax
    3ac9:	09 c1                	or     %eax,%ecx
    3acb:	88 0c 1a             	mov    %cl,(%edx,%ebx,1)
    3ace:	8b 55 f0             	mov    -0x10(%ebp),%edx
    3ad1:	8b 07                	mov    (%edi),%eax
    3ad3:	8d 44 02 01          	lea    0x1(%edx,%eax,1),%eax
    3ad7:	89 07                	mov    %eax,(%edi)
    3ad9:	31 c0                	xor    %eax,%eax
    3adb:	83 c4 24             	add    $0x24,%esp
    3ade:	5b                   	pop    %ebx
    3adf:	5e                   	pop    %esi
    3ae0:	5f                   	pop    %edi
    3ae1:	5d                   	pop    %ebp
    3ae2:	c3                   	ret    
    3ae3:	90                   	nop
    3ae4:	8d 74 26 00          	lea    0x0(%esi,%eiz,1),%esi
    3ae8:	f7 c1 00 f8 ff ff    	test   $0xfffff800,%ecx
    3aee:	74 58                	je     3b48 <chr_encode+0xc8>
    3af0:	89 c8                	mov    %ecx,%eax
    3af2:	25 00 00 ff ff       	and    $0xffff0000,%eax
    3af7:	83 f8 01             	cmp    $0x1,%eax
    3afa:	19 d2                	sbb    %edx,%edx
    3afc:	83 e2 f0             	and    $0xfffffff0,%edx
    3aff:	83 ea 10             	sub    $0x10,%edx
    3b02:	83 f8 01             	cmp    $0x1,%eax
    3b05:	88 55 d0             	mov    %dl,-0x30(%ebp)
    3b08:	19 d2                	sbb    %edx,%edx
    3b0a:	83 e2 08             	and    $0x8,%edx
    3b0d:	83 c2 07             	add    $0x7,%edx
    3b10:	83 f8 01             	cmp    $0x1,%eax
    3b13:	19 c0                	sbb    %eax,%eax
    3b15:	88 55 e0             	mov    %dl,-0x20(%ebp)
    3b18:	83 c0 03             	add    $0x3,%eax
    3b1b:	89 45 f0             	mov    %eax,-0x10(%ebp)
    3b1e:	01 d8                	add    %ebx,%eax
    3b20:	39 45 14             	cmp    %eax,0x14(%ebp)
    3b23:	76 37                	jbe    3b5c <chr_encode+0xdc>
    3b25:	8b 45 f0             	mov    -0x10(%ebp),%eax
    3b28:	89 ca                	mov    %ecx,%edx
    3b2a:	8b 75 0c             	mov    0xc(%ebp),%esi
    3b2d:	01 c6                	add    %eax,%esi
    3b2f:	83 e2 3f             	and    $0x3f,%edx
    3b32:	c1 e9 06             	shr    $0x6,%ecx
    3b35:	80 ca 80             	or     $0x80,%dl
    3b38:	88 14 1e             	mov    %dl,(%esi,%ebx,1)
    3b3b:	48                   	dec    %eax
    3b3c:	8b 1f                	mov    (%edi),%ebx
    3b3e:	75 e8                	jne    3b28 <chr_encode+0xa8>
    3b40:	e9 79 ff ff ff       	jmp    3abe <chr_encode+0x3e>
    3b45:	8d 76 00             	lea    0x0(%esi),%esi
    3b48:	c7 45 f0 01 00 00 00 	movl   $0x1,-0x10(%ebp)
    3b4f:	c6 45 d0 c0          	movb   $0xc0,-0x30(%ebp)
    3b53:	c6 45 e0 1f          	movb   $0x1f,-0x20(%ebp)
    3b57:	8b 45 f0             	mov    -0x10(%ebp),%eax
    3b5a:	eb c2                	jmp    3b1e <chr_encode+0x9e>
    3b5c:	b8 f0 ff ff ff       	mov    $0xfffffff0,%eax
    3b61:	e9 75 ff ff ff       	jmp    3adb <chr_encode+0x5b>
    3b66:	8d 76 00             	lea    0x0(%esi),%esi
    3b69:	8d bc 27 00 00 00 00 	lea    0x0(%edi,%eiz,1),%edi

00003b70 <str_size>:
    3b70:	55                   	push   %ebp
    3b71:	31 c0                	xor    %eax,%eax
    3b73:	89 e5                	mov    %esp,%ebp
    3b75:	8b 55 08             	mov    0x8(%ebp),%edx
    3b78:	80 3a 00             	cmpb   $0x0,(%edx)
    3b7b:	74 0a                	je     3b87 <str_size+0x17>
    3b7d:	8d 76 00             	lea    0x0(%esi),%esi
    3b80:	40                   	inc    %eax
    3b81:	80 3c 02 00          	cmpb   $0x0,(%edx,%eax,1)
    3b85:	75 f9                	jne    3b80 <str_size+0x10>
    3b87:	5d                   	pop    %ebp
    3b88:	c3                   	ret    
    3b89:	8d b4 26 00 00 00 00 	lea    0x0(%esi,%eiz,1),%esi

00003b90 <wstr_size>:
    3b90:	55                   	push   %ebp
    3b91:	31 c0                	xor    %eax,%eax
    3b93:	89 e5                	mov    %esp,%ebp
    3b95:	8b 55 08             	mov    0x8(%ebp),%edx
    3b98:	8b 0a                	mov    (%edx),%ecx
    3b9a:	85 c9                	test   %ecx,%ecx
    3b9c:	74 0d                	je     3bab <wstr_size+0x1b>
    3b9e:	66 90                	xchg   %ax,%ax
    3ba0:	40                   	inc    %eax
    3ba1:	8b 0c 82             	mov    (%edx,%eax,4),%ecx
    3ba4:	85 c9                	test   %ecx,%ecx
    3ba6:	75 f8                	jne    3ba0 <wstr_size+0x10>
    3ba8:	c1 e0 02             	shl    $0x2,%eax
    3bab:	5d                   	pop    %ebp
    3bac:	c3                   	ret    
    3bad:	8d 76 00             	lea    0x0(%esi),%esi

00003bb0 <str_lsize>:
    3bb0:	55                   	push   %ebp
    3bb1:	31 c0                	xor    %eax,%eax
    3bb3:	89 e5                	mov    %esp,%ebp
    3bb5:	57                   	push   %edi
    3bb6:	56                   	push   %esi
    3bb7:	53                   	push   %ebx
    3bb8:	83 ec 0c             	sub    $0xc,%esp
    3bbb:	8b 7d 0c             	mov    0xc(%ebp),%edi
    3bbe:	8b 5d 08             	mov    0x8(%ebp),%ebx
    3bc1:	85 ff                	test   %edi,%edi
    3bc3:	74 5b                	je     3c20 <str_lsize+0x70>
    3bc5:	c7 45 f0 00 00 00 00 	movl   $0x0,-0x10(%ebp)
    3bcc:	eb 17                	jmp    3be5 <str_lsize+0x35>
    3bce:	66 90                	xchg   %ax,%ax
    3bd0:	89 f8                	mov    %edi,%eax
    3bd2:	85 d2                	test   %edx,%edx
    3bd4:	74 4a                	je     3c20 <str_lsize+0x70>
    3bd6:	8b 75 f0             	mov    -0x10(%ebp),%esi
    3bd9:	8b 55 0c             	mov    0xc(%ebp),%edx
    3bdc:	46                   	inc    %esi
    3bdd:	89 75 f0             	mov    %esi,-0x10(%ebp)
    3be0:	39 55 f0             	cmp    %edx,-0x10(%ebp)
    3be3:	74 3b                	je     3c20 <str_lsize+0x70>
    3be5:	0f be 14 03          	movsbl (%ebx,%eax,1),%edx
    3be9:	8d 78 01             	lea    0x1(%eax),%edi
    3bec:	84 d2                	test   %dl,%dl
    3bee:	79 e0                	jns    3bd0 <str_lsize+0x20>
    3bf0:	88 d1                	mov    %dl,%cl
    3bf2:	83 e1 e0             	and    $0xffffffe0,%ecx
    3bf5:	80 f9 c0             	cmp    $0xc0,%cl
    3bf8:	74 2e                	je     3c28 <str_lsize+0x78>
    3bfa:	88 d1                	mov    %dl,%cl
    3bfc:	83 e1 f0             	and    $0xfffffff0,%ecx
    3bff:	80 f9 e0             	cmp    $0xe0,%cl
    3c02:	74 7d                	je     3c81 <str_lsize+0xd1>
    3c04:	88 d1                	mov    %dl,%cl
    3c06:	83 e1 f8             	and    $0xfffffff8,%ecx
    3c09:	80 f9 f0             	cmp    $0xf0,%cl
    3c0c:	74 7c                	je     3c8a <str_lsize+0xda>
    3c0e:	8b 75 f0             	mov    -0x10(%ebp),%esi
    3c11:	8b 55 0c             	mov    0xc(%ebp),%edx
    3c14:	46                   	inc    %esi
    3c15:	89 f8                	mov    %edi,%eax
    3c17:	89 75 f0             	mov    %esi,-0x10(%ebp)
    3c1a:	39 55 f0             	cmp    %edx,-0x10(%ebp)
    3c1d:	75 c6                	jne    3be5 <str_lsize+0x35>
    3c1f:	90                   	nop
    3c20:	83 c4 0c             	add    $0xc,%esp
    3c23:	5b                   	pop    %ebx
    3c24:	5e                   	pop    %esi
    3c25:	5f                   	pop    %edi
    3c26:	5d                   	pop    %ebp
    3c27:	c3                   	ret    
    3c28:	b1 1f                	mov    $0x1f,%cl
    3c2a:	be 01 00 00 00       	mov    $0x1,%esi
    3c2f:	21 ca                	and    %ecx,%edx
    3c31:	8a 0c 3b             	mov    (%ebx,%edi,1),%cl
    3c34:	88 4d ee             	mov    %cl,-0x12(%ebp)
    3c37:	83 e1 c0             	and    $0xffffffc0,%ecx
    3c3a:	81 e2 ff 00 00 00    	and    $0xff,%edx
    3c40:	83 c0 02             	add    $0x2,%eax
    3c43:	80 f9 80             	cmp    $0x80,%cl
    3c46:	75 8e                	jne    3bd6 <str_lsize+0x26>
    3c48:	01 f7                	add    %esi,%edi
    3c4a:	8a 4d ee             	mov    -0x12(%ebp),%cl
    3c4d:	89 5d e8             	mov    %ebx,-0x18(%ebp)
    3c50:	89 d6                	mov    %edx,%esi
    3c52:	89 ca                	mov    %ecx,%edx
    3c54:	c1 e6 06             	shl    $0x6,%esi
    3c57:	83 e2 3f             	and    $0x3f,%edx
    3c5a:	09 f2                	or     %esi,%edx
    3c5c:	8b 5d e8             	mov    -0x18(%ebp),%ebx
    3c5f:	39 f8                	cmp    %edi,%eax
    3c61:	0f 84 6b ff ff ff    	je     3bd2 <str_lsize+0x22>
    3c67:	8a 0c 03             	mov    (%ebx,%eax,1),%cl
    3c6a:	be c0 ff ff ff       	mov    $0xffffffc0,%esi
    3c6f:	21 ce                	and    %ecx,%esi
    3c71:	40                   	inc    %eax
    3c72:	89 f3                	mov    %esi,%ebx
    3c74:	80 fb 80             	cmp    $0x80,%bl
    3c77:	74 d7                	je     3c50 <str_lsize+0xa0>
    3c79:	8b 5d e8             	mov    -0x18(%ebp),%ebx
    3c7c:	e9 55 ff ff ff       	jmp    3bd6 <str_lsize+0x26>
    3c81:	b1 0f                	mov    $0xf,%cl
    3c83:	be 02 00 00 00       	mov    $0x2,%esi
    3c88:	eb a5                	jmp    3c2f <str_lsize+0x7f>
    3c8a:	b1 07                	mov    $0x7,%cl
    3c8c:	be 03 00 00 00       	mov    $0x3,%esi
    3c91:	eb 9c                	jmp    3c2f <str_lsize+0x7f>
    3c93:	8d b6 00 00 00 00    	lea    0x0(%esi),%esi
    3c99:	8d bc 27 00 00 00 00 	lea    0x0(%edi,%eiz,1),%edi

00003ca0 <str_nsize>:
    3ca0:	55                   	push   %ebp
    3ca1:	31 c0                	xor    %eax,%eax
    3ca3:	89 e5                	mov    %esp,%ebp
    3ca5:	8b 55 08             	mov    0x8(%ebp),%edx
    3ca8:	8b 4d 0c             	mov    0xc(%ebp),%ecx
    3cab:	80 3a 00             	cmpb   $0x0,(%edx)
    3cae:	74 13                	je     3cc3 <str_nsize+0x23>
    3cb0:	85 c9                	test   %ecx,%ecx
    3cb2:	75 08                	jne    3cbc <str_nsize+0x1c>
    3cb4:	eb 0d                	jmp    3cc3 <str_nsize+0x23>
    3cb6:	66 90                	xchg   %ax,%ax
    3cb8:	39 c8                	cmp    %ecx,%eax
    3cba:	74 07                	je     3cc3 <str_nsize+0x23>
    3cbc:	40                   	inc    %eax
    3cbd:	80 3c 02 00          	cmpb   $0x0,(%edx,%eax,1)
    3cc1:	75 f5                	jne    3cb8 <str_nsize+0x18>
    3cc3:	5d                   	pop    %ebp
    3cc4:	c3                   	ret    
    3cc5:	8d 74 26 00          	lea    0x0(%esi,%eiz,1),%esi
    3cc9:	8d bc 27 00 00 00 00 	lea    0x0(%edi,%eiz,1),%edi

00003cd0 <wstr_nsize>:
    3cd0:	55                   	push   %ebp
    3cd1:	89 e5                	mov    %esp,%ebp
    3cd3:	53                   	push   %ebx
    3cd4:	8b 5d 0c             	mov    0xc(%ebp),%ebx
    3cd7:	8b 4d 08             	mov    0x8(%ebp),%ecx
    3cda:	83 e3 fc             	and    $0xfffffffc,%ebx
    3cdd:	74 26                	je     3d05 <wstr_nsize+0x35>
    3cdf:	8b 01                	mov    (%ecx),%eax
    3ce1:	85 c0                	test   %eax,%eax
    3ce3:	74 20                	je     3d05 <wstr_nsize+0x35>
    3ce5:	31 d2                	xor    %edx,%edx
    3ce7:	eb 0d                	jmp    3cf6 <wstr_nsize+0x26>
    3ce9:	8d b4 26 00 00 00 00 	lea    0x0(%esi,%eiz,1),%esi
    3cf0:	83 3c 91 00          	cmpl   $0x0,(%ecx,%edx,4)
    3cf4:	74 0c                	je     3d02 <wstr_nsize+0x32>
    3cf6:	42                   	inc    %edx
    3cf7:	8d 04 95 00 00 00 00 	lea    0x0(,%edx,4),%eax
    3cfe:	39 c3                	cmp    %eax,%ebx
    3d00:	77 ee                	ja     3cf0 <wstr_nsize+0x20>
    3d02:	5b                   	pop    %ebx
    3d03:	5d                   	pop    %ebp
    3d04:	c3                   	ret    
    3d05:	31 c0                	xor    %eax,%eax
    3d07:	eb f9                	jmp    3d02 <wstr_nsize+0x32>
    3d09:	8d b4 26 00 00 00 00 	lea    0x0(%esi,%eiz,1),%esi

00003d10 <wstr_lsize>:
    3d10:	55                   	push   %ebp
    3d11:	89 e5                	mov    %esp,%ebp
    3d13:	53                   	push   %ebx
    3d14:	8b 5d 0c             	mov    0xc(%ebp),%ebx
    3d17:	8b 4d 08             	mov    0x8(%ebp),%ecx
    3d1a:	c1 e3 02             	shl    $0x2,%ebx
    3d1d:	74 26                	je     3d45 <wstr_lsize+0x35>
    3d1f:	8b 01                	mov    (%ecx),%eax
    3d21:	85 c0                	test   %eax,%eax
    3d23:	74 20                	je     3d45 <wstr_lsize+0x35>
    3d25:	31 d2                	xor    %edx,%edx
    3d27:	eb 0d                	jmp    3d36 <wstr_lsize+0x26>
    3d29:	8d b4 26 00 00 00 00 	lea    0x0(%esi,%eiz,1),%esi
    3d30:	83 3c 91 00          	cmpl   $0x0,(%ecx,%edx,4)
    3d34:	74 0c                	je     3d42 <wstr_lsize+0x32>
    3d36:	42                   	inc    %edx
    3d37:	8d 04 95 00 00 00 00 	lea    0x0(,%edx,4),%eax
    3d3e:	39 c3                	cmp    %eax,%ebx
    3d40:	77 ee                	ja     3d30 <wstr_lsize+0x20>
    3d42:	5b                   	pop    %ebx
    3d43:	5d                   	pop    %ebp
    3d44:	c3                   	ret    
    3d45:	31 c0                	xor    %eax,%eax
    3d47:	eb f9                	jmp    3d42 <wstr_lsize+0x32>
    3d49:	8d b4 26 00 00 00 00 	lea    0x0(%esi,%eiz,1),%esi

00003d50 <str_length>:
    3d50:	55                   	push   %ebp
    3d51:	89 e5                	mov    %esp,%ebp
    3d53:	57                   	push   %edi
    3d54:	56                   	push   %esi
    3d55:	53                   	push   %ebx
    3d56:	83 ec 0c             	sub    $0xc,%esp
    3d59:	31 ff                	xor    %edi,%edi
    3d5b:	8b 5d 08             	mov    0x8(%ebp),%ebx
    3d5e:	c7 45 f0 00 00 00 00 	movl   $0x0,-0x10(%ebp)
    3d65:	eb 0e                	jmp    3d75 <str_length+0x25>
    3d67:	90                   	nop
    3d68:	85 c0                	test   %eax,%eax
    3d6a:	74 3b                	je     3da7 <str_length+0x57>
    3d6c:	89 d7                	mov    %edx,%edi
    3d6e:	8b 55 f0             	mov    -0x10(%ebp),%edx
    3d71:	42                   	inc    %edx
    3d72:	89 55 f0             	mov    %edx,-0x10(%ebp)
    3d75:	0f be 04 3b          	movsbl (%ebx,%edi,1),%eax
    3d79:	8d 57 01             	lea    0x1(%edi),%edx
    3d7c:	84 c0                	test   %al,%al
    3d7e:	79 e8                	jns    3d68 <str_length+0x18>
    3d80:	88 c1                	mov    %al,%cl
    3d82:	83 e1 e0             	and    $0xffffffe0,%ecx
    3d85:	80 f9 c0             	cmp    $0xc0,%cl
    3d88:	74 28                	je     3db2 <str_length+0x62>
    3d8a:	88 c1                	mov    %al,%cl
    3d8c:	83 e1 f0             	and    $0xfffffff0,%ecx
    3d8f:	80 f9 e0             	cmp    $0xe0,%cl
    3d92:	74 7d                	je     3e11 <str_length+0xc1>
    3d94:	88 c1                	mov    %al,%cl
    3d96:	83 e1 f8             	and    $0xfffffff8,%ecx
    3d99:	80 f9 f0             	cmp    $0xf0,%cl
    3d9c:	75 ce                	jne    3d6c <str_length+0x1c>
    3d9e:	b1 07                	mov    $0x7,%cl
    3da0:	be 03 00 00 00       	mov    $0x3,%esi
    3da5:	eb 12                	jmp    3db9 <str_length+0x69>
    3da7:	8b 45 f0             	mov    -0x10(%ebp),%eax
    3daa:	83 c4 0c             	add    $0xc,%esp
    3dad:	5b                   	pop    %ebx
    3dae:	5e                   	pop    %esi
    3daf:	5f                   	pop    %edi
    3db0:	5d                   	pop    %ebp
    3db1:	c3                   	ret    
    3db2:	b1 1f                	mov    $0x1f,%cl
    3db4:	be 01 00 00 00       	mov    $0x1,%esi
    3db9:	21 c8                	and    %ecx,%eax
    3dbb:	8a 0c 13             	mov    (%ebx,%edx,1),%cl
    3dbe:	83 c7 02             	add    $0x2,%edi
    3dc1:	88 4d eb             	mov    %cl,-0x15(%ebp)
    3dc4:	83 e1 c0             	and    $0xffffffc0,%ecx
    3dc7:	25 ff 00 00 00       	and    $0xff,%eax
    3dcc:	89 7d ec             	mov    %edi,-0x14(%ebp)
    3dcf:	80 f9 80             	cmp    $0x80,%cl
    3dd2:	75 46                	jne    3e1a <str_length+0xca>
    3dd4:	8d 3c 32             	lea    (%edx,%esi,1),%edi
    3dd7:	8a 4d eb             	mov    -0x15(%ebp),%cl
    3dda:	8b 55 ec             	mov    -0x14(%ebp),%edx
    3ddd:	89 5d ec             	mov    %ebx,-0x14(%ebp)
    3de0:	89 c6                	mov    %eax,%esi
    3de2:	89 c8                	mov    %ecx,%eax
    3de4:	c1 e6 06             	shl    $0x6,%esi
    3de7:	83 e0 3f             	and    $0x3f,%eax
    3dea:	09 f0                	or     %esi,%eax
    3dec:	8b 5d ec             	mov    -0x14(%ebp),%ebx
    3def:	39 fa                	cmp    %edi,%edx
    3df1:	0f 84 71 ff ff ff    	je     3d68 <str_length+0x18>
    3df7:	8a 0c 13             	mov    (%ebx,%edx,1),%cl
    3dfa:	be c0 ff ff ff       	mov    $0xffffffc0,%esi
    3dff:	21 ce                	and    %ecx,%esi
    3e01:	42                   	inc    %edx
    3e02:	89 f3                	mov    %esi,%ebx
    3e04:	80 fb 80             	cmp    $0x80,%bl
    3e07:	74 d7                	je     3de0 <str_length+0x90>
    3e09:	8b 5d ec             	mov    -0x14(%ebp),%ebx
    3e0c:	e9 5b ff ff ff       	jmp    3d6c <str_length+0x1c>
    3e11:	b1 0f                	mov    $0xf,%cl
    3e13:	be 02 00 00 00       	mov    $0x2,%esi
    3e18:	eb 9f                	jmp    3db9 <str_length+0x69>
    3e1a:	89 fa                	mov    %edi,%edx
    3e1c:	e9 4b ff ff ff       	jmp    3d6c <str_length+0x1c>
    3e21:	eb 0d                	jmp    3e30 <wstr_length>
    3e23:	90                   	nop
    3e24:	90                   	nop
    3e25:	90                   	nop
    3e26:	90                   	nop
    3e27:	90                   	nop
    3e28:	90                   	nop
    3e29:	90                   	nop
    3e2a:	90                   	nop
    3e2b:	90                   	nop
    3e2c:	90                   	nop
    3e2d:	90                   	nop
    3e2e:	90                   	nop
    3e2f:	90                   	nop

00003e30 <wstr_length>:
    3e30:	55                   	push   %ebp
    3e31:	31 c0                	xor    %eax,%eax
    3e33:	89 e5                	mov    %esp,%ebp
    3e35:	8b 55 08             	mov    0x8(%ebp),%edx
    3e38:	8b 0a                	mov    (%edx),%ecx
    3e3a:	85 c9                	test   %ecx,%ecx
    3e3c:	74 0a                	je     3e48 <wstr_length+0x18>
    3e3e:	66 90                	xchg   %ax,%ax
    3e40:	40                   	inc    %eax
    3e41:	8b 0c 82             	mov    (%edx,%eax,4),%ecx
    3e44:	85 c9                	test   %ecx,%ecx
    3e46:	75 f8                	jne    3e40 <wstr_length+0x10>
    3e48:	5d                   	pop    %ebp
    3e49:	c3                   	ret    
    3e4a:	8d b6 00 00 00 00    	lea    0x0(%esi),%esi

00003e50 <str_nlength>:
    3e50:	55                   	push   %ebp
    3e51:	89 e5                	mov    %esp,%ebp
    3e53:	57                   	push   %edi
    3e54:	56                   	push   %esi
    3e55:	53                   	push   %ebx
    3e56:	57                   	push   %edi
    3e57:	c7 45 f0 00 00 00 00 	movl   $0x0,-0x10(%ebp)
    3e5e:	8b 45 0c             	mov    0xc(%ebp),%eax
    3e61:	8b 7d 08             	mov    0x8(%ebp),%edi
    3e64:	85 c0                	test   %eax,%eax
    3e66:	74 2c                	je     3e94 <str_nlength+0x44>
    3e68:	bb 01 00 00 00       	mov    $0x1,%ebx
    3e6d:	31 c0                	xor    %eax,%eax
    3e6f:	90                   	nop
    3e70:	8a 04 07             	mov    (%edi,%eax,1),%al
    3e73:	84 c0                	test   %al,%al
    3e75:	78 79                	js     3ef0 <str_nlength+0xa0>
    3e77:	b2 7f                	mov    $0x7f,%dl
    3e79:	31 c9                	xor    %ecx,%ecx
    3e7b:	8d 34 19             	lea    (%ecx,%ebx,1),%esi
    3e7e:	39 75 0c             	cmp    %esi,0xc(%ebp)
    3e81:	73 1d                	jae    3ea0 <str_nlength+0x50>
    3e83:	89 d8                	mov    %ebx,%eax
    3e85:	8b 75 f0             	mov    -0x10(%ebp),%esi
    3e88:	8d 58 01             	lea    0x1(%eax),%ebx
    3e8b:	46                   	inc    %esi
    3e8c:	39 5d 0c             	cmp    %ebx,0xc(%ebp)
    3e8f:	89 75 f0             	mov    %esi,-0x10(%ebp)
    3e92:	73 dc                	jae    3e70 <str_nlength+0x20>
    3e94:	8b 45 f0             	mov    -0x10(%ebp),%eax
    3e97:	5b                   	pop    %ebx
    3e98:	5b                   	pop    %ebx
    3e99:	5e                   	pop    %esi
    3e9a:	5f                   	pop    %edi
    3e9b:	5d                   	pop    %ebp
    3e9c:	c3                   	ret    
    3e9d:	8d 76 00             	lea    0x0(%esi),%esi
    3ea0:	21 c2                	and    %eax,%edx
    3ea2:	81 e2 ff 00 00 00    	and    $0xff,%edx
    3ea8:	85 c9                	test   %ecx,%ecx
    3eaa:	0f 84 94 00 00 00    	je     3f44 <str_nlength+0xf4>
    3eb0:	8a 0c 1f             	mov    (%edi,%ebx,1),%cl
    3eb3:	8d 43 01             	lea    0x1(%ebx),%eax
    3eb6:	88 cb                	mov    %cl,%bl
    3eb8:	83 e3 c0             	and    $0xffffffc0,%ebx
    3ebb:	80 fb 80             	cmp    $0x80,%bl
    3ebe:	74 16                	je     3ed6 <str_nlength+0x86>
    3ec0:	eb 5e                	jmp    3f20 <str_nlength+0xd0>
    3ec2:	8d b6 00 00 00 00    	lea    0x0(%esi),%esi
    3ec8:	8a 0c 07             	mov    (%edi,%eax,1),%cl
    3ecb:	40                   	inc    %eax
    3ecc:	88 cb                	mov    %cl,%bl
    3ece:	83 e3 c0             	and    $0xffffffc0,%ebx
    3ed1:	80 fb 80             	cmp    $0x80,%bl
    3ed4:	75 4a                	jne    3f20 <str_nlength+0xd0>
    3ed6:	89 d3                	mov    %edx,%ebx
    3ed8:	89 ca                	mov    %ecx,%edx
    3eda:	c1 e3 06             	shl    $0x6,%ebx
    3edd:	83 e2 3f             	and    $0x3f,%edx
    3ee0:	09 da                	or     %ebx,%edx
    3ee2:	39 c6                	cmp    %eax,%esi
    3ee4:	75 e2                	jne    3ec8 <str_nlength+0x78>
    3ee6:	85 d2                	test   %edx,%edx
    3ee8:	75 9b                	jne    3e85 <str_nlength+0x35>
    3eea:	eb a8                	jmp    3e94 <str_nlength+0x44>
    3eec:	8d 74 26 00          	lea    0x0(%esi,%eiz,1),%esi
    3ef0:	88 c2                	mov    %al,%dl
    3ef2:	83 e2 e0             	and    $0xffffffe0,%edx
    3ef5:	80 fa c0             	cmp    $0xc0,%dl
    3ef8:	74 2e                	je     3f28 <str_nlength+0xd8>
    3efa:	88 c2                	mov    %al,%dl
    3efc:	83 e2 f0             	and    $0xfffffff0,%edx
    3eff:	80 fa e0             	cmp    $0xe0,%dl
    3f02:	74 34                	je     3f38 <str_nlength+0xe8>
    3f04:	88 c2                	mov    %al,%dl
    3f06:	83 e2 f8             	and    $0xfffffff8,%edx
    3f09:	80 fa f0             	cmp    $0xf0,%dl
    3f0c:	0f 85 71 ff ff ff    	jne    3e83 <str_nlength+0x33>
    3f12:	b2 07                	mov    $0x7,%dl
    3f14:	b9 03 00 00 00       	mov    $0x3,%ecx
    3f19:	e9 5d ff ff ff       	jmp    3e7b <str_nlength+0x2b>
    3f1e:	66 90                	xchg   %ax,%ax
    3f20:	89 c3                	mov    %eax,%ebx
    3f22:	e9 5c ff ff ff       	jmp    3e83 <str_nlength+0x33>
    3f27:	90                   	nop
    3f28:	b2 1f                	mov    $0x1f,%dl
    3f2a:	b9 01 00 00 00       	mov    $0x1,%ecx
    3f2f:	e9 47 ff ff ff       	jmp    3e7b <str_nlength+0x2b>
    3f34:	8d 74 26 00          	lea    0x0(%esi,%eiz,1),%esi
    3f38:	b2 0f                	mov    $0xf,%dl
    3f3a:	b9 02 00 00 00       	mov    $0x2,%ecx
    3f3f:	e9 37 ff ff ff       	jmp    3e7b <str_nlength+0x2b>
    3f44:	89 d8                	mov    %ebx,%eax
    3f46:	eb 9e                	jmp    3ee6 <str_nlength+0x96>
    3f48:	90                   	nop
    3f49:	8d b4 26 00 00 00 00 	lea    0x0(%esi,%eiz,1),%esi

00003f50 <wstr_nlength>:
    3f50:	55                   	push   %ebp
    3f51:	31 c0                	xor    %eax,%eax
    3f53:	89 e5                	mov    %esp,%ebp
    3f55:	53                   	push   %ebx
    3f56:	8b 5d 0c             	mov    0xc(%ebp),%ebx
    3f59:	8b 4d 08             	mov    0x8(%ebp),%ecx
    3f5c:	83 e3 fc             	and    $0xfffffffc,%ebx
    3f5f:	74 22                	je     3f83 <wstr_nlength+0x33>
    3f61:	8b 11                	mov    (%ecx),%edx
    3f63:	85 d2                	test   %edx,%edx
    3f65:	75 10                	jne    3f77 <wstr_nlength+0x27>
    3f67:	eb 1a                	jmp    3f83 <wstr_nlength+0x33>
    3f69:	8d b4 26 00 00 00 00 	lea    0x0(%esi,%eiz,1),%esi
    3f70:	8b 14 81             	mov    (%ecx,%eax,4),%edx
    3f73:	85 d2                	test   %edx,%edx
    3f75:	74 0c                	je     3f83 <wstr_nlength+0x33>
    3f77:	40                   	inc    %eax
    3f78:	8d 14 85 00 00 00 00 	lea    0x0(,%eax,4),%edx
    3f7f:	39 da                	cmp    %ebx,%edx
    3f81:	72 ed                	jb     3f70 <wstr_nlength+0x20>
    3f83:	5b                   	pop    %ebx
    3f84:	5d                   	pop    %ebp
    3f85:	c3                   	ret    
    3f86:	8d 76 00             	lea    0x0(%esi),%esi
    3f89:	8d bc 27 00 00 00 00 	lea    0x0(%edi,%eiz,1),%edi

00003f90 <chr_width>:
    3f90:	55                   	push   %ebp
    3f91:	b8 01 00 00 00       	mov    $0x1,%eax
    3f96:	89 e5                	mov    %esp,%ebp
    3f98:	5d                   	pop    %ebp
    3f99:	c3                   	ret    
    3f9a:	8d b6 00 00 00 00    	lea    0x0(%esi),%esi

00003fa0 <str_width>:
    3fa0:	55                   	push   %ebp
    3fa1:	89 e5                	mov    %esp,%ebp
    3fa3:	57                   	push   %edi
    3fa4:	56                   	push   %esi
    3fa5:	53                   	push   %ebx
    3fa6:	83 ec 0c             	sub    $0xc,%esp
    3fa9:	31 ff                	xor    %edi,%edi
    3fab:	8b 5d 08             	mov    0x8(%ebp),%ebx
    3fae:	c7 45 f0 00 00 00 00 	movl   $0x0,-0x10(%ebp)
    3fb5:	eb 0e                	jmp    3fc5 <str_width+0x25>
    3fb7:	90                   	nop
    3fb8:	85 c0                	test   %eax,%eax
    3fba:	74 3b                	je     3ff7 <str_width+0x57>
    3fbc:	8b 4d f0             	mov    -0x10(%ebp),%ecx
    3fbf:	89 d7                	mov    %edx,%edi
    3fc1:	41                   	inc    %ecx
    3fc2:	89 4d f0             	mov    %ecx,-0x10(%ebp)
    3fc5:	0f be 04 3b          	movsbl (%ebx,%edi,1),%eax
    3fc9:	8d 57 01             	lea    0x1(%edi),%edx
    3fcc:	84 c0                	test   %al,%al
    3fce:	79 e8                	jns    3fb8 <str_width+0x18>
    3fd0:	88 c1                	mov    %al,%cl
    3fd2:	83 e1 e0             	and    $0xffffffe0,%ecx
    3fd5:	80 f9 c0             	cmp    $0xc0,%cl
    3fd8:	74 28                	je     4002 <str_width+0x62>
    3fda:	88 c1                	mov    %al,%cl
    3fdc:	83 e1 f0             	and    $0xfffffff0,%ecx
    3fdf:	80 f9 e0             	cmp    $0xe0,%cl
    3fe2:	74 7d                	je     4061 <str_width+0xc1>
    3fe4:	88 c1                	mov    %al,%cl
    3fe6:	83 e1 f8             	and    $0xfffffff8,%ecx
    3fe9:	80 f9 f0             	cmp    $0xf0,%cl
    3fec:	75 ce                	jne    3fbc <str_width+0x1c>
    3fee:	b1 07                	mov    $0x7,%cl
    3ff0:	be 03 00 00 00       	mov    $0x3,%esi
    3ff5:	eb 12                	jmp    4009 <str_width+0x69>
    3ff7:	8b 45 f0             	mov    -0x10(%ebp),%eax
    3ffa:	83 c4 0c             	add    $0xc,%esp
    3ffd:	5b                   	pop    %ebx
    3ffe:	5e                   	pop    %esi
    3fff:	5f                   	pop    %edi
    4000:	5d                   	pop    %ebp
    4001:	c3                   	ret    
    4002:	b1 1f                	mov    $0x1f,%cl
    4004:	be 01 00 00 00       	mov    $0x1,%esi
    4009:	21 c8                	and    %ecx,%eax
    400b:	8a 0c 13             	mov    (%ebx,%edx,1),%cl
    400e:	83 c7 02             	add    $0x2,%edi
    4011:	88 4d eb             	mov    %cl,-0x15(%ebp)
    4014:	83 e1 c0             	and    $0xffffffc0,%ecx
    4017:	25 ff 00 00 00       	and    $0xff,%eax
    401c:	89 7d ec             	mov    %edi,-0x14(%ebp)
    401f:	80 f9 80             	cmp    $0x80,%cl
    4022:	75 46                	jne    406a <str_width+0xca>
    4024:	8d 3c 32             	lea    (%edx,%esi,1),%edi
    4027:	8a 4d eb             	mov    -0x15(%ebp),%cl
    402a:	8b 55 ec             	mov    -0x14(%ebp),%edx
    402d:	89 5d ec             	mov    %ebx,-0x14(%ebp)
    4030:	89 c6                	mov    %eax,%esi
    4032:	89 c8                	mov    %ecx,%eax
    4034:	c1 e6 06             	shl    $0x6,%esi
    4037:	83 e0 3f             	and    $0x3f,%eax
    403a:	09 f0                	or     %esi,%eax
    403c:	8b 5d ec             	mov    -0x14(%ebp),%ebx
    403f:	39 fa                	cmp    %edi,%edx
    4041:	0f 84 71 ff ff ff    	je     3fb8 <str_width+0x18>
    4047:	8a 0c 13             	mov    (%ebx,%edx,1),%cl
    404a:	be c0 ff ff ff       	mov    $0xffffffc0,%esi
    404f:	21 ce                	and    %ecx,%esi
    4051:	42                   	inc    %edx
    4052:	89 f3                	mov    %esi,%ebx
    4054:	80 fb 80             	cmp    $0x80,%bl
    4057:	74 d7                	je     4030 <str_width+0x90>
    4059:	8b 5d ec             	mov    -0x14(%ebp),%ebx
    405c:	e9 5b ff ff ff       	jmp    3fbc <str_width+0x1c>
    4061:	b1 0f                	mov    $0xf,%cl
    4063:	be 02 00 00 00       	mov    $0x2,%esi
    4068:	eb 9f                	jmp    4009 <str_width+0x69>
    406a:	89 fa                	mov    %edi,%edx
    406c:	e9 4b ff ff ff       	jmp    3fbc <str_width+0x1c>
    4071:	eb 0d                	jmp    4080 <ascii_check>
    4073:	90                   	nop
    4074:	90                   	nop
    4075:	90                   	nop
    4076:	90                   	nop
    4077:	90                   	nop
    4078:	90                   	nop
    4079:	90                   	nop
    407a:	90                   	nop
    407b:	90                   	nop
    407c:	90                   	nop
    407d:	90                   	nop
    407e:	90                   	nop
    407f:	90                   	nop

00004080 <ascii_check>:
    4080:	55                   	push   %ebp
    4081:	89 e5                	mov    %esp,%ebp
    4083:	83 7d 08 7f          	cmpl   $0x7f,0x8(%ebp)
    4087:	5d                   	pop    %ebp
    4088:	0f 96 c0             	setbe  %al
    408b:	c3                   	ret    
    408c:	8d 74 26 00          	lea    0x0(%esi,%eiz,1),%esi

00004090 <chr_check>:
    4090:	55                   	push   %ebp
    4091:	89 e5                	mov    %esp,%ebp
    4093:	81 7d 08 ff ff 10 00 	cmpl   $0x10ffff,0x8(%ebp)
    409a:	5d                   	pop    %ebp
    409b:	0f 96 c0             	setbe  %al
    409e:	c3                   	ret    
    409f:	90                   	nop

000040a0 <str_cmp>:
    40a0:	55                   	push   %ebp
    40a1:	31 c9                	xor    %ecx,%ecx
    40a3:	89 e5                	mov    %esp,%ebp
    40a5:	57                   	push   %edi
    40a6:	56                   	push   %esi
    40a7:	31 f6                	xor    %esi,%esi
    40a9:	53                   	push   %ebx
    40aa:	89 f7                	mov    %esi,%edi
    40ac:	83 ec 0c             	sub    $0xc,%esp
    40af:	eb 39                	jmp    40ea <str_cmp+0x4a>
    40b1:	8d b4 26 00 00 00 00 	lea    0x0(%esi,%eiz,1),%esi
    40b8:	89 f1                	mov    %esi,%ecx
    40ba:	8b 45 0c             	mov    0xc(%ebp),%eax
    40bd:	8d 77 01             	lea    0x1(%edi),%esi
    40c0:	8a 1c 38             	mov    (%eax,%edi,1),%bl
    40c3:	84 db                	test   %bl,%bl
    40c5:	78 69                	js     4130 <str_cmp+0x90>
    40c7:	0f be c3             	movsbl %bl,%eax
    40ca:	89 f7                	mov    %esi,%edi
    40cc:	39 c2                	cmp    %eax,%edx
    40ce:	0f 8c 92 00 00 00    	jl     4166 <str_cmp+0xc6>
    40d4:	0f 8f a2 01 00 00    	jg     427c <str_cmp+0x1dc>
    40da:	85 c0                	test   %eax,%eax
    40dc:	0f 84 a7 01 00 00    	je     4289 <str_cmp+0x1e9>
    40e2:	85 d2                	test   %edx,%edx
    40e4:	0f 84 9f 01 00 00    	je     4289 <str_cmp+0x1e9>
    40ea:	8b 45 08             	mov    0x8(%ebp),%eax
    40ed:	8d 71 01             	lea    0x1(%ecx),%esi
    40f0:	0f be 14 08          	movsbl (%eax,%ecx,1),%edx
    40f4:	84 d2                	test   %dl,%dl
    40f6:	79 c0                	jns    40b8 <str_cmp+0x18>
    40f8:	88 d0                	mov    %dl,%al
    40fa:	83 e0 e0             	and    $0xffffffe0,%eax
    40fd:	3c c0                	cmp    $0xc0,%al
    40ff:	74 70                	je     4171 <str_cmp+0xd1>
    4101:	88 d0                	mov    %dl,%al
    4103:	83 e0 f0             	and    $0xfffffff0,%eax
    4106:	3c e0                	cmp    $0xe0,%al
    4108:	0f 84 52 01 00 00    	je     4260 <str_cmp+0x1c0>
    410e:	88 d0                	mov    %dl,%al
    4110:	83 e0 f8             	and    $0xfffffff8,%eax
    4113:	3c f0                	cmp    $0xf0,%al
    4115:	0f 84 86 01 00 00    	je     42a1 <str_cmp+0x201>
    411b:	8b 45 0c             	mov    0xc(%ebp),%eax
    411e:	89 f1                	mov    %esi,%ecx
    4120:	ba 3f 00 00 00       	mov    $0x3f,%edx
    4125:	8d 77 01             	lea    0x1(%edi),%esi
    4128:	8a 1c 38             	mov    (%eax,%edi,1),%bl
    412b:	84 db                	test   %bl,%bl
    412d:	79 98                	jns    40c7 <str_cmp+0x27>
    412f:	90                   	nop
    4130:	88 d8                	mov    %bl,%al
    4132:	83 e0 e0             	and    $0xffffffe0,%eax
    4135:	3c c0                	cmp    $0xc0,%al
    4137:	0f 84 a0 00 00 00    	je     41dd <str_cmp+0x13d>
    413d:	88 d8                	mov    %bl,%al
    413f:	83 e0 f0             	and    $0xfffffff0,%eax
    4142:	3c e0                	cmp    $0xe0,%al
    4144:	0f 84 24 01 00 00    	je     426e <str_cmp+0x1ce>
    414a:	88 d8                	mov    %bl,%al
    414c:	83 e0 f8             	and    $0xfffffff8,%eax
    414f:	3c f0                	cmp    $0xf0,%al
    4151:	0f 84 3c 01 00 00    	je     4293 <str_cmp+0x1f3>
    4157:	b8 3f 00 00 00       	mov    $0x3f,%eax
    415c:	89 f7                	mov    %esi,%edi
    415e:	39 c2                	cmp    %eax,%edx
    4160:	0f 8d 6e ff ff ff    	jge    40d4 <str_cmp+0x34>
    4166:	83 c4 0c             	add    $0xc,%esp
    4169:	83 c8 ff             	or     $0xffffffff,%eax
    416c:	5b                   	pop    %ebx
    416d:	5e                   	pop    %esi
    416e:	5f                   	pop    %edi
    416f:	5d                   	pop    %ebp
    4170:	c3                   	ret    
    4171:	b0 1f                	mov    $0x1f,%al
    4173:	c7 45 ec 01 00 00 00 	movl   $0x1,-0x14(%ebp)
    417a:	8b 5d 08             	mov    0x8(%ebp),%ebx
    417d:	21 c2                	and    %eax,%edx
    417f:	81 e2 ff 00 00 00    	and    $0xff,%edx
    4185:	83 c1 02             	add    $0x2,%ecx
    4188:	8a 04 33             	mov    (%ebx,%esi,1),%al
    418b:	88 c3                	mov    %al,%bl
    418d:	83 e3 c0             	and    $0xffffffc0,%ebx
    4190:	80 fb 80             	cmp    $0x80,%bl
    4193:	0f 85 20 01 00 00    	jne    42b9 <str_cmp+0x219>
    4199:	8b 5d ec             	mov    -0x14(%ebp),%ebx
    419c:	89 7d f0             	mov    %edi,-0x10(%ebp)
    419f:	01 de                	add    %ebx,%esi
    41a1:	8b 7d 08             	mov    0x8(%ebp),%edi
    41a4:	eb 10                	jmp    41b6 <str_cmp+0x116>
    41a6:	66 90                	xchg   %ax,%ax
    41a8:	8a 04 0f             	mov    (%edi,%ecx,1),%al
    41ab:	41                   	inc    %ecx
    41ac:	88 c3                	mov    %al,%bl
    41ae:	83 e3 c0             	and    $0xffffffc0,%ebx
    41b1:	80 fb 80             	cmp    $0x80,%bl
    41b4:	75 1a                	jne    41d0 <str_cmp+0x130>
    41b6:	89 d3                	mov    %edx,%ebx
    41b8:	89 c2                	mov    %eax,%edx
    41ba:	c1 e3 06             	shl    $0x6,%ebx
    41bd:	83 e2 3f             	and    $0x3f,%edx
    41c0:	09 da                	or     %ebx,%edx
    41c2:	39 f1                	cmp    %esi,%ecx
    41c4:	75 e2                	jne    41a8 <str_cmp+0x108>
    41c6:	8b 7d f0             	mov    -0x10(%ebp),%edi
    41c9:	e9 ec fe ff ff       	jmp    40ba <str_cmp+0x1a>
    41ce:	66 90                	xchg   %ax,%ax
    41d0:	8b 7d f0             	mov    -0x10(%ebp),%edi
    41d3:	ba 3f 00 00 00       	mov    $0x3f,%edx
    41d8:	e9 dd fe ff ff       	jmp    40ba <str_cmp+0x1a>
    41dd:	b0 1f                	mov    $0x1f,%al
    41df:	c7 45 ec 01 00 00 00 	movl   $0x1,-0x14(%ebp)
    41e6:	21 c3                	and    %eax,%ebx
    41e8:	31 c0                	xor    %eax,%eax
    41ea:	88 d8                	mov    %bl,%al
    41ec:	8b 5d 0c             	mov    0xc(%ebp),%ebx
    41ef:	83 c7 02             	add    $0x2,%edi
    41f2:	8a 1c 33             	mov    (%ebx,%esi,1),%bl
    41f5:	88 5d eb             	mov    %bl,-0x15(%ebp)
    41f8:	83 e3 c0             	and    $0xffffffc0,%ebx
    41fb:	80 fb 80             	cmp    $0x80,%bl
    41fe:	0f 85 ab 00 00 00    	jne    42af <str_cmp+0x20f>
    4204:	8b 5d ec             	mov    -0x14(%ebp),%ebx
    4207:	89 4d f0             	mov    %ecx,-0x10(%ebp)
    420a:	01 de                	add    %ebx,%esi
    420c:	89 55 ec             	mov    %edx,-0x14(%ebp)
    420f:	89 f1                	mov    %esi,%ecx
    4211:	8a 5d eb             	mov    -0x15(%ebp),%bl
    4214:	8b 75 0c             	mov    0xc(%ebp),%esi
    4217:	eb 15                	jmp    422e <str_cmp+0x18e>
    4219:	8d b4 26 00 00 00 00 	lea    0x0(%esi,%eiz,1),%esi
    4220:	8a 1c 3e             	mov    (%esi,%edi,1),%bl
    4223:	47                   	inc    %edi
    4224:	88 da                	mov    %bl,%dl
    4226:	83 e2 c0             	and    $0xffffffc0,%edx
    4229:	80 fa 80             	cmp    $0x80,%dl
    422c:	75 22                	jne    4250 <str_cmp+0x1b0>
    422e:	89 c2                	mov    %eax,%edx
    4230:	89 d8                	mov    %ebx,%eax
    4232:	c1 e2 06             	shl    $0x6,%edx
    4235:	83 e0 3f             	and    $0x3f,%eax
    4238:	09 d0                	or     %edx,%eax
    423a:	39 cf                	cmp    %ecx,%edi
    423c:	75 e2                	jne    4220 <str_cmp+0x180>
    423e:	8b 4d f0             	mov    -0x10(%ebp),%ecx
    4241:	8b 55 ec             	mov    -0x14(%ebp),%edx
    4244:	e9 83 fe ff ff       	jmp    40cc <str_cmp+0x2c>
    4249:	8d b4 26 00 00 00 00 	lea    0x0(%esi,%eiz,1),%esi
    4250:	8b 4d f0             	mov    -0x10(%ebp),%ecx
    4253:	8b 55 ec             	mov    -0x14(%ebp),%edx
    4256:	b8 3f 00 00 00       	mov    $0x3f,%eax
    425b:	e9 6c fe ff ff       	jmp    40cc <str_cmp+0x2c>
    4260:	b0 0f                	mov    $0xf,%al
    4262:	c7 45 ec 02 00 00 00 	movl   $0x2,-0x14(%ebp)
    4269:	e9 0c ff ff ff       	jmp    417a <str_cmp+0xda>
    426e:	b0 0f                	mov    $0xf,%al
    4270:	c7 45 ec 02 00 00 00 	movl   $0x2,-0x14(%ebp)
    4277:	e9 6a ff ff ff       	jmp    41e6 <str_cmp+0x146>
    427c:	83 c4 0c             	add    $0xc,%esp
    427f:	b8 01 00 00 00       	mov    $0x1,%eax
    4284:	5b                   	pop    %ebx
    4285:	5e                   	pop    %esi
    4286:	5f                   	pop    %edi
    4287:	5d                   	pop    %ebp
    4288:	c3                   	ret    
    4289:	83 c4 0c             	add    $0xc,%esp
    428c:	31 c0                	xor    %eax,%eax
    428e:	5b                   	pop    %ebx
    428f:	5e                   	pop    %esi
    4290:	5f                   	pop    %edi
    4291:	5d                   	pop    %ebp
    4292:	c3                   	ret    
    4293:	b0 07                	mov    $0x7,%al
    4295:	c7 45 ec 03 00 00 00 	movl   $0x3,-0x14(%ebp)
    429c:	e9 45 ff ff ff       	jmp    41e6 <str_cmp+0x146>
    42a1:	b0 07                	mov    $0x7,%al
    42a3:	c7 45 ec 03 00 00 00 	movl   $0x3,-0x14(%ebp)
    42aa:	e9 cb fe ff ff       	jmp    417a <str_cmp+0xda>
    42af:	b8 3f 00 00 00       	mov    $0x3f,%eax
    42b4:	e9 13 fe ff ff       	jmp    40cc <str_cmp+0x2c>
    42b9:	ba 3f 00 00 00       	mov    $0x3f,%edx
    42be:	e9 f7 fd ff ff       	jmp    40ba <str_cmp+0x1a>
    42c3:	8d b6 00 00 00 00    	lea    0x0(%esi),%esi
    42c9:	8d bc 27 00 00 00 00 	lea    0x0(%edi,%eiz,1),%edi

000042d0 <str_lcmp>:
    42d0:	55                   	push   %ebp
    42d1:	89 e5                	mov    %esp,%ebp
    42d3:	57                   	push   %edi
    42d4:	56                   	push   %esi
    42d5:	53                   	push   %ebx
    42d6:	83 ec 10             	sub    $0x10,%esp
    42d9:	8b 75 10             	mov    0x10(%ebp),%esi
    42dc:	85 f6                	test   %esi,%esi
    42de:	0f 84 ed 01 00 00    	je     44d1 <str_lcmp+0x201>
    42e4:	31 ff                	xor    %edi,%edi
    42e6:	31 f6                	xor    %esi,%esi
    42e8:	c7 45 f0 00 00 00 00 	movl   $0x0,-0x10(%ebp)
    42ef:	eb 4e                	jmp    433f <str_lcmp+0x6f>
    42f1:	8d b4 26 00 00 00 00 	lea    0x0(%esi,%eiz,1),%esi
    42f8:	89 de                	mov    %ebx,%esi
    42fa:	8b 4d 0c             	mov    0xc(%ebp),%ecx
    42fd:	8d 5f 01             	lea    0x1(%edi),%ebx
    4300:	0f be 04 39          	movsbl (%ecx,%edi,1),%eax
    4304:	84 c0                	test   %al,%al
    4306:	0f 88 7c 00 00 00    	js     4388 <str_lcmp+0xb8>
    430c:	89 df                	mov    %ebx,%edi
    430e:	39 c2                	cmp    %eax,%edx
    4310:	0f 8c ab 00 00 00    	jl     43c1 <str_lcmp+0xf1>
    4316:	0f 8f db 01 00 00    	jg     44f7 <str_lcmp+0x227>
    431c:	85 c0                	test   %eax,%eax
    431e:	0f 84 ad 01 00 00    	je     44d1 <str_lcmp+0x201>
    4324:	85 d2                	test   %edx,%edx
    4326:	0f 84 a5 01 00 00    	je     44d1 <str_lcmp+0x201>
    432c:	8b 5d f0             	mov    -0x10(%ebp),%ebx
    432f:	8b 45 10             	mov    0x10(%ebp),%eax
    4332:	43                   	inc    %ebx
    4333:	89 5d f0             	mov    %ebx,-0x10(%ebp)
    4336:	39 45 f0             	cmp    %eax,-0x10(%ebp)
    4339:	0f 84 92 01 00 00    	je     44d1 <str_lcmp+0x201>
    433f:	8b 45 08             	mov    0x8(%ebp),%eax
    4342:	8d 5e 01             	lea    0x1(%esi),%ebx
    4345:	0f be 14 30          	movsbl (%eax,%esi,1),%edx
    4349:	84 d2                	test   %dl,%dl
    434b:	79 ab                	jns    42f8 <str_lcmp+0x28>
    434d:	88 d0                	mov    %dl,%al
    434f:	83 e0 e0             	and    $0xffffffe0,%eax
    4352:	3c c0                	cmp    $0xc0,%al
    4354:	74 76                	je     43cc <str_lcmp+0xfc>
    4356:	88 d0                	mov    %dl,%al
    4358:	83 e0 f0             	and    $0xfffffff0,%eax
    435b:	3c e0                	cmp    $0xe0,%al
    435d:	0f 84 60 01 00 00    	je     44c3 <str_lcmp+0x1f3>
    4363:	88 d0                	mov    %dl,%al
    4365:	83 e0 f8             	and    $0xfffffff8,%eax
    4368:	3c f0                	cmp    $0xf0,%al
    436a:	0f 84 6b 01 00 00    	je     44db <str_lcmp+0x20b>
    4370:	8b 4d 0c             	mov    0xc(%ebp),%ecx
    4373:	89 de                	mov    %ebx,%esi
    4375:	ba 3f 00 00 00       	mov    $0x3f,%edx
    437a:	8d 5f 01             	lea    0x1(%edi),%ebx
    437d:	0f be 04 39          	movsbl (%ecx,%edi,1),%eax
    4381:	84 c0                	test   %al,%al
    4383:	79 87                	jns    430c <str_lcmp+0x3c>
    4385:	8d 76 00             	lea    0x0(%esi),%esi
    4388:	88 c1                	mov    %al,%cl
    438a:	83 e1 e0             	and    $0xffffffe0,%ecx
    438d:	80 f9 c0             	cmp    $0xc0,%cl
    4390:	0f 84 a7 00 00 00    	je     443d <str_lcmp+0x16d>
    4396:	88 c1                	mov    %al,%cl
    4398:	83 e1 f0             	and    $0xfffffff0,%ecx
    439b:	80 f9 e0             	cmp    $0xe0,%cl
    439e:	0f 84 14 01 00 00    	je     44b8 <str_lcmp+0x1e8>
    43a4:	88 c1                	mov    %al,%cl
    43a6:	83 e1 f8             	and    $0xfffffff8,%ecx
    43a9:	80 f9 f0             	cmp    $0xf0,%cl
    43ac:	0f 84 37 01 00 00    	je     44e9 <str_lcmp+0x219>
    43b2:	b8 3f 00 00 00       	mov    $0x3f,%eax
    43b7:	89 df                	mov    %ebx,%edi
    43b9:	39 c2                	cmp    %eax,%edx
    43bb:	0f 8d 55 ff ff ff    	jge    4316 <str_lcmp+0x46>
    43c1:	83 c4 10             	add    $0x10,%esp
    43c4:	83 c8 ff             	or     $0xffffffff,%eax
    43c7:	5b                   	pop    %ebx
    43c8:	5e                   	pop    %esi
    43c9:	5f                   	pop    %edi
    43ca:	5d                   	pop    %ebp
    43cb:	c3                   	ret    
    43cc:	b0 1f                	mov    $0x1f,%al
    43ce:	c7 45 e8 01 00 00 00 	movl   $0x1,-0x18(%ebp)
    43d5:	8b 4d 08             	mov    0x8(%ebp),%ecx
    43d8:	21 c2                	and    %eax,%edx
    43da:	81 e2 ff 00 00 00    	and    $0xff,%edx
    43e0:	83 c6 02             	add    $0x2,%esi
    43e3:	8a 04 19             	mov    (%ecx,%ebx,1),%al
    43e6:	88 c1                	mov    %al,%cl
    43e8:	83 e1 c0             	and    $0xffffffc0,%ecx
    43eb:	80 f9 80             	cmp    $0x80,%cl
    43ee:	0f 85 10 01 00 00    	jne    4504 <str_lcmp+0x234>
    43f4:	8b 4d e8             	mov    -0x18(%ebp),%ecx
    43f7:	89 7d ec             	mov    %edi,-0x14(%ebp)
    43fa:	01 cb                	add    %ecx,%ebx
    43fc:	8b 7d 08             	mov    0x8(%ebp),%edi
    43ff:	eb 15                	jmp    4416 <str_lcmp+0x146>
    4401:	8d b4 26 00 00 00 00 	lea    0x0(%esi,%eiz,1),%esi
    4408:	8a 04 37             	mov    (%edi,%esi,1),%al
    440b:	46                   	inc    %esi
    440c:	88 c1                	mov    %al,%cl
    440e:	83 e1 c0             	and    $0xffffffc0,%ecx
    4411:	80 f9 80             	cmp    $0x80,%cl
    4414:	75 1a                	jne    4430 <str_lcmp+0x160>
    4416:	89 d1                	mov    %edx,%ecx
    4418:	89 c2                	mov    %eax,%edx
    441a:	c1 e1 06             	shl    $0x6,%ecx
    441d:	83 e2 3f             	and    $0x3f,%edx
    4420:	09 ca                	or     %ecx,%edx
    4422:	39 de                	cmp    %ebx,%esi
    4424:	75 e2                	jne    4408 <str_lcmp+0x138>
    4426:	8b 7d ec             	mov    -0x14(%ebp),%edi
    4429:	e9 cc fe ff ff       	jmp    42fa <str_lcmp+0x2a>
    442e:	66 90                	xchg   %ax,%ax
    4430:	8b 7d ec             	mov    -0x14(%ebp),%edi
    4433:	ba 3f 00 00 00       	mov    $0x3f,%edx
    4438:	e9 bd fe ff ff       	jmp    42fa <str_lcmp+0x2a>
    443d:	b1 1f                	mov    $0x1f,%cl
    443f:	c7 45 e8 01 00 00 00 	movl   $0x1,-0x18(%ebp)
    4446:	21 c8                	and    %ecx,%eax
    4448:	8b 4d 0c             	mov    0xc(%ebp),%ecx
    444b:	25 ff 00 00 00       	and    $0xff,%eax
    4450:	83 c7 02             	add    $0x2,%edi
    4453:	8a 0c 19             	mov    (%ecx,%ebx,1),%cl
    4456:	88 4d e7             	mov    %cl,-0x19(%ebp)
    4459:	83 e1 c0             	and    $0xffffffc0,%ecx
    445c:	80 f9 80             	cmp    $0x80,%cl
    445f:	0f 85 a9 00 00 00    	jne    450e <str_lcmp+0x23e>
    4465:	8b 4d e8             	mov    -0x18(%ebp),%ecx
    4468:	89 75 ec             	mov    %esi,-0x14(%ebp)
    446b:	01 cb                	add    %ecx,%ebx
    446d:	89 55 e8             	mov    %edx,-0x18(%ebp)
    4470:	8a 4d e7             	mov    -0x19(%ebp),%cl
    4473:	8b 75 0c             	mov    0xc(%ebp),%esi
    4476:	eb 0e                	jmp    4486 <str_lcmp+0x1b6>
    4478:	8a 0c 3e             	mov    (%esi,%edi,1),%cl
    447b:	47                   	inc    %edi
    447c:	88 ca                	mov    %cl,%dl
    447e:	83 e2 c0             	and    $0xffffffc0,%edx
    4481:	80 fa 80             	cmp    $0x80,%dl
    4484:	75 22                	jne    44a8 <str_lcmp+0x1d8>
    4486:	89 c2                	mov    %eax,%edx
    4488:	89 c8                	mov    %ecx,%eax
    448a:	c1 e2 06             	shl    $0x6,%edx
    448d:	83 e0 3f             	and    $0x3f,%eax
    4490:	09 d0                	or     %edx,%eax
    4492:	39 df                	cmp    %ebx,%edi
    4494:	75 e2                	jne    4478 <str_lcmp+0x1a8>
    4496:	8b 75 ec             	mov    -0x14(%ebp),%esi
    4499:	8b 55 e8             	mov    -0x18(%ebp),%edx
    449c:	e9 6d fe ff ff       	jmp    430e <str_lcmp+0x3e>
    44a1:	8d b4 26 00 00 00 00 	lea    0x0(%esi,%eiz,1),%esi
    44a8:	8b 75 ec             	mov    -0x14(%ebp),%esi
    44ab:	8b 55 e8             	mov    -0x18(%ebp),%edx
    44ae:	b8 3f 00 00 00       	mov    $0x3f,%eax
    44b3:	e9 56 fe ff ff       	jmp    430e <str_lcmp+0x3e>
    44b8:	b1 0f                	mov    $0xf,%cl
    44ba:	c7 45 e8 02 00 00 00 	movl   $0x2,-0x18(%ebp)
    44c1:	eb 83                	jmp    4446 <str_lcmp+0x176>
    44c3:	b0 0f                	mov    $0xf,%al
    44c5:	c7 45 e8 02 00 00 00 	movl   $0x2,-0x18(%ebp)
    44cc:	e9 04 ff ff ff       	jmp    43d5 <str_lcmp+0x105>
    44d1:	83 c4 10             	add    $0x10,%esp
    44d4:	31 c0                	xor    %eax,%eax
    44d6:	5b                   	pop    %ebx
    44d7:	5e                   	pop    %esi
    44d8:	5f                   	pop    %edi
    44d9:	5d                   	pop    %ebp
    44da:	c3                   	ret    
    44db:	b0 07                	mov    $0x7,%al
    44dd:	c7 45 e8 03 00 00 00 	movl   $0x3,-0x18(%ebp)
    44e4:	e9 ec fe ff ff       	jmp    43d5 <str_lcmp+0x105>
    44e9:	b1 07                	mov    $0x7,%cl
    44eb:	c7 45 e8 03 00 00 00 	movl   $0x3,-0x18(%ebp)
    44f2:	e9 4f ff ff ff       	jmp    4446 <str_lcmp+0x176>
    44f7:	83 c4 10             	add    $0x10,%esp
    44fa:	b8 01 00 00 00       	mov    $0x1,%eax
    44ff:	5b                   	pop    %ebx
    4500:	5e                   	pop    %esi
    4501:	5f                   	pop    %edi
    4502:	5d                   	pop    %ebp
    4503:	c3                   	ret    
    4504:	ba 3f 00 00 00       	mov    $0x3f,%edx
    4509:	e9 ec fd ff ff       	jmp    42fa <str_lcmp+0x2a>
    450e:	b8 3f 00 00 00       	mov    $0x3f,%eax
    4513:	e9 f6 fd ff ff       	jmp    430e <str_lcmp+0x3e>
    4518:	90                   	nop
    4519:	8d b4 26 00 00 00 00 	lea    0x0(%esi,%eiz,1),%esi

00004520 <str_test_prefix>:
    4520:	55                   	push   %ebp
    4521:	31 c9                	xor    %ecx,%ecx
    4523:	89 e5                	mov    %esp,%ebp
    4525:	57                   	push   %edi
    4526:	56                   	push   %esi
    4527:	31 f6                	xor    %esi,%esi
    4529:	53                   	push   %ebx
    452a:	89 f7                	mov    %esi,%edi
    452c:	83 ec 0c             	sub    $0xc,%esp
    452f:	eb 27                	jmp    4558 <str_test_prefix+0x38>
    4531:	8d b4 26 00 00 00 00 	lea    0x0(%esi,%eiz,1),%esi
    4538:	89 f1                	mov    %esi,%ecx
    453a:	8b 45 0c             	mov    0xc(%ebp),%eax
    453d:	8d 77 01             	lea    0x1(%edi),%esi
    4540:	8a 1c 38             	mov    (%eax,%edi,1),%bl
    4543:	84 db                	test   %bl,%bl
    4545:	78 59                	js     45a0 <str_test_prefix+0x80>
    4547:	0f be c3             	movsbl %bl,%eax
    454a:	89 f7                	mov    %esi,%edi
    454c:	85 c0                	test   %eax,%eax
    454e:	0f 84 68 01 00 00    	je     46bc <str_test_prefix+0x19c>
    4554:	39 c2                	cmp    %eax,%edx
    4556:	75 7a                	jne    45d2 <str_test_prefix+0xb2>
    4558:	8b 45 08             	mov    0x8(%ebp),%eax
    455b:	8d 71 01             	lea    0x1(%ecx),%esi
    455e:	0f be 14 08          	movsbl (%eax,%ecx,1),%edx
    4562:	84 d2                	test   %dl,%dl
    4564:	79 d2                	jns    4538 <str_test_prefix+0x18>
    4566:	88 d0                	mov    %dl,%al
    4568:	83 e0 e0             	and    $0xffffffe0,%eax
    456b:	3c c0                	cmp    $0xc0,%al
    456d:	74 6d                	je     45dc <str_test_prefix+0xbc>
    456f:	88 d0                	mov    %dl,%al
    4571:	83 e0 f0             	and    $0xfffffff0,%eax
    4574:	3c e0                	cmp    $0xe0,%al
    4576:	0f 84 57 01 00 00    	je     46d3 <str_test_prefix+0x1b3>
    457c:	88 d0                	mov    %dl,%al
    457e:	83 e0 f8             	and    $0xfffffff8,%eax
    4581:	3c f0                	cmp    $0xf0,%al
    4583:	0f 84 66 01 00 00    	je     46ef <str_test_prefix+0x1cf>
    4589:	8b 45 0c             	mov    0xc(%ebp),%eax
    458c:	89 f1                	mov    %esi,%ecx
    458e:	ba 3f 00 00 00       	mov    $0x3f,%edx
    4593:	8d 77 01             	lea    0x1(%edi),%esi
    4596:	8a 1c 38             	mov    (%eax,%edi,1),%bl
    4599:	84 db                	test   %bl,%bl
    459b:	79 aa                	jns    4547 <str_test_prefix+0x27>
    459d:	8d 76 00             	lea    0x0(%esi),%esi
    45a0:	88 d8                	mov    %bl,%al
    45a2:	83 e0 e0             	and    $0xffffffe0,%eax
    45a5:	3c c0                	cmp    $0xc0,%al
    45a7:	0f 84 a0 00 00 00    	je     464d <str_test_prefix+0x12d>
    45ad:	88 d8                	mov    %bl,%al
    45af:	83 e0 f0             	and    $0xfffffff0,%eax
    45b2:	3c e0                	cmp    $0xe0,%al
    45b4:	0f 84 27 01 00 00    	je     46e1 <str_test_prefix+0x1c1>
    45ba:	88 d8                	mov    %bl,%al
    45bc:	83 e0 f8             	and    $0xfffffff8,%eax
    45bf:	3c f0                	cmp    $0xf0,%al
    45c1:	0f 84 36 01 00 00    	je     46fd <str_test_prefix+0x1dd>
    45c7:	89 f7                	mov    %esi,%edi
    45c9:	b8 3f 00 00 00       	mov    $0x3f,%eax
    45ce:	39 c2                	cmp    %eax,%edx
    45d0:	74 86                	je     4558 <str_test_prefix+0x38>
    45d2:	83 c4 0c             	add    $0xc,%esp
    45d5:	31 c0                	xor    %eax,%eax
    45d7:	5b                   	pop    %ebx
    45d8:	5e                   	pop    %esi
    45d9:	5f                   	pop    %edi
    45da:	5d                   	pop    %ebp
    45db:	c3                   	ret    
    45dc:	b0 1f                	mov    $0x1f,%al
    45de:	c7 45 ec 01 00 00 00 	movl   $0x1,-0x14(%ebp)
    45e5:	8b 5d 08             	mov    0x8(%ebp),%ebx
    45e8:	21 c2                	and    %eax,%edx
    45ea:	81 e2 ff 00 00 00    	and    $0xff,%edx
    45f0:	83 c1 02             	add    $0x2,%ecx
    45f3:	8a 04 33             	mov    (%ebx,%esi,1),%al
    45f6:	88 c3                	mov    %al,%bl
    45f8:	83 e3 c0             	and    $0xffffffc0,%ebx
    45fb:	80 fb 80             	cmp    $0x80,%bl
    45fe:	0f 85 07 01 00 00    	jne    470b <str_test_prefix+0x1eb>
    4604:	8b 5d ec             	mov    -0x14(%ebp),%ebx
    4607:	89 7d f0             	mov    %edi,-0x10(%ebp)
    460a:	01 de                	add    %ebx,%esi
    460c:	8b 7d 08             	mov    0x8(%ebp),%edi
    460f:	eb 15                	jmp    4626 <str_test_prefix+0x106>
    4611:	8d b4 26 00 00 00 00 	lea    0x0(%esi,%eiz,1),%esi
    4618:	8a 04 0f             	mov    (%edi,%ecx,1),%al
    461b:	41                   	inc    %ecx
    461c:	88 c3                	mov    %al,%bl
    461e:	83 e3 c0             	and    $0xffffffc0,%ebx
    4621:	80 fb 80             	cmp    $0x80,%bl
    4624:	75 1a                	jne    4640 <str_test_prefix+0x120>
    4626:	89 d3                	mov    %edx,%ebx
    4628:	89 c2                	mov    %eax,%edx
    462a:	c1 e3 06             	shl    $0x6,%ebx
    462d:	83 e2 3f             	and    $0x3f,%edx
    4630:	09 da                	or     %ebx,%edx
    4632:	39 f1                	cmp    %esi,%ecx
    4634:	75 e2                	jne    4618 <str_test_prefix+0xf8>
    4636:	8b 7d f0             	mov    -0x10(%ebp),%edi
    4639:	e9 fc fe ff ff       	jmp    453a <str_test_prefix+0x1a>
    463e:	66 90                	xchg   %ax,%ax
    4640:	8b 7d f0             	mov    -0x10(%ebp),%edi
    4643:	ba 3f 00 00 00       	mov    $0x3f,%edx
    4648:	e9 ed fe ff ff       	jmp    453a <str_test_prefix+0x1a>
    464d:	b0 1f                	mov    $0x1f,%al
    464f:	c7 45 ec 01 00 00 00 	movl   $0x1,-0x14(%ebp)
    4656:	21 c3                	and    %eax,%ebx
    4658:	31 c0                	xor    %eax,%eax
    465a:	88 d8                	mov    %bl,%al
    465c:	8b 5d 0c             	mov    0xc(%ebp),%ebx
    465f:	83 c7 02             	add    $0x2,%edi
    4662:	8a 1c 33             	mov    (%ebx,%esi,1),%bl
    4665:	88 5d eb             	mov    %bl,-0x15(%ebp)
    4668:	83 e3 c0             	and    $0xffffffc0,%ebx
    466b:	80 fb 80             	cmp    $0x80,%bl
    466e:	0f 85 55 ff ff ff    	jne    45c9 <str_test_prefix+0xa9>
    4674:	8b 5d ec             	mov    -0x14(%ebp),%ebx
    4677:	89 4d f0             	mov    %ecx,-0x10(%ebp)
    467a:	01 de                	add    %ebx,%esi
    467c:	89 55 ec             	mov    %edx,-0x14(%ebp)
    467f:	89 f1                	mov    %esi,%ecx
    4681:	8a 5d eb             	mov    -0x15(%ebp),%bl
    4684:	8b 75 0c             	mov    0xc(%ebp),%esi
    4687:	eb 15                	jmp    469e <str_test_prefix+0x17e>
    4689:	8d b4 26 00 00 00 00 	lea    0x0(%esi,%eiz,1),%esi
    4690:	8a 1c 3e             	mov    (%esi,%edi,1),%bl
    4693:	47                   	inc    %edi
    4694:	88 da                	mov    %bl,%dl
    4696:	83 e2 c0             	and    $0xffffffc0,%edx
    4699:	80 fa 80             	cmp    $0x80,%dl
    469c:	75 2a                	jne    46c8 <str_test_prefix+0x1a8>
    469e:	89 c2                	mov    %eax,%edx
    46a0:	89 d8                	mov    %ebx,%eax
    46a2:	c1 e2 06             	shl    $0x6,%edx
    46a5:	83 e0 3f             	and    $0x3f,%eax
    46a8:	09 d0                	or     %edx,%eax
    46aa:	39 cf                	cmp    %ecx,%edi
    46ac:	75 e2                	jne    4690 <str_test_prefix+0x170>
    46ae:	8b 4d f0             	mov    -0x10(%ebp),%ecx
    46b1:	8b 55 ec             	mov    -0x14(%ebp),%edx
    46b4:	85 c0                	test   %eax,%eax
    46b6:	0f 85 98 fe ff ff    	jne    4554 <str_test_prefix+0x34>
    46bc:	83 c4 0c             	add    $0xc,%esp
    46bf:	b0 01                	mov    $0x1,%al
    46c1:	5b                   	pop    %ebx
    46c2:	5e                   	pop    %esi
    46c3:	5f                   	pop    %edi
    46c4:	5d                   	pop    %ebp
    46c5:	c3                   	ret    
    46c6:	66 90                	xchg   %ax,%ax
    46c8:	8b 4d f0             	mov    -0x10(%ebp),%ecx
    46cb:	8b 55 ec             	mov    -0x14(%ebp),%edx
    46ce:	e9 f6 fe ff ff       	jmp    45c9 <str_test_prefix+0xa9>
    46d3:	b0 0f                	mov    $0xf,%al
    46d5:	c7 45 ec 02 00 00 00 	movl   $0x2,-0x14(%ebp)
    46dc:	e9 04 ff ff ff       	jmp    45e5 <str_test_prefix+0xc5>
    46e1:	b0 0f                	mov    $0xf,%al
    46e3:	c7 45 ec 02 00 00 00 	movl   $0x2,-0x14(%ebp)
    46ea:	e9 67 ff ff ff       	jmp    4656 <str_test_prefix+0x136>
    46ef:	b0 07                	mov    $0x7,%al
    46f1:	c7 45 ec 03 00 00 00 	movl   $0x3,-0x14(%ebp)
    46f8:	e9 e8 fe ff ff       	jmp    45e5 <str_test_prefix+0xc5>
    46fd:	b0 07                	mov    $0x7,%al
    46ff:	c7 45 ec 03 00 00 00 	movl   $0x3,-0x14(%ebp)
    4706:	e9 4b ff ff ff       	jmp    4656 <str_test_prefix+0x136>
    470b:	ba 3f 00 00 00       	mov    $0x3f,%edx
    4710:	e9 25 fe ff ff       	jmp    453a <str_test_prefix+0x1a>
    4715:	8d 74 26 00          	lea    0x0(%esi,%eiz,1),%esi
    4719:	8d bc 27 00 00 00 00 	lea    0x0(%edi,%eiz,1),%edi

00004720 <str_cpy>:
    4720:	55                   	push   %ebp
    4721:	89 e5                	mov    %esp,%ebp
    4723:	57                   	push   %edi
    4724:	56                   	push   %esi
    4725:	53                   	push   %ebx
    4726:	83 ec 4c             	sub    $0x4c,%esp
    4729:	8b 45 0c             	mov    0xc(%ebp),%eax
    472c:	8b 7d 10             	mov    0x10(%ebp),%edi
    472f:	85 c0                	test   %eax,%eax
    4731:	0f 84 ae 01 00 00    	je     48e5 <str_cpy+0x1c5>
    4737:	31 f6                	xor    %esi,%esi
    4739:	48                   	dec    %eax
    473a:	c7 45 e4 00 00 00 00 	movl   $0x0,-0x1c(%ebp)
    4741:	89 45 e0             	mov    %eax,-0x20(%ebp)
    4744:	0f be 0c 37          	movsbl (%edi,%esi,1),%ecx
    4748:	8d 56 01             	lea    0x1(%esi),%edx
    474b:	84 c9                	test   %cl,%cl
    474d:	78 5e                	js     47ad <str_cpy+0x8d>
    474f:	90                   	nop
    4750:	89 d6                	mov    %edx,%esi
    4752:	85 c9                	test   %ecx,%ecx
    4754:	0f 84 8e 00 00 00    	je     47e8 <str_cpy+0xc8>
    475a:	8b 45 e4             	mov    -0x1c(%ebp),%eax
    475d:	39 45 e0             	cmp    %eax,-0x20(%ebp)
    4760:	0f 86 82 00 00 00    	jbe    47e8 <str_cpy+0xc8>
    4766:	81 f9 ff ff 10 00    	cmp    $0x10ffff,%ecx
    476c:	77 7a                	ja     47e8 <str_cpy+0xc8>
    476e:	f7 c1 80 ff ff ff    	test   $0xffffff80,%ecx
    4774:	0f 85 86 00 00 00    	jne    4800 <str_cpy+0xe0>
    477a:	8b 45 e4             	mov    -0x1c(%ebp),%eax
    477d:	c6 45 b8 00          	movb   $0x0,-0x48(%ebp)
    4781:	89 45 dc             	mov    %eax,-0x24(%ebp)
    4784:	c6 45 c8 7f          	movb   $0x7f,-0x38(%ebp)
    4788:	8b 45 c8             	mov    -0x38(%ebp),%eax
    478b:	8b 55 08             	mov    0x8(%ebp),%edx
    478e:	21 c1                	and    %eax,%ecx
    4790:	8b 45 b8             	mov    -0x48(%ebp),%eax
    4793:	09 c1                	or     %eax,%ecx
    4795:	8b 45 e4             	mov    -0x1c(%ebp),%eax
    4798:	8b 5d dc             	mov    -0x24(%ebp),%ebx
    479b:	88 0c 02             	mov    %cl,(%edx,%eax,1)
    479e:	43                   	inc    %ebx
    479f:	0f be 0c 37          	movsbl (%edi,%esi,1),%ecx
    47a3:	89 5d e4             	mov    %ebx,-0x1c(%ebp)
    47a6:	8d 56 01             	lea    0x1(%esi),%edx
    47a9:	84 c9                	test   %cl,%cl
    47ab:	79 a3                	jns    4750 <str_cpy+0x30>
    47ad:	88 c8                	mov    %cl,%al
    47af:	83 e0 e0             	and    $0xffffffe0,%eax
    47b2:	3c c0                	cmp    $0xc0,%al
    47b4:	0f 84 bd 00 00 00    	je     4877 <str_cpy+0x157>
    47ba:	88 c8                	mov    %cl,%al
    47bc:	83 e0 f0             	and    $0xfffffff0,%eax
    47bf:	3c e0                	cmp    $0xe0,%al
    47c1:	0f 84 08 01 00 00    	je     48cf <str_cpy+0x1af>
    47c7:	88 c8                	mov    %cl,%al
    47c9:	83 e0 f8             	and    $0xfffffff8,%eax
    47cc:	3c f0                	cmp    $0xf0,%al
    47ce:	0f 84 06 01 00 00    	je     48da <str_cpy+0x1ba>
    47d4:	89 d6                	mov    %edx,%esi
    47d6:	8b 45 e4             	mov    -0x1c(%ebp),%eax
    47d9:	b9 3f 00 00 00       	mov    $0x3f,%ecx
    47de:	39 45 e0             	cmp    %eax,-0x20(%ebp)
    47e1:	0f 87 7f ff ff ff    	ja     4766 <str_cpy+0x46>
    47e7:	90                   	nop
    47e8:	8b 5d 08             	mov    0x8(%ebp),%ebx
    47eb:	8b 55 e4             	mov    -0x1c(%ebp),%edx
    47ee:	c6 04 13 00          	movb   $0x0,(%ebx,%edx,1)
    47f2:	83 c4 4c             	add    $0x4c,%esp
    47f5:	5b                   	pop    %ebx
    47f6:	5e                   	pop    %esi
    47f7:	5f                   	pop    %edi
    47f8:	5d                   	pop    %ebp
    47f9:	c3                   	ret    
    47fa:	8d b6 00 00 00 00    	lea    0x0(%esi),%esi
    4800:	f7 c1 00 f8 ff ff    	test   $0xfffff800,%ecx
    4806:	74 60                	je     4868 <str_cpy+0x148>
    4808:	89 c8                	mov    %ecx,%eax
    480a:	25 00 00 ff ff       	and    $0xffff0000,%eax
    480f:	83 f8 01             	cmp    $0x1,%eax
    4812:	19 d2                	sbb    %edx,%edx
    4814:	83 e2 f0             	and    $0xfffffff0,%edx
    4817:	83 ea 10             	sub    $0x10,%edx
    481a:	83 f8 01             	cmp    $0x1,%eax
    481d:	19 db                	sbb    %ebx,%ebx
    481f:	88 55 b8             	mov    %dl,-0x48(%ebp)
    4822:	83 e3 08             	and    $0x8,%ebx
    4825:	83 c3 07             	add    $0x7,%ebx
    4828:	83 f8 01             	cmp    $0x1,%eax
    482b:	19 c0                	sbb    %eax,%eax
    482d:	88 5d c8             	mov    %bl,-0x38(%ebp)
    4830:	83 c0 03             	add    $0x3,%eax
    4833:	8b 55 e4             	mov    -0x1c(%ebp),%edx
    4836:	01 c2                	add    %eax,%edx
    4838:	89 55 dc             	mov    %edx,-0x24(%ebp)
    483b:	39 55 e0             	cmp    %edx,-0x20(%ebp)
    483e:	76 a8                	jbe    47e8 <str_cpy+0xc8>
    4840:	8b 55 08             	mov    0x8(%ebp),%edx
    4843:	8b 5d e4             	mov    -0x1c(%ebp),%ebx
    4846:	8d 1c 1a             	lea    (%edx,%ebx,1),%ebx
    4849:	89 5d d8             	mov    %ebx,-0x28(%ebp)
    484c:	8d 74 26 00          	lea    0x0(%esi,%eiz,1),%esi
    4850:	89 ca                	mov    %ecx,%edx
    4852:	c1 e9 06             	shr    $0x6,%ecx
    4855:	83 e2 3f             	and    $0x3f,%edx
    4858:	80 ca 80             	or     $0x80,%dl
    485b:	88 14 03             	mov    %dl,(%ebx,%eax,1)
    485e:	48                   	dec    %eax
    485f:	75 ef                	jne    4850 <str_cpy+0x130>
    4861:	e9 22 ff ff ff       	jmp    4788 <str_cpy+0x68>
    4866:	66 90                	xchg   %ax,%ax
    4868:	c6 45 b8 c0          	movb   $0xc0,-0x48(%ebp)
    486c:	c6 45 c8 1f          	movb   $0x1f,-0x38(%ebp)
    4870:	b8 01 00 00 00       	mov    $0x1,%eax
    4875:	eb bc                	jmp    4833 <str_cpy+0x113>
    4877:	b0 1f                	mov    $0x1f,%al
    4879:	c7 45 dc 01 00 00 00 	movl   $0x1,-0x24(%ebp)
    4880:	21 c1                	and    %eax,%ecx
    4882:	8a 04 17             	mov    (%edi,%edx,1),%al
    4885:	88 c3                	mov    %al,%bl
    4887:	81 e1 ff 00 00 00    	and    $0xff,%ecx
    488d:	83 e3 c0             	and    $0xffffffc0,%ebx
    4890:	83 c6 02             	add    $0x2,%esi
    4893:	80 fb 80             	cmp    $0x80,%bl
    4896:	0f 85 3a ff ff ff    	jne    47d6 <str_cpy+0xb6>
    489c:	8b 5d dc             	mov    -0x24(%ebp),%ebx
    489f:	01 da                	add    %ebx,%edx
    48a1:	eb 17                	jmp    48ba <str_cpy+0x19a>
    48a3:	90                   	nop
    48a4:	8d 74 26 00          	lea    0x0(%esi,%eiz,1),%esi
    48a8:	8a 04 37             	mov    (%edi,%esi,1),%al
    48ab:	46                   	inc    %esi
    48ac:	88 c3                	mov    %al,%bl
    48ae:	83 e3 c0             	and    $0xffffffc0,%ebx
    48b1:	80 fb 80             	cmp    $0x80,%bl
    48b4:	0f 85 1c ff ff ff    	jne    47d6 <str_cpy+0xb6>
    48ba:	89 cb                	mov    %ecx,%ebx
    48bc:	89 c1                	mov    %eax,%ecx
    48be:	c1 e3 06             	shl    $0x6,%ebx
    48c1:	83 e1 3f             	and    $0x3f,%ecx
    48c4:	09 d9                	or     %ebx,%ecx
    48c6:	39 d6                	cmp    %edx,%esi
    48c8:	75 de                	jne    48a8 <str_cpy+0x188>
    48ca:	e9 83 fe ff ff       	jmp    4752 <str_cpy+0x32>
    48cf:	b0 0f                	mov    $0xf,%al
    48d1:	c7 45 dc 02 00 00 00 	movl   $0x2,-0x24(%ebp)
    48d8:	eb a6                	jmp    4880 <str_cpy+0x160>
    48da:	b0 07                	mov    $0x7,%al
    48dc:	c7 45 dc 03 00 00 00 	movl   $0x3,-0x24(%ebp)
    48e3:	eb 9b                	jmp    4880 <str_cpy+0x160>
    48e5:	c7 44 24 08 88 02 00 	movl   $0x288,0x8(%esp)
    48ec:	00 
    48ed:	c7 44 24 04 a6 fa 01 	movl   $0x1faa6,0x4(%esp)
    48f4:	00 
    48f5:	c7 04 24 f2 05 02 00 	movl   $0x205f2,(%esp)
    48fc:	e8 af 5b 01 00       	call   1a4b0 <assert_abort>
    4901:	eb 0d                	jmp    4910 <str_ncpy>
    4903:	90                   	nop
    4904:	90                   	nop
    4905:	90                   	nop
    4906:	90                   	nop
    4907:	90                   	nop
    4908:	90                   	nop
    4909:	90                   	nop
    490a:	90                   	nop
    490b:	90                   	nop
    490c:	90                   	nop
    490d:	90                   	nop
    490e:	90                   	nop
    490f:	90                   	nop

00004910 <str_ncpy>:
    4910:	55                   	push   %ebp
    4911:	89 e5                	mov    %esp,%ebp
    4913:	57                   	push   %edi
    4914:	56                   	push   %esi
    4915:	53                   	push   %ebx
    4916:	83 ec 4c             	sub    $0x4c,%esp
    4919:	8b 45 0c             	mov    0xc(%ebp),%eax
    491c:	8b 7d 10             	mov    0x10(%ebp),%edi
    491f:	85 c0                	test   %eax,%eax
    4921:	0f 84 f7 01 00 00    	je     4b1e <str_ncpy+0x20e>
    4927:	8b 55 14             	mov    0x14(%ebp),%edx
    492a:	c7 45 e4 00 00 00 00 	movl   $0x0,-0x1c(%ebp)
    4931:	85 d2                	test   %edx,%edx
    4933:	74 42                	je     4977 <str_ncpy+0x67>
    4935:	31 f6                	xor    %esi,%esi
    4937:	48                   	dec    %eax
    4938:	89 45 e0             	mov    %eax,-0x20(%ebp)
    493b:	ba 01 00 00 00       	mov    $0x1,%edx
    4940:	8a 04 37             	mov    (%edi,%esi,1),%al
    4943:	84 c0                	test   %al,%al
    4945:	0f 88 92 00 00 00    	js     49dd <str_ncpy+0xcd>
    494b:	90                   	nop
    494c:	8d 74 26 00          	lea    0x0(%esi,%eiz,1),%esi
    4950:	b1 7f                	mov    $0x7f,%cl
    4952:	31 f6                	xor    %esi,%esi
    4954:	8d 1c 16             	lea    (%esi,%edx,1),%ebx
    4957:	39 5d 14             	cmp    %ebx,0x14(%ebp)
    495a:	0f 83 c0 00 00 00    	jae    4a20 <str_ncpy+0x110>
    4960:	89 d6                	mov    %edx,%esi
    4962:	b9 3f 00 00 00       	mov    $0x3f,%ecx
    4967:	8b 45 e0             	mov    -0x20(%ebp),%eax
    496a:	39 45 e4             	cmp    %eax,-0x1c(%ebp)
    496d:	73 08                	jae    4977 <str_ncpy+0x67>
    496f:	81 f9 ff ff 10 00    	cmp    $0x10ffff,%ecx
    4975:	76 19                	jbe    4990 <str_ncpy+0x80>
    4977:	8b 55 08             	mov    0x8(%ebp),%edx
    497a:	8b 45 e4             	mov    -0x1c(%ebp),%eax
    497d:	c6 04 02 00          	movb   $0x0,(%edx,%eax,1)
    4981:	83 c4 4c             	add    $0x4c,%esp
    4984:	5b                   	pop    %ebx
    4985:	5e                   	pop    %esi
    4986:	5f                   	pop    %edi
    4987:	5d                   	pop    %ebp
    4988:	c3                   	ret    
    4989:	8d b4 26 00 00 00 00 	lea    0x0(%esi,%eiz,1),%esi
    4990:	f7 c1 80 ff ff ff    	test   $0xffffff80,%ecx
    4996:	0f 85 dc 00 00 00    	jne    4a78 <str_ncpy+0x168>
    499c:	8b 5d e4             	mov    -0x1c(%ebp),%ebx
    499f:	c6 45 c8 00          	movb   $0x0,-0x38(%ebp)
    49a3:	89 5d dc             	mov    %ebx,-0x24(%ebp)
    49a6:	c6 45 b8 7f          	movb   $0x7f,-0x48(%ebp)
    49aa:	8d b6 00 00 00 00    	lea    0x0(%esi),%esi
    49b0:	8b 45 b8             	mov    -0x48(%ebp),%eax
    49b3:	8b 55 08             	mov    0x8(%ebp),%edx
    49b6:	21 c1                	and    %eax,%ecx
    49b8:	8b 45 c8             	mov    -0x38(%ebp),%eax
    49bb:	09 c1                	or     %eax,%ecx
    49bd:	8b 45 e4             	mov    -0x1c(%ebp),%eax
    49c0:	8b 5d dc             	mov    -0x24(%ebp),%ebx
    49c3:	43                   	inc    %ebx
    49c4:	88 0c 02             	mov    %cl,(%edx,%eax,1)
    49c7:	8d 56 01             	lea    0x1(%esi),%edx
    49ca:	89 5d e4             	mov    %ebx,-0x1c(%ebp)
    49cd:	39 55 14             	cmp    %edx,0x14(%ebp)
    49d0:	72 a5                	jb     4977 <str_ncpy+0x67>
    49d2:	8a 04 37             	mov    (%edi,%esi,1),%al
    49d5:	84 c0                	test   %al,%al
    49d7:	0f 89 73 ff ff ff    	jns    4950 <str_ncpy+0x40>
    49dd:	88 c1                	mov    %al,%cl
    49df:	83 e1 e0             	and    $0xffffffe0,%ecx
    49e2:	80 f9 c0             	cmp    $0xc0,%cl
    49e5:	0f 84 0c 01 00 00    	je     4af7 <str_ncpy+0x1e7>
    49eb:	88 c1                	mov    %al,%cl
    49ed:	83 e1 f0             	and    $0xfffffff0,%ecx
    49f0:	80 f9 e0             	cmp    $0xe0,%cl
    49f3:	0f 84 0a 01 00 00    	je     4b03 <str_ncpy+0x1f3>
    49f9:	88 c1                	mov    %al,%cl
    49fb:	83 e1 f8             	and    $0xfffffff8,%ecx
    49fe:	80 f9 f0             	cmp    $0xf0,%cl
    4a01:	0f 85 59 ff ff ff    	jne    4960 <str_ncpy+0x50>
    4a07:	be 03 00 00 00       	mov    $0x3,%esi
    4a0c:	b1 07                	mov    $0x7,%cl
    4a0e:	8d 1c 16             	lea    (%esi,%edx,1),%ebx
    4a11:	39 5d 14             	cmp    %ebx,0x14(%ebp)
    4a14:	0f 82 46 ff ff ff    	jb     4960 <str_ncpy+0x50>
    4a1a:	8d b6 00 00 00 00    	lea    0x0(%esi),%esi
    4a20:	21 c1                	and    %eax,%ecx
    4a22:	81 e1 ff 00 00 00    	and    $0xff,%ecx
    4a28:	85 f6                	test   %esi,%esi
    4a2a:	0f 84 df 00 00 00    	je     4b0f <str_ncpy+0x1ff>
    4a30:	8a 04 17             	mov    (%edi,%edx,1),%al
    4a33:	8d 72 01             	lea    0x1(%edx),%esi
    4a36:	88 c2                	mov    %al,%dl
    4a38:	83 e2 c0             	and    $0xffffffc0,%edx
    4a3b:	80 fa 80             	cmp    $0x80,%dl
    4a3e:	74 1a                	je     4a5a <str_ncpy+0x14a>
    4a40:	e9 ab 00 00 00       	jmp    4af0 <str_ncpy+0x1e0>
    4a45:	8d 76 00             	lea    0x0(%esi),%esi
    4a48:	8a 04 37             	mov    (%edi,%esi,1),%al
    4a4b:	46                   	inc    %esi
    4a4c:	88 c2                	mov    %al,%dl
    4a4e:	83 e2 c0             	and    $0xffffffc0,%edx
    4a51:	80 fa 80             	cmp    $0x80,%dl
    4a54:	0f 85 96 00 00 00    	jne    4af0 <str_ncpy+0x1e0>
    4a5a:	89 ca                	mov    %ecx,%edx
    4a5c:	89 c1                	mov    %eax,%ecx
    4a5e:	c1 e2 06             	shl    $0x6,%edx
    4a61:	83 e1 3f             	and    $0x3f,%ecx
    4a64:	09 d1                	or     %edx,%ecx
    4a66:	39 f3                	cmp    %esi,%ebx
    4a68:	75 de                	jne    4a48 <str_ncpy+0x138>
    4a6a:	85 c9                	test   %ecx,%ecx
    4a6c:	0f 85 f5 fe ff ff    	jne    4967 <str_ncpy+0x57>
    4a72:	e9 00 ff ff ff       	jmp    4977 <str_ncpy+0x67>
    4a77:	90                   	nop
    4a78:	f7 c1 00 f8 ff ff    	test   $0xfffff800,%ecx
    4a7e:	74 60                	je     4ae0 <str_ncpy+0x1d0>
    4a80:	89 c8                	mov    %ecx,%eax
    4a82:	25 00 00 ff ff       	and    $0xffff0000,%eax
    4a87:	83 f8 01             	cmp    $0x1,%eax
    4a8a:	19 d2                	sbb    %edx,%edx
    4a8c:	83 e2 f0             	and    $0xfffffff0,%edx
    4a8f:	83 ea 10             	sub    $0x10,%edx
    4a92:	83 f8 01             	cmp    $0x1,%eax
    4a95:	19 db                	sbb    %ebx,%ebx
    4a97:	88 55 c8             	mov    %dl,-0x38(%ebp)
    4a9a:	83 e3 08             	and    $0x8,%ebx
    4a9d:	83 c3 07             	add    $0x7,%ebx
    4aa0:	83 f8 01             	cmp    $0x1,%eax
    4aa3:	19 c0                	sbb    %eax,%eax
    4aa5:	88 5d b8             	mov    %bl,-0x48(%ebp)
    4aa8:	83 c0 03             	add    $0x3,%eax
    4aab:	8b 5d e4             	mov    -0x1c(%ebp),%ebx
    4aae:	01 c3                	add    %eax,%ebx
    4ab0:	89 5d dc             	mov    %ebx,-0x24(%ebp)
    4ab3:	39 5d e0             	cmp    %ebx,-0x20(%ebp)
    4ab6:	0f 86 bb fe ff ff    	jbe    4977 <str_ncpy+0x67>
    4abc:	8b 5d 08             	mov    0x8(%ebp),%ebx
    4abf:	8b 55 e4             	mov    -0x1c(%ebp),%edx
    4ac2:	8d 14 13             	lea    (%ebx,%edx,1),%edx
    4ac5:	89 d3                	mov    %edx,%ebx
    4ac7:	90                   	nop
    4ac8:	89 ca                	mov    %ecx,%edx
    4aca:	c1 e9 06             	shr    $0x6,%ecx
    4acd:	83 e2 3f             	and    $0x3f,%edx
    4ad0:	80 ca 80             	or     $0x80,%dl
    4ad3:	88 14 03             	mov    %dl,(%ebx,%eax,1)
    4ad6:	48                   	dec    %eax
    4ad7:	75 ef                	jne    4ac8 <str_ncpy+0x1b8>
    4ad9:	e9 d2 fe ff ff       	jmp    49b0 <str_ncpy+0xa0>
    4ade:	66 90                	xchg   %ax,%ax
    4ae0:	c6 45 c8 c0          	movb   $0xc0,-0x38(%ebp)
    4ae4:	c6 45 b8 1f          	movb   $0x1f,-0x48(%ebp)
    4ae8:	b8 01 00 00 00       	mov    $0x1,%eax
    4aed:	eb bc                	jmp    4aab <str_ncpy+0x19b>
    4aef:	90                   	nop
    4af0:	89 f2                	mov    %esi,%edx
    4af2:	e9 69 fe ff ff       	jmp    4960 <str_ncpy+0x50>
    4af7:	b1 1f                	mov    $0x1f,%cl
    4af9:	be 01 00 00 00       	mov    $0x1,%esi
    4afe:	e9 51 fe ff ff       	jmp    4954 <str_ncpy+0x44>
    4b03:	b1 0f                	mov    $0xf,%cl
    4b05:	be 02 00 00 00       	mov    $0x2,%esi
    4b0a:	e9 45 fe ff ff       	jmp    4954 <str_ncpy+0x44>
    4b0f:	89 d6                	mov    %edx,%esi
    4b11:	85 c9                	test   %ecx,%ecx
    4b13:	0f 85 4e fe ff ff    	jne    4967 <str_ncpy+0x57>
    4b19:	e9 59 fe ff ff       	jmp    4977 <str_ncpy+0x67>
    4b1e:	c7 44 24 08 a9 02 00 	movl   $0x2a9,0x8(%esp)
    4b25:	00 
    4b26:	c7 44 24 04 a6 fa 01 	movl   $0x1faa6,0x4(%esp)
    4b2d:	00 
    4b2e:	c7 04 24 f2 05 02 00 	movl   $0x205f2,(%esp)
    4b35:	e8 76 59 01 00       	call   1a4b0 <assert_abort>
    4b3a:	8d b6 00 00 00 00    	lea    0x0(%esi),%esi

00004b40 <str_append>:
    4b40:	55                   	push   %ebp
    4b41:	31 c0                	xor    %eax,%eax
    4b43:	89 e5                	mov    %esp,%ebp
    4b45:	53                   	push   %ebx
    4b46:	8b 55 08             	mov    0x8(%ebp),%edx
    4b49:	8b 4d 0c             	mov    0xc(%ebp),%ecx
    4b4c:	8b 5d 10             	mov    0x10(%ebp),%ebx
    4b4f:	80 3a 00             	cmpb   $0x0,(%edx)
    4b52:	74 0b                	je     4b5f <str_append+0x1f>
    4b54:	8d 74 26 00          	lea    0x0(%esi,%eiz,1),%esi
    4b58:	40                   	inc    %eax
    4b59:	80 3c 02 00          	cmpb   $0x0,(%edx,%eax,1)
    4b5d:	75 f9                	jne    4b58 <str_append+0x18>
    4b5f:	39 c1                	cmp    %eax,%ecx
    4b61:	77 05                	ja     4b68 <str_append+0x28>
    4b63:	5b                   	pop    %ebx
    4b64:	5d                   	pop    %ebp
    4b65:	c3                   	ret    
    4b66:	66 90                	xchg   %ax,%ax
    4b68:	29 c1                	sub    %eax,%ecx
    4b6a:	01 d0                	add    %edx,%eax
    4b6c:	89 5d 10             	mov    %ebx,0x10(%ebp)
    4b6f:	89 4d 0c             	mov    %ecx,0xc(%ebp)
    4b72:	89 45 08             	mov    %eax,0x8(%ebp)
    4b75:	5b                   	pop    %ebx
    4b76:	5d                   	pop    %ebp
    4b77:	e9 a4 fb ff ff       	jmp    4720 <str_cpy>
    4b7c:	8d 74 26 00          	lea    0x0(%esi,%eiz,1),%esi

00004b80 <spascii_to_str>:
    4b80:	55                   	push   %ebp
    4b81:	89 e5                	mov    %esp,%ebp
    4b83:	57                   	push   %edi
    4b84:	56                   	push   %esi
    4b85:	53                   	push   %ebx
    4b86:	83 ec 2c             	sub    $0x2c,%esp
    4b89:	8b 55 0c             	mov    0xc(%ebp),%edx
    4b8c:	8b 75 08             	mov    0x8(%ebp),%esi
    4b8f:	8b 45 14             	mov    0x14(%ebp),%eax
    4b92:	85 d2                	test   %edx,%edx
    4b94:	74 7e                	je     4c14 <spascii_to_str+0x94>
    4b96:	85 c0                	test   %eax,%eax
    4b98:	74 6f                	je     4c09 <spascii_to_str+0x89>
    4b9a:	4a                   	dec    %edx
    4b9b:	c7 45 dc 00 00 00 00 	movl   $0x0,-0x24(%ebp)
    4ba2:	89 55 e4             	mov    %edx,-0x1c(%ebp)
    4ba5:	8b 55 10             	mov    0x10(%ebp),%edx
    4ba8:	01 d0                	add    %edx,%eax
    4baa:	31 ff                	xor    %edi,%edi
    4bac:	89 45 e0             	mov    %eax,-0x20(%ebp)
    4baf:	31 c0                	xor    %eax,%eax
    4bb1:	8d b4 26 00 00 00 00 	lea    0x0(%esi,%eiz,1),%esi
    4bb8:	31 db                	xor    %ebx,%ebx
    4bba:	8a 0a                	mov    (%edx),%cl
    4bbc:	88 cb                	mov    %cl,%bl
    4bbe:	83 fb 7f             	cmp    $0x7f,%ebx
    4bc1:	76 0e                	jbe    4bd1 <spascii_to_str+0x51>
    4bc3:	bb 3f 00 00 00       	mov    $0x3f,%ebx
    4bc8:	c7 45 dc f7 fe ff ff 	movl   $0xfffffef7,-0x24(%ebp)
    4bcf:	b1 3f                	mov    $0x3f,%cl
    4bd1:	39 45 e4             	cmp    %eax,-0x1c(%ebp)
    4bd4:	76 22                	jbe    4bf8 <spascii_to_str+0x78>
    4bd6:	88 1c 06             	mov    %bl,(%esi,%eax,1)
    4bd9:	40                   	inc    %eax
    4bda:	80 f9 20             	cmp    $0x20,%cl
    4bdd:	74 02                	je     4be1 <spascii_to_str+0x61>
    4bdf:	89 c7                	mov    %eax,%edi
    4be1:	42                   	inc    %edx
    4be2:	3b 55 e0             	cmp    -0x20(%ebp),%edx
    4be5:	75 d1                	jne    4bb8 <spascii_to_str+0x38>
    4be7:	c6 04 3e 00          	movb   $0x0,(%esi,%edi,1)
    4beb:	8b 45 dc             	mov    -0x24(%ebp),%eax
    4bee:	83 c4 2c             	add    $0x2c,%esp
    4bf1:	5b                   	pop    %ebx
    4bf2:	5e                   	pop    %esi
    4bf3:	5f                   	pop    %edi
    4bf4:	5d                   	pop    %ebp
    4bf5:	c3                   	ret    
    4bf6:	66 90                	xchg   %ax,%ax
    4bf8:	c6 04 06 00          	movb   $0x0,(%esi,%eax,1)
    4bfc:	83 c4 2c             	add    $0x2c,%esp
    4bff:	b8 f0 ff ff ff       	mov    $0xfffffff0,%eax
    4c04:	5b                   	pop    %ebx
    4c05:	5e                   	pop    %esi
    4c06:	5f                   	pop    %edi
    4c07:	5d                   	pop    %ebp
    4c08:	c3                   	ret    
    4c09:	c7 45 dc 00 00 00 00 	movl   $0x0,-0x24(%ebp)
    4c10:	31 ff                	xor    %edi,%edi
    4c12:	eb d3                	jmp    4be7 <spascii_to_str+0x67>
    4c14:	c7 44 24 08 ef 02 00 	movl   $0x2ef,0x8(%esp)
    4c1b:	00 
    4c1c:	c7 44 24 04 a6 fa 01 	movl   $0x1faa6,0x4(%esp)
    4c23:	00 
    4c24:	c7 04 24 f2 05 02 00 	movl   $0x205f2,(%esp)
    4c2b:	e8 80 58 01 00       	call   1a4b0 <assert_abort>

00004c30 <wstr_to_str>:
    4c30:	55                   	push   %ebp
    4c31:	89 e5                	mov    %esp,%ebp
    4c33:	57                   	push   %edi
    4c34:	56                   	push   %esi
    4c35:	53                   	push   %ebx
    4c36:	83 ec 2c             	sub    $0x2c,%esp
    4c39:	8b 45 0c             	mov    0xc(%ebp),%eax
    4c3c:	8b 55 10             	mov    0x10(%ebp),%edx
    4c3f:	85 c0                	test   %eax,%eax
    4c41:	0f 84 10 01 00 00    	je     4d57 <wstr_to_str+0x127>
    4c47:	8b 32                	mov    (%edx),%esi
    4c49:	85 f6                	test   %esi,%esi
    4c4b:	0f 84 ef 00 00 00    	je     4d40 <wstr_to_str+0x110>
    4c51:	48                   	dec    %eax
    4c52:	89 45 e0             	mov    %eax,-0x20(%ebp)
    4c55:	0f 84 e5 00 00 00    	je     4d40 <wstr_to_str+0x110>
    4c5b:	81 fe ff ff 10 00    	cmp    $0x10ffff,%esi
    4c61:	0f 87 d9 00 00 00    	ja     4d40 <wstr_to_str+0x110>
    4c67:	31 ff                	xor    %edi,%edi
    4c69:	8d 5a 04             	lea    0x4(%edx),%ebx
    4c6c:	f7 c6 80 ff ff ff    	test   $0xffffff80,%esi
    4c72:	75 58                	jne    4ccc <wstr_to_str+0x9c>
    4c74:	8d 74 26 00          	lea    0x0(%esi,%eiz,1),%esi
    4c78:	39 7d e0             	cmp    %edi,-0x20(%ebp)
    4c7b:	0f 86 c7 00 00 00    	jbe    4d48 <wstr_to_str+0x118>
    4c81:	89 7d dc             	mov    %edi,-0x24(%ebp)
    4c84:	c6 45 e7 00          	movb   $0x0,-0x19(%ebp)
    4c88:	c6 45 e6 7f          	movb   $0x7f,-0x1a(%ebp)
    4c8c:	8d 74 26 00          	lea    0x0(%esi,%eiz,1),%esi
    4c90:	8a 45 e6             	mov    -0x1a(%ebp),%al
    4c93:	8b 55 08             	mov    0x8(%ebp),%edx
    4c96:	21 f0                	and    %esi,%eax
    4c98:	0a 45 e7             	or     -0x19(%ebp),%al
    4c9b:	88 04 3a             	mov    %al,(%edx,%edi,1)
    4c9e:	8b 7d dc             	mov    -0x24(%ebp),%edi
    4ca1:	8b 33                	mov    (%ebx),%esi
    4ca3:	47                   	inc    %edi
    4ca4:	85 f6                	test   %esi,%esi
    4ca6:	0f 84 9c 00 00 00    	je     4d48 <wstr_to_str+0x118>
    4cac:	3b 7d e0             	cmp    -0x20(%ebp),%edi
    4caf:	0f 83 93 00 00 00    	jae    4d48 <wstr_to_str+0x118>
    4cb5:	83 c3 04             	add    $0x4,%ebx
    4cb8:	81 fe ff ff 10 00    	cmp    $0x10ffff,%esi
    4cbe:	0f 87 84 00 00 00    	ja     4d48 <wstr_to_str+0x118>
    4cc4:	f7 c6 80 ff ff ff    	test   $0xffffff80,%esi
    4cca:	74 ac                	je     4c78 <wstr_to_str+0x48>
    4ccc:	f7 c6 00 f8 ff ff    	test   $0xfffff800,%esi
    4cd2:	74 4c                	je     4d20 <wstr_to_str+0xf0>
    4cd4:	f7 c6 00 00 ff ff    	test   $0xffff0000,%esi
    4cda:	74 54                	je     4d30 <wstr_to_str+0x100>
    4cdc:	f7 c6 00 00 e0 ff    	test   $0xffe00000,%esi
    4ce2:	75 64                	jne    4d48 <wstr_to_str+0x118>
    4ce4:	c6 45 e7 f0          	movb   $0xf0,-0x19(%ebp)
    4ce8:	c6 45 e6 07          	movb   $0x7,-0x1a(%ebp)
    4cec:	b8 03 00 00 00       	mov    $0x3,%eax
    4cf1:	8d 14 38             	lea    (%eax,%edi,1),%edx
    4cf4:	89 55 dc             	mov    %edx,-0x24(%ebp)
    4cf7:	8b 55 e0             	mov    -0x20(%ebp),%edx
    4cfa:	39 55 dc             	cmp    %edx,-0x24(%ebp)
    4cfd:	73 49                	jae    4d48 <wstr_to_str+0x118>
    4cff:	8b 55 08             	mov    0x8(%ebp),%edx
    4d02:	8d 0c 3a             	lea    (%edx,%edi,1),%ecx
    4d05:	8d 76 00             	lea    0x0(%esi),%esi
    4d08:	89 f2                	mov    %esi,%edx
    4d0a:	c1 ee 06             	shr    $0x6,%esi
    4d0d:	83 e2 3f             	and    $0x3f,%edx
    4d10:	80 ca 80             	or     $0x80,%dl
    4d13:	88 14 01             	mov    %dl,(%ecx,%eax,1)
    4d16:	48                   	dec    %eax
    4d17:	75 ef                	jne    4d08 <wstr_to_str+0xd8>
    4d19:	e9 72 ff ff ff       	jmp    4c90 <wstr_to_str+0x60>
    4d1e:	66 90                	xchg   %ax,%ax
    4d20:	c6 45 e7 c0          	movb   $0xc0,-0x19(%ebp)
    4d24:	c6 45 e6 1f          	movb   $0x1f,-0x1a(%ebp)
    4d28:	b8 01 00 00 00       	mov    $0x1,%eax
    4d2d:	eb c2                	jmp    4cf1 <wstr_to_str+0xc1>
    4d2f:	90                   	nop
    4d30:	c6 45 e7 e0          	movb   $0xe0,-0x19(%ebp)
    4d34:	c6 45 e6 0f          	movb   $0xf,-0x1a(%ebp)
    4d38:	b8 02 00 00 00       	mov    $0x2,%eax
    4d3d:	eb b2                	jmp    4cf1 <wstr_to_str+0xc1>
    4d3f:	90                   	nop
    4d40:	31 ff                	xor    %edi,%edi
    4d42:	8d b6 00 00 00 00    	lea    0x0(%esi),%esi
    4d48:	8b 45 08             	mov    0x8(%ebp),%eax
    4d4b:	c6 04 38 00          	movb   $0x0,(%eax,%edi,1)
    4d4f:	83 c4 2c             	add    $0x2c,%esp
    4d52:	5b                   	pop    %ebx
    4d53:	5e                   	pop    %esi
    4d54:	5f                   	pop    %edi
    4d55:	5d                   	pop    %ebp
    4d56:	c3                   	ret    
    4d57:	c7 44 24 08 1d 03 00 	movl   $0x31d,0x8(%esp)
    4d5e:	00 
    4d5f:	c7 44 24 04 a6 fa 01 	movl   $0x1faa6,0x4(%esp)
    4d66:	00 
    4d67:	c7 04 24 f2 05 02 00 	movl   $0x205f2,(%esp)
    4d6e:	e8 3d 57 01 00       	call   1a4b0 <assert_abort>
    4d73:	8d b6 00 00 00 00    	lea    0x0(%esi),%esi
    4d79:	8d bc 27 00 00 00 00 	lea    0x0(%edi,%eiz,1),%edi

00004d80 <utf16_to_str>:
    4d80:	55                   	push   %ebp
    4d81:	89 e5                	mov    %esp,%ebp
    4d83:	57                   	push   %edi
    4d84:	56                   	push   %esi
    4d85:	53                   	push   %ebx
    4d86:	83 ec 4c             	sub    $0x4c,%esp
    4d89:	8b 45 0c             	mov    0xc(%ebp),%eax
    4d8c:	85 c0                	test   %eax,%eax
    4d8e:	0f 84 76 01 00 00    	je     4f0a <utf16_to_str+0x18a>
    4d94:	8b 55 10             	mov    0x10(%ebp),%edx
    4d97:	48                   	dec    %eax
    4d98:	31 f6                	xor    %esi,%esi
    4d9a:	31 ff                	xor    %edi,%edi
    4d9c:	66 8b 0a             	mov    (%edx),%cx
    4d9f:	89 45 c4             	mov    %eax,-0x3c(%ebp)
    4da2:	66 85 c9             	test   %cx,%cx
    4da5:	74 79                	je     4e20 <utf16_to_str+0xa0>
    4da7:	90                   	nop
    4da8:	89 c8                	mov    %ecx,%eax
    4daa:	25 00 fc ff ff       	and    $0xfffffc00,%eax
    4daf:	66 3d 00 d8          	cmp    $0xd800,%ax
    4db3:	0f 84 df 00 00 00    	je     4e98 <utf16_to_str+0x118>
    4db9:	81 e1 ff ff 00 00    	and    $0xffff,%ecx
    4dbf:	47                   	inc    %edi
    4dc0:	39 75 c4             	cmp    %esi,-0x3c(%ebp)
    4dc3:	0f 86 14 01 00 00    	jbe    4edd <utf16_to_str+0x15d>
    4dc9:	81 f9 ff ff 10 00    	cmp    $0x10ffff,%ecx
    4dcf:	76 17                	jbe    4de8 <utf16_to_str+0x68>
    4dd1:	8b 55 08             	mov    0x8(%ebp),%edx
    4dd4:	b8 f2 ff ff ff       	mov    $0xfffffff2,%eax
    4dd9:	c6 04 32 00          	movb   $0x0,(%edx,%esi,1)
    4ddd:	83 c4 4c             	add    $0x4c,%esp
    4de0:	5b                   	pop    %ebx
    4de1:	5e                   	pop    %esi
    4de2:	5f                   	pop    %edi
    4de3:	5d                   	pop    %ebp
    4de4:	c3                   	ret    
    4de5:	8d 76 00             	lea    0x0(%esi),%esi
    4de8:	f7 c1 80 ff ff ff    	test   $0xffffff80,%ecx
    4dee:	75 48                	jne    4e38 <utf16_to_str+0xb8>
    4df0:	89 75 c0             	mov    %esi,-0x40(%ebp)
    4df3:	c6 45 d8 00          	movb   $0x0,-0x28(%ebp)
    4df7:	c6 45 c8 7f          	movb   $0x7f,-0x38(%ebp)
    4dfb:	90                   	nop
    4dfc:	8d 74 26 00          	lea    0x0(%esi,%eiz,1),%esi
    4e00:	8b 5d c8             	mov    -0x38(%ebp),%ebx
    4e03:	8b 45 d8             	mov    -0x28(%ebp),%eax
    4e06:	21 d9                	and    %ebx,%ecx
    4e08:	8b 55 10             	mov    0x10(%ebp),%edx
    4e0b:	09 c1                	or     %eax,%ecx
    4e0d:	8b 45 08             	mov    0x8(%ebp),%eax
    4e10:	88 0c 30             	mov    %cl,(%eax,%esi,1)
    4e13:	8b 75 c0             	mov    -0x40(%ebp),%esi
    4e16:	66 8b 0c 7a          	mov    (%edx,%edi,2),%cx
    4e1a:	46                   	inc    %esi
    4e1b:	66 85 c9             	test   %cx,%cx
    4e1e:	75 88                	jne    4da8 <utf16_to_str+0x28>
    4e20:	8b 55 08             	mov    0x8(%ebp),%edx
    4e23:	31 c0                	xor    %eax,%eax
    4e25:	c6 04 32 00          	movb   $0x0,(%edx,%esi,1)
    4e29:	83 c4 4c             	add    $0x4c,%esp
    4e2c:	5b                   	pop    %ebx
    4e2d:	5e                   	pop    %esi
    4e2e:	5f                   	pop    %edi
    4e2f:	5d                   	pop    %ebp
    4e30:	c3                   	ret    
    4e31:	8d b4 26 00 00 00 00 	lea    0x0(%esi,%eiz,1),%esi
    4e38:	f7 c1 00 f8 ff ff    	test   $0xfffff800,%ecx
    4e3e:	0f 84 b4 00 00 00    	je     4ef8 <utf16_to_str+0x178>
    4e44:	89 c8                	mov    %ecx,%eax
    4e46:	25 00 00 ff ff       	and    $0xffff0000,%eax
    4e4b:	83 f8 01             	cmp    $0x1,%eax
    4e4e:	19 d2                	sbb    %edx,%edx
    4e50:	83 e2 f0             	and    $0xfffffff0,%edx
    4e53:	83 ea 10             	sub    $0x10,%edx
    4e56:	83 f8 01             	cmp    $0x1,%eax
    4e59:	88 55 d8             	mov    %dl,-0x28(%ebp)
    4e5c:	19 d2                	sbb    %edx,%edx
    4e5e:	83 e2 08             	and    $0x8,%edx
    4e61:	83 c2 07             	add    $0x7,%edx
    4e64:	83 f8 01             	cmp    $0x1,%eax
    4e67:	19 c0                	sbb    %eax,%eax
    4e69:	88 55 c8             	mov    %dl,-0x38(%ebp)
    4e6c:	83 c0 03             	add    $0x3,%eax
    4e6f:	8d 14 30             	lea    (%eax,%esi,1),%edx
    4e72:	89 55 c0             	mov    %edx,-0x40(%ebp)
    4e75:	39 55 c4             	cmp    %edx,-0x3c(%ebp)
    4e78:	76 63                	jbe    4edd <utf16_to_str+0x15d>
    4e7a:	8b 55 08             	mov    0x8(%ebp),%edx
    4e7d:	8d 1c 32             	lea    (%edx,%esi,1),%ebx
    4e80:	89 ca                	mov    %ecx,%edx
    4e82:	c1 e9 06             	shr    $0x6,%ecx
    4e85:	83 e2 3f             	and    $0x3f,%edx
    4e88:	80 ca 80             	or     $0x80,%dl
    4e8b:	88 14 03             	mov    %dl,(%ebx,%eax,1)
    4e8e:	48                   	dec    %eax
    4e8f:	75 ef                	jne    4e80 <utf16_to_str+0x100>
    4e91:	e9 6a ff ff ff       	jmp    4e00 <utf16_to_str+0x80>
    4e96:	66 90                	xchg   %ax,%ax
    4e98:	8b 55 10             	mov    0x10(%ebp),%edx
    4e9b:	66 8b 44 7a 02       	mov    0x2(%edx,%edi,2),%ax
    4ea0:	66 85 c0             	test   %ax,%ax
    4ea3:	0f 84 77 ff ff ff    	je     4e20 <utf16_to_str+0xa0>
    4ea9:	89 c2                	mov    %eax,%edx
    4eab:	81 e2 00 fc ff ff    	and    $0xfffffc00,%edx
    4eb1:	66 81 fa 00 dc       	cmp    $0xdc00,%dx
    4eb6:	0f 85 64 ff ff ff    	jne    4e20 <utf16_to_str+0xa0>
    4ebc:	81 e1 ff 03 00 00    	and    $0x3ff,%ecx
    4ec2:	25 ff 03 00 00       	and    $0x3ff,%eax
    4ec7:	c1 e1 0a             	shl    $0xa,%ecx
    4eca:	83 c7 02             	add    $0x2,%edi
