
ne2k:     file format elf32-i386


Disassembly of section .init:

00001094 <__entry>:
    1094:	66 8c d0             	mov    %ss,%ax
    1097:	8e d8                	mov    %eax,%ds
    1099:	8e c0                	mov    %eax,%es
    109b:	8e e0                	mov    %eax,%fs
    109d:	b8 01 00 00 00       	mov    $0x1,%eax
    10a2:	0f a2                	cpuid  
    10a4:	0f ba e2 0b          	bt     $0xb,%edx
    10a8:	73 0c                	jae    10b6 <__entry+0x22>
    10aa:	8d 05 b0 ee 02 00    	lea    0x2eeb0,%eax
    10b0:	c7 00 87 72 02 00    	movl   $0x27287,(%eax)
    10b6:	6a 00                	push   $0x0
    10b8:	89 e5                	mov    %esp,%ebp
    10ba:	57                   	push   %edi
    10bb:	e8 60 bc 00 00       	call   cd20 <__main>

Disassembly of section .text:

000010c0 <ne2k_download.isra.0>:
    10c0:	55                   	push   %ebp
    10c1:	89 e5                	mov    %esp,%ebp
    10c3:	57                   	push   %edi
    10c4:	56                   	push   %esi
    10c5:	53                   	push   %ebx
    10c6:	83 ec 3c             	sub    $0x3c,%esp
    10c9:	89 55 d0             	mov    %edx,-0x30(%ebp)
    10cc:	8b 55 0c             	mov    0xc(%ebp),%edx
    10cf:	8b 75 0c             	mov    0xc(%ebp),%esi
    10d2:	81 e2 fe 00 00 00    	and    $0xfe,%edx
    10d8:	83 e6 fe             	and    $0xfffffffe,%esi
    10db:	89 54 24 04          	mov    %edx,0x4(%esp)
    10df:	89 c3                	mov    %eax,%ebx
    10e1:	8b 10                	mov    (%eax),%edx
    10e3:	89 cf                	mov    %ecx,%edi
    10e5:	83 c2 0a             	add    $0xa,%edx
    10e8:	89 14 24             	mov    %edx,(%esp)
    10eb:	e8 b0 bf 00 00       	call   d0a0 <pio_write_8>
    10f0:	89 f0                	mov    %esi,%eax
    10f2:	0f b6 d4             	movzbl %ah,%edx
    10f5:	89 54 24 04          	mov    %edx,0x4(%esp)
    10f9:	8b 13                	mov    (%ebx),%edx
    10fb:	83 c2 0b             	add    $0xb,%edx
    10fe:	89 14 24             	mov    %edx,(%esp)
    1101:	e8 9a bf 00 00       	call   d0a0 <pio_write_8>
    1106:	0f b6 55 08          	movzbl 0x8(%ebp),%edx
    110a:	89 54 24 04          	mov    %edx,0x4(%esp)
    110e:	8b 13                	mov    (%ebx),%edx
    1110:	83 c2 08             	add    $0x8,%edx
    1113:	89 14 24             	mov    %edx,(%esp)
    1116:	e8 85 bf 00 00       	call   d0a0 <pio_write_8>
    111b:	8b 55 08             	mov    0x8(%ebp),%edx
    111e:	0f b6 c6             	movzbl %dh,%eax
    1121:	89 44 24 04          	mov    %eax,0x4(%esp)
    1125:	8b 13                	mov    (%ebx),%edx
    1127:	83 c2 09             	add    $0x9,%edx
    112a:	89 14 24             	mov    %edx,(%esp)
    112d:	e8 6e bf 00 00       	call   d0a0 <pio_write_8>
    1132:	c7 44 24 04 0a 00 00 	movl   $0xa,0x4(%esp)
    1139:	00 
    113a:	8b 03                	mov    (%ebx),%eax
    113c:	89 04 24             	mov    %eax,(%esp)
    113f:	e8 5c bf 00 00       	call   d0a0 <pio_write_8>
    1144:	85 f6                	test   %esi,%esi
    1146:	75 40                	jne    1188 <ne2k_download.isra.0+0xc8>
    1148:	8b 45 0c             	mov    0xc(%ebp),%eax
    114b:	85 c0                	test   %eax,%eax
    114d:	74 2e                	je     117d <ne2k_download.isra.0+0xbd>
    114f:	83 7d 0c 01          	cmpl   $0x1,0xc(%ebp)
    1153:	75 67                	jne    11bc <ne2k_download.isra.0+0xfc>
    1155:	8b 55 d0             	mov    -0x30(%ebp),%edx
    1158:	8b 02                	mov    (%edx),%eax
    115a:	89 04 24             	mov    %eax,(%esp)
    115d:	e8 6e c0 00 00       	call   d1d0 <pio_read_16>
    1162:	c7 44 24 08 01 00 00 	movl   $0x1,0x8(%esp)
    1169:	00 
    116a:	66 89 45 e6          	mov    %ax,-0x1a(%ebp)
    116e:	8d 45 e6             	lea    -0x1a(%ebp),%eax
    1171:	89 44 24 04          	mov    %eax,0x4(%esp)
    1175:	89 3c 24             	mov    %edi,(%esp)
    1178:	e8 f3 e3 00 00       	call   f570 <memcpy>
    117d:	83 c4 3c             	add    $0x3c,%esp
    1180:	5b                   	pop    %ebx
    1181:	5e                   	pop    %esi
    1182:	5f                   	pop    %edi
    1183:	5d                   	pop    %ebp
    1184:	c3                   	ret    
    1185:	8d 76 00             	lea    0x0(%esi),%esi
    1188:	8b 45 d0             	mov    -0x30(%ebp),%eax
    118b:	31 db                	xor    %ebx,%ebx
    118d:	89 75 d4             	mov    %esi,-0x2c(%ebp)
    1190:	89 de                	mov    %ebx,%esi
    1192:	8b 10                	mov    (%eax),%edx
    1194:	89 d3                	mov    %edx,%ebx
    1196:	66 90                	xchg   %ax,%ax
    1198:	89 1c 24             	mov    %ebx,(%esp)
    119b:	e8 30 c0 00 00       	call   d1d0 <pio_read_16>
    11a0:	66 89 04 77          	mov    %ax,(%edi,%esi,2)
    11a4:	46                   	inc    %esi
    11a5:	8d 04 36             	lea    (%esi,%esi,1),%eax
    11a8:	39 45 d4             	cmp    %eax,-0x2c(%ebp)
    11ab:	77 eb                	ja     1198 <ne2k_download.isra.0+0xd8>
    11ad:	8b 75 d4             	mov    -0x2c(%ebp),%esi
    11b0:	8b 55 0c             	mov    0xc(%ebp),%edx
    11b3:	29 f2                	sub    %esi,%edx
    11b5:	01 f7                	add    %esi,%edi
    11b7:	89 55 0c             	mov    %edx,0xc(%ebp)
    11ba:	eb 8c                	jmp    1148 <ne2k_download.isra.0+0x88>
    11bc:	c7 44 24 08 85 00 00 	movl   $0x85,0x8(%esp)
    11c3:	00 
    11c4:	c7 44 24 04 72 b6 02 	movl   $0x2b672,0x4(%esp)
    11cb:	00 
    11cc:	c7 04 24 7b b6 02 00 	movl   $0x2b67b,(%esp)
    11d3:	e8 58 5e 02 00       	call   27030 <assert_abort>
    11d8:	90                   	nop
    11d9:	8d b4 26 00 00 00 00 	lea    0x0(%esi,%eiz,1),%esi

000011e0 <ne2k_probe>:
    11e0:	55                   	push   %ebp
    11e1:	89 e5                	mov    %esp,%ebp
    11e3:	57                   	push   %edi
    11e4:	56                   	push   %esi
    11e5:	53                   	push   %ebx
    11e6:	83 ec 1c             	sub    $0x1c,%esp
    11e9:	8b 75 08             	mov    0x8(%ebp),%esi
    11ec:	8b 46 04             	mov    0x4(%esi),%eax
    11ef:	8d 7e 04             	lea    0x4(%esi),%edi
    11f2:	83 c0 1f             	add    $0x1f,%eax
    11f5:	89 04 24             	mov    %eax,(%esp)
    11f8:	e8 93 bf 00 00       	call   d190 <pio_read_8>
    11fd:	c7 04 24 d0 07 00 00 	movl   $0x7d0,(%esp)
    1204:	88 c3                	mov    %al,%bl
    1206:	e8 a5 29 02 00       	call   23bb0 <usleep>
    120b:	81 e3 ff 00 00 00    	and    $0xff,%ebx
    1211:	89 5c 24 04          	mov    %ebx,0x4(%esp)
    1215:	bb 00 10 00 00       	mov    $0x1000,%ebx
    121a:	8b 46 04             	mov    0x4(%esi),%eax
    121d:	83 c0 1f             	add    $0x1f,%eax
    1220:	89 04 24             	mov    %eax,(%esp)
    1223:	e8 78 be 00 00       	call   d0a0 <pio_write_8>
    1228:	c7 04 24 d0 07 00 00 	movl   $0x7d0,(%esp)
    122f:	e8 7c 29 02 00       	call   23bb0 <usleep>
    1234:	c7 44 24 04 21 00 00 	movl   $0x21,0x4(%esp)
    123b:	00 
    123c:	8b 46 04             	mov    0x4(%esi),%eax
    123f:	89 04 24             	mov    %eax,(%esp)
    1242:	e8 59 be 00 00       	call   d0a0 <pio_write_8>
    1247:	eb 0a                	jmp    1253 <ne2k_probe+0x73>
    1249:	8d b4 26 00 00 00 00 	lea    0x0(%esi,%eiz,1),%esi
    1250:	4b                   	dec    %ebx
    1251:	74 11                	je     1264 <ne2k_probe+0x84>
    1253:	8b 07                	mov    (%edi),%eax
    1255:	83 c0 07             	add    $0x7,%eax
    1258:	89 04 24             	mov    %eax,(%esp)
    125b:	e8 30 bf 00 00       	call   d190 <pio_read_8>
    1260:	84 c0                	test   %al,%al
    1262:	74 ec                	je     1250 <ne2k_probe+0x70>
    1264:	8b 46 04             	mov    0x4(%esi),%eax
    1267:	89 04 24             	mov    %eax,(%esp)
    126a:	e8 21 bf 00 00       	call   d190 <pio_read_8>
    126f:	83 e0 25             	and    $0x25,%eax
    1272:	3c 21                	cmp    $0x21,%al
    1274:	0f 85 0e 01 00 00    	jne    1388 <ne2k_probe+0x1a8>
    127a:	c7 44 24 04 20 00 00 	movl   $0x20,0x4(%esp)
    1281:	00 
    1282:	8b 46 04             	mov    0x4(%esi),%eax
    1285:	83 c0 0c             	add    $0xc,%eax
    1288:	89 04 24             	mov    %eax,(%esp)
    128b:	e8 10 be 00 00       	call   d0a0 <pio_write_8>
    1290:	c7 44 24 04 00 00 00 	movl   $0x0,0x4(%esp)
    1297:	00 
    1298:	8b 46 04             	mov    0x4(%esi),%eax
    129b:	83 c0 0d             	add    $0xd,%eax
    129e:	89 04 24             	mov    %eax,(%esp)
    12a1:	e8 fa bd 00 00       	call   d0a0 <pio_write_8>
    12a6:	c7 44 24 04 29 00 00 	movl   $0x29,0x4(%esp)
    12ad:	00 
    12ae:	8b 46 04             	mov    0x4(%esi),%eax
    12b1:	83 c0 0e             	add    $0xe,%eax
    12b4:	89 04 24             	mov    %eax,(%esp)
    12b7:	e8 e4 bd 00 00       	call   d0a0 <pio_write_8>
    12bc:	c7 44 24 04 0c 00 00 	movl   $0xc,0x4(%esp)
    12c3:	00 
    12c4:	8b 46 04             	mov    0x4(%esi),%eax
    12c7:	83 c0 0a             	add    $0xa,%eax
    12ca:	89 04 24             	mov    %eax,(%esp)
    12cd:	e8 ce bd 00 00       	call   d0a0 <pio_write_8>
    12d2:	c7 44 24 04 00 00 00 	movl   $0x0,0x4(%esp)
    12d9:	00 
    12da:	8b 46 04             	mov    0x4(%esi),%eax
    12dd:	83 c0 0b             	add    $0xb,%eax
    12e0:	89 04 24             	mov    %eax,(%esp)
    12e3:	e8 b8 bd 00 00       	call   d0a0 <pio_write_8>
    12e8:	c7 44 24 04 00 00 00 	movl   $0x0,0x4(%esp)
    12ef:	00 
    12f0:	8b 46 04             	mov    0x4(%esi),%eax
    12f3:	83 c0 08             	add    $0x8,%eax
    12f6:	89 04 24             	mov    %eax,(%esp)
    12f9:	e8 a2 bd 00 00       	call   d0a0 <pio_write_8>
    12fe:	c7 44 24 04 00 00 00 	movl   $0x0,0x4(%esp)
    1305:	00 
    1306:	8b 46 04             	mov    0x4(%esi),%eax
    1309:	83 c0 09             	add    $0x9,%eax
    130c:	89 04 24             	mov    %eax,(%esp)
    130f:	e8 8c bd 00 00       	call   d0a0 <pio_write_8>
    1314:	c7 44 24 04 0a 00 00 	movl   $0xa,0x4(%esp)
    131b:	00 
    131c:	8b 46 04             	mov    0x4(%esi),%eax
    131f:	89 04 24             	mov    %eax,(%esp)
    1322:	e8 79 bd 00 00       	call   d0a0 <pio_write_8>
    1327:	8b 46 08             	mov    0x8(%esi),%eax
    132a:	89 04 24             	mov    %eax,(%esp)
    132d:	e8 9e be 00 00       	call   d1d0 <pio_read_16>
    1332:	88 46 10             	mov    %al,0x10(%esi)
    1335:	8b 46 08             	mov    0x8(%esi),%eax
    1338:	89 04 24             	mov    %eax,(%esp)
    133b:	e8 90 be 00 00       	call   d1d0 <pio_read_16>
    1340:	88 46 11             	mov    %al,0x11(%esi)
    1343:	8b 46 08             	mov    0x8(%esi),%eax
    1346:	89 04 24             	mov    %eax,(%esp)
    1349:	e8 82 be 00 00       	call   d1d0 <pio_read_16>
    134e:	88 46 12             	mov    %al,0x12(%esi)
    1351:	8b 46 08             	mov    0x8(%esi),%eax
    1354:	89 04 24             	mov    %eax,(%esp)
    1357:	e8 74 be 00 00       	call   d1d0 <pio_read_16>
    135c:	88 46 13             	mov    %al,0x13(%esi)
    135f:	8b 46 08             	mov    0x8(%esi),%eax
    1362:	89 04 24             	mov    %eax,(%esp)
    1365:	e8 66 be 00 00       	call   d1d0 <pio_read_16>
    136a:	88 46 14             	mov    %al,0x14(%esi)
    136d:	8b 46 08             	mov    0x8(%esi),%eax
    1370:	89 04 24             	mov    %eax,(%esp)
    1373:	e8 58 be 00 00       	call   d1d0 <pio_read_16>
    1378:	88 46 15             	mov    %al,0x15(%esi)
    137b:	83 c4 1c             	add    $0x1c,%esp
    137e:	31 c0                	xor    %eax,%eax
    1380:	5b                   	pop    %ebx
    1381:	5e                   	pop    %esi
    1382:	5f                   	pop    %edi
    1383:	5d                   	pop    %ebp
    1384:	c3                   	ret    
    1385:	8d 76 00             	lea    0x0(%esi),%esi
    1388:	83 c4 1c             	add    $0x1c,%esp
    138b:	b8 f8 fe ff ff       	mov    $0xfffffef8,%eax
    1390:	5b                   	pop    %ebx
    1391:	5e                   	pop    %esi
    1392:	5f                   	pop    %edi
    1393:	5d                   	pop    %ebp
    1394:	c3                   	ret    
    1395:	8d 74 26 00          	lea    0x0(%esi,%eiz,1),%esi
    1399:	8d bc 27 00 00 00 00 	lea    0x0(%edi,%eiz,1),%edi

000013a0 <ne2k_set_physical_address>:
    13a0:	55                   	push   %ebp
    13a1:	89 e5                	mov    %esp,%ebp
    13a3:	53                   	push   %ebx
    13a4:	83 ec 14             	sub    $0x14,%esp
    13a7:	8b 5d 08             	mov    0x8(%ebp),%ebx
    13aa:	8b 45 0c             	mov    0xc(%ebp),%eax
    13ad:	89 44 24 04          	mov    %eax,0x4(%esp)
    13b1:	c7 44 24 08 06 00 00 	movl   $0x6,0x8(%esp)
    13b8:	00 
    13b9:	8d 43 10             	lea    0x10(%ebx),%eax
    13bc:	89 04 24             	mov    %eax,(%esp)
    13bf:	e8 ac e1 00 00       	call   f570 <memcpy>
    13c4:	c7 44 24 04 21 00 00 	movl   $0x21,0x4(%esp)
    13cb:	00 
    13cc:	8b 43 04             	mov    0x4(%ebx),%eax
    13cf:	89 04 24             	mov    %eax,(%esp)
    13d2:	e8 c9 bc 00 00       	call   d0a0 <pio_write_8>
    13d7:	c7 44 24 04 0c 00 00 	movl   $0xc,0x4(%esp)
    13de:	00 
    13df:	8b 43 04             	mov    0x4(%ebx),%eax
    13e2:	83 c0 0a             	add    $0xa,%eax
    13e5:	89 04 24             	mov    %eax,(%esp)
    13e8:	e8 b3 bc 00 00       	call   d0a0 <pio_write_8>
    13ed:	c7 44 24 04 00 00 00 	movl   $0x0,0x4(%esp)
    13f4:	00 
    13f5:	8b 43 04             	mov    0x4(%ebx),%eax
    13f8:	83 c0 0b             	add    $0xb,%eax
    13fb:	89 04 24             	mov    %eax,(%esp)
    13fe:	e8 9d bc 00 00       	call   d0a0 <pio_write_8>
    1403:	c7 44 24 04 00 00 00 	movl   $0x0,0x4(%esp)
    140a:	00 
    140b:	8b 43 04             	mov    0x4(%ebx),%eax
    140e:	83 c0 08             	add    $0x8,%eax
    1411:	89 04 24             	mov    %eax,(%esp)
    1414:	e8 87 bc 00 00       	call   d0a0 <pio_write_8>
    1419:	c7 44 24 04 00 00 00 	movl   $0x0,0x4(%esp)
    1420:	00 
    1421:	8b 43 04             	mov    0x4(%ebx),%eax
    1424:	83 c0 09             	add    $0x9,%eax
    1427:	89 04 24             	mov    %eax,(%esp)
    142a:	e8 71 bc 00 00       	call   d0a0 <pio_write_8>
    142f:	c7 44 24 04 12 00 00 	movl   $0x12,0x4(%esp)
    1436:	00 
    1437:	8b 43 04             	mov    0x4(%ebx),%eax
    143a:	89 04 24             	mov    %eax,(%esp)
    143d:	e8 5e bc 00 00       	call   d0a0 <pio_write_8>
    1442:	31 c0                	xor    %eax,%eax
    1444:	8a 43 10             	mov    0x10(%ebx),%al
    1447:	89 44 24 04          	mov    %eax,0x4(%esp)
    144b:	8b 43 08             	mov    0x8(%ebx),%eax
    144e:	89 04 24             	mov    %eax,(%esp)
    1451:	e8 9a bc 00 00       	call   d0f0 <pio_write_16>
    1456:	31 c0                	xor    %eax,%eax
    1458:	8a 43 11             	mov    0x11(%ebx),%al
    145b:	89 44 24 04          	mov    %eax,0x4(%esp)
    145f:	8b 43 08             	mov    0x8(%ebx),%eax
    1462:	89 04 24             	mov    %eax,(%esp)
    1465:	e8 86 bc 00 00       	call   d0f0 <pio_write_16>
    146a:	31 c0                	xor    %eax,%eax
    146c:	8a 43 12             	mov    0x12(%ebx),%al
    146f:	89 44 24 04          	mov    %eax,0x4(%esp)
    1473:	8b 43 08             	mov    0x8(%ebx),%eax
    1476:	89 04 24             	mov    %eax,(%esp)
    1479:	e8 72 bc 00 00       	call   d0f0 <pio_write_16>
    147e:	31 c0                	xor    %eax,%eax
    1480:	8a 43 13             	mov    0x13(%ebx),%al
    1483:	89 44 24 04          	mov    %eax,0x4(%esp)
    1487:	8b 43 08             	mov    0x8(%ebx),%eax
    148a:	89 04 24             	mov    %eax,(%esp)
    148d:	e8 5e bc 00 00       	call   d0f0 <pio_write_16>
    1492:	31 c0                	xor    %eax,%eax
    1494:	8a 43 14             	mov    0x14(%ebx),%al
    1497:	89 44 24 04          	mov    %eax,0x4(%esp)
    149b:	8b 43 08             	mov    0x8(%ebx),%eax
    149e:	89 04 24             	mov    %eax,(%esp)
    14a1:	e8 4a bc 00 00       	call   d0f0 <pio_write_16>
    14a6:	31 c0                	xor    %eax,%eax
    14a8:	8a 43 15             	mov    0x15(%ebx),%al
    14ab:	89 45 0c             	mov    %eax,0xc(%ebp)
    14ae:	8b 43 08             	mov    0x8(%ebx),%eax
    14b1:	89 45 08             	mov    %eax,0x8(%ebp)
    14b4:	83 c4 14             	add    $0x14,%esp
    14b7:	5b                   	pop    %ebx
    14b8:	5d                   	pop    %ebp
    14b9:	e9 32 bc 00 00       	jmp    d0f0 <pio_write_16>
    14be:	66 90                	xchg   %ax,%ax

000014c0 <ne2k_up>:
    14c0:	55                   	push   %ebp
    14c1:	89 e5                	mov    %esp,%ebp
    14c3:	57                   	push   %edi
    14c4:	56                   	push   %esi
    14c5:	53                   	push   %ebx
    14c6:	83 ec 1c             	sub    $0x1c,%esp
    14c9:	8b 5d 08             	mov    0x8(%ebp),%ebx
    14cc:	80 7b 3c 00          	cmpb   $0x0,0x3c(%ebx)
    14d0:	0f 84 5e 03 00 00    	je     1834 <ne2k_up+0x374>
    14d6:	8b 43 04             	mov    0x4(%ebx),%eax
    14d9:	8d 7b 04             	lea    0x4(%ebx),%edi
    14dc:	83 c0 1f             	add    $0x1f,%eax
    14df:	89 04 24             	mov    %eax,(%esp)
    14e2:	e8 a9 bc 00 00       	call   d190 <pio_read_8>
    14e7:	c7 04 24 d0 07 00 00 	movl   $0x7d0,(%esp)
    14ee:	89 c6                	mov    %eax,%esi
    14f0:	e8 bb 26 02 00       	call   23bb0 <usleep>
    14f5:	81 e6 ff 00 00 00    	and    $0xff,%esi
    14fb:	89 74 24 04          	mov    %esi,0x4(%esp)
    14ff:	be 00 10 00 00       	mov    $0x1000,%esi
    1504:	8b 43 04             	mov    0x4(%ebx),%eax
    1507:	83 c0 1f             	add    $0x1f,%eax
    150a:	89 04 24             	mov    %eax,(%esp)
    150d:	e8 8e bb 00 00       	call   d0a0 <pio_write_8>
    1512:	c7 04 24 d0 07 00 00 	movl   $0x7d0,(%esp)
    1519:	e8 92 26 02 00       	call   23bb0 <usleep>
    151e:	c7 44 24 04 21 00 00 	movl   $0x21,0x4(%esp)
    1525:	00 
    1526:	8b 43 04             	mov    0x4(%ebx),%eax
    1529:	89 04 24             	mov    %eax,(%esp)
    152c:	e8 6f bb 00 00       	call   d0a0 <pio_write_8>
    1531:	eb 08                	jmp    153b <ne2k_up+0x7b>
    1533:	90                   	nop
    1534:	8d 74 26 00          	lea    0x0(%esi,%eiz,1),%esi
    1538:	4e                   	dec    %esi
    1539:	74 11                	je     154c <ne2k_up+0x8c>
    153b:	8b 07                	mov    (%edi),%eax
    153d:	83 c0 07             	add    $0x7,%eax
    1540:	89 04 24             	mov    %eax,(%esp)
    1543:	e8 48 bc 00 00       	call   d190 <pio_read_8>
    1548:	84 c0                	test   %al,%al
    154a:	74 ec                	je     1538 <ne2k_up+0x78>
    154c:	8d 43 24             	lea    0x24(%ebx),%eax
    154f:	c6 43 18 00          	movb   $0x0,0x18(%ebx)
    1553:	c6 43 20 40          	movb   $0x40,0x20(%ebx)
    1557:	89 04 24             	mov    %eax,(%esp)
    155a:	e8 d1 20 01 00       	call   13630 <fibril_mutex_initialize>
    155f:	8d 43 34             	lea    0x34(%ebx),%eax
    1562:	89 04 24             	mov    %eax,(%esp)
    1565:	e8 56 27 01 00       	call   13cc0 <fibril_condvar_initialize>
    156a:	8a 43 20             	mov    0x20(%ebx),%al
    156d:	83 c0 06             	add    $0x6,%eax
    1570:	88 43 16             	mov    %al,0x16(%ebx)
    1573:	8a 43 20             	mov    0x20(%ebx),%al
    1576:	83 c0 40             	add    $0x40,%eax
    1579:	88 43 17             	mov    %al,0x17(%ebx)
    157c:	c7 44 24 04 21 00 00 	movl   $0x21,0x4(%esp)
    1583:	00 
    1584:	8b 43 04             	mov    0x4(%ebx),%eax
    1587:	89 04 24             	mov    %eax,(%esp)
    158a:	e8 11 bb 00 00       	call   d0a0 <pio_write_8>
    158f:	c7 44 24 04 29 00 00 	movl   $0x29,0x4(%esp)
    1596:	00 
    1597:	8b 43 04             	mov    0x4(%ebx),%eax
    159a:	83 c0 0e             	add    $0xe,%eax
    159d:	89 04 24             	mov    %eax,(%esp)
    15a0:	e8 fb ba 00 00       	call   d0a0 <pio_write_8>
    15a5:	c7 44 24 04 00 00 00 	movl   $0x0,0x4(%esp)
    15ac:	00 
    15ad:	8b 43 04             	mov    0x4(%ebx),%eax
    15b0:	83 c0 0a             	add    $0xa,%eax
    15b3:	89 04 24             	mov    %eax,(%esp)
    15b6:	e8 e5 ba 00 00       	call   d0a0 <pio_write_8>
    15bb:	c7 44 24 04 00 00 00 	movl   $0x0,0x4(%esp)
    15c2:	00 
    15c3:	8b 43 04             	mov    0x4(%ebx),%eax
    15c6:	83 c0 0b             	add    $0xb,%eax
    15c9:	89 04 24             	mov    %eax,(%esp)
    15cc:	e8 cf ba 00 00       	call   d0a0 <pio_write_8>
    15d1:	31 c0                	xor    %eax,%eax
    15d3:	8a 43 50             	mov    0x50(%ebx),%al
    15d6:	89 44 24 04          	mov    %eax,0x4(%esp)
    15da:	8b 43 04             	mov    0x4(%ebx),%eax
    15dd:	83 c0 0c             	add    $0xc,%eax
    15e0:	89 04 24             	mov    %eax,(%esp)
    15e3:	e8 b8 ba 00 00       	call   d0a0 <pio_write_8>
    15e8:	c7 44 24 04 02 00 00 	movl   $0x2,0x4(%esp)
    15ef:	00 
    15f0:	8b 43 04             	mov    0x4(%ebx),%eax
    15f3:	83 c0 0d             	add    $0xd,%eax
    15f6:	89 04 24             	mov    %eax,(%esp)
    15f9:	e8 a2 ba 00 00       	call   d0a0 <pio_write_8>
    15fe:	31 c0                	xor    %eax,%eax
    1600:	8a 43 16             	mov    0x16(%ebx),%al
    1603:	89 44 24 04          	mov    %eax,0x4(%esp)
    1607:	8b 43 04             	mov    0x4(%ebx),%eax
    160a:	83 c0 03             	add    $0x3,%eax
    160d:	89 04 24             	mov    %eax,(%esp)
    1610:	e8 8b ba 00 00       	call   d0a0 <pio_write_8>
    1615:	31 c0                	xor    %eax,%eax
    1617:	8a 43 16             	mov    0x16(%ebx),%al
    161a:	89 44 24 04          	mov    %eax,0x4(%esp)
    161e:	8b 43 04             	mov    0x4(%ebx),%eax
    1621:	40                   	inc    %eax
    1622:	89 04 24             	mov    %eax,(%esp)
    1625:	e8 76 ba 00 00       	call   d0a0 <pio_write_8>
    162a:	31 c0                	xor    %eax,%eax
    162c:	8a 43 17             	mov    0x17(%ebx),%al
    162f:	89 44 24 04          	mov    %eax,0x4(%esp)
    1633:	8b 43 04             	mov    0x4(%ebx),%eax
    1636:	83 c0 02             	add    $0x2,%eax
    1639:	89 04 24             	mov    %eax,(%esp)
    163c:	e8 5f ba 00 00       	call   d0a0 <pio_write_8>
    1641:	c7 44 24 04 ff 00 00 	movl   $0xff,0x4(%esp)
    1648:	00 
    1649:	8b 43 04             	mov    0x4(%ebx),%eax
    164c:	83 c0 07             	add    $0x7,%eax
    164f:	89 04 24             	mov    %eax,(%esp)
    1652:	e8 49 ba 00 00       	call   d0a0 <pio_write_8>
    1657:	c7 44 24 04 3f 00 00 	movl   $0x3f,0x4(%esp)
    165e:	00 
    165f:	8b 43 04             	mov    0x4(%ebx),%eax
    1662:	83 c0 0f             	add    $0xf,%eax
    1665:	89 04 24             	mov    %eax,(%esp)
    1668:	e8 33 ba 00 00       	call   d0a0 <pio_write_8>
    166d:	c7 44 24 04 61 00 00 	movl   $0x61,0x4(%esp)
    1674:	00 
    1675:	8b 43 04             	mov    0x4(%ebx),%eax
    1678:	89 04 24             	mov    %eax,(%esp)
    167b:	e8 20 ba 00 00       	call   d0a0 <pio_write_8>
    1680:	31 c0                	xor    %eax,%eax
    1682:	8a 43 10             	mov    0x10(%ebx),%al
    1685:	89 44 24 04          	mov    %eax,0x4(%esp)
    1689:	8b 43 04             	mov    0x4(%ebx),%eax
    168c:	40                   	inc    %eax
    168d:	89 04 24             	mov    %eax,(%esp)
    1690:	e8 0b ba 00 00       	call   d0a0 <pio_write_8>
    1695:	31 c0                	xor    %eax,%eax
    1697:	8a 43 11             	mov    0x11(%ebx),%al
    169a:	89 44 24 04          	mov    %eax,0x4(%esp)
    169e:	8b 43 04             	mov    0x4(%ebx),%eax
    16a1:	83 c0 02             	add    $0x2,%eax
    16a4:	89 04 24             	mov    %eax,(%esp)
    16a7:	e8 f4 b9 00 00       	call   d0a0 <pio_write_8>
    16ac:	31 c0                	xor    %eax,%eax
    16ae:	8a 43 12             	mov    0x12(%ebx),%al
    16b1:	89 44 24 04          	mov    %eax,0x4(%esp)
    16b5:	8b 43 04             	mov    0x4(%ebx),%eax
    16b8:	83 c0 03             	add    $0x3,%eax
    16bb:	89 04 24             	mov    %eax,(%esp)
    16be:	e8 dd b9 00 00       	call   d0a0 <pio_write_8>
    16c3:	31 c0                	xor    %eax,%eax
    16c5:	8a 43 13             	mov    0x13(%ebx),%al
    16c8:	89 44 24 04          	mov    %eax,0x4(%esp)
    16cc:	8b 43 04             	mov    0x4(%ebx),%eax
    16cf:	83 c0 04             	add    $0x4,%eax
    16d2:	89 04 24             	mov    %eax,(%esp)
    16d5:	e8 c6 b9 00 00       	call   d0a0 <pio_write_8>
    16da:	31 c0                	xor    %eax,%eax
    16dc:	8a 43 14             	mov    0x14(%ebx),%al
    16df:	89 44 24 04          	mov    %eax,0x4(%esp)
    16e3:	8b 43 04             	mov    0x4(%ebx),%eax
    16e6:	83 c0 05             	add    $0x5,%eax
    16e9:	89 04 24             	mov    %eax,(%esp)
    16ec:	e8 af b9 00 00       	call   d0a0 <pio_write_8>
    16f1:	31 c0                	xor    %eax,%eax
    16f3:	8a 43 15             	mov    0x15(%ebx),%al
    16f6:	89 44 24 04          	mov    %eax,0x4(%esp)
    16fa:	8b 43 04             	mov    0x4(%ebx),%eax
    16fd:	83 c0 06             	add    $0x6,%eax
    1700:	89 04 24             	mov    %eax,(%esp)
    1703:	e8 98 b9 00 00       	call   d0a0 <pio_write_8>
    1708:	c7 44 24 04 00 00 00 	movl   $0x0,0x4(%esp)
    170f:	00 
    1710:	8b 43 04             	mov    0x4(%ebx),%eax
    1713:	83 c0 08             	add    $0x8,%eax
    1716:	89 04 24             	mov    %eax,(%esp)
    1719:	e8 82 b9 00 00       	call   d0a0 <pio_write_8>
    171e:	c7 44 24 04 00 00 00 	movl   $0x0,0x4(%esp)
    1725:	00 
    1726:	8b 43 04             	mov    0x4(%ebx),%eax
    1729:	83 c0 09             	add    $0x9,%eax
    172c:	89 04 24             	mov    %eax,(%esp)
    172f:	e8 6c b9 00 00       	call   d0a0 <pio_write_8>
    1734:	c7 44 24 04 00 00 00 	movl   $0x0,0x4(%esp)
    173b:	00 
    173c:	8b 43 04             	mov    0x4(%ebx),%eax
    173f:	83 c0 0a             	add    $0xa,%eax
    1742:	89 04 24             	mov    %eax,(%esp)
    1745:	e8 56 b9 00 00       	call   d0a0 <pio_write_8>
    174a:	c7 44 24 04 00 00 00 	movl   $0x0,0x4(%esp)
    1751:	00 
    1752:	8b 43 04             	mov    0x4(%ebx),%eax
    1755:	83 c0 0b             	add    $0xb,%eax
    1758:	89 04 24             	mov    %eax,(%esp)
    175b:	e8 40 b9 00 00       	call   d0a0 <pio_write_8>
    1760:	c7 44 24 04 00 00 00 	movl   $0x0,0x4(%esp)
    1767:	00 
    1768:	8b 43 04             	mov    0x4(%ebx),%eax
    176b:	83 c0 0c             	add    $0xc,%eax
    176e:	89 04 24             	mov    %eax,(%esp)
    1771:	e8 2a b9 00 00       	call   d0a0 <pio_write_8>
    1776:	c7 44 24 04 00 00 00 	movl   $0x0,0x4(%esp)
    177d:	00 
    177e:	8b 43 04             	mov    0x4(%ebx),%eax
    1781:	83 c0 0d             	add    $0xd,%eax
    1784:	89 04 24             	mov    %eax,(%esp)
    1787:	e8 14 b9 00 00       	call   d0a0 <pio_write_8>
    178c:	c7 44 24 04 00 00 00 	movl   $0x0,0x4(%esp)
    1793:	00 
    1794:	8b 43 04             	mov    0x4(%ebx),%eax
    1797:	83 c0 0e             	add    $0xe,%eax
    179a:	89 04 24             	mov    %eax,(%esp)
    179d:	e8 fe b8 00 00       	call   d0a0 <pio_write_8>
    17a2:	c7 44 24 04 00 00 00 	movl   $0x0,0x4(%esp)
    17a9:	00 
    17aa:	8b 43 04             	mov    0x4(%ebx),%eax
    17ad:	83 c0 0f             	add    $0xf,%eax
    17b0:	89 04 24             	mov    %eax,(%esp)
    17b3:	e8 e8 b8 00 00       	call   d0a0 <pio_write_8>
    17b8:	8a 43 16             	mov    0x16(%ebx),%al
    17bb:	40                   	inc    %eax
    17bc:	25 ff 00 00 00       	and    $0xff,%eax
    17c1:	89 44 24 04          	mov    %eax,0x4(%esp)
    17c5:	8b 43 04             	mov    0x4(%ebx),%eax
    17c8:	83 c0 07             	add    $0x7,%eax
    17cb:	89 04 24             	mov    %eax,(%esp)
    17ce:	e8 cd b8 00 00       	call   d0a0 <pio_write_8>
    17d3:	c7 44 24 04 22 00 00 	movl   $0x22,0x4(%esp)
    17da:	00 
    17db:	8b 43 04             	mov    0x4(%ebx),%eax
    17de:	89 04 24             	mov    %eax,(%esp)
    17e1:	e8 ba b8 00 00       	call   d0a0 <pio_write_8>
    17e6:	c7 44 24 04 00 00 00 	movl   $0x0,0x4(%esp)
    17ed:	00 
    17ee:	8b 43 04             	mov    0x4(%ebx),%eax
    17f1:	83 c0 0d             	add    $0xd,%eax
    17f4:	89 04 24             	mov    %eax,(%esp)
    17f7:	e8 a4 b8 00 00       	call   d0a0 <pio_write_8>
    17fc:	8b 43 04             	mov    0x4(%ebx),%eax
    17ff:	83 c0 0d             	add    $0xd,%eax
    1802:	89 04 24             	mov    %eax,(%esp)
    1805:	e8 86 b9 00 00       	call   d190 <pio_read_8>
    180a:	8b 43 04             	mov    0x4(%ebx),%eax
    180d:	83 c0 0e             	add    $0xe,%eax
    1810:	89 04 24             	mov    %eax,(%esp)
    1813:	e8 78 b9 00 00       	call   d190 <pio_read_8>
    1818:	8b 43 04             	mov    0x4(%ebx),%eax
    181b:	83 c0 0f             	add    $0xf,%eax
    181e:	89 04 24             	mov    %eax,(%esp)
    1821:	e8 6a b9 00 00       	call   d190 <pio_read_8>
    1826:	c6 43 3d 01          	movb   $0x1,0x3d(%ebx)
    182a:	31 c0                	xor    %eax,%eax
    182c:	83 c4 1c             	add    $0x1c,%esp
    182f:	5b                   	pop    %ebx
    1830:	5e                   	pop    %esi
    1831:	5f                   	pop    %edi
    1832:	5d                   	pop    %ebp
    1833:	c3                   	ret    
    1834:	b8 f8 fe ff ff       	mov    $0xfffffef8,%eax
    1839:	eb f1                	jmp    182c <ne2k_up+0x36c>
    183b:	90                   	nop
    183c:	8d 74 26 00          	lea    0x0(%esi,%eiz,1),%esi

00001840 <ne2k_down>:
    1840:	55                   	push   %ebp
    1841:	89 e5                	mov    %esp,%ebp
    1843:	57                   	push   %edi
    1844:	56                   	push   %esi
    1845:	53                   	push   %ebx
    1846:	83 ec 1c             	sub    $0x1c,%esp
    1849:	8b 7d 08             	mov    0x8(%ebp),%edi
    184c:	80 7f 3c 00          	cmpb   $0x0,0x3c(%edi)
    1850:	74 06                	je     1858 <ne2k_down+0x18>
    1852:	80 7f 3d 00          	cmpb   $0x0,0x3d(%edi)
    1856:	75 08                	jne    1860 <ne2k_down+0x20>
    1858:	83 c4 1c             	add    $0x1c,%esp
    185b:	5b                   	pop    %ebx
    185c:	5e                   	pop    %esi
    185d:	5f                   	pop    %edi
    185e:	5d                   	pop    %ebp
    185f:	c3                   	ret    
    1860:	c7 44 24 04 21 00 00 	movl   $0x21,0x4(%esp)
    1867:	00 
    1868:	8d 77 04             	lea    0x4(%edi),%esi
    186b:	8b 47 04             	mov    0x4(%edi),%eax
    186e:	89 04 24             	mov    %eax,(%esp)
    1871:	e8 2a b8 00 00       	call   d0a0 <pio_write_8>
    1876:	8b 47 04             	mov    0x4(%edi),%eax
    1879:	83 c0 1f             	add    $0x1f,%eax
    187c:	89 04 24             	mov    %eax,(%esp)
    187f:	e8 0c b9 00 00       	call   d190 <pio_read_8>
    1884:	c7 04 24 d0 07 00 00 	movl   $0x7d0,(%esp)
    188b:	88 c3                	mov    %al,%bl
    188d:	e8 1e 23 02 00       	call   23bb0 <usleep>
    1892:	81 e3 ff 00 00 00    	and    $0xff,%ebx
    1898:	89 5c 24 04          	mov    %ebx,0x4(%esp)
    189c:	bb 00 10 00 00       	mov    $0x1000,%ebx
    18a1:	8b 47 04             	mov    0x4(%edi),%eax
    18a4:	83 c0 1f             	add    $0x1f,%eax
    18a7:	89 04 24             	mov    %eax,(%esp)
    18aa:	e8 f1 b7 00 00       	call   d0a0 <pio_write_8>
    18af:	c7 04 24 d0 07 00 00 	movl   $0x7d0,(%esp)
    18b6:	e8 f5 22 02 00       	call   23bb0 <usleep>
    18bb:	c7 44 24 04 21 00 00 	movl   $0x21,0x4(%esp)
    18c2:	00 
    18c3:	8b 47 04             	mov    0x4(%edi),%eax
    18c6:	89 04 24             	mov    %eax,(%esp)
    18c9:	e8 d2 b7 00 00       	call   d0a0 <pio_write_8>
    18ce:	eb 03                	jmp    18d3 <ne2k_down+0x93>
    18d0:	4b                   	dec    %ebx
    18d1:	74 11                	je     18e4 <ne2k_down+0xa4>
    18d3:	8b 06                	mov    (%esi),%eax
    18d5:	83 c0 07             	add    $0x7,%eax
    18d8:	89 04 24             	mov    %eax,(%esp)
    18db:	e8 b0 b8 00 00       	call   d190 <pio_read_8>
    18e0:	84 c0                	test   %al,%al
    18e2:	74 ec                	je     18d0 <ne2k_down+0x90>
    18e4:	c6 47 3d 00          	movb   $0x0,0x3d(%edi)
    18e8:	83 c4 1c             	add    $0x1c,%esp
    18eb:	5b                   	pop    %ebx
    18ec:	5e                   	pop    %esi
    18ed:	5f                   	pop    %edi
    18ee:	5d                   	pop    %ebp
    18ef:	c3                   	ret    

000018f0 <ne2k_send>:
    18f0:	55                   	push   %ebp
    18f1:	89 e5                	mov    %esp,%ebp
    18f3:	57                   	push   %edi
    18f4:	56                   	push   %esi
    18f5:	53                   	push   %ebx
    18f6:	83 ec 3c             	sub    $0x3c,%esp
    18f9:	8b 45 08             	mov    0x8(%ebp),%eax
    18fc:	89 04 24             	mov    %eax,(%esp)
    18ff:	e8 8c 7e 00 00       	call   9790 <nic_get_specific>
    1904:	89 c3                	mov    %eax,%ebx
    1906:	80 78 3c 00          	cmpb   $0x0,0x3c(%eax)
    190a:	0f 84 cf 01 00 00    	je     1adf <ne2k_send+0x1ef>
    1910:	80 78 3d 00          	cmpb   $0x0,0x3d(%eax)
    1914:	0f 84 a9 01 00 00    	je     1ac3 <ne2k_send+0x1d3>
    191a:	8d 70 24             	lea    0x24(%eax),%esi
    191d:	8d 7b 34             	lea    0x34(%ebx),%edi
    1920:	89 34 24             	mov    %esi,(%esp)
    1923:	e8 28 1d 01 00       	call   13650 <fibril_mutex_lock>
    1928:	80 7b 18 00          	cmpb   $0x0,0x18(%ebx)
    192c:	74 14                	je     1942 <ne2k_send+0x52>
    192e:	66 90                	xchg   %ax,%ax
    1930:	89 74 24 04          	mov    %esi,0x4(%esp)
    1934:	89 3c 24             	mov    %edi,(%esp)
    1937:	e8 64 29 01 00       	call   142a0 <fibril_condvar_wait>
    193c:	80 7b 18 00          	cmpb   $0x0,0x18(%ebx)
    1940:	75 ee                	jne    1930 <ne2k_send+0x40>
    1942:	8b 45 10             	mov    0x10(%ebp),%eax
    1945:	83 e8 3c             	sub    $0x3c,%eax
    1948:	3d b2 05 00 00       	cmp    $0x5b2,%eax
    194d:	0f 87 60 01 00 00    	ja     1ab3 <ne2k_send+0x1c3>
    1953:	8a 43 20             	mov    0x20(%ebx),%al
    1956:	8b 55 10             	mov    0x10(%ebp),%edx
    1959:	25 ff 00 00 00       	and    $0xff,%eax
    195e:	83 e2 fe             	and    $0xfffffffe,%edx
    1961:	89 c7                	mov    %eax,%edi
    1963:	8b 45 10             	mov    0x10(%ebp),%eax
    1966:	40                   	inc    %eax
    1967:	89 55 d4             	mov    %edx,-0x2c(%ebp)
    196a:	c1 e7 08             	shl    $0x8,%edi
    196d:	89 c2                	mov    %eax,%edx
    196f:	c1 ef 08             	shr    $0x8,%edi
    1972:	81 e2 fe 00 00 00    	and    $0xfe,%edx
    1978:	89 54 24 04          	mov    %edx,0x4(%esp)
    197c:	8b 53 04             	mov    0x4(%ebx),%edx
    197f:	89 45 c8             	mov    %eax,-0x38(%ebp)
    1982:	83 c2 0a             	add    $0xa,%edx
    1985:	89 14 24             	mov    %edx,(%esp)
    1988:	e8 13 b7 00 00       	call   d0a0 <pio_write_8>
    198d:	8b 45 c8             	mov    -0x38(%ebp),%eax
    1990:	c1 e8 08             	shr    $0x8,%eax
    1993:	89 44 24 04          	mov    %eax,0x4(%esp)
    1997:	8b 43 04             	mov    0x4(%ebx),%eax
    199a:	83 c0 0b             	add    $0xb,%eax
    199d:	89 04 24             	mov    %eax,(%esp)
    19a0:	e8 fb b6 00 00       	call   d0a0 <pio_write_8>
    19a5:	c7 44 24 04 00 00 00 	movl   $0x0,0x4(%esp)
    19ac:	00 
    19ad:	8b 43 04             	mov    0x4(%ebx),%eax
    19b0:	83 c0 08             	add    $0x8,%eax
    19b3:	89 04 24             	mov    %eax,(%esp)
    19b6:	e8 e5 b6 00 00       	call   d0a0 <pio_write_8>
    19bb:	89 7c 24 04          	mov    %edi,0x4(%esp)
    19bf:	8b 43 04             	mov    0x4(%ebx),%eax
    19c2:	83 c0 09             	add    $0x9,%eax
    19c5:	89 04 24             	mov    %eax,(%esp)
    19c8:	e8 d3 b6 00 00       	call   d0a0 <pio_write_8>
    19cd:	c7 44 24 04 12 00 00 	movl   $0x12,0x4(%esp)
    19d4:	00 
    19d5:	8b 43 04             	mov    0x4(%ebx),%eax
    19d8:	89 04 24             	mov    %eax,(%esp)
    19db:	e8 c0 b6 00 00       	call   d0a0 <pio_write_8>
    19e0:	8b 7d d4             	mov    -0x2c(%ebp),%edi
    19e3:	85 ff                	test   %edi,%edi
    19e5:	75 21                	jne    1a08 <ne2k_send+0x118>
    19e7:	c7 44 24 08 9e 00 00 	movl   $0x9e,0x8(%esp)
    19ee:	00 
    19ef:	c7 44 24 04 72 b6 02 	movl   $0x2b672,0x4(%esp)
    19f6:	00 
    19f7:	c7 04 24 7b b6 02 00 	movl   $0x2b67b,(%esp)
    19fe:	e8 2d 56 02 00       	call   27030 <assert_abort>
    1a03:	90                   	nop
    1a04:	8d 74 26 00          	lea    0x0(%esi,%eiz,1),%esi
    1a08:	31 ff                	xor    %edi,%edi
    1a0a:	8b 43 08             	mov    0x8(%ebx),%eax
    1a0d:	89 5d d0             	mov    %ebx,-0x30(%ebp)
    1a10:	89 75 cc             	mov    %esi,-0x34(%ebp)
    1a13:	89 c3                	mov    %eax,%ebx
    1a15:	89 fe                	mov    %edi,%esi
    1a17:	8b 7d 0c             	mov    0xc(%ebp),%edi
    1a1a:	8d b6 00 00 00 00    	lea    0x0(%esi),%esi
    1a20:	66 8b 14 77          	mov    (%edi,%esi,2),%dx
    1a24:	46                   	inc    %esi
    1a25:	81 e2 ff ff 00 00    	and    $0xffff,%edx
    1a2b:	89 1c 24             	mov    %ebx,(%esp)
    1a2e:	89 54 24 04          	mov    %edx,0x4(%esp)
    1a32:	e8 b9 b6 00 00       	call   d0f0 <pio_write_16>
    1a37:	8d 14 36             	lea    (%esi,%esi,1),%edx
    1a3a:	39 55 d4             	cmp    %edx,-0x2c(%ebp)
    1a3d:	77 e1                	ja     1a20 <ne2k_send+0x130>
    1a3f:	8b 55 10             	mov    0x10(%ebp),%edx
    1a42:	8b 5d d0             	mov    -0x30(%ebp),%ebx
    1a45:	2b 55 d4             	sub    -0x2c(%ebp),%edx
    1a48:	8b 75 cc             	mov    -0x34(%ebp),%esi
    1a4b:	0f 85 aa 00 00 00    	jne    1afb <ne2k_send+0x20b>
    1a51:	31 c0                	xor    %eax,%eax
    1a53:	8b 55 10             	mov    0x10(%ebp),%edx
    1a56:	8a 43 20             	mov    0x20(%ebx),%al
    1a59:	89 53 1c             	mov    %edx,0x1c(%ebx)
    1a5c:	c6 43 18 01          	movb   $0x1,0x18(%ebx)
    1a60:	89 44 24 04          	mov    %eax,0x4(%esp)
    1a64:	8b 43 04             	mov    0x4(%ebx),%eax
    1a67:	83 c0 04             	add    $0x4,%eax
    1a6a:	89 04 24             	mov    %eax,(%esp)
    1a6d:	e8 2e b6 00 00       	call   d0a0 <pio_write_8>
    1a72:	0f b6 45 10          	movzbl 0x10(%ebp),%eax
    1a76:	89 44 24 04          	mov    %eax,0x4(%esp)
    1a7a:	8b 43 04             	mov    0x4(%ebx),%eax
    1a7d:	83 c0 05             	add    $0x5,%eax
    1a80:	89 04 24             	mov    %eax,(%esp)
    1a83:	e8 18 b6 00 00       	call   d0a0 <pio_write_8>
    1a88:	8b 45 10             	mov    0x10(%ebp),%eax
    1a8b:	c1 e8 08             	shr    $0x8,%eax
    1a8e:	89 44 24 04          	mov    %eax,0x4(%esp)
    1a92:	8b 43 04             	mov    0x4(%ebx),%eax
    1a95:	83 c0 06             	add    $0x6,%eax
    1a98:	89 04 24             	mov    %eax,(%esp)
    1a9b:	e8 00 b6 00 00       	call   d0a0 <pio_write_8>
    1aa0:	c7 44 24 04 06 00 00 	movl   $0x6,0x4(%esp)
    1aa7:	00 
    1aa8:	8b 43 04             	mov    0x4(%ebx),%eax
    1aab:	89 04 24             	mov    %eax,(%esp)
    1aae:	e8 ed b5 00 00       	call   d0a0 <pio_write_8>
    1ab3:	89 34 24             	mov    %esi,(%esp)
    1ab6:	e8 b5 1c 01 00       	call   13770 <fibril_mutex_unlock>
    1abb:	83 c4 3c             	add    $0x3c,%esp
    1abe:	5b                   	pop    %ebx
    1abf:	5e                   	pop    %esi
    1ac0:	5f                   	pop    %edi
    1ac1:	5d                   	pop    %ebp
    1ac2:	c3                   	ret    
    1ac3:	c7 44 24 08 9d 01 00 	movl   $0x19d,0x8(%esp)
    1aca:	00 
    1acb:	c7 44 24 04 72 b6 02 	movl   $0x2b672,0x4(%esp)
    1ad2:	00 
    1ad3:	c7 04 24 92 b6 02 00 	movl   $0x2b692,(%esp)
    1ada:	e8 51 55 02 00       	call   27030 <assert_abort>
    1adf:	c7 44 24 08 9c 01 00 	movl   $0x19c,0x8(%esp)
    1ae6:	00 
    1ae7:	c7 44 24 04 72 b6 02 	movl   $0x2b672,0x4(%esp)
    1aee:	00 
    1aef:	c7 04 24 85 b6 02 00 	movl   $0x2b685,(%esp)
    1af6:	e8 35 55 02 00       	call   27030 <assert_abort>
    1afb:	8b 45 0c             	mov    0xc(%ebp),%eax
    1afe:	8b 4d d4             	mov    -0x2c(%ebp),%ecx
    1b01:	01 c8                	add    %ecx,%eax
    1b03:	4a                   	dec    %edx
    1b04:	0f 85 dd fe ff ff    	jne    19e7 <ne2k_send+0xf7>
    1b0a:	89 44 24 04          	mov    %eax,0x4(%esp)
    1b0e:	8d 45 e6             	lea    -0x1a(%ebp),%eax
    1b11:	c7 44 24 08 01 00 00 	movl   $0x1,0x8(%esp)
    1b18:	00 
    1b19:	89 04 24             	mov    %eax,(%esp)
    1b1c:	66 c7 45 e6 00 00    	movw   $0x0,-0x1a(%ebp)
    1b22:	e8 49 da 00 00       	call   f570 <memcpy>
    1b27:	66 8b 45 e6          	mov    -0x1a(%ebp),%ax
    1b2b:	25 ff ff 00 00       	and    $0xffff,%eax
    1b30:	89 44 24 04          	mov    %eax,0x4(%esp)
    1b34:	8b 43 08             	mov    0x8(%ebx),%eax
    1b37:	89 04 24             	mov    %eax,(%esp)
    1b3a:	e8 b1 b5 00 00       	call   d0f0 <pio_write_16>
    1b3f:	e9 0d ff ff ff       	jmp    1a51 <ne2k_send+0x161>
    1b44:	8d b6 00 00 00 00    	lea    0x0(%esi),%esi
    1b4a:	8d bf 00 00 00 00    	lea    0x0(%edi),%edi

00001b50 <ne2k_interrupt>:
    1b50:	55                   	push   %ebp
    1b51:	89 e5                	mov    %esp,%ebp
    1b53:	57                   	push   %edi
    1b54:	56                   	push   %esi
    1b55:	53                   	push   %ebx
    1b56:	83 ec 5c             	sub    $0x5c,%esp
    1b59:	8b 45 08             	mov    0x8(%ebp),%eax
    1b5c:	8a 55 0c             	mov    0xc(%ebp),%dl
    1b5f:	89 04 24             	mov    %eax,(%esp)
    1b62:	89 45 bc             	mov    %eax,-0x44(%ebp)
    1b65:	88 55 d2             	mov    %dl,-0x2e(%ebp)
    1b68:	8a 5d 10             	mov    0x10(%ebp),%bl
    1b6b:	e8 20 7c 00 00       	call   9790 <nic_get_specific>
    1b70:	f6 45 d2 0a          	testb  $0xa,-0x2e(%ebp)
    1b74:	89 c6                	mov    %eax,%esi
    1b76:	74 5d                	je     1bd5 <ne2k_interrupt+0x85>
    1b78:	f6 c3 04             	test   $0x4,%bl
    1b7b:	0f 85 ff 04 00 00    	jne    2080 <ne2k_interrupt+0x530>
    1b81:	f6 c3 01             	test   $0x1,%bl
    1b84:	0f 85 1f 05 00 00    	jne    20a9 <ne2k_interrupt+0x559>
    1b8a:	f6 c3 08             	test   $0x8,%bl
    1b8d:	0f 85 7d 05 00 00    	jne    2110 <ne2k_interrupt+0x5c0>
    1b93:	f6 c3 10             	test   $0x10,%bl
    1b96:	0f 85 34 05 00 00    	jne    20d0 <ne2k_interrupt+0x580>
    1b9c:	f6 c3 20             	test   $0x20,%bl
    1b9f:	0f 84 8b 05 00 00    	je     2130 <ne2k_interrupt+0x5e0>
    1ba5:	83 46 5c 01          	addl   $0x1,0x5c(%esi)
    1ba9:	83 56 60 00          	adcl   $0x0,0x60(%esi)
    1bad:	8d 76 00             	lea    0x0(%esi),%esi
    1bb0:	8d 5e 24             	lea    0x24(%esi),%ebx
    1bb3:	89 1c 24             	mov    %ebx,(%esp)
    1bb6:	e8 95 1a 01 00       	call   13650 <fibril_mutex_lock>
    1bbb:	80 7e 18 00          	cmpb   $0x0,0x18(%esi)
    1bbf:	0f 85 2b 05 00 00    	jne    20f0 <ne2k_interrupt+0x5a0>
    1bc5:	83 46 54 01          	addl   $0x1,0x54(%esi)
    1bc9:	83 56 58 00          	adcl   $0x0,0x58(%esi)
    1bcd:	89 1c 24             	mov    %ebx,(%esp)
    1bd0:	e8 9b 1b 01 00       	call   13770 <fibril_mutex_unlock>
    1bd5:	f6 45 d2 20          	testb  $0x20,-0x2e(%ebp)
    1bd9:	0f 85 f1 03 00 00    	jne    1fd0 <ne2k_interrupt+0x480>
    1bdf:	f6 45 d2 01          	testb  $0x1,-0x2e(%ebp)
    1be3:	75 2b                	jne    1c10 <ne2k_interrupt+0xc0>
    1be5:	80 7d d2 00          	cmpb   $0x0,-0x2e(%ebp)
    1be9:	0f 88 e0 02 00 00    	js     1ecf <ne2k_interrupt+0x37f>
    1bef:	c7 45 0c 3f 00 00 00 	movl   $0x3f,0xc(%ebp)
    1bf6:	8b 46 04             	mov    0x4(%esi),%eax
    1bf9:	83 c0 0f             	add    $0xf,%eax
    1bfc:	89 45 08             	mov    %eax,0x8(%ebp)
    1bff:	83 c4 5c             	add    $0x5c,%esp
    1c02:	5b                   	pop    %ebx
    1c03:	5e                   	pop    %esi
    1c04:	5f                   	pop    %edi
    1c05:	5d                   	pop    %ebp
    1c06:	e9 95 b4 00 00       	jmp    d0a0 <pio_write_8>
    1c0b:	90                   	nop
    1c0c:	8d 74 26 00          	lea    0x0(%esi,%eiz,1),%esi
    1c10:	8b 45 bc             	mov    -0x44(%ebp),%eax
    1c13:	89 04 24             	mov    %eax,(%esp)
    1c16:	e8 75 7b 00 00       	call   9790 <nic_get_specific>
    1c1b:	89 c7                	mov    %eax,%edi
    1c1d:	e8 ce 70 00 00       	call   8cf0 <nic_alloc_frame_list>
    1c22:	c7 45 c0 00 00 00 00 	movl   $0x0,-0x40(%ebp)
    1c29:	89 45 b8             	mov    %eax,-0x48(%ebp)
    1c2c:	89 75 b4             	mov    %esi,-0x4c(%ebp)
    1c2f:	e9 3f 01 00 00       	jmp    1d73 <ne2k_interrupt+0x223>
    1c34:	8d 74 26 00          	lea    0x0(%esi,%eiz,1),%esi
    1c38:	c7 44 24 04 42 00 00 	movl   $0x42,0x4(%esp)
    1c3f:	00 
    1c40:	8b 47 04             	mov    0x4(%edi),%eax
    1c43:	89 04 24             	mov    %eax,(%esp)
    1c46:	e8 55 b4 00 00       	call   d0a0 <pio_write_8>
    1c4b:	8b 47 04             	mov    0x4(%edi),%eax
    1c4e:	83 c0 07             	add    $0x7,%eax
    1c51:	89 04 24             	mov    %eax,(%esp)
    1c54:	e8 37 b5 00 00       	call   d190 <pio_read_8>
    1c59:	c7 44 24 04 02 00 00 	movl   $0x2,0x4(%esp)
    1c60:	00 
    1c61:	88 45 d4             	mov    %al,-0x2c(%ebp)
    1c64:	8b 47 04             	mov    0x4(%edi),%eax
    1c67:	89 04 24             	mov    %eax,(%esp)
    1c6a:	e8 31 b4 00 00       	call   d0a0 <pio_write_8>
    1c6f:	38 5d d4             	cmp    %bl,-0x2c(%ebp)
    1c72:	0f 84 38 02 00 00    	je     1eb0 <ne2k_interrupt+0x360>
    1c78:	c7 44 24 04 04 00 00 	movl   $0x4,0x4(%esp)
    1c7f:	00 
    1c80:	31 d2                	xor    %edx,%edx
    1c82:	8b 47 04             	mov    0x4(%edi),%eax
    1c85:	88 da                	mov    %bl,%dl
    1c87:	83 c0 0a             	add    $0xa,%eax
    1c8a:	89 55 cc             	mov    %edx,-0x34(%ebp)
    1c8d:	c1 e2 08             	shl    $0x8,%edx
    1c90:	89 04 24             	mov    %eax,(%esp)
    1c93:	89 55 c8             	mov    %edx,-0x38(%ebp)
    1c96:	e8 05 b4 00 00       	call   d0a0 <pio_write_8>
    1c9b:	c7 44 24 04 00 00 00 	movl   $0x0,0x4(%esp)
    1ca2:	00 
    1ca3:	8b 47 04             	mov    0x4(%edi),%eax
    1ca6:	83 c0 0b             	add    $0xb,%eax
    1ca9:	89 04 24             	mov    %eax,(%esp)
    1cac:	e8 ef b3 00 00       	call   d0a0 <pio_write_8>
    1cb1:	c7 44 24 04 00 00 00 	movl   $0x0,0x4(%esp)
    1cb8:	00 
    1cb9:	8b 47 04             	mov    0x4(%edi),%eax
    1cbc:	83 c0 08             	add    $0x8,%eax
    1cbf:	89 04 24             	mov    %eax,(%esp)
    1cc2:	e8 d9 b3 00 00       	call   d0a0 <pio_write_8>
    1cc7:	8b 45 c8             	mov    -0x38(%ebp),%eax
    1cca:	c1 e8 08             	shr    $0x8,%eax
    1ccd:	89 44 24 04          	mov    %eax,0x4(%esp)
    1cd1:	8b 47 04             	mov    0x4(%edi),%eax
    1cd4:	83 c0 09             	add    $0x9,%eax
    1cd7:	89 04 24             	mov    %eax,(%esp)
    1cda:	e8 c1 b3 00 00       	call   d0a0 <pio_write_8>
    1cdf:	c7 44 24 04 0a 00 00 	movl   $0xa,0x4(%esp)
    1ce6:	00 
    1ce7:	8b 47 04             	mov    0x4(%edi),%eax
    1cea:	89 04 24             	mov    %eax,(%esp)
    1ced:	e8 ae b3 00 00       	call   d0a0 <pio_write_8>
    1cf2:	8b 77 08             	mov    0x8(%edi),%esi
    1cf5:	89 34 24             	mov    %esi,(%esp)
    1cf8:	e8 d3 b4 00 00       	call   d1d0 <pio_read_16>
    1cfd:	89 34 24             	mov    %esi,(%esp)
    1d00:	66 89 45 e4          	mov    %ax,-0x1c(%ebp)
    1d04:	e8 c7 b4 00 00       	call   d1d0 <pio_read_16>
    1d09:	66 89 45 e6          	mov    %ax,-0x1a(%ebp)
    1d0d:	25 ff ff 00 00       	and    $0xffff,%eax
    1d12:	8d 50 fc             	lea    -0x4(%eax),%edx
    1d15:	83 e8 40             	sub    $0x40,%eax
    1d18:	89 55 c4             	mov    %edx,-0x3c(%ebp)
    1d1b:	8a 55 e5             	mov    -0x1b(%ebp),%dl
    1d1e:	3d b2 05 00 00       	cmp    $0x5b2,%eax
    1d23:	88 55 d3             	mov    %dl,-0x2d(%ebp)
    1d26:	8a 47 16             	mov    0x16(%edi),%al
    1d29:	77 1d                	ja     1d48 <ne2k_interrupt+0x1f8>
    1d2b:	38 c2                	cmp    %al,%dl
    1d2d:	72 19                	jb     1d48 <ne2k_interrupt+0x1f8>
    1d2f:	3a 57 17             	cmp    0x17(%edi),%dl
    1d32:	77 14                	ja     1d48 <ne2k_interrupt+0x1f8>
    1d34:	8a 55 e4             	mov    -0x1c(%ebp),%dl
    1d37:	f6 c2 08             	test   $0x8,%dl
    1d3a:	74 64                	je     1da0 <ne2k_interrupt+0x250>
    1d3c:	83 47 64 01          	addl   $0x1,0x64(%edi)
    1d40:	83 57 68 00          	adcl   $0x0,0x68(%edi)
    1d44:	8d 74 26 00          	lea    0x0(%esi,%eiz,1),%esi
    1d48:	8a 55 d4             	mov    -0x2c(%ebp),%dl
    1d4b:	4a                   	dec    %edx
    1d4c:	38 45 d4             	cmp    %al,-0x2c(%ebp)
    1d4f:	74 47                	je     1d98 <ne2k_interrupt+0x248>
    1d51:	81 e2 ff 00 00 00    	and    $0xff,%edx
    1d57:	89 54 24 04          	mov    %edx,0x4(%esp)
    1d5b:	8b 47 04             	mov    0x4(%edi),%eax
    1d5e:	83 c0 03             	add    $0x3,%eax
    1d61:	89 04 24             	mov    %eax,(%esp)
    1d64:	e8 37 b3 00 00       	call   d0a0 <pio_write_8>
    1d69:	83 7d c0 0f          	cmpl   $0xf,-0x40(%ebp)
    1d6d:	0f 87 3d 01 00 00    	ja     1eb0 <ne2k_interrupt+0x360>
    1d73:	8b 47 04             	mov    0x4(%edi),%eax
    1d76:	83 c0 03             	add    $0x3,%eax
    1d79:	89 04 24             	mov    %eax,(%esp)
    1d7c:	e8 0f b4 00 00       	call   d190 <pio_read_8>
    1d81:	8d 58 01             	lea    0x1(%eax),%ebx
    1d84:	3a 5f 17             	cmp    0x17(%edi),%bl
    1d87:	0f 85 ab fe ff ff    	jne    1c38 <ne2k_interrupt+0xe8>
    1d8d:	8a 5f 16             	mov    0x16(%edi),%bl
    1d90:	e9 a3 fe ff ff       	jmp    1c38 <ne2k_interrupt+0xe8>
    1d95:	8d 76 00             	lea    0x0(%esi),%esi
    1d98:	8a 57 17             	mov    0x17(%edi),%dl
    1d9b:	4a                   	dec    %edx
    1d9c:	eb b3                	jmp    1d51 <ne2k_interrupt+0x201>
    1d9e:	66 90                	xchg   %ax,%ax
    1da0:	83 e2 01             	and    $0x1,%edx
    1da3:	0f 84 f7 00 00 00    	je     1ea0 <ne2k_interrupt+0x350>
    1da9:	80 7f 3d 00          	cmpb   $0x0,0x3d(%edi)
    1dad:	0f 84 ed 00 00 00    	je     1ea0 <ne2k_interrupt+0x350>
    1db3:	8b 45 b8             	mov    -0x48(%ebp),%eax
    1db6:	85 c0                	test   %eax,%eax
    1db8:	0f 84 f2 00 00 00    	je     1eb0 <ne2k_interrupt+0x360>
    1dbe:	8b 45 bc             	mov    -0x44(%ebp),%eax
    1dc1:	89 04 24             	mov    %eax,(%esp)
    1dc4:	e8 c7 79 00 00       	call   9790 <nic_get_specific>
    1dc9:	8b 55 c4             	mov    -0x3c(%ebp),%edx
    1dcc:	89 45 d4             	mov    %eax,-0x2c(%ebp)
    1dcf:	8b 45 bc             	mov    -0x44(%ebp),%eax
    1dd2:	89 54 24 04          	mov    %edx,0x4(%esp)
    1dd6:	89 04 24             	mov    %eax,(%esp)
    1dd9:	e8 92 6d 00 00       	call   8b70 <nic_alloc_frame>
    1dde:	89 c6                	mov    %eax,%esi
    1de0:	85 c0                	test   %eax,%eax
    1de2:	0f 84 c8 00 00 00    	je     1eb0 <ne2k_interrupt+0x360>
    1de8:	8b 55 c4             	mov    -0x3c(%ebp),%edx
    1deb:	c7 44 24 04 00 00 00 	movl   $0x0,0x4(%esp)
    1df2:	00 
    1df3:	89 54 24 08          	mov    %edx,0x8(%esp)
    1df7:	8b 40 08             	mov    0x8(%eax),%eax
    1dfa:	89 04 24             	mov    %eax,(%esp)
    1dfd:	e8 ee d5 00 00       	call   f3f0 <memset>
    1e02:	8b 55 d4             	mov    -0x2c(%ebp),%edx
    1e05:	8a 42 17             	mov    0x17(%edx),%al
    1e08:	8b 55 c4             	mov    -0x3c(%ebp),%edx
    1e0b:	c1 ea 08             	shr    $0x8,%edx
    1e0e:	01 d3                	add    %edx,%ebx
    1e10:	38 c3                	cmp    %al,%bl
    1e12:	0f 82 45 03 00 00    	jb     215d <ne2k_interrupt+0x60d>
    1e18:	31 db                	xor    %ebx,%ebx
    1e1a:	8b 55 d4             	mov    -0x2c(%ebp),%edx
    1e1d:	88 c3                	mov    %al,%bl
    1e1f:	8b 45 cc             	mov    -0x34(%ebp),%eax
    1e22:	29 c3                	sub    %eax,%ebx
    1e24:	8b 45 d4             	mov    -0x2c(%ebp),%eax
    1e27:	83 c0 04             	add    $0x4,%eax
    1e2a:	8b 4e 08             	mov    0x8(%esi),%ecx
    1e2d:	89 45 cc             	mov    %eax,-0x34(%ebp)
    1e30:	8b 45 c8             	mov    -0x38(%ebp),%eax
    1e33:	c1 e3 08             	shl    $0x8,%ebx
    1e36:	83 c0 04             	add    $0x4,%eax
    1e39:	83 eb 04             	sub    $0x4,%ebx
    1e3c:	83 c2 08             	add    $0x8,%edx
    1e3f:	89 04 24             	mov    %eax,(%esp)
    1e42:	89 5c 24 04          	mov    %ebx,0x4(%esp)
    1e46:	8b 45 cc             	mov    -0x34(%ebp),%eax
    1e49:	89 55 b0             	mov    %edx,-0x50(%ebp)
    1e4c:	e8 6f f2 ff ff       	call   10c0 <ne2k_download.isra.0>
    1e51:	8b 45 c4             	mov    -0x3c(%ebp),%eax
    1e54:	29 d8                	sub    %ebx,%eax
    1e56:	8b 55 d4             	mov    -0x2c(%ebp),%edx
    1e59:	8b 4e 08             	mov    0x8(%esi),%ecx
    1e5c:	89 44 24 04          	mov    %eax,0x4(%esp)
    1e60:	31 c0                	xor    %eax,%eax
    1e62:	01 d9                	add    %ebx,%ecx
    1e64:	8a 42 16             	mov    0x16(%edx),%al
    1e67:	8b 55 b0             	mov    -0x50(%ebp),%edx
    1e6a:	c1 e0 08             	shl    $0x8,%eax
    1e6d:	89 04 24             	mov    %eax,(%esp)
    1e70:	8b 45 cc             	mov    -0x34(%ebp),%eax
    1e73:	e8 48 f2 ff ff       	call   10c0 <ne2k_download.isra.0>
    1e78:	8b 45 b8             	mov    -0x48(%ebp),%eax
    1e7b:	89 74 24 04          	mov    %esi,0x4(%esp)
    1e7f:	89 04 24             	mov    %eax,(%esp)
    1e82:	e8 09 6f 00 00       	call   8d90 <nic_frame_list_append>
    1e87:	8b 45 c0             	mov    -0x40(%ebp),%eax
    1e8a:	40                   	inc    %eax
    1e8b:	8a 55 d3             	mov    -0x2d(%ebp),%dl
    1e8e:	89 45 c0             	mov    %eax,-0x40(%ebp)
    1e91:	88 55 d4             	mov    %dl,-0x2c(%ebp)
    1e94:	8a 47 16             	mov    0x16(%edi),%al
    1e97:	e9 ac fe ff ff       	jmp    1d48 <ne2k_interrupt+0x1f8>
    1e9c:	8d 74 26 00          	lea    0x0(%esi,%eiz,1),%esi
    1ea0:	8a 55 d3             	mov    -0x2d(%ebp),%dl
    1ea3:	88 55 d4             	mov    %dl,-0x2c(%ebp)
    1ea6:	e9 9d fe ff ff       	jmp    1d48 <ne2k_interrupt+0x1f8>
    1eab:	90                   	nop
    1eac:	8d 74 26 00          	lea    0x0(%esi,%eiz,1),%esi
    1eb0:	8b 45 b8             	mov    -0x48(%ebp),%eax
    1eb3:	8b 55 bc             	mov    -0x44(%ebp),%edx
    1eb6:	89 44 24 04          	mov    %eax,0x4(%esp)
    1eba:	89 14 24             	mov    %edx,(%esp)
    1ebd:	8b 75 b4             	mov    -0x4c(%ebp),%esi
    1ec0:	e8 6b 74 00 00       	call   9330 <nic_received_frame_list>
    1ec5:	80 7d d2 00          	cmpb   $0x0,-0x2e(%ebp)
    1ec9:	0f 89 20 fd ff ff    	jns    1bef <ne2k_interrupt+0x9f>
    1ecf:	8d 7e 24             	lea    0x24(%esi),%edi
    1ed2:	bb 00 10 00 00       	mov    $0x1000,%ebx
    1ed7:	89 3c 24             	mov    %edi,(%esp)
    1eda:	e8 71 17 01 00       	call   13650 <fibril_mutex_lock>
    1edf:	c7 44 24 04 21 00 00 	movl   $0x21,0x4(%esp)
    1ee6:	00 
    1ee7:	8b 46 04             	mov    0x4(%esi),%eax
    1eea:	89 04 24             	mov    %eax,(%esp)
    1eed:	e8 ae b1 00 00       	call   d0a0 <pio_write_8>
    1ef2:	c7 44 24 04 00 00 00 	movl   $0x0,0x4(%esp)
    1ef9:	00 
    1efa:	8b 46 04             	mov    0x4(%esi),%eax
    1efd:	83 c0 0a             	add    $0xa,%eax
    1f00:	89 04 24             	mov    %eax,(%esp)
    1f03:	e8 98 b1 00 00       	call   d0a0 <pio_write_8>
    1f08:	c7 44 24 04 00 00 00 	movl   $0x0,0x4(%esp)
    1f0f:	00 
    1f10:	8b 46 04             	mov    0x4(%esi),%eax
    1f13:	83 c0 0b             	add    $0xb,%eax
    1f16:	89 04 24             	mov    %eax,(%esp)
    1f19:	e8 82 b1 00 00       	call   d0a0 <pio_write_8>
    1f1e:	eb 03                	jmp    1f23 <ne2k_interrupt+0x3d3>
    1f20:	4b                   	dec    %ebx
    1f21:	74 12                	je     1f35 <ne2k_interrupt+0x3e5>
    1f23:	8b 46 04             	mov    0x4(%esi),%eax
    1f26:	83 c0 07             	add    $0x7,%eax
    1f29:	89 04 24             	mov    %eax,(%esp)
    1f2c:	e8 5f b2 00 00       	call   d190 <pio_read_8>
    1f31:	84 c0                	test   %al,%al
    1f33:	79 eb                	jns    1f20 <ne2k_interrupt+0x3d0>
    1f35:	c7 44 24 04 16 00 00 	movl   $0x16,0x4(%esp)
    1f3c:	00 
    1f3d:	bb 00 10 00 00       	mov    $0x1000,%ebx
    1f42:	8b 46 04             	mov    0x4(%esi),%eax
    1f45:	83 c0 0d             	add    $0xd,%eax
    1f48:	89 04 24             	mov    %eax,(%esp)
    1f4b:	e8 50 b1 00 00       	call   d0a0 <pio_write_8>
    1f50:	c7 44 24 04 22 00 00 	movl   $0x22,0x4(%esp)
    1f57:	00 
    1f58:	8b 46 04             	mov    0x4(%esi),%eax
    1f5b:	89 04 24             	mov    %eax,(%esp)
    1f5e:	e8 3d b1 00 00       	call   d0a0 <pio_write_8>
    1f63:	c7 44 24 04 00 00 00 	movl   $0x0,0x4(%esp)
    1f6a:	00 
    1f6b:	8b 46 04             	mov    0x4(%esi),%eax
    1f6e:	83 c0 0d             	add    $0xd,%eax
    1f71:	89 04 24             	mov    %eax,(%esp)
    1f74:	e8 27 b1 00 00       	call   d0a0 <pio_write_8>
    1f79:	eb 08                	jmp    1f83 <ne2k_interrupt+0x433>
    1f7b:	90                   	nop
    1f7c:	8d 74 26 00          	lea    0x0(%esi,%eiz,1),%esi
    1f80:	4b                   	dec    %ebx
    1f81:	74 12                	je     1f95 <ne2k_interrupt+0x445>
    1f83:	8b 46 04             	mov    0x4(%esi),%eax
    1f86:	83 c0 07             	add    $0x7,%eax
    1f89:	89 04 24             	mov    %eax,(%esp)
    1f8c:	e8 ff b1 00 00       	call   d190 <pio_read_8>
    1f91:	a8 40                	test   $0x40,%al
    1f93:	74 eb                	je     1f80 <ne2k_interrupt+0x430>
    1f95:	8b 46 04             	mov    0x4(%esi),%eax
    1f98:	83 c0 07             	add    $0x7,%eax
    1f9b:	89 04 24             	mov    %eax,(%esp)
    1f9e:	e8 ed b1 00 00       	call   d190 <pio_read_8>
    1fa3:	25 bf 00 00 00       	and    $0xbf,%eax
    1fa8:	89 44 24 04          	mov    %eax,0x4(%esp)
    1fac:	8b 46 04             	mov    0x4(%esi),%eax
    1faf:	83 c0 07             	add    $0x7,%eax
    1fb2:	89 04 24             	mov    %eax,(%esp)
    1fb5:	e8 e6 b0 00 00       	call   d0a0 <pio_write_8>
    1fba:	c6 46 18 00          	movb   $0x0,0x18(%esi)
    1fbe:	89 3c 24             	mov    %edi,(%esp)
    1fc1:	e8 aa 17 01 00       	call   13770 <fibril_mutex_unlock>
    1fc6:	e9 24 fc ff ff       	jmp    1bef <ne2k_interrupt+0x9f>
    1fcb:	90                   	nop
    1fcc:	8d 74 26 00          	lea    0x0(%esi,%eiz,1),%esi
    1fd0:	8b 46 04             	mov    0x4(%esi),%eax
    1fd3:	31 db                	xor    %ebx,%ebx
    1fd5:	83 c0 0d             	add    $0xd,%eax
    1fd8:	89 04 24             	mov    %eax,(%esp)
    1fdb:	e8 b0 b1 00 00       	call   d190 <pio_read_8>
    1fe0:	8b 7d bc             	mov    -0x44(%ebp),%edi
    1fe3:	88 c3                	mov    %al,%bl
    1fe5:	85 db                	test   %ebx,%ebx
    1fe7:	74 22                	je     200b <ne2k_interrupt+0x4bb>
    1fe9:	8d b4 26 00 00 00 00 	lea    0x0(%esi,%eiz,1),%esi
    1ff0:	c7 44 24 08 01 00 00 	movl   $0x1,0x8(%esp)
    1ff7:	00 
    1ff8:	c7 44 24 04 03 00 00 	movl   $0x3,0x4(%esp)
    1fff:	00 
    2000:	89 3c 24             	mov    %edi,(%esp)
    2003:	e8 28 79 00 00       	call   9930 <nic_report_receive_error>
    2008:	4b                   	dec    %ebx
    2009:	75 e5                	jne    1ff0 <ne2k_interrupt+0x4a0>
    200b:	8b 46 04             	mov    0x4(%esi),%eax
    200e:	31 db                	xor    %ebx,%ebx
    2010:	83 c0 0e             	add    $0xe,%eax
    2013:	89 04 24             	mov    %eax,(%esp)
    2016:	e8 75 b1 00 00       	call   d190 <pio_read_8>
    201b:	8b 7d bc             	mov    -0x44(%ebp),%edi
    201e:	88 c3                	mov    %al,%bl
    2020:	85 db                	test   %ebx,%ebx
    2022:	74 1f                	je     2043 <ne2k_interrupt+0x4f3>
    2024:	8d 74 26 00          	lea    0x0(%esi,%eiz,1),%esi
    2028:	c7 44 24 08 01 00 00 	movl   $0x1,0x8(%esp)
    202f:	00 
    2030:	c7 44 24 04 04 00 00 	movl   $0x4,0x4(%esp)
    2037:	00 
    2038:	89 3c 24             	mov    %edi,(%esp)
    203b:	e8 f0 78 00 00       	call   9930 <nic_report_receive_error>
    2040:	4b                   	dec    %ebx
    2041:	75 e5                	jne    2028 <ne2k_interrupt+0x4d8>
    2043:	8b 46 04             	mov    0x4(%esi),%eax
    2046:	31 db                	xor    %ebx,%ebx
    2048:	83 c0 0f             	add    $0xf,%eax
    204b:	89 04 24             	mov    %eax,(%esp)
    204e:	e8 3d b1 00 00       	call   d190 <pio_read_8>
    2053:	8b 7d bc             	mov    -0x44(%ebp),%edi
    2056:	88 c3                	mov    %al,%bl
    2058:	85 db                	test   %ebx,%ebx
    205a:	0f 84 7f fb ff ff    	je     1bdf <ne2k_interrupt+0x8f>
    2060:	c7 44 24 08 01 00 00 	movl   $0x1,0x8(%esp)
    2067:	00 
    2068:	c7 44 24 04 06 00 00 	movl   $0x6,0x4(%esp)
    206f:	00 
    2070:	89 3c 24             	mov    %edi,(%esp)
    2073:	e8 b8 78 00 00       	call   9930 <nic_report_receive_error>
    2078:	4b                   	dec    %ebx
    2079:	75 e5                	jne    2060 <ne2k_interrupt+0x510>
    207b:	e9 5f fb ff ff       	jmp    1bdf <ne2k_interrupt+0x8f>
    2080:	8b 40 04             	mov    0x4(%eax),%eax
    2083:	83 c0 05             	add    $0x5,%eax
    2086:	89 04 24             	mov    %eax,(%esp)
    2089:	e8 02 b1 00 00       	call   d190 <pio_read_8>
    208e:	83 e0 0f             	and    $0xf,%eax
    2091:	89 44 24 04          	mov    %eax,0x4(%esp)
    2095:	8b 45 bc             	mov    -0x44(%ebp),%eax
    2098:	89 04 24             	mov    %eax,(%esp)
    209b:	e8 90 79 00 00       	call   9a30 <nic_report_collisions>
    20a0:	f6 c3 01             	test   $0x1,%bl
    20a3:	0f 84 e1 fa ff ff    	je     1b8a <ne2k_interrupt+0x3a>
    20a9:	8b 55 bc             	mov    -0x44(%ebp),%edx
    20ac:	c7 44 24 08 00 00 00 	movl   $0x0,0x8(%esp)
    20b3:	00 
    20b4:	c7 44 24 04 01 00 00 	movl   $0x1,0x4(%esp)
    20bb:	00 
    20bc:	89 14 24             	mov    %edx,(%esp)
    20bf:	e8 5c 77 00 00       	call   9820 <nic_report_send_ok>
    20c4:	e9 e7 fa ff ff       	jmp    1bb0 <ne2k_interrupt+0x60>
    20c9:	8d b4 26 00 00 00 00 	lea    0x0(%esi,%eiz,1),%esi
    20d0:	8b 55 bc             	mov    -0x44(%ebp),%edx
    20d3:	c7 44 24 08 01 00 00 	movl   $0x1,0x8(%esp)
    20da:	00 
    20db:	c7 44 24 04 02 00 00 	movl   $0x2,0x4(%esp)
    20e2:	00 
    20e3:	89 14 24             	mov    %edx,(%esp)
    20e6:	e8 85 77 00 00       	call   9870 <nic_report_send_error>
    20eb:	e9 c0 fa ff ff       	jmp    1bb0 <ne2k_interrupt+0x60>
    20f0:	8d 46 34             	lea    0x34(%esi),%eax
    20f3:	c6 46 18 00          	movb   $0x0,0x18(%esi)
    20f7:	c7 46 1c 00 00 00 00 	movl   $0x0,0x1c(%esi)
    20fe:	89 04 24             	mov    %eax,(%esp)
    2101:	e8 6a 22 01 00       	call   14370 <fibril_condvar_broadcast>
    2106:	e9 c2 fa ff ff       	jmp    1bcd <ne2k_interrupt+0x7d>
    210b:	90                   	nop
    210c:	8d 74 26 00          	lea    0x0(%esi,%eiz,1),%esi
    2110:	8b 45 bc             	mov    -0x44(%ebp),%eax
    2113:	c7 44 24 08 01 00 00 	movl   $0x1,0x8(%esp)
    211a:	00 
    211b:	c7 44 24 04 01 00 00 	movl   $0x1,0x4(%esp)
    2122:	00 
    2123:	89 04 24             	mov    %eax,(%esp)
    2126:	e8 45 77 00 00       	call   9870 <nic_report_send_error>
    212b:	e9 80 fa ff ff       	jmp    1bb0 <ne2k_interrupt+0x60>
    2130:	f6 c3 40             	test   $0x40,%bl
    2133:	75 53                	jne    2188 <ne2k_interrupt+0x638>
    2135:	84 db                	test   %bl,%bl
    2137:	0f 89 73 fa ff ff    	jns    1bb0 <ne2k_interrupt+0x60>
    213d:	8b 55 bc             	mov    -0x44(%ebp),%edx
    2140:	c7 44 24 08 01 00 00 	movl   $0x1,0x8(%esp)
    2147:	00 
    2148:	c7 44 24 04 05 00 00 	movl   $0x5,0x4(%esp)
    214f:	00 
    2150:	89 14 24             	mov    %edx,(%esp)
    2153:	e8 18 77 00 00       	call   9870 <nic_report_send_error>
    2158:	e9 53 fa ff ff       	jmp    1bb0 <ne2k_interrupt+0x60>
    215d:	8b 45 c4             	mov    -0x3c(%ebp),%eax
    2160:	8b 4e 08             	mov    0x8(%esi),%ecx
    2163:	8b 5d d4             	mov    -0x2c(%ebp),%ebx
    2166:	89 44 24 04          	mov    %eax,0x4(%esp)
    216a:	8b 45 c8             	mov    -0x38(%ebp),%eax
    216d:	8b 55 d4             	mov    -0x2c(%ebp),%edx
    2170:	83 c0 04             	add    $0x4,%eax
    2173:	83 c3 04             	add    $0x4,%ebx
    2176:	89 04 24             	mov    %eax,(%esp)
    2179:	83 c2 08             	add    $0x8,%edx
    217c:	89 d8                	mov    %ebx,%eax
    217e:	e8 3d ef ff ff       	call   10c0 <ne2k_download.isra.0>
    2183:	e9 f0 fc ff ff       	jmp    1e78 <ne2k_interrupt+0x328>
    2188:	8b 45 bc             	mov    -0x44(%ebp),%eax
    218b:	c7 44 24 08 01 00 00 	movl   $0x1,0x8(%esp)
    2192:	00 
    2193:	c7 44 24 04 04 00 00 	movl   $0x4,0x4(%esp)
    219a:	00 
    219b:	89 04 24             	mov    %eax,(%esp)
    219e:	e8 cd 76 00 00       	call   9870 <nic_report_send_error>
    21a3:	e9 08 fa ff ff       	jmp    1bb0 <ne2k_interrupt+0x60>
    21a8:	90                   	nop
    21a9:	8d b4 26 00 00 00 00 	lea    0x0(%esi,%eiz,1),%esi

000021b0 <ne2k_set_accept_bcast>:
    21b0:	55                   	push   %ebp
    21b1:	89 e5                	mov    %esp,%ebp
    21b3:	8b 55 08             	mov    0x8(%ebp),%edx
    21b6:	8b 4d 0c             	mov    0xc(%ebp),%ecx
    21b9:	85 c9                	test   %ecx,%ecx
    21bb:	8a 42 50             	mov    0x50(%edx),%al
    21be:	75 20                	jne    21e0 <ne2k_set_accept_bcast+0x30>
    21c0:	83 e0 fb             	and    $0xfffffffb,%eax
    21c3:	88 42 50             	mov    %al,0x50(%edx)
    21c6:	25 ff 00 00 00       	and    $0xff,%eax
    21cb:	89 45 0c             	mov    %eax,0xc(%ebp)
    21ce:	8b 42 04             	mov    0x4(%edx),%eax
    21d1:	83 c0 0c             	add    $0xc,%eax
    21d4:	89 45 08             	mov    %eax,0x8(%ebp)
    21d7:	5d                   	pop    %ebp
    21d8:	e9 c3 ae 00 00       	jmp    d0a0 <pio_write_8>
    21dd:	8d 76 00             	lea    0x0(%esi),%esi
    21e0:	83 c8 04             	or     $0x4,%eax
    21e3:	eb de                	jmp    21c3 <ne2k_set_accept_bcast+0x13>
    21e5:	8d 74 26 00          	lea    0x0(%esi,%eiz,1),%esi
    21e9:	8d bc 27 00 00 00 00 	lea    0x0(%edi,%eiz,1),%edi

000021f0 <ne2k_set_accept_mcast>:
    21f0:	55                   	push   %ebp
    21f1:	89 e5                	mov    %esp,%ebp
    21f3:	8b 55 08             	mov    0x8(%ebp),%edx
    21f6:	8b 4d 0c             	mov    0xc(%ebp),%ecx
    21f9:	85 c9                	test   %ecx,%ecx
    21fb:	8a 42 50             	mov    0x50(%edx),%al
    21fe:	75 20                	jne    2220 <ne2k_set_accept_mcast+0x30>
    2200:	83 e0 f7             	and    $0xfffffff7,%eax
    2203:	88 42 50             	mov    %al,0x50(%edx)
    2206:	25 ff 00 00 00       	and    $0xff,%eax
    220b:	89 45 0c             	mov    %eax,0xc(%ebp)
    220e:	8b 42 04             	mov    0x4(%edx),%eax
    2211:	83 c0 0c             	add    $0xc,%eax
    2214:	89 45 08             	mov    %eax,0x8(%ebp)
    2217:	5d                   	pop    %ebp
    2218:	e9 83 ae 00 00       	jmp    d0a0 <pio_write_8>
    221d:	8d 76 00             	lea    0x0(%esi),%esi
    2220:	83 c8 08             	or     $0x8,%eax
    2223:	eb de                	jmp    2203 <ne2k_set_accept_mcast+0x13>
    2225:	8d 74 26 00          	lea    0x0(%esi,%eiz,1),%esi
    2229:	8d bc 27 00 00 00 00 	lea    0x0(%edi,%eiz,1),%edi

00002230 <ne2k_set_promisc_phys>:
    2230:	55                   	push   %ebp
    2231:	89 e5                	mov    %esp,%ebp
    2233:	8b 55 08             	mov    0x8(%ebp),%edx
    2236:	8b 4d 0c             	mov    0xc(%ebp),%ecx
    2239:	85 c9                	test   %ecx,%ecx
    223b:	8a 42 50             	mov    0x50(%edx),%al
    223e:	75 20                	jne    2260 <ne2k_set_promisc_phys+0x30>
    2240:	83 e0 ef             	and    $0xffffffef,%eax
    2243:	88 42 50             	mov    %al,0x50(%edx)
    2246:	25 ff 00 00 00       	and    $0xff,%eax
    224b:	89 45 0c             	mov    %eax,0xc(%ebp)
    224e:	8b 42 04             	mov    0x4(%edx),%eax
    2251:	83 c0 0c             	add    $0xc,%eax
    2254:	89 45 08             	mov    %eax,0x8(%ebp)
    2257:	5d                   	pop    %ebp
    2258:	e9 43 ae 00 00       	jmp    d0a0 <pio_write_8>
    225d:	8d 76 00             	lea    0x0(%esi),%esi
    2260:	83 c8 10             	or     $0x10,%eax
    2263:	eb de                	jmp    2243 <ne2k_set_promisc_phys+0x13>
    2265:	8d 74 26 00          	lea    0x0(%esi,%eiz,1),%esi
    2269:	8d bc 27 00 00 00 00 	lea    0x0(%edi,%eiz,1),%edi

00002270 <ne2k_set_mcast_hash>:
    2270:	55                   	push   %ebp
    2271:	89 e5                	mov    %esp,%ebp
    2273:	57                   	push   %edi
    2274:	56                   	push   %esi
    2275:	53                   	push   %ebx
    2276:	83 ec 1c             	sub    $0x1c,%esp
    2279:	8b 5d 08             	mov    0x8(%ebp),%ebx
    227c:	8b 75 0c             	mov    0xc(%ebp),%esi
    227f:	c7 44 24 04 61 00 00 	movl   $0x61,0x4(%esp)
    2286:	00 
    2287:	8b 7d 10             	mov    0x10(%ebp),%edi
    228a:	8b 43 04             	mov    0x4(%ebx),%eax
    228d:	89 04 24             	mov    %eax,(%esp)
    2290:	e8 0b ae 00 00       	call   d0a0 <pio_write_8>
    2295:	89 f0                	mov    %esi,%eax
    2297:	25 ff 00 00 00       	and    $0xff,%eax
    229c:	89 44 24 04          	mov    %eax,0x4(%esp)
    22a0:	8b 43 04             	mov    0x4(%ebx),%eax
    22a3:	83 c0 08             	add    $0x8,%eax
    22a6:	89 04 24             	mov    %eax,(%esp)
    22a9:	e8 f2 ad 00 00       	call   d0a0 <pio_write_8>
    22ae:	89 fa                	mov    %edi,%edx
    22b0:	89 f0                	mov    %esi,%eax
    22b2:	0f ac d0 08          	shrd   $0x8,%edx,%eax
    22b6:	25 ff 00 00 00       	and    $0xff,%eax
    22bb:	89 44 24 04          	mov    %eax,0x4(%esp)
    22bf:	8b 43 04             	mov    0x4(%ebx),%eax
    22c2:	83 c0 09             	add    $0x9,%eax
    22c5:	89 04 24             	mov    %eax,(%esp)
    22c8:	e8 d3 ad 00 00       	call   d0a0 <pio_write_8>
    22cd:	89 fa                	mov    %edi,%edx
    22cf:	89 f0                	mov    %esi,%eax
    22d1:	0f ac d0 10          	shrd   $0x10,%edx,%eax
    22d5:	25 ff 00 00 00       	and    $0xff,%eax
    22da:	89 44 24 04          	mov    %eax,0x4(%esp)
    22de:	8b 43 04             	mov    0x4(%ebx),%eax
    22e1:	83 c0 0a             	add    $0xa,%eax
    22e4:	89 04 24             	mov    %eax,(%esp)
    22e7:	e8 b4 ad 00 00       	call   d0a0 <pio_write_8>
    22ec:	89 fa                	mov    %edi,%edx
    22ee:	89 f0                	mov    %esi,%eax
    22f0:	0f ac d0 18          	shrd   $0x18,%edx,%eax
    22f4:	25 ff 00 00 00       	and    $0xff,%eax
    22f9:	89 44 24 04          	mov    %eax,0x4(%esp)
    22fd:	8b 43 04             	mov    0x4(%ebx),%eax
    2300:	83 c0 0b             	add    $0xb,%eax
    2303:	89 04 24             	mov    %eax,(%esp)
    2306:	e8 95 ad 00 00       	call   d0a0 <pio_write_8>
    230b:	89 f8                	mov    %edi,%eax
    230d:	25 ff 00 00 00       	and    $0xff,%eax
    2312:	89 44 24 04          	mov    %eax,0x4(%esp)
    2316:	8b 43 04             	mov    0x4(%ebx),%eax
    2319:	83 c0 0c             	add    $0xc,%eax
    231c:	89 04 24             	mov    %eax,(%esp)
    231f:	e8 7c ad 00 00       	call   d0a0 <pio_write_8>
    2324:	89 fa                	mov    %edi,%edx
    2326:	0f b6 c6             	movzbl %dh,%eax
    2329:	89 44 24 04          	mov    %eax,0x4(%esp)
    232d:	8b 43 04             	mov    0x4(%ebx),%eax
    2330:	83 c0 0d             	add    $0xd,%eax
    2333:	89 04 24             	mov    %eax,(%esp)
    2336:	e8 65 ad 00 00       	call   d0a0 <pio_write_8>
    233b:	89 f8                	mov    %edi,%eax
    233d:	c1 e8 10             	shr    $0x10,%eax
    2340:	25 ff 00 00 00       	and    $0xff,%eax
    2345:	89 44 24 04          	mov    %eax,0x4(%esp)
    2349:	8b 43 04             	mov    0x4(%ebx),%eax
    234c:	83 c0 0e             	add    $0xe,%eax
    234f:	89 04 24             	mov    %eax,(%esp)
    2352:	e8 49 ad 00 00       	call   d0a0 <pio_write_8>
    2357:	89 f8                	mov    %edi,%eax
    2359:	c1 e8 18             	shr    $0x18,%eax
    235c:	89 44 24 04          	mov    %eax,0x4(%esp)
    2360:	8b 43 04             	mov    0x4(%ebx),%eax
    2363:	83 c0 0f             	add    $0xf,%eax
    2366:	89 04 24             	mov    %eax,(%esp)
    2369:	e8 32 ad 00 00       	call   d0a0 <pio_write_8>
    236e:	c7 45 0c 22 00 00 00 	movl   $0x22,0xc(%ebp)
    2375:	8b 43 04             	mov    0x4(%ebx),%eax
    2378:	89 45 08             	mov    %eax,0x8(%ebp)
    237b:	83 c4 1c             	add    $0x1c,%esp
    237e:	5b                   	pop    %ebx
    237f:	5e                   	pop    %esi
    2380:	5f                   	pop    %edi
    2381:	5d                   	pop    %ebp
    2382:	e9 19 ad 00 00       	jmp    d0a0 <pio_write_8>
    2387:	66 90                	xchg   %ax,%ax
    2389:	66 90                	xchg   %ax,%ax
    238b:	66 90                	xchg   %ax,%ax
    238d:	66 90                	xchg   %ax,%ax
    238f:	90                   	nop

00002390 <ne2k_set_address>:
    2390:	55                   	push   %ebp
    2391:	89 e5                	mov    %esp,%ebp
    2393:	56                   	push   %esi
    2394:	53                   	push   %ebx
    2395:	83 ec 10             	sub    $0x10,%esp
    2398:	8b 45 08             	mov    0x8(%ebp),%eax
    239b:	8b 5d 0c             	mov    0xc(%ebp),%ebx
    239e:	89 04 24             	mov    %eax,(%esp)
    23a1:	e8 6a 12 00 00       	call   3610 <ddf_fun_get_dev>
    23a6:	89 04 24             	mov    %eax,(%esp)
    23a9:	e8 82 11 00 00       	call   3530 <ddf_dev_data_get>
    23ae:	89 5c 24 04          	mov    %ebx,0x4(%esp)
    23b2:	89 04 24             	mov    %eax,(%esp)
    23b5:	89 c6                	mov    %eax,%esi
    23b7:	e8 d4 6b 00 00       	call   8f90 <nic_report_address>
    23bc:	85 c0                	test   %eax,%eax
    23be:	75 20                	jne    23e0 <ne2k_set_address+0x50>
    23c0:	89 34 24             	mov    %esi,(%esp)
    23c3:	e8 c8 73 00 00       	call   9790 <nic_get_specific>
    23c8:	89 5c 24 04          	mov    %ebx,0x4(%esp)
    23cc:	89 04 24             	mov    %eax,(%esp)
    23cf:	e8 cc ef ff ff       	call   13a0 <ne2k_set_physical_address>
    23d4:	31 c0                	xor    %eax,%eax
    23d6:	83 c4 10             	add    $0x10,%esp
    23d9:	5b                   	pop    %ebx
    23da:	5e                   	pop    %esi
    23db:	5d                   	pop    %ebp
    23dc:	c3                   	ret    
    23dd:	8d 76 00             	lea    0x0(%esi),%esi
    23e0:	b8 f2 ff ff ff       	mov    $0xfffffff2,%eax
    23e5:	eb ef                	jmp    23d6 <ne2k_set_address+0x46>
    23e7:	89 f6                	mov    %esi,%esi
    23e9:	8d bc 27 00 00 00 00 	lea    0x0(%edi,%eiz,1),%edi

000023f0 <ne2k_interrupt_handler>:
    23f0:	55                   	push   %ebp
    23f1:	89 e5                	mov    %esp,%ebp
    23f3:	56                   	push   %esi
    23f4:	53                   	push   %ebx
    23f5:	83 ec 10             	sub    $0x10,%esp
    23f8:	8b 45 08             	mov    0x8(%ebp),%eax
    23fb:	8b 5d 10             	mov    0x10(%ebp),%ebx
    23fe:	89 04 24             	mov    %eax,(%esp)
    2401:	8b 75 0c             	mov    0xc(%ebp),%esi
    2404:	e8 27 11 00 00       	call   3530 <ddf_dev_data_get>
    2409:	31 d2                	xor    %edx,%edx
    240b:	8a 53 0c             	mov    0xc(%ebx),%dl
    240e:	89 54 24 08          	mov    %edx,0x8(%esp)
    2412:	31 d2                	xor    %edx,%edx
    2414:	8a 53 08             	mov    0x8(%ebx),%dl
    2417:	89 04 24             	mov    %eax,(%esp)
    241a:	89 54 24 04          	mov    %edx,0x4(%esp)
    241e:	e8 2d f7 ff ff       	call   1b50 <ne2k_interrupt>
    2423:	89 75 08             	mov    %esi,0x8(%ebp)
    2426:	c7 45 0c 00 00 00 00 	movl   $0x0,0xc(%ebp)
    242d:	83 c4 10             	add    $0x10,%esp
    2430:	5b                   	pop    %ebx
    2431:	5e                   	pop    %esi
    2432:	5d                   	pop    %ebp
    2433:	e9 d8 ce 01 00       	jmp    1f310 <async_answer_0>
    2438:	90                   	nop
    2439:	8d b4 26 00 00 00 00 	lea    0x0(%esi,%eiz,1),%esi

00002440 <ne2k_on_broadcast_mode_change>:
    2440:	55                   	push   %ebp
    2441:	89 e5                	mov    %esp,%ebp
    2443:	83 ec 18             	sub    $0x18,%esp
    2446:	8b 45 08             	mov    0x8(%ebp),%eax
    2449:	89 04 24             	mov    %eax,(%esp)
    244c:	e8 3f 73 00 00       	call   9790 <nic_get_specific>
    2451:	83 7d 0c 01          	cmpl   $0x1,0xc(%ebp)
    2455:	74 11                	je     2468 <ne2k_on_broadcast_mode_change+0x28>
    2457:	83 7d 0c 02          	cmpl   $0x2,0xc(%ebp)
    245b:	74 23                	je     2480 <ne2k_on_broadcast_mode_change+0x40>
    245d:	b8 f5 ff ff ff       	mov    $0xfffffff5,%eax
    2462:	c9                   	leave  
    2463:	c3                   	ret    
    2464:	8d 74 26 00          	lea    0x0(%esi,%eiz,1),%esi
    2468:	89 04 24             	mov    %eax,(%esp)
    246b:	c7 44 24 04 00 00 00 	movl   $0x0,0x4(%esp)
    2472:	00 
    2473:	e8 38 fd ff ff       	call   21b0 <ne2k_set_accept_bcast>
    2478:	31 c0                	xor    %eax,%eax
    247a:	c9                   	leave  
    247b:	c3                   	ret    
    247c:	8d 74 26 00          	lea    0x0(%esi,%eiz,1),%esi
    2480:	89 04 24             	mov    %eax,(%esp)
    2483:	c7 44 24 04 01 00 00 	movl   $0x1,0x4(%esp)
    248a:	00 
    248b:	e8 20 fd ff ff       	call   21b0 <ne2k_set_accept_bcast>
    2490:	31 c0                	xor    %eax,%eax
    2492:	c9                   	leave  
    2493:	c3                   	ret    
    2494:	8d b6 00 00 00 00    	lea    0x0(%esi),%esi
    249a:	8d bf 00 00 00 00    	lea    0x0(%edi),%edi

000024a0 <ne2k_on_multicast_mode_change>:
    24a0:	55                   	push   %ebp
    24a1:	89 e5                	mov    %esp,%ebp
    24a3:	57                   	push   %edi
    24a4:	56                   	push   %esi
    24a5:	53                   	push   %ebx
    24a6:	83 ec 1c             	sub    $0x1c,%esp
    24a9:	8b 5d 08             	mov    0x8(%ebp),%ebx
    24ac:	8b 7d 0c             	mov    0xc(%ebp),%edi
    24af:	89 1c 24             	mov    %ebx,(%esp)
    24b2:	e8 d9 72 00 00       	call   9790 <nic_get_specific>
    24b7:	83 ff 02             	cmp    $0x2,%edi
    24ba:	89 c6                	mov    %eax,%esi
    24bc:	0f 84 86 00 00 00    	je     2548 <ne2k_on_multicast_mode_change+0xa8>
    24c2:	83 ff 03             	cmp    $0x3,%edi
    24c5:	74 51                	je     2518 <ne2k_on_multicast_mode_change+0x78>
    24c7:	4f                   	dec    %edi
    24c8:	74 0e                	je     24d8 <ne2k_on_multicast_mode_change+0x38>
    24ca:	83 c4 1c             	add    $0x1c,%esp
    24cd:	b8 f5 ff ff ff       	mov    $0xfffffff5,%eax
    24d2:	5b                   	pop    %ebx
    24d3:	5e                   	pop    %esi
    24d4:	5f                   	pop    %edi
    24d5:	5d                   	pop    %ebp
    24d6:	c3                   	ret    
    24d7:	90                   	nop
    24d8:	c7 44 24 04 00 00 00 	movl   $0x0,0x4(%esp)
    24df:	00 
    24e0:	89 04 24             	mov    %eax,(%esp)
    24e3:	e8 08 fd ff ff       	call   21f0 <ne2k_set_accept_mcast>
    24e8:	89 1c 24             	mov    %ebx,(%esp)
    24eb:	c7 44 24 0c ff ff ff 	movl   $0xffffffff,0xc(%esp)
    24f2:	ff 
    24f3:	c7 44 24 08 01 00 00 	movl   $0x1,0x8(%esp)
    24fa:	00 
    24fb:	c7 44 24 04 ff ff ff 	movl   $0xffffffff,0x4(%esp)
    2502:	ff 
    2503:	e8 68 70 00 00       	call   9570 <nic_report_hw_filtering>
    2508:	83 c4 1c             	add    $0x1c,%esp
    250b:	31 c0                	xor    %eax,%eax
    250d:	5b                   	pop    %ebx
    250e:	5e                   	pop    %esi
    250f:	5f                   	pop    %edi
    2510:	5d                   	pop    %ebp
    2511:	c3                   	ret    
    2512:	8d b6 00 00 00 00    	lea    0x0(%esi),%esi
    2518:	c7 44 24 04 01 00 00 	movl   $0x1,0x4(%esp)
    251f:	00 
    2520:	89 04 24             	mov    %eax,(%esp)
    2523:	e8 c8 fc ff ff       	call   21f0 <ne2k_set_accept_mcast>
    2528:	c7 44 24 04 ff ff ff 	movl   $0xffffffff,0x4(%esp)
    252f:	ff 
    2530:	c7 44 24 08 ff ff ff 	movl   $0xffffffff,0x8(%esp)
    2537:	ff 
    2538:	89 34 24             	mov    %esi,(%esp)
    253b:	e8 30 fd ff ff       	call   2270 <ne2k_set_mcast_hash>
    2540:	eb a6                	jmp    24e8 <ne2k_on_multicast_mode_change+0x48>
    2542:	8d b6 00 00 00 00    	lea    0x0(%esi),%esi
    2548:	89 04 24             	mov    %eax,(%esp)
    254b:	c7 44 24 04 01 00 00 	movl   $0x1,0x4(%esp)
    2552:	00 
    2553:	e8 98 fc ff ff       	call   21f0 <ne2k_set_accept_mcast>
    2558:	8b 45 14             	mov    0x14(%ebp),%eax
    255b:	89 44 24 04          	mov    %eax,0x4(%esp)
    255f:	8b 45 10             	mov    0x10(%ebp),%eax
    2562:	89 04 24             	mov    %eax,(%esp)
    2565:	e8 26 70 00 00       	call   9590 <nic_mcast_hash>
    256a:	89 34 24             	mov    %esi,(%esp)
    256d:	89 44 24 04          	mov    %eax,0x4(%esp)
    2571:	89 54 24 08          	mov    %edx,0x8(%esp)
    2575:	e8 f6 fc ff ff       	call   2270 <ne2k_set_mcast_hash>
    257a:	89 1c 24             	mov    %ebx,(%esp)
    257d:	c7 44 24 0c ff ff ff 	movl   $0xffffffff,0xc(%esp)
    2584:	ff 
    2585:	c7 44 24 08 00 00 00 	movl   $0x0,0x8(%esp)
    258c:	00 
    258d:	c7 44 24 04 ff ff ff 	movl   $0xffffffff,0x4(%esp)
    2594:	ff 
    2595:	e8 d6 6f 00 00       	call   9570 <nic_report_hw_filtering>
    259a:	83 c4 1c             	add    $0x1c,%esp
    259d:	31 c0                	xor    %eax,%eax
    259f:	5b                   	pop    %ebx
    25a0:	5e                   	pop    %esi
    25a1:	5f                   	pop    %edi
    25a2:	5d                   	pop    %ebp
    25a3:	c3                   	ret    
    25a4:	8d b6 00 00 00 00    	lea    0x0(%esi),%esi
    25aa:	8d bf 00 00 00 00    	lea    0x0(%edi),%edi

000025b0 <ne2k_on_unicast_mode_change>:
    25b0:	55                   	push   %ebp
    25b1:	89 e5                	mov    %esp,%ebp
    25b3:	53                   	push   %ebx
    25b4:	83 ec 14             	sub    $0x14,%esp
    25b7:	8b 5d 08             	mov    0x8(%ebp),%ebx
    25ba:	89 1c 24             	mov    %ebx,(%esp)
    25bd:	e8 ce 71 00 00       	call   9790 <nic_get_specific>
    25c2:	83 7d 0c 02          	cmpl   $0x2,0xc(%ebp)
    25c6:	0f 84 9c 00 00 00    	je     2668 <ne2k_on_unicast_mode_change+0xb8>
    25cc:	77 1a                	ja     25e8 <ne2k_on_unicast_mode_change+0x38>
    25ce:	83 7d 0c 01          	cmpl   $0x1,0xc(%ebp)
    25d2:	0f 84 a0 00 00 00    	je     2678 <ne2k_on_unicast_mode_change+0xc8>
    25d8:	83 c4 14             	add    $0x14,%esp
    25db:	b8 f5 ff ff ff       	mov    $0xfffffff5,%eax
    25e0:	5b                   	pop    %ebx
    25e1:	5d                   	pop    %ebp
    25e2:	c3                   	ret    
    25e3:	90                   	nop
    25e4:	8d 74 26 00          	lea    0x0(%esi,%eiz,1),%esi
    25e8:	83 7d 0c 03          	cmpl   $0x3,0xc(%ebp)
    25ec:	74 42                	je     2630 <ne2k_on_unicast_mode_change+0x80>
    25ee:	83 7d 0c 04          	cmpl   $0x4,0xc(%ebp)
    25f2:	75 e4                	jne    25d8 <ne2k_on_unicast_mode_change+0x28>
    25f4:	c7 44 24 04 01 00 00 	movl   $0x1,0x4(%esp)
    25fb:	00 
    25fc:	89 04 24             	mov    %eax,(%esp)
    25ff:	e8 2c fc ff ff       	call   2230 <ne2k_set_promisc_phys>
    2604:	89 1c 24             	mov    %ebx,(%esp)
    2607:	c7 44 24 0c ff ff ff 	movl   $0xffffffff,0xc(%esp)
    260e:	ff 
    260f:	c7 44 24 08 ff ff ff 	movl   $0xffffffff,0x8(%esp)
    2616:	ff 
    2617:	c7 44 24 04 01 00 00 	movl   $0x1,0x4(%esp)
    261e:	00 
    261f:	e8 4c 6f 00 00       	call   9570 <nic_report_hw_filtering>
    2624:	83 c4 14             	add    $0x14,%esp
    2627:	31 c0                	xor    %eax,%eax
    2629:	5b                   	pop    %ebx
    262a:	5d                   	pop    %ebp
    262b:	c3                   	ret    
    262c:	8d 74 26 00          	lea    0x0(%esi,%eiz,1),%esi
    2630:	c7 44 24 04 01 00 00 	movl   $0x1,0x4(%esp)
    2637:	00 
    2638:	89 04 24             	mov    %eax,(%esp)
    263b:	e8 f0 fb ff ff       	call   2230 <ne2k_set_promisc_phys>
    2640:	89 1c 24             	mov    %ebx,(%esp)
    2643:	c7 44 24 0c ff ff ff 	movl   $0xffffffff,0xc(%esp)
    264a:	ff 
    264b:	c7 44 24 08 ff ff ff 	movl   $0xffffffff,0x8(%esp)
    2652:	ff 
    2653:	c7 44 24 04 00 00 00 	movl   $0x0,0x4(%esp)
    265a:	00 
    265b:	e8 10 6f 00 00       	call   9570 <nic_report_hw_filtering>
    2660:	83 c4 14             	add    $0x14,%esp
    2663:	31 c0                	xor    %eax,%eax
    2665:	5b                   	pop    %ebx
    2666:	5d                   	pop    %ebp
    2667:	c3                   	ret    
    2668:	c7 44 24 04 00 00 00 	movl   $0x0,0x4(%esp)
    266f:	00 
    2670:	eb 8a                	jmp    25fc <ne2k_on_unicast_mode_change+0x4c>
    2672:	8d b6 00 00 00 00    	lea    0x0(%esi),%esi
    2678:	c7 44 24 04 00 00 00 	movl   $0x0,0x4(%esp)
    267f:	00 
    2680:	eb b6                	jmp    2638 <ne2k_on_unicast_mode_change+0x88>
    2682:	8d b4 26 00 00 00 00 	lea    0x0(%esi,%eiz,1),%esi
    2689:	8d bc 27 00 00 00 00 	lea    0x0(%edi,%eiz,1),%edi

00002690 <ne2k_on_stopping>:
    2690:	55                   	push   %ebp
    2691:	89 e5                	mov    %esp,%ebp
    2693:	56                   	push   %esi
    2694:	53                   	push   %ebx
    2695:	83 ec 10             	sub    $0x10,%esp
    2698:	8b 75 08             	mov    0x8(%ebp),%esi
    269b:	89 34 24             	mov    %esi,(%esp)
    269e:	e8 ed 70 00 00       	call   9790 <nic_get_specific>
    26a3:	89 c3                	mov    %eax,%ebx
    26a5:	8b 40 0c             	mov    0xc(%eax),%eax
    26a8:	89 34 24             	mov    %esi,(%esp)
    26ab:	89 44 24 04          	mov    %eax,0x4(%esp)
    26af:	e8 5c 67 00 00       	call   8e10 <nic_disable_interrupt>
    26b4:	c6 43 50 0c          	movb   $0xc,0x50(%ebx)
    26b8:	89 1c 24             	mov    %ebx,(%esp)
    26bb:	e8 80 f1 ff ff       	call   1840 <ne2k_down>
    26c0:	83 c4 10             	add    $0x10,%esp
    26c3:	31 c0                	xor    %eax,%eax
    26c5:	5b                   	pop    %ebx
    26c6:	5e                   	pop    %esi
    26c7:	5d                   	pop    %ebp
    26c8:	c3                   	ret    
    26c9:	8d b4 26 00 00 00 00 	lea    0x0(%esi,%eiz,1),%esi

000026d0 <ne2k_on_activating>:
    26d0:	55                   	push   %ebp
    26d1:	89 e5                	mov    %esp,%ebp
    26d3:	56                   	push   %esi
    26d4:	53                   	push   %ebx
    26d5:	83 ec 20             	sub    $0x20,%esp
    26d8:	8b 75 08             	mov    0x8(%ebp),%esi
    26db:	89 34 24             	mov    %esi,(%esp)
    26de:	e8 ad 70 00 00       	call   9790 <nic_get_specific>
    26e3:	89 c3                	mov    %eax,%ebx
    26e5:	31 c0                	xor    %eax,%eax
    26e7:	80 7b 3d 00          	cmpb   $0x0,0x3d(%ebx)
    26eb:	74 0b                	je     26f8 <ne2k_on_activating+0x28>
    26ed:	83 c4 20             	add    $0x20,%esp
    26f0:	5b                   	pop    %ebx
    26f1:	5e                   	pop    %esi
    26f2:	5d                   	pop    %ebp
    26f3:	c3                   	ret    
    26f4:	8d 74 26 00          	lea    0x0(%esi,%eiz,1),%esi
    26f8:	89 1c 24             	mov    %ebx,(%esp)
    26fb:	e8 c0 ed ff ff       	call   14c0 <ne2k_up>
    2700:	85 c0                	test   %eax,%eax
    2702:	75 e9                	jne    26ed <ne2k_on_activating+0x1d>
    2704:	8b 53 0c             	mov    0xc(%ebx),%edx
    2707:	89 34 24             	mov    %esi,(%esp)
    270a:	89 54 24 04          	mov    %edx,0x4(%esp)
    270e:	89 45 f4             	mov    %eax,-0xc(%ebp)
    2711:	e8 ba 66 00 00       	call   8dd0 <nic_enable_interrupt>
    2716:	8b 45 f4             	mov    -0xc(%ebp),%eax
    2719:	83 c4 20             	add    $0x20,%esp
    271c:	5b                   	pop    %ebx
    271d:	5e                   	pop    %esi
    271e:	5d                   	pop    %ebp
    271f:	c3                   	ret    

00002720 <ne2k_dev_add>:
    2720:	55                   	push   %ebp
    2721:	89 e5                	mov    %esp,%ebp
    2723:	57                   	push   %edi
    2724:	56                   	push   %esi
    2725:	53                   	push   %ebx
    2726:	83 ec 5c             	sub    $0x5c,%esp
    2729:	8b 55 08             	mov    0x8(%ebp),%edx
    272c:	89 14 24             	mov    %edx,(%esp)
    272f:	e8 bc 6c 00 00       	call   93f0 <nic_create_and_bind>
    2734:	89 c3                	mov    %eax,%ebx
    2736:	85 c0                	test   %eax,%eax
    2738:	0f 84 28 04 00 00    	je     2b66 <ne2k_dev_add+0x446>
    273e:	89 04 24             	mov    %eax,(%esp)
    2741:	c7 44 24 04 f0 18 00 	movl   $0x18f0,0x4(%esp)
    2748:	00 
    2749:	e8 e2 62 00 00       	call   8a30 <nic_set_send_frame_handler>
    274e:	c7 44 24 0c 90 26 00 	movl   $0x2690,0xc(%esp)
    2755:	00 
    2756:	c7 44 24 08 00 00 00 	movl   $0x0,0x8(%esp)
    275d:	00 
    275e:	c7 44 24 04 d0 26 00 	movl   $0x26d0,0x4(%esp)
    2765:	00 
    2766:	89 1c 24             	mov    %ebx,(%esp)
    2769:	e8 e2 62 00 00       	call   8a50 <nic_set_state_change_handlers>
    276e:	c7 44 24 14 00 00 00 	movl   $0x0,0x14(%esp)
    2775:	00 
    2776:	c7 44 24 10 00 00 00 	movl   $0x0,0x10(%esp)
    277d:	00 
    277e:	c7 44 24 0c 40 24 00 	movl   $0x2440,0xc(%esp)
    2785:	00 
    2786:	c7 44 24 08 a0 24 00 	movl   $0x24a0,0x8(%esp)
    278d:	00 
    278e:	c7 44 24 04 b0 25 00 	movl   $0x25b0,0x4(%esp)
    2795:	00 
    2796:	89 1c 24             	mov    %ebx,(%esp)
    2799:	e8 e2 62 00 00       	call   8a80 <nic_set_filtering_change_handlers>
    279e:	c7 04 24 6c 00 00 00 	movl   $0x6c,(%esp)
    27a5:	e8 b6 9c 01 00       	call   1c460 <malloc>
    27aa:	89 45 c4             	mov    %eax,-0x3c(%ebp)
    27ad:	85 c0                	test   %eax,%eax
    27af:	0f 84 a6 03 00 00    	je     2b5b <ne2k_dev_add+0x43b>
    27b5:	c7 44 24 08 6c 00 00 	movl   $0x6c,0x8(%esp)
    27bc:	00 
    27bd:	c7 44 24 04 00 00 00 	movl   $0x0,0x4(%esp)
    27c4:	00 
    27c5:	89 04 24             	mov    %eax,(%esp)
    27c8:	8d 7d c8             	lea    -0x38(%ebp),%edi
    27cb:	e8 20 cc 00 00       	call   f3f0 <memset>
    27d0:	8b 45 c4             	mov    -0x3c(%ebp),%eax
    27d3:	89 44 24 04          	mov    %eax,0x4(%esp)
    27d7:	89 1c 24             	mov    %ebx,(%esp)
    27da:	e8 c1 6f 00 00       	call   97a0 <nic_set_specific>
    27df:	c7 44 24 08 20 00 00 	movl   $0x20,0x8(%esp)
    27e6:	00 
    27e7:	c7 44 24 04 00 00 00 	movl   $0x0,0x4(%esp)
    27ee:	00 
    27ef:	89 3c 24             	mov    %edi,(%esp)
    27f2:	e8 f9 cb 00 00       	call   f3f0 <memset>
    27f7:	89 7c 24 04          	mov    %edi,0x4(%esp)
    27fb:	89 1c 24             	mov    %ebx,(%esp)
    27fe:	e8 2d 63 00 00       	call   8b30 <nic_get_resources>
    2803:	89 c6                	mov    %eax,%esi
    2805:	85 c0                	test   %eax,%eax
    2807:	75 10                	jne    2819 <ne2k_dev_add+0xf9>
    2809:	8b 4d c8             	mov    -0x38(%ebp),%ecx
    280c:	be f2 ff ff ff       	mov    $0xfffffff2,%esi
    2811:	85 c9                	test   %ecx,%ecx
    2813:	0f 85 9f 00 00 00    	jne    28b8 <ne2k_dev_add+0x198>
    2819:	8b 45 cc             	mov    -0x34(%ebp),%eax
    281c:	89 04 24             	mov    %eax,(%esp)
    281f:	e8 4c 9d 01 00       	call   1c570 <free>
    2824:	8b 45 e4             	mov    -0x1c(%ebp),%eax
    2827:	89 04 24             	mov    %eax,(%esp)
    282a:	e8 41 9d 01 00       	call   1c570 <free>
    282f:	8b 45 dc             	mov    -0x24(%ebp),%eax
    2832:	89 04 24             	mov    %eax,(%esp)
    2835:	e8 36 9d 01 00       	call   1c570 <free>
    283a:	8b 45 d4             	mov    -0x2c(%ebp),%eax
    283d:	89 04 24             	mov    %eax,(%esp)
    2840:	e8 2b 9d 01 00       	call   1c570 <free>
    2845:	c7 44 24 08 20 00 00 	movl   $0x20,0x8(%esp)
    284c:	00 
    284d:	c7 44 24 04 00 00 00 	movl   $0x0,0x4(%esp)
    2854:	00 
    2855:	89 3c 24             	mov    %edi,(%esp)
    2858:	e8 93 cb 00 00       	call   f3f0 <memset>
    285d:	8b 55 08             	mov    0x8(%ebp),%edx
    2860:	89 14 24             	mov    %edx,(%esp)
    2863:	e8 c8 0c 00 00       	call   3530 <ddf_dev_data_get>
    2868:	85 c0                	test   %eax,%eax
    286a:	74 3e                	je     28aa <ne2k_dev_add+0x18a>
    286c:	8b 55 08             	mov    0x8(%ebp),%edx
    286f:	89 14 24             	mov    %edx,(%esp)
    2872:	e8 b9 0c 00 00       	call   3530 <ddf_dev_data_get>
    2877:	89 04 24             	mov    %eax,(%esp)
    287a:	e8 11 6f 00 00       	call   9790 <nic_get_specific>
    287f:	85 c0                	test   %eax,%eax
    2881:	74 1c                	je     289f <ne2k_dev_add+0x17f>
    2883:	8b 50 44             	mov    0x44(%eax),%edx
    2886:	89 45 bc             	mov    %eax,-0x44(%ebp)
    2889:	89 14 24             	mov    %edx,(%esp)
    288c:	e8 df 9c 01 00       	call   1c570 <free>
    2891:	8b 45 bc             	mov    -0x44(%ebp),%eax
    2894:	8b 40 4c             	mov    0x4c(%eax),%eax
    2897:	89 04 24             	mov    %eax,(%esp)
    289a:	e8 d1 9c 01 00       	call   1c570 <free>
    289f:	8b 55 08             	mov    0x8(%ebp),%edx
    28a2:	89 14 24             	mov    %edx,(%esp)
    28a5:	e8 a6 6c 00 00       	call   9550 <nic_unbind_and_destroy>
    28aa:	83 c4 5c             	add    $0x5c,%esp
    28ad:	89 f0                	mov    %esi,%eax
    28af:	5b                   	pop    %ebx
    28b0:	5e                   	pop    %esi
    28b1:	5f                   	pop    %edi
    28b2:	5d                   	pop    %ebp
    28b3:	c3                   	ret    
    28b4:	8d 74 26 00          	lea    0x0(%esi,%eiz,1),%esi
    28b8:	8b 55 e0             	mov    -0x20(%ebp),%edx
    28bb:	85 d2                	test   %edx,%edx
    28bd:	0f 84 56 ff ff ff    	je     2819 <ne2k_dev_add+0xf9>
    28c3:	8b 45 e4             	mov    -0x1c(%ebp),%eax
    28c6:	83 78 0c 1f          	cmpl   $0x1f,0xc(%eax)
    28ca:	0f 86 49 ff ff ff    	jbe    2819 <ne2k_dev_add+0xf9>
    28d0:	89 1c 24             	mov    %ebx,(%esp)
    28d3:	e8 b8 6e 00 00       	call   9790 <nic_get_specific>
    28d8:	89 c6                	mov    %eax,%esi
    28da:	8b 45 cc             	mov    -0x34(%ebp),%eax
    28dd:	8b 10                	mov    (%eax),%edx
    28df:	89 56 0c             	mov    %edx,0xc(%esi)
    28e2:	8b 55 e4             	mov    -0x1c(%ebp),%edx
    28e5:	8b 12                	mov    (%edx),%edx
    28e7:	89 16                	mov    %edx,(%esi)
    28e9:	89 04 24             	mov    %eax,(%esp)
    28ec:	e8 7f 9c 01 00       	call   1c570 <free>
    28f1:	8b 45 e4             	mov    -0x1c(%ebp),%eax
    28f4:	89 04 24             	mov    %eax,(%esp)
    28f7:	e8 74 9c 01 00       	call   1c570 <free>
    28fc:	8b 45 dc             	mov    -0x24(%ebp),%eax
    28ff:	89 04 24             	mov    %eax,(%esp)
    2902:	e8 69 9c 01 00       	call   1c570 <free>
    2907:	8b 45 d4             	mov    -0x2c(%ebp),%eax
    290a:	89 04 24             	mov    %eax,(%esp)
    290d:	e8 5e 9c 01 00       	call   1c570 <free>
    2912:	c7 44 24 08 20 00 00 	movl   $0x20,0x8(%esp)
    2919:	00 
    291a:	c7 44 24 04 00 00 00 	movl   $0x0,0x4(%esp)
    2921:	00 
    2922:	89 3c 24             	mov    %edi,(%esp)
    2925:	e8 c6 ca 00 00       	call   f3f0 <memset>
    292a:	8d 46 04             	lea    0x4(%esi),%eax
    292d:	89 44 24 08          	mov    %eax,0x8(%esp)
    2931:	c7 44 24 04 20 00 00 	movl   $0x20,0x4(%esp)
    2938:	00 
    2939:	8b 06                	mov    (%esi),%eax
    293b:	89 04 24             	mov    %eax,(%esp)
    293e:	e8 6d a6 00 00       	call   cfb0 <pio_enable>
    2943:	85 c0                	test   %eax,%eax
    2945:	0f 85 bb 01 00 00    	jne    2b06 <ne2k_dev_add+0x3e6>
    294b:	8b 46 04             	mov    0x4(%esi),%eax
    294e:	c6 46 50 0c          	movb   $0xc,0x50(%esi)
    2952:	83 c0 10             	add    $0x10,%eax
    2955:	c6 46 3c 00          	movb   $0x0,0x3c(%esi)
    2959:	89 46 08             	mov    %eax,0x8(%esi)
    295c:	c6 46 3d 00          	movb   $0x0,0x3d(%esi)
    2960:	89 34 24             	mov    %esi,(%esp)
    2963:	e8 78 e8 ff ff       	call   11e0 <ne2k_probe>
    2968:	85 c0                	test   %eax,%eax
    296a:	0f 85 00 02 00 00    	jne    2b70 <ne2k_dev_add+0x450>
    2970:	c6 46 3c 01          	movb   $0x1,0x3c(%esi)
    2974:	89 1c 24             	mov    %ebx,(%esp)
    2977:	e8 14 6e 00 00       	call   9790 <nic_get_specific>
    297c:	89 c6                	mov    %eax,%esi
    297e:	8b 40 48             	mov    0x48(%eax),%eax
    2981:	85 c0                	test   %eax,%eax
    2983:	0f 85 92 00 00 00    	jne    2a1b <ne2k_dev_add+0x2fb>
    2989:	c7 04 24 08 00 00 00 	movl   $0x8,(%esp)
    2990:	e8 cb 9a 01 00       	call   1c460 <malloc>
    2995:	89 45 c0             	mov    %eax,-0x40(%ebp)
    2998:	85 c0                	test   %eax,%eax
    299a:	0f 84 e3 01 00 00    	je     2b83 <ne2k_dev_add+0x463>
    29a0:	c7 44 24 08 08 00 00 	movl   $0x8,0x8(%esp)
    29a7:	00 
    29a8:	c7 44 24 04 ec e9 02 	movl   $0x2e9ec,0x4(%esp)
    29af:	00 
    29b0:	89 04 24             	mov    %eax,(%esp)
    29b3:	e8 b8 cb 00 00       	call   f570 <memcpy>
    29b8:	8b 55 c0             	mov    -0x40(%ebp),%edx
    29bb:	8b 06                	mov    (%esi),%eax
    29bd:	89 02                	mov    %eax,(%edx)
    29bf:	c7 04 24 8c 00 00 00 	movl   $0x8c,(%esp)
    29c6:	e8 95 9a 01 00       	call   1c460 <malloc>
    29cb:	89 c7                	mov    %eax,%edi
    29cd:	85 c0                	test   %eax,%eax
    29cf:	0f 84 a3 01 00 00    	je     2b78 <ne2k_dev_add+0x458>
    29d5:	c7 44 24 08 8c 00 00 	movl   $0x8c,0x8(%esp)
    29dc:	00 
    29dd:	c7 44 24 04 00 ea 02 	movl   $0x2ea00,0x4(%esp)
    29e4:	00 
    29e5:	89 04 24             	mov    %eax,(%esp)
    29e8:	e8 83 cb 00 00       	call   f570 <memcpy>
    29ed:	8b 0e                	mov    (%esi),%ecx
    29ef:	8d 41 0f             	lea    0xf(%ecx),%eax
    29f2:	8d 51 07             	lea    0x7(%ecx),%edx
    29f5:	89 47 40             	mov    %eax,0x40(%edi)
    29f8:	83 c1 04             	add    $0x4,%ecx
    29fb:	8b 45 c0             	mov    -0x40(%ebp),%eax
    29fe:	89 57 04             	mov    %edx,0x4(%edi)
    2a01:	89 57 54             	mov    %edx,0x54(%edi)
    2a04:	89 4f 68             	mov    %ecx,0x68(%edi)
    2a07:	c7 46 40 01 00 00 00 	movl   $0x1,0x40(%esi)
    2a0e:	89 46 44             	mov    %eax,0x44(%esi)
    2a11:	c7 46 48 07 00 00 00 	movl   $0x7,0x48(%esi)
    2a18:	89 7e 4c             	mov    %edi,0x4c(%esi)
    2a1b:	8b 7e 0c             	mov    0xc(%esi),%edi
    2a1e:	89 1c 24             	mov    %ebx,(%esp)
    2a21:	e8 aa 6d 00 00       	call   97d0 <nic_get_ddf_dev>
    2a26:	83 c6 40             	add    $0x40,%esi
    2a29:	89 74 24 0c          	mov    %esi,0xc(%esp)
    2a2d:	c7 44 24 08 f0 23 00 	movl   $0x23f0,0x8(%esp)
    2a34:	00 
    2a35:	89 7c 24 04          	mov    %edi,0x4(%esp)
    2a39:	89 04 24             	mov    %eax,(%esp)
    2a3c:	e8 3f 14 00 00       	call   3e80 <register_interrupt_handler>
    2a41:	85 c0                	test   %eax,%eax
    2a43:	0f 85 3a 01 00 00    	jne    2b83 <ne2k_dev_add+0x463>
    2a49:	8b 45 c4             	mov    -0x3c(%ebp),%eax
    2a4c:	89 1c 24             	mov    %ebx,(%esp)
    2a4f:	83 c0 10             	add    $0x10,%eax
    2a52:	89 44 24 04          	mov    %eax,0x4(%esp)
    2a56:	e8 35 65 00 00       	call   8f90 <nic_report_address>
    2a5b:	89 c6                	mov    %eax,%esi
    2a5d:	85 c0                	test   %eax,%eax
    2a5f:	0f 85 f8 fd ff ff    	jne    285d <ne2k_dev_add+0x13d>
    2a65:	89 1c 24             	mov    %ebx,(%esp)
    2a68:	e8 03 64 00 00       	call   8e70 <nic_connect_to_services>
    2a6d:	89 c6                	mov    %eax,%esi
    2a6f:	85 c0                	test   %eax,%eax
    2a71:	0f 85 e6 fd ff ff    	jne    285d <ne2k_dev_add+0x13d>
    2a77:	89 1c 24             	mov    %ebx,(%esp)
    2a7a:	e8 51 6d 00 00       	call   97d0 <nic_get_ddf_dev>
    2a7f:	c7 44 24 08 9b b6 02 	movl   $0x2b69b,0x8(%esp)
    2a86:	00 
    2a87:	c7 44 24 04 02 00 00 	movl   $0x2,0x4(%esp)
    2a8e:	00 
    2a8f:	89 04 24             	mov    %eax,(%esp)
    2a92:	e8 99 0b 00 00       	call   3630 <ddf_fun_create>
    2a97:	89 c7                	mov    %eax,%edi
    2a99:	85 c0                	test   %eax,%eax
    2a9b:	0f 84 7c 00 00 00    	je     2b1d <ne2k_dev_add+0x3fd>
    2aa1:	89 44 24 04          	mov    %eax,0x4(%esp)
    2aa5:	89 1c 24             	mov    %ebx,(%esp)
    2aa8:	e8 43 6d 00 00       	call   97f0 <nic_set_ddf_fun>
    2aad:	c7 44 24 04 60 ef 02 	movl   $0x2ef60,0x4(%esp)
    2ab4:	00 
    2ab5:	89 3c 24             	mov    %edi,(%esp)
    2ab8:	e8 03 11 00 00       	call   3bc0 <ddf_fun_set_ops>
    2abd:	89 5c 24 04          	mov    %ebx,0x4(%esp)
    2ac1:	89 3c 24             	mov    %edi,(%esp)
    2ac4:	e8 27 0a 00 00       	call   34f0 <ddf_fun_data_implant>
    2ac9:	89 3c 24             	mov    %edi,(%esp)
    2acc:	e8 ef 0d 00 00       	call   38c0 <ddf_fun_bind>
    2ad1:	89 c6                	mov    %eax,%esi
    2ad3:	85 c0                	test   %eax,%eax
    2ad5:	75 39                	jne    2b10 <ne2k_dev_add+0x3f0>
    2ad7:	c7 44 24 04 a1 b6 02 	movl   $0x2b6a1,0x4(%esp)
    2ade:	00 
    2adf:	89 3c 24             	mov    %edi,(%esp)
    2ae2:	e8 59 11 00 00       	call   3c40 <ddf_fun_add_to_category>
    2ae7:	89 c6                	mov    %eax,%esi
    2ae9:	85 c0                	test   %eax,%eax
    2aeb:	0f 84 b9 fd ff ff    	je     28aa <ne2k_dev_add+0x18a>
    2af1:	89 3c 24             	mov    %edi,(%esp)
    2af4:	e8 d7 0e 00 00       	call   39d0 <ddf_fun_unbind>
    2af9:	89 3c 24             	mov    %edi,(%esp)
    2afc:	e8 af 0c 00 00       	call   37b0 <ddf_fun_destroy>
    2b01:	e9 a4 fd ff ff       	jmp    28aa <ne2k_dev_add+0x18a>
    2b06:	be f4 ff ff ff       	mov    $0xfffffff4,%esi
    2b0b:	e9 4d fd ff ff       	jmp    285d <ne2k_dev_add+0x13d>
    2b10:	89 3c 24             	mov    %edi,(%esp)
    2b13:	e8 98 0c 00 00       	call   37b0 <ddf_fun_destroy>
    2b18:	e9 40 fd ff ff       	jmp    285d <ne2k_dev_add+0x13d>
    2b1d:	8b 55 08             	mov    0x8(%ebp),%edx
    2b20:	89 14 24             	mov    %edx,(%esp)
    2b23:	e8 08 0a 00 00       	call   3530 <ddf_dev_data_get>
    2b28:	85 c0                	test   %eax,%eax
    2b2a:	74 3a                	je     2b66 <ne2k_dev_add+0x446>
    2b2c:	8b 55 08             	mov    0x8(%ebp),%edx
    2b2f:	89 14 24             	mov    %edx,(%esp)
    2b32:	e8 f9 09 00 00       	call   3530 <ddf_dev_data_get>
    2b37:	89 04 24             	mov    %eax,(%esp)
    2b3a:	e8 51 6c 00 00       	call   9790 <nic_get_specific>
    2b3f:	89 c3                	mov    %eax,%ebx
    2b41:	85 c0                	test   %eax,%eax
    2b43:	74 16                	je     2b5b <ne2k_dev_add+0x43b>
    2b45:	8b 40 44             	mov    0x44(%eax),%eax
    2b48:	89 04 24             	mov    %eax,(%esp)
    2b4b:	e8 20 9a 01 00       	call   1c570 <free>
    2b50:	8b 43 4c             	mov    0x4c(%ebx),%eax
    2b53:	89 04 24             	mov    %eax,(%esp)
    2b56:	e8 15 9a 01 00       	call   1c570 <free>
    2b5b:	8b 55 08             	mov    0x8(%ebp),%edx
    2b5e:	89 14 24             	mov    %edx,(%esp)
    2b61:	e8 ea 69 00 00       	call   9550 <nic_unbind_and_destroy>
    2b66:	be fe ff ff ff       	mov    $0xfffffffe,%esi
    2b6b:	e9 3a fd ff ff       	jmp    28aa <ne2k_dev_add+0x18a>
    2b70:	83 ce ff             	or     $0xffffffff,%esi
    2b73:	e9 e5 fc ff ff       	jmp    285d <ne2k_dev_add+0x13d>
    2b78:	8b 45 c0             	mov    -0x40(%ebp),%eax
    2b7b:	89 04 24             	mov    %eax,(%esp)
    2b7e:	e8 ed 99 01 00       	call   1c570 <free>
    2b83:	be f2 ff ff ff       	mov    $0xfffffff2,%esi
    2b88:	e9 d0 fc ff ff       	jmp    285d <ne2k_dev_add+0x13d>
    2b8d:	66 90                	xchg   %ax,%ax
    2b8f:	90                   	nop

00002b90 <main>:
    2b90:	55                   	push   %ebp
    2b91:	89 e5                	mov    %esp,%ebp
    2b93:	83 e4 f0             	and    $0xfffffff0,%esp
    2b96:	83 ec 10             	sub    $0x10,%esp
    2b99:	c7 04 24 a5 b6 02 00 	movl   $0x2b6a5,(%esp)
    2ba0:	e8 3b 5a 00 00       	call   85e0 <nic_driver_init>
    2ba5:	c7 44 24 08 40 e9 02 	movl   $0x2e940,0x8(%esp)
    2bac:	00 
    2bad:	c7 44 24 04 60 ef 02 	movl   $0x2ef60,0x4(%esp)
    2bb4:	00 
    2bb5:	c7 04 24 20 e9 02 00 	movl   $0x2e920,(%esp)
    2bbc:	e8 9f 5a 00 00       	call   8660 <nic_driver_implement>
    2bc1:	c7 04 24 e4 e9 02 00 	movl   $0x2e9e4,(%esp)
    2bc8:	e8 d3 10 00 00       	call   3ca0 <ddf_driver_main>
    2bcd:	c9                   	leave  
    2bce:	c3                   	ret    
    2bcf:	90                   	nop

00002bd0 <driver_connection_gen.isra.8>:
    2bd0:	55                   	push   %ebp
    2bd1:	89 e5                	mov    %esp,%ebp
    2bd3:	57                   	push   %edi
    2bd4:	56                   	push   %esi
    2bd5:	53                   	push   %ebx
    2bd6:	83 ec 5c             	sub    $0x5c,%esp
    2bd9:	89 c6                	mov    %eax,%esi
    2bdb:	8b 7a 08             	mov    0x8(%edx),%edi
    2bde:	89 55 a8             	mov    %edx,-0x58(%ebp)
    2be1:	c7 04 24 8c ea 02 00 	movl   $0x2ea8c,(%esp)
    2be8:	e8 63 0a 01 00       	call   13650 <fibril_mutex_lock>
    2bed:	c7 04 24 8c ea 02 00 	movl   $0x2ea8c,(%esp)
    2bf4:	e8 87 0c 01 00       	call   13880 <fibril_mutex_is_locked>
    2bf9:	8b 55 a8             	mov    -0x58(%ebp),%edx
    2bfc:	84 c0                	test   %al,%al
    2bfe:	0f 84 a6 02 00 00    	je     2eaa <driver_connection_gen.isra.8+0x2da>
    2c04:	a1 a0 ea 02 00       	mov    0x2eaa0,%eax
    2c09:	3d 9c ea 02 00       	cmp    $0x2ea9c,%eax
    2c0e:	75 12                	jne    2c22 <driver_connection_gen.isra.8+0x52>
    2c10:	eb 46                	jmp    2c58 <driver_connection_gen.isra.8+0x88>
    2c12:	8d b6 00 00 00 00    	lea    0x0(%esi),%esi
    2c18:	8b 40 04             	mov    0x4(%eax),%eax
    2c1b:	3d 9c ea 02 00       	cmp    $0x2ea9c,%eax
    2c20:	74 36                	je     2c58 <driver_connection_gen.isra.8+0x88>
    2c22:	8d 58 d4             	lea    -0x2c(%eax),%ebx
    2c25:	3b 7b 04             	cmp    0x4(%ebx),%edi
    2c28:	75 ee                	jne    2c18 <driver_connection_gen.isra.8+0x48>
    2c2a:	c7 04 24 8c ea 02 00 	movl   $0x2ea8c,(%esp)
    2c31:	89 55 a8             	mov    %edx,-0x58(%ebp)
    2c34:	e8 37 0b 01 00       	call   13770 <fibril_mutex_unlock>
    2c39:	8b 43 28             	mov    0x28(%ebx),%eax
    2c3c:	85 c0                	test   %eax,%eax
    2c3e:	8b 55 a8             	mov    -0x58(%ebp),%edx
    2c41:	74 55                	je     2c98 <driver_connection_gen.isra.8+0xc8>
    2c43:	89 5c 24 08          	mov    %ebx,0x8(%esp)
    2c47:	89 34 24             	mov    %esi,(%esp)
    2c4a:	89 54 24 04          	mov    %edx,0x4(%esp)
    2c4e:	ff d0                	call   *%eax
    2c50:	83 c4 5c             	add    $0x5c,%esp
    2c53:	5b                   	pop    %ebx
    2c54:	5e                   	pop    %esi
    2c55:	5f                   	pop    %edi
    2c56:	5d                   	pop    %ebp
    2c57:	c3                   	ret    
    2c58:	c7 04 24 8c ea 02 00 	movl   $0x2ea8c,(%esp)
    2c5f:	e8 0c 0b 01 00       	call   13770 <fibril_mutex_unlock>
    2c64:	a1 98 ef 02 00       	mov    0x2ef98,%eax
    2c69:	89 7c 24 08          	mov    %edi,0x8(%esp)
    2c6d:	8b 00                	mov    (%eax),%eax
    2c6f:	c7 04 24 f0 b8 02 00 	movl   $0x2b8f0,(%esp)
    2c76:	89 44 24 04          	mov    %eax,0x4(%esp)
    2c7a:	e8 61 49 01 00       	call   175e0 <printf>
    2c7f:	c7 44 24 04 ff ff ff 	movl   $0xffffffff,0x4(%esp)
    2c86:	ff 
    2c87:	89 34 24             	mov    %esi,(%esp)
    2c8a:	e8 81 c6 01 00       	call   1f310 <async_answer_0>
    2c8f:	83 c4 5c             	add    $0x5c,%esp
    2c92:	5b                   	pop    %ebx
    2c93:	5e                   	pop    %esi
    2c94:	5f                   	pop    %edi
    2c95:	5d                   	pop    %ebp
    2c96:	c3                   	ret    
    2c97:	90                   	nop
    2c98:	8b 43 24             	mov    0x24(%ebx),%eax
    2c9b:	85 c0                	test   %eax,%eax
    2c9d:	0f 84 cd 01 00 00    	je     2e70 <driver_connection_gen.isra.8+0x2a0>
    2ca3:	8b 00                	mov    (%eax),%eax
    2ca5:	85 c0                	test   %eax,%eax
    2ca7:	0f 84 c3 01 00 00    	je     2e70 <driver_connection_gen.isra.8+0x2a0>
    2cad:	89 1c 24             	mov    %ebx,(%esp)
    2cb0:	ff d0                	call   *%eax
    2cb2:	89 34 24             	mov    %esi,(%esp)
    2cb5:	89 44 24 04          	mov    %eax,0x4(%esp)
    2cb9:	89 45 a8             	mov    %eax,-0x58(%ebp)
    2cbc:	e8 4f c6 01 00       	call   1f310 <async_answer_0>
    2cc1:	8b 55 a8             	mov    -0x58(%ebp),%edx
    2cc4:	85 d2                	test   %edx,%edx
    2cc6:	75 c7                	jne    2c8f <driver_connection_gen.isra.8+0xbf>
    2cc8:	8d 55 c4             	lea    -0x3c(%ebp),%edx
    2ccb:	89 7d ac             	mov    %edi,-0x54(%ebp)
    2cce:	89 55 b4             	mov    %edx,-0x4c(%ebp)
    2cd1:	8d b4 26 00 00 00 00 	lea    0x0(%esi,%eiz,1),%esi
    2cd8:	c7 44 24 04 00 00 00 	movl   $0x0,0x4(%esp)
    2cdf:	00 
    2ce0:	89 14 24             	mov    %edx,(%esp)
    2ce3:	e8 f8 af 01 00       	call   1dce0 <async_get_call_timeout>
    2ce8:	8b 75 c4             	mov    -0x3c(%ebp),%esi
    2ceb:	89 c7                	mov    %eax,%edi
    2ced:	85 f6                	test   %esi,%esi
    2cef:	0f 84 eb 00 00 00    	je     2de0 <driver_connection_gen.isra.8+0x210>
    2cf5:	81 ee 00 04 00 00    	sub    $0x400,%esi
    2cfb:	89 34 24             	mov    %esi,(%esp)
    2cfe:	e8 8d 10 00 00       	call   3d90 <is_valid_iface_idx>
    2d03:	84 c0                	test   %al,%al
    2d05:	75 31                	jne    2d38 <driver_connection_gen.isra.8+0x168>
    2d07:	8b 43 24             	mov    0x24(%ebx),%eax
    2d0a:	85 c0                	test   %eax,%eax
    2d0c:	0f 84 96 00 00 00    	je     2da8 <driver_connection_gen.isra.8+0x1d8>
    2d12:	8b 40 34             	mov    0x34(%eax),%eax
    2d15:	85 c0                	test   %eax,%eax
    2d17:	0f 84 8b 00 00 00    	je     2da8 <driver_connection_gen.isra.8+0x1d8>
    2d1d:	8b 55 b4             	mov    -0x4c(%ebp),%edx
    2d20:	89 7c 24 04          	mov    %edi,0x4(%esp)
    2d24:	89 54 24 08          	mov    %edx,0x8(%esp)
    2d28:	89 1c 24             	mov    %ebx,(%esp)
    2d2b:	ff d0                	call   *%eax
    2d2d:	8b 55 b4             	mov    -0x4c(%ebp),%edx
    2d30:	eb a6                	jmp    2cd8 <driver_connection_gen.isra.8+0x108>
    2d32:	8d b6 00 00 00 00    	lea    0x0(%esi),%esi
    2d38:	89 34 24             	mov    %esi,(%esp)
    2d3b:	e8 50 10 00 00       	call   3d90 <is_valid_iface_idx>
    2d40:	84 c0                	test   %al,%al
    2d42:	0f 84 46 01 00 00    	je     2e8e <driver_connection_gen.isra.8+0x2be>
    2d48:	8b 43 24             	mov    0x24(%ebx),%eax
    2d4b:	85 c0                	test   %eax,%eax
    2d4d:	0f 84 bd 00 00 00    	je     2e10 <driver_connection_gen.isra.8+0x240>
    2d53:	8b 44 b0 08          	mov    0x8(%eax,%esi,4),%eax
    2d57:	89 45 b0             	mov    %eax,-0x50(%ebp)
    2d5a:	85 c0                	test   %eax,%eax
    2d5c:	0f 84 ae 00 00 00    	je     2e10 <driver_connection_gen.isra.8+0x240>
    2d62:	89 34 24             	mov    %esi,(%esp)
    2d65:	e8 c6 0f 00 00       	call   3d30 <get_remote_iface>
    2d6a:	85 c0                	test   %eax,%eax
    2d6c:	0f 84 54 01 00 00    	je     2ec6 <driver_connection_gen.isra.8+0x2f6>
    2d72:	8b 55 c8             	mov    -0x38(%ebp),%edx
    2d75:	89 04 24             	mov    %eax,(%esp)
    2d78:	89 54 24 04          	mov    %edx,0x4(%esp)
    2d7c:	e8 ef 0f 00 00       	call   3d70 <get_remote_method>
    2d81:	85 c0                	test   %eax,%eax
    2d83:	0f 84 b7 00 00 00    	je     2e40 <driver_connection_gen.isra.8+0x270>
    2d89:	8b 55 b4             	mov    -0x4c(%ebp),%edx
    2d8c:	89 7c 24 08          	mov    %edi,0x8(%esp)
    2d90:	89 54 24 0c          	mov    %edx,0xc(%esp)
    2d94:	8b 55 b0             	mov    -0x50(%ebp),%edx
    2d97:	89 54 24 04          	mov    %edx,0x4(%esp)
    2d9b:	89 1c 24             	mov    %ebx,(%esp)
    2d9e:	ff d0                	call   *%eax
    2da0:	8b 55 b4             	mov    -0x4c(%ebp),%edx
    2da3:	e9 30 ff ff ff       	jmp    2cd8 <driver_connection_gen.isra.8+0x108>
    2da8:	a1 98 ef 02 00       	mov    0x2ef98,%eax
    2dad:	89 74 24 08          	mov    %esi,0x8(%esp)
    2db1:	8b 00                	mov    (%eax),%eax
    2db3:	c7 04 24 1c b8 02 00 	movl   $0x2b81c,(%esp)
    2dba:	89 44 24 04          	mov    %eax,0x4(%esp)
    2dbe:	e8 1d 48 01 00       	call   175e0 <printf>
    2dc3:	c7 44 24 04 f5 ff ff 	movl   $0xfffffff5,0x4(%esp)
    2dca:	ff 
    2dcb:	89 3c 24             	mov    %edi,(%esp)
    2dce:	e8 3d c5 01 00       	call   1f310 <async_answer_0>
    2dd3:	8b 55 b4             	mov    -0x4c(%ebp),%edx
    2dd6:	e9 fd fe ff ff       	jmp    2cd8 <driver_connection_gen.isra.8+0x108>
    2ddb:	90                   	nop
    2ddc:	8d 74 26 00          	lea    0x0(%esi,%eiz,1),%esi
    2de0:	8b 43 24             	mov    0x24(%ebx),%eax
    2de3:	85 c0                	test   %eax,%eax
    2de5:	74 0c                	je     2df3 <driver_connection_gen.isra.8+0x223>
    2de7:	8b 40 04             	mov    0x4(%eax),%eax
    2dea:	85 c0                	test   %eax,%eax
    2dec:	74 05                	je     2df3 <driver_connection_gen.isra.8+0x223>
    2dee:	89 1c 24             	mov    %ebx,(%esp)
    2df1:	ff d0                	call   *%eax
    2df3:	89 3c 24             	mov    %edi,(%esp)
    2df6:	c7 44 24 04 00 00 00 	movl   $0x0,0x4(%esp)
    2dfd:	00 
    2dfe:	e8 0d c5 01 00       	call   1f310 <async_answer_0>
    2e03:	83 c4 5c             	add    $0x5c,%esp
    2e06:	5b                   	pop    %ebx
    2e07:	5e                   	pop    %esi
    2e08:	5f                   	pop    %edi
    2e09:	5d                   	pop    %ebp
    2e0a:	c3                   	ret    
    2e0b:	90                   	nop
    2e0c:	8d 74 26 00          	lea    0x0(%esi,%eiz,1),%esi
    2e10:	a1 98 ef 02 00       	mov    0x2ef98,%eax
    2e15:	8b 00                	mov    (%eax),%eax
    2e17:	c7 04 24 58 b8 02 00 	movl   $0x2b858,(%esp)
    2e1e:	89 44 24 04          	mov    %eax,0x4(%esp)
    2e22:	e8 b9 47 01 00       	call   175e0 <printf>
    2e27:	8b 55 ac             	mov    -0x54(%ebp),%edx
    2e2a:	89 74 24 08          	mov    %esi,0x8(%esp)
    2e2e:	89 54 24 04          	mov    %edx,0x4(%esp)
    2e32:	c7 04 24 7c b8 02 00 	movl   $0x2b87c,(%esp)
    2e39:	eb 83                	jmp    2dbe <driver_connection_gen.isra.8+0x1ee>
    2e3b:	90                   	nop
    2e3c:	8d 74 26 00          	lea    0x0(%esi,%eiz,1),%esi
    2e40:	a1 98 ef 02 00       	mov    0x2ef98,%eax
    2e45:	8b 00                	mov    (%eax),%eax
    2e47:	c7 04 24 b4 b8 02 00 	movl   $0x2b8b4,(%esp)
    2e4e:	89 44 24 04          	mov    %eax,0x4(%esp)
    2e52:	e8 89 47 01 00       	call   175e0 <printf>
    2e57:	c7 44 24 04 f5 ff ff 	movl   $0xfffffff5,0x4(%esp)
    2e5e:	ff 
    2e5f:	89 3c 24             	mov    %edi,(%esp)
    2e62:	e8 a9 c4 01 00       	call   1f310 <async_answer_0>
    2e67:	8b 55 b4             	mov    -0x4c(%ebp),%edx
    2e6a:	e9 69 fe ff ff       	jmp    2cd8 <driver_connection_gen.isra.8+0x108>
    2e6f:	90                   	nop
    2e70:	c7 44 24 04 00 00 00 	movl   $0x0,0x4(%esp)
    2e77:	00 
    2e78:	89 34 24             	mov    %esi,(%esp)
    2e7b:	e8 90 c4 01 00       	call   1f310 <async_answer_0>
    2e80:	8d 55 c4             	lea    -0x3c(%ebp),%edx
    2e83:	89 55 b4             	mov    %edx,-0x4c(%ebp)
    2e86:	89 7d ac             	mov    %edi,-0x54(%ebp)
    2e89:	e9 4a fe ff ff       	jmp    2cd8 <driver_connection_gen.isra.8+0x108>
    2e8e:	c7 44 24 08 1e 03 00 	movl   $0x31e,0x8(%esp)
    2e95:	00 
    2e96:	c7 44 24 04 aa b6 02 	movl   $0x2b6aa,0x4(%esp)
    2e9d:	00 
    2e9e:	c7 04 24 bb b6 02 00 	movl   $0x2b6bb,(%esp)
    2ea5:	e8 86 41 02 00       	call   27030 <assert_abort>
    2eaa:	c7 44 24 08 75 00 00 	movl   $0x75,0x8(%esp)
    2eb1:	00 
    2eb2:	c7 44 24 04 aa b6 02 	movl   $0x2b6aa,0x4(%esp)
    2eb9:	00 
    2eba:	c7 04 24 f0 b7 02 00 	movl   $0x2b7f0,(%esp)
    2ec1:	e8 6a 41 02 00       	call   27030 <assert_abort>
    2ec6:	c7 44 24 08 a6 01 00 	movl   $0x1a6,0x8(%esp)
    2ecd:	00 
    2ece:	c7 44 24 04 aa b6 02 	movl   $0x2b6aa,0x4(%esp)
    2ed5:	00 
    2ed6:	c7 04 24 d3 b6 02 00 	movl   $0x2b6d3,(%esp)
    2edd:	e8 4e 41 02 00       	call   27030 <assert_abort>
    2ee2:	8d b4 26 00 00 00 00 	lea    0x0(%esi,%eiz,1),%esi
    2ee9:	8d bc 27 00 00 00 00 	lea    0x0(%edi,%eiz,1),%edi

00002ef0 <driver_connection>:
    2ef0:	55                   	push   %ebp
    2ef1:	89 e5                	mov    %esp,%ebp
    2ef3:	57                   	push   %edi
    2ef4:	56                   	push   %esi
    2ef5:	53                   	push   %ebx
    2ef6:	83 ec 6c             	sub    $0x6c,%esp
    2ef9:	8b 45 08             	mov    0x8(%ebp),%eax
    2efc:	85 c0                	test   %eax,%eax
    2efe:	75 58                	jne    2f58 <driver_connection+0x68>
    2f00:	c7 44 24 04 00 00 00 	movl   $0x0,0x4(%esp)
    2f07:	00 
    2f08:	89 04 24             	mov    %eax,(%esp)
    2f0b:	e8 00 c4 01 00       	call   1f310 <async_answer_0>
    2f10:	8d 45 c4             	lea    -0x3c(%ebp),%eax
    2f13:	c7 44 24 04 00 00 00 	movl   $0x0,0x4(%esp)
    2f1a:	00 
    2f1b:	89 04 24             	mov    %eax,(%esp)
    2f1e:	e8 bd ad 01 00       	call   1dce0 <async_get_call_timeout>
    2f23:	89 c6                	mov    %eax,%esi
    2f25:	8b 45 c4             	mov    -0x3c(%ebp),%eax
    2f28:	85 c0                	test   %eax,%eax
    2f2a:	74 3e                	je     2f6a <driver_connection+0x7a>
    2f2c:	2d 00 04 00 00       	sub    $0x400,%eax
    2f31:	83 f8 04             	cmp    $0x4,%eax
    2f34:	76 12                	jbe    2f48 <driver_connection+0x58>
    2f36:	c7 44 24 04 f5 ff ff 	movl   $0xfffffff5,0x4(%esp)
    2f3d:	ff 
    2f3e:	89 34 24             	mov    %esi,(%esp)
    2f41:	e8 ca c3 01 00       	call   1f310 <async_answer_0>
    2f46:	eb c8                	jmp    2f10 <driver_connection+0x20>
    2f48:	8b 7d c8             	mov    -0x38(%ebp),%edi
    2f4b:	ff 24 85 a0 b9 02 00 	jmp    *0x2b9a0(,%eax,4)
    2f52:	8d b6 00 00 00 00    	lea    0x0(%esi),%esi
    2f58:	8b 4d 0c             	mov    0xc(%ebp),%ecx
    2f5b:	8b 51 04             	mov    0x4(%ecx),%edx
    2f5e:	83 fa 02             	cmp    $0x2,%edx
    2f61:	75 15                	jne    2f78 <driver_connection+0x88>
    2f63:	89 ca                	mov    %ecx,%edx
    2f65:	e8 66 fc ff ff       	call   2bd0 <driver_connection_gen.isra.8>
    2f6a:	83 c4 6c             	add    $0x6c,%esp
    2f6d:	5b                   	pop    %ebx
    2f6e:	5e                   	pop    %esi
    2f6f:	5f                   	pop    %edi
    2f70:	5d                   	pop    %ebp
    2f71:	c3                   	ret    
    2f72:	8d b6 00 00 00 00    	lea    0x0(%esi),%esi
    2f78:	83 fa 03             	cmp    $0x3,%edx
    2f7b:	0f 84 2f 03 00 00    	je     32b0 <driver_connection+0x3c0>
    2f81:	4a                   	dec    %edx
    2f82:	0f 84 78 ff ff ff    	je     2f00 <driver_connection+0x10>
    2f88:	c7 44 24 04 ff ff ff 	movl   $0xffffffff,0x4(%esp)
    2f8f:	ff 
    2f90:	89 04 24             	mov    %eax,(%esp)
    2f93:	e8 78 c3 01 00       	call   1f310 <async_answer_0>
    2f98:	83 c4 6c             	add    $0x6c,%esp
    2f9b:	5b                   	pop    %ebx
    2f9c:	5e                   	pop    %esi
    2f9d:	5f                   	pop    %edi
    2f9e:	5d                   	pop    %ebp
    2f9f:	c3                   	ret    
    2fa0:	c7 04 24 8c ea 02 00 	movl   $0x2ea8c,(%esp)
    2fa7:	e8 a4 06 01 00       	call   13650 <fibril_mutex_lock>
    2fac:	c7 04 24 8c ea 02 00 	movl   $0x2ea8c,(%esp)
    2fb3:	e8 c8 08 01 00       	call   13880 <fibril_mutex_is_locked>
    2fb8:	84 c0                	test   %al,%al
    2fba:	0f 84 a0 04 00 00    	je     3460 <driver_connection+0x570>
    2fc0:	a1 a0 ea 02 00       	mov    0x2eaa0,%eax
    2fc5:	3d 9c ea 02 00       	cmp    $0x2ea9c,%eax
    2fca:	75 1a                	jne    2fe6 <driver_connection+0xf6>
    2fcc:	e9 87 03 00 00       	jmp    3358 <driver_connection+0x468>
    2fd1:	8d b4 26 00 00 00 00 	lea    0x0(%esi,%eiz,1),%esi
    2fd8:	8b 40 04             	mov    0x4(%eax),%eax
    2fdb:	3d 9c ea 02 00       	cmp    $0x2ea9c,%eax
    2fe0:	0f 84 72 03 00 00    	je     3358 <driver_connection+0x468>
    2fe6:	8d 58 d4             	lea    -0x2c(%eax),%ebx
    2fe9:	3b 7b 04             	cmp    0x4(%ebx),%edi
    2fec:	75 ea                	jne    2fd8 <driver_connection+0xe8>
    2fee:	8b 43 0c             	mov    0xc(%ebx),%eax
    2ff1:	f0 ff 40 04          	lock incl 0x4(%eax)
    2ff5:	8d 7b 08             	lea    0x8(%ebx),%edi
    2ff8:	f0 ff 43 08          	lock incl 0x8(%ebx)
    2ffc:	c7 04 24 8c ea 02 00 	movl   $0x2ea8c,(%esp)
    3003:	e8 68 07 01 00       	call   13770 <fibril_mutex_unlock>
    3008:	a1 98 ef 02 00       	mov    0x2ef98,%eax
    300d:	8b 40 04             	mov    0x4(%eax),%eax
    3010:	8b 40 0c             	mov    0xc(%eax),%eax
    3013:	85 c0                	test   %eax,%eax
    3015:	0f 84 e5 02 00 00    	je     3300 <driver_connection+0x410>
    301b:	89 1c 24             	mov    %ebx,(%esp)
    301e:	ff d0                	call   *%eax
    3020:	89 45 b0             	mov    %eax,-0x50(%ebp)
    3023:	8b 4b 0c             	mov    0xc(%ebx),%ecx
    3026:	83 c8 ff             	or     $0xffffffff,%eax
    3029:	89 4d b4             	mov    %ecx,-0x4c(%ebp)
    302c:	f0 0f c1 07          	lock xadd %eax,(%edi)
    3030:	48                   	dec    %eax
    3031:	0f 84 81 03 00 00    	je     33b8 <driver_connection+0x4c8>
    3037:	83 c8 ff             	or     $0xffffffff,%eax
    303a:	8b 55 b4             	mov    -0x4c(%ebp),%edx
    303d:	f0 0f c1 42 04       	lock xadd %eax,0x4(%edx)
    3042:	48                   	dec    %eax
    3043:	0f 84 37 03 00 00    	je     3380 <driver_connection+0x490>
    3049:	8b 45 b0             	mov    -0x50(%ebp),%eax
    304c:	e9 88 00 00 00       	jmp    30d9 <driver_connection+0x1e9>
    3051:	8d b4 26 00 00 00 00 	lea    0x0(%esi,%eiz,1),%esi
    3058:	c7 04 24 a4 ea 02 00 	movl   $0x2eaa4,(%esp)
    305f:	e8 ec 05 01 00       	call   13650 <fibril_mutex_lock>
    3064:	c7 04 24 a4 ea 02 00 	movl   $0x2eaa4,(%esp)
    306b:	e8 10 08 01 00       	call   13880 <fibril_mutex_is_locked>
    3070:	84 c0                	test   %al,%al
    3072:	0f 84 04 04 00 00    	je     347c <driver_connection+0x58c>
    3078:	a1 b8 ea 02 00       	mov    0x2eab8,%eax
    307d:	3d b4 ea 02 00       	cmp    $0x2eab4,%eax
    3082:	75 1a                	jne    309e <driver_connection+0x1ae>
    3084:	e9 a7 02 00 00       	jmp    3330 <driver_connection+0x440>
    3089:	8d b4 26 00 00 00 00 	lea    0x0(%esi,%eiz,1),%esi
    3090:	8b 40 04             	mov    0x4(%eax),%eax
    3093:	3d b4 ea 02 00       	cmp    $0x2eab4,%eax
    3098:	0f 84 92 02 00 00    	je     3330 <driver_connection+0x440>
    309e:	8d 58 ec             	lea    -0x14(%eax),%ebx
    30a1:	3b 78 ec             	cmp    -0x14(%eax),%edi
    30a4:	75 ea                	jne    3090 <driver_connection+0x1a0>
    30a6:	8d 7b 04             	lea    0x4(%ebx),%edi
    30a9:	f0 ff 43 04          	lock incl 0x4(%ebx)
    30ad:	c7 04 24 a4 ea 02 00 	movl   $0x2eaa4,(%esp)
    30b4:	e8 b7 06 01 00       	call   13770 <fibril_mutex_unlock>
    30b9:	a1 98 ef 02 00       	mov    0x2ef98,%eax
    30be:	8b 40 04             	mov    0x4(%eax),%eax
    30c1:	8b 40 08             	mov    0x8(%eax),%eax
    30c4:	85 c0                	test   %eax,%eax
    30c6:	0f 84 58 01 00 00    	je     3224 <driver_connection+0x334>
    30cc:	89 1c 24             	mov    %ebx,(%esp)
    30cf:	ff d0                	call   *%eax
    30d1:	85 c0                	test   %eax,%eax
    30d3:	0f 84 e7 01 00 00    	je     32c0 <driver_connection+0x3d0>
    30d9:	89 44 24 04          	mov    %eax,0x4(%esp)
    30dd:	89 34 24             	mov    %esi,(%esp)
    30e0:	e8 2b c2 01 00       	call   1f310 <async_answer_0>
    30e5:	e9 26 fe ff ff       	jmp    2f10 <driver_connection+0x20>
    30ea:	8d b6 00 00 00 00    	lea    0x0(%esi),%esi
    30f0:	c7 44 24 04 1c 00 00 	movl   $0x1c,0x4(%esp)
    30f7:	00 
    30f8:	c7 04 24 01 00 00 00 	movl   $0x1,(%esp)
    30ff:	e8 fc 92 01 00       	call   1c400 <calloc>
    3104:	89 c3                	mov    %eax,%ebx
    3106:	f0 ff 40 04          	lock incl 0x4(%eax)
    310a:	8d 55 c0             	lea    -0x40(%ebp),%edx
    310d:	89 38                	mov    %edi,(%eax)
    310f:	89 14 24             	mov    %edx,(%esp)
    3112:	c7 44 24 14 00 00 00 	movl   $0x0,0x14(%esp)
    3119:	00 
    311a:	c7 44 24 10 00 00 00 	movl   $0x0,0x10(%esp)
    3121:	00 
    3122:	c7 44 24 0c 00 00 00 	movl   $0x0,0xc(%esp)
    3129:	00 
    312a:	c7 44 24 08 00 00 00 	movl   $0x0,0x8(%esp)
    3131:	00 
    3132:	c7 44 24 04 01 00 00 	movl   $0x1,0x4(%esp)
    3139:	00 
    313a:	c7 45 c0 00 00 00 00 	movl   $0x0,-0x40(%ebp)
    3141:	e8 ea dc 01 00       	call   20e30 <async_data_write_accept>
    3146:	8b 45 c0             	mov    -0x40(%ebp),%eax
    3149:	89 43 0c             	mov    %eax,0xc(%ebx)
    314c:	a1 98 ef 02 00       	mov    0x2ef98,%eax
    3151:	8b 40 04             	mov    0x4(%eax),%eax
    3154:	89 1c 24             	mov    %ebx,(%esp)
    3157:	ff 10                	call   *(%eax)
    3159:	89 c7                	mov    %eax,%edi
    315b:	85 c0                	test   %eax,%eax
    315d:	0f 85 ad 01 00 00    	jne    3310 <driver_connection+0x420>
    3163:	c7 04 24 a4 ea 02 00 	movl   $0x2eaa4,(%esp)
    316a:	e8 e1 04 01 00       	call   13650 <fibril_mutex_lock>
    316f:	8b 15 b4 ea 02 00    	mov    0x2eab4,%edx
    3175:	8d 43 14             	lea    0x14(%ebx),%eax
    3178:	c7 43 18 b4 ea 02 00 	movl   $0x2eab4,0x18(%ebx)
    317f:	89 53 14             	mov    %edx,0x14(%ebx)
    3182:	89 42 04             	mov    %eax,0x4(%edx)
    3185:	c7 04 24 a4 ea 02 00 	movl   $0x2eaa4,(%esp)
    318c:	a3 b4 ea 02 00       	mov    %eax,0x2eab4
    3191:	e8 da 05 01 00       	call   13770 <fibril_mutex_unlock>
    3196:	c7 44 24 04 00 00 00 	movl   $0x0,0x4(%esp)
    319d:	00 
    319e:	89 34 24             	mov    %esi,(%esp)
    31a1:	e8 6a c1 01 00       	call   1f310 <async_answer_0>
    31a6:	e9 65 fd ff ff       	jmp    2f10 <driver_connection+0x20>
    31ab:	90                   	nop
    31ac:	8d 74 26 00          	lea    0x0(%esi,%eiz,1),%esi
    31b0:	c7 04 24 a4 ea 02 00 	movl   $0x2eaa4,(%esp)
    31b7:	e8 94 04 01 00       	call   13650 <fibril_mutex_lock>
    31bc:	c7 04 24 a4 ea 02 00 	movl   $0x2eaa4,(%esp)
    31c3:	e8 b8 06 01 00       	call   13880 <fibril_mutex_is_locked>
    31c8:	84 c0                	test   %al,%al
    31ca:	0f 84 ac 02 00 00    	je     347c <driver_connection+0x58c>
    31d0:	a1 b8 ea 02 00       	mov    0x2eab8,%eax
    31d5:	3d b4 ea 02 00       	cmp    $0x2eab4,%eax
    31da:	75 1a                	jne    31f6 <driver_connection+0x306>
    31dc:	e9 4f 01 00 00       	jmp    3330 <driver_connection+0x440>
    31e1:	8d b4 26 00 00 00 00 	lea    0x0(%esi,%eiz,1),%esi
    31e8:	8b 40 04             	mov    0x4(%eax),%eax
    31eb:	3d b4 ea 02 00       	cmp    $0x2eab4,%eax
    31f0:	0f 84 3a 01 00 00    	je     3330 <driver_connection+0x440>
    31f6:	8d 58 ec             	lea    -0x14(%eax),%ebx
    31f9:	3b 78 ec             	cmp    -0x14(%eax),%edi
    31fc:	75 ea                	jne    31e8 <driver_connection+0x2f8>
    31fe:	8d 7b 04             	lea    0x4(%ebx),%edi
    3201:	f0 ff 43 04          	lock incl 0x4(%ebx)
    3205:	c7 04 24 a4 ea 02 00 	movl   $0x2eaa4,(%esp)
    320c:	e8 5f 05 01 00       	call   13770 <fibril_mutex_unlock>
    3211:	a1 98 ef 02 00       	mov    0x2ef98,%eax
    3216:	8b 40 04             	mov    0x4(%eax),%eax
    3219:	8b 40 04             	mov    0x4(%eax),%eax
    321c:	85 c0                	test   %eax,%eax
    321e:	0f 85 a8 fe ff ff    	jne    30cc <driver_connection+0x1dc>
    3224:	b8 f5 ff ff ff       	mov    $0xfffffff5,%eax
    3229:	e9 ab fe ff ff       	jmp    30d9 <driver_connection+0x1e9>
    322e:	66 90                	xchg   %ax,%ax
    3230:	c7 04 24 8c ea 02 00 	movl   $0x2ea8c,(%esp)
    3237:	e8 14 04 01 00       	call   13650 <fibril_mutex_lock>
    323c:	c7 04 24 8c ea 02 00 	movl   $0x2ea8c,(%esp)
    3243:	e8 38 06 01 00       	call   13880 <fibril_mutex_is_locked>
    3248:	84 c0                	test   %al,%al
    324a:	0f 84 10 02 00 00    	je     3460 <driver_connection+0x570>
    3250:	a1 a0 ea 02 00       	mov    0x2eaa0,%eax
    3255:	3d 9c ea 02 00       	cmp    $0x2ea9c,%eax
    325a:	75 1a                	jne    3276 <driver_connection+0x386>
    325c:	e9 f7 00 00 00       	jmp    3358 <driver_connection+0x468>
    3261:	8d b4 26 00 00 00 00 	lea    0x0(%esi,%eiz,1),%esi
    3268:	8b 40 04             	mov    0x4(%eax),%eax
    326b:	3d 9c ea 02 00       	cmp    $0x2ea9c,%eax
    3270:	0f 84 e2 00 00 00    	je     3358 <driver_connection+0x468>
    3276:	8d 58 d4             	lea    -0x2c(%eax),%ebx
    3279:	3b 7b 04             	cmp    0x4(%ebx),%edi
    327c:	75 ea                	jne    3268 <driver_connection+0x378>
    327e:	8b 43 0c             	mov    0xc(%ebx),%eax
    3281:	f0 ff 40 04          	lock incl 0x4(%eax)
    3285:	f0 ff 43 08          	lock incl 0x8(%ebx)
    3289:	c7 04 24 8c ea 02 00 	movl   $0x2ea8c,(%esp)
    3290:	e8 db 04 01 00       	call   13770 <fibril_mutex_unlock>
    3295:	a1 98 ef 02 00       	mov    0x2ef98,%eax
    329a:	8b 40 04             	mov    0x4(%eax),%eax
    329d:	8b 40 10             	mov    0x10(%eax),%eax
    32a0:	85 c0                	test   %eax,%eax
    32a2:	74 80                	je     3224 <driver_connection+0x334>
    32a4:	89 1c 24             	mov    %ebx,(%esp)
    32a7:	ff d0                	call   *%eax
    32a9:	e9 2b fe ff ff       	jmp    30d9 <driver_connection+0x1e9>
    32ae:	66 90                	xchg   %ax,%ax
    32b0:	8b 55 0c             	mov    0xc(%ebp),%edx
    32b3:	e8 18 f9 ff ff       	call   2bd0 <driver_connection_gen.isra.8>
    32b8:	83 c4 6c             	add    $0x6c,%esp
    32bb:	5b                   	pop    %ebx
    32bc:	5e                   	pop    %esi
    32bd:	5f                   	pop    %edi
    32be:	5d                   	pop    %ebp
    32bf:	c3                   	ret    
    32c0:	83 ca ff             	or     $0xffffffff,%edx
    32c3:	f0 0f c1 17          	lock xadd %edx,(%edi)
    32c7:	4a                   	dec    %edx
    32c8:	0f 85 0b fe ff ff    	jne    30d9 <driver_connection+0x1e9>
    32ce:	8b 43 08             	mov    0x8(%ebx),%eax
    32d1:	85 c0                	test   %eax,%eax
    32d3:	74 08                	je     32dd <driver_connection+0x3ed>
    32d5:	89 04 24             	mov    %eax,(%esp)
    32d8:	e8 33 c9 01 00       	call   1fc10 <async_hangup>
    32dd:	8b 43 10             	mov    0x10(%ebx),%eax
    32e0:	85 c0                	test   %eax,%eax
    32e2:	74 08                	je     32ec <driver_connection+0x3fc>
    32e4:	89 04 24             	mov    %eax,(%esp)
    32e7:	e8 84 92 01 00       	call   1c570 <free>
    32ec:	89 1c 24             	mov    %ebx,(%esp)
    32ef:	e8 7c 92 01 00       	call   1c570 <free>
    32f4:	31 c0                	xor    %eax,%eax
    32f6:	e9 de fd ff ff       	jmp    30d9 <driver_connection+0x1e9>
    32fb:	90                   	nop
    32fc:	8d 74 26 00          	lea    0x0(%esi,%eiz,1),%esi
    3300:	c7 45 b0 f5 ff ff ff 	movl   $0xfffffff5,-0x50(%ebp)
    3307:	e9 17 fd ff ff       	jmp    3023 <driver_connection+0x133>
    330c:	8d 74 26 00          	lea    0x0(%esi,%eiz,1),%esi
    3310:	83 c8 ff             	or     $0xffffffff,%eax
    3313:	f0 0f c1 43 04       	lock xadd %eax,0x4(%ebx)
    3318:	48                   	dec    %eax
    3319:	0f 84 16 01 00 00    	je     3435 <driver_connection+0x545>
    331f:	89 7c 24 04          	mov    %edi,0x4(%esp)
    3323:	89 34 24             	mov    %esi,(%esp)
    3326:	e8 e5 bf 01 00       	call   1f310 <async_answer_0>
    332b:	e9 e0 fb ff ff       	jmp    2f10 <driver_connection+0x20>
    3330:	c7 04 24 a4 ea 02 00 	movl   $0x2eaa4,(%esp)
    3337:	e8 34 04 01 00       	call   13770 <fibril_mutex_unlock>
    333c:	c7 44 24 04 ff ff ff 	movl   $0xffffffff,0x4(%esp)
    3343:	ff 
    3344:	89 34 24             	mov    %esi,(%esp)
    3347:	e8 c4 bf 01 00       	call   1f310 <async_answer_0>
    334c:	e9 bf fb ff ff       	jmp    2f10 <driver_connection+0x20>
    3351:	8d b4 26 00 00 00 00 	lea    0x0(%esi,%eiz,1),%esi
    3358:	c7 04 24 8c ea 02 00 	movl   $0x2ea8c,(%esp)
    335f:	e8 0c 04 01 00       	call   13770 <fibril_mutex_unlock>
    3364:	c7 44 24 04 ff ff ff 	movl   $0xffffffff,0x4(%esp)
    336b:	ff 
    336c:	89 34 24             	mov    %esi,(%esp)
    336f:	e8 9c bf 01 00       	call   1f310 <async_answer_0>
    3374:	e9 97 fb ff ff       	jmp    2f10 <driver_connection+0x20>
    3379:	8d b4 26 00 00 00 00 	lea    0x0(%esi,%eiz,1),%esi
    3380:	8b 42 08             	mov    0x8(%edx),%eax
    3383:	85 c0                	test   %eax,%eax
    3385:	74 08                	je     338f <driver_connection+0x49f>
    3387:	89 04 24             	mov    %eax,(%esp)
    338a:	e8 81 c8 01 00       	call   1fc10 <async_hangup>
    338f:	8b 4d b4             	mov    -0x4c(%ebp),%ecx
    3392:	8b 41 10             	mov    0x10(%ecx),%eax
    3395:	85 c0                	test   %eax,%eax
    3397:	74 08                	je     33a1 <driver_connection+0x4b1>
    3399:	89 04 24             	mov    %eax,(%esp)
    339c:	e8 cf 91 01 00       	call   1c570 <free>
    33a1:	8b 55 b4             	mov    -0x4c(%ebp),%edx
    33a4:	89 14 24             	mov    %edx,(%esp)
    33a7:	e8 c4 91 01 00       	call   1c570 <free>
    33ac:	e9 98 fc ff ff       	jmp    3049 <driver_connection+0x159>
    33b1:	8d b4 26 00 00 00 00 	lea    0x0(%esi,%eiz,1),%esi
    33b8:	8d 7b 18             	lea    0x18(%ebx),%edi
    33bb:	8b 43 1c             	mov    0x1c(%ebx),%eax
    33be:	39 f8                	cmp    %edi,%eax
    33c0:	74 48                	je     340a <driver_connection+0x51a>
    33c2:	89 5d ac             	mov    %ebx,-0x54(%ebp)
    33c5:	89 c3                	mov    %eax,%ebx
    33c7:	90                   	nop
    33c8:	8b 0b                	mov    (%ebx),%ecx
    33ca:	85 c9                	test   %ecx,%ecx
    33cc:	74 0e                	je     33dc <driver_connection+0x4ec>
    33ce:	8b 53 04             	mov    0x4(%ebx),%edx
    33d1:	85 d2                	test   %edx,%edx
    33d3:	74 07                	je     33dc <driver_connection+0x4ec>
    33d5:	89 0a                	mov    %ecx,(%edx)
    33d7:	8b 0b                	mov    (%ebx),%ecx
    33d9:	89 51 04             	mov    %edx,0x4(%ecx)
    33dc:	8b 53 08             	mov    0x8(%ebx),%edx
    33df:	c7 03 00 00 00 00    	movl   $0x0,(%ebx)
    33e5:	c7 43 04 00 00 00 00 	movl   $0x0,0x4(%ebx)
    33ec:	85 d2                	test   %edx,%edx
    33ee:	74 08                	je     33f8 <driver_connection+0x508>
    33f0:	89 14 24             	mov    %edx,(%esp)
    33f3:	e8 78 91 01 00       	call   1c570 <free>
    33f8:	89 1c 24             	mov    %ebx,(%esp)
    33fb:	e8 70 91 01 00       	call   1c570 <free>
    3400:	8b 5f 04             	mov    0x4(%edi),%ebx
    3403:	39 fb                	cmp    %edi,%ebx
    3405:	75 c1                	jne    33c8 <driver_connection+0x4d8>
    3407:	8b 5d ac             	mov    -0x54(%ebp),%ebx
    340a:	8b 43 20             	mov    0x20(%ebx),%eax
    340d:	85 c0                	test   %eax,%eax
    340f:	74 08                	je     3419 <driver_connection+0x529>
    3411:	89 04 24             	mov    %eax,(%esp)
    3414:	e8 57 91 01 00       	call   1c570 <free>
    3419:	8b 43 14             	mov    0x14(%ebx),%eax
    341c:	85 c0                	test   %eax,%eax
    341e:	74 08                	je     3428 <driver_connection+0x538>
    3420:	89 04 24             	mov    %eax,(%esp)
    3423:	e8 48 91 01 00       	call   1c570 <free>
    3428:	89 1c 24             	mov    %ebx,(%esp)
    342b:	e8 40 91 01 00       	call   1c570 <free>
    3430:	e9 02 fc ff ff       	jmp    3037 <driver_connection+0x147>
    3435:	8b 43 08             	mov    0x8(%ebx),%eax
    3438:	85 c0                	test   %eax,%eax
    343a:	74 08                	je     3444 <driver_connection+0x554>
    343c:	89 04 24             	mov    %eax,(%esp)
    343f:	e8 cc c7 01 00       	call   1fc10 <async_hangup>
    3444:	8b 43 10             	mov    0x10(%ebx),%eax
    3447:	85 c0                	test   %eax,%eax
    3449:	74 08                	je     3453 <driver_connection+0x563>
    344b:	89 04 24             	mov    %eax,(%esp)
    344e:	e8 1d 91 01 00       	call   1c570 <free>
    3453:	89 1c 24             	mov    %ebx,(%esp)
    3456:	e8 15 91 01 00       	call   1c570 <free>
    345b:	e9 bf fe ff ff       	jmp    331f <driver_connection+0x42f>
    3460:	c7 44 24 08 75 00 00 	movl   $0x75,0x8(%esp)
    3467:	00 
    3468:	c7 44 24 04 aa b6 02 	movl   $0x2b6aa,0x4(%esp)
    346f:	00 
    3470:	c7 04 24 f0 b7 02 00 	movl   $0x2b7f0,(%esp)
    3477:	e8 b4 3b 02 00       	call   27030 <assert_abort>
    347c:	c7 44 24 08 66 00 00 	movl   $0x66,0x8(%esp)
    3483:	00 
    3484:	c7 44 24 04 aa b6 02 	movl   $0x2b6aa,0x4(%esp)
    348b:	00 
    348c:	c7 04 24 3c b9 02 00 	movl   $0x2b93c,(%esp)
    3493:	e8 98 3b 02 00       	call   27030 <assert_abort>
    3498:	90                   	nop
    3499:	8d b4 26 00 00 00 00 	lea    0x0(%esi,%eiz,1),%esi

000034a0 <ddf_dev_data_alloc>:
    34a0:	55                   	push   %ebp
    34a1:	89 e5                	mov    %esp,%ebp
    34a3:	53                   	push   %ebx
    34a4:	83 ec 14             	sub    $0x14,%esp
    34a7:	8b 5d 08             	mov    0x8(%ebp),%ebx
    34aa:	8b 43 10             	mov    0x10(%ebx),%eax
    34ad:	85 c0                	test   %eax,%eax
    34af:	75 20                	jne    34d1 <ddf_dev_data_alloc+0x31>
    34b1:	8b 45 0c             	mov    0xc(%ebp),%eax
    34b4:	c7 04 24 01 00 00 00 	movl   $0x1,(%esp)
    34bb:	89 44 24 04          	mov    %eax,0x4(%esp)
    34bf:	e8 3c 8f 01 00       	call   1c400 <calloc>
    34c4:	85 c0                	test   %eax,%eax
    34c6:	74 03                	je     34cb <ddf_dev_data_alloc+0x2b>
    34c8:	89 43 10             	mov    %eax,0x10(%ebx)
    34cb:	83 c4 14             	add    $0x14,%esp
    34ce:	5b                   	pop    %ebx
    34cf:	5d                   	pop    %ebp
    34d0:	c3                   	ret    
    34d1:	c7 44 24 08 52 02 00 	movl   $0x252,0x8(%esp)
    34d8:	00 
    34d9:	c7 44 24 04 aa b6 02 	movl   $0x2b6aa,0x4(%esp)
    34e0:	00 
    34e1:	c7 04 24 e5 b6 02 00 	movl   $0x2b6e5,(%esp)
    34e8:	e8 43 3b 02 00       	call   27030 <assert_abort>
    34ed:	8d 76 00             	lea    0x0(%esi),%esi

000034f0 <ddf_fun_data_implant>:
    34f0:	55                   	push   %ebp
    34f1:	89 e5                	mov    %esp,%ebp
    34f3:	83 ec 18             	sub    $0x18,%esp
    34f6:	8b 45 08             	mov    0x8(%ebp),%eax
    34f9:	8b 50 20             	mov    0x20(%eax),%edx
    34fc:	85 d2                	test   %edx,%edx
    34fe:	75 08                	jne    3508 <ddf_fun_data_implant+0x18>
    3500:	8b 55 0c             	mov    0xc(%ebp),%edx
    3503:	89 50 20             	mov    %edx,0x20(%eax)
    3506:	c9                   	leave  
    3507:	c3                   	ret    
    3508:	c7 44 24 08 63 02 00 	movl   $0x263,0x8(%esp)
    350f:	00 
    3510:	c7 44 24 04 aa b6 02 	movl   $0x2b6aa,0x4(%esp)
    3517:	00 
    3518:	c7 04 24 fe b6 02 00 	movl   $0x2b6fe,(%esp)
    351f:	e8 0c 3b 02 00       	call   27030 <assert_abort>
    3524:	8d b6 00 00 00 00    	lea    0x0(%esi),%esi
    352a:	8d bf 00 00 00 00    	lea    0x0(%edi),%edi

00003530 <ddf_dev_data_get>:
    3530:	55                   	push   %ebp
    3531:	89 e5                	mov    %esp,%ebp
    3533:	8b 45 08             	mov    0x8(%ebp),%eax
    3536:	5d                   	pop    %ebp
    3537:	8b 40 10             	mov    0x10(%eax),%eax
    353a:	c3                   	ret    
    353b:	90                   	nop
    353c:	8d 74 26 00          	lea    0x0(%esi,%eiz,1),%esi

00003540 <ddf_dev_get_handle>:
    3540:	55                   	push   %ebp
    3541:	89 e5                	mov    %esp,%ebp
    3543:	8b 45 08             	mov    0x8(%ebp),%eax
    3546:	5d                   	pop    %ebp
    3547:	8b 00                	mov    (%eax),%eax
    3549:	c3                   	ret    
    354a:	8d b6 00 00 00 00    	lea    0x0(%esi),%esi

00003550 <ddf_dev_get_name>:
    3550:	55                   	push   %ebp
    3551:	89 e5                	mov    %esp,%ebp
    3553:	8b 45 08             	mov    0x8(%ebp),%eax
    3556:	5d                   	pop    %ebp
    3557:	8b 40 0c             	mov    0xc(%eax),%eax
    355a:	c3                   	ret    
    355b:	90                   	nop
    355c:	8d 74 26 00          	lea    0x0(%esi,%eiz,1),%esi

00003560 <ddf_dev_parent_sess_create>:
    3560:	55                   	push   %ebp
    3561:	89 e5                	mov    %esp,%ebp
    3563:	53                   	push   %ebx
    3564:	83 ec 14             	sub    $0x14,%esp
    3567:	8b 5d 08             	mov    0x8(%ebp),%ebx
    356a:	8b 4b 08             	mov    0x8(%ebx),%ecx
    356d:	85 c9                	test   %ecx,%ecx
    356f:	75 22                	jne    3593 <ddf_dev_parent_sess_create+0x33>
    3571:	c7 44 24 08 01 00 00 	movl   $0x1,0x8(%esp)
    3578:	00 
    3579:	8b 03                	mov    (%ebx),%eax
    357b:	89 44 24 04          	mov    %eax,0x4(%esp)
    357f:	8b 45 0c             	mov    0xc(%ebp),%eax
    3582:	89 04 24             	mov    %eax,(%esp)
    3585:	e8 16 ab 00 00       	call   e0a0 <devman_parent_device_connect>
    358a:	89 43 08             	mov    %eax,0x8(%ebx)
    358d:	83 c4 14             	add    $0x14,%esp
    3590:	5b                   	pop    %ebx
    3591:	5d                   	pop    %ebp
    3592:	c3                   	ret    
    3593:	c7 44 24 08 87 02 00 	movl   $0x287,0x8(%esp)
    359a:	00 
    359b:	c7 44 24 04 aa b6 02 	movl   $0x2b6aa,0x4(%esp)
    35a2:	00 
    35a3:	c7 04 24 17 b7 02 00 	movl   $0x2b717,(%esp)
    35aa:	e8 81 3a 02 00       	call   27030 <assert_abort>
    35af:	90                   	nop

000035b0 <ddf_dev_parent_sess_get>:
    35b0:	55                   	push   %ebp
    35b1:	89 e5                	mov    %esp,%ebp
    35b3:	8b 45 08             	mov    0x8(%ebp),%eax
    35b6:	5d                   	pop    %ebp
    35b7:	8b 40 08             	mov    0x8(%eax),%eax
    35ba:	c3                   	ret    
    35bb:	90                   	nop
    35bc:	8d 74 26 00          	lea    0x0(%esi,%eiz,1),%esi

000035c0 <ddf_fun_set_name>:
    35c0:	55                   	push   %ebp
    35c1:	89 e5                	mov    %esp,%ebp
    35c3:	53                   	push   %ebx
    35c4:	83 ec 14             	sub    $0x14,%esp
    35c7:	8b 5d 08             	mov    0x8(%ebp),%ebx
    35ca:	8b 43 14             	mov    0x14(%ebx),%eax
    35cd:	85 c0                	test   %eax,%eax
    35cf:	75 19                	jne    35ea <ddf_fun_set_name+0x2a>
    35d1:	8b 45 0c             	mov    0xc(%ebp),%eax
    35d4:	89 04 24             	mov    %eax,(%esp)
    35d7:	e8 44 ed 00 00       	call   12320 <str_dup>
    35dc:	83 f8 01             	cmp    $0x1,%eax
    35df:	89 43 14             	mov    %eax,0x14(%ebx)
    35e2:	19 c0                	sbb    %eax,%eax
    35e4:	83 c4 14             	add    $0x14,%esp
    35e7:	5b                   	pop    %ebx
    35e8:	5d                   	pop    %ebp
    35e9:	c3                   	ret    
    35ea:	c7 44 24 08 a0 02 00 	movl   $0x2a0,0x8(%esp)
    35f1:	00 
    35f2:	c7 44 24 04 aa b6 02 	movl   $0x2b6aa,0x4(%esp)
    35f9:	00 
    35fa:	c7 04 24 30 b7 02 00 	movl   $0x2b730,(%esp)
    3601:	e8 2a 3a 02 00       	call   27030 <assert_abort>
    3606:	8d 76 00             	lea    0x0(%esi),%esi
    3609:	8d bc 27 00 00 00 00 	lea    0x0(%edi,%eiz,1),%edi

00003610 <ddf_fun_get_dev>:
    3610:	55                   	push   %ebp
    3611:	89 e5                	mov    %esp,%ebp
    3613:	8b 45 08             	mov    0x8(%ebp),%eax
    3616:	5d                   	pop    %ebp
    3617:	8b 40 0c             	mov    0xc(%eax),%eax
    361a:	c3                   	ret    
    361b:	90                   	nop
    361c:	8d 74 26 00          	lea    0x0(%esi,%eiz,1),%esi

00003620 <ddf_fun_get_handle>:
    3620:	55                   	push   %ebp
    3621:	89 e5                	mov    %esp,%ebp
    3623:	8b 45 08             	mov    0x8(%ebp),%eax
    3626:	5d                   	pop    %ebp
    3627:	8b 40 04             	mov    0x4(%eax),%eax
    362a:	c3                   	ret    
    362b:	90                   	nop
    362c:	8d 74 26 00          	lea    0x0(%esi,%eiz,1),%esi

00003630 <ddf_fun_create>:
    3630:	55                   	push   %ebp
    3631:	89 e5                	mov    %esp,%ebp
    3633:	57                   	push   %edi
    3634:	56                   	push   %esi
    3635:	53                   	push   %ebx
    3636:	83 ec 1c             	sub    $0x1c,%esp
    3639:	8b 75 08             	mov    0x8(%ebp),%esi
    363c:	c7 44 24 04 34 00 00 	movl   $0x34,0x4(%esp)
    3643:	00 
    3644:	c7 04 24 01 00 00 00 	movl   $0x1,(%esp)
    364b:	e8 b0 8d 01 00       	call   1c400 <calloc>
    3650:	89 c3                	mov    %eax,%ebx
    3652:	85 c0                	test   %eax,%eax
    3654:	74 44                	je     369a <ddf_fun_create+0x6a>
    3656:	8d 78 18             	lea    0x18(%eax),%edi
    3659:	c7 40 2c 00 00 00 00 	movl   $0x0,0x2c(%eax)
    3660:	89 78 18             	mov    %edi,0x18(%eax)
    3663:	89 78 1c             	mov    %edi,0x1c(%eax)
    3666:	c7 40 30 00 00 00 00 	movl   $0x0,0x30(%eax)
    366d:	89 70 0c             	mov    %esi,0xc(%eax)
    3670:	f0 ff 46 04          	lock incl 0x4(%esi)
    3674:	f0 ff 40 08          	lock incl 0x8(%eax)
    3678:	c6 00 00             	movb   $0x0,(%eax)
    367b:	8b 45 0c             	mov    0xc(%ebp),%eax
    367e:	89 43 10             	mov    %eax,0x10(%ebx)
    3681:	8b 45 10             	mov    0x10(%ebp),%eax
    3684:	85 c0                	test   %eax,%eax
    3686:	74 12                	je     369a <ddf_fun_create+0x6a>
    3688:	8b 45 10             	mov    0x10(%ebp),%eax
    368b:	89 04 24             	mov    %eax,(%esp)
    368e:	e8 8d ec 00 00       	call   12320 <str_dup>
    3693:	89 43 14             	mov    %eax,0x14(%ebx)
    3696:	85 c0                	test   %eax,%eax
    3698:	74 0a                	je     36a4 <ddf_fun_create+0x74>
    369a:	83 c4 1c             	add    $0x1c,%esp
    369d:	89 d8                	mov    %ebx,%eax
    369f:	5b                   	pop    %ebx
    36a0:	5e                   	pop    %esi
    36a1:	5f                   	pop    %edi
    36a2:	5d                   	pop    %ebp
    36a3:	c3                   	ret    
    36a4:	8b 73 1c             	mov    0x1c(%ebx),%esi
    36a7:	39 fe                	cmp    %edi,%esi
    36a9:	74 44                	je     36ef <ddf_fun_create+0xbf>
    36ab:	90                   	nop
    36ac:	8d 74 26 00          	lea    0x0(%esi,%eiz,1),%esi
    36b0:	8b 0e                	mov    (%esi),%ecx
    36b2:	85 c9                	test   %ecx,%ecx
    36b4:	74 0e                	je     36c4 <ddf_fun_create+0x94>
    36b6:	8b 46 04             	mov    0x4(%esi),%eax
    36b9:	85 c0                	test   %eax,%eax
    36bb:	74 07                	je     36c4 <ddf_fun_create+0x94>
    36bd:	89 08                	mov    %ecx,(%eax)
    36bf:	8b 0e                	mov    (%esi),%ecx
    36c1:	89 41 04             	mov    %eax,0x4(%ecx)
    36c4:	8b 46 08             	mov    0x8(%esi),%eax
    36c7:	c7 06 00 00 00 00    	movl   $0x0,(%esi)
    36cd:	c7 46 04 00 00 00 00 	movl   $0x0,0x4(%esi)
    36d4:	85 c0                	test   %eax,%eax
    36d6:	74 08                	je     36e0 <ddf_fun_create+0xb0>
    36d8:	89 04 24             	mov    %eax,(%esp)
    36db:	e8 90 8e 01 00       	call   1c570 <free>
    36e0:	89 34 24             	mov    %esi,(%esp)
    36e3:	e8 88 8e 01 00       	call   1c570 <free>
    36e8:	8b 77 04             	mov    0x4(%edi),%esi
    36eb:	39 fe                	cmp    %edi,%esi
    36ed:	75 c1                	jne    36b0 <ddf_fun_create+0x80>
    36ef:	8b 43 20             	mov    0x20(%ebx),%eax
    36f2:	85 c0                	test   %eax,%eax
    36f4:	74 08                	je     36fe <ddf_fun_create+0xce>
    36f6:	89 04 24             	mov    %eax,(%esp)
    36f9:	e8 72 8e 01 00       	call   1c570 <free>
    36fe:	8b 43 14             	mov    0x14(%ebx),%eax
    3701:	85 c0                	test   %eax,%eax
    3703:	74 08                	je     370d <ddf_fun_create+0xdd>
    3705:	89 04 24             	mov    %eax,(%esp)
    3708:	e8 63 8e 01 00       	call   1c570 <free>
    370d:	89 1c 24             	mov    %ebx,(%esp)
    3710:	31 db                	xor    %ebx,%ebx
    3712:	e8 59 8e 01 00       	call   1c570 <free>
    3717:	eb 81                	jmp    369a <ddf_fun_create+0x6a>
    3719:	8d b4 26 00 00 00 00 	lea    0x0(%esi,%eiz,1),%esi

00003720 <ddf_fun_data_alloc>:
    3720:	55                   	push   %ebp
    3721:	89 e5                	mov    %esp,%ebp
    3723:	53                   	push   %ebx
    3724:	83 ec 14             	sub    $0x14,%esp
    3727:	8b 5d 08             	mov    0x8(%ebp),%ebx
    372a:	80 3b 00             	cmpb   $0x0,(%ebx)
    372d:	75 27                	jne    3756 <ddf_fun_data_alloc+0x36>
    372f:	8b 43 20             	mov    0x20(%ebx),%eax
    3732:	85 c0                	test   %eax,%eax
    3734:	75 3c                	jne    3772 <ddf_fun_data_alloc+0x52>
    3736:	8b 45 0c             	mov    0xc(%ebp),%eax
    3739:	c7 04 24 01 00 00 00 	movl   $0x1,(%esp)
    3740:	89 44 24 04          	mov    %eax,0x4(%esp)
    3744:	e8 b7 8c 01 00       	call   1c400 <calloc>
    3749:	85 c0                	test   %eax,%eax
    374b:	74 03                	je     3750 <ddf_fun_data_alloc+0x30>
    374d:	89 43 20             	mov    %eax,0x20(%ebx)
    3750:	83 c4 14             	add    $0x14,%esp
    3753:	5b                   	pop    %ebx
    3754:	5d                   	pop    %ebp
    3755:	c3                   	ret    
    3756:	c7 44 24 08 ec 02 00 	movl   $0x2ec,0x8(%esp)
    375d:	00 
    375e:	c7 44 24 04 aa b6 02 	movl   $0x2b6aa,0x4(%esp)
    3765:	00 
    3766:	c7 04 24 42 b7 02 00 	movl   $0x2b742,(%esp)
    376d:	e8 be 38 02 00       	call   27030 <assert_abort>
    3772:	c7 44 24 08 ed 02 00 	movl   $0x2ed,0x8(%esp)
    3779:	00 
    377a:	c7 44 24 04 aa b6 02 	movl   $0x2b6aa,0x4(%esp)
    3781:	00 
    3782:	c7 04 24 fe b6 02 00 	movl   $0x2b6fe,(%esp)
    3789:	e8 a2 38 02 00       	call   27030 <assert_abort>
    378e:	66 90                	xchg   %ax,%ax

00003790 <ddf_fun_data_get>:
    3790:	55                   	push   %ebp
    3791:	89 e5                	mov    %esp,%ebp
    3793:	8b 45 08             	mov    0x8(%ebp),%eax
    3796:	5d                   	pop    %ebp
    3797:	8b 40 20             	mov    0x20(%eax),%eax
    379a:	c3                   	ret    
    379b:	90                   	nop
    379c:	8d 74 26 00          	lea    0x0(%esi,%eiz,1),%esi

000037a0 <ddf_fun_get_name>:
    37a0:	55                   	push   %ebp
    37a1:	89 e5                	mov    %esp,%ebp
    37a3:	8b 45 08             	mov    0x8(%ebp),%eax
    37a6:	5d                   	pop    %ebp
    37a7:	8b 40 14             	mov    0x14(%eax),%eax
    37aa:	c3                   	ret    
    37ab:	90                   	nop
    37ac:	8d 74 26 00          	lea    0x0(%esi,%eiz,1),%esi

000037b0 <ddf_fun_destroy>:
    37b0:	55                   	push   %ebp
    37b1:	89 e5                	mov    %esp,%ebp
    37b3:	57                   	push   %edi
    37b4:	56                   	push   %esi
    37b5:	53                   	push   %ebx
    37b6:	83 ec 2c             	sub    $0x2c,%esp
    37b9:	8b 5d 08             	mov    0x8(%ebp),%ebx
    37bc:	80 3b 00             	cmpb   $0x0,(%ebx)
    37bf:	0f 85 d8 00 00 00    	jne    389d <ddf_fun_destroy+0xed>
    37c5:	8b 73 0c             	mov    0xc(%ebx),%esi
    37c8:	83 c8 ff             	or     $0xffffffff,%eax
    37cb:	f0 0f c1 43 08       	lock xadd %eax,0x8(%ebx)
    37d0:	48                   	dec    %eax
    37d1:	74 1d                	je     37f0 <ddf_fun_destroy+0x40>
    37d3:	83 c8 ff             	or     $0xffffffff,%eax
    37d6:	f0 0f c1 46 04       	lock xadd %eax,0x4(%esi)
    37db:	48                   	dec    %eax
    37dc:	0f 84 8e 00 00 00    	je     3870 <ddf_fun_destroy+0xc0>
    37e2:	83 c4 2c             	add    $0x2c,%esp
    37e5:	5b                   	pop    %ebx
    37e6:	5e                   	pop    %esi
    37e7:	5f                   	pop    %edi
    37e8:	5d                   	pop    %ebp
    37e9:	c3                   	ret    
    37ea:	8d b6 00 00 00 00    	lea    0x0(%esi),%esi
    37f0:	8d 7b 18             	lea    0x18(%ebx),%edi
    37f3:	8b 43 1c             	mov    0x1c(%ebx),%eax
    37f6:	39 f8                	cmp    %edi,%eax
    37f8:	74 4b                	je     3845 <ddf_fun_destroy+0x95>
    37fa:	8d b6 00 00 00 00    	lea    0x0(%esi),%esi
    3800:	8b 08                	mov    (%eax),%ecx
    3802:	85 c9                	test   %ecx,%ecx
    3804:	74 0e                	je     3814 <ddf_fun_destroy+0x64>
    3806:	8b 50 04             	mov    0x4(%eax),%edx
    3809:	85 d2                	test   %edx,%edx
    380b:	74 07                	je     3814 <ddf_fun_destroy+0x64>
    380d:	89 0a                	mov    %ecx,(%edx)
    380f:	8b 08                	mov    (%eax),%ecx
    3811:	89 51 04             	mov    %edx,0x4(%ecx)
    3814:	8b 50 08             	mov    0x8(%eax),%edx
    3817:	c7 00 00 00 00 00    	movl   $0x0,(%eax)
    381d:	c7 40 04 00 00 00 00 	movl   $0x0,0x4(%eax)
    3824:	85 d2                	test   %edx,%edx
    3826:	74 0e                	je     3836 <ddf_fun_destroy+0x86>
    3828:	89 14 24             	mov    %edx,(%esp)
    382b:	89 45 e4             	mov    %eax,-0x1c(%ebp)
    382e:	e8 3d 8d 01 00       	call   1c570 <free>
    3833:	8b 45 e4             	mov    -0x1c(%ebp),%eax
    3836:	89 04 24             	mov    %eax,(%esp)
    3839:	e8 32 8d 01 00       	call   1c570 <free>
    383e:	8b 47 04             	mov    0x4(%edi),%eax
    3841:	39 f8                	cmp    %edi,%eax
    3843:	75 bb                	jne    3800 <ddf_fun_destroy+0x50>
    3845:	8b 43 20             	mov    0x20(%ebx),%eax
    3848:	85 c0                	test   %eax,%eax
    384a:	74 08                	je     3854 <ddf_fun_destroy+0xa4>
    384c:	89 04 24             	mov    %eax,(%esp)
    384f:	e8 1c 8d 01 00       	call   1c570 <free>
    3854:	8b 43 14             	mov    0x14(%ebx),%eax
    3857:	85 c0                	test   %eax,%eax
    3859:	74 08                	je     3863 <ddf_fun_destroy+0xb3>
    385b:	89 04 24             	mov    %eax,(%esp)
    385e:	e8 0d 8d 01 00       	call   1c570 <free>
    3863:	89 1c 24             	mov    %ebx,(%esp)
    3866:	e8 05 8d 01 00       	call   1c570 <free>
    386b:	e9 63 ff ff ff       	jmp    37d3 <ddf_fun_destroy+0x23>
    3870:	8b 46 08             	mov    0x8(%esi),%eax
    3873:	85 c0                	test   %eax,%eax
    3875:	74 08                	je     387f <ddf_fun_destroy+0xcf>
    3877:	89 04 24             	mov    %eax,(%esp)
    387a:	e8 91 c3 01 00       	call   1fc10 <async_hangup>
    387f:	8b 46 10             	mov    0x10(%esi),%eax
    3882:	85 c0                	test   %eax,%eax
    3884:	74 08                	je     388e <ddf_fun_destroy+0xde>
    3886:	89 04 24             	mov    %eax,(%esp)
    3889:	e8 e2 8c 01 00       	call   1c570 <free>
    388e:	89 75 08             	mov    %esi,0x8(%ebp)
    3891:	83 c4 2c             	add    $0x2c,%esp
    3894:	5b                   	pop    %ebx
    3895:	5e                   	pop    %esi
    3896:	5f                   	pop    %edi
    3897:	5d                   	pop    %ebp
    3898:	e9 d3 8c 01 00       	jmp    1c570 <free>
    389d:	c7 44 24 08 11 03 00 	movl   $0x311,0x8(%esp)
    38a4:	00 
    38a5:	c7 44 24 04 aa b6 02 	movl   $0x2b6aa,0x4(%esp)
    38ac:	00 
    38ad:	c7 04 24 42 b7 02 00 	movl   $0x2b742,(%esp)
    38b4:	e8 77 37 02 00       	call   27030 <assert_abort>
    38b9:	8d b4 26 00 00 00 00 	lea    0x0(%esi,%eiz,1),%esi

000038c0 <ddf_fun_bind>:
    38c0:	55                   	push   %ebp
    38c1:	89 e5                	mov    %esp,%ebp
    38c3:	53                   	push   %ebx
    38c4:	83 ec 34             	sub    $0x34,%esp
    38c7:	8b 5d 08             	mov    0x8(%ebp),%ebx
    38ca:	80 3b 00             	cmpb   $0x0,(%ebx)
    38cd:	0f 85 c3 00 00 00    	jne    3996 <ddf_fun_bind+0xd6>
    38d3:	8b 43 14             	mov    0x14(%ebx),%eax
    38d6:	85 c0                	test   %eax,%eax
    38d8:	0f 84 d4 00 00 00    	je     39b2 <ddf_fun_bind+0xf2>
    38de:	c7 04 24 8c ea 02 00 	movl   $0x2ea8c,(%esp)
    38e5:	e8 66 fd 00 00       	call   13650 <fibril_mutex_lock>
    38ea:	8b 15 9c ea 02 00    	mov    0x2ea9c,%edx
    38f0:	8d 43 2c             	lea    0x2c(%ebx),%eax
    38f3:	c7 43 30 9c ea 02 00 	movl   $0x2ea9c,0x30(%ebx)
    38fa:	89 53 2c             	mov    %edx,0x2c(%ebx)
    38fd:	89 42 04             	mov    %eax,0x4(%edx)
    3900:	c7 04 24 8c ea 02 00 	movl   $0x2ea8c,(%esp)
    3907:	a3 9c ea 02 00       	mov    %eax,0x2ea9c
    390c:	e8 5f fe 00 00       	call   13770 <fibril_mutex_unlock>
    3911:	8d 43 04             	lea    0x4(%ebx),%eax
    3914:	89 44 24 10          	mov    %eax,0x10(%esp)
    3918:	8b 43 0c             	mov    0xc(%ebx),%eax
    391b:	8b 00                	mov    (%eax),%eax
    391d:	89 44 24 0c          	mov    %eax,0xc(%esp)
    3921:	8d 43 18             	lea    0x18(%ebx),%eax
    3924:	89 44 24 08          	mov    %eax,0x8(%esp)
    3928:	8b 43 10             	mov    0x10(%ebx),%eax
    392b:	89 44 24 04          	mov    %eax,0x4(%esp)
    392f:	8b 43 14             	mov    0x14(%ebx),%eax
    3932:	89 04 24             	mov    %eax,(%esp)
    3935:	e8 76 9f 00 00       	call   d8b0 <devman_add_function>
    393a:	85 c0                	test   %eax,%eax
    393c:	75 0a                	jne    3948 <ddf_fun_bind+0x88>
    393e:	c6 03 01             	movb   $0x1,(%ebx)
    3941:	83 c4 34             	add    $0x34,%esp
    3944:	5b                   	pop    %ebx
    3945:	5d                   	pop    %ebp
    3946:	c3                   	ret    
    3947:	90                   	nop
    3948:	c7 04 24 8c ea 02 00 	movl   $0x2ea8c,(%esp)
    394f:	89 45 f4             	mov    %eax,-0xc(%ebp)
    3952:	e8 f9 fc 00 00       	call   13650 <fibril_mutex_lock>
    3957:	8b 4b 2c             	mov    0x2c(%ebx),%ecx
    395a:	85 c9                	test   %ecx,%ecx
    395c:	8b 45 f4             	mov    -0xc(%ebp),%eax
    395f:	74 0f                	je     3970 <ddf_fun_bind+0xb0>
    3961:	8b 53 30             	mov    0x30(%ebx),%edx
    3964:	85 d2                	test   %edx,%edx
    3966:	74 08                	je     3970 <ddf_fun_bind+0xb0>
    3968:	89 0a                	mov    %ecx,(%edx)
    396a:	8b 4b 2c             	mov    0x2c(%ebx),%ecx
    396d:	89 51 04             	mov    %edx,0x4(%ecx)
    3970:	c7 43 2c 00 00 00 00 	movl   $0x0,0x2c(%ebx)
    3977:	c7 43 30 00 00 00 00 	movl   $0x0,0x30(%ebx)
    397e:	c7 04 24 8c ea 02 00 	movl   $0x2ea8c,(%esp)
    3985:	89 45 f4             	mov    %eax,-0xc(%ebp)
    3988:	e8 e3 fd 00 00       	call   13770 <fibril_mutex_unlock>
    398d:	8b 45 f4             	mov    -0xc(%ebp),%eax
    3990:	83 c4 34             	add    $0x34,%esp
    3993:	5b                   	pop    %ebx
    3994:	5d                   	pop    %ebp
    3995:	c3                   	ret    
    3996:	c7 44 24 08 35 03 00 	movl   $0x335,0x8(%esp)
    399d:	00 
    399e:	c7 44 24 04 aa b6 02 	movl   $0x2b6aa,0x4(%esp)
    39a5:	00 
    39a6:	c7 04 24 42 b7 02 00 	movl   $0x2b742,(%esp)
    39ad:	e8 7e 36 02 00       	call   27030 <assert_abort>
    39b2:	c7 44 24 08 36 03 00 	movl   $0x336,0x8(%esp)
    39b9:	00 
    39ba:	c7 44 24 04 aa b6 02 	movl   $0x2b6aa,0x4(%esp)
    39c1:	00 
    39c2:	c7 04 24 56 b7 02 00 	movl   $0x2b756,(%esp)
    39c9:	e8 62 36 02 00       	call   27030 <assert_abort>
    39ce:	66 90                	xchg   %ax,%ax

000039d0 <ddf_fun_unbind>:
    39d0:	55                   	push   %ebp
    39d1:	89 e5                	mov    %esp,%ebp
    39d3:	53                   	push   %ebx
    39d4:	83 ec 24             	sub    $0x24,%esp
    39d7:	8b 5d 08             	mov    0x8(%ebp),%ebx
    39da:	80 3b 00             	cmpb   $0x0,(%ebx)
    39dd:	74 6a                	je     3a49 <ddf_fun_unbind+0x79>
    39df:	8b 43 04             	mov    0x4(%ebx),%eax
    39e2:	89 04 24             	mov    %eax,(%esp)
    39e5:	e8 66 a3 00 00       	call   dd50 <devman_remove_function>
    39ea:	85 c0                	test   %eax,%eax
    39ec:	74 0a                	je     39f8 <ddf_fun_unbind+0x28>
    39ee:	83 c4 24             	add    $0x24,%esp
    39f1:	5b                   	pop    %ebx
    39f2:	5d                   	pop    %ebp
    39f3:	c3                   	ret    
    39f4:	8d 74 26 00          	lea    0x0(%esi,%eiz,1),%esi
    39f8:	c7 04 24 8c ea 02 00 	movl   $0x2ea8c,(%esp)
    39ff:	89 45 f4             	mov    %eax,-0xc(%ebp)
    3a02:	e8 49 fc 00 00       	call   13650 <fibril_mutex_lock>
    3a07:	8b 4b 2c             	mov    0x2c(%ebx),%ecx
    3a0a:	85 c9                	test   %ecx,%ecx
    3a0c:	8b 45 f4             	mov    -0xc(%ebp),%eax
    3a0f:	74 0f                	je     3a20 <ddf_fun_unbind+0x50>
    3a11:	8b 53 30             	mov    0x30(%ebx),%edx
    3a14:	85 d2                	test   %edx,%edx
    3a16:	74 08                	je     3a20 <ddf_fun_unbind+0x50>
    3a18:	89 0a                	mov    %ecx,(%edx)
    3a1a:	8b 4b 2c             	mov    0x2c(%ebx),%ecx
    3a1d:	89 51 04             	mov    %edx,0x4(%ecx)
    3a20:	c7 43 2c 00 00 00 00 	movl   $0x0,0x2c(%ebx)
    3a27:	c7 43 30 00 00 00 00 	movl   $0x0,0x30(%ebx)
    3a2e:	c7 04 24 8c ea 02 00 	movl   $0x2ea8c,(%esp)
    3a35:	89 45 f4             	mov    %eax,-0xc(%ebp)
    3a38:	e8 33 fd 00 00       	call   13770 <fibril_mutex_unlock>
    3a3d:	c6 03 00             	movb   $0x0,(%ebx)
    3a40:	8b 45 f4             	mov    -0xc(%ebp),%eax
    3a43:	83 c4 24             	add    $0x24,%esp
    3a46:	5b                   	pop    %ebx
    3a47:	5d                   	pop    %ebp
    3a48:	c3                   	ret    
    3a49:	c7 44 24 08 50 03 00 	movl   $0x350,0x8(%esp)
    3a50:	00 
    3a51:	c7 44 24 04 aa b6 02 	movl   $0x2b6aa,0x4(%esp)
    3a58:	00 
    3a59:	c7 04 24 68 b7 02 00 	movl   $0x2b768,(%esp)
    3a60:	e8 cb 35 02 00       	call   27030 <assert_abort>
    3a65:	8d 74 26 00          	lea    0x0(%esi,%eiz,1),%esi
    3a69:	8d bc 27 00 00 00 00 	lea    0x0(%edi,%eiz,1),%edi

00003a70 <ddf_fun_online>:
    3a70:	55                   	push   %ebp
    3a71:	89 e5                	mov    %esp,%ebp
    3a73:	83 ec 18             	sub    $0x18,%esp
    3a76:	8b 45 08             	mov    0x8(%ebp),%eax
    3a79:	80 38 00             	cmpb   $0x0,(%eax)
    3a7c:	74 0c                	je     3a8a <ddf_fun_online+0x1a>
    3a7e:	8b 40 04             	mov    0x4(%eax),%eax
    3a81:	89 45 08             	mov    %eax,0x8(%ebp)
    3a84:	c9                   	leave  
    3a85:	e9 36 a4 00 00       	jmp    dec0 <devman_drv_fun_online>
    3a8a:	c7 44 24 08 65 03 00 	movl   $0x365,0x8(%esp)
    3a91:	00 
    3a92:	c7 44 24 04 aa b6 02 	movl   $0x2b6aa,0x4(%esp)
    3a99:	00 
    3a9a:	c7 04 24 68 b7 02 00 	movl   $0x2b768,(%esp)
    3aa1:	e8 8a 35 02 00       	call   27030 <assert_abort>
    3aa6:	8d 76 00             	lea    0x0(%esi),%esi
    3aa9:	8d bc 27 00 00 00 00 	lea    0x0(%edi,%eiz,1),%edi

00003ab0 <ddf_fun_offline>:
    3ab0:	55                   	push   %ebp
    3ab1:	89 e5                	mov    %esp,%ebp
    3ab3:	83 ec 18             	sub    $0x18,%esp
    3ab6:	8b 45 08             	mov    0x8(%ebp),%eax
    3ab9:	80 38 00             	cmpb   $0x0,(%eax)
    3abc:	74 0c                	je     3aca <ddf_fun_offline+0x1a>
    3abe:	8b 40 04             	mov    0x4(%eax),%eax
    3ac1:	89 45 08             	mov    %eax,0x8(%ebp)
    3ac4:	c9                   	leave  
    3ac5:	e9 e6 a4 00 00       	jmp    dfb0 <devman_drv_fun_offline>
    3aca:	c7 44 24 08 77 03 00 	movl   $0x377,0x8(%esp)
    3ad1:	00 
    3ad2:	c7 44 24 04 aa b6 02 	movl   $0x2b6aa,0x4(%esp)
    3ad9:	00 
    3ada:	c7 04 24 68 b7 02 00 	movl   $0x2b768,(%esp)
    3ae1:	e8 4a 35 02 00       	call   27030 <assert_abort>
    3ae6:	8d 76 00             	lea    0x0(%esi),%esi
    3ae9:	8d bc 27 00 00 00 00 	lea    0x0(%edi,%eiz,1),%edi

00003af0 <ddf_fun_add_match_id>:
    3af0:	55                   	push   %ebp
    3af1:	89 e5                	mov    %esp,%ebp
    3af3:	57                   	push   %edi
    3af4:	56                   	push   %esi
    3af5:	53                   	push   %ebx
    3af6:	83 ec 1c             	sub    $0x1c,%esp
    3af9:	8b 75 08             	mov    0x8(%ebp),%esi
    3afc:	8b 5d 10             	mov    0x10(%ebp),%ebx
    3aff:	80 3e 00             	cmpb   $0x0,(%esi)
    3b02:	0f 85 97 00 00 00    	jne    3b9f <ddf_fun_add_match_id+0xaf>
    3b08:	83 7e 10 01          	cmpl   $0x1,0x10(%esi)
    3b0c:	75 75                	jne    3b83 <ddf_fun_add_match_id+0x93>
    3b0e:	c7 04 24 10 00 00 00 	movl   $0x10,(%esp)
    3b15:	e8 46 89 01 00       	call   1c460 <malloc>
    3b1a:	c7 44 24 08 10 00 00 	movl   $0x10,0x8(%esp)
    3b21:	00 
    3b22:	89 c7                	mov    %eax,%edi
    3b24:	c7 44 24 04 00 00 00 	movl   $0x0,0x4(%esp)
    3b2b:	00 
    3b2c:	89 04 24             	mov    %eax,(%esp)
    3b2f:	e8 bc b8 00 00       	call   f3f0 <memset>
    3b34:	85 ff                	test   %edi,%edi
    3b36:	74 44                	je     3b7c <ddf_fun_add_match_id+0x8c>
    3b38:	8b 45 0c             	mov    0xc(%ebp),%eax
    3b3b:	89 04 24             	mov    %eax,(%esp)
    3b3e:	e8 dd e7 00 00       	call   12320 <str_dup>
    3b43:	8b 56 1c             	mov    0x1c(%esi),%edx
    3b46:	8d 4e 18             	lea    0x18(%esi),%ecx
    3b49:	89 47 08             	mov    %eax,0x8(%edi)
    3b4c:	89 5f 0c             	mov    %ebx,0xc(%edi)
    3b4f:	39 ca                	cmp    %ecx,%edx
    3b51:	75 0c                	jne    3b5f <ddf_fun_add_match_id+0x6f>
    3b53:	eb 0f                	jmp    3b64 <ddf_fun_add_match_id+0x74>
    3b55:	8d 76 00             	lea    0x0(%esi),%esi
    3b58:	8b 52 04             	mov    0x4(%edx),%edx
    3b5b:	39 ca                	cmp    %ecx,%edx
    3b5d:	74 05                	je     3b64 <ddf_fun_add_match_id+0x74>
    3b5f:	3b 5a 0c             	cmp    0xc(%edx),%ebx
    3b62:	76 f4                	jbe    3b58 <ddf_fun_add_match_id+0x68>
    3b64:	8b 02                	mov    (%edx),%eax
    3b66:	89 57 04             	mov    %edx,0x4(%edi)
    3b69:	89 07                	mov    %eax,(%edi)
    3b6b:	8b 02                	mov    (%edx),%eax
    3b6d:	89 3a                	mov    %edi,(%edx)
    3b6f:	89 78 04             	mov    %edi,0x4(%eax)
    3b72:	31 c0                	xor    %eax,%eax
    3b74:	83 c4 1c             	add    $0x1c,%esp
    3b77:	5b                   	pop    %ebx
    3b78:	5e                   	pop    %esi
    3b79:	5f                   	pop    %edi
    3b7a:	5d                   	pop    %ebp
    3b7b:	c3                   	ret    
    3b7c:	b8 fe ff ff ff       	mov    $0xfffffffe,%eax
    3b81:	eb f1                	jmp    3b74 <ddf_fun_add_match_id+0x84>
    3b83:	c7 44 24 08 91 03 00 	movl   $0x391,0x8(%esp)
    3b8a:	00 
    3b8b:	c7 44 24 04 aa b6 02 	movl   $0x2b6aa,0x4(%esp)
    3b92:	00 
    3b93:	c7 04 24 7b b7 02 00 	movl   $0x2b77b,(%esp)
    3b9a:	e8 91 34 02 00       	call   27030 <assert_abort>
    3b9f:	c7 44 24 08 90 03 00 	movl   $0x390,0x8(%esp)
    3ba6:	00 
    3ba7:	c7 44 24 04 aa b6 02 	movl   $0x2b6aa,0x4(%esp)
    3bae:	00 
    3baf:	c7 04 24 42 b7 02 00 	movl   $0x2b742,(%esp)
    3bb6:	e8 75 34 02 00       	call   27030 <assert_abort>
    3bbb:	90                   	nop
    3bbc:	8d 74 26 00          	lea    0x0(%esi,%eiz,1),%esi

00003bc0 <ddf_fun_set_ops>:
    3bc0:	55                   	push   %ebp
    3bc1:	89 e5                	mov    %esp,%ebp
    3bc3:	83 ec 18             	sub    $0x18,%esp
    3bc6:	8b 45 08             	mov    0x8(%ebp),%eax
    3bc9:	8b 50 28             	mov    0x28(%eax),%edx
    3bcc:	85 d2                	test   %edx,%edx
    3bce:	75 08                	jne    3bd8 <ddf_fun_set_ops+0x18>
    3bd0:	8b 55 0c             	mov    0xc(%ebp),%edx
    3bd3:	89 50 24             	mov    %edx,0x24(%eax)
    3bd6:	c9                   	leave  
    3bd7:	c3                   	ret    
    3bd8:	c7 44 24 08 a1 03 00 	movl   $0x3a1,0x8(%esp)
    3bdf:	00 
    3be0:	c7 44 24 04 aa b6 02 	movl   $0x2b6aa,0x4(%esp)
    3be7:	00 
    3be8:	c7 04 24 93 b7 02 00 	movl   $0x2b793,(%esp)
    3bef:	e8 3c 34 02 00       	call   27030 <assert_abort>
    3bf4:	8d b6 00 00 00 00    	lea    0x0(%esi),%esi
    3bfa:	8d bf 00 00 00 00    	lea    0x0(%edi),%edi

00003c00 <ddf_fun_set_conn_handler>:
    3c00:	55                   	push   %ebp
    3c01:	89 e5                	mov    %esp,%ebp
    3c03:	83 ec 18             	sub    $0x18,%esp
    3c06:	8b 45 08             	mov    0x8(%ebp),%eax
    3c09:	8b 48 24             	mov    0x24(%eax),%ecx
    3c0c:	85 c9                	test   %ecx,%ecx
    3c0e:	75 08                	jne    3c18 <ddf_fun_set_conn_handler+0x18>
    3c10:	8b 55 0c             	mov    0xc(%ebp),%edx
    3c13:	89 50 28             	mov    %edx,0x28(%eax)
    3c16:	c9                   	leave  
    3c17:	c3                   	ret    
    3c18:	c7 44 24 08 ab 03 00 	movl   $0x3ab,0x8(%esp)
    3c1f:	00 
    3c20:	c7 44 24 04 aa b6 02 	movl   $0x2b6aa,0x4(%esp)
    3c27:	00 
    3c28:	c7 04 24 ad b7 02 00 	movl   $0x2b7ad,(%esp)
    3c2f:	e8 fc 33 02 00       	call   27030 <assert_abort>
    3c34:	8d b6 00 00 00 00    	lea    0x0(%esi),%esi
    3c3a:	8d bf 00 00 00 00    	lea    0x0(%edi),%edi

00003c40 <ddf_fun_add_to_category>:
    3c40:	55                   	push   %ebp
    3c41:	89 e5                	mov    %esp,%ebp
    3c43:	83 ec 18             	sub    $0x18,%esp
    3c46:	8b 45 08             	mov    0x8(%ebp),%eax
    3c49:	8b 55 0c             	mov    0xc(%ebp),%edx
    3c4c:	80 38 00             	cmpb   $0x0,(%eax)
    3c4f:	74 15                	je     3c66 <ddf_fun_add_to_category+0x26>
    3c51:	83 78 10 02          	cmpl   $0x2,0x10(%eax)
    3c55:	75 2b                	jne    3c82 <ddf_fun_add_to_category+0x42>
    3c57:	89 55 0c             	mov    %edx,0xc(%ebp)
    3c5a:	8b 40 04             	mov    0x4(%eax),%eax
    3c5d:	89 45 08             	mov    %eax,0x8(%ebp)
    3c60:	c9                   	leave  
    3c61:	e9 0a 9f 00 00       	jmp    db70 <devman_add_device_to_category>
    3c66:	c7 44 24 08 be 03 00 	movl   $0x3be,0x8(%esp)
    3c6d:	00 
    3c6e:	c7 44 24 04 aa b6 02 	movl   $0x2b6aa,0x4(%esp)
    3c75:	00 
    3c76:	c7 04 24 68 b7 02 00 	movl   $0x2b768,(%esp)
    3c7d:	e8 ae 33 02 00       	call   27030 <assert_abort>
    3c82:	c7 44 24 08 bf 03 00 	movl   $0x3bf,0x8(%esp)
    3c89:	00 
    3c8a:	c7 44 24 04 aa b6 02 	movl   $0x2b6aa,0x4(%esp)
    3c91:	00 
    3c92:	c7 04 24 be b7 02 00 	movl   $0x2b7be,(%esp)
    3c99:	e8 92 33 02 00       	call   27030 <assert_abort>
    3c9e:	66 90                	xchg   %ax,%ax

00003ca0 <ddf_driver_main>:
    3ca0:	55                   	push   %ebp
    3ca1:	89 e5                	mov    %esp,%ebp
    3ca3:	53                   	push   %ebx
    3ca4:	83 ec 14             	sub    $0x14,%esp
    3ca7:	8b 45 08             	mov    0x8(%ebp),%eax
    3caa:	a3 98 ef 02 00       	mov    %eax,0x2ef98
    3caf:	e8 7c 01 00 00       	call   3e30 <interrupt_init>
    3cb4:	c7 04 24 f0 2e 00 00 	movl   $0x2ef0,(%esp)
    3cbb:	e8 00 9e 01 00       	call   1dac0 <async_set_client_connection>
    3cc0:	a1 98 ef 02 00       	mov    0x2ef98,%eax
    3cc5:	8b 00                	mov    (%eax),%eax
    3cc7:	89 04 24             	mov    %eax,(%esp)
    3cca:	e8 a1 99 00 00       	call   d670 <devman_driver_register>
    3ccf:	89 c3                	mov    %eax,%ebx
    3cd1:	85 c0                	test   %eax,%eax
    3cd3:	74 2b                	je     3d00 <ddf_driver_main+0x60>
    3cd5:	b8 d8 b7 02 00       	mov    $0x2b7d8,%eax
    3cda:	83 fb f7             	cmp    $0xfffffff7,%ebx
    3cdd:	74 08                	je     3ce7 <ddf_driver_main+0x47>
    3cdf:	89 1c 24             	mov    %ebx,(%esp)
    3ce2:	e8 79 ef 00 00       	call   12c60 <str_error>
    3ce7:	89 44 24 04          	mov    %eax,0x4(%esp)
    3ceb:	c7 04 24 64 b9 02 00 	movl   $0x2b964,(%esp)
    3cf2:	e8 e9 38 01 00       	call   175e0 <printf>
    3cf7:	83 c4 14             	add    $0x14,%esp
    3cfa:	89 d8                	mov    %ebx,%eax
    3cfc:	5b                   	pop    %ebx
    3cfd:	5d                   	pop    %ebp
    3cfe:	c3                   	ret    
    3cff:	90                   	nop
    3d00:	c7 04 24 00 00 00 00 	movl   $0x0,(%esp)
    3d07:	e8 94 12 01 00       	call   14fa0 <task_retval>
    3d0c:	89 c3                	mov    %eax,%ebx
    3d0e:	85 c0                	test   %eax,%eax
    3d10:	75 e5                	jne    3cf7 <ddf_driver_main+0x57>
    3d12:	c7 04 24 01 00 00 00 	movl   $0x1,(%esp)
    3d19:	e8 62 f1 00 00       	call   12e80 <fibril_switch>
    3d1e:	83 c4 14             	add    $0x14,%esp
    3d21:	89 d8                	mov    %ebx,%eax
    3d23:	5b                   	pop    %ebx
    3d24:	5d                   	pop    %ebp
    3d25:	c3                   	ret    
    3d26:	66 90                	xchg   %ax,%ax
    3d28:	66 90                	xchg   %ax,%ax
    3d2a:	66 90                	xchg   %ax,%ax
    3d2c:	66 90                	xchg   %ax,%ax
    3d2e:	66 90                	xchg   %ax,%ax

00003d30 <get_remote_iface>:
    3d30:	55                   	push   %ebp
    3d31:	89 e5                	mov    %esp,%ebp
    3d33:	83 ec 18             	sub    $0x18,%esp
    3d36:	8b 45 08             	mov    0x8(%ebp),%eax
    3d39:	83 f8 0a             	cmp    $0xa,%eax
    3d3c:	77 09                	ja     3d47 <get_remote_iface+0x17>
    3d3e:	8b 04 85 e0 b9 02 00 	mov    0x2b9e0(,%eax,4),%eax
    3d45:	c9                   	leave  
    3d46:	c3                   	ret    
    3d47:	c7 44 24 08 47 00 00 	movl   $0x47,0x8(%esp)
    3d4e:	00 
    3d4f:	c7 44 24 04 b4 b9 02 	movl   $0x2b9b4,0x4(%esp)
    3d56:	00 
    3d57:	c7 04 24 bb b6 02 00 	movl   $0x2b6bb,(%esp)
    3d5e:	e8 cd 32 02 00       	call   27030 <assert_abort>
    3d63:	8d b6 00 00 00 00    	lea    0x0(%esi),%esi
    3d69:	8d bc 27 00 00 00 00 	lea    0x0(%edi,%eiz,1),%edi

00003d70 <get_remote_method>:
    3d70:	55                   	push   %ebp
    3d71:	89 e5                	mov    %esp,%ebp
    3d73:	8b 55 08             	mov    0x8(%ebp),%edx
    3d76:	8b 45 0c             	mov    0xc(%ebp),%eax
    3d79:	39 02                	cmp    %eax,(%edx)
    3d7b:	76 0b                	jbe    3d88 <get_remote_method+0x18>
    3d7d:	8b 52 04             	mov    0x4(%edx),%edx
    3d80:	5d                   	pop    %ebp
    3d81:	8b 04 82             	mov    (%edx,%eax,4),%eax
    3d84:	c3                   	ret    
    3d85:	8d 76 00             	lea    0x0(%esi),%esi
    3d88:	31 c0                	xor    %eax,%eax
    3d8a:	5d                   	pop    %ebp
    3d8b:	c3                   	ret    
    3d8c:	8d 74 26 00          	lea    0x0(%esi,%eiz,1),%esi

00003d90 <is_valid_iface_idx>:
    3d90:	55                   	push   %ebp
    3d91:	89 e5                	mov    %esp,%ebp
    3d93:	83 7d 08 0a          	cmpl   $0xa,0x8(%ebp)
    3d97:	5d                   	pop    %ebp
    3d98:	0f 96 c0             	setbe  %al
    3d9b:	c3                   	ret    
    3d9c:	66 90                	xchg   %ax,%ax
    3d9e:	66 90                	xchg   %ax,%ax

00003da0 <driver_irq_handler>:
    3da0:	55                   	push   %ebp
    3da1:	89 e5                	mov    %esp,%ebp
    3da3:	57                   	push   %edi
    3da4:	56                   	push   %esi
    3da5:	53                   	push   %ebx
    3da6:	83 ec 2c             	sub    $0x2c,%esp
    3da9:	8b 5d 0c             	mov    0xc(%ebp),%ebx
    3dac:	8b 45 08             	mov    0x8(%ebp),%eax
    3daf:	89 45 e4             	mov    %eax,-0x1c(%ebp)
    3db2:	8b 33                	mov    (%ebx),%esi
    3db4:	c7 04 24 a8 ef 02 00 	movl   $0x2efa8,(%esp)
    3dbb:	e8 90 f8 00 00       	call   13650 <fibril_mutex_lock>
    3dc0:	a1 a4 ef 02 00       	mov    0x2efa4,%eax
    3dc5:	3d a0 ef 02 00       	cmp    $0x2efa0,%eax
    3dca:	75 0e                	jne    3dda <driver_irq_handler+0x3a>
    3dcc:	eb 42                	jmp    3e10 <driver_irq_handler+0x70>
    3dce:	66 90                	xchg   %ax,%ax
    3dd0:	8b 40 04             	mov    0x4(%eax),%eax
    3dd3:	3d a0 ef 02 00       	cmp    $0x2efa0,%eax
    3dd8:	74 36                	je     3e10 <driver_irq_handler+0x70>
    3dda:	8d 78 f0             	lea    -0x10(%eax),%edi
    3ddd:	3b 70 f0             	cmp    -0x10(%eax),%esi
    3de0:	75 ee                	jne    3dd0 <driver_irq_handler+0x30>
    3de2:	c7 04 24 a8 ef 02 00 	movl   $0x2efa8,(%esp)
    3de9:	e8 82 f9 00 00       	call   13770 <fibril_mutex_unlock>
    3dee:	8b 47 0c             	mov    0xc(%edi),%eax
    3df1:	85 c0                	test   %eax,%eax
    3df3:	74 13                	je     3e08 <driver_irq_handler+0x68>
    3df5:	8b 55 e4             	mov    -0x1c(%ebp),%edx
    3df8:	89 5c 24 08          	mov    %ebx,0x8(%esp)
    3dfc:	89 54 24 04          	mov    %edx,0x4(%esp)
    3e00:	8b 57 04             	mov    0x4(%edi),%edx
    3e03:	89 14 24             	mov    %edx,(%esp)
    3e06:	ff d0                	call   *%eax
    3e08:	83 c4 2c             	add    $0x2c,%esp
    3e0b:	5b                   	pop    %ebx
    3e0c:	5e                   	pop    %esi
    3e0d:	5f                   	pop    %edi
    3e0e:	5d                   	pop    %ebp
    3e0f:	c3                   	ret    
    3e10:	c7 45 08 a8 ef 02 00 	movl   $0x2efa8,0x8(%ebp)
    3e17:	83 c4 2c             	add    $0x2c,%esp
    3e1a:	5b                   	pop    %ebx
    3e1b:	5e                   	pop    %esi
    3e1c:	5f                   	pop    %edi
    3e1d:	5d                   	pop    %ebp
    3e1e:	e9 4d f9 00 00       	jmp    13770 <fibril_mutex_unlock>
    3e23:	8d b6 00 00 00 00    	lea    0x0(%esi),%esi
    3e29:	8d bc 27 00 00 00 00 	lea    0x0(%edi,%eiz,1),%edi

00003e30 <interrupt_init>:
    3e30:	55                   	push   %ebp
    3e31:	89 e5                	mov    %esp,%ebp
    3e33:	83 ec 18             	sub    $0x18,%esp
    3e36:	c7 44 24 08 1c 00 00 	movl   $0x1c,0x8(%esp)
    3e3d:	00 
    3e3e:	c7 44 24 04 00 00 00 	movl   $0x0,0x4(%esp)
    3e45:	00 
    3e46:	c7 04 24 9c ef 02 00 	movl   $0x2ef9c,(%esp)
    3e4d:	e8 9e b5 00 00       	call   f3f0 <memset>
    3e52:	c7 04 24 a8 ef 02 00 	movl   $0x2efa8,(%esp)
    3e59:	e8 d2 f7 00 00       	call   13630 <fibril_mutex_initialize>
    3e5e:	c7 04 24 a0 3d 00 00 	movl   $0x3da0,(%esp)
    3e65:	c7 05 a0 ef 02 00 a0 	movl   $0x2efa0,0x2efa0
    3e6c:	ef 02 00 
    3e6f:	c7 05 a4 ef 02 00 a0 	movl   $0x2efa0,0x2efa4
    3e76:	ef 02 00 
    3e79:	e8 82 9c 01 00       	call   1db00 <async_set_interrupt_received>
    3e7e:	c9                   	leave  
    3e7f:	c3                   	ret    

00003e80 <register_interrupt_handler>:
    3e80:	55                   	push   %ebp
    3e81:	89 e5                	mov    %esp,%ebp
    3e83:	57                   	push   %edi
    3e84:	56                   	push   %esi
    3e85:	53                   	push   %ebx
    3e86:	83 ec 2c             	sub    $0x2c,%esp
    3e89:	8b 7d 08             	mov    0x8(%ebp),%edi
    3e8c:	8b 5d 14             	mov    0x14(%ebp),%ebx
    3e8f:	c7 04 24 18 00 00 00 	movl   $0x18,(%esp)
    3e96:	e8 c5 85 01 00       	call   1c460 <malloc>
    3e9b:	89 c6                	mov    %eax,%esi
    3e9d:	85 c0                	test   %eax,%eax
    3e9f:	74 18                	je     3eb9 <register_interrupt_handler+0x39>
    3ea1:	c7 44 24 08 18 00 00 	movl   $0x18,0x8(%esp)
    3ea8:	00 
    3ea9:	c7 44 24 04 00 00 00 	movl   $0x0,0x4(%esp)
    3eb0:	00 
    3eb1:	89 04 24             	mov    %eax,(%esp)
    3eb4:	e8 37 b5 00 00       	call   f3f0 <memset>
    3eb9:	8b 45 0c             	mov    0xc(%ebp),%eax
    3ebc:	c7 04 24 a8 ef 02 00 	movl   $0x2efa8,(%esp)
    3ec3:	89 46 08             	mov    %eax,0x8(%esi)
    3ec6:	8b 45 10             	mov    0x10(%ebp),%eax
    3ec9:	89 46 0c             	mov    %eax,0xc(%esi)
    3ecc:	89 7e 04             	mov    %edi,0x4(%esi)
    3ecf:	e8 7c f7 00 00       	call   13650 <fibril_mutex_lock>
    3ed4:	a1 9c ef 02 00       	mov    0x2ef9c,%eax
    3ed9:	8b 0d a0 ef 02 00    	mov    0x2efa0,%ecx
    3edf:	89 06                	mov    %eax,(%esi)
    3ee1:	40                   	inc    %eax
    3ee2:	c7 46 14 a0 ef 02 00 	movl   $0x2efa0,0x14(%esi)
    3ee9:	a3 9c ef 02 00       	mov    %eax,0x2ef9c
    3eee:	8d 46 10             	lea    0x10(%esi),%eax
    3ef1:	89 41 04             	mov    %eax,0x4(%ecx)
    3ef4:	c7 04 24 a8 ef 02 00 	movl   $0x2efa8,(%esp)
    3efb:	89 4e 10             	mov    %ecx,0x10(%esi)
    3efe:	a3 a0 ef 02 00       	mov    %eax,0x2efa0
    3f03:	e8 68 f8 00 00       	call   13770 <fibril_mutex_unlock>
    3f08:	85 db                	test   %ebx,%ebx
    3f0a:	0f 84 80 00 00 00    	je     3f90 <register_interrupt_handler+0x110>
    3f10:	8b 06                	mov    (%esi),%eax
    3f12:	89 5c 24 0c          	mov    %ebx,0xc(%esp)
    3f16:	89 44 24 08          	mov    %eax,0x8(%esp)
    3f1a:	8b 07                	mov    (%edi),%eax
    3f1c:	89 44 24 04          	mov    %eax,0x4(%esp)
    3f20:	8b 45 0c             	mov    0xc(%ebp),%eax
    3f23:	89 04 24             	mov    %eax,(%esp)
    3f26:	e8 25 93 00 00       	call   d250 <irq_register>
    3f2b:	85 c0                	test   %eax,%eax
    3f2d:	75 09                	jne    3f38 <register_interrupt_handler+0xb8>
    3f2f:	83 c4 2c             	add    $0x2c,%esp
    3f32:	5b                   	pop    %ebx
    3f33:	5e                   	pop    %esi
    3f34:	5f                   	pop    %edi
    3f35:	5d                   	pop    %ebp
    3f36:	c3                   	ret    
    3f37:	90                   	nop
    3f38:	c7 04 24 a8 ef 02 00 	movl   $0x2efa8,(%esp)
    3f3f:	89 45 e4             	mov    %eax,-0x1c(%ebp)
    3f42:	e8 09 f7 00 00       	call   13650 <fibril_mutex_lock>
    3f47:	8b 5e 10             	mov    0x10(%esi),%ebx
    3f4a:	85 db                	test   %ebx,%ebx
    3f4c:	8b 45 e4             	mov    -0x1c(%ebp),%eax
    3f4f:	74 0f                	je     3f60 <register_interrupt_handler+0xe0>
    3f51:	8b 4e 14             	mov    0x14(%esi),%ecx
    3f54:	85 c9                	test   %ecx,%ecx
    3f56:	74 08                	je     3f60 <register_interrupt_handler+0xe0>
    3f58:	89 19                	mov    %ebx,(%ecx)
    3f5a:	8b 5e 10             	mov    0x10(%esi),%ebx
    3f5d:	89 4b 04             	mov    %ecx,0x4(%ebx)
    3f60:	c7 04 24 a8 ef 02 00 	movl   $0x2efa8,(%esp)
    3f67:	89 45 e4             	mov    %eax,-0x1c(%ebp)
    3f6a:	c7 46 10 00 00 00 00 	movl   $0x0,0x10(%esi)
    3f71:	c7 46 14 00 00 00 00 	movl   $0x0,0x14(%esi)
    3f78:	e8 f3 f7 00 00       	call   13770 <fibril_mutex_unlock>
    3f7d:	89 34 24             	mov    %esi,(%esp)
    3f80:	e8 eb 85 01 00       	call   1c570 <free>
    3f85:	8b 45 e4             	mov    -0x1c(%ebp),%eax
    3f88:	83 c4 2c             	add    $0x2c,%esp
    3f8b:	5b                   	pop    %ebx
    3f8c:	5e                   	pop    %esi
    3f8d:	5f                   	pop    %edi
    3f8e:	5d                   	pop    %ebp
    3f8f:	c3                   	ret    
    3f90:	bb bc ea 02 00       	mov    $0x2eabc,%ebx
    3f95:	e9 76 ff ff ff       	jmp    3f10 <register_interrupt_handler+0x90>
    3f9a:	8d b6 00 00 00 00    	lea    0x0(%esi),%esi

00003fa0 <unregister_interrupt_handler>:
    3fa0:	55                   	push   %ebp
    3fa1:	89 e5                	mov    %esp,%ebp
    3fa3:	57                   	push   %edi
    3fa4:	56                   	push   %esi
    3fa5:	53                   	push   %ebx
    3fa6:	83 ec 1c             	sub    $0x1c,%esp
    3fa9:	8b 7d 08             	mov    0x8(%ebp),%edi
    3fac:	8b 75 0c             	mov    0xc(%ebp),%esi
    3faf:	c7 04 24 a8 ef 02 00 	movl   $0x2efa8,(%esp)
    3fb6:	e8 95 f6 00 00       	call   13650 <fibril_mutex_lock>
    3fbb:	a1 a4 ef 02 00       	mov    0x2efa4,%eax
    3fc0:	3d a0 ef 02 00       	cmp    $0x2efa0,%eax
    3fc5:	75 13                	jne    3fda <unregister_interrupt_handler+0x3a>
    3fc7:	e9 8c 00 00 00       	jmp    4058 <unregister_interrupt_handler+0xb8>
    3fcc:	8d 74 26 00          	lea    0x0(%esi,%eiz,1),%esi
    3fd0:	8b 40 04             	mov    0x4(%eax),%eax
    3fd3:	3d a0 ef 02 00       	cmp    $0x2efa0,%eax
    3fd8:	74 7e                	je     4058 <unregister_interrupt_handler+0xb8>
    3fda:	8d 58 f0             	lea    -0x10(%eax),%ebx
    3fdd:	3b 73 08             	cmp    0x8(%ebx),%esi
    3fe0:	75 ee                	jne    3fd0 <unregister_interrupt_handler+0x30>
    3fe2:	3b 7b 04             	cmp    0x4(%ebx),%edi
    3fe5:	75 e9                	jne    3fd0 <unregister_interrupt_handler+0x30>
    3fe7:	c7 04 24 a8 ef 02 00 	movl   $0x2efa8,(%esp)
    3fee:	e8 7d f7 00 00       	call   13770 <fibril_mutex_unlock>
    3ff3:	8b 07                	mov    (%edi),%eax
    3ff5:	89 44 24 04          	mov    %eax,0x4(%esp)
    3ff9:	89 34 24             	mov    %esi,(%esp)
    3ffc:	e8 9f 92 00 00       	call   d2a0 <irq_unregister>
    4001:	c7 04 24 a8 ef 02 00 	movl   $0x2efa8,(%esp)
    4008:	89 c6                	mov    %eax,%esi
    400a:	e8 41 f6 00 00       	call   13650 <fibril_mutex_lock>
    400f:	8b 43 10             	mov    0x10(%ebx),%eax
    4012:	85 c0                	test   %eax,%eax
    4014:	74 0f                	je     4025 <unregister_interrupt_handler+0x85>
    4016:	8b 53 14             	mov    0x14(%ebx),%edx
    4019:	85 d2                	test   %edx,%edx
    401b:	74 08                	je     4025 <unregister_interrupt_handler+0x85>
    401d:	89 02                	mov    %eax,(%edx)
    401f:	8b 4b 10             	mov    0x10(%ebx),%ecx
    4022:	89 51 04             	mov    %edx,0x4(%ecx)
    4025:	c7 43 10 00 00 00 00 	movl   $0x0,0x10(%ebx)
    402c:	c7 43 14 00 00 00 00 	movl   $0x0,0x14(%ebx)
    4033:	c7 04 24 a8 ef 02 00 	movl   $0x2efa8,(%esp)
    403a:	e8 31 f7 00 00       	call   13770 <fibril_mutex_unlock>
    403f:	89 1c 24             	mov    %ebx,(%esp)
    4042:	e8 29 85 01 00       	call   1c570 <free>
    4047:	83 c4 1c             	add    $0x1c,%esp
    404a:	89 f0                	mov    %esi,%eax
    404c:	5b                   	pop    %ebx
    404d:	5e                   	pop    %esi
    404e:	5f                   	pop    %edi
    404f:	5d                   	pop    %ebp
    4050:	c3                   	ret    
    4051:	8d b4 26 00 00 00 00 	lea    0x0(%esi,%eiz,1),%esi
    4058:	c7 04 24 a8 ef 02 00 	movl   $0x2efa8,(%esp)
    405f:	e8 0c f7 00 00       	call   13770 <fibril_mutex_unlock>
    4064:	8b 07                	mov    (%edi),%eax
    4066:	89 45 0c             	mov    %eax,0xc(%ebp)
    4069:	89 75 08             	mov    %esi,0x8(%ebp)
    406c:	83 c4 1c             	add    $0x1c,%esp
    406f:	5b                   	pop    %ebx
    4070:	5e                   	pop    %esi
    4071:	5f                   	pop    %edi
    4072:	5d                   	pop    %ebp
    4073:	e9 28 92 00 00       	jmp    d2a0 <irq_unregister>
    4078:	66 90                	xchg   %ax,%ax
    407a:	66 90                	xchg   %ax,%ax
    407c:	66 90                	xchg   %ax,%ax
    407e:	66 90                	xchg   %ax,%ax

00004080 <remote_hw_res_enable_interrupt>:
    4080:	55                   	push   %ebp
    4081:	89 e5                	mov    %esp,%ebp
    4083:	53                   	push   %ebx
    4084:	83 ec 14             	sub    $0x14,%esp
    4087:	8b 45 0c             	mov    0xc(%ebp),%eax
    408a:	8b 55 08             	mov    0x8(%ebp),%edx
    408d:	8b 5d 10             	mov    0x10(%ebp),%ebx
    4090:	8b 40 04             	mov    0x4(%eax),%eax
    4093:	85 c0                	test   %eax,%eax
    4095:	74 39                	je     40d0 <remote_hw_res_enable_interrupt+0x50>
    4097:	89 14 24             	mov    %edx,(%esp)
    409a:	ff d0                	call   *%eax
    409c:	84 c0                	test   %al,%al
    409e:	75 18                	jne    40b8 <remote_hw_res_enable_interrupt+0x38>
    40a0:	89 5d 08             	mov    %ebx,0x8(%ebp)
    40a3:	c7 45 0c fc ff ff ff 	movl   $0xfffffffc,0xc(%ebp)
    40aa:	83 c4 14             	add    $0x14,%esp
    40ad:	5b                   	pop    %ebx
    40ae:	5d                   	pop    %ebp
    40af:	e9 5c b2 01 00       	jmp    1f310 <async_answer_0>
    40b4:	8d 74 26 00          	lea    0x0(%esi,%eiz,1),%esi
    40b8:	89 5d 08             	mov    %ebx,0x8(%ebp)
    40bb:	c7 45 0c 00 00 00 00 	movl   $0x0,0xc(%ebp)
    40c2:	83 c4 14             	add    $0x14,%esp
    40c5:	5b                   	pop    %ebx
    40c6:	5d                   	pop    %ebp
    40c7:	e9 44 b2 01 00       	jmp    1f310 <async_answer_0>
    40cc:	8d 74 26 00          	lea    0x0(%esi,%eiz,1),%esi
    40d0:	89 5d 08             	mov    %ebx,0x8(%ebp)
    40d3:	c7 45 0c f5 ff ff ff 	movl   $0xfffffff5,0xc(%ebp)
    40da:	83 c4 14             	add    $0x14,%esp
    40dd:	5b                   	pop    %ebx
    40de:	5d                   	pop    %ebp
    40df:	e9 2c b2 01 00       	jmp    1f310 <async_answer_0>
    40e4:	8d b6 00 00 00 00    	lea    0x0(%esi),%esi
    40ea:	8d bf 00 00 00 00    	lea    0x0(%edi),%edi

000040f0 <remote_hw_res_get_resource_list>:
    40f0:	55                   	push   %ebp
    40f1:	89 e5                	mov    %esp,%ebp
    40f3:	53                   	push   %ebx
    40f4:	83 ec 24             	sub    $0x24,%esp
    40f7:	8b 45 0c             	mov    0xc(%ebp),%eax
    40fa:	8b 00                	mov    (%eax),%eax
    40fc:	85 c0                	test   %eax,%eax
    40fe:	74 48                	je     4148 <remote_hw_res_get_resource_list+0x58>
    4100:	8b 55 08             	mov    0x8(%ebp),%edx
    4103:	89 14 24             	mov    %edx,(%esp)
    4106:	ff d0                	call   *%eax
    4108:	89 c3                	mov    %eax,%ebx
    410a:	85 c0                	test   %eax,%eax
    410c:	74 7a                	je     4188 <remote_hw_res_get_resource_list+0x98>
    410e:	8b 00                	mov    (%eax),%eax
    4110:	c7 44 24 04 00 00 00 	movl   $0x0,0x4(%esp)
    4117:	00 
    4118:	89 44 24 08          	mov    %eax,0x8(%esp)
    411c:	8b 45 10             	mov    0x10(%ebp),%eax
    411f:	89 04 24             	mov    %eax,(%esp)
    4122:	e8 29 b2 01 00       	call   1f350 <async_answer_1>
    4127:	8d 45 f4             	lea    -0xc(%ebp),%eax
    412a:	89 44 24 04          	mov    %eax,0x4(%esp)
    412e:	8d 45 10             	lea    0x10(%ebp),%eax
    4131:	89 04 24             	mov    %eax,(%esp)
    4134:	e8 47 c7 01 00       	call   20880 <async_data_read_receive>
    4139:	84 c0                	test   %al,%al
    413b:	75 2b                	jne    4168 <remote_hw_res_get_resource_list+0x78>
    413d:	83 c4 24             	add    $0x24,%esp
    4140:	5b                   	pop    %ebx
    4141:	5d                   	pop    %ebp
    4142:	c3                   	ret    
    4143:	90                   	nop
    4144:	8d 74 26 00          	lea    0x0(%esi,%eiz,1),%esi
    4148:	8b 45 10             	mov    0x10(%ebp),%eax
    414b:	c7 44 24 04 f5 ff ff 	movl   $0xfffffff5,0x4(%esp)
    4152:	ff 
    4153:	89 04 24             	mov    %eax,(%esp)
    4156:	e8 b5 b1 01 00       	call   1f310 <async_answer_0>
    415b:	83 c4 24             	add    $0x24,%esp
    415e:	5b                   	pop    %ebx
    415f:	5d                   	pop    %ebp
    4160:	c3                   	ret    
    4161:	8d b4 26 00 00 00 00 	lea    0x0(%esi,%eiz,1),%esi
    4168:	8b 45 f4             	mov    -0xc(%ebp),%eax
    416b:	89 44 24 08          	mov    %eax,0x8(%esp)
    416f:	8b 43 04             	mov    0x4(%ebx),%eax
    4172:	89 44 24 04          	mov    %eax,0x4(%esp)
    4176:	8b 45 10             	mov    0x10(%ebp),%eax
    4179:	89 04 24             	mov    %eax,(%esp)
    417c:	e8 5f c7 01 00       	call   208e0 <async_data_read_finalize>
    4181:	83 c4 24             	add    $0x24,%esp
    4184:	5b                   	pop    %ebx
    4185:	5d                   	pop    %ebp
    4186:	c3                   	ret    
    4187:	90                   	nop
    4188:	8b 45 10             	mov    0x10(%ebp),%eax
    418b:	c7 44 24 04 ff ff ff 	movl   $0xffffffff,0x4(%esp)
    4192:	ff 
    4193:	89 04 24             	mov    %eax,(%esp)
    4196:	e8 75 b1 01 00       	call   1f310 <async_answer_0>
    419b:	83 c4 24             	add    $0x24,%esp
    419e:	5b                   	pop    %ebx
    419f:	5d                   	pop    %ebp
    41a0:	c3                   	ret    
    41a1:	66 90                	xchg   %ax,%ax
    41a3:	66 90                	xchg   %ax,%ax
    41a5:	66 90                	xchg   %ax,%ax
    41a7:	66 90                	xchg   %ax,%ax
    41a9:	66 90                	xchg   %ax,%ax
    41ab:	66 90                	xchg   %ax,%ax
    41ad:	66 90                	xchg   %ax,%ax
    41af:	90                   	nop

000041b0 <remote_char_write>:
    41b0:	55                   	push   %ebp
    41b1:	89 e5                	mov    %esp,%ebp
    41b3:	56                   	push   %esi
    41b4:	53                   	push   %ebx
    41b5:	81 ec 20 01 00 00    	sub    $0x120,%esp
    41bb:	8d 85 f4 fe ff ff    	lea    -0x10c(%ebp),%eax
    41c1:	8b 5d 0c             	mov    0xc(%ebp),%ebx
    41c4:	89 44 24 04          	mov    %eax,0x4(%esp)
    41c8:	8d 85 f0 fe ff ff    	lea    -0x110(%ebp),%eax
    41ce:	89 04 24             	mov    %eax,(%esp)
    41d1:	e8 ca cb 01 00       	call   20da0 <async_data_write_receive>
    41d6:	84 c0                	test   %al,%al
    41d8:	0f 84 82 00 00 00    	je     4260 <remote_char_write+0xb0>
    41de:	8b 43 04             	mov    0x4(%ebx),%eax
    41e1:	85 c0                	test   %eax,%eax
    41e3:	0f 84 b7 00 00 00    	je     42a0 <remote_char_write+0xf0>
    41e9:	8b 85 f4 fe ff ff    	mov    -0x10c(%ebp),%eax
    41ef:	3d 00 01 00 00       	cmp    $0x100,%eax
    41f4:	76 0f                	jbe    4205 <remote_char_write+0x55>
    41f6:	c7 85 f4 fe ff ff 00 	movl   $0x100,-0x10c(%ebp)
    41fd:	01 00 00 
    4200:	b8 00 01 00 00       	mov    $0x100,%eax
    4205:	89 44 24 08          	mov    %eax,0x8(%esp)
    4209:	8d b5 f8 fe ff ff    	lea    -0x108(%ebp),%esi
    420f:	8b 85 f0 fe ff ff    	mov    -0x110(%ebp),%eax
    4215:	89 74 24 04          	mov    %esi,0x4(%esp)
    4219:	89 04 24             	mov    %eax,(%esp)
    421c:	e8 cf cb 01 00       	call   20df0 <async_data_write_finalize>
    4221:	8b 85 f4 fe ff ff    	mov    -0x10c(%ebp),%eax
    4227:	89 44 24 08          	mov    %eax,0x8(%esp)
    422b:	8b 45 08             	mov    0x8(%ebp),%eax
    422e:	89 74 24 04          	mov    %esi,0x4(%esp)
    4232:	89 04 24             	mov    %eax,(%esp)
    4235:	ff 53 04             	call   *0x4(%ebx)
    4238:	85 c0                	test   %eax,%eax
    423a:	78 44                	js     4280 <remote_char_write+0xd0>
    423c:	89 44 24 08          	mov    %eax,0x8(%esp)
    4240:	8b 45 10             	mov    0x10(%ebp),%eax
    4243:	c7 44 24 04 00 00 00 	movl   $0x0,0x4(%esp)
    424a:	00 
    424b:	89 04 24             	mov    %eax,(%esp)
    424e:	e8 fd b0 01 00       	call   1f350 <async_answer_1>
    4253:	81 c4 20 01 00 00    	add    $0x120,%esp
    4259:	5b                   	pop    %ebx
    425a:	5e                   	pop    %esi
    425b:	5d                   	pop    %ebp
    425c:	c3                   	ret    
    425d:	8d 76 00             	lea    0x0(%esi),%esi
    4260:	8b 45 10             	mov    0x10(%ebp),%eax
    4263:	c7 44 24 04 f2 ff ff 	movl   $0xfffffff2,0x4(%esp)
    426a:	ff 
    426b:	89 04 24             	mov    %eax,(%esp)
    426e:	e8 9d b0 01 00       	call   1f310 <async_answer_0>
    4273:	81 c4 20 01 00 00    	add    $0x120,%esp
    4279:	5b                   	pop    %ebx
    427a:	5e                   	pop    %esi
    427b:	5d                   	pop    %ebp
    427c:	c3                   	ret    
    427d:	8d 76 00             	lea    0x0(%esi),%esi
    4280:	89 44 24 04          	mov    %eax,0x4(%esp)
    4284:	8b 45 10             	mov    0x10(%ebp),%eax
    4287:	89 04 24             	mov    %eax,(%esp)
    428a:	e8 81 b0 01 00       	call   1f310 <async_answer_0>
    428f:	81 c4 20 01 00 00    	add    $0x120,%esp
    4295:	5b                   	pop    %ebx
    4296:	5e                   	pop    %esi
    4297:	5d                   	pop    %ebp
    4298:	c3                   	ret    
    4299:	8d b4 26 00 00 00 00 	lea    0x0(%esi,%eiz,1),%esi
    42a0:	8b 85 f0 fe ff ff    	mov    -0x110(%ebp),%eax
    42a6:	c7 44 24 08 00 00 00 	movl   $0x0,0x8(%esp)
    42ad:	00 
    42ae:	c7 44 24 04 00 00 00 	movl   $0x0,0x4(%esp)
    42b5:	00 
    42b6:	89 04 24             	mov    %eax,(%esp)
    42b9:	e8 32 cb 01 00       	call   20df0 <async_data_write_finalize>
    42be:	8b 45 10             	mov    0x10(%ebp),%eax
    42c1:	c7 44 24 04 f5 ff ff 	movl   $0xfffffff5,0x4(%esp)
    42c8:	ff 
    42c9:	89 04 24             	mov    %eax,(%esp)
    42cc:	e8 3f b0 01 00       	call   1f310 <async_answer_0>
    42d1:	e9 7d ff ff ff       	jmp    4253 <remote_char_write+0xa3>
    42d6:	8d 76 00             	lea    0x0(%esi),%esi
    42d9:	8d bc 27 00 00 00 00 	lea    0x0(%edi,%eiz,1),%edi

000042e0 <remote_char_read>:
    42e0:	55                   	push   %ebp
    42e1:	89 e5                	mov    %esp,%ebp
    42e3:	56                   	push   %esi
    42e4:	53                   	push   %ebx
    42e5:	81 ec 20 01 00 00    	sub    $0x120,%esp
    42eb:	8d 85 f4 fe ff ff    	lea    -0x10c(%ebp),%eax
    42f1:	89 44 24 04          	mov    %eax,0x4(%esp)
    42f5:	8d 85 f0 fe ff ff    	lea    -0x110(%ebp),%eax
    42fb:	89 04 24             	mov    %eax,(%esp)
    42fe:	e8 7d c5 01 00       	call   20880 <async_data_read_receive>
    4303:	84 c0                	test   %al,%al
    4305:	0f 84 b5 00 00 00    	je     43c0 <remote_char_read+0xe0>
    430b:	8b 45 0c             	mov    0xc(%ebp),%eax
    430e:	8b 10                	mov    (%eax),%edx
    4310:	85 d2                	test   %edx,%edx
    4312:	0f 84 c8 00 00 00    	je     43e0 <remote_char_read+0x100>
    4318:	8b 85 f4 fe ff ff    	mov    -0x10c(%ebp),%eax
    431e:	3d 00 01 00 00       	cmp    $0x100,%eax
    4323:	76 0f                	jbe    4334 <remote_char_read+0x54>
    4325:	c7 85 f4 fe ff ff 00 	movl   $0x100,-0x10c(%ebp)
    432c:	01 00 00 
    432f:	b8 00 01 00 00       	mov    $0x100,%eax
    4334:	89 44 24 08          	mov    %eax,0x8(%esp)
    4338:	8d b5 f8 fe ff ff    	lea    -0x108(%ebp),%esi
    433e:	8b 45 08             	mov    0x8(%ebp),%eax
    4341:	89 74 24 04          	mov    %esi,0x4(%esp)
    4345:	89 04 24             	mov    %eax,(%esp)
    4348:	ff d2                	call   *%edx
    434a:	89 c3                	mov    %eax,%ebx
    434c:	85 c0                	test   %eax,%eax
    434e:	78 38                	js     4388 <remote_char_read+0xa8>
    4350:	89 44 24 08          	mov    %eax,0x8(%esp)
    4354:	8b 85 f0 fe ff ff    	mov    -0x110(%ebp),%eax
    435a:	89 74 24 04          	mov    %esi,0x4(%esp)
    435e:	89 04 24             	mov    %eax,(%esp)
    4361:	e8 7a c5 01 00       	call   208e0 <async_data_read_finalize>
    4366:	8b 45 10             	mov    0x10(%ebp),%eax
    4369:	89 5c 24 08          	mov    %ebx,0x8(%esp)
    436d:	c7 44 24 04 00 00 00 	movl   $0x0,0x4(%esp)
    4374:	00 
    4375:	89 04 24             	mov    %eax,(%esp)
    4378:	e8 d3 af 01 00       	call   1f350 <async_answer_1>
    437d:	81 c4 20 01 00 00    	add    $0x120,%esp
    4383:	5b                   	pop    %ebx
    4384:	5e                   	pop    %esi
    4385:	5d                   	pop    %ebp
    4386:	c3                   	ret    
    4387:	90                   	nop
    4388:	8b 85 f0 fe ff ff    	mov    -0x110(%ebp),%eax
    438e:	89 74 24 04          	mov    %esi,0x4(%esp)
    4392:	c7 44 24 08 00 00 00 	movl   $0x0,0x8(%esp)
    4399:	00 
    439a:	89 04 24             	mov    %eax,(%esp)
    439d:	e8 3e c5 01 00       	call   208e0 <async_data_read_finalize>
    43a2:	8b 45 10             	mov    0x10(%ebp),%eax
    43a5:	89 5c 24 04          	mov    %ebx,0x4(%esp)
    43a9:	89 04 24             	mov    %eax,(%esp)
    43ac:	e8 5f af 01 00       	call   1f310 <async_answer_0>
    43b1:	81 c4 20 01 00 00    	add    $0x120,%esp
    43b7:	5b                   	pop    %ebx
    43b8:	5e                   	pop    %esi
    43b9:	5d                   	pop    %ebp
    43ba:	c3                   	ret    
    43bb:	90                   	nop
    43bc:	8d 74 26 00          	lea    0x0(%esi,%eiz,1),%esi
    43c0:	8b 45 10             	mov    0x10(%ebp),%eax
    43c3:	c7 44 24 04 f2 ff ff 	movl   $0xfffffff2,0x4(%esp)
    43ca:	ff 
    43cb:	89 04 24             	mov    %eax,(%esp)
    43ce:	e8 3d af 01 00       	call   1f310 <async_answer_0>
    43d3:	81 c4 20 01 00 00    	add    $0x120,%esp
    43d9:	5b                   	pop    %ebx
    43da:	5e                   	pop    %esi
    43db:	5d                   	pop    %ebp
    43dc:	c3                   	ret    
    43dd:	8d 76 00             	lea    0x0(%esi),%esi
    43e0:	8b 85 f0 fe ff ff    	mov    -0x110(%ebp),%eax
    43e6:	c7 44 24 08 00 00 00 	movl   $0x0,0x8(%esp)
    43ed:	00 
    43ee:	c7 44 24 04 00 00 00 	movl   $0x0,0x4(%esp)
    43f5:	00 
    43f6:	89 04 24             	mov    %eax,(%esp)
    43f9:	e8 e2 c4 01 00       	call   208e0 <async_data_read_finalize>
    43fe:	8b 45 10             	mov    0x10(%ebp),%eax
    4401:	c7 44 24 04 f5 ff ff 	movl   $0xfffffff5,0x4(%esp)
    4408:	ff 
    4409:	89 04 24             	mov    %eax,(%esp)
    440c:	e8 ff ae 01 00       	call   1f310 <async_answer_0>
    4411:	e9 67 ff ff ff       	jmp    437d <remote_char_read+0x9d>
    4416:	66 90                	xchg   %ax,%ax
    4418:	66 90                	xchg   %ax,%ax
    441a:	66 90                	xchg   %ax,%ax
    441c:	66 90                	xchg   %ax,%ax
    441e:	66 90                	xchg   %ax,%ax

00004420 <remote_graph_connect>:
    4420:	55                   	push   %ebp
    4421:	89 e5                	mov    %esp,%ebp
    4423:	57                   	push   %edi
    4424:	56                   	push   %esi
    4425:	53                   	push   %ebx
    4426:	83 ec 2c             	sub    $0x2c,%esp
    4429:	8b 5d 0c             	mov    0xc(%ebp),%ebx
    442c:	8b 55 14             	mov    0x14(%ebp),%edx
    442f:	8b 7d 08             	mov    0x8(%ebp),%edi
    4432:	8b 75 10             	mov    0x10(%ebp),%esi
    4435:	8b 03                	mov    (%ebx),%eax
    4437:	89 55 e4             	mov    %edx,-0x1c(%ebp)
    443a:	85 c0                	test   %eax,%eax
    443c:	74 3a                	je     4478 <remote_graph_connect+0x58>
    443e:	89 3c 24             	mov    %edi,(%esp)
    4441:	e8 4a f3 ff ff       	call   3790 <ddf_fun_data_get>
    4446:	85 c0                	test   %eax,%eax
    4448:	74 2e                	je     4478 <remote_graph_connect+0x58>
    444a:	8b 1b                	mov    (%ebx),%ebx
    444c:	89 3c 24             	mov    %edi,(%esp)
    444f:	e8 3c f3 ff ff       	call   3790 <ddf_fun_data_get>
    4454:	8b 55 e4             	mov    -0x1c(%ebp),%edx
    4457:	89 75 0c             	mov    %esi,0xc(%ebp)
    445a:	89 45 08             	mov    %eax,0x8(%ebp)
    445d:	c7 45 14 00 00 00 00 	movl   $0x0,0x14(%ebp)
    4464:	89 55 10             	mov    %edx,0x10(%ebp)
    4467:	83 c4 2c             	add    $0x2c,%esp
    446a:	89 d8                	mov    %ebx,%eax
    446c:	5b                   	pop    %ebx
    446d:	5e                   	pop    %esi
    446e:	5f                   	pop    %edi
    446f:	5d                   	pop    %ebp
    4470:	ff e0                	jmp    *%eax
    4472:	8d b6 00 00 00 00    	lea    0x0(%esi),%esi
    4478:	89 75 08             	mov    %esi,0x8(%ebp)
    447b:	c7 45 0c f5 ff ff ff 	movl   $0xfffffff5,0xc(%ebp)
    4482:	83 c4 2c             	add    $0x2c,%esp
    4485:	5b                   	pop    %ebx
    4486:	5e                   	pop    %esi
    4487:	5f                   	pop    %edi
    4488:	5d                   	pop    %ebp
    4489:	e9 82 ae 01 00       	jmp    1f310 <async_answer_0>
    448e:	66 90                	xchg   %ax,%ax

00004490 <remote_nic_poll_now>:
    4490:	55                   	push   %ebp
    4491:	89 e5                	mov    %esp,%ebp
    4493:	53                   	push   %ebx
    4494:	83 ec 14             	sub    $0x14,%esp
    4497:	8b 45 0c             	mov    0xc(%ebp),%eax
    449a:	8b 55 08             	mov    0x8(%ebp),%edx
    449d:	8b 5d 10             	mov    0x10(%ebp),%ebx
    44a0:	8b 80 a0 00 00 00    	mov    0xa0(%eax),%eax
    44a6:	85 c0                	test   %eax,%eax
    44a8:	74 16                	je     44c0 <remote_nic_poll_now+0x30>
    44aa:	89 14 24             	mov    %edx,(%esp)
    44ad:	ff d0                	call   *%eax
    44af:	89 5d 08             	mov    %ebx,0x8(%ebp)
    44b2:	89 45 0c             	mov    %eax,0xc(%ebp)
    44b5:	83 c4 14             	add    $0x14,%esp
    44b8:	5b                   	pop    %ebx
    44b9:	5d                   	pop    %ebp
    44ba:	e9 51 ae 01 00       	jmp    1f310 <async_answer_0>
    44bf:	90                   	nop
    44c0:	89 5d 08             	mov    %ebx,0x8(%ebp)
    44c3:	c7 45 0c f5 ff ff ff 	movl   $0xfffffff5,0xc(%ebp)
    44ca:	83 c4 14             	add    $0x14,%esp
    44cd:	5b                   	pop    %ebx
    44ce:	5d                   	pop    %ebp
    44cf:	e9 3c ae 01 00       	jmp    1f310 <async_answer_0>
    44d4:	8d b6 00 00 00 00    	lea    0x0(%esi),%esi
    44da:	8d bf 00 00 00 00    	lea    0x0(%edi),%edi

000044e0 <remote_nic_offload_set>:
    44e0:	55                   	push   %ebp
    44e1:	89 e5                	mov    %esp,%ebp
    44e3:	56                   	push   %esi
    44e4:	53                   	push   %ebx
    44e5:	83 ec 10             	sub    $0x10,%esp
    44e8:	8b 45 0c             	mov    0xc(%ebp),%eax
    44eb:	8b 4d 08             	mov    0x8(%ebp),%ecx
    44ee:	8b 5d 10             	mov    0x10(%ebp),%ebx
    44f1:	8b 55 14             	mov    0x14(%ebp),%edx
    44f4:	8b 80 94 00 00 00    	mov    0x94(%eax),%eax
    44fa:	85 c0                	test   %eax,%eax
    44fc:	74 2a                	je     4528 <remote_nic_offload_set+0x48>
    44fe:	8b 72 0c             	mov    0xc(%edx),%esi
    4501:	89 74 24 08          	mov    %esi,0x8(%esp)
    4505:	8b 52 08             	mov    0x8(%edx),%edx
    4508:	89 0c 24             	mov    %ecx,(%esp)
    450b:	89 54 24 04          	mov    %edx,0x4(%esp)
    450f:	ff d0                	call   *%eax
    4511:	89 5d 08             	mov    %ebx,0x8(%ebp)
    4514:	89 45 0c             	mov    %eax,0xc(%ebp)
    4517:	83 c4 10             	add    $0x10,%esp
    451a:	5b                   	pop    %ebx
    451b:	5e                   	pop    %esi
    451c:	5d                   	pop    %ebp
    451d:	e9 ee ad 01 00       	jmp    1f310 <async_answer_0>
    4522:	8d b6 00 00 00 00    	lea    0x0(%esi),%esi
    4528:	89 5d 08             	mov    %ebx,0x8(%ebp)
    452b:	c7 45 0c f5 ff ff ff 	movl   $0xfffffff5,0xc(%ebp)
    4532:	83 c4 10             	add    $0x10,%esp
    4535:	5b                   	pop    %ebx
    4536:	5e                   	pop    %esi
    4537:	5d                   	pop    %ebp
    4538:	e9 d3 ad 01 00       	jmp    1f310 <async_answer_0>
    453d:	8d 76 00             	lea    0x0(%esi),%esi

00004540 <remote_nic_wol_virtue_remove>:
    4540:	55                   	push   %ebp
    4541:	89 e5                	mov    %esp,%ebp
    4543:	53                   	push   %ebx
    4544:	83 ec 14             	sub    $0x14,%esp
    4547:	8b 45 0c             	mov    0xc(%ebp),%eax
    454a:	8b 55 08             	mov    0x8(%ebp),%edx
    454d:	8b 5d 10             	mov    0x10(%ebp),%ebx
    4550:	8b 4d 14             	mov    0x14(%ebp),%ecx
    4553:	8b 40 7c             	mov    0x7c(%eax),%eax
    4556:	85 c0                	test   %eax,%eax
    4558:	74 1e                	je     4578 <remote_nic_wol_virtue_remove+0x38>
    455a:	8b 49 08             	mov    0x8(%ecx),%ecx
    455d:	89 14 24             	mov    %edx,(%esp)
    4560:	89 4c 24 04          	mov    %ecx,0x4(%esp)
    4564:	ff d0                	call   *%eax
    4566:	89 5d 08             	mov    %ebx,0x8(%ebp)
    4569:	89 45 0c             	mov    %eax,0xc(%ebp)
    456c:	83 c4 14             	add    $0x14,%esp
    456f:	5b                   	pop    %ebx
    4570:	5d                   	pop    %ebp
    4571:	e9 9a ad 01 00       	jmp    1f310 <async_answer_0>
    4576:	66 90                	xchg   %ax,%ax
    4578:	89 5d 08             	mov    %ebx,0x8(%ebp)
    457b:	c7 45 0c f5 ff ff ff 	movl   $0xfffffff5,0xc(%ebp)
    4582:	83 c4 14             	add    $0x14,%esp
    4585:	5b                   	pop    %ebx
    4586:	5d                   	pop    %ebp
    4587:	e9 84 ad 01 00       	jmp    1f310 <async_answer_0>
    458c:	8d 74 26 00          	lea    0x0(%esi,%eiz,1),%esi

00004590 <remote_nic_vlan_set_tag>:
    4590:	55                   	push   %ebp
    4591:	89 e5                	mov    %esp,%ebp
    4593:	57                   	push   %edi
    4594:	56                   	push   %esi
    4595:	53                   	push   %ebx
    4596:	83 ec 1c             	sub    $0x1c,%esp
    4599:	8b 55 0c             	mov    0xc(%ebp),%edx
    459c:	8b 7d 08             	mov    0x8(%ebp),%edi
    459f:	8b 5d 10             	mov    0x10(%ebp),%ebx
    45a2:	8b 45 14             	mov    0x14(%ebp),%eax
    45a5:	8b 52 74             	mov    0x74(%edx),%edx
    45a8:	85 d2                	test   %edx,%edx
    45aa:	74 4c                	je     45f8 <remote_nic_vlan_set_tag+0x68>
    45ac:	8b 48 10             	mov    0x10(%eax),%ecx
    45af:	85 c9                	test   %ecx,%ecx
    45b1:	0f 95 c1             	setne  %cl
    45b4:	81 e1 ff 00 00 00    	and    $0xff,%ecx
    45ba:	89 4c 24 0c          	mov    %ecx,0xc(%esp)
    45be:	8b 70 0c             	mov    0xc(%eax),%esi
    45c1:	85 f6                	test   %esi,%esi
    45c3:	0f 95 c1             	setne  %cl
    45c6:	81 e1 ff 00 00 00    	and    $0xff,%ecx
    45cc:	89 4c 24 08          	mov    %ecx,0x8(%esp)
    45d0:	8b 40 08             	mov    0x8(%eax),%eax
    45d3:	89 3c 24             	mov    %edi,(%esp)
    45d6:	25 ff ff 00 00       	and    $0xffff,%eax
    45db:	89 44 24 04          	mov    %eax,0x4(%esp)
    45df:	ff d2                	call   *%edx
    45e1:	89 5d 08             	mov    %ebx,0x8(%ebp)
    45e4:	89 45 0c             	mov    %eax,0xc(%ebp)
    45e7:	83 c4 1c             	add    $0x1c,%esp
    45ea:	5b                   	pop    %ebx
    45eb:	5e                   	pop    %esi
    45ec:	5f                   	pop    %edi
    45ed:	5d                   	pop    %ebp
    45ee:	e9 1d ad 01 00       	jmp    1f310 <async_answer_0>
    45f3:	90                   	nop
    45f4:	8d 74 26 00          	lea    0x0(%esi,%eiz,1),%esi
    45f8:	89 5d 08             	mov    %ebx,0x8(%ebp)
    45fb:	c7 45 0c f5 ff ff ff 	movl   $0xfffffff5,0xc(%ebp)
    4602:	83 c4 1c             	add    $0x1c,%esp
    4605:	5b                   	pop    %ebx
    4606:	5e                   	pop    %esi
    4607:	5f                   	pop    %edi
    4608:	5d                   	pop    %ebp
    4609:	e9 02 ad 01 00       	jmp    1f310 <async_answer_0>
    460e:	66 90                	xchg   %ax,%ax

00004610 <remote_nic_defective_set_mode>:
    4610:	55                   	push   %ebp
    4611:	89 e5                	mov    %esp,%ebp
    4613:	53                   	push   %ebx
    4614:	83 ec 14             	sub    $0x14,%esp
    4617:	8b 45 0c             	mov    0xc(%ebp),%eax
    461a:	8b 55 08             	mov    0x8(%ebp),%edx
    461d:	8b 5d 10             	mov    0x10(%ebp),%ebx
    4620:	8b 4d 14             	mov    0x14(%ebp),%ecx
    4623:	8b 40 60             	mov    0x60(%eax),%eax
    4626:	85 c0                	test   %eax,%eax
    4628:	74 1e                	je     4648 <remote_nic_defective_set_mode+0x38>
    462a:	8b 49 08             	mov    0x8(%ecx),%ecx
    462d:	89 14 24             	mov    %edx,(%esp)
    4630:	89 4c 24 04          	mov    %ecx,0x4(%esp)
    4634:	ff d0                	call   *%eax
    4636:	89 5d 08             	mov    %ebx,0x8(%ebp)
    4639:	89 45 0c             	mov    %eax,0xc(%ebp)
    463c:	83 c4 14             	add    $0x14,%esp
    463f:	5b                   	pop    %ebx
    4640:	5d                   	pop    %ebp
    4641:	e9 ca ac 01 00       	jmp    1f310 <async_answer_0>
    4646:	66 90                	xchg   %ax,%ax
    4648:	89 5d 08             	mov    %ebx,0x8(%ebp)
    464b:	c7 45 0c f5 ff ff ff 	movl   $0xfffffff5,0xc(%ebp)
    4652:	83 c4 14             	add    $0x14,%esp
    4655:	5b                   	pop    %ebx
    4656:	5d                   	pop    %ebp
    4657:	e9 b4 ac 01 00       	jmp    1f310 <async_answer_0>
    465c:	8d 74 26 00          	lea    0x0(%esi,%eiz,1),%esi

00004660 <remote_nic_broadcast_set_mode>:
    4660:	55                   	push   %ebp
    4661:	89 e5                	mov    %esp,%ebp
    4663:	53                   	push   %ebx
    4664:	83 ec 14             	sub    $0x14,%esp
    4667:	8b 45 0c             	mov    0xc(%ebp),%eax
    466a:	8b 55 08             	mov    0x8(%ebp),%edx
    466d:	8b 5d 10             	mov    0x10(%ebp),%ebx
    4670:	8b 4d 14             	mov    0x14(%ebp),%ecx
    4673:	8b 40 58             	mov    0x58(%eax),%eax
    4676:	85 c0                	test   %eax,%eax
    4678:	74 1e                	je     4698 <remote_nic_broadcast_set_mode+0x38>
    467a:	8b 49 08             	mov    0x8(%ecx),%ecx
    467d:	89 14 24             	mov    %edx,(%esp)
    4680:	89 4c 24 04          	mov    %ecx,0x4(%esp)
    4684:	ff d0                	call   *%eax
    4686:	89 5d 08             	mov    %ebx,0x8(%ebp)
    4689:	89 45 0c             	mov    %eax,0xc(%ebp)
    468c:	83 c4 14             	add    $0x14,%esp
    468f:	5b                   	pop    %ebx
    4690:	5d                   	pop    %ebp
    4691:	e9 7a ac 01 00       	jmp    1f310 <async_answer_0>
    4696:	66 90                	xchg   %ax,%ax
    4698:	89 5d 08             	mov    %ebx,0x8(%ebp)
    469b:	c7 45 0c f5 ff ff ff 	movl   $0xfffffff5,0xc(%ebp)
    46a2:	83 c4 14             	add    $0x14,%esp
    46a5:	5b                   	pop    %ebx
    46a6:	5d                   	pop    %ebp
    46a7:	e9 64 ac 01 00       	jmp    1f310 <async_answer_0>
    46ac:	8d 74 26 00          	lea    0x0(%esi,%eiz,1),%esi

000046b0 <remote_nic_set_pause>:
    46b0:	55                   	push   %ebp
    46b1:	89 e5                	mov    %esp,%ebp
    46b3:	56                   	push   %esi
    46b4:	53                   	push   %ebx
    46b5:	83 ec 10             	sub    $0x10,%esp
    46b8:	8b 55 0c             	mov    0xc(%ebp),%edx
    46bb:	8b 4d 08             	mov    0x8(%ebp),%ecx
    46be:	8b 5d 10             	mov    0x10(%ebp),%ebx
    46c1:	8b 45 14             	mov    0x14(%ebp),%eax
    46c4:	8b 52 40             	mov    0x40(%edx),%edx
    46c7:	85 d2                	test   %edx,%edx
    46c9:	74 2d                	je     46f8 <remote_nic_set_pause+0x48>
    46cb:	0f b7 70 10          	movzwl 0x10(%eax),%esi
    46cf:	89 74 24 0c          	mov    %esi,0xc(%esp)
    46d3:	8b 70 0c             	mov    0xc(%eax),%esi
    46d6:	89 74 24 08          	mov    %esi,0x8(%esp)
    46da:	8b 40 08             	mov    0x8(%eax),%eax
    46dd:	89 0c 24             	mov    %ecx,(%esp)
    46e0:	89 44 24 04          	mov    %eax,0x4(%esp)
    46e4:	ff d2                	call   *%edx
    46e6:	89 5d 08             	mov    %ebx,0x8(%ebp)
    46e9:	89 45 0c             	mov    %eax,0xc(%ebp)
    46ec:	83 c4 10             	add    $0x10,%esp
    46ef:	5b                   	pop    %ebx
    46f0:	5e                   	pop    %esi
    46f1:	5d                   	pop    %ebp
    46f2:	e9 19 ac 01 00       	jmp    1f310 <async_answer_0>
    46f7:	90                   	nop
    46f8:	89 5d 08             	mov    %ebx,0x8(%ebp)
    46fb:	c7 45 0c f5 ff ff ff 	movl   $0xfffffff5,0xc(%ebp)
    4702:	83 c4 10             	add    $0x10,%esp
    4705:	5b                   	pop    %ebx
    4706:	5e                   	pop    %esi
    4707:	5d                   	pop    %ebp
    4708:	e9 03 ac 01 00       	jmp    1f310 <async_answer_0>
    470d:	8d 76 00             	lea    0x0(%esi),%esi

00004710 <remote_nic_autoneg_restart>:
    4710:	55                   	push   %ebp
    4711:	89 e5                	mov    %esp,%ebp
    4713:	53                   	push   %ebx
    4714:	83 ec 14             	sub    $0x14,%esp
    4717:	8b 45 0c             	mov    0xc(%ebp),%eax
    471a:	8b 55 08             	mov    0x8(%ebp),%edx
    471d:	8b 5d 10             	mov    0x10(%ebp),%ebx
    4720:	8b 40 38             	mov    0x38(%eax),%eax
    4723:	85 c0                	test   %eax,%eax
    4725:	74 19                	je     4740 <remote_nic_autoneg_restart+0x30>
    4727:	89 14 24             	mov    %edx,(%esp)
    472a:	ff d0                	call   *%eax
    472c:	89 5d 08             	mov    %ebx,0x8(%ebp)
    472f:	89 45 0c             	mov    %eax,0xc(%ebp)
    4732:	83 c4 14             	add    $0x14,%esp
    4735:	5b                   	pop    %ebx
    4736:	5d                   	pop    %ebp
    4737:	e9 d4 ab 01 00       	jmp    1f310 <async_answer_0>
    473c:	8d 74 26 00          	lea    0x0(%esi,%eiz,1),%esi
    4740:	89 5d 08             	mov    %ebx,0x8(%ebp)
    4743:	c7 45 0c f5 ff ff ff 	movl   $0xfffffff5,0xc(%ebp)
    474a:	83 c4 14             	add    $0x14,%esp
    474d:	5b                   	pop    %ebx
    474e:	5d                   	pop    %ebp
    474f:	e9 bc ab 01 00       	jmp    1f310 <async_answer_0>
    4754:	8d b6 00 00 00 00    	lea    0x0(%esi),%esi
    475a:	8d bf 00 00 00 00    	lea    0x0(%edi),%edi

00004760 <remote_nic_autoneg_disable>:
    4760:	55                   	push   %ebp
    4761:	89 e5                	mov    %esp,%ebp
    4763:	53                   	push   %ebx
    4764:	83 ec 14             	sub    $0x14,%esp
    4767:	8b 45 0c             	mov    0xc(%ebp),%eax
    476a:	8b 55 08             	mov    0x8(%ebp),%edx
    476d:	8b 5d 10             	mov    0x10(%ebp),%ebx
    4770:	8b 40 30             	mov    0x30(%eax),%eax
    4773:	85 c0                	test   %eax,%eax
    4775:	74 19                	je     4790 <remote_nic_autoneg_disable+0x30>
    4777:	89 14 24             	mov    %edx,(%esp)
    477a:	ff d0                	call   *%eax
    477c:	89 5d 08             	mov    %ebx,0x8(%ebp)
    477f:	89 45 0c             	mov    %eax,0xc(%ebp)
    4782:	83 c4 14             	add    $0x14,%esp
    4785:	5b                   	pop    %ebx
    4786:	5d                   	pop    %ebp
    4787:	e9 84 ab 01 00       	jmp    1f310 <async_answer_0>
    478c:	8d 74 26 00          	lea    0x0(%esi,%eiz,1),%esi
    4790:	89 5d 08             	mov    %ebx,0x8(%ebp)
    4793:	c7 45 0c f5 ff ff ff 	movl   $0xfffffff5,0xc(%ebp)
    479a:	83 c4 14             	add    $0x14,%esp
    479d:	5b                   	pop    %ebx
    479e:	5d                   	pop    %ebp
    479f:	e9 6c ab 01 00       	jmp    1f310 <async_answer_0>
    47a4:	8d b6 00 00 00 00    	lea    0x0(%esi),%esi
    47aa:	8d bf 00 00 00 00    	lea    0x0(%edi),%edi

000047b0 <remote_nic_autoneg_enable>:
    47b0:	55                   	push   %ebp
    47b1:	89 e5                	mov    %esp,%ebp
    47b3:	53                   	push   %ebx
    47b4:	83 ec 14             	sub    $0x14,%esp
    47b7:	8b 45 0c             	mov    0xc(%ebp),%eax
    47ba:	8b 55 08             	mov    0x8(%ebp),%edx
    47bd:	8b 5d 10             	mov    0x10(%ebp),%ebx
    47c0:	8b 4d 14             	mov    0x14(%ebp),%ecx
    47c3:	8b 40 2c             	mov    0x2c(%eax),%eax
    47c6:	85 c0                	test   %eax,%eax
    47c8:	74 1e                	je     47e8 <remote_nic_autoneg_enable+0x38>
    47ca:	8b 49 08             	mov    0x8(%ecx),%ecx
    47cd:	89 14 24             	mov    %edx,(%esp)
    47d0:	89 4c 24 04          	mov    %ecx,0x4(%esp)
    47d4:	ff d0                	call   *%eax
    47d6:	89 5d 08             	mov    %ebx,0x8(%ebp)
    47d9:	89 45 0c             	mov    %eax,0xc(%ebp)
    47dc:	83 c4 14             	add    $0x14,%esp
    47df:	5b                   	pop    %ebx
    47e0:	5d                   	pop    %ebp
    47e1:	e9 2a ab 01 00       	jmp    1f310 <async_answer_0>
    47e6:	66 90                	xchg   %ax,%ax
    47e8:	89 5d 08             	mov    %ebx,0x8(%ebp)
    47eb:	c7 45 0c f5 ff ff ff 	movl   $0xfffffff5,0xc(%ebp)
    47f2:	83 c4 14             	add    $0x14,%esp
    47f5:	5b                   	pop    %ebx
    47f6:	5d                   	pop    %ebp
    47f7:	e9 14 ab 01 00       	jmp    1f310 <async_answer_0>
    47fc:	8d 74 26 00          	lea    0x0(%esi,%eiz,1),%esi

00004800 <remote_nic_set_operation_mode>:
    4800:	55                   	push   %ebp
    4801:	89 e5                	mov    %esp,%ebp
    4803:	56                   	push   %esi
    4804:	53                   	push   %ebx
    4805:	83 ec 10             	sub    $0x10,%esp
    4808:	8b 55 0c             	mov    0xc(%ebp),%edx
    480b:	8b 4d 08             	mov    0x8(%ebp),%ecx
    480e:	8b 5d 10             	mov    0x10(%ebp),%ebx
    4811:	8b 45 14             	mov    0x14(%ebp),%eax
    4814:	8b 52 28             	mov    0x28(%edx),%edx
    4817:	85 d2                	test   %edx,%edx
    4819:	74 2d                	je     4848 <remote_nic_set_operation_mode+0x48>
    481b:	8b 70 10             	mov    0x10(%eax),%esi
    481e:	89 74 24 0c          	mov    %esi,0xc(%esp)
    4822:	8b 70 0c             	mov    0xc(%eax),%esi
    4825:	89 74 24 08          	mov    %esi,0x8(%esp)
    4829:	8b 40 08             	mov    0x8(%eax),%eax
    482c:	89 0c 24             	mov    %ecx,(%esp)
    482f:	89 44 24 04          	mov    %eax,0x4(%esp)
    4833:	ff d2                	call   *%edx
    4835:	89 5d 08             	mov    %ebx,0x8(%ebp)
    4838:	89 45 0c             	mov    %eax,0xc(%ebp)
    483b:	83 c4 10             	add    $0x10,%esp
    483e:	5b                   	pop    %ebx
    483f:	5e                   	pop    %esi
    4840:	5d                   	pop    %ebp
    4841:	e9 ca aa 01 00       	jmp    1f310 <async_answer_0>
    4846:	66 90                	xchg   %ax,%ax
    4848:	89 5d 08             	mov    %ebx,0x8(%ebp)
    484b:	c7 45 0c f5 ff ff ff 	movl   $0xfffffff5,0xc(%ebp)
    4852:	83 c4 10             	add    $0x10,%esp
    4855:	5b                   	pop    %ebx
    4856:	5e                   	pop    %esi
    4857:	5d                   	pop    %ebp
    4858:	e9 b3 aa 01 00       	jmp    1f310 <async_answer_0>
    485d:	8d 76 00             	lea    0x0(%esi),%esi

00004860 <remote_nic_poll_set_mode>:
    4860:	55                   	push   %ebp
    4861:	31 d2                	xor    %edx,%edx
    4863:	89 e5                	mov    %esp,%ebp
    4865:	56                   	push   %esi
    4866:	53                   	push   %ebx
    4867:	83 ec 20             	sub    $0x20,%esp
    486a:	8b 45 14             	mov    0x14(%ebp),%eax
    486d:	8b 58 08             	mov    0x8(%eax),%ebx
    4870:	8b 40 0c             	mov    0xc(%eax),%eax
    4873:	85 c0                	test   %eax,%eax
    4875:	75 39                	jne    48b0 <remote_nic_poll_set_mode+0x50>
    4877:	8b 45 0c             	mov    0xc(%ebp),%eax
    487a:	8b 80 9c 00 00 00    	mov    0x9c(%eax),%eax
    4880:	85 c0                	test   %eax,%eax
    4882:	0f 84 b8 00 00 00    	je     4940 <remote_nic_poll_set_mode+0xe0>
    4888:	89 54 24 08          	mov    %edx,0x8(%esp)
    488c:	8b 55 08             	mov    0x8(%ebp),%edx
    488f:	89 5c 24 04          	mov    %ebx,0x4(%esp)
    4893:	89 14 24             	mov    %edx,(%esp)
    4896:	ff d0                	call   *%eax
    4898:	89 44 24 04          	mov    %eax,0x4(%esp)
    489c:	8b 45 10             	mov    0x10(%ebp),%eax
    489f:	89 04 24             	mov    %eax,(%esp)
    48a2:	e8 69 aa 01 00       	call   1f310 <async_answer_0>
    48a7:	83 c4 20             	add    $0x20,%esp
    48aa:	5b                   	pop    %ebx
    48ab:	5e                   	pop    %esi
    48ac:	5d                   	pop    %ebp
    48ad:	c3                   	ret    
    48ae:	66 90                	xchg   %ax,%ax
    48b0:	8d 45 e8             	lea    -0x18(%ebp),%eax
    48b3:	89 44 24 04          	mov    %eax,0x4(%esp)
    48b7:	8d 45 ec             	lea    -0x14(%ebp),%eax
    48ba:	89 04 24             	mov    %eax,(%esp)
    48bd:	e8 de c4 01 00       	call   20da0 <async_data_write_receive>
    48c2:	84 c0                	test   %al,%al
    48c4:	0f 84 96 00 00 00    	je     4960 <remote_nic_poll_set_mode+0x100>
    48ca:	83 7d e8 08          	cmpl   $0x8,-0x18(%ebp)
    48ce:	74 30                	je     4900 <remote_nic_poll_set_mode+0xa0>
    48d0:	8b 45 ec             	mov    -0x14(%ebp),%eax
    48d3:	c7 44 24 04 fd ff ff 	movl   $0xfffffffd,0x4(%esp)
    48da:	ff 
    48db:	89 04 24             	mov    %eax,(%esp)
    48de:	e8 2d aa 01 00       	call   1f310 <async_answer_0>
    48e3:	8b 45 10             	mov    0x10(%ebp),%eax
    48e6:	c7 44 24 04 fd ff ff 	movl   $0xfffffffd,0x4(%esp)
    48ed:	ff 
    48ee:	89 04 24             	mov    %eax,(%esp)
    48f1:	e8 1a aa 01 00       	call   1f310 <async_answer_0>
    48f6:	83 c4 20             	add    $0x20,%esp
    48f9:	5b                   	pop    %ebx
    48fa:	5e                   	pop    %esi
    48fb:	5d                   	pop    %ebp
    48fc:	c3                   	ret    
    48fd:	8d 76 00             	lea    0x0(%esi),%esi
    4900:	8d 75 f0             	lea    -0x10(%ebp),%esi
    4903:	8b 45 ec             	mov    -0x14(%ebp),%eax
    4906:	c7 44 24 08 08 00 00 	movl   $0x8,0x8(%esp)
    490d:	00 
    490e:	89 74 24 04          	mov    %esi,0x4(%esp)
    4912:	89 04 24             	mov    %eax,(%esp)
    4915:	e8 d6 c4 01 00       	call   20df0 <async_data_write_finalize>
    491a:	89 f2                	mov    %esi,%edx
    491c:	85 c0                	test   %eax,%eax
    491e:	0f 84 53 ff ff ff    	je     4877 <remote_nic_poll_set_mode+0x17>
    4924:	8b 45 10             	mov    0x10(%ebp),%eax
    4927:	c7 44 24 04 f2 ff ff 	movl   $0xfffffff2,0x4(%esp)
    492e:	ff 
    492f:	89 04 24             	mov    %eax,(%esp)
    4932:	e8 d9 a9 01 00       	call   1f310 <async_answer_0>
    4937:	e9 6b ff ff ff       	jmp    48a7 <remote_nic_poll_set_mode+0x47>
    493c:	8d 74 26 00          	lea    0x0(%esi,%eiz,1),%esi
    4940:	8b 45 10             	mov    0x10(%ebp),%eax
    4943:	c7 44 24 04 f5 ff ff 	movl   $0xfffffff5,0x4(%esp)
    494a:	ff 
    494b:	89 04 24             	mov    %eax,(%esp)
    494e:	e8 bd a9 01 00       	call   1f310 <async_answer_0>
    4953:	83 c4 20             	add    $0x20,%esp
    4956:	5b                   	pop    %ebx
    4957:	5e                   	pop    %esi
    4958:	5d                   	pop    %ebp
    4959:	c3                   	ret    
    495a:	8d b6 00 00 00 00    	lea    0x0(%esi),%esi
    4960:	8b 45 ec             	mov    -0x14(%ebp),%eax
    4963:	c7 44 24 04 f2 ff ff 	movl   $0xfffffff2,0x4(%esp)
    496a:	ff 
    496b:	89 04 24             	mov    %eax,(%esp)
    496e:	e8 9d a9 01 00       	call   1f310 <async_answer_0>
    4973:	8b 45 10             	mov    0x10(%ebp),%eax
    4976:	c7 44 24 04 f2 ff ff 	movl   $0xfffffff2,0x4(%esp)
    497d:	ff 
    497e:	89 04 24             	mov    %eax,(%esp)
    4981:	e8 8a a9 01 00       	call   1f310 <async_answer_0>
    4986:	e9 1c ff ff ff       	jmp    48a7 <remote_nic_poll_set_mode+0x47>
    498b:	90                   	nop
    498c:	8d 74 26 00          	lea    0x0(%esi,%eiz,1),%esi

00004990 <remote_nic_vlan_set_mask>:
    4990:	55                   	push   %ebp
    4991:	31 d2                	xor    %edx,%edx
    4993:	89 e5                	mov    %esp,%ebp
    4995:	53                   	push   %ebx
    4996:	81 ec 24 02 00 00    	sub    $0x224,%esp
    499c:	8b 45 14             	mov    0x14(%ebp),%eax
    499f:	8b 40 08             	mov    0x8(%eax),%eax
    49a2:	85 c0                	test   %eax,%eax
    49a4:	75 32                	jne    49d8 <remote_nic_vlan_set_mask+0x48>
    49a6:	8b 45 0c             	mov    0xc(%ebp),%eax
    49a9:	8b 40 70             	mov    0x70(%eax),%eax
    49ac:	85 c0                	test   %eax,%eax
    49ae:	0f 84 cc 00 00 00    	je     4a80 <remote_nic_vlan_set_mask+0xf0>
    49b4:	89 54 24 04          	mov    %edx,0x4(%esp)
    49b8:	8b 55 08             	mov    0x8(%ebp),%edx
    49bb:	89 14 24             	mov    %edx,(%esp)
    49be:	ff d0                	call   *%eax
    49c0:	89 44 24 04          	mov    %eax,0x4(%esp)
    49c4:	8b 45 10             	mov    0x10(%ebp),%eax
    49c7:	89 04 24             	mov    %eax,(%esp)
    49ca:	e8 41 a9 01 00       	call   1f310 <async_answer_0>
    49cf:	81 c4 24 02 00 00    	add    $0x224,%esp
    49d5:	5b                   	pop    %ebx
    49d6:	5d                   	pop    %ebp
    49d7:	c3                   	ret    
    49d8:	8d 85 f4 fd ff ff    	lea    -0x20c(%ebp),%eax
    49de:	89 44 24 04          	mov    %eax,0x4(%esp)
    49e2:	8d 85 f0 fd ff ff    	lea    -0x210(%ebp),%eax
    49e8:	89 04 24             	mov    %eax,(%esp)
    49eb:	e8 b0 c3 01 00       	call   20da0 <async_data_write_receive>
    49f0:	84 c0                	test   %al,%al
    49f2:	0f 84 a8 00 00 00    	je     4aa0 <remote_nic_vlan_set_mask+0x110>
    49f8:	81 bd f4 fd ff ff 00 	cmpl   $0x200,-0x20c(%ebp)
    49ff:	02 00 00 
    4a02:	74 34                	je     4a38 <remote_nic_vlan_set_mask+0xa8>
    4a04:	8b 85 f0 fd ff ff    	mov    -0x210(%ebp),%eax
    4a0a:	c7 44 24 04 fd ff ff 	movl   $0xfffffffd,0x4(%esp)
    4a11:	ff 
    4a12:	89 04 24             	mov    %eax,(%esp)
    4a15:	e8 f6 a8 01 00       	call   1f310 <async_answer_0>
    4a1a:	8b 45 10             	mov    0x10(%ebp),%eax
    4a1d:	c7 44 24 04 fd ff ff 	movl   $0xfffffffd,0x4(%esp)
    4a24:	ff 
    4a25:	89 04 24             	mov    %eax,(%esp)
    4a28:	e8 e3 a8 01 00       	call   1f310 <async_answer_0>
    4a2d:	81 c4 24 02 00 00    	add    $0x224,%esp
    4a33:	5b                   	pop    %ebx
    4a34:	5d                   	pop    %ebp
    4a35:	c3                   	ret    
    4a36:	66 90                	xchg   %ax,%ax
    4a38:	8d 9d f8 fd ff ff    	lea    -0x208(%ebp),%ebx
    4a3e:	8b 85 f0 fd ff ff    	mov    -0x210(%ebp),%eax
    4a44:	c7 44 24 08 00 02 00 	movl   $0x200,0x8(%esp)
    4a4b:	00 
    4a4c:	89 5c 24 04          	mov    %ebx,0x4(%esp)
    4a50:	89 04 24             	mov    %eax,(%esp)
    4a53:	e8 98 c3 01 00       	call   20df0 <async_data_write_finalize>
    4a58:	89 da                	mov    %ebx,%edx
    4a5a:	85 c0                	test   %eax,%eax
    4a5c:	0f 84 44 ff ff ff    	je     49a6 <remote_nic_vlan_set_mask+0x16>
    4a62:	8b 45 10             	mov    0x10(%ebp),%eax
    4a65:	c7 44 24 04 f2 ff ff 	movl   $0xfffffff2,0x4(%esp)
    4a6c:	ff 
    4a6d:	89 04 24             	mov    %eax,(%esp)
    4a70:	e8 9b a8 01 00       	call   1f310 <async_answer_0>
    4a75:	e9 55 ff ff ff       	jmp    49cf <remote_nic_vlan_set_mask+0x3f>
    4a7a:	8d b6 00 00 00 00    	lea    0x0(%esi),%esi
    4a80:	8b 45 10             	mov    0x10(%ebp),%eax
    4a83:	c7 44 24 04 f5 ff ff 	movl   $0xfffffff5,0x4(%esp)
    4a8a:	ff 
    4a8b:	89 04 24             	mov    %eax,(%esp)
    4a8e:	e8 7d a8 01 00       	call   1f310 <async_answer_0>
    4a93:	81 c4 24 02 00 00    	add    $0x224,%esp
    4a99:	5b                   	pop    %ebx
    4a9a:	5d                   	pop    %ebp
    4a9b:	c3                   	ret    
    4a9c:	8d 74 26 00          	lea    0x0(%esi,%eiz,1),%esi
    4aa0:	8b 85 f0 fd ff ff    	mov    -0x210(%ebp),%eax
    4aa6:	c7 44 24 04 f2 ff ff 	movl   $0xfffffff2,0x4(%esp)
    4aad:	ff 
    4aae:	89 04 24             	mov    %eax,(%esp)
    4ab1:	e8 5a a8 01 00       	call   1f310 <async_answer_0>
    4ab6:	8b 45 10             	mov    0x10(%ebp),%eax
    4ab9:	c7 44 24 04 f2 ff ff 	movl   $0xfffffff2,0x4(%esp)
    4ac0:	ff 
    4ac1:	89 04 24             	mov    %eax,(%esp)
    4ac4:	e8 47 a8 01 00       	call   1f310 <async_answer_0>
    4ac9:	e9 01 ff ff ff       	jmp    49cf <remote_nic_vlan_set_mask+0x3f>
    4ace:	66 90                	xchg   %ax,%ax

00004ad0 <remote_nic_set_address>:
    4ad0:	55                   	push   %ebp
    4ad1:	89 e5                	mov    %esp,%ebp
    4ad3:	53                   	push   %ebx
    4ad4:	83 ec 24             	sub    $0x24,%esp
    4ad7:	8d 45 e8             	lea    -0x18(%ebp),%eax
    4ada:	89 44 24 04          	mov    %eax,0x4(%esp)
    4ade:	8d 45 ec             	lea    -0x14(%ebp),%eax
    4ae1:	89 04 24             	mov    %eax,(%esp)
    4ae4:	e8 b7 c2 01 00       	call   20da0 <async_data_write_receive>
    4ae9:	84 c0                	test   %al,%al
    4aeb:	0f 84 87 00 00 00    	je     4b78 <remote_nic_set_address+0xa8>
    4af1:	8b 45 e8             	mov    -0x18(%ebp),%eax
    4af4:	83 f8 06             	cmp    $0x6,%eax
    4af7:	77 4f                	ja     4b48 <remote_nic_set_address+0x78>
    4af9:	89 44 24 08          	mov    %eax,0x8(%esp)
    4afd:	8d 5d f2             	lea    -0xe(%ebp),%ebx
    4b00:	8b 45 ec             	mov    -0x14(%ebp),%eax
    4b03:	89 5c 24 04          	mov    %ebx,0x4(%esp)
    4b07:	89 04 24             	mov    %eax,(%esp)
    4b0a:	e8 e1 c2 01 00       	call   20df0 <async_data_write_finalize>
    4b0f:	85 c0                	test   %eax,%eax
    4b11:	0f 85 91 00 00 00    	jne    4ba8 <remote_nic_set_address+0xd8>
    4b17:	8b 45 0c             	mov    0xc(%ebp),%eax
    4b1a:	8b 40 14             	mov    0x14(%eax),%eax
    4b1d:	85 c0                	test   %eax,%eax
    4b1f:	0f 84 a3 00 00 00    	je     4bc8 <remote_nic_set_address+0xf8>
    4b25:	8b 55 08             	mov    0x8(%ebp),%edx
    4b28:	89 5c 24 04          	mov    %ebx,0x4(%esp)
    4b2c:	89 14 24             	mov    %edx,(%esp)
    4b2f:	ff d0                	call   *%eax
    4b31:	89 44 24 04          	mov    %eax,0x4(%esp)
    4b35:	8b 45 10             	mov    0x10(%ebp),%eax
    4b38:	89 04 24             	mov    %eax,(%esp)
    4b3b:	e8 d0 a7 01 00       	call   1f310 <async_answer_0>
    4b40:	83 c4 24             	add    $0x24,%esp
    4b43:	5b                   	pop    %ebx
    4b44:	5d                   	pop    %ebp
    4b45:	c3                   	ret    
    4b46:	66 90                	xchg   %ax,%ax
    4b48:	8b 45 ec             	mov    -0x14(%ebp),%eax
    4b4b:	c7 44 24 04 fd ff ff 	movl   $0xfffffffd,0x4(%esp)
    4b52:	ff 
    4b53:	89 04 24             	mov    %eax,(%esp)
    4b56:	e8 b5 a7 01 00       	call   1f310 <async_answer_0>
    4b5b:	8b 45 10             	mov    0x10(%ebp),%eax
    4b5e:	c7 44 24 04 fd ff ff 	movl   $0xfffffffd,0x4(%esp)
    4b65:	ff 
    4b66:	89 04 24             	mov    %eax,(%esp)
    4b69:	e8 a2 a7 01 00       	call   1f310 <async_answer_0>
    4b6e:	83 c4 24             	add    $0x24,%esp
    4b71:	5b                   	pop    %ebx
    4b72:	5d                   	pop    %ebp
    4b73:	c3                   	ret    
    4b74:	8d 74 26 00          	lea    0x0(%esi,%eiz,1),%esi
    4b78:	8b 45 ec             	mov    -0x14(%ebp),%eax
    4b7b:	c7 44 24 04 f2 ff ff 	movl   $0xfffffff2,0x4(%esp)
    4b82:	ff 
    4b83:	89 04 24             	mov    %eax,(%esp)
    4b86:	e8 85 a7 01 00       	call   1f310 <async_answer_0>
    4b8b:	8b 45 10             	mov    0x10(%ebp),%eax
    4b8e:	c7 44 24 04 f2 ff ff 	movl   $0xfffffff2,0x4(%esp)
    4b95:	ff 
    4b96:	89 04 24             	mov    %eax,(%esp)
    4b99:	e8 72 a7 01 00       	call   1f310 <async_answer_0>
    4b9e:	83 c4 24             	add    $0x24,%esp
    4ba1:	5b                   	pop    %ebx
    4ba2:	5d                   	pop    %ebp
    4ba3:	c3                   	ret    
    4ba4:	8d 74 26 00          	lea    0x0(%esi,%eiz,1),%esi
    4ba8:	8b 45 10             	mov    0x10(%ebp),%eax
    4bab:	c7 44 24 04 f2 ff ff 	movl   $0xfffffff2,0x4(%esp)
    4bb2:	ff 
    4bb3:	89 04 24             	mov    %eax,(%esp)
    4bb6:	e8 55 a7 01 00       	call   1f310 <async_answer_0>
    4bbb:	83 c4 24             	add    $0x24,%esp
    4bbe:	5b                   	pop    %ebx
    4bbf:	5d                   	pop    %ebp
    4bc0:	c3                   	ret    
    4bc1:	8d b4 26 00 00 00 00 	lea    0x0(%esi,%eiz,1),%esi
    4bc8:	8b 45 10             	mov    0x10(%ebp),%eax
    4bcb:	c7 44 24 04 f5 ff ff 	movl   $0xfffffff5,0x4(%esp)
    4bd2:	ff 
    4bd3:	89 04 24             	mov    %eax,(%esp)
    4bd6:	e8 35 a7 01 00       	call   1f310 <async_answer_0>
    4bdb:	e9 60 ff ff ff       	jmp    4b40 <remote_nic_set_address+0x70>

00004be0 <remote_nic_poll_get_mode>:
    4be0:	55                   	push   %ebp
    4be1:	89 e5                	mov    %esp,%ebp
    4be3:	57                   	push   %edi
    4be4:	56                   	push   %esi
    4be5:	53                   	push   %ebx
    4be6:	83 ec 3c             	sub    $0x3c,%esp
    4be9:	8b 45 0c             	mov    0xc(%ebp),%eax
    4bec:	8b 80 98 00 00 00    	mov    0x98(%eax),%eax
    4bf2:	85 c0                	test   %eax,%eax
    4bf4:	0f 84 ee 00 00 00    	je     4ce8 <remote_nic_poll_get_mode+0x108>
    4bfa:	8b 55 14             	mov    0x14(%ebp),%edx
    4bfd:	8d 5d e0             	lea    -0x20(%ebp),%ebx
    4c00:	c7 45 d4 00 00 00 00 	movl   $0x0,-0x2c(%ebp)
    4c07:	c7 45 e0 00 00 00 00 	movl   $0x0,-0x20(%ebp)
    4c0e:	8b 72 08             	mov    0x8(%edx),%esi
    4c11:	8d 55 d4             	lea    -0x2c(%ebp),%edx
    4c14:	89 54 24 04          	mov    %edx,0x4(%esp)
    4c18:	8b 55 08             	mov    0x8(%ebp),%edx
    4c1b:	c7 45 e4 00 00 00 00 	movl   $0x0,-0x1c(%ebp)
    4c22:	89 5c 24 08          	mov    %ebx,0x8(%esp)
    4c26:	89 14 24             	mov    %edx,(%esp)
    4c29:	ff d0                	call   *%eax
    4c2b:	89 c7                	mov    %eax,%edi
    4c2d:	85 c0                	test   %eax,%eax
    4c2f:	75 67                	jne    4c98 <remote_nic_poll_get_mode+0xb8>
    4c31:	85 f6                	test   %esi,%esi
    4c33:	74 63                	je     4c98 <remote_nic_poll_get_mode+0xb8>
    4c35:	8d 45 d8             	lea    -0x28(%ebp),%eax
    4c38:	89 44 24 04          	mov    %eax,0x4(%esp)
    4c3c:	8d 45 dc             	lea    -0x24(%ebp),%eax
    4c3f:	89 04 24             	mov    %eax,(%esp)
    4c42:	e8 39 bc 01 00       	call   20880 <async_data_read_receive>
    4c47:	84 c0                	test   %al,%al
    4c49:	74 6d                	je     4cb8 <remote_nic_poll_get_mode+0xd8>
    4c4b:	83 7d d8 08          	cmpl   $0x8,-0x28(%ebp)
    4c4f:	74 2f                	je     4c80 <remote_nic_poll_get_mode+0xa0>
    4c51:	8b 45 dc             	mov    -0x24(%ebp),%eax
    4c54:	c7 44 24 04 fd ff ff 	movl   $0xfffffffd,0x4(%esp)
    4c5b:	ff 
    4c5c:	89 04 24             	mov    %eax,(%esp)
    4c5f:	e8 ac a6 01 00       	call   1f310 <async_answer_0>
    4c64:	8b 45 10             	mov    0x10(%ebp),%eax
    4c67:	c7 44 24 04 fd ff ff 	movl   $0xfffffffd,0x4(%esp)
    4c6e:	ff 
    4c6f:	89 04 24             	mov    %eax,(%esp)
    4c72:	e8 99 a6 01 00       	call   1f310 <async_answer_0>
    4c77:	83 c4 3c             	add    $0x3c,%esp
    4c7a:	5b                   	pop    %ebx
    4c7b:	5e                   	pop    %esi
    4c7c:	5f                   	pop    %edi
    4c7d:	5d                   	pop    %ebp
    4c7e:	c3                   	ret    
    4c7f:	90                   	nop
    4c80:	8b 45 dc             	mov    -0x24(%ebp),%eax
    4c83:	c7 44 24 08 08 00 00 	movl   $0x8,0x8(%esp)
    4c8a:	00 
    4c8b:	89 5c 24 04          	mov    %ebx,0x4(%esp)
    4c8f:	89 04 24             	mov    %eax,(%esp)
    4c92:	e8 49 bc 01 00       	call   208e0 <async_data_read_finalize>
    4c97:	90                   	nop
    4c98:	8b 45 d4             	mov    -0x2c(%ebp),%eax
    4c9b:	89 7c 24 04          	mov    %edi,0x4(%esp)
    4c9f:	89 44 24 08          	mov    %eax,0x8(%esp)
    4ca3:	8b 45 10             	mov    0x10(%ebp),%eax
    4ca6:	89 04 24             	mov    %eax,(%esp)
    4ca9:	e8 a2 a6 01 00       	call   1f350 <async_answer_1>
    4cae:	83 c4 3c             	add    $0x3c,%esp
    4cb1:	5b                   	pop    %ebx
    4cb2:	5e                   	pop    %esi
    4cb3:	5f                   	pop    %edi
    4cb4:	5d                   	pop    %ebp
    4cb5:	c3                   	ret    
    4cb6:	66 90                	xchg   %ax,%ax
    4cb8:	8b 45 dc             	mov    -0x24(%ebp),%eax
    4cbb:	c7 44 24 04 f2 ff ff 	movl   $0xfffffff2,0x4(%esp)
    4cc2:	ff 
    4cc3:	89 04 24             	mov    %eax,(%esp)
    4cc6:	e8 45 a6 01 00       	call   1f310 <async_answer_0>
    4ccb:	8b 45 10             	mov    0x10(%ebp),%eax
    4cce:	c7 44 24 04 f2 ff ff 	movl   $0xfffffff2,0x4(%esp)
    4cd5:	ff 
    4cd6:	89 04 24             	mov    %eax,(%esp)
    4cd9:	e8 32 a6 01 00       	call   1f310 <async_answer_0>
    4cde:	83 c4 3c             	add    $0x3c,%esp
    4ce1:	5b                   	pop    %ebx
    4ce2:	5e                   	pop    %esi
    4ce3:	5f                   	pop    %edi
    4ce4:	5d                   	pop    %ebp
    4ce5:	c3                   	ret    
    4ce6:	66 90                	xchg   %ax,%ax
    4ce8:	8b 45 10             	mov    0x10(%ebp),%eax
    4ceb:	c7 44 24 04 f5 ff ff 	movl   $0xfffffff5,0x4(%esp)
    4cf2:	ff 
    4cf3:	89 04 24             	mov    %eax,(%esp)
    4cf6:	e8 15 a6 01 00       	call   1f310 <async_answer_0>
    4cfb:	83 c4 3c             	add    $0x3c,%esp
    4cfe:	5b                   	pop    %ebx
    4cff:	5e                   	pop    %esi
    4d00:	5f                   	pop    %edi
    4d01:	5d                   	pop    %ebp
    4d02:	c3                   	ret    
    4d03:	8d b6 00 00 00 00    	lea    0x0(%esi),%esi
    4d09:	8d bc 27 00 00 00 00 	lea    0x0(%edi,%eiz,1),%edi

00004d10 <remote_nic_wol_virtue_get_caps>:
    4d10:	55                   	push   %ebp
    4d11:	89 e5                	mov    %esp,%ebp
    4d13:	83 ec 28             	sub    $0x28,%esp
    4d16:	8b 45 0c             	mov    0xc(%ebp),%eax
    4d19:	8b 80 88 00 00 00    	mov    0x88(%eax),%eax
    4d1f:	85 c0                	test   %eax,%eax
    4d21:	74 3d                	je     4d60 <remote_nic_wol_virtue_get_caps+0x50>
    4d23:	8d 55 f4             	lea    -0xc(%ebp),%edx
    4d26:	c7 45 f4 ff ff ff ff 	movl   $0xffffffff,-0xc(%ebp)
    4d2d:	89 54 24 08          	mov    %edx,0x8(%esp)
    4d31:	8b 55 14             	mov    0x14(%ebp),%edx
    4d34:	8b 52 08             	mov    0x8(%edx),%edx
    4d37:	89 54 24 04          	mov    %edx,0x4(%esp)
    4d3b:	8b 55 08             	mov    0x8(%ebp),%edx
    4d3e:	89 14 24             	mov    %edx,(%esp)
    4d41:	ff d0                	call   *%eax
    4d43:	8b 55 f4             	mov    -0xc(%ebp),%edx
    4d46:	89 44 24 04          	mov    %eax,0x4(%esp)
    4d4a:	8b 45 10             	mov    0x10(%ebp),%eax
    4d4d:	89 54 24 08          	mov    %edx,0x8(%esp)
    4d51:	89 04 24             	mov    %eax,(%esp)
    4d54:	e8 f7 a5 01 00       	call   1f350 <async_answer_1>
    4d59:	c9                   	leave  
    4d5a:	c3                   	ret    
    4d5b:	90                   	nop
    4d5c:	8d 74 26 00          	lea    0x0(%esi,%eiz,1),%esi
    4d60:	8b 45 10             	mov    0x10(%ebp),%eax
    4d63:	c7 44 24 04 f5 ff ff 	movl   $0xfffffff5,0x4(%esp)
    4d6a:	ff 
    4d6b:	89 04 24             	mov    %eax,(%esp)
    4d6e:	e8 9d a5 01 00       	call   1f310 <async_answer_0>
    4d73:	c9                   	leave  
    4d74:	c3                   	ret    
    4d75:	8d 74 26 00          	lea    0x0(%esi,%eiz,1),%esi
    4d79:	8d bc 27 00 00 00 00 	lea    0x0(%edi,%eiz,1),%edi

00004d80 <remote_nic_defective_get_mode>:
    4d80:	55                   	push   %ebp
    4d81:	89 e5                	mov    %esp,%ebp
    4d83:	83 ec 28             	sub    $0x28,%esp
    4d86:	8b 45 0c             	mov    0xc(%ebp),%eax
    4d89:	8b 40 5c             	mov    0x5c(%eax),%eax
    4d8c:	85 c0                	test   %eax,%eax
    4d8e:	74 30                	je     4dc0 <remote_nic_defective_get_mode+0x40>
    4d90:	8d 55 f4             	lea    -0xc(%ebp),%edx
    4d93:	c7 45 f4 00 00 00 00 	movl   $0x0,-0xc(%ebp)
    4d9a:	89 54 24 04          	mov    %edx,0x4(%esp)
    4d9e:	8b 55 08             	mov    0x8(%ebp),%edx
    4da1:	89 14 24             	mov    %edx,(%esp)
    4da4:	ff d0                	call   *%eax
    4da6:	8b 55 f4             	mov    -0xc(%ebp),%edx
    4da9:	89 44 24 04          	mov    %eax,0x4(%esp)
    4dad:	8b 45 10             	mov    0x10(%ebp),%eax
    4db0:	89 54 24 08          	mov    %edx,0x8(%esp)
    4db4:	89 04 24             	mov    %eax,(%esp)
    4db7:	e8 94 a5 01 00       	call   1f350 <async_answer_1>
    4dbc:	c9                   	leave  
    4dbd:	c3                   	ret    
    4dbe:	66 90                	xchg   %ax,%ax
    4dc0:	8b 45 10             	mov    0x10(%ebp),%eax
    4dc3:	c7 44 24 04 f5 ff ff 	movl   $0xfffffff5,0x4(%esp)
    4dca:	ff 
    4dcb:	89 04 24             	mov    %eax,(%esp)
    4dce:	e8 3d a5 01 00       	call   1f310 <async_answer_0>
    4dd3:	c9                   	leave  
    4dd4:	c3                   	ret    
    4dd5:	8d 74 26 00          	lea    0x0(%esi,%eiz,1),%esi
    4dd9:	8d bc 27 00 00 00 00 	lea    0x0(%edi,%eiz,1),%edi

00004de0 <remote_nic_broadcast_get_mode>:
    4de0:	55                   	push   %ebp
    4de1:	89 e5                	mov    %esp,%ebp
    4de3:	83 ec 28             	sub    $0x28,%esp
    4de6:	8b 45 0c             	mov    0xc(%ebp),%eax
    4de9:	8b 40 54             	mov    0x54(%eax),%eax
    4dec:	85 c0                	test   %eax,%eax
    4dee:	74 30                	je     4e20 <remote_nic_broadcast_get_mode+0x40>
    4df0:	8d 55 f4             	lea    -0xc(%ebp),%edx
    4df3:	c7 45 f4 02 00 00 00 	movl   $0x2,-0xc(%ebp)
    4dfa:	89 54 24 04          	mov    %edx,0x4(%esp)
